ARM GAS  /tmp/cckuoplO.s 			page 1


   1              		.syntax unified
   2              		.cpu cortex-m4
   3              		.eabi_attribute 27, 1
   4              		.eabi_attribute 28, 1
   5              		.fpu fpv4-sp-d16
   6              		.eabi_attribute 20, 1
   7              		.eabi_attribute 21, 1
   8              		.eabi_attribute 23, 3
   9              		.eabi_attribute 24, 1
  10              		.eabi_attribute 25, 1
  11              		.eabi_attribute 26, 1
  12              		.eabi_attribute 30, 4
  13              		.eabi_attribute 34, 1
  14              		.eabi_attribute 18, 4
  15              		.thumb
  16              		.file	"board.c"
  17              		.text
  18              	.Ltext0:
  19              		.cfi_sections	.debug_frame
  20              		.section	.text.__early_init,"ax",%progbits
  21              		.align	1
  22              		.global	__early_init
  23              		.thumb
  24              		.thumb_func
  25              		.type	__early_init, %function
  26              	__early_init:
  27              	.LFB277:
  28              		.file 1 "../../libraries/AP_HAL_ChibiOS/hwdef/common/board.c"
  29              		.loc 1 60 0
  30              		.cfi_startproc
  31              		@ args = 0, pretend = 0, frame = 0
  32              		@ frame_needed = 0, uses_anonymous_args = 0
  33              		@ link register save eliminated.
  34              		.loc 1 61 0
  35 0000 FFF7FEBF 		b	stm32_clock_init
  36              	.LVL0:
  37              		.cfi_endproc
  38              	.LFE277:
  39              		.size	__early_init, .-__early_init
  40              		.section	.text.__late_init,"ax",%progbits
  41              		.align	1
  42              		.global	__late_init
  43              		.thumb
  44              		.thumb_func
  45              		.type	__late_init, %function
  46              	__late_init:
  47              	.LFB278:
  48              		.loc 1 64 0
  49              		.cfi_startproc
  50              		@ args = 0, pretend = 0, frame = 0
  51              		@ frame_needed = 0, uses_anonymous_args = 0
  52 0000 08B5     		push	{r3, lr}
  53              		.cfi_def_cfa_offset 8
  54              		.cfi_offset 3, -8
  55              		.cfi_offset 14, -4
  56              		.loc 1 65 0
  57 0002 FFF7FEFF 		bl	halInit
ARM GAS  /tmp/cckuoplO.s 			page 2


  58              	.LVL1:
  59              		.loc 1 66 0
  60 0006 FFF7FEFF 		bl	chSysInit
  61              	.LVL2:
  62              		.loc 1 70 0
  63 000a BDE80840 		pop	{r3, lr}
  64              		.cfi_restore 14
  65              		.cfi_restore 3
  66              		.cfi_def_cfa_offset 0
  67              		.loc 1 68 0
  68 000e FFF7FEBF 		b	setup_usb_strings
  69              	.LVL3:
  70              		.cfi_endproc
  71              	.LFE278:
  72              		.size	__late_init, .-__late_init
  73              		.section	.text.mmc_lld_is_card_inserted,"ax",%progbits
  74              		.align	1
  75              		.global	mmc_lld_is_card_inserted
  76              		.thumb
  77              		.thumb_func
  78              		.type	mmc_lld_is_card_inserted, %function
  79              	mmc_lld_is_card_inserted:
  80              	.LFB279:
  81              		.loc 1 98 0
  82              		.cfi_startproc
  83              		@ args = 0, pretend = 0, frame = 0
  84              		@ frame_needed = 0, uses_anonymous_args = 0
  85              		@ link register save eliminated.
  86              	.LVL4:
  87              		.loc 1 102 0
  88 0000 0120     		movs	r0, #1
  89              	.LVL5:
  90 0002 7047     		bx	lr
  91              		.cfi_endproc
  92              	.LFE279:
  93              		.size	mmc_lld_is_card_inserted, .-mmc_lld_is_card_inserted
  94              		.section	.text.mmc_lld_is_write_protected,"ax",%progbits
  95              		.align	1
  96              		.global	mmc_lld_is_write_protected
  97              		.thumb
  98              		.thumb_func
  99              		.type	mmc_lld_is_write_protected, %function
 100              	mmc_lld_is_write_protected:
 101              	.LFB280:
 102              		.loc 1 107 0
 103              		.cfi_startproc
 104              		@ args = 0, pretend = 0, frame = 0
 105              		@ frame_needed = 0, uses_anonymous_args = 0
 106              		@ link register save eliminated.
 107              	.LVL6:
 108              		.loc 1 111 0
 109 0000 0020     		movs	r0, #0
 110              	.LVL7:
 111 0002 7047     		bx	lr
 112              		.cfi_endproc
 113              	.LFE280:
 114              		.size	mmc_lld_is_write_protected, .-mmc_lld_is_write_protected
ARM GAS  /tmp/cckuoplO.s 			page 3


 115              		.section	.text.boardInit,"ax",%progbits
 116              		.align	1
 117              		.global	boardInit
 118              		.thumb
 119              		.thumb_func
 120              		.type	boardInit, %function
 121              	boardInit:
 122              	.LFB281:
 123              		.loc 1 118 0
 124              		.cfi_startproc
 125              		@ args = 0, pretend = 0, frame = 0
 126              		@ frame_needed = 0, uses_anonymous_args = 0
 127              		@ link register save eliminated.
 128 0000 7047     		bx	lr
 129              		.cfi_endproc
 130              	.LFE281:
 131              		.size	boardInit, .-boardInit
 132              		.global	pal_default_config
 133              		.section	.rodata.pal_default_config,"a",%progbits
 134              		.align	2
 135              		.type	pal_default_config, %object
 136              		.size	pal_default_config, 252
 137              	pal_default_config:
 138 0000 AAA9802A 		.word	713075114
 139 0004 00020000 		.word	512
 140 0008 AAAAAAAA 		.word	-1431655766
 141 000c 00010000 		.word	256
 142 0010 FFFF0000 		.word	65535
 143 0014 11115055 		.word	1431310609
 144 0018 00A00A00 		.word	696320
 145 001c 00A0AAA9 		.word	-1448435712
 146 0020 000F0000 		.word	3840
 147 0024 AAAAAAA8 		.word	-1465210198
 148 0028 05500001 		.word	16797701
 149 002c FFFF0000 		.word	65535
 150 0030 00000077 		.word	1996488704
 151 0034 44445055 		.word	1431323716
 152 0038 FF8FA002 		.word	44077055
 153 003c 00000000 		.word	0
 154 0040 AAAAAAAA 		.word	-1431655766
 155 0044 00405001 		.word	22036480
 156 0048 7FFF0000 		.word	65407
 157 004c 00000030 		.word	805306368
 158 0050 00880800 		.word	559104
 159 0054 20280AAA 		.word	-1442174944
 160 0058 00000000 		.word	0
 161 005c AAAAAAAA 		.word	-1431655766
 162 0060 10140500 		.word	332816
 163 0064 FFFF0000 		.word	65535
 164 0068 00087007 		.word	124782592
 165 006c 77002222 		.word	572653687
 166 0070 55088868 		.word	1753745493
 167 0074 00000000 		.word	0
 168 0078 AAAAAAAA 		.word	-1431655766
 169 007c 00000040 		.word	1073741824
 170 0080 FFFF0000 		.word	65535
 171 0084 00003000 		.word	3145728
ARM GAS  /tmp/cckuoplO.s 			page 4


 172 0088 10101001 		.word	17829904
 173 008c 00000000 		.word	0
 174 0090 00000000 		.word	0
 175 0094 AAAAAAAA 		.word	-1431655766
 176 0098 00000000 		.word	0
 177 009c FFFF0000 		.word	65535
 178 00a0 00000000 		.word	0
 179 00a4 00000000 		.word	0
 180 00a8 00000000 		.word	0
 181 00ac 00000000 		.word	0
 182 00b0 AAAAAAAA 		.word	-1431655766
 183 00b4 00000000 		.word	0
 184 00b8 FFFF0000 		.word	65535
 185 00bc 00000000 		.word	0
 186 00c0 00000000 		.word	0
 187 00c4 00000000 		.word	0
 188 00c8 00000000 		.word	0
 189 00cc 0A000000 		.word	10
 190 00d0 00000000 		.word	0
 191 00d4 03000000 		.word	3
 192 00d8 00000000 		.word	0
 193 00dc 00000000 		.word	0
 194 00e0 00000000 		.word	0
 195 00e4 00000000 		.word	0
 196 00e8 00000000 		.word	0
 197 00ec 00000000 		.word	0
 198 00f0 00000000 		.word	0
 199 00f4 00000000 		.word	0
 200 00f8 00000000 		.word	0
 201              		.text
 202              	.Letext0:
 203              		.file 2 "/usr/lib/gcc/arm-none-eabi/4.9.3/include/stddef.h"
 204              		.file 3 "/usr/include/newlib/machine/_default_types.h"
 205              		.file 4 "/usr/include/newlib/sys/_stdint.h"
 206              		.file 5 "../../modules/ChibiOS/os/common/ports/ARMCMx/compilers/GCC/chtypes.h"
 207              		.file 6 "../../modules/ChibiOS/os/rt/include/chsystypes.h"
 208              		.file 7 "../../modules/ChibiOS/os/rt/include/chschd.h"
 209              		.file 8 "../../modules/ChibiOS/os/common/ext/CMSIS/ST/STM32F4xx/stm32f407xx.h"
 210              		.file 9 "../../modules/ChibiOS/os/common/ports/ARMCMx/chcore.h"
 211              		.file 10 "../../modules/ChibiOS/os/common/ports/ARMCMx/chcore_v7m.h"
 212              		.file 11 "../../modules/ChibiOS/os/rt/include/chtm.h"
 213              		.file 12 "../../modules/ChibiOS/os/rt/include/chstats.h"
 214              		.file 13 "../../modules/ChibiOS/os/rt/include/chsem.h"
 215              		.file 14 "../../modules/ChibiOS/os/rt/include/chmtx.h"
 216              		.file 15 "../../modules/ChibiOS/os/hal/ports/STM32/LLD/DMAv2/stm32_dma.h"
 217              		.file 16 "../../modules/ChibiOS/os/hal/include/hal_ioblock.h"
 218              		.file 17 "../../modules/ChibiOS/os/hal/ports/STM32/LLD/GPIOv2/hal_pal_lld.h"
 219              		.file 18 "../../modules/ChibiOS/os/hal/include/hal_spi.h"
 220              		.file 19 "../../modules/ChibiOS/os/hal/ports/STM32/LLD/SPIv1/hal_spi_lld.h"
 221              		.file 20 "../../modules/ChibiOS/os/hal/include/hal_mmc_spi.h"
 222              		.file 21 "../../modules/ChibiOS/os/common/ext/CMSIS/include/core_cm4.h"
 223              		.file 22 "../../modules/ChibiOS/os/hal/ports/STM32/STM32F4xx/hal_lld.h"
 224              		.file 23 "../../modules/ChibiOS/os/hal/include/hal.h"
 225              		.file 24 "../../modules/ChibiOS/os/rt/include/chsys.h"
 226              		.file 25 "../../libraries/AP_HAL_ChibiOS/hwdef/common/usbcfg.h"