ARM GAS  /tmp/cc7NwbHs.s 			page 1


   1              		.syntax unified
   2              		.cpu cortex-m4
   3              		.eabi_attribute 27, 1
   4              		.eabi_attribute 28, 1
   5              		.fpu fpv4-sp-d16
   6              		.eabi_attribute 20, 1
   7              		.eabi_attribute 21, 1
   8              		.eabi_attribute 23, 3
   9              		.eabi_attribute 24, 1
  10              		.eabi_attribute 25, 1
  11              		.eabi_attribute 26, 1
  12              		.eabi_attribute 30, 4
  13              		.eabi_attribute 34, 1
  14              		.eabi_attribute 18, 4
  15              		.thumb
  16              		.file	"ch.cpp"
  17              		.text
  18              	.Ltext0:
  19              		.cfi_sections	.debug_frame
  20              		.section	.text.startup._ZN10chibios_rt10BaseThread4mainEv,"ax",%progbits
  21              		.align	1
  22              		.global	_ZN10chibios_rt10BaseThread4mainEv
  23              		.thumb
  24              		.thumb_func
  25              		.type	_ZN10chibios_rt10BaseThread4mainEv, %function
  26              	_ZN10chibios_rt10BaseThread4mainEv:
  27              		.fnstart
  28              	.LFB298:
  29              		.file 1 "../../modules/ChibiOS/os/various/cpp_wrappers/ch.cpp"
  30              		.loc 1 163 0
  31              		.cfi_startproc
  32              		@ args = 0, pretend = 0, frame = 0
  33              		@ frame_needed = 0, uses_anonymous_args = 0
  34              		@ link register save eliminated.
  35              	.LVL0:
  36 0000 7047     		bx	lr
  37              		.cfi_endproc
  38              	.LFE298:
  39              		.cantunwind
  40              		.fnend
  41              		.size	_ZN10chibios_rt10BaseThread4mainEv, .-_ZN10chibios_rt10BaseThread4mainEv
  42              		.section	.text._ZN10chibios_rt10BaseThread5startEm,"ax",%progbits
  43              		.align	1
  44              		.global	_ZN10chibios_rt10BaseThread5startEm
  45              		.thumb
  46              		.thumb_func
  47              		.type	_ZN10chibios_rt10BaseThread5startEm, %function
  48              	_ZN10chibios_rt10BaseThread5startEm:
  49              		.fnstart
  50              	.LFB299:
  51              		.loc 1 167 0
  52              		.cfi_startproc
  53              		@ args = 0, pretend = 0, frame = 0
  54              		@ frame_needed = 0, uses_anonymous_args = 0
  55              		@ link register save eliminated.
  56              	.LVL1:
  57              	.LBB53:
ARM GAS  /tmp/cc7NwbHs.s 			page 2


  58              	.LBB54:
  59              		.file 2 "../../modules/ChibiOS/os/various/cpp_wrappers/ch.hpp"
  60              		.loc 2 397 0
  61 0000 024A     		ldr	r2, .L3
  62              	.LVL2:
  63 0002 0260     		str	r2, [r0]
  64 0004 4A68     		ldr	r2, [r1, #4]
  65 0006 4260     		str	r2, [r0, #4]
  66              	.LBE54:
  67              	.LBE53:
  68              		.loc 1 172 0
  69 0008 7047     		bx	lr
  70              	.L4:
  71 000a 00BF     		.align	2
  72              	.L3:
  73 000c 08000000 		.word	.LANCHOR0+8
  74              		.cfi_endproc
  75              	.LFE299:
  76              		.cantunwind
  77              		.fnend
  78              		.size	_ZN10chibios_rt10BaseThread5startEm, .-_ZN10chibios_rt10BaseThread5startEm
  79              		.section	.text._ZN10chibios_rt15ThreadReference4stopEv,"ax",%progbits
  80              		.align	1
  81              		.global	_ZN10chibios_rt15ThreadReference4stopEv
  82              		.thumb
  83              		.thumb_func
  84              		.type	_ZN10chibios_rt15ThreadReference4stopEv, %function
  85              	_ZN10chibios_rt15ThreadReference4stopEv:
  86              		.fnstart
  87              	.LFB286:
  88              		.loc 1 76 0
  89              		.cfi_startproc
  90              		@ args = 0, pretend = 0, frame = 0
  91              		@ frame_needed = 0, uses_anonymous_args = 0
  92              		@ link register save eliminated.
  93              	.LVL3:
  94              		.loc 1 78 0
  95 0000 0148     		ldr	r0, .L6
  96              	.LVL4:
  97 0002 FFF7FEBF 		b	chSysHalt
  98              	.LVL5:
  99              	.L7:
 100 0006 00BF     		.align	2
 101              	.L6:
 102 0008 00000000 		.word	.LC0
 103              		.cfi_endproc
 104              	.LFE286:
 105              		.cantunwind
 106              		.fnend
 107              		.size	_ZN10chibios_rt15ThreadReference4stopEv, .-_ZN10chibios_rt15ThreadReference4stopEv
 108              		.section	.text._ZN10chibios_rt15ThreadReference16requestTerminateEv,"ax",%progbits
 109              		.align	1
 110              		.global	_ZN10chibios_rt15ThreadReference16requestTerminateEv
 111              		.thumb
 112              		.thumb_func
 113              		.type	_ZN10chibios_rt15ThreadReference16requestTerminateEv, %function
 114              	_ZN10chibios_rt15ThreadReference16requestTerminateEv:
ARM GAS  /tmp/cc7NwbHs.s 			page 3


 115              		.fnstart
 116              	.LFB287:
 117              		.loc 1 81 0
 118              		.cfi_startproc
 119              		@ args = 0, pretend = 0, frame = 0
 120              		@ frame_needed = 0, uses_anonymous_args = 0
 121              		@ link register save eliminated.
 122              	.LVL6:
 123              	.LBB55:
 124              		.loc 1 86 0
 125 0000 4068     		ldr	r0, [r0, #4]
 126              	.LVL7:
 127 0002 FFF7FEBF 		b	chThdTerminate
 128              	.LVL8:
 129              	.LBE55:
 130              		.cfi_endproc
 131              	.LFE287:
 132              		.cantunwind
 133              		.fnend
 134              		.size	_ZN10chibios_rt15ThreadReference16requestTerminateEv, .-_ZN10chibios_rt15ThreadReference16re
 135              		.section	.text._ZN10chibios_rt15ThreadReference4waitEv,"ax",%progbits
 136              		.align	1
 137              		.global	_ZN10chibios_rt15ThreadReference4waitEv
 138              		.thumb
 139              		.thumb_func
 140              		.type	_ZN10chibios_rt15ThreadReference4waitEv, %function
 141              	_ZN10chibios_rt15ThreadReference4waitEv:
 142              		.fnstart
 143              	.LFB288:
 144              		.loc 1 90 0
 145              		.cfi_startproc
 146              		@ args = 0, pretend = 0, frame = 0
 147              		@ frame_needed = 0, uses_anonymous_args = 0
 148              	.LVL9:
 149 0000 10B5     		push	{r4, lr}
 150              		.save {r4, lr}
 151              		.cfi_def_cfa_offset 8
 152              		.cfi_offset 4, -8
 153              		.cfi_offset 14, -4
 154              		.loc 1 90 0
 155 0002 0446     		mov	r4, r0
 156              	.LBB56:
 157              		.loc 1 95 0
 158 0004 4068     		ldr	r0, [r0, #4]
 159              	.LVL10:
 160 0006 FFF7FEFF 		bl	chThdWait
 161              	.LVL11:
 162              		.loc 1 96 0
 163 000a 0023     		movs	r3, #0
 164 000c 6360     		str	r3, [r4, #4]
 165              	.LBE56:
 166              		.loc 1 98 0
 167 000e 10BD     		pop	{r4, pc}
 168              		.cfi_endproc
 169              	.LFE288:
 170              		.fnend
 171              		.size	_ZN10chibios_rt15ThreadReference4waitEv, .-_ZN10chibios_rt15ThreadReference4waitEv
ARM GAS  /tmp/cc7NwbHs.s 			page 4


 172              		.section	.text._ZN10chibios_rt15ThreadReference11sendMessageEl,"ax",%progbits
 173              		.align	1
 174              		.global	_ZN10chibios_rt15ThreadReference11sendMessageEl
 175              		.thumb
 176              		.thumb_func
 177              		.type	_ZN10chibios_rt15ThreadReference11sendMessageEl, %function
 178              	_ZN10chibios_rt15ThreadReference11sendMessageEl:
 179              		.fnstart
 180              	.LFB289:
 181              		.loc 1 102 0
 182              		.cfi_startproc
 183              		@ args = 0, pretend = 0, frame = 0
 184              		@ frame_needed = 0, uses_anonymous_args = 0
 185              		@ link register save eliminated.
 186              	.LVL12:
 187              	.LBB57:
 188              		.loc 1 107 0
 189 0000 4068     		ldr	r0, [r0, #4]
 190              	.LVL13:
 191 0002 FFF7FEBF 		b	chMsgSend
 192              	.LVL14:
 193              	.LBE57:
 194              		.cfi_endproc
 195              	.LFE289:
 196              		.cantunwind
 197              		.fnend
 198              		.size	_ZN10chibios_rt15ThreadReference11sendMessageEl, .-_ZN10chibios_rt15ThreadReference11sendMes
 199              		.section	.text._ZN10chibios_rt15ThreadReference16isPendingMessageEv,"ax",%progbits
 200              		.align	1
 201              		.global	_ZN10chibios_rt15ThreadReference16isPendingMessageEv
 202              		.thumb
 203              		.thumb_func
 204              		.type	_ZN10chibios_rt15ThreadReference16isPendingMessageEv, %function
 205              	_ZN10chibios_rt15ThreadReference16isPendingMessageEv:
 206              		.fnstart
 207              	.LFB290:
 208              		.loc 1 110 0
 209              		.cfi_startproc
 210              		@ args = 0, pretend = 0, frame = 0
 211              		@ frame_needed = 0, uses_anonymous_args = 0
 212              		@ link register save eliminated.
 213              	.LVL15:
 214              	.LBB58:
 215              		.loc 1 115 0
 216 0000 4368     		ldr	r3, [r0, #4]
 217              	.LVL16:
 218              	.LBB59:
 219              	.LBB60:
 220              		.file 3 "../../modules/ChibiOS/os/rt/include/chmsg.h"
 221              		.loc 3 83 0
 222 0002 D86A     		ldr	r0, [r3, #44]
 223              	.LVL17:
 224 0004 03F12C02 		add	r2, r3, #44
 225              	.LBE60:
 226              	.LBE59:
 227              	.LBE58:
 228              		.loc 1 116 0
ARM GAS  /tmp/cc7NwbHs.s 			page 5


 229 0008 801A     		subs	r0, r0, r2
 230 000a 18BF     		it	ne
 231 000c 0120     		movne	r0, #1
 232 000e 7047     		bx	lr
 233              		.cfi_endproc
 234              	.LFE290:
 235              		.cantunwind
 236              		.fnend
 237              		.size	_ZN10chibios_rt15ThreadReference16isPendingMessageEv, .-_ZN10chibios_rt15ThreadReference16is
 238              		.section	.text._ZN10chibios_rt15ThreadReference10getMessageEv,"ax",%progbits
 239              		.align	1
 240              		.global	_ZN10chibios_rt15ThreadReference10getMessageEv
 241              		.thumb
 242              		.thumb_func
 243              		.type	_ZN10chibios_rt15ThreadReference10getMessageEv, %function
 244              	_ZN10chibios_rt15ThreadReference10getMessageEv:
 245              		.fnstart
 246              	.LFB291:
 247              		.loc 1 118 0
 248              		.cfi_startproc
 249              		@ args = 0, pretend = 0, frame = 0
 250              		@ frame_needed = 0, uses_anonymous_args = 0
 251              		@ link register save eliminated.
 252              	.LVL18:
 253 0000 4368     		ldr	r3, [r0, #4]
 254              		.loc 1 124 0
 255 0002 586A     		ldr	r0, [r3, #36]
 256              	.LVL19:
 257 0004 7047     		bx	lr
 258              		.cfi_endproc
 259              	.LFE291:
 260              		.cantunwind
 261              		.fnend
 262              		.size	_ZN10chibios_rt15ThreadReference10getMessageEv, .-_ZN10chibios_rt15ThreadReference10getMessa
 263              		.section	.text._ZN10chibios_rt15ThreadReference14releaseMessageEl,"ax",%progbits
 264              		.align	1
 265              		.global	_ZN10chibios_rt15ThreadReference14releaseMessageEl
 266              		.thumb
 267              		.thumb_func
 268              		.type	_ZN10chibios_rt15ThreadReference14releaseMessageEl, %function
 269              	_ZN10chibios_rt15ThreadReference14releaseMessageEl:
 270              		.fnstart
 271              	.LFB292:
 272              		.loc 1 126 0
 273              		.cfi_startproc
 274              		@ args = 0, pretend = 0, frame = 0
 275              		@ frame_needed = 0, uses_anonymous_args = 0
 276              		@ link register save eliminated.
 277              	.LVL20:
 278              	.LBB61:
 279              		.loc 1 131 0
 280 0000 4068     		ldr	r0, [r0, #4]
 281              	.LVL21:
 282 0002 FFF7FEBF 		b	chMsgRelease
 283              	.LVL22:
 284              	.LBE61:
 285              		.cfi_endproc
ARM GAS  /tmp/cc7NwbHs.s 			page 6


 286              	.LFE292:
 287              		.cantunwind
 288              		.fnend
 289              		.size	_ZN10chibios_rt15ThreadReference14releaseMessageEl, .-_ZN10chibios_rt15ThreadReference14rele
 290              		.section	.text._ZN10chibios_rt15ThreadReference12signalEventsEm,"ax",%progbits
 291              		.align	1
 292              		.global	_ZN10chibios_rt15ThreadReference12signalEventsEm
 293              		.thumb
 294              		.thumb_func
 295              		.type	_ZN10chibios_rt15ThreadReference12signalEventsEm, %function
 296              	_ZN10chibios_rt15ThreadReference12signalEventsEm:
 297              		.fnstart
 298              	.LFB293:
 299              		.loc 1 136 0
 300              		.cfi_startproc
 301              		@ args = 0, pretend = 0, frame = 0
 302              		@ frame_needed = 0, uses_anonymous_args = 0
 303              		@ link register save eliminated.
 304              	.LVL23:
 305              	.LBB62:
 306              		.loc 1 141 0
 307 0000 4068     		ldr	r0, [r0, #4]
 308              	.LVL24:
 309 0002 FFF7FEBF 		b	chEvtSignal
 310              	.LVL25:
 311              	.LBE62:
 312              		.cfi_endproc
 313              	.LFE293:
 314              		.cantunwind
 315              		.fnend
 316              		.size	_ZN10chibios_rt15ThreadReference12signalEventsEm, .-_ZN10chibios_rt15ThreadReference12signal
 317              		.section	.text._ZN10chibios_rt15ThreadReference13signalEventsIEm,"ax",%progbits
 318              		.align	1
 319              		.global	_ZN10chibios_rt15ThreadReference13signalEventsIEm
 320              		.thumb
 321              		.thumb_func
 322              		.type	_ZN10chibios_rt15ThreadReference13signalEventsIEm, %function
 323              	_ZN10chibios_rt15ThreadReference13signalEventsIEm:
 324              		.fnstart
 325              	.LFB294:
 326              		.loc 1 144 0
 327              		.cfi_startproc
 328              		@ args = 0, pretend = 0, frame = 0
 329              		@ frame_needed = 0, uses_anonymous_args = 0
 330              		@ link register save eliminated.
 331              	.LVL26:
 332              	.LBB63:
 333              		.loc 1 149 0
 334 0000 4068     		ldr	r0, [r0, #4]
 335              	.LVL27:
 336 0002 FFF7FEBF 		b	chEvtSignalI
 337              	.LVL28:
 338              	.LBE63:
 339              		.cfi_endproc
 340              	.LFE294:
 341              		.cantunwind
 342              		.fnend
ARM GAS  /tmp/cc7NwbHs.s 			page 7


 343              		.size	_ZN10chibios_rt15ThreadReference13signalEventsIEm, .-_ZN10chibios_rt15ThreadReference13signa
 344              		.section	.text._ZN10chibios_rt10BaseThreadC2Ev,"ax",%progbits
 345              		.align	1
 346              		.global	_ZN10chibios_rt10BaseThreadC2Ev
 347              		.thumb
 348              		.thumb_func
 349              		.type	_ZN10chibios_rt10BaseThreadC2Ev, %function
 350              	_ZN10chibios_rt10BaseThreadC2Ev:
 351              		.fnstart
 352              	.LFB296:
 353              		.loc 1 159 0
 354              		.cfi_startproc
 355              		@ args = 0, pretend = 0, frame = 0
 356              		@ frame_needed = 0, uses_anonymous_args = 0
 357              		@ link register save eliminated.
 358              	.LVL29:
 359              	.LBB64:
 360              	.LBB65:
 361              	.LBB66:
 362              		.loc 2 413 0
 363 0000 0022     		movs	r2, #0
 364 0002 4260     		str	r2, [r0, #4]
 365              	.LBE66:
 366              	.LBE65:
 367              		.loc 1 159 0
 368 0004 014A     		ldr	r2, .L17
 369 0006 0260     		str	r2, [r0]
 370              	.LBE64:
 371              		.loc 1 161 0
 372 0008 7047     		bx	lr
 373              	.L18:
 374 000a 00BF     		.align	2
 375              	.L17:
 376 000c 08000000 		.word	.LANCHOR1+8
 377              		.cfi_endproc
 378              	.LFE296:
 379              		.cantunwind
 380              		.fnend
 381              		.size	_ZN10chibios_rt10BaseThreadC2Ev, .-_ZN10chibios_rt10BaseThreadC2Ev
 382              		.global	_ZN10chibios_rt10BaseThreadC1Ev
 383              		.thumb_set _ZN10chibios_rt10BaseThreadC1Ev,_ZN10chibios_rt10BaseThreadC2Ev
 384              		.section	.text._ZN10chibios_rt10_thd_startEPv,"ax",%progbits
 385              		.align	1
 386              		.global	_ZN10chibios_rt10_thd_startEPv
 387              		.thumb
 388              		.thumb_func
 389              		.type	_ZN10chibios_rt10_thd_startEPv, %function
 390              	_ZN10chibios_rt10_thd_startEPv:
 391              		.fnstart
 392              	.LFB303:
 393              		.loc 1 174 0
 394              		.cfi_startproc
 395              		@ args = 0, pretend = 0, frame = 0
 396              		@ frame_needed = 0, uses_anonymous_args = 0
 397              		@ link register save eliminated.
 398              	.LVL30:
 399              		.loc 1 176 0
ARM GAS  /tmp/cc7NwbHs.s 			page 8


 400 0000 0368     		ldr	r3, [r0]
 401 0002 5B68     		ldr	r3, [r3, #4]
 402 0004 1847     		bx	r3	@ indirect register sibling call
 403              	.LVL31:
 404              		.cfi_endproc
 405              	.LFE303:
 406              		.cantunwind
 407              		.fnend
 408              		.size	_ZN10chibios_rt10_thd_startEPv, .-_ZN10chibios_rt10_thd_startEPv
 409              		.section	.text._ZN10chibios_rt10BaseThread7setNameEPKc,"ax",%progbits
 410              		.align	1
 411              		.global	_ZN10chibios_rt10BaseThread7setNameEPKc
 412              		.thumb
 413              		.thumb_func
 414              		.type	_ZN10chibios_rt10BaseThread7setNameEPKc, %function
 415              	_ZN10chibios_rt10BaseThread7setNameEPKc:
 416              		.fnstart
 417              	.LFB304:
 418              		.loc 1 179 0
 419              		.cfi_startproc
 420              		@ args = 0, pretend = 0, frame = 0
 421              		@ frame_needed = 0, uses_anonymous_args = 0
 422              		@ link register save eliminated.
 423              	.LVL32:
 424              	.LBB67:
 425              	.LBB68:
 426              		.file 4 "../../modules/ChibiOS/os/rt/include/chregistry.h"
 427              		.loc 4 136 0
 428 0000 014B     		ldr	r3, .L21
 429 0002 9B69     		ldr	r3, [r3, #24]
 430 0004 9861     		str	r0, [r3, #24]
 431 0006 7047     		bx	lr
 432              	.L22:
 433              		.align	2
 434              	.L21:
 435 0008 00000000 		.word	ch
 436              	.LBE68:
 437              	.LBE67:
 438              		.cfi_endproc
 439              	.LFE304:
 440              		.cantunwind
 441              		.fnend
 442              		.size	_ZN10chibios_rt10BaseThread7setNameEPKc, .-_ZN10chibios_rt10BaseThread7setNameEPKc
 443              		.section	.text._ZN10chibios_rt10BaseThread11setPriorityEm,"ax",%progbits
 444              		.align	1
 445              		.global	_ZN10chibios_rt10BaseThread11setPriorityEm
 446              		.thumb
 447              		.thumb_func
 448              		.type	_ZN10chibios_rt10BaseThread11setPriorityEm, %function
 449              	_ZN10chibios_rt10BaseThread11setPriorityEm:
 450              		.fnstart
 451              	.LFB305:
 452              		.loc 1 184 0
 453              		.cfi_startproc
 454              		@ args = 0, pretend = 0, frame = 0
 455              		@ frame_needed = 0, uses_anonymous_args = 0
 456              		@ link register save eliminated.
ARM GAS  /tmp/cc7NwbHs.s 			page 9


 457              	.LVL33:
 458              		.loc 1 186 0
 459 0000 FFF7FEBF 		b	chThdSetPriority
 460              	.LVL34:
 461              		.cfi_endproc
 462              	.LFE305:
 463              		.cantunwind
 464              		.fnend
 465              		.size	_ZN10chibios_rt10BaseThread11setPriorityEm, .-_ZN10chibios_rt10BaseThread11setPriorityEm
 466              		.section	.text._ZN10chibios_rt10BaseThread4exitEl,"ax",%progbits
 467              		.align	1
 468              		.global	_ZN10chibios_rt10BaseThread4exitEl
 469              		.thumb
 470              		.thumb_func
 471              		.type	_ZN10chibios_rt10BaseThread4exitEl, %function
 472              	_ZN10chibios_rt10BaseThread4exitEl:
 473              		.fnstart
 474              	.LFB306:
 475              		.loc 1 189 0
 476              		.cfi_startproc
 477              		@ args = 0, pretend = 0, frame = 0
 478              		@ frame_needed = 0, uses_anonymous_args = 0
 479              		@ link register save eliminated.
 480              	.LVL35:
 481              		.loc 1 191 0
 482 0000 FFF7FEBF 		b	chThdExit
 483              	.LVL36:
 484              		.cfi_endproc
 485              	.LFE306:
 486              		.cantunwind
 487              		.fnend
 488              		.size	_ZN10chibios_rt10BaseThread4exitEl, .-_ZN10chibios_rt10BaseThread4exitEl
 489              		.section	.text._ZN10chibios_rt10BaseThread5exitSEl,"ax",%progbits
 490              		.align	1
 491              		.global	_ZN10chibios_rt10BaseThread5exitSEl
 492              		.thumb
 493              		.thumb_func
 494              		.type	_ZN10chibios_rt10BaseThread5exitSEl, %function
 495              	_ZN10chibios_rt10BaseThread5exitSEl:
 496              		.fnstart
 497              	.LFB307:
 498              		.loc 1 194 0
 499              		.cfi_startproc
 500              		@ args = 0, pretend = 0, frame = 0
 501              		@ frame_needed = 0, uses_anonymous_args = 0
 502              		@ link register save eliminated.
 503              	.LVL37:
 504              		.loc 1 196 0
 505 0000 FFF7FEBF 		b	chThdExitS
 506              	.LVL38:
 507              		.cfi_endproc
 508              	.LFE307:
 509              		.cantunwind
 510              		.fnend
 511              		.size	_ZN10chibios_rt10BaseThread5exitSEl, .-_ZN10chibios_rt10BaseThread5exitSEl
 512              		.section	.text._ZN10chibios_rt10BaseThread15shouldTerminateEv,"ax",%progbits
 513              		.align	1
ARM GAS  /tmp/cc7NwbHs.s 			page 10


 514              		.global	_ZN10chibios_rt10BaseThread15shouldTerminateEv
 515              		.thumb
 516              		.thumb_func
 517              		.type	_ZN10chibios_rt10BaseThread15shouldTerminateEv, %function
 518              	_ZN10chibios_rt10BaseThread15shouldTerminateEv:
 519              		.fnstart
 520              	.LFB308:
 521              		.loc 1 199 0
 522              		.cfi_startproc
 523              		@ args = 0, pretend = 0, frame = 0
 524              		@ frame_needed = 0, uses_anonymous_args = 0
 525              		@ link register save eliminated.
 526              	.LBB73:
 527              	.LBB74:
 528              	.LBB75:
 529              	.LBB76:
 530              		.file 5 "../../modules/ChibiOS/os/rt/include/chthreads.h"
 531              		.loc 5 286 0
 532 0000 034B     		ldr	r3, .L27
 533              	.LBE76:
 534              	.LBE75:
 535              		.loc 5 359 0
 536 0002 9B69     		ldr	r3, [r3, #24]
 537 0004 93F82100 		ldrb	r0, [r3, #33]	@ zero_extendqisi2
 538              	.LBE74:
 539              	.LBE73:
 540              		.loc 1 202 0
 541 0008 C0F38000 		ubfx	r0, r0, #2, #1
 542 000c 7047     		bx	lr
 543              	.L28:
 544 000e 00BF     		.align	2
 545              	.L27:
 546 0010 00000000 		.word	ch
 547              		.cfi_endproc
 548              	.LFE308:
 549              		.cantunwind
 550              		.fnend
 551              		.size	_ZN10chibios_rt10BaseThread15shouldTerminateEv, .-_ZN10chibios_rt10BaseThread15shouldTermina
 552              		.section	.text._ZN10chibios_rt10BaseThread5sleepEm,"ax",%progbits
 553              		.align	1
 554              		.global	_ZN10chibios_rt10BaseThread5sleepEm
 555              		.thumb
 556              		.thumb_func
 557              		.type	_ZN10chibios_rt10BaseThread5sleepEm, %function
 558              	_ZN10chibios_rt10BaseThread5sleepEm:
 559              		.fnstart
 560              	.LFB309:
 561              		.loc 1 204 0
 562              		.cfi_startproc
 563              		@ args = 0, pretend = 0, frame = 0
 564              		@ frame_needed = 0, uses_anonymous_args = 0
 565              		@ link register save eliminated.
 566              	.LVL39:
 567              		.loc 1 206 0
 568 0000 FFF7FEBF 		b	chThdSleep
 569              	.LVL40:
 570              		.cfi_endproc
ARM GAS  /tmp/cc7NwbHs.s 			page 11


 571              	.LFE309:
 572              		.cantunwind
 573              		.fnend
 574              		.size	_ZN10chibios_rt10BaseThread5sleepEm, .-_ZN10chibios_rt10BaseThread5sleepEm
 575              		.section	.text._ZN10chibios_rt10BaseThread10sleepUntilEm,"ax",%progbits
 576              		.align	1
 577              		.global	_ZN10chibios_rt10BaseThread10sleepUntilEm
 578              		.thumb
 579              		.thumb_func
 580              		.type	_ZN10chibios_rt10BaseThread10sleepUntilEm, %function
 581              	_ZN10chibios_rt10BaseThread10sleepUntilEm:
 582              		.fnstart
 583              	.LFB310:
 584              		.loc 1 209 0
 585              		.cfi_startproc
 586              		@ args = 0, pretend = 0, frame = 0
 587              		@ frame_needed = 0, uses_anonymous_args = 0
 588              		@ link register save eliminated.
 589              	.LVL41:
 590              		.loc 1 211 0
 591 0000 FFF7FEBF 		b	chThdSleepUntil
 592              	.LVL42:
 593              		.cfi_endproc
 594              	.LFE310:
 595              		.cantunwind
 596              		.fnend
 597              		.size	_ZN10chibios_rt10BaseThread10sleepUntilEm, .-_ZN10chibios_rt10BaseThread10sleepUntilEm
 598              		.section	.text._ZN10chibios_rt10BaseThread5yieldEv,"ax",%progbits
 599              		.align	1
 600              		.global	_ZN10chibios_rt10BaseThread5yieldEv
 601              		.thumb
 602              		.thumb_func
 603              		.type	_ZN10chibios_rt10BaseThread5yieldEv, %function
 604              	_ZN10chibios_rt10BaseThread5yieldEv:
 605              		.fnstart
 606              	.LFB311:
 607              		.loc 1 214 0
 608              		.cfi_startproc
 609              		@ args = 0, pretend = 0, frame = 0
 610              		@ frame_needed = 0, uses_anonymous_args = 0
 611              		@ link register save eliminated.
 612              		.loc 1 216 0
 613 0000 FFF7FEBF 		b	chThdYield
 614              	.LVL43:
 615              		.cfi_endproc
 616              	.LFE311:
 617              		.cantunwind
 618              		.fnend
 619              		.size	_ZN10chibios_rt10BaseThread5yieldEv, .-_ZN10chibios_rt10BaseThread5yieldEv
 620              		.section	.text._ZN10chibios_rt10BaseThread11waitMessageEv,"ax",%progbits
 621              		.align	1
 622              		.global	_ZN10chibios_rt10BaseThread11waitMessageEv
 623              		.thumb
 624              		.thumb_func
 625              		.type	_ZN10chibios_rt10BaseThread11waitMessageEv, %function
 626              	_ZN10chibios_rt10BaseThread11waitMessageEv:
 627              		.fnstart
ARM GAS  /tmp/cc7NwbHs.s 			page 12


 628              	.LFB312:
 629              		.loc 1 220 0
 630              		.cfi_startproc
 631              		@ args = 0, pretend = 0, frame = 0
 632              		@ frame_needed = 0, uses_anonymous_args = 0
 633              	.LVL44:
 634 0000 10B5     		push	{r4, lr}
 635              		.save {r4, lr}
 636              		.cfi_def_cfa_offset 8
 637              		.cfi_offset 4, -8
 638              		.cfi_offset 14, -4
 639              		.loc 1 220 0
 640 0002 0446     		mov	r4, r0
 641              	.LBB77:
 642              		.loc 1 222 0
 643 0004 FFF7FEFF 		bl	chMsgWait
 644              	.LVL45:
 645              	.LBB78:
 646              	.LBB79:
 647              		.loc 2 413 0
 648 0008 024B     		ldr	r3, .L33
 649 000a 6060     		str	r0, [r4, #4]
 650 000c 2360     		str	r3, [r4]
 651              	.LBE79:
 652              	.LBE78:
 653              	.LBE77:
 654              		.loc 1 224 0
 655 000e 2046     		mov	r0, r4
 656              	.LVL46:
 657 0010 10BD     		pop	{r4, pc}
 658              	.LVL47:
 659              	.L34:
 660 0012 00BF     		.align	2
 661              	.L33:
 662 0014 08000000 		.word	.LANCHOR0+8
 663              		.cfi_endproc
 664              	.LFE312:
 665              		.fnend
 666              		.size	_ZN10chibios_rt10BaseThread11waitMessageEv, .-_ZN10chibios_rt10BaseThread11waitMessageEv
 667              		.section	.text._ZN10chibios_rt10BaseThread17getAndClearEventsEm,"ax",%progbits
 668              		.align	1
 669              		.global	_ZN10chibios_rt10BaseThread17getAndClearEventsEm
 670              		.thumb
 671              		.thumb_func
 672              		.type	_ZN10chibios_rt10BaseThread17getAndClearEventsEm, %function
 673              	_ZN10chibios_rt10BaseThread17getAndClearEventsEm:
 674              		.fnstart
 675              	.LFB313:
 676              		.loc 1 228 0
 677              		.cfi_startproc
 678              		@ args = 0, pretend = 0, frame = 0
 679              		@ frame_needed = 0, uses_anonymous_args = 0
 680              		@ link register save eliminated.
 681              	.LVL48:
 682              		.loc 1 230 0
 683 0000 FFF7FEBF 		b	chEvtGetAndClearEvents
 684              	.LVL49:
ARM GAS  /tmp/cc7NwbHs.s 			page 13


 685              		.cfi_endproc
 686              	.LFE313:
 687              		.cantunwind
 688              		.fnend
 689              		.size	_ZN10chibios_rt10BaseThread17getAndClearEventsEm, .-_ZN10chibios_rt10BaseThread17getAndClear
 690              		.section	.text._ZN10chibios_rt10BaseThread9addEventsEm,"ax",%progbits
 691              		.align	1
 692              		.global	_ZN10chibios_rt10BaseThread9addEventsEm
 693              		.thumb
 694              		.thumb_func
 695              		.type	_ZN10chibios_rt10BaseThread9addEventsEm, %function
 696              	_ZN10chibios_rt10BaseThread9addEventsEm:
 697              		.fnstart
 698              	.LFB314:
 699              		.loc 1 233 0
 700              		.cfi_startproc
 701              		@ args = 0, pretend = 0, frame = 0
 702              		@ frame_needed = 0, uses_anonymous_args = 0
 703              		@ link register save eliminated.
 704              	.LVL50:
 705              		.loc 1 235 0
 706 0000 FFF7FEBF 		b	chEvtAddEvents
 707              	.LVL51:
 708              		.cfi_endproc
 709              	.LFE314:
 710              		.cantunwind
 711              		.fnend
 712              		.size	_ZN10chibios_rt10BaseThread9addEventsEm, .-_ZN10chibios_rt10BaseThread9addEventsEm
 713              		.section	.text._ZN10chibios_rt10BaseThread12waitOneEventEm,"ax",%progbits
 714              		.align	1
 715              		.global	_ZN10chibios_rt10BaseThread12waitOneEventEm
 716              		.thumb
 717              		.thumb_func
 718              		.type	_ZN10chibios_rt10BaseThread12waitOneEventEm, %function
 719              	_ZN10chibios_rt10BaseThread12waitOneEventEm:
 720              		.fnstart
 721              	.LFB315:
 722              		.loc 1 238 0
 723              		.cfi_startproc
 724              		@ args = 0, pretend = 0, frame = 0
 725              		@ frame_needed = 0, uses_anonymous_args = 0
 726              		@ link register save eliminated.
 727              	.LVL52:
 728              		.loc 1 240 0
 729 0000 FFF7FEBF 		b	chEvtWaitOne
 730              	.LVL53:
 731              		.cfi_endproc
 732              	.LFE315:
 733              		.cantunwind
 734              		.fnend
 735              		.size	_ZN10chibios_rt10BaseThread12waitOneEventEm, .-_ZN10chibios_rt10BaseThread12waitOneEventEm
 736              		.section	.text._ZN10chibios_rt10BaseThread12waitAnyEventEm,"ax",%progbits
 737              		.align	1
 738              		.global	_ZN10chibios_rt10BaseThread12waitAnyEventEm
 739              		.thumb
 740              		.thumb_func
 741              		.type	_ZN10chibios_rt10BaseThread12waitAnyEventEm, %function
ARM GAS  /tmp/cc7NwbHs.s 			page 14


 742              	_ZN10chibios_rt10BaseThread12waitAnyEventEm:
 743              		.fnstart
 744              	.LFB316:
 745              		.loc 1 243 0
 746              		.cfi_startproc
 747              		@ args = 0, pretend = 0, frame = 0
 748              		@ frame_needed = 0, uses_anonymous_args = 0
 749              		@ link register save eliminated.
 750              	.LVL54:
 751              		.loc 1 245 0
 752 0000 FFF7FEBF 		b	chEvtWaitAny
 753              	.LVL55:
 754              		.cfi_endproc
 755              	.LFE316:
 756              		.cantunwind
 757              		.fnend
 758              		.size	_ZN10chibios_rt10BaseThread12waitAnyEventEm, .-_ZN10chibios_rt10BaseThread12waitAnyEventEm
 759              		.section	.text._ZN10chibios_rt10BaseThread13waitAllEventsEm,"ax",%progbits
 760              		.align	1
 761              		.global	_ZN10chibios_rt10BaseThread13waitAllEventsEm
 762              		.thumb
 763              		.thumb_func
 764              		.type	_ZN10chibios_rt10BaseThread13waitAllEventsEm, %function
 765              	_ZN10chibios_rt10BaseThread13waitAllEventsEm:
 766              		.fnstart
 767              	.LFB317:
 768              		.loc 1 248 0
 769              		.cfi_startproc
 770              		@ args = 0, pretend = 0, frame = 0
 771              		@ frame_needed = 0, uses_anonymous_args = 0
 772              		@ link register save eliminated.
 773              	.LVL56:
 774              		.loc 1 250 0
 775 0000 FFF7FEBF 		b	chEvtWaitAll
 776              	.LVL57:
 777              		.cfi_endproc
 778              	.LFE317:
 779              		.cantunwind
 780              		.fnend
 781              		.size	_ZN10chibios_rt10BaseThread13waitAllEventsEm, .-_ZN10chibios_rt10BaseThread13waitAllEventsEm
 782              		.section	.text._ZN10chibios_rt10BaseThread19waitOneEventTimeoutEmm,"ax",%progbits
 783              		.align	1
 784              		.global	_ZN10chibios_rt10BaseThread19waitOneEventTimeoutEmm
 785              		.thumb
 786              		.thumb_func
 787              		.type	_ZN10chibios_rt10BaseThread19waitOneEventTimeoutEmm, %function
 788              	_ZN10chibios_rt10BaseThread19waitOneEventTimeoutEmm:
 789              		.fnstart
 790              	.LFB318:
 791              		.loc 1 255 0
 792              		.cfi_startproc
 793              		@ args = 0, pretend = 0, frame = 0
 794              		@ frame_needed = 0, uses_anonymous_args = 0
 795              		@ link register save eliminated.
 796              	.LVL58:
 797              		.loc 1 257 0
 798 0000 FFF7FEBF 		b	chEvtWaitOneTimeout
ARM GAS  /tmp/cc7NwbHs.s 			page 15


 799              	.LVL59:
 800              		.cfi_endproc
 801              	.LFE318:
 802              		.cantunwind
 803              		.fnend
 804              		.size	_ZN10chibios_rt10BaseThread19waitOneEventTimeoutEmm, .-_ZN10chibios_rt10BaseThread19waitOneE
 805              		.section	.text._ZN10chibios_rt10BaseThread19waitAnyEventTimeoutEmm,"ax",%progbits
 806              		.align	1
 807              		.global	_ZN10chibios_rt10BaseThread19waitAnyEventTimeoutEmm
 808              		.thumb
 809              		.thumb_func
 810              		.type	_ZN10chibios_rt10BaseThread19waitAnyEventTimeoutEmm, %function
 811              	_ZN10chibios_rt10BaseThread19waitAnyEventTimeoutEmm:
 812              		.fnstart
 813              	.LFB319:
 814              		.loc 1 261 0
 815              		.cfi_startproc
 816              		@ args = 0, pretend = 0, frame = 0
 817              		@ frame_needed = 0, uses_anonymous_args = 0
 818              		@ link register save eliminated.
 819              	.LVL60:
 820              		.loc 1 263 0
 821 0000 FFF7FEBF 		b	chEvtWaitAnyTimeout
 822              	.LVL61:
 823              		.cfi_endproc
 824              	.LFE319:
 825              		.cantunwind
 826              		.fnend
 827              		.size	_ZN10chibios_rt10BaseThread19waitAnyEventTimeoutEmm, .-_ZN10chibios_rt10BaseThread19waitAnyE
 828              		.section	.text._ZN10chibios_rt10BaseThread20waitAllEventsTimeoutEmm,"ax",%progbits
 829              		.align	1
 830              		.global	_ZN10chibios_rt10BaseThread20waitAllEventsTimeoutEmm
 831              		.thumb
 832              		.thumb_func
 833              		.type	_ZN10chibios_rt10BaseThread20waitAllEventsTimeoutEmm, %function
 834              	_ZN10chibios_rt10BaseThread20waitAllEventsTimeoutEmm:
 835              		.fnstart
 836              	.LFB320:
 837              		.loc 1 267 0
 838              		.cfi_startproc
 839              		@ args = 0, pretend = 0, frame = 0
 840              		@ frame_needed = 0, uses_anonymous_args = 0
 841              		@ link register save eliminated.
 842              	.LVL62:
 843              		.loc 1 269 0
 844 0000 FFF7FEBF 		b	chEvtWaitAllTimeout
 845              	.LVL63:
 846              		.cfi_endproc
 847              	.LFE320:
 848              		.cantunwind
 849              		.fnend
 850              		.size	_ZN10chibios_rt10BaseThread20waitAllEventsTimeoutEmm, .-_ZN10chibios_rt10BaseThread20waitAll
 851              		.section	.text._ZN10chibios_rt10BaseThread14dispatchEventsEPKPFvlEm,"ax",%progbits
 852              		.align	1
 853              		.global	_ZN10chibios_rt10BaseThread14dispatchEventsEPKPFvlEm
 854              		.thumb
 855              		.thumb_func
ARM GAS  /tmp/cc7NwbHs.s 			page 16


 856              		.type	_ZN10chibios_rt10BaseThread14dispatchEventsEPKPFvlEm, %function
 857              	_ZN10chibios_rt10BaseThread14dispatchEventsEPKPFvlEm:
 858              		.fnstart
 859              	.LFB321:
 860              		.loc 1 274 0
 861              		.cfi_startproc
 862              		@ args = 0, pretend = 0, frame = 0
 863              		@ frame_needed = 0, uses_anonymous_args = 0
 864              		@ link register save eliminated.
 865              	.LVL64:
 866              		.loc 1 276 0
 867 0000 FFF7FEBF 		b	chEvtDispatch
 868              	.LVL65:
 869              		.cfi_endproc
 870              	.LFE321:
 871              		.cantunwind
 872              		.fnend
 873              		.size	_ZN10chibios_rt10BaseThread14dispatchEventsEPKPFvlEm, .-_ZN10chibios_rt10BaseThread14dispatc
 874              		.section	.text._ZN10chibios_rt10BaseThread11unlockMutexEPNS_5MutexE,"ax",%progbits
 875              		.align	1
 876              		.global	_ZN10chibios_rt10BaseThread11unlockMutexEPNS_5MutexE
 877              		.thumb
 878              		.thumb_func
 879              		.type	_ZN10chibios_rt10BaseThread11unlockMutexEPNS_5MutexE, %function
 880              	_ZN10chibios_rt10BaseThread11unlockMutexEPNS_5MutexE:
 881              		.fnstart
 882              	.LFB322:
 883              		.loc 1 281 0
 884              		.cfi_startproc
 885              		@ args = 0, pretend = 0, frame = 0
 886              		@ frame_needed = 0, uses_anonymous_args = 0
 887              		@ link register save eliminated.
 888              	.LVL66:
 889              		.loc 1 283 0
 890 0000 FFF7FEBF 		b	chMtxUnlock
 891              	.LVL67:
 892              		.cfi_endproc
 893              	.LFE322:
 894              		.cantunwind
 895              		.fnend
 896              		.size	_ZN10chibios_rt10BaseThread11unlockMutexEPNS_5MutexE, .-_ZN10chibios_rt10BaseThread11unlockM
 897              		.section	.text._ZN10chibios_rt10BaseThread12unlockMutexSEPNS_5MutexE,"ax",%progbits
 898              		.align	1
 899              		.global	_ZN10chibios_rt10BaseThread12unlockMutexSEPNS_5MutexE
 900              		.thumb
 901              		.thumb_func
 902              		.type	_ZN10chibios_rt10BaseThread12unlockMutexSEPNS_5MutexE, %function
 903              	_ZN10chibios_rt10BaseThread12unlockMutexSEPNS_5MutexE:
 904              		.fnstart
 905              	.LFB323:
 906              		.loc 1 286 0
 907              		.cfi_startproc
 908              		@ args = 0, pretend = 0, frame = 0
 909              		@ frame_needed = 0, uses_anonymous_args = 0
 910              		@ link register save eliminated.
 911              	.LVL68:
 912              		.loc 1 288 0
ARM GAS  /tmp/cc7NwbHs.s 			page 17


 913 0000 FFF7FEBF 		b	chMtxUnlockS
 914              	.LVL69:
 915              		.cfi_endproc
 916              	.LFE323:
 917              		.cantunwind
 918              		.fnend
 919              		.size	_ZN10chibios_rt10BaseThread12unlockMutexSEPNS_5MutexE, .-_ZN10chibios_rt10BaseThread12unlock
 920              		.section	.text._ZN10chibios_rt10BaseThread16unlockAllMutexesEv,"ax",%progbits
 921              		.align	1
 922              		.global	_ZN10chibios_rt10BaseThread16unlockAllMutexesEv
 923              		.thumb
 924              		.thumb_func
 925              		.type	_ZN10chibios_rt10BaseThread16unlockAllMutexesEv, %function
 926              	_ZN10chibios_rt10BaseThread16unlockAllMutexesEv:
 927              		.fnstart
 928              	.LFB324:
 929              		.loc 1 291 0
 930              		.cfi_startproc
 931              		@ args = 0, pretend = 0, frame = 0
 932              		@ frame_needed = 0, uses_anonymous_args = 0
 933              		@ link register save eliminated.
 934              		.loc 1 293 0
 935 0000 FFF7FEBF 		b	chMtxUnlockAll
 936              	.LVL70:
 937              		.cfi_endproc
 938              	.LFE324:
 939              		.cantunwind
 940              		.fnend
 941              		.size	_ZN10chibios_rt10BaseThread16unlockAllMutexesEv, .-_ZN10chibios_rt10BaseThread16unlockAllMut
 942              		.section	.text._ZN10chibios_rt16CounterSemaphoreC2El,"ax",%progbits
 943              		.align	1
 944              		.global	_ZN10chibios_rt16CounterSemaphoreC2El
 945              		.thumb
 946              		.thumb_func
 947              		.type	_ZN10chibios_rt16CounterSemaphoreC2El, %function
 948              	_ZN10chibios_rt16CounterSemaphoreC2El:
 949              		.fnstart
 950              	.LFB326:
 951              		.loc 1 301 0
 952              		.cfi_startproc
 953              		@ args = 0, pretend = 0, frame = 0
 954              		@ frame_needed = 0, uses_anonymous_args = 0
 955              	.LVL71:
 956 0000 10B5     		push	{r4, lr}
 957              		.save {r4, lr}
 958              		.cfi_def_cfa_offset 8
 959              		.cfi_offset 4, -8
 960              		.cfi_offset 14, -4
 961              		.loc 1 301 0
 962 0002 0446     		mov	r4, r0
 963              	.LBB80:
 964              		.loc 1 303 0
 965 0004 FFF7FEFF 		bl	chSemObjectInit
 966              	.LVL72:
 967              	.LBE80:
 968              		.loc 1 304 0
 969 0008 2046     		mov	r0, r4
ARM GAS  /tmp/cc7NwbHs.s 			page 18


 970 000a 10BD     		pop	{r4, pc}
 971              		.cfi_endproc
 972              	.LFE326:
 973              		.fnend
 974              		.size	_ZN10chibios_rt16CounterSemaphoreC2El, .-_ZN10chibios_rt16CounterSemaphoreC2El
 975              		.global	_ZN10chibios_rt16CounterSemaphoreC1El
 976              		.thumb_set _ZN10chibios_rt16CounterSemaphoreC1El,_ZN10chibios_rt16CounterSemaphoreC2El
 977              		.section	.text._ZN10chibios_rt16CounterSemaphore5resetEl,"ax",%progbits
 978              		.align	1
 979              		.global	_ZN10chibios_rt16CounterSemaphore5resetEl
 980              		.thumb
 981              		.thumb_func
 982              		.type	_ZN10chibios_rt16CounterSemaphore5resetEl, %function
 983              	_ZN10chibios_rt16CounterSemaphore5resetEl:
 984              		.fnstart
 985              	.LFB328:
 986              		.loc 1 306 0
 987              		.cfi_startproc
 988              		@ args = 0, pretend = 0, frame = 0
 989              		@ frame_needed = 0, uses_anonymous_args = 0
 990              		@ link register save eliminated.
 991              	.LVL73:
 992              		.loc 1 308 0
 993 0000 FFF7FEBF 		b	chSemReset
 994              	.LVL74:
 995              		.cfi_endproc
 996              	.LFE328:
 997              		.cantunwind
 998              		.fnend
 999              		.size	_ZN10chibios_rt16CounterSemaphore5resetEl, .-_ZN10chibios_rt16CounterSemaphore5resetEl
 1000              		.section	.text._ZN10chibios_rt16CounterSemaphore6resetIEl,"ax",%progbits
 1001              		.align	1
 1002              		.global	_ZN10chibios_rt16CounterSemaphore6resetIEl
 1003              		.thumb
 1004              		.thumb_func
 1005              		.type	_ZN10chibios_rt16CounterSemaphore6resetIEl, %function
 1006              	_ZN10chibios_rt16CounterSemaphore6resetIEl:
 1007              		.fnstart
 1008              	.LFB329:
 1009              		.loc 1 311 0
 1010              		.cfi_startproc
 1011              		@ args = 0, pretend = 0, frame = 0
 1012              		@ frame_needed = 0, uses_anonymous_args = 0
 1013              		@ link register save eliminated.
 1014              	.LVL75:
 1015              		.loc 1 313 0
 1016 0000 FFF7FEBF 		b	chSemResetI
 1017              	.LVL76:
 1018              		.cfi_endproc
 1019              	.LFE329:
 1020              		.cantunwind
 1021              		.fnend
 1022              		.size	_ZN10chibios_rt16CounterSemaphore6resetIEl, .-_ZN10chibios_rt16CounterSemaphore6resetIEl
 1023              		.section	.text._ZN10chibios_rt16CounterSemaphore4waitEv,"ax",%progbits
 1024              		.align	1
 1025              		.global	_ZN10chibios_rt16CounterSemaphore4waitEv
 1026              		.thumb
ARM GAS  /tmp/cc7NwbHs.s 			page 19


 1027              		.thumb_func
 1028              		.type	_ZN10chibios_rt16CounterSemaphore4waitEv, %function
 1029              	_ZN10chibios_rt16CounterSemaphore4waitEv:
 1030              		.fnstart
 1031              	.LFB330:
 1032              		.loc 1 316 0
 1033              		.cfi_startproc
 1034              		@ args = 0, pretend = 0, frame = 0
 1035              		@ frame_needed = 0, uses_anonymous_args = 0
 1036              		@ link register save eliminated.
 1037              	.LVL77:
 1038              		.loc 1 318 0
 1039 0000 FFF7FEBF 		b	chSemWait
 1040              	.LVL78:
 1041              		.cfi_endproc
 1042              	.LFE330:
 1043              		.cantunwind
 1044              		.fnend
 1045              		.size	_ZN10chibios_rt16CounterSemaphore4waitEv, .-_ZN10chibios_rt16CounterSemaphore4waitEv
 1046              		.section	.text._ZN10chibios_rt16CounterSemaphore5waitSEv,"ax",%progbits
 1047              		.align	1
 1048              		.global	_ZN10chibios_rt16CounterSemaphore5waitSEv
 1049              		.thumb
 1050              		.thumb_func
 1051              		.type	_ZN10chibios_rt16CounterSemaphore5waitSEv, %function
 1052              	_ZN10chibios_rt16CounterSemaphore5waitSEv:
 1053              		.fnstart
 1054              	.LFB331:
 1055              		.loc 1 321 0
 1056              		.cfi_startproc
 1057              		@ args = 0, pretend = 0, frame = 0
 1058              		@ frame_needed = 0, uses_anonymous_args = 0
 1059              		@ link register save eliminated.
 1060              	.LVL79:
 1061              		.loc 1 323 0
 1062 0000 FFF7FEBF 		b	chSemWaitS
 1063              	.LVL80:
 1064              		.cfi_endproc
 1065              	.LFE331:
 1066              		.cantunwind
 1067              		.fnend
 1068              		.size	_ZN10chibios_rt16CounterSemaphore5waitSEv, .-_ZN10chibios_rt16CounterSemaphore5waitSEv
 1069              		.section	.text._ZN10chibios_rt16CounterSemaphore4waitEm,"ax",%progbits
 1070              		.align	1
 1071              		.global	_ZN10chibios_rt16CounterSemaphore4waitEm
 1072              		.thumb
 1073              		.thumb_func
 1074              		.type	_ZN10chibios_rt16CounterSemaphore4waitEm, %function
 1075              	_ZN10chibios_rt16CounterSemaphore4waitEm:
 1076              		.fnstart
 1077              	.LFB332:
 1078              		.loc 1 326 0
 1079              		.cfi_startproc
 1080              		@ args = 0, pretend = 0, frame = 0
 1081              		@ frame_needed = 0, uses_anonymous_args = 0
 1082              		@ link register save eliminated.
 1083              	.LVL81:
ARM GAS  /tmp/cc7NwbHs.s 			page 20


 1084              		.loc 1 328 0
 1085 0000 FFF7FEBF 		b	chSemWaitTimeout
 1086              	.LVL82:
 1087              		.cfi_endproc
 1088              	.LFE332:
 1089              		.cantunwind
 1090              		.fnend
 1091              		.size	_ZN10chibios_rt16CounterSemaphore4waitEm, .-_ZN10chibios_rt16CounterSemaphore4waitEm
 1092              		.section	.text._ZN10chibios_rt16CounterSemaphore5waitSEm,"ax",%progbits
 1093              		.align	1
 1094              		.global	_ZN10chibios_rt16CounterSemaphore5waitSEm
 1095              		.thumb
 1096              		.thumb_func
 1097              		.type	_ZN10chibios_rt16CounterSemaphore5waitSEm, %function
 1098              	_ZN10chibios_rt16CounterSemaphore5waitSEm:
 1099              		.fnstart
 1100              	.LFB333:
 1101              		.loc 1 331 0
 1102              		.cfi_startproc
 1103              		@ args = 0, pretend = 0, frame = 0
 1104              		@ frame_needed = 0, uses_anonymous_args = 0
 1105              		@ link register save eliminated.
 1106              	.LVL83:
 1107              		.loc 1 333 0
 1108 0000 FFF7FEBF 		b	chSemWaitTimeoutS
 1109              	.LVL84:
 1110              		.cfi_endproc
 1111              	.LFE333:
 1112              		.cantunwind
 1113              		.fnend
 1114              		.size	_ZN10chibios_rt16CounterSemaphore5waitSEm, .-_ZN10chibios_rt16CounterSemaphore5waitSEm
 1115              		.section	.text._ZN10chibios_rt16CounterSemaphore6signalEv,"ax",%progbits
 1116              		.align	1
 1117              		.global	_ZN10chibios_rt16CounterSemaphore6signalEv
 1118              		.thumb
 1119              		.thumb_func
 1120              		.type	_ZN10chibios_rt16CounterSemaphore6signalEv, %function
 1121              	_ZN10chibios_rt16CounterSemaphore6signalEv:
 1122              		.fnstart
 1123              	.LFB334:
 1124              		.loc 1 336 0
 1125              		.cfi_startproc
 1126              		@ args = 0, pretend = 0, frame = 0
 1127              		@ frame_needed = 0, uses_anonymous_args = 0
 1128              		@ link register save eliminated.
 1129              	.LVL85:
 1130              		.loc 1 338 0
 1131 0000 FFF7FEBF 		b	chSemSignal
 1132              	.LVL86:
 1133              		.cfi_endproc
 1134              	.LFE334:
 1135              		.cantunwind
 1136              		.fnend
 1137              		.size	_ZN10chibios_rt16CounterSemaphore6signalEv, .-_ZN10chibios_rt16CounterSemaphore6signalEv
 1138              		.section	.text._ZN10chibios_rt16CounterSemaphore7signalIEv,"ax",%progbits
 1139              		.align	1
 1140              		.global	_ZN10chibios_rt16CounterSemaphore7signalIEv
ARM GAS  /tmp/cc7NwbHs.s 			page 21


 1141              		.thumb
 1142              		.thumb_func
 1143              		.type	_ZN10chibios_rt16CounterSemaphore7signalIEv, %function
 1144              	_ZN10chibios_rt16CounterSemaphore7signalIEv:
 1145              		.fnstart
 1146              	.LFB335:
 1147              		.loc 1 341 0
 1148              		.cfi_startproc
 1149              		@ args = 0, pretend = 0, frame = 0
 1150              		@ frame_needed = 0, uses_anonymous_args = 0
 1151              		@ link register save eliminated.
 1152              	.LVL87:
 1153              		.loc 1 343 0
 1154 0000 FFF7FEBF 		b	chSemSignalI
 1155              	.LVL88:
 1156              		.cfi_endproc
 1157              	.LFE335:
 1158              		.cantunwind
 1159              		.fnend
 1160              		.size	_ZN10chibios_rt16CounterSemaphore7signalIEv, .-_ZN10chibios_rt16CounterSemaphore7signalIEv
 1161              		.section	.text._ZN10chibios_rt16CounterSemaphore11addCounterIEl,"ax",%progbits
 1162              		.align	1
 1163              		.global	_ZN10chibios_rt16CounterSemaphore11addCounterIEl
 1164              		.thumb
 1165              		.thumb_func
 1166              		.type	_ZN10chibios_rt16CounterSemaphore11addCounterIEl, %function
 1167              	_ZN10chibios_rt16CounterSemaphore11addCounterIEl:
 1168              		.fnstart
 1169              	.LFB336:
 1170              		.loc 1 346 0
 1171              		.cfi_startproc
 1172              		@ args = 0, pretend = 0, frame = 0
 1173              		@ frame_needed = 0, uses_anonymous_args = 0
 1174              		@ link register save eliminated.
 1175              	.LVL89:
 1176              		.loc 1 348 0
 1177 0000 FFF7FEBF 		b	chSemAddCounterI
 1178              	.LVL90:
 1179              		.cfi_endproc
 1180              	.LFE336:
 1181              		.cantunwind
 1182              		.fnend
 1183              		.size	_ZN10chibios_rt16CounterSemaphore11addCounterIEl, .-_ZN10chibios_rt16CounterSemaphore11addCo
 1184              		.section	.text._ZN10chibios_rt16CounterSemaphore11getCounterIEv,"ax",%progbits
 1185              		.align	1
 1186              		.global	_ZN10chibios_rt16CounterSemaphore11getCounterIEv
 1187              		.thumb
 1188              		.thumb_func
 1189              		.type	_ZN10chibios_rt16CounterSemaphore11getCounterIEv, %function
 1190              	_ZN10chibios_rt16CounterSemaphore11getCounterIEv:
 1191              		.fnstart
 1192              	.LFB337:
 1193              		.loc 1 351 0
 1194              		.cfi_startproc
 1195              		@ args = 0, pretend = 0, frame = 0
 1196              		@ frame_needed = 0, uses_anonymous_args = 0
 1197              		@ link register save eliminated.
ARM GAS  /tmp/cc7NwbHs.s 			page 22


 1198              	.LVL91:
 1199              		.loc 1 354 0
 1200 0000 8068     		ldr	r0, [r0, #8]
 1201              	.LVL92:
 1202 0002 7047     		bx	lr
 1203              		.cfi_endproc
 1204              	.LFE337:
 1205              		.cantunwind
 1206              		.fnend
 1207              		.size	_ZN10chibios_rt16CounterSemaphore11getCounterIEv, .-_ZN10chibios_rt16CounterSemaphore11getCo
 1208              		.section	.text._ZN10chibios_rt16CounterSemaphore10signalWaitEPS0_S1_,"ax",%progbits
 1209              		.align	1
 1210              		.global	_ZN10chibios_rt16CounterSemaphore10signalWaitEPS0_S1_
 1211              		.thumb
 1212              		.thumb_func
 1213              		.type	_ZN10chibios_rt16CounterSemaphore10signalWaitEPS0_S1_, %function
 1214              	_ZN10chibios_rt16CounterSemaphore10signalWaitEPS0_S1_:
 1215              		.fnstart
 1216              	.LFB338:
 1217              		.loc 1 357 0
 1218              		.cfi_startproc
 1219              		@ args = 0, pretend = 0, frame = 0
 1220              		@ frame_needed = 0, uses_anonymous_args = 0
 1221              		@ link register save eliminated.
 1222              	.LVL93:
 1223              		.loc 1 359 0
 1224 0000 FFF7FEBF 		b	chSemSignalWait
 1225              	.LVL94:
 1226              		.cfi_endproc
 1227              	.LFE338:
 1228              		.cantunwind
 1229              		.fnend
 1230              		.size	_ZN10chibios_rt16CounterSemaphore10signalWaitEPS0_S1_, .-_ZN10chibios_rt16CounterSemaphore10
 1231              		.section	.text._ZN10chibios_rt15BinarySemaphoreC2Eb,"ax",%progbits
 1232              		.align	1
 1233              		.global	_ZN10chibios_rt15BinarySemaphoreC2Eb
 1234              		.thumb
 1235              		.thumb_func
 1236              		.type	_ZN10chibios_rt15BinarySemaphoreC2Eb, %function
 1237              	_ZN10chibios_rt15BinarySemaphoreC2Eb:
 1238              		.fnstart
 1239              	.LFB340:
 1240              		.loc 1 365 0
 1241              		.cfi_startproc
 1242              		@ args = 0, pretend = 0, frame = 0
 1243              		@ frame_needed = 0, uses_anonymous_args = 0
 1244              	.LVL95:
 1245 0000 10B5     		push	{r4, lr}
 1246              		.save {r4, lr}
 1247              		.cfi_def_cfa_offset 8
 1248              		.cfi_offset 4, -8
 1249              		.cfi_offset 14, -4
 1250              	.LBB84:
 1251              	.LBB85:
 1252              		.file 6 "../../modules/ChibiOS/os/common/oslib/include/chbsem.h"
 1253              		.loc 6 126 0
 1254 0002 81F00101 		eor	r1, r1, #1
ARM GAS  /tmp/cc7NwbHs.s 			page 23


 1255              	.LVL96:
 1256              	.LBE85:
 1257              	.LBE84:
 1258              		.loc 1 365 0
 1259 0006 0446     		mov	r4, r0
 1260              	.LVL97:
 1261              	.LBB87:
 1262              	.LBB86:
 1263              		.loc 6 126 0
 1264 0008 FFF7FEFF 		bl	chSemObjectInit
 1265              	.LVL98:
 1266              	.LBE86:
 1267              	.LBE87:
 1268              		.loc 1 368 0
 1269 000c 2046     		mov	r0, r4
 1270 000e 10BD     		pop	{r4, pc}
 1271              		.cfi_endproc
 1272              	.LFE340:
 1273              		.fnend
 1274              		.size	_ZN10chibios_rt15BinarySemaphoreC2Eb, .-_ZN10chibios_rt15BinarySemaphoreC2Eb
 1275              		.global	_ZN10chibios_rt15BinarySemaphoreC1Eb
 1276              		.thumb_set _ZN10chibios_rt15BinarySemaphoreC1Eb,_ZN10chibios_rt15BinarySemaphoreC2Eb
 1277              		.section	.text._ZN10chibios_rt15BinarySemaphore4waitEv,"ax",%progbits
 1278              		.align	1
 1279              		.global	_ZN10chibios_rt15BinarySemaphore4waitEv
 1280              		.thumb
 1281              		.thumb_func
 1282              		.type	_ZN10chibios_rt15BinarySemaphore4waitEv, %function
 1283              	_ZN10chibios_rt15BinarySemaphore4waitEv:
 1284              		.fnstart
 1285              	.LFB342:
 1286              		.loc 1 370 0
 1287              		.cfi_startproc
 1288              		@ args = 0, pretend = 0, frame = 0
 1289              		@ frame_needed = 0, uses_anonymous_args = 0
 1290              		@ link register save eliminated.
 1291              	.LVL99:
 1292              	.LBB88:
 1293              	.LBB89:
 1294              		.loc 6 143 0
 1295 0000 FFF7FEBF 		b	chSemWait
 1296              	.LVL100:
 1297              	.LBE89:
 1298              	.LBE88:
 1299              		.cfi_endproc
 1300              	.LFE342:
 1301              		.cantunwind
 1302              		.fnend
 1303              		.size	_ZN10chibios_rt15BinarySemaphore4waitEv, .-_ZN10chibios_rt15BinarySemaphore4waitEv
 1304              		.section	.text._ZN10chibios_rt15BinarySemaphore5waitSEv,"ax",%progbits
 1305              		.align	1
 1306              		.global	_ZN10chibios_rt15BinarySemaphore5waitSEv
 1307              		.thumb
 1308              		.thumb_func
 1309              		.type	_ZN10chibios_rt15BinarySemaphore5waitSEv, %function
 1310              	_ZN10chibios_rt15BinarySemaphore5waitSEv:
 1311              		.fnstart
ARM GAS  /tmp/cc7NwbHs.s 			page 24


 1312              	.LFB343:
 1313              		.loc 1 375 0
 1314              		.cfi_startproc
 1315              		@ args = 0, pretend = 0, frame = 0
 1316              		@ frame_needed = 0, uses_anonymous_args = 0
 1317              		@ link register save eliminated.
 1318              	.LVL101:
 1319              	.LBB90:
 1320              	.LBB91:
 1321              		.loc 6 162 0
 1322 0000 FFF7FEBF 		b	chSemWaitS
 1323              	.LVL102:
 1324              	.LBE91:
 1325              	.LBE90:
 1326              		.cfi_endproc
 1327              	.LFE343:
 1328              		.cantunwind
 1329              		.fnend
 1330              		.size	_ZN10chibios_rt15BinarySemaphore5waitSEv, .-_ZN10chibios_rt15BinarySemaphore5waitSEv
 1331              		.section	.text._ZN10chibios_rt15BinarySemaphore4waitEm,"ax",%progbits
 1332              		.align	1
 1333              		.global	_ZN10chibios_rt15BinarySemaphore4waitEm
 1334              		.thumb
 1335              		.thumb_func
 1336              		.type	_ZN10chibios_rt15BinarySemaphore4waitEm, %function
 1337              	_ZN10chibios_rt15BinarySemaphore4waitEm:
 1338              		.fnstart
 1339              	.LFB344:
 1340              		.loc 1 380 0
 1341              		.cfi_startproc
 1342              		@ args = 0, pretend = 0, frame = 0
 1343              		@ frame_needed = 0, uses_anonymous_args = 0
 1344              		@ link register save eliminated.
 1345              	.LVL103:
 1346              	.LBB92:
 1347              	.LBB93:
 1348              		.loc 6 214 0
 1349 0000 FFF7FEBF 		b	chSemWaitTimeout
 1350              	.LVL104:
 1351              	.LBE93:
 1352              	.LBE92:
 1353              		.cfi_endproc
 1354              	.LFE344:
 1355              		.cantunwind
 1356              		.fnend
 1357              		.size	_ZN10chibios_rt15BinarySemaphore4waitEm, .-_ZN10chibios_rt15BinarySemaphore4waitEm
 1358              		.section	.text._ZN10chibios_rt15BinarySemaphore5waitSEm,"ax",%progbits
 1359              		.align	1
 1360              		.global	_ZN10chibios_rt15BinarySemaphore5waitSEm
 1361              		.thumb
 1362              		.thumb_func
 1363              		.type	_ZN10chibios_rt15BinarySemaphore5waitSEm, %function
 1364              	_ZN10chibios_rt15BinarySemaphore5waitSEm:
 1365              		.fnstart
 1366              	.LFB345:
 1367              		.loc 1 385 0
 1368              		.cfi_startproc
ARM GAS  /tmp/cc7NwbHs.s 			page 25


 1369              		@ args = 0, pretend = 0, frame = 0
 1370              		@ frame_needed = 0, uses_anonymous_args = 0
 1371              		@ link register save eliminated.
 1372              	.LVL105:
 1373              	.LBB94:
 1374              	.LBB95:
 1375              		.loc 6 189 0
 1376 0000 FFF7FEBF 		b	chSemWaitTimeoutS
 1377              	.LVL106:
 1378              	.LBE95:
 1379              	.LBE94:
 1380              		.cfi_endproc
 1381              	.LFE345:
 1382              		.cantunwind
 1383              		.fnend
 1384              		.size	_ZN10chibios_rt15BinarySemaphore5waitSEm, .-_ZN10chibios_rt15BinarySemaphore5waitSEm
 1385              		.section	.text._ZN10chibios_rt15BinarySemaphore5resetEb,"ax",%progbits
 1386              		.align	1
 1387              		.global	_ZN10chibios_rt15BinarySemaphore5resetEb
 1388              		.thumb
 1389              		.thumb_func
 1390              		.type	_ZN10chibios_rt15BinarySemaphore5resetEb, %function
 1391              	_ZN10chibios_rt15BinarySemaphore5resetEb:
 1392              		.fnstart
 1393              	.LFB346:
 1394              		.loc 1 390 0
 1395              		.cfi_startproc
 1396              		@ args = 0, pretend = 0, frame = 0
 1397              		@ frame_needed = 0, uses_anonymous_args = 0
 1398              		@ link register save eliminated.
 1399              	.LVL107:
 1400              	.LBB98:
 1401              	.LBB99:
 1402              		.loc 6 255 0
 1403 0000 81F00101 		eor	r1, r1, #1
 1404              	.LVL108:
 1405 0004 FFF7FEBF 		b	chSemReset
 1406              	.LVL109:
 1407              	.LBE99:
 1408              	.LBE98:
 1409              		.cfi_endproc
 1410              	.LFE346:
 1411              		.cantunwind
 1412              		.fnend
 1413              		.size	_ZN10chibios_rt15BinarySemaphore5resetEb, .-_ZN10chibios_rt15BinarySemaphore5resetEb
 1414              		.section	.text._ZN10chibios_rt15BinarySemaphore6resetIEb,"ax",%progbits
 1415              		.align	1
 1416              		.global	_ZN10chibios_rt15BinarySemaphore6resetIEb
 1417              		.thumb
 1418              		.thumb_func
 1419              		.type	_ZN10chibios_rt15BinarySemaphore6resetIEb, %function
 1420              	_ZN10chibios_rt15BinarySemaphore6resetIEb:
 1421              		.fnstart
 1422              	.LFB347:
 1423              		.loc 1 395 0
 1424              		.cfi_startproc
 1425              		@ args = 0, pretend = 0, frame = 0
ARM GAS  /tmp/cc7NwbHs.s 			page 26


 1426              		@ frame_needed = 0, uses_anonymous_args = 0
 1427              		@ link register save eliminated.
 1428              	.LVL110:
 1429              	.LBB102:
 1430              	.LBB103:
 1431              		.loc 6 236 0
 1432 0000 81F00101 		eor	r1, r1, #1
 1433              	.LVL111:
 1434 0004 FFF7FEBF 		b	chSemResetI
 1435              	.LVL112:
 1436              	.LBE103:
 1437              	.LBE102:
 1438              		.cfi_endproc
 1439              	.LFE347:
 1440              		.cantunwind
 1441              		.fnend
 1442              		.size	_ZN10chibios_rt15BinarySemaphore6resetIEb, .-_ZN10chibios_rt15BinarySemaphore6resetIEb
 1443              		.section	.text._ZN10chibios_rt15BinarySemaphore6signalEv,"ax",%progbits
 1444              		.align	1
 1445              		.global	_ZN10chibios_rt15BinarySemaphore6signalEv
 1446              		.thumb
 1447              		.thumb_func
 1448              		.type	_ZN10chibios_rt15BinarySemaphore6signalEv, %function
 1449              	_ZN10chibios_rt15BinarySemaphore6signalEv:
 1450              		.fnstart
 1451              	.LFB348:
 1452              		.loc 1 400 0
 1453              		.cfi_startproc
 1454              		@ args = 0, pretend = 0, frame = 0
 1455              		@ frame_needed = 0, uses_anonymous_args = 0
 1456              	.LVL113:
 1457 0000 10B5     		push	{r4, lr}
 1458              		.save {r4, lr}
 1459              		.cfi_def_cfa_offset 8
 1460              		.cfi_offset 4, -8
 1461              		.cfi_offset 14, -4
 1462              	.LBB119:
 1463              	.LBB120:
 1464              	.LBB121:
 1465              	.LBB122:
 1466              	.LBB123:
 1467              	.LBB124:
 1468              	.LBB125:
 1469              		.file 7 "../../modules/ChibiOS/os/common/ext/CMSIS/include/cmsis_gcc.h"
 1470              		.loc 7 264 0
 1471 0002 2023     		movs	r3, #32
 1472              	.LBE125:
 1473              	.LBE124:
 1474              	.LBE123:
 1475              	.LBE122:
 1476              	.LBE121:
 1477              	.LBE120:
 1478              	.LBE119:
 1479              		.loc 1 400 0
 1480 0004 0446     		mov	r4, r0
 1481              	.LVL114:
 1482              	.LBB139:
ARM GAS  /tmp/cc7NwbHs.s 			page 27


 1483              	.LBB138:
 1484              	.LBB130:
 1485              	.LBB129:
 1486              	.LBB128:
 1487              	.LBB127:
 1488              	.LBB126:
 1489              		.loc 7 264 0
 1490              	@ 264 "../../modules/ChibiOS/os/common/ext/CMSIS/include/cmsis_gcc.h" 1
 1491 0006 83F31188 		MSR basepri, r3
 1492              	@ 0 "" 2
 1493              		.thumb
 1494              	.LBE126:
 1495              	.LBE127:
 1496              	.LBE128:
 1497              		.file 8 "../../modules/ChibiOS/os/rt/include/chsys.h"
 1498              		.loc 8 377 0
 1499 000a FFF7FEFF 		bl	_stats_start_measure_crit_thd
 1500              	.LVL115:
 1501              	.LBE129:
 1502              	.LBE130:
 1503              	.LBB131:
 1504              	.LBB132:
 1505              		.loc 6 270 0
 1506 000e A368     		ldr	r3, [r4, #8]
 1507 0010 002B     		cmp	r3, #0
 1508 0012 02DC     		bgt	.L67
 1509              		.loc 6 271 0
 1510 0014 2046     		mov	r0, r4
 1511 0016 FFF7FEFF 		bl	chSemSignalI
 1512              	.LVL116:
 1513              	.L67:
 1514              	.LBE132:
 1515              	.LBE131:
 1516              		.loc 6 286 0
 1517 001a FFF7FEFF 		bl	chSchRescheduleS
 1518              	.LVL117:
 1519              	.LBB133:
 1520              	.LBB134:
 1521              		.loc 8 389 0
 1522 001e FFF7FEFF 		bl	_stats_stop_measure_crit_thd
 1523              	.LVL118:
 1524              	.LBB135:
 1525              	.LBB136:
 1526              	.LBB137:
 1527              		.loc 7 264 0
 1528 0022 0023     		movs	r3, #0
 1529              	@ 264 "../../modules/ChibiOS/os/common/ext/CMSIS/include/cmsis_gcc.h" 1
 1530 0024 83F31188 		MSR basepri, r3
 1531              	@ 0 "" 2
 1532              		.thumb
 1533 0028 10BD     		pop	{r4, pc}
 1534              	.LBE137:
 1535              	.LBE136:
 1536              	.LBE135:
 1537              	.LBE134:
 1538              	.LBE133:
 1539              	.LBE138:
ARM GAS  /tmp/cc7NwbHs.s 			page 28


 1540              	.LBE139:
 1541              		.cfi_endproc
 1542              	.LFE348:
 1543              		.fnend
 1544              		.size	_ZN10chibios_rt15BinarySemaphore6signalEv, .-_ZN10chibios_rt15BinarySemaphore6signalEv
 1545              		.section	.text._ZN10chibios_rt15BinarySemaphore7signalIEv,"ax",%progbits
 1546              		.align	1
 1547              		.global	_ZN10chibios_rt15BinarySemaphore7signalIEv
 1548              		.thumb
 1549              		.thumb_func
 1550              		.type	_ZN10chibios_rt15BinarySemaphore7signalIEv, %function
 1551              	_ZN10chibios_rt15BinarySemaphore7signalIEv:
 1552              		.fnstart
 1553              	.LFB349:
 1554              		.loc 1 405 0
 1555              		.cfi_startproc
 1556              		@ args = 0, pretend = 0, frame = 0
 1557              		@ frame_needed = 0, uses_anonymous_args = 0
 1558              		@ link register save eliminated.
 1559              	.LVL119:
 1560              	.LBB142:
 1561              	.LBB143:
 1562              		.loc 6 270 0
 1563 0000 8368     		ldr	r3, [r0, #8]
 1564 0002 002B     		cmp	r3, #0
 1565 0004 01DC     		bgt	.L69
 1566              		.loc 6 271 0
 1567 0006 FFF7FEBF 		b	chSemSignalI
 1568              	.LVL120:
 1569              	.L69:
 1570 000a 7047     		bx	lr
 1571              	.LBE143:
 1572              	.LBE142:
 1573              		.cfi_endproc
 1574              	.LFE349:
 1575              		.cantunwind
 1576              		.fnend
 1577              		.size	_ZN10chibios_rt15BinarySemaphore7signalIEv, .-_ZN10chibios_rt15BinarySemaphore7signalIEv
 1578              		.section	.text._ZN10chibios_rt15BinarySemaphore9getStateIEv,"ax",%progbits
 1579              		.align	1
 1580              		.global	_ZN10chibios_rt15BinarySemaphore9getStateIEv
 1581              		.thumb
 1582              		.thumb_func
 1583              		.type	_ZN10chibios_rt15BinarySemaphore9getStateIEv, %function
 1584              	_ZN10chibios_rt15BinarySemaphore9getStateIEv:
 1585              		.fnstart
 1586              	.LFB350:
 1587              		.loc 1 410 0
 1588              		.cfi_startproc
 1589              		@ args = 0, pretend = 0, frame = 0
 1590              		@ frame_needed = 0, uses_anonymous_args = 0
 1591              		@ link register save eliminated.
 1592              	.LVL121:
 1593              	.LBB144:
 1594              	.LBB145:
 1595              		.loc 6 304 0
 1596 0000 8068     		ldr	r0, [r0, #8]
ARM GAS  /tmp/cc7NwbHs.s 			page 29


 1597              	.LVL122:
 1598              	.LBE145:
 1599              	.LBE144:
 1600              		.loc 1 413 0
 1601 0002 0028     		cmp	r0, #0
 1602 0004 CCBF     		ite	gt
 1603 0006 0020     		movgt	r0, #0
 1604 0008 0120     		movle	r0, #1
 1605 000a 7047     		bx	lr
 1606              		.cfi_endproc
 1607              	.LFE350:
 1608              		.cantunwind
 1609              		.fnend
 1610              		.size	_ZN10chibios_rt15BinarySemaphore9getStateIEv, .-_ZN10chibios_rt15BinarySemaphore9getStateIEv
 1611              		.section	.text._ZN10chibios_rt5MutexC2Ev,"ax",%progbits
 1612              		.align	1
 1613              		.global	_ZN10chibios_rt5MutexC2Ev
 1614              		.thumb
 1615              		.thumb_func
 1616              		.type	_ZN10chibios_rt5MutexC2Ev, %function
 1617              	_ZN10chibios_rt5MutexC2Ev:
 1618              		.fnstart
 1619              	.LFB352:
 1620              		.loc 1 420 0
 1621              		.cfi_startproc
 1622              		@ args = 0, pretend = 0, frame = 0
 1623              		@ frame_needed = 0, uses_anonymous_args = 0
 1624              	.LVL123:
 1625 0000 10B5     		push	{r4, lr}
 1626              		.save {r4, lr}
 1627              		.cfi_def_cfa_offset 8
 1628              		.cfi_offset 4, -8
 1629              		.cfi_offset 14, -4
 1630              		.loc 1 420 0
 1631 0002 0446     		mov	r4, r0
 1632              	.LBB146:
 1633              		.loc 1 422 0
 1634 0004 FFF7FEFF 		bl	chMtxObjectInit
 1635              	.LVL124:
 1636              	.LBE146:
 1637              		.loc 1 423 0
 1638 0008 2046     		mov	r0, r4
 1639 000a 10BD     		pop	{r4, pc}
 1640              		.cfi_endproc
 1641              	.LFE352:
 1642              		.fnend
 1643              		.size	_ZN10chibios_rt5MutexC2Ev, .-_ZN10chibios_rt5MutexC2Ev
 1644              		.global	_ZN10chibios_rt5MutexC1Ev
 1645              		.thumb_set _ZN10chibios_rt5MutexC1Ev,_ZN10chibios_rt5MutexC2Ev
 1646              		.section	.text._ZN10chibios_rt5Mutex7tryLockEv,"ax",%progbits
 1647              		.align	1
 1648              		.global	_ZN10chibios_rt5Mutex7tryLockEv
 1649              		.thumb
 1650              		.thumb_func
 1651              		.type	_ZN10chibios_rt5Mutex7tryLockEv, %function
 1652              	_ZN10chibios_rt5Mutex7tryLockEv:
 1653              		.fnstart
ARM GAS  /tmp/cc7NwbHs.s 			page 30


 1654              	.LFB354:
 1655              		.loc 1 425 0
 1656              		.cfi_startproc
 1657              		@ args = 0, pretend = 0, frame = 0
 1658              		@ frame_needed = 0, uses_anonymous_args = 0
 1659              		@ link register save eliminated.
 1660              	.LVL125:
 1661              		.loc 1 427 0
 1662 0000 FFF7FEBF 		b	chMtxTryLock
 1663              	.LVL126:
 1664              		.cfi_endproc
 1665              	.LFE354:
 1666              		.cantunwind
 1667              		.fnend
 1668              		.size	_ZN10chibios_rt5Mutex7tryLockEv, .-_ZN10chibios_rt5Mutex7tryLockEv
 1669              		.section	.text._ZN10chibios_rt5Mutex8tryLockSEv,"ax",%progbits
 1670              		.align	1
 1671              		.global	_ZN10chibios_rt5Mutex8tryLockSEv
 1672              		.thumb
 1673              		.thumb_func
 1674              		.type	_ZN10chibios_rt5Mutex8tryLockSEv, %function
 1675              	_ZN10chibios_rt5Mutex8tryLockSEv:
 1676              		.fnstart
 1677              	.LFB355:
 1678              		.loc 1 430 0
 1679              		.cfi_startproc
 1680              		@ args = 0, pretend = 0, frame = 0
 1681              		@ frame_needed = 0, uses_anonymous_args = 0
 1682              		@ link register save eliminated.
 1683              	.LVL127:
 1684              		.loc 1 432 0
 1685 0000 FFF7FEBF 		b	chMtxTryLockS
 1686              	.LVL128:
 1687              		.cfi_endproc
 1688              	.LFE355:
 1689              		.cantunwind
 1690              		.fnend
 1691              		.size	_ZN10chibios_rt5Mutex8tryLockSEv, .-_ZN10chibios_rt5Mutex8tryLockSEv
 1692              		.section	.text._ZN10chibios_rt5Mutex4lockEv,"ax",%progbits
 1693              		.align	1
 1694              		.global	_ZN10chibios_rt5Mutex4lockEv
 1695              		.thumb
 1696              		.thumb_func
 1697              		.type	_ZN10chibios_rt5Mutex4lockEv, %function
 1698              	_ZN10chibios_rt5Mutex4lockEv:
 1699              		.fnstart
 1700              	.LFB356:
 1701              		.loc 1 435 0
 1702              		.cfi_startproc
 1703              		@ args = 0, pretend = 0, frame = 0
 1704              		@ frame_needed = 0, uses_anonymous_args = 0
 1705              		@ link register save eliminated.
 1706              	.LVL129:
 1707              		.loc 1 437 0
 1708 0000 FFF7FEBF 		b	chMtxLock
 1709              	.LVL130:
 1710              		.cfi_endproc
ARM GAS  /tmp/cc7NwbHs.s 			page 31


 1711              	.LFE356:
 1712              		.cantunwind
 1713              		.fnend
 1714              		.size	_ZN10chibios_rt5Mutex4lockEv, .-_ZN10chibios_rt5Mutex4lockEv
 1715              		.section	.text._ZN10chibios_rt5Mutex5lockSEv,"ax",%progbits
 1716              		.align	1
 1717              		.global	_ZN10chibios_rt5Mutex5lockSEv
 1718              		.thumb
 1719              		.thumb_func
 1720              		.type	_ZN10chibios_rt5Mutex5lockSEv, %function
 1721              	_ZN10chibios_rt5Mutex5lockSEv:
 1722              		.fnstart
 1723              	.LFB357:
 1724              		.loc 1 440 0
 1725              		.cfi_startproc
 1726              		@ args = 0, pretend = 0, frame = 0
 1727              		@ frame_needed = 0, uses_anonymous_args = 0
 1728              		@ link register save eliminated.
 1729              	.LVL131:
 1730              		.loc 1 442 0
 1731 0000 FFF7FEBF 		b	chMtxLockS
 1732              	.LVL132:
 1733              		.cfi_endproc
 1734              	.LFE357:
 1735              		.cantunwind
 1736              		.fnend
 1737              		.size	_ZN10chibios_rt5Mutex5lockSEv, .-_ZN10chibios_rt5Mutex5lockSEv
 1738              		.section	.text._ZN10chibios_rt5Mutex6unlockEv,"ax",%progbits
 1739              		.align	1
 1740              		.global	_ZN10chibios_rt5Mutex6unlockEv
 1741              		.thumb
 1742              		.thumb_func
 1743              		.type	_ZN10chibios_rt5Mutex6unlockEv, %function
 1744              	_ZN10chibios_rt5Mutex6unlockEv:
 1745              		.fnstart
 1746              	.LFB358:
 1747              		.loc 1 445 0
 1748              		.cfi_startproc
 1749              		@ args = 0, pretend = 0, frame = 0
 1750              		@ frame_needed = 0, uses_anonymous_args = 0
 1751              		@ link register save eliminated.
 1752              	.LVL133:
 1753              		.loc 1 447 0
 1754 0000 FFF7FEBF 		b	chMtxUnlock
 1755              	.LVL134:
 1756              		.cfi_endproc
 1757              	.LFE358:
 1758              		.cantunwind
 1759              		.fnend
 1760              		.size	_ZN10chibios_rt5Mutex6unlockEv, .-_ZN10chibios_rt5Mutex6unlockEv
 1761              		.section	.text._ZN10chibios_rt5Mutex7unlockSEv,"ax",%progbits
 1762              		.align	1
 1763              		.global	_ZN10chibios_rt5Mutex7unlockSEv
 1764              		.thumb
 1765              		.thumb_func
 1766              		.type	_ZN10chibios_rt5Mutex7unlockSEv, %function
 1767              	_ZN10chibios_rt5Mutex7unlockSEv:
ARM GAS  /tmp/cc7NwbHs.s 			page 32


 1768              		.fnstart
 1769              	.LFB359:
 1770              		.loc 1 450 0
 1771              		.cfi_startproc
 1772              		@ args = 0, pretend = 0, frame = 0
 1773              		@ frame_needed = 0, uses_anonymous_args = 0
 1774              		@ link register save eliminated.
 1775              	.LVL135:
 1776              		.loc 1 452 0
 1777 0000 FFF7FEBF 		b	chMtxUnlockS
 1778              	.LVL136:
 1779              		.cfi_endproc
 1780              	.LFE359:
 1781              		.cantunwind
 1782              		.fnend
 1783              		.size	_ZN10chibios_rt5Mutex7unlockSEv, .-_ZN10chibios_rt5Mutex7unlockSEv
 1784              		.section	.text._ZN10chibios_rt7CondVarC2Ev,"ax",%progbits
 1785              		.align	1
 1786              		.global	_ZN10chibios_rt7CondVarC2Ev
 1787              		.thumb
 1788              		.thumb_func
 1789              		.type	_ZN10chibios_rt7CondVarC2Ev, %function
 1790              	_ZN10chibios_rt7CondVarC2Ev:
 1791              		.fnstart
 1792              	.LFB361:
 1793              		.loc 1 459 0
 1794              		.cfi_startproc
 1795              		@ args = 0, pretend = 0, frame = 0
 1796              		@ frame_needed = 0, uses_anonymous_args = 0
 1797              	.LVL137:
 1798 0000 10B5     		push	{r4, lr}
 1799              		.save {r4, lr}
 1800              		.cfi_def_cfa_offset 8
 1801              		.cfi_offset 4, -8
 1802              		.cfi_offset 14, -4
 1803              		.loc 1 459 0
 1804 0002 0446     		mov	r4, r0
 1805              	.LBB147:
 1806              		.loc 1 461 0
 1807 0004 FFF7FEFF 		bl	chCondObjectInit
 1808              	.LVL138:
 1809              	.LBE147:
 1810              		.loc 1 462 0
 1811 0008 2046     		mov	r0, r4
 1812 000a 10BD     		pop	{r4, pc}
 1813              		.cfi_endproc
 1814              	.LFE361:
 1815              		.fnend
 1816              		.size	_ZN10chibios_rt7CondVarC2Ev, .-_ZN10chibios_rt7CondVarC2Ev
 1817              		.global	_ZN10chibios_rt7CondVarC1Ev
 1818              		.thumb_set _ZN10chibios_rt7CondVarC1Ev,_ZN10chibios_rt7CondVarC2Ev
 1819              		.section	.text._ZN10chibios_rt7CondVar6signalEv,"ax",%progbits
 1820              		.align	1
 1821              		.global	_ZN10chibios_rt7CondVar6signalEv
 1822              		.thumb
 1823              		.thumb_func
 1824              		.type	_ZN10chibios_rt7CondVar6signalEv, %function
ARM GAS  /tmp/cc7NwbHs.s 			page 33


 1825              	_ZN10chibios_rt7CondVar6signalEv:
 1826              		.fnstart
 1827              	.LFB363:
 1828              		.loc 1 464 0
 1829              		.cfi_startproc
 1830              		@ args = 0, pretend = 0, frame = 0
 1831              		@ frame_needed = 0, uses_anonymous_args = 0
 1832              		@ link register save eliminated.
 1833              	.LVL139:
 1834              		.loc 1 466 0
 1835 0000 FFF7FEBF 		b	chCondSignal
 1836              	.LVL140:
 1837              		.cfi_endproc
 1838              	.LFE363:
 1839              		.cantunwind
 1840              		.fnend
 1841              		.size	_ZN10chibios_rt7CondVar6signalEv, .-_ZN10chibios_rt7CondVar6signalEv
 1842              		.section	.text._ZN10chibios_rt7CondVar7signalIEv,"ax",%progbits
 1843              		.align	1
 1844              		.global	_ZN10chibios_rt7CondVar7signalIEv
 1845              		.thumb
 1846              		.thumb_func
 1847              		.type	_ZN10chibios_rt7CondVar7signalIEv, %function
 1848              	_ZN10chibios_rt7CondVar7signalIEv:
 1849              		.fnstart
 1850              	.LFB364:
 1851              		.loc 1 469 0
 1852              		.cfi_startproc
 1853              		@ args = 0, pretend = 0, frame = 0
 1854              		@ frame_needed = 0, uses_anonymous_args = 0
 1855              		@ link register save eliminated.
 1856              	.LVL141:
 1857              		.loc 1 471 0
 1858 0000 FFF7FEBF 		b	chCondSignalI
 1859              	.LVL142:
 1860              		.cfi_endproc
 1861              	.LFE364:
 1862              		.cantunwind
 1863              		.fnend
 1864              		.size	_ZN10chibios_rt7CondVar7signalIEv, .-_ZN10chibios_rt7CondVar7signalIEv
 1865              		.section	.text._ZN10chibios_rt7CondVar9broadcastEv,"ax",%progbits
 1866              		.align	1
 1867              		.global	_ZN10chibios_rt7CondVar9broadcastEv
 1868              		.thumb
 1869              		.thumb_func
 1870              		.type	_ZN10chibios_rt7CondVar9broadcastEv, %function
 1871              	_ZN10chibios_rt7CondVar9broadcastEv:
 1872              		.fnstart
 1873              	.LFB365:
 1874              		.loc 1 474 0
 1875              		.cfi_startproc
 1876              		@ args = 0, pretend = 0, frame = 0
 1877              		@ frame_needed = 0, uses_anonymous_args = 0
 1878              		@ link register save eliminated.
 1879              	.LVL143:
 1880              		.loc 1 476 0
 1881 0000 FFF7FEBF 		b	chCondBroadcast
ARM GAS  /tmp/cc7NwbHs.s 			page 34


 1882              	.LVL144:
 1883              		.cfi_endproc
 1884              	.LFE365:
 1885              		.cantunwind
 1886              		.fnend
 1887              		.size	_ZN10chibios_rt7CondVar9broadcastEv, .-_ZN10chibios_rt7CondVar9broadcastEv
 1888              		.section	.text._ZN10chibios_rt7CondVar10broadcastIEv,"ax",%progbits
 1889              		.align	1
 1890              		.global	_ZN10chibios_rt7CondVar10broadcastIEv
 1891              		.thumb
 1892              		.thumb_func
 1893              		.type	_ZN10chibios_rt7CondVar10broadcastIEv, %function
 1894              	_ZN10chibios_rt7CondVar10broadcastIEv:
 1895              		.fnstart
 1896              	.LFB366:
 1897              		.loc 1 479 0
 1898              		.cfi_startproc
 1899              		@ args = 0, pretend = 0, frame = 0
 1900              		@ frame_needed = 0, uses_anonymous_args = 0
 1901              		@ link register save eliminated.
 1902              	.LVL145:
 1903              		.loc 1 481 0
 1904 0000 FFF7FEBF 		b	chCondBroadcastI
 1905              	.LVL146:
 1906              		.cfi_endproc
 1907              	.LFE366:
 1908              		.cantunwind
 1909              		.fnend
 1910              		.size	_ZN10chibios_rt7CondVar10broadcastIEv, .-_ZN10chibios_rt7CondVar10broadcastIEv
 1911              		.section	.text._ZN10chibios_rt7CondVar4waitEv,"ax",%progbits
 1912              		.align	1
 1913              		.global	_ZN10chibios_rt7CondVar4waitEv
 1914              		.thumb
 1915              		.thumb_func
 1916              		.type	_ZN10chibios_rt7CondVar4waitEv, %function
 1917              	_ZN10chibios_rt7CondVar4waitEv:
 1918              		.fnstart
 1919              	.LFB367:
 1920              		.loc 1 484 0
 1921              		.cfi_startproc
 1922              		@ args = 0, pretend = 0, frame = 0
 1923              		@ frame_needed = 0, uses_anonymous_args = 0
 1924              		@ link register save eliminated.
 1925              	.LVL147:
 1926              		.loc 1 486 0
 1927 0000 FFF7FEBF 		b	chCondWait
 1928              	.LVL148:
 1929              		.cfi_endproc
 1930              	.LFE367:
 1931              		.cantunwind
 1932              		.fnend
 1933              		.size	_ZN10chibios_rt7CondVar4waitEv, .-_ZN10chibios_rt7CondVar4waitEv
 1934              		.section	.text._ZN10chibios_rt7CondVar5waitSEv,"ax",%progbits
 1935              		.align	1
 1936              		.global	_ZN10chibios_rt7CondVar5waitSEv
 1937              		.thumb
 1938              		.thumb_func
ARM GAS  /tmp/cc7NwbHs.s 			page 35


 1939              		.type	_ZN10chibios_rt7CondVar5waitSEv, %function
 1940              	_ZN10chibios_rt7CondVar5waitSEv:
 1941              		.fnstart
 1942              	.LFB368:
 1943              		.loc 1 489 0
 1944              		.cfi_startproc
 1945              		@ args = 0, pretend = 0, frame = 0
 1946              		@ frame_needed = 0, uses_anonymous_args = 0
 1947              		@ link register save eliminated.
 1948              	.LVL149:
 1949              		.loc 1 491 0
 1950 0000 FFF7FEBF 		b	chCondWaitS
 1951              	.LVL150:
 1952              		.cfi_endproc
 1953              	.LFE368:
 1954              		.cantunwind
 1955              		.fnend
 1956              		.size	_ZN10chibios_rt7CondVar5waitSEv, .-_ZN10chibios_rt7CondVar5waitSEv
 1957              		.section	.text._ZN10chibios_rt7CondVar4waitEm,"ax",%progbits
 1958              		.align	1
 1959              		.global	_ZN10chibios_rt7CondVar4waitEm
 1960              		.thumb
 1961              		.thumb_func
 1962              		.type	_ZN10chibios_rt7CondVar4waitEm, %function
 1963              	_ZN10chibios_rt7CondVar4waitEm:
 1964              		.fnstart
 1965              	.LFB369:
 1966              		.loc 1 495 0
 1967              		.cfi_startproc
 1968              		@ args = 0, pretend = 0, frame = 0
 1969              		@ frame_needed = 0, uses_anonymous_args = 0
 1970              		@ link register save eliminated.
 1971              	.LVL151:
 1972              		.loc 1 497 0
 1973 0000 FFF7FEBF 		b	chCondWaitTimeout
 1974              	.LVL152:
 1975              		.cfi_endproc
 1976              	.LFE369:
 1977              		.cantunwind
 1978              		.fnend
 1979              		.size	_ZN10chibios_rt7CondVar4waitEm, .-_ZN10chibios_rt7CondVar4waitEm
 1980              		.section	.text._ZN10chibios_rt11EvtListener16getAndClearFlagsEv,"ax",%progbits
 1981              		.align	1
 1982              		.global	_ZN10chibios_rt11EvtListener16getAndClearFlagsEv
 1983              		.thumb
 1984              		.thumb_func
 1985              		.type	_ZN10chibios_rt11EvtListener16getAndClearFlagsEv, %function
 1986              	_ZN10chibios_rt11EvtListener16getAndClearFlagsEv:
 1987              		.fnstart
 1988              	.LFB370:
 1989              		.loc 1 507 0
 1990              		.cfi_startproc
 1991              		@ args = 0, pretend = 0, frame = 0
 1992              		@ frame_needed = 0, uses_anonymous_args = 0
 1993              		@ link register save eliminated.
 1994              	.LVL153:
 1995              		.loc 1 509 0
ARM GAS  /tmp/cc7NwbHs.s 			page 36


 1996 0000 FFF7FEBF 		b	chEvtGetAndClearFlags
 1997              	.LVL154:
 1998              		.cfi_endproc
 1999              	.LFE370:
 2000              		.cantunwind
 2001              		.fnend
 2002              		.size	_ZN10chibios_rt11EvtListener16getAndClearFlagsEv, .-_ZN10chibios_rt11EvtListener16getAndClea
 2003              		.section	.text._ZN10chibios_rt11EvtListener17getAndClearFlagsIEv,"ax",%progbits
 2004              		.align	1
 2005              		.global	_ZN10chibios_rt11EvtListener17getAndClearFlagsIEv
 2006              		.thumb
 2007              		.thumb_func
 2008              		.type	_ZN10chibios_rt11EvtListener17getAndClearFlagsIEv, %function
 2009              	_ZN10chibios_rt11EvtListener17getAndClearFlagsIEv:
 2010              		.fnstart
 2011              	.LFB371:
 2012              		.loc 1 512 0
 2013              		.cfi_startproc
 2014              		@ args = 0, pretend = 0, frame = 0
 2015              		@ frame_needed = 0, uses_anonymous_args = 0
 2016              		@ link register save eliminated.
 2017              	.LVL155:
 2018              		.loc 1 514 0
 2019 0000 FFF7FEBF 		b	chEvtGetAndClearFlagsI
 2020              	.LVL156:
 2021              		.cfi_endproc
 2022              	.LFE371:
 2023              		.cantunwind
 2024              		.fnend
 2025              		.size	_ZN10chibios_rt11EvtListener17getAndClearFlagsIEv, .-_ZN10chibios_rt11EvtListener17getAndCle
 2026              		.section	.text._ZN10chibios_rt9EvtSourceC2Ev,"ax",%progbits
 2027              		.align	1
 2028              		.global	_ZN10chibios_rt9EvtSourceC2Ev
 2029              		.thumb
 2030              		.thumb_func
 2031              		.type	_ZN10chibios_rt9EvtSourceC2Ev, %function
 2032              	_ZN10chibios_rt9EvtSourceC2Ev:
 2033              		.fnstart
 2034              	.LFB373:
 2035              		.loc 1 520 0
 2036              		.cfi_startproc
 2037              		@ args = 0, pretend = 0, frame = 0
 2038              		@ frame_needed = 0, uses_anonymous_args = 0
 2039              		@ link register save eliminated.
 2040              	.LVL157:
 2041              	.LBB148:
 2042              	.LBB149:
 2043              	.LBB150:
 2044              		.file 9 "../../modules/ChibiOS/os/rt/include/chevents.h"
 2045              		.loc 9 172 0
 2046 0000 0060     		str	r0, [r0]
 2047              	.LBE150:
 2048              	.LBE149:
 2049              	.LBE148:
 2050              		.loc 1 523 0
 2051 0002 7047     		bx	lr
 2052              		.cfi_endproc
ARM GAS  /tmp/cc7NwbHs.s 			page 37


 2053              	.LFE373:
 2054              		.cantunwind
 2055              		.fnend
 2056              		.size	_ZN10chibios_rt9EvtSourceC2Ev, .-_ZN10chibios_rt9EvtSourceC2Ev
 2057              		.global	_ZN10chibios_rt9EvtSourceC1Ev
 2058              		.thumb_set _ZN10chibios_rt9EvtSourceC1Ev,_ZN10chibios_rt9EvtSourceC2Ev
 2059              		.section	.text._ZN10chibios_rt9EvtSource11registerOneEPNS_11EvtListenerEl,"ax",%progbits
 2060              		.align	1
 2061              		.global	_ZN10chibios_rt9EvtSource11registerOneEPNS_11EvtListenerEl
 2062              		.thumb
 2063              		.thumb_func
 2064              		.type	_ZN10chibios_rt9EvtSource11registerOneEPNS_11EvtListenerEl, %function
 2065              	_ZN10chibios_rt9EvtSource11registerOneEPNS_11EvtListenerEl:
 2066              		.fnstart
 2067              	.LFB375:
 2068              		.loc 1 526 0
 2069              		.cfi_startproc
 2070              		@ args = 0, pretend = 0, frame = 0
 2071              		@ frame_needed = 0, uses_anonymous_args = 0
 2072              		@ link register save eliminated.
 2073              	.LVL158:
 2074              	.LBB155:
 2075              	.LBB156:
 2076              	.LBB157:
 2077              	.LBB158:
 2078              		.loc 9 193 0
 2079 0000 0123     		movs	r3, #1
 2080 0002 03FA02F2 		lsl	r2, r3, r2
 2081              	.LVL159:
 2082 0006 4FF0FF33 		mov	r3, #-1
 2083 000a FFF7FEBF 		b	chEvtRegisterMaskWithFlags
 2084              	.LVL160:
 2085              	.LBE158:
 2086              	.LBE157:
 2087              	.LBE156:
 2088              	.LBE155:
 2089              		.cfi_endproc
 2090              	.LFE375:
 2091              		.cantunwind
 2092              		.fnend
 2093              		.size	_ZN10chibios_rt9EvtSource11registerOneEPNS_11EvtListenerEl, .-_ZN10chibios_rt9EvtSource11reg
 2094              		.section	.text._ZN10chibios_rt9EvtSource12registerMaskEPNS_11EvtListenerEm,"ax",%progbits
 2095              		.align	1
 2096              		.global	_ZN10chibios_rt9EvtSource12registerMaskEPNS_11EvtListenerEm
 2097              		.thumb
 2098              		.thumb_func
 2099              		.type	_ZN10chibios_rt9EvtSource12registerMaskEPNS_11EvtListenerEm, %function
 2100              	_ZN10chibios_rt9EvtSource12registerMaskEPNS_11EvtListenerEm:
 2101              		.fnstart
 2102              	.LFB376:
 2103              		.loc 1 532 0
 2104              		.cfi_startproc
 2105              		@ args = 0, pretend = 0, frame = 0
 2106              		@ frame_needed = 0, uses_anonymous_args = 0
 2107              		@ link register save eliminated.
 2108              	.LVL161:
 2109              	.LBB161:
ARM GAS  /tmp/cc7NwbHs.s 			page 38


 2110              	.LBB162:
 2111              		.loc 9 193 0
 2112 0000 4FF0FF33 		mov	r3, #-1
 2113 0004 FFF7FEBF 		b	chEvtRegisterMaskWithFlags
 2114              	.LVL162:
 2115              	.LBE162:
 2116              	.LBE161:
 2117              		.cfi_endproc
 2118              	.LFE376:
 2119              		.cantunwind
 2120              		.fnend
 2121              		.size	_ZN10chibios_rt9EvtSource12registerMaskEPNS_11EvtListenerEm, .-_ZN10chibios_rt9EvtSource12re
 2122              		.section	.text._ZN10chibios_rt9EvtSource10unregisterEPNS_11EvtListenerE,"ax",%progbits
 2123              		.align	1
 2124              		.global	_ZN10chibios_rt9EvtSource10unregisterEPNS_11EvtListenerE
 2125              		.thumb
 2126              		.thumb_func
 2127              		.type	_ZN10chibios_rt9EvtSource10unregisterEPNS_11EvtListenerE, %function
 2128              	_ZN10chibios_rt9EvtSource10unregisterEPNS_11EvtListenerE:
 2129              		.fnstart
 2130              	.LFB377:
 2131              		.loc 1 537 0
 2132              		.cfi_startproc
 2133              		@ args = 0, pretend = 0, frame = 0
 2134              		@ frame_needed = 0, uses_anonymous_args = 0
 2135              		@ link register save eliminated.
 2136              	.LVL163:
 2137              		.loc 1 539 0
 2138 0000 FFF7FEBF 		b	chEvtUnregister
 2139              	.LVL164:
 2140              		.cfi_endproc
 2141              	.LFE377:
 2142              		.cantunwind
 2143              		.fnend
 2144              		.size	_ZN10chibios_rt9EvtSource10unregisterEPNS_11EvtListenerE, .-_ZN10chibios_rt9EvtSource10unreg
 2145              		.section	.text._ZN10chibios_rt9EvtSource14broadcastFlagsEm,"ax",%progbits
 2146              		.align	1
 2147              		.global	_ZN10chibios_rt9EvtSource14broadcastFlagsEm
 2148              		.thumb
 2149              		.thumb_func
 2150              		.type	_ZN10chibios_rt9EvtSource14broadcastFlagsEm, %function
 2151              	_ZN10chibios_rt9EvtSource14broadcastFlagsEm:
 2152              		.fnstart
 2153              	.LFB378:
 2154              		.loc 1 542 0
 2155              		.cfi_startproc
 2156              		@ args = 0, pretend = 0, frame = 0
 2157              		@ frame_needed = 0, uses_anonymous_args = 0
 2158              		@ link register save eliminated.
 2159              	.LVL165:
 2160              		.loc 1 544 0
 2161 0000 FFF7FEBF 		b	chEvtBroadcastFlags
 2162              	.LVL166:
 2163              		.cfi_endproc
 2164              	.LFE378:
 2165              		.cantunwind
 2166              		.fnend
ARM GAS  /tmp/cc7NwbHs.s 			page 39


 2167              		.size	_ZN10chibios_rt9EvtSource14broadcastFlagsEm, .-_ZN10chibios_rt9EvtSource14broadcastFlagsEm
 2168              		.section	.text._ZN10chibios_rt9EvtSource15broadcastFlagsIEm,"ax",%progbits
 2169              		.align	1
 2170              		.global	_ZN10chibios_rt9EvtSource15broadcastFlagsIEm
 2171              		.thumb
 2172              		.thumb_func
 2173              		.type	_ZN10chibios_rt9EvtSource15broadcastFlagsIEm, %function
 2174              	_ZN10chibios_rt9EvtSource15broadcastFlagsIEm:
 2175              		.fnstart
 2176              	.LFB379:
 2177              		.loc 1 547 0
 2178              		.cfi_startproc
 2179              		@ args = 0, pretend = 0, frame = 0
 2180              		@ frame_needed = 0, uses_anonymous_args = 0
 2181              		@ link register save eliminated.
 2182              	.LVL167:
 2183              		.loc 1 549 0
 2184 0000 FFF7FEBF 		b	chEvtBroadcastFlagsI
 2185              	.LVL168:
 2186              		.cfi_endproc
 2187              	.LFE379:
 2188              		.cantunwind
 2189              		.fnend
 2190              		.size	_ZN10chibios_rt9EvtSource15broadcastFlagsIEm, .-_ZN10chibios_rt9EvtSource15broadcastFlagsIEm
 2191              		.section	.text._ZN10chibios_rt10MemoryPoolC2EjPFPvjjE,"ax",%progbits
 2192              		.align	1
 2193              		.global	_ZN10chibios_rt10MemoryPoolC2EjPFPvjjE
 2194              		.thumb
 2195              		.thumb_func
 2196              		.type	_ZN10chibios_rt10MemoryPoolC2EjPFPvjjE, %function
 2197              	_ZN10chibios_rt10MemoryPoolC2EjPFPvjjE:
 2198              		.fnstart
 2199              	.LFB381:
 2200              		.loc 1 557 0
 2201              		.cfi_startproc
 2202              		@ args = 0, pretend = 0, frame = 0
 2203              		@ frame_needed = 0, uses_anonymous_args = 0
 2204              	.LVL169:
 2205 0000 10B5     		push	{r4, lr}
 2206              		.save {r4, lr}
 2207              		.cfi_def_cfa_offset 8
 2208              		.cfi_offset 4, -8
 2209              		.cfi_offset 14, -4
 2210              		.loc 1 557 0
 2211 0002 0446     		mov	r4, r0
 2212              	.LBB163:
 2213              		.loc 1 559 0
 2214 0004 FFF7FEFF 		bl	chPoolObjectInit
 2215              	.LVL170:
 2216              	.LBE163:
 2217              		.loc 1 560 0
 2218 0008 2046     		mov	r0, r4
 2219 000a 10BD     		pop	{r4, pc}
 2220              		.cfi_endproc
 2221              	.LFE381:
 2222              		.fnend
 2223              		.size	_ZN10chibios_rt10MemoryPoolC2EjPFPvjjE, .-_ZN10chibios_rt10MemoryPoolC2EjPFPvjjE
ARM GAS  /tmp/cc7NwbHs.s 			page 40


 2224              		.global	_ZN10chibios_rt10MemoryPoolC1EjPFPvjjE
 2225              		.thumb_set _ZN10chibios_rt10MemoryPoolC1EjPFPvjjE,_ZN10chibios_rt10MemoryPoolC2EjPFPvjjE
 2226              		.section	.text._ZN10chibios_rt10MemoryPoolC2EjPFPvjjES1_j,"ax",%progbits
 2227              		.align	1
 2228              		.global	_ZN10chibios_rt10MemoryPoolC2EjPFPvjjES1_j
 2229              		.thumb
 2230              		.thumb_func
 2231              		.type	_ZN10chibios_rt10MemoryPoolC2EjPFPvjjES1_j, %function
 2232              	_ZN10chibios_rt10MemoryPoolC2EjPFPvjjES1_j:
 2233              		.fnstart
 2234              	.LFB384:
 2235              		.loc 1 562 0
 2236              		.cfi_startproc
 2237              		@ args = 4, pretend = 0, frame = 0
 2238              		@ frame_needed = 0, uses_anonymous_args = 0
 2239              	.LVL171:
 2240 0000 38B5     		push	{r3, r4, r5, lr}
 2241              		.save {r3, r4, r5, lr}
 2242              		.cfi_def_cfa_offset 16
 2243              		.cfi_offset 3, -16
 2244              		.cfi_offset 4, -12
 2245              		.cfi_offset 5, -8
 2246              		.cfi_offset 14, -4
 2247              		.loc 1 562 0
 2248 0002 0446     		mov	r4, r0
 2249 0004 1D46     		mov	r5, r3
 2250              	.LBB164:
 2251              		.loc 1 564 0
 2252 0006 FFF7FEFF 		bl	chPoolObjectInit
 2253              	.LVL172:
 2254              		.loc 1 565 0
 2255 000a 2046     		mov	r0, r4
 2256 000c 2946     		mov	r1, r5
 2257 000e 049A     		ldr	r2, [sp, #16]
 2258 0010 FFF7FEFF 		bl	chPoolLoadArray
 2259              	.LVL173:
 2260              	.LBE164:
 2261              		.loc 1 566 0
 2262 0014 2046     		mov	r0, r4
 2263 0016 38BD     		pop	{r3, r4, r5, pc}
 2264              		.cfi_endproc
 2265              	.LFE384:
 2266              		.fnend
 2267              		.size	_ZN10chibios_rt10MemoryPoolC2EjPFPvjjES1_j, .-_ZN10chibios_rt10MemoryPoolC2EjPFPvjjES1_j
 2268              		.global	_ZN10chibios_rt10MemoryPoolC1EjPFPvjjES1_j
 2269              		.thumb_set _ZN10chibios_rt10MemoryPoolC1EjPFPvjjES1_j,_ZN10chibios_rt10MemoryPoolC2EjPFPvjjES1_j
 2270              		.section	.text._ZN10chibios_rt10MemoryPool9loadArrayEPvj,"ax",%progbits
 2271              		.align	1
 2272              		.global	_ZN10chibios_rt10MemoryPool9loadArrayEPvj
 2273              		.thumb
 2274              		.thumb_func
 2275              		.type	_ZN10chibios_rt10MemoryPool9loadArrayEPvj, %function
 2276              	_ZN10chibios_rt10MemoryPool9loadArrayEPvj:
 2277              		.fnstart
 2278              	.LFB386:
 2279              		.loc 1 569 0
 2280              		.cfi_startproc
ARM GAS  /tmp/cc7NwbHs.s 			page 41


 2281              		@ args = 0, pretend = 0, frame = 0
 2282              		@ frame_needed = 0, uses_anonymous_args = 0
 2283              		@ link register save eliminated.
 2284              	.LVL174:
 2285              		.loc 1 571 0
 2286 0000 FFF7FEBF 		b	chPoolLoadArray
 2287              	.LVL175:
 2288              		.cfi_endproc
 2289              	.LFE386:
 2290              		.cantunwind
 2291              		.fnend
 2292              		.size	_ZN10chibios_rt10MemoryPool9loadArrayEPvj, .-_ZN10chibios_rt10MemoryPool9loadArrayEPvj
 2293              		.section	.text._ZN10chibios_rt10MemoryPool6allocIEv,"ax",%progbits
 2294              		.align	1
 2295              		.global	_ZN10chibios_rt10MemoryPool6allocIEv
 2296              		.thumb
 2297              		.thumb_func
 2298              		.type	_ZN10chibios_rt10MemoryPool6allocIEv, %function
 2299              	_ZN10chibios_rt10MemoryPool6allocIEv:
 2300              		.fnstart
 2301              	.LFB387:
 2302              		.loc 1 574 0
 2303              		.cfi_startproc
 2304              		@ args = 0, pretend = 0, frame = 0
 2305              		@ frame_needed = 0, uses_anonymous_args = 0
 2306              		@ link register save eliminated.
 2307              	.LVL176:
 2308              		.loc 1 576 0
 2309 0000 FFF7FEBF 		b	chPoolAllocI
 2310              	.LVL177:
 2311              		.cfi_endproc
 2312              	.LFE387:
 2313              		.cantunwind
 2314              		.fnend
 2315              		.size	_ZN10chibios_rt10MemoryPool6allocIEv, .-_ZN10chibios_rt10MemoryPool6allocIEv
 2316              		.section	.text._ZN10chibios_rt10MemoryPool5allocEv,"ax",%progbits
 2317              		.align	1
 2318              		.global	_ZN10chibios_rt10MemoryPool5allocEv
 2319              		.thumb
 2320              		.thumb_func
 2321              		.type	_ZN10chibios_rt10MemoryPool5allocEv, %function
 2322              	_ZN10chibios_rt10MemoryPool5allocEv:
 2323              		.fnstart
 2324              	.LFB388:
 2325              		.loc 1 579 0
 2326              		.cfi_startproc
 2327              		@ args = 0, pretend = 0, frame = 0
 2328              		@ frame_needed = 0, uses_anonymous_args = 0
 2329              		@ link register save eliminated.
 2330              	.LVL178:
 2331              		.loc 1 581 0
 2332 0000 FFF7FEBF 		b	chPoolAlloc
 2333              	.LVL179:
 2334              		.cfi_endproc
 2335              	.LFE388:
 2336              		.cantunwind
 2337              		.fnend
ARM GAS  /tmp/cc7NwbHs.s 			page 42


 2338              		.size	_ZN10chibios_rt10MemoryPool5allocEv, .-_ZN10chibios_rt10MemoryPool5allocEv
 2339              		.section	.text._ZN10chibios_rt10MemoryPool4freeEPv,"ax",%progbits
 2340              		.align	1
 2341              		.global	_ZN10chibios_rt10MemoryPool4freeEPv
 2342              		.thumb
 2343              		.thumb_func
 2344              		.type	_ZN10chibios_rt10MemoryPool4freeEPv, %function
 2345              	_ZN10chibios_rt10MemoryPool4freeEPv:
 2346              		.fnstart
 2347              	.LFB389:
 2348              		.loc 1 584 0
 2349              		.cfi_startproc
 2350              		@ args = 0, pretend = 0, frame = 0
 2351              		@ frame_needed = 0, uses_anonymous_args = 0
 2352              		@ link register save eliminated.
 2353              	.LVL180:
 2354              		.loc 1 586 0
 2355 0000 FFF7FEBF 		b	chPoolFree
 2356              	.LVL181:
 2357              		.cfi_endproc
 2358              	.LFE389:
 2359              		.cantunwind
 2360              		.fnend
 2361              		.size	_ZN10chibios_rt10MemoryPool4freeEPv, .-_ZN10chibios_rt10MemoryPool4freeEPv
 2362              		.section	.text._ZN10chibios_rt10MemoryPool5freeIEPv,"ax",%progbits
 2363              		.align	1
 2364              		.global	_ZN10chibios_rt10MemoryPool5freeIEPv
 2365              		.thumb
 2366              		.thumb_func
 2367              		.type	_ZN10chibios_rt10MemoryPool5freeIEPv, %function
 2368              	_ZN10chibios_rt10MemoryPool5freeIEPv:
 2369              		.fnstart
 2370              	.LFB390:
 2371              		.loc 1 589 0
 2372              		.cfi_startproc
 2373              		@ args = 0, pretend = 0, frame = 0
 2374              		@ frame_needed = 0, uses_anonymous_args = 0
 2375              		@ link register save eliminated.
 2376              	.LVL182:
 2377              		.loc 1 591 0
 2378 0000 FFF7FEBF 		b	chPoolFreeI
 2379              	.LVL183:
 2380              		.cfi_endproc
 2381              	.LFE390:
 2382              		.cantunwind
 2383              		.fnend
 2384              		.size	_ZN10chibios_rt10MemoryPool5freeIEPv, .-_ZN10chibios_rt10MemoryPool5freeIEPv
 2385              		.global	_ZTVN10chibios_rt15ThreadReferenceE
 2386              		.global	_ZTVN10chibios_rt10BaseThreadE
 2387              		.section	.rodata._ZTVN10chibios_rt10BaseThreadE,"a",%progbits
 2388              		.align	3
 2389              		.set	.LANCHOR1,. + 0
 2390              		.type	_ZTVN10chibios_rt10BaseThreadE, %object
 2391              		.size	_ZTVN10chibios_rt10BaseThreadE, 20
 2392              	_ZTVN10chibios_rt10BaseThreadE:
 2393 0000 00000000 		.word	0
 2394 0004 00000000 		.word	0
ARM GAS  /tmp/cc7NwbHs.s 			page 43


 2395 0008 00000000 		.word	_ZN10chibios_rt15ThreadReference4stopEv
 2396 000c 00000000 		.word	_ZN10chibios_rt10BaseThread4mainEv
 2397 0010 00000000 		.word	_ZN10chibios_rt10BaseThread5startEm
 2398              		.section	.rodata.str1.1,"aMS",%progbits,1
 2399              	.LC0:
 2400 0000 696E766F 		.ascii	"invoked unimplemented method stop()\000"
 2400      6B656420 
 2400      756E696D 
 2400      706C656D 
 2400      656E7465 
 2401              		.section	.rodata._ZTVN10chibios_rt15ThreadReferenceE,"a",%progbits
 2402              		.align	3
 2403              		.set	.LANCHOR0,. + 0
 2404              		.type	_ZTVN10chibios_rt15ThreadReferenceE, %object
 2405              		.size	_ZTVN10chibios_rt15ThreadReferenceE, 12
 2406              	_ZTVN10chibios_rt15ThreadReferenceE:
 2407 0000 00000000 		.word	0
 2408 0004 00000000 		.word	0
 2409 0008 00000000 		.word	_ZN10chibios_rt15ThreadReference4stopEv
 2410              		.text
 2411              	.Letext0:
 2412              		.file 10 "/usr/lib/gcc/arm-none-eabi/4.9.3/include/stddef.h"
 2413              		.file 11 "/usr/include/newlib/machine/_default_types.h"
 2414              		.file 12 "/usr/include/newlib/sys/_stdint.h"
 2415              		.file 13 "../../modules/ChibiOS/os/common/ports/ARMCMx/compilers/GCC/chtypes.h"
 2416              		.file 14 "../../modules/ChibiOS/os/rt/include/chsystypes.h"
 2417              		.file 15 "../../modules/ChibiOS/os/rt/include/chschd.h"
 2418              		.file 16 "../../modules/ChibiOS/os/common/ports/ARMCMx/chcore.h"
 2419              		.file 17 "../../modules/ChibiOS/os/common/ports/ARMCMx/chcore_v7m.h"
 2420              		.file 18 "../../modules/ChibiOS/os/rt/include/chtm.h"
 2421              		.file 19 "../../modules/ChibiOS/os/rt/include/chstats.h"
 2422              		.file 20 "../../modules/ChibiOS/os/rt/include/chsem.h"
 2423              		.file 21 "../../modules/ChibiOS/os/rt/include/chmtx.h"
 2424              		.file 22 "../../modules/ChibiOS/os/rt/include/chcond.h"
 2425              		.file 23 "../../modules/ChibiOS/os/common/oslib/include/chmemcore.h"
 2426              		.file 24 "../../modules/ChibiOS/os/common/oslib/include/chmempools.h"
 2427              		.file 25 "../../modules/ChibiOS/os/common/ext/CMSIS/include/core_cm4.h"