ARM GAS  /tmp/ccq4cqsT.s 			page 1


   1              		.syntax unified
   2              		.cpu cortex-m4
   3              		.eabi_attribute 27, 1
   4              		.eabi_attribute 28, 1
   5              		.fpu fpv4-sp-d16
   6              		.eabi_attribute 20, 1
   7              		.eabi_attribute 21, 1
   8              		.eabi_attribute 23, 3
   9              		.eabi_attribute 24, 1
  10              		.eabi_attribute 25, 1
  11              		.eabi_attribute 26, 1
  12              		.eabi_attribute 30, 4
  13              		.eabi_attribute 34, 1
  14              		.eabi_attribute 18, 4
  15              		.thumb
  16              		.file	"chcond.c"
  17              		.text
  18              	.Ltext0:
  19              		.cfi_sections	.debug_frame
  20              		.section	.text.queue_prio_insert,"ax",%progbits
  21              		.align	1
  22              		.thumb
  23              		.thumb_func
  24              		.type	queue_prio_insert, %function
  25              	queue_prio_insert:
  26              	.LFB155:
  27              		.file 1 "../../modules/ChibiOS/os/rt/include/chschd.h"
  28              		.loc 1 597 0
  29              		.cfi_startproc
  30              		@ args = 0, pretend = 0, frame = 0
  31              		@ frame_needed = 0, uses_anonymous_args = 0
  32              	.LVL0:
  33 0000 10B5     		push	{r4, lr}
  34              		.cfi_def_cfa_offset 8
  35              		.cfi_offset 4, -8
  36              		.cfi_offset 14, -4
  37              		.loc 1 597 0
  38 0002 0B46     		mov	r3, r1
  39              	.LVL1:
  40              	.L3:
  41              		.loc 1 601 0 discriminator 2
  42 0004 1B68     		ldr	r3, [r3]
  43              	.LVL2:
  44              		.loc 1 602 0 discriminator 2
  45 0006 8B42     		cmp	r3, r1
  46 0008 04D0     		beq	.L2
  47              		.loc 1 602 0 is_stmt 0 discriminator 1
  48 000a 9C68     		ldr	r4, [r3, #8]
  49 000c 8268     		ldr	r2, [r0, #8]
  50 000e 9442     		cmp	r4, r2
  51 0010 F8D2     		bcs	.L3
  52 0012 1946     		mov	r1, r3
  53              	.LVL3:
  54              	.L2:
  55              		.loc 1 604 0 is_stmt 1
  56 0014 4B68     		ldr	r3, [r1, #4]
  57              	.LVL4:
ARM GAS  /tmp/ccq4cqsT.s 			page 2


  58              		.loc 1 603 0
  59 0016 0160     		str	r1, [r0]
  60              		.loc 1 604 0
  61 0018 4360     		str	r3, [r0, #4]
  62              		.loc 1 605 0
  63 001a 1860     		str	r0, [r3]
  64              		.loc 1 606 0
  65 001c 4860     		str	r0, [r1, #4]
  66 001e 10BD     		pop	{r4, pc}
  67              		.cfi_endproc
  68              	.LFE155:
  69              		.size	queue_prio_insert, .-queue_prio_insert
  70              		.section	.text.chCondObjectInit,"ax",%progbits
  71              		.align	1
  72              		.global	chCondObjectInit
  73              		.thumb
  74              		.thumb_func
  75              		.type	chCondObjectInit, %function
  76              	chCondObjectInit:
  77              	.LFB246:
  78              		.file 2 "../../modules/ChibiOS/os/rt/src/chcond.c"
  79              		.loc 2 75 0
  80              		.cfi_startproc
  81              		@ args = 0, pretend = 0, frame = 0
  82              		@ frame_needed = 0, uses_anonymous_args = 0
  83              		@ link register save eliminated.
  84              	.LVL5:
  85              	.LBB39:
  86              	.LBB40:
  87              		.loc 1 550 0
  88 0000 0060     		str	r0, [r0]
  89              		.loc 1 551 0
  90 0002 4060     		str	r0, [r0, #4]
  91 0004 7047     		bx	lr
  92              	.LBE40:
  93              	.LBE39:
  94              		.cfi_endproc
  95              	.LFE246:
  96              		.size	chCondObjectInit, .-chCondObjectInit
  97              		.section	.text.chCondSignal,"ax",%progbits
  98              		.align	1
  99              		.global	chCondSignal
 100              		.thumb
 101              		.thumb_func
 102              		.type	chCondSignal, %function
 103              	chCondSignal:
 104              	.LFB247:
 105              		.loc 2 89 0
 106              		.cfi_startproc
 107              		@ args = 0, pretend = 0, frame = 0
 108              		@ frame_needed = 0, uses_anonymous_args = 0
 109              	.LVL6:
 110 0000 10B5     		push	{r4, lr}
 111              		.cfi_def_cfa_offset 8
 112              		.cfi_offset 4, -8
 113              		.cfi_offset 14, -4
 114              	.LBB55:
ARM GAS  /tmp/ccq4cqsT.s 			page 3


 115              	.LBB56:
 116              	.LBB57:
 117              	.LBB58:
 118              	.LBB59:
 119              		.file 3 "../../modules/ChibiOS/os/common/ext/CMSIS/include/cmsis_gcc.h"
 120              		.loc 3 264 0
 121 0002 2023     		movs	r3, #32
 122              	.LBE59:
 123              	.LBE58:
 124              	.LBE57:
 125              	.LBE56:
 126              	.LBE55:
 127              		.loc 2 89 0
 128 0004 0446     		mov	r4, r0
 129              	.LBB64:
 130              	.LBB63:
 131              	.LBB62:
 132              	.LBB61:
 133              	.LBB60:
 134              		.loc 3 264 0
 135              	@ 264 "../../modules/ChibiOS/os/common/ext/CMSIS/include/cmsis_gcc.h" 1
 136 0006 83F31188 		MSR basepri, r3
 137              	@ 0 "" 2
 138              		.thumb
 139              	.LBE60:
 140              	.LBE61:
 141              	.LBE62:
 142              		.file 4 "../../modules/ChibiOS/os/rt/include/chsys.h"
 143              		.loc 4 377 0
 144 000a FFF7FEFF 		bl	_stats_start_measure_crit_thd
 145              	.LVL7:
 146              	.LBE63:
 147              	.LBE64:
 148              	.LBB65:
 149              	.LBB66:
 150              		.loc 1 577 0
 151 000e 2068     		ldr	r0, [r4]
 152              	.LBE66:
 153              	.LBE65:
 154              		.loc 2 94 0
 155 0010 A042     		cmp	r0, r4
 156 0012 05D0     		beq	.L8
 157              	.LVL8:
 158              	.LBB67:
 159              	.LBB68:
 160              		.loc 1 620 0
 161 0014 0368     		ldr	r3, [r0]
 162 0016 2360     		str	r3, [r4]
 163              	.LBE68:
 164              	.LBE67:
 165              		.loc 2 95 0
 166 0018 0021     		movs	r1, #0
 167              	.LBB70:
 168              	.LBB69:
 169              		.loc 1 621 0
 170 001a 5C60     		str	r4, [r3, #4]
 171              	.LBE69:
ARM GAS  /tmp/ccq4cqsT.s 			page 4


 172              	.LBE70:
 173              		.loc 2 95 0
 174 001c FFF7FEFF 		bl	chSchWakeupS
 175              	.LVL9:
 176              	.L8:
 177              	.LBB71:
 178              	.LBB72:
 179              		.loc 4 389 0
 180 0020 FFF7FEFF 		bl	_stats_stop_measure_crit_thd
 181              	.LVL10:
 182              	.LBB73:
 183              	.LBB74:
 184              	.LBB75:
 185              		.loc 3 264 0
 186 0024 0023     		movs	r3, #0
 187              	@ 264 "../../modules/ChibiOS/os/common/ext/CMSIS/include/cmsis_gcc.h" 1
 188 0026 83F31188 		MSR basepri, r3
 189              	@ 0 "" 2
 190              		.thumb
 191 002a 10BD     		pop	{r4, pc}
 192              	.LBE75:
 193              	.LBE74:
 194              	.LBE73:
 195              	.LBE72:
 196              	.LBE71:
 197              		.cfi_endproc
 198              	.LFE247:
 199              		.size	chCondSignal, .-chCondSignal
 200              		.section	.text.chCondSignalI,"ax",%progbits
 201              		.align	1
 202              		.global	chCondSignalI
 203              		.thumb
 204              		.thumb_func
 205              		.type	chCondSignalI, %function
 206              	chCondSignalI:
 207              	.LFB248:
 208              		.loc 2 111 0
 209              		.cfi_startproc
 210              		@ args = 0, pretend = 0, frame = 0
 211              		@ frame_needed = 0, uses_anonymous_args = 0
 212              		@ link register save eliminated.
 213              	.LVL11:
 214              	.LBB76:
 215              	.LBB77:
 216              		.loc 1 577 0
 217 0000 0368     		ldr	r3, [r0]
 218              	.LBE77:
 219              	.LBE76:
 220              		.loc 2 116 0
 221 0002 8342     		cmp	r3, r0
 222 0004 07D0     		beq	.L9
 223              	.LVL12:
 224              	.LBB78:
 225              	.LBB79:
 226              	.LBB80:
 227              		.loc 1 620 0
 228 0006 1A68     		ldr	r2, [r3]
ARM GAS  /tmp/ccq4cqsT.s 			page 5


 229 0008 0260     		str	r2, [r0]
 230              		.loc 1 621 0
 231 000a 5060     		str	r0, [r2, #4]
 232              	.LBE80:
 233              	.LBE79:
 234              		.loc 2 118 0
 235 000c 0022     		movs	r2, #0
 236 000e 5A62     		str	r2, [r3, #36]
 237              		.loc 2 119 0
 238 0010 1846     		mov	r0, r3
 239              	.LVL13:
 240 0012 FFF7FEBF 		b	chSchReadyI
 241              	.LVL14:
 242              	.L9:
 243 0016 7047     		bx	lr
 244              	.LBE78:
 245              		.cfi_endproc
 246              	.LFE248:
 247              		.size	chCondSignalI, .-chCondSignalI
 248              		.section	.text.chCondBroadcastI,"ax",%progbits
 249              		.align	1
 250              		.global	chCondBroadcastI
 251              		.thumb
 252              		.thumb_func
 253              		.type	chCondBroadcastI, %function
 254              	chCondBroadcastI:
 255              	.LFB250:
 256              		.loc 2 149 0
 257              		.cfi_startproc
 258              		@ args = 0, pretend = 0, frame = 0
 259              		@ frame_needed = 0, uses_anonymous_args = 0
 260              	.LVL15:
 261 0000 10B5     		push	{r4, lr}
 262              		.cfi_def_cfa_offset 8
 263              		.cfi_offset 4, -8
 264              		.cfi_offset 14, -4
 265 0002 0446     		mov	r4, r0
 266              	.LVL16:
 267              	.L12:
 268              	.LBB81:
 269              	.LBB82:
 270              		.loc 1 577 0
 271 0004 2068     		ldr	r0, [r4]
 272              	.LBE82:
 273              	.LBE81:
 274              		.loc 2 157 0
 275 0006 A042     		cmp	r0, r4
 276 0008 08D0     		beq	.L14
 277              	.LVL17:
 278              	.LBB83:
 279              	.LBB84:
 280              		.loc 1 620 0
 281 000a 0368     		ldr	r3, [r0]
 282 000c 2360     		str	r3, [r4]
 283              		.loc 1 621 0
 284 000e 5C60     		str	r4, [r3, #4]
 285              	.LBE84:
ARM GAS  /tmp/ccq4cqsT.s 			page 6


 286              	.LBE83:
 287              		.loc 2 158 0
 288 0010 FFF7FEFF 		bl	chSchReadyI
 289              	.LVL18:
 290 0014 6FF00103 		mvn	r3, #1
 291 0018 4362     		str	r3, [r0, #36]
 292 001a F3E7     		b	.L12
 293              	.LVL19:
 294              	.L14:
 295              		.loc 2 160 0
 296 001c 10BD     		pop	{r4, pc}
 297              		.cfi_endproc
 298              	.LFE250:
 299              		.size	chCondBroadcastI, .-chCondBroadcastI
 300              		.section	.text.chCondBroadcast,"ax",%progbits
 301              		.align	1
 302              		.global	chCondBroadcast
 303              		.thumb
 304              		.thumb_func
 305              		.type	chCondBroadcast, %function
 306              	chCondBroadcast:
 307              	.LFB249:
 308              		.loc 2 130 0
 309              		.cfi_startproc
 310              		@ args = 0, pretend = 0, frame = 0
 311              		@ frame_needed = 0, uses_anonymous_args = 0
 312              	.LVL20:
 313 0000 10B5     		push	{r4, lr}
 314              		.cfi_def_cfa_offset 8
 315              		.cfi_offset 4, -8
 316              		.cfi_offset 14, -4
 317              	.LBB95:
 318              	.LBB96:
 319              	.LBB97:
 320              	.LBB98:
 321              	.LBB99:
 322              		.loc 3 264 0
 323 0002 2023     		movs	r3, #32
 324              	.LBE99:
 325              	.LBE98:
 326              	.LBE97:
 327              	.LBE96:
 328              	.LBE95:
 329              		.loc 2 130 0
 330 0004 0446     		mov	r4, r0
 331              	.LBB104:
 332              	.LBB103:
 333              	.LBB102:
 334              	.LBB101:
 335              	.LBB100:
 336              		.loc 3 264 0
 337              	@ 264 "../../modules/ChibiOS/os/common/ext/CMSIS/include/cmsis_gcc.h" 1
 338 0006 83F31188 		MSR basepri, r3
 339              	@ 0 "" 2
 340              		.thumb
 341              	.LBE100:
 342              	.LBE101:
ARM GAS  /tmp/ccq4cqsT.s 			page 7


 343              	.LBE102:
 344              		.loc 4 377 0
 345 000a FFF7FEFF 		bl	_stats_start_measure_crit_thd
 346              	.LVL21:
 347              	.LBE103:
 348              	.LBE104:
 349              		.loc 2 133 0
 350 000e 2046     		mov	r0, r4
 351 0010 FFF7FEFF 		bl	chCondBroadcastI
 352              	.LVL22:
 353              		.loc 2 134 0
 354 0014 FFF7FEFF 		bl	chSchRescheduleS
 355              	.LVL23:
 356              	.LBB105:
 357              	.LBB106:
 358              		.loc 4 389 0
 359 0018 FFF7FEFF 		bl	_stats_stop_measure_crit_thd
 360              	.LVL24:
 361              	.LBB107:
 362              	.LBB108:
 363              	.LBB109:
 364              		.loc 3 264 0
 365 001c 0023     		movs	r3, #0
 366              	@ 264 "../../modules/ChibiOS/os/common/ext/CMSIS/include/cmsis_gcc.h" 1
 367 001e 83F31188 		MSR basepri, r3
 368              	@ 0 "" 2
 369              		.thumb
 370 0022 10BD     		pop	{r4, pc}
 371              	.LBE109:
 372              	.LBE108:
 373              	.LBE107:
 374              	.LBE106:
 375              	.LBE105:
 376              		.cfi_endproc
 377              	.LFE249:
 378              		.size	chCondBroadcast, .-chCondBroadcast
 379              		.section	.text.chCondWaitS,"ax",%progbits
 380              		.align	1
 381              		.global	chCondWaitS
 382              		.thumb
 383              		.thumb_func
 384              		.type	chCondWaitS, %function
 385              	chCondWaitS:
 386              	.LFB252:
 387              		.loc 2 205 0
 388              		.cfi_startproc
 389              		@ args = 0, pretend = 0, frame = 0
 390              		@ frame_needed = 0, uses_anonymous_args = 0
 391              	.LVL25:
 392              		.loc 2 206 0
 393 0000 0A4B     		ldr	r3, .L17
 394              		.loc 2 205 0
 395 0002 70B5     		push	{r4, r5, r6, lr}
 396              		.cfi_def_cfa_offset 16
 397              		.cfi_offset 4, -16
 398              		.cfi_offset 5, -12
 399              		.cfi_offset 6, -8
ARM GAS  /tmp/ccq4cqsT.s 			page 8


 400              		.cfi_offset 14, -4
 401              		.loc 2 206 0
 402 0004 9C69     		ldr	r4, [r3, #24]
 403              	.LVL26:
 404              	.LBB110:
 405              	.LBB111:
 406              		.file 5 "../../modules/ChibiOS/os/rt/include/chmtx.h"
 407              		.loc 5 146 0
 408 0006 A56B     		ldr	r5, [r4, #56]
 409              	.LBE111:
 410              	.LBE110:
 411              		.loc 2 205 0
 412 0008 0646     		mov	r6, r0
 413              		.loc 2 216 0
 414 000a 2846     		mov	r0, r5
 415              	.LVL27:
 416 000c FFF7FEFF 		bl	chMtxUnlockS
 417              	.LVL28:
 418              		.loc 2 221 0
 419 0010 3146     		mov	r1, r6
 420              		.loc 2 220 0
 421 0012 6662     		str	r6, [r4, #36]
 422              		.loc 2 221 0
 423 0014 2046     		mov	r0, r4
 424 0016 FFF7FEFF 		bl	queue_prio_insert
 425              	.LVL29:
 426              		.loc 2 222 0
 427 001a 0720     		movs	r0, #7
 428 001c FFF7FEFF 		bl	chSchGoSleepS
 429              	.LVL30:
 430              		.loc 2 223 0
 431 0020 646A     		ldr	r4, [r4, #36]
 432              	.LVL31:
 433              		.loc 2 224 0
 434 0022 2846     		mov	r0, r5
 435 0024 FFF7FEFF 		bl	chMtxLockS
 436              	.LVL32:
 437              		.loc 2 227 0
 438 0028 2046     		mov	r0, r4
 439 002a 70BD     		pop	{r4, r5, r6, pc}
 440              	.LVL33:
 441              	.L18:
 442              		.align	2
 443              	.L17:
 444 002c 00000000 		.word	ch
 445              		.cfi_endproc
 446              	.LFE252:
 447              		.size	chCondWaitS, .-chCondWaitS
 448              		.section	.text.chCondWait,"ax",%progbits
 449              		.align	1
 450              		.global	chCondWait
 451              		.thumb
 452              		.thumb_func
 453              		.type	chCondWait, %function
 454              	chCondWait:
 455              	.LFB251:
 456              		.loc 2 179 0
ARM GAS  /tmp/ccq4cqsT.s 			page 9


 457              		.cfi_startproc
 458              		@ args = 0, pretend = 0, frame = 0
 459              		@ frame_needed = 0, uses_anonymous_args = 0
 460              	.LVL34:
 461 0000 10B5     		push	{r4, lr}
 462              		.cfi_def_cfa_offset 8
 463              		.cfi_offset 4, -8
 464              		.cfi_offset 14, -4
 465              	.LBB122:
 466              	.LBB123:
 467              	.LBB124:
 468              	.LBB125:
 469              	.LBB126:
 470              		.loc 3 264 0
 471 0002 2023     		movs	r3, #32
 472              	.LBE126:
 473              	.LBE125:
 474              	.LBE124:
 475              	.LBE123:
 476              	.LBE122:
 477              		.loc 2 179 0
 478 0004 0446     		mov	r4, r0
 479              	.LBB131:
 480              	.LBB130:
 481              	.LBB129:
 482              	.LBB128:
 483              	.LBB127:
 484              		.loc 3 264 0
 485              	@ 264 "../../modules/ChibiOS/os/common/ext/CMSIS/include/cmsis_gcc.h" 1
 486 0006 83F31188 		MSR basepri, r3
 487              	@ 0 "" 2
 488              		.thumb
 489              	.LBE127:
 490              	.LBE128:
 491              	.LBE129:
 492              		.loc 4 377 0
 493 000a FFF7FEFF 		bl	_stats_start_measure_crit_thd
 494              	.LVL35:
 495              	.LBE130:
 496              	.LBE131:
 497              		.loc 2 183 0
 498 000e 2046     		mov	r0, r4
 499 0010 FFF7FEFF 		bl	chCondWaitS
 500              	.LVL36:
 501 0014 0446     		mov	r4, r0
 502              	.LVL37:
 503              	.LBB132:
 504              	.LBB133:
 505              		.loc 4 389 0
 506 0016 FFF7FEFF 		bl	_stats_stop_measure_crit_thd
 507              	.LVL38:
 508              	.LBB134:
 509              	.LBB135:
 510              	.LBB136:
 511              		.loc 3 264 0
 512 001a 0023     		movs	r3, #0
 513              	@ 264 "../../modules/ChibiOS/os/common/ext/CMSIS/include/cmsis_gcc.h" 1
ARM GAS  /tmp/ccq4cqsT.s 			page 10


 514 001c 83F31188 		MSR basepri, r3
 515              	@ 0 "" 2
 516              		.thumb
 517              	.LBE136:
 518              	.LBE135:
 519              	.LBE134:
 520              	.LBE133:
 521              	.LBE132:
 522              		.loc 2 186 0
 523 0020 2046     		mov	r0, r4
 524 0022 10BD     		pop	{r4, pc}
 525              		.cfi_endproc
 526              	.LFE251:
 527              		.size	chCondWait, .-chCondWait
 528              		.section	.text.chCondWaitTimeoutS,"ax",%progbits
 529              		.align	1
 530              		.global	chCondWaitTimeoutS
 531              		.thumb
 532              		.thumb_func
 533              		.type	chCondWaitTimeoutS, %function
 534              	chCondWaitTimeoutS:
 535              	.LFB254:
 536              		.loc 2 296 0
 537              		.cfi_startproc
 538              		@ args = 0, pretend = 0, frame = 0
 539              		@ frame_needed = 0, uses_anonymous_args = 0
 540              	.LVL39:
 541 0000 F8B5     		push	{r3, r4, r5, r6, r7, lr}
 542              		.cfi_def_cfa_offset 24
 543              		.cfi_offset 3, -24
 544              		.cfi_offset 4, -20
 545              		.cfi_offset 5, -16
 546              		.cfi_offset 6, -12
 547              		.cfi_offset 7, -8
 548              		.cfi_offset 14, -4
 549              	.LBB137:
 550              	.LBB138:
 551              	.LBB139:
 552              	.LBB140:
 553              		.file 6 "../../modules/ChibiOS/os/rt/include/chthreads.h"
 554              		.loc 6 286 0
 555 0002 0C4E     		ldr	r6, .L25
 556              	.LBE140:
 557              	.LBE139:
 558              		.loc 5 146 0
 559 0004 B369     		ldr	r3, [r6, #24]
 560 0006 9D6B     		ldr	r5, [r3, #56]
 561              	.LBE138:
 562              	.LBE137:
 563              		.loc 2 296 0
 564 0008 0446     		mov	r4, r0
 565              		.loc 2 306 0
 566 000a 2846     		mov	r0, r5
 567              	.LVL40:
 568              		.loc 2 296 0
 569 000c 0F46     		mov	r7, r1
 570              		.loc 2 306 0
ARM GAS  /tmp/ccq4cqsT.s 			page 11


 571 000e FFF7FEFF 		bl	chMtxUnlockS
 572              	.LVL41:
 573              		.loc 2 310 0
 574 0012 B069     		ldr	r0, [r6, #24]
 575              		.loc 2 311 0
 576 0014 2146     		mov	r1, r4
 577              		.loc 2 310 0
 578 0016 4462     		str	r4, [r0, #36]
 579              		.loc 2 311 0
 580 0018 FFF7FEFF 		bl	queue_prio_insert
 581              	.LVL42:
 582              		.loc 2 312 0
 583 001c 0720     		movs	r0, #7
 584 001e 3946     		mov	r1, r7
 585 0020 FFF7FEFF 		bl	chSchGoSleepTimeoutS
 586              	.LVL43:
 587              		.loc 2 313 0
 588 0024 431C     		adds	r3, r0, #1
 589              		.loc 2 312 0
 590 0026 0446     		mov	r4, r0
 591              	.LVL44:
 592              		.loc 2 313 0
 593 0028 02D0     		beq	.L21
 594              		.loc 2 314 0
 595 002a 2846     		mov	r0, r5
 596              	.LVL45:
 597 002c FFF7FEFF 		bl	chMtxLockS
 598              	.LVL46:
 599              	.L21:
 600              		.loc 2 318 0
 601 0030 2046     		mov	r0, r4
 602 0032 F8BD     		pop	{r3, r4, r5, r6, r7, pc}
 603              	.LVL47:
 604              	.L26:
 605              		.align	2
 606              	.L25:
 607 0034 00000000 		.word	ch
 608              		.cfi_endproc
 609              	.LFE254:
 610              		.size	chCondWaitTimeoutS, .-chCondWaitTimeoutS
 611              		.section	.text.chCondWaitTimeout,"ax",%progbits
 612              		.align	1
 613              		.global	chCondWaitTimeout
 614              		.thumb
 615              		.thumb_func
 616              		.type	chCondWaitTimeout, %function
 617              	chCondWaitTimeout:
 618              	.LFB253:
 619              		.loc 2 258 0
 620              		.cfi_startproc
 621              		@ args = 0, pretend = 0, frame = 0
 622              		@ frame_needed = 0, uses_anonymous_args = 0
 623              	.LVL48:
 624 0000 38B5     		push	{r3, r4, r5, lr}
 625              		.cfi_def_cfa_offset 16
 626              		.cfi_offset 3, -16
 627              		.cfi_offset 4, -12
ARM GAS  /tmp/ccq4cqsT.s 			page 12


 628              		.cfi_offset 5, -8
 629              		.cfi_offset 14, -4
 630              		.loc 2 258 0
 631 0002 0546     		mov	r5, r0
 632 0004 0C46     		mov	r4, r1
 633              	.LBB151:
 634              	.LBB152:
 635              	.LBB153:
 636              	.LBB154:
 637              	.LBB155:
 638              		.loc 3 264 0
 639 0006 2023     		movs	r3, #32
 640              	@ 264 "../../modules/ChibiOS/os/common/ext/CMSIS/include/cmsis_gcc.h" 1
 641 0008 83F31188 		MSR basepri, r3
 642              	@ 0 "" 2
 643              		.thumb
 644              	.LBE155:
 645              	.LBE154:
 646              	.LBE153:
 647              		.loc 4 377 0
 648 000c FFF7FEFF 		bl	_stats_start_measure_crit_thd
 649              	.LVL49:
 650              	.LBE152:
 651              	.LBE151:
 652              		.loc 2 262 0
 653 0010 2146     		mov	r1, r4
 654 0012 2846     		mov	r0, r5
 655 0014 FFF7FEFF 		bl	chCondWaitTimeoutS
 656              	.LVL50:
 657 0018 0446     		mov	r4, r0
 658              	.LVL51:
 659              	.LBB156:
 660              	.LBB157:
 661              		.loc 4 389 0
 662 001a FFF7FEFF 		bl	_stats_stop_measure_crit_thd
 663              	.LVL52:
 664              	.LBB158:
 665              	.LBB159:
 666              	.LBB160:
 667              		.loc 3 264 0
 668 001e 0023     		movs	r3, #0
 669              	@ 264 "../../modules/ChibiOS/os/common/ext/CMSIS/include/cmsis_gcc.h" 1
 670 0020 83F31188 		MSR basepri, r3
 671              	@ 0 "" 2
 672              		.thumb
 673              	.LBE160:
 674              	.LBE159:
 675              	.LBE158:
 676              	.LBE157:
 677              	.LBE156:
 678              		.loc 2 266 0
 679 0024 2046     		mov	r0, r4
 680 0026 38BD     		pop	{r3, r4, r5, pc}
 681              		.cfi_endproc
 682              	.LFE253:
 683              		.size	chCondWaitTimeout, .-chCondWaitTimeout
 684              		.text
ARM GAS  /tmp/ccq4cqsT.s 			page 13


 685              	.Letext0:
 686              		.file 7 "/usr/include/newlib/machine/_default_types.h"
 687              		.file 8 "/usr/include/newlib/sys/_stdint.h"
 688              		.file 9 "../../modules/ChibiOS/os/common/ports/ARMCMx/compilers/GCC/chtypes.h"
 689              		.file 10 "../../modules/ChibiOS/os/rt/include/chsystypes.h"
 690              		.file 11 "../../modules/ChibiOS/os/common/ports/ARMCMx/chcore.h"
 691              		.file 12 "../../modules/ChibiOS/os/common/ports/ARMCMx/chcore_v7m.h"
 692              		.file 13 "../../modules/ChibiOS/os/rt/include/chtm.h"
 693              		.file 14 "../../modules/ChibiOS/os/rt/include/chstats.h"
 694              		.file 15 "../../modules/ChibiOS/os/rt/include/chsem.h"
 695              		.file 16 "../../modules/ChibiOS/os/rt/include/chcond.h"
 696              		.file 17 "../../modules/ChibiOS/os/common/ext/CMSIS/include/core_cm4.h"
 697              		.section	.debug_info,"",%progbits
 698              	.Ldebug_info0:
 699 0000 C7100000 		.4byte	0x10c7
 700 0004 0400     		.2byte	0x4
 701 0006 00000000 		.4byte	.Ldebug_abbrev0
 702 000a 04       		.byte	0x4
 703 000b 01       		.uleb128 0x1
 704 000c 38020000 		.4byte	.LASF137
 705 0010 01       		.byte	0x1
 706 0011 78060000 		.4byte	.LASF138
 707 0015 4A010000 		.4byte	.LASF139
 708 0019 A8000000 		.4byte	.Ldebug_ranges0+0xa8
 709 001d 00000000 		.4byte	0
 710 0021 00000000 		.4byte	.Ldebug_line0
 711 0025 02       		.uleb128 0x2
 712 0026 04       		.byte	0x4
 713 0027 05       		.byte	0x5
 714 0028 696E7400 		.ascii	"int\000"
 715 002c 03       		.uleb128 0x3
 716 002d 04       		.byte	0x4
 717 002e 07       		.byte	0x7
 718 002f 2B020000 		.4byte	.LASF0
 719 0033 03       		.uleb128 0x3
 720 0034 01       		.byte	0x1
 721 0035 06       		.byte	0x6
 722 0036 22010000 		.4byte	.LASF1
 723 003a 04       		.uleb128 0x4
 724 003b 36000000 		.4byte	.LASF5
 725 003f 07       		.byte	0x7
 726 0040 1D       		.byte	0x1d
 727 0041 45000000 		.4byte	0x45
 728 0045 03       		.uleb128 0x3
 729 0046 01       		.byte	0x1
 730 0047 08       		.byte	0x8
 731 0048 FF040000 		.4byte	.LASF2
 732 004c 03       		.uleb128 0x3
 733 004d 02       		.byte	0x2
 734 004e 05       		.byte	0x5
 735 004f 0D050000 		.4byte	.LASF3
 736 0053 03       		.uleb128 0x3
 737 0054 02       		.byte	0x2
 738 0055 07       		.byte	0x7
 739 0056 40030000 		.4byte	.LASF4
 740 005a 04       		.uleb128 0x4
 741 005b C5030000 		.4byte	.LASF6
ARM GAS  /tmp/ccq4cqsT.s 			page 14


 742 005f 07       		.byte	0x7
 743 0060 3F       		.byte	0x3f
 744 0061 65000000 		.4byte	0x65
 745 0065 03       		.uleb128 0x3
 746 0066 04       		.byte	0x4
 747 0067 05       		.byte	0x5
 748 0068 94010000 		.4byte	.LASF7
 749 006c 04       		.uleb128 0x4
 750 006d D1010000 		.4byte	.LASF8
 751 0071 07       		.byte	0x7
 752 0072 41       		.byte	0x41
 753 0073 77000000 		.4byte	0x77
 754 0077 03       		.uleb128 0x3
 755 0078 04       		.byte	0x4
 756 0079 07       		.byte	0x7
 757 007a B5050000 		.4byte	.LASF9
 758 007e 03       		.uleb128 0x3
 759 007f 08       		.byte	0x8
 760 0080 05       		.byte	0x5
 761 0081 14010000 		.4byte	.LASF10
 762 0085 04       		.uleb128 0x4
 763 0086 A8040000 		.4byte	.LASF11
 764 008a 07       		.byte	0x7
 765 008b 5B       		.byte	0x5b
 766 008c 90000000 		.4byte	0x90
 767 0090 03       		.uleb128 0x3
 768 0091 08       		.byte	0x8
 769 0092 07       		.byte	0x7
 770 0093 B0000000 		.4byte	.LASF12
 771 0097 04       		.uleb128 0x4
 772 0098 BE060000 		.4byte	.LASF13
 773 009c 08       		.byte	0x8
 774 009d 14       		.byte	0x14
 775 009e 3A000000 		.4byte	0x3a
 776 00a2 04       		.uleb128 0x4
 777 00a3 F7040000 		.4byte	.LASF14
 778 00a7 08       		.byte	0x8
 779 00a8 1F       		.byte	0x1f
 780 00a9 5A000000 		.4byte	0x5a
 781 00ad 04       		.uleb128 0x4
 782 00ae 83050000 		.4byte	.LASF15
 783 00b2 08       		.byte	0x8
 784 00b3 20       		.byte	0x20
 785 00b4 6C000000 		.4byte	0x6c
 786 00b8 04       		.uleb128 0x4
 787 00b9 20000000 		.4byte	.LASF16
 788 00bd 08       		.byte	0x8
 789 00be 26       		.byte	0x26
 790 00bf 85000000 		.4byte	0x85
 791 00c3 04       		.uleb128 0x4
 792 00c4 3F060000 		.4byte	.LASF17
 793 00c8 09       		.byte	0x9
 794 00c9 39       		.byte	0x39
 795 00ca AD000000 		.4byte	0xad
 796 00ce 04       		.uleb128 0x4
 797 00cf 0B010000 		.4byte	.LASF18
 798 00d3 09       		.byte	0x9
ARM GAS  /tmp/ccq4cqsT.s 			page 15


 799 00d4 3A       		.byte	0x3a
 800 00d5 B8000000 		.4byte	0xb8
 801 00d9 04       		.uleb128 0x4
 802 00da 98030000 		.4byte	.LASF19
 803 00de 09       		.byte	0x9
 804 00df 3C       		.byte	0x3c
 805 00e0 97000000 		.4byte	0x97
 806 00e4 04       		.uleb128 0x4
 807 00e5 9D010000 		.4byte	.LASF20
 808 00e9 09       		.byte	0x9
 809 00ea 3D       		.byte	0x3d
 810 00eb 97000000 		.4byte	0x97
 811 00ef 04       		.uleb128 0x4
 812 00f0 BE040000 		.4byte	.LASF21
 813 00f4 09       		.byte	0x9
 814 00f5 3E       		.byte	0x3e
 815 00f6 97000000 		.4byte	0x97
 816 00fa 04       		.uleb128 0x4
 817 00fb DB040000 		.4byte	.LASF22
 818 00ff 09       		.byte	0x9
 819 0100 40       		.byte	0x40
 820 0101 AD000000 		.4byte	0xad
 821 0105 04       		.uleb128 0x4
 822 0106 71030000 		.4byte	.LASF23
 823 010a 09       		.byte	0x9
 824 010b 41       		.byte	0x41
 825 010c A2000000 		.4byte	0xa2
 826 0110 04       		.uleb128 0x4
 827 0111 B9030000 		.4byte	.LASF24
 828 0115 09       		.byte	0x9
 829 0116 43       		.byte	0x43
 830 0117 AD000000 		.4byte	0xad
 831 011b 04       		.uleb128 0x4
 832 011c 18020000 		.4byte	.LASF25
 833 0120 09       		.byte	0x9
 834 0121 45       		.byte	0x45
 835 0122 A2000000 		.4byte	0xa2
 836 0126 04       		.uleb128 0x4
 837 0127 7C030000 		.4byte	.LASF26
 838 012b 09       		.byte	0x9
 839 012c 46       		.byte	0x46
 840 012d AD000000 		.4byte	0xad
 841 0131 04       		.uleb128 0x4
 842 0132 0D060000 		.4byte	.LASF27
 843 0136 0A       		.byte	0xa
 844 0137 33       		.byte	0x33
 845 0138 AD000000 		.4byte	0xad
 846 013c 04       		.uleb128 0x4
 847 013d A1060000 		.4byte	.LASF28
 848 0141 0A       		.byte	0xa
 849 0142 3F       		.byte	0x3f
 850 0143 47010000 		.4byte	0x147
 851 0147 05       		.uleb128 0x5
 852 0148 62030000 		.4byte	.LASF47
 853 014c 60       		.byte	0x60
 854 014d 01       		.byte	0x1
 855 014e 9A       		.byte	0x9a
ARM GAS  /tmp/ccq4cqsT.s 			page 16


 856 014f 32020000 		.4byte	0x232
 857 0153 06       		.uleb128 0x6
 858 0154 34030000 		.4byte	.LASF29
 859 0158 01       		.byte	0x1
 860 0159 9B       		.byte	0x9b
 861 015a 67020000 		.4byte	0x267
 862 015e 00       		.byte	0
 863 015f 06       		.uleb128 0x6
 864 0160 8B040000 		.4byte	.LASF30
 865 0164 01       		.byte	0x1
 866 0165 9C       		.byte	0x9c
 867 0166 FA000000 		.4byte	0xfa
 868 016a 08       		.byte	0x8
 869 016b 07       		.uleb128 0x7
 870 016c 63747800 		.ascii	"ctx\000"
 871 0170 01       		.byte	0x1
 872 0171 9D       		.byte	0x9d
 873 0172 6C040000 		.4byte	0x46c
 874 0176 0C       		.byte	0xc
 875 0177 06       		.uleb128 0x6
 876 0178 DA030000 		.4byte	.LASF31
 877 017c 01       		.byte	0x1
 878 017d 9F       		.byte	0x9f
 879 017e 3D020000 		.4byte	0x23d
 880 0182 10       		.byte	0x10
 881 0183 06       		.uleb128 0x6
 882 0184 D3050000 		.4byte	.LASF32
 883 0188 01       		.byte	0x1
 884 0189 A0       		.byte	0xa0
 885 018a 3D020000 		.4byte	0x23d
 886 018e 14       		.byte	0x14
 887 018f 06       		.uleb128 0x6
 888 0190 6C030000 		.4byte	.LASF33
 889 0194 01       		.byte	0x1
 890 0195 A7       		.byte	0xa7
 891 0196 53070000 		.4byte	0x753
 892 019a 18       		.byte	0x18
 893 019b 06       		.uleb128 0x6
 894 019c C7050000 		.4byte	.LASF34
 895 01a0 01       		.byte	0x1
 896 01a1 B0       		.byte	0xb0
 897 01a2 65070000 		.4byte	0x765
 898 01a6 1C       		.byte	0x1c
 899 01a7 06       		.uleb128 0x6
 900 01a8 8E010000 		.4byte	.LASF35
 901 01ac 01       		.byte	0x1
 902 01ad B5       		.byte	0xb5
 903 01ae E4000000 		.4byte	0xe4
 904 01b2 20       		.byte	0x20
 905 01b3 06       		.uleb128 0x6
 906 01b4 C6060000 		.4byte	.LASF36
 907 01b8 01       		.byte	0x1
 908 01b9 B9       		.byte	0xb9
 909 01ba D9000000 		.4byte	0xd9
 910 01be 21       		.byte	0x21
 911 01bf 06       		.uleb128 0x6
 912 01c0 C6040000 		.4byte	.LASF37
ARM GAS  /tmp/ccq4cqsT.s 			page 17


 913 01c4 01       		.byte	0x1
 914 01c5 BE       		.byte	0xbe
 915 01c6 EF000000 		.4byte	0xef
 916 01ca 22       		.byte	0x22
 917 01cb 08       		.uleb128 0x8
 918 01cc 7500     		.ascii	"u\000"
 919 01ce 01       		.byte	0x1
 920 01cf 0F01     		.2byte	0x10f
 921 01d1 88060000 		.4byte	0x688
 922 01d5 24       		.byte	0x24
 923 01d6 09       		.uleb128 0x9
 924 01d7 F5010000 		.4byte	.LASF38
 925 01db 01       		.byte	0x1
 926 01dc 1401     		.2byte	0x114
 927 01de 43020000 		.4byte	0x243
 928 01e2 28       		.byte	0x28
 929 01e3 09       		.uleb128 0x9
 930 01e4 85010000 		.4byte	.LASF39
 931 01e8 01       		.byte	0x1
 932 01e9 1A01     		.2byte	0x11a
 933 01eb 67020000 		.4byte	0x267
 934 01ef 2C       		.byte	0x2c
 935 01f0 09       		.uleb128 0x9
 936 01f1 83030000 		.4byte	.LASF40
 937 01f5 01       		.byte	0x1
 938 01f6 2001     		.2byte	0x120
 939 01f8 10010000 		.4byte	0x110
 940 01fc 34       		.byte	0x34
 941 01fd 09       		.uleb128 0x9
 942 01fe 50070000 		.4byte	.LASF41
 943 0202 01       		.byte	0x1
 944 0203 2701     		.2byte	0x127
 945 0205 4D070000 		.4byte	0x74d
 946 0209 38       		.byte	0x38
 947 020a 09       		.uleb128 0x9
 948 020b E0030000 		.4byte	.LASF42
 949 020f 01       		.byte	0x1
 950 0210 2B01     		.2byte	0x12b
 951 0212 FA000000 		.4byte	0xfa
 952 0216 3C       		.byte	0x3c
 953 0217 09       		.uleb128 0x9
 954 0218 3A030000 		.4byte	.LASF43
 955 021c 01       		.byte	0x1
 956 021d 3201     		.2byte	0x132
 957 021f 1A030000 		.4byte	0x31a
 958 0223 40       		.byte	0x40
 959 0224 09       		.uleb128 0x9
 960 0225 BA010000 		.4byte	.LASF44
 961 0229 01       		.byte	0x1
 962 022a 3801     		.2byte	0x138
 963 022c 39060000 		.4byte	0x639
 964 0230 48       		.byte	0x48
 965 0231 00       		.byte	0
 966 0232 04       		.uleb128 0x4
 967 0233 0F040000 		.4byte	.LASF45
 968 0237 0A       		.byte	0xa
 969 0238 44       		.byte	0x44
ARM GAS  /tmp/ccq4cqsT.s 			page 18


 970 0239 3D020000 		.4byte	0x23d
 971 023d 0A       		.uleb128 0xa
 972 023e 04       		.byte	0x4
 973 023f 3C010000 		.4byte	0x13c
 974 0243 04       		.uleb128 0x4
 975 0244 03070000 		.4byte	.LASF46
 976 0248 0A       		.byte	0xa
 977 0249 49       		.byte	0x49
 978 024a 4E020000 		.4byte	0x24e
 979 024e 05       		.uleb128 0x5
 980 024f 9F050000 		.4byte	.LASF48
 981 0253 04       		.byte	0x4
 982 0254 01       		.byte	0x1
 983 0255 88       		.byte	0x88
 984 0256 67020000 		.4byte	0x267
 985 025a 06       		.uleb128 0x6
 986 025b 06010000 		.4byte	.LASF49
 987 025f 01       		.byte	0x1
 988 0260 89       		.byte	0x89
 989 0261 3D020000 		.4byte	0x23d
 990 0265 00       		.byte	0
 991 0266 00       		.byte	0
 992 0267 04       		.uleb128 0x4
 993 0268 5F060000 		.4byte	.LASF50
 994 026c 0A       		.byte	0xa
 995 026d 50       		.byte	0x50
 996 026e 72020000 		.4byte	0x272
 997 0272 05       		.uleb128 0x5
 998 0273 51000000 		.4byte	.LASF51
 999 0277 08       		.byte	0x8
 1000 0278 01       		.byte	0x1
 1001 0279 8F       		.byte	0x8f
 1002 027a 97020000 		.4byte	0x297
 1003 027e 06       		.uleb128 0x6
 1004 027f 06010000 		.4byte	.LASF49
 1005 0283 01       		.byte	0x1
 1006 0284 90       		.byte	0x90
 1007 0285 3D020000 		.4byte	0x23d
 1008 0289 00       		.byte	0
 1009 028a 06       		.uleb128 0x6
 1010 028b 40000000 		.4byte	.LASF52
 1011 028f 01       		.byte	0x1
 1012 0290 91       		.byte	0x91
 1013 0291 3D020000 		.4byte	0x23d
 1014 0295 04       		.byte	0x4
 1015 0296 00       		.byte	0
 1016 0297 04       		.uleb128 0x4
 1017 0298 00000000 		.4byte	.LASF53
 1018 029c 0A       		.byte	0xa
 1019 029d 57       		.byte	0x57
 1020 029e A2020000 		.4byte	0x2a2
 1021 02a2 0B       		.uleb128 0xb
 1022 02a3 AB030000 		.4byte	.LASF54
 1023 02a7 1C       		.byte	0x1c
 1024 02a8 01       		.byte	0x1
 1025 02a9 6A01     		.2byte	0x16a
 1026 02ab FE020000 		.4byte	0x2fe
ARM GAS  /tmp/ccq4cqsT.s 			page 19


 1027 02af 09       		.uleb128 0x9
 1028 02b0 34030000 		.4byte	.LASF29
 1029 02b4 01       		.byte	0x1
 1030 02b5 6B01     		.2byte	0x16b
 1031 02b7 67020000 		.4byte	0x267
 1032 02bb 00       		.byte	0
 1033 02bc 09       		.uleb128 0x9
 1034 02bd 8B040000 		.4byte	.LASF30
 1035 02c1 01       		.byte	0x1
 1036 02c2 6C01     		.2byte	0x16c
 1037 02c4 FA000000 		.4byte	0xfa
 1038 02c8 08       		.byte	0x8
 1039 02c9 08       		.uleb128 0x8
 1040 02ca 63747800 		.ascii	"ctx\000"
 1041 02ce 01       		.byte	0x1
 1042 02cf 6E01     		.2byte	0x16e
 1043 02d1 6C040000 		.4byte	0x46c
 1044 02d5 0C       		.byte	0xc
 1045 02d6 09       		.uleb128 0x9
 1046 02d7 DA030000 		.4byte	.LASF31
 1047 02db 01       		.byte	0x1
 1048 02dc 7101     		.2byte	0x171
 1049 02de 3D020000 		.4byte	0x23d
 1050 02e2 10       		.byte	0x10
 1051 02e3 09       		.uleb128 0x9
 1052 02e4 D3050000 		.4byte	.LASF32
 1053 02e8 01       		.byte	0x1
 1054 02e9 7201     		.2byte	0x172
 1055 02eb 3D020000 		.4byte	0x23d
 1056 02ef 14       		.byte	0x14
 1057 02f0 09       		.uleb128 0x9
 1058 02f1 A0040000 		.4byte	.LASF55
 1059 02f5 01       		.byte	0x1
 1060 02f6 7501     		.2byte	0x175
 1061 02f8 3D020000 		.4byte	0x23d
 1062 02fc 18       		.byte	0x18
 1063 02fd 00       		.byte	0
 1064 02fe 04       		.uleb128 0x4
 1065 02ff 17060000 		.4byte	.LASF56
 1066 0303 0A       		.byte	0xa
 1067 0304 5C       		.byte	0x5c
 1068 0305 09030000 		.4byte	0x309
 1069 0309 0A       		.uleb128 0xa
 1070 030a 04       		.byte	0x4
 1071 030b 0F030000 		.4byte	0x30f
 1072 030f 0C       		.uleb128 0xc
 1073 0310 1A030000 		.4byte	0x31a
 1074 0314 0D       		.uleb128 0xd
 1075 0315 1A030000 		.4byte	0x31a
 1076 0319 00       		.byte	0
 1077 031a 0E       		.uleb128 0xe
 1078 031b 04       		.byte	0x4
 1079 031c 04       		.uleb128 0x4
 1080 031d CB040000 		.4byte	.LASF57
 1081 0321 0A       		.byte	0xa
 1082 0322 61       		.byte	0x61
 1083 0323 27030000 		.4byte	0x327
ARM GAS  /tmp/ccq4cqsT.s 			page 20


 1084 0327 0B       		.uleb128 0xb
 1085 0328 44050000 		.4byte	.LASF58
 1086 032c 14       		.byte	0x14
 1087 032d 01       		.byte	0x1
 1088 032e 4501     		.2byte	0x145
 1089 0330 76030000 		.4byte	0x376
 1090 0334 09       		.uleb128 0x9
 1091 0335 06010000 		.4byte	.LASF49
 1092 0339 01       		.byte	0x1
 1093 033a 4601     		.2byte	0x146
 1094 033c 6B070000 		.4byte	0x76b
 1095 0340 00       		.byte	0
 1096 0341 09       		.uleb128 0x9
 1097 0342 40000000 		.4byte	.LASF52
 1098 0346 01       		.byte	0x1
 1099 0347 4701     		.2byte	0x147
 1100 0349 6B070000 		.4byte	0x76b
 1101 034d 04       		.byte	0x4
 1102 034e 09       		.uleb128 0x9
 1103 034f 13000000 		.4byte	.LASF59
 1104 0353 01       		.byte	0x1
 1105 0354 4801     		.2byte	0x148
 1106 0356 31010000 		.4byte	0x131
 1107 035a 08       		.byte	0x8
 1108 035b 09       		.uleb128 0x9
 1109 035c B5010000 		.4byte	.LASF60
 1110 0360 01       		.byte	0x1
 1111 0361 4901     		.2byte	0x149
 1112 0363 FE020000 		.4byte	0x2fe
 1113 0367 0C       		.byte	0xc
 1114 0368 08       		.uleb128 0x8
 1115 0369 70617200 		.ascii	"par\000"
 1116 036d 01       		.byte	0x1
 1117 036e 4B01     		.2byte	0x14b
 1118 0370 1A030000 		.4byte	0x31a
 1119 0374 10       		.byte	0x10
 1120 0375 00       		.byte	0
 1121 0376 04       		.uleb128 0x4
 1122 0377 E3000000 		.4byte	.LASF61
 1123 037b 0A       		.byte	0xa
 1124 037c 66       		.byte	0x66
 1125 037d 81030000 		.4byte	0x381
 1126 0381 0B       		.uleb128 0xb
 1127 0382 22040000 		.4byte	.LASF62
 1128 0386 10       		.byte	0x10
 1129 0387 01       		.byte	0x1
 1130 0388 5501     		.2byte	0x155
 1131 038a C3030000 		.4byte	0x3c3
 1132 038e 09       		.uleb128 0x9
 1133 038f 06010000 		.4byte	.LASF49
 1134 0393 01       		.byte	0x1
 1135 0394 5601     		.2byte	0x156
 1136 0396 6B070000 		.4byte	0x76b
 1137 039a 00       		.byte	0
 1138 039b 09       		.uleb128 0x9
 1139 039c 40000000 		.4byte	.LASF52
 1140 03a0 01       		.byte	0x1
ARM GAS  /tmp/ccq4cqsT.s 			page 21


 1141 03a1 5801     		.2byte	0x158
 1142 03a3 6B070000 		.4byte	0x76b
 1143 03a7 04       		.byte	0x4
 1144 03a8 09       		.uleb128 0x9
 1145 03a9 13000000 		.4byte	.LASF59
 1146 03ad 01       		.byte	0x1
 1147 03ae 5A01     		.2byte	0x15a
 1148 03b0 31010000 		.4byte	0x131
 1149 03b4 08       		.byte	0x8
 1150 03b5 09       		.uleb128 0x9
 1151 03b6 17050000 		.4byte	.LASF63
 1152 03ba 01       		.byte	0x1
 1153 03bb 6201     		.2byte	0x162
 1154 03bd 31010000 		.4byte	0x131
 1155 03c1 0C       		.byte	0xc
 1156 03c2 00       		.byte	0
 1157 03c3 04       		.uleb128 0x4
 1158 03c4 62000000 		.4byte	.LASF64
 1159 03c8 0A       		.byte	0xa
 1160 03c9 6B       		.byte	0x6b
 1161 03ca CE030000 		.4byte	0x3ce
 1162 03ce 0B       		.uleb128 0xb
 1163 03cf E5010000 		.4byte	.LASF65
 1164 03d3 04       		.byte	0x4
 1165 03d4 01       		.byte	0x1
 1166 03d5 7C01     		.2byte	0x17c
 1167 03d7 E9030000 		.4byte	0x3e9
 1168 03db 09       		.uleb128 0x9
 1169 03dc 2E060000 		.4byte	.LASF66
 1170 03e0 01       		.byte	0x1
 1171 03e1 8401     		.2byte	0x184
 1172 03e3 71070000 		.4byte	0x771
 1173 03e7 00       		.byte	0
 1174 03e8 00       		.byte	0
 1175 03e9 04       		.uleb128 0x4
 1176 03ea 8C030000 		.4byte	.LASF67
 1177 03ee 0A       		.byte	0xa
 1178 03ef 70       		.byte	0x70
 1179 03f0 F4030000 		.4byte	0x3f4
 1180 03f4 0B       		.uleb128 0xb
 1181 03f5 27050000 		.4byte	.LASF68
 1182 03f9 D0       		.byte	0xd0
 1183 03fa 01       		.byte	0x1
 1184 03fb 9C01     		.2byte	0x19c
 1185 03fd 4F040000 		.4byte	0x44f
 1186 0401 09       		.uleb128 0x9
 1187 0402 AA060000 		.4byte	.LASF69
 1188 0406 01       		.byte	0x1
 1189 0407 A001     		.2byte	0x1a0
 1190 0409 97020000 		.4byte	0x297
 1191 040d 00       		.byte	0
 1192 040e 09       		.uleb128 0x9
 1193 040f 43010000 		.4byte	.LASF70
 1194 0413 01       		.byte	0x1
 1195 0414 A401     		.2byte	0x1a4
 1196 0416 76030000 		.4byte	0x376
 1197 041a 1C       		.byte	0x1c
ARM GAS  /tmp/ccq4cqsT.s 			page 22


 1198 041b 08       		.uleb128 0x8
 1199 041c 64626700 		.ascii	"dbg\000"
 1200 0420 01       		.byte	0x1
 1201 0421 A801     		.2byte	0x1a8
 1202 0423 C3030000 		.4byte	0x3c3
 1203 0427 2C       		.byte	0x2c
 1204 0428 09       		.uleb128 0x9
 1205 0429 D0000000 		.4byte	.LASF71
 1206 042d 01       		.byte	0x1
 1207 042e AC01     		.2byte	0x1ac
 1208 0430 3C010000 		.4byte	0x13c
 1209 0434 30       		.byte	0x30
 1210 0435 08       		.uleb128 0x8
 1211 0436 746D00   		.ascii	"tm\000"
 1212 0439 01       		.byte	0x1
 1213 043a B101     		.2byte	0x1b1
 1214 043c EB050000 		.4byte	0x5eb
 1215 0440 90       		.byte	0x90
 1216 0441 09       		.uleb128 0x9
 1217 0442 29000000 		.4byte	.LASF72
 1218 0446 01       		.byte	0x1
 1219 0447 B701     		.2byte	0x1b7
 1220 0449 7D060000 		.4byte	0x67d
 1221 044d 98       		.byte	0x98
 1222 044e 00       		.byte	0
 1223 044f 03       		.uleb128 0x3
 1224 0450 04       		.byte	0x4
 1225 0451 07       		.byte	0x7
 1226 0452 06040000 		.4byte	.LASF73
 1227 0456 04       		.uleb128 0x4
 1228 0457 DC010000 		.4byte	.LASF74
 1229 045b 0B       		.byte	0xb
 1230 045c 65       		.byte	0x65
 1231 045d 1A030000 		.4byte	0x31a
 1232 0461 04       		.uleb128 0x4
 1233 0462 CF030000 		.4byte	.LASF75
 1234 0466 0B       		.byte	0xb
 1235 0467 6D       		.byte	0x6d
 1236 0468 B8000000 		.4byte	0xb8
 1237 046c 05       		.uleb128 0x5
 1238 046d 68040000 		.4byte	.LASF76
 1239 0471 04       		.byte	0x4
 1240 0472 0B       		.byte	0xb
 1241 0473 89       		.byte	0x89
 1242 0474 84040000 		.4byte	0x484
 1243 0478 07       		.uleb128 0x7
 1244 0479 737000   		.ascii	"sp\000"
 1245 047c 0B       		.byte	0xb
 1246 047d 8A       		.byte	0x8a
 1247 047e D0050000 		.4byte	0x5d0
 1248 0482 00       		.byte	0
 1249 0483 00       		.byte	0
 1250 0484 0B       		.uleb128 0xb
 1251 0485 45000000 		.4byte	.LASF77
 1252 0489 64       		.byte	0x64
 1253 048a 0C       		.byte	0xc
 1254 048b 5901     		.2byte	0x159
ARM GAS  /tmp/ccq4cqsT.s 			page 23


 1255 048d D0050000 		.4byte	0x5d0
 1256 0491 08       		.uleb128 0x8
 1257 0492 73313600 		.ascii	"s16\000"
 1258 0496 0C       		.byte	0xc
 1259 0497 5B01     		.2byte	0x15b
 1260 0499 56040000 		.4byte	0x456
 1261 049d 00       		.byte	0
 1262 049e 08       		.uleb128 0x8
 1263 049f 73313700 		.ascii	"s17\000"
 1264 04a3 0C       		.byte	0xc
 1265 04a4 5C01     		.2byte	0x15c
 1266 04a6 56040000 		.4byte	0x456
 1267 04aa 04       		.byte	0x4
 1268 04ab 08       		.uleb128 0x8
 1269 04ac 73313800 		.ascii	"s18\000"
 1270 04b0 0C       		.byte	0xc
 1271 04b1 5D01     		.2byte	0x15d
 1272 04b3 56040000 		.4byte	0x456
 1273 04b7 08       		.byte	0x8
 1274 04b8 08       		.uleb128 0x8
 1275 04b9 73313900 		.ascii	"s19\000"
 1276 04bd 0C       		.byte	0xc
 1277 04be 5E01     		.2byte	0x15e
 1278 04c0 56040000 		.4byte	0x456
 1279 04c4 0C       		.byte	0xc
 1280 04c5 08       		.uleb128 0x8
 1281 04c6 73323000 		.ascii	"s20\000"
 1282 04ca 0C       		.byte	0xc
 1283 04cb 5F01     		.2byte	0x15f
 1284 04cd 56040000 		.4byte	0x456
 1285 04d1 10       		.byte	0x10
 1286 04d2 08       		.uleb128 0x8
 1287 04d3 73323100 		.ascii	"s21\000"
 1288 04d7 0C       		.byte	0xc
 1289 04d8 6001     		.2byte	0x160
 1290 04da 56040000 		.4byte	0x456
 1291 04de 14       		.byte	0x14
 1292 04df 08       		.uleb128 0x8
 1293 04e0 73323200 		.ascii	"s22\000"
 1294 04e4 0C       		.byte	0xc
 1295 04e5 6101     		.2byte	0x161
 1296 04e7 56040000 		.4byte	0x456
 1297 04eb 18       		.byte	0x18
 1298 04ec 08       		.uleb128 0x8
 1299 04ed 73323300 		.ascii	"s23\000"
 1300 04f1 0C       		.byte	0xc
 1301 04f2 6201     		.2byte	0x162
 1302 04f4 56040000 		.4byte	0x456
 1303 04f8 1C       		.byte	0x1c
 1304 04f9 08       		.uleb128 0x8
 1305 04fa 73323400 		.ascii	"s24\000"
 1306 04fe 0C       		.byte	0xc
 1307 04ff 6301     		.2byte	0x163
 1308 0501 56040000 		.4byte	0x456
 1309 0505 20       		.byte	0x20
 1310 0506 08       		.uleb128 0x8
 1311 0507 73323500 		.ascii	"s25\000"
ARM GAS  /tmp/ccq4cqsT.s 			page 24


 1312 050b 0C       		.byte	0xc
 1313 050c 6401     		.2byte	0x164
 1314 050e 56040000 		.4byte	0x456
 1315 0512 24       		.byte	0x24
 1316 0513 08       		.uleb128 0x8
 1317 0514 73323600 		.ascii	"s26\000"
 1318 0518 0C       		.byte	0xc
 1319 0519 6501     		.2byte	0x165
 1320 051b 56040000 		.4byte	0x456
 1321 051f 28       		.byte	0x28
 1322 0520 08       		.uleb128 0x8
 1323 0521 73323700 		.ascii	"s27\000"
 1324 0525 0C       		.byte	0xc
 1325 0526 6601     		.2byte	0x166
 1326 0528 56040000 		.4byte	0x456
 1327 052c 2C       		.byte	0x2c
 1328 052d 08       		.uleb128 0x8
 1329 052e 73323800 		.ascii	"s28\000"
 1330 0532 0C       		.byte	0xc
 1331 0533 6701     		.2byte	0x167
 1332 0535 56040000 		.4byte	0x456
 1333 0539 30       		.byte	0x30
 1334 053a 08       		.uleb128 0x8
 1335 053b 73323900 		.ascii	"s29\000"
 1336 053f 0C       		.byte	0xc
 1337 0540 6801     		.2byte	0x168
 1338 0542 56040000 		.4byte	0x456
 1339 0546 34       		.byte	0x34
 1340 0547 08       		.uleb128 0x8
 1341 0548 73333000 		.ascii	"s30\000"
 1342 054c 0C       		.byte	0xc
 1343 054d 6901     		.2byte	0x169
 1344 054f 56040000 		.4byte	0x456
 1345 0553 38       		.byte	0x38
 1346 0554 08       		.uleb128 0x8
 1347 0555 73333100 		.ascii	"s31\000"
 1348 0559 0C       		.byte	0xc
 1349 055a 6A01     		.2byte	0x16a
 1350 055c 56040000 		.4byte	0x456
 1351 0560 3C       		.byte	0x3c
 1352 0561 08       		.uleb128 0x8
 1353 0562 723400   		.ascii	"r4\000"
 1354 0565 0C       		.byte	0xc
 1355 0566 6C01     		.2byte	0x16c
 1356 0568 56040000 		.4byte	0x456
 1357 056c 40       		.byte	0x40
 1358 056d 08       		.uleb128 0x8
 1359 056e 723500   		.ascii	"r5\000"
 1360 0571 0C       		.byte	0xc
 1361 0572 6D01     		.2byte	0x16d
 1362 0574 56040000 		.4byte	0x456
 1363 0578 44       		.byte	0x44
 1364 0579 08       		.uleb128 0x8
 1365 057a 723600   		.ascii	"r6\000"
 1366 057d 0C       		.byte	0xc
 1367 057e 6E01     		.2byte	0x16e
 1368 0580 56040000 		.4byte	0x456
ARM GAS  /tmp/ccq4cqsT.s 			page 25


 1369 0584 48       		.byte	0x48
 1370 0585 08       		.uleb128 0x8
 1371 0586 723700   		.ascii	"r7\000"
 1372 0589 0C       		.byte	0xc
 1373 058a 6F01     		.2byte	0x16f
 1374 058c 56040000 		.4byte	0x456
 1375 0590 4C       		.byte	0x4c
 1376 0591 08       		.uleb128 0x8
 1377 0592 723800   		.ascii	"r8\000"
 1378 0595 0C       		.byte	0xc
 1379 0596 7001     		.2byte	0x170
 1380 0598 56040000 		.4byte	0x456
 1381 059c 50       		.byte	0x50
 1382 059d 08       		.uleb128 0x8
 1383 059e 723900   		.ascii	"r9\000"
 1384 05a1 0C       		.byte	0xc
 1385 05a2 7101     		.2byte	0x171
 1386 05a4 56040000 		.4byte	0x456
 1387 05a8 54       		.byte	0x54
 1388 05a9 08       		.uleb128 0x8
 1389 05aa 72313000 		.ascii	"r10\000"
 1390 05ae 0C       		.byte	0xc
 1391 05af 7201     		.2byte	0x172
 1392 05b1 56040000 		.4byte	0x456
 1393 05b5 58       		.byte	0x58
 1394 05b6 08       		.uleb128 0x8
 1395 05b7 72313100 		.ascii	"r11\000"
 1396 05bb 0C       		.byte	0xc
 1397 05bc 7301     		.2byte	0x173
 1398 05be 56040000 		.4byte	0x456
 1399 05c2 5C       		.byte	0x5c
 1400 05c3 08       		.uleb128 0x8
 1401 05c4 6C7200   		.ascii	"lr\000"
 1402 05c7 0C       		.byte	0xc
 1403 05c8 7401     		.2byte	0x174
 1404 05ca 56040000 		.4byte	0x456
 1405 05ce 60       		.byte	0x60
 1406 05cf 00       		.byte	0
 1407 05d0 0A       		.uleb128 0xa
 1408 05d1 04       		.byte	0x4
 1409 05d2 84040000 		.4byte	0x484
 1410 05d6 0F       		.uleb128 0xf
 1411 05d7 04       		.byte	0x4
 1412 05d8 0D       		.byte	0xd
 1413 05d9 38       		.byte	0x38
 1414 05da EB050000 		.4byte	0x5eb
 1415 05de 06       		.uleb128 0x6
 1416 05df 38060000 		.4byte	.LASF78
 1417 05e3 0D       		.byte	0xd
 1418 05e4 3C       		.byte	0x3c
 1419 05e5 C3000000 		.4byte	0xc3
 1420 05e9 00       		.byte	0
 1421 05ea 00       		.byte	0
 1422 05eb 04       		.uleb128 0x4
 1423 05ec 75040000 		.4byte	.LASF79
 1424 05f0 0D       		.byte	0xd
 1425 05f1 3D       		.byte	0x3d
ARM GAS  /tmp/ccq4cqsT.s 			page 26


 1426 05f2 D6050000 		.4byte	0x5d6
 1427 05f6 0F       		.uleb128 0xf
 1428 05f7 18       		.byte	0x18
 1429 05f8 0D       		.byte	0xd
 1430 05f9 48       		.byte	0x48
 1431 05fa 39060000 		.4byte	0x639
 1432 05fe 06       		.uleb128 0x6
 1433 05ff F6050000 		.4byte	.LASF80
 1434 0603 0D       		.byte	0xd
 1435 0604 49       		.byte	0x49
 1436 0605 C3000000 		.4byte	0xc3
 1437 0609 00       		.byte	0
 1438 060a 06       		.uleb128 0x6
 1439 060b 86000000 		.4byte	.LASF81
 1440 060f 0D       		.byte	0xd
 1441 0610 4A       		.byte	0x4a
 1442 0611 C3000000 		.4byte	0xc3
 1443 0615 04       		.byte	0x4
 1444 0616 06       		.uleb128 0x6
 1445 0617 77030000 		.4byte	.LASF82
 1446 061b 0D       		.byte	0xd
 1447 061c 4B       		.byte	0x4b
 1448 061d C3000000 		.4byte	0xc3
 1449 0621 08       		.byte	0x8
 1450 0622 07       		.uleb128 0x7
 1451 0623 6E00     		.ascii	"n\000"
 1452 0625 0D       		.byte	0xd
 1453 0626 4C       		.byte	0x4c
 1454 0627 26010000 		.4byte	0x126
 1455 062b 0C       		.byte	0xc
 1456 062c 06       		.uleb128 0x6
 1457 062d B3040000 		.4byte	.LASF83
 1458 0631 0D       		.byte	0xd
 1459 0632 4D       		.byte	0x4d
 1460 0633 CE000000 		.4byte	0xce
 1461 0637 10       		.byte	0x10
 1462 0638 00       		.byte	0
 1463 0639 04       		.uleb128 0x4
 1464 063a 8C000000 		.4byte	.LASF84
 1465 063e 0D       		.byte	0xd
 1466 063f 4E       		.byte	0x4e
 1467 0640 F6050000 		.4byte	0x5f6
 1468 0644 0F       		.uleb128 0xf
 1469 0645 38       		.byte	0x38
 1470 0646 0E       		.byte	0xe
 1471 0647 38       		.byte	0x38
 1472 0648 7D060000 		.4byte	0x67d
 1473 064c 06       		.uleb128 0x6
 1474 064d 2E030000 		.4byte	.LASF85
 1475 0651 0E       		.byte	0xe
 1476 0652 39       		.byte	0x39
 1477 0653 26010000 		.4byte	0x126
 1478 0657 00       		.byte	0
 1479 0658 06       		.uleb128 0x6
 1480 0659 5F040000 		.4byte	.LASF86
 1481 065d 0E       		.byte	0xe
 1482 065e 3A       		.byte	0x3a
ARM GAS  /tmp/ccq4cqsT.s 			page 27


 1483 065f 26010000 		.4byte	0x126
 1484 0663 04       		.byte	0x4
 1485 0664 06       		.uleb128 0x6
 1486 0665 58070000 		.4byte	.LASF87
 1487 0669 0E       		.byte	0xe
 1488 066a 3B       		.byte	0x3b
 1489 066b 39060000 		.4byte	0x639
 1490 066f 08       		.byte	0x8
 1491 0670 06       		.uleb128 0x6
 1492 0671 A0030000 		.4byte	.LASF88
 1493 0675 0E       		.byte	0xe
 1494 0676 3D       		.byte	0x3d
 1495 0677 39060000 		.4byte	0x639
 1496 067b 20       		.byte	0x20
 1497 067c 00       		.byte	0
 1498 067d 04       		.uleb128 0x4
 1499 067e 53030000 		.4byte	.LASF89
 1500 0682 0E       		.byte	0xe
 1501 0683 3F       		.byte	0x3f
 1502 0684 44060000 		.4byte	0x644
 1503 0688 10       		.uleb128 0x10
 1504 0689 04       		.byte	0x4
 1505 068a 01       		.byte	0x1
 1506 068b D2       		.byte	0xd2
 1507 068c EB060000 		.4byte	0x6eb
 1508 0690 11       		.uleb128 0x11
 1509 0691 19000000 		.4byte	.LASF90
 1510 0695 01       		.byte	0x1
 1511 0696 D9       		.byte	0xd9
 1512 0697 05010000 		.4byte	0x105
 1513 069b 11       		.uleb128 0x11
 1514 069c C7000000 		.4byte	.LASF91
 1515 06a0 01       		.byte	0x1
 1516 06a1 E0       		.byte	0xe0
 1517 06a2 05010000 		.4byte	0x105
 1518 06a6 11       		.uleb128 0x11
 1519 06a7 EA060000 		.4byte	.LASF92
 1520 06ab 01       		.byte	0x1
 1521 06ac E7       		.byte	0xe7
 1522 06ad 1A030000 		.4byte	0x31a
 1523 06b1 11       		.uleb128 0x11
 1524 06b2 0D000000 		.4byte	.LASF93
 1525 06b6 01       		.byte	0x1
 1526 06b7 EE       		.byte	0xee
 1527 06b8 EB060000 		.4byte	0x6eb
 1528 06bc 11       		.uleb128 0x11
 1529 06bd DB000000 		.4byte	.LASF94
 1530 06c1 01       		.byte	0x1
 1531 06c2 F3       		.byte	0xf3
 1532 06c3 05010000 		.4byte	0x105
 1533 06c7 11       		.uleb128 0x11
 1534 06c8 27030000 		.4byte	.LASF95
 1535 06cc 01       		.byte	0x1
 1536 06cd FC       		.byte	0xfc
 1537 06ce 16070000 		.4byte	0x716
 1538 06d2 12       		.uleb128 0x12
 1539 06d3 8C050000 		.4byte	.LASF96
ARM GAS  /tmp/ccq4cqsT.s 			page 28


 1540 06d7 01       		.byte	0x1
 1541 06d8 0501     		.2byte	0x105
 1542 06da 4D070000 		.4byte	0x74d
 1543 06de 12       		.uleb128 0x12
 1544 06df 20050000 		.4byte	.LASF97
 1545 06e3 01       		.byte	0x1
 1546 06e4 0D01     		.2byte	0x10d
 1547 06e6 10010000 		.4byte	0x110
 1548 06ea 00       		.byte	0
 1549 06eb 0A       		.uleb128 0xa
 1550 06ec 04       		.byte	0x4
 1551 06ed 32020000 		.4byte	0x232
 1552 06f1 05       		.uleb128 0x5
 1553 06f2 55050000 		.4byte	.LASF98
 1554 06f6 0C       		.byte	0xc
 1555 06f7 0F       		.byte	0xf
 1556 06f8 34       		.byte	0x34
 1557 06f9 16070000 		.4byte	0x716
 1558 06fd 06       		.uleb128 0x6
 1559 06fe 34030000 		.4byte	.LASF29
 1560 0702 0F       		.byte	0xf
 1561 0703 35       		.byte	0x35
 1562 0704 67020000 		.4byte	0x267
 1563 0708 00       		.byte	0
 1564 0709 07       		.uleb128 0x7
 1565 070a 636E7400 		.ascii	"cnt\000"
 1566 070e 0F       		.byte	0xf
 1567 070f 37       		.byte	0x37
 1568 0710 1B010000 		.4byte	0x11b
 1569 0714 08       		.byte	0x8
 1570 0715 00       		.byte	0
 1571 0716 0A       		.uleb128 0xa
 1572 0717 04       		.byte	0x4
 1573 0718 F1060000 		.4byte	0x6f1
 1574 071c 05       		.uleb128 0x5
 1575 071d 6F060000 		.4byte	.LASF99
 1576 0721 10       		.byte	0x10
 1577 0722 05       		.byte	0x5
 1578 0723 39       		.byte	0x39
 1579 0724 4D070000 		.4byte	0x74d
 1580 0728 06       		.uleb128 0x6
 1581 0729 34030000 		.4byte	.LASF29
 1582 072d 05       		.byte	0x5
 1583 072e 3A       		.byte	0x3a
 1584 072f 67020000 		.4byte	0x267
 1585 0733 00       		.byte	0
 1586 0734 06       		.uleb128 0x6
 1587 0735 AF050000 		.4byte	.LASF100
 1588 0739 05       		.byte	0x5
 1589 073a 3C       		.byte	0x3c
 1590 073b 3D020000 		.4byte	0x23d
 1591 073f 08       		.byte	0x8
 1592 0740 06       		.uleb128 0x6
 1593 0741 06010000 		.4byte	.LASF49
 1594 0745 05       		.byte	0x5
 1595 0746 3E       		.byte	0x3e
 1596 0747 81070000 		.4byte	0x781
ARM GAS  /tmp/ccq4cqsT.s 			page 29


 1597 074b 0C       		.byte	0xc
 1598 074c 00       		.byte	0
 1599 074d 0A       		.uleb128 0xa
 1600 074e 04       		.byte	0x4
 1601 074f 1C070000 		.4byte	0x71c
 1602 0753 0A       		.uleb128 0xa
 1603 0754 04       		.byte	0x4
 1604 0755 59070000 		.4byte	0x759
 1605 0759 13       		.uleb128 0x13
 1606 075a 5E070000 		.4byte	0x75e
 1607 075e 03       		.uleb128 0x3
 1608 075f 01       		.byte	0x1
 1609 0760 08       		.byte	0x8
 1610 0761 CE050000 		.4byte	.LASF101
 1611 0765 0A       		.uleb128 0xa
 1612 0766 04       		.byte	0x4
 1613 0767 61040000 		.4byte	0x461
 1614 076b 0A       		.uleb128 0xa
 1615 076c 04       		.byte	0x4
 1616 076d 1C030000 		.4byte	0x31c
 1617 0771 14       		.uleb128 0x14
 1618 0772 53070000 		.4byte	0x753
 1619 0776 04       		.uleb128 0x4
 1620 0777 FD010000 		.4byte	.LASF102
 1621 077b 05       		.byte	0x5
 1622 077c 34       		.byte	0x34
 1623 077d 1C070000 		.4byte	0x71c
 1624 0781 0A       		.uleb128 0xa
 1625 0782 04       		.byte	0x4
 1626 0783 76070000 		.4byte	0x776
 1627 0787 05       		.uleb128 0x5
 1628 0788 39040000 		.4byte	.LASF103
 1629 078c 08       		.byte	0x8
 1630 078d 10       		.byte	0x10
 1631 078e 3B       		.byte	0x3b
 1632 078f A0070000 		.4byte	0x7a0
 1633 0793 06       		.uleb128 0x6
 1634 0794 34030000 		.4byte	.LASF29
 1635 0798 10       		.byte	0x10
 1636 0799 3C       		.byte	0x3c
 1637 079a 67020000 		.4byte	0x267
 1638 079e 00       		.byte	0
 1639 079f 00       		.byte	0
 1640 07a0 04       		.uleb128 0x4
 1641 07a1 2E010000 		.4byte	.LASF104
 1642 07a5 10       		.byte	0x10
 1643 07a6 3E       		.byte	0x3e
 1644 07a7 87070000 		.4byte	0x787
 1645 07ab 03       		.uleb128 0x3
 1646 07ac 01       		.byte	0x1
 1647 07ad 02       		.byte	0x2
 1648 07ae F1040000 		.4byte	.LASF105
 1649 07b2 15       		.uleb128 0x15
 1650 07b3 20060000 		.4byte	.LASF108
 1651 07b7 03       		.byte	0x3
 1652 07b8 0601     		.2byte	0x106
 1653 07ba 03       		.byte	0x3
ARM GAS  /tmp/ccq4cqsT.s 			page 30


 1654 07bb CC070000 		.4byte	0x7cc
 1655 07bf 16       		.uleb128 0x16
 1656 07c0 05020000 		.4byte	.LASF110
 1657 07c4 03       		.byte	0x3
 1658 07c5 0601     		.2byte	0x106
 1659 07c7 AD000000 		.4byte	0xad
 1660 07cb 00       		.byte	0
 1661 07cc 17       		.uleb128 0x17
 1662 07cd B0060000 		.4byte	.LASF113
 1663 07d1 06       		.byte	0x6
 1664 07d2 1C01     		.2byte	0x11c
 1665 07d4 3D020000 		.4byte	0x23d
 1666 07d8 03       		.byte	0x3
 1667 07d9 18       		.uleb128 0x18
 1668 07da 7C000000 		.4byte	.LASF106
 1669 07de 0C       		.byte	0xc
 1670 07df 5202     		.2byte	0x252
 1671 07e1 03       		.byte	0x3
 1672 07e2 18       		.uleb128 0x18
 1673 07e3 79010000 		.4byte	.LASF107
 1674 07e7 0C       		.byte	0xc
 1675 07e8 6A02     		.2byte	0x26a
 1676 07ea 03       		.byte	0x3
 1677 07eb 15       		.uleb128 0x15
 1678 07ec 71000000 		.4byte	.LASF109
 1679 07f0 01       		.byte	0x1
 1680 07f1 2402     		.2byte	0x224
 1681 07f3 03       		.byte	0x3
 1682 07f4 05080000 		.4byte	0x805
 1683 07f8 19       		.uleb128 0x19
 1684 07f9 74717000 		.ascii	"tqp\000"
 1685 07fd 01       		.byte	0x1
 1686 07fe 2402     		.2byte	0x224
 1687 0800 05080000 		.4byte	0x805
 1688 0804 00       		.byte	0
 1689 0805 0A       		.uleb128 0xa
 1690 0806 04       		.byte	0x4
 1691 0807 67020000 		.4byte	0x267
 1692 080b 1A       		.uleb128 0x1a
 1693 080c A6010000 		.4byte	.LASF111
 1694 0810 01       		.byte	0x1
 1695 0811 3F02     		.2byte	0x23f
 1696 0813 AB070000 		.4byte	0x7ab
 1697 0817 03       		.byte	0x3
 1698 0818 29080000 		.4byte	0x829
 1699 081c 19       		.uleb128 0x19
 1700 081d 74717000 		.ascii	"tqp\000"
 1701 0821 01       		.byte	0x1
 1702 0822 3F02     		.2byte	0x23f
 1703 0824 29080000 		.4byte	0x829
 1704 0828 00       		.byte	0
 1705 0829 0A       		.uleb128 0xa
 1706 082a 04       		.byte	0x4
 1707 082b 2F080000 		.4byte	0x82f
 1708 082f 13       		.uleb128 0x13
 1709 0830 67020000 		.4byte	0x267
 1710 0834 1A       		.uleb128 0x1a
ARM GAS  /tmp/ccq4cqsT.s 			page 31


 1711 0835 FB050000 		.4byte	.LASF112
 1712 0839 01       		.byte	0x1
 1713 083a 6902     		.2byte	0x269
 1714 083c 3D020000 		.4byte	0x23d
 1715 0840 03       		.byte	0x3
 1716 0841 5D080000 		.4byte	0x85d
 1717 0845 19       		.uleb128 0x19
 1718 0846 74717000 		.ascii	"tqp\000"
 1719 084a 01       		.byte	0x1
 1720 084b 6902     		.2byte	0x269
 1721 084d 05080000 		.4byte	0x805
 1722 0851 1B       		.uleb128 0x1b
 1723 0852 747000   		.ascii	"tp\000"
 1724 0855 01       		.byte	0x1
 1725 0856 6A02     		.2byte	0x26a
 1726 0858 3D020000 		.4byte	0x23d
 1727 085c 00       		.byte	0
 1728 085d 1C       		.uleb128 0x1c
 1729 085e 70050000 		.4byte	.LASF114
 1730 0862 05       		.byte	0x5
 1731 0863 90       		.byte	0x90
 1732 0864 81070000 		.4byte	0x781
 1733 0868 03       		.byte	0x3
 1734 0869 1D       		.uleb128 0x1d
 1735 086a 3E070000 		.4byte	.LASF140
 1736 086e 01       		.byte	0x1
 1737 086f 5502     		.2byte	0x255
 1738 0871 00000000 		.4byte	.LFB155
 1739 0875 20000000 		.4byte	.LFE155-.LFB155
 1740 0879 01       		.uleb128 0x1
 1741 087a 9C       		.byte	0x9c
 1742 087b AC080000 		.4byte	0x8ac
 1743 087f 1E       		.uleb128 0x1e
 1744 0880 747000   		.ascii	"tp\000"
 1745 0883 01       		.byte	0x1
 1746 0884 5502     		.2byte	0x255
 1747 0886 3D020000 		.4byte	0x23d
 1748 088a 01       		.uleb128 0x1
 1749 088b 50       		.byte	0x50
 1750 088c 1F       		.uleb128 0x1f
 1751 088d 74717000 		.ascii	"tqp\000"
 1752 0891 01       		.byte	0x1
 1753 0892 5502     		.2byte	0x255
 1754 0894 05080000 		.4byte	0x805
 1755 0898 00000000 		.4byte	.LLST0
 1756 089c 20       		.uleb128 0x20
 1757 089d 637000   		.ascii	"cp\000"
 1758 08a0 01       		.byte	0x1
 1759 08a1 5702     		.2byte	0x257
 1760 08a3 3D020000 		.4byte	0x23d
 1761 08a7 21000000 		.4byte	.LLST1
 1762 08ab 00       		.byte	0
 1763 08ac 21       		.uleb128 0x21
 1764 08ad E5050000 		.4byte	.LASF118
 1765 08b1 02       		.byte	0x2
 1766 08b2 4B       		.byte	0x4b
 1767 08b3 00000000 		.4byte	.LFB246
ARM GAS  /tmp/ccq4cqsT.s 			page 32


 1768 08b7 06000000 		.4byte	.LFE246-.LFB246
 1769 08bb 01       		.uleb128 0x1
 1770 08bc 9C       		.byte	0x9c
 1771 08bd EE080000 		.4byte	0x8ee
 1772 08c1 22       		.uleb128 0x22
 1773 08c2 637000   		.ascii	"cp\000"
 1774 08c5 02       		.byte	0x2
 1775 08c6 4B       		.byte	0x4b
 1776 08c7 EE080000 		.4byte	0x8ee
 1777 08cb 01       		.uleb128 0x1
 1778 08cc 50       		.byte	0x50
 1779 08cd 23       		.uleb128 0x23
 1780 08ce 31050000 		.4byte	.LASF117
 1781 08d2 04090000 		.4byte	0x904
 1782 08d6 24       		.uleb128 0x24
 1783 08d7 EB070000 		.4byte	0x7eb
 1784 08db 00000000 		.4byte	.LBB39
 1785 08df 06000000 		.4byte	.LBE39-.LBB39
 1786 08e3 02       		.byte	0x2
 1787 08e4 4F       		.byte	0x4f
 1788 08e5 25       		.uleb128 0x25
 1789 08e6 F8070000 		.4byte	0x7f8
 1790 08ea 01       		.uleb128 0x1
 1791 08eb 50       		.byte	0x50
 1792 08ec 00       		.byte	0
 1793 08ed 00       		.byte	0
 1794 08ee 0A       		.uleb128 0xa
 1795 08ef 04       		.byte	0x4
 1796 08f0 A0070000 		.4byte	0x7a0
 1797 08f4 26       		.uleb128 0x26
 1798 08f5 5E070000 		.4byte	0x75e
 1799 08f9 04090000 		.4byte	0x904
 1800 08fd 27       		.uleb128 0x27
 1801 08fe 4F040000 		.4byte	0x44f
 1802 0902 10       		.byte	0x10
 1803 0903 00       		.byte	0
 1804 0904 13       		.uleb128 0x13
 1805 0905 F4080000 		.4byte	0x8f4
 1806 0909 18       		.uleb128 0x18
 1807 090a 3A050000 		.4byte	.LASF115
 1808 090e 04       		.byte	0x4
 1809 090f 7601     		.2byte	0x176
 1810 0911 03       		.byte	0x3
 1811 0912 15       		.uleb128 0x15
 1812 0913 27070000 		.4byte	.LASF116
 1813 0917 04       		.byte	0x4
 1814 0918 8201     		.2byte	0x182
 1815 091a 03       		.byte	0x3
 1816 091b 2D090000 		.4byte	0x92d
 1817 091f 28       		.uleb128 0x28
 1818 0920 31050000 		.4byte	.LASF117
 1819 0924 3D090000 		.4byte	0x93d
 1820 0928 27070000 		.4byte	.LASF116
 1821 092c 00       		.byte	0
 1822 092d 26       		.uleb128 0x26
 1823 092e 5E070000 		.4byte	0x75e
 1824 0932 3D090000 		.4byte	0x93d
ARM GAS  /tmp/ccq4cqsT.s 			page 33


 1825 0936 27       		.uleb128 0x27
 1826 0937 4F040000 		.4byte	0x44f
 1827 093b 0B       		.byte	0xb
 1828 093c 00       		.byte	0
 1829 093d 13       		.uleb128 0x13
 1830 093e 2D090000 		.4byte	0x92d
 1831 0942 21       		.uleb128 0x21
 1832 0943 0B020000 		.4byte	.LASF119
 1833 0947 02       		.byte	0x2
 1834 0948 59       		.byte	0x59
 1835 0949 00000000 		.4byte	.LFB247
 1836 094d 2C000000 		.4byte	.LFE247-.LFB247
 1837 0951 01       		.uleb128 0x1
 1838 0952 9C       		.byte	0x9c
 1839 0953 660A0000 		.4byte	0xa66
 1840 0957 29       		.uleb128 0x29
 1841 0958 637000   		.ascii	"cp\000"
 1842 095b 02       		.byte	0x2
 1843 095c 59       		.byte	0x59
 1844 095d EE080000 		.4byte	0x8ee
 1845 0961 3F000000 		.4byte	.LLST2
 1846 0965 23       		.uleb128 0x23
 1847 0966 31050000 		.4byte	.LASF117
 1848 096a 760A0000 		.4byte	0xa76
 1849 096e 2A       		.uleb128 0x2a
 1850 096f 09090000 		.4byte	0x909
 1851 0973 02000000 		.4byte	.LBB55
 1852 0977 00000000 		.4byte	.Ldebug_ranges0+0
 1853 097b 02       		.byte	0x2
 1854 097c 5D       		.byte	0x5d
 1855 097d B7090000 		.4byte	0x9b7
 1856 0981 2B       		.uleb128 0x2b
 1857 0982 D9070000 		.4byte	0x7d9
 1858 0986 02000000 		.4byte	.LBB57
 1859 098a 18000000 		.4byte	.Ldebug_ranges0+0x18
 1860 098e 04       		.byte	0x4
 1861 098f 7801     		.2byte	0x178
 1862 0991 AD090000 		.4byte	0x9ad
 1863 0995 2C       		.uleb128 0x2c
 1864 0996 B2070000 		.4byte	0x7b2
 1865 099a 02000000 		.4byte	.LBB58
 1866 099e 18000000 		.4byte	.Ldebug_ranges0+0x18
 1867 09a2 0C       		.byte	0xc
 1868 09a3 5A02     		.2byte	0x25a
 1869 09a5 2D       		.uleb128 0x2d
 1870 09a6 BF070000 		.4byte	0x7bf
 1871 09aa 20       		.byte	0x20
 1872 09ab 00       		.byte	0
 1873 09ac 00       		.byte	0
 1874 09ad 2E       		.uleb128 0x2e
 1875 09ae 0E000000 		.4byte	.LVL7
 1876 09b2 3C100000 		.4byte	0x103c
 1877 09b6 00       		.byte	0
 1878 09b7 2F       		.uleb128 0x2f
 1879 09b8 0B080000 		.4byte	0x80b
 1880 09bc 0E000000 		.4byte	.LBB65
 1881 09c0 02000000 		.4byte	.LBE65-.LBB65
ARM GAS  /tmp/ccq4cqsT.s 			page 34


 1882 09c4 02       		.byte	0x2
 1883 09c5 5E       		.byte	0x5e
 1884 09c6 D2090000 		.4byte	0x9d2
 1885 09ca 25       		.uleb128 0x25
 1886 09cb 1C080000 		.4byte	0x81c
 1887 09cf 01       		.uleb128 0x1
 1888 09d0 54       		.byte	0x54
 1889 09d1 00       		.byte	0
 1890 09d2 2A       		.uleb128 0x2a
 1891 09d3 34080000 		.4byte	0x834
 1892 09d7 14000000 		.4byte	.LBB67
 1893 09db 30000000 		.4byte	.Ldebug_ranges0+0x30
 1894 09df 02       		.byte	0x2
 1895 09e0 5F       		.byte	0x5f
 1896 09e1 FE090000 		.4byte	0x9fe
 1897 09e5 30       		.uleb128 0x30
 1898 09e6 45080000 		.4byte	0x845
 1899 09ea 5D000000 		.4byte	.LLST3
 1900 09ee 31       		.uleb128 0x31
 1901 09ef 30000000 		.4byte	.Ldebug_ranges0+0x30
 1902 09f3 32       		.uleb128 0x32
 1903 09f4 51080000 		.4byte	0x851
 1904 09f8 70000000 		.4byte	.LLST4
 1905 09fc 00       		.byte	0
 1906 09fd 00       		.byte	0
 1907 09fe 2F       		.uleb128 0x2f
 1908 09ff 12090000 		.4byte	0x912
 1909 0a03 20000000 		.4byte	.LBB71
 1910 0a07 0C000000 		.4byte	.LBE71-.LBB71
 1911 0a0b 02       		.byte	0x2
 1912 0a0c 61       		.byte	0x61
 1913 0a0d 560A0000 		.4byte	0xa56
 1914 0a11 33       		.uleb128 0x33
 1915 0a12 20000000 		.4byte	.LBB72
 1916 0a16 0C000000 		.4byte	.LBE72-.LBB72
 1917 0a1a 34       		.uleb128 0x34
 1918 0a1b 1F090000 		.4byte	0x91f
 1919 0a1f 35       		.uleb128 0x35
 1920 0a20 E2070000 		.4byte	0x7e2
 1921 0a24 24000000 		.4byte	.LBB73
 1922 0a28 08000000 		.4byte	.LBE73-.LBB73
 1923 0a2c 04       		.byte	0x4
 1924 0a2d 8F01     		.2byte	0x18f
 1925 0a2f 4B0A0000 		.4byte	0xa4b
 1926 0a33 36       		.uleb128 0x36
 1927 0a34 B2070000 		.4byte	0x7b2
 1928 0a38 24000000 		.4byte	.LBB74
 1929 0a3c 08000000 		.4byte	.LBE74-.LBB74
 1930 0a40 0C       		.byte	0xc
 1931 0a41 6D02     		.2byte	0x26d
 1932 0a43 2D       		.uleb128 0x2d
 1933 0a44 BF070000 		.4byte	0x7bf
 1934 0a48 00       		.byte	0
 1935 0a49 00       		.byte	0
 1936 0a4a 00       		.byte	0
 1937 0a4b 2E       		.uleb128 0x2e
 1938 0a4c 24000000 		.4byte	.LVL10
ARM GAS  /tmp/ccq4cqsT.s 			page 35


 1939 0a50 43100000 		.4byte	0x1043
 1940 0a54 00       		.byte	0
 1941 0a55 00       		.byte	0
 1942 0a56 37       		.uleb128 0x37
 1943 0a57 20000000 		.4byte	.LVL9
 1944 0a5b 4A100000 		.4byte	0x104a
 1945 0a5f 38       		.uleb128 0x38
 1946 0a60 01       		.uleb128 0x1
 1947 0a61 51       		.byte	0x51
 1948 0a62 01       		.uleb128 0x1
 1949 0a63 30       		.byte	0x30
 1950 0a64 00       		.byte	0
 1951 0a65 00       		.byte	0
 1952 0a66 26       		.uleb128 0x26
 1953 0a67 5E070000 		.4byte	0x75e
 1954 0a6b 760A0000 		.4byte	0xa76
 1955 0a6f 27       		.uleb128 0x27
 1956 0a70 4F040000 		.4byte	0x44f
 1957 0a74 0C       		.byte	0xc
 1958 0a75 00       		.byte	0
 1959 0a76 13       		.uleb128 0x13
 1960 0a77 660A0000 		.4byte	0xa66
 1961 0a7b 21       		.uleb128 0x21
 1962 0a7c E3040000 		.4byte	.LASF120
 1963 0a80 02       		.byte	0x2
 1964 0a81 6F       		.byte	0x6f
 1965 0a82 00000000 		.4byte	.LFB248
 1966 0a86 18000000 		.4byte	.LFE248-.LFB248
 1967 0a8a 01       		.uleb128 0x1
 1968 0a8b 9C       		.byte	0x9c
 1969 0a8c 120B0000 		.4byte	0xb12
 1970 0a90 29       		.uleb128 0x29
 1971 0a91 637000   		.ascii	"cp\000"
 1972 0a94 02       		.byte	0x2
 1973 0a95 6F       		.byte	0x6f
 1974 0a96 EE080000 		.4byte	0x8ee
 1975 0a9a 83000000 		.4byte	.LLST5
 1976 0a9e 23       		.uleb128 0x23
 1977 0a9f 31050000 		.4byte	.LASF117
 1978 0aa3 220B0000 		.4byte	0xb22
 1979 0aa7 2F       		.uleb128 0x2f
 1980 0aa8 0B080000 		.4byte	0x80b
 1981 0aac 00000000 		.4byte	.LBB76
 1982 0ab0 02000000 		.4byte	.LBE76-.LBB76
 1983 0ab4 02       		.byte	0x2
 1984 0ab5 74       		.byte	0x74
 1985 0ab6 C40A0000 		.4byte	0xac4
 1986 0aba 30       		.uleb128 0x30
 1987 0abb 1C080000 		.4byte	0x81c
 1988 0abf 83000000 		.4byte	.LLST5
 1989 0ac3 00       		.byte	0
 1990 0ac4 33       		.uleb128 0x33
 1991 0ac5 06000000 		.4byte	.LBB78
 1992 0ac9 12000000 		.4byte	.LBE78-.LBB78
 1993 0acd 39       		.uleb128 0x39
 1994 0ace 747000   		.ascii	"tp\000"
 1995 0ad1 02       		.byte	0x2
ARM GAS  /tmp/ccq4cqsT.s 			page 36


 1996 0ad2 75       		.byte	0x75
 1997 0ad3 3D020000 		.4byte	0x23d
 1998 0ad7 2F       		.uleb128 0x2f
 1999 0ad8 34080000 		.4byte	0x834
 2000 0adc 06000000 		.4byte	.LBB79
 2001 0ae0 06000000 		.4byte	.LBE79-.LBB79
 2002 0ae4 02       		.byte	0x2
 2003 0ae5 75       		.byte	0x75
 2004 0ae6 070B0000 		.4byte	0xb07
 2005 0aea 30       		.uleb128 0x30
 2006 0aeb 45080000 		.4byte	0x845
 2007 0aef AF000000 		.4byte	.LLST7
 2008 0af3 33       		.uleb128 0x33
 2009 0af4 06000000 		.4byte	.LBB80
 2010 0af8 06000000 		.4byte	.LBE80-.LBB80
 2011 0afc 32       		.uleb128 0x32
 2012 0afd 51080000 		.4byte	0x851
 2013 0b01 D0000000 		.4byte	.LLST8
 2014 0b05 00       		.byte	0
 2015 0b06 00       		.byte	0
 2016 0b07 3A       		.uleb128 0x3a
 2017 0b08 16000000 		.4byte	.LVL14
 2018 0b0c 61100000 		.4byte	0x1061
 2019 0b10 00       		.byte	0
 2020 0b11 00       		.byte	0
 2021 0b12 26       		.uleb128 0x26
 2022 0b13 5E070000 		.4byte	0x75e
 2023 0b17 220B0000 		.4byte	0xb22
 2024 0b1b 27       		.uleb128 0x27
 2025 0b1c 4F040000 		.4byte	0x44f
 2026 0b20 0D       		.byte	0xd
 2027 0b21 00       		.byte	0
 2028 0b22 13       		.uleb128 0x13
 2029 0b23 120B0000 		.4byte	0xb12
 2030 0b27 21       		.uleb128 0x21
 2031 0b28 9F000000 		.4byte	.LASF121
 2032 0b2c 02       		.byte	0x2
 2033 0b2d 95       		.byte	0x95
 2034 0b2e 00000000 		.4byte	.LFB250
 2035 0b32 1E000000 		.4byte	.LFE250-.LFB250
 2036 0b36 01       		.uleb128 0x1
 2037 0b37 9C       		.byte	0x9c
 2038 0b38 A80B0000 		.4byte	0xba8
 2039 0b3c 29       		.uleb128 0x29
 2040 0b3d 637000   		.ascii	"cp\000"
 2041 0b40 02       		.byte	0x2
 2042 0b41 95       		.byte	0x95
 2043 0b42 EE080000 		.4byte	0x8ee
 2044 0b46 E3000000 		.4byte	.LLST9
 2045 0b4a 23       		.uleb128 0x23
 2046 0b4b 31050000 		.4byte	.LASF117
 2047 0b4f A80B0000 		.4byte	0xba8
 2048 0b53 2F       		.uleb128 0x2f
 2049 0b54 0B080000 		.4byte	0x80b
 2050 0b58 04000000 		.4byte	.LBB81
 2051 0b5c 02000000 		.4byte	.LBE81-.LBB81
 2052 0b60 02       		.byte	0x2
ARM GAS  /tmp/ccq4cqsT.s 			page 37


 2053 0b61 9D       		.byte	0x9d
 2054 0b62 6E0B0000 		.4byte	0xb6e
 2055 0b66 25       		.uleb128 0x25
 2056 0b67 1C080000 		.4byte	0x81c
 2057 0b6b 01       		.uleb128 0x1
 2058 0b6c 54       		.byte	0x54
 2059 0b6d 00       		.byte	0
 2060 0b6e 2F       		.uleb128 0x2f
 2061 0b6f 34080000 		.4byte	0x834
 2062 0b73 0A000000 		.4byte	.LBB83
 2063 0b77 06000000 		.4byte	.LBE83-.LBB83
 2064 0b7b 02       		.byte	0x2
 2065 0b7c 9E       		.byte	0x9e
 2066 0b7d 9E0B0000 		.4byte	0xb9e
 2067 0b81 30       		.uleb128 0x30
 2068 0b82 45080000 		.4byte	0x845
 2069 0b86 01010000 		.4byte	.LLST10
 2070 0b8a 33       		.uleb128 0x33
 2071 0b8b 0A000000 		.4byte	.LBB84
 2072 0b8f 06000000 		.4byte	.LBE84-.LBB84
 2073 0b93 32       		.uleb128 0x32
 2074 0b94 51080000 		.4byte	0x851
 2075 0b98 14010000 		.4byte	.LLST11
 2076 0b9c 00       		.byte	0
 2077 0b9d 00       		.byte	0
 2078 0b9e 2E       		.uleb128 0x2e
 2079 0b9f 14000000 		.4byte	.LVL18
 2080 0ba3 61100000 		.4byte	0x1061
 2081 0ba7 00       		.byte	0
 2082 0ba8 13       		.uleb128 0x13
 2083 0ba9 F4080000 		.4byte	0x8f4
 2084 0bad 21       		.uleb128 0x21
 2085 0bae 90040000 		.4byte	.LASF122
 2086 0bb2 02       		.byte	0x2
 2087 0bb3 82       		.byte	0x82
 2088 0bb4 00000000 		.4byte	.LFB249
 2089 0bb8 24000000 		.4byte	.LFE249-.LFB249
 2090 0bbc 01       		.uleb128 0x1
 2091 0bbd 9C       		.byte	0x9c
 2092 0bbe 8F0C0000 		.4byte	0xc8f
 2093 0bc2 29       		.uleb128 0x29
 2094 0bc3 637000   		.ascii	"cp\000"
 2095 0bc6 02       		.byte	0x2
 2096 0bc7 82       		.byte	0x82
 2097 0bc8 EE080000 		.4byte	0x8ee
 2098 0bcc 27010000 		.4byte	.LLST12
 2099 0bd0 2A       		.uleb128 0x2a
 2100 0bd1 09090000 		.4byte	0x909
 2101 0bd5 02000000 		.4byte	.LBB95
 2102 0bd9 48000000 		.4byte	.Ldebug_ranges0+0x48
 2103 0bdd 02       		.byte	0x2
 2104 0bde 84       		.byte	0x84
 2105 0bdf 190C0000 		.4byte	0xc19
 2106 0be3 2B       		.uleb128 0x2b
 2107 0be4 D9070000 		.4byte	0x7d9
 2108 0be8 02000000 		.4byte	.LBB97
 2109 0bec 60000000 		.4byte	.Ldebug_ranges0+0x60
ARM GAS  /tmp/ccq4cqsT.s 			page 38


 2110 0bf0 04       		.byte	0x4
 2111 0bf1 7801     		.2byte	0x178
 2112 0bf3 0F0C0000 		.4byte	0xc0f
 2113 0bf7 2C       		.uleb128 0x2c
 2114 0bf8 B2070000 		.4byte	0x7b2
 2115 0bfc 02000000 		.4byte	.LBB98
 2116 0c00 60000000 		.4byte	.Ldebug_ranges0+0x60
 2117 0c04 0C       		.byte	0xc
 2118 0c05 5A02     		.2byte	0x25a
 2119 0c07 2D       		.uleb128 0x2d
 2120 0c08 BF070000 		.4byte	0x7bf
 2121 0c0c 20       		.byte	0x20
 2122 0c0d 00       		.byte	0
 2123 0c0e 00       		.byte	0
 2124 0c0f 2E       		.uleb128 0x2e
 2125 0c10 0E000000 		.4byte	.LVL21
 2126 0c14 3C100000 		.4byte	0x103c
 2127 0c18 00       		.byte	0
 2128 0c19 2F       		.uleb128 0x2f
 2129 0c1a 12090000 		.4byte	0x912
 2130 0c1e 18000000 		.4byte	.LBB105
 2131 0c22 0C000000 		.4byte	.LBE105-.LBB105
 2132 0c26 02       		.byte	0x2
 2133 0c27 87       		.byte	0x87
 2134 0c28 710C0000 		.4byte	0xc71
 2135 0c2c 33       		.uleb128 0x33
 2136 0c2d 18000000 		.4byte	.LBB106
 2137 0c31 0C000000 		.4byte	.LBE106-.LBB106
 2138 0c35 34       		.uleb128 0x34
 2139 0c36 1F090000 		.4byte	0x91f
 2140 0c3a 35       		.uleb128 0x35
 2141 0c3b E2070000 		.4byte	0x7e2
 2142 0c3f 1C000000 		.4byte	.LBB107
 2143 0c43 08000000 		.4byte	.LBE107-.LBB107
 2144 0c47 04       		.byte	0x4
 2145 0c48 8F01     		.2byte	0x18f
 2146 0c4a 660C0000 		.4byte	0xc66
 2147 0c4e 36       		.uleb128 0x36
 2148 0c4f B2070000 		.4byte	0x7b2
 2149 0c53 1C000000 		.4byte	.LBB108
 2150 0c57 08000000 		.4byte	.LBE108-.LBB108
 2151 0c5b 0C       		.byte	0xc
 2152 0c5c 6D02     		.2byte	0x26d
 2153 0c5e 2D       		.uleb128 0x2d
 2154 0c5f BF070000 		.4byte	0x7bf
 2155 0c63 00       		.byte	0
 2156 0c64 00       		.byte	0
 2157 0c65 00       		.byte	0
 2158 0c66 2E       		.uleb128 0x2e
 2159 0c67 1C000000 		.4byte	.LVL24
 2160 0c6b 43100000 		.4byte	0x1043
 2161 0c6f 00       		.byte	0
 2162 0c70 00       		.byte	0
 2163 0c71 3B       		.uleb128 0x3b
 2164 0c72 14000000 		.4byte	.LVL22
 2165 0c76 270B0000 		.4byte	0xb27
 2166 0c7a 850C0000 		.4byte	0xc85
ARM GAS  /tmp/ccq4cqsT.s 			page 39


 2167 0c7e 38       		.uleb128 0x38
 2168 0c7f 01       		.uleb128 0x1
 2169 0c80 50       		.byte	0x50
 2170 0c81 02       		.uleb128 0x2
 2171 0c82 74       		.byte	0x74
 2172 0c83 00       		.sleb128 0
 2173 0c84 00       		.byte	0
 2174 0c85 2E       		.uleb128 0x2e
 2175 0c86 18000000 		.4byte	.LVL23
 2176 0c8a 77100000 		.4byte	0x1077
 2177 0c8e 00       		.byte	0
 2178 0c8f 3C       		.uleb128 0x3c
 2179 0c90 D9050000 		.4byte	.LASF123
 2180 0c94 02       		.byte	0x2
 2181 0c95 CD       		.byte	0xcd
 2182 0c96 05010000 		.4byte	0x105
 2183 0c9a 00000000 		.4byte	.LFB252
 2184 0c9e 30000000 		.4byte	.LFE252-.LFB252
 2185 0ca2 01       		.uleb128 0x1
 2186 0ca3 9C       		.byte	0x9c
 2187 0ca4 480D0000 		.4byte	0xd48
 2188 0ca8 29       		.uleb128 0x29
 2189 0ca9 637000   		.ascii	"cp\000"
 2190 0cac 02       		.byte	0x2
 2191 0cad CD       		.byte	0xcd
 2192 0cae EE080000 		.4byte	0x8ee
 2193 0cb2 45010000 		.4byte	.LLST13
 2194 0cb6 3D       		.uleb128 0x3d
 2195 0cb7 63747000 		.ascii	"ctp\000"
 2196 0cbb 02       		.byte	0x2
 2197 0cbc CE       		.byte	0xce
 2198 0cbd 3D020000 		.4byte	0x23d
 2199 0cc1 71010000 		.4byte	.LLST14
 2200 0cc5 39       		.uleb128 0x39
 2201 0cc6 6D7000   		.ascii	"mp\000"
 2202 0cc9 02       		.byte	0x2
 2203 0cca CF       		.byte	0xcf
 2204 0ccb 81070000 		.4byte	0x781
 2205 0ccf 3D       		.uleb128 0x3d
 2206 0cd0 6D736700 		.ascii	"msg\000"
 2207 0cd4 02       		.byte	0x2
 2208 0cd5 D0       		.byte	0xd0
 2209 0cd6 05010000 		.4byte	0x105
 2210 0cda 84010000 		.4byte	.LLST15
 2211 0cde 23       		.uleb128 0x23
 2212 0cdf 31050000 		.4byte	.LASF117
 2213 0ce3 480D0000 		.4byte	0xd48
 2214 0ce7 3E       		.uleb128 0x3e
 2215 0ce8 5D080000 		.4byte	0x85d
 2216 0cec 06000000 		.4byte	.LBB110
 2217 0cf0 02000000 		.4byte	.LBE110-.LBB110
 2218 0cf4 02       		.byte	0x2
 2219 0cf5 D7       		.byte	0xd7
 2220 0cf6 3B       		.uleb128 0x3b
 2221 0cf7 10000000 		.4byte	.LVL28
 2222 0cfb 7F100000 		.4byte	0x107f
 2223 0cff 0A0D0000 		.4byte	0xd0a
ARM GAS  /tmp/ccq4cqsT.s 			page 40


 2224 0d03 38       		.uleb128 0x38
 2225 0d04 01       		.uleb128 0x1
 2226 0d05 50       		.byte	0x50
 2227 0d06 02       		.uleb128 0x2
 2228 0d07 75       		.byte	0x75
 2229 0d08 00       		.sleb128 0
 2230 0d09 00       		.byte	0
 2231 0d0a 3B       		.uleb128 0x3b
 2232 0d0b 1A000000 		.4byte	.LVL29
 2233 0d0f 69080000 		.4byte	0x869
 2234 0d13 240D0000 		.4byte	0xd24
 2235 0d17 38       		.uleb128 0x38
 2236 0d18 01       		.uleb128 0x1
 2237 0d19 51       		.byte	0x51
 2238 0d1a 02       		.uleb128 0x2
 2239 0d1b 76       		.byte	0x76
 2240 0d1c 00       		.sleb128 0
 2241 0d1d 38       		.uleb128 0x38
 2242 0d1e 01       		.uleb128 0x1
 2243 0d1f 50       		.byte	0x50
 2244 0d20 02       		.uleb128 0x2
 2245 0d21 74       		.byte	0x74
 2246 0d22 00       		.sleb128 0
 2247 0d23 00       		.byte	0
 2248 0d24 3B       		.uleb128 0x3b
 2249 0d25 20000000 		.4byte	.LVL30
 2250 0d29 90100000 		.4byte	0x1090
 2251 0d2d 370D0000 		.4byte	0xd37
 2252 0d31 38       		.uleb128 0x38
 2253 0d32 01       		.uleb128 0x1
 2254 0d33 50       		.byte	0x50
 2255 0d34 01       		.uleb128 0x1
 2256 0d35 37       		.byte	0x37
 2257 0d36 00       		.byte	0
 2258 0d37 37       		.uleb128 0x37
 2259 0d38 28000000 		.4byte	.LVL32
 2260 0d3c A2100000 		.4byte	0x10a2
 2261 0d40 38       		.uleb128 0x38
 2262 0d41 01       		.uleb128 0x1
 2263 0d42 50       		.byte	0x50
 2264 0d43 02       		.uleb128 0x2
 2265 0d44 75       		.byte	0x75
 2266 0d45 00       		.sleb128 0
 2267 0d46 00       		.byte	0
 2268 0d47 00       		.byte	0
 2269 0d48 13       		.uleb128 0x13
 2270 0d49 2D090000 		.4byte	0x92d
 2271 0d4d 3C       		.uleb128 0x3c
 2272 0d4e 47060000 		.4byte	.LASF124
 2273 0d52 02       		.byte	0x2
 2274 0d53 B3       		.byte	0xb3
 2275 0d54 05010000 		.4byte	0x105
 2276 0d58 00000000 		.4byte	.LFB251
 2277 0d5c 24000000 		.4byte	.LFE251-.LFB251
 2278 0d60 01       		.uleb128 0x1
 2279 0d61 9C       		.byte	0x9c
 2280 0d62 350E0000 		.4byte	0xe35
ARM GAS  /tmp/ccq4cqsT.s 			page 41


 2281 0d66 29       		.uleb128 0x29
 2282 0d67 637000   		.ascii	"cp\000"
 2283 0d6a 02       		.byte	0x2
 2284 0d6b B3       		.byte	0xb3
 2285 0d6c EE080000 		.4byte	0x8ee
 2286 0d70 A2010000 		.4byte	.LLST16
 2287 0d74 3D       		.uleb128 0x3d
 2288 0d75 6D736700 		.ascii	"msg\000"
 2289 0d79 02       		.byte	0x2
 2290 0d7a B4       		.byte	0xb4
 2291 0d7b 05010000 		.4byte	0x105
 2292 0d7f CE010000 		.4byte	.LLST17
 2293 0d83 2A       		.uleb128 0x2a
 2294 0d84 09090000 		.4byte	0x909
 2295 0d88 02000000 		.4byte	.LBB122
 2296 0d8c 78000000 		.4byte	.Ldebug_ranges0+0x78
 2297 0d90 02       		.byte	0x2
 2298 0d91 B6       		.byte	0xb6
 2299 0d92 CC0D0000 		.4byte	0xdcc
 2300 0d96 2B       		.uleb128 0x2b
 2301 0d97 D9070000 		.4byte	0x7d9
 2302 0d9b 02000000 		.4byte	.LBB124
 2303 0d9f 90000000 		.4byte	.Ldebug_ranges0+0x90
 2304 0da3 04       		.byte	0x4
 2305 0da4 7801     		.2byte	0x178
 2306 0da6 C20D0000 		.4byte	0xdc2
 2307 0daa 2C       		.uleb128 0x2c
 2308 0dab B2070000 		.4byte	0x7b2
 2309 0daf 02000000 		.4byte	.LBB125
 2310 0db3 90000000 		.4byte	.Ldebug_ranges0+0x90
 2311 0db7 0C       		.byte	0xc
 2312 0db8 5A02     		.2byte	0x25a
 2313 0dba 2D       		.uleb128 0x2d
 2314 0dbb BF070000 		.4byte	0x7bf
 2315 0dbf 20       		.byte	0x20
 2316 0dc0 00       		.byte	0
 2317 0dc1 00       		.byte	0
 2318 0dc2 2E       		.uleb128 0x2e
 2319 0dc3 0E000000 		.4byte	.LVL35
 2320 0dc7 3C100000 		.4byte	0x103c
 2321 0dcb 00       		.byte	0
 2322 0dcc 2F       		.uleb128 0x2f
 2323 0dcd 12090000 		.4byte	0x912
 2324 0dd1 16000000 		.4byte	.LBB132
 2325 0dd5 0A000000 		.4byte	.LBE132-.LBB132
 2326 0dd9 02       		.byte	0x2
 2327 0dda B8       		.byte	0xb8
 2328 0ddb 240E0000 		.4byte	0xe24
 2329 0ddf 33       		.uleb128 0x33
 2330 0de0 16000000 		.4byte	.LBB133
 2331 0de4 0A000000 		.4byte	.LBE133-.LBB133
 2332 0de8 34       		.uleb128 0x34
 2333 0de9 1F090000 		.4byte	0x91f
 2334 0ded 35       		.uleb128 0x35
 2335 0dee E2070000 		.4byte	0x7e2
 2336 0df2 1A000000 		.4byte	.LBB134
 2337 0df6 06000000 		.4byte	.LBE134-.LBB134
ARM GAS  /tmp/ccq4cqsT.s 			page 42


 2338 0dfa 04       		.byte	0x4
 2339 0dfb 8F01     		.2byte	0x18f
 2340 0dfd 190E0000 		.4byte	0xe19
 2341 0e01 36       		.uleb128 0x36
 2342 0e02 B2070000 		.4byte	0x7b2
 2343 0e06 1A000000 		.4byte	.LBB135
 2344 0e0a 06000000 		.4byte	.LBE135-.LBB135
 2345 0e0e 0C       		.byte	0xc
 2346 0e0f 6D02     		.2byte	0x26d
 2347 0e11 2D       		.uleb128 0x2d
 2348 0e12 BF070000 		.4byte	0x7bf
 2349 0e16 00       		.byte	0
 2350 0e17 00       		.byte	0
 2351 0e18 00       		.byte	0
 2352 0e19 2E       		.uleb128 0x2e
 2353 0e1a 1A000000 		.4byte	.LVL38
 2354 0e1e 43100000 		.4byte	0x1043
 2355 0e22 00       		.byte	0
 2356 0e23 00       		.byte	0
 2357 0e24 37       		.uleb128 0x37
 2358 0e25 14000000 		.4byte	.LVL36
 2359 0e29 8F0C0000 		.4byte	0xc8f
 2360 0e2d 38       		.uleb128 0x38
 2361 0e2e 01       		.uleb128 0x1
 2362 0e2f 50       		.byte	0x50
 2363 0e30 02       		.uleb128 0x2
 2364 0e31 74       		.byte	0x74
 2365 0e32 00       		.sleb128 0
 2366 0e33 00       		.byte	0
 2367 0e34 00       		.byte	0
 2368 0e35 3F       		.uleb128 0x3f
 2369 0e36 4C040000 		.4byte	.LASF125
 2370 0e3a 02       		.byte	0x2
 2371 0e3b 2801     		.2byte	0x128
 2372 0e3d 05010000 		.4byte	0x105
 2373 0e41 00000000 		.4byte	.LFB254
 2374 0e45 38000000 		.4byte	.LFE254-.LFB254
 2375 0e49 01       		.uleb128 0x1
 2376 0e4a 9C       		.byte	0x9c
 2377 0e4b 080F0000 		.4byte	0xf08
 2378 0e4f 1F       		.uleb128 0x1f
 2379 0e50 637000   		.ascii	"cp\000"
 2380 0e53 02       		.byte	0x2
 2381 0e54 2801     		.2byte	0x128
 2382 0e56 EE080000 		.4byte	0x8ee
 2383 0e5a EC010000 		.4byte	.LLST18
 2384 0e5e 40       		.uleb128 0x40
 2385 0e5f 86040000 		.4byte	.LASF126
 2386 0e63 02       		.byte	0x2
 2387 0e64 2801     		.2byte	0x128
 2388 0e66 31010000 		.4byte	0x131
 2389 0e6a 18020000 		.4byte	.LLST19
 2390 0e6e 1B       		.uleb128 0x1b
 2391 0e6f 6D7000   		.ascii	"mp\000"
 2392 0e72 02       		.byte	0x2
 2393 0e73 2901     		.2byte	0x129
 2394 0e75 81070000 		.4byte	0x781
ARM GAS  /tmp/ccq4cqsT.s 			page 43


 2395 0e79 20       		.uleb128 0x20
 2396 0e7a 6D736700 		.ascii	"msg\000"
 2397 0e7e 02       		.byte	0x2
 2398 0e7f 2A01     		.2byte	0x12a
 2399 0e81 05010000 		.4byte	0x105
 2400 0e85 44020000 		.4byte	.LLST20
 2401 0e89 23       		.uleb128 0x23
 2402 0e8a 31050000 		.4byte	.LASF117
 2403 0e8e 180F0000 		.4byte	0xf18
 2404 0e92 35       		.uleb128 0x35
 2405 0e93 5D080000 		.4byte	0x85d
 2406 0e97 02000000 		.4byte	.LBB137
 2407 0e9b 06000000 		.4byte	.LBE137-.LBB137
 2408 0e9f 02       		.byte	0x2
 2409 0ea0 3101     		.2byte	0x131
 2410 0ea2 B60E0000 		.4byte	0xeb6
 2411 0ea6 3E       		.uleb128 0x3e
 2412 0ea7 CC070000 		.4byte	0x7cc
 2413 0eab 02000000 		.4byte	.LBB139
 2414 0eaf 02000000 		.4byte	.LBE139-.LBB139
 2415 0eb3 05       		.byte	0x5
 2416 0eb4 92       		.byte	0x92
 2417 0eb5 00       		.byte	0
 2418 0eb6 3B       		.uleb128 0x3b
 2419 0eb7 12000000 		.4byte	.LVL41
 2420 0ebb 7F100000 		.4byte	0x107f
 2421 0ebf CA0E0000 		.4byte	0xeca
 2422 0ec3 38       		.uleb128 0x38
 2423 0ec4 01       		.uleb128 0x1
 2424 0ec5 50       		.byte	0x50
 2425 0ec6 02       		.uleb128 0x2
 2426 0ec7 75       		.byte	0x75
 2427 0ec8 00       		.sleb128 0
 2428 0ec9 00       		.byte	0
 2429 0eca 3B       		.uleb128 0x3b
 2430 0ecb 1C000000 		.4byte	.LVL42
 2431 0ecf 69080000 		.4byte	0x869
 2432 0ed3 DE0E0000 		.4byte	0xede
 2433 0ed7 38       		.uleb128 0x38
 2434 0ed8 01       		.uleb128 0x1
 2435 0ed9 51       		.byte	0x51
 2436 0eda 02       		.uleb128 0x2
 2437 0edb 74       		.byte	0x74
 2438 0edc 00       		.sleb128 0
 2439 0edd 00       		.byte	0
 2440 0ede 3B       		.uleb128 0x3b
 2441 0edf 24000000 		.4byte	.LVL43
 2442 0ee3 B3100000 		.4byte	0x10b3
 2443 0ee7 F70E0000 		.4byte	0xef7
 2444 0eeb 38       		.uleb128 0x38
 2445 0eec 01       		.uleb128 0x1
 2446 0eed 51       		.byte	0x51
 2447 0eee 02       		.uleb128 0x2
 2448 0eef 77       		.byte	0x77
 2449 0ef0 00       		.sleb128 0
 2450 0ef1 38       		.uleb128 0x38
 2451 0ef2 01       		.uleb128 0x1
ARM GAS  /tmp/ccq4cqsT.s 			page 44


 2452 0ef3 50       		.byte	0x50
 2453 0ef4 01       		.uleb128 0x1
 2454 0ef5 37       		.byte	0x37
 2455 0ef6 00       		.byte	0
 2456 0ef7 37       		.uleb128 0x37
 2457 0ef8 30000000 		.4byte	.LVL46
 2458 0efc A2100000 		.4byte	0x10a2
 2459 0f00 38       		.uleb128 0x38
 2460 0f01 01       		.uleb128 0x1
 2461 0f02 50       		.byte	0x50
 2462 0f03 02       		.uleb128 0x2
 2463 0f04 75       		.byte	0x75
 2464 0f05 00       		.sleb128 0
 2465 0f06 00       		.byte	0
 2466 0f07 00       		.byte	0
 2467 0f08 26       		.uleb128 0x26
 2468 0f09 5E070000 		.4byte	0x75e
 2469 0f0d 180F0000 		.4byte	0xf18
 2470 0f11 27       		.uleb128 0x27
 2471 0f12 4F040000 		.4byte	0x44f
 2472 0f16 12       		.byte	0x12
 2473 0f17 00       		.byte	0
 2474 0f18 13       		.uleb128 0x13
 2475 0f19 080F0000 		.4byte	0xf08
 2476 0f1d 3F       		.uleb128 0x3f
 2477 0f1e F1060000 		.4byte	.LASF127
 2478 0f22 02       		.byte	0x2
 2479 0f23 0201     		.2byte	0x102
 2480 0f25 05010000 		.4byte	0x105
 2481 0f29 00000000 		.4byte	.LFB253
 2482 0f2d 28000000 		.4byte	.LFE253-.LFB253
 2483 0f31 01       		.uleb128 0x1
 2484 0f32 9C       		.byte	0x9c
 2485 0f33 20100000 		.4byte	0x1020
 2486 0f37 1F       		.uleb128 0x1f
 2487 0f38 637000   		.ascii	"cp\000"
 2488 0f3b 02       		.byte	0x2
 2489 0f3c 0201     		.2byte	0x102
 2490 0f3e EE080000 		.4byte	0x8ee
 2491 0f42 6D020000 		.4byte	.LLST21
 2492 0f46 40       		.uleb128 0x40
 2493 0f47 86040000 		.4byte	.LASF126
 2494 0f4b 02       		.byte	0x2
 2495 0f4c 0201     		.2byte	0x102
 2496 0f4e 31010000 		.4byte	0x131
 2497 0f52 8B020000 		.4byte	.LLST22
 2498 0f56 20       		.uleb128 0x20
 2499 0f57 6D736700 		.ascii	"msg\000"
 2500 0f5b 02       		.byte	0x2
 2501 0f5c 0301     		.2byte	0x103
 2502 0f5e 05010000 		.4byte	0x105
 2503 0f62 B7020000 		.4byte	.LLST23
 2504 0f66 35       		.uleb128 0x35
 2505 0f67 09090000 		.4byte	0x909
 2506 0f6b 06000000 		.4byte	.LBB151
 2507 0f6f 0A000000 		.4byte	.LBE151-.LBB151
 2508 0f73 02       		.byte	0x2
ARM GAS  /tmp/ccq4cqsT.s 			page 45


 2509 0f74 0501     		.2byte	0x105
 2510 0f76 B00F0000 		.4byte	0xfb0
 2511 0f7a 35       		.uleb128 0x35
 2512 0f7b D9070000 		.4byte	0x7d9
 2513 0f7f 06000000 		.4byte	.LBB153
 2514 0f83 06000000 		.4byte	.LBE153-.LBB153
 2515 0f87 04       		.byte	0x4
 2516 0f88 7801     		.2byte	0x178
 2517 0f8a A60F0000 		.4byte	0xfa6
 2518 0f8e 36       		.uleb128 0x36
 2519 0f8f B2070000 		.4byte	0x7b2
 2520 0f93 06000000 		.4byte	.LBB154
 2521 0f97 06000000 		.4byte	.LBE154-.LBB154
 2522 0f9b 0C       		.byte	0xc
 2523 0f9c 5A02     		.2byte	0x25a
 2524 0f9e 2D       		.uleb128 0x2d
 2525 0f9f BF070000 		.4byte	0x7bf
 2526 0fa3 20       		.byte	0x20
 2527 0fa4 00       		.byte	0
 2528 0fa5 00       		.byte	0
 2529 0fa6 2E       		.uleb128 0x2e
 2530 0fa7 10000000 		.4byte	.LVL49
 2531 0fab 3C100000 		.4byte	0x103c
 2532 0faf 00       		.byte	0
 2533 0fb0 35       		.uleb128 0x35
 2534 0fb1 12090000 		.4byte	0x912
 2535 0fb5 1A000000 		.4byte	.LBB156
 2536 0fb9 0A000000 		.4byte	.LBE156-.LBB156
 2537 0fbd 02       		.byte	0x2
 2538 0fbe 0701     		.2byte	0x107
 2539 0fc0 09100000 		.4byte	0x1009
 2540 0fc4 33       		.uleb128 0x33
 2541 0fc5 1A000000 		.4byte	.LBB157
 2542 0fc9 0A000000 		.4byte	.LBE157-.LBB157
 2543 0fcd 34       		.uleb128 0x34
 2544 0fce 1F090000 		.4byte	0x91f
 2545 0fd2 35       		.uleb128 0x35
 2546 0fd3 E2070000 		.4byte	0x7e2
 2547 0fd7 1E000000 		.4byte	.LBB158
 2548 0fdb 06000000 		.4byte	.LBE158-.LBB158
 2549 0fdf 04       		.byte	0x4
 2550 0fe0 8F01     		.2byte	0x18f
 2551 0fe2 FE0F0000 		.4byte	0xffe
 2552 0fe6 36       		.uleb128 0x36
 2553 0fe7 B2070000 		.4byte	0x7b2
 2554 0feb 1E000000 		.4byte	.LBB159
 2555 0fef 06000000 		.4byte	.LBE159-.LBB159
 2556 0ff3 0C       		.byte	0xc
 2557 0ff4 6D02     		.2byte	0x26d
 2558 0ff6 2D       		.uleb128 0x2d
 2559 0ff7 BF070000 		.4byte	0x7bf
 2560 0ffb 00       		.byte	0
 2561 0ffc 00       		.byte	0
 2562 0ffd 00       		.byte	0
 2563 0ffe 2E       		.uleb128 0x2e
 2564 0fff 1E000000 		.4byte	.LVL52
 2565 1003 43100000 		.4byte	0x1043
ARM GAS  /tmp/ccq4cqsT.s 			page 46


 2566 1007 00       		.byte	0
 2567 1008 00       		.byte	0
 2568 1009 37       		.uleb128 0x37
 2569 100a 18000000 		.4byte	.LVL50
 2570 100e 350E0000 		.4byte	0xe35
 2571 1012 38       		.uleb128 0x38
 2572 1013 01       		.uleb128 0x1
 2573 1014 51       		.byte	0x51
 2574 1015 02       		.uleb128 0x2
 2575 1016 74       		.byte	0x74
 2576 1017 00       		.sleb128 0
 2577 1018 38       		.uleb128 0x38
 2578 1019 01       		.uleb128 0x1
 2579 101a 50       		.byte	0x50
 2580 101b 02       		.uleb128 0x2
 2581 101c 75       		.byte	0x75
 2582 101d 00       		.sleb128 0
 2583 101e 00       		.byte	0
 2584 101f 00       		.byte	0
 2585 1020 41       		.uleb128 0x41
 2586 1021 F9000000 		.4byte	.LASF128
 2587 1025 11       		.byte	0x11
 2588 1026 4407     		.2byte	0x744
 2589 1028 2C100000 		.4byte	0x102c
 2590 102c 14       		.uleb128 0x14
 2591 102d A2000000 		.4byte	0xa2
 2592 1031 42       		.uleb128 0x42
 2593 1032 636800   		.ascii	"ch\000"
 2594 1035 01       		.byte	0x1
 2595 1036 D201     		.2byte	0x1d2
 2596 1038 E9030000 		.4byte	0x3e9
 2597 103c 43       		.uleb128 0x43
 2598 103d CC060000 		.4byte	.LASF129
 2599 1041 0E       		.byte	0xe
 2600 1042 4F       		.byte	0x4f
 2601 1043 43       		.uleb128 0x43
 2602 1044 E9030000 		.4byte	.LASF130
 2603 1048 0E       		.byte	0xe
 2604 1049 50       		.byte	0x50
 2605 104a 44       		.uleb128 0x44
 2606 104b 52060000 		.4byte	.LASF132
 2607 104f 01       		.byte	0x1
 2608 1050 E001     		.2byte	0x1e0
 2609 1052 61100000 		.4byte	0x1061
 2610 1056 0D       		.uleb128 0xd
 2611 1057 3D020000 		.4byte	0x23d
 2612 105b 0D       		.uleb128 0xd
 2613 105c 05010000 		.4byte	0x105
 2614 1060 00       		.byte	0
 2615 1061 45       		.uleb128 0x45
 2616 1062 93050000 		.4byte	.LASF141
 2617 1066 01       		.byte	0x1
 2618 1067 DC01     		.2byte	0x1dc
 2619 1069 3D020000 		.4byte	0x23d
 2620 106d 77100000 		.4byte	0x1077
 2621 1071 0D       		.uleb128 0xd
 2622 1072 3D020000 		.4byte	0x23d
ARM GAS  /tmp/ccq4cqsT.s 			page 47


 2623 1076 00       		.byte	0
 2624 1077 46       		.uleb128 0x46
 2625 1078 C0010000 		.4byte	.LASF131
 2626 107c 01       		.byte	0x1
 2627 107d E101     		.2byte	0x1e1
 2628 107f 47       		.uleb128 0x47
 2629 1080 1E020000 		.4byte	.LASF133
 2630 1084 05       		.byte	0x5
 2631 1085 6C       		.byte	0x6c
 2632 1086 90100000 		.4byte	0x1090
 2633 108a 0D       		.uleb128 0xd
 2634 108b 81070000 		.4byte	0x781
 2635 108f 00       		.byte	0
 2636 1090 44       		.uleb128 0x44
 2637 1091 62050000 		.4byte	.LASF134
 2638 1095 01       		.byte	0x1
 2639 1096 DE01     		.2byte	0x1de
 2640 1098 A2100000 		.4byte	0x10a2
 2641 109c 0D       		.uleb128 0xd
 2642 109d E4000000 		.4byte	0xe4
 2643 10a1 00       		.byte	0
 2644 10a2 47       		.uleb128 0x47
 2645 10a3 33070000 		.4byte	.LASF135
 2646 10a7 05       		.byte	0x5
 2647 10a8 68       		.byte	0x68
 2648 10a9 B3100000 		.4byte	0x10b3
 2649 10ad 0D       		.uleb128 0xd
 2650 10ae 81070000 		.4byte	0x781
 2651 10b2 00       		.byte	0
 2652 10b3 48       		.uleb128 0x48
 2653 10b4 12070000 		.4byte	.LASF136
 2654 10b8 01       		.byte	0x1
 2655 10b9 DF01     		.2byte	0x1df
 2656 10bb 05010000 		.4byte	0x105
 2657 10bf 0D       		.uleb128 0xd
 2658 10c0 E4000000 		.4byte	0xe4
 2659 10c4 0D       		.uleb128 0xd
 2660 10c5 31010000 		.4byte	0x131
 2661 10c9 00       		.byte	0
 2662 10ca 00       		.byte	0
 2663              		.section	.debug_abbrev,"",%progbits
 2664              	.Ldebug_abbrev0:
 2665 0000 01       		.uleb128 0x1
 2666 0001 11       		.uleb128 0x11
 2667 0002 01       		.byte	0x1
 2668 0003 25       		.uleb128 0x25
 2669 0004 0E       		.uleb128 0xe
 2670 0005 13       		.uleb128 0x13
 2671 0006 0B       		.uleb128 0xb
 2672 0007 03       		.uleb128 0x3
 2673 0008 0E       		.uleb128 0xe
 2674 0009 1B       		.uleb128 0x1b
 2675 000a 0E       		.uleb128 0xe
 2676 000b 55       		.uleb128 0x55
 2677 000c 17       		.uleb128 0x17
 2678 000d 11       		.uleb128 0x11
 2679 000e 01       		.uleb128 0x1
ARM GAS  /tmp/ccq4cqsT.s 			page 48


 2680 000f 10       		.uleb128 0x10
 2681 0010 17       		.uleb128 0x17
 2682 0011 00       		.byte	0
 2683 0012 00       		.byte	0
 2684 0013 02       		.uleb128 0x2
 2685 0014 24       		.uleb128 0x24
 2686 0015 00       		.byte	0
 2687 0016 0B       		.uleb128 0xb
 2688 0017 0B       		.uleb128 0xb
 2689 0018 3E       		.uleb128 0x3e
 2690 0019 0B       		.uleb128 0xb
 2691 001a 03       		.uleb128 0x3
 2692 001b 08       		.uleb128 0x8
 2693 001c 00       		.byte	0
 2694 001d 00       		.byte	0
 2695 001e 03       		.uleb128 0x3
 2696 001f 24       		.uleb128 0x24
 2697 0020 00       		.byte	0
 2698 0021 0B       		.uleb128 0xb
 2699 0022 0B       		.uleb128 0xb
 2700 0023 3E       		.uleb128 0x3e
 2701 0024 0B       		.uleb128 0xb
 2702 0025 03       		.uleb128 0x3
 2703 0026 0E       		.uleb128 0xe
 2704 0027 00       		.byte	0
 2705 0028 00       		.byte	0
 2706 0029 04       		.uleb128 0x4
 2707 002a 16       		.uleb128 0x16
 2708 002b 00       		.byte	0
 2709 002c 03       		.uleb128 0x3
 2710 002d 0E       		.uleb128 0xe
 2711 002e 3A       		.uleb128 0x3a
 2712 002f 0B       		.uleb128 0xb
 2713 0030 3B       		.uleb128 0x3b
 2714 0031 0B       		.uleb128 0xb
 2715 0032 49       		.uleb128 0x49
 2716 0033 13       		.uleb128 0x13
 2717 0034 00       		.byte	0
 2718 0035 00       		.byte	0
 2719 0036 05       		.uleb128 0x5
 2720 0037 13       		.uleb128 0x13
 2721 0038 01       		.byte	0x1
 2722 0039 03       		.uleb128 0x3
 2723 003a 0E       		.uleb128 0xe
 2724 003b 0B       		.uleb128 0xb
 2725 003c 0B       		.uleb128 0xb
 2726 003d 3A       		.uleb128 0x3a
 2727 003e 0B       		.uleb128 0xb
 2728 003f 3B       		.uleb128 0x3b
 2729 0040 0B       		.uleb128 0xb
 2730 0041 01       		.uleb128 0x1
 2731 0042 13       		.uleb128 0x13
 2732 0043 00       		.byte	0
 2733 0044 00       		.byte	0
 2734 0045 06       		.uleb128 0x6
 2735 0046 0D       		.uleb128 0xd
 2736 0047 00       		.byte	0
ARM GAS  /tmp/ccq4cqsT.s 			page 49


 2737 0048 03       		.uleb128 0x3
 2738 0049 0E       		.uleb128 0xe
 2739 004a 3A       		.uleb128 0x3a
 2740 004b 0B       		.uleb128 0xb
 2741 004c 3B       		.uleb128 0x3b
 2742 004d 0B       		.uleb128 0xb
 2743 004e 49       		.uleb128 0x49
 2744 004f 13       		.uleb128 0x13
 2745 0050 38       		.uleb128 0x38
 2746 0051 0B       		.uleb128 0xb
 2747 0052 00       		.byte	0
 2748 0053 00       		.byte	0
 2749 0054 07       		.uleb128 0x7
 2750 0055 0D       		.uleb128 0xd
 2751 0056 00       		.byte	0
 2752 0057 03       		.uleb128 0x3
 2753 0058 08       		.uleb128 0x8
 2754 0059 3A       		.uleb128 0x3a
 2755 005a 0B       		.uleb128 0xb
 2756 005b 3B       		.uleb128 0x3b
 2757 005c 0B       		.uleb128 0xb
 2758 005d 49       		.uleb128 0x49
 2759 005e 13       		.uleb128 0x13
 2760 005f 38       		.uleb128 0x38
 2761 0060 0B       		.uleb128 0xb
 2762 0061 00       		.byte	0
 2763 0062 00       		.byte	0
 2764 0063 08       		.uleb128 0x8
 2765 0064 0D       		.uleb128 0xd
 2766 0065 00       		.byte	0
 2767 0066 03       		.uleb128 0x3
 2768 0067 08       		.uleb128 0x8
 2769 0068 3A       		.uleb128 0x3a
 2770 0069 0B       		.uleb128 0xb
 2771 006a 3B       		.uleb128 0x3b
 2772 006b 05       		.uleb128 0x5
 2773 006c 49       		.uleb128 0x49
 2774 006d 13       		.uleb128 0x13
 2775 006e 38       		.uleb128 0x38
 2776 006f 0B       		.uleb128 0xb
 2777 0070 00       		.byte	0
 2778 0071 00       		.byte	0
 2779 0072 09       		.uleb128 0x9
 2780 0073 0D       		.uleb128 0xd
 2781 0074 00       		.byte	0
 2782 0075 03       		.uleb128 0x3
 2783 0076 0E       		.uleb128 0xe
 2784 0077 3A       		.uleb128 0x3a
 2785 0078 0B       		.uleb128 0xb
 2786 0079 3B       		.uleb128 0x3b
 2787 007a 05       		.uleb128 0x5
 2788 007b 49       		.uleb128 0x49
 2789 007c 13       		.uleb128 0x13
 2790 007d 38       		.uleb128 0x38
 2791 007e 0B       		.uleb128 0xb
 2792 007f 00       		.byte	0
 2793 0080 00       		.byte	0
ARM GAS  /tmp/ccq4cqsT.s 			page 50


 2794 0081 0A       		.uleb128 0xa
 2795 0082 0F       		.uleb128 0xf
 2796 0083 00       		.byte	0
 2797 0084 0B       		.uleb128 0xb
 2798 0085 0B       		.uleb128 0xb
 2799 0086 49       		.uleb128 0x49
 2800 0087 13       		.uleb128 0x13
 2801 0088 00       		.byte	0
 2802 0089 00       		.byte	0
 2803 008a 0B       		.uleb128 0xb
 2804 008b 13       		.uleb128 0x13
 2805 008c 01       		.byte	0x1
 2806 008d 03       		.uleb128 0x3
 2807 008e 0E       		.uleb128 0xe
 2808 008f 0B       		.uleb128 0xb
 2809 0090 0B       		.uleb128 0xb
 2810 0091 3A       		.uleb128 0x3a
 2811 0092 0B       		.uleb128 0xb
 2812 0093 3B       		.uleb128 0x3b
 2813 0094 05       		.uleb128 0x5
 2814 0095 01       		.uleb128 0x1
 2815 0096 13       		.uleb128 0x13
 2816 0097 00       		.byte	0
 2817 0098 00       		.byte	0
 2818 0099 0C       		.uleb128 0xc
 2819 009a 15       		.uleb128 0x15
 2820 009b 01       		.byte	0x1
 2821 009c 27       		.uleb128 0x27
 2822 009d 19       		.uleb128 0x19
 2823 009e 01       		.uleb128 0x1
 2824 009f 13       		.uleb128 0x13
 2825 00a0 00       		.byte	0
 2826 00a1 00       		.byte	0
 2827 00a2 0D       		.uleb128 0xd
 2828 00a3 05       		.uleb128 0x5
 2829 00a4 00       		.byte	0
 2830 00a5 49       		.uleb128 0x49
 2831 00a6 13       		.uleb128 0x13
 2832 00a7 00       		.byte	0
 2833 00a8 00       		.byte	0
 2834 00a9 0E       		.uleb128 0xe
 2835 00aa 0F       		.uleb128 0xf
 2836 00ab 00       		.byte	0
 2837 00ac 0B       		.uleb128 0xb
 2838 00ad 0B       		.uleb128 0xb
 2839 00ae 00       		.byte	0
 2840 00af 00       		.byte	0
 2841 00b0 0F       		.uleb128 0xf
 2842 00b1 13       		.uleb128 0x13
 2843 00b2 01       		.byte	0x1
 2844 00b3 0B       		.uleb128 0xb
 2845 00b4 0B       		.uleb128 0xb
 2846 00b5 3A       		.uleb128 0x3a
 2847 00b6 0B       		.uleb128 0xb
 2848 00b7 3B       		.uleb128 0x3b
 2849 00b8 0B       		.uleb128 0xb
 2850 00b9 01       		.uleb128 0x1
ARM GAS  /tmp/ccq4cqsT.s 			page 51


 2851 00ba 13       		.uleb128 0x13
 2852 00bb 00       		.byte	0
 2853 00bc 00       		.byte	0
 2854 00bd 10       		.uleb128 0x10
 2855 00be 17       		.uleb128 0x17
 2856 00bf 01       		.byte	0x1
 2857 00c0 0B       		.uleb128 0xb
 2858 00c1 0B       		.uleb128 0xb
 2859 00c2 3A       		.uleb128 0x3a
 2860 00c3 0B       		.uleb128 0xb
 2861 00c4 3B       		.uleb128 0x3b
 2862 00c5 0B       		.uleb128 0xb
 2863 00c6 01       		.uleb128 0x1
 2864 00c7 13       		.uleb128 0x13
 2865 00c8 00       		.byte	0
 2866 00c9 00       		.byte	0
 2867 00ca 11       		.uleb128 0x11
 2868 00cb 0D       		.uleb128 0xd
 2869 00cc 00       		.byte	0
 2870 00cd 03       		.uleb128 0x3
 2871 00ce 0E       		.uleb128 0xe
 2872 00cf 3A       		.uleb128 0x3a
 2873 00d0 0B       		.uleb128 0xb
 2874 00d1 3B       		.uleb128 0x3b
 2875 00d2 0B       		.uleb128 0xb
 2876 00d3 49       		.uleb128 0x49
 2877 00d4 13       		.uleb128 0x13
 2878 00d5 00       		.byte	0
 2879 00d6 00       		.byte	0
 2880 00d7 12       		.uleb128 0x12
 2881 00d8 0D       		.uleb128 0xd
 2882 00d9 00       		.byte	0
 2883 00da 03       		.uleb128 0x3
 2884 00db 0E       		.uleb128 0xe
 2885 00dc 3A       		.uleb128 0x3a
 2886 00dd 0B       		.uleb128 0xb
 2887 00de 3B       		.uleb128 0x3b
 2888 00df 05       		.uleb128 0x5
 2889 00e0 49       		.uleb128 0x49
 2890 00e1 13       		.uleb128 0x13
 2891 00e2 00       		.byte	0
 2892 00e3 00       		.byte	0
 2893 00e4 13       		.uleb128 0x13
 2894 00e5 26       		.uleb128 0x26
 2895 00e6 00       		.byte	0
 2896 00e7 49       		.uleb128 0x49
 2897 00e8 13       		.uleb128 0x13
 2898 00e9 00       		.byte	0
 2899 00ea 00       		.byte	0
 2900 00eb 14       		.uleb128 0x14
 2901 00ec 35       		.uleb128 0x35
 2902 00ed 00       		.byte	0
 2903 00ee 49       		.uleb128 0x49
 2904 00ef 13       		.uleb128 0x13
 2905 00f0 00       		.byte	0
 2906 00f1 00       		.byte	0
 2907 00f2 15       		.uleb128 0x15
ARM GAS  /tmp/ccq4cqsT.s 			page 52


 2908 00f3 2E       		.uleb128 0x2e
 2909 00f4 01       		.byte	0x1
 2910 00f5 03       		.uleb128 0x3
 2911 00f6 0E       		.uleb128 0xe
 2912 00f7 3A       		.uleb128 0x3a
 2913 00f8 0B       		.uleb128 0xb
 2914 00f9 3B       		.uleb128 0x3b
 2915 00fa 05       		.uleb128 0x5
 2916 00fb 27       		.uleb128 0x27
 2917 00fc 19       		.uleb128 0x19
 2918 00fd 20       		.uleb128 0x20
 2919 00fe 0B       		.uleb128 0xb
 2920 00ff 01       		.uleb128 0x1
 2921 0100 13       		.uleb128 0x13
 2922 0101 00       		.byte	0
 2923 0102 00       		.byte	0
 2924 0103 16       		.uleb128 0x16
 2925 0104 05       		.uleb128 0x5
 2926 0105 00       		.byte	0
 2927 0106 03       		.uleb128 0x3
 2928 0107 0E       		.uleb128 0xe
 2929 0108 3A       		.uleb128 0x3a
 2930 0109 0B       		.uleb128 0xb
 2931 010a 3B       		.uleb128 0x3b
 2932 010b 05       		.uleb128 0x5
 2933 010c 49       		.uleb128 0x49
 2934 010d 13       		.uleb128 0x13
 2935 010e 00       		.byte	0
 2936 010f 00       		.byte	0
 2937 0110 17       		.uleb128 0x17
 2938 0111 2E       		.uleb128 0x2e
 2939 0112 00       		.byte	0
 2940 0113 03       		.uleb128 0x3
 2941 0114 0E       		.uleb128 0xe
 2942 0115 3A       		.uleb128 0x3a
 2943 0116 0B       		.uleb128 0xb
 2944 0117 3B       		.uleb128 0x3b
 2945 0118 05       		.uleb128 0x5
 2946 0119 27       		.uleb128 0x27
 2947 011a 19       		.uleb128 0x19
 2948 011b 49       		.uleb128 0x49
 2949 011c 13       		.uleb128 0x13
 2950 011d 20       		.uleb128 0x20
 2951 011e 0B       		.uleb128 0xb
 2952 011f 00       		.byte	0
 2953 0120 00       		.byte	0
 2954 0121 18       		.uleb128 0x18
 2955 0122 2E       		.uleb128 0x2e
 2956 0123 00       		.byte	0
 2957 0124 03       		.uleb128 0x3
 2958 0125 0E       		.uleb128 0xe
 2959 0126 3A       		.uleb128 0x3a
 2960 0127 0B       		.uleb128 0xb
 2961 0128 3B       		.uleb128 0x3b
 2962 0129 05       		.uleb128 0x5
 2963 012a 27       		.uleb128 0x27
 2964 012b 19       		.uleb128 0x19
ARM GAS  /tmp/ccq4cqsT.s 			page 53


 2965 012c 20       		.uleb128 0x20
 2966 012d 0B       		.uleb128 0xb
 2967 012e 00       		.byte	0
 2968 012f 00       		.byte	0
 2969 0130 19       		.uleb128 0x19
 2970 0131 05       		.uleb128 0x5
 2971 0132 00       		.byte	0
 2972 0133 03       		.uleb128 0x3
 2973 0134 08       		.uleb128 0x8
 2974 0135 3A       		.uleb128 0x3a
 2975 0136 0B       		.uleb128 0xb
 2976 0137 3B       		.uleb128 0x3b
 2977 0138 05       		.uleb128 0x5
 2978 0139 49       		.uleb128 0x49
 2979 013a 13       		.uleb128 0x13
 2980 013b 00       		.byte	0
 2981 013c 00       		.byte	0
 2982 013d 1A       		.uleb128 0x1a
 2983 013e 2E       		.uleb128 0x2e
 2984 013f 01       		.byte	0x1
 2985 0140 03       		.uleb128 0x3
 2986 0141 0E       		.uleb128 0xe
 2987 0142 3A       		.uleb128 0x3a
 2988 0143 0B       		.uleb128 0xb
 2989 0144 3B       		.uleb128 0x3b
 2990 0145 05       		.uleb128 0x5
 2991 0146 27       		.uleb128 0x27
 2992 0147 19       		.uleb128 0x19
 2993 0148 49       		.uleb128 0x49
 2994 0149 13       		.uleb128 0x13
 2995 014a 20       		.uleb128 0x20
 2996 014b 0B       		.uleb128 0xb
 2997 014c 01       		.uleb128 0x1
 2998 014d 13       		.uleb128 0x13
 2999 014e 00       		.byte	0
 3000 014f 00       		.byte	0
 3001 0150 1B       		.uleb128 0x1b
 3002 0151 34       		.uleb128 0x34
 3003 0152 00       		.byte	0
 3004 0153 03       		.uleb128 0x3
 3005 0154 08       		.uleb128 0x8
 3006 0155 3A       		.uleb128 0x3a
 3007 0156 0B       		.uleb128 0xb
 3008 0157 3B       		.uleb128 0x3b
 3009 0158 05       		.uleb128 0x5
 3010 0159 49       		.uleb128 0x49
 3011 015a 13       		.uleb128 0x13
 3012 015b 00       		.byte	0
 3013 015c 00       		.byte	0
 3014 015d 1C       		.uleb128 0x1c
 3015 015e 2E       		.uleb128 0x2e
 3016 015f 00       		.byte	0
 3017 0160 03       		.uleb128 0x3
 3018 0161 0E       		.uleb128 0xe
 3019 0162 3A       		.uleb128 0x3a
 3020 0163 0B       		.uleb128 0xb
 3021 0164 3B       		.uleb128 0x3b
ARM GAS  /tmp/ccq4cqsT.s 			page 54


 3022 0165 0B       		.uleb128 0xb
 3023 0166 27       		.uleb128 0x27
 3024 0167 19       		.uleb128 0x19
 3025 0168 49       		.uleb128 0x49
 3026 0169 13       		.uleb128 0x13
 3027 016a 20       		.uleb128 0x20
 3028 016b 0B       		.uleb128 0xb
 3029 016c 00       		.byte	0
 3030 016d 00       		.byte	0
 3031 016e 1D       		.uleb128 0x1d
 3032 016f 2E       		.uleb128 0x2e
 3033 0170 01       		.byte	0x1
 3034 0171 03       		.uleb128 0x3
 3035 0172 0E       		.uleb128 0xe
 3036 0173 3A       		.uleb128 0x3a
 3037 0174 0B       		.uleb128 0xb
 3038 0175 3B       		.uleb128 0x3b
 3039 0176 05       		.uleb128 0x5
 3040 0177 27       		.uleb128 0x27
 3041 0178 19       		.uleb128 0x19
 3042 0179 11       		.uleb128 0x11
 3043 017a 01       		.uleb128 0x1
 3044 017b 12       		.uleb128 0x12
 3045 017c 06       		.uleb128 0x6
 3046 017d 40       		.uleb128 0x40
 3047 017e 18       		.uleb128 0x18
 3048 017f 9742     		.uleb128 0x2117
 3049 0181 19       		.uleb128 0x19
 3050 0182 01       		.uleb128 0x1
 3051 0183 13       		.uleb128 0x13
 3052 0184 00       		.byte	0
 3053 0185 00       		.byte	0
 3054 0186 1E       		.uleb128 0x1e
 3055 0187 05       		.uleb128 0x5
 3056 0188 00       		.byte	0
 3057 0189 03       		.uleb128 0x3
 3058 018a 08       		.uleb128 0x8
 3059 018b 3A       		.uleb128 0x3a
 3060 018c 0B       		.uleb128 0xb
 3061 018d 3B       		.uleb128 0x3b
 3062 018e 05       		.uleb128 0x5
 3063 018f 49       		.uleb128 0x49
 3064 0190 13       		.uleb128 0x13
 3065 0191 02       		.uleb128 0x2
 3066 0192 18       		.uleb128 0x18
 3067 0193 00       		.byte	0
 3068 0194 00       		.byte	0
 3069 0195 1F       		.uleb128 0x1f
 3070 0196 05       		.uleb128 0x5
 3071 0197 00       		.byte	0
 3072 0198 03       		.uleb128 0x3
 3073 0199 08       		.uleb128 0x8
 3074 019a 3A       		.uleb128 0x3a
 3075 019b 0B       		.uleb128 0xb
 3076 019c 3B       		.uleb128 0x3b
 3077 019d 05       		.uleb128 0x5
 3078 019e 49       		.uleb128 0x49
ARM GAS  /tmp/ccq4cqsT.s 			page 55


 3079 019f 13       		.uleb128 0x13
 3080 01a0 02       		.uleb128 0x2
 3081 01a1 17       		.uleb128 0x17
 3082 01a2 00       		.byte	0
 3083 01a3 00       		.byte	0
 3084 01a4 20       		.uleb128 0x20
 3085 01a5 34       		.uleb128 0x34
 3086 01a6 00       		.byte	0
 3087 01a7 03       		.uleb128 0x3
 3088 01a8 08       		.uleb128 0x8
 3089 01a9 3A       		.uleb128 0x3a
 3090 01aa 0B       		.uleb128 0xb
 3091 01ab 3B       		.uleb128 0x3b
 3092 01ac 05       		.uleb128 0x5
 3093 01ad 49       		.uleb128 0x49
 3094 01ae 13       		.uleb128 0x13
 3095 01af 02       		.uleb128 0x2
 3096 01b0 17       		.uleb128 0x17
 3097 01b1 00       		.byte	0
 3098 01b2 00       		.byte	0
 3099 01b3 21       		.uleb128 0x21
 3100 01b4 2E       		.uleb128 0x2e
 3101 01b5 01       		.byte	0x1
 3102 01b6 3F       		.uleb128 0x3f
 3103 01b7 19       		.uleb128 0x19
 3104 01b8 03       		.uleb128 0x3
 3105 01b9 0E       		.uleb128 0xe
 3106 01ba 3A       		.uleb128 0x3a
 3107 01bb 0B       		.uleb128 0xb
 3108 01bc 3B       		.uleb128 0x3b
 3109 01bd 0B       		.uleb128 0xb
 3110 01be 27       		.uleb128 0x27
 3111 01bf 19       		.uleb128 0x19
 3112 01c0 11       		.uleb128 0x11
 3113 01c1 01       		.uleb128 0x1
 3114 01c2 12       		.uleb128 0x12
 3115 01c3 06       		.uleb128 0x6
 3116 01c4 40       		.uleb128 0x40
 3117 01c5 18       		.uleb128 0x18
 3118 01c6 9742     		.uleb128 0x2117
 3119 01c8 19       		.uleb128 0x19
 3120 01c9 01       		.uleb128 0x1
 3121 01ca 13       		.uleb128 0x13
 3122 01cb 00       		.byte	0
 3123 01cc 00       		.byte	0
 3124 01cd 22       		.uleb128 0x22
 3125 01ce 05       		.uleb128 0x5
 3126 01cf 00       		.byte	0
 3127 01d0 03       		.uleb128 0x3
 3128 01d1 08       		.uleb128 0x8
 3129 01d2 3A       		.uleb128 0x3a
 3130 01d3 0B       		.uleb128 0xb
 3131 01d4 3B       		.uleb128 0x3b
 3132 01d5 0B       		.uleb128 0xb
 3133 01d6 49       		.uleb128 0x49
 3134 01d7 13       		.uleb128 0x13
 3135 01d8 02       		.uleb128 0x2
ARM GAS  /tmp/ccq4cqsT.s 			page 56


 3136 01d9 18       		.uleb128 0x18
 3137 01da 00       		.byte	0
 3138 01db 00       		.byte	0
 3139 01dc 23       		.uleb128 0x23
 3140 01dd 34       		.uleb128 0x34
 3141 01de 00       		.byte	0
 3142 01df 03       		.uleb128 0x3
 3143 01e0 0E       		.uleb128 0xe
 3144 01e1 49       		.uleb128 0x49
 3145 01e2 13       		.uleb128 0x13
 3146 01e3 34       		.uleb128 0x34
 3147 01e4 19       		.uleb128 0x19
 3148 01e5 00       		.byte	0
 3149 01e6 00       		.byte	0
 3150 01e7 24       		.uleb128 0x24
 3151 01e8 1D       		.uleb128 0x1d
 3152 01e9 01       		.byte	0x1
 3153 01ea 31       		.uleb128 0x31
 3154 01eb 13       		.uleb128 0x13
 3155 01ec 11       		.uleb128 0x11
 3156 01ed 01       		.uleb128 0x1
 3157 01ee 12       		.uleb128 0x12
 3158 01ef 06       		.uleb128 0x6
 3159 01f0 58       		.uleb128 0x58
 3160 01f1 0B       		.uleb128 0xb
 3161 01f2 59       		.uleb128 0x59
 3162 01f3 0B       		.uleb128 0xb
 3163 01f4 00       		.byte	0
 3164 01f5 00       		.byte	0
 3165 01f6 25       		.uleb128 0x25
 3166 01f7 05       		.uleb128 0x5
 3167 01f8 00       		.byte	0
 3168 01f9 31       		.uleb128 0x31
 3169 01fa 13       		.uleb128 0x13
 3170 01fb 02       		.uleb128 0x2
 3171 01fc 18       		.uleb128 0x18
 3172 01fd 00       		.byte	0
 3173 01fe 00       		.byte	0
 3174 01ff 26       		.uleb128 0x26
 3175 0200 01       		.uleb128 0x1
 3176 0201 01       		.byte	0x1
 3177 0202 49       		.uleb128 0x49
 3178 0203 13       		.uleb128 0x13
 3179 0204 01       		.uleb128 0x1
 3180 0205 13       		.uleb128 0x13
 3181 0206 00       		.byte	0
 3182 0207 00       		.byte	0
 3183 0208 27       		.uleb128 0x27
 3184 0209 21       		.uleb128 0x21
 3185 020a 00       		.byte	0
 3186 020b 49       		.uleb128 0x49
 3187 020c 13       		.uleb128 0x13
 3188 020d 2F       		.uleb128 0x2f
 3189 020e 0B       		.uleb128 0xb
 3190 020f 00       		.byte	0
 3191 0210 00       		.byte	0
 3192 0211 28       		.uleb128 0x28
ARM GAS  /tmp/ccq4cqsT.s 			page 57


 3193 0212 34       		.uleb128 0x34
 3194 0213 00       		.byte	0
 3195 0214 03       		.uleb128 0x3
 3196 0215 0E       		.uleb128 0xe
 3197 0216 49       		.uleb128 0x49
 3198 0217 13       		.uleb128 0x13
 3199 0218 34       		.uleb128 0x34
 3200 0219 19       		.uleb128 0x19
 3201 021a 1C       		.uleb128 0x1c
 3202 021b 0E       		.uleb128 0xe
 3203 021c 00       		.byte	0
 3204 021d 00       		.byte	0
 3205 021e 29       		.uleb128 0x29
 3206 021f 05       		.uleb128 0x5
 3207 0220 00       		.byte	0
 3208 0221 03       		.uleb128 0x3
 3209 0222 08       		.uleb128 0x8
 3210 0223 3A       		.uleb128 0x3a
 3211 0224 0B       		.uleb128 0xb
 3212 0225 3B       		.uleb128 0x3b
 3213 0226 0B       		.uleb128 0xb
 3214 0227 49       		.uleb128 0x49
 3215 0228 13       		.uleb128 0x13
 3216 0229 02       		.uleb128 0x2
 3217 022a 17       		.uleb128 0x17
 3218 022b 00       		.byte	0
 3219 022c 00       		.byte	0
 3220 022d 2A       		.uleb128 0x2a
 3221 022e 1D       		.uleb128 0x1d
 3222 022f 01       		.byte	0x1
 3223 0230 31       		.uleb128 0x31
 3224 0231 13       		.uleb128 0x13
 3225 0232 52       		.uleb128 0x52
 3226 0233 01       		.uleb128 0x1
 3227 0234 55       		.uleb128 0x55
 3228 0235 17       		.uleb128 0x17
 3229 0236 58       		.uleb128 0x58
 3230 0237 0B       		.uleb128 0xb
 3231 0238 59       		.uleb128 0x59
 3232 0239 0B       		.uleb128 0xb
 3233 023a 01       		.uleb128 0x1
 3234 023b 13       		.uleb128 0x13
 3235 023c 00       		.byte	0
 3236 023d 00       		.byte	0
 3237 023e 2B       		.uleb128 0x2b
 3238 023f 1D       		.uleb128 0x1d
 3239 0240 01       		.byte	0x1
 3240 0241 31       		.uleb128 0x31
 3241 0242 13       		.uleb128 0x13
 3242 0243 52       		.uleb128 0x52
 3243 0244 01       		.uleb128 0x1
 3244 0245 55       		.uleb128 0x55
 3245 0246 17       		.uleb128 0x17
 3246 0247 58       		.uleb128 0x58
 3247 0248 0B       		.uleb128 0xb
 3248 0249 59       		.uleb128 0x59
 3249 024a 05       		.uleb128 0x5
ARM GAS  /tmp/ccq4cqsT.s 			page 58


 3250 024b 01       		.uleb128 0x1
 3251 024c 13       		.uleb128 0x13
 3252 024d 00       		.byte	0
 3253 024e 00       		.byte	0
 3254 024f 2C       		.uleb128 0x2c
 3255 0250 1D       		.uleb128 0x1d
 3256 0251 01       		.byte	0x1
 3257 0252 31       		.uleb128 0x31
 3258 0253 13       		.uleb128 0x13
 3259 0254 52       		.uleb128 0x52
 3260 0255 01       		.uleb128 0x1
 3261 0256 55       		.uleb128 0x55
 3262 0257 17       		.uleb128 0x17
 3263 0258 58       		.uleb128 0x58
 3264 0259 0B       		.uleb128 0xb
 3265 025a 59       		.uleb128 0x59
 3266 025b 05       		.uleb128 0x5
 3267 025c 00       		.byte	0
 3268 025d 00       		.byte	0
 3269 025e 2D       		.uleb128 0x2d
 3270 025f 05       		.uleb128 0x5
 3271 0260 00       		.byte	0
 3272 0261 31       		.uleb128 0x31
 3273 0262 13       		.uleb128 0x13
 3274 0263 1C       		.uleb128 0x1c
 3275 0264 0B       		.uleb128 0xb
 3276 0265 00       		.byte	0
 3277 0266 00       		.byte	0
 3278 0267 2E       		.uleb128 0x2e
 3279 0268 898201   		.uleb128 0x4109
 3280 026b 00       		.byte	0
 3281 026c 11       		.uleb128 0x11
 3282 026d 01       		.uleb128 0x1
 3283 026e 31       		.uleb128 0x31
 3284 026f 13       		.uleb128 0x13
 3285 0270 00       		.byte	0
 3286 0271 00       		.byte	0
 3287 0272 2F       		.uleb128 0x2f
 3288 0273 1D       		.uleb128 0x1d
 3289 0274 01       		.byte	0x1
 3290 0275 31       		.uleb128 0x31
 3291 0276 13       		.uleb128 0x13
 3292 0277 11       		.uleb128 0x11
 3293 0278 01       		.uleb128 0x1
 3294 0279 12       		.uleb128 0x12
 3295 027a 06       		.uleb128 0x6
 3296 027b 58       		.uleb128 0x58
 3297 027c 0B       		.uleb128 0xb
 3298 027d 59       		.uleb128 0x59
 3299 027e 0B       		.uleb128 0xb
 3300 027f 01       		.uleb128 0x1
 3301 0280 13       		.uleb128 0x13
 3302 0281 00       		.byte	0
 3303 0282 00       		.byte	0
 3304 0283 30       		.uleb128 0x30
 3305 0284 05       		.uleb128 0x5
 3306 0285 00       		.byte	0
ARM GAS  /tmp/ccq4cqsT.s 			page 59


 3307 0286 31       		.uleb128 0x31
 3308 0287 13       		.uleb128 0x13
 3309 0288 02       		.uleb128 0x2
 3310 0289 17       		.uleb128 0x17
 3311 028a 00       		.byte	0
 3312 028b 00       		.byte	0
 3313 028c 31       		.uleb128 0x31
 3314 028d 0B       		.uleb128 0xb
 3315 028e 01       		.byte	0x1
 3316 028f 55       		.uleb128 0x55
 3317 0290 17       		.uleb128 0x17
 3318 0291 00       		.byte	0
 3319 0292 00       		.byte	0
 3320 0293 32       		.uleb128 0x32
 3321 0294 34       		.uleb128 0x34
 3322 0295 00       		.byte	0
 3323 0296 31       		.uleb128 0x31
 3324 0297 13       		.uleb128 0x13
 3325 0298 02       		.uleb128 0x2
 3326 0299 17       		.uleb128 0x17
 3327 029a 00       		.byte	0
 3328 029b 00       		.byte	0
 3329 029c 33       		.uleb128 0x33
 3330 029d 0B       		.uleb128 0xb
 3331 029e 01       		.byte	0x1
 3332 029f 11       		.uleb128 0x11
 3333 02a0 01       		.uleb128 0x1
 3334 02a1 12       		.uleb128 0x12
 3335 02a2 06       		.uleb128 0x6
 3336 02a3 00       		.byte	0
 3337 02a4 00       		.byte	0
 3338 02a5 34       		.uleb128 0x34
 3339 02a6 34       		.uleb128 0x34
 3340 02a7 00       		.byte	0
 3341 02a8 31       		.uleb128 0x31
 3342 02a9 13       		.uleb128 0x13
 3343 02aa 00       		.byte	0
 3344 02ab 00       		.byte	0
 3345 02ac 35       		.uleb128 0x35
 3346 02ad 1D       		.uleb128 0x1d
 3347 02ae 01       		.byte	0x1
 3348 02af 31       		.uleb128 0x31
 3349 02b0 13       		.uleb128 0x13
 3350 02b1 11       		.uleb128 0x11
 3351 02b2 01       		.uleb128 0x1
 3352 02b3 12       		.uleb128 0x12
 3353 02b4 06       		.uleb128 0x6
 3354 02b5 58       		.uleb128 0x58
 3355 02b6 0B       		.uleb128 0xb
 3356 02b7 59       		.uleb128 0x59
 3357 02b8 05       		.uleb128 0x5
 3358 02b9 01       		.uleb128 0x1
 3359 02ba 13       		.uleb128 0x13
 3360 02bb 00       		.byte	0
 3361 02bc 00       		.byte	0
 3362 02bd 36       		.uleb128 0x36
 3363 02be 1D       		.uleb128 0x1d
ARM GAS  /tmp/ccq4cqsT.s 			page 60


 3364 02bf 01       		.byte	0x1
 3365 02c0 31       		.uleb128 0x31
 3366 02c1 13       		.uleb128 0x13
 3367 02c2 11       		.uleb128 0x11
 3368 02c3 01       		.uleb128 0x1
 3369 02c4 12       		.uleb128 0x12
 3370 02c5 06       		.uleb128 0x6
 3371 02c6 58       		.uleb128 0x58
 3372 02c7 0B       		.uleb128 0xb
 3373 02c8 59       		.uleb128 0x59
 3374 02c9 05       		.uleb128 0x5
 3375 02ca 00       		.byte	0
 3376 02cb 00       		.byte	0
 3377 02cc 37       		.uleb128 0x37
 3378 02cd 898201   		.uleb128 0x4109
 3379 02d0 01       		.byte	0x1
 3380 02d1 11       		.uleb128 0x11
 3381 02d2 01       		.uleb128 0x1
 3382 02d3 31       		.uleb128 0x31
 3383 02d4 13       		.uleb128 0x13
 3384 02d5 00       		.byte	0
 3385 02d6 00       		.byte	0
 3386 02d7 38       		.uleb128 0x38
 3387 02d8 8A8201   		.uleb128 0x410a
 3388 02db 00       		.byte	0
 3389 02dc 02       		.uleb128 0x2
 3390 02dd 18       		.uleb128 0x18
 3391 02de 9142     		.uleb128 0x2111
 3392 02e0 18       		.uleb128 0x18
 3393 02e1 00       		.byte	0
 3394 02e2 00       		.byte	0
 3395 02e3 39       		.uleb128 0x39
 3396 02e4 34       		.uleb128 0x34
 3397 02e5 00       		.byte	0
 3398 02e6 03       		.uleb128 0x3
 3399 02e7 08       		.uleb128 0x8
 3400 02e8 3A       		.uleb128 0x3a
 3401 02e9 0B       		.uleb128 0xb
 3402 02ea 3B       		.uleb128 0x3b
 3403 02eb 0B       		.uleb128 0xb
 3404 02ec 49       		.uleb128 0x49
 3405 02ed 13       		.uleb128 0x13
 3406 02ee 00       		.byte	0
 3407 02ef 00       		.byte	0
 3408 02f0 3A       		.uleb128 0x3a
 3409 02f1 898201   		.uleb128 0x4109
 3410 02f4 00       		.byte	0
 3411 02f5 11       		.uleb128 0x11
 3412 02f6 01       		.uleb128 0x1
 3413 02f7 9542     		.uleb128 0x2115
 3414 02f9 19       		.uleb128 0x19
 3415 02fa 31       		.uleb128 0x31
 3416 02fb 13       		.uleb128 0x13
 3417 02fc 00       		.byte	0
 3418 02fd 00       		.byte	0
 3419 02fe 3B       		.uleb128 0x3b
 3420 02ff 898201   		.uleb128 0x4109
ARM GAS  /tmp/ccq4cqsT.s 			page 61


 3421 0302 01       		.byte	0x1
 3422 0303 11       		.uleb128 0x11
 3423 0304 01       		.uleb128 0x1
 3424 0305 31       		.uleb128 0x31
 3425 0306 13       		.uleb128 0x13
 3426 0307 01       		.uleb128 0x1
 3427 0308 13       		.uleb128 0x13
 3428 0309 00       		.byte	0
 3429 030a 00       		.byte	0
 3430 030b 3C       		.uleb128 0x3c
 3431 030c 2E       		.uleb128 0x2e
 3432 030d 01       		.byte	0x1
 3433 030e 3F       		.uleb128 0x3f
 3434 030f 19       		.uleb128 0x19
 3435 0310 03       		.uleb128 0x3
 3436 0311 0E       		.uleb128 0xe
 3437 0312 3A       		.uleb128 0x3a
 3438 0313 0B       		.uleb128 0xb
 3439 0314 3B       		.uleb128 0x3b
 3440 0315 0B       		.uleb128 0xb
 3441 0316 27       		.uleb128 0x27
 3442 0317 19       		.uleb128 0x19
 3443 0318 49       		.uleb128 0x49
 3444 0319 13       		.uleb128 0x13
 3445 031a 11       		.uleb128 0x11
 3446 031b 01       		.uleb128 0x1
 3447 031c 12       		.uleb128 0x12
 3448 031d 06       		.uleb128 0x6
 3449 031e 40       		.uleb128 0x40
 3450 031f 18       		.uleb128 0x18
 3451 0320 9742     		.uleb128 0x2117
 3452 0322 19       		.uleb128 0x19
 3453 0323 01       		.uleb128 0x1
 3454 0324 13       		.uleb128 0x13
 3455 0325 00       		.byte	0
 3456 0326 00       		.byte	0
 3457 0327 3D       		.uleb128 0x3d
 3458 0328 34       		.uleb128 0x34
 3459 0329 00       		.byte	0
 3460 032a 03       		.uleb128 0x3
 3461 032b 08       		.uleb128 0x8
 3462 032c 3A       		.uleb128 0x3a
 3463 032d 0B       		.uleb128 0xb
 3464 032e 3B       		.uleb128 0x3b
 3465 032f 0B       		.uleb128 0xb
 3466 0330 49       		.uleb128 0x49
 3467 0331 13       		.uleb128 0x13
 3468 0332 02       		.uleb128 0x2
 3469 0333 17       		.uleb128 0x17
 3470 0334 00       		.byte	0
 3471 0335 00       		.byte	0
 3472 0336 3E       		.uleb128 0x3e
 3473 0337 1D       		.uleb128 0x1d
 3474 0338 00       		.byte	0
 3475 0339 31       		.uleb128 0x31
 3476 033a 13       		.uleb128 0x13
 3477 033b 11       		.uleb128 0x11
ARM GAS  /tmp/ccq4cqsT.s 			page 62


 3478 033c 01       		.uleb128 0x1
 3479 033d 12       		.uleb128 0x12
 3480 033e 06       		.uleb128 0x6
 3481 033f 58       		.uleb128 0x58
 3482 0340 0B       		.uleb128 0xb
 3483 0341 59       		.uleb128 0x59
 3484 0342 0B       		.uleb128 0xb
 3485 0343 00       		.byte	0
 3486 0344 00       		.byte	0
 3487 0345 3F       		.uleb128 0x3f
 3488 0346 2E       		.uleb128 0x2e
 3489 0347 01       		.byte	0x1
 3490 0348 3F       		.uleb128 0x3f
 3491 0349 19       		.uleb128 0x19
 3492 034a 03       		.uleb128 0x3
 3493 034b 0E       		.uleb128 0xe
 3494 034c 3A       		.uleb128 0x3a
 3495 034d 0B       		.uleb128 0xb
 3496 034e 3B       		.uleb128 0x3b
 3497 034f 05       		.uleb128 0x5
 3498 0350 27       		.uleb128 0x27
 3499 0351 19       		.uleb128 0x19
 3500 0352 49       		.uleb128 0x49
 3501 0353 13       		.uleb128 0x13
 3502 0354 11       		.uleb128 0x11
 3503 0355 01       		.uleb128 0x1
 3504 0356 12       		.uleb128 0x12
 3505 0357 06       		.uleb128 0x6
 3506 0358 40       		.uleb128 0x40
 3507 0359 18       		.uleb128 0x18
 3508 035a 9742     		.uleb128 0x2117
 3509 035c 19       		.uleb128 0x19
 3510 035d 01       		.uleb128 0x1
 3511 035e 13       		.uleb128 0x13
 3512 035f 00       		.byte	0
 3513 0360 00       		.byte	0
 3514 0361 40       		.uleb128 0x40
 3515 0362 05       		.uleb128 0x5
 3516 0363 00       		.byte	0
 3517 0364 03       		.uleb128 0x3
 3518 0365 0E       		.uleb128 0xe
 3519 0366 3A       		.uleb128 0x3a
 3520 0367 0B       		.uleb128 0xb
 3521 0368 3B       		.uleb128 0x3b
 3522 0369 05       		.uleb128 0x5
 3523 036a 49       		.uleb128 0x49
 3524 036b 13       		.uleb128 0x13
 3525 036c 02       		.uleb128 0x2
 3526 036d 17       		.uleb128 0x17
 3527 036e 00       		.byte	0
 3528 036f 00       		.byte	0
 3529 0370 41       		.uleb128 0x41
 3530 0371 34       		.uleb128 0x34
 3531 0372 00       		.byte	0
 3532 0373 03       		.uleb128 0x3
 3533 0374 0E       		.uleb128 0xe
 3534 0375 3A       		.uleb128 0x3a
ARM GAS  /tmp/ccq4cqsT.s 			page 63


 3535 0376 0B       		.uleb128 0xb
 3536 0377 3B       		.uleb128 0x3b
 3537 0378 05       		.uleb128 0x5
 3538 0379 49       		.uleb128 0x49
 3539 037a 13       		.uleb128 0x13
 3540 037b 3F       		.uleb128 0x3f
 3541 037c 19       		.uleb128 0x19
 3542 037d 3C       		.uleb128 0x3c
 3543 037e 19       		.uleb128 0x19
 3544 037f 00       		.byte	0
 3545 0380 00       		.byte	0
 3546 0381 42       		.uleb128 0x42
 3547 0382 34       		.uleb128 0x34
 3548 0383 00       		.byte	0
 3549 0384 03       		.uleb128 0x3
 3550 0385 08       		.uleb128 0x8
 3551 0386 3A       		.uleb128 0x3a
 3552 0387 0B       		.uleb128 0xb
 3553 0388 3B       		.uleb128 0x3b
 3554 0389 05       		.uleb128 0x5
 3555 038a 49       		.uleb128 0x49
 3556 038b 13       		.uleb128 0x13
 3557 038c 3F       		.uleb128 0x3f
 3558 038d 19       		.uleb128 0x19
 3559 038e 3C       		.uleb128 0x3c
 3560 038f 19       		.uleb128 0x19
 3561 0390 00       		.byte	0
 3562 0391 00       		.byte	0
 3563 0392 43       		.uleb128 0x43
 3564 0393 2E       		.uleb128 0x2e
 3565 0394 00       		.byte	0
 3566 0395 3F       		.uleb128 0x3f
 3567 0396 19       		.uleb128 0x19
 3568 0397 03       		.uleb128 0x3
 3569 0398 0E       		.uleb128 0xe
 3570 0399 3A       		.uleb128 0x3a
 3571 039a 0B       		.uleb128 0xb
 3572 039b 3B       		.uleb128 0x3b
 3573 039c 0B       		.uleb128 0xb
 3574 039d 27       		.uleb128 0x27
 3575 039e 19       		.uleb128 0x19
 3576 039f 3C       		.uleb128 0x3c
 3577 03a0 19       		.uleb128 0x19
 3578 03a1 00       		.byte	0
 3579 03a2 00       		.byte	0
 3580 03a3 44       		.uleb128 0x44
 3581 03a4 2E       		.uleb128 0x2e
 3582 03a5 01       		.byte	0x1
 3583 03a6 3F       		.uleb128 0x3f
 3584 03a7 19       		.uleb128 0x19
 3585 03a8 03       		.uleb128 0x3
 3586 03a9 0E       		.uleb128 0xe
 3587 03aa 3A       		.uleb128 0x3a
 3588 03ab 0B       		.uleb128 0xb
 3589 03ac 3B       		.uleb128 0x3b
 3590 03ad 05       		.uleb128 0x5
 3591 03ae 27       		.uleb128 0x27
ARM GAS  /tmp/ccq4cqsT.s 			page 64


 3592 03af 19       		.uleb128 0x19
 3593 03b0 3C       		.uleb128 0x3c
 3594 03b1 19       		.uleb128 0x19
 3595 03b2 01       		.uleb128 0x1
 3596 03b3 13       		.uleb128 0x13
 3597 03b4 00       		.byte	0
 3598 03b5 00       		.byte	0
 3599 03b6 45       		.uleb128 0x45
 3600 03b7 2E       		.uleb128 0x2e
 3601 03b8 01       		.byte	0x1
 3602 03b9 3F       		.uleb128 0x3f
 3603 03ba 19       		.uleb128 0x19
 3604 03bb 03       		.uleb128 0x3
 3605 03bc 0E       		.uleb128 0xe
 3606 03bd 3A       		.uleb128 0x3a
 3607 03be 0B       		.uleb128 0xb
 3608 03bf 3B       		.uleb128 0x3b
 3609 03c0 05       		.uleb128 0x5
 3610 03c1 27       		.uleb128 0x27
 3611 03c2 19       		.uleb128 0x19
 3612 03c3 49       		.uleb128 0x49
 3613 03c4 13       		.uleb128 0x13
 3614 03c5 3C       		.uleb128 0x3c
 3615 03c6 19       		.uleb128 0x19
 3616 03c7 01       		.uleb128 0x1
 3617 03c8 13       		.uleb128 0x13
 3618 03c9 00       		.byte	0
 3619 03ca 00       		.byte	0
 3620 03cb 46       		.uleb128 0x46
 3621 03cc 2E       		.uleb128 0x2e
 3622 03cd 00       		.byte	0
 3623 03ce 3F       		.uleb128 0x3f
 3624 03cf 19       		.uleb128 0x19
 3625 03d0 03       		.uleb128 0x3
 3626 03d1 0E       		.uleb128 0xe
 3627 03d2 3A       		.uleb128 0x3a
 3628 03d3 0B       		.uleb128 0xb
 3629 03d4 3B       		.uleb128 0x3b
 3630 03d5 05       		.uleb128 0x5
 3631 03d6 27       		.uleb128 0x27
 3632 03d7 19       		.uleb128 0x19
 3633 03d8 3C       		.uleb128 0x3c
 3634 03d9 19       		.uleb128 0x19
 3635 03da 00       		.byte	0
 3636 03db 00       		.byte	0
 3637 03dc 47       		.uleb128 0x47
 3638 03dd 2E       		.uleb128 0x2e
 3639 03de 01       		.byte	0x1
 3640 03df 3F       		.uleb128 0x3f
 3641 03e0 19       		.uleb128 0x19
 3642 03e1 03       		.uleb128 0x3
 3643 03e2 0E       		.uleb128 0xe
 3644 03e3 3A       		.uleb128 0x3a
 3645 03e4 0B       		.uleb128 0xb
 3646 03e5 3B       		.uleb128 0x3b
 3647 03e6 0B       		.uleb128 0xb
 3648 03e7 27       		.uleb128 0x27
ARM GAS  /tmp/ccq4cqsT.s 			page 65


 3649 03e8 19       		.uleb128 0x19
 3650 03e9 3C       		.uleb128 0x3c
 3651 03ea 19       		.uleb128 0x19
 3652 03eb 01       		.uleb128 0x1
 3653 03ec 13       		.uleb128 0x13
 3654 03ed 00       		.byte	0
 3655 03ee 00       		.byte	0
 3656 03ef 48       		.uleb128 0x48
 3657 03f0 2E       		.uleb128 0x2e
 3658 03f1 01       		.byte	0x1
 3659 03f2 3F       		.uleb128 0x3f
 3660 03f3 19       		.uleb128 0x19
 3661 03f4 03       		.uleb128 0x3
 3662 03f5 0E       		.uleb128 0xe
 3663 03f6 3A       		.uleb128 0x3a
 3664 03f7 0B       		.uleb128 0xb
 3665 03f8 3B       		.uleb128 0x3b
 3666 03f9 05       		.uleb128 0x5
 3667 03fa 27       		.uleb128 0x27
 3668 03fb 19       		.uleb128 0x19
 3669 03fc 49       		.uleb128 0x49
 3670 03fd 13       		.uleb128 0x13
 3671 03fe 3C       		.uleb128 0x3c
 3672 03ff 19       		.uleb128 0x19
 3673 0400 00       		.byte	0
 3674 0401 00       		.byte	0
 3675 0402 00       		.byte	0
 3676              		.section	.debug_loc,"",%progbits
 3677              	.Ldebug_loc0:
 3678              	.LLST0:
 3679 0000 00000000 		.4byte	.LVL0
 3680 0004 14000000 		.4byte	.LVL3
 3681 0008 0100     		.2byte	0x1
 3682 000a 51       		.byte	0x51
 3683 000b 14000000 		.4byte	.LVL3
 3684 000f 20000000 		.4byte	.LFE155
 3685 0013 0400     		.2byte	0x4
 3686 0015 F3       		.byte	0xf3
 3687 0016 01       		.uleb128 0x1
 3688 0017 51       		.byte	0x51
 3689 0018 9F       		.byte	0x9f
 3690 0019 00000000 		.4byte	0
 3691 001d 00000000 		.4byte	0
 3692              	.LLST1:
 3693 0021 00000000 		.4byte	.LVL0
 3694 0025 04000000 		.4byte	.LVL1
 3695 0029 0100     		.2byte	0x1
 3696 002b 51       		.byte	0x51
 3697 002c 04000000 		.4byte	.LVL1
 3698 0030 16000000 		.4byte	.LVL4
 3699 0034 0100     		.2byte	0x1
 3700 0036 53       		.byte	0x53
 3701 0037 00000000 		.4byte	0
 3702 003b 00000000 		.4byte	0
 3703              	.LLST2:
 3704 003f 00000000 		.4byte	.LVL6
 3705 0043 0D000000 		.4byte	.LVL7-1
ARM GAS  /tmp/ccq4cqsT.s 			page 66


 3706 0047 0100     		.2byte	0x1
 3707 0049 50       		.byte	0x50
 3708 004a 0D000000 		.4byte	.LVL7-1
 3709 004e 2C000000 		.4byte	.LFE247
 3710 0052 0100     		.2byte	0x1
 3711 0054 54       		.byte	0x54
 3712 0055 00000000 		.4byte	0
 3713 0059 00000000 		.4byte	0
 3714              	.LLST3:
 3715 005d 14000000 		.4byte	.LVL8
 3716 0061 20000000 		.4byte	.LVL9
 3717 0065 0100     		.2byte	0x1
 3718 0067 54       		.byte	0x54
 3719 0068 00000000 		.4byte	0
 3720 006c 00000000 		.4byte	0
 3721              	.LLST4:
 3722 0070 14000000 		.4byte	.LVL8
 3723 0074 1F000000 		.4byte	.LVL9-1
 3724 0078 0100     		.2byte	0x1
 3725 007a 50       		.byte	0x50
 3726 007b 00000000 		.4byte	0
 3727 007f 00000000 		.4byte	0
 3728              	.LLST5:
 3729 0083 00000000 		.4byte	.LVL11
 3730 0087 12000000 		.4byte	.LVL13
 3731 008b 0100     		.2byte	0x1
 3732 008d 50       		.byte	0x50
 3733 008e 12000000 		.4byte	.LVL13
 3734 0092 16000000 		.4byte	.LVL14
 3735 0096 0400     		.2byte	0x4
 3736 0098 F3       		.byte	0xf3
 3737 0099 01       		.uleb128 0x1
 3738 009a 50       		.byte	0x50
 3739 009b 9F       		.byte	0x9f
 3740 009c 16000000 		.4byte	.LVL14
 3741 00a0 18000000 		.4byte	.LFE248
 3742 00a4 0100     		.2byte	0x1
 3743 00a6 50       		.byte	0x50
 3744 00a7 00000000 		.4byte	0
 3745 00ab 00000000 		.4byte	0
 3746              	.LLST7:
 3747 00af 06000000 		.4byte	.LVL12
 3748 00b3 12000000 		.4byte	.LVL13
 3749 00b7 0100     		.2byte	0x1
 3750 00b9 50       		.byte	0x50
 3751 00ba 12000000 		.4byte	.LVL13
 3752 00be 16000000 		.4byte	.LVL14
 3753 00c2 0400     		.2byte	0x4
 3754 00c4 F3       		.byte	0xf3
 3755 00c5 01       		.uleb128 0x1
 3756 00c6 50       		.byte	0x50
 3757 00c7 9F       		.byte	0x9f
 3758 00c8 00000000 		.4byte	0
 3759 00cc 00000000 		.4byte	0
 3760              	.LLST8:
 3761 00d0 06000000 		.4byte	.LVL12
 3762 00d4 15000000 		.4byte	.LVL14-1
ARM GAS  /tmp/ccq4cqsT.s 			page 67


 3763 00d8 0100     		.2byte	0x1
 3764 00da 53       		.byte	0x53
 3765 00db 00000000 		.4byte	0
 3766 00df 00000000 		.4byte	0
 3767              	.LLST9:
 3768 00e3 00000000 		.4byte	.LVL15
 3769 00e7 04000000 		.4byte	.LVL16
 3770 00eb 0100     		.2byte	0x1
 3771 00ed 50       		.byte	0x50
 3772 00ee 04000000 		.4byte	.LVL16
 3773 00f2 1E000000 		.4byte	.LFE250
 3774 00f6 0100     		.2byte	0x1
 3775 00f8 54       		.byte	0x54
 3776 00f9 00000000 		.4byte	0
 3777 00fd 00000000 		.4byte	0
 3778              	.LLST10:
 3779 0101 0A000000 		.4byte	.LVL17
 3780 0105 1C000000 		.4byte	.LVL19
 3781 0109 0100     		.2byte	0x1
 3782 010b 54       		.byte	0x54
 3783 010c 00000000 		.4byte	0
 3784 0110 00000000 		.4byte	0
 3785              	.LLST11:
 3786 0114 0A000000 		.4byte	.LVL17
 3787 0118 13000000 		.4byte	.LVL18-1
 3788 011c 0100     		.2byte	0x1
 3789 011e 50       		.byte	0x50
 3790 011f 00000000 		.4byte	0
 3791 0123 00000000 		.4byte	0
 3792              	.LLST12:
 3793 0127 00000000 		.4byte	.LVL20
 3794 012b 0D000000 		.4byte	.LVL21-1
 3795 012f 0100     		.2byte	0x1
 3796 0131 50       		.byte	0x50
 3797 0132 0D000000 		.4byte	.LVL21-1
 3798 0136 24000000 		.4byte	.LFE249
 3799 013a 0100     		.2byte	0x1
 3800 013c 54       		.byte	0x54
 3801 013d 00000000 		.4byte	0
 3802 0141 00000000 		.4byte	0
 3803              	.LLST13:
 3804 0145 00000000 		.4byte	.LVL25
 3805 0149 0C000000 		.4byte	.LVL27
 3806 014d 0100     		.2byte	0x1
 3807 014f 50       		.byte	0x50
 3808 0150 0C000000 		.4byte	.LVL27
 3809 0154 2C000000 		.4byte	.LVL33
 3810 0158 0100     		.2byte	0x1
 3811 015a 56       		.byte	0x56
 3812 015b 2C000000 		.4byte	.LVL33
 3813 015f 30000000 		.4byte	.LFE252
 3814 0163 0400     		.2byte	0x4
 3815 0165 F3       		.byte	0xf3
 3816 0166 01       		.uleb128 0x1
 3817 0167 50       		.byte	0x50
 3818 0168 9F       		.byte	0x9f
 3819 0169 00000000 		.4byte	0
ARM GAS  /tmp/ccq4cqsT.s 			page 68


 3820 016d 00000000 		.4byte	0
 3821              	.LLST14:
 3822 0171 06000000 		.4byte	.LVL26
 3823 0175 22000000 		.4byte	.LVL31
 3824 0179 0100     		.2byte	0x1
 3825 017b 54       		.byte	0x54
 3826 017c 00000000 		.4byte	0
 3827 0180 00000000 		.4byte	0
 3828              	.LLST15:
 3829 0184 22000000 		.4byte	.LVL31
 3830 0188 2C000000 		.4byte	.LVL33
 3831 018c 0100     		.2byte	0x1
 3832 018e 54       		.byte	0x54
 3833 018f 2C000000 		.4byte	.LVL33
 3834 0193 30000000 		.4byte	.LFE252
 3835 0197 0100     		.2byte	0x1
 3836 0199 50       		.byte	0x50
 3837 019a 00000000 		.4byte	0
 3838 019e 00000000 		.4byte	0
 3839              	.LLST16:
 3840 01a2 00000000 		.4byte	.LVL34
 3841 01a6 0D000000 		.4byte	.LVL35-1
 3842 01aa 0100     		.2byte	0x1
 3843 01ac 50       		.byte	0x50
 3844 01ad 0D000000 		.4byte	.LVL35-1
 3845 01b1 16000000 		.4byte	.LVL37
 3846 01b5 0100     		.2byte	0x1
 3847 01b7 54       		.byte	0x54
 3848 01b8 16000000 		.4byte	.LVL37
 3849 01bc 24000000 		.4byte	.LFE251
 3850 01c0 0400     		.2byte	0x4
 3851 01c2 F3       		.byte	0xf3
 3852 01c3 01       		.uleb128 0x1
 3853 01c4 50       		.byte	0x50
 3854 01c5 9F       		.byte	0x9f
 3855 01c6 00000000 		.4byte	0
 3856 01ca 00000000 		.4byte	0
 3857              	.LLST17:
 3858 01ce 16000000 		.4byte	.LVL37
 3859 01d2 19000000 		.4byte	.LVL38-1
 3860 01d6 0100     		.2byte	0x1
 3861 01d8 50       		.byte	0x50
 3862 01d9 19000000 		.4byte	.LVL38-1
 3863 01dd 24000000 		.4byte	.LFE251
 3864 01e1 0100     		.2byte	0x1
 3865 01e3 54       		.byte	0x54
 3866 01e4 00000000 		.4byte	0
 3867 01e8 00000000 		.4byte	0
 3868              	.LLST18:
 3869 01ec 00000000 		.4byte	.LVL39
 3870 01f0 0C000000 		.4byte	.LVL40
 3871 01f4 0100     		.2byte	0x1
 3872 01f6 50       		.byte	0x50
 3873 01f7 0C000000 		.4byte	.LVL40
 3874 01fb 28000000 		.4byte	.LVL44
 3875 01ff 0100     		.2byte	0x1
 3876 0201 54       		.byte	0x54
ARM GAS  /tmp/ccq4cqsT.s 			page 69


 3877 0202 28000000 		.4byte	.LVL44
 3878 0206 38000000 		.4byte	.LFE254
 3879 020a 0400     		.2byte	0x4
 3880 020c F3       		.byte	0xf3
 3881 020d 01       		.uleb128 0x1
 3882 020e 50       		.byte	0x50
 3883 020f 9F       		.byte	0x9f
 3884 0210 00000000 		.4byte	0
 3885 0214 00000000 		.4byte	0
 3886              	.LLST19:
 3887 0218 00000000 		.4byte	.LVL39
 3888 021c 11000000 		.4byte	.LVL41-1
 3889 0220 0100     		.2byte	0x1
 3890 0222 51       		.byte	0x51
 3891 0223 11000000 		.4byte	.LVL41-1
 3892 0227 34000000 		.4byte	.LVL47
 3893 022b 0100     		.2byte	0x1
 3894 022d 57       		.byte	0x57
 3895 022e 34000000 		.4byte	.LVL47
 3896 0232 38000000 		.4byte	.LFE254
 3897 0236 0400     		.2byte	0x4
 3898 0238 F3       		.byte	0xf3
 3899 0239 01       		.uleb128 0x1
 3900 023a 51       		.byte	0x51
 3901 023b 9F       		.byte	0x9f
 3902 023c 00000000 		.4byte	0
 3903 0240 00000000 		.4byte	0
 3904              	.LLST20:
 3905 0244 28000000 		.4byte	.LVL44
 3906 0248 2C000000 		.4byte	.LVL45
 3907 024c 0100     		.2byte	0x1
 3908 024e 50       		.byte	0x50
 3909 024f 2C000000 		.4byte	.LVL45
 3910 0253 34000000 		.4byte	.LVL47
 3911 0257 0100     		.2byte	0x1
 3912 0259 54       		.byte	0x54
 3913 025a 34000000 		.4byte	.LVL47
 3914 025e 38000000 		.4byte	.LFE254
 3915 0262 0100     		.2byte	0x1
 3916 0264 50       		.byte	0x50
 3917 0265 00000000 		.4byte	0
 3918 0269 00000000 		.4byte	0
 3919              	.LLST21:
 3920 026d 00000000 		.4byte	.LVL48
 3921 0271 0F000000 		.4byte	.LVL49-1
 3922 0275 0100     		.2byte	0x1
 3923 0277 50       		.byte	0x50
 3924 0278 0F000000 		.4byte	.LVL49-1
 3925 027c 28000000 		.4byte	.LFE253
 3926 0280 0100     		.2byte	0x1
 3927 0282 55       		.byte	0x55
 3928 0283 00000000 		.4byte	0
 3929 0287 00000000 		.4byte	0
 3930              	.LLST22:
 3931 028b 00000000 		.4byte	.LVL48
 3932 028f 0F000000 		.4byte	.LVL49-1
 3933 0293 0100     		.2byte	0x1
ARM GAS  /tmp/ccq4cqsT.s 			page 70


 3934 0295 51       		.byte	0x51
 3935 0296 0F000000 		.4byte	.LVL49-1
 3936 029a 1A000000 		.4byte	.LVL51
 3937 029e 0100     		.2byte	0x1
 3938 02a0 54       		.byte	0x54
 3939 02a1 1A000000 		.4byte	.LVL51
 3940 02a5 28000000 		.4byte	.LFE253
 3941 02a9 0400     		.2byte	0x4
 3942 02ab F3       		.byte	0xf3
 3943 02ac 01       		.uleb128 0x1
 3944 02ad 51       		.byte	0x51
 3945 02ae 9F       		.byte	0x9f
 3946 02af 00000000 		.4byte	0
 3947 02b3 00000000 		.4byte	0
 3948              	.LLST23:
 3949 02b7 1A000000 		.4byte	.LVL51
 3950 02bb 1D000000 		.4byte	.LVL52-1
 3951 02bf 0100     		.2byte	0x1
 3952 02c1 50       		.byte	0x50
 3953 02c2 1D000000 		.4byte	.LVL52-1
 3954 02c6 28000000 		.4byte	.LFE253
 3955 02ca 0100     		.2byte	0x1
 3956 02cc 54       		.byte	0x54
 3957 02cd 00000000 		.4byte	0
 3958 02d1 00000000 		.4byte	0
 3959              		.section	.debug_aranges,"",%progbits
 3960 0000 64000000 		.4byte	0x64
 3961 0004 0200     		.2byte	0x2
 3962 0006 00000000 		.4byte	.Ldebug_info0
 3963 000a 04       		.byte	0x4
 3964 000b 00       		.byte	0
 3965 000c 0000     		.2byte	0
 3966 000e 0000     		.2byte	0
 3967 0010 00000000 		.4byte	.LFB155
 3968 0014 20000000 		.4byte	.LFE155-.LFB155
 3969 0018 00000000 		.4byte	.LFB246
 3970 001c 06000000 		.4byte	.LFE246-.LFB246
 3971 0020 00000000 		.4byte	.LFB247
 3972 0024 2C000000 		.4byte	.LFE247-.LFB247
 3973 0028 00000000 		.4byte	.LFB248
 3974 002c 18000000 		.4byte	.LFE248-.LFB248
 3975 0030 00000000 		.4byte	.LFB250
 3976 0034 1E000000 		.4byte	.LFE250-.LFB250
 3977 0038 00000000 		.4byte	.LFB249
 3978 003c 24000000 		.4byte	.LFE249-.LFB249
 3979 0040 00000000 		.4byte	.LFB252
 3980 0044 30000000 		.4byte	.LFE252-.LFB252
 3981 0048 00000000 		.4byte	.LFB251
 3982 004c 24000000 		.4byte	.LFE251-.LFB251
 3983 0050 00000000 		.4byte	.LFB254
 3984 0054 38000000 		.4byte	.LFE254-.LFB254
 3985 0058 00000000 		.4byte	.LFB253
 3986 005c 28000000 		.4byte	.LFE253-.LFB253
 3987 0060 00000000 		.4byte	0
 3988 0064 00000000 		.4byte	0
 3989              		.section	.debug_ranges,"",%progbits
 3990              	.Ldebug_ranges0:
ARM GAS  /tmp/ccq4cqsT.s 			page 71


 3991 0000 02000000 		.4byte	.LBB55
 3992 0004 04000000 		.4byte	.LBE55
 3993 0008 06000000 		.4byte	.LBB64
 3994 000c 0E000000 		.4byte	.LBE64
 3995 0010 00000000 		.4byte	0
 3996 0014 00000000 		.4byte	0
 3997 0018 02000000 		.4byte	.LBB57
 3998 001c 04000000 		.4byte	.LBE57
 3999 0020 06000000 		.4byte	.LBB62
 4000 0024 0A000000 		.4byte	.LBE62
 4001 0028 00000000 		.4byte	0
 4002 002c 00000000 		.4byte	0
 4003 0030 14000000 		.4byte	.LBB67
 4004 0034 18000000 		.4byte	.LBE67
 4005 0038 1A000000 		.4byte	.LBB70
 4006 003c 1C000000 		.4byte	.LBE70
 4007 0040 00000000 		.4byte	0
 4008 0044 00000000 		.4byte	0
 4009 0048 02000000 		.4byte	.LBB95
 4010 004c 04000000 		.4byte	.LBE95
 4011 0050 06000000 		.4byte	.LBB104
 4012 0054 0E000000 		.4byte	.LBE104
 4013 0058 00000000 		.4byte	0
 4014 005c 00000000 		.4byte	0
 4015 0060 02000000 		.4byte	.LBB97
 4016 0064 04000000 		.4byte	.LBE97
 4017 0068 06000000 		.4byte	.LBB102
 4018 006c 0A000000 		.4byte	.LBE102
 4019 0070 00000000 		.4byte	0
 4020 0074 00000000 		.4byte	0
 4021 0078 02000000 		.4byte	.LBB122
 4022 007c 04000000 		.4byte	.LBE122
 4023 0080 06000000 		.4byte	.LBB131
 4024 0084 0E000000 		.4byte	.LBE131
 4025 0088 00000000 		.4byte	0
 4026 008c 00000000 		.4byte	0
 4027 0090 02000000 		.4byte	.LBB124
 4028 0094 04000000 		.4byte	.LBE124
 4029 0098 06000000 		.4byte	.LBB129
 4030 009c 0A000000 		.4byte	.LBE129
 4031 00a0 00000000 		.4byte	0
 4032 00a4 00000000 		.4byte	0
 4033 00a8 00000000 		.4byte	.LFB155
 4034 00ac 20000000 		.4byte	.LFE155
 4035 00b0 00000000 		.4byte	.LFB246
 4036 00b4 06000000 		.4byte	.LFE246
 4037 00b8 00000000 		.4byte	.LFB247
 4038 00bc 2C000000 		.4byte	.LFE247
 4039 00c0 00000000 		.4byte	.LFB248
 4040 00c4 18000000 		.4byte	.LFE248
 4041 00c8 00000000 		.4byte	.LFB250
 4042 00cc 1E000000 		.4byte	.LFE250
 4043 00d0 00000000 		.4byte	.LFB249
 4044 00d4 24000000 		.4byte	.LFE249
 4045 00d8 00000000 		.4byte	.LFB252
 4046 00dc 30000000 		.4byte	.LFE252
 4047 00e0 00000000 		.4byte	.LFB251
ARM GAS  /tmp/ccq4cqsT.s 			page 72


 4048 00e4 24000000 		.4byte	.LFE251
 4049 00e8 00000000 		.4byte	.LFB254
 4050 00ec 38000000 		.4byte	.LFE254
 4051 00f0 00000000 		.4byte	.LFB253
 4052 00f4 28000000 		.4byte	.LFE253
 4053 00f8 00000000 		.4byte	0
 4054 00fc 00000000 		.4byte	0
 4055              		.section	.debug_line,"",%progbits
 4056              	.Ldebug_line0:
 4057 0000 0E040000 		.section	.debug_str,"MS",%progbits,1
 4057      02000702 
 4057      00000201 
 4057      FB0E0D00 
 4057      01010101 
 4058              	.LASF53:
 4059 0000 72656164 		.ascii	"ready_list_t\000"
 4059      795F6C69 
 4059      73745F74 
 4059      00
 4060              	.LASF93:
 4061 000d 77747472 		.ascii	"wttrp\000"
 4061      7000
 4062              	.LASF59:
 4063 0013 64656C74 		.ascii	"delta\000"
 4063      6100
 4064              	.LASF90:
 4065 0019 7264796D 		.ascii	"rdymsg\000"
 4065      736700
 4066              	.LASF16:
 4067 0020 75696E74 		.ascii	"uint64_t\000"
 4067      36345F74 
 4067      00
 4068              	.LASF72:
 4069 0029 6B65726E 		.ascii	"kernel_stats\000"
 4069      656C5F73 
 4069      74617473 
 4069      00
 4070              	.LASF5:
 4071 0036 5F5F7569 		.ascii	"__uint8_t\000"
 4071      6E74385F 
 4071      7400
 4072              	.LASF52:
 4073 0040 70726576 		.ascii	"prev\000"
 4073      00
 4074              	.LASF77:
 4075 0045 706F7274 		.ascii	"port_intctx\000"
 4075      5F696E74 
 4075      63747800 
 4076              	.LASF51:
 4077 0051 63685F74 		.ascii	"ch_threads_queue\000"
 4077      68726561 
 4077      64735F71 
 4077      75657565 
 4077      00
 4078              	.LASF64:
 4079 0062 73797374 		.ascii	"system_debug_t\000"
 4079      656D5F64 
ARM GAS  /tmp/ccq4cqsT.s 			page 73


 4079      65627567 
 4079      5F7400
 4080              	.LASF109:
 4081 0071 71756575 		.ascii	"queue_init\000"
 4081      655F696E 
 4081      697400
 4082              	.LASF106:
 4083 007c 706F7274 		.ascii	"port_lock\000"
 4083      5F6C6F63 
 4083      6B00
 4084              	.LASF81:
 4085 0086 776F7273 		.ascii	"worst\000"
 4085      7400
 4086              	.LASF84:
 4087 008c 74696D65 		.ascii	"time_measurement_t\000"
 4087      5F6D6561 
 4087      73757265 
 4087      6D656E74 
 4087      5F7400
 4088              	.LASF121:
 4089 009f 6368436F 		.ascii	"chCondBroadcastI\000"
 4089      6E644272 
 4089      6F616463 
 4089      61737449 
 4089      00
 4090              	.LASF12:
 4091 00b0 6C6F6E67 		.ascii	"long long unsigned int\000"
 4091      206C6F6E 
 4091      6720756E 
 4091      7369676E 
 4091      65642069 
 4092              	.LASF91:
 4093 00c7 65786974 		.ascii	"exitcode\000"
 4093      636F6465 
 4093      00
 4094              	.LASF71:
 4095 00d0 6D61696E 		.ascii	"mainthread\000"
 4095      74687265 
 4095      616400
 4096              	.LASF94:
 4097 00db 73656E74 		.ascii	"sentmsg\000"
 4097      6D736700 
 4098              	.LASF61:
 4099 00e3 76697274 		.ascii	"virtual_timers_list_t\000"
 4099      75616C5F 
 4099      74696D65 
 4099      72735F6C 
 4099      6973745F 
 4100              	.LASF128:
 4101 00f9 49544D5F 		.ascii	"ITM_RxBuffer\000"
 4101      52784275 
 4101      66666572 
 4101      00
 4102              	.LASF49:
 4103 0106 6E657874 		.ascii	"next\000"
 4103      00
 4104              	.LASF18:
ARM GAS  /tmp/ccq4cqsT.s 			page 74


 4105 010b 72747469 		.ascii	"rttime_t\000"
 4105      6D655F74 
 4105      00
 4106              	.LASF10:
 4107 0114 6C6F6E67 		.ascii	"long long int\000"
 4107      206C6F6E 
 4107      6720696E 
 4107      7400
 4108              	.LASF1:
 4109 0122 7369676E 		.ascii	"signed char\000"
 4109      65642063 
 4109      68617200 
 4110              	.LASF104:
 4111 012e 636F6E64 		.ascii	"condition_variable_t\000"
 4111      6974696F 
 4111      6E5F7661 
 4111      72696162 
 4111      6C655F74 
 4112              	.LASF70:
 4113 0143 76746C69 		.ascii	"vtlist\000"
 4113      737400
 4114              	.LASF139:
 4115 014a 2F686F6D 		.ascii	"/home/kozinalexey/f4by/ardupilot/build/f4by-ch\000"
 4115      652F6B6F 
 4115      7A696E61 
 4115      6C657865 
 4115      792F6634 
 4116              	.LASF107:
 4117 0179 706F7274 		.ascii	"port_unlock\000"
 4117      5F756E6C 
 4117      6F636B00 
 4118              	.LASF39:
 4119 0185 6D736771 		.ascii	"msgqueue\000"
 4119      75657565 
 4119      00
 4120              	.LASF35:
 4121 018e 73746174 		.ascii	"state\000"
 4121      6500
 4122              	.LASF7:
 4123 0194 6C6F6E67 		.ascii	"long int\000"
 4123      20696E74 
 4123      00
 4124              	.LASF20:
 4125 019d 74737461 		.ascii	"tstate_t\000"
 4125      74655F74 
 4125      00
 4126              	.LASF111:
 4127 01a6 71756575 		.ascii	"queue_notempty\000"
 4127      655F6E6F 
 4127      74656D70 
 4127      747900
 4128              	.LASF60:
 4129 01b5 66756E63 		.ascii	"func\000"
 4129      00
 4130              	.LASF44:
 4131 01ba 73746174 		.ascii	"stats\000"
 4131      7300
ARM GAS  /tmp/ccq4cqsT.s 			page 75


 4132              	.LASF131:
 4133 01c0 63685363 		.ascii	"chSchRescheduleS\000"
 4133      68526573 
 4133      63686564 
 4133      756C6553 
 4133      00
 4134              	.LASF8:
 4135 01d1 5F5F7569 		.ascii	"__uint32_t\000"
 4135      6E743332 
 4135      5F7400
 4136              	.LASF74:
 4137 01dc 72656761 		.ascii	"regarm_t\000"
 4137      726D5F74 
 4137      00
 4138              	.LASF65:
 4139 01e5 63685F73 		.ascii	"ch_system_debug\000"
 4139      79737465 
 4139      6D5F6465 
 4139      62756700 
 4140              	.LASF38:
 4141 01f5 77616974 		.ascii	"waiting\000"
 4141      696E6700 
 4142              	.LASF102:
 4143 01fd 6D757465 		.ascii	"mutex_t\000"
 4143      785F7400 
 4144              	.LASF110:
 4145 0205 76616C75 		.ascii	"value\000"
 4145      6500
 4146              	.LASF119:
 4147 020b 6368436F 		.ascii	"chCondSignal\000"
 4147      6E645369 
 4147      676E616C 
 4147      00
 4148              	.LASF25:
 4149 0218 636E745F 		.ascii	"cnt_t\000"
 4149      7400
 4150              	.LASF133:
 4151 021e 63684D74 		.ascii	"chMtxUnlockS\000"
 4151      78556E6C 
 4151      6F636B53 
 4151      00
 4152              	.LASF0:
 4153 022b 756E7369 		.ascii	"unsigned int\000"
 4153      676E6564 
 4153      20696E74 
 4153      00
 4154              	.LASF137:
 4155 0238 474E5520 		.ascii	"GNU C 4.9.3 20150529 (prerelease) -mcpu=cortex-m4 -"
 4155      4320342E 
 4155      392E3320 
 4155      32303135 
 4155      30353239 
 4156 026b 6D666C6F 		.ascii	"mfloat-abi=hard -mfpu=fpv4-sp-d16 -mno-thumb-interw"
 4156      61742D61 
 4156      62693D68 
 4156      61726420 
 4156      2D6D6670 
ARM GAS  /tmp/ccq4cqsT.s 			page 76


 4157 029e 6F726B20 		.ascii	"ork -mthumb -g -Os -fomit-frame-pointer -falign-fun"
 4157      2D6D7468 
 4157      756D6220 
 4157      2D67202D 
 4157      4F73202D 
 4158 02d1 6374696F 		.ascii	"ctions=16 -ffunction-sections -fdata-sections -fno-"
 4158      6E733D31 
 4158      36202D66 
 4158      66756E63 
 4158      74696F6E 
 4159 0304 636F6D6D 		.ascii	"common -fsingle-precision-constant\000"
 4159      6F6E202D 
 4159      6673696E 
 4159      676C652D 
 4159      70726563 
 4160              	.LASF95:
 4161 0327 77747365 		.ascii	"wtsemp\000"
 4161      6D7000
 4162              	.LASF85:
 4163 032e 6E5F6972 		.ascii	"n_irq\000"
 4163      7100
 4164              	.LASF29:
 4165 0334 71756575 		.ascii	"queue\000"
 4165      6500
 4166              	.LASF43:
 4167 033a 6D706F6F 		.ascii	"mpool\000"
 4167      6C00
 4168              	.LASF4:
 4169 0340 73686F72 		.ascii	"short unsigned int\000"
 4169      7420756E 
 4169      7369676E 
 4169      65642069 
 4169      6E7400
 4170              	.LASF89:
 4171 0353 6B65726E 		.ascii	"kernel_stats_t\000"
 4171      656C5F73 
 4171      74617473 
 4171      5F7400
 4172              	.LASF47:
 4173 0362 63685F74 		.ascii	"ch_thread\000"
 4173      68726561 
 4173      6400
 4174              	.LASF33:
 4175 036c 6E616D65 		.ascii	"name\000"
 4175      00
 4176              	.LASF23:
 4177 0371 6D73675F 		.ascii	"msg_t\000"
 4177      7400
 4178              	.LASF82:
 4179 0377 6C617374 		.ascii	"last\000"
 4179      00
 4180              	.LASF26:
 4181 037c 75636E74 		.ascii	"ucnt_t\000"
 4181      5F7400
 4182              	.LASF40:
 4183 0383 6570656E 		.ascii	"epending\000"
 4183      64696E67 
ARM GAS  /tmp/ccq4cqsT.s 			page 77


 4183      00
 4184              	.LASF67:
 4185 038c 63685F73 		.ascii	"ch_system_t\000"
 4185      79737465 
 4185      6D5F7400 
 4186              	.LASF19:
 4187 0398 746D6F64 		.ascii	"tmode_t\000"
 4187      655F7400 
 4188              	.LASF88:
 4189 03a0 6D5F6372 		.ascii	"m_crit_isr\000"
 4189      69745F69 
 4189      737200
 4190              	.LASF54:
 4191 03ab 63685F72 		.ascii	"ch_ready_list\000"
 4191      65616479 
 4191      5F6C6973 
 4191      7400
 4192              	.LASF24:
 4193 03b9 6576656E 		.ascii	"eventmask_t\000"
 4193      746D6173 
 4193      6B5F7400 
 4194              	.LASF6:
 4195 03c5 5F5F696E 		.ascii	"__int32_t\000"
 4195      7433325F 
 4195      7400
 4196              	.LASF75:
 4197 03cf 73746B61 		.ascii	"stkalign_t\000"
 4197      6C69676E 
 4197      5F7400
 4198              	.LASF31:
 4199 03da 6E657765 		.ascii	"newer\000"
 4199      7200
 4200              	.LASF42:
 4201 03e0 7265616C 		.ascii	"realprio\000"
 4201      7072696F 
 4201      00
 4202              	.LASF130:
 4203 03e9 5F737461 		.ascii	"_stats_stop_measure_crit_thd\000"
 4203      74735F73 
 4203      746F705F 
 4203      6D656173 
 4203      7572655F 
 4204              	.LASF73:
 4205 0406 73697A65 		.ascii	"sizetype\000"
 4205      74797065 
 4205      00
 4206              	.LASF45:
 4207 040f 74687265 		.ascii	"thread_reference_t\000"
 4207      61645F72 
 4207      65666572 
 4207      656E6365 
 4207      5F7400
 4208              	.LASF62:
 4209 0422 63685F76 		.ascii	"ch_virtual_timers_list\000"
 4209      69727475 
 4209      616C5F74 
 4209      696D6572 
ARM GAS  /tmp/ccq4cqsT.s 			page 78


 4209      735F6C69 
 4210              	.LASF103:
 4211 0439 636F6E64 		.ascii	"condition_variable\000"
 4211      6974696F 
 4211      6E5F7661 
 4211      72696162 
 4211      6C6500
 4212              	.LASF125:
 4213 044c 6368436F 		.ascii	"chCondWaitTimeoutS\000"
 4213      6E645761 
 4213      69745469 
 4213      6D656F75 
 4213      745300
 4214              	.LASF86:
 4215 045f 6E5F6374 		.ascii	"n_ctxswc\000"
 4215      78737763 
 4215      00
 4216              	.LASF76:
 4217 0468 706F7274 		.ascii	"port_context\000"
 4217      5F636F6E 
 4217      74657874 
 4217      00
 4218              	.LASF79:
 4219 0475 746D5F63 		.ascii	"tm_calibration_t\000"
 4219      616C6962 
 4219      72617469 
 4219      6F6E5F74 
 4219      00
 4220              	.LASF126:
 4221 0486 74696D65 		.ascii	"time\000"
 4221      00
 4222              	.LASF30:
 4223 048b 7072696F 		.ascii	"prio\000"
 4223      00
 4224              	.LASF122:
 4225 0490 6368436F 		.ascii	"chCondBroadcast\000"
 4225      6E644272 
 4225      6F616463 
 4225      61737400 
 4226              	.LASF55:
 4227 04a0 63757272 		.ascii	"current\000"
 4227      656E7400 
 4228              	.LASF11:
 4229 04a8 5F5F7569 		.ascii	"__uint64_t\000"
 4229      6E743634 
 4229      5F7400
 4230              	.LASF83:
 4231 04b3 63756D75 		.ascii	"cumulative\000"
 4231      6C617469 
 4231      766500
 4232              	.LASF21:
 4233 04be 74726566 		.ascii	"trefs_t\000"
 4233      735F7400 
 4234              	.LASF37:
 4235 04c6 72656673 		.ascii	"refs\000"
 4235      00
 4236              	.LASF57:
ARM GAS  /tmp/ccq4cqsT.s 			page 79


 4237 04cb 76697274 		.ascii	"virtual_timer_t\000"
 4237      75616C5F 
 4237      74696D65 
 4237      725F7400 
 4238              	.LASF22:
 4239 04db 74707269 		.ascii	"tprio_t\000"
 4239      6F5F7400 
 4240              	.LASF120:
 4241 04e3 6368436F 		.ascii	"chCondSignalI\000"
 4241      6E645369 
 4241      676E616C 
 4241      4900
 4242              	.LASF105:
 4243 04f1 5F426F6F 		.ascii	"_Bool\000"
 4243      6C00
 4244              	.LASF14:
 4245 04f7 696E7433 		.ascii	"int32_t\000"
 4245      325F7400 
 4246              	.LASF2:
 4247 04ff 756E7369 		.ascii	"unsigned char\000"
 4247      676E6564 
 4247      20636861 
 4247      7200
 4248              	.LASF3:
 4249 050d 73686F72 		.ascii	"short int\000"
 4249      7420696E 
 4249      7400
 4250              	.LASF63:
 4251 0517 6C617374 		.ascii	"lasttime\000"
 4251      74696D65 
 4251      00
 4252              	.LASF97:
 4253 0520 65776D61 		.ascii	"ewmask\000"
 4253      736B00
 4254              	.LASF68:
 4255 0527 63685F73 		.ascii	"ch_system\000"
 4255      79737465 
 4255      6D00
 4256              	.LASF117:
 4257 0531 5F5F6675 		.ascii	"__func__\000"
 4257      6E635F5F 
 4257      00
 4258              	.LASF115:
 4259 053a 63685379 		.ascii	"chSysLock\000"
 4259      734C6F63 
 4259      6B00
 4260              	.LASF58:
 4261 0544 63685F76 		.ascii	"ch_virtual_timer\000"
 4261      69727475 
 4261      616C5F74 
 4261      696D6572 
 4261      00
 4262              	.LASF98:
 4263 0555 63685F73 		.ascii	"ch_semaphore\000"
 4263      656D6170 
 4263      686F7265 
 4263      00
ARM GAS  /tmp/ccq4cqsT.s 			page 80


 4264              	.LASF134:
 4265 0562 63685363 		.ascii	"chSchGoSleepS\000"
 4265      68476F53 
 4265      6C656570 
 4265      5300
 4266              	.LASF114:
 4267 0570 63684D74 		.ascii	"chMtxGetNextMutexS\000"
 4267      78476574 
 4267      4E657874 
 4267      4D757465 
 4267      785300
 4268              	.LASF15:
 4269 0583 75696E74 		.ascii	"uint32_t\000"
 4269      33325F74 
 4269      00
 4270              	.LASF96:
 4271 058c 77746D74 		.ascii	"wtmtxp\000"
 4271      787000
 4272              	.LASF141:
 4273 0593 63685363 		.ascii	"chSchReadyI\000"
 4273      68526561 
 4273      64794900 
 4274              	.LASF48:
 4275 059f 63685F74 		.ascii	"ch_threads_list\000"
 4275      68726561 
 4275      64735F6C 
 4275      69737400 
 4276              	.LASF100:
 4277 05af 6F776E65 		.ascii	"owner\000"
 4277      7200
 4278              	.LASF9:
 4279 05b5 6C6F6E67 		.ascii	"long unsigned int\000"
 4279      20756E73 
 4279      69676E65 
 4279      6420696E 
 4279      7400
 4280              	.LASF34:
 4281 05c7 77616261 		.ascii	"wabase\000"
 4281      736500
 4282              	.LASF101:
 4283 05ce 63686172 		.ascii	"char\000"
 4283      00
 4284              	.LASF32:
 4285 05d3 6F6C6465 		.ascii	"older\000"
 4285      7200
 4286              	.LASF123:
 4287 05d9 6368436F 		.ascii	"chCondWaitS\000"
 4287      6E645761 
 4287      69745300 
 4288              	.LASF118:
 4289 05e5 6368436F 		.ascii	"chCondObjectInit\000"
 4289      6E644F62 
 4289      6A656374 
 4289      496E6974 
 4289      00
 4290              	.LASF80:
 4291 05f6 62657374 		.ascii	"best\000"
ARM GAS  /tmp/ccq4cqsT.s 			page 81


 4291      00
 4292              	.LASF112:
 4293 05fb 71756575 		.ascii	"queue_fifo_remove\000"
 4293      655F6669 
 4293      666F5F72 
 4293      656D6F76 
 4293      6500
 4294              	.LASF27:
 4295 060d 73797374 		.ascii	"systime_t\000"
 4295      696D655F 
 4295      7400
 4296              	.LASF56:
 4297 0617 76746675 		.ascii	"vtfunc_t\000"
 4297      6E635F74 
 4297      00
 4298              	.LASF108:
 4299 0620 5F5F7365 		.ascii	"__set_BASEPRI\000"
 4299      745F4241 
 4299      53455052 
 4299      4900
 4300              	.LASF66:
 4301 062e 70616E69 		.ascii	"panic_msg\000"
 4301      635F6D73 
 4301      6700
 4302              	.LASF78:
 4303 0638 6F666673 		.ascii	"offset\000"
 4303      657400
 4304              	.LASF17:
 4305 063f 7274636E 		.ascii	"rtcnt_t\000"
 4305      745F7400 
 4306              	.LASF124:
 4307 0647 6368436F 		.ascii	"chCondWait\000"
 4307      6E645761 
 4307      697400
 4308              	.LASF132:
 4309 0652 63685363 		.ascii	"chSchWakeupS\000"
 4309      6857616B 
 4309      65757053 
 4309      00
 4310              	.LASF50:
 4311 065f 74687265 		.ascii	"threads_queue_t\000"
 4311      6164735F 
 4311      71756575 
 4311      655F7400 
 4312              	.LASF99:
 4313 066f 63685F6D 		.ascii	"ch_mutex\000"
 4313      75746578 
 4313      00
 4314              	.LASF138:
 4315 0678 2E2E2F2E 		.ascii	"../../modules/ChibiOS/os/rt/src/chcond.c\000"
 4315      2E2F6D6F 
 4315      64756C65 
 4315      732F4368 
 4315      6962694F 
 4316              	.LASF28:
 4317 06a1 74687265 		.ascii	"thread_t\000"
 4317      61645F74 
ARM GAS  /tmp/ccq4cqsT.s 			page 82


 4317      00
 4318              	.LASF69:
 4319 06aa 726C6973 		.ascii	"rlist\000"
 4319      7400
 4320              	.LASF113:
 4321 06b0 63685468 		.ascii	"chThdGetSelfX\000"
 4321      64476574 
 4321      53656C66 
 4321      5800
 4322              	.LASF13:
 4323 06be 75696E74 		.ascii	"uint8_t\000"
 4323      385F7400 
 4324              	.LASF36:
 4325 06c6 666C6167 		.ascii	"flags\000"
 4325      7300
 4326              	.LASF129:
 4327 06cc 5F737461 		.ascii	"_stats_start_measure_crit_thd\000"
 4327      74735F73 
 4327      74617274 
 4327      5F6D6561 
 4327      73757265 
 4328              	.LASF92:
 4329 06ea 77746F62 		.ascii	"wtobjp\000"
 4329      6A7000
 4330              	.LASF127:
 4331 06f1 6368436F 		.ascii	"chCondWaitTimeout\000"
 4331      6E645761 
 4331      69745469 
 4331      6D656F75 
 4331      7400
 4332              	.LASF46:
 4333 0703 74687265 		.ascii	"threads_list_t\000"
 4333      6164735F 
 4333      6C697374 
 4333      5F7400
 4334              	.LASF136:
 4335 0712 63685363 		.ascii	"chSchGoSleepTimeoutS\000"
 4335      68476F53 
 4335      6C656570 
 4335      54696D65 
 4335      6F757453 
 4336              	.LASF116:
 4337 0727 63685379 		.ascii	"chSysUnlock\000"
 4337      73556E6C 
 4337      6F636B00 
 4338              	.LASF135:
 4339 0733 63684D74 		.ascii	"chMtxLockS\000"
 4339      784C6F63 
 4339      6B5300
 4340              	.LASF140:
 4341 073e 71756575 		.ascii	"queue_prio_insert\000"
 4341      655F7072 
 4341      696F5F69 
 4341      6E736572 
 4341      7400
 4342              	.LASF41:
 4343 0750 6D74786C 		.ascii	"mtxlist\000"
ARM GAS  /tmp/ccq4cqsT.s 			page 83


 4343      69737400 
 4344              	.LASF87:
 4345 0758 6D5F6372 		.ascii	"m_crit_thd\000"
 4345      69745F74 
 4345      686400
 4346              		.ident	"GCC: (15:4.9.3+svn231177-1) 4.9.3 20150529 (prerelease)"
ARM GAS  /tmp/ccq4cqsT.s 			page 84


DEFINED SYMBOLS
                            *ABS*:0000000000000000 chcond.c
     /tmp/ccq4cqsT.s:21     .text.queue_prio_insert:0000000000000000 $t
     /tmp/ccq4cqsT.s:25     .text.queue_prio_insert:0000000000000000 queue_prio_insert
     /tmp/ccq4cqsT.s:71     .text.chCondObjectInit:0000000000000000 $t
     /tmp/ccq4cqsT.s:76     .text.chCondObjectInit:0000000000000000 chCondObjectInit
     /tmp/ccq4cqsT.s:98     .text.chCondSignal:0000000000000000 $t
     /tmp/ccq4cqsT.s:103    .text.chCondSignal:0000000000000000 chCondSignal
     /tmp/ccq4cqsT.s:201    .text.chCondSignalI:0000000000000000 $t
     /tmp/ccq4cqsT.s:206    .text.chCondSignalI:0000000000000000 chCondSignalI
     /tmp/ccq4cqsT.s:249    .text.chCondBroadcastI:0000000000000000 $t
     /tmp/ccq4cqsT.s:254    .text.chCondBroadcastI:0000000000000000 chCondBroadcastI
     /tmp/ccq4cqsT.s:301    .text.chCondBroadcast:0000000000000000 $t
     /tmp/ccq4cqsT.s:306    .text.chCondBroadcast:0000000000000000 chCondBroadcast
     /tmp/ccq4cqsT.s:380    .text.chCondWaitS:0000000000000000 $t
     /tmp/ccq4cqsT.s:385    .text.chCondWaitS:0000000000000000 chCondWaitS
     /tmp/ccq4cqsT.s:444    .text.chCondWaitS:000000000000002c $d
     /tmp/ccq4cqsT.s:449    .text.chCondWait:0000000000000000 $t
     /tmp/ccq4cqsT.s:454    .text.chCondWait:0000000000000000 chCondWait
     /tmp/ccq4cqsT.s:529    .text.chCondWaitTimeoutS:0000000000000000 $t
     /tmp/ccq4cqsT.s:534    .text.chCondWaitTimeoutS:0000000000000000 chCondWaitTimeoutS
     /tmp/ccq4cqsT.s:607    .text.chCondWaitTimeoutS:0000000000000034 $d
     /tmp/ccq4cqsT.s:612    .text.chCondWaitTimeout:0000000000000000 $t
     /tmp/ccq4cqsT.s:617    .text.chCondWaitTimeout:0000000000000000 chCondWaitTimeout
                     .debug_frame:0000000000000010 $d

UNDEFINED SYMBOLS
_stats_start_measure_crit_thd
chSchWakeupS
_stats_stop_measure_crit_thd
chSchReadyI
chSchRescheduleS
chMtxUnlockS
chSchGoSleepS
chMtxLockS
ch
chSchGoSleepTimeoutS
