ARM GAS  /tmp/ccbQOnDu.s 			page 1


   1              		.syntax unified
   2              		.cpu cortex-m4
   3              		.eabi_attribute 27, 1
   4              		.eabi_attribute 28, 1
   5              		.fpu fpv4-sp-d16
   6              		.eabi_attribute 20, 1
   7              		.eabi_attribute 21, 1
   8              		.eabi_attribute 23, 3
   9              		.eabi_attribute 24, 1
  10              		.eabi_attribute 25, 1
  11              		.eabi_attribute 26, 1
  12              		.eabi_attribute 30, 4
  13              		.eabi_attribute 34, 1
  14              		.eabi_attribute 18, 4
  15              		.thumb
  16              		.file	"chcore_v7m.c"
  17              		.text
  18              	.Ltext0:
  19              		.cfi_sections	.debug_frame
  20              		.section	.text.SVC_Handler,"ax",%progbits
  21              		.align	1
  22              		.global	SVC_Handler
  23              		.thumb
  24              		.thumb_func
  25              		.type	SVC_Handler, %function
  26              	SVC_Handler:
  27              	.LFB246:
  28              		.file 1 "../../modules/ChibiOS/os/common/ports/ARMCMx/chcore_v7m.c"
  29              		.loc 1 62 0
  30              		.cfi_startproc
  31              		@ args = 0, pretend = 0, frame = 0
  32              		@ frame_needed = 0, uses_anonymous_args = 0
  33              		@ link register save eliminated.
  34              		.loc 1 68 0
  35 0000 064A     		ldr	r2, .L2
  36 0002 5368     		ldr	r3, [r2, #4]
  37 0004 23F00103 		bic	r3, r3, #1
  38 0008 5360     		str	r3, [r2, #4]
  39              	.LBB40:
  40              	.LBB41:
  41              		.file 2 "../../modules/ChibiOS/os/common/ext/CMSIS/include/cmsis_gcc.h"
  42              		.loc 2 152 0
  43              	@ 152 "../../modules/ChibiOS/os/common/ext/CMSIS/include/cmsis_gcc.h" 1
  44 000a EFF30983 		MRS r3, psp
  45              	
  46              	@ 0 "" 2
  47              	.LVL0:
  48              		.thumb
  49              	.LBE41:
  50              	.LBE40:
  51              		.loc 1 76 0
  52 000e 6833     		adds	r3, r3, #104
  53              	.LVL1:
  54              	.LBB42:
  55              	.LBB43:
  56              		.loc 2 164 0
  57              	@ 164 "../../modules/ChibiOS/os/common/ext/CMSIS/include/cmsis_gcc.h" 1
ARM GAS  /tmp/ccbQOnDu.s 			page 2


  58 0010 83F30988 		MSR psp, r3
  59              	
  60              	@ 0 "" 2
  61              	.LVL2:
  62              		.thumb
  63              	.LBE43:
  64              	.LBE42:
  65              	.LBB44:
  66              	.LBB45:
  67              	.LBB46:
  68              	.LBB47:
  69              		.loc 2 264 0
  70 0014 0023     		movs	r3, #0
  71              	.LVL3:
  72              	@ 264 "../../modules/ChibiOS/os/common/ext/CMSIS/include/cmsis_gcc.h" 1
  73 0016 83F31188 		MSR basepri, r3
  74              	@ 0 "" 2
  75              		.thumb
  76 001a 7047     		bx	lr
  77              	.L3:
  78              		.align	2
  79              	.L2:
  80 001c 30EF00E0 		.word	-536809680
  81              	.LBE47:
  82              	.LBE46:
  83              	.LBE45:
  84              	.LBE44:
  85              		.cfi_endproc
  86              	.LFE246:
  87              		.size	SVC_Handler, .-SVC_Handler
  88              		.section	.text._port_irq_epilogue,"ax",%progbits
  89              		.align	1
  90              		.global	_port_irq_epilogue
  91              		.thumb
  92              		.thumb_func
  93              		.type	_port_irq_epilogue, %function
  94              	_port_irq_epilogue:
  95              	.LFB247:
  96              		.loc 1 122 0
  97              		.cfi_startproc
  98              		@ args = 0, pretend = 0, frame = 0
  99              		@ frame_needed = 0, uses_anonymous_args = 0
 100              	.LVL4:
 101 0000 10B5     		push	{r4, lr}
 102              		.cfi_def_cfa_offset 8
 103              		.cfi_offset 4, -8
 104              		.cfi_offset 14, -4
 105              	.LBB48:
 106              	.LBB49:
 107              	.LBB50:
 108              	.LBB51:
 109              		.loc 2 264 0
 110 0002 2023     		movs	r3, #32
 111              	@ 264 "../../modules/ChibiOS/os/common/ext/CMSIS/include/cmsis_gcc.h" 1
 112 0004 83F31188 		MSR basepri, r3
 113              	@ 0 "" 2
 114              		.thumb
ARM GAS  /tmp/ccbQOnDu.s 			page 3


 115              	.LBE51:
 116              	.LBE50:
 117              	.LBE49:
 118              	.LBE48:
 119              		.loc 1 125 0
 120 0008 104B     		ldr	r3, .L10
 121 000a 5B68     		ldr	r3, [r3, #4]
 122 000c 13F40063 		ands	r3, r3, #2048
 123 0010 18D0     		beq	.L5
 124              	.LBB52:
 125              	.LBB53:
 126              	.LBB54:
 127              		.loc 2 320 0
 128              		.loc 2 321 0
 129              	@ 321 "../../modules/ChibiOS/os/common/ext/CMSIS/include/cmsis_gcc.h" 1
 130 0012 F1EE103A 		VMRS r3, fpscr
 131              	@ 0 "" 2
 132              	.LVL5:
 133              		.loc 2 322 0
 134              		.thumb
 135              	.LBE54:
 136              	.LBE53:
 137              	.LBB55:
 138              	.LBB56:
 139              		.loc 2 152 0
 140              	@ 152 "../../modules/ChibiOS/os/common/ext/CMSIS/include/cmsis_gcc.h" 1
 141 0016 EFF30984 		MRS r4, psp
 142              	
 143              	@ 0 "" 2
 144              	.LVL6:
 145              		.thumb
 146              	.LBE56:
 147              	.LBE55:
 148              		.loc 1 141 0
 149 001a 4FF08073 		mov	r3, #16777216
 150 001e 44F84C3C 		str	r3, [r4, #-76]
 151              		.loc 1 143 0
 152 0022 0B4B     		ldr	r3, .L10+4
 153 0024 DB68     		ldr	r3, [r3, #12]
 154 0026 44F8083C 		str	r3, [r4, #-8]
 155              	.LVL7:
 156              		.loc 1 138 0
 157 002a A4F16803 		sub	r3, r4, #104
 158              	.LVL8:
 159              	.LBB57:
 160              	.LBB58:
 161              		.loc 2 164 0
 162              	@ 164 "../../modules/ChibiOS/os/common/ext/CMSIS/include/cmsis_gcc.h" 1
 163 002e 83F30988 		MSR psp, r3
 164              	
 165              	@ 0 "" 2
 166              		.thumb
 167              	.LBE58:
 168              	.LBE57:
 169              		.loc 1 151 0
 170 0032 FFF7FEFF 		bl	chSchIsPreemptionRequired
 171              	.LVL9:
ARM GAS  /tmp/ccbQOnDu.s 			page 4


 172 0036 08B1     		cbz	r0, .L6
 173              		.loc 1 153 0
 174 0038 064B     		ldr	r3, .L10+8
 175 003a 00E0     		b	.L8
 176              	.L6:
 177              		.loc 1 158 0
 178 003c 064B     		ldr	r3, .L10+12
 179              	.L8:
 180 003e 44F8503C 		str	r3, [r4, #-80]
 181 0042 10BD     		pop	{r4, pc}
 182              	.LVL10:
 183              	.L5:
 184              	.LBE52:
 185              	.LBB59:
 186              	.LBB60:
 187              	.LBB61:
 188              	.LBB62:
 189              		.loc 2 264 0
 190              	@ 264 "../../modules/ChibiOS/os/common/ext/CMSIS/include/cmsis_gcc.h" 1
 191 0044 83F31188 		MSR basepri, r3
 192              	@ 0 "" 2
 193              		.thumb
 194 0048 10BD     		pop	{r4, pc}
 195              	.L11:
 196 004a 00BF     		.align	2
 197              	.L10:
 198 004c 00ED00E0 		.word	-536810240
 199 0050 30EF00E0 		.word	-536809680
 200 0054 00000000 		.word	_port_switch_from_isr
 201 0058 00000000 		.word	_port_exit_from_isr
 202              	.LBE62:
 203              	.LBE61:
 204              	.LBE60:
 205              	.LBE59:
 206              		.cfi_endproc
 207              	.LFE247:
 208              		.size	_port_irq_epilogue, .-_port_irq_epilogue
 209              		.text
 210              	.Letext0:
 211              		.file 3 "/usr/include/newlib/machine/_default_types.h"
 212              		.file 4 "/usr/include/newlib/sys/_stdint.h"
 213              		.file 5 "../../modules/ChibiOS/os/common/ports/ARMCMx/compilers/GCC/chtypes.h"
 214              		.file 6 "../../modules/ChibiOS/os/rt/include/chsystypes.h"
 215              		.file 7 "../../modules/ChibiOS/os/rt/include/chschd.h"
 216              		.file 8 "../../modules/ChibiOS/os/common/ext/CMSIS/include/core_cm4.h"
 217              		.file 9 "../../modules/ChibiOS/os/common/ports/ARMCMx/chcore.h"
 218              		.file 10 "../../modules/ChibiOS/os/common/ports/ARMCMx/chcore_v7m.h"
 219              		.file 11 "../../modules/ChibiOS/os/rt/include/chtm.h"
 220              		.file 12 "../../modules/ChibiOS/os/rt/include/chstats.h"
 221              		.file 13 "../../modules/ChibiOS/os/rt/include/chsem.h"
 222              		.file 14 "../../modules/ChibiOS/os/rt/include/chmtx.h"
 223              		.section	.debug_info,"",%progbits
 224              	.Ldebug_info0:
 225 0000 5A0D0000 		.4byte	0xd5a
 226 0004 0400     		.2byte	0x4
 227 0006 00000000 		.4byte	.Ldebug_abbrev0
 228 000a 04       		.byte	0x4
ARM GAS  /tmp/ccbQOnDu.s 			page 5


 229 000b 01       		.uleb128 0x1
 230 000c 92020000 		.4byte	.LASF146
 231 0010 01       		.byte	0x1
 232 0011 6D060000 		.4byte	.LASF147
 233 0015 1F010000 		.4byte	.LASF148
 234 0019 00000000 		.4byte	.Ldebug_ranges0+0
 235 001d 00000000 		.4byte	0
 236 0021 00000000 		.4byte	.Ldebug_line0
 237 0025 02       		.uleb128 0x2
 238 0026 04       		.byte	0x4
 239 0027 05       		.byte	0x5
 240 0028 696E7400 		.ascii	"int\000"
 241 002c 03       		.uleb128 0x3
 242 002d 04       		.byte	0x4
 243 002e 07       		.byte	0x7
 244 002f F8010000 		.4byte	.LASF0
 245 0033 03       		.uleb128 0x3
 246 0034 01       		.byte	0x1
 247 0035 06       		.byte	0x6
 248 0036 3D000000 		.4byte	.LASF1
 249 003a 04       		.uleb128 0x4
 250 003b 49000000 		.4byte	.LASF5
 251 003f 03       		.byte	0x3
 252 0040 1D       		.byte	0x1d
 253 0041 45000000 		.4byte	0x45
 254 0045 03       		.uleb128 0x3
 255 0046 01       		.byte	0x1
 256 0047 08       		.byte	0x8
 257 0048 D5040000 		.4byte	.LASF2
 258 004c 03       		.uleb128 0x3
 259 004d 02       		.byte	0x2
 260 004e 05       		.byte	0x5
 261 004f FB040000 		.4byte	.LASF3
 262 0053 03       		.uleb128 0x3
 263 0054 02       		.byte	0x2
 264 0055 07       		.byte	0x7
 265 0056 05060000 		.4byte	.LASF4
 266 005a 04       		.uleb128 0x4
 267 005b BD030000 		.4byte	.LASF6
 268 005f 03       		.byte	0x3
 269 0060 3F       		.byte	0x3f
 270 0061 65000000 		.4byte	0x65
 271 0065 03       		.uleb128 0x3
 272 0066 04       		.byte	0x4
 273 0067 05       		.byte	0x5
 274 0068 69010000 		.4byte	.LASF7
 275 006c 04       		.uleb128 0x4
 276 006d A0010000 		.4byte	.LASF8
 277 0071 03       		.byte	0x3
 278 0072 41       		.byte	0x41
 279 0073 77000000 		.4byte	0x77
 280 0077 03       		.uleb128 0x3
 281 0078 04       		.byte	0x4
 282 0079 07       		.byte	0x7
 283 007a 8C050000 		.4byte	.LASF9
 284 007e 03       		.uleb128 0x3
 285 007f 08       		.byte	0x8
ARM GAS  /tmp/ccbQOnDu.s 			page 6


 286 0080 05       		.byte	0x5
 287 0081 D5010000 		.4byte	.LASF10
 288 0085 04       		.uleb128 0x4
 289 0086 61040000 		.4byte	.LASF11
 290 008a 03       		.byte	0x3
 291 008b 5B       		.byte	0x5b
 292 008c 90000000 		.4byte	0x90
 293 0090 03       		.uleb128 0x3
 294 0091 08       		.byte	0x8
 295 0092 07       		.byte	0x7
 296 0093 FC000000 		.4byte	.LASF12
 297 0097 04       		.uleb128 0x4
 298 0098 A7060000 		.4byte	.LASF13
 299 009c 04       		.byte	0x4
 300 009d 14       		.byte	0x14
 301 009e 3A000000 		.4byte	0x3a
 302 00a2 04       		.uleb128 0x4
 303 00a3 CD040000 		.4byte	.LASF14
 304 00a7 04       		.byte	0x4
 305 00a8 1F       		.byte	0x1f
 306 00a9 5A000000 		.4byte	0x5a
 307 00ad 04       		.uleb128 0x4
 308 00ae 61050000 		.4byte	.LASF15
 309 00b2 04       		.byte	0x4
 310 00b3 20       		.byte	0x20
 311 00b4 6C000000 		.4byte	0x6c
 312 00b8 04       		.uleb128 0x4
 313 00b9 27000000 		.4byte	.LASF16
 314 00bd 04       		.byte	0x4
 315 00be 26       		.byte	0x26
 316 00bf 85000000 		.4byte	0x85
 317 00c3 04       		.uleb128 0x4
 318 00c4 24060000 		.4byte	.LASF17
 319 00c8 05       		.byte	0x5
 320 00c9 39       		.byte	0x39
 321 00ca AD000000 		.4byte	0xad
 322 00ce 04       		.uleb128 0x4
 323 00cf F3000000 		.4byte	.LASF18
 324 00d3 05       		.byte	0x5
 325 00d4 3A       		.byte	0x3a
 326 00d5 B8000000 		.4byte	0xb8
 327 00d9 04       		.uleb128 0x4
 328 00da 81030000 		.4byte	.LASF19
 329 00de 05       		.byte	0x5
 330 00df 3C       		.byte	0x3c
 331 00e0 97000000 		.4byte	0x97
 332 00e4 04       		.uleb128 0x4
 333 00e5 72010000 		.4byte	.LASF20
 334 00e9 05       		.byte	0x5
 335 00ea 3D       		.byte	0x3d
 336 00eb 97000000 		.4byte	0x97
 337 00ef 04       		.uleb128 0x4
 338 00f0 83040000 		.4byte	.LASF21
 339 00f4 05       		.byte	0x5
 340 00f5 3E       		.byte	0x3e
 341 00f6 97000000 		.4byte	0x97
 342 00fa 04       		.uleb128 0x4
ARM GAS  /tmp/ccbQOnDu.s 			page 7


 343 00fb AA040000 		.4byte	.LASF22
 344 00ff 05       		.byte	0x5
 345 0100 40       		.byte	0x40
 346 0101 AD000000 		.4byte	0xad
 347 0105 04       		.uleb128 0x4
 348 0106 58020000 		.4byte	.LASF23
 349 010a 05       		.byte	0x5
 350 010b 41       		.byte	0x41
 351 010c A2000000 		.4byte	0xa2
 352 0110 04       		.uleb128 0x4
 353 0111 A2030000 		.4byte	.LASF24
 354 0115 05       		.byte	0x5
 355 0116 43       		.byte	0x43
 356 0117 AD000000 		.4byte	0xad
 357 011b 04       		.uleb128 0x4
 358 011c E9010000 		.4byte	.LASF25
 359 0120 05       		.byte	0x5
 360 0121 45       		.byte	0x45
 361 0122 A2000000 		.4byte	0xa2
 362 0126 04       		.uleb128 0x4
 363 0127 69020000 		.4byte	.LASF26
 364 012b 05       		.byte	0x5
 365 012c 46       		.byte	0x46
 366 012d AD000000 		.4byte	0xad
 367 0131 04       		.uleb128 0x4
 368 0132 D3050000 		.4byte	.LASF27
 369 0136 06       		.byte	0x6
 370 0137 33       		.byte	0x33
 371 0138 AD000000 		.4byte	0xad
 372 013c 04       		.uleb128 0x4
 373 013d C5050000 		.4byte	.LASF28
 374 0141 06       		.byte	0x6
 375 0142 3F       		.byte	0x3f
 376 0143 47010000 		.4byte	0x147
 377 0147 05       		.uleb128 0x5
 378 0148 44020000 		.4byte	.LASF47
 379 014c 60       		.byte	0x60
 380 014d 07       		.byte	0x7
 381 014e 9A       		.byte	0x9a
 382 014f 32020000 		.4byte	0x232
 383 0153 06       		.uleb128 0x6
 384 0154 1A040000 		.4byte	.LASF29
 385 0158 07       		.byte	0x7
 386 0159 9B       		.byte	0x9b
 387 015a 67020000 		.4byte	0x267
 388 015e 00       		.byte	0
 389 015f 06       		.uleb128 0x6
 390 0160 4F040000 		.4byte	.LASF30
 391 0164 07       		.byte	0x7
 392 0165 9C       		.byte	0x9c
 393 0166 FA000000 		.4byte	0xfa
 394 016a 08       		.byte	0x8
 395 016b 07       		.uleb128 0x7
 396 016c 63747800 		.ascii	"ctx\000"
 397 0170 07       		.byte	0x7
 398 0171 9D       		.byte	0x9d
 399 0172 74060000 		.4byte	0x674
ARM GAS  /tmp/ccbQOnDu.s 			page 8


 400 0176 0C       		.byte	0xc
 401 0177 06       		.uleb128 0x6
 402 0178 D2030000 		.4byte	.LASF31
 403 017c 07       		.byte	0x7
 404 017d 9F       		.byte	0x9f
 405 017e 3D020000 		.4byte	0x23d
 406 0182 10       		.byte	0x10
 407 0183 06       		.uleb128 0x6
 408 0184 AA050000 		.4byte	.LASF32
 409 0188 07       		.byte	0x7
 410 0189 A0       		.byte	0xa0
 411 018a 3D020000 		.4byte	0x23d
 412 018e 14       		.byte	0x14
 413 018f 06       		.uleb128 0x6
 414 0190 3F020000 		.4byte	.LASF33
 415 0194 07       		.byte	0x7
 416 0195 A7       		.byte	0xa7
 417 0196 AC0A0000 		.4byte	0xaac
 418 019a 18       		.byte	0x18
 419 019b 06       		.uleb128 0x6
 420 019c 9E050000 		.4byte	.LASF34
 421 01a0 07       		.byte	0x7
 422 01a1 B0       		.byte	0xb0
 423 01a2 BE0A0000 		.4byte	0xabe
 424 01a6 1C       		.byte	0x1c
 425 01a7 06       		.uleb128 0x6
 426 01a8 63010000 		.4byte	.LASF35
 427 01ac 07       		.byte	0x7
 428 01ad B5       		.byte	0xb5
 429 01ae E4000000 		.4byte	0xe4
 430 01b2 20       		.byte	0x20
 431 01b3 06       		.uleb128 0x6
 432 01b4 AF060000 		.4byte	.LASF36
 433 01b8 07       		.byte	0x7
 434 01b9 B9       		.byte	0xb9
 435 01ba D9000000 		.4byte	0xd9
 436 01be 21       		.byte	0x21
 437 01bf 06       		.uleb128 0x6
 438 01c0 F6040000 		.4byte	.LASF37
 439 01c4 07       		.byte	0x7
 440 01c5 BE       		.byte	0xbe
 441 01c6 EF000000 		.4byte	0xef
 442 01ca 22       		.byte	0x22
 443 01cb 08       		.uleb128 0x8
 444 01cc 7500     		.ascii	"u\000"
 445 01ce 07       		.byte	0x7
 446 01cf 0F01     		.2byte	0x10f
 447 01d1 E1090000 		.4byte	0x9e1
 448 01d5 24       		.byte	0x24
 449 01d6 09       		.uleb128 0x9
 450 01d7 CD010000 		.4byte	.LASF38
 451 01db 07       		.byte	0x7
 452 01dc 1401     		.2byte	0x114
 453 01de 43020000 		.4byte	0x243
 454 01e2 28       		.byte	0x28
 455 01e3 09       		.uleb128 0x9
 456 01e4 5A010000 		.4byte	.LASF39
ARM GAS  /tmp/ccbQOnDu.s 			page 9


 457 01e8 07       		.byte	0x7
 458 01e9 1A01     		.2byte	0x11a
 459 01eb 67020000 		.4byte	0x267
 460 01ef 2C       		.byte	0x2c
 461 01f0 09       		.uleb128 0x9
 462 01f1 70020000 		.4byte	.LASF40
 463 01f5 07       		.byte	0x7
 464 01f6 2001     		.2byte	0x120
 465 01f8 10010000 		.4byte	0x110
 466 01fc 34       		.byte	0x34
 467 01fd 09       		.uleb128 0x9
 468 01fe C7060000 		.4byte	.LASF41
 469 0202 07       		.byte	0x7
 470 0203 2701     		.2byte	0x127
 471 0205 A60A0000 		.4byte	0xaa6
 472 0209 38       		.byte	0x38
 473 020a 09       		.uleb128 0x9
 474 020b D8030000 		.4byte	.LASF42
 475 020f 07       		.byte	0x7
 476 0210 2B01     		.2byte	0x12b
 477 0212 FA000000 		.4byte	0xfa
 478 0216 3C       		.byte	0x3c
 479 0217 09       		.uleb128 0x9
 480 0218 21020000 		.4byte	.LASF43
 481 021c 07       		.byte	0x7
 482 021d 3201     		.2byte	0x132
 483 021f 1A030000 		.4byte	0x31a
 484 0223 40       		.byte	0x40
 485 0224 09       		.uleb128 0x9
 486 0225 80010000 		.4byte	.LASF44
 487 0229 07       		.byte	0x7
 488 022a 3801     		.2byte	0x138
 489 022c 92090000 		.4byte	0x992
 490 0230 48       		.byte	0x48
 491 0231 00       		.byte	0
 492 0232 04       		.uleb128 0x4
 493 0233 F0030000 		.4byte	.LASF45
 494 0237 06       		.byte	0x6
 495 0238 44       		.byte	0x44
 496 0239 3D020000 		.4byte	0x23d
 497 023d 0A       		.uleb128 0xa
 498 023e 04       		.byte	0x4
 499 023f 3C010000 		.4byte	0x13c
 500 0243 04       		.uleb128 0x4
 501 0244 84000000 		.4byte	.LASF46
 502 0248 06       		.byte	0x6
 503 0249 49       		.byte	0x49
 504 024a 4E020000 		.4byte	0x24e
 505 024e 05       		.uleb128 0x5
 506 024f 76050000 		.4byte	.LASF48
 507 0253 04       		.byte	0x4
 508 0254 07       		.byte	0x7
 509 0255 88       		.byte	0x88
 510 0256 67020000 		.4byte	0x267
 511 025a 06       		.uleb128 0x6
 512 025b EE000000 		.4byte	.LASF49
 513 025f 07       		.byte	0x7
ARM GAS  /tmp/ccbQOnDu.s 			page 10


 514 0260 89       		.byte	0x89
 515 0261 3D020000 		.4byte	0x23d
 516 0265 00       		.byte	0
 517 0266 00       		.byte	0
 518 0267 04       		.uleb128 0x4
 519 0268 49060000 		.4byte	.LASF50
 520 026c 06       		.byte	0x6
 521 026d 50       		.byte	0x50
 522 026e 72020000 		.4byte	0x272
 523 0272 05       		.uleb128 0x5
 524 0273 64000000 		.4byte	.LASF51
 525 0277 08       		.byte	0x8
 526 0278 07       		.byte	0x7
 527 0279 8F       		.byte	0x8f
 528 027a 97020000 		.4byte	0x297
 529 027e 06       		.uleb128 0x6
 530 027f EE000000 		.4byte	.LASF49
 531 0283 07       		.byte	0x7
 532 0284 90       		.byte	0x90
 533 0285 3D020000 		.4byte	0x23d
 534 0289 00       		.byte	0
 535 028a 06       		.uleb128 0x6
 536 028b 53000000 		.4byte	.LASF52
 537 028f 07       		.byte	0x7
 538 0290 91       		.byte	0x91
 539 0291 3D020000 		.4byte	0x23d
 540 0295 04       		.byte	0x4
 541 0296 00       		.byte	0
 542 0297 04       		.uleb128 0x4
 543 0298 00000000 		.4byte	.LASF53
 544 029c 06       		.byte	0x6
 545 029d 57       		.byte	0x57
 546 029e A2020000 		.4byte	0x2a2
 547 02a2 0B       		.uleb128 0xb
 548 02a3 94030000 		.4byte	.LASF54
 549 02a7 1C       		.byte	0x1c
 550 02a8 07       		.byte	0x7
 551 02a9 6A01     		.2byte	0x16a
 552 02ab FE020000 		.4byte	0x2fe
 553 02af 09       		.uleb128 0x9
 554 02b0 1A040000 		.4byte	.LASF29
 555 02b4 07       		.byte	0x7
 556 02b5 6B01     		.2byte	0x16b
 557 02b7 67020000 		.4byte	0x267
 558 02bb 00       		.byte	0
 559 02bc 09       		.uleb128 0x9
 560 02bd 4F040000 		.4byte	.LASF30
 561 02c1 07       		.byte	0x7
 562 02c2 6C01     		.2byte	0x16c
 563 02c4 FA000000 		.4byte	0xfa
 564 02c8 08       		.byte	0x8
 565 02c9 08       		.uleb128 0x8
 566 02ca 63747800 		.ascii	"ctx\000"
 567 02ce 07       		.byte	0x7
 568 02cf 6E01     		.2byte	0x16e
 569 02d1 74060000 		.4byte	0x674
 570 02d5 0C       		.byte	0xc
ARM GAS  /tmp/ccbQOnDu.s 			page 11


 571 02d6 09       		.uleb128 0x9
 572 02d7 D2030000 		.4byte	.LASF31
 573 02db 07       		.byte	0x7
 574 02dc 7101     		.2byte	0x171
 575 02de 3D020000 		.4byte	0x23d
 576 02e2 10       		.byte	0x10
 577 02e3 09       		.uleb128 0x9
 578 02e4 AA050000 		.4byte	.LASF32
 579 02e8 07       		.byte	0x7
 580 02e9 7201     		.2byte	0x172
 581 02eb 3D020000 		.4byte	0x23d
 582 02ef 14       		.byte	0x14
 583 02f0 09       		.uleb128 0x9
 584 02f1 54040000 		.4byte	.LASF55
 585 02f5 07       		.byte	0x7
 586 02f6 7501     		.2byte	0x175
 587 02f8 3D020000 		.4byte	0x23d
 588 02fc 18       		.byte	0x18
 589 02fd 00       		.byte	0
 590 02fe 04       		.uleb128 0x4
 591 02ff DD050000 		.4byte	.LASF56
 592 0303 06       		.byte	0x6
 593 0304 5C       		.byte	0x5c
 594 0305 09030000 		.4byte	0x309
 595 0309 0A       		.uleb128 0xa
 596 030a 04       		.byte	0x4
 597 030b 0F030000 		.4byte	0x30f
 598 030f 0C       		.uleb128 0xc
 599 0310 1A030000 		.4byte	0x31a
 600 0314 0D       		.uleb128 0xd
 601 0315 1A030000 		.4byte	0x31a
 602 0319 00       		.byte	0
 603 031a 0E       		.uleb128 0xe
 604 031b 04       		.byte	0x4
 605 031c 04       		.uleb128 0x4
 606 031d 9A040000 		.4byte	.LASF57
 607 0321 06       		.byte	0x6
 608 0322 61       		.byte	0x61
 609 0323 27030000 		.4byte	0x327
 610 0327 0B       		.uleb128 0xb
 611 0328 43050000 		.4byte	.LASF58
 612 032c 14       		.byte	0x14
 613 032d 07       		.byte	0x7
 614 032e 4501     		.2byte	0x145
 615 0330 76030000 		.4byte	0x376
 616 0334 09       		.uleb128 0x9
 617 0335 EE000000 		.4byte	.LASF49
 618 0339 07       		.byte	0x7
 619 033a 4601     		.2byte	0x146
 620 033c C40A0000 		.4byte	0xac4
 621 0340 00       		.byte	0
 622 0341 09       		.uleb128 0x9
 623 0342 53000000 		.4byte	.LASF52
 624 0346 07       		.byte	0x7
 625 0347 4701     		.2byte	0x147
 626 0349 C40A0000 		.4byte	0xac4
 627 034d 04       		.byte	0x4
ARM GAS  /tmp/ccbQOnDu.s 			page 12


 628 034e 09       		.uleb128 0x9
 629 034f 13000000 		.4byte	.LASF59
 630 0353 07       		.byte	0x7
 631 0354 4801     		.2byte	0x148
 632 0356 31010000 		.4byte	0x131
 633 035a 08       		.byte	0x8
 634 035b 09       		.uleb128 0x9
 635 035c 7B010000 		.4byte	.LASF60
 636 0360 07       		.byte	0x7
 637 0361 4901     		.2byte	0x149
 638 0363 FE020000 		.4byte	0x2fe
 639 0367 0C       		.byte	0xc
 640 0368 08       		.uleb128 0x8
 641 0369 70617200 		.ascii	"par\000"
 642 036d 07       		.byte	0x7
 643 036e 4B01     		.2byte	0x14b
 644 0370 1A030000 		.4byte	0x31a
 645 0374 10       		.byte	0x10
 646 0375 00       		.byte	0
 647 0376 04       		.uleb128 0x4
 648 0377 D2000000 		.4byte	.LASF61
 649 037b 06       		.byte	0x6
 650 037c 66       		.byte	0x66
 651 037d 81030000 		.4byte	0x381
 652 0381 0B       		.uleb128 0xb
 653 0382 03040000 		.4byte	.LASF62
 654 0386 10       		.byte	0x10
 655 0387 07       		.byte	0x7
 656 0388 5501     		.2byte	0x155
 657 038a C3030000 		.4byte	0x3c3
 658 038e 09       		.uleb128 0x9
 659 038f EE000000 		.4byte	.LASF49
 660 0393 07       		.byte	0x7
 661 0394 5601     		.2byte	0x156
 662 0396 C40A0000 		.4byte	0xac4
 663 039a 00       		.byte	0
 664 039b 09       		.uleb128 0x9
 665 039c 53000000 		.4byte	.LASF52
 666 03a0 07       		.byte	0x7
 667 03a1 5801     		.2byte	0x158
 668 03a3 C40A0000 		.4byte	0xac4
 669 03a7 04       		.byte	0x4
 670 03a8 09       		.uleb128 0x9
 671 03a9 13000000 		.4byte	.LASF59
 672 03ad 07       		.byte	0x7
 673 03ae 5A01     		.2byte	0x15a
 674 03b0 31010000 		.4byte	0x131
 675 03b4 08       		.byte	0x8
 676 03b5 09       		.uleb128 0x9
 677 03b6 05050000 		.4byte	.LASF63
 678 03ba 07       		.byte	0x7
 679 03bb 6201     		.2byte	0x162
 680 03bd 31010000 		.4byte	0x131
 681 03c1 0C       		.byte	0xc
 682 03c2 00       		.byte	0
 683 03c3 04       		.uleb128 0x4
 684 03c4 75000000 		.4byte	.LASF64
ARM GAS  /tmp/ccbQOnDu.s 			page 13


 685 03c8 06       		.byte	0x6
 686 03c9 6B       		.byte	0x6b
 687 03ca CE030000 		.4byte	0x3ce
 688 03ce 0B       		.uleb128 0xb
 689 03cf BD010000 		.4byte	.LASF65
 690 03d3 04       		.byte	0x4
 691 03d4 07       		.byte	0x7
 692 03d5 7C01     		.2byte	0x17c
 693 03d7 E9030000 		.4byte	0x3e9
 694 03db 09       		.uleb128 0x9
 695 03dc F4050000 		.4byte	.LASF66
 696 03e0 07       		.byte	0x7
 697 03e1 8401     		.2byte	0x184
 698 03e3 CA0A0000 		.4byte	0xaca
 699 03e7 00       		.byte	0
 700 03e8 00       		.byte	0
 701 03e9 04       		.uleb128 0x4
 702 03ea 18060000 		.4byte	.LASF67
 703 03ee 06       		.byte	0x6
 704 03ef 70       		.byte	0x70
 705 03f0 F4030000 		.4byte	0x3f4
 706 03f4 0B       		.uleb128 0xb
 707 03f5 1A050000 		.4byte	.LASF68
 708 03f9 D0       		.byte	0xd0
 709 03fa 07       		.byte	0x7
 710 03fb 9C01     		.2byte	0x19c
 711 03fd 4F040000 		.4byte	0x44f
 712 0401 09       		.uleb128 0x9
 713 0402 67060000 		.4byte	.LASF69
 714 0406 07       		.byte	0x7
 715 0407 A001     		.2byte	0x1a0
 716 0409 97020000 		.4byte	0x297
 717 040d 00       		.byte	0
 718 040e 09       		.uleb128 0x9
 719 040f 18010000 		.4byte	.LASF70
 720 0413 07       		.byte	0x7
 721 0414 A401     		.2byte	0x1a4
 722 0416 76030000 		.4byte	0x376
 723 041a 1C       		.byte	0x1c
 724 041b 08       		.uleb128 0x8
 725 041c 64626700 		.ascii	"dbg\000"
 726 0420 07       		.byte	0x7
 727 0421 A801     		.2byte	0x1a8
 728 0423 C3030000 		.4byte	0x3c3
 729 0427 2C       		.byte	0x2c
 730 0428 09       		.uleb128 0x9
 731 0429 BF000000 		.4byte	.LASF71
 732 042d 07       		.byte	0x7
 733 042e AC01     		.2byte	0x1ac
 734 0430 3C010000 		.4byte	0x13c
 735 0434 30       		.byte	0x30
 736 0435 08       		.uleb128 0x8
 737 0436 746D00   		.ascii	"tm\000"
 738 0439 07       		.byte	0x7
 739 043a B101     		.2byte	0x1b1
 740 043c 44090000 		.4byte	0x944
 741 0440 90       		.byte	0x90
ARM GAS  /tmp/ccbQOnDu.s 			page 14


 742 0441 09       		.uleb128 0x9
 743 0442 30000000 		.4byte	.LASF72
 744 0446 07       		.byte	0x7
 745 0447 B701     		.2byte	0x1b7
 746 0449 D6090000 		.4byte	0x9d6
 747 044d 98       		.byte	0x98
 748 044e 00       		.byte	0
 749 044f 03       		.uleb128 0x3
 750 0450 04       		.byte	0x4
 751 0451 07       		.byte	0x7
 752 0452 E7030000 		.4byte	.LASF73
 753 0456 0F       		.uleb128 0xf
 754 0457 AD000000 		.4byte	0xad
 755 045b 10       		.uleb128 0x10
 756 045c 8C       		.byte	0x8c
 757 045d 08       		.byte	0x8
 758 045e E501     		.2byte	0x1e5
 759 0460 76050000 		.4byte	0x576
 760 0464 09       		.uleb128 0x9
 761 0465 E8000000 		.4byte	.LASF74
 762 0469 08       		.byte	0x8
 763 046a E701     		.2byte	0x1e7
 764 046c 76050000 		.4byte	0x576
 765 0470 00       		.byte	0
 766 0471 09       		.uleb128 0x9
 767 0472 53020000 		.4byte	.LASF75
 768 0476 08       		.byte	0x8
 769 0477 E801     		.2byte	0x1e8
 770 0479 56040000 		.4byte	0x456
 771 047d 04       		.byte	0x4
 772 047e 09       		.uleb128 0x9
 773 047f 1C020000 		.4byte	.LASF76
 774 0483 08       		.byte	0x8
 775 0484 E901     		.2byte	0x1e9
 776 0486 56040000 		.4byte	0x456
 777 048a 08       		.byte	0x8
 778 048b 09       		.uleb128 0x9
 779 048c 5E020000 		.4byte	.LASF77
 780 0490 08       		.byte	0x8
 781 0491 EA01     		.2byte	0x1ea
 782 0493 56040000 		.4byte	0x456
 783 0497 0C       		.byte	0xc
 784 0498 08       		.uleb128 0x8
 785 0499 53435200 		.ascii	"SCR\000"
 786 049d 08       		.byte	0x8
 787 049e EB01     		.2byte	0x1eb
 788 04a0 56040000 		.4byte	0x456
 789 04a4 10       		.byte	0x10
 790 04a5 08       		.uleb128 0x8
 791 04a6 43435200 		.ascii	"CCR\000"
 792 04aa 08       		.byte	0x8
 793 04ab EC01     		.2byte	0x1ec
 794 04ad 56040000 		.4byte	0x456
 795 04b1 14       		.byte	0x14
 796 04b2 08       		.uleb128 0x8
 797 04b3 53485000 		.ascii	"SHP\000"
 798 04b7 08       		.byte	0x8
ARM GAS  /tmp/ccbQOnDu.s 			page 15


 799 04b8 ED01     		.2byte	0x1ed
 800 04ba 8B050000 		.4byte	0x58b
 801 04be 18       		.byte	0x18
 802 04bf 09       		.uleb128 0x9
 803 04c0 E3040000 		.4byte	.LASF78
 804 04c4 08       		.byte	0x8
 805 04c5 EE01     		.2byte	0x1ee
 806 04c7 56040000 		.4byte	0x456
 807 04cb 24       		.byte	0x24
 808 04cc 09       		.uleb128 0x9
 809 04cd 20040000 		.4byte	.LASF79
 810 04d1 08       		.byte	0x8
 811 04d2 EF01     		.2byte	0x1ef
 812 04d4 56040000 		.4byte	0x456
 813 04d8 28       		.byte	0x28
 814 04d9 09       		.uleb128 0x9
 815 04da C2060000 		.4byte	.LASF80
 816 04de 08       		.byte	0x8
 817 04df F001     		.2byte	0x1f0
 818 04e1 56040000 		.4byte	0x456
 819 04e5 2C       		.byte	0x2c
 820 04e6 09       		.uleb128 0x9
 821 04e7 64020000 		.4byte	.LASF81
 822 04eb 08       		.byte	0x8
 823 04ec F101     		.2byte	0x1f1
 824 04ee 56040000 		.4byte	0x456
 825 04f2 30       		.byte	0x30
 826 04f3 09       		.uleb128 0x9
 827 04f4 79020000 		.4byte	.LASF82
 828 04f8 08       		.byte	0x8
 829 04f9 F201     		.2byte	0x1f2
 830 04fb 56040000 		.4byte	0x456
 831 04ff 34       		.byte	0x34
 832 0500 09       		.uleb128 0x9
 833 0501 4E020000 		.4byte	.LASF83
 834 0505 08       		.byte	0x8
 835 0506 F301     		.2byte	0x1f3
 836 0508 56040000 		.4byte	0x456
 837 050c 38       		.byte	0x38
 838 050d 09       		.uleb128 0x9
 839 050e 71050000 		.4byte	.LASF84
 840 0512 08       		.byte	0x8
 841 0513 F401     		.2byte	0x1f4
 842 0515 56040000 		.4byte	0x456
 843 0519 3C       		.byte	0x3c
 844 051a 08       		.uleb128 0x8
 845 051b 50465200 		.ascii	"PFR\000"
 846 051f 08       		.byte	0x8
 847 0520 F501     		.2byte	0x1f5
 848 0522 A0050000 		.4byte	0x5a0
 849 0526 40       		.byte	0x40
 850 0527 08       		.uleb128 0x8
 851 0528 44465200 		.ascii	"DFR\000"
 852 052c 08       		.byte	0x8
 853 052d F601     		.2byte	0x1f6
 854 052f 76050000 		.4byte	0x576
 855 0533 48       		.byte	0x48
ARM GAS  /tmp/ccbQOnDu.s 			page 16


 856 0534 08       		.uleb128 0x8
 857 0535 41445200 		.ascii	"ADR\000"
 858 0539 08       		.byte	0x8
 859 053a F701     		.2byte	0x1f7
 860 053c 76050000 		.4byte	0x576
 861 0540 4C       		.byte	0x4c
 862 0541 09       		.uleb128 0x9
 863 0542 62060000 		.4byte	.LASF85
 864 0546 08       		.byte	0x8
 865 0547 F801     		.2byte	0x1f8
 866 0549 BA050000 		.4byte	0x5ba
 867 054d 50       		.byte	0x50
 868 054e 09       		.uleb128 0x9
 869 054f 13010000 		.4byte	.LASF86
 870 0553 08       		.byte	0x8
 871 0554 F901     		.2byte	0x1f9
 872 0556 D4050000 		.4byte	0x5d4
 873 055a 60       		.byte	0x60
 874 055b 09       		.uleb128 0x9
 875 055c 8B040000 		.4byte	.LASF87
 876 0560 08       		.byte	0x8
 877 0561 FA01     		.2byte	0x1fa
 878 0563 C4050000 		.4byte	0x5c4
 879 0567 74       		.byte	0x74
 880 0568 09       		.uleb128 0x9
 881 0569 BC060000 		.4byte	.LASF88
 882 056d 08       		.byte	0x8
 883 056e FB01     		.2byte	0x1fb
 884 0570 56040000 		.4byte	0x456
 885 0574 88       		.byte	0x88
 886 0575 00       		.byte	0
 887 0576 11       		.uleb128 0x11
 888 0577 56040000 		.4byte	0x456
 889 057b 12       		.uleb128 0x12
 890 057c 97000000 		.4byte	0x97
 891 0580 8B050000 		.4byte	0x58b
 892 0584 13       		.uleb128 0x13
 893 0585 4F040000 		.4byte	0x44f
 894 0589 0B       		.byte	0xb
 895 058a 00       		.byte	0
 896 058b 0F       		.uleb128 0xf
 897 058c 7B050000 		.4byte	0x57b
 898 0590 12       		.uleb128 0x12
 899 0591 AD000000 		.4byte	0xad
 900 0595 A0050000 		.4byte	0x5a0
 901 0599 13       		.uleb128 0x13
 902 059a 4F040000 		.4byte	0x44f
 903 059e 01       		.byte	0x1
 904 059f 00       		.byte	0
 905 05a0 11       		.uleb128 0x11
 906 05a1 A5050000 		.4byte	0x5a5
 907 05a5 0F       		.uleb128 0xf
 908 05a6 90050000 		.4byte	0x590
 909 05aa 12       		.uleb128 0x12
 910 05ab AD000000 		.4byte	0xad
 911 05af BA050000 		.4byte	0x5ba
 912 05b3 13       		.uleb128 0x13
ARM GAS  /tmp/ccbQOnDu.s 			page 17


 913 05b4 4F040000 		.4byte	0x44f
 914 05b8 03       		.byte	0x3
 915 05b9 00       		.byte	0
 916 05ba 11       		.uleb128 0x11
 917 05bb BF050000 		.4byte	0x5bf
 918 05bf 0F       		.uleb128 0xf
 919 05c0 AA050000 		.4byte	0x5aa
 920 05c4 12       		.uleb128 0x12
 921 05c5 AD000000 		.4byte	0xad
 922 05c9 D4050000 		.4byte	0x5d4
 923 05cd 13       		.uleb128 0x13
 924 05ce 4F040000 		.4byte	0x44f
 925 05d2 04       		.byte	0x4
 926 05d3 00       		.byte	0
 927 05d4 11       		.uleb128 0x11
 928 05d5 D9050000 		.4byte	0x5d9
 929 05d9 0F       		.uleb128 0xf
 930 05da C4050000 		.4byte	0x5c4
 931 05de 14       		.uleb128 0x14
 932 05df B4010000 		.4byte	.LASF89
 933 05e3 08       		.byte	0x8
 934 05e4 FC01     		.2byte	0x1fc
 935 05e6 5B040000 		.4byte	0x45b
 936 05ea 12       		.uleb128 0x12
 937 05eb AD000000 		.4byte	0xad
 938 05ef FA050000 		.4byte	0x5fa
 939 05f3 13       		.uleb128 0x13
 940 05f4 4F040000 		.4byte	0x44f
 941 05f8 00       		.byte	0
 942 05f9 00       		.byte	0
 943 05fa 10       		.uleb128 0x10
 944 05fb 18       		.byte	0x18
 945 05fc 08       		.byte	0x8
 946 05fd 1105     		.2byte	0x511
 947 05ff 52060000 		.4byte	0x652
 948 0603 09       		.uleb128 0x9
 949 0604 8B040000 		.4byte	.LASF87
 950 0608 08       		.byte	0x8
 951 0609 1305     		.2byte	0x513
 952 060b EA050000 		.4byte	0x5ea
 953 060f 00       		.byte	0
 954 0610 09       		.uleb128 0x9
 955 0611 E1030000 		.4byte	.LASF90
 956 0615 08       		.byte	0x8
 957 0616 1405     		.2byte	0x514
 958 0618 56040000 		.4byte	0x456
 959 061c 04       		.byte	0x4
 960 061d 09       		.uleb128 0x9
 961 061e 31050000 		.4byte	.LASF91
 962 0622 08       		.byte	0x8
 963 0623 1505     		.2byte	0x515
 964 0625 56040000 		.4byte	0x456
 965 0629 08       		.byte	0x8
 966 062a 09       		.uleb128 0x9
 967 062b 20000000 		.4byte	.LASF92
 968 062f 08       		.byte	0x8
 969 0630 1605     		.2byte	0x516
ARM GAS  /tmp/ccbQOnDu.s 			page 18


 970 0632 56040000 		.4byte	0x456
 971 0636 0C       		.byte	0xc
 972 0637 09       		.uleb128 0x9
 973 0638 77040000 		.4byte	.LASF93
 974 063c 08       		.byte	0x8
 975 063d 1705     		.2byte	0x517
 976 063f 76050000 		.4byte	0x576
 977 0643 10       		.byte	0x10
 978 0644 09       		.uleb128 0x9
 979 0645 7D040000 		.4byte	.LASF94
 980 0649 08       		.byte	0x8
 981 064a 1805     		.2byte	0x518
 982 064c 76050000 		.4byte	0x576
 983 0650 14       		.byte	0x14
 984 0651 00       		.byte	0
 985 0652 14       		.uleb128 0x14
 986 0653 EF010000 		.4byte	.LASF95
 987 0657 08       		.byte	0x8
 988 0658 1905     		.2byte	0x519
 989 065a FA050000 		.4byte	0x5fa
 990 065e 04       		.uleb128 0x4
 991 065f AB010000 		.4byte	.LASF96
 992 0663 09       		.byte	0x9
 993 0664 65       		.byte	0x65
 994 0665 1A030000 		.4byte	0x31a
 995 0669 04       		.uleb128 0x4
 996 066a C7030000 		.4byte	.LASF97
 997 066e 09       		.byte	0x9
 998 066f 6D       		.byte	0x6d
 999 0670 B8000000 		.4byte	0xb8
 1000 0674 05       		.uleb128 0x5
 1001 0675 25040000 		.4byte	.LASF98
 1002 0679 04       		.byte	0x4
 1003 067a 09       		.byte	0x9
 1004 067b 89       		.byte	0x89
 1005 067c 8C060000 		.4byte	0x68c
 1006 0680 07       		.uleb128 0x7
 1007 0681 737000   		.ascii	"sp\000"
 1008 0684 09       		.byte	0x9
 1009 0685 8A       		.byte	0x8a
 1010 0686 D8070000 		.4byte	0x7d8
 1011 068a 00       		.byte	0
 1012 068b 00       		.byte	0
 1013 068c 0B       		.uleb128 0xb
 1014 068d 58000000 		.4byte	.LASF99
 1015 0691 64       		.byte	0x64
 1016 0692 0A       		.byte	0xa
 1017 0693 5901     		.2byte	0x159
 1018 0695 D8070000 		.4byte	0x7d8
 1019 0699 08       		.uleb128 0x8
 1020 069a 73313600 		.ascii	"s16\000"
 1021 069e 0A       		.byte	0xa
 1022 069f 5B01     		.2byte	0x15b
 1023 06a1 5E060000 		.4byte	0x65e
 1024 06a5 00       		.byte	0
 1025 06a6 08       		.uleb128 0x8
 1026 06a7 73313700 		.ascii	"s17\000"
ARM GAS  /tmp/ccbQOnDu.s 			page 19


 1027 06ab 0A       		.byte	0xa
 1028 06ac 5C01     		.2byte	0x15c
 1029 06ae 5E060000 		.4byte	0x65e
 1030 06b2 04       		.byte	0x4
 1031 06b3 08       		.uleb128 0x8
 1032 06b4 73313800 		.ascii	"s18\000"
 1033 06b8 0A       		.byte	0xa
 1034 06b9 5D01     		.2byte	0x15d
 1035 06bb 5E060000 		.4byte	0x65e
 1036 06bf 08       		.byte	0x8
 1037 06c0 08       		.uleb128 0x8
 1038 06c1 73313900 		.ascii	"s19\000"
 1039 06c5 0A       		.byte	0xa
 1040 06c6 5E01     		.2byte	0x15e
 1041 06c8 5E060000 		.4byte	0x65e
 1042 06cc 0C       		.byte	0xc
 1043 06cd 08       		.uleb128 0x8
 1044 06ce 73323000 		.ascii	"s20\000"
 1045 06d2 0A       		.byte	0xa
 1046 06d3 5F01     		.2byte	0x15f
 1047 06d5 5E060000 		.4byte	0x65e
 1048 06d9 10       		.byte	0x10
 1049 06da 08       		.uleb128 0x8
 1050 06db 73323100 		.ascii	"s21\000"
 1051 06df 0A       		.byte	0xa
 1052 06e0 6001     		.2byte	0x160
 1053 06e2 5E060000 		.4byte	0x65e
 1054 06e6 14       		.byte	0x14
 1055 06e7 08       		.uleb128 0x8
 1056 06e8 73323200 		.ascii	"s22\000"
 1057 06ec 0A       		.byte	0xa
 1058 06ed 6101     		.2byte	0x161
 1059 06ef 5E060000 		.4byte	0x65e
 1060 06f3 18       		.byte	0x18
 1061 06f4 08       		.uleb128 0x8
 1062 06f5 73323300 		.ascii	"s23\000"
 1063 06f9 0A       		.byte	0xa
 1064 06fa 6201     		.2byte	0x162
 1065 06fc 5E060000 		.4byte	0x65e
 1066 0700 1C       		.byte	0x1c
 1067 0701 08       		.uleb128 0x8
 1068 0702 73323400 		.ascii	"s24\000"
 1069 0706 0A       		.byte	0xa
 1070 0707 6301     		.2byte	0x163
 1071 0709 5E060000 		.4byte	0x65e
 1072 070d 20       		.byte	0x20
 1073 070e 08       		.uleb128 0x8
 1074 070f 73323500 		.ascii	"s25\000"
 1075 0713 0A       		.byte	0xa
 1076 0714 6401     		.2byte	0x164
 1077 0716 5E060000 		.4byte	0x65e
 1078 071a 24       		.byte	0x24
 1079 071b 08       		.uleb128 0x8
 1080 071c 73323600 		.ascii	"s26\000"
 1081 0720 0A       		.byte	0xa
 1082 0721 6501     		.2byte	0x165
 1083 0723 5E060000 		.4byte	0x65e
ARM GAS  /tmp/ccbQOnDu.s 			page 20


 1084 0727 28       		.byte	0x28
 1085 0728 08       		.uleb128 0x8
 1086 0729 73323700 		.ascii	"s27\000"
 1087 072d 0A       		.byte	0xa
 1088 072e 6601     		.2byte	0x166
 1089 0730 5E060000 		.4byte	0x65e
 1090 0734 2C       		.byte	0x2c
 1091 0735 08       		.uleb128 0x8
 1092 0736 73323800 		.ascii	"s28\000"
 1093 073a 0A       		.byte	0xa
 1094 073b 6701     		.2byte	0x167
 1095 073d 5E060000 		.4byte	0x65e
 1096 0741 30       		.byte	0x30
 1097 0742 08       		.uleb128 0x8
 1098 0743 73323900 		.ascii	"s29\000"
 1099 0747 0A       		.byte	0xa
 1100 0748 6801     		.2byte	0x168
 1101 074a 5E060000 		.4byte	0x65e
 1102 074e 34       		.byte	0x34
 1103 074f 08       		.uleb128 0x8
 1104 0750 73333000 		.ascii	"s30\000"
 1105 0754 0A       		.byte	0xa
 1106 0755 6901     		.2byte	0x169
 1107 0757 5E060000 		.4byte	0x65e
 1108 075b 38       		.byte	0x38
 1109 075c 08       		.uleb128 0x8
 1110 075d 73333100 		.ascii	"s31\000"
 1111 0761 0A       		.byte	0xa
 1112 0762 6A01     		.2byte	0x16a
 1113 0764 5E060000 		.4byte	0x65e
 1114 0768 3C       		.byte	0x3c
 1115 0769 08       		.uleb128 0x8
 1116 076a 723400   		.ascii	"r4\000"
 1117 076d 0A       		.byte	0xa
 1118 076e 6C01     		.2byte	0x16c
 1119 0770 5E060000 		.4byte	0x65e
 1120 0774 40       		.byte	0x40
 1121 0775 08       		.uleb128 0x8
 1122 0776 723500   		.ascii	"r5\000"
 1123 0779 0A       		.byte	0xa
 1124 077a 6D01     		.2byte	0x16d
 1125 077c 5E060000 		.4byte	0x65e
 1126 0780 44       		.byte	0x44
 1127 0781 08       		.uleb128 0x8
 1128 0782 723600   		.ascii	"r6\000"
 1129 0785 0A       		.byte	0xa
 1130 0786 6E01     		.2byte	0x16e
 1131 0788 5E060000 		.4byte	0x65e
 1132 078c 48       		.byte	0x48
 1133 078d 08       		.uleb128 0x8
 1134 078e 723700   		.ascii	"r7\000"
 1135 0791 0A       		.byte	0xa
 1136 0792 6F01     		.2byte	0x16f
 1137 0794 5E060000 		.4byte	0x65e
 1138 0798 4C       		.byte	0x4c
 1139 0799 08       		.uleb128 0x8
 1140 079a 723800   		.ascii	"r8\000"
ARM GAS  /tmp/ccbQOnDu.s 			page 21


 1141 079d 0A       		.byte	0xa
 1142 079e 7001     		.2byte	0x170
 1143 07a0 5E060000 		.4byte	0x65e
 1144 07a4 50       		.byte	0x50
 1145 07a5 08       		.uleb128 0x8
 1146 07a6 723900   		.ascii	"r9\000"
 1147 07a9 0A       		.byte	0xa
 1148 07aa 7101     		.2byte	0x171
 1149 07ac 5E060000 		.4byte	0x65e
 1150 07b0 54       		.byte	0x54
 1151 07b1 08       		.uleb128 0x8
 1152 07b2 72313000 		.ascii	"r10\000"
 1153 07b6 0A       		.byte	0xa
 1154 07b7 7201     		.2byte	0x172
 1155 07b9 5E060000 		.4byte	0x65e
 1156 07bd 58       		.byte	0x58
 1157 07be 08       		.uleb128 0x8
 1158 07bf 72313100 		.ascii	"r11\000"
 1159 07c3 0A       		.byte	0xa
 1160 07c4 7301     		.2byte	0x173
 1161 07c6 5E060000 		.4byte	0x65e
 1162 07ca 5C       		.byte	0x5c
 1163 07cb 08       		.uleb128 0x8
 1164 07cc 6C7200   		.ascii	"lr\000"
 1165 07cf 0A       		.byte	0xa
 1166 07d0 7401     		.2byte	0x174
 1167 07d2 5E060000 		.4byte	0x65e
 1168 07d6 60       		.byte	0x60
 1169 07d7 00       		.byte	0
 1170 07d8 0A       		.uleb128 0xa
 1171 07d9 04       		.byte	0x4
 1172 07da 8C060000 		.4byte	0x68c
 1173 07de 0B       		.uleb128 0xb
 1174 07df 32040000 		.4byte	.LASF100
 1175 07e3 68       		.byte	0x68
 1176 07e4 0A       		.byte	0xa
 1177 07e5 3A01     		.2byte	0x13a
 1178 07e7 2F090000 		.4byte	0x92f
 1179 07eb 08       		.uleb128 0x8
 1180 07ec 723000   		.ascii	"r0\000"
 1181 07ef 0A       		.byte	0xa
 1182 07f0 3B01     		.2byte	0x13b
 1183 07f2 5E060000 		.4byte	0x65e
 1184 07f6 00       		.byte	0
 1185 07f7 08       		.uleb128 0x8
 1186 07f8 723100   		.ascii	"r1\000"
 1187 07fb 0A       		.byte	0xa
 1188 07fc 3C01     		.2byte	0x13c
 1189 07fe 5E060000 		.4byte	0x65e
 1190 0802 04       		.byte	0x4
 1191 0803 08       		.uleb128 0x8
 1192 0804 723200   		.ascii	"r2\000"
 1193 0807 0A       		.byte	0xa
 1194 0808 3D01     		.2byte	0x13d
 1195 080a 5E060000 		.4byte	0x65e
 1196 080e 08       		.byte	0x8
 1197 080f 08       		.uleb128 0x8
ARM GAS  /tmp/ccbQOnDu.s 			page 22


 1198 0810 723300   		.ascii	"r3\000"
 1199 0813 0A       		.byte	0xa
 1200 0814 3E01     		.2byte	0x13e
 1201 0816 5E060000 		.4byte	0x65e
 1202 081a 0C       		.byte	0xc
 1203 081b 08       		.uleb128 0x8
 1204 081c 72313200 		.ascii	"r12\000"
 1205 0820 0A       		.byte	0xa
 1206 0821 3F01     		.2byte	0x13f
 1207 0823 5E060000 		.4byte	0x65e
 1208 0827 10       		.byte	0x10
 1209 0828 09       		.uleb128 0x9
 1210 0829 2A050000 		.4byte	.LASF101
 1211 082d 0A       		.byte	0xa
 1212 082e 4001     		.2byte	0x140
 1213 0830 5E060000 		.4byte	0x65e
 1214 0834 14       		.byte	0x14
 1215 0835 08       		.uleb128 0x8
 1216 0836 706300   		.ascii	"pc\000"
 1217 0839 0A       		.byte	0xa
 1218 083a 4101     		.2byte	0x141
 1219 083c 5E060000 		.4byte	0x65e
 1220 0840 18       		.byte	0x18
 1221 0841 09       		.uleb128 0x9
 1222 0842 0E050000 		.4byte	.LASF102
 1223 0846 0A       		.byte	0xa
 1224 0847 4201     		.2byte	0x142
 1225 0849 5E060000 		.4byte	0x65e
 1226 084d 1C       		.byte	0x1c
 1227 084e 08       		.uleb128 0x8
 1228 084f 733000   		.ascii	"s0\000"
 1229 0852 0A       		.byte	0xa
 1230 0853 4401     		.2byte	0x144
 1231 0855 5E060000 		.4byte	0x65e
 1232 0859 20       		.byte	0x20
 1233 085a 08       		.uleb128 0x8
 1234 085b 733100   		.ascii	"s1\000"
 1235 085e 0A       		.byte	0xa
 1236 085f 4501     		.2byte	0x145
 1237 0861 5E060000 		.4byte	0x65e
 1238 0865 24       		.byte	0x24
 1239 0866 08       		.uleb128 0x8
 1240 0867 733200   		.ascii	"s2\000"
 1241 086a 0A       		.byte	0xa
 1242 086b 4601     		.2byte	0x146
 1243 086d 5E060000 		.4byte	0x65e
 1244 0871 28       		.byte	0x28
 1245 0872 08       		.uleb128 0x8
 1246 0873 733300   		.ascii	"s3\000"
 1247 0876 0A       		.byte	0xa
 1248 0877 4701     		.2byte	0x147
 1249 0879 5E060000 		.4byte	0x65e
 1250 087d 2C       		.byte	0x2c
 1251 087e 08       		.uleb128 0x8
 1252 087f 733400   		.ascii	"s4\000"
 1253 0882 0A       		.byte	0xa
 1254 0883 4801     		.2byte	0x148
ARM GAS  /tmp/ccbQOnDu.s 			page 23


 1255 0885 5E060000 		.4byte	0x65e
 1256 0889 30       		.byte	0x30
 1257 088a 08       		.uleb128 0x8
 1258 088b 733500   		.ascii	"s5\000"
 1259 088e 0A       		.byte	0xa
 1260 088f 4901     		.2byte	0x149
 1261 0891 5E060000 		.4byte	0x65e
 1262 0895 34       		.byte	0x34
 1263 0896 08       		.uleb128 0x8
 1264 0897 733600   		.ascii	"s6\000"
 1265 089a 0A       		.byte	0xa
 1266 089b 4A01     		.2byte	0x14a
 1267 089d 5E060000 		.4byte	0x65e
 1268 08a1 38       		.byte	0x38
 1269 08a2 08       		.uleb128 0x8
 1270 08a3 733700   		.ascii	"s7\000"
 1271 08a6 0A       		.byte	0xa
 1272 08a7 4B01     		.2byte	0x14b
 1273 08a9 5E060000 		.4byte	0x65e
 1274 08ad 3C       		.byte	0x3c
 1275 08ae 08       		.uleb128 0x8
 1276 08af 733800   		.ascii	"s8\000"
 1277 08b2 0A       		.byte	0xa
 1278 08b3 4C01     		.2byte	0x14c
 1279 08b5 5E060000 		.4byte	0x65e
 1280 08b9 40       		.byte	0x40
 1281 08ba 08       		.uleb128 0x8
 1282 08bb 733900   		.ascii	"s9\000"
 1283 08be 0A       		.byte	0xa
 1284 08bf 4D01     		.2byte	0x14d
 1285 08c1 5E060000 		.4byte	0x65e
 1286 08c5 44       		.byte	0x44
 1287 08c6 08       		.uleb128 0x8
 1288 08c7 73313000 		.ascii	"s10\000"
 1289 08cb 0A       		.byte	0xa
 1290 08cc 4E01     		.2byte	0x14e
 1291 08ce 5E060000 		.4byte	0x65e
 1292 08d2 48       		.byte	0x48
 1293 08d3 08       		.uleb128 0x8
 1294 08d4 73313100 		.ascii	"s11\000"
 1295 08d8 0A       		.byte	0xa
 1296 08d9 4F01     		.2byte	0x14f
 1297 08db 5E060000 		.4byte	0x65e
 1298 08df 4C       		.byte	0x4c
 1299 08e0 08       		.uleb128 0x8
 1300 08e1 73313200 		.ascii	"s12\000"
 1301 08e5 0A       		.byte	0xa
 1302 08e6 5001     		.2byte	0x150
 1303 08e8 5E060000 		.4byte	0x65e
 1304 08ec 50       		.byte	0x50
 1305 08ed 08       		.uleb128 0x8
 1306 08ee 73313300 		.ascii	"s13\000"
 1307 08f2 0A       		.byte	0xa
 1308 08f3 5101     		.2byte	0x151
 1309 08f5 5E060000 		.4byte	0x65e
 1310 08f9 54       		.byte	0x54
 1311 08fa 08       		.uleb128 0x8
ARM GAS  /tmp/ccbQOnDu.s 			page 24


 1312 08fb 73313400 		.ascii	"s14\000"
 1313 08ff 0A       		.byte	0xa
 1314 0900 5201     		.2byte	0x152
 1315 0902 5E060000 		.4byte	0x65e
 1316 0906 58       		.byte	0x58
 1317 0907 08       		.uleb128 0x8
 1318 0908 73313500 		.ascii	"s15\000"
 1319 090c 0A       		.byte	0xa
 1320 090d 5301     		.2byte	0x153
 1321 090f 5E060000 		.4byte	0x65e
 1322 0913 5C       		.byte	0x5c
 1323 0914 09       		.uleb128 0x9
 1324 0915 24050000 		.4byte	.LASF103
 1325 0919 0A       		.byte	0xa
 1326 091a 5401     		.2byte	0x154
 1327 091c 5E060000 		.4byte	0x65e
 1328 0920 60       		.byte	0x60
 1329 0921 09       		.uleb128 0x9
 1330 0922 27020000 		.4byte	.LASF104
 1331 0926 0A       		.byte	0xa
 1332 0927 5501     		.2byte	0x155
 1333 0929 5E060000 		.4byte	0x65e
 1334 092d 64       		.byte	0x64
 1335 092e 00       		.byte	0
 1336 092f 15       		.uleb128 0x15
 1337 0930 04       		.byte	0x4
 1338 0931 0B       		.byte	0xb
 1339 0932 38       		.byte	0x38
 1340 0933 44090000 		.4byte	0x944
 1341 0937 06       		.uleb128 0x6
 1342 0938 FE050000 		.4byte	.LASF105
 1343 093c 0B       		.byte	0xb
 1344 093d 3C       		.byte	0x3c
 1345 093e C3000000 		.4byte	0xc3
 1346 0942 00       		.byte	0
 1347 0943 00       		.byte	0
 1348 0944 04       		.uleb128 0x4
 1349 0945 3E040000 		.4byte	.LASF106
 1350 0949 0B       		.byte	0xb
 1351 094a 3D       		.byte	0x3d
 1352 094b 2F090000 		.4byte	0x92f
 1353 094f 15       		.uleb128 0x15
 1354 0950 18       		.byte	0x18
 1355 0951 0B       		.byte	0xb
 1356 0952 48       		.byte	0x48
 1357 0953 92090000 		.4byte	0x992
 1358 0957 06       		.uleb128 0x6
 1359 0958 CE050000 		.4byte	.LASF107
 1360 095c 0B       		.byte	0xb
 1361 095d 49       		.byte	0x49
 1362 095e C3000000 		.4byte	0xc3
 1363 0962 00       		.byte	0
 1364 0963 06       		.uleb128 0x6
 1365 0964 9D000000 		.4byte	.LASF108
 1366 0968 0B       		.byte	0xb
 1367 0969 4A       		.byte	0x4a
 1368 096a C3000000 		.4byte	0xc3
ARM GAS  /tmp/ccbQOnDu.s 			page 25


 1369 096e 04       		.byte	0x4
 1370 096f 06       		.uleb128 0x6
 1371 0970 5C040000 		.4byte	.LASF109
 1372 0974 0B       		.byte	0xb
 1373 0975 4B       		.byte	0x4b
 1374 0976 C3000000 		.4byte	0xc3
 1375 097a 08       		.byte	0x8
 1376 097b 07       		.uleb128 0x7
 1377 097c 6E00     		.ascii	"n\000"
 1378 097e 0B       		.byte	0xb
 1379 097f 4C       		.byte	0x4c
 1380 0980 26010000 		.4byte	0x126
 1381 0984 0C       		.byte	0xc
 1382 0985 06       		.uleb128 0x6
 1383 0986 6C040000 		.4byte	.LASF110
 1384 098a 0B       		.byte	0xb
 1385 098b 4D       		.byte	0x4d
 1386 098c CE000000 		.4byte	0xce
 1387 0990 10       		.byte	0x10
 1388 0991 00       		.byte	0
 1389 0992 04       		.uleb128 0x4
 1390 0993 A3000000 		.4byte	.LASF111
 1391 0997 0B       		.byte	0xb
 1392 0998 4E       		.byte	0x4e
 1393 0999 4F090000 		.4byte	0x94f
 1394 099d 15       		.uleb128 0x15
 1395 099e 38       		.byte	0x38
 1396 099f 0C       		.byte	0xc
 1397 09a0 38       		.byte	0x38
 1398 09a1 D6090000 		.4byte	0x9d6
 1399 09a5 06       		.uleb128 0x6
 1400 09a6 16020000 		.4byte	.LASF112
 1401 09aa 0C       		.byte	0xc
 1402 09ab 39       		.byte	0x39
 1403 09ac 26010000 		.4byte	0x126
 1404 09b0 00       		.byte	0
 1405 09b1 06       		.uleb128 0x6
 1406 09b2 BE040000 		.4byte	.LASF113
 1407 09b6 0C       		.byte	0xc
 1408 09b7 3A       		.byte	0x3a
 1409 09b8 26010000 		.4byte	0x126
 1410 09bc 04       		.byte	0x4
 1411 09bd 06       		.uleb128 0x6
 1412 09be D7060000 		.4byte	.LASF114
 1413 09c2 0C       		.byte	0xc
 1414 09c3 3B       		.byte	0x3b
 1415 09c4 92090000 		.4byte	0x992
 1416 09c8 08       		.byte	0x8
 1417 09c9 06       		.uleb128 0x6
 1418 09ca 89030000 		.4byte	.LASF115
 1419 09ce 0C       		.byte	0xc
 1420 09cf 3D       		.byte	0x3d
 1421 09d0 92090000 		.4byte	0x992
 1422 09d4 20       		.byte	0x20
 1423 09d5 00       		.byte	0
 1424 09d6 04       		.uleb128 0x4
 1425 09d7 30020000 		.4byte	.LASF116
ARM GAS  /tmp/ccbQOnDu.s 			page 26


 1426 09db 0C       		.byte	0xc
 1427 09dc 3F       		.byte	0x3f
 1428 09dd 9D090000 		.4byte	0x99d
 1429 09e1 16       		.uleb128 0x16
 1430 09e2 04       		.byte	0x4
 1431 09e3 07       		.byte	0x7
 1432 09e4 D2       		.byte	0xd2
 1433 09e5 440A0000 		.4byte	0xa44
 1434 09e9 17       		.uleb128 0x17
 1435 09ea 19000000 		.4byte	.LASF117
 1436 09ee 07       		.byte	0x7
 1437 09ef D9       		.byte	0xd9
 1438 09f0 05010000 		.4byte	0x105
 1439 09f4 17       		.uleb128 0x17
 1440 09f5 B6000000 		.4byte	.LASF118
 1441 09f9 07       		.byte	0x7
 1442 09fa E0       		.byte	0xe0
 1443 09fb 05010000 		.4byte	0x105
 1444 09ff 17       		.uleb128 0x17
 1445 0a00 B5060000 		.4byte	.LASF119
 1446 0a04 07       		.byte	0x7
 1447 0a05 E7       		.byte	0xe7
 1448 0a06 1A030000 		.4byte	0x31a
 1449 0a0a 17       		.uleb128 0x17
 1450 0a0b 0D000000 		.4byte	.LASF120
 1451 0a0f 07       		.byte	0x7
 1452 0a10 EE       		.byte	0xee
 1453 0a11 440A0000 		.4byte	0xa44
 1454 0a15 17       		.uleb128 0x17
 1455 0a16 CA000000 		.4byte	.LASF121
 1456 0a1a 07       		.byte	0x7
 1457 0a1b F3       		.byte	0xf3
 1458 0a1c 05010000 		.4byte	0x105
 1459 0a20 17       		.uleb128 0x17
 1460 0a21 0F020000 		.4byte	.LASF122
 1461 0a25 07       		.byte	0x7
 1462 0a26 FC       		.byte	0xfc
 1463 0a27 6F0A0000 		.4byte	0xa6f
 1464 0a2b 18       		.uleb128 0x18
 1465 0a2c 6A050000 		.4byte	.LASF123
 1466 0a30 07       		.byte	0x7
 1467 0a31 0501     		.2byte	0x105
 1468 0a33 A60A0000 		.4byte	0xaa6
 1469 0a37 18       		.uleb128 0x18
 1470 0a38 13050000 		.4byte	.LASF124
 1471 0a3c 07       		.byte	0x7
 1472 0a3d 0D01     		.2byte	0x10d
 1473 0a3f 10010000 		.4byte	0x110
 1474 0a43 00       		.byte	0
 1475 0a44 0A       		.uleb128 0xa
 1476 0a45 04       		.byte	0x4
 1477 0a46 32020000 		.4byte	0x232
 1478 0a4a 05       		.uleb128 0x5
 1479 0a4b 54050000 		.4byte	.LASF125
 1480 0a4f 0C       		.byte	0xc
 1481 0a50 0D       		.byte	0xd
 1482 0a51 34       		.byte	0x34
ARM GAS  /tmp/ccbQOnDu.s 			page 27


 1483 0a52 6F0A0000 		.4byte	0xa6f
 1484 0a56 06       		.uleb128 0x6
 1485 0a57 1A040000 		.4byte	.LASF29
 1486 0a5b 0D       		.byte	0xd
 1487 0a5c 35       		.byte	0x35
 1488 0a5d 67020000 		.4byte	0x267
 1489 0a61 00       		.byte	0
 1490 0a62 07       		.uleb128 0x7
 1491 0a63 636E7400 		.ascii	"cnt\000"
 1492 0a67 0D       		.byte	0xd
 1493 0a68 37       		.byte	0x37
 1494 0a69 1B010000 		.4byte	0x11b
 1495 0a6d 08       		.byte	0x8
 1496 0a6e 00       		.byte	0
 1497 0a6f 0A       		.uleb128 0xa
 1498 0a70 04       		.byte	0x4
 1499 0a71 4A0A0000 		.4byte	0xa4a
 1500 0a75 05       		.uleb128 0x5
 1501 0a76 59060000 		.4byte	.LASF126
 1502 0a7a 10       		.byte	0x10
 1503 0a7b 0E       		.byte	0xe
 1504 0a7c 39       		.byte	0x39
 1505 0a7d A60A0000 		.4byte	0xaa6
 1506 0a81 06       		.uleb128 0x6
 1507 0a82 1A040000 		.4byte	.LASF29
 1508 0a86 0E       		.byte	0xe
 1509 0a87 3A       		.byte	0x3a
 1510 0a88 67020000 		.4byte	0x267
 1511 0a8c 00       		.byte	0
 1512 0a8d 06       		.uleb128 0x6
 1513 0a8e 86050000 		.4byte	.LASF127
 1514 0a92 0E       		.byte	0xe
 1515 0a93 3C       		.byte	0x3c
 1516 0a94 3D020000 		.4byte	0x23d
 1517 0a98 08       		.byte	0x8
 1518 0a99 06       		.uleb128 0x6
 1519 0a9a EE000000 		.4byte	.LASF49
 1520 0a9e 0E       		.byte	0xe
 1521 0a9f 3E       		.byte	0x3e
 1522 0aa0 DA0A0000 		.4byte	0xada
 1523 0aa4 0C       		.byte	0xc
 1524 0aa5 00       		.byte	0
 1525 0aa6 0A       		.uleb128 0xa
 1526 0aa7 04       		.byte	0x4
 1527 0aa8 750A0000 		.4byte	0xa75
 1528 0aac 0A       		.uleb128 0xa
 1529 0aad 04       		.byte	0x4
 1530 0aae B20A0000 		.4byte	0xab2
 1531 0ab2 11       		.uleb128 0x11
 1532 0ab3 B70A0000 		.4byte	0xab7
 1533 0ab7 03       		.uleb128 0x3
 1534 0ab8 01       		.byte	0x1
 1535 0ab9 08       		.byte	0x8
 1536 0aba A5050000 		.4byte	.LASF128
 1537 0abe 0A       		.uleb128 0xa
 1538 0abf 04       		.byte	0x4
 1539 0ac0 69060000 		.4byte	0x669
ARM GAS  /tmp/ccbQOnDu.s 			page 28


 1540 0ac4 0A       		.uleb128 0xa
 1541 0ac5 04       		.byte	0x4
 1542 0ac6 1C030000 		.4byte	0x31c
 1543 0aca 0F       		.uleb128 0xf
 1544 0acb AC0A0000 		.4byte	0xaac
 1545 0acf 04       		.uleb128 0x4
 1546 0ad0 CF060000 		.4byte	.LASF129
 1547 0ad4 0E       		.byte	0xe
 1548 0ad5 34       		.byte	0x34
 1549 0ad6 750A0000 		.4byte	0xa75
 1550 0ada 0A       		.uleb128 0xa
 1551 0adb 04       		.byte	0x4
 1552 0adc CF0A0000 		.4byte	0xacf
 1553 0ae0 03       		.uleb128 0x3
 1554 0ae1 01       		.byte	0x1
 1555 0ae2 02       		.byte	0x2
 1556 0ae3 C7040000 		.4byte	.LASF130
 1557 0ae7 19       		.uleb128 0x19
 1558 0ae8 E6050000 		.4byte	.LASF133
 1559 0aec 02       		.byte	0x2
 1560 0aed 0601     		.2byte	0x106
 1561 0aef 03       		.byte	0x3
 1562 0af0 010B0000 		.4byte	0xb01
 1563 0af4 1A       		.uleb128 0x1a
 1564 0af5 E3010000 		.4byte	.LASF135
 1565 0af9 02       		.byte	0x2
 1566 0afa 0601     		.2byte	0x106
 1567 0afc AD000000 		.4byte	0xad
 1568 0b00 00       		.byte	0
 1569 0b01 1B       		.uleb128 0x1b
 1570 0b02 93000000 		.4byte	.LASF131
 1571 0b06 0A       		.byte	0xa
 1572 0b07 5202     		.2byte	0x252
 1573 0b09 03       		.byte	0x3
 1574 0b0a 1B       		.uleb128 0x1b
 1575 0b0b 4E010000 		.4byte	.LASF132
 1576 0b0f 0A       		.byte	0xa
 1577 0b10 6A02     		.2byte	0x26a
 1578 0b12 03       		.byte	0x3
 1579 0b13 1C       		.uleb128 0x1c
 1580 0b14 3F060000 		.4byte	.LASF139
 1581 0b18 02       		.byte	0x2
 1582 0b19 94       		.byte	0x94
 1583 0b1a AD000000 		.4byte	0xad
 1584 0b1e 03       		.byte	0x3
 1585 0b1f 2F0B0000 		.4byte	0xb2f
 1586 0b23 1D       		.uleb128 0x1d
 1587 0b24 E2060000 		.4byte	.LASF141
 1588 0b28 02       		.byte	0x2
 1589 0b29 96       		.byte	0x96
 1590 0b2a AD000000 		.4byte	0xad
 1591 0b2e 00       		.byte	0
 1592 0b2f 1E       		.uleb128 0x1e
 1593 0b30 05020000 		.4byte	.LASF134
 1594 0b34 02       		.byte	0x2
 1595 0b35 A2       		.byte	0xa2
 1596 0b36 03       		.byte	0x3
ARM GAS  /tmp/ccbQOnDu.s 			page 29


 1597 0b37 470B0000 		.4byte	0xb47
 1598 0b3b 1F       		.uleb128 0x1f
 1599 0b3c AE030000 		.4byte	.LASF136
 1600 0b40 02       		.byte	0x2
 1601 0b41 A2       		.byte	0xa2
 1602 0b42 AD000000 		.4byte	0xad
 1603 0b46 00       		.byte	0
 1604 0b47 1B       		.uleb128 0x1b
 1605 0b48 B0050000 		.4byte	.LASF137
 1606 0b4c 0A       		.byte	0xa
 1607 0b4d 8402     		.2byte	0x284
 1608 0b4f 03       		.byte	0x3
 1609 0b50 1B       		.uleb128 0x1b
 1610 0b51 2C060000 		.4byte	.LASF138
 1611 0b55 0A       		.byte	0xa
 1612 0b56 7902     		.2byte	0x279
 1613 0b58 03       		.byte	0x3
 1614 0b59 20       		.uleb128 0x20
 1615 0b5a B2040000 		.4byte	.LASF140
 1616 0b5e 02       		.byte	0x2
 1617 0b5f 3A01     		.2byte	0x13a
 1618 0b61 AD000000 		.4byte	0xad
 1619 0b65 03       		.byte	0x3
 1620 0b66 770B0000 		.4byte	0xb77
 1621 0b6a 21       		.uleb128 0x21
 1622 0b6b E2060000 		.4byte	.LASF141
 1623 0b6f 02       		.byte	0x2
 1624 0b70 3D01     		.2byte	0x13d
 1625 0b72 AD000000 		.4byte	0xad
 1626 0b76 00       		.byte	0
 1627 0b77 22       		.uleb128 0x22
 1628 0b78 37050000 		.4byte	.LASF142
 1629 0b7c 01       		.byte	0x1
 1630 0b7d 3E       		.byte	0x3e
 1631 0b7e 00000000 		.4byte	.LFB246
 1632 0b82 20000000 		.4byte	.LFE246-.LFB246
 1633 0b86 01       		.uleb128 0x1
 1634 0b87 9C       		.byte	0x9c
 1635 0b88 180C0000 		.4byte	0xc18
 1636 0b8c 23       		.uleb128 0x23
 1637 0b8d 95040000 		.4byte	.LASF144
 1638 0b91 01       		.byte	0x1
 1639 0b92 40       		.byte	0x40
 1640 0b93 180C0000 		.4byte	0xc18
 1641 0b97 00000000 		.4byte	.LLST0
 1642 0b9b 24       		.uleb128 0x24
 1643 0b9c 130B0000 		.4byte	0xb13
 1644 0ba0 0A000000 		.4byte	.LBB40
 1645 0ba4 04000000 		.4byte	.LBE40-.LBB40
 1646 0ba8 01       		.byte	0x1
 1647 0ba9 48       		.byte	0x48
 1648 0baa C20B0000 		.4byte	0xbc2
 1649 0bae 25       		.uleb128 0x25
 1650 0baf 0A000000 		.4byte	.LBB41
 1651 0bb3 04000000 		.4byte	.LBE41-.LBB41
 1652 0bb7 26       		.uleb128 0x26
 1653 0bb8 230B0000 		.4byte	0xb23
ARM GAS  /tmp/ccbQOnDu.s 			page 30


 1654 0bbc 21000000 		.4byte	.LLST1
 1655 0bc0 00       		.byte	0
 1656 0bc1 00       		.byte	0
 1657 0bc2 24       		.uleb128 0x24
 1658 0bc3 2F0B0000 		.4byte	0xb2f
 1659 0bc7 10000000 		.4byte	.LBB42
 1660 0bcb 04000000 		.4byte	.LBE42-.LBB42
 1661 0bcf 01       		.byte	0x1
 1662 0bd0 4F       		.byte	0x4f
 1663 0bd1 DF0B0000 		.4byte	0xbdf
 1664 0bd5 27       		.uleb128 0x27
 1665 0bd6 3B0B0000 		.4byte	0xb3b
 1666 0bda 00000000 		.4byte	.LLST0
 1667 0bde 00       		.byte	0
 1668 0bdf 28       		.uleb128 0x28
 1669 0be0 470B0000 		.4byte	0xb47
 1670 0be4 14000000 		.4byte	.LBB44
 1671 0be8 0C000000 		.4byte	.LBE44-.LBB44
 1672 0bec 01       		.byte	0x1
 1673 0bed 52       		.byte	0x52
 1674 0bee 29       		.uleb128 0x29
 1675 0bef 0A0B0000 		.4byte	0xb0a
 1676 0bf3 14000000 		.4byte	.LBB45
 1677 0bf7 0C000000 		.4byte	.LBE45-.LBB45
 1678 0bfb 0A       		.byte	0xa
 1679 0bfc 8602     		.2byte	0x286
 1680 0bfe 29       		.uleb128 0x29
 1681 0bff E70A0000 		.4byte	0xae7
 1682 0c03 14000000 		.4byte	.LBB46
 1683 0c07 0C000000 		.4byte	.LBE46-.LBB46
 1684 0c0b 0A       		.byte	0xa
 1685 0c0c 6D02     		.2byte	0x26d
 1686 0c0e 2A       		.uleb128 0x2a
 1687 0c0f F40A0000 		.4byte	0xaf4
 1688 0c13 00       		.byte	0
 1689 0c14 00       		.byte	0
 1690 0c15 00       		.byte	0
 1691 0c16 00       		.byte	0
 1692 0c17 00       		.byte	0
 1693 0c18 0A       		.uleb128 0xa
 1694 0c19 04       		.byte	0x4
 1695 0c1a DE070000 		.4byte	0x7de
 1696 0c1e 22       		.uleb128 0x22
 1697 0c1f 7F020000 		.4byte	.LASF143
 1698 0c23 01       		.byte	0x1
 1699 0c24 7A       		.byte	0x7a
 1700 0c25 00000000 		.4byte	.LFB247
 1701 0c29 5C000000 		.4byte	.LFE247-.LFB247
 1702 0c2d 01       		.uleb128 0x1
 1703 0c2e 9C       		.byte	0x9c
 1704 0c2f 350D0000 		.4byte	0xd35
 1705 0c33 24       		.uleb128 0x24
 1706 0c34 500B0000 		.4byte	0xb50
 1707 0c38 02000000 		.4byte	.LBB48
 1708 0c3c 06000000 		.4byte	.LBE48-.LBB48
 1709 0c40 01       		.byte	0x1
 1710 0c41 7C       		.byte	0x7c
ARM GAS  /tmp/ccbQOnDu.s 			page 31


 1711 0c42 6F0C0000 		.4byte	0xc6f
 1712 0c46 29       		.uleb128 0x29
 1713 0c47 010B0000 		.4byte	0xb01
 1714 0c4b 02000000 		.4byte	.LBB49
 1715 0c4f 06000000 		.4byte	.LBE49-.LBB49
 1716 0c53 0A       		.byte	0xa
 1717 0c54 7B02     		.2byte	0x27b
 1718 0c56 29       		.uleb128 0x29
 1719 0c57 E70A0000 		.4byte	0xae7
 1720 0c5b 02000000 		.4byte	.LBB50
 1721 0c5f 06000000 		.4byte	.LBE50-.LBB50
 1722 0c63 0A       		.byte	0xa
 1723 0c64 5A02     		.2byte	0x25a
 1724 0c66 2A       		.uleb128 0x2a
 1725 0c67 F40A0000 		.4byte	0xaf4
 1726 0c6b 20       		.byte	0x20
 1727 0c6c 00       		.byte	0
 1728 0c6d 00       		.byte	0
 1729 0c6e 00       		.byte	0
 1730 0c6f 2B       		.uleb128 0x2b
 1731 0c70 12000000 		.4byte	.LBB52
 1732 0c74 32000000 		.4byte	.LBE52-.LBB52
 1733 0c78 FC0C0000 		.4byte	0xcfc
 1734 0c7c 23       		.uleb128 0x23
 1735 0c7d 95040000 		.4byte	.LASF144
 1736 0c81 01       		.byte	0x1
 1737 0c82 7E       		.byte	0x7e
 1738 0c83 180C0000 		.4byte	0xc18
 1739 0c87 42000000 		.4byte	.LLST3
 1740 0c8b 24       		.uleb128 0x24
 1741 0c8c 590B0000 		.4byte	0xb59
 1742 0c90 12000000 		.4byte	.LBB53
 1743 0c94 04000000 		.4byte	.LBE53-.LBB53
 1744 0c98 01       		.byte	0x1
 1745 0c99 82       		.byte	0x82
 1746 0c9a AE0C0000 		.4byte	0xcae
 1747 0c9e 25       		.uleb128 0x25
 1748 0c9f 12000000 		.4byte	.LBB54
 1749 0ca3 04000000 		.4byte	.LBE54-.LBB54
 1750 0ca7 2C       		.uleb128 0x2c
 1751 0ca8 6A0B0000 		.4byte	0xb6a
 1752 0cac 00       		.byte	0
 1753 0cad 00       		.byte	0
 1754 0cae 24       		.uleb128 0x24
 1755 0caf 130B0000 		.4byte	0xb13
 1756 0cb3 16000000 		.4byte	.LBB55
 1757 0cb7 04000000 		.4byte	.LBE55-.LBB55
 1758 0cbb 01       		.byte	0x1
 1759 0cbc 86       		.byte	0x86
 1760 0cbd D50C0000 		.4byte	0xcd5
 1761 0cc1 25       		.uleb128 0x25
 1762 0cc2 16000000 		.4byte	.LBB56
 1763 0cc6 04000000 		.4byte	.LBE56-.LBB56
 1764 0cca 26       		.uleb128 0x26
 1765 0ccb 230B0000 		.4byte	0xb23
 1766 0ccf 71000000 		.4byte	.LLST4
 1767 0cd3 00       		.byte	0
ARM GAS  /tmp/ccbQOnDu.s 			page 32


 1768 0cd4 00       		.byte	0
 1769 0cd5 24       		.uleb128 0x24
 1770 0cd6 2F0B0000 		.4byte	0xb2f
 1771 0cda 2E000000 		.4byte	.LBB57
 1772 0cde 04000000 		.4byte	.LBE57-.LBB57
 1773 0ce2 01       		.byte	0x1
 1774 0ce3 93       		.byte	0x93
 1775 0ce4 F20C0000 		.4byte	0xcf2
 1776 0ce8 27       		.uleb128 0x27
 1777 0ce9 3B0B0000 		.4byte	0xb3b
 1778 0ced 84000000 		.4byte	.LLST5
 1779 0cf1 00       		.byte	0
 1780 0cf2 2D       		.uleb128 0x2d
 1781 0cf3 36000000 		.4byte	.LVL9
 1782 0cf7 510D0000 		.4byte	0xd51
 1783 0cfb 00       		.byte	0
 1784 0cfc 28       		.uleb128 0x28
 1785 0cfd 470B0000 		.4byte	0xb47
 1786 0d01 44000000 		.4byte	.LBB59
 1787 0d05 18000000 		.4byte	.LBE59-.LBB59
 1788 0d09 01       		.byte	0x1
 1789 0d0a A5       		.byte	0xa5
 1790 0d0b 29       		.uleb128 0x29
 1791 0d0c 0A0B0000 		.4byte	0xb0a
 1792 0d10 44000000 		.4byte	.LBB60
 1793 0d14 18000000 		.4byte	.LBE60-.LBB60
 1794 0d18 0A       		.byte	0xa
 1795 0d19 8602     		.2byte	0x286
 1796 0d1b 29       		.uleb128 0x29
 1797 0d1c E70A0000 		.4byte	0xae7
 1798 0d20 44000000 		.4byte	.LBB61
 1799 0d24 18000000 		.4byte	.LBE61-.LBB61
 1800 0d28 0A       		.byte	0xa
 1801 0d29 6D02     		.2byte	0x26d
 1802 0d2b 2A       		.uleb128 0x2a
 1803 0d2c F40A0000 		.4byte	0xaf4
 1804 0d30 00       		.byte	0
 1805 0d31 00       		.byte	0
 1806 0d32 00       		.byte	0
 1807 0d33 00       		.byte	0
 1808 0d34 00       		.byte	0
 1809 0d35 2E       		.uleb128 0x2e
 1810 0d36 E9040000 		.4byte	.LASF145
 1811 0d3a 08       		.byte	0x8
 1812 0d3b 4407     		.2byte	0x744
 1813 0d3d 410D0000 		.4byte	0xd41
 1814 0d41 0F       		.uleb128 0xf
 1815 0d42 A2000000 		.4byte	0xa2
 1816 0d46 2F       		.uleb128 0x2f
 1817 0d47 636800   		.ascii	"ch\000"
 1818 0d4a 07       		.byte	0x7
 1819 0d4b D201     		.2byte	0x1d2
 1820 0d4d E9030000 		.4byte	0x3e9
 1821 0d51 30       		.uleb128 0x30
 1822 0d52 86010000 		.4byte	.LASF149
 1823 0d56 07       		.byte	0x7
 1824 0d57 E201     		.2byte	0x1e2
ARM GAS  /tmp/ccbQOnDu.s 			page 33


 1825 0d59 E00A0000 		.4byte	0xae0
 1826 0d5d 00       		.byte	0
 1827              		.section	.debug_abbrev,"",%progbits
 1828              	.Ldebug_abbrev0:
 1829 0000 01       		.uleb128 0x1
 1830 0001 11       		.uleb128 0x11
 1831 0002 01       		.byte	0x1
 1832 0003 25       		.uleb128 0x25
 1833 0004 0E       		.uleb128 0xe
 1834 0005 13       		.uleb128 0x13
 1835 0006 0B       		.uleb128 0xb
 1836 0007 03       		.uleb128 0x3
 1837 0008 0E       		.uleb128 0xe
 1838 0009 1B       		.uleb128 0x1b
 1839 000a 0E       		.uleb128 0xe
 1840 000b 55       		.uleb128 0x55
 1841 000c 17       		.uleb128 0x17
 1842 000d 11       		.uleb128 0x11
 1843 000e 01       		.uleb128 0x1
 1844 000f 10       		.uleb128 0x10
 1845 0010 17       		.uleb128 0x17
 1846 0011 00       		.byte	0
 1847 0012 00       		.byte	0
 1848 0013 02       		.uleb128 0x2
 1849 0014 24       		.uleb128 0x24
 1850 0015 00       		.byte	0
 1851 0016 0B       		.uleb128 0xb
 1852 0017 0B       		.uleb128 0xb
 1853 0018 3E       		.uleb128 0x3e
 1854 0019 0B       		.uleb128 0xb
 1855 001a 03       		.uleb128 0x3
 1856 001b 08       		.uleb128 0x8
 1857 001c 00       		.byte	0
 1858 001d 00       		.byte	0
 1859 001e 03       		.uleb128 0x3
 1860 001f 24       		.uleb128 0x24
 1861 0020 00       		.byte	0
 1862 0021 0B       		.uleb128 0xb
 1863 0022 0B       		.uleb128 0xb
 1864 0023 3E       		.uleb128 0x3e
 1865 0024 0B       		.uleb128 0xb
 1866 0025 03       		.uleb128 0x3
 1867 0026 0E       		.uleb128 0xe
 1868 0027 00       		.byte	0
 1869 0028 00       		.byte	0
 1870 0029 04       		.uleb128 0x4
 1871 002a 16       		.uleb128 0x16
 1872 002b 00       		.byte	0
 1873 002c 03       		.uleb128 0x3
 1874 002d 0E       		.uleb128 0xe
 1875 002e 3A       		.uleb128 0x3a
 1876 002f 0B       		.uleb128 0xb
 1877 0030 3B       		.uleb128 0x3b
 1878 0031 0B       		.uleb128 0xb
 1879 0032 49       		.uleb128 0x49
 1880 0033 13       		.uleb128 0x13
 1881 0034 00       		.byte	0
ARM GAS  /tmp/ccbQOnDu.s 			page 34


 1882 0035 00       		.byte	0
 1883 0036 05       		.uleb128 0x5
 1884 0037 13       		.uleb128 0x13
 1885 0038 01       		.byte	0x1
 1886 0039 03       		.uleb128 0x3
 1887 003a 0E       		.uleb128 0xe
 1888 003b 0B       		.uleb128 0xb
 1889 003c 0B       		.uleb128 0xb
 1890 003d 3A       		.uleb128 0x3a
 1891 003e 0B       		.uleb128 0xb
 1892 003f 3B       		.uleb128 0x3b
 1893 0040 0B       		.uleb128 0xb
 1894 0041 01       		.uleb128 0x1
 1895 0042 13       		.uleb128 0x13
 1896 0043 00       		.byte	0
 1897 0044 00       		.byte	0
 1898 0045 06       		.uleb128 0x6
 1899 0046 0D       		.uleb128 0xd
 1900 0047 00       		.byte	0
 1901 0048 03       		.uleb128 0x3
 1902 0049 0E       		.uleb128 0xe
 1903 004a 3A       		.uleb128 0x3a
 1904 004b 0B       		.uleb128 0xb
 1905 004c 3B       		.uleb128 0x3b
 1906 004d 0B       		.uleb128 0xb
 1907 004e 49       		.uleb128 0x49
 1908 004f 13       		.uleb128 0x13
 1909 0050 38       		.uleb128 0x38
 1910 0051 0B       		.uleb128 0xb
 1911 0052 00       		.byte	0
 1912 0053 00       		.byte	0
 1913 0054 07       		.uleb128 0x7
 1914 0055 0D       		.uleb128 0xd
 1915 0056 00       		.byte	0
 1916 0057 03       		.uleb128 0x3
 1917 0058 08       		.uleb128 0x8
 1918 0059 3A       		.uleb128 0x3a
 1919 005a 0B       		.uleb128 0xb
 1920 005b 3B       		.uleb128 0x3b
 1921 005c 0B       		.uleb128 0xb
 1922 005d 49       		.uleb128 0x49
 1923 005e 13       		.uleb128 0x13
 1924 005f 38       		.uleb128 0x38
 1925 0060 0B       		.uleb128 0xb
 1926 0061 00       		.byte	0
 1927 0062 00       		.byte	0
 1928 0063 08       		.uleb128 0x8
 1929 0064 0D       		.uleb128 0xd
 1930 0065 00       		.byte	0
 1931 0066 03       		.uleb128 0x3
 1932 0067 08       		.uleb128 0x8
 1933 0068 3A       		.uleb128 0x3a
 1934 0069 0B       		.uleb128 0xb
 1935 006a 3B       		.uleb128 0x3b
 1936 006b 05       		.uleb128 0x5
 1937 006c 49       		.uleb128 0x49
 1938 006d 13       		.uleb128 0x13
ARM GAS  /tmp/ccbQOnDu.s 			page 35


 1939 006e 38       		.uleb128 0x38
 1940 006f 0B       		.uleb128 0xb
 1941 0070 00       		.byte	0
 1942 0071 00       		.byte	0
 1943 0072 09       		.uleb128 0x9
 1944 0073 0D       		.uleb128 0xd
 1945 0074 00       		.byte	0
 1946 0075 03       		.uleb128 0x3
 1947 0076 0E       		.uleb128 0xe
 1948 0077 3A       		.uleb128 0x3a
 1949 0078 0B       		.uleb128 0xb
 1950 0079 3B       		.uleb128 0x3b
 1951 007a 05       		.uleb128 0x5
 1952 007b 49       		.uleb128 0x49
 1953 007c 13       		.uleb128 0x13
 1954 007d 38       		.uleb128 0x38
 1955 007e 0B       		.uleb128 0xb
 1956 007f 00       		.byte	0
 1957 0080 00       		.byte	0
 1958 0081 0A       		.uleb128 0xa
 1959 0082 0F       		.uleb128 0xf
 1960 0083 00       		.byte	0
 1961 0084 0B       		.uleb128 0xb
 1962 0085 0B       		.uleb128 0xb
 1963 0086 49       		.uleb128 0x49
 1964 0087 13       		.uleb128 0x13
 1965 0088 00       		.byte	0
 1966 0089 00       		.byte	0
 1967 008a 0B       		.uleb128 0xb
 1968 008b 13       		.uleb128 0x13
 1969 008c 01       		.byte	0x1
 1970 008d 03       		.uleb128 0x3
 1971 008e 0E       		.uleb128 0xe
 1972 008f 0B       		.uleb128 0xb
 1973 0090 0B       		.uleb128 0xb
 1974 0091 3A       		.uleb128 0x3a
 1975 0092 0B       		.uleb128 0xb
 1976 0093 3B       		.uleb128 0x3b
 1977 0094 05       		.uleb128 0x5
 1978 0095 01       		.uleb128 0x1
 1979 0096 13       		.uleb128 0x13
 1980 0097 00       		.byte	0
 1981 0098 00       		.byte	0
 1982 0099 0C       		.uleb128 0xc
 1983 009a 15       		.uleb128 0x15
 1984 009b 01       		.byte	0x1
 1985 009c 27       		.uleb128 0x27
 1986 009d 19       		.uleb128 0x19
 1987 009e 01       		.uleb128 0x1
 1988 009f 13       		.uleb128 0x13
 1989 00a0 00       		.byte	0
 1990 00a1 00       		.byte	0
 1991 00a2 0D       		.uleb128 0xd
 1992 00a3 05       		.uleb128 0x5
 1993 00a4 00       		.byte	0
 1994 00a5 49       		.uleb128 0x49
 1995 00a6 13       		.uleb128 0x13
ARM GAS  /tmp/ccbQOnDu.s 			page 36


 1996 00a7 00       		.byte	0
 1997 00a8 00       		.byte	0
 1998 00a9 0E       		.uleb128 0xe
 1999 00aa 0F       		.uleb128 0xf
 2000 00ab 00       		.byte	0
 2001 00ac 0B       		.uleb128 0xb
 2002 00ad 0B       		.uleb128 0xb
 2003 00ae 00       		.byte	0
 2004 00af 00       		.byte	0
 2005 00b0 0F       		.uleb128 0xf
 2006 00b1 35       		.uleb128 0x35
 2007 00b2 00       		.byte	0
 2008 00b3 49       		.uleb128 0x49
 2009 00b4 13       		.uleb128 0x13
 2010 00b5 00       		.byte	0
 2011 00b6 00       		.byte	0
 2012 00b7 10       		.uleb128 0x10
 2013 00b8 13       		.uleb128 0x13
 2014 00b9 01       		.byte	0x1
 2015 00ba 0B       		.uleb128 0xb
 2016 00bb 0B       		.uleb128 0xb
 2017 00bc 3A       		.uleb128 0x3a
 2018 00bd 0B       		.uleb128 0xb
 2019 00be 3B       		.uleb128 0x3b
 2020 00bf 05       		.uleb128 0x5
 2021 00c0 01       		.uleb128 0x1
 2022 00c1 13       		.uleb128 0x13
 2023 00c2 00       		.byte	0
 2024 00c3 00       		.byte	0
 2025 00c4 11       		.uleb128 0x11
 2026 00c5 26       		.uleb128 0x26
 2027 00c6 00       		.byte	0
 2028 00c7 49       		.uleb128 0x49
 2029 00c8 13       		.uleb128 0x13
 2030 00c9 00       		.byte	0
 2031 00ca 00       		.byte	0
 2032 00cb 12       		.uleb128 0x12
 2033 00cc 01       		.uleb128 0x1
 2034 00cd 01       		.byte	0x1
 2035 00ce 49       		.uleb128 0x49
 2036 00cf 13       		.uleb128 0x13
 2037 00d0 01       		.uleb128 0x1
 2038 00d1 13       		.uleb128 0x13
 2039 00d2 00       		.byte	0
 2040 00d3 00       		.byte	0
 2041 00d4 13       		.uleb128 0x13
 2042 00d5 21       		.uleb128 0x21
 2043 00d6 00       		.byte	0
 2044 00d7 49       		.uleb128 0x49
 2045 00d8 13       		.uleb128 0x13
 2046 00d9 2F       		.uleb128 0x2f
 2047 00da 0B       		.uleb128 0xb
 2048 00db 00       		.byte	0
 2049 00dc 00       		.byte	0
 2050 00dd 14       		.uleb128 0x14
 2051 00de 16       		.uleb128 0x16
 2052 00df 00       		.byte	0
ARM GAS  /tmp/ccbQOnDu.s 			page 37


 2053 00e0 03       		.uleb128 0x3
 2054 00e1 0E       		.uleb128 0xe
 2055 00e2 3A       		.uleb128 0x3a
 2056 00e3 0B       		.uleb128 0xb
 2057 00e4 3B       		.uleb128 0x3b
 2058 00e5 05       		.uleb128 0x5
 2059 00e6 49       		.uleb128 0x49
 2060 00e7 13       		.uleb128 0x13
 2061 00e8 00       		.byte	0
 2062 00e9 00       		.byte	0
 2063 00ea 15       		.uleb128 0x15
 2064 00eb 13       		.uleb128 0x13
 2065 00ec 01       		.byte	0x1
 2066 00ed 0B       		.uleb128 0xb
 2067 00ee 0B       		.uleb128 0xb
 2068 00ef 3A       		.uleb128 0x3a
 2069 00f0 0B       		.uleb128 0xb
 2070 00f1 3B       		.uleb128 0x3b
 2071 00f2 0B       		.uleb128 0xb
 2072 00f3 01       		.uleb128 0x1
 2073 00f4 13       		.uleb128 0x13
 2074 00f5 00       		.byte	0
 2075 00f6 00       		.byte	0
 2076 00f7 16       		.uleb128 0x16
 2077 00f8 17       		.uleb128 0x17
 2078 00f9 01       		.byte	0x1
 2079 00fa 0B       		.uleb128 0xb
 2080 00fb 0B       		.uleb128 0xb
 2081 00fc 3A       		.uleb128 0x3a
 2082 00fd 0B       		.uleb128 0xb
 2083 00fe 3B       		.uleb128 0x3b
 2084 00ff 0B       		.uleb128 0xb
 2085 0100 01       		.uleb128 0x1
 2086 0101 13       		.uleb128 0x13
 2087 0102 00       		.byte	0
 2088 0103 00       		.byte	0
 2089 0104 17       		.uleb128 0x17
 2090 0105 0D       		.uleb128 0xd
 2091 0106 00       		.byte	0
 2092 0107 03       		.uleb128 0x3
 2093 0108 0E       		.uleb128 0xe
 2094 0109 3A       		.uleb128 0x3a
 2095 010a 0B       		.uleb128 0xb
 2096 010b 3B       		.uleb128 0x3b
 2097 010c 0B       		.uleb128 0xb
 2098 010d 49       		.uleb128 0x49
 2099 010e 13       		.uleb128 0x13
 2100 010f 00       		.byte	0
 2101 0110 00       		.byte	0
 2102 0111 18       		.uleb128 0x18
 2103 0112 0D       		.uleb128 0xd
 2104 0113 00       		.byte	0
 2105 0114 03       		.uleb128 0x3
 2106 0115 0E       		.uleb128 0xe
 2107 0116 3A       		.uleb128 0x3a
 2108 0117 0B       		.uleb128 0xb
 2109 0118 3B       		.uleb128 0x3b
ARM GAS  /tmp/ccbQOnDu.s 			page 38


 2110 0119 05       		.uleb128 0x5
 2111 011a 49       		.uleb128 0x49
 2112 011b 13       		.uleb128 0x13
 2113 011c 00       		.byte	0
 2114 011d 00       		.byte	0
 2115 011e 19       		.uleb128 0x19
 2116 011f 2E       		.uleb128 0x2e
 2117 0120 01       		.byte	0x1
 2118 0121 03       		.uleb128 0x3
 2119 0122 0E       		.uleb128 0xe
 2120 0123 3A       		.uleb128 0x3a
 2121 0124 0B       		.uleb128 0xb
 2122 0125 3B       		.uleb128 0x3b
 2123 0126 05       		.uleb128 0x5
 2124 0127 27       		.uleb128 0x27
 2125 0128 19       		.uleb128 0x19
 2126 0129 20       		.uleb128 0x20
 2127 012a 0B       		.uleb128 0xb
 2128 012b 01       		.uleb128 0x1
 2129 012c 13       		.uleb128 0x13
 2130 012d 00       		.byte	0
 2131 012e 00       		.byte	0
 2132 012f 1A       		.uleb128 0x1a
 2133 0130 05       		.uleb128 0x5
 2134 0131 00       		.byte	0
 2135 0132 03       		.uleb128 0x3
 2136 0133 0E       		.uleb128 0xe
 2137 0134 3A       		.uleb128 0x3a
 2138 0135 0B       		.uleb128 0xb
 2139 0136 3B       		.uleb128 0x3b
 2140 0137 05       		.uleb128 0x5
 2141 0138 49       		.uleb128 0x49
 2142 0139 13       		.uleb128 0x13
 2143 013a 00       		.byte	0
 2144 013b 00       		.byte	0
 2145 013c 1B       		.uleb128 0x1b
 2146 013d 2E       		.uleb128 0x2e
 2147 013e 00       		.byte	0
 2148 013f 03       		.uleb128 0x3
 2149 0140 0E       		.uleb128 0xe
 2150 0141 3A       		.uleb128 0x3a
 2151 0142 0B       		.uleb128 0xb
 2152 0143 3B       		.uleb128 0x3b
 2153 0144 05       		.uleb128 0x5
 2154 0145 27       		.uleb128 0x27
 2155 0146 19       		.uleb128 0x19
 2156 0147 20       		.uleb128 0x20
 2157 0148 0B       		.uleb128 0xb
 2158 0149 00       		.byte	0
 2159 014a 00       		.byte	0
 2160 014b 1C       		.uleb128 0x1c
 2161 014c 2E       		.uleb128 0x2e
 2162 014d 01       		.byte	0x1
 2163 014e 03       		.uleb128 0x3
 2164 014f 0E       		.uleb128 0xe
 2165 0150 3A       		.uleb128 0x3a
 2166 0151 0B       		.uleb128 0xb
ARM GAS  /tmp/ccbQOnDu.s 			page 39


 2167 0152 3B       		.uleb128 0x3b
 2168 0153 0B       		.uleb128 0xb
 2169 0154 27       		.uleb128 0x27
 2170 0155 19       		.uleb128 0x19
 2171 0156 49       		.uleb128 0x49
 2172 0157 13       		.uleb128 0x13
 2173 0158 20       		.uleb128 0x20
 2174 0159 0B       		.uleb128 0xb
 2175 015a 01       		.uleb128 0x1
 2176 015b 13       		.uleb128 0x13
 2177 015c 00       		.byte	0
 2178 015d 00       		.byte	0
 2179 015e 1D       		.uleb128 0x1d
 2180 015f 34       		.uleb128 0x34
 2181 0160 00       		.byte	0
 2182 0161 03       		.uleb128 0x3
 2183 0162 0E       		.uleb128 0xe
 2184 0163 3A       		.uleb128 0x3a
 2185 0164 0B       		.uleb128 0xb
 2186 0165 3B       		.uleb128 0x3b
 2187 0166 0B       		.uleb128 0xb
 2188 0167 49       		.uleb128 0x49
 2189 0168 13       		.uleb128 0x13
 2190 0169 00       		.byte	0
 2191 016a 00       		.byte	0
 2192 016b 1E       		.uleb128 0x1e
 2193 016c 2E       		.uleb128 0x2e
 2194 016d 01       		.byte	0x1
 2195 016e 03       		.uleb128 0x3
 2196 016f 0E       		.uleb128 0xe
 2197 0170 3A       		.uleb128 0x3a
 2198 0171 0B       		.uleb128 0xb
 2199 0172 3B       		.uleb128 0x3b
 2200 0173 0B       		.uleb128 0xb
 2201 0174 27       		.uleb128 0x27
 2202 0175 19       		.uleb128 0x19
 2203 0176 20       		.uleb128 0x20
 2204 0177 0B       		.uleb128 0xb
 2205 0178 01       		.uleb128 0x1
 2206 0179 13       		.uleb128 0x13
 2207 017a 00       		.byte	0
 2208 017b 00       		.byte	0
 2209 017c 1F       		.uleb128 0x1f
 2210 017d 05       		.uleb128 0x5
 2211 017e 00       		.byte	0
 2212 017f 03       		.uleb128 0x3
 2213 0180 0E       		.uleb128 0xe
 2214 0181 3A       		.uleb128 0x3a
 2215 0182 0B       		.uleb128 0xb
 2216 0183 3B       		.uleb128 0x3b
 2217 0184 0B       		.uleb128 0xb
 2218 0185 49       		.uleb128 0x49
 2219 0186 13       		.uleb128 0x13
 2220 0187 00       		.byte	0
 2221 0188 00       		.byte	0
 2222 0189 20       		.uleb128 0x20
 2223 018a 2E       		.uleb128 0x2e
ARM GAS  /tmp/ccbQOnDu.s 			page 40


 2224 018b 01       		.byte	0x1
 2225 018c 03       		.uleb128 0x3
 2226 018d 0E       		.uleb128 0xe
 2227 018e 3A       		.uleb128 0x3a
 2228 018f 0B       		.uleb128 0xb
 2229 0190 3B       		.uleb128 0x3b
 2230 0191 05       		.uleb128 0x5
 2231 0192 27       		.uleb128 0x27
 2232 0193 19       		.uleb128 0x19
 2233 0194 49       		.uleb128 0x49
 2234 0195 13       		.uleb128 0x13
 2235 0196 20       		.uleb128 0x20
 2236 0197 0B       		.uleb128 0xb
 2237 0198 01       		.uleb128 0x1
 2238 0199 13       		.uleb128 0x13
 2239 019a 00       		.byte	0
 2240 019b 00       		.byte	0
 2241 019c 21       		.uleb128 0x21
 2242 019d 34       		.uleb128 0x34
 2243 019e 00       		.byte	0
 2244 019f 03       		.uleb128 0x3
 2245 01a0 0E       		.uleb128 0xe
 2246 01a1 3A       		.uleb128 0x3a
 2247 01a2 0B       		.uleb128 0xb
 2248 01a3 3B       		.uleb128 0x3b
 2249 01a4 05       		.uleb128 0x5
 2250 01a5 49       		.uleb128 0x49
 2251 01a6 13       		.uleb128 0x13
 2252 01a7 00       		.byte	0
 2253 01a8 00       		.byte	0
 2254 01a9 22       		.uleb128 0x22
 2255 01aa 2E       		.uleb128 0x2e
 2256 01ab 01       		.byte	0x1
 2257 01ac 3F       		.uleb128 0x3f
 2258 01ad 19       		.uleb128 0x19
 2259 01ae 03       		.uleb128 0x3
 2260 01af 0E       		.uleb128 0xe
 2261 01b0 3A       		.uleb128 0x3a
 2262 01b1 0B       		.uleb128 0xb
 2263 01b2 3B       		.uleb128 0x3b
 2264 01b3 0B       		.uleb128 0xb
 2265 01b4 27       		.uleb128 0x27
 2266 01b5 19       		.uleb128 0x19
 2267 01b6 11       		.uleb128 0x11
 2268 01b7 01       		.uleb128 0x1
 2269 01b8 12       		.uleb128 0x12
 2270 01b9 06       		.uleb128 0x6
 2271 01ba 40       		.uleb128 0x40
 2272 01bb 18       		.uleb128 0x18
 2273 01bc 9742     		.uleb128 0x2117
 2274 01be 19       		.uleb128 0x19
 2275 01bf 01       		.uleb128 0x1
 2276 01c0 13       		.uleb128 0x13
 2277 01c1 00       		.byte	0
 2278 01c2 00       		.byte	0
 2279 01c3 23       		.uleb128 0x23
 2280 01c4 34       		.uleb128 0x34
ARM GAS  /tmp/ccbQOnDu.s 			page 41


 2281 01c5 00       		.byte	0
 2282 01c6 03       		.uleb128 0x3
 2283 01c7 0E       		.uleb128 0xe
 2284 01c8 3A       		.uleb128 0x3a
 2285 01c9 0B       		.uleb128 0xb
 2286 01ca 3B       		.uleb128 0x3b
 2287 01cb 0B       		.uleb128 0xb
 2288 01cc 49       		.uleb128 0x49
 2289 01cd 13       		.uleb128 0x13
 2290 01ce 02       		.uleb128 0x2
 2291 01cf 17       		.uleb128 0x17
 2292 01d0 00       		.byte	0
 2293 01d1 00       		.byte	0
 2294 01d2 24       		.uleb128 0x24
 2295 01d3 1D       		.uleb128 0x1d
 2296 01d4 01       		.byte	0x1
 2297 01d5 31       		.uleb128 0x31
 2298 01d6 13       		.uleb128 0x13
 2299 01d7 11       		.uleb128 0x11
 2300 01d8 01       		.uleb128 0x1
 2301 01d9 12       		.uleb128 0x12
 2302 01da 06       		.uleb128 0x6
 2303 01db 58       		.uleb128 0x58
 2304 01dc 0B       		.uleb128 0xb
 2305 01dd 59       		.uleb128 0x59
 2306 01de 0B       		.uleb128 0xb
 2307 01df 01       		.uleb128 0x1
 2308 01e0 13       		.uleb128 0x13
 2309 01e1 00       		.byte	0
 2310 01e2 00       		.byte	0
 2311 01e3 25       		.uleb128 0x25
 2312 01e4 0B       		.uleb128 0xb
 2313 01e5 01       		.byte	0x1
 2314 01e6 11       		.uleb128 0x11
 2315 01e7 01       		.uleb128 0x1
 2316 01e8 12       		.uleb128 0x12
 2317 01e9 06       		.uleb128 0x6
 2318 01ea 00       		.byte	0
 2319 01eb 00       		.byte	0
 2320 01ec 26       		.uleb128 0x26
 2321 01ed 34       		.uleb128 0x34
 2322 01ee 00       		.byte	0
 2323 01ef 31       		.uleb128 0x31
 2324 01f0 13       		.uleb128 0x13
 2325 01f1 02       		.uleb128 0x2
 2326 01f2 17       		.uleb128 0x17
 2327 01f3 00       		.byte	0
 2328 01f4 00       		.byte	0
 2329 01f5 27       		.uleb128 0x27
 2330 01f6 05       		.uleb128 0x5
 2331 01f7 00       		.byte	0
 2332 01f8 31       		.uleb128 0x31
 2333 01f9 13       		.uleb128 0x13
 2334 01fa 02       		.uleb128 0x2
 2335 01fb 17       		.uleb128 0x17
 2336 01fc 00       		.byte	0
 2337 01fd 00       		.byte	0
ARM GAS  /tmp/ccbQOnDu.s 			page 42


 2338 01fe 28       		.uleb128 0x28
 2339 01ff 1D       		.uleb128 0x1d
 2340 0200 01       		.byte	0x1
 2341 0201 31       		.uleb128 0x31
 2342 0202 13       		.uleb128 0x13
 2343 0203 11       		.uleb128 0x11
 2344 0204 01       		.uleb128 0x1
 2345 0205 12       		.uleb128 0x12
 2346 0206 06       		.uleb128 0x6
 2347 0207 58       		.uleb128 0x58
 2348 0208 0B       		.uleb128 0xb
 2349 0209 59       		.uleb128 0x59
 2350 020a 0B       		.uleb128 0xb
 2351 020b 00       		.byte	0
 2352 020c 00       		.byte	0
 2353 020d 29       		.uleb128 0x29
 2354 020e 1D       		.uleb128 0x1d
 2355 020f 01       		.byte	0x1
 2356 0210 31       		.uleb128 0x31
 2357 0211 13       		.uleb128 0x13
 2358 0212 11       		.uleb128 0x11
 2359 0213 01       		.uleb128 0x1
 2360 0214 12       		.uleb128 0x12
 2361 0215 06       		.uleb128 0x6
 2362 0216 58       		.uleb128 0x58
 2363 0217 0B       		.uleb128 0xb
 2364 0218 59       		.uleb128 0x59
 2365 0219 05       		.uleb128 0x5
 2366 021a 00       		.byte	0
 2367 021b 00       		.byte	0
 2368 021c 2A       		.uleb128 0x2a
 2369 021d 05       		.uleb128 0x5
 2370 021e 00       		.byte	0
 2371 021f 31       		.uleb128 0x31
 2372 0220 13       		.uleb128 0x13
 2373 0221 1C       		.uleb128 0x1c
 2374 0222 0B       		.uleb128 0xb
 2375 0223 00       		.byte	0
 2376 0224 00       		.byte	0
 2377 0225 2B       		.uleb128 0x2b
 2378 0226 0B       		.uleb128 0xb
 2379 0227 01       		.byte	0x1
 2380 0228 11       		.uleb128 0x11
 2381 0229 01       		.uleb128 0x1
 2382 022a 12       		.uleb128 0x12
 2383 022b 06       		.uleb128 0x6
 2384 022c 01       		.uleb128 0x1
 2385 022d 13       		.uleb128 0x13
 2386 022e 00       		.byte	0
 2387 022f 00       		.byte	0
 2388 0230 2C       		.uleb128 0x2c
 2389 0231 34       		.uleb128 0x34
 2390 0232 00       		.byte	0
 2391 0233 31       		.uleb128 0x31
 2392 0234 13       		.uleb128 0x13
 2393 0235 00       		.byte	0
 2394 0236 00       		.byte	0
ARM GAS  /tmp/ccbQOnDu.s 			page 43


 2395 0237 2D       		.uleb128 0x2d
 2396 0238 898201   		.uleb128 0x4109
 2397 023b 00       		.byte	0
 2398 023c 11       		.uleb128 0x11
 2399 023d 01       		.uleb128 0x1
 2400 023e 31       		.uleb128 0x31
 2401 023f 13       		.uleb128 0x13
 2402 0240 00       		.byte	0
 2403 0241 00       		.byte	0
 2404 0242 2E       		.uleb128 0x2e
 2405 0243 34       		.uleb128 0x34
 2406 0244 00       		.byte	0
 2407 0245 03       		.uleb128 0x3
 2408 0246 0E       		.uleb128 0xe
 2409 0247 3A       		.uleb128 0x3a
 2410 0248 0B       		.uleb128 0xb
 2411 0249 3B       		.uleb128 0x3b
 2412 024a 05       		.uleb128 0x5
 2413 024b 49       		.uleb128 0x49
 2414 024c 13       		.uleb128 0x13
 2415 024d 3F       		.uleb128 0x3f
 2416 024e 19       		.uleb128 0x19
 2417 024f 3C       		.uleb128 0x3c
 2418 0250 19       		.uleb128 0x19
 2419 0251 00       		.byte	0
 2420 0252 00       		.byte	0
 2421 0253 2F       		.uleb128 0x2f
 2422 0254 34       		.uleb128 0x34
 2423 0255 00       		.byte	0
 2424 0256 03       		.uleb128 0x3
 2425 0257 08       		.uleb128 0x8
 2426 0258 3A       		.uleb128 0x3a
 2427 0259 0B       		.uleb128 0xb
 2428 025a 3B       		.uleb128 0x3b
 2429 025b 05       		.uleb128 0x5
 2430 025c 49       		.uleb128 0x49
 2431 025d 13       		.uleb128 0x13
 2432 025e 3F       		.uleb128 0x3f
 2433 025f 19       		.uleb128 0x19
 2434 0260 3C       		.uleb128 0x3c
 2435 0261 19       		.uleb128 0x19
 2436 0262 00       		.byte	0
 2437 0263 00       		.byte	0
 2438 0264 30       		.uleb128 0x30
 2439 0265 2E       		.uleb128 0x2e
 2440 0266 00       		.byte	0
 2441 0267 3F       		.uleb128 0x3f
 2442 0268 19       		.uleb128 0x19
 2443 0269 03       		.uleb128 0x3
 2444 026a 0E       		.uleb128 0xe
 2445 026b 3A       		.uleb128 0x3a
 2446 026c 0B       		.uleb128 0xb
 2447 026d 3B       		.uleb128 0x3b
 2448 026e 05       		.uleb128 0x5
 2449 026f 27       		.uleb128 0x27
 2450 0270 19       		.uleb128 0x19
 2451 0271 49       		.uleb128 0x49
ARM GAS  /tmp/ccbQOnDu.s 			page 44


 2452 0272 13       		.uleb128 0x13
 2453 0273 3C       		.uleb128 0x3c
 2454 0274 19       		.uleb128 0x19
 2455 0275 00       		.byte	0
 2456 0276 00       		.byte	0
 2457 0277 00       		.byte	0
 2458              		.section	.debug_loc,"",%progbits
 2459              	.Ldebug_loc0:
 2460              	.LLST0:
 2461 0000 0E000000 		.4byte	.LVL0
 2462 0004 10000000 		.4byte	.LVL1
 2463 0008 0400     		.2byte	0x4
 2464 000a 73       		.byte	0x73
 2465 000b E800     		.sleb128 104
 2466 000d 9F       		.byte	0x9f
 2467 000e 10000000 		.4byte	.LVL1
 2468 0012 16000000 		.4byte	.LVL3
 2469 0016 0100     		.2byte	0x1
 2470 0018 53       		.byte	0x53
 2471 0019 00000000 		.4byte	0
 2472 001d 00000000 		.4byte	0
 2473              	.LLST1:
 2474 0021 0E000000 		.4byte	.LVL0
 2475 0025 10000000 		.4byte	.LVL1
 2476 0029 0100     		.2byte	0x1
 2477 002b 53       		.byte	0x53
 2478 002c 10000000 		.4byte	.LVL1
 2479 0030 16000000 		.4byte	.LVL3
 2480 0034 0400     		.2byte	0x4
 2481 0036 73       		.byte	0x73
 2482 0037 987F     		.sleb128 -104
 2483 0039 9F       		.byte	0x9f
 2484 003a 00000000 		.4byte	0
 2485 003e 00000000 		.4byte	0
 2486              	.LLST3:
 2487 0042 1A000000 		.4byte	.LVL6
 2488 0046 2E000000 		.4byte	.LVL8
 2489 004a 0400     		.2byte	0x4
 2490 004c 74       		.byte	0x74
 2491 004d 987F     		.sleb128 -104
 2492 004f 9F       		.byte	0x9f
 2493 0050 2E000000 		.4byte	.LVL8
 2494 0054 35000000 		.4byte	.LVL9-1
 2495 0058 0100     		.2byte	0x1
 2496 005a 53       		.byte	0x53
 2497 005b 35000000 		.4byte	.LVL9-1
 2498 005f 44000000 		.4byte	.LVL10
 2499 0063 0400     		.2byte	0x4
 2500 0065 74       		.byte	0x74
 2501 0066 987F     		.sleb128 -104
 2502 0068 9F       		.byte	0x9f
 2503 0069 00000000 		.4byte	0
 2504 006d 00000000 		.4byte	0
 2505              	.LLST4:
 2506 0071 1A000000 		.4byte	.LVL6
 2507 0075 44000000 		.4byte	.LVL10
 2508 0079 0100     		.2byte	0x1
ARM GAS  /tmp/ccbQOnDu.s 			page 45


 2509 007b 54       		.byte	0x54
 2510 007c 00000000 		.4byte	0
 2511 0080 00000000 		.4byte	0
 2512              	.LLST5:
 2513 0084 2A000000 		.4byte	.LVL7
 2514 0088 2E000000 		.4byte	.LVL8
 2515 008c 0400     		.2byte	0x4
 2516 008e 74       		.byte	0x74
 2517 008f 987F     		.sleb128 -104
 2518 0091 9F       		.byte	0x9f
 2519 0092 2E000000 		.4byte	.LVL8
 2520 0096 35000000 		.4byte	.LVL9-1
 2521 009a 0100     		.2byte	0x1
 2522 009c 53       		.byte	0x53
 2523 009d 35000000 		.4byte	.LVL9-1
 2524 00a1 44000000 		.4byte	.LVL10
 2525 00a5 0400     		.2byte	0x4
 2526 00a7 74       		.byte	0x74
 2527 00a8 987F     		.sleb128 -104
 2528 00aa 9F       		.byte	0x9f
 2529 00ab 00000000 		.4byte	0
 2530 00af 00000000 		.4byte	0
 2531              		.section	.debug_aranges,"",%progbits
 2532 0000 24000000 		.4byte	0x24
 2533 0004 0200     		.2byte	0x2
 2534 0006 00000000 		.4byte	.Ldebug_info0
 2535 000a 04       		.byte	0x4
 2536 000b 00       		.byte	0
 2537 000c 0000     		.2byte	0
 2538 000e 0000     		.2byte	0
 2539 0010 00000000 		.4byte	.LFB246
 2540 0014 20000000 		.4byte	.LFE246-.LFB246
 2541 0018 00000000 		.4byte	.LFB247
 2542 001c 5C000000 		.4byte	.LFE247-.LFB247
 2543 0020 00000000 		.4byte	0
 2544 0024 00000000 		.4byte	0
 2545              		.section	.debug_ranges,"",%progbits
 2546              	.Ldebug_ranges0:
 2547 0000 00000000 		.4byte	.LFB246
 2548 0004 20000000 		.4byte	.LFE246
 2549 0008 00000000 		.4byte	.LFB247
 2550 000c 5C000000 		.4byte	.LFE247
 2551 0010 00000000 		.4byte	0
 2552 0014 00000000 		.4byte	0
 2553              		.section	.debug_line,"",%progbits
 2554              	.Ldebug_line0:
 2555 0000 32020000 		.section	.debug_str,"MS",%progbits,1
 2555      0200C501 
 2555      00000201 
 2555      FB0E0D00 
 2555      01010101 
 2556              	.LASF53:
 2557 0000 72656164 		.ascii	"ready_list_t\000"
 2557      795F6C69 
 2557      73745F74 
 2557      00
 2558              	.LASF120:
ARM GAS  /tmp/ccbQOnDu.s 			page 46


 2559 000d 77747472 		.ascii	"wttrp\000"
 2559      7000
 2560              	.LASF59:
 2561 0013 64656C74 		.ascii	"delta\000"
 2561      6100
 2562              	.LASF117:
 2563 0019 7264796D 		.ascii	"rdymsg\000"
 2563      736700
 2564              	.LASF92:
 2565 0020 46504453 		.ascii	"FPDSCR\000"
 2565      435200
 2566              	.LASF16:
 2567 0027 75696E74 		.ascii	"uint64_t\000"
 2567      36345F74 
 2567      00
 2568              	.LASF72:
 2569 0030 6B65726E 		.ascii	"kernel_stats\000"
 2569      656C5F73 
 2569      74617473 
 2569      00
 2570              	.LASF1:
 2571 003d 7369676E 		.ascii	"signed char\000"
 2571      65642063 
 2571      68617200 
 2572              	.LASF5:
 2573 0049 5F5F7569 		.ascii	"__uint8_t\000"
 2573      6E74385F 
 2573      7400
 2574              	.LASF52:
 2575 0053 70726576 		.ascii	"prev\000"
 2575      00
 2576              	.LASF99:
 2577 0058 706F7274 		.ascii	"port_intctx\000"
 2577      5F696E74 
 2577      63747800 
 2578              	.LASF51:
 2579 0064 63685F74 		.ascii	"ch_threads_queue\000"
 2579      68726561 
 2579      64735F71 
 2579      75657565 
 2579      00
 2580              	.LASF64:
 2581 0075 73797374 		.ascii	"system_debug_t\000"
 2581      656D5F64 
 2581      65627567 
 2581      5F7400
 2582              	.LASF46:
 2583 0084 74687265 		.ascii	"threads_list_t\000"
 2583      6164735F 
 2583      6C697374 
 2583      5F7400
 2584              	.LASF131:
 2585 0093 706F7274 		.ascii	"port_lock\000"
 2585      5F6C6F63 
 2585      6B00
 2586              	.LASF108:
 2587 009d 776F7273 		.ascii	"worst\000"
ARM GAS  /tmp/ccbQOnDu.s 			page 47


 2587      7400
 2588              	.LASF111:
 2589 00a3 74696D65 		.ascii	"time_measurement_t\000"
 2589      5F6D6561 
 2589      73757265 
 2589      6D656E74 
 2589      5F7400
 2590              	.LASF118:
 2591 00b6 65786974 		.ascii	"exitcode\000"
 2591      636F6465 
 2591      00
 2592              	.LASF71:
 2593 00bf 6D61696E 		.ascii	"mainthread\000"
 2593      74687265 
 2593      616400
 2594              	.LASF121:
 2595 00ca 73656E74 		.ascii	"sentmsg\000"
 2595      6D736700 
 2596              	.LASF61:
 2597 00d2 76697274 		.ascii	"virtual_timers_list_t\000"
 2597      75616C5F 
 2597      74696D65 
 2597      72735F6C 
 2597      6973745F 
 2598              	.LASF74:
 2599 00e8 43505549 		.ascii	"CPUID\000"
 2599      4400
 2600              	.LASF49:
 2601 00ee 6E657874 		.ascii	"next\000"
 2601      00
 2602              	.LASF18:
 2603 00f3 72747469 		.ascii	"rttime_t\000"
 2603      6D655F74 
 2603      00
 2604              	.LASF12:
 2605 00fc 6C6F6E67 		.ascii	"long long unsigned int\000"
 2605      206C6F6E 
 2605      6720756E 
 2605      7369676E 
 2605      65642069 
 2606              	.LASF86:
 2607 0113 49534152 		.ascii	"ISAR\000"
 2607      00
 2608              	.LASF70:
 2609 0118 76746C69 		.ascii	"vtlist\000"
 2609      737400
 2610              	.LASF148:
 2611 011f 2F686F6D 		.ascii	"/home/kozinalexey/f4by/ardupilot/build/f4by-ch\000"
 2611      652F6B6F 
 2611      7A696E61 
 2611      6C657865 
 2611      792F6634 
 2612              	.LASF132:
 2613 014e 706F7274 		.ascii	"port_unlock\000"
 2613      5F756E6C 
 2613      6F636B00 
 2614              	.LASF39:
ARM GAS  /tmp/ccbQOnDu.s 			page 48


 2615 015a 6D736771 		.ascii	"msgqueue\000"
 2615      75657565 
 2615      00
 2616              	.LASF35:
 2617 0163 73746174 		.ascii	"state\000"
 2617      6500
 2618              	.LASF7:
 2619 0169 6C6F6E67 		.ascii	"long int\000"
 2619      20696E74 
 2619      00
 2620              	.LASF20:
 2621 0172 74737461 		.ascii	"tstate_t\000"
 2621      74655F74 
 2621      00
 2622              	.LASF60:
 2623 017b 66756E63 		.ascii	"func\000"
 2623      00
 2624              	.LASF44:
 2625 0180 73746174 		.ascii	"stats\000"
 2625      7300
 2626              	.LASF149:
 2627 0186 63685363 		.ascii	"chSchIsPreemptionRequired\000"
 2627      68497350 
 2627      7265656D 
 2627      7074696F 
 2627      6E526571 
 2628              	.LASF8:
 2629 01a0 5F5F7569 		.ascii	"__uint32_t\000"
 2629      6E743332 
 2629      5F7400
 2630              	.LASF96:
 2631 01ab 72656761 		.ascii	"regarm_t\000"
 2631      726D5F74 
 2631      00
 2632              	.LASF89:
 2633 01b4 5343425F 		.ascii	"SCB_Type\000"
 2633      54797065 
 2633      00
 2634              	.LASF65:
 2635 01bd 63685F73 		.ascii	"ch_system_debug\000"
 2635      79737465 
 2635      6D5F6465 
 2635      62756700 
 2636              	.LASF38:
 2637 01cd 77616974 		.ascii	"waiting\000"
 2637      696E6700 
 2638              	.LASF10:
 2639 01d5 6C6F6E67 		.ascii	"long long int\000"
 2639      206C6F6E 
 2639      6720696E 
 2639      7400
 2640              	.LASF135:
 2641 01e3 76616C75 		.ascii	"value\000"
 2641      6500
 2642              	.LASF25:
 2643 01e9 636E745F 		.ascii	"cnt_t\000"
 2643      7400
ARM GAS  /tmp/ccbQOnDu.s 			page 49


 2644              	.LASF95:
 2645 01ef 4650555F 		.ascii	"FPU_Type\000"
 2645      54797065 
 2645      00
 2646              	.LASF0:
 2647 01f8 756E7369 		.ascii	"unsigned int\000"
 2647      676E6564 
 2647      20696E74 
 2647      00
 2648              	.LASF134:
 2649 0205 5F5F7365 		.ascii	"__set_PSP\000"
 2649      745F5053 
 2649      5000
 2650              	.LASF122:
 2651 020f 77747365 		.ascii	"wtsemp\000"
 2651      6D7000
 2652              	.LASF112:
 2653 0216 6E5F6972 		.ascii	"n_irq\000"
 2653      7100
 2654              	.LASF76:
 2655 021c 56544F52 		.ascii	"VTOR\000"
 2655      00
 2656              	.LASF43:
 2657 0221 6D706F6F 		.ascii	"mpool\000"
 2657      6C00
 2658              	.LASF104:
 2659 0227 72657365 		.ascii	"reserved\000"
 2659      72766564 
 2659      00
 2660              	.LASF116:
 2661 0230 6B65726E 		.ascii	"kernel_stats_t\000"
 2661      656C5F73 
 2661      74617473 
 2661      5F7400
 2662              	.LASF33:
 2663 023f 6E616D65 		.ascii	"name\000"
 2663      00
 2664              	.LASF47:
 2665 0244 63685F74 		.ascii	"ch_thread\000"
 2665      68726561 
 2665      6400
 2666              	.LASF83:
 2667 024e 42464152 		.ascii	"BFAR\000"
 2667      00
 2668              	.LASF75:
 2669 0253 49435352 		.ascii	"ICSR\000"
 2669      00
 2670              	.LASF23:
 2671 0258 6D73675F 		.ascii	"msg_t\000"
 2671      7400
 2672              	.LASF77:
 2673 025e 41495243 		.ascii	"AIRCR\000"
 2673      5200
 2674              	.LASF81:
 2675 0264 44465352 		.ascii	"DFSR\000"
 2675      00
 2676              	.LASF26:
ARM GAS  /tmp/ccbQOnDu.s 			page 50


 2677 0269 75636E74 		.ascii	"ucnt_t\000"
 2677      5F7400
 2678              	.LASF40:
 2679 0270 6570656E 		.ascii	"epending\000"
 2679      64696E67 
 2679      00
 2680              	.LASF82:
 2681 0279 4D4D4641 		.ascii	"MMFAR\000"
 2681      5200
 2682              	.LASF143:
 2683 027f 5F706F72 		.ascii	"_port_irq_epilogue\000"
 2683      745F6972 
 2683      715F6570 
 2683      696C6F67 
 2683      756500
 2684              	.LASF146:
 2685 0292 474E5520 		.ascii	"GNU C 4.9.3 20150529 (prerelease) -mcpu=cortex-m4 -"
 2685      4320342E 
 2685      392E3320 
 2685      32303135 
 2685      30353239 
 2686 02c5 6D666C6F 		.ascii	"mfloat-abi=hard -mfpu=fpv4-sp-d16 -mno-thumb-interw"
 2686      61742D61 
 2686      62693D68 
 2686      61726420 
 2686      2D6D6670 
 2687 02f8 6F726B20 		.ascii	"ork -mthumb -g -Os -fomit-frame-pointer -falign-fun"
 2687      2D6D7468 
 2687      756D6220 
 2687      2D67202D 
 2687      4F73202D 
 2688 032b 6374696F 		.ascii	"ctions=16 -ffunction-sections -fdata-sections -fno-"
 2688      6E733D31 
 2688      36202D66 
 2688      66756E63 
 2688      74696F6E 
 2689 035e 636F6D6D 		.ascii	"common -fsingle-precision-constant\000"
 2689      6F6E202D 
 2689      6673696E 
 2689      676C652D 
 2689      70726563 
 2690              	.LASF19:
 2691 0381 746D6F64 		.ascii	"tmode_t\000"
 2691      655F7400 
 2692              	.LASF115:
 2693 0389 6D5F6372 		.ascii	"m_crit_isr\000"
 2693      69745F69 
 2693      737200
 2694              	.LASF54:
 2695 0394 63685F72 		.ascii	"ch_ready_list\000"
 2695      65616479 
 2695      5F6C6973 
 2695      7400
 2696              	.LASF24:
 2697 03a2 6576656E 		.ascii	"eventmask_t\000"
 2697      746D6173 
 2697      6B5F7400 
ARM GAS  /tmp/ccbQOnDu.s 			page 51


 2698              	.LASF136:
 2699 03ae 746F704F 		.ascii	"topOfProcStack\000"
 2699      6650726F 
 2699      63537461 
 2699      636B00
 2700              	.LASF6:
 2701 03bd 5F5F696E 		.ascii	"__int32_t\000"
 2701      7433325F 
 2701      7400
 2702              	.LASF97:
 2703 03c7 73746B61 		.ascii	"stkalign_t\000"
 2703      6C69676E 
 2703      5F7400
 2704              	.LASF31:
 2705 03d2 6E657765 		.ascii	"newer\000"
 2705      7200
 2706              	.LASF42:
 2707 03d8 7265616C 		.ascii	"realprio\000"
 2707      7072696F 
 2707      00
 2708              	.LASF90:
 2709 03e1 46504343 		.ascii	"FPCCR\000"
 2709      5200
 2710              	.LASF73:
 2711 03e7 73697A65 		.ascii	"sizetype\000"
 2711      74797065 
 2711      00
 2712              	.LASF45:
 2713 03f0 74687265 		.ascii	"thread_reference_t\000"
 2713      61645F72 
 2713      65666572 
 2713      656E6365 
 2713      5F7400
 2714              	.LASF62:
 2715 0403 63685F76 		.ascii	"ch_virtual_timers_list\000"
 2715      69727475 
 2715      616C5F74 
 2715      696D6572 
 2715      735F6C69 
 2716              	.LASF29:
 2717 041a 71756575 		.ascii	"queue\000"
 2717      6500
 2718              	.LASF79:
 2719 0420 43465352 		.ascii	"CFSR\000"
 2719      00
 2720              	.LASF98:
 2721 0425 706F7274 		.ascii	"port_context\000"
 2721      5F636F6E 
 2721      74657874 
 2721      00
 2722              	.LASF100:
 2723 0432 706F7274 		.ascii	"port_extctx\000"
 2723      5F657874 
 2723      63747800 
 2724              	.LASF106:
 2725 043e 746D5F63 		.ascii	"tm_calibration_t\000"
 2725      616C6962 
ARM GAS  /tmp/ccbQOnDu.s 			page 52


 2725      72617469 
 2725      6F6E5F74 
 2725      00
 2726              	.LASF30:
 2727 044f 7072696F 		.ascii	"prio\000"
 2727      00
 2728              	.LASF55:
 2729 0454 63757272 		.ascii	"current\000"
 2729      656E7400 
 2730              	.LASF109:
 2731 045c 6C617374 		.ascii	"last\000"
 2731      00
 2732              	.LASF11:
 2733 0461 5F5F7569 		.ascii	"__uint64_t\000"
 2733      6E743634 
 2733      5F7400
 2734              	.LASF110:
 2735 046c 63756D75 		.ascii	"cumulative\000"
 2735      6C617469 
 2735      766500
 2736              	.LASF93:
 2737 0477 4D564652 		.ascii	"MVFR0\000"
 2737      3000
 2738              	.LASF94:
 2739 047d 4D564652 		.ascii	"MVFR1\000"
 2739      3100
 2740              	.LASF21:
 2741 0483 74726566 		.ascii	"trefs_t\000"
 2741      735F7400 
 2742              	.LASF87:
 2743 048b 52455345 		.ascii	"RESERVED0\000"
 2743      52564544 
 2743      3000
 2744              	.LASF144:
 2745 0495 63747870 		.ascii	"ctxp\000"
 2745      00
 2746              	.LASF57:
 2747 049a 76697274 		.ascii	"virtual_timer_t\000"
 2747      75616C5F 
 2747      74696D65 
 2747      725F7400 
 2748              	.LASF22:
 2749 04aa 74707269 		.ascii	"tprio_t\000"
 2749      6F5F7400 
 2750              	.LASF140:
 2751 04b2 5F5F6765 		.ascii	"__get_FPSCR\000"
 2751      745F4650 
 2751      53435200 
 2752              	.LASF113:
 2753 04be 6E5F6374 		.ascii	"n_ctxswc\000"
 2753      78737763 
 2753      00
 2754              	.LASF130:
 2755 04c7 5F426F6F 		.ascii	"_Bool\000"
 2755      6C00
 2756              	.LASF14:
 2757 04cd 696E7433 		.ascii	"int32_t\000"
ARM GAS  /tmp/ccbQOnDu.s 			page 53


 2757      325F7400 
 2758              	.LASF2:
 2759 04d5 756E7369 		.ascii	"unsigned char\000"
 2759      676E6564 
 2759      20636861 
 2759      7200
 2760              	.LASF78:
 2761 04e3 53484353 		.ascii	"SHCSR\000"
 2761      5200
 2762              	.LASF145:
 2763 04e9 49544D5F 		.ascii	"ITM_RxBuffer\000"
 2763      52784275 
 2763      66666572 
 2763      00
 2764              	.LASF37:
 2765 04f6 72656673 		.ascii	"refs\000"
 2765      00
 2766              	.LASF3:
 2767 04fb 73686F72 		.ascii	"short int\000"
 2767      7420696E 
 2767      7400
 2768              	.LASF63:
 2769 0505 6C617374 		.ascii	"lasttime\000"
 2769      74696D65 
 2769      00
 2770              	.LASF102:
 2771 050e 78707372 		.ascii	"xpsr\000"
 2771      00
 2772              	.LASF124:
 2773 0513 65776D61 		.ascii	"ewmask\000"
 2773      736B00
 2774              	.LASF68:
 2775 051a 63685F73 		.ascii	"ch_system\000"
 2775      79737465 
 2775      6D00
 2776              	.LASF103:
 2777 0524 66707363 		.ascii	"fpscr\000"
 2777      7200
 2778              	.LASF101:
 2779 052a 6C725F74 		.ascii	"lr_thd\000"
 2779      686400
 2780              	.LASF91:
 2781 0531 46504341 		.ascii	"FPCAR\000"
 2781      5200
 2782              	.LASF142:
 2783 0537 5356435F 		.ascii	"SVC_Handler\000"
 2783      48616E64 
 2783      6C657200 
 2784              	.LASF58:
 2785 0543 63685F76 		.ascii	"ch_virtual_timer\000"
 2785      69727475 
 2785      616C5F74 
 2785      696D6572 
 2785      00
 2786              	.LASF125:
 2787 0554 63685F73 		.ascii	"ch_semaphore\000"
 2787      656D6170 
ARM GAS  /tmp/ccbQOnDu.s 			page 54


 2787      686F7265 
 2787      00
 2788              	.LASF15:
 2789 0561 75696E74 		.ascii	"uint32_t\000"
 2789      33325F74 
 2789      00
 2790              	.LASF123:
 2791 056a 77746D74 		.ascii	"wtmtxp\000"
 2791      787000
 2792              	.LASF84:
 2793 0571 41465352 		.ascii	"AFSR\000"
 2793      00
 2794              	.LASF48:
 2795 0576 63685F74 		.ascii	"ch_threads_list\000"
 2795      68726561 
 2795      64735F6C 
 2795      69737400 
 2796              	.LASF127:
 2797 0586 6F776E65 		.ascii	"owner\000"
 2797      7200
 2798              	.LASF9:
 2799 058c 6C6F6E67 		.ascii	"long unsigned int\000"
 2799      20756E73 
 2799      69676E65 
 2799      6420696E 
 2799      7400
 2800              	.LASF34:
 2801 059e 77616261 		.ascii	"wabase\000"
 2801      736500
 2802              	.LASF128:
 2803 05a5 63686172 		.ascii	"char\000"
 2803      00
 2804              	.LASF32:
 2805 05aa 6F6C6465 		.ascii	"older\000"
 2805      7200
 2806              	.LASF137:
 2807 05b0 706F7274 		.ascii	"port_unlock_from_isr\000"
 2807      5F756E6C 
 2807      6F636B5F 
 2807      66726F6D 
 2807      5F697372 
 2808              	.LASF28:
 2809 05c5 74687265 		.ascii	"thread_t\000"
 2809      61645F74 
 2809      00
 2810              	.LASF107:
 2811 05ce 62657374 		.ascii	"best\000"
 2811      00
 2812              	.LASF27:
 2813 05d3 73797374 		.ascii	"systime_t\000"
 2813      696D655F 
 2813      7400
 2814              	.LASF56:
 2815 05dd 76746675 		.ascii	"vtfunc_t\000"
 2815      6E635F74 
 2815      00
 2816              	.LASF133:
ARM GAS  /tmp/ccbQOnDu.s 			page 55


 2817 05e6 5F5F7365 		.ascii	"__set_BASEPRI\000"
 2817      745F4241 
 2817      53455052 
 2817      4900
 2818              	.LASF66:
 2819 05f4 70616E69 		.ascii	"panic_msg\000"
 2819      635F6D73 
 2819      6700
 2820              	.LASF105:
 2821 05fe 6F666673 		.ascii	"offset\000"
 2821      657400
 2822              	.LASF4:
 2823 0605 73686F72 		.ascii	"short unsigned int\000"
 2823      7420756E 
 2823      7369676E 
 2823      65642069 
 2823      6E7400
 2824              	.LASF67:
 2825 0618 63685F73 		.ascii	"ch_system_t\000"
 2825      79737465 
 2825      6D5F7400 
 2826              	.LASF17:
 2827 0624 7274636E 		.ascii	"rtcnt_t\000"
 2827      745F7400 
 2828              	.LASF138:
 2829 062c 706F7274 		.ascii	"port_lock_from_isr\000"
 2829      5F6C6F63 
 2829      6B5F6672 
 2829      6F6D5F69 
 2829      737200
 2830              	.LASF139:
 2831 063f 5F5F6765 		.ascii	"__get_PSP\000"
 2831      745F5053 
 2831      5000
 2832              	.LASF50:
 2833 0649 74687265 		.ascii	"threads_queue_t\000"
 2833      6164735F 
 2833      71756575 
 2833      655F7400 
 2834              	.LASF126:
 2835 0659 63685F6D 		.ascii	"ch_mutex\000"
 2835      75746578 
 2835      00
 2836              	.LASF85:
 2837 0662 4D4D4652 		.ascii	"MMFR\000"
 2837      00
 2838              	.LASF69:
 2839 0667 726C6973 		.ascii	"rlist\000"
 2839      7400
 2840              	.LASF147:
 2841 066d 2E2E2F2E 		.ascii	"../../modules/ChibiOS/os/common/ports/ARMCMx/chcore"
 2841      2E2F6D6F 
 2841      64756C65 
 2841      732F4368 
 2841      6962694F 
 2842 06a0 5F76376D 		.ascii	"_v7m.c\000"
 2842      2E6300
ARM GAS  /tmp/ccbQOnDu.s 			page 56


 2843              	.LASF13:
 2844 06a7 75696E74 		.ascii	"uint8_t\000"
 2844      385F7400 
 2845              	.LASF36:
 2846 06af 666C6167 		.ascii	"flags\000"
 2846      7300
 2847              	.LASF119:
 2848 06b5 77746F62 		.ascii	"wtobjp\000"
 2848      6A7000
 2849              	.LASF88:
 2850 06bc 43504143 		.ascii	"CPACR\000"
 2850      5200
 2851              	.LASF80:
 2852 06c2 48465352 		.ascii	"HFSR\000"
 2852      00
 2853              	.LASF41:
 2854 06c7 6D74786C 		.ascii	"mtxlist\000"
 2854      69737400 
 2855              	.LASF129:
 2856 06cf 6D757465 		.ascii	"mutex_t\000"
 2856      785F7400 
 2857              	.LASF114:
 2858 06d7 6D5F6372 		.ascii	"m_crit_thd\000"
 2858      69745F74 
 2858      686400
 2859              	.LASF141:
 2860 06e2 72657375 		.ascii	"result\000"
 2860      6C7400
 2861              		.ident	"GCC: (15:4.9.3+svn231177-1) 4.9.3 20150529 (prerelease)"
ARM GAS  /tmp/ccbQOnDu.s 			page 57


DEFINED SYMBOLS
                            *ABS*:0000000000000000 chcore_v7m.c
     /tmp/ccbQOnDu.s:21     .text.SVC_Handler:0000000000000000 $t
     /tmp/ccbQOnDu.s:26     .text.SVC_Handler:0000000000000000 SVC_Handler
     /tmp/ccbQOnDu.s:80     .text.SVC_Handler:000000000000001c $d
     /tmp/ccbQOnDu.s:89     .text._port_irq_epilogue:0000000000000000 $t
     /tmp/ccbQOnDu.s:94     .text._port_irq_epilogue:0000000000000000 _port_irq_epilogue
     /tmp/ccbQOnDu.s:198    .text._port_irq_epilogue:000000000000004c $d
                     .debug_frame:0000000000000010 $d

UNDEFINED SYMBOLS
chSchIsPreemptionRequired
_port_switch_from_isr
_port_exit_from_isr
