ARM GAS  /tmp/ccq4cqsT.s 			page 1


   1              		.syntax unified
   2              		.cpu cortex-m4
   3              		.eabi_attribute 27, 1
   4              		.eabi_attribute 28, 1
   5              		.fpu fpv4-sp-d16
   6              		.eabi_attribute 20, 1
   7              		.eabi_attribute 21, 1
   8              		.eabi_attribute 23, 3
   9              		.eabi_attribute 24, 1
  10              		.eabi_attribute 25, 1
  11              		.eabi_attribute 26, 1
  12              		.eabi_attribute 30, 4
  13              		.eabi_attribute 34, 1
  14              		.eabi_attribute 18, 4
  15              		.thumb
  16              		.file	"chcond.c"
  17              		.text
  18              	.Ltext0:
  19              		.cfi_sections	.debug_frame
  20              		.section	.text.queue_prio_insert,"ax",%progbits
  21              		.align	1
  22              		.thumb
  23              		.thumb_func
  24              		.type	queue_prio_insert, %function
  25              	queue_prio_insert:
  26              	.LFB155:
  27              		.file 1 "../../modules/ChibiOS/os/rt/include/chschd.h"
  28              		.loc 1 597 0
  29              		.cfi_startproc
  30              		@ args = 0, pretend = 0, frame = 0
  31              		@ frame_needed = 0, uses_anonymous_args = 0
  32              	.LVL0:
  33 0000 10B5     		push	{r4, lr}
  34              		.cfi_def_cfa_offset 8
  35              		.cfi_offset 4, -8
  36              		.cfi_offset 14, -4
  37              		.loc 1 597 0
  38 0002 0B46     		mov	r3, r1
  39              	.LVL1:
  40              	.L3:
  41              		.loc 1 601 0 discriminator 2
  42 0004 1B68     		ldr	r3, [r3]
  43              	.LVL2:
  44              		.loc 1 602 0 discriminator 2
  45 0006 8B42     		cmp	r3, r1
  46 0008 04D0     		beq	.L2
  47              		.loc 1 602 0 is_stmt 0 discriminator 1
  48 000a 9C68     		ldr	r4, [r3, #8]
  49 000c 8268     		ldr	r2, [r0, #8]
  50 000e 9442     		cmp	r4, r2
  51 0010 F8D2     		bcs	.L3
  52 0012 1946     		mov	r1, r3
  53              	.LVL3:
  54              	.L2:
  55              		.loc 1 604 0 is_stmt 1
  56 0014 4B68     		ldr	r3, [r1, #4]
  57              	.LVL4:
ARM GAS  /tmp/ccq4cqsT.s 			page 2


  58              		.loc 1 603 0
  59 0016 0160     		str	r1, [r0]
  60              		.loc 1 604 0
  61 0018 4360     		str	r3, [r0, #4]
  62              		.loc 1 605 0
  63 001a 1860     		str	r0, [r3]
  64              		.loc 1 606 0
  65 001c 4860     		str	r0, [r1, #4]
  66 001e 10BD     		pop	{r4, pc}
  67              		.cfi_endproc
  68              	.LFE155:
  69              		.size	queue_prio_insert, .-queue_prio_insert
  70              		.section	.text.chCondObjectInit,"ax",%progbits
  71              		.align	1
  72              		.global	chCondObjectInit
  73              		.thumb
  74              		.thumb_func
  75              		.type	chCondObjectInit, %function
  76              	chCondObjectInit:
  77              	.LFB246:
  78              		.file 2 "../../modules/ChibiOS/os/rt/src/chcond.c"
  79              		.loc 2 75 0
  80              		.cfi_startproc
  81              		@ args = 0, pretend = 0, frame = 0
  82              		@ frame_needed = 0, uses_anonymous_args = 0
  83              		@ link register save eliminated.
  84              	.LVL5:
  85              	.LBB39:
  86              	.LBB40:
  87              		.loc 1 550 0
  88 0000 0060     		str	r0, [r0]
  89              		.loc 1 551 0
  90 0002 4060     		str	r0, [r0, #4]
  91 0004 7047     		bx	lr
  92              	.LBE40:
  93              	.LBE39:
  94              		.cfi_endproc
  95              	.LFE246:
  96              		.size	chCondObjectInit, .-chCondObjectInit
  97              		.section	.text.chCondSignal,"ax",%progbits
  98              		.align	1
  99              		.global	chCondSignal
 100              		.thumb
 101              		.thumb_func
 102              		.type	chCondSignal, %function
 103              	chCondSignal:
 104              	.LFB247:
 105              		.loc 2 89 0
 106              		.cfi_startproc
 107              		@ args = 0, pretend = 0, frame = 0
 108              		@ frame_needed = 0, uses_anonymous_args = 0
 109              	.LVL6:
 110 0000 10B5     		push	{r4, lr}
 111              		.cfi_def_cfa_offset 8
 112              		.cfi_offset 4, -8
 113              		.cfi_offset 14, -4
 114              	.LBB55:
ARM GAS  /tmp/ccq4cqsT.s 			page 3


 115              	.LBB56:
 116              	.LBB57:
 117              	.LBB58:
 118              	.LBB59:
 119              		.file 3 "../../modules/ChibiOS/os/common/ext/CMSIS/include/cmsis_gcc.h"
 120              		.loc 3 264 0
 121 0002 2023     		movs	r3, #32
 122              	.LBE59:
 123              	.LBE58:
 124              	.LBE57:
 125              	.LBE56:
 126              	.LBE55:
 127              		.loc 2 89 0
 128 0004 0446     		mov	r4, r0
 129              	.LBB64:
 130              	.LBB63:
 131              	.LBB62:
 132              	.LBB61:
 133              	.LBB60:
 134              		.loc 3 264 0
 135              	@ 264 "../../modules/ChibiOS/os/common/ext/CMSIS/include/cmsis_gcc.h" 1
 136 0006 83F31188 		MSR basepri, r3
 137              	@ 0 "" 2
 138              		.thumb
 139              	.LBE60:
 140              	.LBE61:
 141              	.LBE62:
 142              		.file 4 "../../modules/ChibiOS/os/rt/include/chsys.h"
 143              		.loc 4 377 0
 144 000a FFF7FEFF 		bl	_stats_start_measure_crit_thd
 145              	.LVL7:
 146              	.LBE63:
 147              	.LBE64:
 148              	.LBB65:
 149              	.LBB66:
 150              		.loc 1 577 0
 151 000e 2068     		ldr	r0, [r4]
 152              	.LBE66:
 153              	.LBE65:
 154              		.loc 2 94 0
 155 0010 A042     		cmp	r0, r4
 156 0012 05D0     		beq	.L8
 157              	.LVL8:
 158              	.LBB67:
 159              	.LBB68:
 160              		.loc 1 620 0
 161 0014 0368     		ldr	r3, [r0]
 162 0016 2360     		str	r3, [r4]
 163              	.LBE68:
 164              	.LBE67:
 165              		.loc 2 95 0
 166 0018 0021     		movs	r1, #0
 167              	.LBB70:
 168              	.LBB69:
 169              		.loc 1 621 0
 170 001a 5C60     		str	r4, [r3, #4]
 171              	.LBE69:
ARM GAS  /tmp/ccq4cqsT.s 			page 4


 172              	.LBE70:
 173              		.loc 2 95 0
 174 001c FFF7FEFF 		bl	chSchWakeupS
 175              	.LVL9:
 176              	.L8:
 177              	.LBB71:
 178              	.LBB72:
 179              		.loc 4 389 0
 180 0020 FFF7FEFF 		bl	_stats_stop_measure_crit_thd
 181              	.LVL10:
 182              	.LBB73:
 183              	.LBB74:
 184              	.LBB75:
 185              		.loc 3 264 0
 186 0024 0023     		movs	r3, #0
 187              	@ 264 "../../modules/ChibiOS/os/common/ext/CMSIS/include/cmsis_gcc.h" 1
 188 0026 83F31188 		MSR basepri, r3
 189              	@ 0 "" 2
 190              		.thumb
 191 002a 10BD     		pop	{r4, pc}
 192              	.LBE75:
 193              	.LBE74:
 194              	.LBE73:
 195              	.LBE72:
 196              	.LBE71:
 197              		.cfi_endproc
 198              	.LFE247:
 199              		.size	chCondSignal, .-chCondSignal
 200              		.section	.text.chCondSignalI,"ax",%progbits
 201              		.align	1
 202              		.global	chCondSignalI
 203              		.thumb
 204              		.thumb_func
 205              		.type	chCondSignalI, %function
 206              	chCondSignalI:
 207              	.LFB248:
 208              		.loc 2 111 0
 209              		.cfi_startproc
 210              		@ args = 0, pretend = 0, frame = 0
 211              		@ frame_needed = 0, uses_anonymous_args = 0
 212              		@ link register save eliminated.
 213              	.LVL11:
 214              	.LBB76:
 215              	.LBB77:
 216              		.loc 1 577 0
 217 0000 0368     		ldr	r3, [r0]
 218              	.LBE77:
 219              	.LBE76:
 220              		.loc 2 116 0
 221 0002 8342     		cmp	r3, r0
 222 0004 07D0     		beq	.L9
 223              	.LVL12:
 224              	.LBB78:
 225              	.LBB79:
 226              	.LBB80:
 227              		.loc 1 620 0
 228 0006 1A68     		ldr	r2, [r3]
ARM GAS  /tmp/ccq4cqsT.s 			page 5


 229 0008 0260     		str	r2, [r0]
 230              		.loc 1 621 0
 231 000a 5060     		str	r0, [r2, #4]
 232              	.LBE80:
 233              	.LBE79:
 234              		.loc 2 118 0
 235 000c 0022     		movs	r2, #0
 236 000e 5A62     		str	r2, [r3, #36]
 237              		.loc 2 119 0
 238 0010 1846     		mov	r0, r3
 239              	.LVL13:
 240 0012 FFF7FEBF 		b	chSchReadyI
 241              	.LVL14:
 242              	.L9:
 243 0016 7047     		bx	lr
 244              	.LBE78:
 245              		.cfi_endproc
 246              	.LFE248:
 247              		.size	chCondSignalI, .-chCondSignalI
 248              		.section	.text.chCondBroadcastI,"ax",%progbits
 249              		.align	1
 250              		.global	chCondBroadcastI
 251              		.thumb
 252              		.thumb_func
 253              		.type	chCondBroadcastI, %function
 254              	chCondBroadcastI:
 255              	.LFB250:
 256              		.loc 2 149 0
 257              		.cfi_startproc
 258              		@ args = 0, pretend = 0, frame = 0
 259              		@ frame_needed = 0, uses_anonymous_args = 0
 260              	.LVL15:
 261 0000 10B5     		push	{r4, lr}
 262              		.cfi_def_cfa_offset 8
 263              		.cfi_offset 4, -8
 264              		.cfi_offset 14, -4
 265 0002 0446     		mov	r4, r0
 266              	.LVL16:
 267              	.L12:
 268              	.LBB81:
 269              	.LBB82:
 270              		.loc 1 577 0
 271 0004 2068     		ldr	r0, [r4]
 272              	.LBE82:
 273              	.LBE81:
 274              		.loc 2 157 0
 275 0006 A042     		cmp	r0, r4
 276 0008 08D0     		beq	.L14
 277              	.LVL17:
 278              	.LBB83:
 279              	.LBB84:
 280              		.loc 1 620 0
 281 000a 0368     		ldr	r3, [r0]
 282 000c 2360     		str	r3, [r4]
 283              		.loc 1 621 0
 284 000e 5C60     		str	r4, [r3, #4]
 285              	.LBE84:
ARM GAS  /tmp/ccq4cqsT.s 			page 6


 286              	.LBE83:
 287              		.loc 2 158 0
 288 0010 FFF7FEFF 		bl	chSchReadyI
 289              	.LVL18:
 290 0014 6FF00103 		mvn	r3, #1
 291 0018 4362     		str	r3, [r0, #36]
 292 001a F3E7     		b	.L12
 293              	.LVL19:
 294              	.L14:
 295              		.loc 2 160 0
 296 001c 10BD     		pop	{r4, pc}
 297              		.cfi_endproc
 298              	.LFE250:
 299              		.size	chCondBroadcastI, .-chCondBroadcastI
 300              		.section	.text.chCondBroadcast,"ax",%progbits
 301              		.align	1
 302              		.global	chCondBroadcast
 303              		.thumb
 304              		.thumb_func
 305              		.type	chCondBroadcast, %function
 306              	chCondBroadcast:
 307              	.LFB249:
 308              		.loc 2 130 0
 309              		.cfi_startproc
 310              		@ args = 0, pretend = 0, frame = 0
 311              		@ frame_needed = 0, uses_anonymous_args = 0
 312              	.LVL20:
 313 0000 10B5     		push	{r4, lr}
 314              		.cfi_def_cfa_offset 8
 315              		.cfi_offset 4, -8
 316              		.cfi_offset 14, -4
 317              	.LBB95:
 318              	.LBB96:
 319              	.LBB97:
 320              	.LBB98:
 321              	.LBB99:
 322              		.loc 3 264 0
 323 0002 2023     		movs	r3, #32
 324              	.LBE99:
 325              	.LBE98:
 326              	.LBE97:
 327              	.LBE96:
 328              	.LBE95:
 329              		.loc 2 130 0
 330 0004 0446     		mov	r4, r0
 331              	.LBB104:
 332              	.LBB103:
 333              	.LBB102:
 334              	.LBB101:
 335              	.LBB100:
 336              		.loc 3 264 0
 337              	@ 264 "../../modules/ChibiOS/os/common/ext/CMSIS/include/cmsis_gcc.h" 1
 338 0006 83F31188 		MSR basepri, r3
 339              	@ 0 "" 2
 340              		.thumb
 341              	.LBE100:
 342              	.LBE101:
ARM GAS  /tmp/ccq4cqsT.s 			page 7


 343              	.LBE102:
 344              		.loc 4 377 0
 345 000a FFF7FEFF 		bl	_stats_start_measure_crit_thd
 346              	.LVL21:
 347              	.LBE103:
 348              	.LBE104:
 349              		.loc 2 133 0
 350 000e 2046     		mov	r0, r4
 351 0010 FFF7FEFF 		bl	chCondBroadcastI
 352              	.LVL22:
 353              		.loc 2 134 0
 354 0014 FFF7FEFF 		bl	chSchRescheduleS
 355              	.LVL23:
 356              	.LBB105:
 357              	.LBB106:
 358              		.loc 4 389 0
 359 0018 FFF7FEFF 		bl	_stats_stop_measure_crit_thd
 360              	.LVL24:
 361              	.LBB107:
 362              	.LBB108:
 363              	.LBB109:
 364              		.loc 3 264 0
 365 001c 0023     		movs	r3, #0
 366              	@ 264 "../../modules/ChibiOS/os/common/ext/CMSIS/include/cmsis_gcc.h" 1
 367 001e 83F31188 		MSR basepri, r3
 368              	@ 0 "" 2
 369              		.thumb
 370 0022 10BD     		pop	{r4, pc}
 371              	.LBE109:
 372              	.LBE108:
 373              	.LBE107:
 374              	.LBE106:
 375              	.LBE105:
 376              		.cfi_endproc
 377              	.LFE249:
 378              		.size	chCondBroadcast, .-chCondBroadcast
 379              		.section	.text.chCondWaitS,"ax",%progbits
 380              		.align	1
 381              		.global	chCondWaitS
 382              		.thumb
 383              		.thumb_func
 384              		.type	chCondWaitS, %function
 385              	chCondWaitS:
 386              	.LFB252:
 387              		.loc 2 205 0
 388              		.cfi_startproc
 389              		@ args = 0, pretend = 0, frame = 0
 390              		@ frame_needed = 0, uses_anonymous_args = 0
 391              	.LVL25:
 392              		.loc 2 206 0
 393 0000 0A4B     		ldr	r3, .L17
 394              		.loc 2 205 0
 395 0002 70B5     		push	{r4, r5, r6, lr}
 396              		.cfi_def_cfa_offset 16
 397              		.cfi_offset 4, -16
 398              		.cfi_offset 5, -12
 399              		.cfi_offset 6, -8
ARM GAS  /tmp/ccq4cqsT.s 			page 8


 400              		.cfi_offset 14, -4
 401              		.loc 2 206 0
 402 0004 9C69     		ldr	r4, [r3, #24]
 403              	.LVL26:
 404              	.LBB110:
 405              	.LBB111:
 406              		.file 5 "../../modules/ChibiOS/os/rt/include/chmtx.h"
 407              		.loc 5 146 0
 408 0006 A56B     		ldr	r5, [r4, #56]
 409              	.LBE111:
 410              	.LBE110:
 411              		.loc 2 205 0
 412 0008 0646     		mov	r6, r0
 413              		.loc 2 216 0
 414 000a 2846     		mov	r0, r5
 415              	.LVL27:
 416 000c FFF7FEFF 		bl	chMtxUnlockS
 417              	.LVL28:
 418              		.loc 2 221 0
 419 0010 3146     		mov	r1, r6
 420              		.loc 2 220 0
 421 0012 6662     		str	r6, [r4, #36]
 422              		.loc 2 221 0
 423 0014 2046     		mov	r0, r4
 424 0016 FFF7FEFF 		bl	queue_prio_insert
 425              	.LVL29:
 426              		.loc 2 222 0
 427 001a 0720     		movs	r0, #7
 428 001c FFF7FEFF 		bl	chSchGoSleepS
 429              	.LVL30:
 430              		.loc 2 223 0
 431 0020 646A     		ldr	r4, [r4, #36]
 432              	.LVL31:
 433              		.loc 2 224 0
 434 0022 2846     		mov	r0, r5
 435 0024 FFF7FEFF 		bl	chMtxLockS
 436              	.LVL32:
 437              		.loc 2 227 0
 438 0028 2046     		mov	r0, r4
 439 002a 70BD     		pop	{r4, r5, r6, pc}
 440              	.LVL33:
 441              	.L18:
 442              		.align	2
 443              	.L17:
 444 002c 00000000 		.word	ch
 445              		.cfi_endproc
 446              	.LFE252:
 447              		.size	chCondWaitS, .-chCondWaitS
 448              		.section	.text.chCondWait,"ax",%progbits
 449              		.align	1
 450              		.global	chCondWait
 451              		.thumb
 452              		.thumb_func
 453              		.type	chCondWait, %function
 454              	chCondWait:
 455              	.LFB251:
 456              		.loc 2 179 0
ARM GAS  /tmp/ccq4cqsT.s 			page 9


 457              		.cfi_startproc
 458              		@ args = 0, pretend = 0, frame = 0
 459              		@ frame_needed = 0, uses_anonymous_args = 0
 460              	.LVL34:
 461 0000 10B5     		push	{r4, lr}
 462              		.cfi_def_cfa_offset 8
 463              		.cfi_offset 4, -8
 464              		.cfi_offset 14, -4
 465              	.LBB122:
 466              	.LBB123:
 467              	.LBB124:
 468              	.LBB125:
 469              	.LBB126:
 470              		.loc 3 264 0
 471 0002 2023     		movs	r3, #32
 472              	.LBE126:
 473              	.LBE125:
 474              	.LBE124:
 475              	.LBE123:
 476              	.LBE122:
 477              		.loc 2 179 0
 478 0004 0446     		mov	r4, r0
 479              	.LBB131:
 480              	.LBB130:
 481              	.LBB129:
 482              	.LBB128:
 483              	.LBB127:
 484              		.loc 3 264 0
 485              	@ 264 "../../modules/ChibiOS/os/common/ext/CMSIS/include/cmsis_gcc.h" 1
 486 0006 83F31188 		MSR basepri, r3
 487              	@ 0 "" 2
 488              		.thumb
 489              	.LBE127:
 490              	.LBE128:
 491              	.LBE129:
 492              		.loc 4 377 0
 493 000a FFF7FEFF 		bl	_stats_start_measure_crit_thd
 494              	.LVL35:
 495              	.LBE130:
 496              	.LBE131:
 497              		.loc 2 183 0
 498 000e 2046     		mov	r0, r4
 499 0010 FFF7FEFF 		bl	chCondWaitS
 500              	.LVL36:
 501 0014 0446     		mov	r4, r0
 502              	.LVL37:
 503              	.LBB132:
 504              	.LBB133:
 505              		.loc 4 389 0
 506 0016 FFF7FEFF 		bl	_stats_stop_measure_crit_thd
 507              	.LVL38:
 508              	.LBB134:
 509              	.LBB135:
 510              	.LBB136:
 511              		.loc 3 264 0
 512 001a 0023     		movs	r3, #0
 513              	@ 264 "../../modules/ChibiOS/os/common/ext/CMSIS/include/cmsis_gcc.h" 1
ARM GAS  /tmp/ccq4cqsT.s 			page 10


 514 001c 83F31188 		MSR basepri, r3
 515              	@ 0 "" 2
 516              		.thumb
 517              	.LBE136:
 518              	.LBE135:
 519              	.LBE134:
 520              	.LBE133:
 521              	.LBE132:
 522              		.loc 2 186 0
 523 0020 2046     		mov	r0, r4
 524 0022 10BD     		pop	{r4, pc}
 525              		.cfi_endproc
 526              	.LFE251:
 527              		.size	chCondWait, .-chCondWait
 528              		.section	.text.chCondWaitTimeoutS,"ax",%progbits
 529              		.align	1
 530              		.global	chCondWaitTimeoutS
 531              		.thumb
 532              		.thumb_func
 533              		.type	chCondWaitTimeoutS, %function
 534              	chCondWaitTimeoutS:
 535              	.LFB254:
 536              		.loc 2 296 0
 537              		.cfi_startproc
 538              		@ args = 0, pretend = 0, frame = 0
 539              		@ frame_needed = 0, uses_anonymous_args = 0
 540              	.LVL39:
 541 0000 F8B5     		push	{r3, r4, r5, r6, r7, lr}
 542              		.cfi_def_cfa_offset 24
 543              		.cfi_offset 3, -24
 544              		.cfi_offset 4, -20
 545              		.cfi_offset 5, -16
 546              		.cfi_offset 6, -12
 547              		.cfi_offset 7, -8
 548              		.cfi_offset 14, -4
 549              	.LBB137:
 550              	.LBB138:
 551              	.LBB139:
 552              	.LBB140:
 553              		.file 6 "../../modules/ChibiOS/os/rt/include/chthreads.h"
 554              		.loc 6 286 0
 555 0002 0C4E     		ldr	r6, .L25
 556              	.LBE140:
 557              	.LBE139:
 558              		.loc 5 146 0
 559 0004 B369     		ldr	r3, [r6, #24]
 560 0006 9D6B     		ldr	r5, [r3, #56]
 561              	.LBE138:
 562              	.LBE137:
 563              		.loc 2 296 0
 564 0008 0446     		mov	r4, r0
 565              		.loc 2 306 0
 566 000a 2846     		mov	r0, r5
 567              	.LVL40:
 568              		.loc 2 296 0
 569 000c 0F46     		mov	r7, r1
 570              		.loc 2 306 0
ARM GAS  /tmp/ccq4cqsT.s 			page 11


 571 000e FFF7FEFF 		bl	chMtxUnlockS
 572              	.LVL41:
 573              		.loc 2 310 0
 574 0012 B069     		ldr	r0, [r6, #24]
 575              		.loc 2 311 0
 576 0014 2146     		mov	r1, r4
 577              		.loc 2 310 0
 578 0016 4462     		str	r4, [r0, #36]
 579              		.loc 2 311 0
 580 0018 FFF7FEFF 		bl	queue_prio_insert
 581              	.LVL42:
 582              		.loc 2 312 0
 583 001c 0720     		movs	r0, #7
 584 001e 3946     		mov	r1, r7
 585 0020 FFF7FEFF 		bl	chSchGoSleepTimeoutS
 586              	.LVL43:
 587              		.loc 2 313 0
 588 0024 431C     		adds	r3, r0, #1
 589              		.loc 2 312 0
 590 0026 0446     		mov	r4, r0
 591              	.LVL44:
 592              		.loc 2 313 0
 593 0028 02D0     		beq	.L21
 594              		.loc 2 314 0
 595 002a 2846     		mov	r0, r5
 596              	.LVL45:
 597 002c FFF7FEFF 		bl	chMtxLockS
 598              	.LVL46:
 599              	.L21:
 600              		.loc 2 318 0
 601 0030 2046     		mov	r0, r4
 602 0032 F8BD     		pop	{r3, r4, r5, r6, r7, pc}
 603              	.LVL47:
 604              	.L26:
 605              		.align	2
 606              	.L25:
 607 0034 00000000 		.word	ch
 608              		.cfi_endproc
 609              	.LFE254:
 610              		.size	chCondWaitTimeoutS, .-chCondWaitTimeoutS
 611              		.section	.text.chCondWaitTimeout,"ax",%progbits
 612              		.align	1
 613              		.global	chCondWaitTimeout
 614              		.thumb
 615              		.thumb_func
 616              		.type	chCondWaitTimeout, %function
 617              	chCondWaitTimeout:
 618              	.LFB253:
 619              		.loc 2 258 0
 620              		.cfi_startproc
 621              		@ args = 0, pretend = 0, frame = 0
 622              		@ frame_needed = 0, uses_anonymous_args = 0
 623              	.LVL48:
 624 0000 38B5     		push	{r3, r4, r5, lr}
 625              		.cfi_def_cfa_offset 16
 626              		.cfi_offset 3, -16
 627              		.cfi_offset 4, -12
ARM GAS  /tmp/ccq4cqsT.s 			page 12


 628              		.cfi_offset 5, -8
 629              		.cfi_offset 14, -4
 630              		.loc 2 258 0
 631 0002 0546     		mov	r5, r0
 632 0004 0C46     		mov	r4, r1
 633              	.LBB151:
 634              	.LBB152:
 635              	.LBB153:
 636              	.LBB154:
 637              	.LBB155:
 638              		.loc 3 264 0
 639 0006 2023     		movs	r3, #32
 640              	@ 264 "../../modules/ChibiOS/os/common/ext/CMSIS/include/cmsis_gcc.h" 1
 641 0008 83F31188 		MSR basepri, r3
 642              	@ 0 "" 2
 643              		.thumb
 644              	.LBE155:
 645              	.LBE154:
 646              	.LBE153:
 647              		.loc 4 377 0
 648 000c FFF7FEFF 		bl	_stats_start_measure_crit_thd
 649              	.LVL49:
 650              	.LBE152:
 651              	.LBE151:
 652              		.loc 2 262 0
 653 0010 2146     		mov	r1, r4
 654 0012 2846     		mov	r0, r5
 655 0014 FFF7FEFF 		bl	chCondWaitTimeoutS
 656              	.LVL50:
 657 0018 0446     		mov	r4, r0
 658              	.LVL51:
 659              	.LBB156:
 660              	.LBB157:
 661              		.loc 4 389 0
 662 001a FFF7FEFF 		bl	_stats_stop_measure_crit_thd
 663              	.LVL52:
 664              	.LBB158:
 665              	.LBB159:
 666              	.LBB160:
 667              		.loc 3 264 0
 668 001e 0023     		movs	r3, #0
 669              	@ 264 "../../modules/ChibiOS/os/common/ext/CMSIS/include/cmsis_gcc.h" 1
 670 0020 83F31188 		MSR basepri, r3
 671              	@ 0 "" 2
 672              		.thumb
 673              	.LBE160:
 674              	.LBE159:
 675              	.LBE158:
 676              	.LBE157:
 677              	.LBE156:
 678              		.loc 2 266 0
 679 0024 2046     		mov	r0, r4
 680 0026 38BD     		pop	{r3, r4, r5, pc}
 681              		.cfi_endproc
 682              	.LFE253:
 683              		.size	chCondWaitTimeout, .-chCondWaitTimeout
 684              		.text
ARM GAS  /tmp/ccq4cqsT.s 			page 13


 685              	.Letext0:
 686              		.file 7 "/usr/include/newlib/machine/_default_types.h"
 687              		.file 8 "/usr/include/newlib/sys/_stdint.h"
 688              		.file 9 "../../modules/ChibiOS/os/common/ports/ARMCMx/compilers/GCC/chtypes.h"
 689              		.file 10 "../../modules/ChibiOS/os/rt/include/chsystypes.h"
 690              		.file 11 "../../modules/ChibiOS/os/common/ports/ARMCMx/chcore.h"
 691              		.file 12 "../../modules/ChibiOS/os/common/ports/ARMCMx/chcore_v7m.h"
 692              		.file 13 "../../modules/ChibiOS/os/rt/include/chtm.h"
 693              		.file 14 "../../modules/ChibiOS/os/rt/include/chstats.h"
 694              		.file 15 "../../modules/ChibiOS/os/rt/include/chsem.h"
 695              		.file 16 "../../modules/ChibiOS/os/rt/include/chcond.h"
 696              		.file 17 "../../modules/ChibiOS/os/common/ext/CMSIS/include/core_cm4.h"