ARM GAS  /tmp/ccTh4RbF.s 			page 1


   1              		.syntax unified
   2              		.cpu cortex-m4
   3              		.eabi_attribute 27, 1
   4              		.eabi_attribute 28, 1
   5              		.fpu fpv4-sp-d16
   6              		.eabi_attribute 20, 1
   7              		.eabi_attribute 21, 1
   8              		.eabi_attribute 23, 3
   9              		.eabi_attribute 24, 1
  10              		.eabi_attribute 25, 1
  11              		.eabi_attribute 26, 1
  12              		.eabi_attribute 30, 4
  13              		.eabi_attribute 34, 1
  14              		.eabi_attribute 18, 4
  15              		.thumb
  16              		.file	"chdynamic.c"
  17              		.text
  18              	.Ltext0:
  19              		.cfi_sections	.debug_frame
  20              		.section	.text.chThdCreateFromHeap,"ax",%progbits
  21              		.align	1
  22              		.global	chThdCreateFromHeap
  23              		.thumb
  24              		.thumb_func
  25              		.type	chThdCreateFromHeap, %function
  26              	chThdCreateFromHeap:
  27              	.LFB246:
  28              		.file 1 "../../modules/ChibiOS/os/rt/src/chdynamic.c"
  29              		.loc 1 84 0
  30              		.cfi_startproc
  31              		@ args = 8, pretend = 0, frame = 24
  32              		@ frame_needed = 0, uses_anonymous_args = 0
  33              	.LVL0:
  34 0000 70B5     		push	{r4, r5, r6, lr}
  35              		.cfi_def_cfa_offset 16
  36              		.cfi_offset 4, -16
  37              		.cfi_offset 5, -12
  38              		.cfi_offset 6, -8
  39              		.cfi_offset 14, -4
  40 0002 1646     		mov	r6, r2
  41 0004 86B0     		sub	sp, sp, #24
  42              		.cfi_def_cfa_offset 40
  43              		.loc 1 88 0
  44 0006 0822     		movs	r2, #8
  45              	.LVL1:
  46              		.loc 1 84 0
  47 0008 0C46     		mov	r4, r1
  48 000a 1D46     		mov	r5, r3
  49              		.loc 1 88 0
  50 000c FFF7FEFF 		bl	chHeapAllocAligned
  51              	.LVL2:
  52              		.loc 1 89 0
  53 0010 0146     		mov	r1, r0
  54 0012 08B3     		cbz	r0, .L3
  55              		.loc 1 93 0
  56 0014 0A9B     		ldr	r3, [sp, #40]
  57 0016 0493     		str	r3, [sp, #16]
ARM GAS  /tmp/ccTh4RbF.s 			page 2


  58              		.loc 1 96 0
  59 0018 2144     		add	r1, r1, r4
  60              		.loc 1 93 0
  61 001a 0B9B     		ldr	r3, [sp, #44]
  62 001c 0593     		str	r3, [sp, #20]
  63              		.loc 1 103 0
  64 001e 5522     		movs	r2, #85
  65              		.loc 1 93 0
  66 0020 0096     		str	r6, [sp]
  67 0022 0190     		str	r0, [sp, #4]
  68 0024 0291     		str	r1, [sp, #8]
  69 0026 0395     		str	r5, [sp, #12]
  70              		.loc 1 103 0
  71 0028 FFF7FEFF 		bl	_thread_memfill
  72              	.LVL3:
  73              	.LBB24:
  74              	.LBB25:
  75              	.LBB26:
  76              	.LBB27:
  77              	.LBB28:
  78              		.file 2 "../../modules/ChibiOS/os/common/ext/CMSIS/include/cmsis_gcc.h"
  79              		.loc 2 264 0
  80 002c 2023     		movs	r3, #32
  81              	@ 264 "../../modules/ChibiOS/os/common/ext/CMSIS/include/cmsis_gcc.h" 1
  82 002e 83F31188 		MSR basepri, r3
  83              	@ 0 "" 2
  84              		.thumb
  85              	.LBE28:
  86              	.LBE27:
  87              	.LBE26:
  88              		.file 3 "../../modules/ChibiOS/os/rt/include/chsys.h"
  89              		.loc 3 377 0
  90 0032 FFF7FEFF 		bl	_stats_start_measure_crit_thd
  91              	.LVL4:
  92              	.LBE25:
  93              	.LBE24:
  94              		.loc 1 109 0
  95 0036 6846     		mov	r0, sp
  96 0038 FFF7FEFF 		bl	chThdCreateSuspendedI
  97              	.LVL5:
  98              		.loc 1 110 0
  99 003c 0123     		movs	r3, #1
 100 003e 80F82130 		strb	r3, [r0, #33]
 101              		.loc 1 111 0
 102 0042 0021     		movs	r1, #0
 103              		.loc 1 109 0
 104 0044 0446     		mov	r4, r0
 105              	.LVL6:
 106              		.loc 1 111 0
 107 0046 FFF7FEFF 		bl	chSchWakeupS
 108              	.LVL7:
 109              	.LBB29:
 110              	.LBB30:
 111              		.loc 3 389 0
 112 004a FFF7FEFF 		bl	_stats_stop_measure_crit_thd
 113              	.LVL8:
 114              	.LBB31:
ARM GAS  /tmp/ccTh4RbF.s 			page 3


 115              	.LBB32:
 116              	.LBB33:
 117              		.loc 2 264 0
 118 004e 0023     		movs	r3, #0
 119              	@ 264 "../../modules/ChibiOS/os/common/ext/CMSIS/include/cmsis_gcc.h" 1
 120 0050 83F31188 		MSR basepri, r3
 121              	@ 0 "" 2
 122              		.thumb
 123 0054 2046     		mov	r0, r4
 124 0056 FFE7     		b	.L2
 125              	.LVL9:
 126              	.L3:
 127              	.L2:
 128              	.LBE33:
 129              	.LBE32:
 130              	.LBE31:
 131              	.LBE30:
 132              	.LBE29:
 133              		.loc 1 115 0
 134 0058 06B0     		add	sp, sp, #24
 135              		.cfi_def_cfa_offset 16
 136              		@ sp needed
 137 005a 70BD     		pop	{r4, r5, r6, pc}
 138              		.cfi_endproc
 139              	.LFE246:
 140              		.size	chThdCreateFromHeap, .-chThdCreateFromHeap
 141              		.section	.text.chThdCreateFromMemoryPool,"ax",%progbits
 142              		.align	1
 143              		.global	chThdCreateFromMemoryPool
 144              		.thumb
 145              		.thumb_func
 146              		.type	chThdCreateFromMemoryPool, %function
 147              	chThdCreateFromMemoryPool:
 148              	.LFB247:
 149              		.loc 1 146 0
 150              		.cfi_startproc
 151              		@ args = 4, pretend = 0, frame = 24
 152              		@ frame_needed = 0, uses_anonymous_args = 0
 153              	.LVL10:
 154 0000 2DE9F041 		push	{r4, r5, r6, r7, r8, lr}
 155              		.cfi_def_cfa_offset 24
 156              		.cfi_offset 4, -24
 157              		.cfi_offset 5, -20
 158              		.cfi_offset 6, -16
 159              		.cfi_offset 7, -12
 160              		.cfi_offset 8, -8
 161              		.cfi_offset 14, -4
 162 0004 86B0     		sub	sp, sp, #24
 163              		.cfi_def_cfa_offset 48
 164              		.loc 1 146 0
 165 0006 0546     		mov	r5, r0
 166 0008 8846     		mov	r8, r1
 167 000a 1746     		mov	r7, r2
 168 000c 1E46     		mov	r6, r3
 169              		.loc 1 152 0
 170 000e FFF7FEFF 		bl	chPoolAlloc
 171              	.LVL11:
ARM GAS  /tmp/ccTh4RbF.s 			page 4


 172              		.loc 1 153 0
 173 0012 0446     		mov	r4, r0
 174 0014 08B3     		cbz	r0, .L7
 175              		.loc 1 160 0
 176 0016 6968     		ldr	r1, [r5, #4]
 177              		.loc 1 157 0
 178 0018 0C9B     		ldr	r3, [sp, #48]
 179 001a 0593     		str	r3, [sp, #20]
 180              		.loc 1 160 0
 181 001c 0144     		add	r1, r1, r0
 182              		.loc 1 167 0
 183 001e 5522     		movs	r2, #85
 184              		.loc 1 157 0
 185 0020 CDF80080 		str	r8, [sp]
 186 0024 0190     		str	r0, [sp, #4]
 187 0026 0291     		str	r1, [sp, #8]
 188 0028 0397     		str	r7, [sp, #12]
 189 002a 0496     		str	r6, [sp, #16]
 190              		.loc 1 167 0
 191 002c FFF7FEFF 		bl	_thread_memfill
 192              	.LVL12:
 193              	.LBB44:
 194              	.LBB45:
 195              	.LBB46:
 196              	.LBB47:
 197              	.LBB48:
 198              		.loc 2 264 0
 199 0030 2023     		movs	r3, #32
 200              	@ 264 "../../modules/ChibiOS/os/common/ext/CMSIS/include/cmsis_gcc.h" 1
 201 0032 83F31188 		MSR basepri, r3
 202              	@ 0 "" 2
 203              		.thumb
 204              	.LBE48:
 205              	.LBE47:
 206              	.LBE46:
 207              		.loc 3 377 0
 208 0036 FFF7FEFF 		bl	_stats_start_measure_crit_thd
 209              	.LVL13:
 210              	.LBE45:
 211              	.LBE44:
 212              		.loc 1 173 0
 213 003a 6846     		mov	r0, sp
 214 003c FFF7FEFF 		bl	chThdCreateSuspendedI
 215              	.LVL14:
 216              		.loc 1 174 0
 217 0040 0223     		movs	r3, #2
 218 0042 80F82130 		strb	r3, [r0, #33]
 219              		.loc 1 175 0
 220 0046 0564     		str	r5, [r0, #64]
 221              		.loc 1 176 0
 222 0048 0021     		movs	r1, #0
 223              		.loc 1 173 0
 224 004a 0446     		mov	r4, r0
 225              	.LVL15:
 226              		.loc 1 176 0
 227 004c FFF7FEFF 		bl	chSchWakeupS
 228              	.LVL16:
ARM GAS  /tmp/ccTh4RbF.s 			page 5


 229              	.LBB49:
 230              	.LBB50:
 231              		.loc 3 389 0
 232 0050 FFF7FEFF 		bl	_stats_stop_measure_crit_thd
 233              	.LVL17:
 234              	.LBB51:
 235              	.LBB52:
 236              	.LBB53:
 237              		.loc 2 264 0
 238 0054 0023     		movs	r3, #0
 239              	@ 264 "../../modules/ChibiOS/os/common/ext/CMSIS/include/cmsis_gcc.h" 1
 240 0056 83F31188 		MSR basepri, r3
 241              	@ 0 "" 2
 242              	.LVL18:
 243              		.thumb
 244              	.L7:
 245              	.LBE53:
 246              	.LBE52:
 247              	.LBE51:
 248              	.LBE50:
 249              	.LBE49:
 250              		.loc 1 154 0
 251 005a 2046     		mov	r0, r4
 252              		.loc 1 180 0
 253 005c 06B0     		add	sp, sp, #24
 254              		.cfi_def_cfa_offset 24
 255              		@ sp needed
 256 005e BDE8F081 		pop	{r4, r5, r6, r7, r8, pc}
 257              		.cfi_endproc
 258              	.LFE247:
 259              		.size	chThdCreateFromMemoryPool, .-chThdCreateFromMemoryPool
 260              		.text
 261              	.Letext0:
 262              		.file 4 "/usr/lib/gcc/arm-none-eabi/4.9.3/include/stddef.h"
 263              		.file 5 "/usr/include/newlib/machine/_default_types.h"
 264              		.file 6 "/usr/include/newlib/sys/_stdint.h"
 265              		.file 7 "../../modules/ChibiOS/os/common/ports/ARMCMx/compilers/GCC/chtypes.h"
 266              		.file 8 "../../modules/ChibiOS/os/rt/include/chsystypes.h"
 267              		.file 9 "../../modules/ChibiOS/os/rt/include/chschd.h"
 268              		.file 10 "../../modules/ChibiOS/os/common/ports/ARMCMx/chcore.h"
 269              		.file 11 "../../modules/ChibiOS/os/common/ports/ARMCMx/chcore_v7m.h"
 270              		.file 12 "../../modules/ChibiOS/os/rt/include/chtm.h"
 271              		.file 13 "../../modules/ChibiOS/os/rt/include/chstats.h"
 272              		.file 14 "../../modules/ChibiOS/os/rt/include/chsem.h"
 273              		.file 15 "../../modules/ChibiOS/os/rt/include/chmtx.h"
 274              		.file 16 "../../modules/ChibiOS/os/rt/include/chthreads.h"
 275              		.file 17 "../../modules/ChibiOS/os/common/oslib/include/chmemcore.h"
 276              		.file 18 "../../modules/ChibiOS/os/common/oslib/include/chheap.h"
 277              		.file 19 "../../modules/ChibiOS/os/common/oslib/include/chmempools.h"
 278              		.file 20 "../../modules/ChibiOS/os/common/ext/CMSIS/include/core_cm4.h"