ARM GAS  /tmp/cc7TrS54.s 			page 1


   1              		.syntax unified
   2              		.cpu cortex-m4
   3              		.eabi_attribute 27, 1
   4              		.eabi_attribute 28, 1
   5              		.fpu fpv4-sp-d16
   6              		.eabi_attribute 20, 1
   7              		.eabi_attribute 21, 1
   8              		.eabi_attribute 23, 3
   9              		.eabi_attribute 24, 1
  10              		.eabi_attribute 25, 1
  11              		.eabi_attribute 26, 1
  12              		.eabi_attribute 30, 4
  13              		.eabi_attribute 34, 1
  14              		.eabi_attribute 18, 4
  15              		.thumb
  16              		.file	"chevents.c"
  17              		.text
  18              	.Ltext0:
  19              		.cfi_sections	.debug_frame
  20              		.section	.text.chSysLock,"ax",%progbits
  21              		.align	1
  22              		.thumb
  23              		.thumb_func
  24              		.type	chSysLock, %function
  25              	chSysLock:
  26              	.LFB167:
  27              		.file 1 "../../modules/ChibiOS/os/rt/include/chsys.h"
  28              		.loc 1 374 0
  29              		.cfi_startproc
  30              		@ args = 0, pretend = 0, frame = 0
  31              		@ frame_needed = 0, uses_anonymous_args = 0
  32              		@ link register save eliminated.
  33              	.LVL0:
  34              	.LBB14:
  35              	.LBB15:
  36              	.LBB16:
  37              		.file 2 "../../modules/ChibiOS/os/common/ext/CMSIS/include/cmsis_gcc.h"
  38              		.loc 2 264 0
  39 0000 2023     		movs	r3, #32
  40              	@ 264 "../../modules/ChibiOS/os/common/ext/CMSIS/include/cmsis_gcc.h" 1
  41 0002 83F31188 		MSR basepri, r3
  42              	@ 0 "" 2
  43              		.thumb
  44              	.LBE16:
  45              	.LBE15:
  46              	.LBE14:
  47              		.loc 1 377 0
  48 0006 FFF7FEBF 		b	_stats_start_measure_crit_thd
  49              	.LVL1:
  50              		.cfi_endproc
  51              	.LFE167:
  52              		.size	chSysLock, .-chSysLock
  53              		.section	.text.chSysUnlock,"ax",%progbits
  54              		.align	1
  55              		.thumb
  56              		.thumb_func
  57              		.type	chSysUnlock, %function
ARM GAS  /tmp/cc7TrS54.s 			page 2


  58              	chSysUnlock:
  59              	.LFB168:
  60              		.loc 1 386 0
  61              		.cfi_startproc
  62              		@ args = 0, pretend = 0, frame = 0
  63              		@ frame_needed = 0, uses_anonymous_args = 0
  64 0000 08B5     		push	{r3, lr}
  65              		.cfi_def_cfa_offset 8
  66              		.cfi_offset 3, -8
  67              		.cfi_offset 14, -4
  68              		.loc 1 389 0
  69 0002 FFF7FEFF 		bl	_stats_stop_measure_crit_thd
  70              	.LVL2:
  71              	.LBB17:
  72              	.LBB18:
  73              	.LBB19:
  74              		.loc 2 264 0
  75 0006 0023     		movs	r3, #0
  76              	@ 264 "../../modules/ChibiOS/os/common/ext/CMSIS/include/cmsis_gcc.h" 1
  77 0008 83F31188 		MSR basepri, r3
  78              	@ 0 "" 2
  79              		.thumb
  80 000c 08BD     		pop	{r3, pc}
  81              	.LBE19:
  82              	.LBE18:
  83              	.LBE17:
  84              		.cfi_endproc
  85              	.LFE168:
  86              		.size	chSysUnlock, .-chSysUnlock
  87              		.section	.text.chEvtRegisterMaskWithFlags,"ax",%progbits
  88              		.align	1
  89              		.global	chEvtRegisterMaskWithFlags
  90              		.thumb
  91              		.thumb_func
  92              		.type	chEvtRegisterMaskWithFlags, %function
  93              	chEvtRegisterMaskWithFlags:
  94              	.LFB246:
  95              		.file 3 "../../modules/ChibiOS/os/rt/src/chevents.c"
  96              		.loc 3 106 0
  97              		.cfi_startproc
  98              		@ args = 0, pretend = 0, frame = 0
  99              		@ frame_needed = 0, uses_anonymous_args = 0
 100              	.LVL3:
 101 0000 F8B5     		push	{r3, r4, r5, r6, r7, lr}
 102              		.cfi_def_cfa_offset 24
 103              		.cfi_offset 3, -24
 104              		.cfi_offset 4, -20
 105              		.cfi_offset 5, -16
 106              		.cfi_offset 6, -12
 107              		.cfi_offset 7, -8
 108              		.cfi_offset 14, -4
 109              		.loc 3 106 0
 110 0002 0546     		mov	r5, r0
 111 0004 0C46     		mov	r4, r1
 112 0006 1E46     		mov	r6, r3
 113 0008 1746     		mov	r7, r2
 114              		.loc 3 110 0
ARM GAS  /tmp/cc7TrS54.s 			page 3


 115 000a FFF7FEFF 		bl	chSysLock
 116              	.LVL4:
 117              		.loc 3 111 0
 118 000e 2B68     		ldr	r3, [r5]
 119 0010 2360     		str	r3, [r4]
 120              		.loc 3 113 0
 121 0012 064B     		ldr	r3, .L4
 122              		.loc 3 112 0
 123 0014 2C60     		str	r4, [r5]
 124              		.loc 3 113 0
 125 0016 9B69     		ldr	r3, [r3, #24]
 126 0018 6360     		str	r3, [r4, #4]
 127              		.loc 3 115 0
 128 001a 0023     		movs	r3, #0
 129              		.loc 3 114 0
 130 001c A760     		str	r7, [r4, #8]
 131              		.loc 3 115 0
 132 001e E360     		str	r3, [r4, #12]
 133              		.loc 3 116 0
 134 0020 2661     		str	r6, [r4, #16]
 135              		.loc 3 118 0
 136 0022 BDE8F840 		pop	{r3, r4, r5, r6, r7, lr}
 137              		.cfi_restore 14
 138              		.cfi_restore 7
 139              		.cfi_restore 6
 140              		.cfi_restore 5
 141              		.cfi_restore 4
 142              		.cfi_restore 3
 143              		.cfi_def_cfa_offset 0
 144              	.LVL5:
 145              		.loc 3 117 0
 146 0026 FFF7FEBF 		b	chSysUnlock
 147              	.LVL6:
 148              	.L5:
 149 002a 00BF     		.align	2
 150              	.L4:
 151 002c 00000000 		.word	ch
 152              		.cfi_endproc
 153              	.LFE246:
 154              		.size	chEvtRegisterMaskWithFlags, .-chEvtRegisterMaskWithFlags
 155              		.section	.text.chEvtUnregister,"ax",%progbits
 156              		.align	1
 157              		.global	chEvtUnregister
 158              		.thumb
 159              		.thumb_func
 160              		.type	chEvtUnregister, %function
 161              	chEvtUnregister:
 162              	.LFB247:
 163              		.loc 3 133 0
 164              		.cfi_startproc
 165              		@ args = 0, pretend = 0, frame = 0
 166              		@ frame_needed = 0, uses_anonymous_args = 0
 167              	.LVL7:
 168 0000 38B5     		push	{r3, r4, r5, lr}
 169              		.cfi_def_cfa_offset 16
 170              		.cfi_offset 3, -16
 171              		.cfi_offset 4, -12
ARM GAS  /tmp/cc7TrS54.s 			page 4


 172              		.cfi_offset 5, -8
 173              		.cfi_offset 14, -4
 174              		.loc 3 133 0
 175 0002 0446     		mov	r4, r0
 176              	.LVL8:
 177 0004 0D46     		mov	r5, r1
 178              		.loc 3 141 0
 179 0006 FFF7FEFF 		bl	chSysLock
 180              	.LVL9:
 181              		.loc 3 139 0
 182 000a 2246     		mov	r2, r4
 183              	.LVL10:
 184              	.L7:
 185              		.loc 3 143 0
 186 000c 1368     		ldr	r3, [r2]
 187 000e A342     		cmp	r3, r4
 188 0010 06D0     		beq	.L8
 189              		.loc 3 145 0
 190 0012 AB42     		cmp	r3, r5
 191 0014 02D1     		bne	.L10
 192              		.loc 3 146 0
 193 0016 2B68     		ldr	r3, [r5]
 194 0018 1360     		str	r3, [r2]
 195              		.loc 3 147 0
 196 001a 01E0     		b	.L8
 197              	.L10:
 198 001c 1A46     		mov	r2, r3
 199              	.LVL11:
 200 001e F5E7     		b	.L7
 201              	.LVL12:
 202              	.L8:
 203              		.loc 3 152 0
 204 0020 BDE83840 		pop	{r3, r4, r5, lr}
 205              		.cfi_restore 14
 206              		.cfi_restore 5
 207              		.cfi_restore 4
 208              		.cfi_restore 3
 209              		.cfi_def_cfa_offset 0
 210              	.LVL13:
 211              		.loc 3 151 0
 212 0024 FFF7FEBF 		b	chSysUnlock
 213              	.LVL14:
 214              		.cfi_endproc
 215              	.LFE247:
 216              		.size	chEvtUnregister, .-chEvtUnregister
 217              		.section	.text.chEvtGetAndClearEvents,"ax",%progbits
 218              		.align	1
 219              		.global	chEvtGetAndClearEvents
 220              		.thumb
 221              		.thumb_func
 222              		.type	chEvtGetAndClearEvents, %function
 223              	chEvtGetAndClearEvents:
 224              	.LFB248:
 225              		.loc 3 162 0
 226              		.cfi_startproc
 227              		@ args = 0, pretend = 0, frame = 0
 228              		@ frame_needed = 0, uses_anonymous_args = 0
ARM GAS  /tmp/cc7TrS54.s 			page 5


 229              	.LVL15:
 230 0000 38B5     		push	{r3, r4, r5, lr}
 231              		.cfi_def_cfa_offset 16
 232              		.cfi_offset 3, -16
 233              		.cfi_offset 4, -12
 234              		.cfi_offset 5, -8
 235              		.cfi_offset 14, -4
 236              		.loc 3 162 0
 237 0002 0446     		mov	r4, r0
 238              		.loc 3 165 0
 239 0004 FFF7FEFF 		bl	chSysLock
 240              	.LVL16:
 241              		.loc 3 166 0
 242 0008 054B     		ldr	r3, .L13
 243 000a 9A69     		ldr	r2, [r3, #24]
 244 000c 536B     		ldr	r3, [r2, #52]
 245 000e 04EA0305 		and	r5, r4, r3
 246              	.LVL17:
 247              		.loc 3 167 0
 248 0012 23EA0403 		bic	r3, r3, r4
 249 0016 5363     		str	r3, [r2, #52]
 250              		.loc 3 168 0
 251 0018 FFF7FEFF 		bl	chSysUnlock
 252              	.LVL18:
 253              		.loc 3 171 0
 254 001c 2846     		mov	r0, r5
 255 001e 38BD     		pop	{r3, r4, r5, pc}
 256              	.LVL19:
 257              	.L14:
 258              		.align	2
 259              	.L13:
 260 0020 00000000 		.word	ch
 261              		.cfi_endproc
 262              	.LFE248:
 263              		.size	chEvtGetAndClearEvents, .-chEvtGetAndClearEvents
 264              		.section	.text.chEvtAddEvents,"ax",%progbits
 265              		.align	1
 266              		.global	chEvtAddEvents
 267              		.thumb
 268              		.thumb_func
 269              		.type	chEvtAddEvents, %function
 270              	chEvtAddEvents:
 271              	.LFB249:
 272              		.loc 3 182 0
 273              		.cfi_startproc
 274              		@ args = 0, pretend = 0, frame = 0
 275              		@ frame_needed = 0, uses_anonymous_args = 0
 276              	.LVL20:
 277 0000 10B5     		push	{r4, lr}
 278              		.cfi_def_cfa_offset 8
 279              		.cfi_offset 4, -8
 280              		.cfi_offset 14, -4
 281              		.loc 3 182 0
 282 0002 0446     		mov	r4, r0
 283              		.loc 3 184 0
 284 0004 FFF7FEFF 		bl	chSysLock
 285              	.LVL21:
ARM GAS  /tmp/cc7TrS54.s 			page 6


 286              		.loc 3 185 0
 287 0008 044B     		ldr	r3, .L16
 288 000a 9A69     		ldr	r2, [r3, #24]
 289 000c 536B     		ldr	r3, [r2, #52]
 290 000e 1C43     		orrs	r4, r4, r3
 291              	.LVL22:
 292 0010 5463     		str	r4, [r2, #52]
 293              	.LVL23:
 294              		.loc 3 187 0
 295 0012 FFF7FEFF 		bl	chSysUnlock
 296              	.LVL24:
 297              		.loc 3 190 0
 298 0016 2046     		mov	r0, r4
 299 0018 10BD     		pop	{r4, pc}
 300              	.LVL25:
 301              	.L17:
 302 001a 00BF     		.align	2
 303              	.L16:
 304 001c 00000000 		.word	ch
 305              		.cfi_endproc
 306              	.LFE249:
 307              		.size	chEvtAddEvents, .-chEvtAddEvents
 308              		.section	.text.chEvtGetAndClearFlags,"ax",%progbits
 309              		.align	1
 310              		.global	chEvtGetAndClearFlags
 311              		.thumb
 312              		.thumb_func
 313              		.type	chEvtGetAndClearFlags, %function
 314              	chEvtGetAndClearFlags:
 315              	.LFB251:
 316              		.loc 3 241 0
 317              		.cfi_startproc
 318              		@ args = 0, pretend = 0, frame = 0
 319              		@ frame_needed = 0, uses_anonymous_args = 0
 320              	.LVL26:
 321 0000 38B5     		push	{r3, r4, r5, lr}
 322              		.cfi_def_cfa_offset 16
 323              		.cfi_offset 3, -16
 324              		.cfi_offset 4, -12
 325              		.cfi_offset 5, -8
 326              		.cfi_offset 14, -4
 327              		.loc 3 241 0
 328 0002 0446     		mov	r4, r0
 329              		.loc 3 244 0
 330 0004 FFF7FEFF 		bl	chSysLock
 331              	.LVL27:
 332              		.loc 3 245 0
 333 0008 E568     		ldr	r5, [r4, #12]
 334              	.LVL28:
 335              		.loc 3 246 0
 336 000a 0023     		movs	r3, #0
 337 000c E360     		str	r3, [r4, #12]
 338              		.loc 3 247 0
 339 000e FFF7FEFF 		bl	chSysUnlock
 340              	.LVL29:
 341              		.loc 3 250 0
 342 0012 2846     		mov	r0, r5
ARM GAS  /tmp/cc7TrS54.s 			page 7


 343 0014 38BD     		pop	{r3, r4, r5, pc}
 344              		.cfi_endproc
 345              	.LFE251:
 346              		.size	chEvtGetAndClearFlags, .-chEvtGetAndClearFlags
 347              		.section	.text.chEvtSignalI,"ax",%progbits
 348              		.align	1
 349              		.global	chEvtSignalI
 350              		.thumb
 351              		.thumb_func
 352              		.type	chEvtSignalI, %function
 353              	chEvtSignalI:
 354              	.LFB253:
 355              		.loc 3 282 0
 356              		.cfi_startproc
 357              		@ args = 0, pretend = 0, frame = 0
 358              		@ frame_needed = 0, uses_anonymous_args = 0
 359              		@ link register save eliminated.
 360              	.LVL30:
 361              		.loc 3 287 0
 362 0000 436B     		ldr	r3, [r0, #52]
 363 0002 1943     		orrs	r1, r1, r3
 364              	.LVL31:
 365              		.loc 3 289 0
 366 0004 90F82030 		ldrb	r3, [r0, #32]	@ zero_extendqisi2
 367              		.loc 3 287 0
 368 0008 4163     		str	r1, [r0, #52]
 369              		.loc 3 289 0
 370 000a 0A2B     		cmp	r3, #10
 371 000c 03D1     		bne	.L20
 372              		.loc 3 290 0 discriminator 1
 373 000e 436A     		ldr	r3, [r0, #36]
 374              		.loc 3 289 0 discriminator 1
 375 0010 1942     		tst	r1, r3
 376 0012 06D1     		bne	.L21
 377 0014 7047     		bx	lr
 378              	.L20:
 379              		.loc 3 290 0
 380 0016 0B2B     		cmp	r3, #11
 381 0018 07D1     		bne	.L19
 382              		.loc 3 292 0
 383 001a 436A     		ldr	r3, [r0, #36]
 384 001c 1940     		ands	r1, r1, r3
 385              		.loc 3 291 0
 386 001e 9942     		cmp	r1, r3
 387 0020 03D1     		bne	.L19
 388              	.L21:
 389              		.loc 3 293 0
 390 0022 0023     		movs	r3, #0
 391 0024 4362     		str	r3, [r0, #36]
 392              		.loc 3 294 0
 393 0026 FFF7FEBF 		b	chSchReadyI
 394              	.LVL32:
 395              	.L19:
 396 002a 7047     		bx	lr
 397              		.cfi_endproc
 398              	.LFE253:
 399              		.size	chEvtSignalI, .-chEvtSignalI
ARM GAS  /tmp/cc7TrS54.s 			page 8


 400              		.section	.text.chEvtBroadcastFlagsI,"ax",%progbits
 401              		.align	1
 402              		.global	chEvtBroadcastFlagsI
 403              		.thumb
 404              		.thumb_func
 405              		.type	chEvtBroadcastFlagsI, %function
 406              	chEvtBroadcastFlagsI:
 407              	.LFB250:
 408              		.loc 3 209 0
 409              		.cfi_startproc
 410              		@ args = 0, pretend = 0, frame = 0
 411              		@ frame_needed = 0, uses_anonymous_args = 0
 412              	.LVL33:
 413 0000 70B5     		push	{r4, r5, r6, lr}
 414              		.cfi_def_cfa_offset 16
 415              		.cfi_offset 4, -16
 416              		.cfi_offset 5, -12
 417              		.cfi_offset 6, -8
 418              		.cfi_offset 14, -4
 419              		.loc 3 215 0
 420 0002 0468     		ldr	r4, [r0]
 421              	.LVL34:
 422              		.loc 3 209 0
 423 0004 0546     		mov	r5, r0
 424 0006 0E46     		mov	r6, r1
 425              	.LVL35:
 426              	.L24:
 427              		.loc 3 217 0
 428 0008 AC42     		cmp	r4, r5
 429 000a 0CD0     		beq	.L34
 430              		.loc 3 219 0
 431 000c E368     		ldr	r3, [r4, #12]
 432 000e 3343     		orrs	r3, r3, r6
 433 0010 E360     		str	r3, [r4, #12]
 434              		.loc 3 222 0
 435 0012 16B1     		cbz	r6, .L25
 436              		.loc 3 223 0 discriminator 1
 437 0014 2269     		ldr	r2, [r4, #16]
 438              		.loc 3 222 0 discriminator 1
 439 0016 1342     		tst	r3, r2
 440 0018 03D0     		beq	.L26
 441              	.L25:
 442              		.loc 3 224 0
 443 001a 6068     		ldr	r0, [r4, #4]
 444 001c A168     		ldr	r1, [r4, #8]
 445 001e FFF7FEFF 		bl	chEvtSignalI
 446              	.LVL36:
 447              	.L26:
 448              		.loc 3 226 0
 449 0022 2468     		ldr	r4, [r4]
 450              	.LVL37:
 451 0024 F0E7     		b	.L24
 452              	.L34:
 453              		.loc 3 228 0
 454 0026 70BD     		pop	{r4, r5, r6, pc}
 455              		.cfi_endproc
 456              	.LFE250:
ARM GAS  /tmp/cc7TrS54.s 			page 9


 457              		.size	chEvtBroadcastFlagsI, .-chEvtBroadcastFlagsI
 458              		.section	.text.chEvtSignal,"ax",%progbits
 459              		.align	1
 460              		.global	chEvtSignal
 461              		.thumb
 462              		.thumb_func
 463              		.type	chEvtSignal, %function
 464              	chEvtSignal:
 465              	.LFB252:
 466              		.loc 3 260 0
 467              		.cfi_startproc
 468              		@ args = 0, pretend = 0, frame = 0
 469              		@ frame_needed = 0, uses_anonymous_args = 0
 470              	.LVL38:
 471 0000 38B5     		push	{r3, r4, r5, lr}
 472              		.cfi_def_cfa_offset 16
 473              		.cfi_offset 3, -16
 474              		.cfi_offset 4, -12
 475              		.cfi_offset 5, -8
 476              		.cfi_offset 14, -4
 477              		.loc 3 260 0
 478 0002 0546     		mov	r5, r0
 479 0004 0C46     		mov	r4, r1
 480              		.loc 3 264 0
 481 0006 FFF7FEFF 		bl	chSysLock
 482              	.LVL39:
 483              		.loc 3 265 0
 484 000a 2846     		mov	r0, r5
 485 000c 2146     		mov	r1, r4
 486 000e FFF7FEFF 		bl	chEvtSignalI
 487              	.LVL40:
 488              		.loc 3 266 0
 489 0012 FFF7FEFF 		bl	chSchRescheduleS
 490              	.LVL41:
 491              		.loc 3 268 0
 492 0016 BDE83840 		pop	{r3, r4, r5, lr}
 493              		.cfi_restore 14
 494              		.cfi_restore 5
 495              		.cfi_restore 4
 496              		.cfi_restore 3
 497              		.cfi_def_cfa_offset 0
 498              	.LVL42:
 499              		.loc 3 267 0
 500 001a FFF7FEBF 		b	chSysUnlock
 501              	.LVL43:
 502              		.cfi_endproc
 503              	.LFE252:
 504              		.size	chEvtSignal, .-chEvtSignal
 505              		.section	.text.chEvtBroadcastFlags,"ax",%progbits
 506              		.align	1
 507              		.global	chEvtBroadcastFlags
 508              		.thumb
 509              		.thumb_func
 510              		.type	chEvtBroadcastFlags, %function
 511              	chEvtBroadcastFlags:
 512              	.LFB254:
 513              		.loc 3 311 0
ARM GAS  /tmp/cc7TrS54.s 			page 10


 514              		.cfi_startproc
 515              		@ args = 0, pretend = 0, frame = 0
 516              		@ frame_needed = 0, uses_anonymous_args = 0
 517              	.LVL44:
 518 0000 38B5     		push	{r3, r4, r5, lr}
 519              		.cfi_def_cfa_offset 16
 520              		.cfi_offset 3, -16
 521              		.cfi_offset 4, -12
 522              		.cfi_offset 5, -8
 523              		.cfi_offset 14, -4
 524              		.loc 3 311 0
 525 0002 0546     		mov	r5, r0
 526 0004 0C46     		mov	r4, r1
 527              		.loc 3 313 0
 528 0006 FFF7FEFF 		bl	chSysLock
 529              	.LVL45:
 530              		.loc 3 314 0
 531 000a 2846     		mov	r0, r5
 532 000c 2146     		mov	r1, r4
 533 000e FFF7FEFF 		bl	chEvtBroadcastFlagsI
 534              	.LVL46:
 535              		.loc 3 315 0
 536 0012 FFF7FEFF 		bl	chSchRescheduleS
 537              	.LVL47:
 538              		.loc 3 317 0
 539 0016 BDE83840 		pop	{r3, r4, r5, lr}
 540              		.cfi_restore 14
 541              		.cfi_restore 5
 542              		.cfi_restore 4
 543              		.cfi_restore 3
 544              		.cfi_def_cfa_offset 0
 545              	.LVL48:
 546              		.loc 3 316 0
 547 001a FFF7FEBF 		b	chSysUnlock
 548              	.LVL49:
 549              		.cfi_endproc
 550              	.LFE254:
 551              		.size	chEvtBroadcastFlags, .-chEvtBroadcastFlags
 552              		.section	.text.chEvtGetAndClearFlagsI,"ax",%progbits
 553              		.align	1
 554              		.global	chEvtGetAndClearFlagsI
 555              		.thumb
 556              		.thumb_func
 557              		.type	chEvtGetAndClearFlagsI, %function
 558              	chEvtGetAndClearFlagsI:
 559              	.LFB255:
 560              		.loc 3 330 0
 561              		.cfi_startproc
 562              		@ args = 0, pretend = 0, frame = 0
 563              		@ frame_needed = 0, uses_anonymous_args = 0
 564              		@ link register save eliminated.
 565              	.LVL50:
 566              		.loc 3 330 0
 567 0000 0346     		mov	r3, r0
 568              		.loc 3 334 0
 569 0002 0022     		movs	r2, #0
 570              		.loc 3 333 0
ARM GAS  /tmp/cc7TrS54.s 			page 11


 571 0004 C068     		ldr	r0, [r0, #12]
 572              	.LVL51:
 573              		.loc 3 334 0
 574 0006 DA60     		str	r2, [r3, #12]
 575              		.loc 3 337 0
 576 0008 7047     		bx	lr
 577              		.cfi_endproc
 578              	.LFE255:
 579              		.size	chEvtGetAndClearFlagsI, .-chEvtGetAndClearFlagsI
 580              		.section	.text.chEvtDispatch,"ax",%progbits
 581              		.align	1
 582              		.global	chEvtDispatch
 583              		.thumb
 584              		.thumb_func
 585              		.type	chEvtDispatch, %function
 586              	chEvtDispatch:
 587              	.LFB256:
 588              		.loc 3 348 0
 589              		.cfi_startproc
 590              		@ args = 0, pretend = 0, frame = 0
 591              		@ frame_needed = 0, uses_anonymous_args = 0
 592              	.LVL52:
 593 0000 70B5     		push	{r4, r5, r6, lr}
 594              		.cfi_def_cfa_offset 16
 595              		.cfi_offset 4, -16
 596              		.cfi_offset 5, -12
 597              		.cfi_offset 6, -8
 598              		.cfi_offset 14, -4
 599              		.loc 3 348 0
 600 0002 0646     		mov	r6, r0
 601 0004 0D46     		mov	r5, r1
 602              		.loc 3 353 0
 603 0006 0024     		movs	r4, #0
 604              	.LVL53:
 605              	.L39:
 606              		.loc 3 354 0
 607 0008 6DB1     		cbz	r5, .L45
 608              		.loc 3 355 0
 609 000a 25FA04F3 		lsr	r3, r5, r4
 610 000e DB07     		lsls	r3, r3, #31
 611 0010 07D5     		bpl	.L40
 612              		.loc 3 357 0
 613 0012 0123     		movs	r3, #1
 614 0014 A340     		lsls	r3, r3, r4
 615 0016 25EA0305 		bic	r5, r5, r3
 616              	.LVL54:
 617              		.loc 3 358 0
 618 001a 2046     		mov	r0, r4
 619 001c 56F82430 		ldr	r3, [r6, r4, lsl #2]
 620 0020 9847     		blx	r3
 621              	.LVL55:
 622              	.L40:
 623              		.loc 3 360 0
 624 0022 0134     		adds	r4, r4, #1
 625              	.LVL56:
 626 0024 F0E7     		b	.L39
 627              	.L45:
ARM GAS  /tmp/cc7TrS54.s 			page 12


 628              		.loc 3 362 0
 629 0026 70BD     		pop	{r4, r5, r6, pc}
 630              		.cfi_endproc
 631              	.LFE256:
 632              		.size	chEvtDispatch, .-chEvtDispatch
 633              		.section	.text.chEvtWaitOne,"ax",%progbits
 634              		.align	1
 635              		.global	chEvtWaitOne
 636              		.thumb
 637              		.thumb_func
 638              		.type	chEvtWaitOne, %function
 639              	chEvtWaitOne:
 640              	.LFB257:
 641              		.loc 3 383 0
 642              		.cfi_startproc
 643              		@ args = 0, pretend = 0, frame = 0
 644              		@ frame_needed = 0, uses_anonymous_args = 0
 645              	.LVL57:
 646 0000 38B5     		push	{r3, r4, r5, lr}
 647              		.cfi_def_cfa_offset 16
 648              		.cfi_offset 3, -16
 649              		.cfi_offset 4, -12
 650              		.cfi_offset 5, -8
 651              		.cfi_offset 14, -4
 652              		.loc 3 384 0
 653 0002 0C4B     		ldr	r3, .L48
 654 0004 9D69     		ldr	r5, [r3, #24]
 655              	.LVL58:
 656              		.loc 3 383 0
 657 0006 0446     		mov	r4, r0
 658              		.loc 3 387 0
 659 0008 FFF7FEFF 		bl	chSysLock
 660              	.LVL59:
 661              		.loc 3 388 0
 662 000c 6B6B     		ldr	r3, [r5, #52]
 663              	.LVL60:
 664              		.loc 3 389 0
 665 000e 2340     		ands	r3, r4, r3
 666              	.LVL61:
 667 0010 05D1     		bne	.L47
 668              		.loc 3 390 0
 669 0012 6C62     		str	r4, [r5, #36]
 670              		.loc 3 391 0
 671 0014 0A20     		movs	r0, #10
 672 0016 FFF7FEFF 		bl	chSchGoSleepS
 673              	.LVL62:
 674              		.loc 3 392 0
 675 001a 6B6B     		ldr	r3, [r5, #52]
 676 001c 2340     		ands	r3, r3, r4
 677              	.LVL63:
 678              	.L47:
 679              		.loc 3 394 0
 680 001e 5C42     		negs	r4, r3
 681              	.LVL64:
 682 0020 1C40     		ands	r4, r4, r3
 683              	.LVL65:
 684              		.loc 3 395 0
ARM GAS  /tmp/cc7TrS54.s 			page 13


 685 0022 6B6B     		ldr	r3, [r5, #52]
 686 0024 23EA0403 		bic	r3, r3, r4
 687 0028 6B63     		str	r3, [r5, #52]
 688              		.loc 3 396 0
 689 002a FFF7FEFF 		bl	chSysUnlock
 690              	.LVL66:
 691              		.loc 3 399 0
 692 002e 2046     		mov	r0, r4
 693 0030 38BD     		pop	{r3, r4, r5, pc}
 694              	.LVL67:
 695              	.L49:
 696 0032 00BF     		.align	2
 697              	.L48:
 698 0034 00000000 		.word	ch
 699              		.cfi_endproc
 700              	.LFE257:
 701              		.size	chEvtWaitOne, .-chEvtWaitOne
 702              		.section	.text.chEvtWaitAny,"ax",%progbits
 703              		.align	1
 704              		.global	chEvtWaitAny
 705              		.thumb
 706              		.thumb_func
 707              		.type	chEvtWaitAny, %function
 708              	chEvtWaitAny:
 709              	.LFB258:
 710              		.loc 3 413 0
 711              		.cfi_startproc
 712              		@ args = 0, pretend = 0, frame = 0
 713              		@ frame_needed = 0, uses_anonymous_args = 0
 714              	.LVL68:
 715              		.loc 3 414 0
 716 0000 0B4B     		ldr	r3, .L52
 717              		.loc 3 413 0
 718 0002 70B5     		push	{r4, r5, r6, lr}
 719              		.cfi_def_cfa_offset 16
 720              		.cfi_offset 4, -16
 721              		.cfi_offset 5, -12
 722              		.cfi_offset 6, -8
 723              		.cfi_offset 14, -4
 724              		.loc 3 414 0
 725 0004 9D69     		ldr	r5, [r3, #24]
 726              	.LVL69:
 727              		.loc 3 413 0
 728 0006 0646     		mov	r6, r0
 729              		.loc 3 417 0
 730 0008 FFF7FEFF 		bl	chSysLock
 731              	.LVL70:
 732              		.loc 3 418 0
 733 000c 6C6B     		ldr	r4, [r5, #52]
 734              	.LVL71:
 735              		.loc 3 419 0
 736 000e 3440     		ands	r4, r6, r4
 737              	.LVL72:
 738 0010 05D1     		bne	.L51
 739              		.loc 3 420 0
 740 0012 6E62     		str	r6, [r5, #36]
 741              		.loc 3 421 0
ARM GAS  /tmp/cc7TrS54.s 			page 14


 742 0014 0A20     		movs	r0, #10
 743 0016 FFF7FEFF 		bl	chSchGoSleepS
 744              	.LVL73:
 745              		.loc 3 422 0
 746 001a 6C6B     		ldr	r4, [r5, #52]
 747              	.LVL74:
 748 001c 3440     		ands	r4, r4, r6
 749              	.LVL75:
 750              	.L51:
 751              		.loc 3 424 0
 752 001e 6B6B     		ldr	r3, [r5, #52]
 753 0020 23EA0403 		bic	r3, r3, r4
 754 0024 6B63     		str	r3, [r5, #52]
 755              		.loc 3 425 0
 756 0026 FFF7FEFF 		bl	chSysUnlock
 757              	.LVL76:
 758              		.loc 3 428 0
 759 002a 2046     		mov	r0, r4
 760 002c 70BD     		pop	{r4, r5, r6, pc}
 761              	.LVL77:
 762              	.L53:
 763 002e 00BF     		.align	2
 764              	.L52:
 765 0030 00000000 		.word	ch
 766              		.cfi_endproc
 767              	.LFE258:
 768              		.size	chEvtWaitAny, .-chEvtWaitAny
 769              		.section	.text.chEvtWaitAll,"ax",%progbits
 770              		.align	1
 771              		.global	chEvtWaitAll
 772              		.thumb
 773              		.thumb_func
 774              		.type	chEvtWaitAll, %function
 775              	chEvtWaitAll:
 776              	.LFB259:
 777              		.loc 3 441 0
 778              		.cfi_startproc
 779              		@ args = 0, pretend = 0, frame = 0
 780              		@ frame_needed = 0, uses_anonymous_args = 0
 781              	.LVL78:
 782 0000 38B5     		push	{r3, r4, r5, lr}
 783              		.cfi_def_cfa_offset 16
 784              		.cfi_offset 3, -16
 785              		.cfi_offset 4, -12
 786              		.cfi_offset 5, -8
 787              		.cfi_offset 14, -4
 788              		.loc 3 442 0
 789 0002 0A4B     		ldr	r3, .L56
 790 0004 9D69     		ldr	r5, [r3, #24]
 791              	.LVL79:
 792              		.loc 3 441 0
 793 0006 0446     		mov	r4, r0
 794              		.loc 3 444 0
 795 0008 FFF7FEFF 		bl	chSysLock
 796              	.LVL80:
 797              		.loc 3 445 0
 798 000c 6B6B     		ldr	r3, [r5, #52]
ARM GAS  /tmp/cc7TrS54.s 			page 15


 799 000e 2340     		ands	r3, r3, r4
 800 0010 A342     		cmp	r3, r4
 801 0012 03D0     		beq	.L55
 802              		.loc 3 446 0
 803 0014 6C62     		str	r4, [r5, #36]
 804              		.loc 3 447 0
 805 0016 0B20     		movs	r0, #11
 806 0018 FFF7FEFF 		bl	chSchGoSleepS
 807              	.LVL81:
 808              	.L55:
 809              		.loc 3 449 0
 810 001c 6B6B     		ldr	r3, [r5, #52]
 811 001e 23EA0403 		bic	r3, r3, r4
 812 0022 6B63     		str	r3, [r5, #52]
 813              		.loc 3 450 0
 814 0024 FFF7FEFF 		bl	chSysUnlock
 815              	.LVL82:
 816              		.loc 3 453 0
 817 0028 2046     		mov	r0, r4
 818 002a 38BD     		pop	{r3, r4, r5, pc}
 819              	.LVL83:
 820              	.L57:
 821              		.align	2
 822              	.L56:
 823 002c 00000000 		.word	ch
 824              		.cfi_endproc
 825              	.LFE259:
 826              		.size	chEvtWaitAll, .-chEvtWaitAll
 827              		.section	.text.chEvtWaitOneTimeout,"ax",%progbits
 828              		.align	1
 829              		.global	chEvtWaitOneTimeout
 830              		.thumb
 831              		.thumb_func
 832              		.type	chEvtWaitOneTimeout, %function
 833              	chEvtWaitOneTimeout:
 834              	.LFB260:
 835              		.loc 3 479 0
 836              		.cfi_startproc
 837              		@ args = 0, pretend = 0, frame = 0
 838              		@ frame_needed = 0, uses_anonymous_args = 0
 839              	.LVL84:
 840              		.loc 3 480 0
 841 0000 104B     		ldr	r3, .L63
 842              		.loc 3 479 0
 843 0002 70B5     		push	{r4, r5, r6, lr}
 844              		.cfi_def_cfa_offset 16
 845              		.cfi_offset 4, -16
 846              		.cfi_offset 5, -12
 847              		.cfi_offset 6, -8
 848              		.cfi_offset 14, -4
 849              		.loc 3 480 0
 850 0004 9D69     		ldr	r5, [r3, #24]
 851              	.LVL85:
 852              		.loc 3 479 0
 853 0006 0446     		mov	r4, r0
 854 0008 0E46     		mov	r6, r1
 855              		.loc 3 483 0
ARM GAS  /tmp/cc7TrS54.s 			page 16


 856 000a FFF7FEFF 		bl	chSysLock
 857              	.LVL86:
 858              		.loc 3 484 0
 859 000e 6B6B     		ldr	r3, [r5, #52]
 860              	.LVL87:
 861              		.loc 3 485 0
 862 0010 2340     		ands	r3, r4, r3
 863              	.LVL88:
 864 0012 0DD1     		bne	.L59
 865              		.loc 3 486 0
 866 0014 1EB9     		cbnz	r6, .L60
 867              	.LVL89:
 868              	.L62:
 869              		.loc 3 487 0
 870 0016 FFF7FEFF 		bl	chSysUnlock
 871              	.LVL90:
 872              		.loc 3 488 0
 873 001a 0020     		movs	r0, #0
 874 001c 70BD     		pop	{r4, r5, r6, pc}
 875              	.LVL91:
 876              	.L60:
 877              		.loc 3 490 0
 878 001e 6C62     		str	r4, [r5, #36]
 879              		.loc 3 491 0
 880 0020 0A20     		movs	r0, #10
 881 0022 3146     		mov	r1, r6
 882 0024 FFF7FEFF 		bl	chSchGoSleepTimeoutS
 883              	.LVL92:
 884 0028 0028     		cmp	r0, #0
 885 002a F4DB     		blt	.L62
 886              		.loc 3 495 0
 887 002c 6B6B     		ldr	r3, [r5, #52]
 888 002e 2340     		ands	r3, r3, r4
 889              	.LVL93:
 890              	.L59:
 891              		.loc 3 497 0
 892 0030 5C42     		negs	r4, r3
 893              	.LVL94:
 894 0032 1C40     		ands	r4, r4, r3
 895              	.LVL95:
 896              		.loc 3 498 0
 897 0034 6B6B     		ldr	r3, [r5, #52]
 898 0036 23EA0403 		bic	r3, r3, r4
 899 003a 6B63     		str	r3, [r5, #52]
 900              		.loc 3 499 0
 901 003c FFF7FEFF 		bl	chSysUnlock
 902              	.LVL96:
 903              		.loc 3 501 0
 904 0040 2046     		mov	r0, r4
 905              		.loc 3 502 0
 906 0042 70BD     		pop	{r4, r5, r6, pc}
 907              	.LVL97:
 908              	.L64:
 909              		.align	2
 910              	.L63:
 911 0044 00000000 		.word	ch
 912              		.cfi_endproc
ARM GAS  /tmp/cc7TrS54.s 			page 17


 913              	.LFE260:
 914              		.size	chEvtWaitOneTimeout, .-chEvtWaitOneTimeout
 915              		.section	.text.chEvtWaitAnyTimeout,"ax",%progbits
 916              		.align	1
 917              		.global	chEvtWaitAnyTimeout
 918              		.thumb
 919              		.thumb_func
 920              		.type	chEvtWaitAnyTimeout, %function
 921              	chEvtWaitAnyTimeout:
 922              	.LFB261:
 923              		.loc 3 522 0
 924              		.cfi_startproc
 925              		@ args = 0, pretend = 0, frame = 0
 926              		@ frame_needed = 0, uses_anonymous_args = 0
 927              	.LVL98:
 928 0000 F8B5     		push	{r3, r4, r5, r6, r7, lr}
 929              		.cfi_def_cfa_offset 24
 930              		.cfi_offset 3, -24
 931              		.cfi_offset 4, -20
 932              		.cfi_offset 5, -16
 933              		.cfi_offset 6, -12
 934              		.cfi_offset 7, -8
 935              		.cfi_offset 14, -4
 936              		.loc 3 523 0
 937 0002 0F4B     		ldr	r3, .L70
 938 0004 9D69     		ldr	r5, [r3, #24]
 939              	.LVL99:
 940              		.loc 3 522 0
 941 0006 0646     		mov	r6, r0
 942 0008 0F46     		mov	r7, r1
 943              		.loc 3 526 0
 944 000a FFF7FEFF 		bl	chSysLock
 945              	.LVL100:
 946              		.loc 3 527 0
 947 000e 6C6B     		ldr	r4, [r5, #52]
 948              	.LVL101:
 949              		.loc 3 528 0
 950 0010 3440     		ands	r4, r6, r4
 951              	.LVL102:
 952 0012 0DD1     		bne	.L66
 953              		.loc 3 529 0
 954 0014 1FB9     		cbnz	r7, .L67
 955              	.L69:
 956              		.loc 3 530 0
 957 0016 FFF7FEFF 		bl	chSysUnlock
 958              	.LVL103:
 959              		.loc 3 531 0
 960 001a 0020     		movs	r0, #0
 961 001c F8BD     		pop	{r3, r4, r5, r6, r7, pc}
 962              	.LVL104:
 963              	.L67:
 964              		.loc 3 533 0
 965 001e 6E62     		str	r6, [r5, #36]
 966              		.loc 3 534 0
 967 0020 0A20     		movs	r0, #10
 968 0022 3946     		mov	r1, r7
 969 0024 FFF7FEFF 		bl	chSchGoSleepTimeoutS
ARM GAS  /tmp/cc7TrS54.s 			page 18


 970              	.LVL105:
 971 0028 0028     		cmp	r0, #0
 972 002a F4DB     		blt	.L69
 973              		.loc 3 538 0
 974 002c 6C6B     		ldr	r4, [r5, #52]
 975              	.LVL106:
 976 002e 3440     		ands	r4, r4, r6
 977              	.LVL107:
 978              	.L66:
 979              		.loc 3 540 0
 980 0030 6B6B     		ldr	r3, [r5, #52]
 981 0032 23EA0403 		bic	r3, r3, r4
 982 0036 6B63     		str	r3, [r5, #52]
 983              		.loc 3 541 0
 984 0038 FFF7FEFF 		bl	chSysUnlock
 985              	.LVL108:
 986              		.loc 3 543 0
 987 003c 2046     		mov	r0, r4
 988              		.loc 3 544 0
 989 003e F8BD     		pop	{r3, r4, r5, r6, r7, pc}
 990              	.LVL109:
 991              	.L71:
 992              		.align	2
 993              	.L70:
 994 0040 00000000 		.word	ch
 995              		.cfi_endproc
 996              	.LFE261:
 997              		.size	chEvtWaitAnyTimeout, .-chEvtWaitAnyTimeout
 998              		.section	.text.chEvtWaitAllTimeout,"ax",%progbits
 999              		.align	1
 1000              		.global	chEvtWaitAllTimeout
 1001              		.thumb
 1002              		.thumb_func
 1003              		.type	chEvtWaitAllTimeout, %function
 1004              	chEvtWaitAllTimeout:
 1005              	.LFB262:
 1006              		.loc 3 563 0
 1007              		.cfi_startproc
 1008              		@ args = 0, pretend = 0, frame = 0
 1009              		@ frame_needed = 0, uses_anonymous_args = 0
 1010              	.LVL110:
 1011              		.loc 3 564 0
 1012 0000 0F4B     		ldr	r3, .L77
 1013              		.loc 3 563 0
 1014 0002 70B5     		push	{r4, r5, r6, lr}
 1015              		.cfi_def_cfa_offset 16
 1016              		.cfi_offset 4, -16
 1017              		.cfi_offset 5, -12
 1018              		.cfi_offset 6, -8
 1019              		.cfi_offset 14, -4
 1020              		.loc 3 564 0
 1021 0004 9D69     		ldr	r5, [r3, #24]
 1022              	.LVL111:
 1023              		.loc 3 563 0
 1024 0006 0446     		mov	r4, r0
 1025 0008 0E46     		mov	r6, r1
 1026              		.loc 3 566 0
ARM GAS  /tmp/cc7TrS54.s 			page 19


 1027 000a FFF7FEFF 		bl	chSysLock
 1028              	.LVL112:
 1029              		.loc 3 567 0
 1030 000e 6B6B     		ldr	r3, [r5, #52]
 1031 0010 2340     		ands	r3, r3, r4
 1032 0012 A342     		cmp	r3, r4
 1033 0014 0BD0     		beq	.L73
 1034              		.loc 3 568 0
 1035 0016 1EB9     		cbnz	r6, .L74
 1036              	.L76:
 1037              		.loc 3 569 0
 1038 0018 FFF7FEFF 		bl	chSysUnlock
 1039              	.LVL113:
 1040              		.loc 3 570 0
 1041 001c 0020     		movs	r0, #0
 1042 001e 70BD     		pop	{r4, r5, r6, pc}
 1043              	.LVL114:
 1044              	.L74:
 1045              		.loc 3 572 0
 1046 0020 6C62     		str	r4, [r5, #36]
 1047              		.loc 3 573 0
 1048 0022 0B20     		movs	r0, #11
 1049 0024 3146     		mov	r1, r6
 1050 0026 FFF7FEFF 		bl	chSchGoSleepTimeoutS
 1051              	.LVL115:
 1052 002a 0028     		cmp	r0, #0
 1053 002c F4DB     		blt	.L76
 1054              	.L73:
 1055              		.loc 3 578 0
 1056 002e 6B6B     		ldr	r3, [r5, #52]
 1057 0030 23EA0403 		bic	r3, r3, r4
 1058 0034 6B63     		str	r3, [r5, #52]
 1059              		.loc 3 579 0
 1060 0036 FFF7FEFF 		bl	chSysUnlock
 1061              	.LVL116:
 1062              		.loc 3 581 0
 1063 003a 2046     		mov	r0, r4
 1064              		.loc 3 582 0
 1065 003c 70BD     		pop	{r4, r5, r6, pc}
 1066              	.LVL117:
 1067              	.L78:
 1068 003e 00BF     		.align	2
 1069              	.L77:
 1070 0040 00000000 		.word	ch
 1071              		.cfi_endproc
 1072              	.LFE262:
 1073              		.size	chEvtWaitAllTimeout, .-chEvtWaitAllTimeout
 1074              		.text
 1075              	.Letext0:
 1076              		.file 4 "/usr/include/newlib/machine/_default_types.h"
 1077              		.file 5 "/usr/include/newlib/sys/_stdint.h"
 1078              		.file 6 "../../modules/ChibiOS/os/common/ports/ARMCMx/compilers/GCC/chtypes.h"
 1079              		.file 7 "../../modules/ChibiOS/os/rt/include/chsystypes.h"
 1080              		.file 8 "../../modules/ChibiOS/os/rt/include/chschd.h"
 1081              		.file 9 "../../modules/ChibiOS/os/common/ports/ARMCMx/chcore.h"
 1082              		.file 10 "../../modules/ChibiOS/os/common/ports/ARMCMx/chcore_v7m.h"
 1083              		.file 11 "../../modules/ChibiOS/os/rt/include/chtm.h"
ARM GAS  /tmp/cc7TrS54.s 			page 20


 1084              		.file 12 "../../modules/ChibiOS/os/rt/include/chstats.h"
 1085              		.file 13 "../../modules/ChibiOS/os/rt/include/chsem.h"
 1086              		.file 14 "../../modules/ChibiOS/os/rt/include/chmtx.h"
 1087              		.file 15 "../../modules/ChibiOS/os/rt/include/chevents.h"
 1088              		.file 16 "../../modules/ChibiOS/os/common/ext/CMSIS/include/core_cm4.h"
 1089              		.section	.debug_info,"",%progbits
 1090              	.Ldebug_info0:
 1091 0000 8E100000 		.4byte	0x108e
 1092 0004 0400     		.2byte	0x4
 1093 0006 00000000 		.4byte	.Ldebug_abbrev0
 1094 000a 04       		.byte	0x4
 1095 000b 01       		.uleb128 0x1
 1096 000c 83020000 		.4byte	.LASF144
 1097 0010 01       		.byte	0x1
 1098 0011 69040000 		.4byte	.LASF145
 1099 0015 48010000 		.4byte	.LASF146
 1100 0019 00000000 		.4byte	.Ldebug_ranges0+0
 1101 001d 00000000 		.4byte	0
 1102 0021 00000000 		.4byte	.Ldebug_line0
 1103 0025 02       		.uleb128 0x2
 1104 0026 04       		.byte	0x4
 1105 0027 05       		.byte	0x5
 1106 0028 696E7400 		.ascii	"int\000"
 1107 002c 03       		.uleb128 0x3
 1108 002d 04       		.byte	0x4
 1109 002e 07       		.byte	0x7
 1110 002f 76020000 		.4byte	.LASF0
 1111 0033 03       		.uleb128 0x3
 1112 0034 01       		.byte	0x1
 1113 0035 06       		.byte	0x6
 1114 0036 21010000 		.4byte	.LASF1
 1115 003a 04       		.uleb128 0x4
 1116 003b 36000000 		.4byte	.LASF5
 1117 003f 04       		.byte	0x4
 1118 0040 1D       		.byte	0x1d
 1119 0041 45000000 		.4byte	0x45
 1120 0045 03       		.uleb128 0x3
 1121 0046 01       		.byte	0x1
 1122 0047 08       		.byte	0x8
 1123 0048 BE050000 		.4byte	.LASF2
 1124 004c 03       		.uleb128 0x3
 1125 004d 02       		.byte	0x2
 1126 004e 05       		.byte	0x5
 1127 004f D9050000 		.4byte	.LASF3
 1128 0053 03       		.uleb128 0x3
 1129 0054 02       		.byte	0x2
 1130 0055 07       		.byte	0x7
 1131 0056 A2030000 		.4byte	.LASF4
 1132 005a 04       		.uleb128 0x4
 1133 005b 5F040000 		.4byte	.LASF6
 1134 005f 04       		.byte	0x4
 1135 0060 3F       		.byte	0x3f
 1136 0061 65000000 		.4byte	0x65
 1137 0065 03       		.uleb128 0x3
 1138 0066 04       		.byte	0x4
 1139 0067 05       		.byte	0x5
 1140 0068 92010000 		.4byte	.LASF7
ARM GAS  /tmp/cc7TrS54.s 			page 21


 1141 006c 04       		.uleb128 0x4
 1142 006d FD010000 		.4byte	.LASF8
 1143 0071 04       		.byte	0x4
 1144 0072 41       		.byte	0x41
 1145 0073 77000000 		.4byte	0x77
 1146 0077 03       		.uleb128 0x3
 1147 0078 04       		.byte	0x4
 1148 0079 07       		.byte	0x7
 1149 007a 8C060000 		.4byte	.LASF9
 1150 007e 03       		.uleb128 0x3
 1151 007f 08       		.byte	0x8
 1152 0080 05       		.byte	0x5
 1153 0081 13010000 		.4byte	.LASF10
 1154 0085 04       		.uleb128 0x4
 1155 0086 63050000 		.4byte	.LASF11
 1156 008a 04       		.byte	0x4
 1157 008b 5B       		.byte	0x5b
 1158 008c 90000000 		.4byte	0x90
 1159 0090 03       		.uleb128 0x3
 1160 0091 08       		.byte	0x8
 1161 0092 07       		.byte	0x7
 1162 0093 A0000000 		.4byte	.LASF12
 1163 0097 04       		.uleb128 0x4
 1164 0098 39070000 		.4byte	.LASF13
 1165 009c 05       		.byte	0x5
 1166 009d 14       		.byte	0x14
 1167 009e 3A000000 		.4byte	0x3a
 1168 00a2 04       		.uleb128 0x4
 1169 00a3 B6050000 		.4byte	.LASF14
 1170 00a7 05       		.byte	0x5
 1171 00a8 1F       		.byte	0x1f
 1172 00a9 5A000000 		.4byte	0x5a
 1173 00ad 04       		.uleb128 0x4
 1174 00ae 5A060000 		.4byte	.LASF15
 1175 00b2 05       		.byte	0x5
 1176 00b3 20       		.byte	0x20
 1177 00b4 6C000000 		.4byte	0x6c
 1178 00b8 04       		.uleb128 0x4
 1179 00b9 20000000 		.4byte	.LASF16
 1180 00bd 05       		.byte	0x5
 1181 00be 26       		.byte	0x26
 1182 00bf 85000000 		.4byte	0x85
 1183 00c3 04       		.uleb128 0x4
 1184 00c4 05070000 		.4byte	.LASF17
 1185 00c8 06       		.byte	0x6
 1186 00c9 39       		.byte	0x39
 1187 00ca AD000000 		.4byte	0xad
 1188 00ce 04       		.uleb128 0x4
 1189 00cf 0A010000 		.4byte	.LASF18
 1190 00d3 06       		.byte	0x6
 1191 00d4 3A       		.byte	0x3a
 1192 00d5 B8000000 		.4byte	0xb8
 1193 00d9 04       		.uleb128 0x4
 1194 00da 32040000 		.4byte	.LASF19
 1195 00de 06       		.byte	0x6
 1196 00df 3C       		.byte	0x3c
 1197 00e0 97000000 		.4byte	0x97
ARM GAS  /tmp/cc7TrS54.s 			page 22


 1198 00e4 04       		.uleb128 0x4
 1199 00e5 C8010000 		.4byte	.LASF20
 1200 00e9 06       		.byte	0x6
 1201 00ea 3D       		.byte	0x3d
 1202 00eb 97000000 		.4byte	0x97
 1203 00ef 04       		.uleb128 0x4
 1204 00f0 82050000 		.4byte	.LASF21
 1205 00f4 06       		.byte	0x6
 1206 00f5 3E       		.byte	0x3e
 1207 00f6 97000000 		.4byte	0x97
 1208 00fa 04       		.uleb128 0x4
 1209 00fb 9F050000 		.4byte	.LASF22
 1210 00ff 06       		.byte	0x6
 1211 0100 40       		.byte	0x40
 1212 0101 AD000000 		.4byte	0xad
 1213 0105 04       		.uleb128 0x4
 1214 0106 DB030000 		.4byte	.LASF23
 1215 010a 06       		.byte	0x6
 1216 010b 41       		.byte	0x41
 1217 010c A2000000 		.4byte	0xa2
 1218 0110 04       		.uleb128 0x4
 1219 0111 3D020000 		.4byte	.LASF24
 1220 0115 06       		.byte	0x6
 1221 0116 42       		.byte	0x42
 1222 0117 A2000000 		.4byte	0xa2
 1223 011b 04       		.uleb128 0x4
 1224 011c 53040000 		.4byte	.LASF25
 1225 0120 06       		.byte	0x6
 1226 0121 43       		.byte	0x43
 1227 0122 AD000000 		.4byte	0xad
 1228 0126 04       		.uleb128 0x4
 1229 0127 CE030000 		.4byte	.LASF26
 1230 012b 06       		.byte	0x6
 1231 012c 44       		.byte	0x44
 1232 012d AD000000 		.4byte	0xad
 1233 0131 04       		.uleb128 0x4
 1234 0132 70020000 		.4byte	.LASF27
 1235 0136 06       		.byte	0x6
 1236 0137 45       		.byte	0x45
 1237 0138 A2000000 		.4byte	0xa2
 1238 013c 04       		.uleb128 0x4
 1239 013d E6030000 		.4byte	.LASF28
 1240 0141 06       		.byte	0x6
 1241 0142 46       		.byte	0x46
 1242 0143 AD000000 		.4byte	0xad
 1243 0147 04       		.uleb128 0x4
 1244 0148 D3060000 		.4byte	.LASF29
 1245 014c 07       		.byte	0x7
 1246 014d 33       		.byte	0x33
 1247 014e AD000000 		.4byte	0xad
 1248 0152 04       		.uleb128 0x4
 1249 0153 B0060000 		.4byte	.LASF30
 1250 0157 07       		.byte	0x7
 1251 0158 3F       		.byte	0x3f
 1252 0159 5D010000 		.4byte	0x15d
 1253 015d 05       		.uleb128 0x5
 1254 015e C4030000 		.4byte	.LASF49
ARM GAS  /tmp/cc7TrS54.s 			page 23


 1255 0162 60       		.byte	0x60
 1256 0163 08       		.byte	0x8
 1257 0164 9A       		.byte	0x9a
 1258 0165 48020000 		.4byte	0x248
 1259 0169 06       		.uleb128 0x6
 1260 016a 96030000 		.4byte	.LASF31
 1261 016e 08       		.byte	0x8
 1262 016f 9B       		.byte	0x9b
 1263 0170 7D020000 		.4byte	0x27d
 1264 0174 00       		.byte	0
 1265 0175 06       		.uleb128 0x6
 1266 0176 56050000 		.4byte	.LASF32
 1267 017a 08       		.byte	0x8
 1268 017b 9C       		.byte	0x9c
 1269 017c FA000000 		.4byte	0xfa
 1270 0180 08       		.byte	0x8
 1271 0181 07       		.uleb128 0x7
 1272 0182 63747800 		.ascii	"ctx\000"
 1273 0186 08       		.byte	0x8
 1274 0187 9D       		.byte	0x9d
 1275 0188 82040000 		.4byte	0x482
 1276 018c 0C       		.byte	0xc
 1277 018d 06       		.uleb128 0x6
 1278 018e 9F040000 		.4byte	.LASF33
 1279 0192 08       		.byte	0x8
 1280 0193 9F       		.byte	0x9f
 1281 0194 53020000 		.4byte	0x253
 1282 0198 10       		.byte	0x10
 1283 0199 06       		.uleb128 0x6
 1284 019a AA060000 		.4byte	.LASF34
 1285 019e 08       		.byte	0x8
 1286 019f A0       		.byte	0xa0
 1287 01a0 53020000 		.4byte	0x253
 1288 01a4 14       		.byte	0x14
 1289 01a5 06       		.uleb128 0x6
 1290 01a6 F6030000 		.4byte	.LASF35
 1291 01aa 08       		.byte	0x8
 1292 01ab A7       		.byte	0xa7
 1293 01ac 69070000 		.4byte	0x769
 1294 01b0 18       		.byte	0x18
 1295 01b1 06       		.uleb128 0x6
 1296 01b2 9E060000 		.4byte	.LASF36
 1297 01b6 08       		.byte	0x8
 1298 01b7 B0       		.byte	0xb0
 1299 01b8 7B070000 		.4byte	0x77b
 1300 01bc 1C       		.byte	0x1c
 1301 01bd 06       		.uleb128 0x6
 1302 01be 8C010000 		.4byte	.LASF37
 1303 01c2 08       		.byte	0x8
 1304 01c3 B5       		.byte	0xb5
 1305 01c4 E4000000 		.4byte	0xe4
 1306 01c8 20       		.byte	0x20
 1307 01c9 06       		.uleb128 0x6
 1308 01ca 41070000 		.4byte	.LASF38
 1309 01ce 08       		.byte	0x8
 1310 01cf B9       		.byte	0xb9
 1311 01d0 D9000000 		.4byte	0xd9
ARM GAS  /tmp/cc7TrS54.s 			page 24


 1312 01d4 21       		.byte	0x21
 1313 01d5 06       		.uleb128 0x6
 1314 01d6 8A050000 		.4byte	.LASF39
 1315 01da 08       		.byte	0x8
 1316 01db BE       		.byte	0xbe
 1317 01dc EF000000 		.4byte	0xef
 1318 01e0 22       		.byte	0x22
 1319 01e1 08       		.uleb128 0x8
 1320 01e2 7500     		.ascii	"u\000"
 1321 01e4 08       		.byte	0x8
 1322 01e5 0F01     		.2byte	0x10f
 1323 01e7 9E060000 		.4byte	0x69e
 1324 01eb 24       		.byte	0x24
 1325 01ec 09       		.uleb128 0x9
 1326 01ed 35020000 		.4byte	.LASF40
 1327 01f1 08       		.byte	0x8
 1328 01f2 1401     		.2byte	0x114
 1329 01f4 59020000 		.4byte	0x259
 1330 01f8 28       		.byte	0x28
 1331 01f9 09       		.uleb128 0x9
 1332 01fa 83010000 		.4byte	.LASF41
 1333 01fe 08       		.byte	0x8
 1334 01ff 1A01     		.2byte	0x11a
 1335 0201 7D020000 		.4byte	0x27d
 1336 0205 2C       		.byte	0x2c
 1337 0206 09       		.uleb128 0x9
 1338 0207 ED030000 		.4byte	.LASF42
 1339 020b 08       		.byte	0x8
 1340 020c 2001     		.2byte	0x120
 1341 020e 1B010000 		.4byte	0x11b
 1342 0212 34       		.byte	0x34
 1343 0213 09       		.uleb128 0x9
 1344 0214 B1070000 		.4byte	.LASF43
 1345 0218 08       		.byte	0x8
 1346 0219 2701     		.2byte	0x127
 1347 021b 63070000 		.4byte	0x763
 1348 021f 38       		.byte	0x38
 1349 0220 09       		.uleb128 0x9
 1350 0221 B6040000 		.4byte	.LASF44
 1351 0225 08       		.byte	0x8
 1352 0226 2B01     		.2byte	0x12b
 1353 0228 FA000000 		.4byte	0xfa
 1354 022c 3C       		.byte	0x3c
 1355 022d 09       		.uleb128 0x9
 1356 022e 9C030000 		.4byte	.LASF45
 1357 0232 08       		.byte	0x8
 1358 0233 3201     		.2byte	0x132
 1359 0235 30030000 		.4byte	0x330
 1360 0239 40       		.byte	0x40
 1361 023a 09       		.uleb128 0x9
 1362 023b AD010000 		.4byte	.LASF46
 1363 023f 08       		.byte	0x8
 1364 0240 3801     		.2byte	0x138
 1365 0242 4F060000 		.4byte	0x64f
 1366 0246 48       		.byte	0x48
 1367 0247 00       		.byte	0
 1368 0248 04       		.uleb128 0x4
ARM GAS  /tmp/cc7TrS54.s 			page 25


 1369 0249 E5040000 		.4byte	.LASF47
 1370 024d 07       		.byte	0x7
 1371 024e 44       		.byte	0x44
 1372 024f 53020000 		.4byte	0x253
 1373 0253 0A       		.uleb128 0xa
 1374 0254 04       		.byte	0x4
 1375 0255 52010000 		.4byte	0x152
 1376 0259 04       		.uleb128 0x4
 1377 025a 80070000 		.4byte	.LASF48
 1378 025e 07       		.byte	0x7
 1379 025f 49       		.byte	0x49
 1380 0260 64020000 		.4byte	0x264
 1381 0264 05       		.uleb128 0x5
 1382 0265 76060000 		.4byte	.LASF50
 1383 0269 04       		.byte	0x4
 1384 026a 08       		.byte	0x8
 1385 026b 88       		.byte	0x88
 1386 026c 7D020000 		.4byte	0x27d
 1387 0270 06       		.uleb128 0x6
 1388 0271 05010000 		.4byte	.LASF51
 1389 0275 08       		.byte	0x8
 1390 0276 89       		.byte	0x89
 1391 0277 53020000 		.4byte	0x253
 1392 027b 00       		.byte	0
 1393 027c 00       		.byte	0
 1394 027d 04       		.uleb128 0x4
 1395 027e 0D070000 		.4byte	.LASF52
 1396 0282 07       		.byte	0x7
 1397 0283 50       		.byte	0x50
 1398 0284 88020000 		.4byte	0x288
 1399 0288 05       		.uleb128 0x5
 1400 0289 51000000 		.4byte	.LASF53
 1401 028d 08       		.byte	0x8
 1402 028e 08       		.byte	0x8
 1403 028f 8F       		.byte	0x8f
 1404 0290 AD020000 		.4byte	0x2ad
 1405 0294 06       		.uleb128 0x6
 1406 0295 05010000 		.4byte	.LASF51
 1407 0299 08       		.byte	0x8
 1408 029a 90       		.byte	0x90
 1409 029b 53020000 		.4byte	0x253
 1410 029f 00       		.byte	0
 1411 02a0 06       		.uleb128 0x6
 1412 02a1 40000000 		.4byte	.LASF54
 1413 02a5 08       		.byte	0x8
 1414 02a6 91       		.byte	0x91
 1415 02a7 53020000 		.4byte	0x253
 1416 02ab 04       		.byte	0x4
 1417 02ac 00       		.byte	0
 1418 02ad 04       		.uleb128 0x4
 1419 02ae 00000000 		.4byte	.LASF55
 1420 02b2 07       		.byte	0x7
 1421 02b3 57       		.byte	0x57
 1422 02b4 B8020000 		.4byte	0x2b8
 1423 02b8 0B       		.uleb128 0xb
 1424 02b9 45040000 		.4byte	.LASF56
 1425 02bd 1C       		.byte	0x1c
ARM GAS  /tmp/cc7TrS54.s 			page 26


 1426 02be 08       		.byte	0x8
 1427 02bf 6A01     		.2byte	0x16a
 1428 02c1 14030000 		.4byte	0x314
 1429 02c5 09       		.uleb128 0x9
 1430 02c6 96030000 		.4byte	.LASF31
 1431 02ca 08       		.byte	0x8
 1432 02cb 6B01     		.2byte	0x16b
 1433 02cd 7D020000 		.4byte	0x27d
 1434 02d1 00       		.byte	0
 1435 02d2 09       		.uleb128 0x9
 1436 02d3 56050000 		.4byte	.LASF32
 1437 02d7 08       		.byte	0x8
 1438 02d8 6C01     		.2byte	0x16c
 1439 02da FA000000 		.4byte	0xfa
 1440 02de 08       		.byte	0x8
 1441 02df 08       		.uleb128 0x8
 1442 02e0 63747800 		.ascii	"ctx\000"
 1443 02e4 08       		.byte	0x8
 1444 02e5 6E01     		.2byte	0x16e
 1445 02e7 82040000 		.4byte	0x482
 1446 02eb 0C       		.byte	0xc
 1447 02ec 09       		.uleb128 0x9
 1448 02ed 9F040000 		.4byte	.LASF33
 1449 02f1 08       		.byte	0x8
 1450 02f2 7101     		.2byte	0x171
 1451 02f4 53020000 		.4byte	0x253
 1452 02f8 10       		.byte	0x10
 1453 02f9 09       		.uleb128 0x9
 1454 02fa AA060000 		.4byte	.LASF34
 1455 02fe 08       		.byte	0x8
 1456 02ff 7201     		.2byte	0x172
 1457 0301 53020000 		.4byte	0x253
 1458 0305 14       		.byte	0x14
 1459 0306 09       		.uleb128 0x9
 1460 0307 5B050000 		.4byte	.LASF57
 1461 030b 08       		.byte	0x8
 1462 030c 7501     		.2byte	0x175
 1463 030e 53020000 		.4byte	0x253
 1464 0312 18       		.byte	0x18
 1465 0313 00       		.byte	0
 1466 0314 04       		.uleb128 0x4
 1467 0315 DD060000 		.4byte	.LASF58
 1468 0319 07       		.byte	0x7
 1469 031a 5C       		.byte	0x5c
 1470 031b 1F030000 		.4byte	0x31f
 1471 031f 0A       		.uleb128 0xa
 1472 0320 04       		.byte	0x4
 1473 0321 25030000 		.4byte	0x325
 1474 0325 0C       		.uleb128 0xc
 1475 0326 30030000 		.4byte	0x330
 1476 032a 0D       		.uleb128 0xd
 1477 032b 30030000 		.4byte	0x330
 1478 032f 00       		.byte	0
 1479 0330 0E       		.uleb128 0xe
 1480 0331 04       		.byte	0x4
 1481 0332 04       		.uleb128 0x4
 1482 0333 8F050000 		.4byte	.LASF59
ARM GAS  /tmp/cc7TrS54.s 			page 27


 1483 0337 07       		.byte	0x7
 1484 0338 61       		.byte	0x61
 1485 0339 3D030000 		.4byte	0x33d
 1486 033d 0B       		.uleb128 0xb
 1487 033e 27060000 		.4byte	.LASF60
 1488 0342 14       		.byte	0x14
 1489 0343 08       		.byte	0x8
 1490 0344 4501     		.2byte	0x145
 1491 0346 8C030000 		.4byte	0x38c
 1492 034a 09       		.uleb128 0x9
 1493 034b 05010000 		.4byte	.LASF51
 1494 034f 08       		.byte	0x8
 1495 0350 4601     		.2byte	0x146
 1496 0352 81070000 		.4byte	0x781
 1497 0356 00       		.byte	0
 1498 0357 09       		.uleb128 0x9
 1499 0358 40000000 		.4byte	.LASF54
 1500 035c 08       		.byte	0x8
 1501 035d 4701     		.2byte	0x147
 1502 035f 81070000 		.4byte	0x781
 1503 0363 04       		.byte	0x4
 1504 0364 09       		.uleb128 0x9
 1505 0365 13000000 		.4byte	.LASF61
 1506 0369 08       		.byte	0x8
 1507 036a 4801     		.2byte	0x148
 1508 036c 47010000 		.4byte	0x147
 1509 0370 08       		.byte	0x8
 1510 0371 09       		.uleb128 0x9
 1511 0372 9B010000 		.4byte	.LASF62
 1512 0376 08       		.byte	0x8
 1513 0377 4901     		.2byte	0x149
 1514 0379 14030000 		.4byte	0x314
 1515 037d 0C       		.byte	0xc
 1516 037e 08       		.uleb128 0x8
 1517 037f 70617200 		.ascii	"par\000"
 1518 0383 08       		.byte	0x8
 1519 0384 4B01     		.2byte	0x14b
 1520 0386 30030000 		.4byte	0x330
 1521 038a 10       		.byte	0x10
 1522 038b 00       		.byte	0
 1523 038c 04       		.uleb128 0x4
 1524 038d E2000000 		.4byte	.LASF63
 1525 0391 07       		.byte	0x7
 1526 0392 66       		.byte	0x66
 1527 0393 97030000 		.4byte	0x397
 1528 0397 0B       		.uleb128 0xb
 1529 0398 01050000 		.4byte	.LASF64
 1530 039c 10       		.byte	0x10
 1531 039d 08       		.byte	0x8
 1532 039e 5501     		.2byte	0x155
 1533 03a0 D9030000 		.4byte	0x3d9
 1534 03a4 09       		.uleb128 0x9
 1535 03a5 05010000 		.4byte	.LASF51
 1536 03a9 08       		.byte	0x8
 1537 03aa 5601     		.2byte	0x156
 1538 03ac 81070000 		.4byte	0x781
 1539 03b0 00       		.byte	0
ARM GAS  /tmp/cc7TrS54.s 			page 28


 1540 03b1 09       		.uleb128 0x9
 1541 03b2 40000000 		.4byte	.LASF54
 1542 03b6 08       		.byte	0x8
 1543 03b7 5801     		.2byte	0x158
 1544 03b9 81070000 		.4byte	0x781
 1545 03bd 04       		.byte	0x4
 1546 03be 09       		.uleb128 0x9
 1547 03bf 13000000 		.4byte	.LASF61
 1548 03c3 08       		.byte	0x8
 1549 03c4 5A01     		.2byte	0x15a
 1550 03c6 47010000 		.4byte	0x147
 1551 03ca 08       		.byte	0x8
 1552 03cb 09       		.uleb128 0x9
 1553 03cc E3050000 		.4byte	.LASF65
 1554 03d0 08       		.byte	0x8
 1555 03d1 6201     		.2byte	0x162
 1556 03d3 47010000 		.4byte	0x147
 1557 03d7 0C       		.byte	0xc
 1558 03d8 00       		.byte	0
 1559 03d9 04       		.uleb128 0x4
 1560 03da 62000000 		.4byte	.LASF66
 1561 03de 07       		.byte	0x7
 1562 03df 6B       		.byte	0x6b
 1563 03e0 E4030000 		.4byte	0x3e4
 1564 03e4 0B       		.uleb128 0xb
 1565 03e5 25020000 		.4byte	.LASF67
 1566 03e9 04       		.byte	0x4
 1567 03ea 08       		.byte	0x8
 1568 03eb 7C01     		.2byte	0x17c
 1569 03ed FF030000 		.4byte	0x3ff
 1570 03f1 09       		.uleb128 0x9
 1571 03f2 F4060000 		.4byte	.LASF68
 1572 03f6 08       		.byte	0x8
 1573 03f7 8401     		.2byte	0x184
 1574 03f9 87070000 		.4byte	0x787
 1575 03fd 00       		.byte	0
 1576 03fe 00       		.byte	0
 1577 03ff 04       		.uleb128 0x4
 1578 0400 0B040000 		.4byte	.LASF69
 1579 0404 07       		.byte	0x7
 1580 0405 70       		.byte	0x70
 1581 0406 0A040000 		.4byte	0x40a
 1582 040a 0B       		.uleb128 0xb
 1583 040b 0A060000 		.4byte	.LASF70
 1584 040f D0       		.byte	0xd0
 1585 0410 08       		.byte	0x8
 1586 0411 9C01     		.2byte	0x19c
 1587 0413 65040000 		.4byte	0x465
 1588 0417 09       		.uleb128 0x9
 1589 0418 26070000 		.4byte	.LASF71
 1590 041c 08       		.byte	0x8
 1591 041d A001     		.2byte	0x1a0
 1592 041f AD020000 		.4byte	0x2ad
 1593 0423 00       		.byte	0
 1594 0424 09       		.uleb128 0x9
 1595 0425 41010000 		.4byte	.LASF72
 1596 0429 08       		.byte	0x8
ARM GAS  /tmp/cc7TrS54.s 			page 29


 1597 042a A401     		.2byte	0x1a4
 1598 042c 8C030000 		.4byte	0x38c
 1599 0430 1C       		.byte	0x1c
 1600 0431 08       		.uleb128 0x8
 1601 0432 64626700 		.ascii	"dbg\000"
 1602 0436 08       		.byte	0x8
 1603 0437 A801     		.2byte	0x1a8
 1604 0439 D9030000 		.4byte	0x3d9
 1605 043d 2C       		.byte	0x2c
 1606 043e 09       		.uleb128 0x9
 1607 043f CF000000 		.4byte	.LASF73
 1608 0443 08       		.byte	0x8
 1609 0444 AC01     		.2byte	0x1ac
 1610 0446 52010000 		.4byte	0x152
 1611 044a 30       		.byte	0x30
 1612 044b 08       		.uleb128 0x8
 1613 044c 746D00   		.ascii	"tm\000"
 1614 044f 08       		.byte	0x8
 1615 0450 B101     		.2byte	0x1b1
 1616 0452 01060000 		.4byte	0x601
 1617 0456 90       		.byte	0x90
 1618 0457 09       		.uleb128 0x9
 1619 0458 29000000 		.4byte	.LASF74
 1620 045c 08       		.byte	0x8
 1621 045d B701     		.2byte	0x1b7
 1622 045f 93060000 		.4byte	0x693
 1623 0463 98       		.byte	0x98
 1624 0464 00       		.byte	0
 1625 0465 03       		.uleb128 0x3
 1626 0466 04       		.byte	0x4
 1627 0467 07       		.byte	0x7
 1628 0468 DC040000 		.4byte	.LASF75
 1629 046c 04       		.uleb128 0x4
 1630 046d 08020000 		.4byte	.LASF76
 1631 0471 09       		.byte	0x9
 1632 0472 65       		.byte	0x65
 1633 0473 30030000 		.4byte	0x330
 1634 0477 04       		.uleb128 0x4
 1635 0478 94040000 		.4byte	.LASF77
 1636 047c 09       		.byte	0x9
 1637 047d 6D       		.byte	0x6d
 1638 047e B8000000 		.4byte	0xb8
 1639 0482 05       		.uleb128 0x5
 1640 0483 26050000 		.4byte	.LASF78
 1641 0487 04       		.byte	0x4
 1642 0488 09       		.byte	0x9
 1643 0489 89       		.byte	0x89
 1644 048a 9A040000 		.4byte	0x49a
 1645 048e 07       		.uleb128 0x7
 1646 048f 737000   		.ascii	"sp\000"
 1647 0492 09       		.byte	0x9
 1648 0493 8A       		.byte	0x8a
 1649 0494 E6050000 		.4byte	0x5e6
 1650 0498 00       		.byte	0
 1651 0499 00       		.byte	0
 1652 049a 0B       		.uleb128 0xb
 1653 049b 45000000 		.4byte	.LASF79
ARM GAS  /tmp/cc7TrS54.s 			page 30


 1654 049f 64       		.byte	0x64
 1655 04a0 0A       		.byte	0xa
 1656 04a1 5901     		.2byte	0x159
 1657 04a3 E6050000 		.4byte	0x5e6
 1658 04a7 08       		.uleb128 0x8
 1659 04a8 73313600 		.ascii	"s16\000"
 1660 04ac 0A       		.byte	0xa
 1661 04ad 5B01     		.2byte	0x15b
 1662 04af 6C040000 		.4byte	0x46c
 1663 04b3 00       		.byte	0
 1664 04b4 08       		.uleb128 0x8
 1665 04b5 73313700 		.ascii	"s17\000"
 1666 04b9 0A       		.byte	0xa
 1667 04ba 5C01     		.2byte	0x15c
 1668 04bc 6C040000 		.4byte	0x46c
 1669 04c0 04       		.byte	0x4
 1670 04c1 08       		.uleb128 0x8
 1671 04c2 73313800 		.ascii	"s18\000"
 1672 04c6 0A       		.byte	0xa
 1673 04c7 5D01     		.2byte	0x15d
 1674 04c9 6C040000 		.4byte	0x46c
 1675 04cd 08       		.byte	0x8
 1676 04ce 08       		.uleb128 0x8
 1677 04cf 73313900 		.ascii	"s19\000"
 1678 04d3 0A       		.byte	0xa
 1679 04d4 5E01     		.2byte	0x15e
 1680 04d6 6C040000 		.4byte	0x46c
 1681 04da 0C       		.byte	0xc
 1682 04db 08       		.uleb128 0x8
 1683 04dc 73323000 		.ascii	"s20\000"
 1684 04e0 0A       		.byte	0xa
 1685 04e1 5F01     		.2byte	0x15f
 1686 04e3 6C040000 		.4byte	0x46c
 1687 04e7 10       		.byte	0x10
 1688 04e8 08       		.uleb128 0x8
 1689 04e9 73323100 		.ascii	"s21\000"
 1690 04ed 0A       		.byte	0xa
 1691 04ee 6001     		.2byte	0x160
 1692 04f0 6C040000 		.4byte	0x46c
 1693 04f4 14       		.byte	0x14
 1694 04f5 08       		.uleb128 0x8
 1695 04f6 73323200 		.ascii	"s22\000"
 1696 04fa 0A       		.byte	0xa
 1697 04fb 6101     		.2byte	0x161
 1698 04fd 6C040000 		.4byte	0x46c
 1699 0501 18       		.byte	0x18
 1700 0502 08       		.uleb128 0x8
 1701 0503 73323300 		.ascii	"s23\000"
 1702 0507 0A       		.byte	0xa
 1703 0508 6201     		.2byte	0x162
 1704 050a 6C040000 		.4byte	0x46c
 1705 050e 1C       		.byte	0x1c
 1706 050f 08       		.uleb128 0x8
 1707 0510 73323400 		.ascii	"s24\000"
 1708 0514 0A       		.byte	0xa
 1709 0515 6301     		.2byte	0x163
 1710 0517 6C040000 		.4byte	0x46c
ARM GAS  /tmp/cc7TrS54.s 			page 31


 1711 051b 20       		.byte	0x20
 1712 051c 08       		.uleb128 0x8
 1713 051d 73323500 		.ascii	"s25\000"
 1714 0521 0A       		.byte	0xa
 1715 0522 6401     		.2byte	0x164
 1716 0524 6C040000 		.4byte	0x46c
 1717 0528 24       		.byte	0x24
 1718 0529 08       		.uleb128 0x8
 1719 052a 73323600 		.ascii	"s26\000"
 1720 052e 0A       		.byte	0xa
 1721 052f 6501     		.2byte	0x165
 1722 0531 6C040000 		.4byte	0x46c
 1723 0535 28       		.byte	0x28
 1724 0536 08       		.uleb128 0x8
 1725 0537 73323700 		.ascii	"s27\000"
 1726 053b 0A       		.byte	0xa
 1727 053c 6601     		.2byte	0x166
 1728 053e 6C040000 		.4byte	0x46c
 1729 0542 2C       		.byte	0x2c
 1730 0543 08       		.uleb128 0x8
 1731 0544 73323800 		.ascii	"s28\000"
 1732 0548 0A       		.byte	0xa
 1733 0549 6701     		.2byte	0x167
 1734 054b 6C040000 		.4byte	0x46c
 1735 054f 30       		.byte	0x30
 1736 0550 08       		.uleb128 0x8
 1737 0551 73323900 		.ascii	"s29\000"
 1738 0555 0A       		.byte	0xa
 1739 0556 6801     		.2byte	0x168
 1740 0558 6C040000 		.4byte	0x46c
 1741 055c 34       		.byte	0x34
 1742 055d 08       		.uleb128 0x8
 1743 055e 73333000 		.ascii	"s30\000"
 1744 0562 0A       		.byte	0xa
 1745 0563 6901     		.2byte	0x169
 1746 0565 6C040000 		.4byte	0x46c
 1747 0569 38       		.byte	0x38
 1748 056a 08       		.uleb128 0x8
 1749 056b 73333100 		.ascii	"s31\000"
 1750 056f 0A       		.byte	0xa
 1751 0570 6A01     		.2byte	0x16a
 1752 0572 6C040000 		.4byte	0x46c
 1753 0576 3C       		.byte	0x3c
 1754 0577 08       		.uleb128 0x8
 1755 0578 723400   		.ascii	"r4\000"
 1756 057b 0A       		.byte	0xa
 1757 057c 6C01     		.2byte	0x16c
 1758 057e 6C040000 		.4byte	0x46c
 1759 0582 40       		.byte	0x40
 1760 0583 08       		.uleb128 0x8
 1761 0584 723500   		.ascii	"r5\000"
 1762 0587 0A       		.byte	0xa
 1763 0588 6D01     		.2byte	0x16d
 1764 058a 6C040000 		.4byte	0x46c
 1765 058e 44       		.byte	0x44
 1766 058f 08       		.uleb128 0x8
 1767 0590 723600   		.ascii	"r6\000"
ARM GAS  /tmp/cc7TrS54.s 			page 32


 1768 0593 0A       		.byte	0xa
 1769 0594 6E01     		.2byte	0x16e
 1770 0596 6C040000 		.4byte	0x46c
 1771 059a 48       		.byte	0x48
 1772 059b 08       		.uleb128 0x8
 1773 059c 723700   		.ascii	"r7\000"
 1774 059f 0A       		.byte	0xa
 1775 05a0 6F01     		.2byte	0x16f
 1776 05a2 6C040000 		.4byte	0x46c
 1777 05a6 4C       		.byte	0x4c
 1778 05a7 08       		.uleb128 0x8
 1779 05a8 723800   		.ascii	"r8\000"
 1780 05ab 0A       		.byte	0xa
 1781 05ac 7001     		.2byte	0x170
 1782 05ae 6C040000 		.4byte	0x46c
 1783 05b2 50       		.byte	0x50
 1784 05b3 08       		.uleb128 0x8
 1785 05b4 723900   		.ascii	"r9\000"
 1786 05b7 0A       		.byte	0xa
 1787 05b8 7101     		.2byte	0x171
 1788 05ba 6C040000 		.4byte	0x46c
 1789 05be 54       		.byte	0x54
 1790 05bf 08       		.uleb128 0x8
 1791 05c0 72313000 		.ascii	"r10\000"
 1792 05c4 0A       		.byte	0xa
 1793 05c5 7201     		.2byte	0x172
 1794 05c7 6C040000 		.4byte	0x46c
 1795 05cb 58       		.byte	0x58
 1796 05cc 08       		.uleb128 0x8
 1797 05cd 72313100 		.ascii	"r11\000"
 1798 05d1 0A       		.byte	0xa
 1799 05d2 7301     		.2byte	0x173
 1800 05d4 6C040000 		.4byte	0x46c
 1801 05d8 5C       		.byte	0x5c
 1802 05d9 08       		.uleb128 0x8
 1803 05da 6C7200   		.ascii	"lr\000"
 1804 05dd 0A       		.byte	0xa
 1805 05de 7401     		.2byte	0x174
 1806 05e0 6C040000 		.4byte	0x46c
 1807 05e4 60       		.byte	0x60
 1808 05e5 00       		.byte	0
 1809 05e6 0A       		.uleb128 0xa
 1810 05e7 04       		.byte	0x4
 1811 05e8 9A040000 		.4byte	0x49a
 1812 05ec 0F       		.uleb128 0xf
 1813 05ed 04       		.byte	0x4
 1814 05ee 0B       		.byte	0xb
 1815 05ef 38       		.byte	0x38
 1816 05f0 01060000 		.4byte	0x601
 1817 05f4 06       		.uleb128 0x6
 1818 05f5 FE060000 		.4byte	.LASF80
 1819 05f9 0B       		.byte	0xb
 1820 05fa 3C       		.byte	0x3c
 1821 05fb C3000000 		.4byte	0xc3
 1822 05ff 00       		.byte	0
 1823 0600 00       		.byte	0
 1824 0601 04       		.uleb128 0x4
ARM GAS  /tmp/cc7TrS54.s 			page 33


 1825 0602 33050000 		.4byte	.LASF81
 1826 0606 0B       		.byte	0xb
 1827 0607 3D       		.byte	0x3d
 1828 0608 EC050000 		.4byte	0x5ec
 1829 060c 0F       		.uleb128 0xf
 1830 060d 18       		.byte	0x18
 1831 060e 0B       		.byte	0xb
 1832 060f 48       		.byte	0x48
 1833 0610 4F060000 		.4byte	0x64f
 1834 0614 06       		.uleb128 0x6
 1835 0615 B9060000 		.4byte	.LASF82
 1836 0619 0B       		.byte	0xb
 1837 061a 49       		.byte	0x49
 1838 061b C3000000 		.4byte	0xc3
 1839 061f 00       		.byte	0
 1840 0620 06       		.uleb128 0x6
 1841 0621 87000000 		.4byte	.LASF83
 1842 0625 0B       		.byte	0xb
 1843 0626 4A       		.byte	0x4a
 1844 0627 C3000000 		.4byte	0xc3
 1845 062b 04       		.byte	0x4
 1846 062c 06       		.uleb128 0x6
 1847 062d E1030000 		.4byte	.LASF84
 1848 0631 0B       		.byte	0xb
 1849 0632 4B       		.byte	0x4b
 1850 0633 C3000000 		.4byte	0xc3
 1851 0637 08       		.byte	0x8
 1852 0638 07       		.uleb128 0x7
 1853 0639 6E00     		.ascii	"n\000"
 1854 063b 0B       		.byte	0xb
 1855 063c 4C       		.byte	0x4c
 1856 063d 3C010000 		.4byte	0x13c
 1857 0641 0C       		.byte	0xc
 1858 0642 06       		.uleb128 0x6
 1859 0643 6E050000 		.4byte	.LASF85
 1860 0647 0B       		.byte	0xb
 1861 0648 4D       		.byte	0x4d
 1862 0649 CE000000 		.4byte	0xce
 1863 064d 10       		.byte	0x10
 1864 064e 00       		.byte	0
 1865 064f 04       		.uleb128 0x4
 1866 0650 8D000000 		.4byte	.LASF86
 1867 0654 0B       		.byte	0xb
 1868 0655 4E       		.byte	0x4e
 1869 0656 0C060000 		.4byte	0x60c
 1870 065a 0F       		.uleb128 0xf
 1871 065b 38       		.byte	0x38
 1872 065c 0C       		.byte	0xc
 1873 065d 38       		.byte	0x38
 1874 065e 93060000 		.4byte	0x693
 1875 0662 06       		.uleb128 0x6
 1876 0663 90030000 		.4byte	.LASF87
 1877 0667 0C       		.byte	0xc
 1878 0668 39       		.byte	0x39
 1879 0669 3C010000 		.4byte	0x13c
 1880 066d 00       		.byte	0
 1881 066e 06       		.uleb128 0x6
ARM GAS  /tmp/cc7TrS54.s 			page 34


 1882 066f A7050000 		.4byte	.LASF88
 1883 0673 0C       		.byte	0xc
 1884 0674 3A       		.byte	0x3a
 1885 0675 3C010000 		.4byte	0x13c
 1886 0679 04       		.byte	0x4
 1887 067a 06       		.uleb128 0x6
 1888 067b B9070000 		.4byte	.LASF89
 1889 067f 0C       		.byte	0xc
 1890 0680 3B       		.byte	0x3b
 1891 0681 4F060000 		.4byte	0x64f
 1892 0685 08       		.byte	0x8
 1893 0686 06       		.uleb128 0x6
 1894 0687 3A040000 		.4byte	.LASF90
 1895 068b 0C       		.byte	0xc
 1896 068c 3D       		.byte	0x3d
 1897 068d 4F060000 		.4byte	0x64f
 1898 0691 20       		.byte	0x20
 1899 0692 00       		.byte	0
 1900 0693 04       		.uleb128 0x4
 1901 0694 B5030000 		.4byte	.LASF91
 1902 0698 0C       		.byte	0xc
 1903 0699 3F       		.byte	0x3f
 1904 069a 5A060000 		.4byte	0x65a
 1905 069e 10       		.uleb128 0x10
 1906 069f 04       		.byte	0x4
 1907 06a0 08       		.byte	0x8
 1908 06a1 D2       		.byte	0xd2
 1909 06a2 01070000 		.4byte	0x701
 1910 06a6 11       		.uleb128 0x11
 1911 06a7 19000000 		.4byte	.LASF92
 1912 06ab 08       		.byte	0x8
 1913 06ac D9       		.byte	0xd9
 1914 06ad 05010000 		.4byte	0x105
 1915 06b1 11       		.uleb128 0x11
 1916 06b2 C6000000 		.4byte	.LASF93
 1917 06b6 08       		.byte	0x8
 1918 06b7 E0       		.byte	0xe0
 1919 06b8 05010000 		.4byte	0x105
 1920 06bc 11       		.uleb128 0x11
 1921 06bd 79070000 		.4byte	.LASF94
 1922 06c1 08       		.byte	0x8
 1923 06c2 E7       		.byte	0xe7
 1924 06c3 30030000 		.4byte	0x330
 1925 06c7 11       		.uleb128 0x11
 1926 06c8 0D000000 		.4byte	.LASF95
 1927 06cc 08       		.byte	0x8
 1928 06cd EE       		.byte	0xee
 1929 06ce 01070000 		.4byte	0x701
 1930 06d2 11       		.uleb128 0x11
 1931 06d3 DA000000 		.4byte	.LASF96
 1932 06d7 08       		.byte	0x8
 1933 06d8 F3       		.byte	0xf3
 1934 06d9 05010000 		.4byte	0x105
 1935 06dd 11       		.uleb128 0x11
 1936 06de 72030000 		.4byte	.LASF97
 1937 06e2 08       		.byte	0x8
 1938 06e3 FC       		.byte	0xfc
ARM GAS  /tmp/cc7TrS54.s 			page 35


 1939 06e4 2C070000 		.4byte	0x72c
 1940 06e8 12       		.uleb128 0x12
 1941 06e9 63060000 		.4byte	.LASF98
 1942 06ed 08       		.byte	0x8
 1943 06ee 0501     		.2byte	0x105
 1944 06f0 63070000 		.4byte	0x763
 1945 06f4 12       		.uleb128 0x12
 1946 06f5 03060000 		.4byte	.LASF99
 1947 06f9 08       		.byte	0x8
 1948 06fa 0D01     		.2byte	0x10d
 1949 06fc 1B010000 		.4byte	0x11b
 1950 0700 00       		.byte	0
 1951 0701 0A       		.uleb128 0xa
 1952 0702 04       		.byte	0x4
 1953 0703 48020000 		.4byte	0x248
 1954 0707 05       		.uleb128 0x5
 1955 0708 38060000 		.4byte	.LASF100
 1956 070c 0C       		.byte	0xc
 1957 070d 0D       		.byte	0xd
 1958 070e 34       		.byte	0x34
 1959 070f 2C070000 		.4byte	0x72c
 1960 0713 06       		.uleb128 0x6
 1961 0714 96030000 		.4byte	.LASF31
 1962 0718 0D       		.byte	0xd
 1963 0719 35       		.byte	0x35
 1964 071a 7D020000 		.4byte	0x27d
 1965 071e 00       		.byte	0
 1966 071f 07       		.uleb128 0x7
 1967 0720 636E7400 		.ascii	"cnt\000"
 1968 0724 0D       		.byte	0xd
 1969 0725 37       		.byte	0x37
 1970 0726 31010000 		.4byte	0x131
 1971 072a 08       		.byte	0x8
 1972 072b 00       		.byte	0
 1973 072c 0A       		.uleb128 0xa
 1974 072d 04       		.byte	0x4
 1975 072e 07070000 		.4byte	0x707
 1976 0732 05       		.uleb128 0x5
 1977 0733 1D070000 		.4byte	.LASF101
 1978 0737 10       		.byte	0x10
 1979 0738 0E       		.byte	0xe
 1980 0739 39       		.byte	0x39
 1981 073a 63070000 		.4byte	0x763
 1982 073e 06       		.uleb128 0x6
 1983 073f 96030000 		.4byte	.LASF31
 1984 0743 0E       		.byte	0xe
 1985 0744 3A       		.byte	0x3a
 1986 0745 7D020000 		.4byte	0x27d
 1987 0749 00       		.byte	0
 1988 074a 06       		.uleb128 0x6
 1989 074b 86060000 		.4byte	.LASF102
 1990 074f 0E       		.byte	0xe
 1991 0750 3C       		.byte	0x3c
 1992 0751 53020000 		.4byte	0x253
 1993 0755 08       		.byte	0x8
 1994 0756 06       		.uleb128 0x6
 1995 0757 05010000 		.4byte	.LASF51
ARM GAS  /tmp/cc7TrS54.s 			page 36


 1996 075b 0E       		.byte	0xe
 1997 075c 3E       		.byte	0x3e
 1998 075d 97070000 		.4byte	0x797
 1999 0761 0C       		.byte	0xc
 2000 0762 00       		.byte	0
 2001 0763 0A       		.uleb128 0xa
 2002 0764 04       		.byte	0x4
 2003 0765 32070000 		.4byte	0x732
 2004 0769 0A       		.uleb128 0xa
 2005 076a 04       		.byte	0x4
 2006 076b 6F070000 		.4byte	0x76f
 2007 076f 13       		.uleb128 0x13
 2008 0770 74070000 		.4byte	0x774
 2009 0774 03       		.uleb128 0x3
 2010 0775 01       		.byte	0x1
 2011 0776 08       		.byte	0x8
 2012 0777 A5060000 		.4byte	.LASF103
 2013 077b 0A       		.uleb128 0xa
 2014 077c 04       		.byte	0x4
 2015 077d 77040000 		.4byte	0x477
 2016 0781 0A       		.uleb128 0xa
 2017 0782 04       		.byte	0x4
 2018 0783 32030000 		.4byte	0x332
 2019 0787 14       		.uleb128 0x14
 2020 0788 69070000 		.4byte	0x769
 2021 078c 04       		.uleb128 0x4
 2022 078d 47020000 		.4byte	.LASF104
 2023 0791 0E       		.byte	0xe
 2024 0792 34       		.byte	0x34
 2025 0793 32070000 		.4byte	0x732
 2026 0797 0A       		.uleb128 0xa
 2027 0798 04       		.byte	0x4
 2028 0799 8C070000 		.4byte	0x78c
 2029 079d 04       		.uleb128 0x4
 2030 079e A5040000 		.4byte	.LASF105
 2031 07a2 0F       		.byte	0xf
 2032 07a3 34       		.byte	0x34
 2033 07a4 A8070000 		.4byte	0x7a8
 2034 07a8 05       		.uleb128 0x5
 2035 07a9 C4070000 		.4byte	.LASF106
 2036 07ad 14       		.byte	0x14
 2037 07ae 0F       		.byte	0xf
 2038 07af 39       		.byte	0x39
 2039 07b0 F1070000 		.4byte	0x7f1
 2040 07b4 06       		.uleb128 0x6
 2041 07b5 05010000 		.4byte	.LASF51
 2042 07b9 0F       		.byte	0xf
 2043 07ba 3A       		.byte	0x3a
 2044 07bb F1070000 		.4byte	0x7f1
 2045 07bf 00       		.byte	0
 2046 07c0 06       		.uleb128 0x6
 2047 07c1 F8040000 		.4byte	.LASF107
 2048 07c5 0F       		.byte	0xf
 2049 07c6 3D       		.byte	0x3d
 2050 07c7 53020000 		.4byte	0x253
 2051 07cb 04       		.byte	0x4
 2052 07cc 06       		.uleb128 0x6
ARM GAS  /tmp/cc7TrS54.s 			page 37


 2053 07cd 53060000 		.4byte	.LASF108
 2054 07d1 0F       		.byte	0xf
 2055 07d2 3F       		.byte	0x3f
 2056 07d3 1B010000 		.4byte	0x11b
 2057 07d7 08       		.byte	0x8
 2058 07d8 06       		.uleb128 0x6
 2059 07d9 41070000 		.4byte	.LASF38
 2060 07dd 0F       		.byte	0xf
 2061 07de 41       		.byte	0x41
 2062 07df 26010000 		.4byte	0x126
 2063 07e3 0C       		.byte	0xc
 2064 07e4 06       		.uleb128 0x6
 2065 07e5 E5010000 		.4byte	.LASF109
 2066 07e9 0F       		.byte	0xf
 2067 07ea 43       		.byte	0x43
 2068 07eb 26010000 		.4byte	0x126
 2069 07ef 10       		.byte	0x10
 2070 07f0 00       		.byte	0
 2071 07f1 0A       		.uleb128 0xa
 2072 07f2 04       		.byte	0x4
 2073 07f3 9D070000 		.4byte	0x79d
 2074 07f7 05       		.uleb128 0x5
 2075 07f8 2C070000 		.4byte	.LASF110
 2076 07fc 04       		.byte	0x4
 2077 07fd 0F       		.byte	0xf
 2078 07fe 4A       		.byte	0x4a
 2079 07ff 10080000 		.4byte	0x810
 2080 0803 06       		.uleb128 0x6
 2081 0804 05010000 		.4byte	.LASF51
 2082 0808 0F       		.byte	0xf
 2083 0809 4B       		.byte	0x4b
 2084 080a F1070000 		.4byte	0x7f1
 2085 080e 00       		.byte	0
 2086 080f 00       		.byte	0
 2087 0810 04       		.uleb128 0x4
 2088 0811 55020000 		.4byte	.LASF111
 2089 0815 0F       		.byte	0xf
 2090 0816 4E       		.byte	0x4e
 2091 0817 F7070000 		.4byte	0x7f7
 2092 081b 04       		.uleb128 0x4
 2093 081c 64020000 		.4byte	.LASF112
 2094 0820 0F       		.byte	0xf
 2095 0821 53       		.byte	0x53
 2096 0822 26080000 		.4byte	0x826
 2097 0826 0A       		.uleb128 0xa
 2098 0827 04       		.byte	0x4
 2099 0828 2C080000 		.4byte	0x82c
 2100 082c 0C       		.uleb128 0xc
 2101 082d 37080000 		.4byte	0x837
 2102 0831 0D       		.uleb128 0xd
 2103 0832 10010000 		.4byte	0x110
 2104 0836 00       		.byte	0
 2105 0837 03       		.uleb128 0x3
 2106 0838 01       		.byte	0x1
 2107 0839 02       		.byte	0x2
 2108 083a B0050000 		.4byte	.LASF113
 2109 083e 15       		.uleb128 0x15
ARM GAS  /tmp/cc7TrS54.s 			page 38


 2110 083f E6060000 		.4byte	.LASF147
 2111 0843 02       		.byte	0x2
 2112 0844 0601     		.2byte	0x106
 2113 0846 03       		.byte	0x3
 2114 0847 58080000 		.4byte	0x858
 2115 084b 16       		.uleb128 0x16
 2116 084c 4F020000 		.4byte	.LASF148
 2117 0850 02       		.byte	0x2
 2118 0851 0601     		.2byte	0x106
 2119 0853 AD000000 		.4byte	0xad
 2120 0857 00       		.byte	0
 2121 0858 17       		.uleb128 0x17
 2122 0859 7D000000 		.4byte	.LASF114
 2123 085d 0A       		.byte	0xa
 2124 085e 5202     		.2byte	0x252
 2125 0860 03       		.byte	0x3
 2126 0861 17       		.uleb128 0x17
 2127 0862 77010000 		.4byte	.LASF115
 2128 0866 0A       		.byte	0xa
 2129 0867 6A02     		.2byte	0x26a
 2130 0869 03       		.byte	0x3
 2131 086a 18       		.uleb128 0x18
 2132 086b 1D060000 		.4byte	.LASF116
 2133 086f 01       		.byte	0x1
 2134 0870 7601     		.2byte	0x176
 2135 0872 00000000 		.4byte	.LFB167
 2136 0876 0A000000 		.4byte	.LFE167-.LFB167
 2137 087a 01       		.uleb128 0x1
 2138 087b 9C       		.byte	0x9c
 2139 087c B6080000 		.4byte	0x8b6
 2140 0880 19       		.uleb128 0x19
 2141 0881 58080000 		.4byte	0x858
 2142 0885 00000000 		.4byte	.LBB14
 2143 0889 06000000 		.4byte	.LBE14-.LBB14
 2144 088d 01       		.byte	0x1
 2145 088e 7801     		.2byte	0x178
 2146 0890 AC080000 		.4byte	0x8ac
 2147 0894 1A       		.uleb128 0x1a
 2148 0895 3E080000 		.4byte	0x83e
 2149 0899 00000000 		.4byte	.LBB15
 2150 089d 06000000 		.4byte	.LBE15-.LBB15
 2151 08a1 0A       		.byte	0xa
 2152 08a2 5A02     		.2byte	0x25a
 2153 08a4 1B       		.uleb128 0x1b
 2154 08a5 4B080000 		.4byte	0x84b
 2155 08a9 20       		.byte	0x20
 2156 08aa 00       		.byte	0
 2157 08ab 00       		.byte	0
 2158 08ac 1C       		.uleb128 0x1c
 2159 08ad 0A000000 		.4byte	.LVL1
 2160 08b1 3C100000 		.4byte	0x103c
 2161 08b5 00       		.byte	0
 2162 08b6 18       		.uleb128 0x18
 2163 08b7 A5070000 		.4byte	.LASF117
 2164 08bb 01       		.byte	0x1
 2165 08bc 8201     		.2byte	0x182
 2166 08be 00000000 		.4byte	.LFB168
ARM GAS  /tmp/cc7TrS54.s 			page 39


 2167 08c2 0E000000 		.4byte	.LFE168-.LFB168
 2168 08c6 01       		.uleb128 0x1
 2169 08c7 9C       		.byte	0x9c
 2170 08c8 0B090000 		.4byte	0x90b
 2171 08cc 1D       		.uleb128 0x1d
 2172 08cd 14060000 		.4byte	.LASF118
 2173 08d1 1B090000 		.4byte	0x91b
 2174 08d5 19       		.uleb128 0x19
 2175 08d6 61080000 		.4byte	0x861
 2176 08da 06000000 		.4byte	.LBB17
 2177 08de 08000000 		.4byte	.LBE17-.LBB17
 2178 08e2 01       		.byte	0x1
 2179 08e3 8F01     		.2byte	0x18f
 2180 08e5 01090000 		.4byte	0x901
 2181 08e9 1A       		.uleb128 0x1a
 2182 08ea 3E080000 		.4byte	0x83e
 2183 08ee 06000000 		.4byte	.LBB18
 2184 08f2 08000000 		.4byte	.LBE18-.LBB18
 2185 08f6 0A       		.byte	0xa
 2186 08f7 6D02     		.2byte	0x26d
 2187 08f9 1B       		.uleb128 0x1b
 2188 08fa 4B080000 		.4byte	0x84b
 2189 08fe 00       		.byte	0
 2190 08ff 00       		.byte	0
 2191 0900 00       		.byte	0
 2192 0901 1E       		.uleb128 0x1e
 2193 0902 06000000 		.4byte	.LVL2
 2194 0906 43100000 		.4byte	0x1043
 2195 090a 00       		.byte	0
 2196 090b 1F       		.uleb128 0x1f
 2197 090c 74070000 		.4byte	0x774
 2198 0910 1B090000 		.4byte	0x91b
 2199 0914 20       		.uleb128 0x20
 2200 0915 65040000 		.4byte	0x465
 2201 0919 0B       		.byte	0xb
 2202 091a 00       		.byte	0
 2203 091b 13       		.uleb128 0x13
 2204 091c 0B090000 		.4byte	0x90b
 2205 0920 21       		.uleb128 0x21
 2206 0921 17040000 		.4byte	.LASF119
 2207 0925 03       		.byte	0x3
 2208 0926 67       		.byte	0x67
 2209 0927 00000000 		.4byte	.LFB246
 2210 092b 30000000 		.4byte	.LFE246-.LFB246
 2211 092f 01       		.uleb128 0x1
 2212 0930 9C       		.byte	0x9c
 2213 0931 8D090000 		.4byte	0x98d
 2214 0935 22       		.uleb128 0x22
 2215 0936 65737000 		.ascii	"esp\000"
 2216 093a 03       		.byte	0x3
 2217 093b 67       		.byte	0x67
 2218 093c 8D090000 		.4byte	0x98d
 2219 0940 00000000 		.4byte	.LLST0
 2220 0944 22       		.uleb128 0x22
 2221 0945 656C7000 		.ascii	"elp\000"
 2222 0949 03       		.byte	0x3
 2223 094a 68       		.byte	0x68
ARM GAS  /tmp/cc7TrS54.s 			page 40


 2224 094b F1070000 		.4byte	0x7f1
 2225 094f 2C000000 		.4byte	.LLST1
 2226 0953 23       		.uleb128 0x23
 2227 0954 53060000 		.4byte	.LASF108
 2228 0958 03       		.byte	0x3
 2229 0959 69       		.byte	0x69
 2230 095a 1B010000 		.4byte	0x11b
 2231 095e 65000000 		.4byte	.LLST2
 2232 0962 23       		.uleb128 0x23
 2233 0963 E5010000 		.4byte	.LASF109
 2234 0967 03       		.byte	0x3
 2235 0968 6A       		.byte	0x6a
 2236 0969 26010000 		.4byte	0x126
 2237 096d A1000000 		.4byte	.LLST3
 2238 0971 1D       		.uleb128 0x1d
 2239 0972 14060000 		.4byte	.LASF118
 2240 0976 A3090000 		.4byte	0x9a3
 2241 097a 1E       		.uleb128 0x1e
 2242 097b 0E000000 		.4byte	.LVL4
 2243 097f 6A080000 		.4byte	0x86a
 2244 0983 1C       		.uleb128 0x1c
 2245 0984 2A000000 		.4byte	.LVL6
 2246 0988 B6080000 		.4byte	0x8b6
 2247 098c 00       		.byte	0
 2248 098d 0A       		.uleb128 0xa
 2249 098e 04       		.byte	0x4
 2250 098f 10080000 		.4byte	0x810
 2251 0993 1F       		.uleb128 0x1f
 2252 0994 74070000 		.4byte	0x774
 2253 0998 A3090000 		.4byte	0x9a3
 2254 099c 20       		.uleb128 0x20
 2255 099d 65040000 		.4byte	0x465
 2256 09a1 1A       		.byte	0x1a
 2257 09a2 00       		.byte	0
 2258 09a3 13       		.uleb128 0x13
 2259 09a4 93090000 		.4byte	0x993
 2260 09a8 21       		.uleb128 0x21
 2261 09a9 FB030000 		.4byte	.LASF120
 2262 09ad 03       		.byte	0x3
 2263 09ae 85       		.byte	0x85
 2264 09af 00000000 		.4byte	.LFB247
 2265 09b3 28000000 		.4byte	.LFE247-.LFB247
 2266 09b7 01       		.uleb128 0x1
 2267 09b8 9C       		.byte	0x9c
 2268 09b9 040A0000 		.4byte	0xa04
 2269 09bd 22       		.uleb128 0x22
 2270 09be 65737000 		.ascii	"esp\000"
 2271 09c2 03       		.byte	0x3
 2272 09c3 85       		.byte	0x85
 2273 09c4 8D090000 		.4byte	0x98d
 2274 09c8 DD000000 		.4byte	.LLST4
 2275 09cc 22       		.uleb128 0x22
 2276 09cd 656C7000 		.ascii	"elp\000"
 2277 09d1 03       		.byte	0x3
 2278 09d2 85       		.byte	0x85
 2279 09d3 F1070000 		.4byte	0x7f1
 2280 09d7 09010000 		.4byte	.LLST5
ARM GAS  /tmp/cc7TrS54.s 			page 41


 2281 09db 24       		.uleb128 0x24
 2282 09dc 7000     		.ascii	"p\000"
 2283 09de 03       		.byte	0x3
 2284 09df 86       		.byte	0x86
 2285 09e0 F1070000 		.4byte	0x7f1
 2286 09e4 35010000 		.4byte	.LLST6
 2287 09e8 1D       		.uleb128 0x1d
 2288 09e9 14060000 		.4byte	.LASF118
 2289 09ed 140A0000 		.4byte	0xa14
 2290 09f1 1E       		.uleb128 0x1e
 2291 09f2 0A000000 		.4byte	.LVL9
 2292 09f6 6A080000 		.4byte	0x86a
 2293 09fa 1C       		.uleb128 0x1c
 2294 09fb 28000000 		.4byte	.LVL14
 2295 09ff B6080000 		.4byte	0x8b6
 2296 0a03 00       		.byte	0
 2297 0a04 1F       		.uleb128 0x1f
 2298 0a05 74070000 		.4byte	0x774
 2299 0a09 140A0000 		.4byte	0xa14
 2300 0a0d 20       		.uleb128 0x20
 2301 0a0e 65040000 		.4byte	0x465
 2302 0a12 0F       		.byte	0xf
 2303 0a13 00       		.byte	0
 2304 0a14 13       		.uleb128 0x13
 2305 0a15 040A0000 		.4byte	0xa04
 2306 0a19 25       		.uleb128 0x25
 2307 0a1a 79030000 		.4byte	.LASF121
 2308 0a1e 03       		.byte	0x3
 2309 0a1f A2       		.byte	0xa2
 2310 0a20 1B010000 		.4byte	0x11b
 2311 0a24 00000000 		.4byte	.LFB248
 2312 0a28 24000000 		.4byte	.LFE248-.LFB248
 2313 0a2c 01       		.uleb128 0x1
 2314 0a2d 9C       		.byte	0x9c
 2315 0a2e 610A0000 		.4byte	0xa61
 2316 0a32 23       		.uleb128 0x23
 2317 0a33 53060000 		.4byte	.LASF108
 2318 0a37 03       		.byte	0x3
 2319 0a38 A2       		.byte	0xa2
 2320 0a39 1B010000 		.4byte	0x11b
 2321 0a3d 69010000 		.4byte	.LLST7
 2322 0a41 24       		.uleb128 0x24
 2323 0a42 6D00     		.ascii	"m\000"
 2324 0a44 03       		.byte	0x3
 2325 0a45 A3       		.byte	0xa3
 2326 0a46 1B010000 		.4byte	0x11b
 2327 0a4a 95010000 		.4byte	.LLST8
 2328 0a4e 1E       		.uleb128 0x1e
 2329 0a4f 08000000 		.4byte	.LVL16
 2330 0a53 6A080000 		.4byte	0x86a
 2331 0a57 1E       		.uleb128 0x1e
 2332 0a58 1C000000 		.4byte	.LVL18
 2333 0a5c B6080000 		.4byte	0x8b6
 2334 0a60 00       		.byte	0
 2335 0a61 25       		.uleb128 0x25
 2336 0a62 B7000000 		.4byte	.LASF122
 2337 0a66 03       		.byte	0x3
ARM GAS  /tmp/cc7TrS54.s 			page 42


 2338 0a67 B6       		.byte	0xb6
 2339 0a68 1B010000 		.4byte	0x11b
 2340 0a6c 00000000 		.4byte	.LFB249
 2341 0a70 20000000 		.4byte	.LFE249-.LFB249
 2342 0a74 01       		.uleb128 0x1
 2343 0a75 9C       		.byte	0x9c
 2344 0a76 9C0A0000 		.4byte	0xa9c
 2345 0a7a 23       		.uleb128 0x23
 2346 0a7b 53060000 		.4byte	.LASF108
 2347 0a7f 03       		.byte	0x3
 2348 0a80 B6       		.byte	0xb6
 2349 0a81 1B010000 		.4byte	0x11b
 2350 0a85 B3010000 		.4byte	.LLST9
 2351 0a89 1E       		.uleb128 0x1e
 2352 0a8a 08000000 		.4byte	.LVL21
 2353 0a8e 6A080000 		.4byte	0x86a
 2354 0a92 1E       		.uleb128 0x1e
 2355 0a93 16000000 		.4byte	.LVL24
 2356 0a97 B6080000 		.4byte	0x8b6
 2357 0a9b 00       		.byte	0
 2358 0a9c 25       		.uleb128 0x25
 2359 0a9d 8F070000 		.4byte	.LASF123
 2360 0aa1 03       		.byte	0x3
 2361 0aa2 F1       		.byte	0xf1
 2362 0aa3 26010000 		.4byte	0x126
 2363 0aa7 00000000 		.4byte	.LFB251
 2364 0aab 16000000 		.4byte	.LFE251-.LFB251
 2365 0aaf 01       		.uleb128 0x1
 2366 0ab0 9C       		.byte	0x9c
 2367 0ab1 E40A0000 		.4byte	0xae4
 2368 0ab5 22       		.uleb128 0x22
 2369 0ab6 656C7000 		.ascii	"elp\000"
 2370 0aba 03       		.byte	0x3
 2371 0abb F1       		.byte	0xf1
 2372 0abc F1070000 		.4byte	0x7f1
 2373 0ac0 F5010000 		.4byte	.LLST10
 2374 0ac4 26       		.uleb128 0x26
 2375 0ac5 41070000 		.4byte	.LASF38
 2376 0ac9 03       		.byte	0x3
 2377 0aca F2       		.byte	0xf2
 2378 0acb 26010000 		.4byte	0x126
 2379 0acf 01       		.uleb128 0x1
 2380 0ad0 55       		.byte	0x55
 2381 0ad1 1E       		.uleb128 0x1e
 2382 0ad2 08000000 		.4byte	.LVL27
 2383 0ad6 6A080000 		.4byte	0x86a
 2384 0ada 1E       		.uleb128 0x1e
 2385 0adb 12000000 		.4byte	.LVL29
 2386 0adf B6080000 		.4byte	0x8b6
 2387 0ae3 00       		.byte	0
 2388 0ae4 27       		.uleb128 0x27
 2389 0ae5 D3070000 		.4byte	.LASF124
 2390 0ae9 03       		.byte	0x3
 2391 0aea 1A01     		.2byte	0x11a
 2392 0aec 00000000 		.4byte	.LFB253
 2393 0af0 2C000000 		.4byte	.LFE253-.LFB253
 2394 0af4 01       		.uleb128 0x1
ARM GAS  /tmp/cc7TrS54.s 			page 43


 2395 0af5 9C       		.byte	0x9c
 2396 0af6 340B0000 		.4byte	0xb34
 2397 0afa 28       		.uleb128 0x28
 2398 0afb 747000   		.ascii	"tp\000"
 2399 0afe 03       		.byte	0x3
 2400 0aff 1A01     		.2byte	0x11a
 2401 0b01 53020000 		.4byte	0x253
 2402 0b05 13020000 		.4byte	.LLST11
 2403 0b09 29       		.uleb128 0x29
 2404 0b0a 53060000 		.4byte	.LASF108
 2405 0b0e 03       		.byte	0x3
 2406 0b0f 1A01     		.2byte	0x11a
 2407 0b11 1B010000 		.4byte	0x11b
 2408 0b15 3F020000 		.4byte	.LLST12
 2409 0b19 1D       		.uleb128 0x1d
 2410 0b1a 14060000 		.4byte	.LASF118
 2411 0b1e 440B0000 		.4byte	0xb44
 2412 0b22 2A       		.uleb128 0x2a
 2413 0b23 2A000000 		.4byte	.LVL32
 2414 0b27 4A100000 		.4byte	0x104a
 2415 0b2b 2B       		.uleb128 0x2b
 2416 0b2c 01       		.uleb128 0x1
 2417 0b2d 50       		.byte	0x50
 2418 0b2e 03       		.uleb128 0x3
 2419 0b2f F3       		.byte	0xf3
 2420 0b30 01       		.uleb128 0x1
 2421 0b31 50       		.byte	0x50
 2422 0b32 00       		.byte	0
 2423 0b33 00       		.byte	0
 2424 0b34 1F       		.uleb128 0x1f
 2425 0b35 74070000 		.4byte	0x774
 2426 0b39 440B0000 		.4byte	0xb44
 2427 0b3d 20       		.uleb128 0x20
 2428 0b3e 65040000 		.4byte	0x465
 2429 0b42 0C       		.byte	0xc
 2430 0b43 00       		.byte	0
 2431 0b44 13       		.uleb128 0x13
 2432 0b45 340B0000 		.4byte	0xb34
 2433 0b49 21       		.uleb128 0x21
 2434 0b4a B3010000 		.4byte	.LASF125
 2435 0b4e 03       		.byte	0x3
 2436 0b4f D1       		.byte	0xd1
 2437 0b50 00000000 		.4byte	.LFB250
 2438 0b54 28000000 		.4byte	.LFE250-.LFB250
 2439 0b58 01       		.uleb128 0x1
 2440 0b59 9C       		.byte	0x9c
 2441 0b5a 9C0B0000 		.4byte	0xb9c
 2442 0b5e 22       		.uleb128 0x22
 2443 0b5f 65737000 		.ascii	"esp\000"
 2444 0b63 03       		.byte	0x3
 2445 0b64 D1       		.byte	0xd1
 2446 0b65 8D090000 		.4byte	0x98d
 2447 0b69 60020000 		.4byte	.LLST13
 2448 0b6d 23       		.uleb128 0x23
 2449 0b6e 41070000 		.4byte	.LASF38
 2450 0b72 03       		.byte	0x3
 2451 0b73 D1       		.byte	0xd1
ARM GAS  /tmp/cc7TrS54.s 			page 44


 2452 0b74 26010000 		.4byte	0x126
 2453 0b78 7E020000 		.4byte	.LLST14
 2454 0b7c 2C       		.uleb128 0x2c
 2455 0b7d 656C7000 		.ascii	"elp\000"
 2456 0b81 03       		.byte	0x3
 2457 0b82 D2       		.byte	0xd2
 2458 0b83 F1070000 		.4byte	0x7f1
 2459 0b87 01       		.uleb128 0x1
 2460 0b88 54       		.byte	0x54
 2461 0b89 1D       		.uleb128 0x1d
 2462 0b8a 14060000 		.4byte	.LASF118
 2463 0b8e AC0B0000 		.4byte	0xbac
 2464 0b92 1E       		.uleb128 0x1e
 2465 0b93 22000000 		.4byte	.LVL36
 2466 0b97 E40A0000 		.4byte	0xae4
 2467 0b9b 00       		.byte	0
 2468 0b9c 1F       		.uleb128 0x1f
 2469 0b9d 74070000 		.4byte	0x774
 2470 0ba1 AC0B0000 		.4byte	0xbac
 2471 0ba5 20       		.uleb128 0x20
 2472 0ba6 65040000 		.4byte	0x465
 2473 0baa 14       		.byte	0x14
 2474 0bab 00       		.byte	0
 2475 0bac 13       		.uleb128 0x13
 2476 0bad 9C0B0000 		.4byte	0xb9c
 2477 0bb1 27       		.uleb128 0x27
 2478 0bb2 71000000 		.4byte	.LASF126
 2479 0bb6 03       		.byte	0x3
 2480 0bb7 0401     		.2byte	0x104
 2481 0bb9 00000000 		.4byte	.LFB252
 2482 0bbd 1E000000 		.4byte	.LFE252-.LFB252
 2483 0bc1 01       		.uleb128 0x1
 2484 0bc2 9C       		.byte	0x9c
 2485 0bc3 250C0000 		.4byte	0xc25
 2486 0bc7 28       		.uleb128 0x28
 2487 0bc8 747000   		.ascii	"tp\000"
 2488 0bcb 03       		.byte	0x3
 2489 0bcc 0401     		.2byte	0x104
 2490 0bce 53020000 		.4byte	0x253
 2491 0bd2 9C020000 		.4byte	.LLST15
 2492 0bd6 29       		.uleb128 0x29
 2493 0bd7 53060000 		.4byte	.LASF108
 2494 0bdb 03       		.byte	0x3
 2495 0bdc 0401     		.2byte	0x104
 2496 0bde 1B010000 		.4byte	0x11b
 2497 0be2 C8020000 		.4byte	.LLST16
 2498 0be6 1D       		.uleb128 0x1d
 2499 0be7 14060000 		.4byte	.LASF118
 2500 0beb 250C0000 		.4byte	0xc25
 2501 0bef 1E       		.uleb128 0x1e
 2502 0bf0 0A000000 		.4byte	.LVL39
 2503 0bf4 6A080000 		.4byte	0x86a
 2504 0bf8 2D       		.uleb128 0x2d
 2505 0bf9 12000000 		.4byte	.LVL40
 2506 0bfd E40A0000 		.4byte	0xae4
 2507 0c01 120C0000 		.4byte	0xc12
 2508 0c05 2B       		.uleb128 0x2b
ARM GAS  /tmp/cc7TrS54.s 			page 45


 2509 0c06 01       		.uleb128 0x1
 2510 0c07 51       		.byte	0x51
 2511 0c08 02       		.uleb128 0x2
 2512 0c09 74       		.byte	0x74
 2513 0c0a 00       		.sleb128 0
 2514 0c0b 2B       		.uleb128 0x2b
 2515 0c0c 01       		.uleb128 0x1
 2516 0c0d 50       		.byte	0x50
 2517 0c0e 02       		.uleb128 0x2
 2518 0c0f 75       		.byte	0x75
 2519 0c10 00       		.sleb128 0
 2520 0c11 00       		.byte	0
 2521 0c12 1E       		.uleb128 0x1e
 2522 0c13 16000000 		.4byte	.LVL41
 2523 0c17 60100000 		.4byte	0x1060
 2524 0c1b 1C       		.uleb128 0x1c
 2525 0c1c 1E000000 		.4byte	.LVL43
 2526 0c20 B6080000 		.4byte	0x8b6
 2527 0c24 00       		.byte	0
 2528 0c25 13       		.uleb128 0x13
 2529 0c26 0B090000 		.4byte	0x90b
 2530 0c2a 27       		.uleb128 0x27
 2531 0c2b 11020000 		.4byte	.LASF127
 2532 0c2f 03       		.byte	0x3
 2533 0c30 3701     		.2byte	0x137
 2534 0c32 00000000 		.4byte	.LFB254
 2535 0c36 1E000000 		.4byte	.LFE254-.LFB254
 2536 0c3a 01       		.uleb128 0x1
 2537 0c3b 9C       		.byte	0x9c
 2538 0c3c 960C0000 		.4byte	0xc96
 2539 0c40 28       		.uleb128 0x28
 2540 0c41 65737000 		.ascii	"esp\000"
 2541 0c45 03       		.byte	0x3
 2542 0c46 3701     		.2byte	0x137
 2543 0c48 8D090000 		.4byte	0x98d
 2544 0c4c F4020000 		.4byte	.LLST17
 2545 0c50 29       		.uleb128 0x29
 2546 0c51 41070000 		.4byte	.LASF38
 2547 0c55 03       		.byte	0x3
 2548 0c56 3701     		.2byte	0x137
 2549 0c58 26010000 		.4byte	0x126
 2550 0c5c 20030000 		.4byte	.LLST18
 2551 0c60 1E       		.uleb128 0x1e
 2552 0c61 0A000000 		.4byte	.LVL45
 2553 0c65 6A080000 		.4byte	0x86a
 2554 0c69 2D       		.uleb128 0x2d
 2555 0c6a 12000000 		.4byte	.LVL46
 2556 0c6e 490B0000 		.4byte	0xb49
 2557 0c72 830C0000 		.4byte	0xc83
 2558 0c76 2B       		.uleb128 0x2b
 2559 0c77 01       		.uleb128 0x1
 2560 0c78 51       		.byte	0x51
 2561 0c79 02       		.uleb128 0x2
 2562 0c7a 74       		.byte	0x74
 2563 0c7b 00       		.sleb128 0
 2564 0c7c 2B       		.uleb128 0x2b
 2565 0c7d 01       		.uleb128 0x1
ARM GAS  /tmp/cc7TrS54.s 			page 46


 2566 0c7e 50       		.byte	0x50
 2567 0c7f 02       		.uleb128 0x2
 2568 0c80 75       		.byte	0x75
 2569 0c81 00       		.sleb128 0
 2570 0c82 00       		.byte	0
 2571 0c83 1E       		.uleb128 0x1e
 2572 0c84 16000000 		.4byte	.LVL47
 2573 0c88 60100000 		.4byte	0x1060
 2574 0c8c 1C       		.uleb128 0x1c
 2575 0c8d 1E000000 		.4byte	.LVL49
 2576 0c91 B6080000 		.4byte	0x8b6
 2577 0c95 00       		.byte	0
 2578 0c96 2E       		.uleb128 0x2e
 2579 0c97 EC050000 		.4byte	.LASF128
 2580 0c9b 03       		.byte	0x3
 2581 0c9c 4A01     		.2byte	0x14a
 2582 0c9e 26010000 		.4byte	0x126
 2583 0ca2 00000000 		.4byte	.LFB255
 2584 0ca6 0A000000 		.4byte	.LFE255-.LFB255
 2585 0caa 01       		.uleb128 0x1
 2586 0cab 9C       		.byte	0x9c
 2587 0cac CF0C0000 		.4byte	0xccf
 2588 0cb0 28       		.uleb128 0x28
 2589 0cb1 656C7000 		.ascii	"elp\000"
 2590 0cb5 03       		.byte	0x3
 2591 0cb6 4A01     		.2byte	0x14a
 2592 0cb8 F1070000 		.4byte	0x7f1
 2593 0cbc 4C030000 		.4byte	.LLST19
 2594 0cc0 2F       		.uleb128 0x2f
 2595 0cc1 41070000 		.4byte	.LASF38
 2596 0cc5 03       		.byte	0x3
 2597 0cc6 4B01     		.2byte	0x14b
 2598 0cc8 26010000 		.4byte	0x126
 2599 0ccc 01       		.uleb128 0x1
 2600 0ccd 50       		.byte	0x50
 2601 0cce 00       		.byte	0
 2602 0ccf 27       		.uleb128 0x27
 2603 0cd0 18050000 		.4byte	.LASF129
 2604 0cd4 03       		.byte	0x3
 2605 0cd5 5C01     		.2byte	0x15c
 2606 0cd7 00000000 		.4byte	.LFB256
 2607 0cdb 28000000 		.4byte	.LFE256-.LFB256
 2608 0cdf 01       		.uleb128 0x1
 2609 0ce0 9C       		.byte	0x9c
 2610 0ce1 2B0D0000 		.4byte	0xd2b
 2611 0ce5 29       		.uleb128 0x29
 2612 0ce6 79050000 		.4byte	.LASF130
 2613 0cea 03       		.byte	0x3
 2614 0ceb 5C01     		.2byte	0x15c
 2615 0ced 2B0D0000 		.4byte	0xd2b
 2616 0cf1 6A030000 		.4byte	.LLST20
 2617 0cf5 29       		.uleb128 0x29
 2618 0cf6 53060000 		.4byte	.LASF108
 2619 0cfa 03       		.byte	0x3
 2620 0cfb 5C01     		.2byte	0x15c
 2621 0cfd 1B010000 		.4byte	0x11b
 2622 0d01 88030000 		.4byte	.LLST21
ARM GAS  /tmp/cc7TrS54.s 			page 47


 2623 0d05 30       		.uleb128 0x30
 2624 0d06 65696400 		.ascii	"eid\000"
 2625 0d0a 03       		.byte	0x3
 2626 0d0b 5D01     		.2byte	0x15d
 2627 0d0d 10010000 		.4byte	0x110
 2628 0d11 A6030000 		.4byte	.LLST22
 2629 0d15 1D       		.uleb128 0x1d
 2630 0d16 14060000 		.4byte	.LASF118
 2631 0d1a 460D0000 		.4byte	0xd46
 2632 0d1e 31       		.uleb128 0x31
 2633 0d1f 22000000 		.4byte	.LVL55
 2634 0d23 2B       		.uleb128 0x2b
 2635 0d24 01       		.uleb128 0x1
 2636 0d25 50       		.byte	0x50
 2637 0d26 02       		.uleb128 0x2
 2638 0d27 74       		.byte	0x74
 2639 0d28 00       		.sleb128 0
 2640 0d29 00       		.byte	0
 2641 0d2a 00       		.byte	0
 2642 0d2b 0A       		.uleb128 0xa
 2643 0d2c 04       		.byte	0x4
 2644 0d2d 310D0000 		.4byte	0xd31
 2645 0d31 13       		.uleb128 0x13
 2646 0d32 1B080000 		.4byte	0x81b
 2647 0d36 1F       		.uleb128 0x1f
 2648 0d37 74070000 		.4byte	0x774
 2649 0d3b 460D0000 		.4byte	0xd46
 2650 0d3f 20       		.uleb128 0x20
 2651 0d40 65040000 		.4byte	0x465
 2652 0d44 0D       		.byte	0xd
 2653 0d45 00       		.byte	0
 2654 0d46 13       		.uleb128 0x13
 2655 0d47 360D0000 		.4byte	0xd36
 2656 0d4b 2E       		.uleb128 0x2e
 2657 0d4c CC050000 		.4byte	.LASF131
 2658 0d50 03       		.byte	0x3
 2659 0d51 7F01     		.2byte	0x17f
 2660 0d53 1B010000 		.4byte	0x11b
 2661 0d57 00000000 		.4byte	.LFB257
 2662 0d5b 38000000 		.4byte	.LFE257-.LFB257
 2663 0d5f 01       		.uleb128 0x1
 2664 0d60 9C       		.byte	0x9c
 2665 0d61 B90D0000 		.4byte	0xdb9
 2666 0d65 29       		.uleb128 0x29
 2667 0d66 53060000 		.4byte	.LASF108
 2668 0d6a 03       		.byte	0x3
 2669 0d6b 7F01     		.2byte	0x17f
 2670 0d6d 1B010000 		.4byte	0x11b
 2671 0d71 C5030000 		.4byte	.LLST23
 2672 0d75 30       		.uleb128 0x30
 2673 0d76 63747000 		.ascii	"ctp\000"
 2674 0d7a 03       		.byte	0x3
 2675 0d7b 8001     		.2byte	0x180
 2676 0d7d 53020000 		.4byte	0x253
 2677 0d81 F1030000 		.4byte	.LLST24
 2678 0d85 30       		.uleb128 0x30
 2679 0d86 6D00     		.ascii	"m\000"
ARM GAS  /tmp/cc7TrS54.s 			page 48


 2680 0d88 03       		.byte	0x3
 2681 0d89 8101     		.2byte	0x181
 2682 0d8b 1B010000 		.4byte	0x11b
 2683 0d8f 04040000 		.4byte	.LLST25
 2684 0d93 1E       		.uleb128 0x1e
 2685 0d94 0C000000 		.4byte	.LVL59
 2686 0d98 6A080000 		.4byte	0x86a
 2687 0d9c 2D       		.uleb128 0x2d
 2688 0d9d 1A000000 		.4byte	.LVL62
 2689 0da1 68100000 		.4byte	0x1068
 2690 0da5 AF0D0000 		.4byte	0xdaf
 2691 0da9 2B       		.uleb128 0x2b
 2692 0daa 01       		.uleb128 0x1
 2693 0dab 50       		.byte	0x50
 2694 0dac 01       		.uleb128 0x1
 2695 0dad 3A       		.byte	0x3a
 2696 0dae 00       		.byte	0
 2697 0daf 1E       		.uleb128 0x1e
 2698 0db0 2E000000 		.4byte	.LVL66
 2699 0db4 B6080000 		.4byte	0x8b6
 2700 0db8 00       		.byte	0
 2701 0db9 2E       		.uleb128 0x2e
 2702 0dba A0010000 		.4byte	.LASF132
 2703 0dbe 03       		.byte	0x3
 2704 0dbf 9D01     		.2byte	0x19d
 2705 0dc1 1B010000 		.4byte	0x11b
 2706 0dc5 00000000 		.4byte	.LFB258
 2707 0dc9 34000000 		.4byte	.LFE258-.LFB258
 2708 0dcd 01       		.uleb128 0x1
 2709 0dce 9C       		.byte	0x9c
 2710 0dcf 270E0000 		.4byte	0xe27
 2711 0dd3 29       		.uleb128 0x29
 2712 0dd4 53060000 		.4byte	.LASF108
 2713 0dd8 03       		.byte	0x3
 2714 0dd9 9D01     		.2byte	0x19d
 2715 0ddb 1B010000 		.4byte	0x11b
 2716 0ddf 48040000 		.4byte	.LLST26
 2717 0de3 30       		.uleb128 0x30
 2718 0de4 63747000 		.ascii	"ctp\000"
 2719 0de8 03       		.byte	0x3
 2720 0de9 9E01     		.2byte	0x19e
 2721 0deb 53020000 		.4byte	0x253
 2722 0def 74040000 		.4byte	.LLST27
 2723 0df3 30       		.uleb128 0x30
 2724 0df4 6D00     		.ascii	"m\000"
 2725 0df6 03       		.byte	0x3
 2726 0df7 9F01     		.2byte	0x19f
 2727 0df9 1B010000 		.4byte	0x11b
 2728 0dfd 87040000 		.4byte	.LLST28
 2729 0e01 1E       		.uleb128 0x1e
 2730 0e02 0C000000 		.4byte	.LVL70
 2731 0e06 6A080000 		.4byte	0x86a
 2732 0e0a 2D       		.uleb128 0x2d
 2733 0e0b 1A000000 		.4byte	.LVL73
 2734 0e0f 68100000 		.4byte	0x1068
 2735 0e13 1D0E0000 		.4byte	0xe1d
 2736 0e17 2B       		.uleb128 0x2b
ARM GAS  /tmp/cc7TrS54.s 			page 49


 2737 0e18 01       		.uleb128 0x1
 2738 0e19 50       		.byte	0x50
 2739 0e1a 01       		.uleb128 0x1
 2740 0e1b 3A       		.byte	0x3a
 2741 0e1c 00       		.byte	0
 2742 0e1d 1E       		.uleb128 0x1e
 2743 0e1e 2A000000 		.4byte	.LVL76
 2744 0e22 B6080000 		.4byte	0x8b6
 2745 0e26 00       		.byte	0
 2746 0e27 2E       		.uleb128 0x2e
 2747 0e28 49050000 		.4byte	.LASF133
 2748 0e2c 03       		.byte	0x3
 2749 0e2d B901     		.2byte	0x1b9
 2750 0e2f 1B010000 		.4byte	0x11b
 2751 0e33 00000000 		.4byte	.LFB259
 2752 0e37 30000000 		.4byte	.LFE259-.LFB259
 2753 0e3b 01       		.uleb128 0x1
 2754 0e3c 9C       		.byte	0x9c
 2755 0e3d 870E0000 		.4byte	0xe87
 2756 0e41 29       		.uleb128 0x29
 2757 0e42 53060000 		.4byte	.LASF108
 2758 0e46 03       		.byte	0x3
 2759 0e47 B901     		.2byte	0x1b9
 2760 0e49 1B010000 		.4byte	0x11b
 2761 0e4d C0040000 		.4byte	.LLST29
 2762 0e51 30       		.uleb128 0x30
 2763 0e52 63747000 		.ascii	"ctp\000"
 2764 0e56 03       		.byte	0x3
 2765 0e57 BA01     		.2byte	0x1ba
 2766 0e59 53020000 		.4byte	0x253
 2767 0e5d E9040000 		.4byte	.LLST30
 2768 0e61 1E       		.uleb128 0x1e
 2769 0e62 0C000000 		.4byte	.LVL80
 2770 0e66 6A080000 		.4byte	0x86a
 2771 0e6a 2D       		.uleb128 0x2d
 2772 0e6b 1C000000 		.4byte	.LVL81
 2773 0e6f 68100000 		.4byte	0x1068
 2774 0e73 7D0E0000 		.4byte	0xe7d
 2775 0e77 2B       		.uleb128 0x2b
 2776 0e78 01       		.uleb128 0x1
 2777 0e79 50       		.byte	0x50
 2778 0e7a 01       		.uleb128 0x1
 2779 0e7b 3B       		.byte	0x3b
 2780 0e7c 00       		.byte	0
 2781 0e7d 1E       		.uleb128 0x1e
 2782 0e7e 28000000 		.4byte	.LVL82
 2783 0e82 B6080000 		.4byte	0x8b6
 2784 0e86 00       		.byte	0
 2785 0e87 2E       		.uleb128 0x2e
 2786 0e88 65070000 		.4byte	.LASF134
 2787 0e8c 03       		.byte	0x3
 2788 0e8d DF01     		.2byte	0x1df
 2789 0e8f 1B010000 		.4byte	0x11b
 2790 0e93 00000000 		.4byte	.LFB260
 2791 0e97 48000000 		.4byte	.LFE260-.LFB260
 2792 0e9b 01       		.uleb128 0x1
 2793 0e9c 9C       		.byte	0x9c
ARM GAS  /tmp/cc7TrS54.s 			page 50


 2794 0e9d 140F0000 		.4byte	0xf14
 2795 0ea1 29       		.uleb128 0x29
 2796 0ea2 53060000 		.4byte	.LASF108
 2797 0ea6 03       		.byte	0x3
 2798 0ea7 DF01     		.2byte	0x1df
 2799 0ea9 1B010000 		.4byte	0x11b
 2800 0ead FC040000 		.4byte	.LLST31
 2801 0eb1 29       		.uleb128 0x29
 2802 0eb2 44050000 		.4byte	.LASF135
 2803 0eb6 03       		.byte	0x3
 2804 0eb7 DF01     		.2byte	0x1df
 2805 0eb9 47010000 		.4byte	0x147
 2806 0ebd 28050000 		.4byte	.LLST32
 2807 0ec1 30       		.uleb128 0x30
 2808 0ec2 63747000 		.ascii	"ctp\000"
 2809 0ec6 03       		.byte	0x3
 2810 0ec7 E001     		.2byte	0x1e0
 2811 0ec9 53020000 		.4byte	0x253
 2812 0ecd 54050000 		.4byte	.LLST33
 2813 0ed1 30       		.uleb128 0x30
 2814 0ed2 6D00     		.ascii	"m\000"
 2815 0ed4 03       		.byte	0x3
 2816 0ed5 E101     		.2byte	0x1e1
 2817 0ed7 1B010000 		.4byte	0x11b
 2818 0edb 67050000 		.4byte	.LLST34
 2819 0edf 1E       		.uleb128 0x1e
 2820 0ee0 0E000000 		.4byte	.LVL86
 2821 0ee4 6A080000 		.4byte	0x86a
 2822 0ee8 1E       		.uleb128 0x1e
 2823 0ee9 1A000000 		.4byte	.LVL90
 2824 0eed B6080000 		.4byte	0x8b6
 2825 0ef1 2D       		.uleb128 0x2d
 2826 0ef2 28000000 		.4byte	.LVL92
 2827 0ef6 7A100000 		.4byte	0x107a
 2828 0efa 0A0F0000 		.4byte	0xf0a
 2829 0efe 2B       		.uleb128 0x2b
 2830 0eff 01       		.uleb128 0x1
 2831 0f00 51       		.byte	0x51
 2832 0f01 02       		.uleb128 0x2
 2833 0f02 76       		.byte	0x76
 2834 0f03 00       		.sleb128 0
 2835 0f04 2B       		.uleb128 0x2b
 2836 0f05 01       		.uleb128 0x1
 2837 0f06 50       		.byte	0x50
 2838 0f07 01       		.uleb128 0x1
 2839 0f08 3A       		.byte	0x3a
 2840 0f09 00       		.byte	0
 2841 0f0a 1E       		.uleb128 0x1e
 2842 0f0b 40000000 		.4byte	.LVL96
 2843 0f0f B6080000 		.4byte	0x8b6
 2844 0f13 00       		.byte	0
 2845 0f14 2E       		.uleb128 0x2e
 2846 0f15 D1010000 		.4byte	.LASF136
 2847 0f19 03       		.byte	0x3
 2848 0f1a 0A02     		.2byte	0x20a
 2849 0f1c 1B010000 		.4byte	0x11b
 2850 0f20 00000000 		.4byte	.LFB261
ARM GAS  /tmp/cc7TrS54.s 			page 51


 2851 0f24 44000000 		.4byte	.LFE261-.LFB261
 2852 0f28 01       		.uleb128 0x1
 2853 0f29 9C       		.byte	0x9c
 2854 0f2a A10F0000 		.4byte	0xfa1
 2855 0f2e 29       		.uleb128 0x29
 2856 0f2f 53060000 		.4byte	.LASF108
 2857 0f33 03       		.byte	0x3
 2858 0f34 0A02     		.2byte	0x20a
 2859 0f36 1B010000 		.4byte	0x11b
 2860 0f3a B6050000 		.4byte	.LLST35
 2861 0f3e 29       		.uleb128 0x29
 2862 0f3f 44050000 		.4byte	.LASF135
 2863 0f43 03       		.byte	0x3
 2864 0f44 0A02     		.2byte	0x20a
 2865 0f46 47010000 		.4byte	0x147
 2866 0f4a E2050000 		.4byte	.LLST36
 2867 0f4e 30       		.uleb128 0x30
 2868 0f4f 63747000 		.ascii	"ctp\000"
 2869 0f53 03       		.byte	0x3
 2870 0f54 0B02     		.2byte	0x20b
 2871 0f56 53020000 		.4byte	0x253
 2872 0f5a 0E060000 		.4byte	.LLST37
 2873 0f5e 30       		.uleb128 0x30
 2874 0f5f 6D00     		.ascii	"m\000"
 2875 0f61 03       		.byte	0x3
 2876 0f62 0C02     		.2byte	0x20c
 2877 0f64 1B010000 		.4byte	0x11b
 2878 0f68 21060000 		.4byte	.LLST38
 2879 0f6c 1E       		.uleb128 0x1e
 2880 0f6d 0E000000 		.4byte	.LVL100
 2881 0f71 6A080000 		.4byte	0x86a
 2882 0f75 1E       		.uleb128 0x1e
 2883 0f76 1A000000 		.4byte	.LVL103
 2884 0f7a B6080000 		.4byte	0x8b6
 2885 0f7e 2D       		.uleb128 0x2d
 2886 0f7f 28000000 		.4byte	.LVL105
 2887 0f83 7A100000 		.4byte	0x107a
 2888 0f87 970F0000 		.4byte	0xf97
 2889 0f8b 2B       		.uleb128 0x2b
 2890 0f8c 01       		.uleb128 0x1
 2891 0f8d 51       		.byte	0x51
 2892 0f8e 02       		.uleb128 0x2
 2893 0f8f 77       		.byte	0x77
 2894 0f90 00       		.sleb128 0
 2895 0f91 2B       		.uleb128 0x2b
 2896 0f92 01       		.uleb128 0x1
 2897 0f93 50       		.byte	0x50
 2898 0f94 01       		.uleb128 0x1
 2899 0f95 3A       		.byte	0x3a
 2900 0f96 00       		.byte	0
 2901 0f97 1E       		.uleb128 0x1e
 2902 0f98 3C000000 		.4byte	.LVL108
 2903 0f9c B6080000 		.4byte	0x8b6
 2904 0fa0 00       		.byte	0
 2905 0fa1 2E       		.uleb128 0x2e
 2906 0fa2 2D010000 		.4byte	.LASF137
 2907 0fa6 03       		.byte	0x3
ARM GAS  /tmp/cc7TrS54.s 			page 52


 2908 0fa7 3302     		.2byte	0x233
 2909 0fa9 1B010000 		.4byte	0x11b
 2910 0fad 00000000 		.4byte	.LFB262
 2911 0fb1 44000000 		.4byte	.LFE262-.LFB262
 2912 0fb5 01       		.uleb128 0x1
 2913 0fb6 9C       		.byte	0x9c
 2914 0fb7 20100000 		.4byte	0x1020
 2915 0fbb 29       		.uleb128 0x29
 2916 0fbc 53060000 		.4byte	.LASF108
 2917 0fc0 03       		.byte	0x3
 2918 0fc1 3302     		.2byte	0x233
 2919 0fc3 1B010000 		.4byte	0x11b
 2920 0fc7 5A060000 		.4byte	.LLST39
 2921 0fcb 29       		.uleb128 0x29
 2922 0fcc 44050000 		.4byte	.LASF135
 2923 0fd0 03       		.byte	0x3
 2924 0fd1 3302     		.2byte	0x233
 2925 0fd3 47010000 		.4byte	0x147
 2926 0fd7 83060000 		.4byte	.LLST40
 2927 0fdb 30       		.uleb128 0x30
 2928 0fdc 63747000 		.ascii	"ctp\000"
 2929 0fe0 03       		.byte	0x3
 2930 0fe1 3402     		.2byte	0x234
 2931 0fe3 53020000 		.4byte	0x253
 2932 0fe7 AF060000 		.4byte	.LLST41
 2933 0feb 1E       		.uleb128 0x1e
 2934 0fec 0E000000 		.4byte	.LVL112
 2935 0ff0 6A080000 		.4byte	0x86a
 2936 0ff4 1E       		.uleb128 0x1e
 2937 0ff5 1C000000 		.4byte	.LVL113
 2938 0ff9 B6080000 		.4byte	0x8b6
 2939 0ffd 2D       		.uleb128 0x2d
 2940 0ffe 2A000000 		.4byte	.LVL115
 2941 1002 7A100000 		.4byte	0x107a
 2942 1006 16100000 		.4byte	0x1016
 2943 100a 2B       		.uleb128 0x2b
 2944 100b 01       		.uleb128 0x1
 2945 100c 51       		.byte	0x51
 2946 100d 02       		.uleb128 0x2
 2947 100e 76       		.byte	0x76
 2948 100f 00       		.sleb128 0
 2949 1010 2B       		.uleb128 0x2b
 2950 1011 01       		.uleb128 0x1
 2951 1012 50       		.byte	0x50
 2952 1013 01       		.uleb128 0x1
 2953 1014 3B       		.byte	0x3b
 2954 1015 00       		.byte	0
 2955 1016 1E       		.uleb128 0x1e
 2956 1017 3A000000 		.4byte	.LVL116
 2957 101b B6080000 		.4byte	0x8b6
 2958 101f 00       		.byte	0
 2959 1020 32       		.uleb128 0x32
 2960 1021 F8000000 		.4byte	.LASF138
 2961 1025 10       		.byte	0x10
 2962 1026 4407     		.2byte	0x744
 2963 1028 2C100000 		.4byte	0x102c
 2964 102c 14       		.uleb128 0x14
ARM GAS  /tmp/cc7TrS54.s 			page 53


 2965 102d A2000000 		.4byte	0xa2
 2966 1031 33       		.uleb128 0x33
 2967 1032 636800   		.ascii	"ch\000"
 2968 1035 08       		.byte	0x8
 2969 1036 D201     		.2byte	0x1d2
 2970 1038 FF030000 		.4byte	0x3ff
 2971 103c 34       		.uleb128 0x34
 2972 103d 47070000 		.4byte	.LASF139
 2973 1041 0C       		.byte	0xc
 2974 1042 4F       		.byte	0x4f
 2975 1043 34       		.uleb128 0x34
 2976 1044 BF040000 		.4byte	.LASF140
 2977 1048 0C       		.byte	0xc
 2978 1049 50       		.byte	0x50
 2979 104a 35       		.uleb128 0x35
 2980 104b 6A060000 		.4byte	.LASF149
 2981 104f 08       		.byte	0x8
 2982 1050 DC01     		.2byte	0x1dc
 2983 1052 53020000 		.4byte	0x253
 2984 1056 60100000 		.4byte	0x1060
 2985 105a 0D       		.uleb128 0xd
 2986 105b 53020000 		.4byte	0x253
 2987 105f 00       		.byte	0
 2988 1060 36       		.uleb128 0x36
 2989 1061 EC010000 		.4byte	.LASF141
 2990 1065 08       		.byte	0x8
 2991 1066 E101     		.2byte	0x1e1
 2992 1068 37       		.uleb128 0x37
 2993 1069 45060000 		.4byte	.LASF142
 2994 106d 08       		.byte	0x8
 2995 106e DE01     		.2byte	0x1de
 2996 1070 7A100000 		.4byte	0x107a
 2997 1074 0D       		.uleb128 0xd
 2998 1075 E4000000 		.4byte	0xe4
 2999 1079 00       		.byte	0
 3000 107a 38       		.uleb128 0x38
 3001 107b BE060000 		.4byte	.LASF143
 3002 107f 08       		.byte	0x8
 3003 1080 DF01     		.2byte	0x1df
 3004 1082 05010000 		.4byte	0x105
 3005 1086 0D       		.uleb128 0xd
 3006 1087 E4000000 		.4byte	0xe4
 3007 108b 0D       		.uleb128 0xd
 3008 108c 47010000 		.4byte	0x147
 3009 1090 00       		.byte	0
 3010 1091 00       		.byte	0
 3011              		.section	.debug_abbrev,"",%progbits
 3012              	.Ldebug_abbrev0:
 3013 0000 01       		.uleb128 0x1
 3014 0001 11       		.uleb128 0x11
 3015 0002 01       		.byte	0x1
 3016 0003 25       		.uleb128 0x25
 3017 0004 0E       		.uleb128 0xe
 3018 0005 13       		.uleb128 0x13
 3019 0006 0B       		.uleb128 0xb
 3020 0007 03       		.uleb128 0x3
 3021 0008 0E       		.uleb128 0xe
ARM GAS  /tmp/cc7TrS54.s 			page 54


 3022 0009 1B       		.uleb128 0x1b
 3023 000a 0E       		.uleb128 0xe
 3024 000b 55       		.uleb128 0x55
 3025 000c 17       		.uleb128 0x17
 3026 000d 11       		.uleb128 0x11
 3027 000e 01       		.uleb128 0x1
 3028 000f 10       		.uleb128 0x10
 3029 0010 17       		.uleb128 0x17
 3030 0011 00       		.byte	0
 3031 0012 00       		.byte	0
 3032 0013 02       		.uleb128 0x2
 3033 0014 24       		.uleb128 0x24
 3034 0015 00       		.byte	0
 3035 0016 0B       		.uleb128 0xb
 3036 0017 0B       		.uleb128 0xb
 3037 0018 3E       		.uleb128 0x3e
 3038 0019 0B       		.uleb128 0xb
 3039 001a 03       		.uleb128 0x3
 3040 001b 08       		.uleb128 0x8
 3041 001c 00       		.byte	0
 3042 001d 00       		.byte	0
 3043 001e 03       		.uleb128 0x3
 3044 001f 24       		.uleb128 0x24
 3045 0020 00       		.byte	0
 3046 0021 0B       		.uleb128 0xb
 3047 0022 0B       		.uleb128 0xb
 3048 0023 3E       		.uleb128 0x3e
 3049 0024 0B       		.uleb128 0xb
 3050 0025 03       		.uleb128 0x3
 3051 0026 0E       		.uleb128 0xe
 3052 0027 00       		.byte	0
 3053 0028 00       		.byte	0
 3054 0029 04       		.uleb128 0x4
 3055 002a 16       		.uleb128 0x16
 3056 002b 00       		.byte	0
 3057 002c 03       		.uleb128 0x3
 3058 002d 0E       		.uleb128 0xe
 3059 002e 3A       		.uleb128 0x3a
 3060 002f 0B       		.uleb128 0xb
 3061 0030 3B       		.uleb128 0x3b
 3062 0031 0B       		.uleb128 0xb
 3063 0032 49       		.uleb128 0x49
 3064 0033 13       		.uleb128 0x13
 3065 0034 00       		.byte	0
 3066 0035 00       		.byte	0
 3067 0036 05       		.uleb128 0x5
 3068 0037 13       		.uleb128 0x13
 3069 0038 01       		.byte	0x1
 3070 0039 03       		.uleb128 0x3
 3071 003a 0E       		.uleb128 0xe
 3072 003b 0B       		.uleb128 0xb
 3073 003c 0B       		.uleb128 0xb
 3074 003d 3A       		.uleb128 0x3a
 3075 003e 0B       		.uleb128 0xb
 3076 003f 3B       		.uleb128 0x3b
 3077 0040 0B       		.uleb128 0xb
 3078 0041 01       		.uleb128 0x1
ARM GAS  /tmp/cc7TrS54.s 			page 55


 3079 0042 13       		.uleb128 0x13
 3080 0043 00       		.byte	0
 3081 0044 00       		.byte	0
 3082 0045 06       		.uleb128 0x6
 3083 0046 0D       		.uleb128 0xd
 3084 0047 00       		.byte	0
 3085 0048 03       		.uleb128 0x3
 3086 0049 0E       		.uleb128 0xe
 3087 004a 3A       		.uleb128 0x3a
 3088 004b 0B       		.uleb128 0xb
 3089 004c 3B       		.uleb128 0x3b
 3090 004d 0B       		.uleb128 0xb
 3091 004e 49       		.uleb128 0x49
 3092 004f 13       		.uleb128 0x13
 3093 0050 38       		.uleb128 0x38
 3094 0051 0B       		.uleb128 0xb
 3095 0052 00       		.byte	0
 3096 0053 00       		.byte	0
 3097 0054 07       		.uleb128 0x7
 3098 0055 0D       		.uleb128 0xd
 3099 0056 00       		.byte	0
 3100 0057 03       		.uleb128 0x3
 3101 0058 08       		.uleb128 0x8
 3102 0059 3A       		.uleb128 0x3a
 3103 005a 0B       		.uleb128 0xb
 3104 005b 3B       		.uleb128 0x3b
 3105 005c 0B       		.uleb128 0xb
 3106 005d 49       		.uleb128 0x49
 3107 005e 13       		.uleb128 0x13
 3108 005f 38       		.uleb128 0x38
 3109 0060 0B       		.uleb128 0xb
 3110 0061 00       		.byte	0
 3111 0062 00       		.byte	0
 3112 0063 08       		.uleb128 0x8
 3113 0064 0D       		.uleb128 0xd
 3114 0065 00       		.byte	0
 3115 0066 03       		.uleb128 0x3
 3116 0067 08       		.uleb128 0x8
 3117 0068 3A       		.uleb128 0x3a
 3118 0069 0B       		.uleb128 0xb
 3119 006a 3B       		.uleb128 0x3b
 3120 006b 05       		.uleb128 0x5
 3121 006c 49       		.uleb128 0x49
 3122 006d 13       		.uleb128 0x13
 3123 006e 38       		.uleb128 0x38
 3124 006f 0B       		.uleb128 0xb
 3125 0070 00       		.byte	0
 3126 0071 00       		.byte	0
 3127 0072 09       		.uleb128 0x9
 3128 0073 0D       		.uleb128 0xd
 3129 0074 00       		.byte	0
 3130 0075 03       		.uleb128 0x3
 3131 0076 0E       		.uleb128 0xe
 3132 0077 3A       		.uleb128 0x3a
 3133 0078 0B       		.uleb128 0xb
 3134 0079 3B       		.uleb128 0x3b
 3135 007a 05       		.uleb128 0x5
ARM GAS  /tmp/cc7TrS54.s 			page 56


 3136 007b 49       		.uleb128 0x49
 3137 007c 13       		.uleb128 0x13
 3138 007d 38       		.uleb128 0x38
 3139 007e 0B       		.uleb128 0xb
 3140 007f 00       		.byte	0
 3141 0080 00       		.byte	0
 3142 0081 0A       		.uleb128 0xa
 3143 0082 0F       		.uleb128 0xf
 3144 0083 00       		.byte	0
 3145 0084 0B       		.uleb128 0xb
 3146 0085 0B       		.uleb128 0xb
 3147 0086 49       		.uleb128 0x49
 3148 0087 13       		.uleb128 0x13
 3149 0088 00       		.byte	0
 3150 0089 00       		.byte	0
 3151 008a 0B       		.uleb128 0xb
 3152 008b 13       		.uleb128 0x13
 3153 008c 01       		.byte	0x1
 3154 008d 03       		.uleb128 0x3
 3155 008e 0E       		.uleb128 0xe
 3156 008f 0B       		.uleb128 0xb
 3157 0090 0B       		.uleb128 0xb
 3158 0091 3A       		.uleb128 0x3a
 3159 0092 0B       		.uleb128 0xb
 3160 0093 3B       		.uleb128 0x3b
 3161 0094 05       		.uleb128 0x5
 3162 0095 01       		.uleb128 0x1
 3163 0096 13       		.uleb128 0x13
 3164 0097 00       		.byte	0
 3165 0098 00       		.byte	0
 3166 0099 0C       		.uleb128 0xc
 3167 009a 15       		.uleb128 0x15
 3168 009b 01       		.byte	0x1
 3169 009c 27       		.uleb128 0x27
 3170 009d 19       		.uleb128 0x19
 3171 009e 01       		.uleb128 0x1
 3172 009f 13       		.uleb128 0x13
 3173 00a0 00       		.byte	0
 3174 00a1 00       		.byte	0
 3175 00a2 0D       		.uleb128 0xd
 3176 00a3 05       		.uleb128 0x5
 3177 00a4 00       		.byte	0
 3178 00a5 49       		.uleb128 0x49
 3179 00a6 13       		.uleb128 0x13
 3180 00a7 00       		.byte	0
 3181 00a8 00       		.byte	0
 3182 00a9 0E       		.uleb128 0xe
 3183 00aa 0F       		.uleb128 0xf
 3184 00ab 00       		.byte	0
 3185 00ac 0B       		.uleb128 0xb
 3186 00ad 0B       		.uleb128 0xb
 3187 00ae 00       		.byte	0
 3188 00af 00       		.byte	0
 3189 00b0 0F       		.uleb128 0xf
 3190 00b1 13       		.uleb128 0x13
 3191 00b2 01       		.byte	0x1
 3192 00b3 0B       		.uleb128 0xb
ARM GAS  /tmp/cc7TrS54.s 			page 57


 3193 00b4 0B       		.uleb128 0xb
 3194 00b5 3A       		.uleb128 0x3a
 3195 00b6 0B       		.uleb128 0xb
 3196 00b7 3B       		.uleb128 0x3b
 3197 00b8 0B       		.uleb128 0xb
 3198 00b9 01       		.uleb128 0x1
 3199 00ba 13       		.uleb128 0x13
 3200 00bb 00       		.byte	0
 3201 00bc 00       		.byte	0
 3202 00bd 10       		.uleb128 0x10
 3203 00be 17       		.uleb128 0x17
 3204 00bf 01       		.byte	0x1
 3205 00c0 0B       		.uleb128 0xb
 3206 00c1 0B       		.uleb128 0xb
 3207 00c2 3A       		.uleb128 0x3a
 3208 00c3 0B       		.uleb128 0xb
 3209 00c4 3B       		.uleb128 0x3b
 3210 00c5 0B       		.uleb128 0xb
 3211 00c6 01       		.uleb128 0x1
 3212 00c7 13       		.uleb128 0x13
 3213 00c8 00       		.byte	0
 3214 00c9 00       		.byte	0
 3215 00ca 11       		.uleb128 0x11
 3216 00cb 0D       		.uleb128 0xd
 3217 00cc 00       		.byte	0
 3218 00cd 03       		.uleb128 0x3
 3219 00ce 0E       		.uleb128 0xe
 3220 00cf 3A       		.uleb128 0x3a
 3221 00d0 0B       		.uleb128 0xb
 3222 00d1 3B       		.uleb128 0x3b
 3223 00d2 0B       		.uleb128 0xb
 3224 00d3 49       		.uleb128 0x49
 3225 00d4 13       		.uleb128 0x13
 3226 00d5 00       		.byte	0
 3227 00d6 00       		.byte	0
 3228 00d7 12       		.uleb128 0x12
 3229 00d8 0D       		.uleb128 0xd
 3230 00d9 00       		.byte	0
 3231 00da 03       		.uleb128 0x3
 3232 00db 0E       		.uleb128 0xe
 3233 00dc 3A       		.uleb128 0x3a
 3234 00dd 0B       		.uleb128 0xb
 3235 00de 3B       		.uleb128 0x3b
 3236 00df 05       		.uleb128 0x5
 3237 00e0 49       		.uleb128 0x49
 3238 00e1 13       		.uleb128 0x13
 3239 00e2 00       		.byte	0
 3240 00e3 00       		.byte	0
 3241 00e4 13       		.uleb128 0x13
 3242 00e5 26       		.uleb128 0x26
 3243 00e6 00       		.byte	0
 3244 00e7 49       		.uleb128 0x49
 3245 00e8 13       		.uleb128 0x13
 3246 00e9 00       		.byte	0
 3247 00ea 00       		.byte	0
 3248 00eb 14       		.uleb128 0x14
 3249 00ec 35       		.uleb128 0x35
ARM GAS  /tmp/cc7TrS54.s 			page 58


 3250 00ed 00       		.byte	0
 3251 00ee 49       		.uleb128 0x49
 3252 00ef 13       		.uleb128 0x13
 3253 00f0 00       		.byte	0
 3254 00f1 00       		.byte	0
 3255 00f2 15       		.uleb128 0x15
 3256 00f3 2E       		.uleb128 0x2e
 3257 00f4 01       		.byte	0x1
 3258 00f5 03       		.uleb128 0x3
 3259 00f6 0E       		.uleb128 0xe
 3260 00f7 3A       		.uleb128 0x3a
 3261 00f8 0B       		.uleb128 0xb
 3262 00f9 3B       		.uleb128 0x3b
 3263 00fa 05       		.uleb128 0x5
 3264 00fb 27       		.uleb128 0x27
 3265 00fc 19       		.uleb128 0x19
 3266 00fd 20       		.uleb128 0x20
 3267 00fe 0B       		.uleb128 0xb
 3268 00ff 01       		.uleb128 0x1
 3269 0100 13       		.uleb128 0x13
 3270 0101 00       		.byte	0
 3271 0102 00       		.byte	0
 3272 0103 16       		.uleb128 0x16
 3273 0104 05       		.uleb128 0x5
 3274 0105 00       		.byte	0
 3275 0106 03       		.uleb128 0x3
 3276 0107 0E       		.uleb128 0xe
 3277 0108 3A       		.uleb128 0x3a
 3278 0109 0B       		.uleb128 0xb
 3279 010a 3B       		.uleb128 0x3b
 3280 010b 05       		.uleb128 0x5
 3281 010c 49       		.uleb128 0x49
 3282 010d 13       		.uleb128 0x13
 3283 010e 00       		.byte	0
 3284 010f 00       		.byte	0
 3285 0110 17       		.uleb128 0x17
 3286 0111 2E       		.uleb128 0x2e
 3287 0112 00       		.byte	0
 3288 0113 03       		.uleb128 0x3
 3289 0114 0E       		.uleb128 0xe
 3290 0115 3A       		.uleb128 0x3a
 3291 0116 0B       		.uleb128 0xb
 3292 0117 3B       		.uleb128 0x3b
 3293 0118 05       		.uleb128 0x5
 3294 0119 27       		.uleb128 0x27
 3295 011a 19       		.uleb128 0x19
 3296 011b 20       		.uleb128 0x20
 3297 011c 0B       		.uleb128 0xb
 3298 011d 00       		.byte	0
 3299 011e 00       		.byte	0
 3300 011f 18       		.uleb128 0x18
 3301 0120 2E       		.uleb128 0x2e
 3302 0121 01       		.byte	0x1
 3303 0122 03       		.uleb128 0x3
 3304 0123 0E       		.uleb128 0xe
 3305 0124 3A       		.uleb128 0x3a
 3306 0125 0B       		.uleb128 0xb
ARM GAS  /tmp/cc7TrS54.s 			page 59


 3307 0126 3B       		.uleb128 0x3b
 3308 0127 05       		.uleb128 0x5
 3309 0128 27       		.uleb128 0x27
 3310 0129 19       		.uleb128 0x19
 3311 012a 11       		.uleb128 0x11
 3312 012b 01       		.uleb128 0x1
 3313 012c 12       		.uleb128 0x12
 3314 012d 06       		.uleb128 0x6
 3315 012e 40       		.uleb128 0x40
 3316 012f 18       		.uleb128 0x18
 3317 0130 9742     		.uleb128 0x2117
 3318 0132 19       		.uleb128 0x19
 3319 0133 01       		.uleb128 0x1
 3320 0134 13       		.uleb128 0x13
 3321 0135 00       		.byte	0
 3322 0136 00       		.byte	0
 3323 0137 19       		.uleb128 0x19
 3324 0138 1D       		.uleb128 0x1d
 3325 0139 01       		.byte	0x1
 3326 013a 31       		.uleb128 0x31
 3327 013b 13       		.uleb128 0x13
 3328 013c 11       		.uleb128 0x11
 3329 013d 01       		.uleb128 0x1
 3330 013e 12       		.uleb128 0x12
 3331 013f 06       		.uleb128 0x6
 3332 0140 58       		.uleb128 0x58
 3333 0141 0B       		.uleb128 0xb
 3334 0142 59       		.uleb128 0x59
 3335 0143 05       		.uleb128 0x5
 3336 0144 01       		.uleb128 0x1
 3337 0145 13       		.uleb128 0x13
 3338 0146 00       		.byte	0
 3339 0147 00       		.byte	0
 3340 0148 1A       		.uleb128 0x1a
 3341 0149 1D       		.uleb128 0x1d
 3342 014a 01       		.byte	0x1
 3343 014b 31       		.uleb128 0x31
 3344 014c 13       		.uleb128 0x13
 3345 014d 11       		.uleb128 0x11
 3346 014e 01       		.uleb128 0x1
 3347 014f 12       		.uleb128 0x12
 3348 0150 06       		.uleb128 0x6
 3349 0151 58       		.uleb128 0x58
 3350 0152 0B       		.uleb128 0xb
 3351 0153 59       		.uleb128 0x59
 3352 0154 05       		.uleb128 0x5
 3353 0155 00       		.byte	0
 3354 0156 00       		.byte	0
 3355 0157 1B       		.uleb128 0x1b
 3356 0158 05       		.uleb128 0x5
 3357 0159 00       		.byte	0
 3358 015a 31       		.uleb128 0x31
 3359 015b 13       		.uleb128 0x13
 3360 015c 1C       		.uleb128 0x1c
 3361 015d 0B       		.uleb128 0xb
 3362 015e 00       		.byte	0
 3363 015f 00       		.byte	0
ARM GAS  /tmp/cc7TrS54.s 			page 60


 3364 0160 1C       		.uleb128 0x1c
 3365 0161 898201   		.uleb128 0x4109
 3366 0164 00       		.byte	0
 3367 0165 11       		.uleb128 0x11
 3368 0166 01       		.uleb128 0x1
 3369 0167 9542     		.uleb128 0x2115
 3370 0169 19       		.uleb128 0x19
 3371 016a 31       		.uleb128 0x31
 3372 016b 13       		.uleb128 0x13
 3373 016c 00       		.byte	0
 3374 016d 00       		.byte	0
 3375 016e 1D       		.uleb128 0x1d
 3376 016f 34       		.uleb128 0x34
 3377 0170 00       		.byte	0
 3378 0171 03       		.uleb128 0x3
 3379 0172 0E       		.uleb128 0xe
 3380 0173 49       		.uleb128 0x49
 3381 0174 13       		.uleb128 0x13
 3382 0175 34       		.uleb128 0x34
 3383 0176 19       		.uleb128 0x19
 3384 0177 00       		.byte	0
 3385 0178 00       		.byte	0
 3386 0179 1E       		.uleb128 0x1e
 3387 017a 898201   		.uleb128 0x4109
 3388 017d 00       		.byte	0
 3389 017e 11       		.uleb128 0x11
 3390 017f 01       		.uleb128 0x1
 3391 0180 31       		.uleb128 0x31
 3392 0181 13       		.uleb128 0x13
 3393 0182 00       		.byte	0
 3394 0183 00       		.byte	0
 3395 0184 1F       		.uleb128 0x1f
 3396 0185 01       		.uleb128 0x1
 3397 0186 01       		.byte	0x1
 3398 0187 49       		.uleb128 0x49
 3399 0188 13       		.uleb128 0x13
 3400 0189 01       		.uleb128 0x1
 3401 018a 13       		.uleb128 0x13
 3402 018b 00       		.byte	0
 3403 018c 00       		.byte	0
 3404 018d 20       		.uleb128 0x20
 3405 018e 21       		.uleb128 0x21
 3406 018f 00       		.byte	0
 3407 0190 49       		.uleb128 0x49
 3408 0191 13       		.uleb128 0x13
 3409 0192 2F       		.uleb128 0x2f
 3410 0193 0B       		.uleb128 0xb
 3411 0194 00       		.byte	0
 3412 0195 00       		.byte	0
 3413 0196 21       		.uleb128 0x21
 3414 0197 2E       		.uleb128 0x2e
 3415 0198 01       		.byte	0x1
 3416 0199 3F       		.uleb128 0x3f
 3417 019a 19       		.uleb128 0x19
 3418 019b 03       		.uleb128 0x3
 3419 019c 0E       		.uleb128 0xe
 3420 019d 3A       		.uleb128 0x3a
ARM GAS  /tmp/cc7TrS54.s 			page 61


 3421 019e 0B       		.uleb128 0xb
 3422 019f 3B       		.uleb128 0x3b
 3423 01a0 0B       		.uleb128 0xb
 3424 01a1 27       		.uleb128 0x27
 3425 01a2 19       		.uleb128 0x19
 3426 01a3 11       		.uleb128 0x11
 3427 01a4 01       		.uleb128 0x1
 3428 01a5 12       		.uleb128 0x12
 3429 01a6 06       		.uleb128 0x6
 3430 01a7 40       		.uleb128 0x40
 3431 01a8 18       		.uleb128 0x18
 3432 01a9 9742     		.uleb128 0x2117
 3433 01ab 19       		.uleb128 0x19
 3434 01ac 01       		.uleb128 0x1
 3435 01ad 13       		.uleb128 0x13
 3436 01ae 00       		.byte	0
 3437 01af 00       		.byte	0
 3438 01b0 22       		.uleb128 0x22
 3439 01b1 05       		.uleb128 0x5
 3440 01b2 00       		.byte	0
 3441 01b3 03       		.uleb128 0x3
 3442 01b4 08       		.uleb128 0x8
 3443 01b5 3A       		.uleb128 0x3a
 3444 01b6 0B       		.uleb128 0xb
 3445 01b7 3B       		.uleb128 0x3b
 3446 01b8 0B       		.uleb128 0xb
 3447 01b9 49       		.uleb128 0x49
 3448 01ba 13       		.uleb128 0x13
 3449 01bb 02       		.uleb128 0x2
 3450 01bc 17       		.uleb128 0x17
 3451 01bd 00       		.byte	0
 3452 01be 00       		.byte	0
 3453 01bf 23       		.uleb128 0x23
 3454 01c0 05       		.uleb128 0x5
 3455 01c1 00       		.byte	0
 3456 01c2 03       		.uleb128 0x3
 3457 01c3 0E       		.uleb128 0xe
 3458 01c4 3A       		.uleb128 0x3a
 3459 01c5 0B       		.uleb128 0xb
 3460 01c6 3B       		.uleb128 0x3b
 3461 01c7 0B       		.uleb128 0xb
 3462 01c8 49       		.uleb128 0x49
 3463 01c9 13       		.uleb128 0x13
 3464 01ca 02       		.uleb128 0x2
 3465 01cb 17       		.uleb128 0x17
 3466 01cc 00       		.byte	0
 3467 01cd 00       		.byte	0
 3468 01ce 24       		.uleb128 0x24
 3469 01cf 34       		.uleb128 0x34
 3470 01d0 00       		.byte	0
 3471 01d1 03       		.uleb128 0x3
 3472 01d2 08       		.uleb128 0x8
 3473 01d3 3A       		.uleb128 0x3a
 3474 01d4 0B       		.uleb128 0xb
 3475 01d5 3B       		.uleb128 0x3b
 3476 01d6 0B       		.uleb128 0xb
 3477 01d7 49       		.uleb128 0x49
ARM GAS  /tmp/cc7TrS54.s 			page 62


 3478 01d8 13       		.uleb128 0x13
 3479 01d9 02       		.uleb128 0x2
 3480 01da 17       		.uleb128 0x17
 3481 01db 00       		.byte	0
 3482 01dc 00       		.byte	0
 3483 01dd 25       		.uleb128 0x25
 3484 01de 2E       		.uleb128 0x2e
 3485 01df 01       		.byte	0x1
 3486 01e0 3F       		.uleb128 0x3f
 3487 01e1 19       		.uleb128 0x19
 3488 01e2 03       		.uleb128 0x3
 3489 01e3 0E       		.uleb128 0xe
 3490 01e4 3A       		.uleb128 0x3a
 3491 01e5 0B       		.uleb128 0xb
 3492 01e6 3B       		.uleb128 0x3b
 3493 01e7 0B       		.uleb128 0xb
 3494 01e8 27       		.uleb128 0x27
 3495 01e9 19       		.uleb128 0x19
 3496 01ea 49       		.uleb128 0x49
 3497 01eb 13       		.uleb128 0x13
 3498 01ec 11       		.uleb128 0x11
 3499 01ed 01       		.uleb128 0x1
 3500 01ee 12       		.uleb128 0x12
 3501 01ef 06       		.uleb128 0x6
 3502 01f0 40       		.uleb128 0x40
 3503 01f1 18       		.uleb128 0x18
 3504 01f2 9742     		.uleb128 0x2117
 3505 01f4 19       		.uleb128 0x19
 3506 01f5 01       		.uleb128 0x1
 3507 01f6 13       		.uleb128 0x13
 3508 01f7 00       		.byte	0
 3509 01f8 00       		.byte	0
 3510 01f9 26       		.uleb128 0x26
 3511 01fa 34       		.uleb128 0x34
 3512 01fb 00       		.byte	0
 3513 01fc 03       		.uleb128 0x3
 3514 01fd 0E       		.uleb128 0xe
 3515 01fe 3A       		.uleb128 0x3a
 3516 01ff 0B       		.uleb128 0xb
 3517 0200 3B       		.uleb128 0x3b
 3518 0201 0B       		.uleb128 0xb
 3519 0202 49       		.uleb128 0x49
 3520 0203 13       		.uleb128 0x13
 3521 0204 02       		.uleb128 0x2
 3522 0205 18       		.uleb128 0x18
 3523 0206 00       		.byte	0
 3524 0207 00       		.byte	0
 3525 0208 27       		.uleb128 0x27
 3526 0209 2E       		.uleb128 0x2e
 3527 020a 01       		.byte	0x1
 3528 020b 3F       		.uleb128 0x3f
 3529 020c 19       		.uleb128 0x19
 3530 020d 03       		.uleb128 0x3
 3531 020e 0E       		.uleb128 0xe
 3532 020f 3A       		.uleb128 0x3a
 3533 0210 0B       		.uleb128 0xb
 3534 0211 3B       		.uleb128 0x3b
ARM GAS  /tmp/cc7TrS54.s 			page 63


 3535 0212 05       		.uleb128 0x5
 3536 0213 27       		.uleb128 0x27
 3537 0214 19       		.uleb128 0x19
 3538 0215 11       		.uleb128 0x11
 3539 0216 01       		.uleb128 0x1
 3540 0217 12       		.uleb128 0x12
 3541 0218 06       		.uleb128 0x6
 3542 0219 40       		.uleb128 0x40
 3543 021a 18       		.uleb128 0x18
 3544 021b 9742     		.uleb128 0x2117
 3545 021d 19       		.uleb128 0x19
 3546 021e 01       		.uleb128 0x1
 3547 021f 13       		.uleb128 0x13
 3548 0220 00       		.byte	0
 3549 0221 00       		.byte	0
 3550 0222 28       		.uleb128 0x28
 3551 0223 05       		.uleb128 0x5
 3552 0224 00       		.byte	0
 3553 0225 03       		.uleb128 0x3
 3554 0226 08       		.uleb128 0x8
 3555 0227 3A       		.uleb128 0x3a
 3556 0228 0B       		.uleb128 0xb
 3557 0229 3B       		.uleb128 0x3b
 3558 022a 05       		.uleb128 0x5
 3559 022b 49       		.uleb128 0x49
 3560 022c 13       		.uleb128 0x13
 3561 022d 02       		.uleb128 0x2
 3562 022e 17       		.uleb128 0x17
 3563 022f 00       		.byte	0
 3564 0230 00       		.byte	0
 3565 0231 29       		.uleb128 0x29
 3566 0232 05       		.uleb128 0x5
 3567 0233 00       		.byte	0
 3568 0234 03       		.uleb128 0x3
 3569 0235 0E       		.uleb128 0xe
 3570 0236 3A       		.uleb128 0x3a
 3571 0237 0B       		.uleb128 0xb
 3572 0238 3B       		.uleb128 0x3b
 3573 0239 05       		.uleb128 0x5
 3574 023a 49       		.uleb128 0x49
 3575 023b 13       		.uleb128 0x13
 3576 023c 02       		.uleb128 0x2
 3577 023d 17       		.uleb128 0x17
 3578 023e 00       		.byte	0
 3579 023f 00       		.byte	0
 3580 0240 2A       		.uleb128 0x2a
 3581 0241 898201   		.uleb128 0x4109
 3582 0244 01       		.byte	0x1
 3583 0245 11       		.uleb128 0x11
 3584 0246 01       		.uleb128 0x1
 3585 0247 9542     		.uleb128 0x2115
 3586 0249 19       		.uleb128 0x19
 3587 024a 31       		.uleb128 0x31
 3588 024b 13       		.uleb128 0x13
 3589 024c 00       		.byte	0
 3590 024d 00       		.byte	0
 3591 024e 2B       		.uleb128 0x2b
ARM GAS  /tmp/cc7TrS54.s 			page 64


 3592 024f 8A8201   		.uleb128 0x410a
 3593 0252 00       		.byte	0
 3594 0253 02       		.uleb128 0x2
 3595 0254 18       		.uleb128 0x18
 3596 0255 9142     		.uleb128 0x2111
 3597 0257 18       		.uleb128 0x18
 3598 0258 00       		.byte	0
 3599 0259 00       		.byte	0
 3600 025a 2C       		.uleb128 0x2c
 3601 025b 34       		.uleb128 0x34
 3602 025c 00       		.byte	0
 3603 025d 03       		.uleb128 0x3
 3604 025e 08       		.uleb128 0x8
 3605 025f 3A       		.uleb128 0x3a
 3606 0260 0B       		.uleb128 0xb
 3607 0261 3B       		.uleb128 0x3b
 3608 0262 0B       		.uleb128 0xb
 3609 0263 49       		.uleb128 0x49
 3610 0264 13       		.uleb128 0x13
 3611 0265 02       		.uleb128 0x2
 3612 0266 18       		.uleb128 0x18
 3613 0267 00       		.byte	0
 3614 0268 00       		.byte	0
 3615 0269 2D       		.uleb128 0x2d
 3616 026a 898201   		.uleb128 0x4109
 3617 026d 01       		.byte	0x1
 3618 026e 11       		.uleb128 0x11
 3619 026f 01       		.uleb128 0x1
 3620 0270 31       		.uleb128 0x31
 3621 0271 13       		.uleb128 0x13
 3622 0272 01       		.uleb128 0x1
 3623 0273 13       		.uleb128 0x13
 3624 0274 00       		.byte	0
 3625 0275 00       		.byte	0
 3626 0276 2E       		.uleb128 0x2e
 3627 0277 2E       		.uleb128 0x2e
 3628 0278 01       		.byte	0x1
 3629 0279 3F       		.uleb128 0x3f
 3630 027a 19       		.uleb128 0x19
 3631 027b 03       		.uleb128 0x3
 3632 027c 0E       		.uleb128 0xe
 3633 027d 3A       		.uleb128 0x3a
 3634 027e 0B       		.uleb128 0xb
 3635 027f 3B       		.uleb128 0x3b
 3636 0280 05       		.uleb128 0x5
 3637 0281 27       		.uleb128 0x27
 3638 0282 19       		.uleb128 0x19
 3639 0283 49       		.uleb128 0x49
 3640 0284 13       		.uleb128 0x13
 3641 0285 11       		.uleb128 0x11
 3642 0286 01       		.uleb128 0x1
 3643 0287 12       		.uleb128 0x12
 3644 0288 06       		.uleb128 0x6
 3645 0289 40       		.uleb128 0x40
 3646 028a 18       		.uleb128 0x18
 3647 028b 9742     		.uleb128 0x2117
 3648 028d 19       		.uleb128 0x19
ARM GAS  /tmp/cc7TrS54.s 			page 65


 3649 028e 01       		.uleb128 0x1
 3650 028f 13       		.uleb128 0x13
 3651 0290 00       		.byte	0
 3652 0291 00       		.byte	0
 3653 0292 2F       		.uleb128 0x2f
 3654 0293 34       		.uleb128 0x34
 3655 0294 00       		.byte	0
 3656 0295 03       		.uleb128 0x3
 3657 0296 0E       		.uleb128 0xe
 3658 0297 3A       		.uleb128 0x3a
 3659 0298 0B       		.uleb128 0xb
 3660 0299 3B       		.uleb128 0x3b
 3661 029a 05       		.uleb128 0x5
 3662 029b 49       		.uleb128 0x49
 3663 029c 13       		.uleb128 0x13
 3664 029d 02       		.uleb128 0x2
 3665 029e 18       		.uleb128 0x18
 3666 029f 00       		.byte	0
 3667 02a0 00       		.byte	0
 3668 02a1 30       		.uleb128 0x30
 3669 02a2 34       		.uleb128 0x34
 3670 02a3 00       		.byte	0
 3671 02a4 03       		.uleb128 0x3
 3672 02a5 08       		.uleb128 0x8
 3673 02a6 3A       		.uleb128 0x3a
 3674 02a7 0B       		.uleb128 0xb
 3675 02a8 3B       		.uleb128 0x3b
 3676 02a9 05       		.uleb128 0x5
 3677 02aa 49       		.uleb128 0x49
 3678 02ab 13       		.uleb128 0x13
 3679 02ac 02       		.uleb128 0x2
 3680 02ad 17       		.uleb128 0x17
 3681 02ae 00       		.byte	0
 3682 02af 00       		.byte	0
 3683 02b0 31       		.uleb128 0x31
 3684 02b1 898201   		.uleb128 0x4109
 3685 02b4 01       		.byte	0x1
 3686 02b5 11       		.uleb128 0x11
 3687 02b6 01       		.uleb128 0x1
 3688 02b7 00       		.byte	0
 3689 02b8 00       		.byte	0
 3690 02b9 32       		.uleb128 0x32
 3691 02ba 34       		.uleb128 0x34
 3692 02bb 00       		.byte	0
 3693 02bc 03       		.uleb128 0x3
 3694 02bd 0E       		.uleb128 0xe
 3695 02be 3A       		.uleb128 0x3a
 3696 02bf 0B       		.uleb128 0xb
 3697 02c0 3B       		.uleb128 0x3b
 3698 02c1 05       		.uleb128 0x5
 3699 02c2 49       		.uleb128 0x49
 3700 02c3 13       		.uleb128 0x13
 3701 02c4 3F       		.uleb128 0x3f
 3702 02c5 19       		.uleb128 0x19
 3703 02c6 3C       		.uleb128 0x3c
 3704 02c7 19       		.uleb128 0x19
 3705 02c8 00       		.byte	0
ARM GAS  /tmp/cc7TrS54.s 			page 66


 3706 02c9 00       		.byte	0
 3707 02ca 33       		.uleb128 0x33
 3708 02cb 34       		.uleb128 0x34
 3709 02cc 00       		.byte	0
 3710 02cd 03       		.uleb128 0x3
 3711 02ce 08       		.uleb128 0x8
 3712 02cf 3A       		.uleb128 0x3a
 3713 02d0 0B       		.uleb128 0xb
 3714 02d1 3B       		.uleb128 0x3b
 3715 02d2 05       		.uleb128 0x5
 3716 02d3 49       		.uleb128 0x49
 3717 02d4 13       		.uleb128 0x13
 3718 02d5 3F       		.uleb128 0x3f
 3719 02d6 19       		.uleb128 0x19
 3720 02d7 3C       		.uleb128 0x3c
 3721 02d8 19       		.uleb128 0x19
 3722 02d9 00       		.byte	0
 3723 02da 00       		.byte	0
 3724 02db 34       		.uleb128 0x34
 3725 02dc 2E       		.uleb128 0x2e
 3726 02dd 00       		.byte	0
 3727 02de 3F       		.uleb128 0x3f
 3728 02df 19       		.uleb128 0x19
 3729 02e0 03       		.uleb128 0x3
 3730 02e1 0E       		.uleb128 0xe
 3731 02e2 3A       		.uleb128 0x3a
 3732 02e3 0B       		.uleb128 0xb
 3733 02e4 3B       		.uleb128 0x3b
 3734 02e5 0B       		.uleb128 0xb
 3735 02e6 27       		.uleb128 0x27
 3736 02e7 19       		.uleb128 0x19
 3737 02e8 3C       		.uleb128 0x3c
 3738 02e9 19       		.uleb128 0x19
 3739 02ea 00       		.byte	0
 3740 02eb 00       		.byte	0
 3741 02ec 35       		.uleb128 0x35
 3742 02ed 2E       		.uleb128 0x2e
 3743 02ee 01       		.byte	0x1
 3744 02ef 3F       		.uleb128 0x3f
 3745 02f0 19       		.uleb128 0x19
 3746 02f1 03       		.uleb128 0x3
 3747 02f2 0E       		.uleb128 0xe
 3748 02f3 3A       		.uleb128 0x3a
 3749 02f4 0B       		.uleb128 0xb
 3750 02f5 3B       		.uleb128 0x3b
 3751 02f6 05       		.uleb128 0x5
 3752 02f7 27       		.uleb128 0x27
 3753 02f8 19       		.uleb128 0x19
 3754 02f9 49       		.uleb128 0x49
 3755 02fa 13       		.uleb128 0x13
 3756 02fb 3C       		.uleb128 0x3c
 3757 02fc 19       		.uleb128 0x19
 3758 02fd 01       		.uleb128 0x1
 3759 02fe 13       		.uleb128 0x13
 3760 02ff 00       		.byte	0
 3761 0300 00       		.byte	0
 3762 0301 36       		.uleb128 0x36
ARM GAS  /tmp/cc7TrS54.s 			page 67


 3763 0302 2E       		.uleb128 0x2e
 3764 0303 00       		.byte	0
 3765 0304 3F       		.uleb128 0x3f
 3766 0305 19       		.uleb128 0x19
 3767 0306 03       		.uleb128 0x3
 3768 0307 0E       		.uleb128 0xe
 3769 0308 3A       		.uleb128 0x3a
 3770 0309 0B       		.uleb128 0xb
 3771 030a 3B       		.uleb128 0x3b
 3772 030b 05       		.uleb128 0x5
 3773 030c 27       		.uleb128 0x27
 3774 030d 19       		.uleb128 0x19
 3775 030e 3C       		.uleb128 0x3c
 3776 030f 19       		.uleb128 0x19
 3777 0310 00       		.byte	0
 3778 0311 00       		.byte	0
 3779 0312 37       		.uleb128 0x37
 3780 0313 2E       		.uleb128 0x2e
 3781 0314 01       		.byte	0x1
 3782 0315 3F       		.uleb128 0x3f
 3783 0316 19       		.uleb128 0x19
 3784 0317 03       		.uleb128 0x3
 3785 0318 0E       		.uleb128 0xe
 3786 0319 3A       		.uleb128 0x3a
 3787 031a 0B       		.uleb128 0xb
 3788 031b 3B       		.uleb128 0x3b
 3789 031c 05       		.uleb128 0x5
 3790 031d 27       		.uleb128 0x27
 3791 031e 19       		.uleb128 0x19
 3792 031f 3C       		.uleb128 0x3c
 3793 0320 19       		.uleb128 0x19
 3794 0321 01       		.uleb128 0x1
 3795 0322 13       		.uleb128 0x13
 3796 0323 00       		.byte	0
 3797 0324 00       		.byte	0
 3798 0325 38       		.uleb128 0x38
 3799 0326 2E       		.uleb128 0x2e
 3800 0327 01       		.byte	0x1
 3801 0328 3F       		.uleb128 0x3f
 3802 0329 19       		.uleb128 0x19
 3803 032a 03       		.uleb128 0x3
 3804 032b 0E       		.uleb128 0xe
 3805 032c 3A       		.uleb128 0x3a
 3806 032d 0B       		.uleb128 0xb
 3807 032e 3B       		.uleb128 0x3b
 3808 032f 05       		.uleb128 0x5
 3809 0330 27       		.uleb128 0x27
 3810 0331 19       		.uleb128 0x19
 3811 0332 49       		.uleb128 0x49
 3812 0333 13       		.uleb128 0x13
 3813 0334 3C       		.uleb128 0x3c
 3814 0335 19       		.uleb128 0x19
 3815 0336 00       		.byte	0
 3816 0337 00       		.byte	0
 3817 0338 00       		.byte	0
 3818              		.section	.debug_loc,"",%progbits
 3819              	.Ldebug_loc0:
ARM GAS  /tmp/cc7TrS54.s 			page 68


 3820              	.LLST0:
 3821 0000 00000000 		.4byte	.LVL3
 3822 0004 0D000000 		.4byte	.LVL4-1
 3823 0008 0100     		.2byte	0x1
 3824 000a 50       		.byte	0x50
 3825 000b 0D000000 		.4byte	.LVL4-1
 3826 000f 26000000 		.4byte	.LVL5
 3827 0013 0100     		.2byte	0x1
 3828 0015 55       		.byte	0x55
 3829 0016 26000000 		.4byte	.LVL5
 3830 001a 30000000 		.4byte	.LFE246
 3831 001e 0400     		.2byte	0x4
 3832 0020 F3       		.byte	0xf3
 3833 0021 01       		.uleb128 0x1
 3834 0022 50       		.byte	0x50
 3835 0023 9F       		.byte	0x9f
 3836 0024 00000000 		.4byte	0
 3837 0028 00000000 		.4byte	0
 3838              	.LLST1:
 3839 002c 00000000 		.4byte	.LVL3
 3840 0030 0D000000 		.4byte	.LVL4-1
 3841 0034 0100     		.2byte	0x1
 3842 0036 51       		.byte	0x51
 3843 0037 0D000000 		.4byte	.LVL4-1
 3844 003b 26000000 		.4byte	.LVL5
 3845 003f 0100     		.2byte	0x1
 3846 0041 54       		.byte	0x54
 3847 0042 26000000 		.4byte	.LVL5
 3848 0046 29000000 		.4byte	.LVL6-1
 3849 004a 0300     		.2byte	0x3
 3850 004c F3       		.byte	0xf3
 3851 004d 01       		.uleb128 0x1
 3852 004e 50       		.byte	0x50
 3853 004f 29000000 		.4byte	.LVL6-1
 3854 0053 30000000 		.4byte	.LFE246
 3855 0057 0400     		.2byte	0x4
 3856 0059 F3       		.byte	0xf3
 3857 005a 01       		.uleb128 0x1
 3858 005b 51       		.byte	0x51
 3859 005c 9F       		.byte	0x9f
 3860 005d 00000000 		.4byte	0
 3861 0061 00000000 		.4byte	0
 3862              	.LLST2:
 3863 0065 00000000 		.4byte	.LVL3
 3864 0069 0D000000 		.4byte	.LVL4-1
 3865 006d 0100     		.2byte	0x1
 3866 006f 52       		.byte	0x52
 3867 0070 0D000000 		.4byte	.LVL4-1
 3868 0074 26000000 		.4byte	.LVL5
 3869 0078 0100     		.2byte	0x1
 3870 007a 57       		.byte	0x57
 3871 007b 26000000 		.4byte	.LVL5
 3872 007f 29000000 		.4byte	.LVL6-1
 3873 0083 0600     		.2byte	0x6
 3874 0085 F3       		.byte	0xf3
 3875 0086 01       		.uleb128 0x1
 3876 0087 50       		.byte	0x50
ARM GAS  /tmp/cc7TrS54.s 			page 69


 3877 0088 06       		.byte	0x6
 3878 0089 23       		.byte	0x23
 3879 008a 08       		.uleb128 0x8
 3880 008b 29000000 		.4byte	.LVL6-1
 3881 008f 30000000 		.4byte	.LFE246
 3882 0093 0400     		.2byte	0x4
 3883 0095 F3       		.byte	0xf3
 3884 0096 01       		.uleb128 0x1
 3885 0097 52       		.byte	0x52
 3886 0098 9F       		.byte	0x9f
 3887 0099 00000000 		.4byte	0
 3888 009d 00000000 		.4byte	0
 3889              	.LLST3:
 3890 00a1 00000000 		.4byte	.LVL3
 3891 00a5 0D000000 		.4byte	.LVL4-1
 3892 00a9 0100     		.2byte	0x1
 3893 00ab 53       		.byte	0x53
 3894 00ac 0D000000 		.4byte	.LVL4-1
 3895 00b0 26000000 		.4byte	.LVL5
 3896 00b4 0100     		.2byte	0x1
 3897 00b6 56       		.byte	0x56
 3898 00b7 26000000 		.4byte	.LVL5
 3899 00bb 29000000 		.4byte	.LVL6-1
 3900 00bf 0600     		.2byte	0x6
 3901 00c1 F3       		.byte	0xf3
 3902 00c2 01       		.uleb128 0x1
 3903 00c3 50       		.byte	0x50
 3904 00c4 06       		.byte	0x6
 3905 00c5 23       		.byte	0x23
 3906 00c6 10       		.uleb128 0x10
 3907 00c7 29000000 		.4byte	.LVL6-1
 3908 00cb 30000000 		.4byte	.LFE246
 3909 00cf 0400     		.2byte	0x4
 3910 00d1 F3       		.byte	0xf3
 3911 00d2 01       		.uleb128 0x1
 3912 00d3 53       		.byte	0x53
 3913 00d4 9F       		.byte	0x9f
 3914 00d5 00000000 		.4byte	0
 3915 00d9 00000000 		.4byte	0
 3916              	.LLST4:
 3917 00dd 00000000 		.4byte	.LVL7
 3918 00e1 09000000 		.4byte	.LVL9-1
 3919 00e5 0100     		.2byte	0x1
 3920 00e7 50       		.byte	0x50
 3921 00e8 09000000 		.4byte	.LVL9-1
 3922 00ec 24000000 		.4byte	.LVL13
 3923 00f0 0100     		.2byte	0x1
 3924 00f2 54       		.byte	0x54
 3925 00f3 24000000 		.4byte	.LVL13
 3926 00f7 28000000 		.4byte	.LFE247
 3927 00fb 0400     		.2byte	0x4
 3928 00fd F3       		.byte	0xf3
 3929 00fe 01       		.uleb128 0x1
 3930 00ff 50       		.byte	0x50
 3931 0100 9F       		.byte	0x9f
 3932 0101 00000000 		.4byte	0
 3933 0105 00000000 		.4byte	0
ARM GAS  /tmp/cc7TrS54.s 			page 70


 3934              	.LLST5:
 3935 0109 00000000 		.4byte	.LVL7
 3936 010d 09000000 		.4byte	.LVL9-1
 3937 0111 0100     		.2byte	0x1
 3938 0113 51       		.byte	0x51
 3939 0114 09000000 		.4byte	.LVL9-1
 3940 0118 24000000 		.4byte	.LVL13
 3941 011c 0100     		.2byte	0x1
 3942 011e 55       		.byte	0x55
 3943 011f 24000000 		.4byte	.LVL13
 3944 0123 28000000 		.4byte	.LFE247
 3945 0127 0400     		.2byte	0x4
 3946 0129 F3       		.byte	0xf3
 3947 012a 01       		.uleb128 0x1
 3948 012b 51       		.byte	0x51
 3949 012c 9F       		.byte	0x9f
 3950 012d 00000000 		.4byte	0
 3951 0131 00000000 		.4byte	0
 3952              	.LLST6:
 3953 0135 04000000 		.4byte	.LVL8
 3954 0139 09000000 		.4byte	.LVL9-1
 3955 013d 0100     		.2byte	0x1
 3956 013f 50       		.byte	0x50
 3957 0140 09000000 		.4byte	.LVL9-1
 3958 0144 0C000000 		.4byte	.LVL10
 3959 0148 0100     		.2byte	0x1
 3960 014a 54       		.byte	0x54
 3961 014b 0C000000 		.4byte	.LVL10
 3962 014f 1E000000 		.4byte	.LVL11
 3963 0153 0100     		.2byte	0x1
 3964 0155 52       		.byte	0x52
 3965 0156 20000000 		.4byte	.LVL12
 3966 015a 27000000 		.4byte	.LVL14-1
 3967 015e 0100     		.2byte	0x1
 3968 0160 52       		.byte	0x52
 3969 0161 00000000 		.4byte	0
 3970 0165 00000000 		.4byte	0
 3971              	.LLST7:
 3972 0169 00000000 		.4byte	.LVL15
 3973 016d 07000000 		.4byte	.LVL16-1
 3974 0171 0100     		.2byte	0x1
 3975 0173 50       		.byte	0x50
 3976 0174 07000000 		.4byte	.LVL16-1
 3977 0178 20000000 		.4byte	.LVL19
 3978 017c 0100     		.2byte	0x1
 3979 017e 54       		.byte	0x54
 3980 017f 20000000 		.4byte	.LVL19
 3981 0183 24000000 		.4byte	.LFE248
 3982 0187 0400     		.2byte	0x4
 3983 0189 F3       		.byte	0xf3
 3984 018a 01       		.uleb128 0x1
 3985 018b 50       		.byte	0x50
 3986 018c 9F       		.byte	0x9f
 3987 018d 00000000 		.4byte	0
 3988 0191 00000000 		.4byte	0
 3989              	.LLST8:
 3990 0195 12000000 		.4byte	.LVL17
ARM GAS  /tmp/cc7TrS54.s 			page 71


 3991 0199 20000000 		.4byte	.LVL19
 3992 019d 0100     		.2byte	0x1
 3993 019f 55       		.byte	0x55
 3994 01a0 20000000 		.4byte	.LVL19
 3995 01a4 24000000 		.4byte	.LFE248
 3996 01a8 0100     		.2byte	0x1
 3997 01aa 50       		.byte	0x50
 3998 01ab 00000000 		.4byte	0
 3999 01af 00000000 		.4byte	0
 4000              	.LLST9:
 4001 01b3 00000000 		.4byte	.LVL20
 4002 01b7 07000000 		.4byte	.LVL21-1
 4003 01bb 0100     		.2byte	0x1
 4004 01bd 50       		.byte	0x50
 4005 01be 07000000 		.4byte	.LVL21-1
 4006 01c2 10000000 		.4byte	.LVL22
 4007 01c6 0100     		.2byte	0x1
 4008 01c8 54       		.byte	0x54
 4009 01c9 10000000 		.4byte	.LVL22
 4010 01cd 12000000 		.4byte	.LVL23
 4011 01d1 0400     		.2byte	0x4
 4012 01d3 F3       		.byte	0xf3
 4013 01d4 01       		.uleb128 0x1
 4014 01d5 50       		.byte	0x50
 4015 01d6 9F       		.byte	0x9f
 4016 01d7 12000000 		.4byte	.LVL23
 4017 01db 1A000000 		.4byte	.LVL25
 4018 01df 0100     		.2byte	0x1
 4019 01e1 54       		.byte	0x54
 4020 01e2 1A000000 		.4byte	.LVL25
 4021 01e6 20000000 		.4byte	.LFE249
 4022 01ea 0100     		.2byte	0x1
 4023 01ec 50       		.byte	0x50
 4024 01ed 00000000 		.4byte	0
 4025 01f1 00000000 		.4byte	0
 4026              	.LLST10:
 4027 01f5 00000000 		.4byte	.LVL26
 4028 01f9 07000000 		.4byte	.LVL27-1
 4029 01fd 0100     		.2byte	0x1
 4030 01ff 50       		.byte	0x50
 4031 0200 07000000 		.4byte	.LVL27-1
 4032 0204 16000000 		.4byte	.LFE251
 4033 0208 0100     		.2byte	0x1
 4034 020a 54       		.byte	0x54
 4035 020b 00000000 		.4byte	0
 4036 020f 00000000 		.4byte	0
 4037              	.LLST11:
 4038 0213 00000000 		.4byte	.LVL30
 4039 0217 29000000 		.4byte	.LVL32-1
 4040 021b 0100     		.2byte	0x1
 4041 021d 50       		.byte	0x50
 4042 021e 29000000 		.4byte	.LVL32-1
 4043 0222 2A000000 		.4byte	.LVL32
 4044 0226 0400     		.2byte	0x4
 4045 0228 F3       		.byte	0xf3
 4046 0229 01       		.uleb128 0x1
 4047 022a 50       		.byte	0x50
ARM GAS  /tmp/cc7TrS54.s 			page 72


 4048 022b 9F       		.byte	0x9f
 4049 022c 2A000000 		.4byte	.LVL32
 4050 0230 2C000000 		.4byte	.LFE253
 4051 0234 0100     		.2byte	0x1
 4052 0236 50       		.byte	0x50
 4053 0237 00000000 		.4byte	0
 4054 023b 00000000 		.4byte	0
 4055              	.LLST12:
 4056 023f 00000000 		.4byte	.LVL30
 4057 0243 04000000 		.4byte	.LVL31
 4058 0247 0100     		.2byte	0x1
 4059 0249 51       		.byte	0x51
 4060 024a 04000000 		.4byte	.LVL31
 4061 024e 2C000000 		.4byte	.LFE253
 4062 0252 0400     		.2byte	0x4
 4063 0254 F3       		.byte	0xf3
 4064 0255 01       		.uleb128 0x1
 4065 0256 51       		.byte	0x51
 4066 0257 9F       		.byte	0x9f
 4067 0258 00000000 		.4byte	0
 4068 025c 00000000 		.4byte	0
 4069              	.LLST13:
 4070 0260 00000000 		.4byte	.LVL33
 4071 0264 08000000 		.4byte	.LVL35
 4072 0268 0100     		.2byte	0x1
 4073 026a 50       		.byte	0x50
 4074 026b 08000000 		.4byte	.LVL35
 4075 026f 28000000 		.4byte	.LFE250
 4076 0273 0100     		.2byte	0x1
 4077 0275 55       		.byte	0x55
 4078 0276 00000000 		.4byte	0
 4079 027a 00000000 		.4byte	0
 4080              	.LLST14:
 4081 027e 00000000 		.4byte	.LVL33
 4082 0282 08000000 		.4byte	.LVL35
 4083 0286 0100     		.2byte	0x1
 4084 0288 51       		.byte	0x51
 4085 0289 08000000 		.4byte	.LVL35
 4086 028d 28000000 		.4byte	.LFE250
 4087 0291 0100     		.2byte	0x1
 4088 0293 56       		.byte	0x56
 4089 0294 00000000 		.4byte	0
 4090 0298 00000000 		.4byte	0
 4091              	.LLST15:
 4092 029c 00000000 		.4byte	.LVL38
 4093 02a0 09000000 		.4byte	.LVL39-1
 4094 02a4 0100     		.2byte	0x1
 4095 02a6 50       		.byte	0x50
 4096 02a7 09000000 		.4byte	.LVL39-1
 4097 02ab 1A000000 		.4byte	.LVL42
 4098 02af 0100     		.2byte	0x1
 4099 02b1 55       		.byte	0x55
 4100 02b2 1A000000 		.4byte	.LVL42
 4101 02b6 1E000000 		.4byte	.LFE252
 4102 02ba 0400     		.2byte	0x4
 4103 02bc F3       		.byte	0xf3
 4104 02bd 01       		.uleb128 0x1
ARM GAS  /tmp/cc7TrS54.s 			page 73


 4105 02be 50       		.byte	0x50
 4106 02bf 9F       		.byte	0x9f
 4107 02c0 00000000 		.4byte	0
 4108 02c4 00000000 		.4byte	0
 4109              	.LLST16:
 4110 02c8 00000000 		.4byte	.LVL38
 4111 02cc 09000000 		.4byte	.LVL39-1
 4112 02d0 0100     		.2byte	0x1
 4113 02d2 51       		.byte	0x51
 4114 02d3 09000000 		.4byte	.LVL39-1
 4115 02d7 1A000000 		.4byte	.LVL42
 4116 02db 0100     		.2byte	0x1
 4117 02dd 54       		.byte	0x54
 4118 02de 1A000000 		.4byte	.LVL42
 4119 02e2 1E000000 		.4byte	.LFE252
 4120 02e6 0400     		.2byte	0x4
 4121 02e8 F3       		.byte	0xf3
 4122 02e9 01       		.uleb128 0x1
 4123 02ea 51       		.byte	0x51
 4124 02eb 9F       		.byte	0x9f
 4125 02ec 00000000 		.4byte	0
 4126 02f0 00000000 		.4byte	0
 4127              	.LLST17:
 4128 02f4 00000000 		.4byte	.LVL44
 4129 02f8 09000000 		.4byte	.LVL45-1
 4130 02fc 0100     		.2byte	0x1
 4131 02fe 50       		.byte	0x50
 4132 02ff 09000000 		.4byte	.LVL45-1
 4133 0303 1A000000 		.4byte	.LVL48
 4134 0307 0100     		.2byte	0x1
 4135 0309 55       		.byte	0x55
 4136 030a 1A000000 		.4byte	.LVL48
 4137 030e 1E000000 		.4byte	.LFE254
 4138 0312 0400     		.2byte	0x4
 4139 0314 F3       		.byte	0xf3
 4140 0315 01       		.uleb128 0x1
 4141 0316 50       		.byte	0x50
 4142 0317 9F       		.byte	0x9f
 4143 0318 00000000 		.4byte	0
 4144 031c 00000000 		.4byte	0
 4145              	.LLST18:
 4146 0320 00000000 		.4byte	.LVL44
 4147 0324 09000000 		.4byte	.LVL45-1
 4148 0328 0100     		.2byte	0x1
 4149 032a 51       		.byte	0x51
 4150 032b 09000000 		.4byte	.LVL45-1
 4151 032f 1A000000 		.4byte	.LVL48
 4152 0333 0100     		.2byte	0x1
 4153 0335 54       		.byte	0x54
 4154 0336 1A000000 		.4byte	.LVL48
 4155 033a 1E000000 		.4byte	.LFE254
 4156 033e 0400     		.2byte	0x4
 4157 0340 F3       		.byte	0xf3
 4158 0341 01       		.uleb128 0x1
 4159 0342 51       		.byte	0x51
 4160 0343 9F       		.byte	0x9f
 4161 0344 00000000 		.4byte	0
ARM GAS  /tmp/cc7TrS54.s 			page 74


 4162 0348 00000000 		.4byte	0
 4163              	.LLST19:
 4164 034c 00000000 		.4byte	.LVL50
 4165 0350 06000000 		.4byte	.LVL51
 4166 0354 0100     		.2byte	0x1
 4167 0356 50       		.byte	0x50
 4168 0357 06000000 		.4byte	.LVL51
 4169 035b 0A000000 		.4byte	.LFE255
 4170 035f 0100     		.2byte	0x1
 4171 0361 53       		.byte	0x53
 4172 0362 00000000 		.4byte	0
 4173 0366 00000000 		.4byte	0
 4174              	.LLST20:
 4175 036a 00000000 		.4byte	.LVL52
 4176 036e 08000000 		.4byte	.LVL53
 4177 0372 0100     		.2byte	0x1
 4178 0374 50       		.byte	0x50
 4179 0375 08000000 		.4byte	.LVL53
 4180 0379 28000000 		.4byte	.LFE256
 4181 037d 0100     		.2byte	0x1
 4182 037f 56       		.byte	0x56
 4183 0380 00000000 		.4byte	0
 4184 0384 00000000 		.4byte	0
 4185              	.LLST21:
 4186 0388 00000000 		.4byte	.LVL52
 4187 038c 08000000 		.4byte	.LVL53
 4188 0390 0100     		.2byte	0x1
 4189 0392 51       		.byte	0x51
 4190 0393 08000000 		.4byte	.LVL53
 4191 0397 28000000 		.4byte	.LFE256
 4192 039b 0100     		.2byte	0x1
 4193 039d 55       		.byte	0x55
 4194 039e 00000000 		.4byte	0
 4195 03a2 00000000 		.4byte	0
 4196              	.LLST22:
 4197 03a6 00000000 		.4byte	.LVL52
 4198 03aa 08000000 		.4byte	.LVL53
 4199 03ae 0200     		.2byte	0x2
 4200 03b0 30       		.byte	0x30
 4201 03b1 9F       		.byte	0x9f
 4202 03b2 08000000 		.4byte	.LVL53
 4203 03b6 28000000 		.4byte	.LFE256
 4204 03ba 0100     		.2byte	0x1
 4205 03bc 54       		.byte	0x54
 4206 03bd 00000000 		.4byte	0
 4207 03c1 00000000 		.4byte	0
 4208              	.LLST23:
 4209 03c5 00000000 		.4byte	.LVL57
 4210 03c9 0B000000 		.4byte	.LVL59-1
 4211 03cd 0100     		.2byte	0x1
 4212 03cf 50       		.byte	0x50
 4213 03d0 0B000000 		.4byte	.LVL59-1
 4214 03d4 20000000 		.4byte	.LVL64
 4215 03d8 0100     		.2byte	0x1
 4216 03da 54       		.byte	0x54
 4217 03db 20000000 		.4byte	.LVL64
 4218 03df 38000000 		.4byte	.LFE257
ARM GAS  /tmp/cc7TrS54.s 			page 75


 4219 03e3 0400     		.2byte	0x4
 4220 03e5 F3       		.byte	0xf3
 4221 03e6 01       		.uleb128 0x1
 4222 03e7 50       		.byte	0x50
 4223 03e8 9F       		.byte	0x9f
 4224 03e9 00000000 		.4byte	0
 4225 03ed 00000000 		.4byte	0
 4226              	.LLST24:
 4227 03f1 06000000 		.4byte	.LVL58
 4228 03f5 32000000 		.4byte	.LVL67
 4229 03f9 0100     		.2byte	0x1
 4230 03fb 55       		.byte	0x55
 4231 03fc 00000000 		.4byte	0
 4232 0400 00000000 		.4byte	0
 4233              	.LLST25:
 4234 0404 0E000000 		.4byte	.LVL60
 4235 0408 10000000 		.4byte	.LVL61
 4236 040c 0600     		.2byte	0x6
 4237 040e 74       		.byte	0x74
 4238 040f 00       		.sleb128 0
 4239 0410 73       		.byte	0x73
 4240 0411 00       		.sleb128 0
 4241 0412 1A       		.byte	0x1a
 4242 0413 9F       		.byte	0x9f
 4243 0414 10000000 		.4byte	.LVL61
 4244 0418 19000000 		.4byte	.LVL62-1
 4245 041c 0100     		.2byte	0x1
 4246 041e 53       		.byte	0x53
 4247 041f 1E000000 		.4byte	.LVL63
 4248 0423 22000000 		.4byte	.LVL65
 4249 0427 0100     		.2byte	0x1
 4250 0429 53       		.byte	0x53
 4251 042a 22000000 		.4byte	.LVL65
 4252 042e 32000000 		.4byte	.LVL67
 4253 0432 0100     		.2byte	0x1
 4254 0434 54       		.byte	0x54
 4255 0435 32000000 		.4byte	.LVL67
 4256 0439 38000000 		.4byte	.LFE257
 4257 043d 0100     		.2byte	0x1
 4258 043f 50       		.byte	0x50
 4259 0440 00000000 		.4byte	0
 4260 0444 00000000 		.4byte	0
 4261              	.LLST26:
 4262 0448 00000000 		.4byte	.LVL68
 4263 044c 0B000000 		.4byte	.LVL70-1
 4264 0450 0100     		.2byte	0x1
 4265 0452 50       		.byte	0x50
 4266 0453 0B000000 		.4byte	.LVL70-1
 4267 0457 2E000000 		.4byte	.LVL77
 4268 045b 0100     		.2byte	0x1
 4269 045d 56       		.byte	0x56
 4270 045e 2E000000 		.4byte	.LVL77
 4271 0462 34000000 		.4byte	.LFE258
 4272 0466 0400     		.2byte	0x4
 4273 0468 F3       		.byte	0xf3
 4274 0469 01       		.uleb128 0x1
 4275 046a 50       		.byte	0x50
ARM GAS  /tmp/cc7TrS54.s 			page 76


 4276 046b 9F       		.byte	0x9f
 4277 046c 00000000 		.4byte	0
 4278 0470 00000000 		.4byte	0
 4279              	.LLST27:
 4280 0474 06000000 		.4byte	.LVL69
 4281 0478 2E000000 		.4byte	.LVL77
 4282 047c 0100     		.2byte	0x1
 4283 047e 55       		.byte	0x55
 4284 047f 00000000 		.4byte	0
 4285 0483 00000000 		.4byte	0
 4286              	.LLST28:
 4287 0487 0E000000 		.4byte	.LVL71
 4288 048b 10000000 		.4byte	.LVL72
 4289 048f 0600     		.2byte	0x6
 4290 0491 76       		.byte	0x76
 4291 0492 00       		.sleb128 0
 4292 0493 74       		.byte	0x74
 4293 0494 00       		.sleb128 0
 4294 0495 1A       		.byte	0x1a
 4295 0496 9F       		.byte	0x9f
 4296 0497 10000000 		.4byte	.LVL72
 4297 049b 1C000000 		.4byte	.LVL74
 4298 049f 0100     		.2byte	0x1
 4299 04a1 54       		.byte	0x54
 4300 04a2 1E000000 		.4byte	.LVL75
 4301 04a6 2E000000 		.4byte	.LVL77
 4302 04aa 0100     		.2byte	0x1
 4303 04ac 54       		.byte	0x54
 4304 04ad 2E000000 		.4byte	.LVL77
 4305 04b1 34000000 		.4byte	.LFE258
 4306 04b5 0100     		.2byte	0x1
 4307 04b7 50       		.byte	0x50
 4308 04b8 00000000 		.4byte	0
 4309 04bc 00000000 		.4byte	0
 4310              	.LLST29:
 4311 04c0 00000000 		.4byte	.LVL78
 4312 04c4 0B000000 		.4byte	.LVL80-1
 4313 04c8 0100     		.2byte	0x1
 4314 04ca 50       		.byte	0x50
 4315 04cb 0B000000 		.4byte	.LVL80-1
 4316 04cf 2C000000 		.4byte	.LVL83
 4317 04d3 0100     		.2byte	0x1
 4318 04d5 54       		.byte	0x54
 4319 04d6 2C000000 		.4byte	.LVL83
 4320 04da 30000000 		.4byte	.LFE259
 4321 04de 0100     		.2byte	0x1
 4322 04e0 50       		.byte	0x50
 4323 04e1 00000000 		.4byte	0
 4324 04e5 00000000 		.4byte	0
 4325              	.LLST30:
 4326 04e9 06000000 		.4byte	.LVL79
 4327 04ed 2C000000 		.4byte	.LVL83
 4328 04f1 0100     		.2byte	0x1
 4329 04f3 55       		.byte	0x55
 4330 04f4 00000000 		.4byte	0
 4331 04f8 00000000 		.4byte	0
 4332              	.LLST31:
ARM GAS  /tmp/cc7TrS54.s 			page 77


 4333 04fc 00000000 		.4byte	.LVL84
 4334 0500 0D000000 		.4byte	.LVL86-1
 4335 0504 0100     		.2byte	0x1
 4336 0506 50       		.byte	0x50
 4337 0507 0D000000 		.4byte	.LVL86-1
 4338 050b 32000000 		.4byte	.LVL94
 4339 050f 0100     		.2byte	0x1
 4340 0511 54       		.byte	0x54
 4341 0512 32000000 		.4byte	.LVL94
 4342 0516 48000000 		.4byte	.LFE260
 4343 051a 0400     		.2byte	0x4
 4344 051c F3       		.byte	0xf3
 4345 051d 01       		.uleb128 0x1
 4346 051e 50       		.byte	0x50
 4347 051f 9F       		.byte	0x9f
 4348 0520 00000000 		.4byte	0
 4349 0524 00000000 		.4byte	0
 4350              	.LLST32:
 4351 0528 00000000 		.4byte	.LVL84
 4352 052c 0D000000 		.4byte	.LVL86-1
 4353 0530 0100     		.2byte	0x1
 4354 0532 51       		.byte	0x51
 4355 0533 0D000000 		.4byte	.LVL86-1
 4356 0537 44000000 		.4byte	.LVL97
 4357 053b 0100     		.2byte	0x1
 4358 053d 56       		.byte	0x56
 4359 053e 44000000 		.4byte	.LVL97
 4360 0542 48000000 		.4byte	.LFE260
 4361 0546 0400     		.2byte	0x4
 4362 0548 F3       		.byte	0xf3
 4363 0549 01       		.uleb128 0x1
 4364 054a 51       		.byte	0x51
 4365 054b 9F       		.byte	0x9f
 4366 054c 00000000 		.4byte	0
 4367 0550 00000000 		.4byte	0
 4368              	.LLST33:
 4369 0554 06000000 		.4byte	.LVL85
 4370 0558 44000000 		.4byte	.LVL97
 4371 055c 0100     		.2byte	0x1
 4372 055e 55       		.byte	0x55
 4373 055f 00000000 		.4byte	0
 4374 0563 00000000 		.4byte	0
 4375              	.LLST34:
 4376 0567 10000000 		.4byte	.LVL87
 4377 056b 12000000 		.4byte	.LVL88
 4378 056f 0600     		.2byte	0x6
 4379 0571 74       		.byte	0x74
 4380 0572 00       		.sleb128 0
 4381 0573 73       		.byte	0x73
 4382 0574 00       		.sleb128 0
 4383 0575 1A       		.byte	0x1a
 4384 0576 9F       		.byte	0x9f
 4385 0577 12000000 		.4byte	.LVL88
 4386 057b 16000000 		.4byte	.LVL89
 4387 057f 0100     		.2byte	0x1
 4388 0581 53       		.byte	0x53
 4389 0582 1E000000 		.4byte	.LVL91
ARM GAS  /tmp/cc7TrS54.s 			page 78


 4390 0586 27000000 		.4byte	.LVL92-1
 4391 058a 0100     		.2byte	0x1
 4392 058c 53       		.byte	0x53
 4393 058d 30000000 		.4byte	.LVL93
 4394 0591 34000000 		.4byte	.LVL95
 4395 0595 0100     		.2byte	0x1
 4396 0597 53       		.byte	0x53
 4397 0598 34000000 		.4byte	.LVL95
 4398 059c 44000000 		.4byte	.LVL97
 4399 05a0 0100     		.2byte	0x1
 4400 05a2 54       		.byte	0x54
 4401 05a3 44000000 		.4byte	.LVL97
 4402 05a7 48000000 		.4byte	.LFE260
 4403 05ab 0100     		.2byte	0x1
 4404 05ad 50       		.byte	0x50
 4405 05ae 00000000 		.4byte	0
 4406 05b2 00000000 		.4byte	0
 4407              	.LLST35:
 4408 05b6 00000000 		.4byte	.LVL98
 4409 05ba 0D000000 		.4byte	.LVL100-1
 4410 05be 0100     		.2byte	0x1
 4411 05c0 50       		.byte	0x50
 4412 05c1 0D000000 		.4byte	.LVL100-1
 4413 05c5 40000000 		.4byte	.LVL109
 4414 05c9 0100     		.2byte	0x1
 4415 05cb 56       		.byte	0x56
 4416 05cc 40000000 		.4byte	.LVL109
 4417 05d0 44000000 		.4byte	.LFE261
 4418 05d4 0400     		.2byte	0x4
 4419 05d6 F3       		.byte	0xf3
 4420 05d7 01       		.uleb128 0x1
 4421 05d8 50       		.byte	0x50
 4422 05d9 9F       		.byte	0x9f
 4423 05da 00000000 		.4byte	0
 4424 05de 00000000 		.4byte	0
 4425              	.LLST36:
 4426 05e2 00000000 		.4byte	.LVL98
 4427 05e6 0D000000 		.4byte	.LVL100-1
 4428 05ea 0100     		.2byte	0x1
 4429 05ec 51       		.byte	0x51
 4430 05ed 0D000000 		.4byte	.LVL100-1
 4431 05f1 40000000 		.4byte	.LVL109
 4432 05f5 0100     		.2byte	0x1
 4433 05f7 57       		.byte	0x57
 4434 05f8 40000000 		.4byte	.LVL109
 4435 05fc 44000000 		.4byte	.LFE261
 4436 0600 0400     		.2byte	0x4
 4437 0602 F3       		.byte	0xf3
 4438 0603 01       		.uleb128 0x1
 4439 0604 51       		.byte	0x51
 4440 0605 9F       		.byte	0x9f
 4441 0606 00000000 		.4byte	0
 4442 060a 00000000 		.4byte	0
 4443              	.LLST37:
 4444 060e 06000000 		.4byte	.LVL99
 4445 0612 40000000 		.4byte	.LVL109
 4446 0616 0100     		.2byte	0x1
ARM GAS  /tmp/cc7TrS54.s 			page 79


 4447 0618 55       		.byte	0x55
 4448 0619 00000000 		.4byte	0
 4449 061d 00000000 		.4byte	0
 4450              	.LLST38:
 4451 0621 10000000 		.4byte	.LVL101
 4452 0625 12000000 		.4byte	.LVL102
 4453 0629 0600     		.2byte	0x6
 4454 062b 76       		.byte	0x76
 4455 062c 00       		.sleb128 0
 4456 062d 74       		.byte	0x74
 4457 062e 00       		.sleb128 0
 4458 062f 1A       		.byte	0x1a
 4459 0630 9F       		.byte	0x9f
 4460 0631 12000000 		.4byte	.LVL102
 4461 0635 2E000000 		.4byte	.LVL106
 4462 0639 0100     		.2byte	0x1
 4463 063b 54       		.byte	0x54
 4464 063c 30000000 		.4byte	.LVL107
 4465 0640 40000000 		.4byte	.LVL109
 4466 0644 0100     		.2byte	0x1
 4467 0646 54       		.byte	0x54
 4468 0647 40000000 		.4byte	.LVL109
 4469 064b 44000000 		.4byte	.LFE261
 4470 064f 0100     		.2byte	0x1
 4471 0651 50       		.byte	0x50
 4472 0652 00000000 		.4byte	0
 4473 0656 00000000 		.4byte	0
 4474              	.LLST39:
 4475 065a 00000000 		.4byte	.LVL110
 4476 065e 0D000000 		.4byte	.LVL112-1
 4477 0662 0100     		.2byte	0x1
 4478 0664 50       		.byte	0x50
 4479 0665 0D000000 		.4byte	.LVL112-1
 4480 0669 3E000000 		.4byte	.LVL117
 4481 066d 0100     		.2byte	0x1
 4482 066f 54       		.byte	0x54
 4483 0670 3E000000 		.4byte	.LVL117
 4484 0674 44000000 		.4byte	.LFE262
 4485 0678 0100     		.2byte	0x1
 4486 067a 50       		.byte	0x50
 4487 067b 00000000 		.4byte	0
 4488 067f 00000000 		.4byte	0
 4489              	.LLST40:
 4490 0683 00000000 		.4byte	.LVL110
 4491 0687 0D000000 		.4byte	.LVL112-1
 4492 068b 0100     		.2byte	0x1
 4493 068d 51       		.byte	0x51
 4494 068e 0D000000 		.4byte	.LVL112-1
 4495 0692 3E000000 		.4byte	.LVL117
 4496 0696 0100     		.2byte	0x1
 4497 0698 56       		.byte	0x56
 4498 0699 3E000000 		.4byte	.LVL117
 4499 069d 44000000 		.4byte	.LFE262
 4500 06a1 0400     		.2byte	0x4
 4501 06a3 F3       		.byte	0xf3
 4502 06a4 01       		.uleb128 0x1
 4503 06a5 51       		.byte	0x51
ARM GAS  /tmp/cc7TrS54.s 			page 80


 4504 06a6 9F       		.byte	0x9f
 4505 06a7 00000000 		.4byte	0
 4506 06ab 00000000 		.4byte	0
 4507              	.LLST41:
 4508 06af 06000000 		.4byte	.LVL111
 4509 06b3 3E000000 		.4byte	.LVL117
 4510 06b7 0100     		.2byte	0x1
 4511 06b9 55       		.byte	0x55
 4512 06ba 00000000 		.4byte	0
 4513 06be 00000000 		.4byte	0
 4514              		.section	.debug_aranges,"",%progbits
 4515 0000 AC000000 		.4byte	0xac
 4516 0004 0200     		.2byte	0x2
 4517 0006 00000000 		.4byte	.Ldebug_info0
 4518 000a 04       		.byte	0x4
 4519 000b 00       		.byte	0
 4520 000c 0000     		.2byte	0
 4521 000e 0000     		.2byte	0
 4522 0010 00000000 		.4byte	.LFB167
 4523 0014 0A000000 		.4byte	.LFE167-.LFB167
 4524 0018 00000000 		.4byte	.LFB168
 4525 001c 0E000000 		.4byte	.LFE168-.LFB168
 4526 0020 00000000 		.4byte	.LFB246
 4527 0024 30000000 		.4byte	.LFE246-.LFB246
 4528 0028 00000000 		.4byte	.LFB247
 4529 002c 28000000 		.4byte	.LFE247-.LFB247
 4530 0030 00000000 		.4byte	.LFB248
 4531 0034 24000000 		.4byte	.LFE248-.LFB248
 4532 0038 00000000 		.4byte	.LFB249
 4533 003c 20000000 		.4byte	.LFE249-.LFB249
 4534 0040 00000000 		.4byte	.LFB251
 4535 0044 16000000 		.4byte	.LFE251-.LFB251
 4536 0048 00000000 		.4byte	.LFB253
 4537 004c 2C000000 		.4byte	.LFE253-.LFB253
 4538 0050 00000000 		.4byte	.LFB250
 4539 0054 28000000 		.4byte	.LFE250-.LFB250
 4540 0058 00000000 		.4byte	.LFB252
 4541 005c 1E000000 		.4byte	.LFE252-.LFB252
 4542 0060 00000000 		.4byte	.LFB254
 4543 0064 1E000000 		.4byte	.LFE254-.LFB254
 4544 0068 00000000 		.4byte	.LFB255
 4545 006c 0A000000 		.4byte	.LFE255-.LFB255
 4546 0070 00000000 		.4byte	.LFB256
 4547 0074 28000000 		.4byte	.LFE256-.LFB256
 4548 0078 00000000 		.4byte	.LFB257
 4549 007c 38000000 		.4byte	.LFE257-.LFB257
 4550 0080 00000000 		.4byte	.LFB258
 4551 0084 34000000 		.4byte	.LFE258-.LFB258
 4552 0088 00000000 		.4byte	.LFB259
 4553 008c 30000000 		.4byte	.LFE259-.LFB259
 4554 0090 00000000 		.4byte	.LFB260
 4555 0094 48000000 		.4byte	.LFE260-.LFB260
 4556 0098 00000000 		.4byte	.LFB261
 4557 009c 44000000 		.4byte	.LFE261-.LFB261
 4558 00a0 00000000 		.4byte	.LFB262
 4559 00a4 44000000 		.4byte	.LFE262-.LFB262
 4560 00a8 00000000 		.4byte	0
ARM GAS  /tmp/cc7TrS54.s 			page 81


 4561 00ac 00000000 		.4byte	0
 4562              		.section	.debug_ranges,"",%progbits
 4563              	.Ldebug_ranges0:
 4564 0000 00000000 		.4byte	.LFB167
 4565 0004 0A000000 		.4byte	.LFE167
 4566 0008 00000000 		.4byte	.LFB168
 4567 000c 0E000000 		.4byte	.LFE168
 4568 0010 00000000 		.4byte	.LFB246
 4569 0014 30000000 		.4byte	.LFE246
 4570 0018 00000000 		.4byte	.LFB247
 4571 001c 28000000 		.4byte	.LFE247
 4572 0020 00000000 		.4byte	.LFB248
 4573 0024 24000000 		.4byte	.LFE248
 4574 0028 00000000 		.4byte	.LFB249
 4575 002c 20000000 		.4byte	.LFE249
 4576 0030 00000000 		.4byte	.LFB251
 4577 0034 16000000 		.4byte	.LFE251
 4578 0038 00000000 		.4byte	.LFB253
 4579 003c 2C000000 		.4byte	.LFE253
 4580 0040 00000000 		.4byte	.LFB250
 4581 0044 28000000 		.4byte	.LFE250
 4582 0048 00000000 		.4byte	.LFB252
 4583 004c 1E000000 		.4byte	.LFE252
 4584 0050 00000000 		.4byte	.LFB254
 4585 0054 1E000000 		.4byte	.LFE254
 4586 0058 00000000 		.4byte	.LFB255
 4587 005c 0A000000 		.4byte	.LFE255
 4588 0060 00000000 		.4byte	.LFB256
 4589 0064 28000000 		.4byte	.LFE256
 4590 0068 00000000 		.4byte	.LFB257
 4591 006c 38000000 		.4byte	.LFE257
 4592 0070 00000000 		.4byte	.LFB258
 4593 0074 34000000 		.4byte	.LFE258
 4594 0078 00000000 		.4byte	.LFB259
 4595 007c 30000000 		.4byte	.LFE259
 4596 0080 00000000 		.4byte	.LFB260
 4597 0084 48000000 		.4byte	.LFE260
 4598 0088 00000000 		.4byte	.LFB261
 4599 008c 44000000 		.4byte	.LFE261
 4600 0090 00000000 		.4byte	.LFB262
 4601 0094 44000000 		.4byte	.LFE262
 4602 0098 00000000 		.4byte	0
 4603 009c 00000000 		.4byte	0
 4604              		.section	.debug_line,"",%progbits
 4605              	.Ldebug_line0:
 4606 0000 1F040000 		.section	.debug_str,"MS",%progbits,1
 4606      0200FC01 
 4606      00000201 
 4606      FB0E0D00 
 4606      01010101 
 4607              	.LASF55:
 4608 0000 72656164 		.ascii	"ready_list_t\000"
 4608      795F6C69 
 4608      73745F74 
 4608      00
 4609              	.LASF95:
 4610 000d 77747472 		.ascii	"wttrp\000"
ARM GAS  /tmp/cc7TrS54.s 			page 82


 4610      7000
 4611              	.LASF61:
 4612 0013 64656C74 		.ascii	"delta\000"
 4612      6100
 4613              	.LASF92:
 4614 0019 7264796D 		.ascii	"rdymsg\000"
 4614      736700
 4615              	.LASF16:
 4616 0020 75696E74 		.ascii	"uint64_t\000"
 4616      36345F74 
 4616      00
 4617              	.LASF74:
 4618 0029 6B65726E 		.ascii	"kernel_stats\000"
 4618      656C5F73 
 4618      74617473 
 4618      00
 4619              	.LASF5:
 4620 0036 5F5F7569 		.ascii	"__uint8_t\000"
 4620      6E74385F 
 4620      7400
 4621              	.LASF54:
 4622 0040 70726576 		.ascii	"prev\000"
 4622      00
 4623              	.LASF79:
 4624 0045 706F7274 		.ascii	"port_intctx\000"
 4624      5F696E74 
 4624      63747800 
 4625              	.LASF53:
 4626 0051 63685F74 		.ascii	"ch_threads_queue\000"
 4626      68726561 
 4626      64735F71 
 4626      75657565 
 4626      00
 4627              	.LASF66:
 4628 0062 73797374 		.ascii	"system_debug_t\000"
 4628      656D5F64 
 4628      65627567 
 4628      5F7400
 4629              	.LASF126:
 4630 0071 63684576 		.ascii	"chEvtSignal\000"
 4630      74536967 
 4630      6E616C00 
 4631              	.LASF114:
 4632 007d 706F7274 		.ascii	"port_lock\000"
 4632      5F6C6F63 
 4632      6B00
 4633              	.LASF83:
 4634 0087 776F7273 		.ascii	"worst\000"
 4634      7400
 4635              	.LASF86:
 4636 008d 74696D65 		.ascii	"time_measurement_t\000"
 4636      5F6D6561 
 4636      73757265 
 4636      6D656E74 
 4636      5F7400
 4637              	.LASF12:
 4638 00a0 6C6F6E67 		.ascii	"long long unsigned int\000"
ARM GAS  /tmp/cc7TrS54.s 			page 83


 4638      206C6F6E 
 4638      6720756E 
 4638      7369676E 
 4638      65642069 
 4639              	.LASF122:
 4640 00b7 63684576 		.ascii	"chEvtAddEvents\000"
 4640      74416464 
 4640      4576656E 
 4640      747300
 4641              	.LASF93:
 4642 00c6 65786974 		.ascii	"exitcode\000"
 4642      636F6465 
 4642      00
 4643              	.LASF73:
 4644 00cf 6D61696E 		.ascii	"mainthread\000"
 4644      74687265 
 4644      616400
 4645              	.LASF96:
 4646 00da 73656E74 		.ascii	"sentmsg\000"
 4646      6D736700 
 4647              	.LASF63:
 4648 00e2 76697274 		.ascii	"virtual_timers_list_t\000"
 4648      75616C5F 
 4648      74696D65 
 4648      72735F6C 
 4648      6973745F 
 4649              	.LASF138:
 4650 00f8 49544D5F 		.ascii	"ITM_RxBuffer\000"
 4650      52784275 
 4650      66666572 
 4650      00
 4651              	.LASF51:
 4652 0105 6E657874 		.ascii	"next\000"
 4652      00
 4653              	.LASF18:
 4654 010a 72747469 		.ascii	"rttime_t\000"
 4654      6D655F74 
 4654      00
 4655              	.LASF10:
 4656 0113 6C6F6E67 		.ascii	"long long int\000"
 4656      206C6F6E 
 4656      6720696E 
 4656      7400
 4657              	.LASF1:
 4658 0121 7369676E 		.ascii	"signed char\000"
 4658      65642063 
 4658      68617200 
 4659              	.LASF137:
 4660 012d 63684576 		.ascii	"chEvtWaitAllTimeout\000"
 4660      74576169 
 4660      74416C6C 
 4660      54696D65 
 4660      6F757400 
 4661              	.LASF72:
 4662 0141 76746C69 		.ascii	"vtlist\000"
 4662      737400
 4663              	.LASF146:
ARM GAS  /tmp/cc7TrS54.s 			page 84


 4664 0148 2F686F6D 		.ascii	"/home/kozinalexey/f4by/ardupilot/build/f4by-ch\000"
 4664      652F6B6F 
 4664      7A696E61 
 4664      6C657865 
 4664      792F6634 
 4665              	.LASF115:
 4666 0177 706F7274 		.ascii	"port_unlock\000"
 4666      5F756E6C 
 4666      6F636B00 
 4667              	.LASF41:
 4668 0183 6D736771 		.ascii	"msgqueue\000"
 4668      75657565 
 4668      00
 4669              	.LASF37:
 4670 018c 73746174 		.ascii	"state\000"
 4670      6500
 4671              	.LASF7:
 4672 0192 6C6F6E67 		.ascii	"long int\000"
 4672      20696E74 
 4672      00
 4673              	.LASF62:
 4674 019b 66756E63 		.ascii	"func\000"
 4674      00
 4675              	.LASF132:
 4676 01a0 63684576 		.ascii	"chEvtWaitAny\000"
 4676      74576169 
 4676      74416E79 
 4676      00
 4677              	.LASF46:
 4678 01ad 73746174 		.ascii	"stats\000"
 4678      7300
 4679              	.LASF125:
 4680 01b3 63684576 		.ascii	"chEvtBroadcastFlagsI\000"
 4680      7442726F 
 4680      61646361 
 4680      7374466C 
 4680      61677349 
 4681              	.LASF20:
 4682 01c8 74737461 		.ascii	"tstate_t\000"
 4682      74655F74 
 4682      00
 4683              	.LASF136:
 4684 01d1 63684576 		.ascii	"chEvtWaitAnyTimeout\000"
 4684      74576169 
 4684      74416E79 
 4684      54696D65 
 4684      6F757400 
 4685              	.LASF109:
 4686 01e5 77666C61 		.ascii	"wflags\000"
 4686      677300
 4687              	.LASF141:
 4688 01ec 63685363 		.ascii	"chSchRescheduleS\000"
 4688      68526573 
 4688      63686564 
 4688      756C6553 
 4688      00
 4689              	.LASF8:
ARM GAS  /tmp/cc7TrS54.s 			page 85


 4690 01fd 5F5F7569 		.ascii	"__uint32_t\000"
 4690      6E743332 
 4690      5F7400
 4691              	.LASF76:
 4692 0208 72656761 		.ascii	"regarm_t\000"
 4692      726D5F74 
 4692      00
 4693              	.LASF127:
 4694 0211 63684576 		.ascii	"chEvtBroadcastFlags\000"
 4694      7442726F 
 4694      61646361 
 4694      7374466C 
 4694      61677300 
 4695              	.LASF67:
 4696 0225 63685F73 		.ascii	"ch_system_debug\000"
 4696      79737465 
 4696      6D5F6465 
 4696      62756700 
 4697              	.LASF40:
 4698 0235 77616974 		.ascii	"waiting\000"
 4698      696E6700 
 4699              	.LASF24:
 4700 023d 6576656E 		.ascii	"eventid_t\000"
 4700      7469645F 
 4700      7400
 4701              	.LASF104:
 4702 0247 6D757465 		.ascii	"mutex_t\000"
 4702      785F7400 
 4703              	.LASF148:
 4704 024f 76616C75 		.ascii	"value\000"
 4704      6500
 4705              	.LASF111:
 4706 0255 6576656E 		.ascii	"event_source_t\000"
 4706      745F736F 
 4706      75726365 
 4706      5F7400
 4707              	.LASF112:
 4708 0264 65766861 		.ascii	"evhandler_t\000"
 4708      6E646C65 
 4708      725F7400 
 4709              	.LASF27:
 4710 0270 636E745F 		.ascii	"cnt_t\000"
 4710      7400
 4711              	.LASF0:
 4712 0276 756E7369 		.ascii	"unsigned int\000"
 4712      676E6564 
 4712      20696E74 
 4712      00
 4713              	.LASF144:
 4714 0283 474E5520 		.ascii	"GNU C 4.9.3 20150529 (prerelease) -mcpu=cortex-m4 -"
 4714      4320342E 
 4714      392E3320 
 4714      32303135 
 4714      30353239 
 4715 02b6 6D666C6F 		.ascii	"mfloat-abi=hard -mfpu=fpv4-sp-d16 -mno-thumb-interw"
 4715      61742D61 
 4715      62693D68 
ARM GAS  /tmp/cc7TrS54.s 			page 86


 4715      61726420 
 4715      2D6D6670 
 4716 02e9 6F726B20 		.ascii	"ork -mthumb -g -Os -fomit-frame-pointer -falign-fun"
 4716      2D6D7468 
 4716      756D6220 
 4716      2D67202D 
 4716      4F73202D 
 4717 031c 6374696F 		.ascii	"ctions=16 -ffunction-sections -fdata-sections -fno-"
 4717      6E733D31 
 4717      36202D66 
 4717      66756E63 
 4717      74696F6E 
 4718 034f 636F6D6D 		.ascii	"common -fsingle-precision-constant\000"
 4718      6F6E202D 
 4718      6673696E 
 4718      676C652D 
 4718      70726563 
 4719              	.LASF97:
 4720 0372 77747365 		.ascii	"wtsemp\000"
 4720      6D7000
 4721              	.LASF121:
 4722 0379 63684576 		.ascii	"chEvtGetAndClearEvents\000"
 4722      74476574 
 4722      416E6443 
 4722      6C656172 
 4722      4576656E 
 4723              	.LASF87:
 4724 0390 6E5F6972 		.ascii	"n_irq\000"
 4724      7100
 4725              	.LASF31:
 4726 0396 71756575 		.ascii	"queue\000"
 4726      6500
 4727              	.LASF45:
 4728 039c 6D706F6F 		.ascii	"mpool\000"
 4728      6C00
 4729              	.LASF4:
 4730 03a2 73686F72 		.ascii	"short unsigned int\000"
 4730      7420756E 
 4730      7369676E 
 4730      65642069 
 4730      6E7400
 4731              	.LASF91:
 4732 03b5 6B65726E 		.ascii	"kernel_stats_t\000"
 4732      656C5F73 
 4732      74617473 
 4732      5F7400
 4733              	.LASF49:
 4734 03c4 63685F74 		.ascii	"ch_thread\000"
 4734      68726561 
 4734      6400
 4735              	.LASF26:
 4736 03ce 6576656E 		.ascii	"eventflags_t\000"
 4736      74666C61 
 4736      67735F74 
 4736      00
 4737              	.LASF23:
 4738 03db 6D73675F 		.ascii	"msg_t\000"
ARM GAS  /tmp/cc7TrS54.s 			page 87


 4738      7400
 4739              	.LASF84:
 4740 03e1 6C617374 		.ascii	"last\000"
 4740      00
 4741              	.LASF28:
 4742 03e6 75636E74 		.ascii	"ucnt_t\000"
 4742      5F7400
 4743              	.LASF42:
 4744 03ed 6570656E 		.ascii	"epending\000"
 4744      64696E67 
 4744      00
 4745              	.LASF35:
 4746 03f6 6E616D65 		.ascii	"name\000"
 4746      00
 4747              	.LASF120:
 4748 03fb 63684576 		.ascii	"chEvtUnregister\000"
 4748      74556E72 
 4748      65676973 
 4748      74657200 
 4749              	.LASF69:
 4750 040b 63685F73 		.ascii	"ch_system_t\000"
 4750      79737465 
 4750      6D5F7400 
 4751              	.LASF119:
 4752 0417 63684576 		.ascii	"chEvtRegisterMaskWithFlags\000"
 4752      74526567 
 4752      69737465 
 4752      724D6173 
 4752      6B576974 
 4753              	.LASF19:
 4754 0432 746D6F64 		.ascii	"tmode_t\000"
 4754      655F7400 
 4755              	.LASF90:
 4756 043a 6D5F6372 		.ascii	"m_crit_isr\000"
 4756      69745F69 
 4756      737200
 4757              	.LASF56:
 4758 0445 63685F72 		.ascii	"ch_ready_list\000"
 4758      65616479 
 4758      5F6C6973 
 4758      7400
 4759              	.LASF25:
 4760 0453 6576656E 		.ascii	"eventmask_t\000"
 4760      746D6173 
 4760      6B5F7400 
 4761              	.LASF6:
 4762 045f 5F5F696E 		.ascii	"__int32_t\000"
 4762      7433325F 
 4762      7400
 4763              	.LASF145:
 4764 0469 2E2E2F2E 		.ascii	"../../modules/ChibiOS/os/rt/src/chevents.c\000"
 4764      2E2F6D6F 
 4764      64756C65 
 4764      732F4368 
 4764      6962694F 
 4765              	.LASF77:
 4766 0494 73746B61 		.ascii	"stkalign_t\000"
ARM GAS  /tmp/cc7TrS54.s 			page 88


 4766      6C69676E 
 4766      5F7400
 4767              	.LASF33:
 4768 049f 6E657765 		.ascii	"newer\000"
 4768      7200
 4769              	.LASF105:
 4770 04a5 6576656E 		.ascii	"event_listener_t\000"
 4770      745F6C69 
 4770      7374656E 
 4770      65725F74 
 4770      00
 4771              	.LASF44:
 4772 04b6 7265616C 		.ascii	"realprio\000"
 4772      7072696F 
 4772      00
 4773              	.LASF140:
 4774 04bf 5F737461 		.ascii	"_stats_stop_measure_crit_thd\000"
 4774      74735F73 
 4774      746F705F 
 4774      6D656173 
 4774      7572655F 
 4775              	.LASF75:
 4776 04dc 73697A65 		.ascii	"sizetype\000"
 4776      74797065 
 4776      00
 4777              	.LASF47:
 4778 04e5 74687265 		.ascii	"thread_reference_t\000"
 4778      61645F72 
 4778      65666572 
 4778      656E6365 
 4778      5F7400
 4779              	.LASF107:
 4780 04f8 6C697374 		.ascii	"listener\000"
 4780      656E6572 
 4780      00
 4781              	.LASF64:
 4782 0501 63685F76 		.ascii	"ch_virtual_timers_list\000"
 4782      69727475 
 4782      616C5F74 
 4782      696D6572 
 4782      735F6C69 
 4783              	.LASF129:
 4784 0518 63684576 		.ascii	"chEvtDispatch\000"
 4784      74446973 
 4784      70617463 
 4784      6800
 4785              	.LASF78:
 4786 0526 706F7274 		.ascii	"port_context\000"
 4786      5F636F6E 
 4786      74657874 
 4786      00
 4787              	.LASF81:
 4788 0533 746D5F63 		.ascii	"tm_calibration_t\000"
 4788      616C6962 
 4788      72617469 
 4788      6F6E5F74 
 4788      00
ARM GAS  /tmp/cc7TrS54.s 			page 89


 4789              	.LASF135:
 4790 0544 74696D65 		.ascii	"time\000"
 4790      00
 4791              	.LASF133:
 4792 0549 63684576 		.ascii	"chEvtWaitAll\000"
 4792      74576169 
 4792      74416C6C 
 4792      00
 4793              	.LASF32:
 4794 0556 7072696F 		.ascii	"prio\000"
 4794      00
 4795              	.LASF57:
 4796 055b 63757272 		.ascii	"current\000"
 4796      656E7400 
 4797              	.LASF11:
 4798 0563 5F5F7569 		.ascii	"__uint64_t\000"
 4798      6E743634 
 4798      5F7400
 4799              	.LASF85:
 4800 056e 63756D75 		.ascii	"cumulative\000"
 4800      6C617469 
 4800      766500
 4801              	.LASF130:
 4802 0579 68616E64 		.ascii	"handlers\000"
 4802      6C657273 
 4802      00
 4803              	.LASF21:
 4804 0582 74726566 		.ascii	"trefs_t\000"
 4804      735F7400 
 4805              	.LASF39:
 4806 058a 72656673 		.ascii	"refs\000"
 4806      00
 4807              	.LASF59:
 4808 058f 76697274 		.ascii	"virtual_timer_t\000"
 4808      75616C5F 
 4808      74696D65 
 4808      725F7400 
 4809              	.LASF22:
 4810 059f 74707269 		.ascii	"tprio_t\000"
 4810      6F5F7400 
 4811              	.LASF88:
 4812 05a7 6E5F6374 		.ascii	"n_ctxswc\000"
 4812      78737763 
 4812      00
 4813              	.LASF113:
 4814 05b0 5F426F6F 		.ascii	"_Bool\000"
 4814      6C00
 4815              	.LASF14:
 4816 05b6 696E7433 		.ascii	"int32_t\000"
 4816      325F7400 
 4817              	.LASF2:
 4818 05be 756E7369 		.ascii	"unsigned char\000"
 4818      676E6564 
 4818      20636861 
 4818      7200
 4819              	.LASF131:
 4820 05cc 63684576 		.ascii	"chEvtWaitOne\000"
ARM GAS  /tmp/cc7TrS54.s 			page 90


 4820      74576169 
 4820      744F6E65 
 4820      00
 4821              	.LASF3:
 4822 05d9 73686F72 		.ascii	"short int\000"
 4822      7420696E 
 4822      7400
 4823              	.LASF65:
 4824 05e3 6C617374 		.ascii	"lasttime\000"
 4824      74696D65 
 4824      00
 4825              	.LASF128:
 4826 05ec 63684576 		.ascii	"chEvtGetAndClearFlagsI\000"
 4826      74476574 
 4826      416E6443 
 4826      6C656172 
 4826      466C6167 
 4827              	.LASF99:
 4828 0603 65776D61 		.ascii	"ewmask\000"
 4828      736B00
 4829              	.LASF70:
 4830 060a 63685F73 		.ascii	"ch_system\000"
 4830      79737465 
 4830      6D00
 4831              	.LASF118:
 4832 0614 5F5F6675 		.ascii	"__func__\000"
 4832      6E635F5F 
 4832      00
 4833              	.LASF116:
 4834 061d 63685379 		.ascii	"chSysLock\000"
 4834      734C6F63 
 4834      6B00
 4835              	.LASF60:
 4836 0627 63685F76 		.ascii	"ch_virtual_timer\000"
 4836      69727475 
 4836      616C5F74 
 4836      696D6572 
 4836      00
 4837              	.LASF100:
 4838 0638 63685F73 		.ascii	"ch_semaphore\000"
 4838      656D6170 
 4838      686F7265 
 4838      00
 4839              	.LASF142:
 4840 0645 63685363 		.ascii	"chSchGoSleepS\000"
 4840      68476F53 
 4840      6C656570 
 4840      5300
 4841              	.LASF108:
 4842 0653 6576656E 		.ascii	"events\000"
 4842      747300
 4843              	.LASF15:
 4844 065a 75696E74 		.ascii	"uint32_t\000"
 4844      33325F74 
 4844      00
 4845              	.LASF98:
 4846 0663 77746D74 		.ascii	"wtmtxp\000"
ARM GAS  /tmp/cc7TrS54.s 			page 91


 4846      787000
 4847              	.LASF149:
 4848 066a 63685363 		.ascii	"chSchReadyI\000"
 4848      68526561 
 4848      64794900 
 4849              	.LASF50:
 4850 0676 63685F74 		.ascii	"ch_threads_list\000"
 4850      68726561 
 4850      64735F6C 
 4850      69737400 
 4851              	.LASF102:
 4852 0686 6F776E65 		.ascii	"owner\000"
 4852      7200
 4853              	.LASF9:
 4854 068c 6C6F6E67 		.ascii	"long unsigned int\000"
 4854      20756E73 
 4854      69676E65 
 4854      6420696E 
 4854      7400
 4855              	.LASF36:
 4856 069e 77616261 		.ascii	"wabase\000"
 4856      736500
 4857              	.LASF103:
 4858 06a5 63686172 		.ascii	"char\000"
 4858      00
 4859              	.LASF34:
 4860 06aa 6F6C6465 		.ascii	"older\000"
 4860      7200
 4861              	.LASF30:
 4862 06b0 74687265 		.ascii	"thread_t\000"
 4862      61645F74 
 4862      00
 4863              	.LASF82:
 4864 06b9 62657374 		.ascii	"best\000"
 4864      00
 4865              	.LASF143:
 4866 06be 63685363 		.ascii	"chSchGoSleepTimeoutS\000"
 4866      68476F53 
 4866      6C656570 
 4866      54696D65 
 4866      6F757453 
 4867              	.LASF29:
 4868 06d3 73797374 		.ascii	"systime_t\000"
 4868      696D655F 
 4868      7400
 4869              	.LASF58:
 4870 06dd 76746675 		.ascii	"vtfunc_t\000"
 4870      6E635F74 
 4870      00
 4871              	.LASF147:
 4872 06e6 5F5F7365 		.ascii	"__set_BASEPRI\000"
 4872      745F4241 
 4872      53455052 
 4872      4900
 4873              	.LASF68:
 4874 06f4 70616E69 		.ascii	"panic_msg\000"
 4874      635F6D73 
ARM GAS  /tmp/cc7TrS54.s 			page 92


 4874      6700
 4875              	.LASF80:
 4876 06fe 6F666673 		.ascii	"offset\000"
 4876      657400
 4877              	.LASF17:
 4878 0705 7274636E 		.ascii	"rtcnt_t\000"
 4878      745F7400 
 4879              	.LASF52:
 4880 070d 74687265 		.ascii	"threads_queue_t\000"
 4880      6164735F 
 4880      71756575 
 4880      655F7400 
 4881              	.LASF101:
 4882 071d 63685F6D 		.ascii	"ch_mutex\000"
 4882      75746578 
 4882      00
 4883              	.LASF71:
 4884 0726 726C6973 		.ascii	"rlist\000"
 4884      7400
 4885              	.LASF110:
 4886 072c 6576656E 		.ascii	"event_source\000"
 4886      745F736F 
 4886      75726365 
 4886      00
 4887              	.LASF13:
 4888 0739 75696E74 		.ascii	"uint8_t\000"
 4888      385F7400 
 4889              	.LASF38:
 4890 0741 666C6167 		.ascii	"flags\000"
 4890      7300
 4891              	.LASF139:
 4892 0747 5F737461 		.ascii	"_stats_start_measure_crit_thd\000"
 4892      74735F73 
 4892      74617274 
 4892      5F6D6561 
 4892      73757265 
 4893              	.LASF134:
 4894 0765 63684576 		.ascii	"chEvtWaitOneTimeout\000"
 4894      74576169 
 4894      744F6E65 
 4894      54696D65 
 4894      6F757400 
 4895              	.LASF94:
 4896 0779 77746F62 		.ascii	"wtobjp\000"
 4896      6A7000
 4897              	.LASF48:
 4898 0780 74687265 		.ascii	"threads_list_t\000"
 4898      6164735F 
 4898      6C697374 
 4898      5F7400
 4899              	.LASF123:
 4900 078f 63684576 		.ascii	"chEvtGetAndClearFlags\000"
 4900      74476574 
 4900      416E6443 
 4900      6C656172 
 4900      466C6167 
 4901              	.LASF117:
ARM GAS  /tmp/cc7TrS54.s 			page 93


 4902 07a5 63685379 		.ascii	"chSysUnlock\000"
 4902      73556E6C 
 4902      6F636B00 
 4903              	.LASF43:
 4904 07b1 6D74786C 		.ascii	"mtxlist\000"
 4904      69737400 
 4905              	.LASF89:
 4906 07b9 6D5F6372 		.ascii	"m_crit_thd\000"
 4906      69745F74 
 4906      686400
 4907              	.LASF106:
 4908 07c4 6576656E 		.ascii	"event_listener\000"
 4908      745F6C69 
 4908      7374656E 
 4908      657200
 4909              	.LASF124:
 4910 07d3 63684576 		.ascii	"chEvtSignalI\000"
 4910      74536967 
 4910      6E616C49 
 4910      00
 4911              		.ident	"GCC: (15:4.9.3+svn231177-1) 4.9.3 20150529 (prerelease)"
ARM GAS  /tmp/cc7TrS54.s 			page 94


DEFINED SYMBOLS
                            *ABS*:0000000000000000 chevents.c
     /tmp/cc7TrS54.s:21     .text.chSysLock:0000000000000000 $t
     /tmp/cc7TrS54.s:25     .text.chSysLock:0000000000000000 chSysLock
     /tmp/cc7TrS54.s:54     .text.chSysUnlock:0000000000000000 $t
     /tmp/cc7TrS54.s:58     .text.chSysUnlock:0000000000000000 chSysUnlock
     /tmp/cc7TrS54.s:88     .text.chEvtRegisterMaskWithFlags:0000000000000000 $t
     /tmp/cc7TrS54.s:93     .text.chEvtRegisterMaskWithFlags:0000000000000000 chEvtRegisterMaskWithFlags
     /tmp/cc7TrS54.s:151    .text.chEvtRegisterMaskWithFlags:000000000000002c $d
     /tmp/cc7TrS54.s:156    .text.chEvtUnregister:0000000000000000 $t
     /tmp/cc7TrS54.s:161    .text.chEvtUnregister:0000000000000000 chEvtUnregister
     /tmp/cc7TrS54.s:218    .text.chEvtGetAndClearEvents:0000000000000000 $t
     /tmp/cc7TrS54.s:223    .text.chEvtGetAndClearEvents:0000000000000000 chEvtGetAndClearEvents
     /tmp/cc7TrS54.s:260    .text.chEvtGetAndClearEvents:0000000000000020 $d
     /tmp/cc7TrS54.s:265    .text.chEvtAddEvents:0000000000000000 $t
     /tmp/cc7TrS54.s:270    .text.chEvtAddEvents:0000000000000000 chEvtAddEvents
     /tmp/cc7TrS54.s:304    .text.chEvtAddEvents:000000000000001c $d
     /tmp/cc7TrS54.s:309    .text.chEvtGetAndClearFlags:0000000000000000 $t
     /tmp/cc7TrS54.s:314    .text.chEvtGetAndClearFlags:0000000000000000 chEvtGetAndClearFlags
     /tmp/cc7TrS54.s:348    .text.chEvtSignalI:0000000000000000 $t
     /tmp/cc7TrS54.s:353    .text.chEvtSignalI:0000000000000000 chEvtSignalI
     /tmp/cc7TrS54.s:401    .text.chEvtBroadcastFlagsI:0000000000000000 $t
     /tmp/cc7TrS54.s:406    .text.chEvtBroadcastFlagsI:0000000000000000 chEvtBroadcastFlagsI
     /tmp/cc7TrS54.s:459    .text.chEvtSignal:0000000000000000 $t
     /tmp/cc7TrS54.s:464    .text.chEvtSignal:0000000000000000 chEvtSignal
     /tmp/cc7TrS54.s:506    .text.chEvtBroadcastFlags:0000000000000000 $t
     /tmp/cc7TrS54.s:511    .text.chEvtBroadcastFlags:0000000000000000 chEvtBroadcastFlags
     /tmp/cc7TrS54.s:553    .text.chEvtGetAndClearFlagsI:0000000000000000 $t
     /tmp/cc7TrS54.s:558    .text.chEvtGetAndClearFlagsI:0000000000000000 chEvtGetAndClearFlagsI
     /tmp/cc7TrS54.s:581    .text.chEvtDispatch:0000000000000000 $t
     /tmp/cc7TrS54.s:586    .text.chEvtDispatch:0000000000000000 chEvtDispatch
     /tmp/cc7TrS54.s:634    .text.chEvtWaitOne:0000000000000000 $t
     /tmp/cc7TrS54.s:639    .text.chEvtWaitOne:0000000000000000 chEvtWaitOne
     /tmp/cc7TrS54.s:698    .text.chEvtWaitOne:0000000000000034 $d
     /tmp/cc7TrS54.s:703    .text.chEvtWaitAny:0000000000000000 $t
     /tmp/cc7TrS54.s:708    .text.chEvtWaitAny:0000000000000000 chEvtWaitAny
     /tmp/cc7TrS54.s:765    .text.chEvtWaitAny:0000000000000030 $d
     /tmp/cc7TrS54.s:770    .text.chEvtWaitAll:0000000000000000 $t
     /tmp/cc7TrS54.s:775    .text.chEvtWaitAll:0000000000000000 chEvtWaitAll
     /tmp/cc7TrS54.s:823    .text.chEvtWaitAll:000000000000002c $d
     /tmp/cc7TrS54.s:828    .text.chEvtWaitOneTimeout:0000000000000000 $t
     /tmp/cc7TrS54.s:833    .text.chEvtWaitOneTimeout:0000000000000000 chEvtWaitOneTimeout
     /tmp/cc7TrS54.s:911    .text.chEvtWaitOneTimeout:0000000000000044 $d
     /tmp/cc7TrS54.s:916    .text.chEvtWaitAnyTimeout:0000000000000000 $t
     /tmp/cc7TrS54.s:921    .text.chEvtWaitAnyTimeout:0000000000000000 chEvtWaitAnyTimeout
     /tmp/cc7TrS54.s:994    .text.chEvtWaitAnyTimeout:0000000000000040 $d
     /tmp/cc7TrS54.s:999    .text.chEvtWaitAllTimeout:0000000000000000 $t
     /tmp/cc7TrS54.s:1004   .text.chEvtWaitAllTimeout:0000000000000000 chEvtWaitAllTimeout
     /tmp/cc7TrS54.s:1070   .text.chEvtWaitAllTimeout:0000000000000040 $d
                     .debug_frame:0000000000000010 $d

UNDEFINED SYMBOLS
_stats_start_measure_crit_thd
_stats_stop_measure_crit_thd
ch
chSchReadyI
chSchRescheduleS
ARM GAS  /tmp/cc7TrS54.s 			page 95


chSchGoSleepS
chSchGoSleepTimeoutS
