ARM GAS  /tmp/cc7TrS54.s 			page 1


   1              		.syntax unified
   2              		.cpu cortex-m4
   3              		.eabi_attribute 27, 1
   4              		.eabi_attribute 28, 1
   5              		.fpu fpv4-sp-d16
   6              		.eabi_attribute 20, 1
   7              		.eabi_attribute 21, 1
   8              		.eabi_attribute 23, 3
   9              		.eabi_attribute 24, 1
  10              		.eabi_attribute 25, 1
  11              		.eabi_attribute 26, 1
  12              		.eabi_attribute 30, 4
  13              		.eabi_attribute 34, 1
  14              		.eabi_attribute 18, 4
  15              		.thumb
  16              		.file	"chevents.c"
  17              		.text
  18              	.Ltext0:
  19              		.cfi_sections	.debug_frame
  20              		.section	.text.chSysLock,"ax",%progbits
  21              		.align	1
  22              		.thumb
  23              		.thumb_func
  24              		.type	chSysLock, %function
  25              	chSysLock:
  26              	.LFB167:
  27              		.file 1 "../../modules/ChibiOS/os/rt/include/chsys.h"
  28              		.loc 1 374 0
  29              		.cfi_startproc
  30              		@ args = 0, pretend = 0, frame = 0
  31              		@ frame_needed = 0, uses_anonymous_args = 0
  32              		@ link register save eliminated.
  33              	.LVL0:
  34              	.LBB14:
  35              	.LBB15:
  36              	.LBB16:
  37              		.file 2 "../../modules/ChibiOS/os/common/ext/CMSIS/include/cmsis_gcc.h"
  38              		.loc 2 264 0
  39 0000 2023     		movs	r3, #32
  40              	@ 264 "../../modules/ChibiOS/os/common/ext/CMSIS/include/cmsis_gcc.h" 1
  41 0002 83F31188 		MSR basepri, r3
  42              	@ 0 "" 2
  43              		.thumb
  44              	.LBE16:
  45              	.LBE15:
  46              	.LBE14:
  47              		.loc 1 377 0
  48 0006 FFF7FEBF 		b	_stats_start_measure_crit_thd
  49              	.LVL1:
  50              		.cfi_endproc
  51              	.LFE167:
  52              		.size	chSysLock, .-chSysLock
  53              		.section	.text.chSysUnlock,"ax",%progbits
  54              		.align	1
  55              		.thumb
  56              		.thumb_func
  57              		.type	chSysUnlock, %function
ARM GAS  /tmp/cc7TrS54.s 			page 2


  58              	chSysUnlock:
  59              	.LFB168:
  60              		.loc 1 386 0
  61              		.cfi_startproc
  62              		@ args = 0, pretend = 0, frame = 0
  63              		@ frame_needed = 0, uses_anonymous_args = 0
  64 0000 08B5     		push	{r3, lr}
  65              		.cfi_def_cfa_offset 8
  66              		.cfi_offset 3, -8
  67              		.cfi_offset 14, -4
  68              		.loc 1 389 0
  69 0002 FFF7FEFF 		bl	_stats_stop_measure_crit_thd
  70              	.LVL2:
  71              	.LBB17:
  72              	.LBB18:
  73              	.LBB19:
  74              		.loc 2 264 0
  75 0006 0023     		movs	r3, #0
  76              	@ 264 "../../modules/ChibiOS/os/common/ext/CMSIS/include/cmsis_gcc.h" 1
  77 0008 83F31188 		MSR basepri, r3
  78              	@ 0 "" 2
  79              		.thumb
  80 000c 08BD     		pop	{r3, pc}
  81              	.LBE19:
  82              	.LBE18:
  83              	.LBE17:
  84              		.cfi_endproc
  85              	.LFE168:
  86              		.size	chSysUnlock, .-chSysUnlock
  87              		.section	.text.chEvtRegisterMaskWithFlags,"ax",%progbits
  88              		.align	1
  89              		.global	chEvtRegisterMaskWithFlags
  90              		.thumb
  91              		.thumb_func
  92              		.type	chEvtRegisterMaskWithFlags, %function
  93              	chEvtRegisterMaskWithFlags:
  94              	.LFB246:
  95              		.file 3 "../../modules/ChibiOS/os/rt/src/chevents.c"
  96              		.loc 3 106 0
  97              		.cfi_startproc
  98              		@ args = 0, pretend = 0, frame = 0
  99              		@ frame_needed = 0, uses_anonymous_args = 0
 100              	.LVL3:
 101 0000 F8B5     		push	{r3, r4, r5, r6, r7, lr}
 102              		.cfi_def_cfa_offset 24
 103              		.cfi_offset 3, -24
 104              		.cfi_offset 4, -20
 105              		.cfi_offset 5, -16
 106              		.cfi_offset 6, -12
 107              		.cfi_offset 7, -8
 108              		.cfi_offset 14, -4
 109              		.loc 3 106 0
 110 0002 0546     		mov	r5, r0
 111 0004 0C46     		mov	r4, r1
 112 0006 1E46     		mov	r6, r3
 113 0008 1746     		mov	r7, r2
 114              		.loc 3 110 0
ARM GAS  /tmp/cc7TrS54.s 			page 3


 115 000a FFF7FEFF 		bl	chSysLock
 116              	.LVL4:
 117              		.loc 3 111 0
 118 000e 2B68     		ldr	r3, [r5]
 119 0010 2360     		str	r3, [r4]
 120              		.loc 3 113 0
 121 0012 064B     		ldr	r3, .L4
 122              		.loc 3 112 0
 123 0014 2C60     		str	r4, [r5]
 124              		.loc 3 113 0
 125 0016 9B69     		ldr	r3, [r3, #24]
 126 0018 6360     		str	r3, [r4, #4]
 127              		.loc 3 115 0
 128 001a 0023     		movs	r3, #0
 129              		.loc 3 114 0
 130 001c A760     		str	r7, [r4, #8]
 131              		.loc 3 115 0
 132 001e E360     		str	r3, [r4, #12]
 133              		.loc 3 116 0
 134 0020 2661     		str	r6, [r4, #16]
 135              		.loc 3 118 0
 136 0022 BDE8F840 		pop	{r3, r4, r5, r6, r7, lr}
 137              		.cfi_restore 14
 138              		.cfi_restore 7
 139              		.cfi_restore 6
 140              		.cfi_restore 5
 141              		.cfi_restore 4
 142              		.cfi_restore 3
 143              		.cfi_def_cfa_offset 0
 144              	.LVL5:
 145              		.loc 3 117 0
 146 0026 FFF7FEBF 		b	chSysUnlock
 147              	.LVL6:
 148              	.L5:
 149 002a 00BF     		.align	2
 150              	.L4:
 151 002c 00000000 		.word	ch
 152              		.cfi_endproc
 153              	.LFE246:
 154              		.size	chEvtRegisterMaskWithFlags, .-chEvtRegisterMaskWithFlags
 155              		.section	.text.chEvtUnregister,"ax",%progbits
 156              		.align	1
 157              		.global	chEvtUnregister
 158              		.thumb
 159              		.thumb_func
 160              		.type	chEvtUnregister, %function
 161              	chEvtUnregister:
 162              	.LFB247:
 163              		.loc 3 133 0
 164              		.cfi_startproc
 165              		@ args = 0, pretend = 0, frame = 0
 166              		@ frame_needed = 0, uses_anonymous_args = 0
 167              	.LVL7:
 168 0000 38B5     		push	{r3, r4, r5, lr}
 169              		.cfi_def_cfa_offset 16
 170              		.cfi_offset 3, -16
 171              		.cfi_offset 4, -12
ARM GAS  /tmp/cc7TrS54.s 			page 4


 172              		.cfi_offset 5, -8
 173              		.cfi_offset 14, -4
 174              		.loc 3 133 0
 175 0002 0446     		mov	r4, r0
 176              	.LVL8:
 177 0004 0D46     		mov	r5, r1
 178              		.loc 3 141 0
 179 0006 FFF7FEFF 		bl	chSysLock
 180              	.LVL9:
 181              		.loc 3 139 0
 182 000a 2246     		mov	r2, r4
 183              	.LVL10:
 184              	.L7:
 185              		.loc 3 143 0
 186 000c 1368     		ldr	r3, [r2]
 187 000e A342     		cmp	r3, r4
 188 0010 06D0     		beq	.L8
 189              		.loc 3 145 0
 190 0012 AB42     		cmp	r3, r5
 191 0014 02D1     		bne	.L10
 192              		.loc 3 146 0
 193 0016 2B68     		ldr	r3, [r5]
 194 0018 1360     		str	r3, [r2]
 195              		.loc 3 147 0
 196 001a 01E0     		b	.L8
 197              	.L10:
 198 001c 1A46     		mov	r2, r3
 199              	.LVL11:
 200 001e F5E7     		b	.L7
 201              	.LVL12:
 202              	.L8:
 203              		.loc 3 152 0
 204 0020 BDE83840 		pop	{r3, r4, r5, lr}
 205              		.cfi_restore 14
 206              		.cfi_restore 5
 207              		.cfi_restore 4
 208              		.cfi_restore 3
 209              		.cfi_def_cfa_offset 0
 210              	.LVL13:
 211              		.loc 3 151 0
 212 0024 FFF7FEBF 		b	chSysUnlock
 213              	.LVL14:
 214              		.cfi_endproc
 215              	.LFE247:
 216              		.size	chEvtUnregister, .-chEvtUnregister
 217              		.section	.text.chEvtGetAndClearEvents,"ax",%progbits
 218              		.align	1
 219              		.global	chEvtGetAndClearEvents
 220              		.thumb
 221              		.thumb_func
 222              		.type	chEvtGetAndClearEvents, %function
 223              	chEvtGetAndClearEvents:
 224              	.LFB248:
 225              		.loc 3 162 0
 226              		.cfi_startproc
 227              		@ args = 0, pretend = 0, frame = 0
 228              		@ frame_needed = 0, uses_anonymous_args = 0
ARM GAS  /tmp/cc7TrS54.s 			page 5


 229              	.LVL15:
 230 0000 38B5     		push	{r3, r4, r5, lr}
 231              		.cfi_def_cfa_offset 16
 232              		.cfi_offset 3, -16
 233              		.cfi_offset 4, -12
 234              		.cfi_offset 5, -8
 235              		.cfi_offset 14, -4
 236              		.loc 3 162 0
 237 0002 0446     		mov	r4, r0
 238              		.loc 3 165 0
 239 0004 FFF7FEFF 		bl	chSysLock
 240              	.LVL16:
 241              		.loc 3 166 0
 242 0008 054B     		ldr	r3, .L13
 243 000a 9A69     		ldr	r2, [r3, #24]
 244 000c 536B     		ldr	r3, [r2, #52]
 245 000e 04EA0305 		and	r5, r4, r3
 246              	.LVL17:
 247              		.loc 3 167 0
 248 0012 23EA0403 		bic	r3, r3, r4
 249 0016 5363     		str	r3, [r2, #52]
 250              		.loc 3 168 0
 251 0018 FFF7FEFF 		bl	chSysUnlock
 252              	.LVL18:
 253              		.loc 3 171 0
 254 001c 2846     		mov	r0, r5
 255 001e 38BD     		pop	{r3, r4, r5, pc}
 256              	.LVL19:
 257              	.L14:
 258              		.align	2
 259              	.L13:
 260 0020 00000000 		.word	ch
 261              		.cfi_endproc
 262              	.LFE248:
 263              		.size	chEvtGetAndClearEvents, .-chEvtGetAndClearEvents
 264              		.section	.text.chEvtAddEvents,"ax",%progbits
 265              		.align	1
 266              		.global	chEvtAddEvents
 267              		.thumb
 268              		.thumb_func
 269              		.type	chEvtAddEvents, %function
 270              	chEvtAddEvents:
 271              	.LFB249:
 272              		.loc 3 182 0
 273              		.cfi_startproc
 274              		@ args = 0, pretend = 0, frame = 0
 275              		@ frame_needed = 0, uses_anonymous_args = 0
 276              	.LVL20:
 277 0000 10B5     		push	{r4, lr}
 278              		.cfi_def_cfa_offset 8
 279              		.cfi_offset 4, -8
 280              		.cfi_offset 14, -4
 281              		.loc 3 182 0
 282 0002 0446     		mov	r4, r0
 283              		.loc 3 184 0
 284 0004 FFF7FEFF 		bl	chSysLock
 285              	.LVL21:
ARM GAS  /tmp/cc7TrS54.s 			page 6


 286              		.loc 3 185 0
 287 0008 044B     		ldr	r3, .L16
 288 000a 9A69     		ldr	r2, [r3, #24]
 289 000c 536B     		ldr	r3, [r2, #52]
 290 000e 1C43     		orrs	r4, r4, r3
 291              	.LVL22:
 292 0010 5463     		str	r4, [r2, #52]
 293              	.LVL23:
 294              		.loc 3 187 0
 295 0012 FFF7FEFF 		bl	chSysUnlock
 296              	.LVL24:
 297              		.loc 3 190 0
 298 0016 2046     		mov	r0, r4
 299 0018 10BD     		pop	{r4, pc}
 300              	.LVL25:
 301              	.L17:
 302 001a 00BF     		.align	2
 303              	.L16:
 304 001c 00000000 		.word	ch
 305              		.cfi_endproc
 306              	.LFE249:
 307              		.size	chEvtAddEvents, .-chEvtAddEvents
 308              		.section	.text.chEvtGetAndClearFlags,"ax",%progbits
 309              		.align	1
 310              		.global	chEvtGetAndClearFlags
 311              		.thumb
 312              		.thumb_func
 313              		.type	chEvtGetAndClearFlags, %function
 314              	chEvtGetAndClearFlags:
 315              	.LFB251:
 316              		.loc 3 241 0
 317              		.cfi_startproc
 318              		@ args = 0, pretend = 0, frame = 0
 319              		@ frame_needed = 0, uses_anonymous_args = 0
 320              	.LVL26:
 321 0000 38B5     		push	{r3, r4, r5, lr}
 322              		.cfi_def_cfa_offset 16
 323              		.cfi_offset 3, -16
 324              		.cfi_offset 4, -12
 325              		.cfi_offset 5, -8
 326              		.cfi_offset 14, -4
 327              		.loc 3 241 0
 328 0002 0446     		mov	r4, r0
 329              		.loc 3 244 0
 330 0004 FFF7FEFF 		bl	chSysLock
 331              	.LVL27:
 332              		.loc 3 245 0
 333 0008 E568     		ldr	r5, [r4, #12]
 334              	.LVL28:
 335              		.loc 3 246 0
 336 000a 0023     		movs	r3, #0
 337 000c E360     		str	r3, [r4, #12]
 338              		.loc 3 247 0
 339 000e FFF7FEFF 		bl	chSysUnlock
 340              	.LVL29:
 341              		.loc 3 250 0
 342 0012 2846     		mov	r0, r5
ARM GAS  /tmp/cc7TrS54.s 			page 7


 343 0014 38BD     		pop	{r3, r4, r5, pc}
 344              		.cfi_endproc
 345              	.LFE251:
 346              		.size	chEvtGetAndClearFlags, .-chEvtGetAndClearFlags
 347              		.section	.text.chEvtSignalI,"ax",%progbits
 348              		.align	1
 349              		.global	chEvtSignalI
 350              		.thumb
 351              		.thumb_func
 352              		.type	chEvtSignalI, %function
 353              	chEvtSignalI:
 354              	.LFB253:
 355              		.loc 3 282 0
 356              		.cfi_startproc
 357              		@ args = 0, pretend = 0, frame = 0
 358              		@ frame_needed = 0, uses_anonymous_args = 0
 359              		@ link register save eliminated.
 360              	.LVL30:
 361              		.loc 3 287 0
 362 0000 436B     		ldr	r3, [r0, #52]
 363 0002 1943     		orrs	r1, r1, r3
 364              	.LVL31:
 365              		.loc 3 289 0
 366 0004 90F82030 		ldrb	r3, [r0, #32]	@ zero_extendqisi2
 367              		.loc 3 287 0
 368 0008 4163     		str	r1, [r0, #52]
 369              		.loc 3 289 0
 370 000a 0A2B     		cmp	r3, #10
 371 000c 03D1     		bne	.L20
 372              		.loc 3 290 0 discriminator 1
 373 000e 436A     		ldr	r3, [r0, #36]
 374              		.loc 3 289 0 discriminator 1
 375 0010 1942     		tst	r1, r3
 376 0012 06D1     		bne	.L21
 377 0014 7047     		bx	lr
 378              	.L20:
 379              		.loc 3 290 0
 380 0016 0B2B     		cmp	r3, #11
 381 0018 07D1     		bne	.L19
 382              		.loc 3 292 0
 383 001a 436A     		ldr	r3, [r0, #36]
 384 001c 1940     		ands	r1, r1, r3
 385              		.loc 3 291 0
 386 001e 9942     		cmp	r1, r3
 387 0020 03D1     		bne	.L19
 388              	.L21:
 389              		.loc 3 293 0
 390 0022 0023     		movs	r3, #0
 391 0024 4362     		str	r3, [r0, #36]
 392              		.loc 3 294 0
 393 0026 FFF7FEBF 		b	chSchReadyI
 394              	.LVL32:
 395              	.L19:
 396 002a 7047     		bx	lr
 397              		.cfi_endproc
 398              	.LFE253:
 399              		.size	chEvtSignalI, .-chEvtSignalI
ARM GAS  /tmp/cc7TrS54.s 			page 8


 400              		.section	.text.chEvtBroadcastFlagsI,"ax",%progbits
 401              		.align	1
 402              		.global	chEvtBroadcastFlagsI
 403              		.thumb
 404              		.thumb_func
 405              		.type	chEvtBroadcastFlagsI, %function
 406              	chEvtBroadcastFlagsI:
 407              	.LFB250:
 408              		.loc 3 209 0
 409              		.cfi_startproc
 410              		@ args = 0, pretend = 0, frame = 0
 411              		@ frame_needed = 0, uses_anonymous_args = 0
 412              	.LVL33:
 413 0000 70B5     		push	{r4, r5, r6, lr}
 414              		.cfi_def_cfa_offset 16
 415              		.cfi_offset 4, -16
 416              		.cfi_offset 5, -12
 417              		.cfi_offset 6, -8
 418              		.cfi_offset 14, -4
 419              		.loc 3 215 0
 420 0002 0468     		ldr	r4, [r0]
 421              	.LVL34:
 422              		.loc 3 209 0
 423 0004 0546     		mov	r5, r0
 424 0006 0E46     		mov	r6, r1
 425              	.LVL35:
 426              	.L24:
 427              		.loc 3 217 0
 428 0008 AC42     		cmp	r4, r5
 429 000a 0CD0     		beq	.L34
 430              		.loc 3 219 0
 431 000c E368     		ldr	r3, [r4, #12]
 432 000e 3343     		orrs	r3, r3, r6
 433 0010 E360     		str	r3, [r4, #12]
 434              		.loc 3 222 0
 435 0012 16B1     		cbz	r6, .L25
 436              		.loc 3 223 0 discriminator 1
 437 0014 2269     		ldr	r2, [r4, #16]
 438              		.loc 3 222 0 discriminator 1
 439 0016 1342     		tst	r3, r2
 440 0018 03D0     		beq	.L26
 441              	.L25:
 442              		.loc 3 224 0
 443 001a 6068     		ldr	r0, [r4, #4]
 444 001c A168     		ldr	r1, [r4, #8]
 445 001e FFF7FEFF 		bl	chEvtSignalI
 446              	.LVL36:
 447              	.L26:
 448              		.loc 3 226 0
 449 0022 2468     		ldr	r4, [r4]
 450              	.LVL37:
 451 0024 F0E7     		b	.L24
 452              	.L34:
 453              		.loc 3 228 0
 454 0026 70BD     		pop	{r4, r5, r6, pc}
 455              		.cfi_endproc
 456              	.LFE250:
ARM GAS  /tmp/cc7TrS54.s 			page 9


 457              		.size	chEvtBroadcastFlagsI, .-chEvtBroadcastFlagsI
 458              		.section	.text.chEvtSignal,"ax",%progbits
 459              		.align	1
 460              		.global	chEvtSignal
 461              		.thumb
 462              		.thumb_func
 463              		.type	chEvtSignal, %function
 464              	chEvtSignal:
 465              	.LFB252:
 466              		.loc 3 260 0
 467              		.cfi_startproc
 468              		@ args = 0, pretend = 0, frame = 0
 469              		@ frame_needed = 0, uses_anonymous_args = 0
 470              	.LVL38:
 471 0000 38B5     		push	{r3, r4, r5, lr}
 472              		.cfi_def_cfa_offset 16
 473              		.cfi_offset 3, -16
 474              		.cfi_offset 4, -12
 475              		.cfi_offset 5, -8
 476              		.cfi_offset 14, -4
 477              		.loc 3 260 0
 478 0002 0546     		mov	r5, r0
 479 0004 0C46     		mov	r4, r1
 480              		.loc 3 264 0
 481 0006 FFF7FEFF 		bl	chSysLock
 482              	.LVL39:
 483              		.loc 3 265 0
 484 000a 2846     		mov	r0, r5
 485 000c 2146     		mov	r1, r4
 486 000e FFF7FEFF 		bl	chEvtSignalI
 487              	.LVL40:
 488              		.loc 3 266 0
 489 0012 FFF7FEFF 		bl	chSchRescheduleS
 490              	.LVL41:
 491              		.loc 3 268 0
 492 0016 BDE83840 		pop	{r3, r4, r5, lr}
 493              		.cfi_restore 14
 494              		.cfi_restore 5
 495              		.cfi_restore 4
 496              		.cfi_restore 3
 497              		.cfi_def_cfa_offset 0
 498              	.LVL42:
 499              		.loc 3 267 0
 500 001a FFF7FEBF 		b	chSysUnlock
 501              	.LVL43:
 502              		.cfi_endproc
 503              	.LFE252:
 504              		.size	chEvtSignal, .-chEvtSignal
 505              		.section	.text.chEvtBroadcastFlags,"ax",%progbits
 506              		.align	1
 507              		.global	chEvtBroadcastFlags
 508              		.thumb
 509              		.thumb_func
 510              		.type	chEvtBroadcastFlags, %function
 511              	chEvtBroadcastFlags:
 512              	.LFB254:
 513              		.loc 3 311 0
ARM GAS  /tmp/cc7TrS54.s 			page 10


 514              		.cfi_startproc
 515              		@ args = 0, pretend = 0, frame = 0
 516              		@ frame_needed = 0, uses_anonymous_args = 0
 517              	.LVL44:
 518 0000 38B5     		push	{r3, r4, r5, lr}
 519              		.cfi_def_cfa_offset 16
 520              		.cfi_offset 3, -16
 521              		.cfi_offset 4, -12
 522              		.cfi_offset 5, -8
 523              		.cfi_offset 14, -4
 524              		.loc 3 311 0
 525 0002 0546     		mov	r5, r0
 526 0004 0C46     		mov	r4, r1
 527              		.loc 3 313 0
 528 0006 FFF7FEFF 		bl	chSysLock
 529              	.LVL45:
 530              		.loc 3 314 0
 531 000a 2846     		mov	r0, r5
 532 000c 2146     		mov	r1, r4
 533 000e FFF7FEFF 		bl	chEvtBroadcastFlagsI
 534              	.LVL46:
 535              		.loc 3 315 0
 536 0012 FFF7FEFF 		bl	chSchRescheduleS
 537              	.LVL47:
 538              		.loc 3 317 0
 539 0016 BDE83840 		pop	{r3, r4, r5, lr}
 540              		.cfi_restore 14
 541              		.cfi_restore 5
 542              		.cfi_restore 4
 543              		.cfi_restore 3
 544              		.cfi_def_cfa_offset 0
 545              	.LVL48:
 546              		.loc 3 316 0
 547 001a FFF7FEBF 		b	chSysUnlock
 548              	.LVL49:
 549              		.cfi_endproc
 550              	.LFE254:
 551              		.size	chEvtBroadcastFlags, .-chEvtBroadcastFlags
 552              		.section	.text.chEvtGetAndClearFlagsI,"ax",%progbits
 553              		.align	1
 554              		.global	chEvtGetAndClearFlagsI
 555              		.thumb
 556              		.thumb_func
 557              		.type	chEvtGetAndClearFlagsI, %function
 558              	chEvtGetAndClearFlagsI:
 559              	.LFB255:
 560              		.loc 3 330 0
 561              		.cfi_startproc
 562              		@ args = 0, pretend = 0, frame = 0
 563              		@ frame_needed = 0, uses_anonymous_args = 0
 564              		@ link register save eliminated.
 565              	.LVL50:
 566              		.loc 3 330 0
 567 0000 0346     		mov	r3, r0
 568              		.loc 3 334 0
 569 0002 0022     		movs	r2, #0
 570              		.loc 3 333 0
ARM GAS  /tmp/cc7TrS54.s 			page 11


 571 0004 C068     		ldr	r0, [r0, #12]
 572              	.LVL51:
 573              		.loc 3 334 0
 574 0006 DA60     		str	r2, [r3, #12]
 575              		.loc 3 337 0
 576 0008 7047     		bx	lr
 577              		.cfi_endproc
 578              	.LFE255:
 579              		.size	chEvtGetAndClearFlagsI, .-chEvtGetAndClearFlagsI
 580              		.section	.text.chEvtDispatch,"ax",%progbits
 581              		.align	1
 582              		.global	chEvtDispatch
 583              		.thumb
 584              		.thumb_func
 585              		.type	chEvtDispatch, %function
 586              	chEvtDispatch:
 587              	.LFB256:
 588              		.loc 3 348 0
 589              		.cfi_startproc
 590              		@ args = 0, pretend = 0, frame = 0
 591              		@ frame_needed = 0, uses_anonymous_args = 0
 592              	.LVL52:
 593 0000 70B5     		push	{r4, r5, r6, lr}
 594              		.cfi_def_cfa_offset 16
 595              		.cfi_offset 4, -16
 596              		.cfi_offset 5, -12
 597              		.cfi_offset 6, -8
 598              		.cfi_offset 14, -4
 599              		.loc 3 348 0
 600 0002 0646     		mov	r6, r0
 601 0004 0D46     		mov	r5, r1
 602              		.loc 3 353 0
 603 0006 0024     		movs	r4, #0
 604              	.LVL53:
 605              	.L39:
 606              		.loc 3 354 0
 607 0008 6DB1     		cbz	r5, .L45
 608              		.loc 3 355 0
 609 000a 25FA04F3 		lsr	r3, r5, r4
 610 000e DB07     		lsls	r3, r3, #31
 611 0010 07D5     		bpl	.L40
 612              		.loc 3 357 0
 613 0012 0123     		movs	r3, #1
 614 0014 A340     		lsls	r3, r3, r4
 615 0016 25EA0305 		bic	r5, r5, r3
 616              	.LVL54:
 617              		.loc 3 358 0
 618 001a 2046     		mov	r0, r4
 619 001c 56F82430 		ldr	r3, [r6, r4, lsl #2]
 620 0020 9847     		blx	r3
 621              	.LVL55:
 622              	.L40:
 623              		.loc 3 360 0
 624 0022 0134     		adds	r4, r4, #1
 625              	.LVL56:
 626 0024 F0E7     		b	.L39
 627              	.L45:
ARM GAS  /tmp/cc7TrS54.s 			page 12


 628              		.loc 3 362 0
 629 0026 70BD     		pop	{r4, r5, r6, pc}
 630              		.cfi_endproc
 631              	.LFE256:
 632              		.size	chEvtDispatch, .-chEvtDispatch
 633              		.section	.text.chEvtWaitOne,"ax",%progbits
 634              		.align	1
 635              		.global	chEvtWaitOne
 636              		.thumb
 637              		.thumb_func
 638              		.type	chEvtWaitOne, %function
 639              	chEvtWaitOne:
 640              	.LFB257:
 641              		.loc 3 383 0
 642              		.cfi_startproc
 643              		@ args = 0, pretend = 0, frame = 0
 644              		@ frame_needed = 0, uses_anonymous_args = 0
 645              	.LVL57:
 646 0000 38B5     		push	{r3, r4, r5, lr}
 647              		.cfi_def_cfa_offset 16
 648              		.cfi_offset 3, -16
 649              		.cfi_offset 4, -12
 650              		.cfi_offset 5, -8
 651              		.cfi_offset 14, -4
 652              		.loc 3 384 0
 653 0002 0C4B     		ldr	r3, .L48
 654 0004 9D69     		ldr	r5, [r3, #24]
 655              	.LVL58:
 656              		.loc 3 383 0
 657 0006 0446     		mov	r4, r0
 658              		.loc 3 387 0
 659 0008 FFF7FEFF 		bl	chSysLock
 660              	.LVL59:
 661              		.loc 3 388 0
 662 000c 6B6B     		ldr	r3, [r5, #52]
 663              	.LVL60:
 664              		.loc 3 389 0
 665 000e 2340     		ands	r3, r4, r3
 666              	.LVL61:
 667 0010 05D1     		bne	.L47
 668              		.loc 3 390 0
 669 0012 6C62     		str	r4, [r5, #36]
 670              		.loc 3 391 0
 671 0014 0A20     		movs	r0, #10
 672 0016 FFF7FEFF 		bl	chSchGoSleepS
 673              	.LVL62:
 674              		.loc 3 392 0
 675 001a 6B6B     		ldr	r3, [r5, #52]
 676 001c 2340     		ands	r3, r3, r4
 677              	.LVL63:
 678              	.L47:
 679              		.loc 3 394 0
 680 001e 5C42     		negs	r4, r3
 681              	.LVL64:
 682 0020 1C40     		ands	r4, r4, r3
 683              	.LVL65:
 684              		.loc 3 395 0
ARM GAS  /tmp/cc7TrS54.s 			page 13


 685 0022 6B6B     		ldr	r3, [r5, #52]
 686 0024 23EA0403 		bic	r3, r3, r4
 687 0028 6B63     		str	r3, [r5, #52]
 688              		.loc 3 396 0
 689 002a FFF7FEFF 		bl	chSysUnlock
 690              	.LVL66:
 691              		.loc 3 399 0
 692 002e 2046     		mov	r0, r4
 693 0030 38BD     		pop	{r3, r4, r5, pc}
 694              	.LVL67:
 695              	.L49:
 696 0032 00BF     		.align	2
 697              	.L48:
 698 0034 00000000 		.word	ch
 699              		.cfi_endproc
 700              	.LFE257:
 701              		.size	chEvtWaitOne, .-chEvtWaitOne
 702              		.section	.text.chEvtWaitAny,"ax",%progbits
 703              		.align	1
 704              		.global	chEvtWaitAny
 705              		.thumb
 706              		.thumb_func
 707              		.type	chEvtWaitAny, %function
 708              	chEvtWaitAny:
 709              	.LFB258:
 710              		.loc 3 413 0
 711              		.cfi_startproc
 712              		@ args = 0, pretend = 0, frame = 0
 713              		@ frame_needed = 0, uses_anonymous_args = 0
 714              	.LVL68:
 715              		.loc 3 414 0
 716 0000 0B4B     		ldr	r3, .L52
 717              		.loc 3 413 0
 718 0002 70B5     		push	{r4, r5, r6, lr}
 719              		.cfi_def_cfa_offset 16
 720              		.cfi_offset 4, -16
 721              		.cfi_offset 5, -12
 722              		.cfi_offset 6, -8
 723              		.cfi_offset 14, -4
 724              		.loc 3 414 0
 725 0004 9D69     		ldr	r5, [r3, #24]
 726              	.LVL69:
 727              		.loc 3 413 0
 728 0006 0646     		mov	r6, r0
 729              		.loc 3 417 0
 730 0008 FFF7FEFF 		bl	chSysLock
 731              	.LVL70:
 732              		.loc 3 418 0
 733 000c 6C6B     		ldr	r4, [r5, #52]
 734              	.LVL71:
 735              		.loc 3 419 0
 736 000e 3440     		ands	r4, r6, r4
 737              	.LVL72:
 738 0010 05D1     		bne	.L51
 739              		.loc 3 420 0
 740 0012 6E62     		str	r6, [r5, #36]
 741              		.loc 3 421 0
ARM GAS  /tmp/cc7TrS54.s 			page 14


 742 0014 0A20     		movs	r0, #10
 743 0016 FFF7FEFF 		bl	chSchGoSleepS
 744              	.LVL73:
 745              		.loc 3 422 0
 746 001a 6C6B     		ldr	r4, [r5, #52]
 747              	.LVL74:
 748 001c 3440     		ands	r4, r4, r6
 749              	.LVL75:
 750              	.L51:
 751              		.loc 3 424 0
 752 001e 6B6B     		ldr	r3, [r5, #52]
 753 0020 23EA0403 		bic	r3, r3, r4
 754 0024 6B63     		str	r3, [r5, #52]
 755              		.loc 3 425 0
 756 0026 FFF7FEFF 		bl	chSysUnlock
 757              	.LVL76:
 758              		.loc 3 428 0
 759 002a 2046     		mov	r0, r4
 760 002c 70BD     		pop	{r4, r5, r6, pc}
 761              	.LVL77:
 762              	.L53:
 763 002e 00BF     		.align	2
 764              	.L52:
 765 0030 00000000 		.word	ch
 766              		.cfi_endproc
 767              	.LFE258:
 768              		.size	chEvtWaitAny, .-chEvtWaitAny
 769              		.section	.text.chEvtWaitAll,"ax",%progbits
 770              		.align	1
 771              		.global	chEvtWaitAll
 772              		.thumb
 773              		.thumb_func
 774              		.type	chEvtWaitAll, %function
 775              	chEvtWaitAll:
 776              	.LFB259:
 777              		.loc 3 441 0
 778              		.cfi_startproc
 779              		@ args = 0, pretend = 0, frame = 0
 780              		@ frame_needed = 0, uses_anonymous_args = 0
 781              	.LVL78:
 782 0000 38B5     		push	{r3, r4, r5, lr}
 783              		.cfi_def_cfa_offset 16
 784              		.cfi_offset 3, -16
 785              		.cfi_offset 4, -12
 786              		.cfi_offset 5, -8
 787              		.cfi_offset 14, -4
 788              		.loc 3 442 0
 789 0002 0A4B     		ldr	r3, .L56
 790 0004 9D69     		ldr	r5, [r3, #24]
 791              	.LVL79:
 792              		.loc 3 441 0
 793 0006 0446     		mov	r4, r0
 794              		.loc 3 444 0
 795 0008 FFF7FEFF 		bl	chSysLock
 796              	.LVL80:
 797              		.loc 3 445 0
 798 000c 6B6B     		ldr	r3, [r5, #52]
ARM GAS  /tmp/cc7TrS54.s 			page 15


 799 000e 2340     		ands	r3, r3, r4
 800 0010 A342     		cmp	r3, r4
 801 0012 03D0     		beq	.L55
 802              		.loc 3 446 0
 803 0014 6C62     		str	r4, [r5, #36]
 804              		.loc 3 447 0
 805 0016 0B20     		movs	r0, #11
 806 0018 FFF7FEFF 		bl	chSchGoSleepS
 807              	.LVL81:
 808              	.L55:
 809              		.loc 3 449 0
 810 001c 6B6B     		ldr	r3, [r5, #52]
 811 001e 23EA0403 		bic	r3, r3, r4
 812 0022 6B63     		str	r3, [r5, #52]
 813              		.loc 3 450 0
 814 0024 FFF7FEFF 		bl	chSysUnlock
 815              	.LVL82:
 816              		.loc 3 453 0
 817 0028 2046     		mov	r0, r4
 818 002a 38BD     		pop	{r3, r4, r5, pc}
 819              	.LVL83:
 820              	.L57:
 821              		.align	2
 822              	.L56:
 823 002c 00000000 		.word	ch
 824              		.cfi_endproc
 825              	.LFE259:
 826              		.size	chEvtWaitAll, .-chEvtWaitAll
 827              		.section	.text.chEvtWaitOneTimeout,"ax",%progbits
 828              		.align	1
 829              		.global	chEvtWaitOneTimeout
 830              		.thumb
 831              		.thumb_func
 832              		.type	chEvtWaitOneTimeout, %function
 833              	chEvtWaitOneTimeout:
 834              	.LFB260:
 835              		.loc 3 479 0
 836              		.cfi_startproc
 837              		@ args = 0, pretend = 0, frame = 0
 838              		@ frame_needed = 0, uses_anonymous_args = 0
 839              	.LVL84:
 840              		.loc 3 480 0
 841 0000 104B     		ldr	r3, .L63
 842              		.loc 3 479 0
 843 0002 70B5     		push	{r4, r5, r6, lr}
 844              		.cfi_def_cfa_offset 16
 845              		.cfi_offset 4, -16
 846              		.cfi_offset 5, -12
 847              		.cfi_offset 6, -8
 848              		.cfi_offset 14, -4
 849              		.loc 3 480 0
 850 0004 9D69     		ldr	r5, [r3, #24]
 851              	.LVL85:
 852              		.loc 3 479 0
 853 0006 0446     		mov	r4, r0
 854 0008 0E46     		mov	r6, r1
 855              		.loc 3 483 0
ARM GAS  /tmp/cc7TrS54.s 			page 16


 856 000a FFF7FEFF 		bl	chSysLock
 857              	.LVL86:
 858              		.loc 3 484 0
 859 000e 6B6B     		ldr	r3, [r5, #52]
 860              	.LVL87:
 861              		.loc 3 485 0
 862 0010 2340     		ands	r3, r4, r3
 863              	.LVL88:
 864 0012 0DD1     		bne	.L59
 865              		.loc 3 486 0
 866 0014 1EB9     		cbnz	r6, .L60
 867              	.LVL89:
 868              	.L62:
 869              		.loc 3 487 0
 870 0016 FFF7FEFF 		bl	chSysUnlock
 871              	.LVL90:
 872              		.loc 3 488 0
 873 001a 0020     		movs	r0, #0
 874 001c 70BD     		pop	{r4, r5, r6, pc}
 875              	.LVL91:
 876              	.L60:
 877              		.loc 3 490 0
 878 001e 6C62     		str	r4, [r5, #36]
 879              		.loc 3 491 0
 880 0020 0A20     		movs	r0, #10
 881 0022 3146     		mov	r1, r6
 882 0024 FFF7FEFF 		bl	chSchGoSleepTimeoutS
 883              	.LVL92:
 884 0028 0028     		cmp	r0, #0
 885 002a F4DB     		blt	.L62
 886              		.loc 3 495 0
 887 002c 6B6B     		ldr	r3, [r5, #52]
 888 002e 2340     		ands	r3, r3, r4
 889              	.LVL93:
 890              	.L59:
 891              		.loc 3 497 0
 892 0030 5C42     		negs	r4, r3
 893              	.LVL94:
 894 0032 1C40     		ands	r4, r4, r3
 895              	.LVL95:
 896              		.loc 3 498 0
 897 0034 6B6B     		ldr	r3, [r5, #52]
 898 0036 23EA0403 		bic	r3, r3, r4
 899 003a 6B63     		str	r3, [r5, #52]
 900              		.loc 3 499 0
 901 003c FFF7FEFF 		bl	chSysUnlock
 902              	.LVL96:
 903              		.loc 3 501 0
 904 0040 2046     		mov	r0, r4
 905              		.loc 3 502 0
 906 0042 70BD     		pop	{r4, r5, r6, pc}
 907              	.LVL97:
 908              	.L64:
 909              		.align	2
 910              	.L63:
 911 0044 00000000 		.word	ch
 912              		.cfi_endproc
ARM GAS  /tmp/cc7TrS54.s 			page 17


 913              	.LFE260:
 914              		.size	chEvtWaitOneTimeout, .-chEvtWaitOneTimeout
 915              		.section	.text.chEvtWaitAnyTimeout,"ax",%progbits
 916              		.align	1
 917              		.global	chEvtWaitAnyTimeout
 918              		.thumb
 919              		.thumb_func
 920              		.type	chEvtWaitAnyTimeout, %function
 921              	chEvtWaitAnyTimeout:
 922              	.LFB261:
 923              		.loc 3 522 0
 924              		.cfi_startproc
 925              		@ args = 0, pretend = 0, frame = 0
 926              		@ frame_needed = 0, uses_anonymous_args = 0
 927              	.LVL98:
 928 0000 F8B5     		push	{r3, r4, r5, r6, r7, lr}
 929              		.cfi_def_cfa_offset 24
 930              		.cfi_offset 3, -24
 931              		.cfi_offset 4, -20
 932              		.cfi_offset 5, -16
 933              		.cfi_offset 6, -12
 934              		.cfi_offset 7, -8
 935              		.cfi_offset 14, -4
 936              		.loc 3 523 0
 937 0002 0F4B     		ldr	r3, .L70
 938 0004 9D69     		ldr	r5, [r3, #24]
 939              	.LVL99:
 940              		.loc 3 522 0
 941 0006 0646     		mov	r6, r0
 942 0008 0F46     		mov	r7, r1
 943              		.loc 3 526 0
 944 000a FFF7FEFF 		bl	chSysLock
 945              	.LVL100:
 946              		.loc 3 527 0
 947 000e 6C6B     		ldr	r4, [r5, #52]
 948              	.LVL101:
 949              		.loc 3 528 0
 950 0010 3440     		ands	r4, r6, r4
 951              	.LVL102:
 952 0012 0DD1     		bne	.L66
 953              		.loc 3 529 0
 954 0014 1FB9     		cbnz	r7, .L67
 955              	.L69:
 956              		.loc 3 530 0
 957 0016 FFF7FEFF 		bl	chSysUnlock
 958              	.LVL103:
 959              		.loc 3 531 0
 960 001a 0020     		movs	r0, #0
 961 001c F8BD     		pop	{r3, r4, r5, r6, r7, pc}
 962              	.LVL104:
 963              	.L67:
 964              		.loc 3 533 0
 965 001e 6E62     		str	r6, [r5, #36]
 966              		.loc 3 534 0
 967 0020 0A20     		movs	r0, #10
 968 0022 3946     		mov	r1, r7
 969 0024 FFF7FEFF 		bl	chSchGoSleepTimeoutS
ARM GAS  /tmp/cc7TrS54.s 			page 18


 970              	.LVL105:
 971 0028 0028     		cmp	r0, #0
 972 002a F4DB     		blt	.L69
 973              		.loc 3 538 0
 974 002c 6C6B     		ldr	r4, [r5, #52]
 975              	.LVL106:
 976 002e 3440     		ands	r4, r4, r6
 977              	.LVL107:
 978              	.L66:
 979              		.loc 3 540 0
 980 0030 6B6B     		ldr	r3, [r5, #52]
 981 0032 23EA0403 		bic	r3, r3, r4
 982 0036 6B63     		str	r3, [r5, #52]
 983              		.loc 3 541 0
 984 0038 FFF7FEFF 		bl	chSysUnlock
 985              	.LVL108:
 986              		.loc 3 543 0
 987 003c 2046     		mov	r0, r4
 988              		.loc 3 544 0
 989 003e F8BD     		pop	{r3, r4, r5, r6, r7, pc}
 990              	.LVL109:
 991              	.L71:
 992              		.align	2
 993              	.L70:
 994 0040 00000000 		.word	ch
 995              		.cfi_endproc
 996              	.LFE261:
 997              		.size	chEvtWaitAnyTimeout, .-chEvtWaitAnyTimeout
 998              		.section	.text.chEvtWaitAllTimeout,"ax",%progbits
 999              		.align	1
 1000              		.global	chEvtWaitAllTimeout
 1001              		.thumb
 1002              		.thumb_func
 1003              		.type	chEvtWaitAllTimeout, %function
 1004              	chEvtWaitAllTimeout:
 1005              	.LFB262:
 1006              		.loc 3 563 0
 1007              		.cfi_startproc
 1008              		@ args = 0, pretend = 0, frame = 0
 1009              		@ frame_needed = 0, uses_anonymous_args = 0
 1010              	.LVL110:
 1011              		.loc 3 564 0
 1012 0000 0F4B     		ldr	r3, .L77
 1013              		.loc 3 563 0
 1014 0002 70B5     		push	{r4, r5, r6, lr}
 1015              		.cfi_def_cfa_offset 16
 1016              		.cfi_offset 4, -16
 1017              		.cfi_offset 5, -12
 1018              		.cfi_offset 6, -8
 1019              		.cfi_offset 14, -4
 1020              		.loc 3 564 0
 1021 0004 9D69     		ldr	r5, [r3, #24]
 1022              	.LVL111:
 1023              		.loc 3 563 0
 1024 0006 0446     		mov	r4, r0
 1025 0008 0E46     		mov	r6, r1
 1026              		.loc 3 566 0
ARM GAS  /tmp/cc7TrS54.s 			page 19


 1027 000a FFF7FEFF 		bl	chSysLock
 1028              	.LVL112:
 1029              		.loc 3 567 0
 1030 000e 6B6B     		ldr	r3, [r5, #52]
 1031 0010 2340     		ands	r3, r3, r4
 1032 0012 A342     		cmp	r3, r4
 1033 0014 0BD0     		beq	.L73
 1034              		.loc 3 568 0
 1035 0016 1EB9     		cbnz	r6, .L74
 1036              	.L76:
 1037              		.loc 3 569 0
 1038 0018 FFF7FEFF 		bl	chSysUnlock
 1039              	.LVL113:
 1040              		.loc 3 570 0
 1041 001c 0020     		movs	r0, #0
 1042 001e 70BD     		pop	{r4, r5, r6, pc}
 1043              	.LVL114:
 1044              	.L74:
 1045              		.loc 3 572 0
 1046 0020 6C62     		str	r4, [r5, #36]
 1047              		.loc 3 573 0
 1048 0022 0B20     		movs	r0, #11
 1049 0024 3146     		mov	r1, r6
 1050 0026 FFF7FEFF 		bl	chSchGoSleepTimeoutS
 1051              	.LVL115:
 1052 002a 0028     		cmp	r0, #0
 1053 002c F4DB     		blt	.L76
 1054              	.L73:
 1055              		.loc 3 578 0
 1056 002e 6B6B     		ldr	r3, [r5, #52]
 1057 0030 23EA0403 		bic	r3, r3, r4
 1058 0034 6B63     		str	r3, [r5, #52]
 1059              		.loc 3 579 0
 1060 0036 FFF7FEFF 		bl	chSysUnlock
 1061              	.LVL116:
 1062              		.loc 3 581 0
 1063 003a 2046     		mov	r0, r4
 1064              		.loc 3 582 0
 1065 003c 70BD     		pop	{r4, r5, r6, pc}
 1066              	.LVL117:
 1067              	.L78:
 1068 003e 00BF     		.align	2
 1069              	.L77:
 1070 0040 00000000 		.word	ch
 1071              		.cfi_endproc
 1072              	.LFE262:
 1073              		.size	chEvtWaitAllTimeout, .-chEvtWaitAllTimeout
 1074              		.text
 1075              	.Letext0:
 1076              		.file 4 "/usr/include/newlib/machine/_default_types.h"
 1077              		.file 5 "/usr/include/newlib/sys/_stdint.h"
 1078              		.file 6 "../../modules/ChibiOS/os/common/ports/ARMCMx/compilers/GCC/chtypes.h"
 1079              		.file 7 "../../modules/ChibiOS/os/rt/include/chsystypes.h"
 1080              		.file 8 "../../modules/ChibiOS/os/rt/include/chschd.h"
 1081              		.file 9 "../../modules/ChibiOS/os/common/ports/ARMCMx/chcore.h"
 1082              		.file 10 "../../modules/ChibiOS/os/common/ports/ARMCMx/chcore_v7m.h"
 1083              		.file 11 "../../modules/ChibiOS/os/rt/include/chtm.h"
ARM GAS  /tmp/cc7TrS54.s 			page 20


 1084              		.file 12 "../../modules/ChibiOS/os/rt/include/chstats.h"
 1085              		.file 13 "../../modules/ChibiOS/os/rt/include/chsem.h"
 1086              		.file 14 "../../modules/ChibiOS/os/rt/include/chmtx.h"
 1087              		.file 15 "../../modules/ChibiOS/os/rt/include/chevents.h"
 1088              		.file 16 "../../modules/ChibiOS/os/common/ext/CMSIS/include/core_cm4.h"