ARM GAS  /tmp/cccUQykJ.s 			page 1


   1              		.syntax unified
   2              		.cpu cortex-m4
   3              		.eabi_attribute 27, 1
   4              		.eabi_attribute 28, 1
   5              		.fpu fpv4-sp-d16
   6              		.eabi_attribute 20, 1
   7              		.eabi_attribute 21, 1
   8              		.eabi_attribute 23, 3
   9              		.eabi_attribute 24, 1
  10              		.eabi_attribute 25, 1
  11              		.eabi_attribute 26, 1
  12              		.eabi_attribute 30, 4
  13              		.eabi_attribute 34, 1
  14              		.eabi_attribute 18, 4
  15              		.thumb
  16              		.file	"chheap.c"
  17              		.text
  18              	.Ltext0:
  19              		.cfi_sections	.debug_frame
  20              		.section	.text._heap_init,"ax",%progbits
  21              		.align	1
  22              		.global	_heap_init
  23              		.thumb
  24              		.thumb_func
  25              		.type	_heap_init, %function
  26              	_heap_init:
  27              	.LFB246:
  28              		.file 1 "../../modules/ChibiOS/os/common/oslib/src/chheap.c"
  29              		.loc 1 107 0
  30              		.cfi_startproc
  31              		@ args = 0, pretend = 0, frame = 0
  32              		@ frame_needed = 0, uses_anonymous_args = 0
  33              		@ link register save eliminated.
  34              		.loc 1 109 0
  35 0000 0448     		ldr	r0, .L2
  36 0002 054B     		ldr	r3, .L2+4
  37 0004 0360     		str	r3, [r0]
  38              		.loc 1 110 0
  39 0006 0023     		movs	r3, #0
  40 0008 8360     		str	r3, [r0, #8]
  41              		.loc 1 111 0
  42 000a C360     		str	r3, [r0, #12]
  43              		.loc 1 113 0
  44 000c 1030     		adds	r0, r0, #16
  45 000e FFF7FEBF 		b	chMtxObjectInit
  46              	.LVL0:
  47              	.L3:
  48 0012 00BF     		.align	2
  49              	.L2:
  50 0014 00000000 		.word	.LANCHOR0
  51 0018 00000000 		.word	chCoreAllocAligned
  52              		.cfi_endproc
  53              	.LFE246:
  54              		.size	_heap_init, .-_heap_init
  55              		.section	.text.chHeapObjectInit,"ax",%progbits
  56              		.align	1
  57              		.global	chHeapObjectInit
ARM GAS  /tmp/cccUQykJ.s 			page 2


  58              		.thumb
  59              		.thumb_func
  60              		.type	chHeapObjectInit, %function
  61              	chHeapObjectInit:
  62              	.LFB247:
  63              		.loc 1 130 0
  64              		.cfi_startproc
  65              		@ args = 0, pretend = 0, frame = 0
  66              		@ frame_needed = 0, uses_anonymous_args = 0
  67              		@ link register save eliminated.
  68              	.LVL1:
  69              		.loc 1 141 0
  70 0000 083A     		subs	r2, r2, #8
  71              	.LVL2:
  72              		.loc 1 137 0
  73 0002 0023     		movs	r3, #0
  74              		.loc 1 141 0
  75 0004 D208     		lsrs	r2, r2, #3
  76              	.LVL3:
  77              		.loc 1 137 0
  78 0006 0360     		str	r3, [r0]
  79              		.loc 1 138 0
  80 0008 8160     		str	r1, [r0, #8]
  81              		.loc 1 139 0
  82 000a C360     		str	r3, [r0, #12]
  83              		.loc 1 140 0
  84 000c 0B60     		str	r3, [r1]
  85              		.loc 1 141 0
  86 000e 4A60     		str	r2, [r1, #4]
  87              		.loc 1 143 0
  88 0010 1030     		adds	r0, r0, #16
  89              	.LVL4:
  90 0012 FFF7FEBF 		b	chMtxObjectInit
  91              	.LVL5:
  92              		.cfi_endproc
  93              	.LFE247:
  94              		.size	chHeapObjectInit, .-chHeapObjectInit
  95              		.section	.text.chHeapAllocAligned,"ax",%progbits
  96              		.align	1
  97              		.global	chHeapAllocAligned
  98              		.thumb
  99              		.thumb_func
 100              		.type	chHeapAllocAligned, %function
 101              	chHeapAllocAligned:
 102              	.LFB248:
 103              		.loc 1 166 0
 104              		.cfi_startproc
 105              		@ args = 0, pretend = 0, frame = 0
 106              		@ frame_needed = 0, uses_anonymous_args = 0
 107              	.LVL6:
 108 0000 2DE9F047 		push	{r4, r5, r6, r7, r8, r9, r10, lr}
 109              		.cfi_def_cfa_offset 32
 110              		.cfi_offset 4, -32
 111              		.cfi_offset 5, -28
 112              		.cfi_offset 6, -24
 113              		.cfi_offset 7, -20
 114              		.cfi_offset 8, -16
ARM GAS  /tmp/cccUQykJ.s 			page 3


 115              		.cfi_offset 9, -12
 116              		.cfi_offset 10, -8
 117              		.cfi_offset 14, -4
 118              		.loc 1 174 0
 119 0004 384E     		ldr	r6, .L24
 120 0006 0028     		cmp	r0, #0
 121 0008 18BF     		it	ne
 122 000a 0646     		movne	r6, r0
 123              	.LVL7:
 124              		.loc 1 186 0
 125 000c 06F11008 		add	r8, r6, #16
 126              		.loc 1 183 0
 127 0010 CC1D     		adds	r4, r1, #7
 128              		.loc 1 186 0
 129 0012 4046     		mov	r0, r8
 130              		.loc 1 166 0
 131 0014 0F46     		mov	r7, r1
 132              		.loc 1 179 0
 133 0016 072A     		cmp	r2, #7
 134 0018 8CBF     		ite	hi
 135 001a 9146     		movhi	r9, r2
 136 001c 4FF00809 		movls	r9, #8
 137              	.LVL8:
 138              		.loc 1 183 0
 139 0020 E408     		lsrs	r4, r4, #3
 140              	.LVL9:
 141              		.loc 1 186 0
 142 0022 FFF7FEFF 		bl	chMtxLock
 143              	.LVL10:
 144              		.loc 1 189 0
 145 0026 06F1080E 		add	lr, r6, #8
 146              	.LVL11:
 147              	.L8:
 148              		.loc 1 190 0
 149 002a DEF80010 		ldr	r1, [lr]
 150 002e 0029     		cmp	r1, #0
 151 0030 45D0     		beq	.L23
 152              	.LVL12:
 153              	.LBB2:
 154              		.loc 1 199 0
 155 0032 D1F804A0 		ldr	r10, [r1, #4]
 156 0036 C81D     		adds	r0, r1, #7
 157              		.loc 1 197 0
 158 0038 4844     		add	r0, r0, r9
 159 003a C9F10003 		rsb	r3, r9, #0
 160              		.loc 1 199 0
 161 003e 0AF10105 		add	r5, r10, #1
 162              		.loc 1 197 0
 163 0042 0340     		ands	r3, r3, r0
 164              		.loc 1 199 0
 165 0044 ED00     		lsls	r5, r5, #3
 166              		.loc 1 197 0
 167 0046 083B     		subs	r3, r3, #8
 168              	.LVL13:
 169              		.loc 1 199 0
 170 0048 4819     		adds	r0, r1, r5
 171 004a 8342     		cmp	r3, r0
ARM GAS  /tmp/cccUQykJ.s 			page 4


 172              		.loc 1 197 0
 173 004c 01F10802 		add	r2, r1, #8
 174              		.loc 1 199 0
 175 0050 33D2     		bcs	.L9
 176              		.loc 1 199 0 is_stmt 0 discriminator 1
 177 0052 083D     		subs	r5, r5, #8
 178 0054 C3EB010C 		rsb	ip, r3, r1
 179 0058 AC44     		add	ip, ip, r5
 180 005a 4FEAEC0C 		asr	ip, ip, #3
 181 005e 6445     		cmp	r4, ip
 182 0060 2BD8     		bhi	.L9
 183              		.loc 1 203 0 is_stmt 1
 184 0062 8B42     		cmp	r3, r1
 185 0064 0846     		mov	r0, r1
 186 0066 10D9     		bls	.L10
 187              	.LVL14:
 188              	.LBB3:
 189              		.loc 1 208 0
 190 0068 9A1A     		subs	r2, r3, r2
 191 006a D210     		asrs	r2, r2, #3
 192              		.loc 1 209 0
 193 006c A445     		cmp	ip, r4
 194              		.loc 1 208 0
 195 006e 4A60     		str	r2, [r1, #4]
 196              		.loc 1 209 0
 197 0070 09D9     		bls	.L11
 198              	.LBB4:
 199              		.loc 1 214 0
 200 0072 651C     		adds	r5, r4, #1
 201 0074 03EBC502 		add	r2, r3, r5, lsl #3
 202              	.LVL15:
 203 0078 E443     		mvns	r4, r4
 204              	.LVL16:
 205              		.loc 1 218 0
 206 007a 0868     		ldr	r0, [r1]
 207              		.loc 1 215 0
 208 007c 6444     		add	r4, r4, ip
 209              	.LVL17:
 210 007e 5460     		str	r4, [r2, #4]
 211              		.loc 1 218 0
 212 0080 43F83500 		str	r0, [r3, r5, lsl #3]
 213              		.loc 1 219 0
 214 0084 0A60     		str	r2, [r1]
 215              	.LVL18:
 216              	.L11:
 217              	.LBE4:
 218              	.LBE3:
 219              		.loc 1 197 0
 220 0086 1846     		mov	r0, r3
 221 0088 0FE0     		b	.L12
 222              	.LVL19:
 223              	.L10:
 224              		.loc 1 227 0
 225 008a A245     		cmp	r10, r4
 226              	.LBB5:
 227              		.loc 1 235 0
 228 008c 18BF     		it	ne
ARM GAS  /tmp/cccUQykJ.s 			page 5


 229 008e 0134     		addne	r4, r4, #1
 230              	.LVL20:
 231 0090 0B68     		ldr	r3, [r1]
 232              	.LVL21:
 233              		.loc 1 236 0
 234 0092 1FBF     		itttt	ne
 235 0094 41F83430 		strne	r3, [r1, r4, lsl #3]
 236              		.loc 1 237 0
 237 0098 A5EBC405 		subne	r5, r5, r4, lsl #3
 238 009c 01EBC403 		addne	r3, r1, r4, lsl #3
 239 00a0 ED10     		asrne	r5, r5, #3
 240 00a2 18BF     		it	ne
 241 00a4 5D60     		strne	r5, [r3, #4]
 242              		.loc 1 238 0
 243 00a6 CEF80030 		str	r3, [lr]
 244              	.LVL22:
 245              	.L12:
 246              	.LBE5:
 247              		.loc 1 244 0
 248 00aa 0446     		mov	r4, r0
 249              		.loc 1 243 0
 250 00ac 4760     		str	r7, [r0, #4]
 251              		.loc 1 244 0
 252 00ae 44F8086B 		str	r6, [r4], #8
 253              		.loc 1 247 0
 254 00b2 4046     		mov	r0, r8
 255              	.LVL23:
 256 00b4 FFF7FEFF 		bl	chMtxUnlock
 257              	.LVL24:
 258              		.loc 1 250 0
 259 00b8 12E0     		b	.L14
 260              	.LVL25:
 261              	.L9:
 262              		.loc 1 197 0
 263 00ba 8E46     		mov	lr, r1
 264              	.LVL26:
 265 00bc B5E7     		b	.L8
 266              	.LVL27:
 267              	.L23:
 268              	.LBE2:
 269              		.loc 1 259 0
 270 00be 4046     		mov	r0, r8
 271 00c0 FFF7FEFF 		bl	chMtxUnlock
 272              	.LVL28:
 273              		.loc 1 263 0
 274 00c4 3368     		ldr	r3, [r6]
 275 00c6 0BB9     		cbnz	r3, .L16
 276              	.L17:
 277              		.loc 1 275 0
 278 00c8 0024     		movs	r4, #0
 279              	.LVL29:
 280 00ca 09E0     		b	.L14
 281              	.LVL30:
 282              	.L16:
 283              		.loc 1 264 0
 284 00cc 601C     		adds	r0, r4, #1
 285 00ce C000     		lsls	r0, r0, #3
ARM GAS  /tmp/cccUQykJ.s 			page 6


 286 00d0 4946     		mov	r1, r9
 287 00d2 9847     		blx	r3
 288              	.LVL31:
 289              		.loc 1 265 0
 290 00d4 0028     		cmp	r0, #0
 291 00d6 F7D0     		beq	.L17
 292              		.loc 1 267 0
 293 00d8 80E8C000 		stmia	r0, {r6, r7}
 294              		.loc 1 270 0
 295 00dc 00F10804 		add	r4, r0, #8
 296              	.LVL32:
 297              	.L14:
 298              		.loc 1 276 0
 299 00e0 2046     		mov	r0, r4
 300 00e2 BDE8F087 		pop	{r4, r5, r6, r7, r8, r9, r10, pc}
 301              	.LVL33:
 302              	.L25:
 303 00e6 00BF     		.align	2
 304              	.L24:
 305 00e8 00000000 		.word	.LANCHOR0
 306              		.cfi_endproc
 307              	.LFE248:
 308              		.size	chHeapAllocAligned, .-chHeapAllocAligned
 309              		.section	.text.chHeapFree,"ax",%progbits
 310              		.align	1
 311              		.global	chHeapFree
 312              		.thumb
 313              		.thumb_func
 314              		.type	chHeapFree, %function
 315              	chHeapFree:
 316              	.LFB249:
 317              		.loc 1 285 0
 318              		.cfi_startproc
 319              		@ args = 0, pretend = 0, frame = 0
 320              		@ frame_needed = 0, uses_anonymous_args = 0
 321              	.LVL34:
 322 0000 F8B5     		push	{r3, r4, r5, r6, r7, lr}
 323              		.cfi_def_cfa_offset 24
 324              		.cfi_offset 3, -24
 325              		.cfi_offset 4, -20
 326              		.cfi_offset 5, -16
 327              		.cfi_offset 6, -12
 328              		.cfi_offset 7, -8
 329              		.cfi_offset 14, -4
 330              		.loc 1 298 0
 331 0002 50F8043C 		ldr	r3, [r0, #-4]
 332              		.loc 1 294 0
 333 0006 50F8086C 		ldr	r6, [r0, #-8]
 334              		.loc 1 298 0
 335 000a 0733     		adds	r3, r3, #7
 336              		.loc 1 299 0
 337 000c DB08     		lsrs	r3, r3, #3
 338              		.loc 1 295 0
 339 000e 06F10807 		add	r7, r6, #8
 340              		.loc 1 302 0
 341 0012 1036     		adds	r6, r6, #16
 342              		.loc 1 298 0
ARM GAS  /tmp/cccUQykJ.s 			page 7


 343 0014 40F8043C 		str	r3, [r0, #-4]
 344              		.loc 1 285 0
 345 0018 0446     		mov	r4, r0
 346              		.loc 1 292 0
 347 001a A0F10805 		sub	r5, r0, #8
 348              	.LVL35:
 349              		.loc 1 302 0
 350 001e 3046     		mov	r0, r6
 351              	.LVL36:
 352 0020 FFF7FEFF 		bl	chMtxLock
 353              	.LVL37:
 354              		.loc 1 295 0
 355 0024 3B46     		mov	r3, r7
 356              	.LVL38:
 357              	.L32:
 358              		.loc 1 307 0
 359 0026 BB42     		cmp	r3, r7
 360 0028 1A68     		ldr	r2, [r3]
 361 002a 01D0     		beq	.L27
 362              		.loc 1 307 0 is_stmt 0 discriminator 2
 363 002c 9D42     		cmp	r5, r3
 364 002e 27D9     		bls	.L28
 365              	.L27:
 366              		.loc 1 307 0 discriminator 3
 367 0030 0AB1     		cbz	r2, .L29
 368              		.loc 1 308 0 is_stmt 1
 369 0032 9542     		cmp	r5, r2
 370 0034 24D2     		bcs	.L28
 371              	.L29:
 372              		.loc 1 313 0
 373 0036 54F8040C 		ldr	r0, [r4, #-4]
 374              		.loc 1 310 0
 375 003a 44F8082C 		str	r2, [r4, #-8]
 376              		.loc 1 311 0
 377 003e 1D60     		str	r5, [r3]
 378              		.loc 1 313 0
 379 0040 411C     		adds	r1, r0, #1
 380 0042 54F8087C 		ldr	r7, [r4, #-8]
 381 0046 05EBC102 		add	r2, r5, r1, lsl #3
 382 004a BA42     		cmp	r2, r7
 383              		.loc 1 315 0
 384 004c 01BF     		itttt	eq
 385 004e 5268     		ldreq	r2, [r2, #4]
 386 0050 1218     		addeq	r2, r2, r0
 387 0052 0132     		addeq	r2, r2, #1
 388 0054 44F8042C 		streq	r2, [r4, #-4]
 389              		.loc 1 318 0
 390 0058 5868     		ldr	r0, [r3, #4]
 391              		.loc 1 316 0
 392 005a 04BF     		itt	eq
 393 005c 55F83120 		ldreq	r2, [r5, r1, lsl #3]
 394 0060 44F8082C 		streq	r2, [r4, #-8]
 395              		.loc 1 318 0
 396 0064 411C     		adds	r1, r0, #1
 397 0066 03EBC101 		add	r1, r3, r1, lsl #3
 398 006a 8D42     		cmp	r5, r1
 399 006c 0AD1     		bne	.L31
ARM GAS  /tmp/cccUQykJ.s 			page 8


 400              		.loc 1 320 0
 401 006e 54F8042C 		ldr	r2, [r4, #-4]
 402 0072 0244     		add	r2, r2, r0
 403 0074 0132     		adds	r2, r2, #1
 404 0076 5A60     		str	r2, [r3, #4]
 405              		.loc 1 321 0
 406 0078 54F8082C 		ldr	r2, [r4, #-8]
 407 007c 1A60     		str	r2, [r3]
 408 007e 01E0     		b	.L31
 409              	.L28:
 410              		.loc 1 325 0
 411 0080 1346     		mov	r3, r2
 412              	.LVL39:
 413              		.loc 1 326 0
 414 0082 D0E7     		b	.L32
 415              	.LVL40:
 416              	.L31:
 417              		.loc 1 329 0
 418 0084 3046     		mov	r0, r6
 419              		.loc 1 332 0
 420 0086 BDE8F840 		pop	{r3, r4, r5, r6, r7, lr}
 421              		.cfi_restore 14
 422              		.cfi_restore 7
 423              		.cfi_restore 6
 424              		.cfi_restore 5
 425              		.cfi_restore 4
 426              		.cfi_restore 3
 427              		.cfi_def_cfa_offset 0
 428              	.LVL41:
 429              		.loc 1 329 0
 430 008a FFF7FEBF 		b	chMtxUnlock
 431              	.LVL42:
 432              		.cfi_endproc
 433              	.LFE249:
 434              		.size	chHeapFree, .-chHeapFree
 435              		.section	.text.chHeapStatus,"ax",%progbits
 436              		.align	1
 437              		.global	chHeapStatus
 438              		.thumb
 439              		.thumb_func
 440              		.type	chHeapStatus, %function
 441              	chHeapStatus:
 442              	.LFB250:
 443              		.loc 1 349 0
 444              		.cfi_startproc
 445              		@ args = 0, pretend = 0, frame = 0
 446              		@ frame_needed = 0, uses_anonymous_args = 0
 447              	.LVL43:
 448 0000 2DE9F041 		push	{r4, r5, r6, r7, r8, lr}
 449              		.cfi_def_cfa_offset 24
 450              		.cfi_offset 4, -24
 451              		.cfi_offset 5, -20
 452              		.cfi_offset 6, -16
 453              		.cfi_offset 7, -12
 454              		.cfi_offset 8, -8
 455              		.cfi_offset 14, -4
 456              		.loc 1 354 0
ARM GAS  /tmp/cccUQykJ.s 			page 9


 457 0004 144C     		ldr	r4, .L49
 458 0006 0028     		cmp	r0, #0
 459 0008 18BF     		it	ne
 460 000a 0446     		movne	r4, r0
 461              	.LVL44:
 462              		.loc 1 357 0
 463 000c 04F11006 		add	r6, r4, #16
 464 0010 3046     		mov	r0, r6
 465              		.loc 1 349 0
 466 0012 8846     		mov	r8, r1
 467 0014 1746     		mov	r7, r2
 468              		.loc 1 357 0
 469 0016 FFF7FEFF 		bl	chMtxLock
 470              	.LVL45:
 471              		.loc 1 359 0
 472 001a 0023     		movs	r3, #0
 473              		.loc 1 361 0
 474 001c 04F10800 		add	r0, r4, #8
 475              	.LVL46:
 476              		.loc 1 360 0
 477 0020 1D46     		mov	r5, r3
 478              		.loc 1 358 0
 479 0022 1C46     		mov	r4, r3
 480              	.LVL47:
 481              	.L38:
 482              		.loc 1 362 0
 483 0024 0068     		ldr	r0, [r0]
 484              	.LVL48:
 485 0026 38B1     		cbz	r0, .L48
 486              	.LBB6:
 487              		.loc 1 363 0
 488 0028 4268     		ldr	r2, [r0, #4]
 489              	.LVL49:
 490 002a 9342     		cmp	r3, r2
 491              		.loc 1 366 0
 492 002c 05F10105 		add	r5, r5, #1
 493              	.LVL50:
 494              		.loc 1 367 0
 495 0030 1444     		add	r4, r4, r2
 496              	.LVL51:
 497 0032 38BF     		it	cc
 498 0034 1346     		movcc	r3, r2
 499              	.LVL52:
 500 0036 F5E7     		b	.L38
 501              	.LVL53:
 502              	.L48:
 503              	.LBE6:
 504              		.loc 1 376 0
 505 0038 B8F1000F 		cmp	r8, #0
 506 003c 02D0     		beq	.L40
 507              		.loc 1 377 0
 508 003e E400     		lsls	r4, r4, #3
 509              	.LVL54:
 510 0040 C8F80040 		str	r4, [r8]
 511              	.L40:
 512              		.loc 1 381 0
 513 0044 0FB1     		cbz	r7, .L41
ARM GAS  /tmp/cccUQykJ.s 			page 10


 514              		.loc 1 382 0
 515 0046 DB00     		lsls	r3, r3, #3
 516              	.LVL55:
 517 0048 3B60     		str	r3, [r7]
 518              	.L41:
 519              		.loc 1 384 0
 520 004a 3046     		mov	r0, r6
 521 004c FFF7FEFF 		bl	chMtxUnlock
 522              	.LVL56:
 523              		.loc 1 387 0
 524 0050 2846     		mov	r0, r5
 525 0052 BDE8F081 		pop	{r4, r5, r6, r7, r8, pc}
 526              	.LVL57:
 527              	.L50:
 528 0056 00BF     		.align	2
 529              	.L49:
 530 0058 00000000 		.word	.LANCHOR0
 531              		.cfi_endproc
 532              	.LFE250:
 533              		.size	chHeapStatus, .-chHeapStatus
 534              		.section	.bss.default_heap,"aw",%nobits
 535              		.align	3
 536              		.set	.LANCHOR0,. + 0
 537              		.type	default_heap, %object
 538              		.size	default_heap, 32
 539              	default_heap:
 540 0000 00000000 		.space	32
 540      00000000 
 540      00000000 
 540      00000000 
 540      00000000 
 541              		.text
 542              	.Letext0:
 543              		.file 2 "/usr/lib/gcc/arm-none-eabi/4.9.3/include/stddef.h"
 544              		.file 3 "/usr/include/newlib/machine/_default_types.h"
 545              		.file 4 "/usr/include/newlib/sys/_stdint.h"
 546              		.file 5 "../../modules/ChibiOS/os/common/ports/ARMCMx/compilers/GCC/chtypes.h"
 547              		.file 6 "../../modules/ChibiOS/os/rt/include/chsystypes.h"
 548              		.file 7 "../../modules/ChibiOS/os/rt/include/chschd.h"
 549              		.file 8 "../../modules/ChibiOS/os/common/ports/ARMCMx/chcore.h"
 550              		.file 9 "../../modules/ChibiOS/os/common/ports/ARMCMx/chcore_v7m.h"
 551              		.file 10 "../../modules/ChibiOS/os/rt/include/chtm.h"
 552              		.file 11 "../../modules/ChibiOS/os/rt/include/chstats.h"
 553              		.file 12 "../../modules/ChibiOS/os/rt/include/chsem.h"
 554              		.file 13 "../../modules/ChibiOS/os/rt/include/chmtx.h"
 555              		.file 14 "../../modules/ChibiOS/os/common/oslib/include/chmemcore.h"
 556              		.file 15 "../../modules/ChibiOS/os/common/oslib/include/chheap.h"
 557              		.file 16 "../../modules/ChibiOS/os/common/ext/CMSIS/include/core_cm4.h"