ARM GAS  /tmp/ccmF24M5.s 			page 1


   1              		.syntax unified
   2              		.cpu cortex-m4
   3              		.eabi_attribute 27, 1
   4              		.eabi_attribute 28, 1
   5              		.fpu fpv4-sp-d16
   6              		.eabi_attribute 20, 1
   7              		.eabi_attribute 21, 1
   8              		.eabi_attribute 23, 3
   9              		.eabi_attribute 24, 1
  10              		.eabi_attribute 25, 1
  11              		.eabi_attribute 26, 1
  12              		.eabi_attribute 30, 4
  13              		.eabi_attribute 34, 1
  14              		.eabi_attribute 18, 4
  15              		.thumb
  16              		.file	"chmboxes.c"
  17              		.text
  18              	.Ltext0:
  19              		.cfi_sections	.debug_frame
  20              		.section	.text.chMBObjectInit,"ax",%progbits
  21              		.align	1
  22              		.global	chMBObjectInit
  23              		.thumb
  24              		.thumb_func
  25              		.type	chMBObjectInit, %function
  26              	chMBObjectInit:
  27              	.LFB246:
  28              		.file 1 "../../modules/ChibiOS/os/common/oslib/src/chmboxes.c"
  29              		.loc 1 87 0
  30              		.cfi_startproc
  31              		@ args = 0, pretend = 0, frame = 0
  32              		@ frame_needed = 0, uses_anonymous_args = 0
  33              		@ link register save eliminated.
  34              	.LVL0:
  35              		.loc 1 95 0
  36 0000 0023     		movs	r3, #0
  37 0002 0361     		str	r3, [r0, #16]
  38              		.loc 1 96 0
  39 0004 0375     		strb	r3, [r0, #20]
  40              		.loc 1 97 0
  41 0006 00F11803 		add	r3, r0, #24
  42              	.LVL1:
  43              		.loc 1 94 0
  44 000a 01EB8202 		add	r2, r1, r2, lsl #2
  45              	.LVL2:
  46              	.LBB34:
  47              	.LBB35:
  48              	.LBB36:
  49              		.file 2 "../../modules/ChibiOS/os/rt/include/chschd.h"
  50              		.loc 2 550 0
  51 000e 8361     		str	r3, [r0, #24]
  52              		.loc 2 551 0
  53 0010 C361     		str	r3, [r0, #28]
  54              	.LBE36:
  55              	.LBE35:
  56              	.LBE34:
  57              		.loc 1 98 0
ARM GAS  /tmp/ccmF24M5.s 			page 2


  58 0012 00F12003 		add	r3, r0, #32
  59              	.LVL3:
  60              		.loc 1 91 0
  61 0016 0160     		str	r1, [r0]
  62              		.loc 1 92 0
  63 0018 C160     		str	r1, [r0, #12]
  64              		.loc 1 93 0
  65 001a 8160     		str	r1, [r0, #8]
  66              		.loc 1 94 0
  67 001c 4260     		str	r2, [r0, #4]
  68              	.LBB37:
  69              	.LBB38:
  70              	.LBB39:
  71              		.loc 2 550 0
  72 001e 0362     		str	r3, [r0, #32]
  73              		.loc 2 551 0
  74 0020 4362     		str	r3, [r0, #36]
  75 0022 7047     		bx	lr
  76              	.LBE39:
  77              	.LBE38:
  78              	.LBE37:
  79              		.cfi_endproc
  80              	.LFE246:
  81              		.size	chMBObjectInit, .-chMBObjectInit
  82              		.section	.text.chMBResetI,"ax",%progbits
  83              		.align	1
  84              		.global	chMBResetI
  85              		.thumb
  86              		.thumb_func
  87              		.type	chMBResetI, %function
  88              	chMBResetI:
  89              	.LFB248:
  90              		.loc 1 133 0
  91              		.cfi_startproc
  92              		@ args = 0, pretend = 0, frame = 0
  93              		@ frame_needed = 0, uses_anonymous_args = 0
  94              	.LVL4:
  95 0000 10B5     		push	{r4, lr}
  96              		.cfi_def_cfa_offset 8
  97              		.cfi_offset 4, -8
  98              		.cfi_offset 14, -4
  99              		.loc 1 138 0
 100 0002 0368     		ldr	r3, [r0]
 101 0004 8360     		str	r3, [r0, #8]
 102              		.loc 1 139 0
 103 0006 C360     		str	r3, [r0, #12]
 104              		.loc 1 140 0
 105 0008 0023     		movs	r3, #0
 106 000a 0361     		str	r3, [r0, #16]
 107              		.loc 1 141 0
 108 000c 0123     		movs	r3, #1
 109              		.loc 1 133 0
 110 000e 0446     		mov	r4, r0
 111              		.loc 1 141 0
 112 0010 0375     		strb	r3, [r0, #20]
 113              		.loc 1 142 0
 114 0012 6FF00101 		mvn	r1, #1
ARM GAS  /tmp/ccmF24M5.s 			page 3


 115 0016 1830     		adds	r0, r0, #24
 116              	.LVL5:
 117 0018 FFF7FEFF 		bl	chThdDequeueAllI
 118              	.LVL6:
 119              		.loc 1 143 0
 120 001c 04F12000 		add	r0, r4, #32
 121 0020 6FF00101 		mvn	r1, #1
 122              		.loc 1 144 0
 123 0024 BDE81040 		pop	{r4, lr}
 124              		.cfi_restore 14
 125              		.cfi_restore 4
 126              		.cfi_def_cfa_offset 0
 127              	.LVL7:
 128              		.loc 1 143 0
 129 0028 FFF7FEBF 		b	chThdDequeueAllI
 130              	.LVL8:
 131              		.cfi_endproc
 132              	.LFE248:
 133              		.size	chMBResetI, .-chMBResetI
 134              		.section	.text.chMBReset,"ax",%progbits
 135              		.align	1
 136              		.global	chMBReset
 137              		.thumb
 138              		.thumb_func
 139              		.type	chMBReset, %function
 140              	chMBReset:
 141              	.LFB247:
 142              		.loc 1 113 0
 143              		.cfi_startproc
 144              		@ args = 0, pretend = 0, frame = 0
 145              		@ frame_needed = 0, uses_anonymous_args = 0
 146              	.LVL9:
 147 0000 10B5     		push	{r4, lr}
 148              		.cfi_def_cfa_offset 8
 149              		.cfi_offset 4, -8
 150              		.cfi_offset 14, -4
 151              	.LBB50:
 152              	.LBB51:
 153              	.LBB52:
 154              	.LBB53:
 155              	.LBB54:
 156              		.file 3 "../../modules/ChibiOS/os/common/ext/CMSIS/include/cmsis_gcc.h"
 157              		.loc 3 264 0
 158 0002 2023     		movs	r3, #32
 159              	.LBE54:
 160              	.LBE53:
 161              	.LBE52:
 162              	.LBE51:
 163              	.LBE50:
 164              		.loc 1 113 0
 165 0004 0446     		mov	r4, r0
 166              	.LBB59:
 167              	.LBB58:
 168              	.LBB57:
 169              	.LBB56:
 170              	.LBB55:
 171              		.loc 3 264 0
ARM GAS  /tmp/ccmF24M5.s 			page 4


 172              	@ 264 "../../modules/ChibiOS/os/common/ext/CMSIS/include/cmsis_gcc.h" 1
 173 0006 83F31188 		MSR basepri, r3
 174              	@ 0 "" 2
 175              		.thumb
 176              	.LBE55:
 177              	.LBE56:
 178              	.LBE57:
 179              		.file 4 "../../modules/ChibiOS/os/rt/include/chsys.h"
 180              		.loc 4 377 0
 181 000a FFF7FEFF 		bl	_stats_start_measure_crit_thd
 182              	.LVL10:
 183              	.LBE58:
 184              	.LBE59:
 185              		.loc 1 116 0
 186 000e 2046     		mov	r0, r4
 187 0010 FFF7FEFF 		bl	chMBResetI
 188              	.LVL11:
 189              		.loc 1 117 0
 190 0014 FFF7FEFF 		bl	chSchRescheduleS
 191              	.LVL12:
 192              	.LBB60:
 193              	.LBB61:
 194              		.loc 4 389 0
 195 0018 FFF7FEFF 		bl	_stats_stop_measure_crit_thd
 196              	.LVL13:
 197              	.LBB62:
 198              	.LBB63:
 199              	.LBB64:
 200              		.loc 3 264 0
 201 001c 0023     		movs	r3, #0
 202              	@ 264 "../../modules/ChibiOS/os/common/ext/CMSIS/include/cmsis_gcc.h" 1
 203 001e 83F31188 		MSR basepri, r3
 204              	@ 0 "" 2
 205              		.thumb
 206 0022 10BD     		pop	{r4, pc}
 207              	.LBE64:
 208              	.LBE63:
 209              	.LBE62:
 210              	.LBE61:
 211              	.LBE60:
 212              		.cfi_endproc
 213              	.LFE247:
 214              		.size	chMBReset, .-chMBReset
 215              		.section	.text.chMBPostS,"ax",%progbits
 216              		.align	1
 217              		.global	chMBPostS
 218              		.thumb
 219              		.thumb_func
 220              		.type	chMBPostS, %function
 221              	chMBPostS:
 222              	.LFB250:
 223              		.loc 1 194 0
 224              		.cfi_startproc
 225              		@ args = 0, pretend = 0, frame = 0
 226              		@ frame_needed = 0, uses_anonymous_args = 0
 227              	.LVL14:
 228 0000 70B5     		push	{r4, r5, r6, lr}
ARM GAS  /tmp/ccmF24M5.s 			page 5


 229              		.cfi_def_cfa_offset 16
 230              		.cfi_offset 4, -16
 231              		.cfi_offset 5, -12
 232              		.cfi_offset 6, -8
 233              		.cfi_offset 14, -4
 234 0002 0446     		mov	r4, r0
 235 0004 0D46     		mov	r5, r1
 236 0006 1646     		mov	r6, r2
 237              	.LVL15:
 238              	.L8:
 239              		.loc 1 202 0
 240 0008 237D     		ldrb	r3, [r4, #20]	@ zero_extendqisi2
 241 000a 13BB     		cbnz	r3, .L9
 242              	.LVL16:
 243              	.LBB71:
 244              	.LBB72:
 245              	.LBB73:
 246              	.LBB74:
 247              		.file 5 "../../modules/ChibiOS/os/common/oslib/include/chmboxes.h"
 248              		.loc 5 140 0
 249 000c 6068     		ldr	r0, [r4, #4]
 250 000e 2168     		ldr	r1, [r4]
 251              	.LVL17:
 252              	.LBE74:
 253              	.LBE73:
 254              		.loc 5 172 0
 255 0010 2369     		ldr	r3, [r4, #16]
 256              	.LBB76:
 257              	.LBB75:
 258              		.loc 5 140 0
 259 0012 421A     		subs	r2, r0, r1
 260              	.LBE75:
 261              	.LBE76:
 262              		.loc 5 172 0
 263 0014 C3EBA203 		rsb	r3, r3, r2, asr #2
 264              	.LBE72:
 265              	.LBE71:
 266              		.loc 1 207 0
 267 0018 002B     		cmp	r3, #0
 268 001a 12DD     		ble	.L6
 269              	.LVL18:
 270              	.LBB77:
 271              	.LBB78:
 272              		.loc 1 208 0
 273 001c A268     		ldr	r2, [r4, #8]
 274 001e 131D     		adds	r3, r2, #4
 275 0020 A360     		str	r3, [r4, #8]
 276 0022 1560     		str	r5, [r2]
 277              		.loc 1 209 0
 278 0024 8342     		cmp	r3, r0
 279              		.loc 1 212 0
 280 0026 2369     		ldr	r3, [r4, #16]
 281              		.loc 1 210 0
 282 0028 28BF     		it	cs
 283 002a A160     		strcs	r1, [r4, #8]
 284              		.loc 1 212 0
 285 002c 0133     		adds	r3, r3, #1
ARM GAS  /tmp/ccmF24M5.s 			page 6


 286              		.loc 1 215 0
 287 002e 04F12000 		add	r0, r4, #32
 288              		.loc 1 212 0
 289 0032 2361     		str	r3, [r4, #16]
 290              		.loc 1 215 0
 291 0034 0021     		movs	r1, #0
 292 0036 FFF7FEFF 		bl	chThdDequeueNextI
 293              	.LVL19:
 294              		.loc 1 216 0
 295 003a FFF7FEFF 		bl	chSchRescheduleS
 296              	.LVL20:
 297 003e 0020     		movs	r0, #0
 298 0040 70BD     		pop	{r4, r5, r6, pc}
 299              	.LVL21:
 300              	.L6:
 301              	.LBE78:
 302              	.LBE77:
 303              		.loc 1 222 0
 304 0042 04F11800 		add	r0, r4, #24
 305 0046 3146     		mov	r1, r6
 306 0048 FFF7FEFF 		bl	chThdEnqueueTimeoutS
 307              	.LVL22:
 308              		.loc 1 223 0
 309 004c 0028     		cmp	r0, #0
 310 004e DBD0     		beq	.L8
 311 0050 70BD     		pop	{r4, r5, r6, pc}
 312              	.LVL23:
 313              	.L9:
 314              		.loc 1 203 0
 315 0052 6FF00100 		mvn	r0, #1
 316              		.loc 1 226 0
 317 0056 70BD     		pop	{r4, r5, r6, pc}
 318              		.cfi_endproc
 319              	.LFE250:
 320              		.size	chMBPostS, .-chMBPostS
 321              		.section	.text.chMBPost,"ax",%progbits
 322              		.align	1
 323              		.global	chMBPost
 324              		.thumb
 325              		.thumb_func
 326              		.type	chMBPost, %function
 327              	chMBPost:
 328              	.LFB249:
 329              		.loc 1 165 0
 330              		.cfi_startproc
 331              		@ args = 0, pretend = 0, frame = 0
 332              		@ frame_needed = 0, uses_anonymous_args = 0
 333              	.LVL24:
 334 0000 70B5     		push	{r4, r5, r6, lr}
 335              		.cfi_def_cfa_offset 16
 336              		.cfi_offset 4, -16
 337              		.cfi_offset 5, -12
 338              		.cfi_offset 6, -8
 339              		.cfi_offset 14, -4
 340              	.LBB89:
 341              	.LBB90:
 342              	.LBB91:
ARM GAS  /tmp/ccmF24M5.s 			page 7


 343              	.LBB92:
 344              	.LBB93:
 345              		.loc 3 264 0
 346 0002 2023     		movs	r3, #32
 347              	.LBE93:
 348              	.LBE92:
 349              	.LBE91:
 350              	.LBE90:
 351              	.LBE89:
 352              		.loc 1 165 0
 353 0004 0646     		mov	r6, r0
 354 0006 0D46     		mov	r5, r1
 355 0008 1446     		mov	r4, r2
 356              	.LBB98:
 357              	.LBB97:
 358              	.LBB96:
 359              	.LBB95:
 360              	.LBB94:
 361              		.loc 3 264 0
 362              	@ 264 "../../modules/ChibiOS/os/common/ext/CMSIS/include/cmsis_gcc.h" 1
 363 000a 83F31188 		MSR basepri, r3
 364              	@ 0 "" 2
 365              		.thumb
 366              	.LBE94:
 367              	.LBE95:
 368              	.LBE96:
 369              		.loc 4 377 0
 370 000e FFF7FEFF 		bl	_stats_start_measure_crit_thd
 371              	.LVL25:
 372              	.LBE97:
 373              	.LBE98:
 374              		.loc 1 169 0
 375 0012 2246     		mov	r2, r4
 376 0014 2946     		mov	r1, r5
 377 0016 3046     		mov	r0, r6
 378 0018 FFF7FEFF 		bl	chMBPostS
 379              	.LVL26:
 380 001c 0446     		mov	r4, r0
 381              	.LVL27:
 382              	.LBB99:
 383              	.LBB100:
 384              		.loc 4 389 0
 385 001e FFF7FEFF 		bl	_stats_stop_measure_crit_thd
 386              	.LVL28:
 387              	.LBB101:
 388              	.LBB102:
 389              	.LBB103:
 390              		.loc 3 264 0
 391 0022 0023     		movs	r3, #0
 392              	@ 264 "../../modules/ChibiOS/os/common/ext/CMSIS/include/cmsis_gcc.h" 1
 393 0024 83F31188 		MSR basepri, r3
 394              	@ 0 "" 2
 395              		.thumb
 396              	.LBE103:
 397              	.LBE102:
 398              	.LBE101:
 399              	.LBE100:
ARM GAS  /tmp/ccmF24M5.s 			page 8


 400              	.LBE99:
 401              		.loc 1 173 0
 402 0028 2046     		mov	r0, r4
 403 002a 70BD     		pop	{r4, r5, r6, pc}
 404              		.cfi_endproc
 405              	.LFE249:
 406              		.size	chMBPost, .-chMBPost
 407              		.section	.text.chMBPostI,"ax",%progbits
 408              		.align	1
 409              		.global	chMBPostI
 410              		.thumb
 411              		.thumb_func
 412              		.type	chMBPostI, %function
 413              	chMBPostI:
 414              	.LFB251:
 415              		.loc 1 243 0
 416              		.cfi_startproc
 417              		@ args = 0, pretend = 0, frame = 0
 418              		@ frame_needed = 0, uses_anonymous_args = 0
 419              	.LVL29:
 420 0000 38B5     		push	{r3, r4, r5, lr}
 421              		.cfi_def_cfa_offset 16
 422              		.cfi_offset 3, -16
 423              		.cfi_offset 4, -12
 424              		.cfi_offset 5, -8
 425              		.cfi_offset 14, -4
 426              		.loc 1 249 0
 427 0002 037D     		ldrb	r3, [r0, #20]	@ zero_extendqisi2
 428 0004 BBB9     		cbnz	r3, .L17
 429              	.LVL30:
 430              	.LBB108:
 431              	.LBB109:
 432              	.LBB110:
 433              	.LBB111:
 434              		.loc 5 140 0
 435 0006 90E81400 		ldmia	r0, {r2, r4}
 436              	.LVL31:
 437              	.LBE111:
 438              	.LBE110:
 439              		.loc 5 172 0
 440 000a 0369     		ldr	r3, [r0, #16]
 441              	.LBB113:
 442              	.LBB112:
 443              		.loc 5 140 0
 444 000c A51A     		subs	r5, r4, r2
 445              	.LBE112:
 446              	.LBE113:
 447              		.loc 5 172 0
 448 000e C3EBA503 		rsb	r3, r3, r5, asr #2
 449              	.LBE109:
 450              	.LBE108:
 451              		.loc 1 254 0
 452 0012 002B     		cmp	r3, #0
 453 0014 12DD     		ble	.L18
 454              		.loc 1 255 0
 455 0016 8568     		ldr	r5, [r0, #8]
 456 0018 2B1D     		adds	r3, r5, #4
ARM GAS  /tmp/ccmF24M5.s 			page 9


 457 001a 8360     		str	r3, [r0, #8]
 458 001c 2960     		str	r1, [r5]
 459              		.loc 1 256 0
 460 001e A342     		cmp	r3, r4
 461              		.loc 1 259 0
 462 0020 0369     		ldr	r3, [r0, #16]
 463              		.loc 1 257 0
 464 0022 28BF     		it	cs
 465 0024 8260     		strcs	r2, [r0, #8]
 466              		.loc 1 259 0
 467 0026 0133     		adds	r3, r3, #1
 468 0028 0361     		str	r3, [r0, #16]
 469              		.loc 1 262 0
 470 002a 0021     		movs	r1, #0
 471              	.LVL32:
 472 002c 2030     		adds	r0, r0, #32
 473              	.LVL33:
 474 002e FFF7FEFF 		bl	chThdDequeueNextI
 475              	.LVL34:
 476              		.loc 1 264 0
 477 0032 0020     		movs	r0, #0
 478 0034 38BD     		pop	{r3, r4, r5, pc}
 479              	.LVL35:
 480              	.L17:
 481              		.loc 1 250 0
 482 0036 6FF00100 		mvn	r0, #1
 483              	.LVL36:
 484 003a 38BD     		pop	{r3, r4, r5, pc}
 485              	.LVL37:
 486              	.L18:
 487              		.loc 1 268 0
 488 003c 4FF0FF30 		mov	r0, #-1
 489              	.LVL38:
 490              		.loc 1 269 0
 491 0040 38BD     		pop	{r3, r4, r5, pc}
 492              		.cfi_endproc
 493              	.LFE251:
 494              		.size	chMBPostI, .-chMBPostI
 495              		.section	.text.chMBPostAheadS,"ax",%progbits
 496              		.align	1
 497              		.global	chMBPostAheadS
 498              		.thumb
 499              		.thumb_func
 500              		.type	chMBPostAheadS, %function
 501              	chMBPostAheadS:
 502              	.LFB253:
 503              		.loc 1 319 0
 504              		.cfi_startproc
 505              		@ args = 0, pretend = 0, frame = 0
 506              		@ frame_needed = 0, uses_anonymous_args = 0
 507              	.LVL39:
 508 0000 70B5     		push	{r4, r5, r6, lr}
 509              		.cfi_def_cfa_offset 16
 510              		.cfi_offset 4, -16
 511              		.cfi_offset 5, -12
 512              		.cfi_offset 6, -8
 513              		.cfi_offset 14, -4
ARM GAS  /tmp/ccmF24M5.s 			page 10


 514 0002 0446     		mov	r4, r0
 515 0004 0D46     		mov	r5, r1
 516 0006 1646     		mov	r6, r2
 517              	.LVL40:
 518              	.L24:
 519              		.loc 1 327 0
 520 0008 237D     		ldrb	r3, [r4, #20]	@ zero_extendqisi2
 521 000a 23BB     		cbnz	r3, .L25
 522              	.LVL41:
 523              	.LBB120:
 524              	.LBB121:
 525              	.LBB122:
 526              	.LBB123:
 527              		.loc 5 140 0
 528 000c 94E80900 		ldmia	r4, {r0, r3}
 529              	.LVL42:
 530              	.LBE123:
 531              	.LBE122:
 532              		.loc 5 172 0
 533 0010 2169     		ldr	r1, [r4, #16]
 534              	.LBB125:
 535              	.LBB124:
 536              		.loc 5 140 0
 537 0012 1A1A     		subs	r2, r3, r0
 538              	.LBE124:
 539              	.LBE125:
 540              		.loc 5 172 0
 541 0014 C1EBA201 		rsb	r1, r1, r2, asr #2
 542              	.LBE121:
 543              	.LBE120:
 544              		.loc 1 332 0
 545 0018 0029     		cmp	r1, #0
 546 001a 14DD     		ble	.L21
 547              	.LVL43:
 548              	.LBB126:
 549              	.LBB127:
 550              		.loc 1 333 0
 551 001c E268     		ldr	r2, [r4, #12]
 552 001e 043A     		subs	r2, r2, #4
 553 0020 8242     		cmp	r2, r0
 554              		.loc 1 334 0
 555 0022 36BF     		itet	cc
 556 0024 043B     		subcc	r3, r3, #4
 557              		.loc 1 333 0
 558 0026 E260     		strcs	r2, [r4, #12]
 559              		.loc 1 334 0
 560 0028 E360     		strcc	r3, [r4, #12]
 561              		.loc 1 336 0
 562 002a E368     		ldr	r3, [r4, #12]
 563 002c 1D60     		str	r5, [r3]
 564              		.loc 1 337 0
 565 002e 2369     		ldr	r3, [r4, #16]
 566 0030 0133     		adds	r3, r3, #1
 567              		.loc 1 340 0
 568 0032 04F12000 		add	r0, r4, #32
 569              		.loc 1 337 0
 570 0036 2361     		str	r3, [r4, #16]
ARM GAS  /tmp/ccmF24M5.s 			page 11


 571              		.loc 1 340 0
 572 0038 0021     		movs	r1, #0
 573 003a FFF7FEFF 		bl	chThdDequeueNextI
 574              	.LVL44:
 575              		.loc 1 341 0
 576 003e FFF7FEFF 		bl	chSchRescheduleS
 577              	.LVL45:
 578 0042 0020     		movs	r0, #0
 579 0044 70BD     		pop	{r4, r5, r6, pc}
 580              	.LVL46:
 581              	.L21:
 582              	.LBE127:
 583              	.LBE126:
 584              		.loc 1 347 0
 585 0046 04F11800 		add	r0, r4, #24
 586 004a 3146     		mov	r1, r6
 587 004c FFF7FEFF 		bl	chThdEnqueueTimeoutS
 588              	.LVL47:
 589              		.loc 1 348 0
 590 0050 0028     		cmp	r0, #0
 591 0052 D9D0     		beq	.L24
 592 0054 70BD     		pop	{r4, r5, r6, pc}
 593              	.LVL48:
 594              	.L25:
 595              		.loc 1 328 0
 596 0056 6FF00100 		mvn	r0, #1
 597              		.loc 1 351 0
 598 005a 70BD     		pop	{r4, r5, r6, pc}
 599              		.cfi_endproc
 600              	.LFE253:
 601              		.size	chMBPostAheadS, .-chMBPostAheadS
 602              		.section	.text.chMBPostAhead,"ax",%progbits
 603              		.align	1
 604              		.global	chMBPostAhead
 605              		.thumb
 606              		.thumb_func
 607              		.type	chMBPostAhead, %function
 608              	chMBPostAhead:
 609              	.LFB252:
 610              		.loc 1 290 0
 611              		.cfi_startproc
 612              		@ args = 0, pretend = 0, frame = 0
 613              		@ frame_needed = 0, uses_anonymous_args = 0
 614              	.LVL49:
 615 0000 70B5     		push	{r4, r5, r6, lr}
 616              		.cfi_def_cfa_offset 16
 617              		.cfi_offset 4, -16
 618              		.cfi_offset 5, -12
 619              		.cfi_offset 6, -8
 620              		.cfi_offset 14, -4
 621              	.LBB138:
 622              	.LBB139:
 623              	.LBB140:
 624              	.LBB141:
 625              	.LBB142:
 626              		.loc 3 264 0
 627 0002 2023     		movs	r3, #32
ARM GAS  /tmp/ccmF24M5.s 			page 12


 628              	.LBE142:
 629              	.LBE141:
 630              	.LBE140:
 631              	.LBE139:
 632              	.LBE138:
 633              		.loc 1 290 0
 634 0004 0646     		mov	r6, r0
 635 0006 0D46     		mov	r5, r1
 636 0008 1446     		mov	r4, r2
 637              	.LBB147:
 638              	.LBB146:
 639              	.LBB145:
 640              	.LBB144:
 641              	.LBB143:
 642              		.loc 3 264 0
 643              	@ 264 "../../modules/ChibiOS/os/common/ext/CMSIS/include/cmsis_gcc.h" 1
 644 000a 83F31188 		MSR basepri, r3
 645              	@ 0 "" 2
 646              		.thumb
 647              	.LBE143:
 648              	.LBE144:
 649              	.LBE145:
 650              		.loc 4 377 0
 651 000e FFF7FEFF 		bl	_stats_start_measure_crit_thd
 652              	.LVL50:
 653              	.LBE146:
 654              	.LBE147:
 655              		.loc 1 294 0
 656 0012 2246     		mov	r2, r4
 657 0014 2946     		mov	r1, r5
 658 0016 3046     		mov	r0, r6
 659 0018 FFF7FEFF 		bl	chMBPostAheadS
 660              	.LVL51:
 661 001c 0446     		mov	r4, r0
 662              	.LVL52:
 663              	.LBB148:
 664              	.LBB149:
 665              		.loc 4 389 0
 666 001e FFF7FEFF 		bl	_stats_stop_measure_crit_thd
 667              	.LVL53:
 668              	.LBB150:
 669              	.LBB151:
 670              	.LBB152:
 671              		.loc 3 264 0
 672 0022 0023     		movs	r3, #0
 673              	@ 264 "../../modules/ChibiOS/os/common/ext/CMSIS/include/cmsis_gcc.h" 1
 674 0024 83F31188 		MSR basepri, r3
 675              	@ 0 "" 2
 676              		.thumb
 677              	.LBE152:
 678              	.LBE151:
 679              	.LBE150:
 680              	.LBE149:
 681              	.LBE148:
 682              		.loc 1 298 0
 683 0028 2046     		mov	r0, r4
 684 002a 70BD     		pop	{r4, r5, r6, pc}
ARM GAS  /tmp/ccmF24M5.s 			page 13


 685              		.cfi_endproc
 686              	.LFE252:
 687              		.size	chMBPostAhead, .-chMBPostAhead
 688              		.section	.text.chMBPostAheadI,"ax",%progbits
 689              		.align	1
 690              		.global	chMBPostAheadI
 691              		.thumb
 692              		.thumb_func
 693              		.type	chMBPostAheadI, %function
 694              	chMBPostAheadI:
 695              	.LFB254:
 696              		.loc 1 368 0
 697              		.cfi_startproc
 698              		@ args = 0, pretend = 0, frame = 0
 699              		@ frame_needed = 0, uses_anonymous_args = 0
 700              	.LVL54:
 701 0000 38B5     		push	{r3, r4, r5, lr}
 702              		.cfi_def_cfa_offset 16
 703              		.cfi_offset 3, -16
 704              		.cfi_offset 4, -12
 705              		.cfi_offset 5, -8
 706              		.cfi_offset 14, -4
 707              		.loc 1 374 0
 708 0002 037D     		ldrb	r3, [r0, #20]	@ zero_extendqisi2
 709 0004 CBB9     		cbnz	r3, .L33
 710              	.LVL55:
 711              	.LBB157:
 712              	.LBB158:
 713              	.LBB159:
 714              	.LBB160:
 715              		.loc 5 140 0
 716 0006 4368     		ldr	r3, [r0, #4]
 717 0008 0468     		ldr	r4, [r0]
 718              	.LVL56:
 719              	.LBE160:
 720              	.LBE159:
 721              		.loc 5 172 0
 722 000a 0269     		ldr	r2, [r0, #16]
 723              	.LBB162:
 724              	.LBB161:
 725              		.loc 5 140 0
 726 000c 1D1B     		subs	r5, r3, r4
 727              	.LBE161:
 728              	.LBE162:
 729              		.loc 5 172 0
 730 000e C2EBA502 		rsb	r2, r2, r5, asr #2
 731              	.LBE158:
 732              	.LBE157:
 733              		.loc 1 379 0
 734 0012 002A     		cmp	r2, #0
 735 0014 14DD     		ble	.L34
 736              		.loc 1 380 0
 737 0016 C268     		ldr	r2, [r0, #12]
 738 0018 043A     		subs	r2, r2, #4
 739 001a A242     		cmp	r2, r4
 740              		.loc 1 381 0
 741 001c 36BF     		itet	cc
ARM GAS  /tmp/ccmF24M5.s 			page 14


 742 001e 043B     		subcc	r3, r3, #4
 743              		.loc 1 380 0
 744 0020 C260     		strcs	r2, [r0, #12]
 745              		.loc 1 381 0
 746 0022 C360     		strcc	r3, [r0, #12]
 747              		.loc 1 383 0
 748 0024 C368     		ldr	r3, [r0, #12]
 749 0026 1960     		str	r1, [r3]
 750              		.loc 1 384 0
 751 0028 0369     		ldr	r3, [r0, #16]
 752 002a 0133     		adds	r3, r3, #1
 753 002c 0361     		str	r3, [r0, #16]
 754              		.loc 1 387 0
 755 002e 0021     		movs	r1, #0
 756              	.LVL57:
 757 0030 2030     		adds	r0, r0, #32
 758              	.LVL58:
 759 0032 FFF7FEFF 		bl	chThdDequeueNextI
 760              	.LVL59:
 761              		.loc 1 389 0
 762 0036 0020     		movs	r0, #0
 763 0038 38BD     		pop	{r3, r4, r5, pc}
 764              	.LVL60:
 765              	.L33:
 766              		.loc 1 375 0
 767 003a 6FF00100 		mvn	r0, #1
 768              	.LVL61:
 769 003e 38BD     		pop	{r3, r4, r5, pc}
 770              	.LVL62:
 771              	.L34:
 772              		.loc 1 393 0
 773 0040 4FF0FF30 		mov	r0, #-1
 774              	.LVL63:
 775              		.loc 1 394 0
 776 0044 38BD     		pop	{r3, r4, r5, pc}
 777              		.cfi_endproc
 778              	.LFE254:
 779              		.size	chMBPostAheadI, .-chMBPostAheadI
 780              		.section	.text.chMBFetchS,"ax",%progbits
 781              		.align	1
 782              		.global	chMBFetchS
 783              		.thumb
 784              		.thumb_func
 785              		.type	chMBFetchS, %function
 786              	chMBFetchS:
 787              	.LFB256:
 788              		.loc 1 444 0
 789              		.cfi_startproc
 790              		@ args = 0, pretend = 0, frame = 0
 791              		@ frame_needed = 0, uses_anonymous_args = 0
 792              	.LVL64:
 793 0000 70B5     		push	{r4, r5, r6, lr}
 794              		.cfi_def_cfa_offset 16
 795              		.cfi_offset 4, -16
 796              		.cfi_offset 5, -12
 797              		.cfi_offset 6, -8
 798              		.cfi_offset 14, -4
ARM GAS  /tmp/ccmF24M5.s 			page 15


 799 0002 0446     		mov	r4, r0
 800 0004 0E46     		mov	r6, r1
 801 0006 1546     		mov	r5, r2
 802              	.LVL65:
 803              	.L39:
 804              		.loc 1 452 0
 805 0008 237D     		ldrb	r3, [r4, #20]	@ zero_extendqisi2
 806 000a 03BB     		cbnz	r3, .L40
 807              	.LVL66:
 808              		.loc 1 457 0
 809 000c 2369     		ldr	r3, [r4, #16]
 810 000e 002B     		cmp	r3, #0
 811 0010 15DD     		ble	.L37
 812              	.LVL67:
 813              	.LBB167:
 814              	.LBB168:
 815              		.loc 1 458 0
 816 0012 E268     		ldr	r2, [r4, #12]
 817 0014 131D     		adds	r3, r2, #4
 818 0016 1268     		ldr	r2, [r2]
 819 0018 E360     		str	r3, [r4, #12]
 820 001a 3260     		str	r2, [r6]
 821              		.loc 1 459 0
 822 001c 6268     		ldr	r2, [r4, #4]
 823 001e 9342     		cmp	r3, r2
 824              		.loc 1 460 0
 825 0020 24BF     		itt	cs
 826 0022 2368     		ldrcs	r3, [r4]
 827 0024 E360     		strcs	r3, [r4, #12]
 828              		.loc 1 462 0
 829 0026 2369     		ldr	r3, [r4, #16]
 830 0028 013B     		subs	r3, r3, #1
 831              		.loc 1 465 0
 832 002a 04F11800 		add	r0, r4, #24
 833              		.loc 1 462 0
 834 002e 2361     		str	r3, [r4, #16]
 835              		.loc 1 465 0
 836 0030 0021     		movs	r1, #0
 837 0032 FFF7FEFF 		bl	chThdDequeueNextI
 838              	.LVL68:
 839              		.loc 1 466 0
 840 0036 FFF7FEFF 		bl	chSchRescheduleS
 841              	.LVL69:
 842 003a 0020     		movs	r0, #0
 843 003c 70BD     		pop	{r4, r5, r6, pc}
 844              	.LVL70:
 845              	.L37:
 846              	.LBE168:
 847              	.LBE167:
 848              		.loc 1 472 0
 849 003e 04F12000 		add	r0, r4, #32
 850 0042 2946     		mov	r1, r5
 851 0044 FFF7FEFF 		bl	chThdEnqueueTimeoutS
 852              	.LVL71:
 853              		.loc 1 473 0
 854 0048 0028     		cmp	r0, #0
 855 004a DDD0     		beq	.L39
ARM GAS  /tmp/ccmF24M5.s 			page 16


 856 004c 70BD     		pop	{r4, r5, r6, pc}
 857              	.LVL72:
 858              	.L40:
 859              		.loc 1 453 0
 860 004e 6FF00100 		mvn	r0, #1
 861              		.loc 1 476 0
 862 0052 70BD     		pop	{r4, r5, r6, pc}
 863              		.cfi_endproc
 864              	.LFE256:
 865              		.size	chMBFetchS, .-chMBFetchS
 866              		.section	.text.chMBFetch,"ax",%progbits
 867              		.align	1
 868              		.global	chMBFetch
 869              		.thumb
 870              		.thumb_func
 871              		.type	chMBFetch, %function
 872              	chMBFetch:
 873              	.LFB255:
 874              		.loc 1 415 0
 875              		.cfi_startproc
 876              		@ args = 0, pretend = 0, frame = 0
 877              		@ frame_needed = 0, uses_anonymous_args = 0
 878              	.LVL73:
 879 0000 70B5     		push	{r4, r5, r6, lr}
 880              		.cfi_def_cfa_offset 16
 881              		.cfi_offset 4, -16
 882              		.cfi_offset 5, -12
 883              		.cfi_offset 6, -8
 884              		.cfi_offset 14, -4
 885              	.LBB179:
 886              	.LBB180:
 887              	.LBB181:
 888              	.LBB182:
 889              	.LBB183:
 890              		.loc 3 264 0
 891 0002 2023     		movs	r3, #32
 892              	.LBE183:
 893              	.LBE182:
 894              	.LBE181:
 895              	.LBE180:
 896              	.LBE179:
 897              		.loc 1 415 0
 898 0004 0646     		mov	r6, r0
 899 0006 0D46     		mov	r5, r1
 900 0008 1446     		mov	r4, r2
 901              	.LBB188:
 902              	.LBB187:
 903              	.LBB186:
 904              	.LBB185:
 905              	.LBB184:
 906              		.loc 3 264 0
 907              	@ 264 "../../modules/ChibiOS/os/common/ext/CMSIS/include/cmsis_gcc.h" 1
 908 000a 83F31188 		MSR basepri, r3
 909              	@ 0 "" 2
 910              		.thumb
 911              	.LBE184:
 912              	.LBE185:
ARM GAS  /tmp/ccmF24M5.s 			page 17


 913              	.LBE186:
 914              		.loc 4 377 0
 915 000e FFF7FEFF 		bl	_stats_start_measure_crit_thd
 916              	.LVL74:
 917              	.LBE187:
 918              	.LBE188:
 919              		.loc 1 419 0
 920 0012 2246     		mov	r2, r4
 921 0014 2946     		mov	r1, r5
 922 0016 3046     		mov	r0, r6
 923 0018 FFF7FEFF 		bl	chMBFetchS
 924              	.LVL75:
 925 001c 0446     		mov	r4, r0
 926              	.LVL76:
 927              	.LBB189:
 928              	.LBB190:
 929              		.loc 4 389 0
 930 001e FFF7FEFF 		bl	_stats_stop_measure_crit_thd
 931              	.LVL77:
 932              	.LBB191:
 933              	.LBB192:
 934              	.LBB193:
 935              		.loc 3 264 0
 936 0022 0023     		movs	r3, #0
 937              	@ 264 "../../modules/ChibiOS/os/common/ext/CMSIS/include/cmsis_gcc.h" 1
 938 0024 83F31188 		MSR basepri, r3
 939              	@ 0 "" 2
 940              		.thumb
 941              	.LBE193:
 942              	.LBE192:
 943              	.LBE191:
 944              	.LBE190:
 945              	.LBE189:
 946              		.loc 1 423 0
 947 0028 2046     		mov	r0, r4
 948 002a 70BD     		pop	{r4, r5, r6, pc}
 949              		.cfi_endproc
 950              	.LFE255:
 951              		.size	chMBFetch, .-chMBFetch
 952              		.section	.text.chMBFetchI,"ax",%progbits
 953              		.align	1
 954              		.global	chMBFetchI
 955              		.thumb
 956              		.thumb_func
 957              		.type	chMBFetchI, %function
 958              	chMBFetchI:
 959              	.LFB257:
 960              		.loc 1 493 0
 961              		.cfi_startproc
 962              		@ args = 0, pretend = 0, frame = 0
 963              		@ frame_needed = 0, uses_anonymous_args = 0
 964              	.LVL78:
 965 0000 08B5     		push	{r3, lr}
 966              		.cfi_def_cfa_offset 8
 967              		.cfi_offset 3, -8
 968              		.cfi_offset 14, -4
 969              		.loc 1 499 0
ARM GAS  /tmp/ccmF24M5.s 			page 18


 970 0002 037D     		ldrb	r3, [r0, #20]	@ zero_extendqisi2
 971 0004 ABB9     		cbnz	r3, .L47
 972              	.LVL79:
 973              		.loc 1 504 0
 974 0006 0369     		ldr	r3, [r0, #16]
 975 0008 002B     		cmp	r3, #0
 976 000a 15DD     		ble	.L48
 977              		.loc 1 505 0
 978 000c C268     		ldr	r2, [r0, #12]
 979 000e 131D     		adds	r3, r2, #4
 980 0010 1268     		ldr	r2, [r2]
 981 0012 C360     		str	r3, [r0, #12]
 982 0014 0A60     		str	r2, [r1]
 983              		.loc 1 506 0
 984 0016 4268     		ldr	r2, [r0, #4]
 985 0018 9342     		cmp	r3, r2
 986              		.loc 1 507 0
 987 001a 24BF     		itt	cs
 988 001c 0368     		ldrcs	r3, [r0]
 989 001e C360     		strcs	r3, [r0, #12]
 990              		.loc 1 509 0
 991 0020 0369     		ldr	r3, [r0, #16]
 992 0022 013B     		subs	r3, r3, #1
 993 0024 0361     		str	r3, [r0, #16]
 994              		.loc 1 512 0
 995 0026 0021     		movs	r1, #0
 996              	.LVL80:
 997 0028 1830     		adds	r0, r0, #24
 998              	.LVL81:
 999 002a FFF7FEFF 		bl	chThdDequeueNextI
 1000              	.LVL82:
 1001              		.loc 1 514 0
 1002 002e 0020     		movs	r0, #0
 1003 0030 08BD     		pop	{r3, pc}
 1004              	.LVL83:
 1005              	.L47:
 1006              		.loc 1 500 0
 1007 0032 6FF00100 		mvn	r0, #1
 1008              	.LVL84:
 1009 0036 08BD     		pop	{r3, pc}
 1010              	.LVL85:
 1011              	.L48:
 1012              		.loc 1 518 0
 1013 0038 4FF0FF30 		mov	r0, #-1
 1014              	.LVL86:
 1015              		.loc 1 519 0
 1016 003c 08BD     		pop	{r3, pc}
 1017              		.cfi_endproc
 1018              	.LFE257:
 1019              		.size	chMBFetchI, .-chMBFetchI
 1020              		.text
 1021              	.Letext0:
 1022              		.file 6 "/usr/include/newlib/machine/_default_types.h"
 1023              		.file 7 "/usr/include/newlib/sys/_stdint.h"
 1024              		.file 8 "../../modules/ChibiOS/os/common/ports/ARMCMx/compilers/GCC/chtypes.h"
 1025              		.file 9 "../../modules/ChibiOS/os/rt/include/chsystypes.h"
 1026              		.file 10 "../../modules/ChibiOS/os/common/ports/ARMCMx/chcore.h"
ARM GAS  /tmp/ccmF24M5.s 			page 19


 1027              		.file 11 "../../modules/ChibiOS/os/common/ports/ARMCMx/chcore_v7m.h"
 1028              		.file 12 "../../modules/ChibiOS/os/rt/include/chtm.h"
 1029              		.file 13 "../../modules/ChibiOS/os/rt/include/chstats.h"
 1030              		.file 14 "../../modules/ChibiOS/os/rt/include/chsem.h"
 1031              		.file 15 "../../modules/ChibiOS/os/rt/include/chmtx.h"
 1032              		.file 16 "../../modules/ChibiOS/os/rt/include/chthreads.h"
 1033              		.file 17 "../../modules/ChibiOS/os/common/ext/CMSIS/include/core_cm4.h"