ARM GAS  /tmp/ccR7GbWV.s 			page 1


   1              		.syntax unified
   2              		.cpu cortex-m4
   3              		.eabi_attribute 27, 1
   4              		.eabi_attribute 28, 1
   5              		.fpu fpv4-sp-d16
   6              		.eabi_attribute 20, 1
   7              		.eabi_attribute 21, 1
   8              		.eabi_attribute 23, 3
   9              		.eabi_attribute 24, 1
  10              		.eabi_attribute 25, 1
  11              		.eabi_attribute 26, 1
  12              		.eabi_attribute 30, 4
  13              		.eabi_attribute 34, 1
  14              		.eabi_attribute 18, 4
  15              		.thumb
  16              		.file	"chmempools.c"
  17              		.text
  18              	.Ltext0:
  19              		.cfi_sections	.debug_frame
  20              		.section	.text.chPoolObjectInit,"ax",%progbits
  21              		.align	1
  22              		.global	chPoolObjectInit
  23              		.thumb
  24              		.thumb_func
  25              		.type	chPoolObjectInit, %function
  26              	chPoolObjectInit:
  27              	.LFB246:
  28              		.file 1 "../../modules/ChibiOS/os/common/oslib/src/chmempools.c"
  29              		.loc 1 76 0
  30              		.cfi_startproc
  31              		@ args = 0, pretend = 0, frame = 0
  32              		@ frame_needed = 0, uses_anonymous_args = 0
  33              		@ link register save eliminated.
  34              	.LVL0:
  35              		.loc 1 80 0
  36 0000 0023     		movs	r3, #0
  37 0002 0360     		str	r3, [r0]
  38              		.loc 1 81 0
  39 0004 4160     		str	r1, [r0, #4]
  40              		.loc 1 82 0
  41 0006 8260     		str	r2, [r0, #8]
  42 0008 7047     		bx	lr
  43              		.cfi_endproc
  44              	.LFE246:
  45              		.size	chPoolObjectInit, .-chPoolObjectInit
  46              		.section	.text.chPoolAllocI,"ax",%progbits
  47              		.align	1
  48              		.global	chPoolAllocI
  49              		.thumb
  50              		.thumb_func
  51              		.type	chPoolAllocI, %function
  52              	chPoolAllocI:
  53              	.LFB248:
  54              		.loc 1 121 0
  55              		.cfi_startproc
  56              		@ args = 0, pretend = 0, frame = 0
  57              		@ frame_needed = 0, uses_anonymous_args = 0
ARM GAS  /tmp/ccR7GbWV.s 			page 2


  58              		@ link register save eliminated.
  59              	.LVL1:
  60              		.loc 1 121 0
  61 0000 0346     		mov	r3, r0
  62              		.loc 1 127 0
  63 0002 0068     		ldr	r0, [r0]
  64              	.LVL2:
  65              		.loc 1 129 0
  66 0004 10B1     		cbz	r0, .L3
  67              		.loc 1 130 0
  68 0006 0268     		ldr	r2, [r0]
  69 0008 1A60     		str	r2, [r3]
  70 000a 7047     		bx	lr
  71              	.L3:
  72              		.loc 1 132 0
  73 000c 9A68     		ldr	r2, [r3, #8]
  74 000e 12B1     		cbz	r2, .L4
  75              		.loc 1 133 0
  76 0010 5868     		ldr	r0, [r3, #4]
  77              	.LVL3:
  78 0012 0421     		movs	r1, #4
  79 0014 1047     		bx	r2
  80              	.LVL4:
  81              	.L4:
  82              		.loc 1 138 0
  83 0016 7047     		bx	lr
  84              		.cfi_endproc
  85              	.LFE248:
  86              		.size	chPoolAllocI, .-chPoolAllocI
  87              		.section	.text.chPoolAlloc,"ax",%progbits
  88              		.align	1
  89              		.global	chPoolAlloc
  90              		.thumb
  91              		.thumb_func
  92              		.type	chPoolAlloc, %function
  93              	chPoolAlloc:
  94              	.LFB249:
  95              		.loc 1 150 0
  96              		.cfi_startproc
  97              		@ args = 0, pretend = 0, frame = 0
  98              		@ frame_needed = 0, uses_anonymous_args = 0
  99              	.LVL5:
 100 0000 10B5     		push	{r4, lr}
 101              		.cfi_def_cfa_offset 8
 102              		.cfi_offset 4, -8
 103              		.cfi_offset 14, -4
 104              	.LBB34:
 105              	.LBB35:
 106              	.LBB36:
 107              	.LBB37:
 108              	.LBB38:
 109              		.file 2 "../../modules/ChibiOS/os/common/ext/CMSIS/include/cmsis_gcc.h"
 110              		.loc 2 264 0
 111 0002 2023     		movs	r3, #32
 112              	.LBE38:
 113              	.LBE37:
 114              	.LBE36:
ARM GAS  /tmp/ccR7GbWV.s 			page 3


 115              	.LBE35:
 116              	.LBE34:
 117              		.loc 1 150 0
 118 0004 0446     		mov	r4, r0
 119              	.LBB43:
 120              	.LBB42:
 121              	.LBB41:
 122              	.LBB40:
 123              	.LBB39:
 124              		.loc 2 264 0
 125              	@ 264 "../../modules/ChibiOS/os/common/ext/CMSIS/include/cmsis_gcc.h" 1
 126 0006 83F31188 		MSR basepri, r3
 127              	@ 0 "" 2
 128              		.thumb
 129              	.LBE39:
 130              	.LBE40:
 131              	.LBE41:
 132              		.file 3 "../../modules/ChibiOS/os/rt/include/chsys.h"
 133              		.loc 3 377 0
 134 000a FFF7FEFF 		bl	_stats_start_measure_crit_thd
 135              	.LVL6:
 136              	.LBE42:
 137              	.LBE43:
 138              		.loc 1 154 0
 139 000e 2046     		mov	r0, r4
 140 0010 FFF7FEFF 		bl	chPoolAllocI
 141              	.LVL7:
 142 0014 0446     		mov	r4, r0
 143              	.LVL8:
 144              	.LBB44:
 145              	.LBB45:
 146              		.loc 3 389 0
 147 0016 FFF7FEFF 		bl	_stats_stop_measure_crit_thd
 148              	.LVL9:
 149              	.LBB46:
 150              	.LBB47:
 151              	.LBB48:
 152              		.loc 2 264 0
 153 001a 0023     		movs	r3, #0
 154              	@ 264 "../../modules/ChibiOS/os/common/ext/CMSIS/include/cmsis_gcc.h" 1
 155 001c 83F31188 		MSR basepri, r3
 156              	@ 0 "" 2
 157              		.thumb
 158              	.LBE48:
 159              	.LBE47:
 160              	.LBE46:
 161              	.LBE45:
 162              	.LBE44:
 163              		.loc 1 158 0
 164 0020 2046     		mov	r0, r4
 165 0022 10BD     		pop	{r4, pc}
 166              		.cfi_endproc
 167              	.LFE249:
 168              		.size	chPoolAlloc, .-chPoolAlloc
 169              		.section	.text.chPoolFreeI,"ax",%progbits
 170              		.align	1
 171              		.global	chPoolFreeI
ARM GAS  /tmp/ccR7GbWV.s 			page 4


 172              		.thumb
 173              		.thumb_func
 174              		.type	chPoolFreeI, %function
 175              	chPoolFreeI:
 176              	.LFB250:
 177              		.loc 1 172 0
 178              		.cfi_startproc
 179              		@ args = 0, pretend = 0, frame = 0
 180              		@ frame_needed = 0, uses_anonymous_args = 0
 181              		@ link register save eliminated.
 182              	.LVL10:
 183              		.loc 1 178 0
 184 0000 0368     		ldr	r3, [r0]
 185 0002 0B60     		str	r3, [r1]
 186              		.loc 1 179 0
 187 0004 0160     		str	r1, [r0]
 188 0006 7047     		bx	lr
 189              		.cfi_endproc
 190              	.LFE250:
 191              		.size	chPoolFreeI, .-chPoolFreeI
 192              		.section	.text.chPoolFree,"ax",%progbits
 193              		.align	1
 194              		.global	chPoolFree
 195              		.thumb
 196              		.thumb_func
 197              		.type	chPoolFree, %function
 198              	chPoolFree:
 199              	.LFB251:
 200              		.loc 1 194 0
 201              		.cfi_startproc
 202              		@ args = 0, pretend = 0, frame = 0
 203              		@ frame_needed = 0, uses_anonymous_args = 0
 204              	.LVL11:
 205 0000 38B5     		push	{r3, r4, r5, lr}
 206              		.cfi_def_cfa_offset 16
 207              		.cfi_offset 3, -16
 208              		.cfi_offset 4, -12
 209              		.cfi_offset 5, -8
 210              		.cfi_offset 14, -4
 211              		.loc 1 194 0
 212 0002 0446     		mov	r4, r0
 213 0004 0D46     		mov	r5, r1
 214              	.LBB61:
 215              	.LBB62:
 216              	.LBB63:
 217              	.LBB64:
 218              	.LBB65:
 219              		.loc 2 264 0
 220 0006 2023     		movs	r3, #32
 221              	@ 264 "../../modules/ChibiOS/os/common/ext/CMSIS/include/cmsis_gcc.h" 1
 222 0008 83F31188 		MSR basepri, r3
 223              	@ 0 "" 2
 224              		.thumb
 225              	.LBE65:
 226              	.LBE64:
 227              	.LBE63:
 228              		.loc 3 377 0
ARM GAS  /tmp/ccR7GbWV.s 			page 5


 229 000c FFF7FEFF 		bl	_stats_start_measure_crit_thd
 230              	.LVL12:
 231              	.LBE62:
 232              	.LBE61:
 233              	.LBB66:
 234              	.LBB67:
 235              		.loc 1 178 0
 236 0010 2368     		ldr	r3, [r4]
 237 0012 2B60     		str	r3, [r5]
 238              		.loc 1 179 0
 239 0014 2560     		str	r5, [r4]
 240              	.LBE67:
 241              	.LBE66:
 242              	.LBB68:
 243              	.LBB69:
 244              		.loc 3 389 0
 245 0016 FFF7FEFF 		bl	_stats_stop_measure_crit_thd
 246              	.LVL13:
 247              	.LBB70:
 248              	.LBB71:
 249              	.LBB72:
 250              		.loc 2 264 0
 251 001a 0023     		movs	r3, #0
 252              	@ 264 "../../modules/ChibiOS/os/common/ext/CMSIS/include/cmsis_gcc.h" 1
 253 001c 83F31188 		MSR basepri, r3
 254              	@ 0 "" 2
 255              		.thumb
 256 0020 38BD     		pop	{r3, r4, r5, pc}
 257              	.LBE72:
 258              	.LBE71:
 259              	.LBE70:
 260              	.LBE69:
 261              	.LBE68:
 262              		.cfi_endproc
 263              	.LFE251:
 264              		.size	chPoolFree, .-chPoolFree
 265              		.section	.text.chPoolLoadArray,"ax",%progbits
 266              		.align	1
 267              		.global	chPoolLoadArray
 268              		.thumb
 269              		.thumb_func
 270              		.type	chPoolLoadArray, %function
 271              	chPoolLoadArray:
 272              	.LFB247:
 273              		.loc 1 98 0
 274              		.cfi_startproc
 275              		@ args = 0, pretend = 0, frame = 0
 276              		@ frame_needed = 0, uses_anonymous_args = 0
 277              	.LVL14:
 278 0000 70B5     		push	{r4, r5, r6, lr}
 279              		.cfi_def_cfa_offset 16
 280              		.cfi_offset 4, -16
 281              		.cfi_offset 5, -12
 282              		.cfi_offset 6, -8
 283              		.cfi_offset 14, -4
 284 0002 0646     		mov	r6, r0
 285 0004 0D46     		mov	r5, r1
ARM GAS  /tmp/ccR7GbWV.s 			page 6


 286 0006 1446     		mov	r4, r2
 287              	.LVL15:
 288              	.L13:
 289              		.loc 1 102 0
 290 0008 3CB1     		cbz	r4, .L15
 291              	.LVL16:
 292              	.LBB73:
 293              	.LBB74:
 294              		.file 4 "../../modules/ChibiOS/os/common/oslib/include/chmempools.h"
 295              		.loc 4 186 0
 296 000a 2946     		mov	r1, r5
 297 000c 3046     		mov	r0, r6
 298 000e FFF7FEFF 		bl	chPoolFree
 299              	.LVL17:
 300              	.LBE74:
 301              	.LBE73:
 302              		.loc 1 105 0
 303 0012 7368     		ldr	r3, [r6, #4]
 304              		.loc 1 107 0
 305 0014 013C     		subs	r4, r4, #1
 306              	.LVL18:
 307              		.loc 1 105 0
 308 0016 1D44     		add	r5, r5, r3
 309              	.LVL19:
 310 0018 F6E7     		b	.L13
 311              	.LVL20:
 312              	.L15:
 313              		.loc 1 109 0
 314 001a 70BD     		pop	{r4, r5, r6, pc}
 315              		.cfi_endproc
 316              	.LFE247:
 317              		.size	chPoolLoadArray, .-chPoolLoadArray
 318              		.section	.text.chGuardedPoolObjectInit,"ax",%progbits
 319              		.align	1
 320              		.global	chGuardedPoolObjectInit
 321              		.thumb
 322              		.thumb_func
 323              		.type	chGuardedPoolObjectInit, %function
 324              	chGuardedPoolObjectInit:
 325              	.LFB252:
 326              		.loc 1 212 0
 327              		.cfi_startproc
 328              		@ args = 0, pretend = 0, frame = 0
 329              		@ frame_needed = 0, uses_anonymous_args = 0
 330              		@ link register save eliminated.
 331              	.LVL21:
 332              	.LBB75:
 333              	.LBB76:
 334              		.loc 1 80 0
 335 0000 0023     		movs	r3, #0
 336              		.loc 1 81 0
 337 0002 0161     		str	r1, [r0, #16]
 338              		.loc 1 80 0
 339 0004 C360     		str	r3, [r0, #12]
 340              		.loc 1 82 0
 341 0006 4361     		str	r3, [r0, #20]
 342              	.LBE76:
ARM GAS  /tmp/ccR7GbWV.s 			page 7


 343              	.LBE75:
 344              		.loc 1 215 0
 345 0008 1946     		mov	r1, r3
 346              	.LVL22:
 347 000a FFF7FEBF 		b	chSemObjectInit
 348              	.LVL23:
 349              		.cfi_endproc
 350              	.LFE252:
 351              		.size	chGuardedPoolObjectInit, .-chGuardedPoolObjectInit
 352              		.section	.text.chGuardedPoolAllocTimeoutS,"ax",%progbits
 353              		.align	1
 354              		.global	chGuardedPoolAllocTimeoutS
 355              		.thumb
 356              		.thumb_func
 357              		.type	chGuardedPoolAllocTimeoutS, %function
 358              	chGuardedPoolAllocTimeoutS:
 359              	.LFB254:
 360              		.loc 1 260 0
 361              		.cfi_startproc
 362              		@ args = 0, pretend = 0, frame = 0
 363              		@ frame_needed = 0, uses_anonymous_args = 0
 364              	.LVL24:
 365 0000 10B5     		push	{r4, lr}
 366              		.cfi_def_cfa_offset 8
 367              		.cfi_offset 4, -8
 368              		.cfi_offset 14, -4
 369              		.loc 1 260 0
 370 0002 0446     		mov	r4, r0
 371              		.loc 1 263 0
 372 0004 FFF7FEFF 		bl	chSemWaitTimeoutS
 373              	.LVL25:
 374              		.loc 1 264 0
 375 0008 28B9     		cbnz	r0, .L18
 376              		.loc 1 268 0
 377 000a 04F10C00 		add	r0, r4, #12
 378              	.LVL26:
 379              		.loc 1 269 0
 380 000e BDE81040 		pop	{r4, lr}
 381              		.cfi_remember_state
 382              		.cfi_restore 14
 383              		.cfi_restore 4
 384              		.cfi_def_cfa_offset 0
 385              	.LVL27:
 386              		.loc 1 268 0
 387 0012 FFF7FEBF 		b	chPoolAllocI
 388              	.LVL28:
 389              	.L18:
 390              		.cfi_restore_state
 391              		.loc 1 269 0
 392 0016 0020     		movs	r0, #0
 393              	.LVL29:
 394 0018 10BD     		pop	{r4, pc}
 395              		.cfi_endproc
 396              	.LFE254:
 397              		.size	chGuardedPoolAllocTimeoutS, .-chGuardedPoolAllocTimeoutS
 398              		.section	.text.chGuardedPoolAllocTimeout,"ax",%progbits
 399              		.align	1
ARM GAS  /tmp/ccR7GbWV.s 			page 8


 400              		.global	chGuardedPoolAllocTimeout
 401              		.thumb
 402              		.thumb_func
 403              		.type	chGuardedPoolAllocTimeout, %function
 404              	chGuardedPoolAllocTimeout:
 405              	.LFB255:
 406              		.loc 1 287 0
 407              		.cfi_startproc
 408              		@ args = 0, pretend = 0, frame = 0
 409              		@ frame_needed = 0, uses_anonymous_args = 0
 410              	.LVL30:
 411 0000 38B5     		push	{r3, r4, r5, lr}
 412              		.cfi_def_cfa_offset 16
 413              		.cfi_offset 3, -16
 414              		.cfi_offset 4, -12
 415              		.cfi_offset 5, -8
 416              		.cfi_offset 14, -4
 417              		.loc 1 287 0
 418 0002 0546     		mov	r5, r0
 419 0004 0C46     		mov	r4, r1
 420              	.LBB87:
 421              	.LBB88:
 422              	.LBB89:
 423              	.LBB90:
 424              	.LBB91:
 425              		.loc 2 264 0
 426 0006 2023     		movs	r3, #32
 427              	@ 264 "../../modules/ChibiOS/os/common/ext/CMSIS/include/cmsis_gcc.h" 1
 428 0008 83F31188 		MSR basepri, r3
 429              	@ 0 "" 2
 430              		.thumb
 431              	.LBE91:
 432              	.LBE90:
 433              	.LBE89:
 434              		.loc 3 377 0
 435 000c FFF7FEFF 		bl	_stats_start_measure_crit_thd
 436              	.LVL31:
 437              	.LBE88:
 438              	.LBE87:
 439              		.loc 1 291 0
 440 0010 2146     		mov	r1, r4
 441 0012 2846     		mov	r0, r5
 442 0014 FFF7FEFF 		bl	chGuardedPoolAllocTimeoutS
 443              	.LVL32:
 444 0018 0446     		mov	r4, r0
 445              	.LVL33:
 446              	.LBB92:
 447              	.LBB93:
 448              		.loc 3 389 0
 449 001a FFF7FEFF 		bl	_stats_stop_measure_crit_thd
 450              	.LVL34:
 451              	.LBB94:
 452              	.LBB95:
 453              	.LBB96:
 454              		.loc 2 264 0
 455 001e 0023     		movs	r3, #0
 456              	@ 264 "../../modules/ChibiOS/os/common/ext/CMSIS/include/cmsis_gcc.h" 1
ARM GAS  /tmp/ccR7GbWV.s 			page 9


 457 0020 83F31188 		MSR basepri, r3
 458              	@ 0 "" 2
 459              		.thumb
 460              	.LBE96:
 461              	.LBE95:
 462              	.LBE94:
 463              	.LBE93:
 464              	.LBE92:
 465              		.loc 1 295 0
 466 0024 2046     		mov	r0, r4
 467 0026 38BD     		pop	{r3, r4, r5, pc}
 468              		.cfi_endproc
 469              	.LFE255:
 470              		.size	chGuardedPoolAllocTimeout, .-chGuardedPoolAllocTimeout
 471              		.section	.text.chGuardedPoolFreeI,"ax",%progbits
 472              		.align	1
 473              		.global	chGuardedPoolFreeI
 474              		.thumb
 475              		.thumb_func
 476              		.type	chGuardedPoolFreeI, %function
 477              	chGuardedPoolFreeI:
 478              	.LFB256:
 479              		.loc 1 309 0
 480              		.cfi_startproc
 481              		@ args = 0, pretend = 0, frame = 0
 482              		@ frame_needed = 0, uses_anonymous_args = 0
 483              		@ link register save eliminated.
 484              	.LVL35:
 485              	.LBB97:
 486              	.LBB98:
 487              		.loc 1 178 0
 488 0000 C268     		ldr	r2, [r0, #12]
 489 0002 0A60     		str	r2, [r1]
 490              		.loc 1 179 0
 491 0004 C160     		str	r1, [r0, #12]
 492              	.LBE98:
 493              	.LBE97:
 494              		.loc 1 312 0
 495 0006 FFF7FEBF 		b	chSemSignalI
 496              	.LVL36:
 497              		.cfi_endproc
 498              	.LFE256:
 499              		.size	chGuardedPoolFreeI, .-chGuardedPoolFreeI
 500              		.section	.text.chGuardedPoolFree,"ax",%progbits
 501              		.align	1
 502              		.global	chGuardedPoolFree
 503              		.thumb
 504              		.thumb_func
 505              		.type	chGuardedPoolFree, %function
 506              	chGuardedPoolFree:
 507              	.LFB257:
 508              		.loc 1 327 0
 509              		.cfi_startproc
 510              		@ args = 0, pretend = 0, frame = 0
 511              		@ frame_needed = 0, uses_anonymous_args = 0
 512              	.LVL37:
 513 0000 38B5     		push	{r3, r4, r5, lr}
ARM GAS  /tmp/ccR7GbWV.s 			page 10


 514              		.cfi_def_cfa_offset 16
 515              		.cfi_offset 3, -16
 516              		.cfi_offset 4, -12
 517              		.cfi_offset 5, -8
 518              		.cfi_offset 14, -4
 519              		.loc 1 327 0
 520 0002 0546     		mov	r5, r0
 521 0004 0C46     		mov	r4, r1
 522              	.LBB109:
 523              	.LBB110:
 524              	.LBB111:
 525              	.LBB112:
 526              	.LBB113:
 527              		.loc 2 264 0
 528 0006 2023     		movs	r3, #32
 529              	@ 264 "../../modules/ChibiOS/os/common/ext/CMSIS/include/cmsis_gcc.h" 1
 530 0008 83F31188 		MSR basepri, r3
 531              	@ 0 "" 2
 532              		.thumb
 533              	.LBE113:
 534              	.LBE112:
 535              	.LBE111:
 536              		.loc 3 377 0
 537 000c FFF7FEFF 		bl	_stats_start_measure_crit_thd
 538              	.LVL38:
 539              	.LBE110:
 540              	.LBE109:
 541              		.loc 1 330 0
 542 0010 2846     		mov	r0, r5
 543 0012 2146     		mov	r1, r4
 544 0014 FFF7FEFF 		bl	chGuardedPoolFreeI
 545              	.LVL39:
 546              		.loc 1 331 0
 547 0018 FFF7FEFF 		bl	chSchRescheduleS
 548              	.LVL40:
 549              	.LBB114:
 550              	.LBB115:
 551              		.loc 3 389 0
 552 001c FFF7FEFF 		bl	_stats_stop_measure_crit_thd
 553              	.LVL41:
 554              	.LBB116:
 555              	.LBB117:
 556              	.LBB118:
 557              		.loc 2 264 0
 558 0020 0023     		movs	r3, #0
 559              	@ 264 "../../modules/ChibiOS/os/common/ext/CMSIS/include/cmsis_gcc.h" 1
 560 0022 83F31188 		MSR basepri, r3
 561              	@ 0 "" 2
 562              		.thumb
 563 0026 38BD     		pop	{r3, r4, r5, pc}
 564              	.LBE118:
 565              	.LBE117:
 566              	.LBE116:
 567              	.LBE115:
 568              	.LBE114:
 569              		.cfi_endproc
 570              	.LFE257:
ARM GAS  /tmp/ccR7GbWV.s 			page 11


 571              		.size	chGuardedPoolFree, .-chGuardedPoolFree
 572              		.section	.text.chGuardedPoolLoadArray,"ax",%progbits
 573              		.align	1
 574              		.global	chGuardedPoolLoadArray
 575              		.thumb
 576              		.thumb_func
 577              		.type	chGuardedPoolLoadArray, %function
 578              	chGuardedPoolLoadArray:
 579              	.LFB253:
 580              		.loc 1 231 0
 581              		.cfi_startproc
 582              		@ args = 0, pretend = 0, frame = 0
 583              		@ frame_needed = 0, uses_anonymous_args = 0
 584              	.LVL42:
 585 0000 70B5     		push	{r4, r5, r6, lr}
 586              		.cfi_def_cfa_offset 16
 587              		.cfi_offset 4, -16
 588              		.cfi_offset 5, -12
 589              		.cfi_offset 6, -8
 590              		.cfi_offset 14, -4
 591 0002 0646     		mov	r6, r0
 592 0004 0D46     		mov	r5, r1
 593 0006 1446     		mov	r4, r2
 594              	.LVL43:
 595              	.L23:
 596              		.loc 1 235 0
 597 0008 3CB1     		cbz	r4, .L25
 598              	.LVL44:
 599              	.LBB119:
 600              	.LBB120:
 601              		.loc 4 228 0
 602 000a 2946     		mov	r1, r5
 603 000c 3046     		mov	r0, r6
 604 000e FFF7FEFF 		bl	chGuardedPoolFree
 605              	.LVL45:
 606              	.LBE120:
 607              	.LBE119:
 608              		.loc 1 238 0
 609 0012 3369     		ldr	r3, [r6, #16]
 610              		.loc 1 240 0
 611 0014 013C     		subs	r4, r4, #1
 612              	.LVL46:
 613              		.loc 1 238 0
 614 0016 1D44     		add	r5, r5, r3
 615              	.LVL47:
 616 0018 F6E7     		b	.L23
 617              	.LVL48:
 618              	.L25:
 619              		.loc 1 242 0
 620 001a 70BD     		pop	{r4, r5, r6, pc}
 621              		.cfi_endproc
 622              	.LFE253:
 623              		.size	chGuardedPoolLoadArray, .-chGuardedPoolLoadArray
 624              		.text
 625              	.Letext0:
 626              		.file 5 "/usr/lib/gcc/arm-none-eabi/4.9.3/include/stddef.h"
 627              		.file 6 "/usr/include/newlib/machine/_default_types.h"
ARM GAS  /tmp/ccR7GbWV.s 			page 12


 628              		.file 7 "/usr/include/newlib/sys/_stdint.h"
 629              		.file 8 "../../modules/ChibiOS/os/common/ports/ARMCMx/compilers/GCC/chtypes.h"
 630              		.file 9 "../../modules/ChibiOS/os/rt/include/chsystypes.h"
 631              		.file 10 "../../modules/ChibiOS/os/rt/include/chschd.h"
 632              		.file 11 "../../modules/ChibiOS/os/common/ports/ARMCMx/chcore.h"
 633              		.file 12 "../../modules/ChibiOS/os/common/ports/ARMCMx/chcore_v7m.h"
 634              		.file 13 "../../modules/ChibiOS/os/rt/include/chtm.h"
 635              		.file 14 "../../modules/ChibiOS/os/rt/include/chstats.h"
 636              		.file 15 "../../modules/ChibiOS/os/rt/include/chsem.h"
 637              		.file 16 "../../modules/ChibiOS/os/rt/include/chmtx.h"
 638              		.file 17 "../../modules/ChibiOS/os/common/oslib/include/chmemcore.h"
 639              		.file 18 "../../modules/ChibiOS/os/common/ext/CMSIS/include/core_cm4.h"
 640              		.section	.debug_info,"",%progbits
 641              	.Ldebug_info0:
 642 0000 5F110000 		.4byte	0x115f
 643 0004 0400     		.2byte	0x4
 644 0006 00000000 		.4byte	.Ldebug_abbrev0
 645 000a 04       		.byte	0x4
 646 000b 01       		.uleb128 0x1
 647 000c C7030000 		.4byte	.LASF143
 648 0010 01       		.byte	0x1
 649 0011 90060000 		.4byte	.LASF144
 650 0015 5E010000 		.4byte	.LASF145
 651 0019 30000000 		.4byte	.Ldebug_ranges0+0x30
 652 001d 00000000 		.4byte	0
 653 0021 00000000 		.4byte	.Ldebug_line0
 654 0025 02       		.uleb128 0x2
 655 0026 04       		.byte	0x4
 656 0027 05       		.byte	0x5
 657 0028 696E7400 		.ascii	"int\000"
 658 002c 03       		.uleb128 0x3
 659 002d 30000000 		.4byte	.LASF2
 660 0031 05       		.byte	0x5
 661 0032 D4       		.byte	0xd4
 662 0033 37000000 		.4byte	0x37
 663 0037 04       		.uleb128 0x4
 664 0038 04       		.byte	0x4
 665 0039 07       		.byte	0x7
 666 003a 4C020000 		.4byte	.LASF0
 667 003e 04       		.uleb128 0x4
 668 003f 01       		.byte	0x1
 669 0040 06       		.byte	0x6
 670 0041 46010000 		.4byte	.LASF1
 671 0045 03       		.uleb128 0x3
 672 0046 5A000000 		.4byte	.LASF3
 673 004a 06       		.byte	0x6
 674 004b 1D       		.byte	0x1d
 675 004c 50000000 		.4byte	0x50
 676 0050 04       		.uleb128 0x4
 677 0051 01       		.byte	0x1
 678 0052 08       		.byte	0x8
 679 0053 60050000 		.4byte	.LASF4
 680 0057 04       		.uleb128 0x4
 681 0058 02       		.byte	0x2
 682 0059 05       		.byte	0x5
 683 005a 6E050000 		.4byte	.LASF5
 684 005e 04       		.uleb128 0x4
ARM GAS  /tmp/ccR7GbWV.s 			page 13


 685 005f 02       		.byte	0x2
 686 0060 07       		.byte	0x7
 687 0061 A6020000 		.4byte	.LASF6
 688 0065 03       		.uleb128 0x3
 689 0066 53030000 		.4byte	.LASF7
 690 006a 06       		.byte	0x6
 691 006b 3F       		.byte	0x3f
 692 006c 70000000 		.4byte	0x70
 693 0070 04       		.uleb128 0x4
 694 0071 04       		.byte	0x4
 695 0072 05       		.byte	0x5
 696 0073 A8010000 		.4byte	.LASF8
 697 0077 03       		.uleb128 0x3
 698 0078 D6010000 		.4byte	.LASF9
 699 007c 06       		.byte	0x6
 700 007d 41       		.byte	0x41
 701 007e 82000000 		.4byte	0x82
 702 0082 04       		.uleb128 0x4
 703 0083 04       		.byte	0x4
 704 0084 07       		.byte	0x7
 705 0085 FA050000 		.4byte	.LASF10
 706 0089 04       		.uleb128 0x4
 707 008a 08       		.byte	0x8
 708 008b 05       		.byte	0x5
 709 008c 38010000 		.4byte	.LASF11
 710 0090 03       		.uleb128 0x3
 711 0091 0E050000 		.4byte	.LASF12
 712 0095 06       		.byte	0x6
 713 0096 5B       		.byte	0x5b
 714 0097 9B000000 		.4byte	0x9b
 715 009b 04       		.uleb128 0x4
 716 009c 08       		.byte	0x8
 717 009d 07       		.byte	0x7
 718 009e C1000000 		.4byte	.LASF13
 719 00a2 03       		.uleb128 0x3
 720 00a3 20070000 		.4byte	.LASF14
 721 00a7 07       		.byte	0x7
 722 00a8 14       		.byte	0x14
 723 00a9 45000000 		.4byte	0x45
 724 00ad 03       		.uleb128 0x3
 725 00ae 58050000 		.4byte	.LASF15
 726 00b2 07       		.byte	0x7
 727 00b3 1F       		.byte	0x1f
 728 00b4 65000000 		.4byte	0x65
 729 00b8 03       		.uleb128 0x3
 730 00b9 D4050000 		.4byte	.LASF16
 731 00bd 07       		.byte	0x7
 732 00be 20       		.byte	0x20
 733 00bf 77000000 		.4byte	0x77
 734 00c3 03       		.uleb128 0x3
 735 00c4 44000000 		.4byte	.LASF17
 736 00c8 07       		.byte	0x7
 737 00c9 26       		.byte	0x26
 738 00ca 90000000 		.4byte	0x90
 739 00ce 03       		.uleb128 0x3
 740 00cf C7060000 		.4byte	.LASF18
 741 00d3 08       		.byte	0x8
ARM GAS  /tmp/ccR7GbWV.s 			page 14


 742 00d4 39       		.byte	0x39
 743 00d5 B8000000 		.4byte	0xb8
 744 00d9 03       		.uleb128 0x3
 745 00da 2F010000 		.4byte	.LASF19
 746 00de 08       		.byte	0x8
 747 00df 3A       		.byte	0x3a
 748 00e0 C3000000 		.4byte	0xc3
 749 00e4 03       		.uleb128 0x3
 750 00e5 15030000 		.4byte	.LASF20
 751 00e9 08       		.byte	0x8
 752 00ea 3C       		.byte	0x3c
 753 00eb A2000000 		.4byte	0xa2
 754 00ef 03       		.uleb128 0x3
 755 00f0 B1010000 		.4byte	.LASF21
 756 00f4 08       		.byte	0x8
 757 00f5 3D       		.byte	0x3d
 758 00f6 A2000000 		.4byte	0xa2
 759 00fa 03       		.uleb128 0x3
 760 00fb 24050000 		.4byte	.LASF22
 761 00ff 08       		.byte	0x8
 762 0100 3E       		.byte	0x3e
 763 0101 A2000000 		.4byte	0xa2
 764 0105 03       		.uleb128 0x3
 765 0106 41050000 		.4byte	.LASF23
 766 010a 08       		.byte	0x8
 767 010b 40       		.byte	0x40
 768 010c B8000000 		.4byte	0xb8
 769 0110 03       		.uleb128 0x3
 770 0111 D7020000 		.4byte	.LASF24
 771 0115 08       		.byte	0x8
 772 0116 41       		.byte	0x41
 773 0117 AD000000 		.4byte	0xad
 774 011b 03       		.uleb128 0x3
 775 011c 47030000 		.4byte	.LASF25
 776 0120 08       		.byte	0x8
 777 0121 43       		.byte	0x43
 778 0122 B8000000 		.4byte	0xb8
 779 0126 03       		.uleb128 0x3
 780 0127 46020000 		.4byte	.LASF26
 781 012b 08       		.byte	0x8
 782 012c 45       		.byte	0x45
 783 012d AD000000 		.4byte	0xad
 784 0131 03       		.uleb128 0x3
 785 0132 EF020000 		.4byte	.LASF27
 786 0136 08       		.byte	0x8
 787 0137 46       		.byte	0x46
 788 0138 B8000000 		.4byte	0xb8
 789 013c 03       		.uleb128 0x3
 790 013d 3E060000 		.4byte	.LASF28
 791 0141 09       		.byte	0x9
 792 0142 33       		.byte	0x33
 793 0143 B8000000 		.4byte	0xb8
 794 0147 03       		.uleb128 0x3
 795 0148 30060000 		.4byte	.LASF29
 796 014c 09       		.byte	0x9
 797 014d 3F       		.byte	0x3f
 798 014e 52010000 		.4byte	0x152
ARM GAS  /tmp/ccR7GbWV.s 			page 15


 799 0152 05       		.uleb128 0x5
 800 0153 CD020000 		.4byte	.LASF48
 801 0157 60       		.byte	0x60
 802 0158 0A       		.byte	0xa
 803 0159 9A       		.byte	0x9a
 804 015a 3D020000 		.4byte	0x23d
 805 015e 06       		.uleb128 0x6
 806 015f 9A020000 		.4byte	.LASF30
 807 0163 0A       		.byte	0xa
 808 0164 9B       		.byte	0x9b
 809 0165 72020000 		.4byte	0x272
 810 0169 00       		.byte	0
 811 016a 06       		.uleb128 0x6
 812 016b FC040000 		.4byte	.LASF31
 813 016f 0A       		.byte	0xa
 814 0170 9C       		.byte	0x9c
 815 0171 05010000 		.4byte	0x105
 816 0175 08       		.byte	0x8
 817 0176 07       		.uleb128 0x7
 818 0177 63747800 		.ascii	"ctx\000"
 819 017b 0A       		.byte	0xa
 820 017c 9D       		.byte	0x9d
 821 017d 77040000 		.4byte	0x477
 822 0181 0C       		.byte	0xc
 823 0182 06       		.uleb128 0x6
 824 0183 68030000 		.4byte	.LASF32
 825 0187 0A       		.byte	0xa
 826 0188 9F       		.byte	0x9f
 827 0189 48020000 		.4byte	0x248
 828 018d 10       		.byte	0x10
 829 018e 06       		.uleb128 0x6
 830 018f 18060000 		.4byte	.LASF33
 831 0193 0A       		.byte	0xa
 832 0194 A0       		.byte	0xa0
 833 0195 48020000 		.4byte	0x248
 834 0199 14       		.byte	0x14
 835 019a 06       		.uleb128 0x6
 836 019b C8020000 		.4byte	.LASF34
 837 019f 0A       		.byte	0xa
 838 01a0 A7       		.byte	0xa7
 839 01a1 5E070000 		.4byte	0x75e
 840 01a5 18       		.byte	0x18
 841 01a6 06       		.uleb128 0x6
 842 01a7 0C060000 		.4byte	.LASF35
 843 01ab 0A       		.byte	0xa
 844 01ac B0       		.byte	0xb0
 845 01ad 70070000 		.4byte	0x770
 846 01b1 1C       		.byte	0x1c
 847 01b2 06       		.uleb128 0x6
 848 01b3 A2010000 		.4byte	.LASF36
 849 01b7 0A       		.byte	0xa
 850 01b8 B5       		.byte	0xb5
 851 01b9 EF000000 		.4byte	0xef
 852 01bd 20       		.byte	0x20
 853 01be 06       		.uleb128 0x6
 854 01bf 3F070000 		.4byte	.LASF37
 855 01c3 0A       		.byte	0xa
ARM GAS  /tmp/ccR7GbWV.s 			page 16


 856 01c4 B9       		.byte	0xb9
 857 01c5 E4000000 		.4byte	0xe4
 858 01c9 21       		.byte	0x21
 859 01ca 06       		.uleb128 0x6
 860 01cb 2C050000 		.4byte	.LASF38
 861 01cf 0A       		.byte	0xa
 862 01d0 BE       		.byte	0xbe
 863 01d1 FA000000 		.4byte	0xfa
 864 01d5 22       		.byte	0x22
 865 01d6 08       		.uleb128 0x8
 866 01d7 7500     		.ascii	"u\000"
 867 01d9 0A       		.byte	0xa
 868 01da 0F01     		.2byte	0x10f
 869 01dc 93060000 		.4byte	0x693
 870 01e0 24       		.byte	0x24
 871 01e1 09       		.uleb128 0x9
 872 01e2 06020000 		.4byte	.LASF39
 873 01e6 0A       		.byte	0xa
 874 01e7 1401     		.2byte	0x114
 875 01e9 4E020000 		.4byte	0x24e
 876 01ed 28       		.byte	0x28
 877 01ee 09       		.uleb128 0x9
 878 01ef 99010000 		.4byte	.LASF40
 879 01f3 0A       		.byte	0xa
 880 01f4 1A01     		.2byte	0x11a
 881 01f6 72020000 		.4byte	0x272
 882 01fa 2C       		.byte	0x2c
 883 01fb 09       		.uleb128 0x9
 884 01fc F6020000 		.4byte	.LASF41
 885 0200 0A       		.byte	0xa
 886 0201 2001     		.2byte	0x120
 887 0203 1B010000 		.4byte	0x11b
 888 0207 34       		.byte	0x34
 889 0208 09       		.uleb128 0x9
 890 0209 95070000 		.4byte	.LASF42
 891 020d 0A       		.byte	0xa
 892 020e 2701     		.2byte	0x127
 893 0210 58070000 		.4byte	0x758
 894 0214 38       		.byte	0x38
 895 0215 09       		.uleb128 0x9
 896 0216 6E030000 		.4byte	.LASF43
 897 021a 0A       		.byte	0xa
 898 021b 2B01     		.2byte	0x12b
 899 021d 05010000 		.4byte	0x105
 900 0221 3C       		.byte	0x3c
 901 0222 09       		.uleb128 0x9
 902 0223 A0020000 		.4byte	.LASF44
 903 0227 0A       		.byte	0xa
 904 0228 3201     		.2byte	0x132
 905 022a 25030000 		.4byte	0x325
 906 022e 40       		.byte	0x40
 907 022f 09       		.uleb128 0x9
 908 0230 BF010000 		.4byte	.LASF45
 909 0234 0A       		.byte	0xa
 910 0235 3801     		.2byte	0x138
 911 0237 44060000 		.4byte	0x644
 912 023b 48       		.byte	0x48
ARM GAS  /tmp/ccR7GbWV.s 			page 17


 913 023c 00       		.byte	0
 914 023d 03       		.uleb128 0x3
 915 023e 9D030000 		.4byte	.LASF46
 916 0242 09       		.byte	0x9
 917 0243 44       		.byte	0x44
 918 0244 48020000 		.4byte	0x248
 919 0248 0A       		.uleb128 0xa
 920 0249 04       		.byte	0x4
 921 024a 47010000 		.4byte	0x147
 922 024e 03       		.uleb128 0x3
 923 024f 6A070000 		.4byte	.LASF47
 924 0253 09       		.byte	0x9
 925 0254 49       		.byte	0x49
 926 0255 59020000 		.4byte	0x259
 927 0259 05       		.uleb128 0x5
 928 025a E4050000 		.4byte	.LASF49
 929 025e 04       		.byte	0x4
 930 025f 0A       		.byte	0xa
 931 0260 88       		.byte	0x88
 932 0261 72020000 		.4byte	0x272
 933 0265 06       		.uleb128 0x6
 934 0266 2A010000 		.4byte	.LASF50
 935 026a 0A       		.byte	0xa
 936 026b 89       		.byte	0x89
 937 026c 48020000 		.4byte	0x248
 938 0270 00       		.byte	0
 939 0271 00       		.byte	0
 940 0272 03       		.uleb128 0x3
 941 0273 F9060000 		.4byte	.LASF51
 942 0277 09       		.byte	0x9
 943 0278 50       		.byte	0x50
 944 0279 7D020000 		.4byte	0x27d
 945 027d 05       		.uleb128 0x5
 946 027e 75000000 		.4byte	.LASF52
 947 0282 08       		.byte	0x8
 948 0283 0A       		.byte	0xa
 949 0284 8F       		.byte	0x8f
 950 0285 A2020000 		.4byte	0x2a2
 951 0289 06       		.uleb128 0x6
 952 028a 2A010000 		.4byte	.LASF50
 953 028e 0A       		.byte	0xa
 954 028f 90       		.byte	0x90
 955 0290 48020000 		.4byte	0x248
 956 0294 00       		.byte	0
 957 0295 06       		.uleb128 0x6
 958 0296 64000000 		.4byte	.LASF53
 959 029a 0A       		.byte	0xa
 960 029b 91       		.byte	0x91
 961 029c 48020000 		.4byte	0x248
 962 02a0 04       		.byte	0x4
 963 02a1 00       		.byte	0
 964 02a2 03       		.uleb128 0x3
 965 02a3 16000000 		.4byte	.LASF54
 966 02a7 09       		.byte	0x9
 967 02a8 57       		.byte	0x57
 968 02a9 AD020000 		.4byte	0x2ad
 969 02ad 0B       		.uleb128 0xb
ARM GAS  /tmp/ccR7GbWV.s 			page 18


 970 02ae 39030000 		.4byte	.LASF55
 971 02b2 1C       		.byte	0x1c
 972 02b3 0A       		.byte	0xa
 973 02b4 6A01     		.2byte	0x16a
 974 02b6 09030000 		.4byte	0x309
 975 02ba 09       		.uleb128 0x9
 976 02bb 9A020000 		.4byte	.LASF30
 977 02bf 0A       		.byte	0xa
 978 02c0 6B01     		.2byte	0x16b
 979 02c2 72020000 		.4byte	0x272
 980 02c6 00       		.byte	0
 981 02c7 09       		.uleb128 0x9
 982 02c8 FC040000 		.4byte	.LASF31
 983 02cc 0A       		.byte	0xa
 984 02cd 6C01     		.2byte	0x16c
 985 02cf 05010000 		.4byte	0x105
 986 02d3 08       		.byte	0x8
 987 02d4 08       		.uleb128 0x8
 988 02d5 63747800 		.ascii	"ctx\000"
 989 02d9 0A       		.byte	0xa
 990 02da 6E01     		.2byte	0x16e
 991 02dc 77040000 		.4byte	0x477
 992 02e0 0C       		.byte	0xc
 993 02e1 09       		.uleb128 0x9
 994 02e2 68030000 		.4byte	.LASF32
 995 02e6 0A       		.byte	0xa
 996 02e7 7101     		.2byte	0x171
 997 02e9 48020000 		.4byte	0x248
 998 02ed 10       		.byte	0x10
 999 02ee 09       		.uleb128 0x9
 1000 02ef 18060000 		.4byte	.LASF33
 1001 02f3 0A       		.byte	0xa
 1002 02f4 7201     		.2byte	0x172
 1003 02f6 48020000 		.4byte	0x248
 1004 02fa 14       		.byte	0x14
 1005 02fb 09       		.uleb128 0x9
 1006 02fc 01050000 		.4byte	.LASF56
 1007 0300 0A       		.byte	0xa
 1008 0301 7501     		.2byte	0x175
 1009 0303 48020000 		.4byte	0x248
 1010 0307 18       		.byte	0x18
 1011 0308 00       		.byte	0
 1012 0309 03       		.uleb128 0x3
 1013 030a 48060000 		.4byte	.LASF57
 1014 030e 09       		.byte	0x9
 1015 030f 5C       		.byte	0x5c
 1016 0310 14030000 		.4byte	0x314
 1017 0314 0A       		.uleb128 0xa
 1018 0315 04       		.byte	0x4
 1019 0316 1A030000 		.4byte	0x31a
 1020 031a 0C       		.uleb128 0xc
 1021 031b 25030000 		.4byte	0x325
 1022 031f 0D       		.uleb128 0xd
 1023 0320 25030000 		.4byte	0x325
 1024 0324 00       		.byte	0
 1025 0325 0E       		.uleb128 0xe
 1026 0326 04       		.byte	0x4
ARM GAS  /tmp/ccR7GbWV.s 			page 19


 1027 0327 03       		.uleb128 0x3
 1028 0328 31050000 		.4byte	.LASF58
 1029 032c 09       		.byte	0x9
 1030 032d 61       		.byte	0x61
 1031 032e 32030000 		.4byte	0x332
 1032 0332 0B       		.uleb128 0xb
 1033 0333 B6050000 		.4byte	.LASF59
 1034 0337 14       		.byte	0x14
 1035 0338 0A       		.byte	0xa
 1036 0339 4501     		.2byte	0x145
 1037 033b 81030000 		.4byte	0x381
 1038 033f 09       		.uleb128 0x9
 1039 0340 2A010000 		.4byte	.LASF50
 1040 0344 0A       		.byte	0xa
 1041 0345 4601     		.2byte	0x146
 1042 0347 76070000 		.4byte	0x776
 1043 034b 00       		.byte	0
 1044 034c 09       		.uleb128 0x9
 1045 034d 64000000 		.4byte	.LASF53
 1046 0351 0A       		.byte	0xa
 1047 0352 4701     		.2byte	0x147
 1048 0354 76070000 		.4byte	0x776
 1049 0358 04       		.byte	0x4
 1050 0359 09       		.uleb128 0x9
 1051 035a 37000000 		.4byte	.LASF60
 1052 035e 0A       		.byte	0xa
 1053 035f 4801     		.2byte	0x148
 1054 0361 3C010000 		.4byte	0x13c
 1055 0365 08       		.byte	0x8
 1056 0366 09       		.uleb128 0x9
 1057 0367 BA010000 		.4byte	.LASF61
 1058 036b 0A       		.byte	0xa
 1059 036c 4901     		.2byte	0x149
 1060 036e 09030000 		.4byte	0x309
 1061 0372 0C       		.byte	0xc
 1062 0373 08       		.uleb128 0x8
 1063 0374 70617200 		.ascii	"par\000"
 1064 0378 0A       		.byte	0xa
 1065 0379 4B01     		.2byte	0x14b
 1066 037b 25030000 		.4byte	0x325
 1067 037f 10       		.byte	0x10
 1068 0380 00       		.byte	0
 1069 0381 03       		.uleb128 0x3
 1070 0382 07010000 		.4byte	.LASF62
 1071 0386 09       		.byte	0x9
 1072 0387 66       		.byte	0x66
 1073 0388 8C030000 		.4byte	0x38c
 1074 038c 0B       		.uleb128 0xb
 1075 038d B0030000 		.4byte	.LASF63
 1076 0391 10       		.byte	0x10
 1077 0392 0A       		.byte	0xa
 1078 0393 5501     		.2byte	0x155
 1079 0395 CE030000 		.4byte	0x3ce
 1080 0399 09       		.uleb128 0x9
 1081 039a 2A010000 		.4byte	.LASF50
 1082 039e 0A       		.byte	0xa
 1083 039f 5601     		.2byte	0x156
ARM GAS  /tmp/ccR7GbWV.s 			page 20


 1084 03a1 76070000 		.4byte	0x776
 1085 03a5 00       		.byte	0
 1086 03a6 09       		.uleb128 0x9
 1087 03a7 64000000 		.4byte	.LASF53
 1088 03ab 0A       		.byte	0xa
 1089 03ac 5801     		.2byte	0x158
 1090 03ae 76070000 		.4byte	0x776
 1091 03b2 04       		.byte	0x4
 1092 03b3 09       		.uleb128 0x9
 1093 03b4 37000000 		.4byte	.LASF60
 1094 03b8 0A       		.byte	0xa
 1095 03b9 5A01     		.2byte	0x15a
 1096 03bb 3C010000 		.4byte	0x13c
 1097 03bf 08       		.byte	0x8
 1098 03c0 09       		.uleb128 0x9
 1099 03c1 78050000 		.4byte	.LASF64
 1100 03c5 0A       		.byte	0xa
 1101 03c6 6201     		.2byte	0x162
 1102 03c8 3C010000 		.4byte	0x13c
 1103 03cc 0C       		.byte	0xc
 1104 03cd 00       		.byte	0
 1105 03ce 03       		.uleb128 0x3
 1106 03cf 86000000 		.4byte	.LASF65
 1107 03d3 09       		.byte	0x9
 1108 03d4 6B       		.byte	0x6b
 1109 03d5 D9030000 		.4byte	0x3d9
 1110 03d9 0B       		.uleb128 0xb
 1111 03da F6010000 		.4byte	.LASF66
 1112 03de 04       		.byte	0x4
 1113 03df 0A       		.byte	0xa
 1114 03e0 7C01     		.2byte	0x17c
 1115 03e2 F4030000 		.4byte	0x3f4
 1116 03e6 09       		.uleb128 0x9
 1117 03e7 5F060000 		.4byte	.LASF67
 1118 03eb 0A       		.byte	0xa
 1119 03ec 8401     		.2byte	0x184
 1120 03ee 7C070000 		.4byte	0x77c
 1121 03f2 00       		.byte	0
 1122 03f3 00       		.byte	0
 1123 03f4 03       		.uleb128 0x3
 1124 03f5 FF020000 		.4byte	.LASF68
 1125 03f9 09       		.byte	0x9
 1126 03fa 70       		.byte	0x70
 1127 03fb FF030000 		.4byte	0x3ff
 1128 03ff 0B       		.uleb128 0xb
 1129 0400 88050000 		.4byte	.LASF69
 1130 0404 D0       		.byte	0xd0
 1131 0405 0A       		.byte	0xa
 1132 0406 9C01     		.2byte	0x19c
 1133 0408 5A040000 		.4byte	0x45a
 1134 040c 09       		.uleb128 0x9
 1135 040d 15070000 		.4byte	.LASF70
 1136 0411 0A       		.byte	0xa
 1137 0412 A001     		.2byte	0x1a0
 1138 0414 A2020000 		.4byte	0x2a2
 1139 0418 00       		.byte	0
 1140 0419 09       		.uleb128 0x9
ARM GAS  /tmp/ccR7GbWV.s 			page 21


 1141 041a 57010000 		.4byte	.LASF71
 1142 041e 0A       		.byte	0xa
 1143 041f A401     		.2byte	0x1a4
 1144 0421 81030000 		.4byte	0x381
 1145 0425 1C       		.byte	0x1c
 1146 0426 08       		.uleb128 0x8
 1147 0427 64626700 		.ascii	"dbg\000"
 1148 042b 0A       		.byte	0xa
 1149 042c A801     		.2byte	0x1a8
 1150 042e CE030000 		.4byte	0x3ce
 1151 0432 2C       		.byte	0x2c
 1152 0433 09       		.uleb128 0x9
 1153 0434 F4000000 		.4byte	.LASF72
 1154 0438 0A       		.byte	0xa
 1155 0439 AC01     		.2byte	0x1ac
 1156 043b 47010000 		.4byte	0x147
 1157 043f 30       		.byte	0x30
 1158 0440 08       		.uleb128 0x8
 1159 0441 746D00   		.ascii	"tm\000"
 1160 0444 0A       		.byte	0xa
 1161 0445 B101     		.2byte	0x1b1
 1162 0447 F6050000 		.4byte	0x5f6
 1163 044b 90       		.byte	0x90
 1164 044c 09       		.uleb128 0x9
 1165 044d 4D000000 		.4byte	.LASF73
 1166 0451 0A       		.byte	0xa
 1167 0452 B701     		.2byte	0x1b7
 1168 0454 88060000 		.4byte	0x688
 1169 0458 98       		.byte	0x98
 1170 0459 00       		.byte	0
 1171 045a 04       		.uleb128 0x4
 1172 045b 04       		.byte	0x4
 1173 045c 07       		.byte	0x7
 1174 045d 94030000 		.4byte	.LASF74
 1175 0461 03       		.uleb128 0x3
 1176 0462 E1010000 		.4byte	.LASF75
 1177 0466 0B       		.byte	0xb
 1178 0467 65       		.byte	0x65
 1179 0468 25030000 		.4byte	0x325
 1180 046c 03       		.uleb128 0x3
 1181 046d 5D030000 		.4byte	.LASF76
 1182 0471 0B       		.byte	0xb
 1183 0472 6D       		.byte	0x6d
 1184 0473 C3000000 		.4byte	0xc3
 1185 0477 05       		.uleb128 0x5
 1186 0478 C3040000 		.4byte	.LASF77
 1187 047c 04       		.byte	0x4
 1188 047d 0B       		.byte	0xb
 1189 047e 89       		.byte	0x89
 1190 047f 8F040000 		.4byte	0x48f
 1191 0483 07       		.uleb128 0x7
 1192 0484 737000   		.ascii	"sp\000"
 1193 0487 0B       		.byte	0xb
 1194 0488 8A       		.byte	0x8a
 1195 0489 DB050000 		.4byte	0x5db
 1196 048d 00       		.byte	0
 1197 048e 00       		.byte	0
ARM GAS  /tmp/ccR7GbWV.s 			page 22


 1198 048f 0B       		.uleb128 0xb
 1199 0490 69000000 		.4byte	.LASF78
 1200 0494 64       		.byte	0x64
 1201 0495 0C       		.byte	0xc
 1202 0496 5901     		.2byte	0x159
 1203 0498 DB050000 		.4byte	0x5db
 1204 049c 08       		.uleb128 0x8
 1205 049d 73313600 		.ascii	"s16\000"
 1206 04a1 0C       		.byte	0xc
 1207 04a2 5B01     		.2byte	0x15b
 1208 04a4 61040000 		.4byte	0x461
 1209 04a8 00       		.byte	0
 1210 04a9 08       		.uleb128 0x8
 1211 04aa 73313700 		.ascii	"s17\000"
 1212 04ae 0C       		.byte	0xc
 1213 04af 5C01     		.2byte	0x15c
 1214 04b1 61040000 		.4byte	0x461
 1215 04b5 04       		.byte	0x4
 1216 04b6 08       		.uleb128 0x8
 1217 04b7 73313800 		.ascii	"s18\000"
 1218 04bb 0C       		.byte	0xc
 1219 04bc 5D01     		.2byte	0x15d
 1220 04be 61040000 		.4byte	0x461
 1221 04c2 08       		.byte	0x8
 1222 04c3 08       		.uleb128 0x8
 1223 04c4 73313900 		.ascii	"s19\000"
 1224 04c8 0C       		.byte	0xc
 1225 04c9 5E01     		.2byte	0x15e
 1226 04cb 61040000 		.4byte	0x461
 1227 04cf 0C       		.byte	0xc
 1228 04d0 08       		.uleb128 0x8
 1229 04d1 73323000 		.ascii	"s20\000"
 1230 04d5 0C       		.byte	0xc
 1231 04d6 5F01     		.2byte	0x15f
 1232 04d8 61040000 		.4byte	0x461
 1233 04dc 10       		.byte	0x10
 1234 04dd 08       		.uleb128 0x8
 1235 04de 73323100 		.ascii	"s21\000"
 1236 04e2 0C       		.byte	0xc
 1237 04e3 6001     		.2byte	0x160
 1238 04e5 61040000 		.4byte	0x461
 1239 04e9 14       		.byte	0x14
 1240 04ea 08       		.uleb128 0x8
 1241 04eb 73323200 		.ascii	"s22\000"
 1242 04ef 0C       		.byte	0xc
 1243 04f0 6101     		.2byte	0x161
 1244 04f2 61040000 		.4byte	0x461
 1245 04f6 18       		.byte	0x18
 1246 04f7 08       		.uleb128 0x8
 1247 04f8 73323300 		.ascii	"s23\000"
 1248 04fc 0C       		.byte	0xc
 1249 04fd 6201     		.2byte	0x162
 1250 04ff 61040000 		.4byte	0x461
 1251 0503 1C       		.byte	0x1c
 1252 0504 08       		.uleb128 0x8
 1253 0505 73323400 		.ascii	"s24\000"
 1254 0509 0C       		.byte	0xc
ARM GAS  /tmp/ccR7GbWV.s 			page 23


 1255 050a 6301     		.2byte	0x163
 1256 050c 61040000 		.4byte	0x461
 1257 0510 20       		.byte	0x20
 1258 0511 08       		.uleb128 0x8
 1259 0512 73323500 		.ascii	"s25\000"
 1260 0516 0C       		.byte	0xc
 1261 0517 6401     		.2byte	0x164
 1262 0519 61040000 		.4byte	0x461
 1263 051d 24       		.byte	0x24
 1264 051e 08       		.uleb128 0x8
 1265 051f 73323600 		.ascii	"s26\000"
 1266 0523 0C       		.byte	0xc
 1267 0524 6501     		.2byte	0x165
 1268 0526 61040000 		.4byte	0x461
 1269 052a 28       		.byte	0x28
 1270 052b 08       		.uleb128 0x8
 1271 052c 73323700 		.ascii	"s27\000"
 1272 0530 0C       		.byte	0xc
 1273 0531 6601     		.2byte	0x166
 1274 0533 61040000 		.4byte	0x461
 1275 0537 2C       		.byte	0x2c
 1276 0538 08       		.uleb128 0x8
 1277 0539 73323800 		.ascii	"s28\000"
 1278 053d 0C       		.byte	0xc
 1279 053e 6701     		.2byte	0x167
 1280 0540 61040000 		.4byte	0x461
 1281 0544 30       		.byte	0x30
 1282 0545 08       		.uleb128 0x8
 1283 0546 73323900 		.ascii	"s29\000"
 1284 054a 0C       		.byte	0xc
 1285 054b 6801     		.2byte	0x168
 1286 054d 61040000 		.4byte	0x461
 1287 0551 34       		.byte	0x34
 1288 0552 08       		.uleb128 0x8
 1289 0553 73333000 		.ascii	"s30\000"
 1290 0557 0C       		.byte	0xc
 1291 0558 6901     		.2byte	0x169
 1292 055a 61040000 		.4byte	0x461
 1293 055e 38       		.byte	0x38
 1294 055f 08       		.uleb128 0x8
 1295 0560 73333100 		.ascii	"s31\000"
 1296 0564 0C       		.byte	0xc
 1297 0565 6A01     		.2byte	0x16a
 1298 0567 61040000 		.4byte	0x461
 1299 056b 3C       		.byte	0x3c
 1300 056c 08       		.uleb128 0x8
 1301 056d 723400   		.ascii	"r4\000"
 1302 0570 0C       		.byte	0xc
 1303 0571 6C01     		.2byte	0x16c
 1304 0573 61040000 		.4byte	0x461
 1305 0577 40       		.byte	0x40
 1306 0578 08       		.uleb128 0x8
 1307 0579 723500   		.ascii	"r5\000"
 1308 057c 0C       		.byte	0xc
 1309 057d 6D01     		.2byte	0x16d
 1310 057f 61040000 		.4byte	0x461
 1311 0583 44       		.byte	0x44
ARM GAS  /tmp/ccR7GbWV.s 			page 24


 1312 0584 08       		.uleb128 0x8
 1313 0585 723600   		.ascii	"r6\000"
 1314 0588 0C       		.byte	0xc
 1315 0589 6E01     		.2byte	0x16e
 1316 058b 61040000 		.4byte	0x461
 1317 058f 48       		.byte	0x48
 1318 0590 08       		.uleb128 0x8
 1319 0591 723700   		.ascii	"r7\000"
 1320 0594 0C       		.byte	0xc
 1321 0595 6F01     		.2byte	0x16f
 1322 0597 61040000 		.4byte	0x461
 1323 059b 4C       		.byte	0x4c
 1324 059c 08       		.uleb128 0x8
 1325 059d 723800   		.ascii	"r8\000"
 1326 05a0 0C       		.byte	0xc
 1327 05a1 7001     		.2byte	0x170
 1328 05a3 61040000 		.4byte	0x461
 1329 05a7 50       		.byte	0x50
 1330 05a8 08       		.uleb128 0x8
 1331 05a9 723900   		.ascii	"r9\000"
 1332 05ac 0C       		.byte	0xc
 1333 05ad 7101     		.2byte	0x171
 1334 05af 61040000 		.4byte	0x461
 1335 05b3 54       		.byte	0x54
 1336 05b4 08       		.uleb128 0x8
 1337 05b5 72313000 		.ascii	"r10\000"
 1338 05b9 0C       		.byte	0xc
 1339 05ba 7201     		.2byte	0x172
 1340 05bc 61040000 		.4byte	0x461
 1341 05c0 58       		.byte	0x58
 1342 05c1 08       		.uleb128 0x8
 1343 05c2 72313100 		.ascii	"r11\000"
 1344 05c6 0C       		.byte	0xc
 1345 05c7 7301     		.2byte	0x173
 1346 05c9 61040000 		.4byte	0x461
 1347 05cd 5C       		.byte	0x5c
 1348 05ce 08       		.uleb128 0x8
 1349 05cf 6C7200   		.ascii	"lr\000"
 1350 05d2 0C       		.byte	0xc
 1351 05d3 7401     		.2byte	0x174
 1352 05d5 61040000 		.4byte	0x461
 1353 05d9 60       		.byte	0x60
 1354 05da 00       		.byte	0
 1355 05db 0A       		.uleb128 0xa
 1356 05dc 04       		.byte	0x4
 1357 05dd 8F040000 		.4byte	0x48f
 1358 05e1 0F       		.uleb128 0xf
 1359 05e2 04       		.byte	0x4
 1360 05e3 0D       		.byte	0xd
 1361 05e4 38       		.byte	0x38
 1362 05e5 F6050000 		.4byte	0x5f6
 1363 05e9 06       		.uleb128 0x6
 1364 05ea 69060000 		.4byte	.LASF79
 1365 05ee 0D       		.byte	0xd
 1366 05ef 3C       		.byte	0x3c
 1367 05f0 CE000000 		.4byte	0xce
 1368 05f4 00       		.byte	0
ARM GAS  /tmp/ccR7GbWV.s 			page 25


 1369 05f5 00       		.byte	0
 1370 05f6 03       		.uleb128 0x3
 1371 05f7 D0040000 		.4byte	.LASF80
 1372 05fb 0D       		.byte	0xd
 1373 05fc 3D       		.byte	0x3d
 1374 05fd E1050000 		.4byte	0x5e1
 1375 0601 0F       		.uleb128 0xf
 1376 0602 18       		.byte	0x18
 1377 0603 0D       		.byte	0xd
 1378 0604 48       		.byte	0x48
 1379 0605 44060000 		.4byte	0x644
 1380 0609 06       		.uleb128 0x6
 1381 060a 39060000 		.4byte	.LASF81
 1382 060e 0D       		.byte	0xd
 1383 060f 49       		.byte	0x49
 1384 0610 CE000000 		.4byte	0xce
 1385 0614 00       		.byte	0
 1386 0615 06       		.uleb128 0x6
 1387 0616 A8000000 		.4byte	.LASF82
 1388 061a 0D       		.byte	0xd
 1389 061b 4A       		.byte	0x4a
 1390 061c CE000000 		.4byte	0xce
 1391 0620 04       		.byte	0x4
 1392 0621 06       		.uleb128 0x6
 1393 0622 09050000 		.4byte	.LASF83
 1394 0626 0D       		.byte	0xd
 1395 0627 4B       		.byte	0x4b
 1396 0628 CE000000 		.4byte	0xce
 1397 062c 08       		.byte	0x8
 1398 062d 07       		.uleb128 0x7
 1399 062e 6E00     		.ascii	"n\000"
 1400 0630 0D       		.byte	0xd
 1401 0631 4C       		.byte	0x4c
 1402 0632 31010000 		.4byte	0x131
 1403 0636 0C       		.byte	0xc
 1404 0637 06       		.uleb128 0x6
 1405 0638 19050000 		.4byte	.LASF84
 1406 063c 0D       		.byte	0xd
 1407 063d 4D       		.byte	0x4d
 1408 063e D9000000 		.4byte	0xd9
 1409 0642 10       		.byte	0x10
 1410 0643 00       		.byte	0
 1411 0644 03       		.uleb128 0x3
 1412 0645 AE000000 		.4byte	.LASF85
 1413 0649 0D       		.byte	0xd
 1414 064a 4E       		.byte	0x4e
 1415 064b 01060000 		.4byte	0x601
 1416 064f 0F       		.uleb128 0xf
 1417 0650 38       		.byte	0x38
 1418 0651 0E       		.byte	0xe
 1419 0652 38       		.byte	0x38
 1420 0653 88060000 		.4byte	0x688
 1421 0657 06       		.uleb128 0x6
 1422 0658 94020000 		.4byte	.LASF86
 1423 065c 0E       		.byte	0xe
 1424 065d 39       		.byte	0x39
 1425 065e 31010000 		.4byte	0x131
ARM GAS  /tmp/ccR7GbWV.s 			page 26


 1426 0662 00       		.byte	0
 1427 0663 06       		.uleb128 0x6
 1428 0664 49050000 		.4byte	.LASF87
 1429 0668 0E       		.byte	0xe
 1430 0669 3A       		.byte	0x3a
 1431 066a 31010000 		.4byte	0x131
 1432 066e 04       		.byte	0x4
 1433 066f 06       		.uleb128 0x6
 1434 0670 9D070000 		.4byte	.LASF88
 1435 0674 0E       		.byte	0xe
 1436 0675 3B       		.byte	0x3b
 1437 0676 44060000 		.4byte	0x644
 1438 067a 08       		.byte	0x8
 1439 067b 06       		.uleb128 0x6
 1440 067c 2E030000 		.4byte	.LASF89
 1441 0680 0E       		.byte	0xe
 1442 0681 3D       		.byte	0x3d
 1443 0682 44060000 		.4byte	0x644
 1444 0686 20       		.byte	0x20
 1445 0687 00       		.byte	0
 1446 0688 03       		.uleb128 0x3
 1447 0689 B9020000 		.4byte	.LASF90
 1448 068d 0E       		.byte	0xe
 1449 068e 3F       		.byte	0x3f
 1450 068f 4F060000 		.4byte	0x64f
 1451 0693 10       		.uleb128 0x10
 1452 0694 04       		.byte	0x4
 1453 0695 0A       		.byte	0xa
 1454 0696 D2       		.byte	0xd2
 1455 0697 F6060000 		.4byte	0x6f6
 1456 069b 11       		.uleb128 0x11
 1457 069c 3D000000 		.4byte	.LASF91
 1458 06a0 0A       		.byte	0xa
 1459 06a1 D9       		.byte	0xd9
 1460 06a2 10010000 		.4byte	0x110
 1461 06a6 11       		.uleb128 0x11
 1462 06a7 EB000000 		.4byte	.LASF92
 1463 06ab 0A       		.byte	0xa
 1464 06ac E0       		.byte	0xe0
 1465 06ad 10010000 		.4byte	0x110
 1466 06b1 11       		.uleb128 0x11
 1467 06b2 63070000 		.4byte	.LASF93
 1468 06b6 0A       		.byte	0xa
 1469 06b7 E7       		.byte	0xe7
 1470 06b8 25030000 		.4byte	0x325
 1471 06bc 11       		.uleb128 0x11
 1472 06bd 78020000 		.4byte	.LASF94
 1473 06c1 0A       		.byte	0xa
 1474 06c2 EE       		.byte	0xee
 1475 06c3 F6060000 		.4byte	0x6f6
 1476 06c7 11       		.uleb128 0x11
 1477 06c8 FF000000 		.4byte	.LASF95
 1478 06cc 0A       		.byte	0xa
 1479 06cd F3       		.byte	0xf3
 1480 06ce 10010000 		.4byte	0x110
 1481 06d2 11       		.uleb128 0x11
 1482 06d3 71020000 		.4byte	.LASF96
ARM GAS  /tmp/ccR7GbWV.s 			page 27


 1483 06d7 0A       		.byte	0xa
 1484 06d8 FC       		.byte	0xfc
 1485 06d9 21070000 		.4byte	0x721
 1486 06dd 12       		.uleb128 0x12
 1487 06de DD050000 		.4byte	.LASF97
 1488 06e2 0A       		.byte	0xa
 1489 06e3 0501     		.2byte	0x105
 1490 06e5 58070000 		.4byte	0x758
 1491 06e9 12       		.uleb128 0x12
 1492 06ea 81050000 		.4byte	.LASF98
 1493 06ee 0A       		.byte	0xa
 1494 06ef 0D01     		.2byte	0x10d
 1495 06f1 1B010000 		.4byte	0x11b
 1496 06f5 00       		.byte	0
 1497 06f6 0A       		.uleb128 0xa
 1498 06f7 04       		.byte	0x4
 1499 06f8 3D020000 		.4byte	0x23d
 1500 06fc 05       		.uleb128 0x5
 1501 06fd C7050000 		.4byte	.LASF99
 1502 0701 0C       		.byte	0xc
 1503 0702 0F       		.byte	0xf
 1504 0703 34       		.byte	0x34
 1505 0704 21070000 		.4byte	0x721
 1506 0708 06       		.uleb128 0x6
 1507 0709 9A020000 		.4byte	.LASF30
 1508 070d 0F       		.byte	0xf
 1509 070e 35       		.byte	0x35
 1510 070f 72020000 		.4byte	0x272
 1511 0713 00       		.byte	0
 1512 0714 07       		.uleb128 0x7
 1513 0715 636E7400 		.ascii	"cnt\000"
 1514 0719 0F       		.byte	0xf
 1515 071a 37       		.byte	0x37
 1516 071b 26010000 		.4byte	0x126
 1517 071f 08       		.byte	0x8
 1518 0720 00       		.byte	0
 1519 0721 0A       		.uleb128 0xa
 1520 0722 04       		.byte	0x4
 1521 0723 FC060000 		.4byte	0x6fc
 1522 0727 05       		.uleb128 0x5
 1523 0728 87060000 		.4byte	.LASF100
 1524 072c 10       		.byte	0x10
 1525 072d 10       		.byte	0x10
 1526 072e 39       		.byte	0x39
 1527 072f 58070000 		.4byte	0x758
 1528 0733 06       		.uleb128 0x6
 1529 0734 9A020000 		.4byte	.LASF30
 1530 0738 10       		.byte	0x10
 1531 0739 3A       		.byte	0x3a
 1532 073a 72020000 		.4byte	0x272
 1533 073e 00       		.byte	0
 1534 073f 06       		.uleb128 0x6
 1535 0740 F4050000 		.4byte	.LASF101
 1536 0744 10       		.byte	0x10
 1537 0745 3C       		.byte	0x3c
 1538 0746 48020000 		.4byte	0x248
 1539 074a 08       		.byte	0x8
ARM GAS  /tmp/ccR7GbWV.s 			page 28


 1540 074b 06       		.uleb128 0x6
 1541 074c 2A010000 		.4byte	.LASF50
 1542 0750 10       		.byte	0x10
 1543 0751 3E       		.byte	0x3e
 1544 0752 97070000 		.4byte	0x797
 1545 0756 0C       		.byte	0xc
 1546 0757 00       		.byte	0
 1547 0758 0A       		.uleb128 0xa
 1548 0759 04       		.byte	0x4
 1549 075a 27070000 		.4byte	0x727
 1550 075e 0A       		.uleb128 0xa
 1551 075f 04       		.byte	0x4
 1552 0760 64070000 		.4byte	0x764
 1553 0764 13       		.uleb128 0x13
 1554 0765 69070000 		.4byte	0x769
 1555 0769 04       		.uleb128 0x4
 1556 076a 01       		.byte	0x1
 1557 076b 08       		.byte	0x8
 1558 076c 13060000 		.4byte	.LASF102
 1559 0770 0A       		.uleb128 0xa
 1560 0771 04       		.byte	0x4
 1561 0772 6C040000 		.4byte	0x46c
 1562 0776 0A       		.uleb128 0xa
 1563 0777 04       		.byte	0x4
 1564 0778 27030000 		.4byte	0x327
 1565 077c 14       		.uleb128 0x14
 1566 077d 5E070000 		.4byte	0x75e
 1567 0781 03       		.uleb128 0x3
 1568 0782 AA050000 		.4byte	.LASF103
 1569 0786 0F       		.byte	0xf
 1570 0787 38       		.byte	0x38
 1571 0788 FC060000 		.4byte	0x6fc
 1572 078c 03       		.uleb128 0x3
 1573 078d 28020000 		.4byte	.LASF104
 1574 0791 10       		.byte	0x10
 1575 0792 34       		.byte	0x34
 1576 0793 27070000 		.4byte	0x727
 1577 0797 0A       		.uleb128 0xa
 1578 0798 04       		.byte	0x4
 1579 0799 8C070000 		.4byte	0x78c
 1580 079d 04       		.uleb128 0x4
 1581 079e 01       		.byte	0x1
 1582 079f 02       		.byte	0x2
 1583 07a0 52050000 		.4byte	.LASF105
 1584 07a4 03       		.uleb128 0x3
 1585 07a5 CF060000 		.4byte	.LASF106
 1586 07a9 11       		.byte	0x11
 1587 07aa 47       		.byte	0x47
 1588 07ab AF070000 		.4byte	0x7af
 1589 07af 0A       		.uleb128 0xa
 1590 07b0 04       		.byte	0x4
 1591 07b1 B5070000 		.4byte	0x7b5
 1592 07b5 15       		.uleb128 0x15
 1593 07b6 25030000 		.4byte	0x325
 1594 07ba C9070000 		.4byte	0x7c9
 1595 07be 0D       		.uleb128 0xd
 1596 07bf 2C000000 		.4byte	0x2c
ARM GAS  /tmp/ccR7GbWV.s 			page 29


 1597 07c3 0D       		.uleb128 0xd
 1598 07c4 37000000 		.4byte	0x37
 1599 07c8 00       		.byte	0
 1600 07c9 05       		.uleb128 0x5
 1601 07ca 09070000 		.4byte	.LASF107
 1602 07ce 04       		.byte	0x4
 1603 07cf 04       		.byte	0x4
 1604 07d0 38       		.byte	0x38
 1605 07d1 E2070000 		.4byte	0x7e2
 1606 07d5 06       		.uleb128 0x6
 1607 07d6 2A010000 		.4byte	.LASF50
 1608 07da 04       		.byte	0x4
 1609 07db 39       		.byte	0x39
 1610 07dc E2070000 		.4byte	0x7e2
 1611 07e0 00       		.byte	0
 1612 07e1 00       		.byte	0
 1613 07e2 0A       		.uleb128 0xa
 1614 07e3 04       		.byte	0x4
 1615 07e4 C9070000 		.4byte	0x7c9
 1616 07e8 0F       		.uleb128 0xf
 1617 07e9 0C       		.byte	0xc
 1618 07ea 04       		.byte	0x4
 1619 07eb 40       		.byte	0x40
 1620 07ec 15080000 		.4byte	0x815
 1621 07f0 06       		.uleb128 0x6
 1622 07f1 2A010000 		.4byte	.LASF50
 1623 07f5 04       		.byte	0x4
 1624 07f6 41       		.byte	0x41
 1625 07f7 E2070000 		.4byte	0x7e2
 1626 07fb 00       		.byte	0
 1627 07fc 06       		.uleb128 0x6
 1628 07fd ED060000 		.4byte	.LASF108
 1629 0801 04       		.byte	0x4
 1630 0802 42       		.byte	0x42
 1631 0803 2C000000 		.4byte	0x2c
 1632 0807 04       		.byte	0x4
 1633 0808 06       		.uleb128 0x6
 1634 0809 95000000 		.4byte	.LASF109
 1635 080d 04       		.byte	0x4
 1636 080e 44       		.byte	0x44
 1637 080f A4070000 		.4byte	0x7a4
 1638 0813 08       		.byte	0x8
 1639 0814 00       		.byte	0
 1640 0815 03       		.uleb128 0x3
 1641 0816 86020000 		.4byte	.LASF110
 1642 081a 04       		.byte	0x4
 1643 081b 46       		.byte	0x46
 1644 081c E8070000 		.4byte	0x7e8
 1645 0820 0F       		.uleb128 0xf
 1646 0821 18       		.byte	0x18
 1647 0822 04       		.byte	0x4
 1648 0823 4C       		.byte	0x4c
 1649 0824 41080000 		.4byte	0x841
 1650 0828 07       		.uleb128 0x7
 1651 0829 73656D00 		.ascii	"sem\000"
 1652 082d 04       		.byte	0x4
 1653 082e 4D       		.byte	0x4d
ARM GAS  /tmp/ccR7GbWV.s 			page 30


 1654 082f 81070000 		.4byte	0x781
 1655 0833 00       		.byte	0
 1656 0834 06       		.uleb128 0x6
 1657 0835 1B070000 		.4byte	.LASF111
 1658 0839 04       		.byte	0x4
 1659 083a 4F       		.byte	0x4f
 1660 083b 15080000 		.4byte	0x815
 1661 083f 0C       		.byte	0xc
 1662 0840 00       		.byte	0
 1663 0841 03       		.uleb128 0x3
 1664 0842 00000000 		.4byte	.LASF112
 1665 0846 04       		.byte	0x4
 1666 0847 50       		.byte	0x50
 1667 0848 20080000 		.4byte	0x820
 1668 084c 16       		.uleb128 0x16
 1669 084d 51060000 		.4byte	.LASF118
 1670 0851 02       		.byte	0x2
 1671 0852 0601     		.2byte	0x106
 1672 0854 03       		.byte	0x3
 1673 0855 66080000 		.4byte	0x866
 1674 0859 17       		.uleb128 0x17
 1675 085a 30020000 		.4byte	.LASF115
 1676 085e 02       		.byte	0x2
 1677 085f 0601     		.2byte	0x106
 1678 0861 B8000000 		.4byte	0xb8
 1679 0865 00       		.byte	0
 1680 0866 18       		.uleb128 0x18
 1681 0867 9E000000 		.4byte	.LASF113
 1682 086b 0C       		.byte	0xc
 1683 086c 5202     		.2byte	0x252
 1684 086e 03       		.byte	0x3
 1685 086f 18       		.uleb128 0x18
 1686 0870 8D010000 		.4byte	.LASF114
 1687 0874 0C       		.byte	0xc
 1688 0875 6A02     		.2byte	0x26a
 1689 0877 03       		.byte	0x3
 1690 0878 19       		.uleb128 0x19
 1691 0879 EA010000 		.4byte	.LASF120
 1692 087d 01       		.byte	0x1
 1693 087e AC       		.byte	0xac
 1694 087f 01       		.byte	0x1
 1695 0880 B2080000 		.4byte	0x8b2
 1696 0884 1A       		.uleb128 0x1a
 1697 0885 6D7000   		.ascii	"mp\000"
 1698 0888 01       		.byte	0x1
 1699 0889 AC       		.byte	0xac
 1700 088a B2080000 		.4byte	0x8b2
 1701 088e 1B       		.uleb128 0x1b
 1702 088f A5050000 		.4byte	.LASF116
 1703 0893 01       		.byte	0x1
 1704 0894 AC       		.byte	0xac
 1705 0895 25030000 		.4byte	0x325
 1706 0899 1C       		.uleb128 0x1c
 1707 089a 70687000 		.ascii	"php\000"
 1708 089e 01       		.byte	0x1
 1709 089f AD       		.byte	0xad
 1710 08a0 E2070000 		.4byte	0x7e2
ARM GAS  /tmp/ccR7GbWV.s 			page 31


 1711 08a4 1D       		.uleb128 0x1d
 1712 08a5 92050000 		.4byte	.LASF117
 1713 08a9 C8080000 		.4byte	0x8c8
 1714 08ad EA010000 		.4byte	.LASF120
 1715 08b1 00       		.byte	0
 1716 08b2 0A       		.uleb128 0xa
 1717 08b3 04       		.byte	0x4
 1718 08b4 15080000 		.4byte	0x815
 1719 08b8 1E       		.uleb128 0x1e
 1720 08b9 69070000 		.4byte	0x769
 1721 08bd C8080000 		.4byte	0x8c8
 1722 08c1 1F       		.uleb128 0x1f
 1723 08c2 5A040000 		.4byte	0x45a
 1724 08c6 0B       		.byte	0xb
 1725 08c7 00       		.byte	0
 1726 08c8 13       		.uleb128 0x13
 1727 08c9 B8080000 		.4byte	0x8b8
 1728 08cd 20       		.uleb128 0x20
 1729 08ce 0B030000 		.4byte	.LASF119
 1730 08d2 04       		.byte	0x4
 1731 08d3 B8       		.byte	0xb8
 1732 08d4 03       		.byte	0x3
 1733 08d5 EF080000 		.4byte	0x8ef
 1734 08d9 1A       		.uleb128 0x1a
 1735 08da 6D7000   		.ascii	"mp\000"
 1736 08dd 04       		.byte	0x4
 1737 08de B8       		.byte	0xb8
 1738 08df B2080000 		.4byte	0x8b2
 1739 08e3 1B       		.uleb128 0x1b
 1740 08e4 A5050000 		.4byte	.LASF116
 1741 08e8 04       		.byte	0x4
 1742 08e9 B8       		.byte	0xb8
 1743 08ea 25030000 		.4byte	0x325
 1744 08ee 00       		.byte	0
 1745 08ef 19       		.uleb128 0x19
 1746 08f0 1D030000 		.4byte	.LASF121
 1747 08f4 01       		.byte	0x1
 1748 08f5 4C       		.byte	0x4c
 1749 08f6 01       		.byte	0x1
 1750 08f7 29090000 		.4byte	0x929
 1751 08fb 1A       		.uleb128 0x1a
 1752 08fc 6D7000   		.ascii	"mp\000"
 1753 08ff 01       		.byte	0x1
 1754 0900 4C       		.byte	0x4c
 1755 0901 B2080000 		.4byte	0x8b2
 1756 0905 1B       		.uleb128 0x1b
 1757 0906 52010000 		.4byte	.LASF122
 1758 090a 01       		.byte	0x1
 1759 090b 4C       		.byte	0x4c
 1760 090c 2C000000 		.4byte	0x2c
 1761 0910 1B       		.uleb128 0x1b
 1762 0911 95000000 		.4byte	.LASF109
 1763 0915 01       		.byte	0x1
 1764 0916 4C       		.byte	0x4c
 1765 0917 A4070000 		.4byte	0x7a4
 1766 091b 1D       		.uleb128 0x1d
 1767 091c 92050000 		.4byte	.LASF117
ARM GAS  /tmp/ccR7GbWV.s 			page 32


 1768 0920 39090000 		.4byte	0x939
 1769 0924 1D030000 		.4byte	.LASF121
 1770 0928 00       		.byte	0
 1771 0929 1E       		.uleb128 0x1e
 1772 092a 69070000 		.4byte	0x769
 1773 092e 39090000 		.4byte	0x939
 1774 0932 1F       		.uleb128 0x1f
 1775 0933 5A040000 		.4byte	0x45a
 1776 0937 10       		.byte	0x10
 1777 0938 00       		.byte	0
 1778 0939 13       		.uleb128 0x13
 1779 093a 29090000 		.4byte	0x929
 1780 093e 20       		.uleb128 0x20
 1781 093f DC060000 		.4byte	.LASF123
 1782 0943 04       		.byte	0x4
 1783 0944 E2       		.byte	0xe2
 1784 0945 03       		.byte	0x3
 1785 0946 61090000 		.4byte	0x961
 1786 094a 1A       		.uleb128 0x1a
 1787 094b 676D7000 		.ascii	"gmp\000"
 1788 094f 04       		.byte	0x4
 1789 0950 E2       		.byte	0xe2
 1790 0951 61090000 		.4byte	0x961
 1791 0955 1B       		.uleb128 0x1b
 1792 0956 A5050000 		.4byte	.LASF116
 1793 095a 04       		.byte	0x4
 1794 095b E2       		.byte	0xe2
 1795 095c 25030000 		.4byte	0x325
 1796 0960 00       		.byte	0
 1797 0961 0A       		.uleb128 0xa
 1798 0962 04       		.byte	0x4
 1799 0963 41080000 		.4byte	0x841
 1800 0967 21       		.uleb128 0x21
 1801 0968 EF080000 		.4byte	0x8ef
 1802 096c 00000000 		.4byte	.LFB246
 1803 0970 0A000000 		.4byte	.LFE246-.LFB246
 1804 0974 01       		.uleb128 0x1
 1805 0975 9C       		.byte	0x9c
 1806 0976 95090000 		.4byte	0x995
 1807 097a 22       		.uleb128 0x22
 1808 097b FB080000 		.4byte	0x8fb
 1809 097f 01       		.uleb128 0x1
 1810 0980 50       		.byte	0x50
 1811 0981 22       		.uleb128 0x22
 1812 0982 05090000 		.4byte	0x905
 1813 0986 01       		.uleb128 0x1
 1814 0987 51       		.byte	0x51
 1815 0988 22       		.uleb128 0x22
 1816 0989 10090000 		.4byte	0x910
 1817 098d 01       		.uleb128 0x1
 1818 098e 52       		.byte	0x52
 1819 098f 23       		.uleb128 0x23
 1820 0990 1B090000 		.4byte	0x91b
 1821 0994 00       		.byte	0
 1822 0995 24       		.uleb128 0x24
 1823 0996 B6040000 		.4byte	.LASF126
 1824 099a 01       		.byte	0x1
ARM GAS  /tmp/ccR7GbWV.s 			page 33


 1825 099b 79       		.byte	0x79
 1826 099c 25030000 		.4byte	0x325
 1827 09a0 00000000 		.4byte	.LFB248
 1828 09a4 18000000 		.4byte	.LFE248-.LFB248
 1829 09a8 01       		.uleb128 0x1
 1830 09a9 9C       		.byte	0x9c
 1831 09aa E0090000 		.4byte	0x9e0
 1832 09ae 25       		.uleb128 0x25
 1833 09af 6D7000   		.ascii	"mp\000"
 1834 09b2 01       		.byte	0x1
 1835 09b3 79       		.byte	0x79
 1836 09b4 B2080000 		.4byte	0x8b2
 1837 09b8 00000000 		.4byte	.LLST0
 1838 09bc 26       		.uleb128 0x26
 1839 09bd A5050000 		.4byte	.LASF116
 1840 09c1 01       		.byte	0x1
 1841 09c2 7A       		.byte	0x7a
 1842 09c3 25030000 		.4byte	0x325
 1843 09c7 37000000 		.4byte	.LLST1
 1844 09cb 27       		.uleb128 0x27
 1845 09cc 92050000 		.4byte	.LASF117
 1846 09d0 F0090000 		.4byte	0x9f0
 1847 09d4 28       		.uleb128 0x28
 1848 09d5 16000000 		.4byte	.LVL4
 1849 09d9 29       		.uleb128 0x29
 1850 09da 01       		.uleb128 0x1
 1851 09db 51       		.byte	0x51
 1852 09dc 01       		.uleb128 0x1
 1853 09dd 34       		.byte	0x34
 1854 09de 00       		.byte	0
 1855 09df 00       		.byte	0
 1856 09e0 1E       		.uleb128 0x1e
 1857 09e1 69070000 		.4byte	0x769
 1858 09e5 F0090000 		.4byte	0x9f0
 1859 09e9 1F       		.uleb128 0x1f
 1860 09ea 5A040000 		.4byte	0x45a
 1861 09ee 0C       		.byte	0xc
 1862 09ef 00       		.byte	0
 1863 09f0 13       		.uleb128 0x13
 1864 09f1 E0090000 		.4byte	0x9e0
 1865 09f5 18       		.uleb128 0x18
 1866 09f6 9B050000 		.4byte	.LASF124
 1867 09fa 03       		.byte	0x3
 1868 09fb 7601     		.2byte	0x176
 1869 09fd 03       		.byte	0x3
 1870 09fe 16       		.uleb128 0x16
 1871 09ff 79070000 		.4byte	.LASF125
 1872 0a03 03       		.byte	0x3
 1873 0a04 8201     		.2byte	0x182
 1874 0a06 03       		.byte	0x3
 1875 0a07 190A0000 		.4byte	0xa19
 1876 0a0b 1D       		.uleb128 0x1d
 1877 0a0c 92050000 		.4byte	.LASF117
 1878 0a10 190A0000 		.4byte	0xa19
 1879 0a14 79070000 		.4byte	.LASF125
 1880 0a18 00       		.byte	0
 1881 0a19 13       		.uleb128 0x13
ARM GAS  /tmp/ccR7GbWV.s 			page 34


 1882 0a1a B8080000 		.4byte	0x8b8
 1883 0a1e 24       		.uleb128 0x24
 1884 0a1f 28070000 		.4byte	.LASF127
 1885 0a23 01       		.byte	0x1
 1886 0a24 96       		.byte	0x96
 1887 0a25 25030000 		.4byte	0x325
 1888 0a29 00000000 		.4byte	.LFB249
 1889 0a2d 24000000 		.4byte	.LFE249-.LFB249
 1890 0a31 01       		.uleb128 0x1
 1891 0a32 9C       		.byte	0x9c
 1892 0a33 060B0000 		.4byte	0xb06
 1893 0a37 25       		.uleb128 0x25
 1894 0a38 6D7000   		.ascii	"mp\000"
 1895 0a3b 01       		.byte	0x1
 1896 0a3c 96       		.byte	0x96
 1897 0a3d B2080000 		.4byte	0x8b2
 1898 0a41 61000000 		.4byte	.LLST2
 1899 0a45 26       		.uleb128 0x26
 1900 0a46 A5050000 		.4byte	.LASF116
 1901 0a4a 01       		.byte	0x1
 1902 0a4b 97       		.byte	0x97
 1903 0a4c 25030000 		.4byte	0x325
 1904 0a50 8D000000 		.4byte	.LLST3
 1905 0a54 2A       		.uleb128 0x2a
 1906 0a55 F5090000 		.4byte	0x9f5
 1907 0a59 02000000 		.4byte	.LBB34
 1908 0a5d 00000000 		.4byte	.Ldebug_ranges0+0
 1909 0a61 01       		.byte	0x1
 1910 0a62 99       		.byte	0x99
 1911 0a63 9D0A0000 		.4byte	0xa9d
 1912 0a67 2B       		.uleb128 0x2b
 1913 0a68 66080000 		.4byte	0x866
 1914 0a6c 02000000 		.4byte	.LBB36
 1915 0a70 18000000 		.4byte	.Ldebug_ranges0+0x18
 1916 0a74 03       		.byte	0x3
 1917 0a75 7801     		.2byte	0x178
 1918 0a77 930A0000 		.4byte	0xa93
 1919 0a7b 2C       		.uleb128 0x2c
 1920 0a7c 4C080000 		.4byte	0x84c
 1921 0a80 02000000 		.4byte	.LBB37
 1922 0a84 18000000 		.4byte	.Ldebug_ranges0+0x18
 1923 0a88 0C       		.byte	0xc
 1924 0a89 5A02     		.2byte	0x25a
 1925 0a8b 2D       		.uleb128 0x2d
 1926 0a8c 59080000 		.4byte	0x859
 1927 0a90 20       		.byte	0x20
 1928 0a91 00       		.byte	0
 1929 0a92 00       		.byte	0
 1930 0a93 2E       		.uleb128 0x2e
 1931 0a94 0E000000 		.4byte	.LVL6
 1932 0a98 05110000 		.4byte	0x1105
 1933 0a9c 00       		.byte	0
 1934 0a9d 2F       		.uleb128 0x2f
 1935 0a9e FE090000 		.4byte	0x9fe
 1936 0aa2 16000000 		.4byte	.LBB44
 1937 0aa6 0A000000 		.4byte	.LBE44-.LBB44
 1938 0aaa 01       		.byte	0x1
ARM GAS  /tmp/ccR7GbWV.s 			page 35


 1939 0aab 9B       		.byte	0x9b
 1940 0aac F50A0000 		.4byte	0xaf5
 1941 0ab0 30       		.uleb128 0x30
 1942 0ab1 16000000 		.4byte	.LBB45
 1943 0ab5 0A000000 		.4byte	.LBE45-.LBB45
 1944 0ab9 23       		.uleb128 0x23
 1945 0aba 0B0A0000 		.4byte	0xa0b
 1946 0abe 31       		.uleb128 0x31
 1947 0abf 6F080000 		.4byte	0x86f
 1948 0ac3 1A000000 		.4byte	.LBB46
 1949 0ac7 06000000 		.4byte	.LBE46-.LBB46
 1950 0acb 03       		.byte	0x3
 1951 0acc 8F01     		.2byte	0x18f
 1952 0ace EA0A0000 		.4byte	0xaea
 1953 0ad2 32       		.uleb128 0x32
 1954 0ad3 4C080000 		.4byte	0x84c
 1955 0ad7 1A000000 		.4byte	.LBB47
 1956 0adb 06000000 		.4byte	.LBE47-.LBB47
 1957 0adf 0C       		.byte	0xc
 1958 0ae0 6D02     		.2byte	0x26d
 1959 0ae2 2D       		.uleb128 0x2d
 1960 0ae3 59080000 		.4byte	0x859
 1961 0ae7 00       		.byte	0
 1962 0ae8 00       		.byte	0
 1963 0ae9 00       		.byte	0
 1964 0aea 2E       		.uleb128 0x2e
 1965 0aeb 1A000000 		.4byte	.LVL9
 1966 0aef 0C110000 		.4byte	0x110c
 1967 0af3 00       		.byte	0
 1968 0af4 00       		.byte	0
 1969 0af5 33       		.uleb128 0x33
 1970 0af6 14000000 		.4byte	.LVL7
 1971 0afa 95090000 		.4byte	0x995
 1972 0afe 29       		.uleb128 0x29
 1973 0aff 01       		.uleb128 0x1
 1974 0b00 50       		.byte	0x50
 1975 0b01 02       		.uleb128 0x2
 1976 0b02 74       		.byte	0x74
 1977 0b03 00       		.sleb128 0
 1978 0b04 00       		.byte	0
 1979 0b05 00       		.byte	0
 1980 0b06 21       		.uleb128 0x21
 1981 0b07 78080000 		.4byte	0x878
 1982 0b0b 00000000 		.4byte	.LFB250
 1983 0b0f 08000000 		.4byte	.LFE250-.LFB250
 1984 0b13 01       		.uleb128 0x1
 1985 0b14 9C       		.byte	0x9c
 1986 0b15 340B0000 		.4byte	0xb34
 1987 0b19 22       		.uleb128 0x22
 1988 0b1a 84080000 		.4byte	0x884
 1989 0b1e 01       		.uleb128 0x1
 1990 0b1f 50       		.byte	0x50
 1991 0b20 22       		.uleb128 0x22
 1992 0b21 8E080000 		.4byte	0x88e
 1993 0b25 01       		.uleb128 0x1
 1994 0b26 51       		.byte	0x51
 1995 0b27 34       		.uleb128 0x34
ARM GAS  /tmp/ccR7GbWV.s 			page 36


 1996 0b28 99080000 		.4byte	0x899
 1997 0b2c 01       		.uleb128 0x1
 1998 0b2d 51       		.byte	0x51
 1999 0b2e 23       		.uleb128 0x23
 2000 0b2f A4080000 		.4byte	0x8a4
 2001 0b33 00       		.byte	0
 2002 0b34 35       		.uleb128 0x35
 2003 0b35 34070000 		.4byte	.LASF128
 2004 0b39 01       		.byte	0x1
 2005 0b3a C2       		.byte	0xc2
 2006 0b3b 00000000 		.4byte	.LFB251
 2007 0b3f 22000000 		.4byte	.LFE251-.LFB251
 2008 0b43 01       		.uleb128 0x1
 2009 0b44 9C       		.byte	0x9c
 2010 0b45 3C0C0000 		.4byte	0xc3c
 2011 0b49 25       		.uleb128 0x25
 2012 0b4a 6D7000   		.ascii	"mp\000"
 2013 0b4d 01       		.byte	0x1
 2014 0b4e C2       		.byte	0xc2
 2015 0b4f B2080000 		.4byte	0x8b2
 2016 0b53 AB000000 		.4byte	.LLST4
 2017 0b57 36       		.uleb128 0x36
 2018 0b58 A5050000 		.4byte	.LASF116
 2019 0b5c 01       		.byte	0x1
 2020 0b5d C2       		.byte	0xc2
 2021 0b5e 25030000 		.4byte	0x325
 2022 0b62 C9000000 		.4byte	.LLST5
 2023 0b66 2F       		.uleb128 0x2f
 2024 0b67 F5090000 		.4byte	0x9f5
 2025 0b6b 06000000 		.4byte	.LBB61
 2026 0b6f 0A000000 		.4byte	.LBE61-.LBB61
 2027 0b73 01       		.byte	0x1
 2028 0b74 C4       		.byte	0xc4
 2029 0b75 AF0B0000 		.4byte	0xbaf
 2030 0b79 31       		.uleb128 0x31
 2031 0b7a 66080000 		.4byte	0x866
 2032 0b7e 06000000 		.4byte	.LBB63
 2033 0b82 06000000 		.4byte	.LBE63-.LBB63
 2034 0b86 03       		.byte	0x3
 2035 0b87 7801     		.2byte	0x178
 2036 0b89 A50B0000 		.4byte	0xba5
 2037 0b8d 32       		.uleb128 0x32
 2038 0b8e 4C080000 		.4byte	0x84c
 2039 0b92 06000000 		.4byte	.LBB64
 2040 0b96 06000000 		.4byte	.LBE64-.LBB64
 2041 0b9a 0C       		.byte	0xc
 2042 0b9b 5A02     		.2byte	0x25a
 2043 0b9d 2D       		.uleb128 0x2d
 2044 0b9e 59080000 		.4byte	0x859
 2045 0ba2 20       		.byte	0x20
 2046 0ba3 00       		.byte	0
 2047 0ba4 00       		.byte	0
 2048 0ba5 2E       		.uleb128 0x2e
 2049 0ba6 10000000 		.4byte	.LVL12
 2050 0baa 05110000 		.4byte	0x1105
 2051 0bae 00       		.byte	0
 2052 0baf 2F       		.uleb128 0x2f
ARM GAS  /tmp/ccR7GbWV.s 			page 37


 2053 0bb0 78080000 		.4byte	0x878
 2054 0bb4 10000000 		.4byte	.LBB66
 2055 0bb8 06000000 		.4byte	.LBE66-.LBB66
 2056 0bbc 01       		.byte	0x1
 2057 0bbd C5       		.byte	0xc5
 2058 0bbe E70B0000 		.4byte	0xbe7
 2059 0bc2 22       		.uleb128 0x22
 2060 0bc3 8E080000 		.4byte	0x88e
 2061 0bc7 01       		.uleb128 0x1
 2062 0bc8 55       		.byte	0x55
 2063 0bc9 22       		.uleb128 0x22
 2064 0bca 84080000 		.4byte	0x884
 2065 0bce 01       		.uleb128 0x1
 2066 0bcf 54       		.byte	0x54
 2067 0bd0 30       		.uleb128 0x30
 2068 0bd1 10000000 		.4byte	.LBB67
 2069 0bd5 06000000 		.4byte	.LBE67-.LBB67
 2070 0bd9 34       		.uleb128 0x34
 2071 0bda 99080000 		.4byte	0x899
 2072 0bde 01       		.uleb128 0x1
 2073 0bdf 55       		.byte	0x55
 2074 0be0 23       		.uleb128 0x23
 2075 0be1 A4080000 		.4byte	0x8a4
 2076 0be5 00       		.byte	0
 2077 0be6 00       		.byte	0
 2078 0be7 37       		.uleb128 0x37
 2079 0be8 FE090000 		.4byte	0x9fe
 2080 0bec 16000000 		.4byte	.LBB68
 2081 0bf0 0C000000 		.4byte	.LBE68-.LBB68
 2082 0bf4 01       		.byte	0x1
 2083 0bf5 C6       		.byte	0xc6
 2084 0bf6 30       		.uleb128 0x30
 2085 0bf7 16000000 		.4byte	.LBB69
 2086 0bfb 0C000000 		.4byte	.LBE69-.LBB69
 2087 0bff 23       		.uleb128 0x23
 2088 0c00 0B0A0000 		.4byte	0xa0b
 2089 0c04 31       		.uleb128 0x31
 2090 0c05 6F080000 		.4byte	0x86f
 2091 0c09 1A000000 		.4byte	.LBB70
 2092 0c0d 08000000 		.4byte	.LBE70-.LBB70
 2093 0c11 03       		.byte	0x3
 2094 0c12 8F01     		.2byte	0x18f
 2095 0c14 300C0000 		.4byte	0xc30
 2096 0c18 32       		.uleb128 0x32
 2097 0c19 4C080000 		.4byte	0x84c
 2098 0c1d 1A000000 		.4byte	.LBB71
 2099 0c21 08000000 		.4byte	.LBE71-.LBB71
 2100 0c25 0C       		.byte	0xc
 2101 0c26 6D02     		.2byte	0x26d
 2102 0c28 2D       		.uleb128 0x2d
 2103 0c29 59080000 		.4byte	0x859
 2104 0c2d 00       		.byte	0
 2105 0c2e 00       		.byte	0
 2106 0c2f 00       		.byte	0
 2107 0c30 2E       		.uleb128 0x2e
 2108 0c31 1A000000 		.4byte	.LVL13
 2109 0c35 0C110000 		.4byte	0x110c
ARM GAS  /tmp/ccR7GbWV.s 			page 38


 2110 0c39 00       		.byte	0
 2111 0c3a 00       		.byte	0
 2112 0c3b 00       		.byte	0
 2113 0c3c 35       		.uleb128 0x35
 2114 0c3d 85070000 		.4byte	.LASF129
 2115 0c41 01       		.byte	0x1
 2116 0c42 62       		.byte	0x62
 2117 0c43 00000000 		.4byte	.LFB247
 2118 0c47 1C000000 		.4byte	.LFE247-.LFB247
 2119 0c4b 01       		.uleb128 0x1
 2120 0c4c 9C       		.byte	0x9c
 2121 0c4d BB0C0000 		.4byte	0xcbb
 2122 0c51 25       		.uleb128 0x25
 2123 0c52 6D7000   		.ascii	"mp\000"
 2124 0c55 01       		.byte	0x1
 2125 0c56 62       		.byte	0x62
 2126 0c57 B2080000 		.4byte	0x8b2
 2127 0c5b E7000000 		.4byte	.LLST6
 2128 0c5f 25       		.uleb128 0x25
 2129 0c60 7000     		.ascii	"p\000"
 2130 0c62 01       		.byte	0x1
 2131 0c63 62       		.byte	0x62
 2132 0c64 25030000 		.4byte	0x325
 2133 0c68 05010000 		.4byte	.LLST7
 2134 0c6c 25       		.uleb128 0x25
 2135 0c6d 6E00     		.ascii	"n\000"
 2136 0c6f 01       		.byte	0x1
 2137 0c70 62       		.byte	0x62
 2138 0c71 2C000000 		.4byte	0x2c
 2139 0c75 23010000 		.4byte	.LLST8
 2140 0c79 27       		.uleb128 0x27
 2141 0c7a 92050000 		.4byte	.LASF117
 2142 0c7e CB0C0000 		.4byte	0xccb
 2143 0c82 37       		.uleb128 0x37
 2144 0c83 CD080000 		.4byte	0x8cd
 2145 0c87 0A000000 		.4byte	.LBB73
 2146 0c8b 08000000 		.4byte	.LBE73-.LBB73
 2147 0c8f 01       		.byte	0x1
 2148 0c90 67       		.byte	0x67
 2149 0c91 38       		.uleb128 0x38
 2150 0c92 E3080000 		.4byte	0x8e3
 2151 0c96 59010000 		.4byte	.LLST9
 2152 0c9a 38       		.uleb128 0x38
 2153 0c9b D9080000 		.4byte	0x8d9
 2154 0c9f 6C010000 		.4byte	.LLST10
 2155 0ca3 33       		.uleb128 0x33
 2156 0ca4 12000000 		.4byte	.LVL17
 2157 0ca8 340B0000 		.4byte	0xb34
 2158 0cac 29       		.uleb128 0x29
 2159 0cad 01       		.uleb128 0x1
 2160 0cae 51       		.byte	0x51
 2161 0caf 02       		.uleb128 0x2
 2162 0cb0 75       		.byte	0x75
 2163 0cb1 00       		.sleb128 0
 2164 0cb2 29       		.uleb128 0x29
 2165 0cb3 01       		.uleb128 0x1
 2166 0cb4 50       		.byte	0x50
ARM GAS  /tmp/ccR7GbWV.s 			page 39


 2167 0cb5 02       		.uleb128 0x2
 2168 0cb6 76       		.byte	0x76
 2169 0cb7 00       		.sleb128 0
 2170 0cb8 00       		.byte	0
 2171 0cb9 00       		.byte	0
 2172 0cba 00       		.byte	0
 2173 0cbb 1E       		.uleb128 0x1e
 2174 0cbc 69070000 		.4byte	0x769
 2175 0cc0 CB0C0000 		.4byte	0xccb
 2176 0cc4 1F       		.uleb128 0x1f
 2177 0cc5 5A040000 		.4byte	0x45a
 2178 0cc9 0F       		.byte	0xf
 2179 0cca 00       		.byte	0
 2180 0ccb 13       		.uleb128 0x13
 2181 0ccc BB0C0000 		.4byte	0xcbb
 2182 0cd0 35       		.uleb128 0x35
 2183 0cd1 59020000 		.4byte	.LASF130
 2184 0cd5 01       		.byte	0x1
 2185 0cd6 D4       		.byte	0xd4
 2186 0cd7 00000000 		.4byte	.LFB252
 2187 0cdb 0E000000 		.4byte	.LFE252-.LFB252
 2188 0cdf 01       		.uleb128 0x1
 2189 0ce0 9C       		.byte	0x9c
 2190 0ce1 550D0000 		.4byte	0xd55
 2191 0ce5 25       		.uleb128 0x25
 2192 0ce6 676D7000 		.ascii	"gmp\000"
 2193 0cea 01       		.byte	0x1
 2194 0ceb D4       		.byte	0xd4
 2195 0cec 61090000 		.4byte	0x961
 2196 0cf0 7F010000 		.4byte	.LLST11
 2197 0cf4 36       		.uleb128 0x36
 2198 0cf5 52010000 		.4byte	.LASF122
 2199 0cf9 01       		.byte	0x1
 2200 0cfa D4       		.byte	0xd4
 2201 0cfb 2C000000 		.4byte	0x2c
 2202 0cff A0010000 		.4byte	.LLST12
 2203 0d03 2F       		.uleb128 0x2f
 2204 0d04 EF080000 		.4byte	0x8ef
 2205 0d08 00000000 		.4byte	.LBB75
 2206 0d0c 08000000 		.4byte	.LBE75-.LBB75
 2207 0d10 01       		.byte	0x1
 2208 0d11 D6       		.byte	0xd6
 2209 0d12 3E0D0000 		.4byte	0xd3e
 2210 0d16 2D       		.uleb128 0x2d
 2211 0d17 10090000 		.4byte	0x910
 2212 0d1b 00       		.byte	0
 2213 0d1c 38       		.uleb128 0x38
 2214 0d1d 05090000 		.4byte	0x905
 2215 0d21 A0010000 		.4byte	.LLST12
 2216 0d25 38       		.uleb128 0x38
 2217 0d26 FB080000 		.4byte	0x8fb
 2218 0d2a CD010000 		.4byte	.LLST14
 2219 0d2e 30       		.uleb128 0x30
 2220 0d2f 00000000 		.4byte	.LBB76
 2221 0d33 08000000 		.4byte	.LBE76-.LBB76
 2222 0d37 23       		.uleb128 0x23
 2223 0d38 1B090000 		.4byte	0x91b
ARM GAS  /tmp/ccR7GbWV.s 			page 40


 2224 0d3c 00       		.byte	0
 2225 0d3d 00       		.byte	0
 2226 0d3e 39       		.uleb128 0x39
 2227 0d3f 0E000000 		.4byte	.LVL23
 2228 0d43 13110000 		.4byte	0x1113
 2229 0d47 29       		.uleb128 0x29
 2230 0d48 01       		.uleb128 0x1
 2231 0d49 51       		.byte	0x51
 2232 0d4a 01       		.uleb128 0x1
 2233 0d4b 30       		.byte	0x30
 2234 0d4c 29       		.uleb128 0x29
 2235 0d4d 01       		.uleb128 0x1
 2236 0d4e 50       		.byte	0x50
 2237 0d4f 03       		.uleb128 0x3
 2238 0d50 F3       		.byte	0xf3
 2239 0d51 01       		.uleb128 0x1
 2240 0d52 50       		.byte	0x50
 2241 0d53 00       		.byte	0
 2242 0d54 00       		.byte	0
 2243 0d55 3A       		.uleb128 0x3a
 2244 0d56 E1040000 		.4byte	.LASF131
 2245 0d5a 01       		.byte	0x1
 2246 0d5b 0301     		.2byte	0x103
 2247 0d5d 25030000 		.4byte	0x325
 2248 0d61 00000000 		.4byte	.LFB254
 2249 0d65 1A000000 		.4byte	.LFE254-.LFB254
 2250 0d69 01       		.uleb128 0x1
 2251 0d6a 9C       		.byte	0x9c
 2252 0d6b CE0D0000 		.4byte	0xdce
 2253 0d6f 3B       		.uleb128 0x3b
 2254 0d70 676D7000 		.ascii	"gmp\000"
 2255 0d74 01       		.byte	0x1
 2256 0d75 0301     		.2byte	0x103
 2257 0d77 61090000 		.4byte	0x961
 2258 0d7b F2010000 		.4byte	.LLST15
 2259 0d7f 3C       		.uleb128 0x3c
 2260 0d80 7E020000 		.4byte	.LASF132
 2261 0d84 01       		.byte	0x1
 2262 0d85 0401     		.2byte	0x104
 2263 0d87 3C010000 		.4byte	0x13c
 2264 0d8b 36020000 		.4byte	.LLST16
 2265 0d8f 3D       		.uleb128 0x3d
 2266 0d90 6D736700 		.ascii	"msg\000"
 2267 0d94 01       		.byte	0x1
 2268 0d95 0501     		.2byte	0x105
 2269 0d97 10010000 		.4byte	0x110
 2270 0d9b 57020000 		.4byte	.LLST17
 2271 0d9f 3E       		.uleb128 0x3e
 2272 0da0 08000000 		.4byte	.LVL25
 2273 0da4 2F110000 		.4byte	0x112f
 2274 0da8 BA0D0000 		.4byte	0xdba
 2275 0dac 29       		.uleb128 0x29
 2276 0dad 01       		.uleb128 0x1
 2277 0dae 51       		.byte	0x51
 2278 0daf 03       		.uleb128 0x3
 2279 0db0 F3       		.byte	0xf3
 2280 0db1 01       		.uleb128 0x1
ARM GAS  /tmp/ccR7GbWV.s 			page 41


 2281 0db2 51       		.byte	0x51
 2282 0db3 29       		.uleb128 0x29
 2283 0db4 01       		.uleb128 0x1
 2284 0db5 50       		.byte	0x50
 2285 0db6 02       		.uleb128 0x2
 2286 0db7 74       		.byte	0x74
 2287 0db8 00       		.sleb128 0
 2288 0db9 00       		.byte	0
 2289 0dba 39       		.uleb128 0x39
 2290 0dbb 16000000 		.4byte	.LVL28
 2291 0dbf 95090000 		.4byte	0x995
 2292 0dc3 29       		.uleb128 0x29
 2293 0dc4 01       		.uleb128 0x1
 2294 0dc5 50       		.byte	0x50
 2295 0dc6 05       		.uleb128 0x5
 2296 0dc7 F3       		.byte	0xf3
 2297 0dc8 01       		.uleb128 0x1
 2298 0dc9 50       		.byte	0x50
 2299 0dca 23       		.byte	0x23
 2300 0dcb 0C       		.uleb128 0xc
 2301 0dcc 00       		.byte	0
 2302 0dcd 00       		.byte	0
 2303 0dce 3A       		.uleb128 0x3a
 2304 0dcf 0E020000 		.4byte	.LASF133
 2305 0dd3 01       		.byte	0x1
 2306 0dd4 1E01     		.2byte	0x11e
 2307 0dd6 25030000 		.4byte	0x325
 2308 0dda 00000000 		.4byte	.LFB255
 2309 0dde 28000000 		.4byte	.LFE255-.LFB255
 2310 0de2 01       		.uleb128 0x1
 2311 0de3 9C       		.byte	0x9c
 2312 0de4 D00E0000 		.4byte	0xed0
 2313 0de8 3B       		.uleb128 0x3b
 2314 0de9 676D7000 		.ascii	"gmp\000"
 2315 0ded 01       		.byte	0x1
 2316 0dee 1E01     		.2byte	0x11e
 2317 0df0 61090000 		.4byte	0x961
 2318 0df4 75020000 		.4byte	.LLST18
 2319 0df8 3C       		.uleb128 0x3c
 2320 0df9 7E020000 		.4byte	.LASF132
 2321 0dfd 01       		.byte	0x1
 2322 0dfe 1F01     		.2byte	0x11f
 2323 0e00 3C010000 		.4byte	0x13c
 2324 0e04 93020000 		.4byte	.LLST19
 2325 0e08 3D       		.uleb128 0x3d
 2326 0e09 7000     		.ascii	"p\000"
 2327 0e0b 01       		.byte	0x1
 2328 0e0c 2001     		.2byte	0x120
 2329 0e0e 25030000 		.4byte	0x325
 2330 0e12 BF020000 		.4byte	.LLST20
 2331 0e16 31       		.uleb128 0x31
 2332 0e17 F5090000 		.4byte	0x9f5
 2333 0e1b 06000000 		.4byte	.LBB87
 2334 0e1f 0A000000 		.4byte	.LBE87-.LBB87
 2335 0e23 01       		.byte	0x1
 2336 0e24 2201     		.2byte	0x122
 2337 0e26 600E0000 		.4byte	0xe60
ARM GAS  /tmp/ccR7GbWV.s 			page 42


 2338 0e2a 31       		.uleb128 0x31
 2339 0e2b 66080000 		.4byte	0x866
 2340 0e2f 06000000 		.4byte	.LBB89
 2341 0e33 06000000 		.4byte	.LBE89-.LBB89
 2342 0e37 03       		.byte	0x3
 2343 0e38 7801     		.2byte	0x178
 2344 0e3a 560E0000 		.4byte	0xe56
 2345 0e3e 32       		.uleb128 0x32
 2346 0e3f 4C080000 		.4byte	0x84c
 2347 0e43 06000000 		.4byte	.LBB90
 2348 0e47 06000000 		.4byte	.LBE90-.LBB90
 2349 0e4b 0C       		.byte	0xc
 2350 0e4c 5A02     		.2byte	0x25a
 2351 0e4e 2D       		.uleb128 0x2d
 2352 0e4f 59080000 		.4byte	0x859
 2353 0e53 20       		.byte	0x20
 2354 0e54 00       		.byte	0
 2355 0e55 00       		.byte	0
 2356 0e56 2E       		.uleb128 0x2e
 2357 0e57 10000000 		.4byte	.LVL31
 2358 0e5b 05110000 		.4byte	0x1105
 2359 0e5f 00       		.byte	0
 2360 0e60 31       		.uleb128 0x31
 2361 0e61 FE090000 		.4byte	0x9fe
 2362 0e65 1A000000 		.4byte	.LBB92
 2363 0e69 0A000000 		.4byte	.LBE92-.LBB92
 2364 0e6d 01       		.byte	0x1
 2365 0e6e 2401     		.2byte	0x124
 2366 0e70 B90E0000 		.4byte	0xeb9
 2367 0e74 30       		.uleb128 0x30
 2368 0e75 1A000000 		.4byte	.LBB93
 2369 0e79 0A000000 		.4byte	.LBE93-.LBB93
 2370 0e7d 23       		.uleb128 0x23
 2371 0e7e 0B0A0000 		.4byte	0xa0b
 2372 0e82 31       		.uleb128 0x31
 2373 0e83 6F080000 		.4byte	0x86f
 2374 0e87 1E000000 		.4byte	.LBB94
 2375 0e8b 06000000 		.4byte	.LBE94-.LBB94
 2376 0e8f 03       		.byte	0x3
 2377 0e90 8F01     		.2byte	0x18f
 2378 0e92 AE0E0000 		.4byte	0xeae
 2379 0e96 32       		.uleb128 0x32
 2380 0e97 4C080000 		.4byte	0x84c
 2381 0e9b 1E000000 		.4byte	.LBB95
 2382 0e9f 06000000 		.4byte	.LBE95-.LBB95
 2383 0ea3 0C       		.byte	0xc
 2384 0ea4 6D02     		.2byte	0x26d
 2385 0ea6 2D       		.uleb128 0x2d
 2386 0ea7 59080000 		.4byte	0x859
 2387 0eab 00       		.byte	0
 2388 0eac 00       		.byte	0
 2389 0ead 00       		.byte	0
 2390 0eae 2E       		.uleb128 0x2e
 2391 0eaf 1E000000 		.4byte	.LVL34
 2392 0eb3 0C110000 		.4byte	0x110c
 2393 0eb7 00       		.byte	0
 2394 0eb8 00       		.byte	0
ARM GAS  /tmp/ccR7GbWV.s 			page 43


 2395 0eb9 33       		.uleb128 0x33
 2396 0eba 18000000 		.4byte	.LVL32
 2397 0ebe 550D0000 		.4byte	0xd55
 2398 0ec2 29       		.uleb128 0x29
 2399 0ec3 01       		.uleb128 0x1
 2400 0ec4 51       		.byte	0x51
 2401 0ec5 02       		.uleb128 0x2
 2402 0ec6 74       		.byte	0x74
 2403 0ec7 00       		.sleb128 0
 2404 0ec8 29       		.uleb128 0x29
 2405 0ec9 01       		.uleb128 0x1
 2406 0eca 50       		.byte	0x50
 2407 0ecb 02       		.uleb128 0x2
 2408 0ecc 75       		.byte	0x75
 2409 0ecd 00       		.sleb128 0
 2410 0ece 00       		.byte	0
 2411 0ecf 00       		.byte	0
 2412 0ed0 3F       		.uleb128 0x3f
 2413 0ed1 D8000000 		.4byte	.LASF134
 2414 0ed5 01       		.byte	0x1
 2415 0ed6 3501     		.2byte	0x135
 2416 0ed8 00000000 		.4byte	.LFB256
 2417 0edc 0A000000 		.4byte	.LFE256-.LFB256
 2418 0ee0 01       		.uleb128 0x1
 2419 0ee1 9C       		.byte	0x9c
 2420 0ee2 570F0000 		.4byte	0xf57
 2421 0ee6 3B       		.uleb128 0x3b
 2422 0ee7 676D7000 		.ascii	"gmp\000"
 2423 0eeb 01       		.byte	0x1
 2424 0eec 3501     		.2byte	0x135
 2425 0eee 61090000 		.4byte	0x961
 2426 0ef2 DD020000 		.4byte	.LLST21
 2427 0ef6 3C       		.uleb128 0x3c
 2428 0ef7 A5050000 		.4byte	.LASF116
 2429 0efb 01       		.byte	0x1
 2430 0efc 3501     		.2byte	0x135
 2431 0efe 25030000 		.4byte	0x325
 2432 0f02 FE020000 		.4byte	.LLST22
 2433 0f06 31       		.uleb128 0x31
 2434 0f07 78080000 		.4byte	0x878
 2435 0f0b 00000000 		.4byte	.LBB97
 2436 0f0f 06000000 		.4byte	.LBE97-.LBB97
 2437 0f13 01       		.byte	0x1
 2438 0f14 3701     		.2byte	0x137
 2439 0f16 450F0000 		.4byte	0xf45
 2440 0f1a 38       		.uleb128 0x38
 2441 0f1b 8E080000 		.4byte	0x88e
 2442 0f1f FE020000 		.4byte	.LLST22
 2443 0f23 38       		.uleb128 0x38
 2444 0f24 84080000 		.4byte	0x884
 2445 0f28 1F030000 		.4byte	.LLST24
 2446 0f2c 30       		.uleb128 0x30
 2447 0f2d 00000000 		.4byte	.LBB98
 2448 0f31 06000000 		.4byte	.LBE98-.LBB98
 2449 0f35 40       		.uleb128 0x40
 2450 0f36 99080000 		.4byte	0x899
 2451 0f3a FE020000 		.4byte	.LLST22
ARM GAS  /tmp/ccR7GbWV.s 			page 44


 2452 0f3e 23       		.uleb128 0x23
 2453 0f3f A4080000 		.4byte	0x8a4
 2454 0f43 00       		.byte	0
 2455 0f44 00       		.byte	0
 2456 0f45 39       		.uleb128 0x39
 2457 0f46 0A000000 		.4byte	.LVL36
 2458 0f4a 49110000 		.4byte	0x1149
 2459 0f4e 29       		.uleb128 0x29
 2460 0f4f 01       		.uleb128 0x1
 2461 0f50 50       		.byte	0x50
 2462 0f51 03       		.uleb128 0x3
 2463 0f52 F3       		.byte	0xf3
 2464 0f53 01       		.uleb128 0x1
 2465 0f54 50       		.byte	0x50
 2466 0f55 00       		.byte	0
 2467 0f56 00       		.byte	0
 2468 0f57 3F       		.uleb128 0x3f
 2469 0f58 DD020000 		.4byte	.LASF135
 2470 0f5c 01       		.byte	0x1
 2471 0f5d 4701     		.2byte	0x147
 2472 0f5f 00000000 		.4byte	.LFB257
 2473 0f63 28000000 		.4byte	.LFE257-.LFB257
 2474 0f67 01       		.uleb128 0x1
 2475 0f68 9C       		.byte	0x9c
 2476 0f69 54100000 		.4byte	0x1054
 2477 0f6d 3B       		.uleb128 0x3b
 2478 0f6e 676D7000 		.ascii	"gmp\000"
 2479 0f72 01       		.byte	0x1
 2480 0f73 4701     		.2byte	0x147
 2481 0f75 61090000 		.4byte	0x961
 2482 0f79 44030000 		.4byte	.LLST26
 2483 0f7d 3C       		.uleb128 0x3c
 2484 0f7e A5050000 		.4byte	.LASF116
 2485 0f82 01       		.byte	0x1
 2486 0f83 4701     		.2byte	0x147
 2487 0f85 25030000 		.4byte	0x325
 2488 0f89 62030000 		.4byte	.LLST27
 2489 0f8d 31       		.uleb128 0x31
 2490 0f8e F5090000 		.4byte	0x9f5
 2491 0f92 06000000 		.4byte	.LBB109
 2492 0f96 0A000000 		.4byte	.LBE109-.LBB109
 2493 0f9a 01       		.byte	0x1
 2494 0f9b 4901     		.2byte	0x149
 2495 0f9d D70F0000 		.4byte	0xfd7
 2496 0fa1 31       		.uleb128 0x31
 2497 0fa2 66080000 		.4byte	0x866
 2498 0fa6 06000000 		.4byte	.LBB111
 2499 0faa 06000000 		.4byte	.LBE111-.LBB111
 2500 0fae 03       		.byte	0x3
 2501 0faf 7801     		.2byte	0x178
 2502 0fb1 CD0F0000 		.4byte	0xfcd
 2503 0fb5 32       		.uleb128 0x32
 2504 0fb6 4C080000 		.4byte	0x84c
 2505 0fba 06000000 		.4byte	.LBB112
 2506 0fbe 06000000 		.4byte	.LBE112-.LBB112
 2507 0fc2 0C       		.byte	0xc
 2508 0fc3 5A02     		.2byte	0x25a
ARM GAS  /tmp/ccR7GbWV.s 			page 45


 2509 0fc5 2D       		.uleb128 0x2d
 2510 0fc6 59080000 		.4byte	0x859
 2511 0fca 20       		.byte	0x20
 2512 0fcb 00       		.byte	0
 2513 0fcc 00       		.byte	0
 2514 0fcd 2E       		.uleb128 0x2e
 2515 0fce 10000000 		.4byte	.LVL38
 2516 0fd2 05110000 		.4byte	0x1105
 2517 0fd6 00       		.byte	0
 2518 0fd7 31       		.uleb128 0x31
 2519 0fd8 FE090000 		.4byte	0x9fe
 2520 0fdc 1C000000 		.4byte	.LBB114
 2521 0fe0 0C000000 		.4byte	.LBE114-.LBB114
 2522 0fe4 01       		.byte	0x1
 2523 0fe5 4C01     		.2byte	0x14c
 2524 0fe7 30100000 		.4byte	0x1030
 2525 0feb 30       		.uleb128 0x30
 2526 0fec 1C000000 		.4byte	.LBB115
 2527 0ff0 0C000000 		.4byte	.LBE115-.LBB115
 2528 0ff4 23       		.uleb128 0x23
 2529 0ff5 0B0A0000 		.4byte	0xa0b
 2530 0ff9 31       		.uleb128 0x31
 2531 0ffa 6F080000 		.4byte	0x86f
 2532 0ffe 20000000 		.4byte	.LBB116
 2533 1002 08000000 		.4byte	.LBE116-.LBB116
 2534 1006 03       		.byte	0x3
 2535 1007 8F01     		.2byte	0x18f
 2536 1009 25100000 		.4byte	0x1025
 2537 100d 32       		.uleb128 0x32
 2538 100e 4C080000 		.4byte	0x84c
 2539 1012 20000000 		.4byte	.LBB117
 2540 1016 08000000 		.4byte	.LBE117-.LBB117
 2541 101a 0C       		.byte	0xc
 2542 101b 6D02     		.2byte	0x26d
 2543 101d 2D       		.uleb128 0x2d
 2544 101e 59080000 		.4byte	0x859
 2545 1022 00       		.byte	0
 2546 1023 00       		.byte	0
 2547 1024 00       		.byte	0
 2548 1025 2E       		.uleb128 0x2e
 2549 1026 20000000 		.4byte	.LVL41
 2550 102a 0C110000 		.4byte	0x110c
 2551 102e 00       		.byte	0
 2552 102f 00       		.byte	0
 2553 1030 3E       		.uleb128 0x3e
 2554 1031 18000000 		.4byte	.LVL39
 2555 1035 D00E0000 		.4byte	0xed0
 2556 1039 4A100000 		.4byte	0x104a
 2557 103d 29       		.uleb128 0x29
 2558 103e 01       		.uleb128 0x1
 2559 103f 51       		.byte	0x51
 2560 1040 02       		.uleb128 0x2
 2561 1041 74       		.byte	0x74
 2562 1042 00       		.sleb128 0
 2563 1043 29       		.uleb128 0x29
 2564 1044 01       		.uleb128 0x1
 2565 1045 50       		.byte	0x50
ARM GAS  /tmp/ccR7GbWV.s 			page 46


 2566 1046 02       		.uleb128 0x2
 2567 1047 75       		.byte	0x75
 2568 1048 00       		.sleb128 0
 2569 1049 00       		.byte	0
 2570 104a 2E       		.uleb128 0x2e
 2571 104b 1C000000 		.4byte	.LVL40
 2572 104f 5A110000 		.4byte	0x115a
 2573 1053 00       		.byte	0
 2574 1054 35       		.uleb128 0x35
 2575 1055 70060000 		.4byte	.LASF136
 2576 1059 01       		.byte	0x1
 2577 105a E7       		.byte	0xe7
 2578 105b 00000000 		.4byte	.LFB253
 2579 105f 1C000000 		.4byte	.LFE253-.LFB253
 2580 1063 01       		.uleb128 0x1
 2581 1064 9C       		.byte	0x9c
 2582 1065 D4100000 		.4byte	0x10d4
 2583 1069 25       		.uleb128 0x25
 2584 106a 676D7000 		.ascii	"gmp\000"
 2585 106e 01       		.byte	0x1
 2586 106f E7       		.byte	0xe7
 2587 1070 61090000 		.4byte	0x961
 2588 1074 80030000 		.4byte	.LLST28
 2589 1078 25       		.uleb128 0x25
 2590 1079 7000     		.ascii	"p\000"
 2591 107b 01       		.byte	0x1
 2592 107c E7       		.byte	0xe7
 2593 107d 25030000 		.4byte	0x325
 2594 1081 9E030000 		.4byte	.LLST29
 2595 1085 25       		.uleb128 0x25
 2596 1086 6E00     		.ascii	"n\000"
 2597 1088 01       		.byte	0x1
 2598 1089 E7       		.byte	0xe7
 2599 108a 2C000000 		.4byte	0x2c
 2600 108e BC030000 		.4byte	.LLST30
 2601 1092 27       		.uleb128 0x27
 2602 1093 92050000 		.4byte	.LASF117
 2603 1097 E4100000 		.4byte	0x10e4
 2604 109b 37       		.uleb128 0x37
 2605 109c 3E090000 		.4byte	0x93e
 2606 10a0 0A000000 		.4byte	.LBB119
 2607 10a4 08000000 		.4byte	.LBE119-.LBB119
 2608 10a8 01       		.byte	0x1
 2609 10a9 EC       		.byte	0xec
 2610 10aa 38       		.uleb128 0x38
 2611 10ab 55090000 		.4byte	0x955
 2612 10af F2030000 		.4byte	.LLST31
 2613 10b3 38       		.uleb128 0x38
 2614 10b4 4A090000 		.4byte	0x94a
 2615 10b8 05040000 		.4byte	.LLST32
 2616 10bc 33       		.uleb128 0x33
 2617 10bd 12000000 		.4byte	.LVL45
 2618 10c1 570F0000 		.4byte	0xf57
 2619 10c5 29       		.uleb128 0x29
 2620 10c6 01       		.uleb128 0x1
 2621 10c7 51       		.byte	0x51
 2622 10c8 02       		.uleb128 0x2
ARM GAS  /tmp/ccR7GbWV.s 			page 47


 2623 10c9 75       		.byte	0x75
 2624 10ca 00       		.sleb128 0
 2625 10cb 29       		.uleb128 0x29
 2626 10cc 01       		.uleb128 0x1
 2627 10cd 50       		.byte	0x50
 2628 10ce 02       		.uleb128 0x2
 2629 10cf 76       		.byte	0x76
 2630 10d0 00       		.sleb128 0
 2631 10d1 00       		.byte	0
 2632 10d2 00       		.byte	0
 2633 10d3 00       		.byte	0
 2634 10d4 1E       		.uleb128 0x1e
 2635 10d5 69070000 		.4byte	0x769
 2636 10d9 E4100000 		.4byte	0x10e4
 2637 10dd 1F       		.uleb128 0x1f
 2638 10de 5A040000 		.4byte	0x45a
 2639 10e2 16       		.byte	0x16
 2640 10e3 00       		.byte	0
 2641 10e4 13       		.uleb128 0x13
 2642 10e5 D4100000 		.4byte	0x10d4
 2643 10e9 41       		.uleb128 0x41
 2644 10ea 1D010000 		.4byte	.LASF137
 2645 10ee 12       		.byte	0x12
 2646 10ef 4407     		.2byte	0x744
 2647 10f1 F5100000 		.4byte	0x10f5
 2648 10f5 14       		.uleb128 0x14
 2649 10f6 AD000000 		.4byte	0xad
 2650 10fa 42       		.uleb128 0x42
 2651 10fb 636800   		.ascii	"ch\000"
 2652 10fe 0A       		.byte	0xa
 2653 10ff D201     		.2byte	0x1d2
 2654 1101 F4030000 		.4byte	0x3f4
 2655 1105 43       		.uleb128 0x43
 2656 1106 45070000 		.4byte	.LASF138
 2657 110a 0E       		.byte	0xe
 2658 110b 4F       		.byte	0x4f
 2659 110c 43       		.uleb128 0x43
 2660 110d 77030000 		.4byte	.LASF139
 2661 1111 0E       		.byte	0xe
 2662 1112 50       		.byte	0x50
 2663 1113 44       		.uleb128 0x44
 2664 1114 36020000 		.4byte	.LASF140
 2665 1118 0F       		.byte	0xf
 2666 1119 5B       		.byte	0x5b
 2667 111a 29110000 		.4byte	0x1129
 2668 111e 0D       		.uleb128 0xd
 2669 111f 29110000 		.4byte	0x1129
 2670 1123 0D       		.uleb128 0xd
 2671 1124 26010000 		.4byte	0x126
 2672 1128 00       		.byte	0
 2673 1129 0A       		.uleb128 0xa
 2674 112a 04       		.byte	0x4
 2675 112b 81070000 		.4byte	0x781
 2676 112f 45       		.uleb128 0x45
 2677 1130 1E060000 		.4byte	.LASF146
 2678 1134 0F       		.byte	0xf
 2679 1135 61       		.byte	0x61
ARM GAS  /tmp/ccR7GbWV.s 			page 48


 2680 1136 10010000 		.4byte	0x110
 2681 113a 49110000 		.4byte	0x1149
 2682 113e 0D       		.uleb128 0xd
 2683 113f 29110000 		.4byte	0x1129
 2684 1143 0D       		.uleb128 0xd
 2685 1144 3C010000 		.4byte	0x13c
 2686 1148 00       		.byte	0
 2687 1149 44       		.uleb128 0x44
 2688 114a 23000000 		.4byte	.LASF141
 2689 114e 0F       		.byte	0xf
 2690 114f 63       		.byte	0x63
 2691 1150 5A110000 		.4byte	0x115a
 2692 1154 0D       		.uleb128 0xd
 2693 1155 29110000 		.4byte	0x1129
 2694 1159 00       		.byte	0
 2695 115a 46       		.uleb128 0x46
 2696 115b C5010000 		.4byte	.LASF142
 2697 115f 0A       		.byte	0xa
 2698 1160 E101     		.2byte	0x1e1
 2699 1162 00       		.byte	0
 2700              		.section	.debug_abbrev,"",%progbits
 2701              	.Ldebug_abbrev0:
 2702 0000 01       		.uleb128 0x1
 2703 0001 11       		.uleb128 0x11
 2704 0002 01       		.byte	0x1
 2705 0003 25       		.uleb128 0x25
 2706 0004 0E       		.uleb128 0xe
 2707 0005 13       		.uleb128 0x13
 2708 0006 0B       		.uleb128 0xb
 2709 0007 03       		.uleb128 0x3
 2710 0008 0E       		.uleb128 0xe
 2711 0009 1B       		.uleb128 0x1b
 2712 000a 0E       		.uleb128 0xe
 2713 000b 55       		.uleb128 0x55
 2714 000c 17       		.uleb128 0x17
 2715 000d 11       		.uleb128 0x11
 2716 000e 01       		.uleb128 0x1
 2717 000f 10       		.uleb128 0x10
 2718 0010 17       		.uleb128 0x17
 2719 0011 00       		.byte	0
 2720 0012 00       		.byte	0
 2721 0013 02       		.uleb128 0x2
 2722 0014 24       		.uleb128 0x24
 2723 0015 00       		.byte	0
 2724 0016 0B       		.uleb128 0xb
 2725 0017 0B       		.uleb128 0xb
 2726 0018 3E       		.uleb128 0x3e
 2727 0019 0B       		.uleb128 0xb
 2728 001a 03       		.uleb128 0x3
 2729 001b 08       		.uleb128 0x8
 2730 001c 00       		.byte	0
 2731 001d 00       		.byte	0
 2732 001e 03       		.uleb128 0x3
 2733 001f 16       		.uleb128 0x16
 2734 0020 00       		.byte	0
 2735 0021 03       		.uleb128 0x3
 2736 0022 0E       		.uleb128 0xe
ARM GAS  /tmp/ccR7GbWV.s 			page 49


 2737 0023 3A       		.uleb128 0x3a
 2738 0024 0B       		.uleb128 0xb
 2739 0025 3B       		.uleb128 0x3b
 2740 0026 0B       		.uleb128 0xb
 2741 0027 49       		.uleb128 0x49
 2742 0028 13       		.uleb128 0x13
 2743 0029 00       		.byte	0
 2744 002a 00       		.byte	0
 2745 002b 04       		.uleb128 0x4
 2746 002c 24       		.uleb128 0x24
 2747 002d 00       		.byte	0
 2748 002e 0B       		.uleb128 0xb
 2749 002f 0B       		.uleb128 0xb
 2750 0030 3E       		.uleb128 0x3e
 2751 0031 0B       		.uleb128 0xb
 2752 0032 03       		.uleb128 0x3
 2753 0033 0E       		.uleb128 0xe
 2754 0034 00       		.byte	0
 2755 0035 00       		.byte	0
 2756 0036 05       		.uleb128 0x5
 2757 0037 13       		.uleb128 0x13
 2758 0038 01       		.byte	0x1
 2759 0039 03       		.uleb128 0x3
 2760 003a 0E       		.uleb128 0xe
 2761 003b 0B       		.uleb128 0xb
 2762 003c 0B       		.uleb128 0xb
 2763 003d 3A       		.uleb128 0x3a
 2764 003e 0B       		.uleb128 0xb
 2765 003f 3B       		.uleb128 0x3b
 2766 0040 0B       		.uleb128 0xb
 2767 0041 01       		.uleb128 0x1
 2768 0042 13       		.uleb128 0x13
 2769 0043 00       		.byte	0
 2770 0044 00       		.byte	0
 2771 0045 06       		.uleb128 0x6
 2772 0046 0D       		.uleb128 0xd
 2773 0047 00       		.byte	0
 2774 0048 03       		.uleb128 0x3
 2775 0049 0E       		.uleb128 0xe
 2776 004a 3A       		.uleb128 0x3a
 2777 004b 0B       		.uleb128 0xb
 2778 004c 3B       		.uleb128 0x3b
 2779 004d 0B       		.uleb128 0xb
 2780 004e 49       		.uleb128 0x49
 2781 004f 13       		.uleb128 0x13
 2782 0050 38       		.uleb128 0x38
 2783 0051 0B       		.uleb128 0xb
 2784 0052 00       		.byte	0
 2785 0053 00       		.byte	0
 2786 0054 07       		.uleb128 0x7
 2787 0055 0D       		.uleb128 0xd
 2788 0056 00       		.byte	0
 2789 0057 03       		.uleb128 0x3
 2790 0058 08       		.uleb128 0x8
 2791 0059 3A       		.uleb128 0x3a
 2792 005a 0B       		.uleb128 0xb
 2793 005b 3B       		.uleb128 0x3b
ARM GAS  /tmp/ccR7GbWV.s 			page 50


 2794 005c 0B       		.uleb128 0xb
 2795 005d 49       		.uleb128 0x49
 2796 005e 13       		.uleb128 0x13
 2797 005f 38       		.uleb128 0x38
 2798 0060 0B       		.uleb128 0xb
 2799 0061 00       		.byte	0
 2800 0062 00       		.byte	0
 2801 0063 08       		.uleb128 0x8
 2802 0064 0D       		.uleb128 0xd
 2803 0065 00       		.byte	0
 2804 0066 03       		.uleb128 0x3
 2805 0067 08       		.uleb128 0x8
 2806 0068 3A       		.uleb128 0x3a
 2807 0069 0B       		.uleb128 0xb
 2808 006a 3B       		.uleb128 0x3b
 2809 006b 05       		.uleb128 0x5
 2810 006c 49       		.uleb128 0x49
 2811 006d 13       		.uleb128 0x13
 2812 006e 38       		.uleb128 0x38
 2813 006f 0B       		.uleb128 0xb
 2814 0070 00       		.byte	0
 2815 0071 00       		.byte	0
 2816 0072 09       		.uleb128 0x9
 2817 0073 0D       		.uleb128 0xd
 2818 0074 00       		.byte	0
 2819 0075 03       		.uleb128 0x3
 2820 0076 0E       		.uleb128 0xe
 2821 0077 3A       		.uleb128 0x3a
 2822 0078 0B       		.uleb128 0xb
 2823 0079 3B       		.uleb128 0x3b
 2824 007a 05       		.uleb128 0x5
 2825 007b 49       		.uleb128 0x49
 2826 007c 13       		.uleb128 0x13
 2827 007d 38       		.uleb128 0x38
 2828 007e 0B       		.uleb128 0xb
 2829 007f 00       		.byte	0
 2830 0080 00       		.byte	0
 2831 0081 0A       		.uleb128 0xa
 2832 0082 0F       		.uleb128 0xf
 2833 0083 00       		.byte	0
 2834 0084 0B       		.uleb128 0xb
 2835 0085 0B       		.uleb128 0xb
 2836 0086 49       		.uleb128 0x49
 2837 0087 13       		.uleb128 0x13
 2838 0088 00       		.byte	0
 2839 0089 00       		.byte	0
 2840 008a 0B       		.uleb128 0xb
 2841 008b 13       		.uleb128 0x13
 2842 008c 01       		.byte	0x1
 2843 008d 03       		.uleb128 0x3
 2844 008e 0E       		.uleb128 0xe
 2845 008f 0B       		.uleb128 0xb
 2846 0090 0B       		.uleb128 0xb
 2847 0091 3A       		.uleb128 0x3a
 2848 0092 0B       		.uleb128 0xb
 2849 0093 3B       		.uleb128 0x3b
 2850 0094 05       		.uleb128 0x5
ARM GAS  /tmp/ccR7GbWV.s 			page 51


 2851 0095 01       		.uleb128 0x1
 2852 0096 13       		.uleb128 0x13
 2853 0097 00       		.byte	0
 2854 0098 00       		.byte	0
 2855 0099 0C       		.uleb128 0xc
 2856 009a 15       		.uleb128 0x15
 2857 009b 01       		.byte	0x1
 2858 009c 27       		.uleb128 0x27
 2859 009d 19       		.uleb128 0x19
 2860 009e 01       		.uleb128 0x1
 2861 009f 13       		.uleb128 0x13
 2862 00a0 00       		.byte	0
 2863 00a1 00       		.byte	0
 2864 00a2 0D       		.uleb128 0xd
 2865 00a3 05       		.uleb128 0x5
 2866 00a4 00       		.byte	0
 2867 00a5 49       		.uleb128 0x49
 2868 00a6 13       		.uleb128 0x13
 2869 00a7 00       		.byte	0
 2870 00a8 00       		.byte	0
 2871 00a9 0E       		.uleb128 0xe
 2872 00aa 0F       		.uleb128 0xf
 2873 00ab 00       		.byte	0
 2874 00ac 0B       		.uleb128 0xb
 2875 00ad 0B       		.uleb128 0xb
 2876 00ae 00       		.byte	0
 2877 00af 00       		.byte	0
 2878 00b0 0F       		.uleb128 0xf
 2879 00b1 13       		.uleb128 0x13
 2880 00b2 01       		.byte	0x1
 2881 00b3 0B       		.uleb128 0xb
 2882 00b4 0B       		.uleb128 0xb
 2883 00b5 3A       		.uleb128 0x3a
 2884 00b6 0B       		.uleb128 0xb
 2885 00b7 3B       		.uleb128 0x3b
 2886 00b8 0B       		.uleb128 0xb
 2887 00b9 01       		.uleb128 0x1
 2888 00ba 13       		.uleb128 0x13
 2889 00bb 00       		.byte	0
 2890 00bc 00       		.byte	0
 2891 00bd 10       		.uleb128 0x10
 2892 00be 17       		.uleb128 0x17
 2893 00bf 01       		.byte	0x1
 2894 00c0 0B       		.uleb128 0xb
 2895 00c1 0B       		.uleb128 0xb
 2896 00c2 3A       		.uleb128 0x3a
 2897 00c3 0B       		.uleb128 0xb
 2898 00c4 3B       		.uleb128 0x3b
 2899 00c5 0B       		.uleb128 0xb
 2900 00c6 01       		.uleb128 0x1
 2901 00c7 13       		.uleb128 0x13
 2902 00c8 00       		.byte	0
 2903 00c9 00       		.byte	0
 2904 00ca 11       		.uleb128 0x11
 2905 00cb 0D       		.uleb128 0xd
 2906 00cc 00       		.byte	0
 2907 00cd 03       		.uleb128 0x3
ARM GAS  /tmp/ccR7GbWV.s 			page 52


 2908 00ce 0E       		.uleb128 0xe
 2909 00cf 3A       		.uleb128 0x3a
 2910 00d0 0B       		.uleb128 0xb
 2911 00d1 3B       		.uleb128 0x3b
 2912 00d2 0B       		.uleb128 0xb
 2913 00d3 49       		.uleb128 0x49
 2914 00d4 13       		.uleb128 0x13
 2915 00d5 00       		.byte	0
 2916 00d6 00       		.byte	0
 2917 00d7 12       		.uleb128 0x12
 2918 00d8 0D       		.uleb128 0xd
 2919 00d9 00       		.byte	0
 2920 00da 03       		.uleb128 0x3
 2921 00db 0E       		.uleb128 0xe
 2922 00dc 3A       		.uleb128 0x3a
 2923 00dd 0B       		.uleb128 0xb
 2924 00de 3B       		.uleb128 0x3b
 2925 00df 05       		.uleb128 0x5
 2926 00e0 49       		.uleb128 0x49
 2927 00e1 13       		.uleb128 0x13
 2928 00e2 00       		.byte	0
 2929 00e3 00       		.byte	0
 2930 00e4 13       		.uleb128 0x13
 2931 00e5 26       		.uleb128 0x26
 2932 00e6 00       		.byte	0
 2933 00e7 49       		.uleb128 0x49
 2934 00e8 13       		.uleb128 0x13
 2935 00e9 00       		.byte	0
 2936 00ea 00       		.byte	0
 2937 00eb 14       		.uleb128 0x14
 2938 00ec 35       		.uleb128 0x35
 2939 00ed 00       		.byte	0
 2940 00ee 49       		.uleb128 0x49
 2941 00ef 13       		.uleb128 0x13
 2942 00f0 00       		.byte	0
 2943 00f1 00       		.byte	0
 2944 00f2 15       		.uleb128 0x15
 2945 00f3 15       		.uleb128 0x15
 2946 00f4 01       		.byte	0x1
 2947 00f5 27       		.uleb128 0x27
 2948 00f6 19       		.uleb128 0x19
 2949 00f7 49       		.uleb128 0x49
 2950 00f8 13       		.uleb128 0x13
 2951 00f9 01       		.uleb128 0x1
 2952 00fa 13       		.uleb128 0x13
 2953 00fb 00       		.byte	0
 2954 00fc 00       		.byte	0
 2955 00fd 16       		.uleb128 0x16
 2956 00fe 2E       		.uleb128 0x2e
 2957 00ff 01       		.byte	0x1
 2958 0100 03       		.uleb128 0x3
 2959 0101 0E       		.uleb128 0xe
 2960 0102 3A       		.uleb128 0x3a
 2961 0103 0B       		.uleb128 0xb
 2962 0104 3B       		.uleb128 0x3b
 2963 0105 05       		.uleb128 0x5
 2964 0106 27       		.uleb128 0x27
ARM GAS  /tmp/ccR7GbWV.s 			page 53


 2965 0107 19       		.uleb128 0x19
 2966 0108 20       		.uleb128 0x20
 2967 0109 0B       		.uleb128 0xb
 2968 010a 01       		.uleb128 0x1
 2969 010b 13       		.uleb128 0x13
 2970 010c 00       		.byte	0
 2971 010d 00       		.byte	0
 2972 010e 17       		.uleb128 0x17
 2973 010f 05       		.uleb128 0x5
 2974 0110 00       		.byte	0
 2975 0111 03       		.uleb128 0x3
 2976 0112 0E       		.uleb128 0xe
 2977 0113 3A       		.uleb128 0x3a
 2978 0114 0B       		.uleb128 0xb
 2979 0115 3B       		.uleb128 0x3b
 2980 0116 05       		.uleb128 0x5
 2981 0117 49       		.uleb128 0x49
 2982 0118 13       		.uleb128 0x13
 2983 0119 00       		.byte	0
 2984 011a 00       		.byte	0
 2985 011b 18       		.uleb128 0x18
 2986 011c 2E       		.uleb128 0x2e
 2987 011d 00       		.byte	0
 2988 011e 03       		.uleb128 0x3
 2989 011f 0E       		.uleb128 0xe
 2990 0120 3A       		.uleb128 0x3a
 2991 0121 0B       		.uleb128 0xb
 2992 0122 3B       		.uleb128 0x3b
 2993 0123 05       		.uleb128 0x5
 2994 0124 27       		.uleb128 0x27
 2995 0125 19       		.uleb128 0x19
 2996 0126 20       		.uleb128 0x20
 2997 0127 0B       		.uleb128 0xb
 2998 0128 00       		.byte	0
 2999 0129 00       		.byte	0
 3000 012a 19       		.uleb128 0x19
 3001 012b 2E       		.uleb128 0x2e
 3002 012c 01       		.byte	0x1
 3003 012d 3F       		.uleb128 0x3f
 3004 012e 19       		.uleb128 0x19
 3005 012f 03       		.uleb128 0x3
 3006 0130 0E       		.uleb128 0xe
 3007 0131 3A       		.uleb128 0x3a
 3008 0132 0B       		.uleb128 0xb
 3009 0133 3B       		.uleb128 0x3b
 3010 0134 0B       		.uleb128 0xb
 3011 0135 27       		.uleb128 0x27
 3012 0136 19       		.uleb128 0x19
 3013 0137 20       		.uleb128 0x20
 3014 0138 0B       		.uleb128 0xb
 3015 0139 01       		.uleb128 0x1
 3016 013a 13       		.uleb128 0x13
 3017 013b 00       		.byte	0
 3018 013c 00       		.byte	0
 3019 013d 1A       		.uleb128 0x1a
 3020 013e 05       		.uleb128 0x5
 3021 013f 00       		.byte	0
ARM GAS  /tmp/ccR7GbWV.s 			page 54


 3022 0140 03       		.uleb128 0x3
 3023 0141 08       		.uleb128 0x8
 3024 0142 3A       		.uleb128 0x3a
 3025 0143 0B       		.uleb128 0xb
 3026 0144 3B       		.uleb128 0x3b
 3027 0145 0B       		.uleb128 0xb
 3028 0146 49       		.uleb128 0x49
 3029 0147 13       		.uleb128 0x13
 3030 0148 00       		.byte	0
 3031 0149 00       		.byte	0
 3032 014a 1B       		.uleb128 0x1b
 3033 014b 05       		.uleb128 0x5
 3034 014c 00       		.byte	0
 3035 014d 03       		.uleb128 0x3
 3036 014e 0E       		.uleb128 0xe
 3037 014f 3A       		.uleb128 0x3a
 3038 0150 0B       		.uleb128 0xb
 3039 0151 3B       		.uleb128 0x3b
 3040 0152 0B       		.uleb128 0xb
 3041 0153 49       		.uleb128 0x49
 3042 0154 13       		.uleb128 0x13
 3043 0155 00       		.byte	0
 3044 0156 00       		.byte	0
 3045 0157 1C       		.uleb128 0x1c
 3046 0158 34       		.uleb128 0x34
 3047 0159 00       		.byte	0
 3048 015a 03       		.uleb128 0x3
 3049 015b 08       		.uleb128 0x8
 3050 015c 3A       		.uleb128 0x3a
 3051 015d 0B       		.uleb128 0xb
 3052 015e 3B       		.uleb128 0x3b
 3053 015f 0B       		.uleb128 0xb
 3054 0160 49       		.uleb128 0x49
 3055 0161 13       		.uleb128 0x13
 3056 0162 00       		.byte	0
 3057 0163 00       		.byte	0
 3058 0164 1D       		.uleb128 0x1d
 3059 0165 34       		.uleb128 0x34
 3060 0166 00       		.byte	0
 3061 0167 03       		.uleb128 0x3
 3062 0168 0E       		.uleb128 0xe
 3063 0169 49       		.uleb128 0x49
 3064 016a 13       		.uleb128 0x13
 3065 016b 34       		.uleb128 0x34
 3066 016c 19       		.uleb128 0x19
 3067 016d 1C       		.uleb128 0x1c
 3068 016e 0E       		.uleb128 0xe
 3069 016f 00       		.byte	0
 3070 0170 00       		.byte	0
 3071 0171 1E       		.uleb128 0x1e
 3072 0172 01       		.uleb128 0x1
 3073 0173 01       		.byte	0x1
 3074 0174 49       		.uleb128 0x49
 3075 0175 13       		.uleb128 0x13
 3076 0176 01       		.uleb128 0x1
 3077 0177 13       		.uleb128 0x13
 3078 0178 00       		.byte	0
ARM GAS  /tmp/ccR7GbWV.s 			page 55


 3079 0179 00       		.byte	0
 3080 017a 1F       		.uleb128 0x1f
 3081 017b 21       		.uleb128 0x21
 3082 017c 00       		.byte	0
 3083 017d 49       		.uleb128 0x49
 3084 017e 13       		.uleb128 0x13
 3085 017f 2F       		.uleb128 0x2f
 3086 0180 0B       		.uleb128 0xb
 3087 0181 00       		.byte	0
 3088 0182 00       		.byte	0
 3089 0183 20       		.uleb128 0x20
 3090 0184 2E       		.uleb128 0x2e
 3091 0185 01       		.byte	0x1
 3092 0186 03       		.uleb128 0x3
 3093 0187 0E       		.uleb128 0xe
 3094 0188 3A       		.uleb128 0x3a
 3095 0189 0B       		.uleb128 0xb
 3096 018a 3B       		.uleb128 0x3b
 3097 018b 0B       		.uleb128 0xb
 3098 018c 27       		.uleb128 0x27
 3099 018d 19       		.uleb128 0x19
 3100 018e 20       		.uleb128 0x20
 3101 018f 0B       		.uleb128 0xb
 3102 0190 01       		.uleb128 0x1
 3103 0191 13       		.uleb128 0x13
 3104 0192 00       		.byte	0
 3105 0193 00       		.byte	0
 3106 0194 21       		.uleb128 0x21
 3107 0195 2E       		.uleb128 0x2e
 3108 0196 01       		.byte	0x1
 3109 0197 31       		.uleb128 0x31
 3110 0198 13       		.uleb128 0x13
 3111 0199 11       		.uleb128 0x11
 3112 019a 01       		.uleb128 0x1
 3113 019b 12       		.uleb128 0x12
 3114 019c 06       		.uleb128 0x6
 3115 019d 40       		.uleb128 0x40
 3116 019e 18       		.uleb128 0x18
 3117 019f 9742     		.uleb128 0x2117
 3118 01a1 19       		.uleb128 0x19
 3119 01a2 01       		.uleb128 0x1
 3120 01a3 13       		.uleb128 0x13
 3121 01a4 00       		.byte	0
 3122 01a5 00       		.byte	0
 3123 01a6 22       		.uleb128 0x22
 3124 01a7 05       		.uleb128 0x5
 3125 01a8 00       		.byte	0
 3126 01a9 31       		.uleb128 0x31
 3127 01aa 13       		.uleb128 0x13
 3128 01ab 02       		.uleb128 0x2
 3129 01ac 18       		.uleb128 0x18
 3130 01ad 00       		.byte	0
 3131 01ae 00       		.byte	0
 3132 01af 23       		.uleb128 0x23
 3133 01b0 34       		.uleb128 0x34
 3134 01b1 00       		.byte	0
 3135 01b2 31       		.uleb128 0x31
ARM GAS  /tmp/ccR7GbWV.s 			page 56


 3136 01b3 13       		.uleb128 0x13
 3137 01b4 00       		.byte	0
 3138 01b5 00       		.byte	0
 3139 01b6 24       		.uleb128 0x24
 3140 01b7 2E       		.uleb128 0x2e
 3141 01b8 01       		.byte	0x1
 3142 01b9 3F       		.uleb128 0x3f
 3143 01ba 19       		.uleb128 0x19
 3144 01bb 03       		.uleb128 0x3
 3145 01bc 0E       		.uleb128 0xe
 3146 01bd 3A       		.uleb128 0x3a
 3147 01be 0B       		.uleb128 0xb
 3148 01bf 3B       		.uleb128 0x3b
 3149 01c0 0B       		.uleb128 0xb
 3150 01c1 27       		.uleb128 0x27
 3151 01c2 19       		.uleb128 0x19
 3152 01c3 49       		.uleb128 0x49
 3153 01c4 13       		.uleb128 0x13
 3154 01c5 11       		.uleb128 0x11
 3155 01c6 01       		.uleb128 0x1
 3156 01c7 12       		.uleb128 0x12
 3157 01c8 06       		.uleb128 0x6
 3158 01c9 40       		.uleb128 0x40
 3159 01ca 18       		.uleb128 0x18
 3160 01cb 9742     		.uleb128 0x2117
 3161 01cd 19       		.uleb128 0x19
 3162 01ce 01       		.uleb128 0x1
 3163 01cf 13       		.uleb128 0x13
 3164 01d0 00       		.byte	0
 3165 01d1 00       		.byte	0
 3166 01d2 25       		.uleb128 0x25
 3167 01d3 05       		.uleb128 0x5
 3168 01d4 00       		.byte	0
 3169 01d5 03       		.uleb128 0x3
 3170 01d6 08       		.uleb128 0x8
 3171 01d7 3A       		.uleb128 0x3a
 3172 01d8 0B       		.uleb128 0xb
 3173 01d9 3B       		.uleb128 0x3b
 3174 01da 0B       		.uleb128 0xb
 3175 01db 49       		.uleb128 0x49
 3176 01dc 13       		.uleb128 0x13
 3177 01dd 02       		.uleb128 0x2
 3178 01de 17       		.uleb128 0x17
 3179 01df 00       		.byte	0
 3180 01e0 00       		.byte	0
 3181 01e1 26       		.uleb128 0x26
 3182 01e2 34       		.uleb128 0x34
 3183 01e3 00       		.byte	0
 3184 01e4 03       		.uleb128 0x3
 3185 01e5 0E       		.uleb128 0xe
 3186 01e6 3A       		.uleb128 0x3a
 3187 01e7 0B       		.uleb128 0xb
 3188 01e8 3B       		.uleb128 0x3b
 3189 01e9 0B       		.uleb128 0xb
 3190 01ea 49       		.uleb128 0x49
 3191 01eb 13       		.uleb128 0x13
 3192 01ec 02       		.uleb128 0x2
ARM GAS  /tmp/ccR7GbWV.s 			page 57


 3193 01ed 17       		.uleb128 0x17
 3194 01ee 00       		.byte	0
 3195 01ef 00       		.byte	0
 3196 01f0 27       		.uleb128 0x27
 3197 01f1 34       		.uleb128 0x34
 3198 01f2 00       		.byte	0
 3199 01f3 03       		.uleb128 0x3
 3200 01f4 0E       		.uleb128 0xe
 3201 01f5 49       		.uleb128 0x49
 3202 01f6 13       		.uleb128 0x13
 3203 01f7 34       		.uleb128 0x34
 3204 01f8 19       		.uleb128 0x19
 3205 01f9 00       		.byte	0
 3206 01fa 00       		.byte	0
 3207 01fb 28       		.uleb128 0x28
 3208 01fc 898201   		.uleb128 0x4109
 3209 01ff 01       		.byte	0x1
 3210 0200 11       		.uleb128 0x11
 3211 0201 01       		.uleb128 0x1
 3212 0202 9542     		.uleb128 0x2115
 3213 0204 19       		.uleb128 0x19
 3214 0205 00       		.byte	0
 3215 0206 00       		.byte	0
 3216 0207 29       		.uleb128 0x29
 3217 0208 8A8201   		.uleb128 0x410a
 3218 020b 00       		.byte	0
 3219 020c 02       		.uleb128 0x2
 3220 020d 18       		.uleb128 0x18
 3221 020e 9142     		.uleb128 0x2111
 3222 0210 18       		.uleb128 0x18
 3223 0211 00       		.byte	0
 3224 0212 00       		.byte	0
 3225 0213 2A       		.uleb128 0x2a
 3226 0214 1D       		.uleb128 0x1d
 3227 0215 01       		.byte	0x1
 3228 0216 31       		.uleb128 0x31
 3229 0217 13       		.uleb128 0x13
 3230 0218 52       		.uleb128 0x52
 3231 0219 01       		.uleb128 0x1
 3232 021a 55       		.uleb128 0x55
 3233 021b 17       		.uleb128 0x17
 3234 021c 58       		.uleb128 0x58
 3235 021d 0B       		.uleb128 0xb
 3236 021e 59       		.uleb128 0x59
 3237 021f 0B       		.uleb128 0xb
 3238 0220 01       		.uleb128 0x1
 3239 0221 13       		.uleb128 0x13
 3240 0222 00       		.byte	0
 3241 0223 00       		.byte	0
 3242 0224 2B       		.uleb128 0x2b
 3243 0225 1D       		.uleb128 0x1d
 3244 0226 01       		.byte	0x1
 3245 0227 31       		.uleb128 0x31
 3246 0228 13       		.uleb128 0x13
 3247 0229 52       		.uleb128 0x52
 3248 022a 01       		.uleb128 0x1
 3249 022b 55       		.uleb128 0x55
ARM GAS  /tmp/ccR7GbWV.s 			page 58


 3250 022c 17       		.uleb128 0x17
 3251 022d 58       		.uleb128 0x58
 3252 022e 0B       		.uleb128 0xb
 3253 022f 59       		.uleb128 0x59
 3254 0230 05       		.uleb128 0x5
 3255 0231 01       		.uleb128 0x1
 3256 0232 13       		.uleb128 0x13
 3257 0233 00       		.byte	0
 3258 0234 00       		.byte	0
 3259 0235 2C       		.uleb128 0x2c
 3260 0236 1D       		.uleb128 0x1d
 3261 0237 01       		.byte	0x1
 3262 0238 31       		.uleb128 0x31
 3263 0239 13       		.uleb128 0x13
 3264 023a 52       		.uleb128 0x52
 3265 023b 01       		.uleb128 0x1
 3266 023c 55       		.uleb128 0x55
 3267 023d 17       		.uleb128 0x17
 3268 023e 58       		.uleb128 0x58
 3269 023f 0B       		.uleb128 0xb
 3270 0240 59       		.uleb128 0x59
 3271 0241 05       		.uleb128 0x5
 3272 0242 00       		.byte	0
 3273 0243 00       		.byte	0
 3274 0244 2D       		.uleb128 0x2d
 3275 0245 05       		.uleb128 0x5
 3276 0246 00       		.byte	0
 3277 0247 31       		.uleb128 0x31
 3278 0248 13       		.uleb128 0x13
 3279 0249 1C       		.uleb128 0x1c
 3280 024a 0B       		.uleb128 0xb
 3281 024b 00       		.byte	0
 3282 024c 00       		.byte	0
 3283 024d 2E       		.uleb128 0x2e
 3284 024e 898201   		.uleb128 0x4109
 3285 0251 00       		.byte	0
 3286 0252 11       		.uleb128 0x11
 3287 0253 01       		.uleb128 0x1
 3288 0254 31       		.uleb128 0x31
 3289 0255 13       		.uleb128 0x13
 3290 0256 00       		.byte	0
 3291 0257 00       		.byte	0
 3292 0258 2F       		.uleb128 0x2f
 3293 0259 1D       		.uleb128 0x1d
 3294 025a 01       		.byte	0x1
 3295 025b 31       		.uleb128 0x31
 3296 025c 13       		.uleb128 0x13
 3297 025d 11       		.uleb128 0x11
 3298 025e 01       		.uleb128 0x1
 3299 025f 12       		.uleb128 0x12
 3300 0260 06       		.uleb128 0x6
 3301 0261 58       		.uleb128 0x58
 3302 0262 0B       		.uleb128 0xb
 3303 0263 59       		.uleb128 0x59
 3304 0264 0B       		.uleb128 0xb
 3305 0265 01       		.uleb128 0x1
 3306 0266 13       		.uleb128 0x13
ARM GAS  /tmp/ccR7GbWV.s 			page 59


 3307 0267 00       		.byte	0
 3308 0268 00       		.byte	0
 3309 0269 30       		.uleb128 0x30
 3310 026a 0B       		.uleb128 0xb
 3311 026b 01       		.byte	0x1
 3312 026c 11       		.uleb128 0x11
 3313 026d 01       		.uleb128 0x1
 3314 026e 12       		.uleb128 0x12
 3315 026f 06       		.uleb128 0x6
 3316 0270 00       		.byte	0
 3317 0271 00       		.byte	0
 3318 0272 31       		.uleb128 0x31
 3319 0273 1D       		.uleb128 0x1d
 3320 0274 01       		.byte	0x1
 3321 0275 31       		.uleb128 0x31
 3322 0276 13       		.uleb128 0x13
 3323 0277 11       		.uleb128 0x11
 3324 0278 01       		.uleb128 0x1
 3325 0279 12       		.uleb128 0x12
 3326 027a 06       		.uleb128 0x6
 3327 027b 58       		.uleb128 0x58
 3328 027c 0B       		.uleb128 0xb
 3329 027d 59       		.uleb128 0x59
 3330 027e 05       		.uleb128 0x5
 3331 027f 01       		.uleb128 0x1
 3332 0280 13       		.uleb128 0x13
 3333 0281 00       		.byte	0
 3334 0282 00       		.byte	0
 3335 0283 32       		.uleb128 0x32
 3336 0284 1D       		.uleb128 0x1d
 3337 0285 01       		.byte	0x1
 3338 0286 31       		.uleb128 0x31
 3339 0287 13       		.uleb128 0x13
 3340 0288 11       		.uleb128 0x11
 3341 0289 01       		.uleb128 0x1
 3342 028a 12       		.uleb128 0x12
 3343 028b 06       		.uleb128 0x6
 3344 028c 58       		.uleb128 0x58
 3345 028d 0B       		.uleb128 0xb
 3346 028e 59       		.uleb128 0x59
 3347 028f 05       		.uleb128 0x5
 3348 0290 00       		.byte	0
 3349 0291 00       		.byte	0
 3350 0292 33       		.uleb128 0x33
 3351 0293 898201   		.uleb128 0x4109
 3352 0296 01       		.byte	0x1
 3353 0297 11       		.uleb128 0x11
 3354 0298 01       		.uleb128 0x1
 3355 0299 31       		.uleb128 0x31
 3356 029a 13       		.uleb128 0x13
 3357 029b 00       		.byte	0
 3358 029c 00       		.byte	0
 3359 029d 34       		.uleb128 0x34
 3360 029e 34       		.uleb128 0x34
 3361 029f 00       		.byte	0
 3362 02a0 31       		.uleb128 0x31
 3363 02a1 13       		.uleb128 0x13
ARM GAS  /tmp/ccR7GbWV.s 			page 60


 3364 02a2 02       		.uleb128 0x2
 3365 02a3 18       		.uleb128 0x18
 3366 02a4 00       		.byte	0
 3367 02a5 00       		.byte	0
 3368 02a6 35       		.uleb128 0x35
 3369 02a7 2E       		.uleb128 0x2e
 3370 02a8 01       		.byte	0x1
 3371 02a9 3F       		.uleb128 0x3f
 3372 02aa 19       		.uleb128 0x19
 3373 02ab 03       		.uleb128 0x3
 3374 02ac 0E       		.uleb128 0xe
 3375 02ad 3A       		.uleb128 0x3a
 3376 02ae 0B       		.uleb128 0xb
 3377 02af 3B       		.uleb128 0x3b
 3378 02b0 0B       		.uleb128 0xb
 3379 02b1 27       		.uleb128 0x27
 3380 02b2 19       		.uleb128 0x19
 3381 02b3 11       		.uleb128 0x11
 3382 02b4 01       		.uleb128 0x1
 3383 02b5 12       		.uleb128 0x12
 3384 02b6 06       		.uleb128 0x6
 3385 02b7 40       		.uleb128 0x40
 3386 02b8 18       		.uleb128 0x18
 3387 02b9 9742     		.uleb128 0x2117
 3388 02bb 19       		.uleb128 0x19
 3389 02bc 01       		.uleb128 0x1
 3390 02bd 13       		.uleb128 0x13
 3391 02be 00       		.byte	0
 3392 02bf 00       		.byte	0
 3393 02c0 36       		.uleb128 0x36
 3394 02c1 05       		.uleb128 0x5
 3395 02c2 00       		.byte	0
 3396 02c3 03       		.uleb128 0x3
 3397 02c4 0E       		.uleb128 0xe
 3398 02c5 3A       		.uleb128 0x3a
 3399 02c6 0B       		.uleb128 0xb
 3400 02c7 3B       		.uleb128 0x3b
 3401 02c8 0B       		.uleb128 0xb
 3402 02c9 49       		.uleb128 0x49
 3403 02ca 13       		.uleb128 0x13
 3404 02cb 02       		.uleb128 0x2
 3405 02cc 17       		.uleb128 0x17
 3406 02cd 00       		.byte	0
 3407 02ce 00       		.byte	0
 3408 02cf 37       		.uleb128 0x37
 3409 02d0 1D       		.uleb128 0x1d
 3410 02d1 01       		.byte	0x1
 3411 02d2 31       		.uleb128 0x31
 3412 02d3 13       		.uleb128 0x13
 3413 02d4 11       		.uleb128 0x11
 3414 02d5 01       		.uleb128 0x1
 3415 02d6 12       		.uleb128 0x12
 3416 02d7 06       		.uleb128 0x6
 3417 02d8 58       		.uleb128 0x58
 3418 02d9 0B       		.uleb128 0xb
 3419 02da 59       		.uleb128 0x59
 3420 02db 0B       		.uleb128 0xb
ARM GAS  /tmp/ccR7GbWV.s 			page 61


 3421 02dc 00       		.byte	0
 3422 02dd 00       		.byte	0
 3423 02de 38       		.uleb128 0x38
 3424 02df 05       		.uleb128 0x5
 3425 02e0 00       		.byte	0
 3426 02e1 31       		.uleb128 0x31
 3427 02e2 13       		.uleb128 0x13
 3428 02e3 02       		.uleb128 0x2
 3429 02e4 17       		.uleb128 0x17
 3430 02e5 00       		.byte	0
 3431 02e6 00       		.byte	0
 3432 02e7 39       		.uleb128 0x39
 3433 02e8 898201   		.uleb128 0x4109
 3434 02eb 01       		.byte	0x1
 3435 02ec 11       		.uleb128 0x11
 3436 02ed 01       		.uleb128 0x1
 3437 02ee 9542     		.uleb128 0x2115
 3438 02f0 19       		.uleb128 0x19
 3439 02f1 31       		.uleb128 0x31
 3440 02f2 13       		.uleb128 0x13
 3441 02f3 00       		.byte	0
 3442 02f4 00       		.byte	0
 3443 02f5 3A       		.uleb128 0x3a
 3444 02f6 2E       		.uleb128 0x2e
 3445 02f7 01       		.byte	0x1
 3446 02f8 3F       		.uleb128 0x3f
 3447 02f9 19       		.uleb128 0x19
 3448 02fa 03       		.uleb128 0x3
 3449 02fb 0E       		.uleb128 0xe
 3450 02fc 3A       		.uleb128 0x3a
 3451 02fd 0B       		.uleb128 0xb
 3452 02fe 3B       		.uleb128 0x3b
 3453 02ff 05       		.uleb128 0x5
 3454 0300 27       		.uleb128 0x27
 3455 0301 19       		.uleb128 0x19
 3456 0302 49       		.uleb128 0x49
 3457 0303 13       		.uleb128 0x13
 3458 0304 11       		.uleb128 0x11
 3459 0305 01       		.uleb128 0x1
 3460 0306 12       		.uleb128 0x12
 3461 0307 06       		.uleb128 0x6
 3462 0308 40       		.uleb128 0x40
 3463 0309 18       		.uleb128 0x18
 3464 030a 9742     		.uleb128 0x2117
 3465 030c 19       		.uleb128 0x19
 3466 030d 01       		.uleb128 0x1
 3467 030e 13       		.uleb128 0x13
 3468 030f 00       		.byte	0
 3469 0310 00       		.byte	0
 3470 0311 3B       		.uleb128 0x3b
 3471 0312 05       		.uleb128 0x5
 3472 0313 00       		.byte	0
 3473 0314 03       		.uleb128 0x3
 3474 0315 08       		.uleb128 0x8
 3475 0316 3A       		.uleb128 0x3a
 3476 0317 0B       		.uleb128 0xb
 3477 0318 3B       		.uleb128 0x3b
ARM GAS  /tmp/ccR7GbWV.s 			page 62


 3478 0319 05       		.uleb128 0x5
 3479 031a 49       		.uleb128 0x49
 3480 031b 13       		.uleb128 0x13
 3481 031c 02       		.uleb128 0x2
 3482 031d 17       		.uleb128 0x17
 3483 031e 00       		.byte	0
 3484 031f 00       		.byte	0
 3485 0320 3C       		.uleb128 0x3c
 3486 0321 05       		.uleb128 0x5
 3487 0322 00       		.byte	0
 3488 0323 03       		.uleb128 0x3
 3489 0324 0E       		.uleb128 0xe
 3490 0325 3A       		.uleb128 0x3a
 3491 0326 0B       		.uleb128 0xb
 3492 0327 3B       		.uleb128 0x3b
 3493 0328 05       		.uleb128 0x5
 3494 0329 49       		.uleb128 0x49
 3495 032a 13       		.uleb128 0x13
 3496 032b 02       		.uleb128 0x2
 3497 032c 17       		.uleb128 0x17
 3498 032d 00       		.byte	0
 3499 032e 00       		.byte	0
 3500 032f 3D       		.uleb128 0x3d
 3501 0330 34       		.uleb128 0x34
 3502 0331 00       		.byte	0
 3503 0332 03       		.uleb128 0x3
 3504 0333 08       		.uleb128 0x8
 3505 0334 3A       		.uleb128 0x3a
 3506 0335 0B       		.uleb128 0xb
 3507 0336 3B       		.uleb128 0x3b
 3508 0337 05       		.uleb128 0x5
 3509 0338 49       		.uleb128 0x49
 3510 0339 13       		.uleb128 0x13
 3511 033a 02       		.uleb128 0x2
 3512 033b 17       		.uleb128 0x17
 3513 033c 00       		.byte	0
 3514 033d 00       		.byte	0
 3515 033e 3E       		.uleb128 0x3e
 3516 033f 898201   		.uleb128 0x4109
 3517 0342 01       		.byte	0x1
 3518 0343 11       		.uleb128 0x11
 3519 0344 01       		.uleb128 0x1
 3520 0345 31       		.uleb128 0x31
 3521 0346 13       		.uleb128 0x13
 3522 0347 01       		.uleb128 0x1
 3523 0348 13       		.uleb128 0x13
 3524 0349 00       		.byte	0
 3525 034a 00       		.byte	0
 3526 034b 3F       		.uleb128 0x3f
 3527 034c 2E       		.uleb128 0x2e
 3528 034d 01       		.byte	0x1
 3529 034e 3F       		.uleb128 0x3f
 3530 034f 19       		.uleb128 0x19
 3531 0350 03       		.uleb128 0x3
 3532 0351 0E       		.uleb128 0xe
 3533 0352 3A       		.uleb128 0x3a
 3534 0353 0B       		.uleb128 0xb
ARM GAS  /tmp/ccR7GbWV.s 			page 63


 3535 0354 3B       		.uleb128 0x3b
 3536 0355 05       		.uleb128 0x5
 3537 0356 27       		.uleb128 0x27
 3538 0357 19       		.uleb128 0x19
 3539 0358 11       		.uleb128 0x11
 3540 0359 01       		.uleb128 0x1
 3541 035a 12       		.uleb128 0x12
 3542 035b 06       		.uleb128 0x6
 3543 035c 40       		.uleb128 0x40
 3544 035d 18       		.uleb128 0x18
 3545 035e 9742     		.uleb128 0x2117
 3546 0360 19       		.uleb128 0x19
 3547 0361 01       		.uleb128 0x1
 3548 0362 13       		.uleb128 0x13
 3549 0363 00       		.byte	0
 3550 0364 00       		.byte	0
 3551 0365 40       		.uleb128 0x40
 3552 0366 34       		.uleb128 0x34
 3553 0367 00       		.byte	0
 3554 0368 31       		.uleb128 0x31
 3555 0369 13       		.uleb128 0x13
 3556 036a 02       		.uleb128 0x2
 3557 036b 17       		.uleb128 0x17
 3558 036c 00       		.byte	0
 3559 036d 00       		.byte	0
 3560 036e 41       		.uleb128 0x41
 3561 036f 34       		.uleb128 0x34
 3562 0370 00       		.byte	0
 3563 0371 03       		.uleb128 0x3
 3564 0372 0E       		.uleb128 0xe
 3565 0373 3A       		.uleb128 0x3a
 3566 0374 0B       		.uleb128 0xb
 3567 0375 3B       		.uleb128 0x3b
 3568 0376 05       		.uleb128 0x5
 3569 0377 49       		.uleb128 0x49
 3570 0378 13       		.uleb128 0x13
 3571 0379 3F       		.uleb128 0x3f
 3572 037a 19       		.uleb128 0x19
 3573 037b 3C       		.uleb128 0x3c
 3574 037c 19       		.uleb128 0x19
 3575 037d 00       		.byte	0
 3576 037e 00       		.byte	0
 3577 037f 42       		.uleb128 0x42
 3578 0380 34       		.uleb128 0x34
 3579 0381 00       		.byte	0
 3580 0382 03       		.uleb128 0x3
 3581 0383 08       		.uleb128 0x8
 3582 0384 3A       		.uleb128 0x3a
 3583 0385 0B       		.uleb128 0xb
 3584 0386 3B       		.uleb128 0x3b
 3585 0387 05       		.uleb128 0x5
 3586 0388 49       		.uleb128 0x49
 3587 0389 13       		.uleb128 0x13
 3588 038a 3F       		.uleb128 0x3f
 3589 038b 19       		.uleb128 0x19
 3590 038c 3C       		.uleb128 0x3c
 3591 038d 19       		.uleb128 0x19
ARM GAS  /tmp/ccR7GbWV.s 			page 64


 3592 038e 00       		.byte	0
 3593 038f 00       		.byte	0
 3594 0390 43       		.uleb128 0x43
 3595 0391 2E       		.uleb128 0x2e
 3596 0392 00       		.byte	0
 3597 0393 3F       		.uleb128 0x3f
 3598 0394 19       		.uleb128 0x19
 3599 0395 03       		.uleb128 0x3
 3600 0396 0E       		.uleb128 0xe
 3601 0397 3A       		.uleb128 0x3a
 3602 0398 0B       		.uleb128 0xb
 3603 0399 3B       		.uleb128 0x3b
 3604 039a 0B       		.uleb128 0xb
 3605 039b 27       		.uleb128 0x27
 3606 039c 19       		.uleb128 0x19
 3607 039d 3C       		.uleb128 0x3c
 3608 039e 19       		.uleb128 0x19
 3609 039f 00       		.byte	0
 3610 03a0 00       		.byte	0
 3611 03a1 44       		.uleb128 0x44
 3612 03a2 2E       		.uleb128 0x2e
 3613 03a3 01       		.byte	0x1
 3614 03a4 3F       		.uleb128 0x3f
 3615 03a5 19       		.uleb128 0x19
 3616 03a6 03       		.uleb128 0x3
 3617 03a7 0E       		.uleb128 0xe
 3618 03a8 3A       		.uleb128 0x3a
 3619 03a9 0B       		.uleb128 0xb
 3620 03aa 3B       		.uleb128 0x3b
 3621 03ab 0B       		.uleb128 0xb
 3622 03ac 27       		.uleb128 0x27
 3623 03ad 19       		.uleb128 0x19
 3624 03ae 3C       		.uleb128 0x3c
 3625 03af 19       		.uleb128 0x19
 3626 03b0 01       		.uleb128 0x1
 3627 03b1 13       		.uleb128 0x13
 3628 03b2 00       		.byte	0
 3629 03b3 00       		.byte	0
 3630 03b4 45       		.uleb128 0x45
 3631 03b5 2E       		.uleb128 0x2e
 3632 03b6 01       		.byte	0x1
 3633 03b7 3F       		.uleb128 0x3f
 3634 03b8 19       		.uleb128 0x19
 3635 03b9 03       		.uleb128 0x3
 3636 03ba 0E       		.uleb128 0xe
 3637 03bb 3A       		.uleb128 0x3a
 3638 03bc 0B       		.uleb128 0xb
 3639 03bd 3B       		.uleb128 0x3b
 3640 03be 0B       		.uleb128 0xb
 3641 03bf 27       		.uleb128 0x27
 3642 03c0 19       		.uleb128 0x19
 3643 03c1 49       		.uleb128 0x49
 3644 03c2 13       		.uleb128 0x13
 3645 03c3 3C       		.uleb128 0x3c
 3646 03c4 19       		.uleb128 0x19
 3647 03c5 01       		.uleb128 0x1
 3648 03c6 13       		.uleb128 0x13
ARM GAS  /tmp/ccR7GbWV.s 			page 65


 3649 03c7 00       		.byte	0
 3650 03c8 00       		.byte	0
 3651 03c9 46       		.uleb128 0x46
 3652 03ca 2E       		.uleb128 0x2e
 3653 03cb 00       		.byte	0
 3654 03cc 3F       		.uleb128 0x3f
 3655 03cd 19       		.uleb128 0x19
 3656 03ce 03       		.uleb128 0x3
 3657 03cf 0E       		.uleb128 0xe
 3658 03d0 3A       		.uleb128 0x3a
 3659 03d1 0B       		.uleb128 0xb
 3660 03d2 3B       		.uleb128 0x3b
 3661 03d3 05       		.uleb128 0x5
 3662 03d4 27       		.uleb128 0x27
 3663 03d5 19       		.uleb128 0x19
 3664 03d6 3C       		.uleb128 0x3c
 3665 03d7 19       		.uleb128 0x19
 3666 03d8 00       		.byte	0
 3667 03d9 00       		.byte	0
 3668 03da 00       		.byte	0
 3669              		.section	.debug_loc,"",%progbits
 3670              	.Ldebug_loc0:
 3671              	.LLST0:
 3672 0000 00000000 		.4byte	.LVL1
 3673 0004 04000000 		.4byte	.LVL2
 3674 0008 0100     		.2byte	0x1
 3675 000a 50       		.byte	0x50
 3676 000b 04000000 		.4byte	.LVL2
 3677 000f 15000000 		.4byte	.LVL4-1
 3678 0013 0100     		.2byte	0x1
 3679 0015 53       		.byte	0x53
 3680 0016 15000000 		.4byte	.LVL4-1
 3681 001a 16000000 		.4byte	.LVL4
 3682 001e 0400     		.2byte	0x4
 3683 0020 F3       		.byte	0xf3
 3684 0021 01       		.uleb128 0x1
 3685 0022 50       		.byte	0x50
 3686 0023 9F       		.byte	0x9f
 3687 0024 16000000 		.4byte	.LVL4
 3688 0028 18000000 		.4byte	.LFE248
 3689 002c 0100     		.2byte	0x1
 3690 002e 53       		.byte	0x53
 3691 002f 00000000 		.4byte	0
 3692 0033 00000000 		.4byte	0
 3693              	.LLST1:
 3694 0037 04000000 		.4byte	.LVL2
 3695 003b 12000000 		.4byte	.LVL3
 3696 003f 0100     		.2byte	0x1
 3697 0041 50       		.byte	0x50
 3698 0042 12000000 		.4byte	.LVL3
 3699 0046 15000000 		.4byte	.LVL4-1
 3700 004a 0200     		.2byte	0x2
 3701 004c 73       		.byte	0x73
 3702 004d 00       		.sleb128 0
 3703 004e 16000000 		.4byte	.LVL4
 3704 0052 18000000 		.4byte	.LFE248
 3705 0056 0100     		.2byte	0x1
ARM GAS  /tmp/ccR7GbWV.s 			page 66


 3706 0058 50       		.byte	0x50
 3707 0059 00000000 		.4byte	0
 3708 005d 00000000 		.4byte	0
 3709              	.LLST2:
 3710 0061 00000000 		.4byte	.LVL5
 3711 0065 0D000000 		.4byte	.LVL6-1
 3712 0069 0100     		.2byte	0x1
 3713 006b 50       		.byte	0x50
 3714 006c 0D000000 		.4byte	.LVL6-1
 3715 0070 16000000 		.4byte	.LVL8
 3716 0074 0100     		.2byte	0x1
 3717 0076 54       		.byte	0x54
 3718 0077 16000000 		.4byte	.LVL8
 3719 007b 24000000 		.4byte	.LFE249
 3720 007f 0400     		.2byte	0x4
 3721 0081 F3       		.byte	0xf3
 3722 0082 01       		.uleb128 0x1
 3723 0083 50       		.byte	0x50
 3724 0084 9F       		.byte	0x9f
 3725 0085 00000000 		.4byte	0
 3726 0089 00000000 		.4byte	0
 3727              	.LLST3:
 3728 008d 16000000 		.4byte	.LVL8
 3729 0091 19000000 		.4byte	.LVL9-1
 3730 0095 0100     		.2byte	0x1
 3731 0097 50       		.byte	0x50
 3732 0098 19000000 		.4byte	.LVL9-1
 3733 009c 24000000 		.4byte	.LFE249
 3734 00a0 0100     		.2byte	0x1
 3735 00a2 54       		.byte	0x54
 3736 00a3 00000000 		.4byte	0
 3737 00a7 00000000 		.4byte	0
 3738              	.LLST4:
 3739 00ab 00000000 		.4byte	.LVL11
 3740 00af 0F000000 		.4byte	.LVL12-1
 3741 00b3 0100     		.2byte	0x1
 3742 00b5 50       		.byte	0x50
 3743 00b6 0F000000 		.4byte	.LVL12-1
 3744 00ba 22000000 		.4byte	.LFE251
 3745 00be 0100     		.2byte	0x1
 3746 00c0 54       		.byte	0x54
 3747 00c1 00000000 		.4byte	0
 3748 00c5 00000000 		.4byte	0
 3749              	.LLST5:
 3750 00c9 00000000 		.4byte	.LVL11
 3751 00cd 0F000000 		.4byte	.LVL12-1
 3752 00d1 0100     		.2byte	0x1
 3753 00d3 51       		.byte	0x51
 3754 00d4 0F000000 		.4byte	.LVL12-1
 3755 00d8 22000000 		.4byte	.LFE251
 3756 00dc 0100     		.2byte	0x1
 3757 00de 55       		.byte	0x55
 3758 00df 00000000 		.4byte	0
 3759 00e3 00000000 		.4byte	0
 3760              	.LLST6:
 3761 00e7 00000000 		.4byte	.LVL14
 3762 00eb 08000000 		.4byte	.LVL15
ARM GAS  /tmp/ccR7GbWV.s 			page 67


 3763 00ef 0100     		.2byte	0x1
 3764 00f1 50       		.byte	0x50
 3765 00f2 08000000 		.4byte	.LVL15
 3766 00f6 1C000000 		.4byte	.LFE247
 3767 00fa 0100     		.2byte	0x1
 3768 00fc 56       		.byte	0x56
 3769 00fd 00000000 		.4byte	0
 3770 0101 00000000 		.4byte	0
 3771              	.LLST7:
 3772 0105 00000000 		.4byte	.LVL14
 3773 0109 08000000 		.4byte	.LVL15
 3774 010d 0100     		.2byte	0x1
 3775 010f 51       		.byte	0x51
 3776 0110 08000000 		.4byte	.LVL15
 3777 0114 1C000000 		.4byte	.LFE247
 3778 0118 0100     		.2byte	0x1
 3779 011a 55       		.byte	0x55
 3780 011b 00000000 		.4byte	0
 3781 011f 00000000 		.4byte	0
 3782              	.LLST8:
 3783 0123 00000000 		.4byte	.LVL14
 3784 0127 08000000 		.4byte	.LVL15
 3785 012b 0100     		.2byte	0x1
 3786 012d 52       		.byte	0x52
 3787 012e 08000000 		.4byte	.LVL15
 3788 0132 16000000 		.4byte	.LVL18
 3789 0136 0100     		.2byte	0x1
 3790 0138 54       		.byte	0x54
 3791 0139 16000000 		.4byte	.LVL18
 3792 013d 18000000 		.4byte	.LVL19
 3793 0141 0300     		.2byte	0x3
 3794 0143 74       		.byte	0x74
 3795 0144 01       		.sleb128 1
 3796 0145 9F       		.byte	0x9f
 3797 0146 18000000 		.4byte	.LVL19
 3798 014a 1C000000 		.4byte	.LFE247
 3799 014e 0100     		.2byte	0x1
 3800 0150 54       		.byte	0x54
 3801 0151 00000000 		.4byte	0
 3802 0155 00000000 		.4byte	0
 3803              	.LLST9:
 3804 0159 0A000000 		.4byte	.LVL16
 3805 015d 18000000 		.4byte	.LVL19
 3806 0161 0100     		.2byte	0x1
 3807 0163 55       		.byte	0x55
 3808 0164 00000000 		.4byte	0
 3809 0168 00000000 		.4byte	0
 3810              	.LLST10:
 3811 016c 0A000000 		.4byte	.LVL16
 3812 0170 1A000000 		.4byte	.LVL20
 3813 0174 0100     		.2byte	0x1
 3814 0176 56       		.byte	0x56
 3815 0177 00000000 		.4byte	0
 3816 017b 00000000 		.4byte	0
 3817              	.LLST11:
 3818 017f 00000000 		.4byte	.LVL21
 3819 0183 0D000000 		.4byte	.LVL23-1
ARM GAS  /tmp/ccR7GbWV.s 			page 68


 3820 0187 0100     		.2byte	0x1
 3821 0189 50       		.byte	0x50
 3822 018a 0D000000 		.4byte	.LVL23-1
 3823 018e 0E000000 		.4byte	.LFE252
 3824 0192 0400     		.2byte	0x4
 3825 0194 F3       		.byte	0xf3
 3826 0195 01       		.uleb128 0x1
 3827 0196 50       		.byte	0x50
 3828 0197 9F       		.byte	0x9f
 3829 0198 00000000 		.4byte	0
 3830 019c 00000000 		.4byte	0
 3831              	.LLST12:
 3832 01a0 00000000 		.4byte	.LVL21
 3833 01a4 0A000000 		.4byte	.LVL22
 3834 01a8 0100     		.2byte	0x1
 3835 01aa 51       		.byte	0x51
 3836 01ab 0A000000 		.4byte	.LVL22
 3837 01af 0D000000 		.4byte	.LVL23-1
 3838 01b3 0200     		.2byte	0x2
 3839 01b5 70       		.byte	0x70
 3840 01b6 10       		.sleb128 16
 3841 01b7 0D000000 		.4byte	.LVL23-1
 3842 01bb 0E000000 		.4byte	.LFE252
 3843 01bf 0400     		.2byte	0x4
 3844 01c1 F3       		.byte	0xf3
 3845 01c2 01       		.uleb128 0x1
 3846 01c3 51       		.byte	0x51
 3847 01c4 9F       		.byte	0x9f
 3848 01c5 00000000 		.4byte	0
 3849 01c9 00000000 		.4byte	0
 3850              	.LLST14:
 3851 01cd 00000000 		.4byte	.LVL21
 3852 01d1 0D000000 		.4byte	.LVL23-1
 3853 01d5 0300     		.2byte	0x3
 3854 01d7 70       		.byte	0x70
 3855 01d8 0C       		.sleb128 12
 3856 01d9 9F       		.byte	0x9f
 3857 01da 0D000000 		.4byte	.LVL23-1
 3858 01de 0E000000 		.4byte	.LFE252
 3859 01e2 0600     		.2byte	0x6
 3860 01e4 F3       		.byte	0xf3
 3861 01e5 01       		.uleb128 0x1
 3862 01e6 50       		.byte	0x50
 3863 01e7 23       		.byte	0x23
 3864 01e8 0C       		.uleb128 0xc
 3865 01e9 9F       		.byte	0x9f
 3866 01ea 00000000 		.4byte	0
 3867 01ee 00000000 		.4byte	0
 3868              	.LLST15:
 3869 01f2 00000000 		.4byte	.LVL24
 3870 01f6 07000000 		.4byte	.LVL25-1
 3871 01fa 0100     		.2byte	0x1
 3872 01fc 50       		.byte	0x50
 3873 01fd 07000000 		.4byte	.LVL25-1
 3874 0201 12000000 		.4byte	.LVL27
 3875 0205 0100     		.2byte	0x1
 3876 0207 54       		.byte	0x54
ARM GAS  /tmp/ccR7GbWV.s 			page 69


 3877 0208 12000000 		.4byte	.LVL27
 3878 020c 15000000 		.4byte	.LVL28-1
 3879 0210 0300     		.2byte	0x3
 3880 0212 70       		.byte	0x70
 3881 0213 74       		.sleb128 -12
 3882 0214 9F       		.byte	0x9f
 3883 0215 15000000 		.4byte	.LVL28-1
 3884 0219 16000000 		.4byte	.LVL28
 3885 021d 0400     		.2byte	0x4
 3886 021f F3       		.byte	0xf3
 3887 0220 01       		.uleb128 0x1
 3888 0221 50       		.byte	0x50
 3889 0222 9F       		.byte	0x9f
 3890 0223 16000000 		.4byte	.LVL28
 3891 0227 1A000000 		.4byte	.LFE254
 3892 022b 0100     		.2byte	0x1
 3893 022d 54       		.byte	0x54
 3894 022e 00000000 		.4byte	0
 3895 0232 00000000 		.4byte	0
 3896              	.LLST16:
 3897 0236 00000000 		.4byte	.LVL24
 3898 023a 07000000 		.4byte	.LVL25-1
 3899 023e 0100     		.2byte	0x1
 3900 0240 51       		.byte	0x51
 3901 0241 07000000 		.4byte	.LVL25-1
 3902 0245 1A000000 		.4byte	.LFE254
 3903 0249 0400     		.2byte	0x4
 3904 024b F3       		.byte	0xf3
 3905 024c 01       		.uleb128 0x1
 3906 024d 51       		.byte	0x51
 3907 024e 9F       		.byte	0x9f
 3908 024f 00000000 		.4byte	0
 3909 0253 00000000 		.4byte	0
 3910              	.LLST17:
 3911 0257 08000000 		.4byte	.LVL25
 3912 025b 0E000000 		.4byte	.LVL26
 3913 025f 0100     		.2byte	0x1
 3914 0261 50       		.byte	0x50
 3915 0262 16000000 		.4byte	.LVL28
 3916 0266 18000000 		.4byte	.LVL29
 3917 026a 0100     		.2byte	0x1
 3918 026c 50       		.byte	0x50
 3919 026d 00000000 		.4byte	0
 3920 0271 00000000 		.4byte	0
 3921              	.LLST18:
 3922 0275 00000000 		.4byte	.LVL30
 3923 0279 0F000000 		.4byte	.LVL31-1
 3924 027d 0100     		.2byte	0x1
 3925 027f 50       		.byte	0x50
 3926 0280 0F000000 		.4byte	.LVL31-1
 3927 0284 28000000 		.4byte	.LFE255
 3928 0288 0100     		.2byte	0x1
 3929 028a 55       		.byte	0x55
 3930 028b 00000000 		.4byte	0
 3931 028f 00000000 		.4byte	0
 3932              	.LLST19:
 3933 0293 00000000 		.4byte	.LVL30
ARM GAS  /tmp/ccR7GbWV.s 			page 70


 3934 0297 0F000000 		.4byte	.LVL31-1
 3935 029b 0100     		.2byte	0x1
 3936 029d 51       		.byte	0x51
 3937 029e 0F000000 		.4byte	.LVL31-1
 3938 02a2 1A000000 		.4byte	.LVL33
 3939 02a6 0100     		.2byte	0x1
 3940 02a8 54       		.byte	0x54
 3941 02a9 1A000000 		.4byte	.LVL33
 3942 02ad 28000000 		.4byte	.LFE255
 3943 02b1 0400     		.2byte	0x4
 3944 02b3 F3       		.byte	0xf3
 3945 02b4 01       		.uleb128 0x1
 3946 02b5 51       		.byte	0x51
 3947 02b6 9F       		.byte	0x9f
 3948 02b7 00000000 		.4byte	0
 3949 02bb 00000000 		.4byte	0
 3950              	.LLST20:
 3951 02bf 1A000000 		.4byte	.LVL33
 3952 02c3 1D000000 		.4byte	.LVL34-1
 3953 02c7 0100     		.2byte	0x1
 3954 02c9 50       		.byte	0x50
 3955 02ca 1D000000 		.4byte	.LVL34-1
 3956 02ce 28000000 		.4byte	.LFE255
 3957 02d2 0100     		.2byte	0x1
 3958 02d4 54       		.byte	0x54
 3959 02d5 00000000 		.4byte	0
 3960 02d9 00000000 		.4byte	0
 3961              	.LLST21:
 3962 02dd 00000000 		.4byte	.LVL35
 3963 02e1 09000000 		.4byte	.LVL36-1
 3964 02e5 0100     		.2byte	0x1
 3965 02e7 50       		.byte	0x50
 3966 02e8 09000000 		.4byte	.LVL36-1
 3967 02ec 0A000000 		.4byte	.LFE256
 3968 02f0 0400     		.2byte	0x4
 3969 02f2 F3       		.byte	0xf3
 3970 02f3 01       		.uleb128 0x1
 3971 02f4 50       		.byte	0x50
 3972 02f5 9F       		.byte	0x9f
 3973 02f6 00000000 		.4byte	0
 3974 02fa 00000000 		.4byte	0
 3975              	.LLST22:
 3976 02fe 00000000 		.4byte	.LVL35
 3977 0302 09000000 		.4byte	.LVL36-1
 3978 0306 0100     		.2byte	0x1
 3979 0308 51       		.byte	0x51
 3980 0309 09000000 		.4byte	.LVL36-1
 3981 030d 0A000000 		.4byte	.LFE256
 3982 0311 0400     		.2byte	0x4
 3983 0313 F3       		.byte	0xf3
 3984 0314 01       		.uleb128 0x1
 3985 0315 51       		.byte	0x51
 3986 0316 9F       		.byte	0x9f
 3987 0317 00000000 		.4byte	0
 3988 031b 00000000 		.4byte	0
 3989              	.LLST24:
 3990 031f 00000000 		.4byte	.LVL35
ARM GAS  /tmp/ccR7GbWV.s 			page 71


 3991 0323 09000000 		.4byte	.LVL36-1
 3992 0327 0300     		.2byte	0x3
 3993 0329 70       		.byte	0x70
 3994 032a 0C       		.sleb128 12
 3995 032b 9F       		.byte	0x9f
 3996 032c 09000000 		.4byte	.LVL36-1
 3997 0330 0A000000 		.4byte	.LFE256
 3998 0334 0600     		.2byte	0x6
 3999 0336 F3       		.byte	0xf3
 4000 0337 01       		.uleb128 0x1
 4001 0338 50       		.byte	0x50
 4002 0339 23       		.byte	0x23
 4003 033a 0C       		.uleb128 0xc
 4004 033b 9F       		.byte	0x9f
 4005 033c 00000000 		.4byte	0
 4006 0340 00000000 		.4byte	0
 4007              	.LLST26:
 4008 0344 00000000 		.4byte	.LVL37
 4009 0348 0F000000 		.4byte	.LVL38-1
 4010 034c 0100     		.2byte	0x1
 4011 034e 50       		.byte	0x50
 4012 034f 0F000000 		.4byte	.LVL38-1
 4013 0353 28000000 		.4byte	.LFE257
 4014 0357 0100     		.2byte	0x1
 4015 0359 55       		.byte	0x55
 4016 035a 00000000 		.4byte	0
 4017 035e 00000000 		.4byte	0
 4018              	.LLST27:
 4019 0362 00000000 		.4byte	.LVL37
 4020 0366 0F000000 		.4byte	.LVL38-1
 4021 036a 0100     		.2byte	0x1
 4022 036c 51       		.byte	0x51
 4023 036d 0F000000 		.4byte	.LVL38-1
 4024 0371 28000000 		.4byte	.LFE257
 4025 0375 0100     		.2byte	0x1
 4026 0377 54       		.byte	0x54
 4027 0378 00000000 		.4byte	0
 4028 037c 00000000 		.4byte	0
 4029              	.LLST28:
 4030 0380 00000000 		.4byte	.LVL42
 4031 0384 08000000 		.4byte	.LVL43
 4032 0388 0100     		.2byte	0x1
 4033 038a 50       		.byte	0x50
 4034 038b 08000000 		.4byte	.LVL43
 4035 038f 1C000000 		.4byte	.LFE253
 4036 0393 0100     		.2byte	0x1
 4037 0395 56       		.byte	0x56
 4038 0396 00000000 		.4byte	0
 4039 039a 00000000 		.4byte	0
 4040              	.LLST29:
 4041 039e 00000000 		.4byte	.LVL42
 4042 03a2 08000000 		.4byte	.LVL43
 4043 03a6 0100     		.2byte	0x1
 4044 03a8 51       		.byte	0x51
 4045 03a9 08000000 		.4byte	.LVL43
 4046 03ad 1C000000 		.4byte	.LFE253
 4047 03b1 0100     		.2byte	0x1
ARM GAS  /tmp/ccR7GbWV.s 			page 72


 4048 03b3 55       		.byte	0x55
 4049 03b4 00000000 		.4byte	0
 4050 03b8 00000000 		.4byte	0
 4051              	.LLST30:
 4052 03bc 00000000 		.4byte	.LVL42
 4053 03c0 08000000 		.4byte	.LVL43
 4054 03c4 0100     		.2byte	0x1
 4055 03c6 52       		.byte	0x52
 4056 03c7 08000000 		.4byte	.LVL43
 4057 03cb 16000000 		.4byte	.LVL46
 4058 03cf 0100     		.2byte	0x1
 4059 03d1 54       		.byte	0x54
 4060 03d2 16000000 		.4byte	.LVL46
 4061 03d6 18000000 		.4byte	.LVL47
 4062 03da 0300     		.2byte	0x3
 4063 03dc 74       		.byte	0x74
 4064 03dd 01       		.sleb128 1
 4065 03de 9F       		.byte	0x9f
 4066 03df 18000000 		.4byte	.LVL47
 4067 03e3 1C000000 		.4byte	.LFE253
 4068 03e7 0100     		.2byte	0x1
 4069 03e9 54       		.byte	0x54
 4070 03ea 00000000 		.4byte	0
 4071 03ee 00000000 		.4byte	0
 4072              	.LLST31:
 4073 03f2 0A000000 		.4byte	.LVL44
 4074 03f6 18000000 		.4byte	.LVL47
 4075 03fa 0100     		.2byte	0x1
 4076 03fc 55       		.byte	0x55
 4077 03fd 00000000 		.4byte	0
 4078 0401 00000000 		.4byte	0
 4079              	.LLST32:
 4080 0405 0A000000 		.4byte	.LVL44
 4081 0409 1A000000 		.4byte	.LVL48
 4082 040d 0100     		.2byte	0x1
 4083 040f 56       		.byte	0x56
 4084 0410 00000000 		.4byte	0
 4085 0414 00000000 		.4byte	0
 4086              		.section	.debug_aranges,"",%progbits
 4087 0000 74000000 		.4byte	0x74
 4088 0004 0200     		.2byte	0x2
 4089 0006 00000000 		.4byte	.Ldebug_info0
 4090 000a 04       		.byte	0x4
 4091 000b 00       		.byte	0
 4092 000c 0000     		.2byte	0
 4093 000e 0000     		.2byte	0
 4094 0010 00000000 		.4byte	.LFB246
 4095 0014 0A000000 		.4byte	.LFE246-.LFB246
 4096 0018 00000000 		.4byte	.LFB248
 4097 001c 18000000 		.4byte	.LFE248-.LFB248
 4098 0020 00000000 		.4byte	.LFB249
 4099 0024 24000000 		.4byte	.LFE249-.LFB249
 4100 0028 00000000 		.4byte	.LFB250
 4101 002c 08000000 		.4byte	.LFE250-.LFB250
 4102 0030 00000000 		.4byte	.LFB251
 4103 0034 22000000 		.4byte	.LFE251-.LFB251
 4104 0038 00000000 		.4byte	.LFB247
ARM GAS  /tmp/ccR7GbWV.s 			page 73


 4105 003c 1C000000 		.4byte	.LFE247-.LFB247
 4106 0040 00000000 		.4byte	.LFB252
 4107 0044 0E000000 		.4byte	.LFE252-.LFB252
 4108 0048 00000000 		.4byte	.LFB254
 4109 004c 1A000000 		.4byte	.LFE254-.LFB254
 4110 0050 00000000 		.4byte	.LFB255
 4111 0054 28000000 		.4byte	.LFE255-.LFB255
 4112 0058 00000000 		.4byte	.LFB256
 4113 005c 0A000000 		.4byte	.LFE256-.LFB256
 4114 0060 00000000 		.4byte	.LFB257
 4115 0064 28000000 		.4byte	.LFE257-.LFB257
 4116 0068 00000000 		.4byte	.LFB253
 4117 006c 1C000000 		.4byte	.LFE253-.LFB253
 4118 0070 00000000 		.4byte	0
 4119 0074 00000000 		.4byte	0
 4120              		.section	.debug_ranges,"",%progbits
 4121              	.Ldebug_ranges0:
 4122 0000 02000000 		.4byte	.LBB34
 4123 0004 04000000 		.4byte	.LBE34
 4124 0008 06000000 		.4byte	.LBB43
 4125 000c 0E000000 		.4byte	.LBE43
 4126 0010 00000000 		.4byte	0
 4127 0014 00000000 		.4byte	0
 4128 0018 02000000 		.4byte	.LBB36
 4129 001c 04000000 		.4byte	.LBE36
 4130 0020 06000000 		.4byte	.LBB41
 4131 0024 0A000000 		.4byte	.LBE41
 4132 0028 00000000 		.4byte	0
 4133 002c 00000000 		.4byte	0
 4134 0030 00000000 		.4byte	.LFB246
 4135 0034 0A000000 		.4byte	.LFE246
 4136 0038 00000000 		.4byte	.LFB248
 4137 003c 18000000 		.4byte	.LFE248
 4138 0040 00000000 		.4byte	.LFB249
 4139 0044 24000000 		.4byte	.LFE249
 4140 0048 00000000 		.4byte	.LFB250
 4141 004c 08000000 		.4byte	.LFE250
 4142 0050 00000000 		.4byte	.LFB251
 4143 0054 22000000 		.4byte	.LFE251
 4144 0058 00000000 		.4byte	.LFB247
 4145 005c 1C000000 		.4byte	.LFE247
 4146 0060 00000000 		.4byte	.LFB252
 4147 0064 0E000000 		.4byte	.LFE252
 4148 0068 00000000 		.4byte	.LFB254
 4149 006c 1A000000 		.4byte	.LFE254
 4150 0070 00000000 		.4byte	.LFB255
 4151 0074 28000000 		.4byte	.LFE255
 4152 0078 00000000 		.4byte	.LFB256
 4153 007c 0A000000 		.4byte	.LFE256
 4154 0080 00000000 		.4byte	.LFB257
 4155 0084 28000000 		.4byte	.LFE257
 4156 0088 00000000 		.4byte	.LFB253
 4157 008c 1C000000 		.4byte	.LFE253
 4158 0090 00000000 		.4byte	0
 4159 0094 00000000 		.4byte	0
 4160              		.section	.debug_line,"",%progbits
 4161              	.Ldebug_line0:
ARM GAS  /tmp/ccR7GbWV.s 			page 74


 4162 0000 17040000 		.section	.debug_str,"MS",%progbits,1
 4162      02007C02 
 4162      00000201 
 4162      FB0E0D00 
 4162      01010101 
 4163              	.LASF112:
 4164 0000 67756172 		.ascii	"guarded_memory_pool_t\000"
 4164      6465645F 
 4164      6D656D6F 
 4164      72795F70 
 4164      6F6F6C5F 
 4165              	.LASF54:
 4166 0016 72656164 		.ascii	"ready_list_t\000"
 4166      795F6C69 
 4166      73745F74 
 4166      00
 4167              	.LASF141:
 4168 0023 63685365 		.ascii	"chSemSignalI\000"
 4168      6D536967 
 4168      6E616C49 
 4168      00
 4169              	.LASF2:
 4170 0030 73697A65 		.ascii	"size_t\000"
 4170      5F7400
 4171              	.LASF60:
 4172 0037 64656C74 		.ascii	"delta\000"
 4172      6100
 4173              	.LASF91:
 4174 003d 7264796D 		.ascii	"rdymsg\000"
 4174      736700
 4175              	.LASF17:
 4176 0044 75696E74 		.ascii	"uint64_t\000"
 4176      36345F74 
 4176      00
 4177              	.LASF73:
 4178 004d 6B65726E 		.ascii	"kernel_stats\000"
 4178      656C5F73 
 4178      74617473 
 4178      00
 4179              	.LASF3:
 4180 005a 5F5F7569 		.ascii	"__uint8_t\000"
 4180      6E74385F 
 4180      7400
 4181              	.LASF53:
 4182 0064 70726576 		.ascii	"prev\000"
 4182      00
 4183              	.LASF78:
 4184 0069 706F7274 		.ascii	"port_intctx\000"
 4184      5F696E74 
 4184      63747800 
 4185              	.LASF52:
 4186 0075 63685F74 		.ascii	"ch_threads_queue\000"
 4186      68726561 
 4186      64735F71 
 4186      75657565 
 4186      00
 4187              	.LASF65:
ARM GAS  /tmp/ccR7GbWV.s 			page 75


 4188 0086 73797374 		.ascii	"system_debug_t\000"
 4188      656D5F64 
 4188      65627567 
 4188      5F7400
 4189              	.LASF109:
 4190 0095 70726F76 		.ascii	"provider\000"
 4190      69646572 
 4190      00
 4191              	.LASF113:
 4192 009e 706F7274 		.ascii	"port_lock\000"
 4192      5F6C6F63 
 4192      6B00
 4193              	.LASF82:
 4194 00a8 776F7273 		.ascii	"worst\000"
 4194      7400
 4195              	.LASF85:
 4196 00ae 74696D65 		.ascii	"time_measurement_t\000"
 4196      5F6D6561 
 4196      73757265 
 4196      6D656E74 
 4196      5F7400
 4197              	.LASF13:
 4198 00c1 6C6F6E67 		.ascii	"long long unsigned int\000"
 4198      206C6F6E 
 4198      6720756E 
 4198      7369676E 
 4198      65642069 
 4199              	.LASF134:
 4200 00d8 63684775 		.ascii	"chGuardedPoolFreeI\000"
 4200      61726465 
 4200      64506F6F 
 4200      6C467265 
 4200      654900
 4201              	.LASF92:
 4202 00eb 65786974 		.ascii	"exitcode\000"
 4202      636F6465 
 4202      00
 4203              	.LASF72:
 4204 00f4 6D61696E 		.ascii	"mainthread\000"
 4204      74687265 
 4204      616400
 4205              	.LASF95:
 4206 00ff 73656E74 		.ascii	"sentmsg\000"
 4206      6D736700 
 4207              	.LASF62:
 4208 0107 76697274 		.ascii	"virtual_timers_list_t\000"
 4208      75616C5F 
 4208      74696D65 
 4208      72735F6C 
 4208      6973745F 
 4209              	.LASF137:
 4210 011d 49544D5F 		.ascii	"ITM_RxBuffer\000"
 4210      52784275 
 4210      66666572 
 4210      00
 4211              	.LASF50:
 4212 012a 6E657874 		.ascii	"next\000"
ARM GAS  /tmp/ccR7GbWV.s 			page 76


 4212      00
 4213              	.LASF19:
 4214 012f 72747469 		.ascii	"rttime_t\000"
 4214      6D655F74 
 4214      00
 4215              	.LASF11:
 4216 0138 6C6F6E67 		.ascii	"long long int\000"
 4216      206C6F6E 
 4216      6720696E 
 4216      7400
 4217              	.LASF1:
 4218 0146 7369676E 		.ascii	"signed char\000"
 4218      65642063 
 4218      68617200 
 4219              	.LASF122:
 4220 0152 73697A65 		.ascii	"size\000"
 4220      00
 4221              	.LASF71:
 4222 0157 76746C69 		.ascii	"vtlist\000"
 4222      737400
 4223              	.LASF145:
 4224 015e 2F686F6D 		.ascii	"/home/kozinalexey/f4by/ardupilot/build/f4by-ch\000"
 4224      652F6B6F 
 4224      7A696E61 
 4224      6C657865 
 4224      792F6634 
 4225              	.LASF114:
 4226 018d 706F7274 		.ascii	"port_unlock\000"
 4226      5F756E6C 
 4226      6F636B00 
 4227              	.LASF40:
 4228 0199 6D736771 		.ascii	"msgqueue\000"
 4228      75657565 
 4228      00
 4229              	.LASF36:
 4230 01a2 73746174 		.ascii	"state\000"
 4230      6500
 4231              	.LASF8:
 4232 01a8 6C6F6E67 		.ascii	"long int\000"
 4232      20696E74 
 4232      00
 4233              	.LASF21:
 4234 01b1 74737461 		.ascii	"tstate_t\000"
 4234      74655F74 
 4234      00
 4235              	.LASF61:
 4236 01ba 66756E63 		.ascii	"func\000"
 4236      00
 4237              	.LASF45:
 4238 01bf 73746174 		.ascii	"stats\000"
 4238      7300
 4239              	.LASF142:
 4240 01c5 63685363 		.ascii	"chSchRescheduleS\000"
 4240      68526573 
 4240      63686564 
 4240      756C6553 
 4240      00
ARM GAS  /tmp/ccR7GbWV.s 			page 77


 4241              	.LASF9:
 4242 01d6 5F5F7569 		.ascii	"__uint32_t\000"
 4242      6E743332 
 4242      5F7400
 4243              	.LASF75:
 4244 01e1 72656761 		.ascii	"regarm_t\000"
 4244      726D5F74 
 4244      00
 4245              	.LASF120:
 4246 01ea 6368506F 		.ascii	"chPoolFreeI\000"
 4246      6F6C4672 
 4246      65654900 
 4247              	.LASF66:
 4248 01f6 63685F73 		.ascii	"ch_system_debug\000"
 4248      79737465 
 4248      6D5F6465 
 4248      62756700 
 4249              	.LASF39:
 4250 0206 77616974 		.ascii	"waiting\000"
 4250      696E6700 
 4251              	.LASF133:
 4252 020e 63684775 		.ascii	"chGuardedPoolAllocTimeout\000"
 4252      61726465 
 4252      64506F6F 
 4252      6C416C6C 
 4252      6F635469 
 4253              	.LASF104:
 4254 0228 6D757465 		.ascii	"mutex_t\000"
 4254      785F7400 
 4255              	.LASF115:
 4256 0230 76616C75 		.ascii	"value\000"
 4256      6500
 4257              	.LASF140:
 4258 0236 63685365 		.ascii	"chSemObjectInit\000"
 4258      6D4F626A 
 4258      65637449 
 4258      6E697400 
 4259              	.LASF26:
 4260 0246 636E745F 		.ascii	"cnt_t\000"
 4260      7400
 4261              	.LASF0:
 4262 024c 756E7369 		.ascii	"unsigned int\000"
 4262      676E6564 
 4262      20696E74 
 4262      00
 4263              	.LASF130:
 4264 0259 63684775 		.ascii	"chGuardedPoolObjectInit\000"
 4264      61726465 
 4264      64506F6F 
 4264      6C4F626A 
 4264      65637449 
 4265              	.LASF96:
 4266 0271 77747365 		.ascii	"wtsemp\000"
 4266      6D7000
 4267              	.LASF94:
 4268 0278 77747472 		.ascii	"wttrp\000"
 4268      7000
ARM GAS  /tmp/ccR7GbWV.s 			page 78


 4269              	.LASF132:
 4270 027e 74696D65 		.ascii	"timeout\000"
 4270      6F757400 
 4271              	.LASF110:
 4272 0286 6D656D6F 		.ascii	"memory_pool_t\000"
 4272      72795F70 
 4272      6F6F6C5F 
 4272      7400
 4273              	.LASF86:
 4274 0294 6E5F6972 		.ascii	"n_irq\000"
 4274      7100
 4275              	.LASF30:
 4276 029a 71756575 		.ascii	"queue\000"
 4276      6500
 4277              	.LASF44:
 4278 02a0 6D706F6F 		.ascii	"mpool\000"
 4278      6C00
 4279              	.LASF6:
 4280 02a6 73686F72 		.ascii	"short unsigned int\000"
 4280      7420756E 
 4280      7369676E 
 4280      65642069 
 4280      6E7400
 4281              	.LASF90:
 4282 02b9 6B65726E 		.ascii	"kernel_stats_t\000"
 4282      656C5F73 
 4282      74617473 
 4282      5F7400
 4283              	.LASF34:
 4284 02c8 6E616D65 		.ascii	"name\000"
 4284      00
 4285              	.LASF48:
 4286 02cd 63685F74 		.ascii	"ch_thread\000"
 4286      68726561 
 4286      6400
 4287              	.LASF24:
 4288 02d7 6D73675F 		.ascii	"msg_t\000"
 4288      7400
 4289              	.LASF135:
 4290 02dd 63684775 		.ascii	"chGuardedPoolFree\000"
 4290      61726465 
 4290      64506F6F 
 4290      6C467265 
 4290      6500
 4291              	.LASF27:
 4292 02ef 75636E74 		.ascii	"ucnt_t\000"
 4292      5F7400
 4293              	.LASF41:
 4294 02f6 6570656E 		.ascii	"epending\000"
 4294      64696E67 
 4294      00
 4295              	.LASF68:
 4296 02ff 63685F73 		.ascii	"ch_system_t\000"
 4296      79737465 
 4296      6D5F7400 
 4297              	.LASF119:
 4298 030b 6368506F 		.ascii	"chPoolAdd\000"
ARM GAS  /tmp/ccR7GbWV.s 			page 79


 4298      6F6C4164 
 4298      6400
 4299              	.LASF20:
 4300 0315 746D6F64 		.ascii	"tmode_t\000"
 4300      655F7400 
 4301              	.LASF121:
 4302 031d 6368506F 		.ascii	"chPoolObjectInit\000"
 4302      6F6C4F62 
 4302      6A656374 
 4302      496E6974 
 4302      00
 4303              	.LASF89:
 4304 032e 6D5F6372 		.ascii	"m_crit_isr\000"
 4304      69745F69 
 4304      737200
 4305              	.LASF55:
 4306 0339 63685F72 		.ascii	"ch_ready_list\000"
 4306      65616479 
 4306      5F6C6973 
 4306      7400
 4307              	.LASF25:
 4308 0347 6576656E 		.ascii	"eventmask_t\000"
 4308      746D6173 
 4308      6B5F7400 
 4309              	.LASF7:
 4310 0353 5F5F696E 		.ascii	"__int32_t\000"
 4310      7433325F 
 4310      7400
 4311              	.LASF76:
 4312 035d 73746B61 		.ascii	"stkalign_t\000"
 4312      6C69676E 
 4312      5F7400
 4313              	.LASF32:
 4314 0368 6E657765 		.ascii	"newer\000"
 4314      7200
 4315              	.LASF43:
 4316 036e 7265616C 		.ascii	"realprio\000"
 4316      7072696F 
 4316      00
 4317              	.LASF139:
 4318 0377 5F737461 		.ascii	"_stats_stop_measure_crit_thd\000"
 4318      74735F73 
 4318      746F705F 
 4318      6D656173 
 4318      7572655F 
 4319              	.LASF74:
 4320 0394 73697A65 		.ascii	"sizetype\000"
 4320      74797065 
 4320      00
 4321              	.LASF46:
 4322 039d 74687265 		.ascii	"thread_reference_t\000"
 4322      61645F72 
 4322      65666572 
 4322      656E6365 
 4322      5F7400
 4323              	.LASF63:
 4324 03b0 63685F76 		.ascii	"ch_virtual_timers_list\000"
ARM GAS  /tmp/ccR7GbWV.s 			page 80


 4324      69727475 
 4324      616C5F74 
 4324      696D6572 
 4324      735F6C69 
 4325              	.LASF143:
 4326 03c7 474E5520 		.ascii	"GNU C 4.9.3 20150529 (prerelease) -mcpu=cortex-m4 -"
 4326      4320342E 
 4326      392E3320 
 4326      32303135 
 4326      30353239 
 4327 03fa 6D666C6F 		.ascii	"mfloat-abi=hard -mfpu=fpv4-sp-d16 -mno-thumb-interw"
 4327      61742D61 
 4327      62693D68 
 4327      61726420 
 4327      2D6D6670 
 4328 042d 6F726B20 		.ascii	"ork -mthumb -g -Os -fomit-frame-pointer -falign-fun"
 4328      2D6D7468 
 4328      756D6220 
 4328      2D67202D 
 4328      4F73202D 
 4329 0460 6374696F 		.ascii	"ctions=16 -ffunction-sections -fdata-sections -fno-"
 4329      6E733D31 
 4329      36202D66 
 4329      66756E63 
 4329      74696F6E 
 4330 0493 636F6D6D 		.ascii	"common -fsingle-precision-constant\000"
 4330      6F6E202D 
 4330      6673696E 
 4330      676C652D 
 4330      70726563 
 4331              	.LASF126:
 4332 04b6 6368506F 		.ascii	"chPoolAllocI\000"
 4332      6F6C416C 
 4332      6C6F6349 
 4332      00
 4333              	.LASF77:
 4334 04c3 706F7274 		.ascii	"port_context\000"
 4334      5F636F6E 
 4334      74657874 
 4334      00
 4335              	.LASF80:
 4336 04d0 746D5F63 		.ascii	"tm_calibration_t\000"
 4336      616C6962 
 4336      72617469 
 4336      6F6E5F74 
 4336      00
 4337              	.LASF131:
 4338 04e1 63684775 		.ascii	"chGuardedPoolAllocTimeoutS\000"
 4338      61726465 
 4338      64506F6F 
 4338      6C416C6C 
 4338      6F635469 
 4339              	.LASF31:
 4340 04fc 7072696F 		.ascii	"prio\000"
 4340      00
 4341              	.LASF56:
 4342 0501 63757272 		.ascii	"current\000"
ARM GAS  /tmp/ccR7GbWV.s 			page 81


 4342      656E7400 
 4343              	.LASF83:
 4344 0509 6C617374 		.ascii	"last\000"
 4344      00
 4345              	.LASF12:
 4346 050e 5F5F7569 		.ascii	"__uint64_t\000"
 4346      6E743634 
 4346      5F7400
 4347              	.LASF84:
 4348 0519 63756D75 		.ascii	"cumulative\000"
 4348      6C617469 
 4348      766500
 4349              	.LASF22:
 4350 0524 74726566 		.ascii	"trefs_t\000"
 4350      735F7400 
 4351              	.LASF38:
 4352 052c 72656673 		.ascii	"refs\000"
 4352      00
 4353              	.LASF58:
 4354 0531 76697274 		.ascii	"virtual_timer_t\000"
 4354      75616C5F 
 4354      74696D65 
 4354      725F7400 
 4355              	.LASF23:
 4356 0541 74707269 		.ascii	"tprio_t\000"
 4356      6F5F7400 
 4357              	.LASF87:
 4358 0549 6E5F6374 		.ascii	"n_ctxswc\000"
 4358      78737763 
 4358      00
 4359              	.LASF105:
 4360 0552 5F426F6F 		.ascii	"_Bool\000"
 4360      6C00
 4361              	.LASF15:
 4362 0558 696E7433 		.ascii	"int32_t\000"
 4362      325F7400 
 4363              	.LASF4:
 4364 0560 756E7369 		.ascii	"unsigned char\000"
 4364      676E6564 
 4364      20636861 
 4364      7200
 4365              	.LASF5:
 4366 056e 73686F72 		.ascii	"short int\000"
 4366      7420696E 
 4366      7400
 4367              	.LASF64:
 4368 0578 6C617374 		.ascii	"lasttime\000"
 4368      74696D65 
 4368      00
 4369              	.LASF98:
 4370 0581 65776D61 		.ascii	"ewmask\000"
 4370      736B00
 4371              	.LASF69:
 4372 0588 63685F73 		.ascii	"ch_system\000"
 4372      79737465 
 4372      6D00
 4373              	.LASF117:
ARM GAS  /tmp/ccR7GbWV.s 			page 82


 4374 0592 5F5F6675 		.ascii	"__func__\000"
 4374      6E635F5F 
 4374      00
 4375              	.LASF124:
 4376 059b 63685379 		.ascii	"chSysLock\000"
 4376      734C6F63 
 4376      6B00
 4377              	.LASF116:
 4378 05a5 6F626A70 		.ascii	"objp\000"
 4378      00
 4379              	.LASF103:
 4380 05aa 73656D61 		.ascii	"semaphore_t\000"
 4380      70686F72 
 4380      655F7400 
 4381              	.LASF59:
 4382 05b6 63685F76 		.ascii	"ch_virtual_timer\000"
 4382      69727475 
 4382      616C5F74 
 4382      696D6572 
 4382      00
 4383              	.LASF99:
 4384 05c7 63685F73 		.ascii	"ch_semaphore\000"
 4384      656D6170 
 4384      686F7265 
 4384      00
 4385              	.LASF16:
 4386 05d4 75696E74 		.ascii	"uint32_t\000"
 4386      33325F74 
 4386      00
 4387              	.LASF97:
 4388 05dd 77746D74 		.ascii	"wtmtxp\000"
 4388      787000
 4389              	.LASF49:
 4390 05e4 63685F74 		.ascii	"ch_threads_list\000"
 4390      68726561 
 4390      64735F6C 
 4390      69737400 
 4391              	.LASF101:
 4392 05f4 6F776E65 		.ascii	"owner\000"
 4392      7200
 4393              	.LASF10:
 4394 05fa 6C6F6E67 		.ascii	"long unsigned int\000"
 4394      20756E73 
 4394      69676E65 
 4394      6420696E 
 4394      7400
 4395              	.LASF35:
 4396 060c 77616261 		.ascii	"wabase\000"
 4396      736500
 4397              	.LASF102:
 4398 0613 63686172 		.ascii	"char\000"
 4398      00
 4399              	.LASF33:
 4400 0618 6F6C6465 		.ascii	"older\000"
 4400      7200
 4401              	.LASF146:
 4402 061e 63685365 		.ascii	"chSemWaitTimeoutS\000"
ARM GAS  /tmp/ccR7GbWV.s 			page 83


 4402      6D576169 
 4402      7454696D 
 4402      656F7574 
 4402      5300
 4403              	.LASF29:
 4404 0630 74687265 		.ascii	"thread_t\000"
 4404      61645F74 
 4404      00
 4405              	.LASF81:
 4406 0639 62657374 		.ascii	"best\000"
 4406      00
 4407              	.LASF28:
 4408 063e 73797374 		.ascii	"systime_t\000"
 4408      696D655F 
 4408      7400
 4409              	.LASF57:
 4410 0648 76746675 		.ascii	"vtfunc_t\000"
 4410      6E635F74 
 4410      00
 4411              	.LASF118:
 4412 0651 5F5F7365 		.ascii	"__set_BASEPRI\000"
 4412      745F4241 
 4412      53455052 
 4412      4900
 4413              	.LASF67:
 4414 065f 70616E69 		.ascii	"panic_msg\000"
 4414      635F6D73 
 4414      6700
 4415              	.LASF79:
 4416 0669 6F666673 		.ascii	"offset\000"
 4416      657400
 4417              	.LASF136:
 4418 0670 63684775 		.ascii	"chGuardedPoolLoadArray\000"
 4418      61726465 
 4418      64506F6F 
 4418      6C4C6F61 
 4418      64417272 
 4419              	.LASF100:
 4420 0687 63685F6D 		.ascii	"ch_mutex\000"
 4420      75746578 
 4420      00
 4421              	.LASF144:
 4422 0690 2E2E2F2E 		.ascii	"../../modules/ChibiOS/os/common/oslib/src/chmempool"
 4422      2E2F6D6F 
 4422      64756C65 
 4422      732F4368 
 4422      6962694F 
 4423 06c3 732E6300 		.ascii	"s.c\000"
 4424              	.LASF18:
 4425 06c7 7274636E 		.ascii	"rtcnt_t\000"
 4425      745F7400 
 4426              	.LASF106:
 4427 06cf 6D656D67 		.ascii	"memgetfunc_t\000"
 4427      65746675 
 4427      6E635F74 
 4427      00
 4428              	.LASF123:
ARM GAS  /tmp/ccR7GbWV.s 			page 84


 4429 06dc 63684775 		.ascii	"chGuardedPoolAdd\000"
 4429      61726465 
 4429      64506F6F 
 4429      6C416464 
 4429      00
 4430              	.LASF108:
 4431 06ed 6F626A65 		.ascii	"object_size\000"
 4431      63745F73 
 4431      697A6500 
 4432              	.LASF51:
 4433 06f9 74687265 		.ascii	"threads_queue_t\000"
 4433      6164735F 
 4433      71756575 
 4433      655F7400 
 4434              	.LASF107:
 4435 0709 706F6F6C 		.ascii	"pool_header\000"
 4435      5F686561 
 4435      64657200 
 4436              	.LASF70:
 4437 0715 726C6973 		.ascii	"rlist\000"
 4437      7400
 4438              	.LASF111:
 4439 071b 706F6F6C 		.ascii	"pool\000"
 4439      00
 4440              	.LASF14:
 4441 0720 75696E74 		.ascii	"uint8_t\000"
 4441      385F7400 
 4442              	.LASF127:
 4443 0728 6368506F 		.ascii	"chPoolAlloc\000"
 4443      6F6C416C 
 4443      6C6F6300 
 4444              	.LASF128:
 4445 0734 6368506F 		.ascii	"chPoolFree\000"
 4445      6F6C4672 
 4445      656500
 4446              	.LASF37:
 4447 073f 666C6167 		.ascii	"flags\000"
 4447      7300
 4448              	.LASF138:
 4449 0745 5F737461 		.ascii	"_stats_start_measure_crit_thd\000"
 4449      74735F73 
 4449      74617274 
 4449      5F6D6561 
 4449      73757265 
 4450              	.LASF93:
 4451 0763 77746F62 		.ascii	"wtobjp\000"
 4451      6A7000
 4452              	.LASF47:
 4453 076a 74687265 		.ascii	"threads_list_t\000"
 4453      6164735F 
 4453      6C697374 
 4453      5F7400
 4454              	.LASF125:
 4455 0779 63685379 		.ascii	"chSysUnlock\000"
 4455      73556E6C 
 4455      6F636B00 
 4456              	.LASF129:
ARM GAS  /tmp/ccR7GbWV.s 			page 85


 4457 0785 6368506F 		.ascii	"chPoolLoadArray\000"
 4457      6F6C4C6F 
 4457      61644172 
 4457      72617900 
 4458              	.LASF42:
 4459 0795 6D74786C 		.ascii	"mtxlist\000"
 4459      69737400 
 4460              	.LASF88:
 4461 079d 6D5F6372 		.ascii	"m_crit_thd\000"
 4461      69745F74 
 4461      686400
 4462              		.ident	"GCC: (15:4.9.3+svn231177-1) 4.9.3 20150529 (prerelease)"
ARM GAS  /tmp/ccR7GbWV.s 			page 86


DEFINED SYMBOLS
                            *ABS*:0000000000000000 chmempools.c
     /tmp/ccR7GbWV.s:21     .text.chPoolObjectInit:0000000000000000 $t
     /tmp/ccR7GbWV.s:26     .text.chPoolObjectInit:0000000000000000 chPoolObjectInit
     /tmp/ccR7GbWV.s:47     .text.chPoolAllocI:0000000000000000 $t
     /tmp/ccR7GbWV.s:52     .text.chPoolAllocI:0000000000000000 chPoolAllocI
     /tmp/ccR7GbWV.s:88     .text.chPoolAlloc:0000000000000000 $t
     /tmp/ccR7GbWV.s:93     .text.chPoolAlloc:0000000000000000 chPoolAlloc
     /tmp/ccR7GbWV.s:170    .text.chPoolFreeI:0000000000000000 $t
     /tmp/ccR7GbWV.s:175    .text.chPoolFreeI:0000000000000000 chPoolFreeI
     /tmp/ccR7GbWV.s:193    .text.chPoolFree:0000000000000000 $t
     /tmp/ccR7GbWV.s:198    .text.chPoolFree:0000000000000000 chPoolFree
     /tmp/ccR7GbWV.s:266    .text.chPoolLoadArray:0000000000000000 $t
     /tmp/ccR7GbWV.s:271    .text.chPoolLoadArray:0000000000000000 chPoolLoadArray
     /tmp/ccR7GbWV.s:319    .text.chGuardedPoolObjectInit:0000000000000000 $t
     /tmp/ccR7GbWV.s:324    .text.chGuardedPoolObjectInit:0000000000000000 chGuardedPoolObjectInit
     /tmp/ccR7GbWV.s:353    .text.chGuardedPoolAllocTimeoutS:0000000000000000 $t
     /tmp/ccR7GbWV.s:358    .text.chGuardedPoolAllocTimeoutS:0000000000000000 chGuardedPoolAllocTimeoutS
     /tmp/ccR7GbWV.s:399    .text.chGuardedPoolAllocTimeout:0000000000000000 $t
     /tmp/ccR7GbWV.s:404    .text.chGuardedPoolAllocTimeout:0000000000000000 chGuardedPoolAllocTimeout
     /tmp/ccR7GbWV.s:472    .text.chGuardedPoolFreeI:0000000000000000 $t
     /tmp/ccR7GbWV.s:477    .text.chGuardedPoolFreeI:0000000000000000 chGuardedPoolFreeI
     /tmp/ccR7GbWV.s:501    .text.chGuardedPoolFree:0000000000000000 $t
     /tmp/ccR7GbWV.s:506    .text.chGuardedPoolFree:0000000000000000 chGuardedPoolFree
     /tmp/ccR7GbWV.s:573    .text.chGuardedPoolLoadArray:0000000000000000 $t
     /tmp/ccR7GbWV.s:578    .text.chGuardedPoolLoadArray:0000000000000000 chGuardedPoolLoadArray
                     .debug_frame:0000000000000010 $d

UNDEFINED SYMBOLS
_stats_start_measure_crit_thd
_stats_stop_measure_crit_thd
chSemObjectInit
chSemWaitTimeoutS
chSemSignalI
chSchRescheduleS
