ARM GAS  /tmp/ccR7GbWV.s 			page 1


   1              		.syntax unified
   2              		.cpu cortex-m4
   3              		.eabi_attribute 27, 1
   4              		.eabi_attribute 28, 1
   5              		.fpu fpv4-sp-d16
   6              		.eabi_attribute 20, 1
   7              		.eabi_attribute 21, 1
   8              		.eabi_attribute 23, 3
   9              		.eabi_attribute 24, 1
  10              		.eabi_attribute 25, 1
  11              		.eabi_attribute 26, 1
  12              		.eabi_attribute 30, 4
  13              		.eabi_attribute 34, 1
  14              		.eabi_attribute 18, 4
  15              		.thumb
  16              		.file	"chmempools.c"
  17              		.text
  18              	.Ltext0:
  19              		.cfi_sections	.debug_frame
  20              		.section	.text.chPoolObjectInit,"ax",%progbits
  21              		.align	1
  22              		.global	chPoolObjectInit
  23              		.thumb
  24              		.thumb_func
  25              		.type	chPoolObjectInit, %function
  26              	chPoolObjectInit:
  27              	.LFB246:
  28              		.file 1 "../../modules/ChibiOS/os/common/oslib/src/chmempools.c"
  29              		.loc 1 76 0
  30              		.cfi_startproc
  31              		@ args = 0, pretend = 0, frame = 0
  32              		@ frame_needed = 0, uses_anonymous_args = 0
  33              		@ link register save eliminated.
  34              	.LVL0:
  35              		.loc 1 80 0
  36 0000 0023     		movs	r3, #0
  37 0002 0360     		str	r3, [r0]
  38              		.loc 1 81 0
  39 0004 4160     		str	r1, [r0, #4]
  40              		.loc 1 82 0
  41 0006 8260     		str	r2, [r0, #8]
  42 0008 7047     		bx	lr
  43              		.cfi_endproc
  44              	.LFE246:
  45              		.size	chPoolObjectInit, .-chPoolObjectInit
  46              		.section	.text.chPoolAllocI,"ax",%progbits
  47              		.align	1
  48              		.global	chPoolAllocI
  49              		.thumb
  50              		.thumb_func
  51              		.type	chPoolAllocI, %function
  52              	chPoolAllocI:
  53              	.LFB248:
  54              		.loc 1 121 0
  55              		.cfi_startproc
  56              		@ args = 0, pretend = 0, frame = 0
  57              		@ frame_needed = 0, uses_anonymous_args = 0
ARM GAS  /tmp/ccR7GbWV.s 			page 2


  58              		@ link register save eliminated.
  59              	.LVL1:
  60              		.loc 1 121 0
  61 0000 0346     		mov	r3, r0
  62              		.loc 1 127 0
  63 0002 0068     		ldr	r0, [r0]
  64              	.LVL2:
  65              		.loc 1 129 0
  66 0004 10B1     		cbz	r0, .L3
  67              		.loc 1 130 0
  68 0006 0268     		ldr	r2, [r0]
  69 0008 1A60     		str	r2, [r3]
  70 000a 7047     		bx	lr
  71              	.L3:
  72              		.loc 1 132 0
  73 000c 9A68     		ldr	r2, [r3, #8]
  74 000e 12B1     		cbz	r2, .L4
  75              		.loc 1 133 0
  76 0010 5868     		ldr	r0, [r3, #4]
  77              	.LVL3:
  78 0012 0421     		movs	r1, #4
  79 0014 1047     		bx	r2
  80              	.LVL4:
  81              	.L4:
  82              		.loc 1 138 0
  83 0016 7047     		bx	lr
  84              		.cfi_endproc
  85              	.LFE248:
  86              		.size	chPoolAllocI, .-chPoolAllocI
  87              		.section	.text.chPoolAlloc,"ax",%progbits
  88              		.align	1
  89              		.global	chPoolAlloc
  90              		.thumb
  91              		.thumb_func
  92              		.type	chPoolAlloc, %function
  93              	chPoolAlloc:
  94              	.LFB249:
  95              		.loc 1 150 0
  96              		.cfi_startproc
  97              		@ args = 0, pretend = 0, frame = 0
  98              		@ frame_needed = 0, uses_anonymous_args = 0
  99              	.LVL5:
 100 0000 10B5     		push	{r4, lr}
 101              		.cfi_def_cfa_offset 8
 102              		.cfi_offset 4, -8
 103              		.cfi_offset 14, -4
 104              	.LBB34:
 105              	.LBB35:
 106              	.LBB36:
 107              	.LBB37:
 108              	.LBB38:
 109              		.file 2 "../../modules/ChibiOS/os/common/ext/CMSIS/include/cmsis_gcc.h"
 110              		.loc 2 264 0
 111 0002 2023     		movs	r3, #32
 112              	.LBE38:
 113              	.LBE37:
 114              	.LBE36:
ARM GAS  /tmp/ccR7GbWV.s 			page 3


 115              	.LBE35:
 116              	.LBE34:
 117              		.loc 1 150 0
 118 0004 0446     		mov	r4, r0
 119              	.LBB43:
 120              	.LBB42:
 121              	.LBB41:
 122              	.LBB40:
 123              	.LBB39:
 124              		.loc 2 264 0
 125              	@ 264 "../../modules/ChibiOS/os/common/ext/CMSIS/include/cmsis_gcc.h" 1
 126 0006 83F31188 		MSR basepri, r3
 127              	@ 0 "" 2
 128              		.thumb
 129              	.LBE39:
 130              	.LBE40:
 131              	.LBE41:
 132              		.file 3 "../../modules/ChibiOS/os/rt/include/chsys.h"
 133              		.loc 3 377 0
 134 000a FFF7FEFF 		bl	_stats_start_measure_crit_thd
 135              	.LVL6:
 136              	.LBE42:
 137              	.LBE43:
 138              		.loc 1 154 0
 139 000e 2046     		mov	r0, r4
 140 0010 FFF7FEFF 		bl	chPoolAllocI
 141              	.LVL7:
 142 0014 0446     		mov	r4, r0
 143              	.LVL8:
 144              	.LBB44:
 145              	.LBB45:
 146              		.loc 3 389 0
 147 0016 FFF7FEFF 		bl	_stats_stop_measure_crit_thd
 148              	.LVL9:
 149              	.LBB46:
 150              	.LBB47:
 151              	.LBB48:
 152              		.loc 2 264 0
 153 001a 0023     		movs	r3, #0
 154              	@ 264 "../../modules/ChibiOS/os/common/ext/CMSIS/include/cmsis_gcc.h" 1
 155 001c 83F31188 		MSR basepri, r3
 156              	@ 0 "" 2
 157              		.thumb
 158              	.LBE48:
 159              	.LBE47:
 160              	.LBE46:
 161              	.LBE45:
 162              	.LBE44:
 163              		.loc 1 158 0
 164 0020 2046     		mov	r0, r4
 165 0022 10BD     		pop	{r4, pc}
 166              		.cfi_endproc
 167              	.LFE249:
 168              		.size	chPoolAlloc, .-chPoolAlloc
 169              		.section	.text.chPoolFreeI,"ax",%progbits
 170              		.align	1
 171              		.global	chPoolFreeI
ARM GAS  /tmp/ccR7GbWV.s 			page 4


 172              		.thumb
 173              		.thumb_func
 174              		.type	chPoolFreeI, %function
 175              	chPoolFreeI:
 176              	.LFB250:
 177              		.loc 1 172 0
 178              		.cfi_startproc
 179              		@ args = 0, pretend = 0, frame = 0
 180              		@ frame_needed = 0, uses_anonymous_args = 0
 181              		@ link register save eliminated.
 182              	.LVL10:
 183              		.loc 1 178 0
 184 0000 0368     		ldr	r3, [r0]
 185 0002 0B60     		str	r3, [r1]
 186              		.loc 1 179 0
 187 0004 0160     		str	r1, [r0]
 188 0006 7047     		bx	lr
 189              		.cfi_endproc
 190              	.LFE250:
 191              		.size	chPoolFreeI, .-chPoolFreeI
 192              		.section	.text.chPoolFree,"ax",%progbits
 193              		.align	1
 194              		.global	chPoolFree
 195              		.thumb
 196              		.thumb_func
 197              		.type	chPoolFree, %function
 198              	chPoolFree:
 199              	.LFB251:
 200              		.loc 1 194 0
 201              		.cfi_startproc
 202              		@ args = 0, pretend = 0, frame = 0
 203              		@ frame_needed = 0, uses_anonymous_args = 0
 204              	.LVL11:
 205 0000 38B5     		push	{r3, r4, r5, lr}
 206              		.cfi_def_cfa_offset 16
 207              		.cfi_offset 3, -16
 208              		.cfi_offset 4, -12
 209              		.cfi_offset 5, -8
 210              		.cfi_offset 14, -4
 211              		.loc 1 194 0
 212 0002 0446     		mov	r4, r0
 213 0004 0D46     		mov	r5, r1
 214              	.LBB61:
 215              	.LBB62:
 216              	.LBB63:
 217              	.LBB64:
 218              	.LBB65:
 219              		.loc 2 264 0
 220 0006 2023     		movs	r3, #32
 221              	@ 264 "../../modules/ChibiOS/os/common/ext/CMSIS/include/cmsis_gcc.h" 1
 222 0008 83F31188 		MSR basepri, r3
 223              	@ 0 "" 2
 224              		.thumb
 225              	.LBE65:
 226              	.LBE64:
 227              	.LBE63:
 228              		.loc 3 377 0
ARM GAS  /tmp/ccR7GbWV.s 			page 5


 229 000c FFF7FEFF 		bl	_stats_start_measure_crit_thd
 230              	.LVL12:
 231              	.LBE62:
 232              	.LBE61:
 233              	.LBB66:
 234              	.LBB67:
 235              		.loc 1 178 0
 236 0010 2368     		ldr	r3, [r4]
 237 0012 2B60     		str	r3, [r5]
 238              		.loc 1 179 0
 239 0014 2560     		str	r5, [r4]
 240              	.LBE67:
 241              	.LBE66:
 242              	.LBB68:
 243              	.LBB69:
 244              		.loc 3 389 0
 245 0016 FFF7FEFF 		bl	_stats_stop_measure_crit_thd
 246              	.LVL13:
 247              	.LBB70:
 248              	.LBB71:
 249              	.LBB72:
 250              		.loc 2 264 0
 251 001a 0023     		movs	r3, #0
 252              	@ 264 "../../modules/ChibiOS/os/common/ext/CMSIS/include/cmsis_gcc.h" 1
 253 001c 83F31188 		MSR basepri, r3
 254              	@ 0 "" 2
 255              		.thumb
 256 0020 38BD     		pop	{r3, r4, r5, pc}
 257              	.LBE72:
 258              	.LBE71:
 259              	.LBE70:
 260              	.LBE69:
 261              	.LBE68:
 262              		.cfi_endproc
 263              	.LFE251:
 264              		.size	chPoolFree, .-chPoolFree
 265              		.section	.text.chPoolLoadArray,"ax",%progbits
 266              		.align	1
 267              		.global	chPoolLoadArray
 268              		.thumb
 269              		.thumb_func
 270              		.type	chPoolLoadArray, %function
 271              	chPoolLoadArray:
 272              	.LFB247:
 273              		.loc 1 98 0
 274              		.cfi_startproc
 275              		@ args = 0, pretend = 0, frame = 0
 276              		@ frame_needed = 0, uses_anonymous_args = 0
 277              	.LVL14:
 278 0000 70B5     		push	{r4, r5, r6, lr}
 279              		.cfi_def_cfa_offset 16
 280              		.cfi_offset 4, -16
 281              		.cfi_offset 5, -12
 282              		.cfi_offset 6, -8
 283              		.cfi_offset 14, -4
 284 0002 0646     		mov	r6, r0
 285 0004 0D46     		mov	r5, r1
ARM GAS  /tmp/ccR7GbWV.s 			page 6


 286 0006 1446     		mov	r4, r2
 287              	.LVL15:
 288              	.L13:
 289              		.loc 1 102 0
 290 0008 3CB1     		cbz	r4, .L15
 291              	.LVL16:
 292              	.LBB73:
 293              	.LBB74:
 294              		.file 4 "../../modules/ChibiOS/os/common/oslib/include/chmempools.h"
 295              		.loc 4 186 0
 296 000a 2946     		mov	r1, r5
 297 000c 3046     		mov	r0, r6
 298 000e FFF7FEFF 		bl	chPoolFree
 299              	.LVL17:
 300              	.LBE74:
 301              	.LBE73:
 302              		.loc 1 105 0
 303 0012 7368     		ldr	r3, [r6, #4]
 304              		.loc 1 107 0
 305 0014 013C     		subs	r4, r4, #1
 306              	.LVL18:
 307              		.loc 1 105 0
 308 0016 1D44     		add	r5, r5, r3
 309              	.LVL19:
 310 0018 F6E7     		b	.L13
 311              	.LVL20:
 312              	.L15:
 313              		.loc 1 109 0
 314 001a 70BD     		pop	{r4, r5, r6, pc}
 315              		.cfi_endproc
 316              	.LFE247:
 317              		.size	chPoolLoadArray, .-chPoolLoadArray
 318              		.section	.text.chGuardedPoolObjectInit,"ax",%progbits
 319              		.align	1
 320              		.global	chGuardedPoolObjectInit
 321              		.thumb
 322              		.thumb_func
 323              		.type	chGuardedPoolObjectInit, %function
 324              	chGuardedPoolObjectInit:
 325              	.LFB252:
 326              		.loc 1 212 0
 327              		.cfi_startproc
 328              		@ args = 0, pretend = 0, frame = 0
 329              		@ frame_needed = 0, uses_anonymous_args = 0
 330              		@ link register save eliminated.
 331              	.LVL21:
 332              	.LBB75:
 333              	.LBB76:
 334              		.loc 1 80 0
 335 0000 0023     		movs	r3, #0
 336              		.loc 1 81 0
 337 0002 0161     		str	r1, [r0, #16]
 338              		.loc 1 80 0
 339 0004 C360     		str	r3, [r0, #12]
 340              		.loc 1 82 0
 341 0006 4361     		str	r3, [r0, #20]
 342              	.LBE76:
ARM GAS  /tmp/ccR7GbWV.s 			page 7


 343              	.LBE75:
 344              		.loc 1 215 0
 345 0008 1946     		mov	r1, r3
 346              	.LVL22:
 347 000a FFF7FEBF 		b	chSemObjectInit
 348              	.LVL23:
 349              		.cfi_endproc
 350              	.LFE252:
 351              		.size	chGuardedPoolObjectInit, .-chGuardedPoolObjectInit
 352              		.section	.text.chGuardedPoolAllocTimeoutS,"ax",%progbits
 353              		.align	1
 354              		.global	chGuardedPoolAllocTimeoutS
 355              		.thumb
 356              		.thumb_func
 357              		.type	chGuardedPoolAllocTimeoutS, %function
 358              	chGuardedPoolAllocTimeoutS:
 359              	.LFB254:
 360              		.loc 1 260 0
 361              		.cfi_startproc
 362              		@ args = 0, pretend = 0, frame = 0
 363              		@ frame_needed = 0, uses_anonymous_args = 0
 364              	.LVL24:
 365 0000 10B5     		push	{r4, lr}
 366              		.cfi_def_cfa_offset 8
 367              		.cfi_offset 4, -8
 368              		.cfi_offset 14, -4
 369              		.loc 1 260 0
 370 0002 0446     		mov	r4, r0
 371              		.loc 1 263 0
 372 0004 FFF7FEFF 		bl	chSemWaitTimeoutS
 373              	.LVL25:
 374              		.loc 1 264 0
 375 0008 28B9     		cbnz	r0, .L18
 376              		.loc 1 268 0
 377 000a 04F10C00 		add	r0, r4, #12
 378              	.LVL26:
 379              		.loc 1 269 0
 380 000e BDE81040 		pop	{r4, lr}
 381              		.cfi_remember_state
 382              		.cfi_restore 14
 383              		.cfi_restore 4
 384              		.cfi_def_cfa_offset 0
 385              	.LVL27:
 386              		.loc 1 268 0
 387 0012 FFF7FEBF 		b	chPoolAllocI
 388              	.LVL28:
 389              	.L18:
 390              		.cfi_restore_state
 391              		.loc 1 269 0
 392 0016 0020     		movs	r0, #0
 393              	.LVL29:
 394 0018 10BD     		pop	{r4, pc}
 395              		.cfi_endproc
 396              	.LFE254:
 397              		.size	chGuardedPoolAllocTimeoutS, .-chGuardedPoolAllocTimeoutS
 398              		.section	.text.chGuardedPoolAllocTimeout,"ax",%progbits
 399              		.align	1
ARM GAS  /tmp/ccR7GbWV.s 			page 8


 400              		.global	chGuardedPoolAllocTimeout
 401              		.thumb
 402              		.thumb_func
 403              		.type	chGuardedPoolAllocTimeout, %function
 404              	chGuardedPoolAllocTimeout:
 405              	.LFB255:
 406              		.loc 1 287 0
 407              		.cfi_startproc
 408              		@ args = 0, pretend = 0, frame = 0
 409              		@ frame_needed = 0, uses_anonymous_args = 0
 410              	.LVL30:
 411 0000 38B5     		push	{r3, r4, r5, lr}
 412              		.cfi_def_cfa_offset 16
 413              		.cfi_offset 3, -16
 414              		.cfi_offset 4, -12
 415              		.cfi_offset 5, -8
 416              		.cfi_offset 14, -4
 417              		.loc 1 287 0
 418 0002 0546     		mov	r5, r0
 419 0004 0C46     		mov	r4, r1
 420              	.LBB87:
 421              	.LBB88:
 422              	.LBB89:
 423              	.LBB90:
 424              	.LBB91:
 425              		.loc 2 264 0
 426 0006 2023     		movs	r3, #32
 427              	@ 264 "../../modules/ChibiOS/os/common/ext/CMSIS/include/cmsis_gcc.h" 1
 428 0008 83F31188 		MSR basepri, r3
 429              	@ 0 "" 2
 430              		.thumb
 431              	.LBE91:
 432              	.LBE90:
 433              	.LBE89:
 434              		.loc 3 377 0
 435 000c FFF7FEFF 		bl	_stats_start_measure_crit_thd
 436              	.LVL31:
 437              	.LBE88:
 438              	.LBE87:
 439              		.loc 1 291 0
 440 0010 2146     		mov	r1, r4
 441 0012 2846     		mov	r0, r5
 442 0014 FFF7FEFF 		bl	chGuardedPoolAllocTimeoutS
 443              	.LVL32:
 444 0018 0446     		mov	r4, r0
 445              	.LVL33:
 446              	.LBB92:
 447              	.LBB93:
 448              		.loc 3 389 0
 449 001a FFF7FEFF 		bl	_stats_stop_measure_crit_thd
 450              	.LVL34:
 451              	.LBB94:
 452              	.LBB95:
 453              	.LBB96:
 454              		.loc 2 264 0
 455 001e 0023     		movs	r3, #0
 456              	@ 264 "../../modules/ChibiOS/os/common/ext/CMSIS/include/cmsis_gcc.h" 1
ARM GAS  /tmp/ccR7GbWV.s 			page 9


 457 0020 83F31188 		MSR basepri, r3
 458              	@ 0 "" 2
 459              		.thumb
 460              	.LBE96:
 461              	.LBE95:
 462              	.LBE94:
 463              	.LBE93:
 464              	.LBE92:
 465              		.loc 1 295 0
 466 0024 2046     		mov	r0, r4
 467 0026 38BD     		pop	{r3, r4, r5, pc}
 468              		.cfi_endproc
 469              	.LFE255:
 470              		.size	chGuardedPoolAllocTimeout, .-chGuardedPoolAllocTimeout
 471              		.section	.text.chGuardedPoolFreeI,"ax",%progbits
 472              		.align	1
 473              		.global	chGuardedPoolFreeI
 474              		.thumb
 475              		.thumb_func
 476              		.type	chGuardedPoolFreeI, %function
 477              	chGuardedPoolFreeI:
 478              	.LFB256:
 479              		.loc 1 309 0
 480              		.cfi_startproc
 481              		@ args = 0, pretend = 0, frame = 0
 482              		@ frame_needed = 0, uses_anonymous_args = 0
 483              		@ link register save eliminated.
 484              	.LVL35:
 485              	.LBB97:
 486              	.LBB98:
 487              		.loc 1 178 0
 488 0000 C268     		ldr	r2, [r0, #12]
 489 0002 0A60     		str	r2, [r1]
 490              		.loc 1 179 0
 491 0004 C160     		str	r1, [r0, #12]
 492              	.LBE98:
 493              	.LBE97:
 494              		.loc 1 312 0
 495 0006 FFF7FEBF 		b	chSemSignalI
 496              	.LVL36:
 497              		.cfi_endproc
 498              	.LFE256:
 499              		.size	chGuardedPoolFreeI, .-chGuardedPoolFreeI
 500              		.section	.text.chGuardedPoolFree,"ax",%progbits
 501              		.align	1
 502              		.global	chGuardedPoolFree
 503              		.thumb
 504              		.thumb_func
 505              		.type	chGuardedPoolFree, %function
 506              	chGuardedPoolFree:
 507              	.LFB257:
 508              		.loc 1 327 0
 509              		.cfi_startproc
 510              		@ args = 0, pretend = 0, frame = 0
 511              		@ frame_needed = 0, uses_anonymous_args = 0
 512              	.LVL37:
 513 0000 38B5     		push	{r3, r4, r5, lr}
ARM GAS  /tmp/ccR7GbWV.s 			page 10


 514              		.cfi_def_cfa_offset 16
 515              		.cfi_offset 3, -16
 516              		.cfi_offset 4, -12
 517              		.cfi_offset 5, -8
 518              		.cfi_offset 14, -4
 519              		.loc 1 327 0
 520 0002 0546     		mov	r5, r0
 521 0004 0C46     		mov	r4, r1
 522              	.LBB109:
 523              	.LBB110:
 524              	.LBB111:
 525              	.LBB112:
 526              	.LBB113:
 527              		.loc 2 264 0
 528 0006 2023     		movs	r3, #32
 529              	@ 264 "../../modules/ChibiOS/os/common/ext/CMSIS/include/cmsis_gcc.h" 1
 530 0008 83F31188 		MSR basepri, r3
 531              	@ 0 "" 2
 532              		.thumb
 533              	.LBE113:
 534              	.LBE112:
 535              	.LBE111:
 536              		.loc 3 377 0
 537 000c FFF7FEFF 		bl	_stats_start_measure_crit_thd
 538              	.LVL38:
 539              	.LBE110:
 540              	.LBE109:
 541              		.loc 1 330 0
 542 0010 2846     		mov	r0, r5
 543 0012 2146     		mov	r1, r4
 544 0014 FFF7FEFF 		bl	chGuardedPoolFreeI
 545              	.LVL39:
 546              		.loc 1 331 0
 547 0018 FFF7FEFF 		bl	chSchRescheduleS
 548              	.LVL40:
 549              	.LBB114:
 550              	.LBB115:
 551              		.loc 3 389 0
 552 001c FFF7FEFF 		bl	_stats_stop_measure_crit_thd
 553              	.LVL41:
 554              	.LBB116:
 555              	.LBB117:
 556              	.LBB118:
 557              		.loc 2 264 0
 558 0020 0023     		movs	r3, #0
 559              	@ 264 "../../modules/ChibiOS/os/common/ext/CMSIS/include/cmsis_gcc.h" 1
 560 0022 83F31188 		MSR basepri, r3
 561              	@ 0 "" 2
 562              		.thumb
 563 0026 38BD     		pop	{r3, r4, r5, pc}
 564              	.LBE118:
 565              	.LBE117:
 566              	.LBE116:
 567              	.LBE115:
 568              	.LBE114:
 569              		.cfi_endproc
 570              	.LFE257:
ARM GAS  /tmp/ccR7GbWV.s 			page 11


 571              		.size	chGuardedPoolFree, .-chGuardedPoolFree
 572              		.section	.text.chGuardedPoolLoadArray,"ax",%progbits
 573              		.align	1
 574              		.global	chGuardedPoolLoadArray
 575              		.thumb
 576              		.thumb_func
 577              		.type	chGuardedPoolLoadArray, %function
 578              	chGuardedPoolLoadArray:
 579              	.LFB253:
 580              		.loc 1 231 0
 581              		.cfi_startproc
 582              		@ args = 0, pretend = 0, frame = 0
 583              		@ frame_needed = 0, uses_anonymous_args = 0
 584              	.LVL42:
 585 0000 70B5     		push	{r4, r5, r6, lr}
 586              		.cfi_def_cfa_offset 16
 587              		.cfi_offset 4, -16
 588              		.cfi_offset 5, -12
 589              		.cfi_offset 6, -8
 590              		.cfi_offset 14, -4
 591 0002 0646     		mov	r6, r0
 592 0004 0D46     		mov	r5, r1
 593 0006 1446     		mov	r4, r2
 594              	.LVL43:
 595              	.L23:
 596              		.loc 1 235 0
 597 0008 3CB1     		cbz	r4, .L25
 598              	.LVL44:
 599              	.LBB119:
 600              	.LBB120:
 601              		.loc 4 228 0
 602 000a 2946     		mov	r1, r5
 603 000c 3046     		mov	r0, r6
 604 000e FFF7FEFF 		bl	chGuardedPoolFree
 605              	.LVL45:
 606              	.LBE120:
 607              	.LBE119:
 608              		.loc 1 238 0
 609 0012 3369     		ldr	r3, [r6, #16]
 610              		.loc 1 240 0
 611 0014 013C     		subs	r4, r4, #1
 612              	.LVL46:
 613              		.loc 1 238 0
 614 0016 1D44     		add	r5, r5, r3
 615              	.LVL47:
 616 0018 F6E7     		b	.L23
 617              	.LVL48:
 618              	.L25:
 619              		.loc 1 242 0
 620 001a 70BD     		pop	{r4, r5, r6, pc}
 621              		.cfi_endproc
 622              	.LFE253:
 623              		.size	chGuardedPoolLoadArray, .-chGuardedPoolLoadArray
 624              		.text
 625              	.Letext0:
 626              		.file 5 "/usr/lib/gcc/arm-none-eabi/4.9.3/include/stddef.h"
 627              		.file 6 "/usr/include/newlib/machine/_default_types.h"
ARM GAS  /tmp/ccR7GbWV.s 			page 12


 628              		.file 7 "/usr/include/newlib/sys/_stdint.h"
 629              		.file 8 "../../modules/ChibiOS/os/common/ports/ARMCMx/compilers/GCC/chtypes.h"
 630              		.file 9 "../../modules/ChibiOS/os/rt/include/chsystypes.h"
 631              		.file 10 "../../modules/ChibiOS/os/rt/include/chschd.h"
 632              		.file 11 "../../modules/ChibiOS/os/common/ports/ARMCMx/chcore.h"
 633              		.file 12 "../../modules/ChibiOS/os/common/ports/ARMCMx/chcore_v7m.h"
 634              		.file 13 "../../modules/ChibiOS/os/rt/include/chtm.h"
 635              		.file 14 "../../modules/ChibiOS/os/rt/include/chstats.h"
 636              		.file 15 "../../modules/ChibiOS/os/rt/include/chsem.h"
 637              		.file 16 "../../modules/ChibiOS/os/rt/include/chmtx.h"
 638              		.file 17 "../../modules/ChibiOS/os/common/oslib/include/chmemcore.h"
 639              		.file 18 "../../modules/ChibiOS/os/common/ext/CMSIS/include/core_cm4.h"