ARM GAS  /tmp/ccOMc97t.s 			page 1


   1              		.syntax unified
   2              		.cpu cortex-m4
   3              		.eabi_attribute 27, 1
   4              		.eabi_attribute 28, 1
   5              		.fpu fpv4-sp-d16
   6              		.eabi_attribute 20, 1
   7              		.eabi_attribute 21, 1
   8              		.eabi_attribute 23, 3
   9              		.eabi_attribute 24, 1
  10              		.eabi_attribute 25, 1
  11              		.eabi_attribute 26, 1
  12              		.eabi_attribute 30, 4
  13              		.eabi_attribute 34, 1
  14              		.eabi_attribute 18, 4
  15              		.thumb
  16              		.file	"chmemcore.c"
  17              		.text
  18              	.Ltext0:
  19              		.cfi_sections	.debug_frame
  20              		.section	.text._core_init,"ax",%progbits
  21              		.align	1
  22              		.global	_core_init
  23              		.thumb
  24              		.thumb_func
  25              		.type	_core_init, %function
  26              	_core_init:
  27              	.LFB246:
  28              		.file 1 "../../modules/ChibiOS/os/common/oslib/src/chmemcore.c"
  29              		.loc 1 79 0
  30              		.cfi_startproc
  31              		@ args = 0, pretend = 0, frame = 0
  32              		@ frame_needed = 0, uses_anonymous_args = 0
  33              		@ link register save eliminated.
  34              		.loc 1 85 0
  35 0000 034B     		ldr	r3, .L2
  36 0002 044A     		ldr	r2, .L2+4
  37 0004 1A60     		str	r2, [r3]
  38              		.loc 1 86 0
  39 0006 044B     		ldr	r3, .L2+8
  40 0008 044A     		ldr	r2, .L2+12
  41 000a 1A60     		str	r2, [r3]
  42 000c 7047     		bx	lr
  43              	.L3:
  44 000e 00BF     		.align	2
  45              	.L2:
  46 0010 00000000 		.word	.LANCHOR0
  47 0014 00000000 		.word	__heap_base__
  48 0018 00000000 		.word	.LANCHOR1
  49 001c 00000000 		.word	__heap_end__
  50              		.cfi_endproc
  51              	.LFE246:
  52              		.size	_core_init, .-_core_init
  53              		.section	.text.chCoreAllocAlignedI,"ax",%progbits
  54              		.align	1
  55              		.global	chCoreAllocAlignedI
  56              		.thumb
  57              		.thumb_func
ARM GAS  /tmp/ccOMc97t.s 			page 2


  58              		.type	chCoreAllocAlignedI, %function
  59              	chCoreAllocAlignedI:
  60              	.LFB247:
  61              		.loc 1 108 0
  62              		.cfi_startproc
  63              		@ args = 0, pretend = 0, frame = 0
  64              		@ frame_needed = 0, uses_anonymous_args = 0
  65              	.LVL0:
  66 0000 10B5     		push	{r4, lr}
  67              		.cfi_def_cfa_offset 8
  68              		.cfi_offset 4, -8
  69              		.cfi_offset 14, -4
  70 0002 4A1E     		subs	r2, r1, #1
  71              		.loc 1 115 0
  72 0004 084C     		ldr	r4, .L7
  73              		.loc 1 114 0
  74 0006 4B42     		negs	r3, r1
  75 0008 1044     		add	r0, r0, r2
  76              	.LVL1:
  77 000a 00EA0302 		and	r2, r0, r3
  78              	.LVL2:
  79 000e 2068     		ldr	r0, [r4]
  80 0010 0138     		subs	r0, r0, #1
  81              		.loc 1 115 0
  82 0012 0844     		add	r0, r0, r1
  83 0014 1840     		ands	r0, r0, r3
  84              	.LVL3:
  85              		.loc 1 117 0
  86 0016 054B     		ldr	r3, .L7+4
  87 0018 1B68     		ldr	r3, [r3]
  88 001a 1B1A     		subs	r3, r3, r0
  89 001c 9342     		cmp	r3, r2
  90              		.loc 1 120 0
  91 001e 26BF     		itte	cs
  92 0020 1218     		addcs	r2, r2, r0
  93              	.LVL4:
  94 0022 2260     		strcs	r2, [r4]
  95              		.loc 1 118 0
  96 0024 0020     		movcc	r0, #0
  97              	.LVL5:
  98              		.loc 1 123 0
  99 0026 10BD     		pop	{r4, pc}
 100              	.L8:
 101              		.align	2
 102              	.L7:
 103 0028 00000000 		.word	.LANCHOR0
 104 002c 00000000 		.word	.LANCHOR1
 105              		.cfi_endproc
 106              	.LFE247:
 107              		.size	chCoreAllocAlignedI, .-chCoreAllocAlignedI
 108              		.section	.text.chCoreAllocAligned,"ax",%progbits
 109              		.align	1
 110              		.global	chCoreAllocAligned
 111              		.thumb
 112              		.thumb_func
 113              		.type	chCoreAllocAligned, %function
 114              	chCoreAllocAligned:
ARM GAS  /tmp/ccOMc97t.s 			page 3


 115              	.LFB248:
 116              		.loc 1 137 0
 117              		.cfi_startproc
 118              		@ args = 0, pretend = 0, frame = 0
 119              		@ frame_needed = 0, uses_anonymous_args = 0
 120              	.LVL6:
 121 0000 38B5     		push	{r3, r4, r5, lr}
 122              		.cfi_def_cfa_offset 16
 123              		.cfi_offset 3, -16
 124              		.cfi_offset 4, -12
 125              		.cfi_offset 5, -8
 126              		.cfi_offset 14, -4
 127              		.loc 1 137 0
 128 0002 0546     		mov	r5, r0
 129 0004 0C46     		mov	r4, r1
 130              	.LBB24:
 131              	.LBB25:
 132              	.LBB26:
 133              	.LBB27:
 134              	.LBB28:
 135              		.file 2 "../../modules/ChibiOS/os/common/ext/CMSIS/include/cmsis_gcc.h"
 136              		.loc 2 264 0
 137 0006 2023     		movs	r3, #32
 138              	@ 264 "../../modules/ChibiOS/os/common/ext/CMSIS/include/cmsis_gcc.h" 1
 139 0008 83F31188 		MSR basepri, r3
 140              	@ 0 "" 2
 141              		.thumb
 142              	.LBE28:
 143              	.LBE27:
 144              	.LBE26:
 145              		.file 3 "../../modules/ChibiOS/os/rt/include/chsys.h"
 146              		.loc 3 377 0
 147 000c FFF7FEFF 		bl	_stats_start_measure_crit_thd
 148              	.LVL7:
 149              	.LBE25:
 150              	.LBE24:
 151              		.loc 1 141 0
 152 0010 2146     		mov	r1, r4
 153 0012 2846     		mov	r0, r5
 154 0014 FFF7FEFF 		bl	chCoreAllocAlignedI
 155              	.LVL8:
 156 0018 0446     		mov	r4, r0
 157              	.LVL9:
 158              	.LBB29:
 159              	.LBB30:
 160              		.loc 3 389 0
 161 001a FFF7FEFF 		bl	_stats_stop_measure_crit_thd
 162              	.LVL10:
 163              	.LBB31:
 164              	.LBB32:
 165              	.LBB33:
 166              		.loc 2 264 0
 167 001e 0023     		movs	r3, #0
 168              	@ 264 "../../modules/ChibiOS/os/common/ext/CMSIS/include/cmsis_gcc.h" 1
 169 0020 83F31188 		MSR basepri, r3
 170              	@ 0 "" 2
 171              		.thumb
ARM GAS  /tmp/ccOMc97t.s 			page 4


 172              	.LBE33:
 173              	.LBE32:
 174              	.LBE31:
 175              	.LBE30:
 176              	.LBE29:
 177              		.loc 1 145 0
 178 0024 2046     		mov	r0, r4
 179 0026 38BD     		pop	{r3, r4, r5, pc}
 180              		.cfi_endproc
 181              	.LFE248:
 182              		.size	chCoreAllocAligned, .-chCoreAllocAligned
 183              		.section	.text.chCoreGetStatusX,"ax",%progbits
 184              		.align	1
 185              		.global	chCoreGetStatusX
 186              		.thumb
 187              		.thumb_func
 188              		.type	chCoreGetStatusX, %function
 189              	chCoreGetStatusX:
 190              	.LFB249:
 191              		.loc 1 154 0
 192              		.cfi_startproc
 193              		@ args = 0, pretend = 0, frame = 0
 194              		@ frame_needed = 0, uses_anonymous_args = 0
 195              		@ link register save eliminated.
 196              		.loc 1 157 0
 197 0000 024B     		ldr	r3, .L11
 198 0002 1868     		ldr	r0, [r3]
 199 0004 024B     		ldr	r3, .L11+4
 200 0006 1B68     		ldr	r3, [r3]
 201              		.loc 1 159 0
 202 0008 C01A     		subs	r0, r0, r3
 203 000a 7047     		bx	lr
 204              	.L12:
 205              		.align	2
 206              	.L11:
 207 000c 00000000 		.word	.LANCHOR1
 208 0010 00000000 		.word	.LANCHOR0
 209              		.cfi_endproc
 210              	.LFE249:
 211              		.size	chCoreGetStatusX, .-chCoreGetStatusX
 212              		.section	.bss.endmem,"aw",%nobits
 213              		.align	2
 214              		.set	.LANCHOR1,. + 0
 215              		.type	endmem, %object
 216              		.size	endmem, 4
 217              	endmem:
 218 0000 00000000 		.space	4
 219              		.section	.bss.nextmem,"aw",%nobits
 220              		.align	2
 221              		.set	.LANCHOR0,. + 0
 222              		.type	nextmem, %object
 223              		.size	nextmem, 4
 224              	nextmem:
 225 0000 00000000 		.space	4
 226              		.text
 227              	.Letext0:
 228              		.file 4 "/usr/lib/gcc/arm-none-eabi/4.9.3/include/stddef.h"
ARM GAS  /tmp/ccOMc97t.s 			page 5


 229              		.file 5 "/usr/include/newlib/machine/_default_types.h"
 230              		.file 6 "/usr/include/newlib/sys/_stdint.h"
 231              		.file 7 "../../modules/ChibiOS/os/common/ports/ARMCMx/compilers/GCC/chtypes.h"
 232              		.file 8 "../../modules/ChibiOS/os/rt/include/chsystypes.h"
 233              		.file 9 "../../modules/ChibiOS/os/rt/include/chschd.h"
 234              		.file 10 "../../modules/ChibiOS/os/common/ports/ARMCMx/chcore.h"
 235              		.file 11 "../../modules/ChibiOS/os/common/ports/ARMCMx/chcore_v7m.h"
 236              		.file 12 "../../modules/ChibiOS/os/rt/include/chtm.h"
 237              		.file 13 "../../modules/ChibiOS/os/rt/include/chstats.h"
 238              		.file 14 "../../modules/ChibiOS/os/rt/include/chsem.h"
 239              		.file 15 "../../modules/ChibiOS/os/rt/include/chmtx.h"
 240              		.file 16 "../../modules/ChibiOS/os/common/ext/CMSIS/include/core_cm4.h"