ARM GAS  /tmp/ccNZTFwn.s 			page 1


   1              		.syntax unified
   2              		.cpu cortex-m4
   3              		.eabi_attribute 27, 1
   4              		.eabi_attribute 28, 1
   5              		.fpu fpv4-sp-d16
   6              		.eabi_attribute 20, 1
   7              		.eabi_attribute 21, 1
   8              		.eabi_attribute 23, 3
   9              		.eabi_attribute 24, 1
  10              		.eabi_attribute 25, 1
  11              		.eabi_attribute 26, 1
  12              		.eabi_attribute 30, 4
  13              		.eabi_attribute 34, 1
  14              		.eabi_attribute 18, 4
  15              		.thumb
  16              		.file	"chmsg.c"
  17              		.text
  18              	.Ltext0:
  19              		.cfi_sections	.debug_frame
  20              		.section	.text.chMsgSend,"ax",%progbits
  21              		.align	1
  22              		.global	chMsgSend
  23              		.thumb
  24              		.thumb_func
  25              		.type	chMsgSend, %function
  26              	chMsgSend:
  27              	.LFB246:
  28              		.file 1 "../../modules/ChibiOS/os/rt/src/chmsg.c"
  29              		.loc 1 87 0
  30              		.cfi_startproc
  31              		@ args = 0, pretend = 0, frame = 0
  32              		@ frame_needed = 0, uses_anonymous_args = 0
  33              	.LVL0:
  34              		.loc 1 88 0
  35 0000 114B     		ldr	r3, .L4
  36              		.loc 1 87 0
  37 0002 70B5     		push	{r4, r5, r6, lr}
  38              		.cfi_def_cfa_offset 16
  39              		.cfi_offset 4, -16
  40              		.cfi_offset 5, -12
  41              		.cfi_offset 6, -8
  42              		.cfi_offset 14, -4
  43              		.loc 1 88 0
  44 0004 9C69     		ldr	r4, [r3, #24]
  45              	.LVL1:
  46              		.loc 1 87 0
  47 0006 0546     		mov	r5, r0
  48 0008 0E46     		mov	r6, r1
  49              	.LBB34:
  50              	.LBB35:
  51              	.LBB36:
  52              	.LBB37:
  53              	.LBB38:
  54              		.file 2 "../../modules/ChibiOS/os/common/ext/CMSIS/include/cmsis_gcc.h"
  55              		.loc 2 264 0
  56 000a 2023     		movs	r3, #32
  57              	@ 264 "../../modules/ChibiOS/os/common/ext/CMSIS/include/cmsis_gcc.h" 1
ARM GAS  /tmp/ccNZTFwn.s 			page 2


  58 000c 83F31188 		MSR basepri, r3
  59              	@ 0 "" 2
  60              		.thumb
  61              	.LBE38:
  62              	.LBE37:
  63              	.LBE36:
  64              		.file 3 "../../modules/ChibiOS/os/rt/include/chsys.h"
  65              		.loc 3 377 0
  66 0010 FFF7FEFF 		bl	_stats_start_measure_crit_thd
  67              	.LVL2:
  68              	.LBE35:
  69              	.LBE34:
  70              		.loc 1 93 0
  71 0014 6662     		str	r6, [r4, #36]
  72              	.LVL3:
  73              		.loc 1 94 0
  74 0016 05F12C03 		add	r3, r5, #44
  75              	.LVL4:
  76              	.LBB39:
  77              	.LBB40:
  78              		.file 4 "../../modules/ChibiOS/os/rt/include/chschd.h"
  79              		.loc 4 611 0
  80 001a 2360     		str	r3, [r4]
  81              		.loc 4 612 0
  82 001c 2B6B     		ldr	r3, [r5, #48]
  83              	.LVL5:
  84 001e 6360     		str	r3, [r4, #4]
  85              		.loc 4 613 0
  86 0020 1C60     		str	r4, [r3]
  87              	.LVL6:
  88              	.LBE40:
  89              	.LBE39:
  90              		.loc 1 95 0
  91 0022 95F82030 		ldrb	r3, [r5, #32]	@ zero_extendqisi2
  92              	.LBB42:
  93              	.LBB41:
  94              		.loc 4 614 0
  95 0026 2C63     		str	r4, [r5, #48]
  96              	.LBE41:
  97              	.LBE42:
  98              		.loc 1 95 0
  99 0028 0E2B     		cmp	r3, #14
 100 002a 02D1     		bne	.L2
 101              		.loc 1 96 0
 102 002c 2846     		mov	r0, r5
 103 002e FFF7FEFF 		bl	chSchReadyI
 104              	.LVL7:
 105              	.L2:
 106              		.loc 1 98 0
 107 0032 0C20     		movs	r0, #12
 108 0034 FFF7FEFF 		bl	chSchGoSleepS
 109              	.LVL8:
 110              		.loc 1 99 0
 111 0038 646A     		ldr	r4, [r4, #36]
 112              	.LVL9:
 113              	.LBB43:
 114              	.LBB44:
ARM GAS  /tmp/ccNZTFwn.s 			page 3


 115              		.loc 3 389 0
 116 003a FFF7FEFF 		bl	_stats_stop_measure_crit_thd
 117              	.LVL10:
 118              	.LBB45:
 119              	.LBB46:
 120              	.LBB47:
 121              		.loc 2 264 0
 122 003e 0023     		movs	r3, #0
 123              	@ 264 "../../modules/ChibiOS/os/common/ext/CMSIS/include/cmsis_gcc.h" 1
 124 0040 83F31188 		MSR basepri, r3
 125              	@ 0 "" 2
 126              		.thumb
 127              	.LBE47:
 128              	.LBE46:
 129              	.LBE45:
 130              	.LBE44:
 131              	.LBE43:
 132              		.loc 1 103 0
 133 0044 2046     		mov	r0, r4
 134 0046 70BD     		pop	{r4, r5, r6, pc}
 135              	.LVL11:
 136              	.L5:
 137              		.align	2
 138              	.L4:
 139 0048 00000000 		.word	ch
 140              		.cfi_endproc
 141              	.LFE246:
 142              		.size	chMsgSend, .-chMsgSend
 143              		.section	.text.chMsgWait,"ax",%progbits
 144              		.align	1
 145              		.global	chMsgWait
 146              		.thumb
 147              		.thumb_func
 148              		.type	chMsgWait, %function
 149              	chMsgWait:
 150              	.LFB247:
 151              		.loc 1 119 0
 152              		.cfi_startproc
 153              		@ args = 0, pretend = 0, frame = 0
 154              		@ frame_needed = 0, uses_anonymous_args = 0
 155              	.LVL12:
 156 0000 10B5     		push	{r4, lr}
 157              		.cfi_def_cfa_offset 8
 158              		.cfi_offset 4, -8
 159              		.cfi_offset 14, -4
 160              	.LBB62:
 161              	.LBB63:
 162              	.LBB64:
 163              	.LBB65:
 164              	.LBB66:
 165              		.loc 2 264 0
 166 0002 2023     		movs	r3, #32
 167              	@ 264 "../../modules/ChibiOS/os/common/ext/CMSIS/include/cmsis_gcc.h" 1
 168 0004 83F31188 		MSR basepri, r3
 169              	@ 0 "" 2
 170              		.thumb
 171              	.LBE66:
ARM GAS  /tmp/ccNZTFwn.s 			page 4


 172              	.LBE65:
 173              	.LBE64:
 174              		.loc 3 377 0
 175 0008 FFF7FEFF 		bl	_stats_start_measure_crit_thd
 176              	.LVL13:
 177              	.LBE63:
 178              	.LBE62:
 179              		.loc 1 123 0
 180 000c 0D4B     		ldr	r3, .L8
 181 000e 9A69     		ldr	r2, [r3, #24]
 182              	.LVL14:
 183              	.LBB67:
 184              	.LBB68:
 185              		.file 5 "../../modules/ChibiOS/os/rt/include/chmsg.h"
 186              		.loc 5 83 0
 187 0010 02F12C01 		add	r1, r2, #44
 188              	.LBE68:
 189              	.LBE67:
 190              		.loc 1 123 0
 191 0014 D26A     		ldr	r2, [r2, #44]
 192              	.LVL15:
 193 0016 8A42     		cmp	r2, r1
 194 0018 1C46     		mov	r4, r3
 195 001a 02D1     		bne	.L7
 196              		.loc 1 124 0
 197 001c 0E20     		movs	r0, #14
 198 001e FFF7FEFF 		bl	chSchGoSleepS
 199              	.LVL16:
 200              	.L7:
 201              		.loc 1 126 0
 202 0022 A369     		ldr	r3, [r4, #24]
 203              	.LVL17:
 204              	.LBB69:
 205              	.LBB70:
 206              		.loc 4 618 0
 207 0024 DC6A     		ldr	r4, [r3, #44]
 208              	.LVL18:
 209              		.loc 4 620 0
 210 0026 2268     		ldr	r2, [r4]
 211 0028 43F82C2F 		str	r2, [r3, #44]!
 212              	.LVL19:
 213              		.loc 4 621 0
 214 002c 5360     		str	r3, [r2, #4]
 215              	.LBE70:
 216              	.LBE69:
 217              		.loc 1 127 0
 218 002e 0D23     		movs	r3, #13
 219              	.LVL20:
 220 0030 84F82030 		strb	r3, [r4, #32]
 221              	.LBB71:
 222              	.LBB72:
 223              		.loc 3 389 0
 224 0034 FFF7FEFF 		bl	_stats_stop_measure_crit_thd
 225              	.LVL21:
 226              	.LBB73:
 227              	.LBB74:
 228              	.LBB75:
ARM GAS  /tmp/ccNZTFwn.s 			page 5


 229              		.loc 2 264 0
 230 0038 0023     		movs	r3, #0
 231              	@ 264 "../../modules/ChibiOS/os/common/ext/CMSIS/include/cmsis_gcc.h" 1
 232 003a 83F31188 		MSR basepri, r3
 233              	@ 0 "" 2
 234              		.thumb
 235              	.LBE75:
 236              	.LBE74:
 237              	.LBE73:
 238              	.LBE72:
 239              	.LBE71:
 240              		.loc 1 131 0
 241 003e 2046     		mov	r0, r4
 242 0040 10BD     		pop	{r4, pc}
 243              	.LVL22:
 244              	.L9:
 245 0042 00BF     		.align	2
 246              	.L8:
 247 0044 00000000 		.word	ch
 248              		.cfi_endproc
 249              	.LFE247:
 250              		.size	chMsgWait, .-chMsgWait
 251              		.section	.text.chMsgRelease,"ax",%progbits
 252              		.align	1
 253              		.global	chMsgRelease
 254              		.thumb
 255              		.thumb_func
 256              		.type	chMsgRelease, %function
 257              	chMsgRelease:
 258              	.LFB248:
 259              		.loc 1 143 0
 260              		.cfi_startproc
 261              		@ args = 0, pretend = 0, frame = 0
 262              		@ frame_needed = 0, uses_anonymous_args = 0
 263              	.LVL23:
 264 0000 38B5     		push	{r3, r4, r5, lr}
 265              		.cfi_def_cfa_offset 16
 266              		.cfi_offset 3, -16
 267              		.cfi_offset 4, -12
 268              		.cfi_offset 5, -8
 269              		.cfi_offset 14, -4
 270              		.loc 1 143 0
 271 0002 0546     		mov	r5, r0
 272 0004 0C46     		mov	r4, r1
 273              	.LBB88:
 274              	.LBB89:
 275              	.LBB90:
 276              	.LBB91:
 277              	.LBB92:
 278              		.loc 2 264 0
 279 0006 2023     		movs	r3, #32
 280              	@ 264 "../../modules/ChibiOS/os/common/ext/CMSIS/include/cmsis_gcc.h" 1
 281 0008 83F31188 		MSR basepri, r3
 282              	@ 0 "" 2
 283              		.thumb
 284              	.LBE92:
 285              	.LBE91:
ARM GAS  /tmp/ccNZTFwn.s 			page 6


 286              	.LBE90:
 287              		.loc 3 377 0
 288 000c FFF7FEFF 		bl	_stats_start_measure_crit_thd
 289              	.LVL24:
 290              	.LBE89:
 291              	.LBE88:
 292              	.LBB93:
 293              	.LBB94:
 294              		.loc 5 117 0
 295 0010 2846     		mov	r0, r5
 296 0012 2146     		mov	r1, r4
 297 0014 FFF7FEFF 		bl	chSchWakeupS
 298              	.LVL25:
 299              	.LBE94:
 300              	.LBE93:
 301              	.LBB95:
 302              	.LBB96:
 303              		.loc 3 389 0
 304 0018 FFF7FEFF 		bl	_stats_stop_measure_crit_thd
 305              	.LVL26:
 306              	.LBB97:
 307              	.LBB98:
 308              	.LBB99:
 309              		.loc 2 264 0
 310 001c 0023     		movs	r3, #0
 311              	@ 264 "../../modules/ChibiOS/os/common/ext/CMSIS/include/cmsis_gcc.h" 1
 312 001e 83F31188 		MSR basepri, r3
 313              	@ 0 "" 2
 314              		.thumb
 315 0022 38BD     		pop	{r3, r4, r5, pc}
 316              	.LBE99:
 317              	.LBE98:
 318              	.LBE97:
 319              	.LBE96:
 320              	.LBE95:
 321              		.cfi_endproc
 322              	.LFE248:
 323              		.size	chMsgRelease, .-chMsgRelease
 324              		.text
 325              	.Letext0:
 326              		.file 6 "/usr/include/newlib/machine/_default_types.h"
 327              		.file 7 "/usr/include/newlib/sys/_stdint.h"
 328              		.file 8 "../../modules/ChibiOS/os/common/ports/ARMCMx/compilers/GCC/chtypes.h"
 329              		.file 9 "../../modules/ChibiOS/os/rt/include/chsystypes.h"
 330              		.file 10 "../../modules/ChibiOS/os/common/ports/ARMCMx/chcore.h"
 331              		.file 11 "../../modules/ChibiOS/os/common/ports/ARMCMx/chcore_v7m.h"
 332              		.file 12 "../../modules/ChibiOS/os/rt/include/chtm.h"
 333              		.file 13 "../../modules/ChibiOS/os/rt/include/chstats.h"
 334              		.file 14 "../../modules/ChibiOS/os/rt/include/chsem.h"
 335              		.file 15 "../../modules/ChibiOS/os/rt/include/chmtx.h"
 336              		.file 16 "../../modules/ChibiOS/os/common/ext/CMSIS/include/core_cm4.h"
 337              		.section	.debug_info,"",%progbits
 338              	.Ldebug_info0:
 339 0000 7D0C0000 		.4byte	0xc7d
 340 0004 0400     		.2byte	0x4
 341 0006 00000000 		.4byte	.Ldebug_abbrev0
 342 000a 04       		.byte	0x4
ARM GAS  /tmp/ccNZTFwn.s 			page 7


 343 000b 01       		.uleb128 0x1
 344 000c F4010000 		.4byte	.LASF120
 345 0010 01       		.byte	0x1
 346 0011 98050000 		.4byte	.LASF121
 347 0015 26010000 		.4byte	.LASF122
 348 0019 18000000 		.4byte	.Ldebug_ranges0+0x18
 349 001d 00000000 		.4byte	0
 350 0021 00000000 		.4byte	.Ldebug_line0
 351 0025 02       		.uleb128 0x2
 352 0026 04       		.byte	0x4
 353 0027 05       		.byte	0x5
 354 0028 696E7400 		.ascii	"int\000"
 355 002c 03       		.uleb128 0x3
 356 002d 04       		.byte	0x4
 357 002e 07       		.byte	0x7
 358 002f E7010000 		.4byte	.LASF0
 359 0033 03       		.uleb128 0x3
 360 0034 01       		.byte	0x1
 361 0035 06       		.byte	0x6
 362 0036 13010000 		.4byte	.LASF1
 363 003a 04       		.uleb128 0x4
 364 003b 43000000 		.4byte	.LASF5
 365 003f 06       		.byte	0x6
 366 0040 1D       		.byte	0x1d
 367 0041 45000000 		.4byte	0x45
 368 0045 03       		.uleb128 0x3
 369 0046 01       		.byte	0x1
 370 0047 08       		.byte	0x8
 371 0048 72040000 		.4byte	.LASF2
 372 004c 03       		.uleb128 0x3
 373 004d 02       		.byte	0x2
 374 004e 05       		.byte	0x5
 375 004f 80040000 		.4byte	.LASF3
 376 0053 03       		.uleb128 0x3
 377 0054 02       		.byte	0x2
 378 0055 07       		.byte	0x7
 379 0056 FC020000 		.4byte	.LASF4
 380 005a 04       		.uleb128 0x4
 381 005b 81030000 		.4byte	.LASF6
 382 005f 06       		.byte	0x6
 383 0060 3F       		.byte	0x3f
 384 0061 65000000 		.4byte	0x65
 385 0065 03       		.uleb128 0x3
 386 0066 04       		.byte	0x4
 387 0067 05       		.byte	0x5
 388 0068 70010000 		.4byte	.LASF7
 389 006c 04       		.uleb128 0x4
 390 006d A7010000 		.4byte	.LASF8
 391 0071 06       		.byte	0x6
 392 0072 41       		.byte	0x41
 393 0073 77000000 		.4byte	0x77
 394 0077 03       		.uleb128 0x3
 395 0078 04       		.byte	0x4
 396 0079 07       		.byte	0x7
 397 007a 22050000 		.4byte	.LASF9
 398 007e 03       		.uleb128 0x3
 399 007f 08       		.byte	0x8
ARM GAS  /tmp/ccNZTFwn.s 			page 8


 400 0080 05       		.byte	0x5
 401 0081 05010000 		.4byte	.LASF10
 402 0085 04       		.uleb128 0x4
 403 0086 20040000 		.4byte	.LASF11
 404 008a 06       		.byte	0x6
 405 008b 5B       		.byte	0x5b
 406 008c 90000000 		.4byte	0x90
 407 0090 03       		.uleb128 0x3
 408 0091 08       		.byte	0x8
 409 0092 07       		.byte	0x7
 410 0093 A1000000 		.4byte	.LASF12
 411 0097 04       		.uleb128 0x4
 412 0098 FE050000 		.4byte	.LASF13
 413 009c 07       		.byte	0x7
 414 009d 14       		.byte	0x14
 415 009e 3A000000 		.4byte	0x3a
 416 00a2 04       		.uleb128 0x4
 417 00a3 6A040000 		.4byte	.LASF14
 418 00a7 07       		.byte	0x7
 419 00a8 1F       		.byte	0x1f
 420 00a9 5A000000 		.4byte	0x5a
 421 00ad 04       		.uleb128 0x4
 422 00ae F0040000 		.4byte	.LASF15
 423 00b2 07       		.byte	0x7
 424 00b3 20       		.byte	0x20
 425 00b4 6C000000 		.4byte	0x6c
 426 00b8 04       		.uleb128 0x4
 427 00b9 2D000000 		.4byte	.LASF16
 428 00bd 07       		.byte	0x7
 429 00be 26       		.byte	0x26
 430 00bf 85000000 		.4byte	0x85
 431 00c3 04       		.uleb128 0x4
 432 00c4 C0050000 		.4byte	.LASF17
 433 00c8 08       		.byte	0x8
 434 00c9 39       		.byte	0x39
 435 00ca AD000000 		.4byte	0xad
 436 00ce 04       		.uleb128 0x4
 437 00cf FC000000 		.4byte	.LASF18
 438 00d3 08       		.byte	0x8
 439 00d4 3A       		.byte	0x3a
 440 00d5 B8000000 		.4byte	0xb8
 441 00d9 04       		.uleb128 0x4
 442 00da 54030000 		.4byte	.LASF19
 443 00de 08       		.byte	0x8
 444 00df 3C       		.byte	0x3c
 445 00e0 97000000 		.4byte	0x97
 446 00e4 04       		.uleb128 0x4
 447 00e5 83010000 		.4byte	.LASF20
 448 00e9 08       		.byte	0x8
 449 00ea 3D       		.byte	0x3d
 450 00eb 97000000 		.4byte	0x97
 451 00ef 04       		.uleb128 0x4
 452 00f0 36040000 		.4byte	.LASF21
 453 00f4 08       		.byte	0x8
 454 00f5 3E       		.byte	0x3e
 455 00f6 97000000 		.4byte	0x97
 456 00fa 04       		.uleb128 0x4
ARM GAS  /tmp/ccNZTFwn.s 			page 9


 457 00fb 53040000 		.4byte	.LASF22
 458 00ff 08       		.byte	0x8
 459 0100 40       		.byte	0x40
 460 0101 AD000000 		.4byte	0xad
 461 0105 04       		.uleb128 0x4
 462 0106 2D030000 		.4byte	.LASF23
 463 010a 08       		.byte	0x8
 464 010b 41       		.byte	0x41
 465 010c A2000000 		.4byte	0xa2
 466 0110 04       		.uleb128 0x4
 467 0111 75030000 		.4byte	.LASF24
 468 0115 08       		.byte	0x8
 469 0116 43       		.byte	0x43
 470 0117 AD000000 		.4byte	0xad
 471 011b 04       		.uleb128 0x4
 472 011c E1010000 		.4byte	.LASF25
 473 0120 08       		.byte	0x8
 474 0121 45       		.byte	0x45
 475 0122 A2000000 		.4byte	0xa2
 476 0126 04       		.uleb128 0x4
 477 0127 38030000 		.4byte	.LASF26
 478 012b 08       		.byte	0x8
 479 012c 46       		.byte	0x46
 480 012d AD000000 		.4byte	0xad
 481 0131 04       		.uleb128 0x4
 482 0132 66050000 		.4byte	.LASF27
 483 0136 09       		.byte	0x9
 484 0137 33       		.byte	0x33
 485 0138 AD000000 		.4byte	0xad
 486 013c 04       		.uleb128 0x4
 487 013d 46050000 		.4byte	.LASF28
 488 0141 09       		.byte	0x9
 489 0142 3F       		.byte	0x3f
 490 0143 47010000 		.4byte	0x147
 491 0147 05       		.uleb128 0x5
 492 0148 1E030000 		.4byte	.LASF47
 493 014c 60       		.byte	0x60
 494 014d 04       		.byte	0x4
 495 014e 9A       		.byte	0x9a
 496 014f 32020000 		.4byte	0x232
 497 0153 06       		.uleb128 0x6
 498 0154 F0020000 		.4byte	.LASF29
 499 0158 04       		.byte	0x4
 500 0159 9B       		.byte	0x9b
 501 015a 67020000 		.4byte	0x267
 502 015e 00       		.byte	0
 503 015f 06       		.uleb128 0x6
 504 0160 13040000 		.4byte	.LASF30
 505 0164 04       		.byte	0x4
 506 0165 9C       		.byte	0x9c
 507 0166 FA000000 		.4byte	0xfa
 508 016a 08       		.byte	0x8
 509 016b 07       		.uleb128 0x7
 510 016c 63747800 		.ascii	"ctx\000"
 511 0170 04       		.byte	0x4
 512 0171 9D       		.byte	0x9d
 513 0172 6C040000 		.4byte	0x46c
ARM GAS  /tmp/ccNZTFwn.s 			page 10


 514 0176 0C       		.byte	0xc
 515 0177 06       		.uleb128 0x6
 516 0178 96030000 		.4byte	.LASF31
 517 017c 04       		.byte	0x4
 518 017d 9F       		.byte	0x9f
 519 017e 3D020000 		.4byte	0x23d
 520 0182 10       		.byte	0x10
 521 0183 06       		.uleb128 0x6
 522 0184 40050000 		.4byte	.LASF32
 523 0188 04       		.byte	0x4
 524 0189 A0       		.byte	0xa0
 525 018a 3D020000 		.4byte	0x23d
 526 018e 14       		.byte	0x14
 527 018f 06       		.uleb128 0x6
 528 0190 28030000 		.4byte	.LASF33
 529 0194 04       		.byte	0x4
 530 0195 A7       		.byte	0xa7
 531 0196 53070000 		.4byte	0x753
 532 019a 18       		.byte	0x18
 533 019b 06       		.uleb128 0x6
 534 019c 34050000 		.4byte	.LASF34
 535 01a0 04       		.byte	0x4
 536 01a1 B0       		.byte	0xb0
 537 01a2 65070000 		.4byte	0x765
 538 01a6 1C       		.byte	0x1c
 539 01a7 06       		.uleb128 0x6
 540 01a8 6A010000 		.4byte	.LASF35
 541 01ac 04       		.byte	0x4
 542 01ad B5       		.byte	0xb5
 543 01ae E4000000 		.4byte	0xe4
 544 01b2 20       		.byte	0x20
 545 01b3 06       		.uleb128 0x6
 546 01b4 06060000 		.4byte	.LASF36
 547 01b8 04       		.byte	0x4
 548 01b9 B9       		.byte	0xb9
 549 01ba D9000000 		.4byte	0xd9
 550 01be 21       		.byte	0x21
 551 01bf 06       		.uleb128 0x6
 552 01c0 3E040000 		.4byte	.LASF37
 553 01c4 04       		.byte	0x4
 554 01c5 BE       		.byte	0xbe
 555 01c6 EF000000 		.4byte	0xef
 556 01ca 22       		.byte	0x22
 557 01cb 08       		.uleb128 0x8
 558 01cc 7500     		.ascii	"u\000"
 559 01ce 04       		.byte	0x4
 560 01cf 0F01     		.2byte	0x10f
 561 01d1 88060000 		.4byte	0x688
 562 01d5 24       		.byte	0x24
 563 01d6 09       		.uleb128 0x9
 564 01d7 CB010000 		.4byte	.LASF38
 565 01db 04       		.byte	0x4
 566 01dc 1401     		.2byte	0x114
 567 01de 43020000 		.4byte	0x243
 568 01e2 28       		.byte	0x28
 569 01e3 09       		.uleb128 0x9
 570 01e4 61010000 		.4byte	.LASF39
ARM GAS  /tmp/ccNZTFwn.s 			page 11


 571 01e8 04       		.byte	0x4
 572 01e9 1A01     		.2byte	0x11a
 573 01eb 67020000 		.4byte	0x267
 574 01ef 2C       		.byte	0x2c
 575 01f0 09       		.uleb128 0x9
 576 01f1 3F030000 		.4byte	.LASF40
 577 01f5 04       		.byte	0x4
 578 01f6 2001     		.2byte	0x120
 579 01f8 10010000 		.4byte	0x110
 580 01fc 34       		.byte	0x34
 581 01fd 09       		.uleb128 0x9
 582 01fe 5A060000 		.4byte	.LASF41
 583 0202 04       		.byte	0x4
 584 0203 2701     		.2byte	0x127
 585 0205 4D070000 		.4byte	0x74d
 586 0209 38       		.byte	0x38
 587 020a 09       		.uleb128 0x9
 588 020b 9C030000 		.4byte	.LASF42
 589 020f 04       		.byte	0x4
 590 0210 2B01     		.2byte	0x12b
 591 0212 FA000000 		.4byte	0xfa
 592 0216 3C       		.byte	0x3c
 593 0217 09       		.uleb128 0x9
 594 0218 F6020000 		.4byte	.LASF43
 595 021c 04       		.byte	0x4
 596 021d 3201     		.2byte	0x132
 597 021f 1A030000 		.4byte	0x31a
 598 0223 40       		.byte	0x40
 599 0224 09       		.uleb128 0x9
 600 0225 91010000 		.4byte	.LASF44
 601 0229 04       		.byte	0x4
 602 022a 3801     		.2byte	0x138
 603 022c 39060000 		.4byte	0x639
 604 0230 48       		.byte	0x48
 605 0231 00       		.byte	0
 606 0232 04       		.uleb128 0x4
 607 0233 CB030000 		.4byte	.LASF45
 608 0237 09       		.byte	0x9
 609 0238 44       		.byte	0x44
 610 0239 3D020000 		.4byte	0x23d
 611 023d 0A       		.uleb128 0xa
 612 023e 04       		.byte	0x4
 613 023f 3C010000 		.4byte	0x13c
 614 0243 04       		.uleb128 0x4
 615 0244 31060000 		.4byte	.LASF46
 616 0248 09       		.byte	0x9
 617 0249 49       		.byte	0x49
 618 024a 4E020000 		.4byte	0x24e
 619 024e 05       		.uleb128 0x5
 620 024f 0C050000 		.4byte	.LASF48
 621 0253 04       		.byte	0x4
 622 0254 04       		.byte	0x4
 623 0255 88       		.byte	0x88
 624 0256 67020000 		.4byte	0x267
 625 025a 06       		.uleb128 0x6
 626 025b F7000000 		.4byte	.LASF49
 627 025f 04       		.byte	0x4
ARM GAS  /tmp/ccNZTFwn.s 			page 12


 628 0260 89       		.byte	0x89
 629 0261 3D020000 		.4byte	0x23d
 630 0265 00       		.byte	0
 631 0266 00       		.byte	0
 632 0267 04       		.uleb128 0x4
 633 0268 DF050000 		.4byte	.LASF50
 634 026c 09       		.byte	0x9
 635 026d 50       		.byte	0x50
 636 026e 72020000 		.4byte	0x272
 637 0272 05       		.uleb128 0x5
 638 0273 5E000000 		.4byte	.LASF51
 639 0277 08       		.byte	0x8
 640 0278 04       		.byte	0x4
 641 0279 8F       		.byte	0x8f
 642 027a 97020000 		.4byte	0x297
 643 027e 06       		.uleb128 0x6
 644 027f F7000000 		.4byte	.LASF49
 645 0283 04       		.byte	0x4
 646 0284 90       		.byte	0x90
 647 0285 3D020000 		.4byte	0x23d
 648 0289 00       		.byte	0
 649 028a 06       		.uleb128 0x6
 650 028b 4D000000 		.4byte	.LASF52
 651 028f 04       		.byte	0x4
 652 0290 91       		.byte	0x91
 653 0291 3D020000 		.4byte	0x23d
 654 0295 04       		.byte	0x4
 655 0296 00       		.byte	0
 656 0297 04       		.uleb128 0x4
 657 0298 00000000 		.4byte	.LASF53
 658 029c 09       		.byte	0x9
 659 029d 57       		.byte	0x57
 660 029e A2020000 		.4byte	0x2a2
 661 02a2 0B       		.uleb128 0xb
 662 02a3 67030000 		.4byte	.LASF54
 663 02a7 1C       		.byte	0x1c
 664 02a8 04       		.byte	0x4
 665 02a9 6A01     		.2byte	0x16a
 666 02ab FE020000 		.4byte	0x2fe
 667 02af 09       		.uleb128 0x9
 668 02b0 F0020000 		.4byte	.LASF29
 669 02b4 04       		.byte	0x4
 670 02b5 6B01     		.2byte	0x16b
 671 02b7 67020000 		.4byte	0x267
 672 02bb 00       		.byte	0
 673 02bc 09       		.uleb128 0x9
 674 02bd 13040000 		.4byte	.LASF30
 675 02c1 04       		.byte	0x4
 676 02c2 6C01     		.2byte	0x16c
 677 02c4 FA000000 		.4byte	0xfa
 678 02c8 08       		.byte	0x8
 679 02c9 08       		.uleb128 0x8
 680 02ca 63747800 		.ascii	"ctx\000"
 681 02ce 04       		.byte	0x4
 682 02cf 6E01     		.2byte	0x16e
 683 02d1 6C040000 		.4byte	0x46c
 684 02d5 0C       		.byte	0xc
ARM GAS  /tmp/ccNZTFwn.s 			page 13


 685 02d6 09       		.uleb128 0x9
 686 02d7 96030000 		.4byte	.LASF31
 687 02db 04       		.byte	0x4
 688 02dc 7101     		.2byte	0x171
 689 02de 3D020000 		.4byte	0x23d
 690 02e2 10       		.byte	0x10
 691 02e3 09       		.uleb128 0x9
 692 02e4 40050000 		.4byte	.LASF32
 693 02e8 04       		.byte	0x4
 694 02e9 7201     		.2byte	0x172
 695 02eb 3D020000 		.4byte	0x23d
 696 02ef 14       		.byte	0x14
 697 02f0 09       		.uleb128 0x9
 698 02f1 18040000 		.4byte	.LASF55
 699 02f5 04       		.byte	0x4
 700 02f6 7501     		.2byte	0x175
 701 02f8 3D020000 		.4byte	0x23d
 702 02fc 18       		.byte	0x18
 703 02fd 00       		.byte	0
 704 02fe 04       		.uleb128 0x4
 705 02ff 70050000 		.4byte	.LASF56
 706 0303 09       		.byte	0x9
 707 0304 5C       		.byte	0x5c
 708 0305 09030000 		.4byte	0x309
 709 0309 0A       		.uleb128 0xa
 710 030a 04       		.byte	0x4
 711 030b 0F030000 		.4byte	0x30f
 712 030f 0C       		.uleb128 0xc
 713 0310 1A030000 		.4byte	0x31a
 714 0314 0D       		.uleb128 0xd
 715 0315 1A030000 		.4byte	0x31a
 716 0319 00       		.byte	0
 717 031a 0E       		.uleb128 0xe
 718 031b 04       		.byte	0x4
 719 031c 04       		.uleb128 0x4
 720 031d 43040000 		.4byte	.LASF57
 721 0321 09       		.byte	0x9
 722 0322 61       		.byte	0x61
 723 0323 27030000 		.4byte	0x327
 724 0327 0B       		.uleb128 0xb
 725 0328 B7040000 		.4byte	.LASF58
 726 032c 14       		.byte	0x14
 727 032d 04       		.byte	0x4
 728 032e 4501     		.2byte	0x145
 729 0330 76030000 		.4byte	0x376
 730 0334 09       		.uleb128 0x9
 731 0335 F7000000 		.4byte	.LASF49
 732 0339 04       		.byte	0x4
 733 033a 4601     		.2byte	0x146
 734 033c 6B070000 		.4byte	0x76b
 735 0340 00       		.byte	0
 736 0341 09       		.uleb128 0x9
 737 0342 4D000000 		.4byte	.LASF52
 738 0346 04       		.byte	0x4
 739 0347 4701     		.2byte	0x147
 740 0349 6B070000 		.4byte	0x76b
 741 034d 04       		.byte	0x4
ARM GAS  /tmp/ccNZTFwn.s 			page 14


 742 034e 09       		.uleb128 0x9
 743 034f 20000000 		.4byte	.LASF59
 744 0353 04       		.byte	0x4
 745 0354 4801     		.2byte	0x148
 746 0356 31010000 		.4byte	0x131
 747 035a 08       		.byte	0x8
 748 035b 09       		.uleb128 0x9
 749 035c 8C010000 		.4byte	.LASF60
 750 0360 04       		.byte	0x4
 751 0361 4901     		.2byte	0x149
 752 0363 FE020000 		.4byte	0x2fe
 753 0367 0C       		.byte	0xc
 754 0368 08       		.uleb128 0x8
 755 0369 70617200 		.ascii	"par\000"
 756 036d 04       		.byte	0x4
 757 036e 4B01     		.2byte	0x14b
 758 0370 1A030000 		.4byte	0x31a
 759 0374 10       		.byte	0x10
 760 0375 00       		.byte	0
 761 0376 04       		.uleb128 0x4
 762 0377 D4000000 		.4byte	.LASF61
 763 037b 09       		.byte	0x9
 764 037c 66       		.byte	0x66
 765 037d 81030000 		.4byte	0x381
 766 0381 0B       		.uleb128 0xb
 767 0382 DE030000 		.4byte	.LASF62
 768 0386 10       		.byte	0x10
 769 0387 04       		.byte	0x4
 770 0388 5501     		.2byte	0x155
 771 038a C3030000 		.4byte	0x3c3
 772 038e 09       		.uleb128 0x9
 773 038f F7000000 		.4byte	.LASF49
 774 0393 04       		.byte	0x4
 775 0394 5601     		.2byte	0x156
 776 0396 6B070000 		.4byte	0x76b
 777 039a 00       		.byte	0
 778 039b 09       		.uleb128 0x9
 779 039c 4D000000 		.4byte	.LASF52
 780 03a0 04       		.byte	0x4
 781 03a1 5801     		.2byte	0x158
 782 03a3 6B070000 		.4byte	0x76b
 783 03a7 04       		.byte	0x4
 784 03a8 09       		.uleb128 0x9
 785 03a9 20000000 		.4byte	.LASF59
 786 03ad 04       		.byte	0x4
 787 03ae 5A01     		.2byte	0x15a
 788 03b0 31010000 		.4byte	0x131
 789 03b4 08       		.byte	0x8
 790 03b5 09       		.uleb128 0x9
 791 03b6 8A040000 		.4byte	.LASF63
 792 03ba 04       		.byte	0x4
 793 03bb 6201     		.2byte	0x162
 794 03bd 31010000 		.4byte	0x131
 795 03c1 0C       		.byte	0xc
 796 03c2 00       		.byte	0
 797 03c3 04       		.uleb128 0x4
 798 03c4 6F000000 		.4byte	.LASF64
ARM GAS  /tmp/ccNZTFwn.s 			page 15


 799 03c8 09       		.byte	0x9
 800 03c9 6B       		.byte	0x6b
 801 03ca CE030000 		.4byte	0x3ce
 802 03ce 0B       		.uleb128 0xb
 803 03cf BB010000 		.4byte	.LASF65
 804 03d3 04       		.byte	0x4
 805 03d4 04       		.byte	0x4
 806 03d5 7C01     		.2byte	0x17c
 807 03d7 E9030000 		.4byte	0x3e9
 808 03db 09       		.uleb128 0x9
 809 03dc 87050000 		.4byte	.LASF66
 810 03e0 04       		.byte	0x4
 811 03e1 8401     		.2byte	0x184
 812 03e3 71070000 		.4byte	0x771
 813 03e7 00       		.byte	0
 814 03e8 00       		.byte	0
 815 03e9 04       		.uleb128 0x4
 816 03ea 48030000 		.4byte	.LASF67
 817 03ee 09       		.byte	0x9
 818 03ef 70       		.byte	0x70
 819 03f0 F4030000 		.4byte	0x3f4
 820 03f4 0B       		.uleb128 0xb
 821 03f5 9A040000 		.4byte	.LASF68
 822 03f9 D0       		.byte	0xd0
 823 03fa 04       		.byte	0x4
 824 03fb 9C01     		.2byte	0x19c
 825 03fd 4F040000 		.4byte	0x44f
 826 0401 09       		.uleb128 0x9
 827 0402 F8050000 		.4byte	.LASF69
 828 0406 04       		.byte	0x4
 829 0407 A001     		.2byte	0x1a0
 830 0409 97020000 		.4byte	0x297
 831 040d 00       		.byte	0
 832 040e 09       		.uleb128 0x9
 833 040f 1F010000 		.4byte	.LASF70
 834 0413 04       		.byte	0x4
 835 0414 A401     		.2byte	0x1a4
 836 0416 76030000 		.4byte	0x376
 837 041a 1C       		.byte	0x1c
 838 041b 08       		.uleb128 0x8
 839 041c 64626700 		.ascii	"dbg\000"
 840 0420 04       		.byte	0x4
 841 0421 A801     		.2byte	0x1a8
 842 0423 C3030000 		.4byte	0x3c3
 843 0427 2C       		.byte	0x2c
 844 0428 09       		.uleb128 0x9
 845 0429 C1000000 		.4byte	.LASF71
 846 042d 04       		.byte	0x4
 847 042e AC01     		.2byte	0x1ac
 848 0430 3C010000 		.4byte	0x13c
 849 0434 30       		.byte	0x30
 850 0435 08       		.uleb128 0x8
 851 0436 746D00   		.ascii	"tm\000"
 852 0439 04       		.byte	0x4
 853 043a B101     		.2byte	0x1b1
 854 043c EB050000 		.4byte	0x5eb
 855 0440 90       		.byte	0x90
ARM GAS  /tmp/ccNZTFwn.s 			page 16


 856 0441 09       		.uleb128 0x9
 857 0442 36000000 		.4byte	.LASF72
 858 0446 04       		.byte	0x4
 859 0447 B701     		.2byte	0x1b7
 860 0449 7D060000 		.4byte	0x67d
 861 044d 98       		.byte	0x98
 862 044e 00       		.byte	0
 863 044f 03       		.uleb128 0x3
 864 0450 04       		.byte	0x4
 865 0451 07       		.byte	0x7
 866 0452 C2030000 		.4byte	.LASF73
 867 0456 04       		.uleb128 0x4
 868 0457 B2010000 		.4byte	.LASF74
 869 045b 0A       		.byte	0xa
 870 045c 65       		.byte	0x65
 871 045d 1A030000 		.4byte	0x31a
 872 0461 04       		.uleb128 0x4
 873 0462 8B030000 		.4byte	.LASF75
 874 0466 0A       		.byte	0xa
 875 0467 6D       		.byte	0x6d
 876 0468 B8000000 		.4byte	0xb8
 877 046c 05       		.uleb128 0x5
 878 046d F5030000 		.4byte	.LASF76
 879 0471 04       		.byte	0x4
 880 0472 0A       		.byte	0xa
 881 0473 89       		.byte	0x89
 882 0474 84040000 		.4byte	0x484
 883 0478 07       		.uleb128 0x7
 884 0479 737000   		.ascii	"sp\000"
 885 047c 0A       		.byte	0xa
 886 047d 8A       		.byte	0x8a
 887 047e D0050000 		.4byte	0x5d0
 888 0482 00       		.byte	0
 889 0483 00       		.byte	0
 890 0484 0B       		.uleb128 0xb
 891 0485 52000000 		.4byte	.LASF77
 892 0489 64       		.byte	0x64
 893 048a 0B       		.byte	0xb
 894 048b 5901     		.2byte	0x159
 895 048d D0050000 		.4byte	0x5d0
 896 0491 08       		.uleb128 0x8
 897 0492 73313600 		.ascii	"s16\000"
 898 0496 0B       		.byte	0xb
 899 0497 5B01     		.2byte	0x15b
 900 0499 56040000 		.4byte	0x456
 901 049d 00       		.byte	0
 902 049e 08       		.uleb128 0x8
 903 049f 73313700 		.ascii	"s17\000"
 904 04a3 0B       		.byte	0xb
 905 04a4 5C01     		.2byte	0x15c
 906 04a6 56040000 		.4byte	0x456
 907 04aa 04       		.byte	0x4
 908 04ab 08       		.uleb128 0x8
 909 04ac 73313800 		.ascii	"s18\000"
 910 04b0 0B       		.byte	0xb
 911 04b1 5D01     		.2byte	0x15d
 912 04b3 56040000 		.4byte	0x456
ARM GAS  /tmp/ccNZTFwn.s 			page 17


 913 04b7 08       		.byte	0x8
 914 04b8 08       		.uleb128 0x8
 915 04b9 73313900 		.ascii	"s19\000"
 916 04bd 0B       		.byte	0xb
 917 04be 5E01     		.2byte	0x15e
 918 04c0 56040000 		.4byte	0x456
 919 04c4 0C       		.byte	0xc
 920 04c5 08       		.uleb128 0x8
 921 04c6 73323000 		.ascii	"s20\000"
 922 04ca 0B       		.byte	0xb
 923 04cb 5F01     		.2byte	0x15f
 924 04cd 56040000 		.4byte	0x456
 925 04d1 10       		.byte	0x10
 926 04d2 08       		.uleb128 0x8
 927 04d3 73323100 		.ascii	"s21\000"
 928 04d7 0B       		.byte	0xb
 929 04d8 6001     		.2byte	0x160
 930 04da 56040000 		.4byte	0x456
 931 04de 14       		.byte	0x14
 932 04df 08       		.uleb128 0x8
 933 04e0 73323200 		.ascii	"s22\000"
 934 04e4 0B       		.byte	0xb
 935 04e5 6101     		.2byte	0x161
 936 04e7 56040000 		.4byte	0x456
 937 04eb 18       		.byte	0x18
 938 04ec 08       		.uleb128 0x8
 939 04ed 73323300 		.ascii	"s23\000"
 940 04f1 0B       		.byte	0xb
 941 04f2 6201     		.2byte	0x162
 942 04f4 56040000 		.4byte	0x456
 943 04f8 1C       		.byte	0x1c
 944 04f9 08       		.uleb128 0x8
 945 04fa 73323400 		.ascii	"s24\000"
 946 04fe 0B       		.byte	0xb
 947 04ff 6301     		.2byte	0x163
 948 0501 56040000 		.4byte	0x456
 949 0505 20       		.byte	0x20
 950 0506 08       		.uleb128 0x8
 951 0507 73323500 		.ascii	"s25\000"
 952 050b 0B       		.byte	0xb
 953 050c 6401     		.2byte	0x164
 954 050e 56040000 		.4byte	0x456
 955 0512 24       		.byte	0x24
 956 0513 08       		.uleb128 0x8
 957 0514 73323600 		.ascii	"s26\000"
 958 0518 0B       		.byte	0xb
 959 0519 6501     		.2byte	0x165
 960 051b 56040000 		.4byte	0x456
 961 051f 28       		.byte	0x28
 962 0520 08       		.uleb128 0x8
 963 0521 73323700 		.ascii	"s27\000"
 964 0525 0B       		.byte	0xb
 965 0526 6601     		.2byte	0x166
 966 0528 56040000 		.4byte	0x456
 967 052c 2C       		.byte	0x2c
 968 052d 08       		.uleb128 0x8
 969 052e 73323800 		.ascii	"s28\000"
ARM GAS  /tmp/ccNZTFwn.s 			page 18


 970 0532 0B       		.byte	0xb
 971 0533 6701     		.2byte	0x167
 972 0535 56040000 		.4byte	0x456
 973 0539 30       		.byte	0x30
 974 053a 08       		.uleb128 0x8
 975 053b 73323900 		.ascii	"s29\000"
 976 053f 0B       		.byte	0xb
 977 0540 6801     		.2byte	0x168
 978 0542 56040000 		.4byte	0x456
 979 0546 34       		.byte	0x34
 980 0547 08       		.uleb128 0x8
 981 0548 73333000 		.ascii	"s30\000"
 982 054c 0B       		.byte	0xb
 983 054d 6901     		.2byte	0x169
 984 054f 56040000 		.4byte	0x456
 985 0553 38       		.byte	0x38
 986 0554 08       		.uleb128 0x8
 987 0555 73333100 		.ascii	"s31\000"
 988 0559 0B       		.byte	0xb
 989 055a 6A01     		.2byte	0x16a
 990 055c 56040000 		.4byte	0x456
 991 0560 3C       		.byte	0x3c
 992 0561 08       		.uleb128 0x8
 993 0562 723400   		.ascii	"r4\000"
 994 0565 0B       		.byte	0xb
 995 0566 6C01     		.2byte	0x16c
 996 0568 56040000 		.4byte	0x456
 997 056c 40       		.byte	0x40
 998 056d 08       		.uleb128 0x8
 999 056e 723500   		.ascii	"r5\000"
 1000 0571 0B       		.byte	0xb
 1001 0572 6D01     		.2byte	0x16d
 1002 0574 56040000 		.4byte	0x456
 1003 0578 44       		.byte	0x44
 1004 0579 08       		.uleb128 0x8
 1005 057a 723600   		.ascii	"r6\000"
 1006 057d 0B       		.byte	0xb
 1007 057e 6E01     		.2byte	0x16e
 1008 0580 56040000 		.4byte	0x456
 1009 0584 48       		.byte	0x48
 1010 0585 08       		.uleb128 0x8
 1011 0586 723700   		.ascii	"r7\000"
 1012 0589 0B       		.byte	0xb
 1013 058a 6F01     		.2byte	0x16f
 1014 058c 56040000 		.4byte	0x456
 1015 0590 4C       		.byte	0x4c
 1016 0591 08       		.uleb128 0x8
 1017 0592 723800   		.ascii	"r8\000"
 1018 0595 0B       		.byte	0xb
 1019 0596 7001     		.2byte	0x170
 1020 0598 56040000 		.4byte	0x456
 1021 059c 50       		.byte	0x50
 1022 059d 08       		.uleb128 0x8
 1023 059e 723900   		.ascii	"r9\000"
 1024 05a1 0B       		.byte	0xb
 1025 05a2 7101     		.2byte	0x171
 1026 05a4 56040000 		.4byte	0x456
ARM GAS  /tmp/ccNZTFwn.s 			page 19


 1027 05a8 54       		.byte	0x54
 1028 05a9 08       		.uleb128 0x8
 1029 05aa 72313000 		.ascii	"r10\000"
 1030 05ae 0B       		.byte	0xb
 1031 05af 7201     		.2byte	0x172
 1032 05b1 56040000 		.4byte	0x456
 1033 05b5 58       		.byte	0x58
 1034 05b6 08       		.uleb128 0x8
 1035 05b7 72313100 		.ascii	"r11\000"
 1036 05bb 0B       		.byte	0xb
 1037 05bc 7301     		.2byte	0x173
 1038 05be 56040000 		.4byte	0x456
 1039 05c2 5C       		.byte	0x5c
 1040 05c3 08       		.uleb128 0x8
 1041 05c4 6C7200   		.ascii	"lr\000"
 1042 05c7 0B       		.byte	0xb
 1043 05c8 7401     		.2byte	0x174
 1044 05ca 56040000 		.4byte	0x456
 1045 05ce 60       		.byte	0x60
 1046 05cf 00       		.byte	0
 1047 05d0 0A       		.uleb128 0xa
 1048 05d1 04       		.byte	0x4
 1049 05d2 84040000 		.4byte	0x484
 1050 05d6 0F       		.uleb128 0xf
 1051 05d7 04       		.byte	0x4
 1052 05d8 0C       		.byte	0xc
 1053 05d9 38       		.byte	0x38
 1054 05da EB050000 		.4byte	0x5eb
 1055 05de 06       		.uleb128 0x6
 1056 05df 91050000 		.4byte	.LASF78
 1057 05e3 0C       		.byte	0xc
 1058 05e4 3C       		.byte	0x3c
 1059 05e5 C3000000 		.4byte	0xc3
 1060 05e9 00       		.byte	0
 1061 05ea 00       		.byte	0
 1062 05eb 04       		.uleb128 0x4
 1063 05ec 02040000 		.4byte	.LASF79
 1064 05f0 0C       		.byte	0xc
 1065 05f1 3D       		.byte	0x3d
 1066 05f2 D6050000 		.4byte	0x5d6
 1067 05f6 0F       		.uleb128 0xf
 1068 05f7 18       		.byte	0x18
 1069 05f8 0C       		.byte	0xc
 1070 05f9 48       		.byte	0x48
 1071 05fa 39060000 		.4byte	0x639
 1072 05fe 06       		.uleb128 0x6
 1073 05ff 4F050000 		.4byte	.LASF80
 1074 0603 0C       		.byte	0xc
 1075 0604 49       		.byte	0x49
 1076 0605 C3000000 		.4byte	0xc3
 1077 0609 00       		.byte	0
 1078 060a 06       		.uleb128 0x6
 1079 060b 88000000 		.4byte	.LASF81
 1080 060f 0C       		.byte	0xc
 1081 0610 4A       		.byte	0x4a
 1082 0611 C3000000 		.4byte	0xc3
 1083 0615 04       		.byte	0x4
ARM GAS  /tmp/ccNZTFwn.s 			page 20


 1084 0616 06       		.uleb128 0x6
 1085 0617 33030000 		.4byte	.LASF82
 1086 061b 0C       		.byte	0xc
 1087 061c 4B       		.byte	0x4b
 1088 061d C3000000 		.4byte	0xc3
 1089 0621 08       		.byte	0x8
 1090 0622 07       		.uleb128 0x7
 1091 0623 6E00     		.ascii	"n\000"
 1092 0625 0C       		.byte	0xc
 1093 0626 4C       		.byte	0x4c
 1094 0627 26010000 		.4byte	0x126
 1095 062b 0C       		.byte	0xc
 1096 062c 06       		.uleb128 0x6
 1097 062d 2B040000 		.4byte	.LASF83
 1098 0631 0C       		.byte	0xc
 1099 0632 4D       		.byte	0x4d
 1100 0633 CE000000 		.4byte	0xce
 1101 0637 10       		.byte	0x10
 1102 0638 00       		.byte	0
 1103 0639 04       		.uleb128 0x4
 1104 063a 8E000000 		.4byte	.LASF84
 1105 063e 0C       		.byte	0xc
 1106 063f 4E       		.byte	0x4e
 1107 0640 F6050000 		.4byte	0x5f6
 1108 0644 0F       		.uleb128 0xf
 1109 0645 38       		.byte	0x38
 1110 0646 0D       		.byte	0xd
 1111 0647 38       		.byte	0x38
 1112 0648 7D060000 		.4byte	0x67d
 1113 064c 06       		.uleb128 0x6
 1114 064d EA020000 		.4byte	.LASF85
 1115 0651 0D       		.byte	0xd
 1116 0652 39       		.byte	0x39
 1117 0653 26010000 		.4byte	0x126
 1118 0657 00       		.byte	0
 1119 0658 06       		.uleb128 0x6
 1120 0659 5B040000 		.4byte	.LASF86
 1121 065d 0D       		.byte	0xd
 1122 065e 3A       		.byte	0x3a
 1123 065f 26010000 		.4byte	0x126
 1124 0663 04       		.byte	0x4
 1125 0664 06       		.uleb128 0x6
 1126 0665 62060000 		.4byte	.LASF87
 1127 0669 0D       		.byte	0xd
 1128 066a 3B       		.byte	0x3b
 1129 066b 39060000 		.4byte	0x639
 1130 066f 08       		.byte	0x8
 1131 0670 06       		.uleb128 0x6
 1132 0671 5C030000 		.4byte	.LASF88
 1133 0675 0D       		.byte	0xd
 1134 0676 3D       		.byte	0x3d
 1135 0677 39060000 		.4byte	0x639
 1136 067b 20       		.byte	0x20
 1137 067c 00       		.byte	0
 1138 067d 04       		.uleb128 0x4
 1139 067e 0F030000 		.4byte	.LASF89
 1140 0682 0D       		.byte	0xd
ARM GAS  /tmp/ccNZTFwn.s 			page 21


 1141 0683 3F       		.byte	0x3f
 1142 0684 44060000 		.4byte	0x644
 1143 0688 10       		.uleb128 0x10
 1144 0689 04       		.byte	0x4
 1145 068a 04       		.byte	0x4
 1146 068b D2       		.byte	0xd2
 1147 068c EB060000 		.4byte	0x6eb
 1148 0690 11       		.uleb128 0x11
 1149 0691 26000000 		.4byte	.LASF90
 1150 0695 04       		.byte	0x4
 1151 0696 D9       		.byte	0xd9
 1152 0697 05010000 		.4byte	0x105
 1153 069b 11       		.uleb128 0x11
 1154 069c B8000000 		.4byte	.LASF91
 1155 06a0 04       		.byte	0x4
 1156 06a1 E0       		.byte	0xe0
 1157 06a2 05010000 		.4byte	0x105
 1158 06a6 11       		.uleb128 0x11
 1159 06a7 2A060000 		.4byte	.LASF92
 1160 06ab 04       		.byte	0x4
 1161 06ac E7       		.byte	0xe7
 1162 06ad 1A030000 		.4byte	0x31a
 1163 06b1 11       		.uleb128 0x11
 1164 06b2 1A000000 		.4byte	.LASF93
 1165 06b6 04       		.byte	0x4
 1166 06b7 EE       		.byte	0xee
 1167 06b8 EB060000 		.4byte	0x6eb
 1168 06bc 11       		.uleb128 0x11
 1169 06bd CC000000 		.4byte	.LASF94
 1170 06c1 04       		.byte	0x4
 1171 06c2 F3       		.byte	0xf3
 1172 06c3 05010000 		.4byte	0x105
 1173 06c7 11       		.uleb128 0x11
 1174 06c8 E3020000 		.4byte	.LASF95
 1175 06cc 04       		.byte	0x4
 1176 06cd FC       		.byte	0xfc
 1177 06ce 16070000 		.4byte	0x716
 1178 06d2 12       		.uleb128 0x12
 1179 06d3 F9040000 		.4byte	.LASF96
 1180 06d7 04       		.byte	0x4
 1181 06d8 0501     		.2byte	0x105
 1182 06da 4D070000 		.4byte	0x74d
 1183 06de 12       		.uleb128 0x12
 1184 06df 93040000 		.4byte	.LASF97
 1185 06e3 04       		.byte	0x4
 1186 06e4 0D01     		.2byte	0x10d
 1187 06e6 10010000 		.4byte	0x110
 1188 06ea 00       		.byte	0
 1189 06eb 0A       		.uleb128 0xa
 1190 06ec 04       		.byte	0x4
 1191 06ed 32020000 		.4byte	0x232
 1192 06f1 05       		.uleb128 0x5
 1193 06f2 D5040000 		.4byte	.LASF98
 1194 06f6 0C       		.byte	0xc
 1195 06f7 0E       		.byte	0xe
 1196 06f8 34       		.byte	0x34
 1197 06f9 16070000 		.4byte	0x716
ARM GAS  /tmp/ccNZTFwn.s 			page 22


 1198 06fd 06       		.uleb128 0x6
 1199 06fe F0020000 		.4byte	.LASF29
 1200 0702 0E       		.byte	0xe
 1201 0703 35       		.byte	0x35
 1202 0704 67020000 		.4byte	0x267
 1203 0708 00       		.byte	0
 1204 0709 07       		.uleb128 0x7
 1205 070a 636E7400 		.ascii	"cnt\000"
 1206 070e 0E       		.byte	0xe
 1207 070f 37       		.byte	0x37
 1208 0710 1B010000 		.4byte	0x11b
 1209 0714 08       		.byte	0x8
 1210 0715 00       		.byte	0
 1211 0716 0A       		.uleb128 0xa
 1212 0717 04       		.byte	0x4
 1213 0718 F1060000 		.4byte	0x6f1
 1214 071c 05       		.uleb128 0x5
 1215 071d EF050000 		.4byte	.LASF99
 1216 0721 10       		.byte	0x10
 1217 0722 0F       		.byte	0xf
 1218 0723 39       		.byte	0x39
 1219 0724 4D070000 		.4byte	0x74d
 1220 0728 06       		.uleb128 0x6
 1221 0729 F0020000 		.4byte	.LASF29
 1222 072d 0F       		.byte	0xf
 1223 072e 3A       		.byte	0x3a
 1224 072f 67020000 		.4byte	0x267
 1225 0733 00       		.byte	0
 1226 0734 06       		.uleb128 0x6
 1227 0735 1C050000 		.4byte	.LASF100
 1228 0739 0F       		.byte	0xf
 1229 073a 3C       		.byte	0x3c
 1230 073b 3D020000 		.4byte	0x23d
 1231 073f 08       		.byte	0x8
 1232 0740 06       		.uleb128 0x6
 1233 0741 F7000000 		.4byte	.LASF49
 1234 0745 0F       		.byte	0xf
 1235 0746 3E       		.byte	0x3e
 1236 0747 81070000 		.4byte	0x781
 1237 074b 0C       		.byte	0xc
 1238 074c 00       		.byte	0
 1239 074d 0A       		.uleb128 0xa
 1240 074e 04       		.byte	0x4
 1241 074f 1C070000 		.4byte	0x71c
 1242 0753 0A       		.uleb128 0xa
 1243 0754 04       		.byte	0x4
 1244 0755 59070000 		.4byte	0x759
 1245 0759 13       		.uleb128 0x13
 1246 075a 5E070000 		.4byte	0x75e
 1247 075e 03       		.uleb128 0x3
 1248 075f 01       		.byte	0x1
 1249 0760 08       		.byte	0x8
 1250 0761 3B050000 		.4byte	.LASF101
 1251 0765 0A       		.uleb128 0xa
 1252 0766 04       		.byte	0x4
 1253 0767 61040000 		.4byte	0x461
 1254 076b 0A       		.uleb128 0xa
ARM GAS  /tmp/ccNZTFwn.s 			page 23


 1255 076c 04       		.byte	0x4
 1256 076d 1C030000 		.4byte	0x31c
 1257 0771 14       		.uleb128 0x14
 1258 0772 53070000 		.4byte	0x753
 1259 0776 04       		.uleb128 0x4
 1260 0777 D3010000 		.4byte	.LASF102
 1261 077b 0F       		.byte	0xf
 1262 077c 34       		.byte	0x34
 1263 077d 1C070000 		.4byte	0x71c
 1264 0781 0A       		.uleb128 0xa
 1265 0782 04       		.byte	0x4
 1266 0783 76070000 		.4byte	0x776
 1267 0787 03       		.uleb128 0x3
 1268 0788 01       		.byte	0x1
 1269 0789 02       		.byte	0x2
 1270 078a 64040000 		.4byte	.LASF103
 1271 078e 15       		.uleb128 0x15
 1272 078f 79050000 		.4byte	.LASF106
 1273 0793 02       		.byte	0x2
 1274 0794 0601     		.2byte	0x106
 1275 0796 03       		.byte	0x3
 1276 0797 A8070000 		.4byte	0x7a8
 1277 079b 16       		.uleb128 0x16
 1278 079c DB010000 		.4byte	.LASF108
 1279 07a0 02       		.byte	0x2
 1280 07a1 0601     		.2byte	0x106
 1281 07a3 AD000000 		.4byte	0xad
 1282 07a7 00       		.byte	0
 1283 07a8 17       		.uleb128 0x17
 1284 07a9 7E000000 		.4byte	.LASF104
 1285 07ad 0B       		.byte	0xb
 1286 07ae 5202     		.2byte	0x252
 1287 07b0 03       		.byte	0x3
 1288 07b1 17       		.uleb128 0x17
 1289 07b2 55010000 		.4byte	.LASF105
 1290 07b6 0B       		.byte	0xb
 1291 07b7 6A02     		.2byte	0x26a
 1292 07b9 03       		.byte	0x3
 1293 07ba 15       		.uleb128 0x15
 1294 07bb 0D000000 		.4byte	.LASF107
 1295 07bf 04       		.byte	0x4
 1296 07c0 6102     		.2byte	0x261
 1297 07c2 03       		.byte	0x3
 1298 07c3 DF070000 		.4byte	0x7df
 1299 07c7 18       		.uleb128 0x18
 1300 07c8 747000   		.ascii	"tp\000"
 1301 07cb 04       		.byte	0x4
 1302 07cc 6102     		.2byte	0x261
 1303 07ce 3D020000 		.4byte	0x23d
 1304 07d2 18       		.uleb128 0x18
 1305 07d3 74717000 		.ascii	"tqp\000"
 1306 07d7 04       		.byte	0x4
 1307 07d8 6102     		.2byte	0x261
 1308 07da DF070000 		.4byte	0x7df
 1309 07de 00       		.byte	0
 1310 07df 0A       		.uleb128 0xa
 1311 07e0 04       		.byte	0x4
ARM GAS  /tmp/ccNZTFwn.s 			page 24


 1312 07e1 67020000 		.4byte	0x267
 1313 07e5 19       		.uleb128 0x19
 1314 07e6 97010000 		.4byte	.LASF109
 1315 07ea 05       		.byte	0x5
 1316 07eb 4F       		.byte	0x4f
 1317 07ec 87070000 		.4byte	0x787
 1318 07f0 03       		.byte	0x3
 1319 07f1 00080000 		.4byte	0x800
 1320 07f5 1A       		.uleb128 0x1a
 1321 07f6 747000   		.ascii	"tp\000"
 1322 07f9 05       		.byte	0x5
 1323 07fa 4F       		.byte	0x4f
 1324 07fb 3D020000 		.4byte	0x23d
 1325 07ff 00       		.byte	0
 1326 0800 1B       		.uleb128 0x1b
 1327 0801 54050000 		.4byte	.LASF110
 1328 0805 04       		.byte	0x4
 1329 0806 6902     		.2byte	0x269
 1330 0808 3D020000 		.4byte	0x23d
 1331 080c 03       		.byte	0x3
 1332 080d 29080000 		.4byte	0x829
 1333 0811 18       		.uleb128 0x18
 1334 0812 74717000 		.ascii	"tqp\000"
 1335 0816 04       		.byte	0x4
 1336 0817 6902     		.2byte	0x269
 1337 0819 DF070000 		.4byte	0x7df
 1338 081d 1C       		.uleb128 0x1c
 1339 081e 747000   		.ascii	"tp\000"
 1340 0821 04       		.byte	0x4
 1341 0822 6A02     		.2byte	0x26a
 1342 0824 3D020000 		.4byte	0x23d
 1343 0828 00       		.byte	0
 1344 0829 1D       		.uleb128 0x1d
 1345 082a 4C060000 		.4byte	.LASF111
 1346 082e 05       		.byte	0x5
 1347 082f 71       		.byte	0x71
 1348 0830 03       		.byte	0x3
 1349 0831 4B080000 		.4byte	0x84b
 1350 0835 1A       		.uleb128 0x1a
 1351 0836 747000   		.ascii	"tp\000"
 1352 0839 05       		.byte	0x5
 1353 083a 71       		.byte	0x71
 1354 083b 3D020000 		.4byte	0x23d
 1355 083f 1A       		.uleb128 0x1a
 1356 0840 6D736700 		.ascii	"msg\000"
 1357 0844 05       		.byte	0x5
 1358 0845 71       		.byte	0x71
 1359 0846 05010000 		.4byte	0x105
 1360 084a 00       		.byte	0
 1361 084b 17       		.uleb128 0x17
 1362 084c AD040000 		.4byte	.LASF112
 1363 0850 03       		.byte	0x3
 1364 0851 7601     		.2byte	0x176
 1365 0853 03       		.byte	0x3
 1366 0854 15       		.uleb128 0x15
 1367 0855 40060000 		.4byte	.LASF113
 1368 0859 03       		.byte	0x3
ARM GAS  /tmp/ccNZTFwn.s 			page 25


 1369 085a 8201     		.2byte	0x182
 1370 085c 03       		.byte	0x3
 1371 085d 6F080000 		.4byte	0x86f
 1372 0861 1E       		.uleb128 0x1e
 1373 0862 A4040000 		.4byte	.LASF114
 1374 0866 7F080000 		.4byte	0x87f
 1375 086a 40060000 		.4byte	.LASF113
 1376 086e 00       		.byte	0
 1377 086f 1F       		.uleb128 0x1f
 1378 0870 5E070000 		.4byte	0x75e
 1379 0874 7F080000 		.4byte	0x87f
 1380 0878 20       		.uleb128 0x20
 1381 0879 4F040000 		.4byte	0x44f
 1382 087d 0B       		.byte	0xb
 1383 087e 00       		.byte	0
 1384 087f 13       		.uleb128 0x13
 1385 0880 6F080000 		.4byte	0x86f
 1386 0884 21       		.uleb128 0x21
 1387 0885 79010000 		.4byte	.LASF115
 1388 0889 01       		.byte	0x1
 1389 088a 57       		.byte	0x57
 1390 088b 05010000 		.4byte	0x105
 1391 088f 00000000 		.4byte	.LFB246
 1392 0893 4C000000 		.4byte	.LFE246-.LFB246
 1393 0897 01       		.uleb128 0x1
 1394 0898 9C       		.byte	0x9c
 1395 0899 BD090000 		.4byte	0x9bd
 1396 089d 22       		.uleb128 0x22
 1397 089e 747000   		.ascii	"tp\000"
 1398 08a1 01       		.byte	0x1
 1399 08a2 57       		.byte	0x57
 1400 08a3 3D020000 		.4byte	0x23d
 1401 08a7 00000000 		.4byte	.LLST0
 1402 08ab 22       		.uleb128 0x22
 1403 08ac 6D736700 		.ascii	"msg\000"
 1404 08b0 01       		.byte	0x1
 1405 08b1 57       		.byte	0x57
 1406 08b2 05010000 		.4byte	0x105
 1407 08b6 2C000000 		.4byte	.LLST1
 1408 08ba 23       		.uleb128 0x23
 1409 08bb 63747000 		.ascii	"ctp\000"
 1410 08bf 01       		.byte	0x1
 1411 08c0 58       		.byte	0x58
 1412 08c1 3D020000 		.4byte	0x23d
 1413 08c5 60000000 		.4byte	.LLST2
 1414 08c9 24       		.uleb128 0x24
 1415 08ca A4040000 		.4byte	.LASF114
 1416 08ce CD090000 		.4byte	0x9cd
 1417 08d2 25       		.uleb128 0x25
 1418 08d3 4B080000 		.4byte	0x84b
 1419 08d7 0A000000 		.4byte	.LBB34
 1420 08db 0A000000 		.4byte	.LBE34-.LBB34
 1421 08df 01       		.byte	0x1
 1422 08e0 5C       		.byte	0x5c
 1423 08e1 1B090000 		.4byte	0x91b
 1424 08e5 26       		.uleb128 0x26
 1425 08e6 A8070000 		.4byte	0x7a8
ARM GAS  /tmp/ccNZTFwn.s 			page 26


 1426 08ea 0A000000 		.4byte	.LBB36
 1427 08ee 06000000 		.4byte	.LBE36-.LBB36
 1428 08f2 03       		.byte	0x3
 1429 08f3 7801     		.2byte	0x178
 1430 08f5 11090000 		.4byte	0x911
 1431 08f9 27       		.uleb128 0x27
 1432 08fa 8E070000 		.4byte	0x78e
 1433 08fe 0A000000 		.4byte	.LBB37
 1434 0902 06000000 		.4byte	.LBE37-.LBB37
 1435 0906 0B       		.byte	0xb
 1436 0907 5A02     		.2byte	0x25a
 1437 0909 28       		.uleb128 0x28
 1438 090a 9B070000 		.4byte	0x79b
 1439 090e 20       		.byte	0x20
 1440 090f 00       		.byte	0
 1441 0910 00       		.byte	0
 1442 0911 29       		.uleb128 0x29
 1443 0912 14000000 		.4byte	.LVL2
 1444 0916 370C0000 		.4byte	0xc37
 1445 091a 00       		.byte	0
 1446 091b 2A       		.uleb128 0x2a
 1447 091c BA070000 		.4byte	0x7ba
 1448 0920 1A000000 		.4byte	.LBB39
 1449 0924 00000000 		.4byte	.Ldebug_ranges0+0
 1450 0928 01       		.byte	0x1
 1451 0929 5E       		.byte	0x5e
 1452 092a 41090000 		.4byte	0x941
 1453 092e 2B       		.uleb128 0x2b
 1454 092f D2070000 		.4byte	0x7d2
 1455 0933 73000000 		.4byte	.LLST3
 1456 0937 2B       		.uleb128 0x2b
 1457 0938 C7070000 		.4byte	0x7c7
 1458 093c BC000000 		.4byte	.LLST4
 1459 0940 00       		.byte	0
 1460 0941 25       		.uleb128 0x25
 1461 0942 54080000 		.4byte	0x854
 1462 0946 3A000000 		.4byte	.LBB43
 1463 094a 0A000000 		.4byte	.LBE43-.LBB43
 1464 094e 01       		.byte	0x1
 1465 094f 64       		.byte	0x64
 1466 0950 99090000 		.4byte	0x999
 1467 0954 2C       		.uleb128 0x2c
 1468 0955 3A000000 		.4byte	.LBB44
 1469 0959 0A000000 		.4byte	.LBE44-.LBB44
 1470 095d 2D       		.uleb128 0x2d
 1471 095e 61080000 		.4byte	0x861
 1472 0962 26       		.uleb128 0x26
 1473 0963 B1070000 		.4byte	0x7b1
 1474 0967 3E000000 		.4byte	.LBB45
 1475 096b 06000000 		.4byte	.LBE45-.LBB45
 1476 096f 03       		.byte	0x3
 1477 0970 8F01     		.2byte	0x18f
 1478 0972 8E090000 		.4byte	0x98e
 1479 0976 27       		.uleb128 0x27
 1480 0977 8E070000 		.4byte	0x78e
 1481 097b 3E000000 		.4byte	.LBB46
 1482 097f 06000000 		.4byte	.LBE46-.LBB46
ARM GAS  /tmp/ccNZTFwn.s 			page 27


 1483 0983 0B       		.byte	0xb
 1484 0984 6D02     		.2byte	0x26d
 1485 0986 28       		.uleb128 0x28
 1486 0987 9B070000 		.4byte	0x79b
 1487 098b 00       		.byte	0
 1488 098c 00       		.byte	0
 1489 098d 00       		.byte	0
 1490 098e 29       		.uleb128 0x29
 1491 098f 3E000000 		.4byte	.LVL10
 1492 0993 3E0C0000 		.4byte	0xc3e
 1493 0997 00       		.byte	0
 1494 0998 00       		.byte	0
 1495 0999 2E       		.uleb128 0x2e
 1496 099a 32000000 		.4byte	.LVL7
 1497 099e 450C0000 		.4byte	0xc45
 1498 09a2 AD090000 		.4byte	0x9ad
 1499 09a6 2F       		.uleb128 0x2f
 1500 09a7 01       		.uleb128 0x1
 1501 09a8 50       		.byte	0x50
 1502 09a9 02       		.uleb128 0x2
 1503 09aa 75       		.byte	0x75
 1504 09ab 00       		.sleb128 0
 1505 09ac 00       		.byte	0
 1506 09ad 30       		.uleb128 0x30
 1507 09ae 38000000 		.4byte	.LVL8
 1508 09b2 5B0C0000 		.4byte	0xc5b
 1509 09b6 2F       		.uleb128 0x2f
 1510 09b7 01       		.uleb128 0x1
 1511 09b8 50       		.byte	0x50
 1512 09b9 01       		.uleb128 0x1
 1513 09ba 3C       		.byte	0x3c
 1514 09bb 00       		.byte	0
 1515 09bc 00       		.byte	0
 1516 09bd 1F       		.uleb128 0x1f
 1517 09be 5E070000 		.4byte	0x75e
 1518 09c2 CD090000 		.4byte	0x9cd
 1519 09c6 20       		.uleb128 0x20
 1520 09c7 4F040000 		.4byte	0x44f
 1521 09cb 09       		.byte	0x9
 1522 09cc 00       		.byte	0
 1523 09cd 13       		.uleb128 0x13
 1524 09ce BD090000 		.4byte	0x9bd
 1525 09d2 21       		.uleb128 0x21
 1526 09d3 D5050000 		.4byte	.LASF116
 1527 09d7 01       		.byte	0x1
 1528 09d8 77       		.byte	0x77
 1529 09d9 3D020000 		.4byte	0x23d
 1530 09dd 00000000 		.4byte	.LFB247
 1531 09e1 48000000 		.4byte	.LFE247-.LFB247
 1532 09e5 01       		.uleb128 0x1
 1533 09e6 9C       		.byte	0x9c
 1534 09e7 F50A0000 		.4byte	0xaf5
 1535 09eb 31       		.uleb128 0x31
 1536 09ec 747000   		.ascii	"tp\000"
 1537 09ef 01       		.byte	0x1
 1538 09f0 78       		.byte	0x78
 1539 09f1 3D020000 		.4byte	0x23d
ARM GAS  /tmp/ccNZTFwn.s 			page 28


 1540 09f5 01       		.uleb128 0x1
 1541 09f6 54       		.byte	0x54
 1542 09f7 25       		.uleb128 0x25
 1543 09f8 4B080000 		.4byte	0x84b
 1544 09fc 02000000 		.4byte	.LBB62
 1545 0a00 0A000000 		.4byte	.LBE62-.LBB62
 1546 0a04 01       		.byte	0x1
 1547 0a05 7A       		.byte	0x7a
 1548 0a06 400A0000 		.4byte	0xa40
 1549 0a0a 26       		.uleb128 0x26
 1550 0a0b A8070000 		.4byte	0x7a8
 1551 0a0f 02000000 		.4byte	.LBB64
 1552 0a13 06000000 		.4byte	.LBE64-.LBB64
 1553 0a17 03       		.byte	0x3
 1554 0a18 7801     		.2byte	0x178
 1555 0a1a 360A0000 		.4byte	0xa36
 1556 0a1e 27       		.uleb128 0x27
 1557 0a1f 8E070000 		.4byte	0x78e
 1558 0a23 02000000 		.4byte	.LBB65
 1559 0a27 06000000 		.4byte	.LBE65-.LBB65
 1560 0a2b 0B       		.byte	0xb
 1561 0a2c 5A02     		.2byte	0x25a
 1562 0a2e 28       		.uleb128 0x28
 1563 0a2f 9B070000 		.4byte	0x79b
 1564 0a33 20       		.byte	0x20
 1565 0a34 00       		.byte	0
 1566 0a35 00       		.byte	0
 1567 0a36 29       		.uleb128 0x29
 1568 0a37 0C000000 		.4byte	.LVL13
 1569 0a3b 370C0000 		.4byte	0xc37
 1570 0a3f 00       		.byte	0
 1571 0a40 25       		.uleb128 0x25
 1572 0a41 E5070000 		.4byte	0x7e5
 1573 0a45 10000000 		.4byte	.LBB67
 1574 0a49 04000000 		.4byte	.LBE67-.LBB67
 1575 0a4d 01       		.byte	0x1
 1576 0a4e 7B       		.byte	0x7b
 1577 0a4f 5D0A0000 		.4byte	0xa5d
 1578 0a53 2B       		.uleb128 0x2b
 1579 0a54 F5070000 		.4byte	0x7f5
 1580 0a58 CF000000 		.4byte	.LLST5
 1581 0a5c 00       		.byte	0
 1582 0a5d 25       		.uleb128 0x25
 1583 0a5e 00080000 		.4byte	0x800
 1584 0a62 24000000 		.4byte	.LBB69
 1585 0a66 0A000000 		.4byte	.LBE69-.LBB69
 1586 0a6a 01       		.byte	0x1
 1587 0a6b 7E       		.byte	0x7e
 1588 0a6c 8D0A0000 		.4byte	0xa8d
 1589 0a70 2B       		.uleb128 0x2b
 1590 0a71 11080000 		.4byte	0x811
 1591 0a75 EE000000 		.4byte	.LLST6
 1592 0a79 2C       		.uleb128 0x2c
 1593 0a7a 24000000 		.4byte	.LBB70
 1594 0a7e 0A000000 		.4byte	.LBE70-.LBB70
 1595 0a82 32       		.uleb128 0x32
 1596 0a83 1D080000 		.4byte	0x81d
ARM GAS  /tmp/ccNZTFwn.s 			page 29


 1597 0a87 1A010000 		.4byte	.LLST7
 1598 0a8b 00       		.byte	0
 1599 0a8c 00       		.byte	0
 1600 0a8d 25       		.uleb128 0x25
 1601 0a8e 54080000 		.4byte	0x854
 1602 0a92 34000000 		.4byte	.LBB71
 1603 0a96 0A000000 		.4byte	.LBE71-.LBB71
 1604 0a9a 01       		.byte	0x1
 1605 0a9b 80       		.byte	0x80
 1606 0a9c E50A0000 		.4byte	0xae5
 1607 0aa0 2C       		.uleb128 0x2c
 1608 0aa1 34000000 		.4byte	.LBB72
 1609 0aa5 0A000000 		.4byte	.LBE72-.LBB72
 1610 0aa9 2D       		.uleb128 0x2d
 1611 0aaa 61080000 		.4byte	0x861
 1612 0aae 26       		.uleb128 0x26
 1613 0aaf B1070000 		.4byte	0x7b1
 1614 0ab3 38000000 		.4byte	.LBB73
 1615 0ab7 06000000 		.4byte	.LBE73-.LBB73
 1616 0abb 03       		.byte	0x3
 1617 0abc 8F01     		.2byte	0x18f
 1618 0abe DA0A0000 		.4byte	0xada
 1619 0ac2 27       		.uleb128 0x27
 1620 0ac3 8E070000 		.4byte	0x78e
 1621 0ac7 38000000 		.4byte	.LBB74
 1622 0acb 06000000 		.4byte	.LBE74-.LBB74
 1623 0acf 0B       		.byte	0xb
 1624 0ad0 6D02     		.2byte	0x26d
 1625 0ad2 28       		.uleb128 0x28
 1626 0ad3 9B070000 		.4byte	0x79b
 1627 0ad7 00       		.byte	0
 1628 0ad8 00       		.byte	0
 1629 0ad9 00       		.byte	0
 1630 0ada 29       		.uleb128 0x29
 1631 0adb 38000000 		.4byte	.LVL21
 1632 0adf 3E0C0000 		.4byte	0xc3e
 1633 0ae3 00       		.byte	0
 1634 0ae4 00       		.byte	0
 1635 0ae5 30       		.uleb128 0x30
 1636 0ae6 22000000 		.4byte	.LVL16
 1637 0aea 5B0C0000 		.4byte	0xc5b
 1638 0aee 2F       		.uleb128 0x2f
 1639 0aef 01       		.uleb128 0x1
 1640 0af0 50       		.byte	0x50
 1641 0af1 01       		.uleb128 0x1
 1642 0af2 3E       		.byte	0x3e
 1643 0af3 00       		.byte	0
 1644 0af4 00       		.byte	0
 1645 0af5 33       		.uleb128 0x33
 1646 0af6 C8040000 		.4byte	.LASF123
 1647 0afa 01       		.byte	0x1
 1648 0afb 8F       		.byte	0x8f
 1649 0afc 00000000 		.4byte	.LFB248
 1650 0b00 24000000 		.4byte	.LFE248-.LFB248
 1651 0b04 01       		.uleb128 0x1
 1652 0b05 9C       		.byte	0x9c
 1653 0b06 060C0000 		.4byte	0xc06
ARM GAS  /tmp/ccNZTFwn.s 			page 30


 1654 0b0a 22       		.uleb128 0x22
 1655 0b0b 747000   		.ascii	"tp\000"
 1656 0b0e 01       		.byte	0x1
 1657 0b0f 8F       		.byte	0x8f
 1658 0b10 3D020000 		.4byte	0x23d
 1659 0b14 38010000 		.4byte	.LLST8
 1660 0b18 22       		.uleb128 0x22
 1661 0b19 6D736700 		.ascii	"msg\000"
 1662 0b1d 01       		.byte	0x1
 1663 0b1e 8F       		.byte	0x8f
 1664 0b1f 05010000 		.4byte	0x105
 1665 0b23 56010000 		.4byte	.LLST9
 1666 0b27 24       		.uleb128 0x24
 1667 0b28 A4040000 		.4byte	.LASF114
 1668 0b2c 160C0000 		.4byte	0xc16
 1669 0b30 25       		.uleb128 0x25
 1670 0b31 4B080000 		.4byte	0x84b
 1671 0b35 06000000 		.4byte	.LBB88
 1672 0b39 0A000000 		.4byte	.LBE88-.LBB88
 1673 0b3d 01       		.byte	0x1
 1674 0b3e 91       		.byte	0x91
 1675 0b3f 790B0000 		.4byte	0xb79
 1676 0b43 26       		.uleb128 0x26
 1677 0b44 A8070000 		.4byte	0x7a8
 1678 0b48 06000000 		.4byte	.LBB90
 1679 0b4c 06000000 		.4byte	.LBE90-.LBB90
 1680 0b50 03       		.byte	0x3
 1681 0b51 7801     		.2byte	0x178
 1682 0b53 6F0B0000 		.4byte	0xb6f
 1683 0b57 27       		.uleb128 0x27
 1684 0b58 8E070000 		.4byte	0x78e
 1685 0b5c 06000000 		.4byte	.LBB91
 1686 0b60 06000000 		.4byte	.LBE91-.LBB91
 1687 0b64 0B       		.byte	0xb
 1688 0b65 5A02     		.2byte	0x25a
 1689 0b67 28       		.uleb128 0x28
 1690 0b68 9B070000 		.4byte	0x79b
 1691 0b6c 20       		.byte	0x20
 1692 0b6d 00       		.byte	0
 1693 0b6e 00       		.byte	0
 1694 0b6f 29       		.uleb128 0x29
 1695 0b70 10000000 		.4byte	.LVL24
 1696 0b74 370C0000 		.4byte	0xc37
 1697 0b78 00       		.byte	0
 1698 0b79 25       		.uleb128 0x25
 1699 0b7a 29080000 		.4byte	0x829
 1700 0b7e 10000000 		.4byte	.LBB93
 1701 0b82 08000000 		.4byte	.LBE93-.LBB93
 1702 0b86 01       		.byte	0x1
 1703 0b87 93       		.byte	0x93
 1704 0b88 B10B0000 		.4byte	0xbb1
 1705 0b8c 34       		.uleb128 0x34
 1706 0b8d 3F080000 		.4byte	0x83f
 1707 0b91 01       		.uleb128 0x1
 1708 0b92 54       		.byte	0x54
 1709 0b93 34       		.uleb128 0x34
 1710 0b94 35080000 		.4byte	0x835
ARM GAS  /tmp/ccNZTFwn.s 			page 31


 1711 0b98 01       		.uleb128 0x1
 1712 0b99 55       		.byte	0x55
 1713 0b9a 30       		.uleb128 0x30
 1714 0b9b 18000000 		.4byte	.LVL25
 1715 0b9f 6D0C0000 		.4byte	0xc6d
 1716 0ba3 2F       		.uleb128 0x2f
 1717 0ba4 01       		.uleb128 0x1
 1718 0ba5 51       		.byte	0x51
 1719 0ba6 02       		.uleb128 0x2
 1720 0ba7 74       		.byte	0x74
 1721 0ba8 00       		.sleb128 0
 1722 0ba9 2F       		.uleb128 0x2f
 1723 0baa 01       		.uleb128 0x1
 1724 0bab 50       		.byte	0x50
 1725 0bac 02       		.uleb128 0x2
 1726 0bad 75       		.byte	0x75
 1727 0bae 00       		.sleb128 0
 1728 0baf 00       		.byte	0
 1729 0bb0 00       		.byte	0
 1730 0bb1 35       		.uleb128 0x35
 1731 0bb2 54080000 		.4byte	0x854
 1732 0bb6 18000000 		.4byte	.LBB95
 1733 0bba 0C000000 		.4byte	.LBE95-.LBB95
 1734 0bbe 01       		.byte	0x1
 1735 0bbf 94       		.byte	0x94
 1736 0bc0 2C       		.uleb128 0x2c
 1737 0bc1 18000000 		.4byte	.LBB96
 1738 0bc5 0C000000 		.4byte	.LBE96-.LBB96
 1739 0bc9 2D       		.uleb128 0x2d
 1740 0bca 61080000 		.4byte	0x861
 1741 0bce 26       		.uleb128 0x26
 1742 0bcf B1070000 		.4byte	0x7b1
 1743 0bd3 1C000000 		.4byte	.LBB97
 1744 0bd7 08000000 		.4byte	.LBE97-.LBB97
 1745 0bdb 03       		.byte	0x3
 1746 0bdc 8F01     		.2byte	0x18f
 1747 0bde FA0B0000 		.4byte	0xbfa
 1748 0be2 27       		.uleb128 0x27
 1749 0be3 8E070000 		.4byte	0x78e
 1750 0be7 1C000000 		.4byte	.LBB98
 1751 0beb 08000000 		.4byte	.LBE98-.LBB98
 1752 0bef 0B       		.byte	0xb
 1753 0bf0 6D02     		.2byte	0x26d
 1754 0bf2 28       		.uleb128 0x28
 1755 0bf3 9B070000 		.4byte	0x79b
 1756 0bf7 00       		.byte	0
 1757 0bf8 00       		.byte	0
 1758 0bf9 00       		.byte	0
 1759 0bfa 29       		.uleb128 0x29
 1760 0bfb 1C000000 		.4byte	.LVL26
 1761 0bff 3E0C0000 		.4byte	0xc3e
 1762 0c03 00       		.byte	0
 1763 0c04 00       		.byte	0
 1764 0c05 00       		.byte	0
 1765 0c06 1F       		.uleb128 0x1f
 1766 0c07 5E070000 		.4byte	0x75e
 1767 0c0b 160C0000 		.4byte	0xc16
ARM GAS  /tmp/ccNZTFwn.s 			page 32


 1768 0c0f 20       		.uleb128 0x20
 1769 0c10 4F040000 		.4byte	0x44f
 1770 0c14 0C       		.byte	0xc
 1771 0c15 00       		.byte	0
 1772 0c16 13       		.uleb128 0x13
 1773 0c17 060C0000 		.4byte	0xc06
 1774 0c1b 36       		.uleb128 0x36
 1775 0c1c EA000000 		.4byte	.LASF117
 1776 0c20 10       		.byte	0x10
 1777 0c21 4407     		.2byte	0x744
 1778 0c23 270C0000 		.4byte	0xc27
 1779 0c27 14       		.uleb128 0x14
 1780 0c28 A2000000 		.4byte	0xa2
 1781 0c2c 37       		.uleb128 0x37
 1782 0c2d 636800   		.ascii	"ch\000"
 1783 0c30 04       		.byte	0x4
 1784 0c31 D201     		.2byte	0x1d2
 1785 0c33 E9030000 		.4byte	0x3e9
 1786 0c37 38       		.uleb128 0x38
 1787 0c38 0C060000 		.4byte	.LASF118
 1788 0c3c 0D       		.byte	0xd
 1789 0c3d 4F       		.byte	0x4f
 1790 0c3e 38       		.uleb128 0x38
 1791 0c3f A5030000 		.4byte	.LASF119
 1792 0c43 0D       		.byte	0xd
 1793 0c44 50       		.byte	0x50
 1794 0c45 39       		.uleb128 0x39
 1795 0c46 00050000 		.4byte	.LASF124
 1796 0c4a 04       		.byte	0x4
 1797 0c4b DC01     		.2byte	0x1dc
 1798 0c4d 3D020000 		.4byte	0x23d
 1799 0c51 5B0C0000 		.4byte	0xc5b
 1800 0c55 0D       		.uleb128 0xd
 1801 0c56 3D020000 		.4byte	0x23d
 1802 0c5a 00       		.byte	0
 1803 0c5b 3A       		.uleb128 0x3a
 1804 0c5c E2040000 		.4byte	.LASF125
 1805 0c60 04       		.byte	0x4
 1806 0c61 DE01     		.2byte	0x1de
 1807 0c63 6D0C0000 		.4byte	0xc6d
 1808 0c67 0D       		.uleb128 0xd
 1809 0c68 E4000000 		.4byte	0xe4
 1810 0c6c 00       		.byte	0
 1811 0c6d 3B       		.uleb128 0x3b
 1812 0c6e C8050000 		.4byte	.LASF126
 1813 0c72 04       		.byte	0x4
 1814 0c73 E001     		.2byte	0x1e0
 1815 0c75 0D       		.uleb128 0xd
 1816 0c76 3D020000 		.4byte	0x23d
 1817 0c7a 0D       		.uleb128 0xd
 1818 0c7b 05010000 		.4byte	0x105
 1819 0c7f 00       		.byte	0
 1820 0c80 00       		.byte	0
 1821              		.section	.debug_abbrev,"",%progbits
 1822              	.Ldebug_abbrev0:
 1823 0000 01       		.uleb128 0x1
 1824 0001 11       		.uleb128 0x11
ARM GAS  /tmp/ccNZTFwn.s 			page 33


 1825 0002 01       		.byte	0x1
 1826 0003 25       		.uleb128 0x25
 1827 0004 0E       		.uleb128 0xe
 1828 0005 13       		.uleb128 0x13
 1829 0006 0B       		.uleb128 0xb
 1830 0007 03       		.uleb128 0x3
 1831 0008 0E       		.uleb128 0xe
 1832 0009 1B       		.uleb128 0x1b
 1833 000a 0E       		.uleb128 0xe
 1834 000b 55       		.uleb128 0x55
 1835 000c 17       		.uleb128 0x17
 1836 000d 11       		.uleb128 0x11
 1837 000e 01       		.uleb128 0x1
 1838 000f 10       		.uleb128 0x10
 1839 0010 17       		.uleb128 0x17
 1840 0011 00       		.byte	0
 1841 0012 00       		.byte	0
 1842 0013 02       		.uleb128 0x2
 1843 0014 24       		.uleb128 0x24
 1844 0015 00       		.byte	0
 1845 0016 0B       		.uleb128 0xb
 1846 0017 0B       		.uleb128 0xb
 1847 0018 3E       		.uleb128 0x3e
 1848 0019 0B       		.uleb128 0xb
 1849 001a 03       		.uleb128 0x3
 1850 001b 08       		.uleb128 0x8
 1851 001c 00       		.byte	0
 1852 001d 00       		.byte	0
 1853 001e 03       		.uleb128 0x3
 1854 001f 24       		.uleb128 0x24
 1855 0020 00       		.byte	0
 1856 0021 0B       		.uleb128 0xb
 1857 0022 0B       		.uleb128 0xb
 1858 0023 3E       		.uleb128 0x3e
 1859 0024 0B       		.uleb128 0xb
 1860 0025 03       		.uleb128 0x3
 1861 0026 0E       		.uleb128 0xe
 1862 0027 00       		.byte	0
 1863 0028 00       		.byte	0
 1864 0029 04       		.uleb128 0x4
 1865 002a 16       		.uleb128 0x16
 1866 002b 00       		.byte	0
 1867 002c 03       		.uleb128 0x3
 1868 002d 0E       		.uleb128 0xe
 1869 002e 3A       		.uleb128 0x3a
 1870 002f 0B       		.uleb128 0xb
 1871 0030 3B       		.uleb128 0x3b
 1872 0031 0B       		.uleb128 0xb
 1873 0032 49       		.uleb128 0x49
 1874 0033 13       		.uleb128 0x13
 1875 0034 00       		.byte	0
 1876 0035 00       		.byte	0
 1877 0036 05       		.uleb128 0x5
 1878 0037 13       		.uleb128 0x13
 1879 0038 01       		.byte	0x1
 1880 0039 03       		.uleb128 0x3
 1881 003a 0E       		.uleb128 0xe
ARM GAS  /tmp/ccNZTFwn.s 			page 34


 1882 003b 0B       		.uleb128 0xb
 1883 003c 0B       		.uleb128 0xb
 1884 003d 3A       		.uleb128 0x3a
 1885 003e 0B       		.uleb128 0xb
 1886 003f 3B       		.uleb128 0x3b
 1887 0040 0B       		.uleb128 0xb
 1888 0041 01       		.uleb128 0x1
 1889 0042 13       		.uleb128 0x13
 1890 0043 00       		.byte	0
 1891 0044 00       		.byte	0
 1892 0045 06       		.uleb128 0x6
 1893 0046 0D       		.uleb128 0xd
 1894 0047 00       		.byte	0
 1895 0048 03       		.uleb128 0x3
 1896 0049 0E       		.uleb128 0xe
 1897 004a 3A       		.uleb128 0x3a
 1898 004b 0B       		.uleb128 0xb
 1899 004c 3B       		.uleb128 0x3b
 1900 004d 0B       		.uleb128 0xb
 1901 004e 49       		.uleb128 0x49
 1902 004f 13       		.uleb128 0x13
 1903 0050 38       		.uleb128 0x38
 1904 0051 0B       		.uleb128 0xb
 1905 0052 00       		.byte	0
 1906 0053 00       		.byte	0
 1907 0054 07       		.uleb128 0x7
 1908 0055 0D       		.uleb128 0xd
 1909 0056 00       		.byte	0
 1910 0057 03       		.uleb128 0x3
 1911 0058 08       		.uleb128 0x8
 1912 0059 3A       		.uleb128 0x3a
 1913 005a 0B       		.uleb128 0xb
 1914 005b 3B       		.uleb128 0x3b
 1915 005c 0B       		.uleb128 0xb
 1916 005d 49       		.uleb128 0x49
 1917 005e 13       		.uleb128 0x13
 1918 005f 38       		.uleb128 0x38
 1919 0060 0B       		.uleb128 0xb
 1920 0061 00       		.byte	0
 1921 0062 00       		.byte	0
 1922 0063 08       		.uleb128 0x8
 1923 0064 0D       		.uleb128 0xd
 1924 0065 00       		.byte	0
 1925 0066 03       		.uleb128 0x3
 1926 0067 08       		.uleb128 0x8
 1927 0068 3A       		.uleb128 0x3a
 1928 0069 0B       		.uleb128 0xb
 1929 006a 3B       		.uleb128 0x3b
 1930 006b 05       		.uleb128 0x5
 1931 006c 49       		.uleb128 0x49
 1932 006d 13       		.uleb128 0x13
 1933 006e 38       		.uleb128 0x38
 1934 006f 0B       		.uleb128 0xb
 1935 0070 00       		.byte	0
 1936 0071 00       		.byte	0
 1937 0072 09       		.uleb128 0x9
 1938 0073 0D       		.uleb128 0xd
ARM GAS  /tmp/ccNZTFwn.s 			page 35


 1939 0074 00       		.byte	0
 1940 0075 03       		.uleb128 0x3
 1941 0076 0E       		.uleb128 0xe
 1942 0077 3A       		.uleb128 0x3a
 1943 0078 0B       		.uleb128 0xb
 1944 0079 3B       		.uleb128 0x3b
 1945 007a 05       		.uleb128 0x5
 1946 007b 49       		.uleb128 0x49
 1947 007c 13       		.uleb128 0x13
 1948 007d 38       		.uleb128 0x38
 1949 007e 0B       		.uleb128 0xb
 1950 007f 00       		.byte	0
 1951 0080 00       		.byte	0
 1952 0081 0A       		.uleb128 0xa
 1953 0082 0F       		.uleb128 0xf
 1954 0083 00       		.byte	0
 1955 0084 0B       		.uleb128 0xb
 1956 0085 0B       		.uleb128 0xb
 1957 0086 49       		.uleb128 0x49
 1958 0087 13       		.uleb128 0x13
 1959 0088 00       		.byte	0
 1960 0089 00       		.byte	0
 1961 008a 0B       		.uleb128 0xb
 1962 008b 13       		.uleb128 0x13
 1963 008c 01       		.byte	0x1
 1964 008d 03       		.uleb128 0x3
 1965 008e 0E       		.uleb128 0xe
 1966 008f 0B       		.uleb128 0xb
 1967 0090 0B       		.uleb128 0xb
 1968 0091 3A       		.uleb128 0x3a
 1969 0092 0B       		.uleb128 0xb
 1970 0093 3B       		.uleb128 0x3b
 1971 0094 05       		.uleb128 0x5
 1972 0095 01       		.uleb128 0x1
 1973 0096 13       		.uleb128 0x13
 1974 0097 00       		.byte	0
 1975 0098 00       		.byte	0
 1976 0099 0C       		.uleb128 0xc
 1977 009a 15       		.uleb128 0x15
 1978 009b 01       		.byte	0x1
 1979 009c 27       		.uleb128 0x27
 1980 009d 19       		.uleb128 0x19
 1981 009e 01       		.uleb128 0x1
 1982 009f 13       		.uleb128 0x13
 1983 00a0 00       		.byte	0
 1984 00a1 00       		.byte	0
 1985 00a2 0D       		.uleb128 0xd
 1986 00a3 05       		.uleb128 0x5
 1987 00a4 00       		.byte	0
 1988 00a5 49       		.uleb128 0x49
 1989 00a6 13       		.uleb128 0x13
 1990 00a7 00       		.byte	0
 1991 00a8 00       		.byte	0
 1992 00a9 0E       		.uleb128 0xe
 1993 00aa 0F       		.uleb128 0xf
 1994 00ab 00       		.byte	0
 1995 00ac 0B       		.uleb128 0xb
ARM GAS  /tmp/ccNZTFwn.s 			page 36


 1996 00ad 0B       		.uleb128 0xb
 1997 00ae 00       		.byte	0
 1998 00af 00       		.byte	0
 1999 00b0 0F       		.uleb128 0xf
 2000 00b1 13       		.uleb128 0x13
 2001 00b2 01       		.byte	0x1
 2002 00b3 0B       		.uleb128 0xb
 2003 00b4 0B       		.uleb128 0xb
 2004 00b5 3A       		.uleb128 0x3a
 2005 00b6 0B       		.uleb128 0xb
 2006 00b7 3B       		.uleb128 0x3b
 2007 00b8 0B       		.uleb128 0xb
 2008 00b9 01       		.uleb128 0x1
 2009 00ba 13       		.uleb128 0x13
 2010 00bb 00       		.byte	0
 2011 00bc 00       		.byte	0
 2012 00bd 10       		.uleb128 0x10
 2013 00be 17       		.uleb128 0x17
 2014 00bf 01       		.byte	0x1
 2015 00c0 0B       		.uleb128 0xb
 2016 00c1 0B       		.uleb128 0xb
 2017 00c2 3A       		.uleb128 0x3a
 2018 00c3 0B       		.uleb128 0xb
 2019 00c4 3B       		.uleb128 0x3b
 2020 00c5 0B       		.uleb128 0xb
 2021 00c6 01       		.uleb128 0x1
 2022 00c7 13       		.uleb128 0x13
 2023 00c8 00       		.byte	0
 2024 00c9 00       		.byte	0
 2025 00ca 11       		.uleb128 0x11
 2026 00cb 0D       		.uleb128 0xd
 2027 00cc 00       		.byte	0
 2028 00cd 03       		.uleb128 0x3
 2029 00ce 0E       		.uleb128 0xe
 2030 00cf 3A       		.uleb128 0x3a
 2031 00d0 0B       		.uleb128 0xb
 2032 00d1 3B       		.uleb128 0x3b
 2033 00d2 0B       		.uleb128 0xb
 2034 00d3 49       		.uleb128 0x49
 2035 00d4 13       		.uleb128 0x13
 2036 00d5 00       		.byte	0
 2037 00d6 00       		.byte	0
 2038 00d7 12       		.uleb128 0x12
 2039 00d8 0D       		.uleb128 0xd
 2040 00d9 00       		.byte	0
 2041 00da 03       		.uleb128 0x3
 2042 00db 0E       		.uleb128 0xe
 2043 00dc 3A       		.uleb128 0x3a
 2044 00dd 0B       		.uleb128 0xb
 2045 00de 3B       		.uleb128 0x3b
 2046 00df 05       		.uleb128 0x5
 2047 00e0 49       		.uleb128 0x49
 2048 00e1 13       		.uleb128 0x13
 2049 00e2 00       		.byte	0
 2050 00e3 00       		.byte	0
 2051 00e4 13       		.uleb128 0x13
 2052 00e5 26       		.uleb128 0x26
ARM GAS  /tmp/ccNZTFwn.s 			page 37


 2053 00e6 00       		.byte	0
 2054 00e7 49       		.uleb128 0x49
 2055 00e8 13       		.uleb128 0x13
 2056 00e9 00       		.byte	0
 2057 00ea 00       		.byte	0
 2058 00eb 14       		.uleb128 0x14
 2059 00ec 35       		.uleb128 0x35
 2060 00ed 00       		.byte	0
 2061 00ee 49       		.uleb128 0x49
 2062 00ef 13       		.uleb128 0x13
 2063 00f0 00       		.byte	0
 2064 00f1 00       		.byte	0
 2065 00f2 15       		.uleb128 0x15
 2066 00f3 2E       		.uleb128 0x2e
 2067 00f4 01       		.byte	0x1
 2068 00f5 03       		.uleb128 0x3
 2069 00f6 0E       		.uleb128 0xe
 2070 00f7 3A       		.uleb128 0x3a
 2071 00f8 0B       		.uleb128 0xb
 2072 00f9 3B       		.uleb128 0x3b
 2073 00fa 05       		.uleb128 0x5
 2074 00fb 27       		.uleb128 0x27
 2075 00fc 19       		.uleb128 0x19
 2076 00fd 20       		.uleb128 0x20
 2077 00fe 0B       		.uleb128 0xb
 2078 00ff 01       		.uleb128 0x1
 2079 0100 13       		.uleb128 0x13
 2080 0101 00       		.byte	0
 2081 0102 00       		.byte	0
 2082 0103 16       		.uleb128 0x16
 2083 0104 05       		.uleb128 0x5
 2084 0105 00       		.byte	0
 2085 0106 03       		.uleb128 0x3
 2086 0107 0E       		.uleb128 0xe
 2087 0108 3A       		.uleb128 0x3a
 2088 0109 0B       		.uleb128 0xb
 2089 010a 3B       		.uleb128 0x3b
 2090 010b 05       		.uleb128 0x5
 2091 010c 49       		.uleb128 0x49
 2092 010d 13       		.uleb128 0x13
 2093 010e 00       		.byte	0
 2094 010f 00       		.byte	0
 2095 0110 17       		.uleb128 0x17
 2096 0111 2E       		.uleb128 0x2e
 2097 0112 00       		.byte	0
 2098 0113 03       		.uleb128 0x3
 2099 0114 0E       		.uleb128 0xe
 2100 0115 3A       		.uleb128 0x3a
 2101 0116 0B       		.uleb128 0xb
 2102 0117 3B       		.uleb128 0x3b
 2103 0118 05       		.uleb128 0x5
 2104 0119 27       		.uleb128 0x27
 2105 011a 19       		.uleb128 0x19
 2106 011b 20       		.uleb128 0x20
 2107 011c 0B       		.uleb128 0xb
 2108 011d 00       		.byte	0
 2109 011e 00       		.byte	0
ARM GAS  /tmp/ccNZTFwn.s 			page 38


 2110 011f 18       		.uleb128 0x18
 2111 0120 05       		.uleb128 0x5
 2112 0121 00       		.byte	0
 2113 0122 03       		.uleb128 0x3
 2114 0123 08       		.uleb128 0x8
 2115 0124 3A       		.uleb128 0x3a
 2116 0125 0B       		.uleb128 0xb
 2117 0126 3B       		.uleb128 0x3b
 2118 0127 05       		.uleb128 0x5
 2119 0128 49       		.uleb128 0x49
 2120 0129 13       		.uleb128 0x13
 2121 012a 00       		.byte	0
 2122 012b 00       		.byte	0
 2123 012c 19       		.uleb128 0x19
 2124 012d 2E       		.uleb128 0x2e
 2125 012e 01       		.byte	0x1
 2126 012f 03       		.uleb128 0x3
 2127 0130 0E       		.uleb128 0xe
 2128 0131 3A       		.uleb128 0x3a
 2129 0132 0B       		.uleb128 0xb
 2130 0133 3B       		.uleb128 0x3b
 2131 0134 0B       		.uleb128 0xb
 2132 0135 27       		.uleb128 0x27
 2133 0136 19       		.uleb128 0x19
 2134 0137 49       		.uleb128 0x49
 2135 0138 13       		.uleb128 0x13
 2136 0139 20       		.uleb128 0x20
 2137 013a 0B       		.uleb128 0xb
 2138 013b 01       		.uleb128 0x1
 2139 013c 13       		.uleb128 0x13
 2140 013d 00       		.byte	0
 2141 013e 00       		.byte	0
 2142 013f 1A       		.uleb128 0x1a
 2143 0140 05       		.uleb128 0x5
 2144 0141 00       		.byte	0
 2145 0142 03       		.uleb128 0x3
 2146 0143 08       		.uleb128 0x8
 2147 0144 3A       		.uleb128 0x3a
 2148 0145 0B       		.uleb128 0xb
 2149 0146 3B       		.uleb128 0x3b
 2150 0147 0B       		.uleb128 0xb
 2151 0148 49       		.uleb128 0x49
 2152 0149 13       		.uleb128 0x13
 2153 014a 00       		.byte	0
 2154 014b 00       		.byte	0
 2155 014c 1B       		.uleb128 0x1b
 2156 014d 2E       		.uleb128 0x2e
 2157 014e 01       		.byte	0x1
 2158 014f 03       		.uleb128 0x3
 2159 0150 0E       		.uleb128 0xe
 2160 0151 3A       		.uleb128 0x3a
 2161 0152 0B       		.uleb128 0xb
 2162 0153 3B       		.uleb128 0x3b
 2163 0154 05       		.uleb128 0x5
 2164 0155 27       		.uleb128 0x27
 2165 0156 19       		.uleb128 0x19
 2166 0157 49       		.uleb128 0x49
ARM GAS  /tmp/ccNZTFwn.s 			page 39


 2167 0158 13       		.uleb128 0x13
 2168 0159 20       		.uleb128 0x20
 2169 015a 0B       		.uleb128 0xb
 2170 015b 01       		.uleb128 0x1
 2171 015c 13       		.uleb128 0x13
 2172 015d 00       		.byte	0
 2173 015e 00       		.byte	0
 2174 015f 1C       		.uleb128 0x1c
 2175 0160 34       		.uleb128 0x34
 2176 0161 00       		.byte	0
 2177 0162 03       		.uleb128 0x3
 2178 0163 08       		.uleb128 0x8
 2179 0164 3A       		.uleb128 0x3a
 2180 0165 0B       		.uleb128 0xb
 2181 0166 3B       		.uleb128 0x3b
 2182 0167 05       		.uleb128 0x5
 2183 0168 49       		.uleb128 0x49
 2184 0169 13       		.uleb128 0x13
 2185 016a 00       		.byte	0
 2186 016b 00       		.byte	0
 2187 016c 1D       		.uleb128 0x1d
 2188 016d 2E       		.uleb128 0x2e
 2189 016e 01       		.byte	0x1
 2190 016f 03       		.uleb128 0x3
 2191 0170 0E       		.uleb128 0xe
 2192 0171 3A       		.uleb128 0x3a
 2193 0172 0B       		.uleb128 0xb
 2194 0173 3B       		.uleb128 0x3b
 2195 0174 0B       		.uleb128 0xb
 2196 0175 27       		.uleb128 0x27
 2197 0176 19       		.uleb128 0x19
 2198 0177 20       		.uleb128 0x20
 2199 0178 0B       		.uleb128 0xb
 2200 0179 01       		.uleb128 0x1
 2201 017a 13       		.uleb128 0x13
 2202 017b 00       		.byte	0
 2203 017c 00       		.byte	0
 2204 017d 1E       		.uleb128 0x1e
 2205 017e 34       		.uleb128 0x34
 2206 017f 00       		.byte	0
 2207 0180 03       		.uleb128 0x3
 2208 0181 0E       		.uleb128 0xe
 2209 0182 49       		.uleb128 0x49
 2210 0183 13       		.uleb128 0x13
 2211 0184 34       		.uleb128 0x34
 2212 0185 19       		.uleb128 0x19
 2213 0186 1C       		.uleb128 0x1c
 2214 0187 0E       		.uleb128 0xe
 2215 0188 00       		.byte	0
 2216 0189 00       		.byte	0
 2217 018a 1F       		.uleb128 0x1f
 2218 018b 01       		.uleb128 0x1
 2219 018c 01       		.byte	0x1
 2220 018d 49       		.uleb128 0x49
 2221 018e 13       		.uleb128 0x13
 2222 018f 01       		.uleb128 0x1
 2223 0190 13       		.uleb128 0x13
ARM GAS  /tmp/ccNZTFwn.s 			page 40


 2224 0191 00       		.byte	0
 2225 0192 00       		.byte	0
 2226 0193 20       		.uleb128 0x20
 2227 0194 21       		.uleb128 0x21
 2228 0195 00       		.byte	0
 2229 0196 49       		.uleb128 0x49
 2230 0197 13       		.uleb128 0x13
 2231 0198 2F       		.uleb128 0x2f
 2232 0199 0B       		.uleb128 0xb
 2233 019a 00       		.byte	0
 2234 019b 00       		.byte	0
 2235 019c 21       		.uleb128 0x21
 2236 019d 2E       		.uleb128 0x2e
 2237 019e 01       		.byte	0x1
 2238 019f 3F       		.uleb128 0x3f
 2239 01a0 19       		.uleb128 0x19
 2240 01a1 03       		.uleb128 0x3
 2241 01a2 0E       		.uleb128 0xe
 2242 01a3 3A       		.uleb128 0x3a
 2243 01a4 0B       		.uleb128 0xb
 2244 01a5 3B       		.uleb128 0x3b
 2245 01a6 0B       		.uleb128 0xb
 2246 01a7 27       		.uleb128 0x27
 2247 01a8 19       		.uleb128 0x19
 2248 01a9 49       		.uleb128 0x49
 2249 01aa 13       		.uleb128 0x13
 2250 01ab 11       		.uleb128 0x11
 2251 01ac 01       		.uleb128 0x1
 2252 01ad 12       		.uleb128 0x12
 2253 01ae 06       		.uleb128 0x6
 2254 01af 40       		.uleb128 0x40
 2255 01b0 18       		.uleb128 0x18
 2256 01b1 9742     		.uleb128 0x2117
 2257 01b3 19       		.uleb128 0x19
 2258 01b4 01       		.uleb128 0x1
 2259 01b5 13       		.uleb128 0x13
 2260 01b6 00       		.byte	0
 2261 01b7 00       		.byte	0
 2262 01b8 22       		.uleb128 0x22
 2263 01b9 05       		.uleb128 0x5
 2264 01ba 00       		.byte	0
 2265 01bb 03       		.uleb128 0x3
 2266 01bc 08       		.uleb128 0x8
 2267 01bd 3A       		.uleb128 0x3a
 2268 01be 0B       		.uleb128 0xb
 2269 01bf 3B       		.uleb128 0x3b
 2270 01c0 0B       		.uleb128 0xb
 2271 01c1 49       		.uleb128 0x49
 2272 01c2 13       		.uleb128 0x13
 2273 01c3 02       		.uleb128 0x2
 2274 01c4 17       		.uleb128 0x17
 2275 01c5 00       		.byte	0
 2276 01c6 00       		.byte	0
 2277 01c7 23       		.uleb128 0x23
 2278 01c8 34       		.uleb128 0x34
 2279 01c9 00       		.byte	0
 2280 01ca 03       		.uleb128 0x3
ARM GAS  /tmp/ccNZTFwn.s 			page 41


 2281 01cb 08       		.uleb128 0x8
 2282 01cc 3A       		.uleb128 0x3a
 2283 01cd 0B       		.uleb128 0xb
 2284 01ce 3B       		.uleb128 0x3b
 2285 01cf 0B       		.uleb128 0xb
 2286 01d0 49       		.uleb128 0x49
 2287 01d1 13       		.uleb128 0x13
 2288 01d2 02       		.uleb128 0x2
 2289 01d3 17       		.uleb128 0x17
 2290 01d4 00       		.byte	0
 2291 01d5 00       		.byte	0
 2292 01d6 24       		.uleb128 0x24
 2293 01d7 34       		.uleb128 0x34
 2294 01d8 00       		.byte	0
 2295 01d9 03       		.uleb128 0x3
 2296 01da 0E       		.uleb128 0xe
 2297 01db 49       		.uleb128 0x49
 2298 01dc 13       		.uleb128 0x13
 2299 01dd 34       		.uleb128 0x34
 2300 01de 19       		.uleb128 0x19
 2301 01df 00       		.byte	0
 2302 01e0 00       		.byte	0
 2303 01e1 25       		.uleb128 0x25
 2304 01e2 1D       		.uleb128 0x1d
 2305 01e3 01       		.byte	0x1
 2306 01e4 31       		.uleb128 0x31
 2307 01e5 13       		.uleb128 0x13
 2308 01e6 11       		.uleb128 0x11
 2309 01e7 01       		.uleb128 0x1
 2310 01e8 12       		.uleb128 0x12
 2311 01e9 06       		.uleb128 0x6
 2312 01ea 58       		.uleb128 0x58
 2313 01eb 0B       		.uleb128 0xb
 2314 01ec 59       		.uleb128 0x59
 2315 01ed 0B       		.uleb128 0xb
 2316 01ee 01       		.uleb128 0x1
 2317 01ef 13       		.uleb128 0x13
 2318 01f0 00       		.byte	0
 2319 01f1 00       		.byte	0
 2320 01f2 26       		.uleb128 0x26
 2321 01f3 1D       		.uleb128 0x1d
 2322 01f4 01       		.byte	0x1
 2323 01f5 31       		.uleb128 0x31
 2324 01f6 13       		.uleb128 0x13
 2325 01f7 11       		.uleb128 0x11
 2326 01f8 01       		.uleb128 0x1
 2327 01f9 12       		.uleb128 0x12
 2328 01fa 06       		.uleb128 0x6
 2329 01fb 58       		.uleb128 0x58
 2330 01fc 0B       		.uleb128 0xb
 2331 01fd 59       		.uleb128 0x59
 2332 01fe 05       		.uleb128 0x5
 2333 01ff 01       		.uleb128 0x1
 2334 0200 13       		.uleb128 0x13
 2335 0201 00       		.byte	0
 2336 0202 00       		.byte	0
 2337 0203 27       		.uleb128 0x27
ARM GAS  /tmp/ccNZTFwn.s 			page 42


 2338 0204 1D       		.uleb128 0x1d
 2339 0205 01       		.byte	0x1
 2340 0206 31       		.uleb128 0x31
 2341 0207 13       		.uleb128 0x13
 2342 0208 11       		.uleb128 0x11
 2343 0209 01       		.uleb128 0x1
 2344 020a 12       		.uleb128 0x12
 2345 020b 06       		.uleb128 0x6
 2346 020c 58       		.uleb128 0x58
 2347 020d 0B       		.uleb128 0xb
 2348 020e 59       		.uleb128 0x59
 2349 020f 05       		.uleb128 0x5
 2350 0210 00       		.byte	0
 2351 0211 00       		.byte	0
 2352 0212 28       		.uleb128 0x28
 2353 0213 05       		.uleb128 0x5
 2354 0214 00       		.byte	0
 2355 0215 31       		.uleb128 0x31
 2356 0216 13       		.uleb128 0x13
 2357 0217 1C       		.uleb128 0x1c
 2358 0218 0B       		.uleb128 0xb
 2359 0219 00       		.byte	0
 2360 021a 00       		.byte	0
 2361 021b 29       		.uleb128 0x29
 2362 021c 898201   		.uleb128 0x4109
 2363 021f 00       		.byte	0
 2364 0220 11       		.uleb128 0x11
 2365 0221 01       		.uleb128 0x1
 2366 0222 31       		.uleb128 0x31
 2367 0223 13       		.uleb128 0x13
 2368 0224 00       		.byte	0
 2369 0225 00       		.byte	0
 2370 0226 2A       		.uleb128 0x2a
 2371 0227 1D       		.uleb128 0x1d
 2372 0228 01       		.byte	0x1
 2373 0229 31       		.uleb128 0x31
 2374 022a 13       		.uleb128 0x13
 2375 022b 52       		.uleb128 0x52
 2376 022c 01       		.uleb128 0x1
 2377 022d 55       		.uleb128 0x55
 2378 022e 17       		.uleb128 0x17
 2379 022f 58       		.uleb128 0x58
 2380 0230 0B       		.uleb128 0xb
 2381 0231 59       		.uleb128 0x59
 2382 0232 0B       		.uleb128 0xb
 2383 0233 01       		.uleb128 0x1
 2384 0234 13       		.uleb128 0x13
 2385 0235 00       		.byte	0
 2386 0236 00       		.byte	0
 2387 0237 2B       		.uleb128 0x2b
 2388 0238 05       		.uleb128 0x5
 2389 0239 00       		.byte	0
 2390 023a 31       		.uleb128 0x31
 2391 023b 13       		.uleb128 0x13
 2392 023c 02       		.uleb128 0x2
 2393 023d 17       		.uleb128 0x17
 2394 023e 00       		.byte	0
ARM GAS  /tmp/ccNZTFwn.s 			page 43


 2395 023f 00       		.byte	0
 2396 0240 2C       		.uleb128 0x2c
 2397 0241 0B       		.uleb128 0xb
 2398 0242 01       		.byte	0x1
 2399 0243 11       		.uleb128 0x11
 2400 0244 01       		.uleb128 0x1
 2401 0245 12       		.uleb128 0x12
 2402 0246 06       		.uleb128 0x6
 2403 0247 00       		.byte	0
 2404 0248 00       		.byte	0
 2405 0249 2D       		.uleb128 0x2d
 2406 024a 34       		.uleb128 0x34
 2407 024b 00       		.byte	0
 2408 024c 31       		.uleb128 0x31
 2409 024d 13       		.uleb128 0x13
 2410 024e 00       		.byte	0
 2411 024f 00       		.byte	0
 2412 0250 2E       		.uleb128 0x2e
 2413 0251 898201   		.uleb128 0x4109
 2414 0254 01       		.byte	0x1
 2415 0255 11       		.uleb128 0x11
 2416 0256 01       		.uleb128 0x1
 2417 0257 31       		.uleb128 0x31
 2418 0258 13       		.uleb128 0x13
 2419 0259 01       		.uleb128 0x1
 2420 025a 13       		.uleb128 0x13
 2421 025b 00       		.byte	0
 2422 025c 00       		.byte	0
 2423 025d 2F       		.uleb128 0x2f
 2424 025e 8A8201   		.uleb128 0x410a
 2425 0261 00       		.byte	0
 2426 0262 02       		.uleb128 0x2
 2427 0263 18       		.uleb128 0x18
 2428 0264 9142     		.uleb128 0x2111
 2429 0266 18       		.uleb128 0x18
 2430 0267 00       		.byte	0
 2431 0268 00       		.byte	0
 2432 0269 30       		.uleb128 0x30
 2433 026a 898201   		.uleb128 0x4109
 2434 026d 01       		.byte	0x1
 2435 026e 11       		.uleb128 0x11
 2436 026f 01       		.uleb128 0x1
 2437 0270 31       		.uleb128 0x31
 2438 0271 13       		.uleb128 0x13
 2439 0272 00       		.byte	0
 2440 0273 00       		.byte	0
 2441 0274 31       		.uleb128 0x31
 2442 0275 34       		.uleb128 0x34
 2443 0276 00       		.byte	0
 2444 0277 03       		.uleb128 0x3
 2445 0278 08       		.uleb128 0x8
 2446 0279 3A       		.uleb128 0x3a
 2447 027a 0B       		.uleb128 0xb
 2448 027b 3B       		.uleb128 0x3b
 2449 027c 0B       		.uleb128 0xb
 2450 027d 49       		.uleb128 0x49
 2451 027e 13       		.uleb128 0x13
ARM GAS  /tmp/ccNZTFwn.s 			page 44


 2452 027f 02       		.uleb128 0x2
 2453 0280 18       		.uleb128 0x18
 2454 0281 00       		.byte	0
 2455 0282 00       		.byte	0
 2456 0283 32       		.uleb128 0x32
 2457 0284 34       		.uleb128 0x34
 2458 0285 00       		.byte	0
 2459 0286 31       		.uleb128 0x31
 2460 0287 13       		.uleb128 0x13
 2461 0288 02       		.uleb128 0x2
 2462 0289 17       		.uleb128 0x17
 2463 028a 00       		.byte	0
 2464 028b 00       		.byte	0
 2465 028c 33       		.uleb128 0x33
 2466 028d 2E       		.uleb128 0x2e
 2467 028e 01       		.byte	0x1
 2468 028f 3F       		.uleb128 0x3f
 2469 0290 19       		.uleb128 0x19
 2470 0291 03       		.uleb128 0x3
 2471 0292 0E       		.uleb128 0xe
 2472 0293 3A       		.uleb128 0x3a
 2473 0294 0B       		.uleb128 0xb
 2474 0295 3B       		.uleb128 0x3b
 2475 0296 0B       		.uleb128 0xb
 2476 0297 27       		.uleb128 0x27
 2477 0298 19       		.uleb128 0x19
 2478 0299 11       		.uleb128 0x11
 2479 029a 01       		.uleb128 0x1
 2480 029b 12       		.uleb128 0x12
 2481 029c 06       		.uleb128 0x6
 2482 029d 40       		.uleb128 0x40
 2483 029e 18       		.uleb128 0x18
 2484 029f 9742     		.uleb128 0x2117
 2485 02a1 19       		.uleb128 0x19
 2486 02a2 01       		.uleb128 0x1
 2487 02a3 13       		.uleb128 0x13
 2488 02a4 00       		.byte	0
 2489 02a5 00       		.byte	0
 2490 02a6 34       		.uleb128 0x34
 2491 02a7 05       		.uleb128 0x5
 2492 02a8 00       		.byte	0
 2493 02a9 31       		.uleb128 0x31
 2494 02aa 13       		.uleb128 0x13
 2495 02ab 02       		.uleb128 0x2
 2496 02ac 18       		.uleb128 0x18
 2497 02ad 00       		.byte	0
 2498 02ae 00       		.byte	0
 2499 02af 35       		.uleb128 0x35
 2500 02b0 1D       		.uleb128 0x1d
 2501 02b1 01       		.byte	0x1
 2502 02b2 31       		.uleb128 0x31
 2503 02b3 13       		.uleb128 0x13
 2504 02b4 11       		.uleb128 0x11
 2505 02b5 01       		.uleb128 0x1
 2506 02b6 12       		.uleb128 0x12
 2507 02b7 06       		.uleb128 0x6
 2508 02b8 58       		.uleb128 0x58
ARM GAS  /tmp/ccNZTFwn.s 			page 45


 2509 02b9 0B       		.uleb128 0xb
 2510 02ba 59       		.uleb128 0x59
 2511 02bb 0B       		.uleb128 0xb
 2512 02bc 00       		.byte	0
 2513 02bd 00       		.byte	0
 2514 02be 36       		.uleb128 0x36
 2515 02bf 34       		.uleb128 0x34
 2516 02c0 00       		.byte	0
 2517 02c1 03       		.uleb128 0x3
 2518 02c2 0E       		.uleb128 0xe
 2519 02c3 3A       		.uleb128 0x3a
 2520 02c4 0B       		.uleb128 0xb
 2521 02c5 3B       		.uleb128 0x3b
 2522 02c6 05       		.uleb128 0x5
 2523 02c7 49       		.uleb128 0x49
 2524 02c8 13       		.uleb128 0x13
 2525 02c9 3F       		.uleb128 0x3f
 2526 02ca 19       		.uleb128 0x19
 2527 02cb 3C       		.uleb128 0x3c
 2528 02cc 19       		.uleb128 0x19
 2529 02cd 00       		.byte	0
 2530 02ce 00       		.byte	0
 2531 02cf 37       		.uleb128 0x37
 2532 02d0 34       		.uleb128 0x34
 2533 02d1 00       		.byte	0
 2534 02d2 03       		.uleb128 0x3
 2535 02d3 08       		.uleb128 0x8
 2536 02d4 3A       		.uleb128 0x3a
 2537 02d5 0B       		.uleb128 0xb
 2538 02d6 3B       		.uleb128 0x3b
 2539 02d7 05       		.uleb128 0x5
 2540 02d8 49       		.uleb128 0x49
 2541 02d9 13       		.uleb128 0x13
 2542 02da 3F       		.uleb128 0x3f
 2543 02db 19       		.uleb128 0x19
 2544 02dc 3C       		.uleb128 0x3c
 2545 02dd 19       		.uleb128 0x19
 2546 02de 00       		.byte	0
 2547 02df 00       		.byte	0
 2548 02e0 38       		.uleb128 0x38
 2549 02e1 2E       		.uleb128 0x2e
 2550 02e2 00       		.byte	0
 2551 02e3 3F       		.uleb128 0x3f
 2552 02e4 19       		.uleb128 0x19
 2553 02e5 03       		.uleb128 0x3
 2554 02e6 0E       		.uleb128 0xe
 2555 02e7 3A       		.uleb128 0x3a
 2556 02e8 0B       		.uleb128 0xb
 2557 02e9 3B       		.uleb128 0x3b
 2558 02ea 0B       		.uleb128 0xb
 2559 02eb 27       		.uleb128 0x27
 2560 02ec 19       		.uleb128 0x19
 2561 02ed 3C       		.uleb128 0x3c
 2562 02ee 19       		.uleb128 0x19
 2563 02ef 00       		.byte	0
 2564 02f0 00       		.byte	0
 2565 02f1 39       		.uleb128 0x39
ARM GAS  /tmp/ccNZTFwn.s 			page 46


 2566 02f2 2E       		.uleb128 0x2e
 2567 02f3 01       		.byte	0x1
 2568 02f4 3F       		.uleb128 0x3f
 2569 02f5 19       		.uleb128 0x19
 2570 02f6 03       		.uleb128 0x3
 2571 02f7 0E       		.uleb128 0xe
 2572 02f8 3A       		.uleb128 0x3a
 2573 02f9 0B       		.uleb128 0xb
 2574 02fa 3B       		.uleb128 0x3b
 2575 02fb 05       		.uleb128 0x5
 2576 02fc 27       		.uleb128 0x27
 2577 02fd 19       		.uleb128 0x19
 2578 02fe 49       		.uleb128 0x49
 2579 02ff 13       		.uleb128 0x13
 2580 0300 3C       		.uleb128 0x3c
 2581 0301 19       		.uleb128 0x19
 2582 0302 01       		.uleb128 0x1
 2583 0303 13       		.uleb128 0x13
 2584 0304 00       		.byte	0
 2585 0305 00       		.byte	0
 2586 0306 3A       		.uleb128 0x3a
 2587 0307 2E       		.uleb128 0x2e
 2588 0308 01       		.byte	0x1
 2589 0309 3F       		.uleb128 0x3f
 2590 030a 19       		.uleb128 0x19
 2591 030b 03       		.uleb128 0x3
 2592 030c 0E       		.uleb128 0xe
 2593 030d 3A       		.uleb128 0x3a
 2594 030e 0B       		.uleb128 0xb
 2595 030f 3B       		.uleb128 0x3b
 2596 0310 05       		.uleb128 0x5
 2597 0311 27       		.uleb128 0x27
 2598 0312 19       		.uleb128 0x19
 2599 0313 3C       		.uleb128 0x3c
 2600 0314 19       		.uleb128 0x19
 2601 0315 01       		.uleb128 0x1
 2602 0316 13       		.uleb128 0x13
 2603 0317 00       		.byte	0
 2604 0318 00       		.byte	0
 2605 0319 3B       		.uleb128 0x3b
 2606 031a 2E       		.uleb128 0x2e
 2607 031b 01       		.byte	0x1
 2608 031c 3F       		.uleb128 0x3f
 2609 031d 19       		.uleb128 0x19
 2610 031e 03       		.uleb128 0x3
 2611 031f 0E       		.uleb128 0xe
 2612 0320 3A       		.uleb128 0x3a
 2613 0321 0B       		.uleb128 0xb
 2614 0322 3B       		.uleb128 0x3b
 2615 0323 05       		.uleb128 0x5
 2616 0324 27       		.uleb128 0x27
 2617 0325 19       		.uleb128 0x19
 2618 0326 3C       		.uleb128 0x3c
 2619 0327 19       		.uleb128 0x19
 2620 0328 00       		.byte	0
 2621 0329 00       		.byte	0
 2622 032a 00       		.byte	0
ARM GAS  /tmp/ccNZTFwn.s 			page 47


 2623              		.section	.debug_loc,"",%progbits
 2624              	.Ldebug_loc0:
 2625              	.LLST0:
 2626 0000 00000000 		.4byte	.LVL0
 2627 0004 13000000 		.4byte	.LVL2-1
 2628 0008 0100     		.2byte	0x1
 2629 000a 50       		.byte	0x50
 2630 000b 13000000 		.4byte	.LVL2-1
 2631 000f 48000000 		.4byte	.LVL11
 2632 0013 0100     		.2byte	0x1
 2633 0015 55       		.byte	0x55
 2634 0016 48000000 		.4byte	.LVL11
 2635 001a 4C000000 		.4byte	.LFE246
 2636 001e 0400     		.2byte	0x4
 2637 0020 F3       		.byte	0xf3
 2638 0021 01       		.uleb128 0x1
 2639 0022 50       		.byte	0x50
 2640 0023 9F       		.byte	0x9f
 2641 0024 00000000 		.4byte	0
 2642 0028 00000000 		.4byte	0
 2643              	.LLST1:
 2644 002c 00000000 		.4byte	.LVL0
 2645 0030 13000000 		.4byte	.LVL2-1
 2646 0034 0100     		.2byte	0x1
 2647 0036 51       		.byte	0x51
 2648 0037 13000000 		.4byte	.LVL2-1
 2649 003b 3A000000 		.4byte	.LVL9
 2650 003f 0100     		.2byte	0x1
 2651 0041 56       		.byte	0x56
 2652 0042 3A000000 		.4byte	.LVL9
 2653 0046 48000000 		.4byte	.LVL11
 2654 004a 0100     		.2byte	0x1
 2655 004c 54       		.byte	0x54
 2656 004d 48000000 		.4byte	.LVL11
 2657 0051 4C000000 		.4byte	.LFE246
 2658 0055 0100     		.2byte	0x1
 2659 0057 50       		.byte	0x50
 2660 0058 00000000 		.4byte	0
 2661 005c 00000000 		.4byte	0
 2662              	.LLST2:
 2663 0060 06000000 		.4byte	.LVL1
 2664 0064 3A000000 		.4byte	.LVL9
 2665 0068 0100     		.2byte	0x1
 2666 006a 54       		.byte	0x54
 2667 006b 00000000 		.4byte	0
 2668 006f 00000000 		.4byte	0
 2669              	.LLST3:
 2670 0073 16000000 		.4byte	.LVL3
 2671 0077 1A000000 		.4byte	.LVL4
 2672 007b 0300     		.2byte	0x3
 2673 007d 75       		.byte	0x75
 2674 007e 2C       		.sleb128 44
 2675 007f 9F       		.byte	0x9f
 2676 0080 1A000000 		.4byte	.LVL4
 2677 0084 1E000000 		.4byte	.LVL5
 2678 0088 0100     		.2byte	0x1
 2679 008a 53       		.byte	0x53
ARM GAS  /tmp/ccNZTFwn.s 			page 48


 2680 008b 1E000000 		.4byte	.LVL5
 2681 008f 22000000 		.4byte	.LVL6
 2682 0093 0200     		.2byte	0x2
 2683 0095 74       		.byte	0x74
 2684 0096 00       		.sleb128 0
 2685 0097 22000000 		.4byte	.LVL6
 2686 009b 48000000 		.4byte	.LVL11
 2687 009f 0300     		.2byte	0x3
 2688 00a1 75       		.byte	0x75
 2689 00a2 2C       		.sleb128 44
 2690 00a3 9F       		.byte	0x9f
 2691 00a4 48000000 		.4byte	.LVL11
 2692 00a8 4C000000 		.4byte	.LFE246
 2693 00ac 0600     		.2byte	0x6
 2694 00ae F3       		.byte	0xf3
 2695 00af 01       		.uleb128 0x1
 2696 00b0 50       		.byte	0x50
 2697 00b1 23       		.byte	0x23
 2698 00b2 2C       		.uleb128 0x2c
 2699 00b3 9F       		.byte	0x9f
 2700 00b4 00000000 		.4byte	0
 2701 00b8 00000000 		.4byte	0
 2702              	.LLST4:
 2703 00bc 16000000 		.4byte	.LVL3
 2704 00c0 3A000000 		.4byte	.LVL9
 2705 00c4 0100     		.2byte	0x1
 2706 00c6 54       		.byte	0x54
 2707 00c7 00000000 		.4byte	0
 2708 00cb 00000000 		.4byte	0
 2709              	.LLST5:
 2710 00cf 10000000 		.4byte	.LVL14
 2711 00d3 16000000 		.4byte	.LVL15
 2712 00d7 0100     		.2byte	0x1
 2713 00d9 52       		.byte	0x52
 2714 00da 16000000 		.4byte	.LVL15
 2715 00de 21000000 		.4byte	.LVL16-1
 2716 00e2 0200     		.2byte	0x2
 2717 00e4 73       		.byte	0x73
 2718 00e5 18       		.sleb128 24
 2719 00e6 00000000 		.4byte	0
 2720 00ea 00000000 		.4byte	0
 2721              	.LLST6:
 2722 00ee 24000000 		.4byte	.LVL17
 2723 00f2 2C000000 		.4byte	.LVL19
 2724 00f6 0300     		.2byte	0x3
 2725 00f8 73       		.byte	0x73
 2726 00f9 2C       		.sleb128 44
 2727 00fa 9F       		.byte	0x9f
 2728 00fb 2C000000 		.4byte	.LVL19
 2729 00ff 30000000 		.4byte	.LVL20
 2730 0103 0100     		.2byte	0x1
 2731 0105 53       		.byte	0x53
 2732 0106 30000000 		.4byte	.LVL20
 2733 010a 37000000 		.4byte	.LVL21-1
 2734 010e 0200     		.2byte	0x2
 2735 0110 72       		.byte	0x72
 2736 0111 04       		.sleb128 4
ARM GAS  /tmp/ccNZTFwn.s 			page 49


 2737 0112 00000000 		.4byte	0
 2738 0116 00000000 		.4byte	0
 2739              	.LLST7:
 2740 011a 26000000 		.4byte	.LVL18
 2741 011e 42000000 		.4byte	.LVL22
 2742 0122 0100     		.2byte	0x1
 2743 0124 54       		.byte	0x54
 2744 0125 42000000 		.4byte	.LVL22
 2745 0129 48000000 		.4byte	.LFE247
 2746 012d 0100     		.2byte	0x1
 2747 012f 50       		.byte	0x50
 2748 0130 00000000 		.4byte	0
 2749 0134 00000000 		.4byte	0
 2750              	.LLST8:
 2751 0138 00000000 		.4byte	.LVL23
 2752 013c 0F000000 		.4byte	.LVL24-1
 2753 0140 0100     		.2byte	0x1
 2754 0142 50       		.byte	0x50
 2755 0143 0F000000 		.4byte	.LVL24-1
 2756 0147 24000000 		.4byte	.LFE248
 2757 014b 0100     		.2byte	0x1
 2758 014d 55       		.byte	0x55
 2759 014e 00000000 		.4byte	0
 2760 0152 00000000 		.4byte	0
 2761              	.LLST9:
 2762 0156 00000000 		.4byte	.LVL23
 2763 015a 0F000000 		.4byte	.LVL24-1
 2764 015e 0100     		.2byte	0x1
 2765 0160 51       		.byte	0x51
 2766 0161 0F000000 		.4byte	.LVL24-1
 2767 0165 24000000 		.4byte	.LFE248
 2768 0169 0100     		.2byte	0x1
 2769 016b 54       		.byte	0x54
 2770 016c 00000000 		.4byte	0
 2771 0170 00000000 		.4byte	0
 2772              		.section	.debug_aranges,"",%progbits
 2773 0000 2C000000 		.4byte	0x2c
 2774 0004 0200     		.2byte	0x2
 2775 0006 00000000 		.4byte	.Ldebug_info0
 2776 000a 04       		.byte	0x4
 2777 000b 00       		.byte	0
 2778 000c 0000     		.2byte	0
 2779 000e 0000     		.2byte	0
 2780 0010 00000000 		.4byte	.LFB246
 2781 0014 4C000000 		.4byte	.LFE246-.LFB246
 2782 0018 00000000 		.4byte	.LFB247
 2783 001c 48000000 		.4byte	.LFE247-.LFB247
 2784 0020 00000000 		.4byte	.LFB248
 2785 0024 24000000 		.4byte	.LFE248-.LFB248
 2786 0028 00000000 		.4byte	0
 2787 002c 00000000 		.4byte	0
 2788              		.section	.debug_ranges,"",%progbits
 2789              	.Ldebug_ranges0:
 2790 0000 1A000000 		.4byte	.LBB39
 2791 0004 22000000 		.4byte	.LBE39
 2792 0008 26000000 		.4byte	.LBB42
 2793 000c 28000000 		.4byte	.LBE42
ARM GAS  /tmp/ccNZTFwn.s 			page 50


 2794 0010 00000000 		.4byte	0
 2795 0014 00000000 		.4byte	0
 2796 0018 00000000 		.4byte	.LFB246
 2797 001c 4C000000 		.4byte	.LFE246
 2798 0020 00000000 		.4byte	.LFB247
 2799 0024 48000000 		.4byte	.LFE247
 2800 0028 00000000 		.4byte	.LFB248
 2801 002c 24000000 		.4byte	.LFE248
 2802 0030 00000000 		.4byte	0
 2803 0034 00000000 		.4byte	0
 2804              		.section	.debug_line,"",%progbits
 2805              	.Ldebug_line0:
 2806 0000 CF020000 		.section	.debug_str,"MS",%progbits,1
 2806      0200F601 
 2806      00000201 
 2806      FB0E0D00 
 2806      01010101 
 2807              	.LASF53:
 2808 0000 72656164 		.ascii	"ready_list_t\000"
 2808      795F6C69 
 2808      73745F74 
 2808      00
 2809              	.LASF107:
 2810 000d 71756575 		.ascii	"queue_insert\000"
 2810      655F696E 
 2810      73657274 
 2810      00
 2811              	.LASF93:
 2812 001a 77747472 		.ascii	"wttrp\000"
 2812      7000
 2813              	.LASF59:
 2814 0020 64656C74 		.ascii	"delta\000"
 2814      6100
 2815              	.LASF90:
 2816 0026 7264796D 		.ascii	"rdymsg\000"
 2816      736700
 2817              	.LASF16:
 2818 002d 75696E74 		.ascii	"uint64_t\000"
 2818      36345F74 
 2818      00
 2819              	.LASF72:
 2820 0036 6B65726E 		.ascii	"kernel_stats\000"
 2820      656C5F73 
 2820      74617473 
 2820      00
 2821              	.LASF5:
 2822 0043 5F5F7569 		.ascii	"__uint8_t\000"
 2822      6E74385F 
 2822      7400
 2823              	.LASF52:
 2824 004d 70726576 		.ascii	"prev\000"
 2824      00
 2825              	.LASF77:
 2826 0052 706F7274 		.ascii	"port_intctx\000"
 2826      5F696E74 
 2826      63747800 
 2827              	.LASF51:
ARM GAS  /tmp/ccNZTFwn.s 			page 51


 2828 005e 63685F74 		.ascii	"ch_threads_queue\000"
 2828      68726561 
 2828      64735F71 
 2828      75657565 
 2828      00
 2829              	.LASF64:
 2830 006f 73797374 		.ascii	"system_debug_t\000"
 2830      656D5F64 
 2830      65627567 
 2830      5F7400
 2831              	.LASF104:
 2832 007e 706F7274 		.ascii	"port_lock\000"
 2832      5F6C6F63 
 2832      6B00
 2833              	.LASF81:
 2834 0088 776F7273 		.ascii	"worst\000"
 2834      7400
 2835              	.LASF84:
 2836 008e 74696D65 		.ascii	"time_measurement_t\000"
 2836      5F6D6561 
 2836      73757265 
 2836      6D656E74 
 2836      5F7400
 2837              	.LASF12:
 2838 00a1 6C6F6E67 		.ascii	"long long unsigned int\000"
 2838      206C6F6E 
 2838      6720756E 
 2838      7369676E 
 2838      65642069 
 2839              	.LASF91:
 2840 00b8 65786974 		.ascii	"exitcode\000"
 2840      636F6465 
 2840      00
 2841              	.LASF71:
 2842 00c1 6D61696E 		.ascii	"mainthread\000"
 2842      74687265 
 2842      616400
 2843              	.LASF94:
 2844 00cc 73656E74 		.ascii	"sentmsg\000"
 2844      6D736700 
 2845              	.LASF61:
 2846 00d4 76697274 		.ascii	"virtual_timers_list_t\000"
 2846      75616C5F 
 2846      74696D65 
 2846      72735F6C 
 2846      6973745F 
 2847              	.LASF117:
 2848 00ea 49544D5F 		.ascii	"ITM_RxBuffer\000"
 2848      52784275 
 2848      66666572 
 2848      00
 2849              	.LASF49:
 2850 00f7 6E657874 		.ascii	"next\000"
 2850      00
 2851              	.LASF18:
 2852 00fc 72747469 		.ascii	"rttime_t\000"
 2852      6D655F74 
ARM GAS  /tmp/ccNZTFwn.s 			page 52


 2852      00
 2853              	.LASF10:
 2854 0105 6C6F6E67 		.ascii	"long long int\000"
 2854      206C6F6E 
 2854      6720696E 
 2854      7400
 2855              	.LASF1:
 2856 0113 7369676E 		.ascii	"signed char\000"
 2856      65642063 
 2856      68617200 
 2857              	.LASF70:
 2858 011f 76746C69 		.ascii	"vtlist\000"
 2858      737400
 2859              	.LASF122:
 2860 0126 2F686F6D 		.ascii	"/home/kozinalexey/f4by/ardupilot/build/f4by-ch\000"
 2860      652F6B6F 
 2860      7A696E61 
 2860      6C657865 
 2860      792F6634 
 2861              	.LASF105:
 2862 0155 706F7274 		.ascii	"port_unlock\000"
 2862      5F756E6C 
 2862      6F636B00 
 2863              	.LASF39:
 2864 0161 6D736771 		.ascii	"msgqueue\000"
 2864      75657565 
 2864      00
 2865              	.LASF35:
 2866 016a 73746174 		.ascii	"state\000"
 2866      6500
 2867              	.LASF7:
 2868 0170 6C6F6E67 		.ascii	"long int\000"
 2868      20696E74 
 2868      00
 2869              	.LASF115:
 2870 0179 63684D73 		.ascii	"chMsgSend\000"
 2870      6753656E 
 2870      6400
 2871              	.LASF20:
 2872 0183 74737461 		.ascii	"tstate_t\000"
 2872      74655F74 
 2872      00
 2873              	.LASF60:
 2874 018c 66756E63 		.ascii	"func\000"
 2874      00
 2875              	.LASF44:
 2876 0191 73746174 		.ascii	"stats\000"
 2876      7300
 2877              	.LASF109:
 2878 0197 63684D73 		.ascii	"chMsgIsPendingI\000"
 2878      67497350 
 2878      656E6469 
 2878      6E674900 
 2879              	.LASF8:
 2880 01a7 5F5F7569 		.ascii	"__uint32_t\000"
 2880      6E743332 
 2880      5F7400
ARM GAS  /tmp/ccNZTFwn.s 			page 53


 2881              	.LASF74:
 2882 01b2 72656761 		.ascii	"regarm_t\000"
 2882      726D5F74 
 2882      00
 2883              	.LASF65:
 2884 01bb 63685F73 		.ascii	"ch_system_debug\000"
 2884      79737465 
 2884      6D5F6465 
 2884      62756700 
 2885              	.LASF38:
 2886 01cb 77616974 		.ascii	"waiting\000"
 2886      696E6700 
 2887              	.LASF102:
 2888 01d3 6D757465 		.ascii	"mutex_t\000"
 2888      785F7400 
 2889              	.LASF108:
 2890 01db 76616C75 		.ascii	"value\000"
 2890      6500
 2891              	.LASF25:
 2892 01e1 636E745F 		.ascii	"cnt_t\000"
 2892      7400
 2893              	.LASF0:
 2894 01e7 756E7369 		.ascii	"unsigned int\000"
 2894      676E6564 
 2894      20696E74 
 2894      00
 2895              	.LASF120:
 2896 01f4 474E5520 		.ascii	"GNU C 4.9.3 20150529 (prerelease) -mcpu=cortex-m4 -"
 2896      4320342E 
 2896      392E3320 
 2896      32303135 
 2896      30353239 
 2897 0227 6D666C6F 		.ascii	"mfloat-abi=hard -mfpu=fpv4-sp-d16 -mno-thumb-interw"
 2897      61742D61 
 2897      62693D68 
 2897      61726420 
 2897      2D6D6670 
 2898 025a 6F726B20 		.ascii	"ork -mthumb -g -Os -fomit-frame-pointer -falign-fun"
 2898      2D6D7468 
 2898      756D6220 
 2898      2D67202D 
 2898      4F73202D 
 2899 028d 6374696F 		.ascii	"ctions=16 -ffunction-sections -fdata-sections -fno-"
 2899      6E733D31 
 2899      36202D66 
 2899      66756E63 
 2899      74696F6E 
 2900 02c0 636F6D6D 		.ascii	"common -fsingle-precision-constant\000"
 2900      6F6E202D 
 2900      6673696E 
 2900      676C652D 
 2900      70726563 
 2901              	.LASF95:
 2902 02e3 77747365 		.ascii	"wtsemp\000"
 2902      6D7000
 2903              	.LASF85:
 2904 02ea 6E5F6972 		.ascii	"n_irq\000"
ARM GAS  /tmp/ccNZTFwn.s 			page 54


 2904      7100
 2905              	.LASF29:
 2906 02f0 71756575 		.ascii	"queue\000"
 2906      6500
 2907              	.LASF43:
 2908 02f6 6D706F6F 		.ascii	"mpool\000"
 2908      6C00
 2909              	.LASF4:
 2910 02fc 73686F72 		.ascii	"short unsigned int\000"
 2910      7420756E 
 2910      7369676E 
 2910      65642069 
 2910      6E7400
 2911              	.LASF89:
 2912 030f 6B65726E 		.ascii	"kernel_stats_t\000"
 2912      656C5F73 
 2912      74617473 
 2912      5F7400
 2913              	.LASF47:
 2914 031e 63685F74 		.ascii	"ch_thread\000"
 2914      68726561 
 2914      6400
 2915              	.LASF33:
 2916 0328 6E616D65 		.ascii	"name\000"
 2916      00
 2917              	.LASF23:
 2918 032d 6D73675F 		.ascii	"msg_t\000"
 2918      7400
 2919              	.LASF82:
 2920 0333 6C617374 		.ascii	"last\000"
 2920      00
 2921              	.LASF26:
 2922 0338 75636E74 		.ascii	"ucnt_t\000"
 2922      5F7400
 2923              	.LASF40:
 2924 033f 6570656E 		.ascii	"epending\000"
 2924      64696E67 
 2924      00
 2925              	.LASF67:
 2926 0348 63685F73 		.ascii	"ch_system_t\000"
 2926      79737465 
 2926      6D5F7400 
 2927              	.LASF19:
 2928 0354 746D6F64 		.ascii	"tmode_t\000"
 2928      655F7400 
 2929              	.LASF88:
 2930 035c 6D5F6372 		.ascii	"m_crit_isr\000"
 2930      69745F69 
 2930      737200
 2931              	.LASF54:
 2932 0367 63685F72 		.ascii	"ch_ready_list\000"
 2932      65616479 
 2932      5F6C6973 
 2932      7400
 2933              	.LASF24:
 2934 0375 6576656E 		.ascii	"eventmask_t\000"
 2934      746D6173 
ARM GAS  /tmp/ccNZTFwn.s 			page 55


 2934      6B5F7400 
 2935              	.LASF6:
 2936 0381 5F5F696E 		.ascii	"__int32_t\000"
 2936      7433325F 
 2936      7400
 2937              	.LASF75:
 2938 038b 73746B61 		.ascii	"stkalign_t\000"
 2938      6C69676E 
 2938      5F7400
 2939              	.LASF31:
 2940 0396 6E657765 		.ascii	"newer\000"
 2940      7200
 2941              	.LASF42:
 2942 039c 7265616C 		.ascii	"realprio\000"
 2942      7072696F 
 2942      00
 2943              	.LASF119:
 2944 03a5 5F737461 		.ascii	"_stats_stop_measure_crit_thd\000"
 2944      74735F73 
 2944      746F705F 
 2944      6D656173 
 2944      7572655F 
 2945              	.LASF73:
 2946 03c2 73697A65 		.ascii	"sizetype\000"
 2946      74797065 
 2946      00
 2947              	.LASF45:
 2948 03cb 74687265 		.ascii	"thread_reference_t\000"
 2948      61645F72 
 2948      65666572 
 2948      656E6365 
 2948      5F7400
 2949              	.LASF62:
 2950 03de 63685F76 		.ascii	"ch_virtual_timers_list\000"
 2950      69727475 
 2950      616C5F74 
 2950      696D6572 
 2950      735F6C69 
 2951              	.LASF76:
 2952 03f5 706F7274 		.ascii	"port_context\000"
 2952      5F636F6E 
 2952      74657874 
 2952      00
 2953              	.LASF79:
 2954 0402 746D5F63 		.ascii	"tm_calibration_t\000"
 2954      616C6962 
 2954      72617469 
 2954      6F6E5F74 
 2954      00
 2955              	.LASF30:
 2956 0413 7072696F 		.ascii	"prio\000"
 2956      00
 2957              	.LASF55:
 2958 0418 63757272 		.ascii	"current\000"
 2958      656E7400 
 2959              	.LASF11:
 2960 0420 5F5F7569 		.ascii	"__uint64_t\000"
ARM GAS  /tmp/ccNZTFwn.s 			page 56


 2960      6E743634 
 2960      5F7400
 2961              	.LASF83:
 2962 042b 63756D75 		.ascii	"cumulative\000"
 2962      6C617469 
 2962      766500
 2963              	.LASF21:
 2964 0436 74726566 		.ascii	"trefs_t\000"
 2964      735F7400 
 2965              	.LASF37:
 2966 043e 72656673 		.ascii	"refs\000"
 2966      00
 2967              	.LASF57:
 2968 0443 76697274 		.ascii	"virtual_timer_t\000"
 2968      75616C5F 
 2968      74696D65 
 2968      725F7400 
 2969              	.LASF22:
 2970 0453 74707269 		.ascii	"tprio_t\000"
 2970      6F5F7400 
 2971              	.LASF86:
 2972 045b 6E5F6374 		.ascii	"n_ctxswc\000"
 2972      78737763 
 2972      00
 2973              	.LASF103:
 2974 0464 5F426F6F 		.ascii	"_Bool\000"
 2974      6C00
 2975              	.LASF14:
 2976 046a 696E7433 		.ascii	"int32_t\000"
 2976      325F7400 
 2977              	.LASF2:
 2978 0472 756E7369 		.ascii	"unsigned char\000"
 2978      676E6564 
 2978      20636861 
 2978      7200
 2979              	.LASF3:
 2980 0480 73686F72 		.ascii	"short int\000"
 2980      7420696E 
 2980      7400
 2981              	.LASF63:
 2982 048a 6C617374 		.ascii	"lasttime\000"
 2982      74696D65 
 2982      00
 2983              	.LASF97:
 2984 0493 65776D61 		.ascii	"ewmask\000"
 2984      736B00
 2985              	.LASF68:
 2986 049a 63685F73 		.ascii	"ch_system\000"
 2986      79737465 
 2986      6D00
 2987              	.LASF114:
 2988 04a4 5F5F6675 		.ascii	"__func__\000"
 2988      6E635F5F 
 2988      00
 2989              	.LASF112:
 2990 04ad 63685379 		.ascii	"chSysLock\000"
 2990      734C6F63 
ARM GAS  /tmp/ccNZTFwn.s 			page 57


 2990      6B00
 2991              	.LASF58:
 2992 04b7 63685F76 		.ascii	"ch_virtual_timer\000"
 2992      69727475 
 2992      616C5F74 
 2992      696D6572 
 2992      00
 2993              	.LASF123:
 2994 04c8 63684D73 		.ascii	"chMsgRelease\000"
 2994      6752656C 
 2994      65617365 
 2994      00
 2995              	.LASF98:
 2996 04d5 63685F73 		.ascii	"ch_semaphore\000"
 2996      656D6170 
 2996      686F7265 
 2996      00
 2997              	.LASF125:
 2998 04e2 63685363 		.ascii	"chSchGoSleepS\000"
 2998      68476F53 
 2998      6C656570 
 2998      5300
 2999              	.LASF15:
 3000 04f0 75696E74 		.ascii	"uint32_t\000"
 3000      33325F74 
 3000      00
 3001              	.LASF96:
 3002 04f9 77746D74 		.ascii	"wtmtxp\000"
 3002      787000
 3003              	.LASF124:
 3004 0500 63685363 		.ascii	"chSchReadyI\000"
 3004      68526561 
 3004      64794900 
 3005              	.LASF48:
 3006 050c 63685F74 		.ascii	"ch_threads_list\000"
 3006      68726561 
 3006      64735F6C 
 3006      69737400 
 3007              	.LASF100:
 3008 051c 6F776E65 		.ascii	"owner\000"
 3008      7200
 3009              	.LASF9:
 3010 0522 6C6F6E67 		.ascii	"long unsigned int\000"
 3010      20756E73 
 3010      69676E65 
 3010      6420696E 
 3010      7400
 3011              	.LASF34:
 3012 0534 77616261 		.ascii	"wabase\000"
 3012      736500
 3013              	.LASF101:
 3014 053b 63686172 		.ascii	"char\000"
 3014      00
 3015              	.LASF32:
 3016 0540 6F6C6465 		.ascii	"older\000"
 3016      7200
 3017              	.LASF28:
ARM GAS  /tmp/ccNZTFwn.s 			page 58


 3018 0546 74687265 		.ascii	"thread_t\000"
 3018      61645F74 
 3018      00
 3019              	.LASF80:
 3020 054f 62657374 		.ascii	"best\000"
 3020      00
 3021              	.LASF110:
 3022 0554 71756575 		.ascii	"queue_fifo_remove\000"
 3022      655F6669 
 3022      666F5F72 
 3022      656D6F76 
 3022      6500
 3023              	.LASF27:
 3024 0566 73797374 		.ascii	"systime_t\000"
 3024      696D655F 
 3024      7400
 3025              	.LASF56:
 3026 0570 76746675 		.ascii	"vtfunc_t\000"
 3026      6E635F74 
 3026      00
 3027              	.LASF106:
 3028 0579 5F5F7365 		.ascii	"__set_BASEPRI\000"
 3028      745F4241 
 3028      53455052 
 3028      4900
 3029              	.LASF66:
 3030 0587 70616E69 		.ascii	"panic_msg\000"
 3030      635F6D73 
 3030      6700
 3031              	.LASF78:
 3032 0591 6F666673 		.ascii	"offset\000"
 3032      657400
 3033              	.LASF121:
 3034 0598 2E2E2F2E 		.ascii	"../../modules/ChibiOS/os/rt/src/chmsg.c\000"
 3034      2E2F6D6F 
 3034      64756C65 
 3034      732F4368 
 3034      6962694F 
 3035              	.LASF17:
 3036 05c0 7274636E 		.ascii	"rtcnt_t\000"
 3036      745F7400 
 3037              	.LASF126:
 3038 05c8 63685363 		.ascii	"chSchWakeupS\000"
 3038      6857616B 
 3038      65757053 
 3038      00
 3039              	.LASF116:
 3040 05d5 63684D73 		.ascii	"chMsgWait\000"
 3040      67576169 
 3040      7400
 3041              	.LASF50:
 3042 05df 74687265 		.ascii	"threads_queue_t\000"
 3042      6164735F 
 3042      71756575 
 3042      655F7400 
 3043              	.LASF99:
 3044 05ef 63685F6D 		.ascii	"ch_mutex\000"
ARM GAS  /tmp/ccNZTFwn.s 			page 59


 3044      75746578 
 3044      00
 3045              	.LASF69:
 3046 05f8 726C6973 		.ascii	"rlist\000"
 3046      7400
 3047              	.LASF13:
 3048 05fe 75696E74 		.ascii	"uint8_t\000"
 3048      385F7400 
 3049              	.LASF36:
 3050 0606 666C6167 		.ascii	"flags\000"
 3050      7300
 3051              	.LASF118:
 3052 060c 5F737461 		.ascii	"_stats_start_measure_crit_thd\000"
 3052      74735F73 
 3052      74617274 
 3052      5F6D6561 
 3052      73757265 
 3053              	.LASF92:
 3054 062a 77746F62 		.ascii	"wtobjp\000"
 3054      6A7000
 3055              	.LASF46:
 3056 0631 74687265 		.ascii	"threads_list_t\000"
 3056      6164735F 
 3056      6C697374 
 3056      5F7400
 3057              	.LASF113:
 3058 0640 63685379 		.ascii	"chSysUnlock\000"
 3058      73556E6C 
 3058      6F636B00 
 3059              	.LASF111:
 3060 064c 63684D73 		.ascii	"chMsgReleaseS\000"
 3060      6752656C 
 3060      65617365 
 3060      5300
 3061              	.LASF41:
 3062 065a 6D74786C 		.ascii	"mtxlist\000"
 3062      69737400 
 3063              	.LASF87:
 3064 0662 6D5F6372 		.ascii	"m_crit_thd\000"
 3064      69745F74 
 3064      686400
 3065              		.ident	"GCC: (15:4.9.3+svn231177-1) 4.9.3 20150529 (prerelease)"
ARM GAS  /tmp/ccNZTFwn.s 			page 60


DEFINED SYMBOLS
                            *ABS*:0000000000000000 chmsg.c
     /tmp/ccNZTFwn.s:21     .text.chMsgSend:0000000000000000 $t
     /tmp/ccNZTFwn.s:26     .text.chMsgSend:0000000000000000 chMsgSend
     /tmp/ccNZTFwn.s:139    .text.chMsgSend:0000000000000048 $d
     /tmp/ccNZTFwn.s:144    .text.chMsgWait:0000000000000000 $t
     /tmp/ccNZTFwn.s:149    .text.chMsgWait:0000000000000000 chMsgWait
     /tmp/ccNZTFwn.s:247    .text.chMsgWait:0000000000000044 $d
     /tmp/ccNZTFwn.s:252    .text.chMsgRelease:0000000000000000 $t
     /tmp/ccNZTFwn.s:257    .text.chMsgRelease:0000000000000000 chMsgRelease
                     .debug_frame:0000000000000010 $d

UNDEFINED SYMBOLS
_stats_start_measure_crit_thd
chSchReadyI
chSchGoSleepS
_stats_stop_measure_crit_thd
ch
chSchWakeupS
