ARM GAS  /tmp/cccI3Zqz.s 			page 1


   1              		.syntax unified
   2              		.cpu cortex-m4
   3              		.eabi_attribute 27, 1
   4              		.eabi_attribute 28, 1
   5              		.fpu fpv4-sp-d16
   6              		.eabi_attribute 20, 1
   7              		.eabi_attribute 21, 1
   8              		.eabi_attribute 23, 3
   9              		.eabi_attribute 24, 1
  10              		.eabi_attribute 25, 1
  11              		.eabi_attribute 26, 1
  12              		.eabi_attribute 30, 4
  13              		.eabi_attribute 34, 1
  14              		.eabi_attribute 18, 4
  15              		.thumb
  16              		.file	"chmtx.c"
  17              		.text
  18              	.Ltext0:
  19              		.cfi_sections	.debug_frame
  20              		.section	.text.queue_prio_insert,"ax",%progbits
  21              		.align	1
  22              		.thumb
  23              		.thumb_func
  24              		.type	queue_prio_insert, %function
  25              	queue_prio_insert:
  26              	.LFB155:
  27              		.file 1 "../../modules/ChibiOS/os/rt/include/chschd.h"
  28              		.loc 1 597 0
  29              		.cfi_startproc
  30              		@ args = 0, pretend = 0, frame = 0
  31              		@ frame_needed = 0, uses_anonymous_args = 0
  32              	.LVL0:
  33 0000 10B5     		push	{r4, lr}
  34              		.cfi_def_cfa_offset 8
  35              		.cfi_offset 4, -8
  36              		.cfi_offset 14, -4
  37              		.loc 1 597 0
  38 0002 0B46     		mov	r3, r1
  39              	.LVL1:
  40              	.L3:
  41              		.loc 1 601 0 discriminator 2
  42 0004 1B68     		ldr	r3, [r3]
  43              	.LVL2:
  44              		.loc 1 602 0 discriminator 2
  45 0006 8B42     		cmp	r3, r1
  46 0008 04D0     		beq	.L2
  47              		.loc 1 602 0 is_stmt 0 discriminator 1
  48 000a 9C68     		ldr	r4, [r3, #8]
  49 000c 8268     		ldr	r2, [r0, #8]
  50 000e 9442     		cmp	r4, r2
  51 0010 F8D2     		bcs	.L3
  52 0012 1946     		mov	r1, r3
  53              	.LVL3:
  54              	.L2:
  55              		.loc 1 604 0 is_stmt 1
  56 0014 4B68     		ldr	r3, [r1, #4]
  57              	.LVL4:
ARM GAS  /tmp/cccI3Zqz.s 			page 2


  58              		.loc 1 603 0
  59 0016 0160     		str	r1, [r0]
  60              		.loc 1 604 0
  61 0018 4360     		str	r3, [r0, #4]
  62              		.loc 1 605 0
  63 001a 1860     		str	r0, [r3]
  64              		.loc 1 606 0
  65 001c 4860     		str	r0, [r1, #4]
  66 001e 10BD     		pop	{r4, pc}
  67              		.cfi_endproc
  68              	.LFE155:
  69              		.size	queue_prio_insert, .-queue_prio_insert
  70              		.section	.text.chMtxObjectInit,"ax",%progbits
  71              		.align	1
  72              		.global	chMtxObjectInit
  73              		.thumb
  74              		.thumb_func
  75              		.type	chMtxObjectInit, %function
  76              	chMtxObjectInit:
  77              	.LFB246:
  78              		.file 2 "../../modules/ChibiOS/os/rt/src/chmtx.c"
  79              		.loc 2 103 0
  80              		.cfi_startproc
  81              		@ args = 0, pretend = 0, frame = 0
  82              		@ frame_needed = 0, uses_anonymous_args = 0
  83              		@ link register save eliminated.
  84              	.LVL5:
  85              		.loc 2 108 0
  86 0000 0023     		movs	r3, #0
  87              	.LBB56:
  88              	.LBB57:
  89              		.loc 1 550 0
  90 0002 0060     		str	r0, [r0]
  91              		.loc 1 551 0
  92 0004 4060     		str	r0, [r0, #4]
  93              	.LBE57:
  94              	.LBE56:
  95              		.loc 2 108 0
  96 0006 8360     		str	r3, [r0, #8]
  97 0008 7047     		bx	lr
  98              		.cfi_endproc
  99              	.LFE246:
 100              		.size	chMtxObjectInit, .-chMtxObjectInit
 101              		.section	.text.chMtxLockS,"ax",%progbits
 102              		.align	1
 103              		.global	chMtxLockS
 104              		.thumb
 105              		.thumb_func
 106              		.type	chMtxLockS, %function
 107              	chMtxLockS:
 108              	.LFB248:
 109              		.loc 2 139 0
 110              		.cfi_startproc
 111              		@ args = 0, pretend = 0, frame = 0
 112              		@ frame_needed = 0, uses_anonymous_args = 0
 113              	.LVL6:
 114 0000 70B5     		push	{r4, r5, r6, lr}
ARM GAS  /tmp/cccI3Zqz.s 			page 3


 115              		.cfi_def_cfa_offset 16
 116              		.cfi_offset 4, -16
 117              		.cfi_offset 5, -12
 118              		.cfi_offset 6, -8
 119              		.cfi_offset 14, -4
 120              		.loc 2 140 0
 121 0002 1F4B     		ldr	r3, .L16
 122              		.loc 2 146 0
 123 0004 8468     		ldr	r4, [r0, #8]
 124              		.loc 2 140 0
 125 0006 9D69     		ldr	r5, [r3, #24]
 126              	.LVL7:
 127              		.loc 2 139 0
 128 0008 0646     		mov	r6, r0
 129              		.loc 2 146 0
 130 000a 002C     		cmp	r4, #0
 131 000c 33D0     		beq	.L15
 132              	.LVL8:
 133              	.L9:
 134              	.LBB65:
 135              		.loc 2 165 0
 136 000e AB68     		ldr	r3, [r5, #8]
 137 0010 A268     		ldr	r2, [r4, #8]
 138 0012 9A42     		cmp	r2, r3
 139 0014 25D2     		bcs	.L10
 140              		.loc 2 167 0
 141 0016 A360     		str	r3, [r4, #8]
 142              		.loc 2 170 0
 143 0018 94F82030 		ldrb	r3, [r4, #32]	@ zero_extendqisi2
 144 001c 062B     		cmp	r3, #6
 145 001e 0BD0     		beq	.L11
 146 0020 072B     		cmp	r3, #7
 147 0022 15D0     		beq	.L12
 148 0024 EBB9     		cbnz	r3, .L10
 149              	.LVL9:
 150              	.LBB66:
 151              	.LBB67:
 152              		.loc 1 637 0
 153 0026 94E80C00 		ldmia	r4, {r2, r3}
 154 002a 1A60     		str	r2, [r3]
 155              		.loc 1 638 0
 156 002c 2268     		ldr	r2, [r4]
 157              	.LBE67:
 158              	.LBE66:
 159              		.loc 2 202 0
 160 002e 2046     		mov	r0, r4
 161              	.LBB69:
 162              	.LBB68:
 163              		.loc 1 638 0
 164 0030 5360     		str	r3, [r2, #4]
 165              	.LBE68:
 166              	.LBE69:
 167              		.loc 2 202 0
 168 0032 FFF7FEFF 		bl	chSchReadyI
 169              	.LVL10:
 170              		.loc 2 203 0
 171 0036 14E0     		b	.L10
ARM GAS  /tmp/cccI3Zqz.s 			page 4


 172              	.LVL11:
 173              	.L11:
 174              	.LBB70:
 175              	.LBB71:
 176              		.loc 1 637 0
 177 0038 94E80C00 		ldmia	r4, {r2, r3}
 178 003c 1A60     		str	r2, [r3]
 179              		.loc 1 638 0
 180 003e 2268     		ldr	r2, [r4]
 181              	.LBE71:
 182              	.LBE70:
 183              		.loc 2 173 0
 184 0040 616A     		ldr	r1, [r4, #36]
 185              	.LBB73:
 186              	.LBB72:
 187              		.loc 1 638 0
 188 0042 5360     		str	r3, [r2, #4]
 189              	.LBE72:
 190              	.LBE73:
 191              		.loc 2 173 0
 192 0044 2046     		mov	r0, r4
 193 0046 FFF7FEFF 		bl	queue_prio_insert
 194              	.LVL12:
 195              		.loc 2 174 0
 196 004a 636A     		ldr	r3, [r4, #36]
 197 004c 9C68     		ldr	r4, [r3, #8]
 198              	.LVL13:
 199              		.loc 2 176 0
 200 004e DEE7     		b	.L9
 201              	.L12:
 202              	.LVL14:
 203              	.LBB74:
 204              	.LBB75:
 205              		.loc 1 637 0
 206 0050 94E80C00 		ldmia	r4, {r2, r3}
 207 0054 1A60     		str	r2, [r3]
 208              		.loc 1 638 0
 209 0056 2268     		ldr	r2, [r4]
 210              	.LBE75:
 211              	.LBE74:
 212              		.loc 2 193 0
 213 0058 616A     		ldr	r1, [r4, #36]
 214              	.LBB77:
 215              	.LBB76:
 216              		.loc 1 638 0
 217 005a 5360     		str	r3, [r2, #4]
 218              	.LBE76:
 219              	.LBE77:
 220              		.loc 2 193 0
 221 005c 2046     		mov	r0, r4
 222 005e FFF7FEFF 		bl	queue_prio_insert
 223              	.LVL15:
 224              	.L10:
 225              		.loc 2 212 0
 226 0062 2846     		mov	r0, r5
 227 0064 3146     		mov	r1, r6
 228 0066 FFF7FEFF 		bl	queue_prio_insert
ARM GAS  /tmp/cccI3Zqz.s 			page 5


 229              	.LVL16:
 230              		.loc 2 213 0
 231 006a 6E62     		str	r6, [r5, #36]
 232              		.loc 2 214 0
 233 006c 0620     		movs	r0, #6
 234              	.LBE65:
 235              		.loc 2 236 0
 236 006e BDE87040 		pop	{r4, r5, r6, lr}
 237              		.cfi_remember_state
 238              		.cfi_restore 14
 239              		.cfi_restore 6
 240              		.cfi_restore 5
 241              		.cfi_restore 4
 242              		.cfi_def_cfa_offset 0
 243              	.LVL17:
 244              	.LBB78:
 245              		.loc 2 214 0
 246 0072 FFF7FEBF 		b	chSchGoSleepS
 247              	.LVL18:
 248              	.L15:
 249              		.cfi_restore_state
 250              	.LBE78:
 251              		.loc 2 233 0
 252 0076 AB6B     		ldr	r3, [r5, #56]
 253              		.loc 2 232 0
 254 0078 8560     		str	r5, [r0, #8]
 255              		.loc 2 233 0
 256 007a C360     		str	r3, [r0, #12]
 257              		.loc 2 234 0
 258 007c A863     		str	r0, [r5, #56]
 259 007e 70BD     		pop	{r4, r5, r6, pc}
 260              	.LVL19:
 261              	.L17:
 262              		.align	2
 263              	.L16:
 264 0080 00000000 		.word	ch
 265              		.cfi_endproc
 266              	.LFE248:
 267              		.size	chMtxLockS, .-chMtxLockS
 268              		.section	.text.chMtxLock,"ax",%progbits
 269              		.align	1
 270              		.global	chMtxLock
 271              		.thumb
 272              		.thumb_func
 273              		.type	chMtxLock, %function
 274              	chMtxLock:
 275              	.LFB247:
 276              		.loc 2 123 0
 277              		.cfi_startproc
 278              		@ args = 0, pretend = 0, frame = 0
 279              		@ frame_needed = 0, uses_anonymous_args = 0
 280              	.LVL20:
 281 0000 10B5     		push	{r4, lr}
 282              		.cfi_def_cfa_offset 8
 283              		.cfi_offset 4, -8
 284              		.cfi_offset 14, -4
 285              	.LBB89:
ARM GAS  /tmp/cccI3Zqz.s 			page 6


 286              	.LBB90:
 287              	.LBB91:
 288              	.LBB92:
 289              	.LBB93:
 290              		.file 3 "../../modules/ChibiOS/os/common/ext/CMSIS/include/cmsis_gcc.h"
 291              		.loc 3 264 0
 292 0002 2023     		movs	r3, #32
 293              	.LBE93:
 294              	.LBE92:
 295              	.LBE91:
 296              	.LBE90:
 297              	.LBE89:
 298              		.loc 2 123 0
 299 0004 0446     		mov	r4, r0
 300              	.LBB98:
 301              	.LBB97:
 302              	.LBB96:
 303              	.LBB95:
 304              	.LBB94:
 305              		.loc 3 264 0
 306              	@ 264 "../../modules/ChibiOS/os/common/ext/CMSIS/include/cmsis_gcc.h" 1
 307 0006 83F31188 		MSR basepri, r3
 308              	@ 0 "" 2
 309              		.thumb
 310              	.LBE94:
 311              	.LBE95:
 312              	.LBE96:
 313              		.file 4 "../../modules/ChibiOS/os/rt/include/chsys.h"
 314              		.loc 4 377 0
 315 000a FFF7FEFF 		bl	_stats_start_measure_crit_thd
 316              	.LVL21:
 317              	.LBE97:
 318              	.LBE98:
 319              		.loc 2 126 0
 320 000e 2046     		mov	r0, r4
 321 0010 FFF7FEFF 		bl	chMtxLockS
 322              	.LVL22:
 323              	.LBB99:
 324              	.LBB100:
 325              		.loc 4 389 0
 326 0014 FFF7FEFF 		bl	_stats_stop_measure_crit_thd
 327              	.LVL23:
 328              	.LBB101:
 329              	.LBB102:
 330              	.LBB103:
 331              		.loc 3 264 0
 332 0018 0023     		movs	r3, #0
 333              	@ 264 "../../modules/ChibiOS/os/common/ext/CMSIS/include/cmsis_gcc.h" 1
 334 001a 83F31188 		MSR basepri, r3
 335              	@ 0 "" 2
 336              		.thumb
 337 001e 10BD     		pop	{r4, pc}
 338              	.LBE103:
 339              	.LBE102:
 340              	.LBE101:
 341              	.LBE100:
 342              	.LBE99:
ARM GAS  /tmp/cccI3Zqz.s 			page 7


 343              		.cfi_endproc
 344              	.LFE247:
 345              		.size	chMtxLock, .-chMtxLock
 346              		.section	.text.chMtxTryLockS,"ax",%progbits
 347              		.align	1
 348              		.global	chMtxTryLockS
 349              		.thumb
 350              		.thumb_func
 351              		.type	chMtxTryLockS, %function
 352              	chMtxTryLockS:
 353              	.LFB250:
 354              		.loc 2 282 0
 355              		.cfi_startproc
 356              		@ args = 0, pretend = 0, frame = 0
 357              		@ frame_needed = 0, uses_anonymous_args = 0
 358              		@ link register save eliminated.
 359              	.LVL24:
 360              		.loc 2 287 0
 361 0000 8368     		ldr	r3, [r0, #8]
 362 0002 3BB9     		cbnz	r3, .L21
 363              	.LVL25:
 364              	.LBB106:
 365              	.LBB107:
 366              		.loc 2 305 0
 367 0004 044B     		ldr	r3, .L22
 368 0006 9B69     		ldr	r3, [r3, #24]
 369 0008 8360     		str	r3, [r0, #8]
 370              		.loc 2 306 0
 371 000a 9A6B     		ldr	r2, [r3, #56]
 372 000c C260     		str	r2, [r0, #12]
 373              		.loc 2 307 0
 374 000e 9863     		str	r0, [r3, #56]
 375 0010 0120     		movs	r0, #1
 376              	.LVL26:
 377 0012 7047     		bx	lr
 378              	.LVL27:
 379              	.L21:
 380              	.LBE107:
 381              	.LBE106:
 382              		.loc 2 297 0
 383 0014 0020     		movs	r0, #0
 384              	.LVL28:
 385              		.loc 2 309 0
 386 0016 7047     		bx	lr
 387              	.L23:
 388              		.align	2
 389              	.L22:
 390 0018 00000000 		.word	ch
 391              		.cfi_endproc
 392              	.LFE250:
 393              		.size	chMtxTryLockS, .-chMtxTryLockS
 394              		.section	.text.chMtxTryLock,"ax",%progbits
 395              		.align	1
 396              		.global	chMtxTryLock
 397              		.thumb
 398              		.thumb_func
 399              		.type	chMtxTryLock, %function
ARM GAS  /tmp/cccI3Zqz.s 			page 8


 400              	chMtxTryLock:
 401              	.LFB249:
 402              		.loc 2 255 0
 403              		.cfi_startproc
 404              		@ args = 0, pretend = 0, frame = 0
 405              		@ frame_needed = 0, uses_anonymous_args = 0
 406              	.LVL29:
 407 0000 10B5     		push	{r4, lr}
 408              		.cfi_def_cfa_offset 8
 409              		.cfi_offset 4, -8
 410              		.cfi_offset 14, -4
 411              	.LBB118:
 412              	.LBB119:
 413              	.LBB120:
 414              	.LBB121:
 415              	.LBB122:
 416              		.loc 3 264 0
 417 0002 2023     		movs	r3, #32
 418              	.LBE122:
 419              	.LBE121:
 420              	.LBE120:
 421              	.LBE119:
 422              	.LBE118:
 423              		.loc 2 255 0
 424 0004 0446     		mov	r4, r0
 425              	.LBB127:
 426              	.LBB126:
 427              	.LBB125:
 428              	.LBB124:
 429              	.LBB123:
 430              		.loc 3 264 0
 431              	@ 264 "../../modules/ChibiOS/os/common/ext/CMSIS/include/cmsis_gcc.h" 1
 432 0006 83F31188 		MSR basepri, r3
 433              	@ 0 "" 2
 434              		.thumb
 435              	.LBE123:
 436              	.LBE124:
 437              	.LBE125:
 438              		.loc 4 377 0
 439 000a FFF7FEFF 		bl	_stats_start_measure_crit_thd
 440              	.LVL30:
 441              	.LBE126:
 442              	.LBE127:
 443              		.loc 2 259 0
 444 000e 2046     		mov	r0, r4
 445 0010 FFF7FEFF 		bl	chMtxTryLockS
 446              	.LVL31:
 447 0014 0446     		mov	r4, r0
 448              	.LVL32:
 449              	.LBB128:
 450              	.LBB129:
 451              		.loc 4 389 0
 452 0016 FFF7FEFF 		bl	_stats_stop_measure_crit_thd
 453              	.LVL33:
 454              	.LBB130:
 455              	.LBB131:
 456              	.LBB132:
ARM GAS  /tmp/cccI3Zqz.s 			page 9


 457              		.loc 3 264 0
 458 001a 0023     		movs	r3, #0
 459              	@ 264 "../../modules/ChibiOS/os/common/ext/CMSIS/include/cmsis_gcc.h" 1
 460 001c 83F31188 		MSR basepri, r3
 461              	@ 0 "" 2
 462              		.thumb
 463              	.LBE132:
 464              	.LBE131:
 465              	.LBE130:
 466              	.LBE129:
 467              	.LBE128:
 468              		.loc 2 263 0
 469 0020 2046     		mov	r0, r4
 470 0022 10BD     		pop	{r4, pc}
 471              		.cfi_endproc
 472              	.LFE249:
 473              		.size	chMtxTryLock, .-chMtxTryLock
 474              		.section	.text.chMtxUnlock,"ax",%progbits
 475              		.align	1
 476              		.global	chMtxUnlock
 477              		.thumb
 478              		.thumb_func
 479              		.type	chMtxUnlock, %function
 480              	chMtxUnlock:
 481              	.LFB251:
 482              		.loc 2 323 0
 483              		.cfi_startproc
 484              		@ args = 0, pretend = 0, frame = 0
 485              		@ frame_needed = 0, uses_anonymous_args = 0
 486              	.LVL34:
 487 0000 38B5     		push	{r3, r4, r5, lr}
 488              		.cfi_def_cfa_offset 16
 489              		.cfi_offset 3, -16
 490              		.cfi_offset 4, -12
 491              		.cfi_offset 5, -8
 492              		.cfi_offset 14, -4
 493              		.loc 2 324 0
 494 0002 164B     		ldr	r3, .L32
 495              		.loc 2 323 0
 496 0004 0446     		mov	r4, r0
 497              		.loc 2 324 0
 498 0006 9D69     		ldr	r5, [r3, #24]
 499              	.LVL35:
 500              	.LBB154:
 501              	.LBB155:
 502              	.LBB156:
 503              	.LBB157:
 504              	.LBB158:
 505              		.loc 3 264 0
 506 0008 2023     		movs	r3, #32
 507              	@ 264 "../../modules/ChibiOS/os/common/ext/CMSIS/include/cmsis_gcc.h" 1
 508 000a 83F31188 		MSR basepri, r3
 509              	@ 0 "" 2
 510              		.thumb
 511              	.LBE158:
 512              	.LBE157:
 513              	.LBE156:
ARM GAS  /tmp/cccI3Zqz.s 			page 10


 514              		.loc 4 377 0
 515 000e FFF7FEFF 		bl	_stats_start_measure_crit_thd
 516              	.LVL36:
 517              	.LBE155:
 518              	.LBE154:
 519              	.LBB159:
 520              	.LBB160:
 521              	.LBB161:
 522              	.LBB162:
 523              		.loc 1 577 0
 524 0012 2068     		ldr	r0, [r4]
 525              	.LBE162:
 526              	.LBE161:
 527              	.LBE160:
 528              	.LBE159:
 529              		.loc 2 344 0
 530 0014 E368     		ldr	r3, [r4, #12]
 531 0016 AB63     		str	r3, [r5, #56]
 532              	.LVL37:
 533              		.loc 2 347 0
 534 0018 A042     		cmp	r0, r4
 535 001a 17D0     		beq	.L26
 536              	.LBB163:
 537              		.loc 2 352 0
 538 001c EA6B     		ldr	r2, [r5, #60]
 539              	.LVL38:
 540              	.L27:
 541              		.loc 2 354 0
 542 001e 43B1     		cbz	r3, .L31
 543              	.LVL39:
 544              	.LBB164:
 545              	.LBB165:
 546              	.LBB166:
 547              	.LBB167:
 548              		.loc 1 577 0
 549 0020 1968     		ldr	r1, [r3]
 550              	.LBE167:
 551              	.LBE166:
 552              	.LBE165:
 553              	.LBE164:
 554              		.loc 2 358 0
 555 0022 9942     		cmp	r1, r3
 556 0024 03D0     		beq	.L28
 557              		.loc 2 359 0 discriminator 1
 558 0026 8968     		ldr	r1, [r1, #8]
 559 0028 8A42     		cmp	r2, r1
 560 002a 38BF     		it	cc
 561 002c 0A46     		movcc	r2, r1
 562              	.LVL40:
 563              	.L28:
 564              		.loc 2 362 0
 565 002e DB68     		ldr	r3, [r3, #12]
 566              	.LVL41:
 567 0030 F5E7     		b	.L27
 568              	.L31:
 569              	.LBB168:
 570              	.LBB169:
ARM GAS  /tmp/cccI3Zqz.s 			page 11


 571              		.loc 1 620 0
 572 0032 0368     		ldr	r3, [r0]
 573              	.LVL42:
 574              	.LBE169:
 575              	.LBE168:
 576              		.loc 2 367 0
 577 0034 AA60     		str	r2, [r5, #8]
 578              	.LVL43:
 579              	.LBB171:
 580              	.LBB170:
 581              		.loc 1 620 0
 582 0036 2360     		str	r3, [r4]
 583              		.loc 1 621 0
 584 0038 5C60     		str	r4, [r3, #4]
 585              	.LBE170:
 586              	.LBE171:
 587              		.loc 2 376 0
 588 003a 836B     		ldr	r3, [r0, #56]
 589 003c E360     		str	r3, [r4, #12]
 590              		.loc 2 375 0
 591 003e A060     		str	r0, [r4, #8]
 592              		.loc 2 377 0
 593 0040 8463     		str	r4, [r0, #56]
 594              		.loc 2 383 0
 595 0042 FFF7FEFF 		bl	chSchReadyI
 596              	.LVL44:
 597              		.loc 2 384 0
 598 0046 FFF7FEFF 		bl	chSchRescheduleS
 599              	.LVL45:
 600              	.LBE163:
 601 004a 01E0     		b	.L30
 602              	.LVL46:
 603              	.L26:
 604              		.loc 2 387 0
 605 004c 0023     		movs	r3, #0
 606 004e 8360     		str	r3, [r0, #8]
 607              	.L30:
 608              	.LBB172:
 609              	.LBB173:
 610              		.loc 4 389 0
 611 0050 FFF7FEFF 		bl	_stats_stop_measure_crit_thd
 612              	.LVL47:
 613              	.LBB174:
 614              	.LBB175:
 615              	.LBB176:
 616              		.loc 3 264 0
 617 0054 0023     		movs	r3, #0
 618              	@ 264 "../../modules/ChibiOS/os/common/ext/CMSIS/include/cmsis_gcc.h" 1
 619 0056 83F31188 		MSR basepri, r3
 620              	@ 0 "" 2
 621              		.thumb
 622 005a 38BD     		pop	{r3, r4, r5, pc}
 623              	.LVL48:
 624              	.L33:
 625              		.align	2
 626              	.L32:
 627 005c 00000000 		.word	ch
ARM GAS  /tmp/cccI3Zqz.s 			page 12


 628              	.LBE176:
 629              	.LBE175:
 630              	.LBE174:
 631              	.LBE173:
 632              	.LBE172:
 633              		.cfi_endproc
 634              	.LFE251:
 635              		.size	chMtxUnlock, .-chMtxUnlock
 636              		.section	.text.chMtxUnlockS,"ax",%progbits
 637              		.align	1
 638              		.global	chMtxUnlockS
 639              		.thumb
 640              		.thumb_func
 641              		.type	chMtxUnlockS, %function
 642              	chMtxUnlockS:
 643              	.LFB252:
 644              		.loc 2 410 0
 645              		.cfi_startproc
 646              		@ args = 0, pretend = 0, frame = 0
 647              		@ frame_needed = 0, uses_anonymous_args = 0
 648              	.LVL49:
 649              		.loc 2 411 0
 650 0000 114A     		ldr	r2, .L40
 651              		.loc 2 410 0
 652 0002 0346     		mov	r3, r0
 653              		.loc 2 411 0
 654 0004 9169     		ldr	r1, [r2, #24]
 655              	.LVL50:
 656              		.loc 2 430 0
 657 0006 C268     		ldr	r2, [r0, #12]
 658              	.LBB177:
 659              	.LBB178:
 660              	.LBB179:
 661              	.LBB180:
 662              		.loc 1 577 0
 663 0008 0068     		ldr	r0, [r0]
 664              	.LVL51:
 665              	.LBE180:
 666              	.LBE179:
 667              	.LBE178:
 668              	.LBE177:
 669              		.loc 2 433 0
 670 000a 9842     		cmp	r0, r3
 671              		.loc 2 410 0
 672 000c 30B5     		push	{r4, r5, lr}
 673              		.cfi_def_cfa_offset 12
 674              		.cfi_offset 4, -12
 675              		.cfi_offset 5, -8
 676              		.cfi_offset 14, -4
 677              		.loc 2 430 0
 678 000e 8A63     		str	r2, [r1, #56]
 679              		.loc 2 433 0
 680 0010 16D0     		beq	.L35
 681              	.LBB181:
 682              		.loc 2 438 0
 683 0012 CC6B     		ldr	r4, [r1, #60]
 684              	.LVL52:
ARM GAS  /tmp/cccI3Zqz.s 			page 13


 685              	.L36:
 686              		.loc 2 440 0
 687 0014 42B1     		cbz	r2, .L39
 688              	.LVL53:
 689              	.LBB182:
 690              	.LBB183:
 691              	.LBB184:
 692              	.LBB185:
 693              		.loc 1 577 0
 694 0016 1568     		ldr	r5, [r2]
 695              	.LBE185:
 696              	.LBE184:
 697              	.LBE183:
 698              	.LBE182:
 699              		.loc 2 444 0
 700 0018 9542     		cmp	r5, r2
 701 001a 03D0     		beq	.L37
 702              		.loc 2 445 0 discriminator 1
 703 001c AD68     		ldr	r5, [r5, #8]
 704 001e AC42     		cmp	r4, r5
 705 0020 38BF     		it	cc
 706 0022 2C46     		movcc	r4, r5
 707              	.LVL54:
 708              	.L37:
 709              		.loc 2 448 0
 710 0024 D268     		ldr	r2, [r2, #12]
 711              	.LVL55:
 712 0026 F5E7     		b	.L36
 713              	.L39:
 714              	.LBB186:
 715              	.LBB187:
 716              		.loc 1 620 0
 717 0028 0268     		ldr	r2, [r0]
 718              	.LVL56:
 719              	.LBE187:
 720              	.LBE186:
 721              		.loc 2 453 0
 722 002a 8C60     		str	r4, [r1, #8]
 723              	.LVL57:
 724              	.LBB189:
 725              	.LBB188:
 726              		.loc 1 620 0
 727 002c 1A60     		str	r2, [r3]
 728              		.loc 1 621 0
 729 002e 5360     		str	r3, [r2, #4]
 730              	.LBE188:
 731              	.LBE189:
 732              		.loc 2 462 0
 733 0030 826B     		ldr	r2, [r0, #56]
 734              		.loc 2 461 0
 735 0032 9860     		str	r0, [r3, #8]
 736              		.loc 2 462 0
 737 0034 DA60     		str	r2, [r3, #12]
 738              	.LBE181:
 739              		.loc 2 472 0
 740 0036 BDE83040 		pop	{r4, r5, lr}
 741              		.cfi_remember_state
ARM GAS  /tmp/cccI3Zqz.s 			page 14


 742              		.cfi_restore 14
 743              		.cfi_restore 5
 744              		.cfi_restore 4
 745              		.cfi_def_cfa_offset 0
 746              	.LVL58:
 747              	.LBB190:
 748              		.loc 2 463 0
 749 003a 8363     		str	r3, [r0, #56]
 750              		.loc 2 464 0
 751 003c FFF7FEBF 		b	chSchReadyI
 752              	.LVL59:
 753              	.L35:
 754              		.cfi_restore_state
 755              	.LBE190:
 756              		.loc 2 467 0
 757 0040 0023     		movs	r3, #0
 758              	.LVL60:
 759 0042 8360     		str	r3, [r0, #8]
 760 0044 30BD     		pop	{r4, r5, pc}
 761              	.L41:
 762 0046 00BF     		.align	2
 763              	.L40:
 764 0048 00000000 		.word	ch
 765              		.cfi_endproc
 766              	.LFE252:
 767              		.size	chMtxUnlockS, .-chMtxUnlockS
 768              		.section	.text.chMtxUnlockAllS,"ax",%progbits
 769              		.align	1
 770              		.global	chMtxUnlockAllS
 771              		.thumb
 772              		.thumb_func
 773              		.type	chMtxUnlockAllS, %function
 774              	chMtxUnlockAllS:
 775              	.LFB253:
 776              		.loc 2 487 0
 777              		.cfi_startproc
 778              		@ args = 0, pretend = 0, frame = 0
 779              		@ frame_needed = 0, uses_anonymous_args = 0
 780              		.loc 2 488 0
 781 0000 0C4B     		ldr	r3, .L48
 782              		.loc 2 487 0
 783 0002 10B5     		push	{r4, lr}
 784              		.cfi_def_cfa_offset 8
 785              		.cfi_offset 4, -8
 786              		.cfi_offset 14, -4
 787              		.loc 2 488 0
 788 0004 9C69     		ldr	r4, [r3, #24]
 789              	.LVL61:
 790              	.L43:
 791              		.loc 2 490 0
 792 0006 A36B     		ldr	r3, [r4, #56]
 793 0008 8BB1     		cbz	r3, .L47
 794              	.LVL62:
 795              	.LBB191:
 796              	.LBB192:
 797              	.LBB193:
 798              	.LBB194:
ARM GAS  /tmp/cccI3Zqz.s 			page 15


 799              	.LBB195:
 800              		.loc 1 577 0
 801 000a 1868     		ldr	r0, [r3]
 802              	.LBE195:
 803              	.LBE194:
 804              	.LBE193:
 805              	.LBE192:
 806              		.loc 2 492 0
 807 000c DA68     		ldr	r2, [r3, #12]
 808 000e A263     		str	r2, [r4, #56]
 809              	.LVL63:
 810              		.loc 2 493 0
 811 0010 9842     		cmp	r0, r3
 812 0012 09D0     		beq	.L44
 813              	.LVL64:
 814              	.LBB196:
 815              	.LBB197:
 816              	.LBB198:
 817              		.loc 1 620 0
 818 0014 0268     		ldr	r2, [r0]
 819 0016 1A60     		str	r2, [r3]
 820              		.loc 1 621 0
 821 0018 5360     		str	r3, [r2, #4]
 822              	.LBE198:
 823              	.LBE197:
 824              		.loc 2 499 0
 825 001a 826B     		ldr	r2, [r0, #56]
 826              		.loc 2 498 0
 827 001c 9860     		str	r0, [r3, #8]
 828              		.loc 2 499 0
 829 001e DA60     		str	r2, [r3, #12]
 830              		.loc 2 500 0
 831 0020 8363     		str	r3, [r0, #56]
 832              		.loc 2 501 0
 833 0022 FFF7FEFF 		bl	chSchReadyI
 834              	.LVL65:
 835              	.LBE196:
 836 0026 EEE7     		b	.L43
 837              	.LVL66:
 838              	.L44:
 839              		.loc 2 507 0
 840 0028 0023     		movs	r3, #0
 841              	.LVL67:
 842 002a 8360     		str	r3, [r0, #8]
 843 002c EBE7     		b	.L43
 844              	.L47:
 845              	.LBE191:
 846              		.loc 2 510 0
 847 002e E36B     		ldr	r3, [r4, #60]
 848 0030 A360     		str	r3, [r4, #8]
 849 0032 10BD     		pop	{r4, pc}
 850              	.LVL68:
 851              	.L49:
 852              		.align	2
 853              	.L48:
 854 0034 00000000 		.word	ch
 855              		.cfi_endproc
ARM GAS  /tmp/cccI3Zqz.s 			page 16


 856              	.LFE253:
 857              		.size	chMtxUnlockAllS, .-chMtxUnlockAllS
 858              		.section	.text.chMtxUnlockAll,"ax",%progbits
 859              		.align	1
 860              		.global	chMtxUnlockAll
 861              		.thumb
 862              		.thumb_func
 863              		.type	chMtxUnlockAll, %function
 864              	chMtxUnlockAll:
 865              	.LFB254:
 866              		.loc 2 524 0
 867              		.cfi_startproc
 868              		@ args = 0, pretend = 0, frame = 0
 869              		@ frame_needed = 0, uses_anonymous_args = 0
 870              		.loc 2 525 0
 871 0000 144B     		ldr	r3, .L60
 872              		.loc 2 524 0
 873 0002 10B5     		push	{r4, lr}
 874              		.cfi_def_cfa_offset 8
 875              		.cfi_offset 4, -8
 876              		.cfi_offset 14, -4
 877              		.loc 2 525 0
 878 0004 9C69     		ldr	r4, [r3, #24]
 879              	.LVL69:
 880              	.LBB217:
 881              	.LBB218:
 882              	.LBB219:
 883              	.LBB220:
 884              	.LBB221:
 885              		.loc 3 264 0
 886 0006 2023     		movs	r3, #32
 887              	@ 264 "../../modules/ChibiOS/os/common/ext/CMSIS/include/cmsis_gcc.h" 1
 888 0008 83F31188 		MSR basepri, r3
 889              	@ 0 "" 2
 890              		.thumb
 891              	.LBE221:
 892              	.LBE220:
 893              	.LBE219:
 894              		.loc 4 377 0
 895 000c FFF7FEFF 		bl	_stats_start_measure_crit_thd
 896              	.LVL70:
 897              	.LBE218:
 898              	.LBE217:
 899              		.loc 2 528 0
 900 0010 A36B     		ldr	r3, [r4, #56]
 901 0012 C3B1     		cbz	r3, .L51
 902              	.L57:
 903              	.LBB222:
 904              		.loc 2 530 0
 905 0014 A36B     		ldr	r3, [r4, #56]
 906              	.LVL71:
 907              	.LBB223:
 908              	.LBB224:
 909              	.LBB225:
 910              	.LBB226:
 911              		.loc 1 577 0
 912 0016 1868     		ldr	r0, [r3]
ARM GAS  /tmp/cccI3Zqz.s 			page 17


 913              	.LBE226:
 914              	.LBE225:
 915              	.LBE224:
 916              	.LBE223:
 917              		.loc 2 531 0
 918 0018 DA68     		ldr	r2, [r3, #12]
 919 001a A263     		str	r2, [r4, #56]
 920              	.LVL72:
 921              		.loc 2 532 0
 922 001c 9842     		cmp	r0, r3
 923 001e 09D0     		beq	.L52
 924              	.LVL73:
 925              	.LBB227:
 926              	.LBB228:
 927              	.LBB229:
 928              		.loc 1 620 0
 929 0020 0268     		ldr	r2, [r0]
 930 0022 1A60     		str	r2, [r3]
 931              		.loc 1 621 0
 932 0024 5360     		str	r3, [r2, #4]
 933              	.LBE229:
 934              	.LBE228:
 935              		.loc 2 538 0
 936 0026 826B     		ldr	r2, [r0, #56]
 937              		.loc 2 537 0
 938 0028 9860     		str	r0, [r3, #8]
 939              		.loc 2 538 0
 940 002a DA60     		str	r2, [r3, #12]
 941              		.loc 2 539 0
 942 002c 8363     		str	r3, [r0, #56]
 943              		.loc 2 540 0
 944 002e FFF7FEFF 		bl	chSchReadyI
 945              	.LVL74:
 946              	.LBE227:
 947 0032 01E0     		b	.L53
 948              	.LVL75:
 949              	.L52:
 950              		.loc 2 546 0
 951 0034 0023     		movs	r3, #0
 952              	.LVL76:
 953 0036 8360     		str	r3, [r0, #8]
 954              	.L53:
 955              	.LBE222:
 956              		.loc 2 548 0
 957 0038 A36B     		ldr	r3, [r4, #56]
 958 003a 002B     		cmp	r3, #0
 959 003c EAD1     		bne	.L57
 960              		.loc 2 549 0
 961 003e E36B     		ldr	r3, [r4, #60]
 962 0040 A360     		str	r3, [r4, #8]
 963              		.loc 2 550 0
 964 0042 FFF7FEFF 		bl	chSchRescheduleS
 965              	.LVL77:
 966              	.L51:
 967              	.LBB230:
 968              	.LBB231:
 969              		.loc 4 389 0
ARM GAS  /tmp/cccI3Zqz.s 			page 18


 970 0046 FFF7FEFF 		bl	_stats_stop_measure_crit_thd
 971              	.LVL78:
 972              	.LBB232:
 973              	.LBB233:
 974              	.LBB234:
 975              		.loc 3 264 0
 976 004a 0023     		movs	r3, #0
 977              	@ 264 "../../modules/ChibiOS/os/common/ext/CMSIS/include/cmsis_gcc.h" 1
 978 004c 83F31188 		MSR basepri, r3
 979              	@ 0 "" 2
 980              		.thumb
 981 0050 10BD     		pop	{r4, pc}
 982              	.LVL79:
 983              	.L61:
 984 0052 00BF     		.align	2
 985              	.L60:
 986 0054 00000000 		.word	ch
 987              	.LBE234:
 988              	.LBE233:
 989              	.LBE232:
 990              	.LBE231:
 991              	.LBE230:
 992              		.cfi_endproc
 993              	.LFE254:
 994              		.size	chMtxUnlockAll, .-chMtxUnlockAll
 995              		.text
 996              	.Letext0:
 997              		.file 5 "/usr/include/newlib/machine/_default_types.h"
 998              		.file 6 "/usr/include/newlib/sys/_stdint.h"
 999              		.file 7 "../../modules/ChibiOS/os/common/ports/ARMCMx/compilers/GCC/chtypes.h"
 1000              		.file 8 "../../modules/ChibiOS/os/rt/include/chsystypes.h"
 1001              		.file 9 "../../modules/ChibiOS/os/common/ports/ARMCMx/chcore.h"
 1002              		.file 10 "../../modules/ChibiOS/os/common/ports/ARMCMx/chcore_v7m.h"
 1003              		.file 11 "../../modules/ChibiOS/os/rt/include/chtm.h"
 1004              		.file 12 "../../modules/ChibiOS/os/rt/include/chstats.h"
 1005              		.file 13 "../../modules/ChibiOS/os/rt/include/chsem.h"
 1006              		.file 14 "../../modules/ChibiOS/os/rt/include/chmtx.h"
 1007              		.file 15 "../../modules/ChibiOS/os/common/ext/CMSIS/include/core_cm4.h"
 1008              		.section	.debug_info,"",%progbits
 1009              	.Ldebug_info0:
 1010 0000 14120000 		.4byte	0x1214
 1011 0004 0400     		.2byte	0x4
 1012 0006 00000000 		.4byte	.Ldebug_abbrev0
 1013 000a 04       		.byte	0x4
 1014 000b 01       		.uleb128 0x1
 1015 000c 44020000 		.4byte	.LASF130
 1016 0010 01       		.byte	0x1
 1017 0011 26060000 		.4byte	.LASF131
 1018 0015 2A010000 		.4byte	.LASF132
 1019 0019 08010000 		.4byte	.Ldebug_ranges0+0x108
 1020 001d 00000000 		.4byte	0
 1021 0021 00000000 		.4byte	.Ldebug_line0
 1022 0025 02       		.uleb128 0x2
 1023 0026 04       		.byte	0x4
 1024 0027 05       		.byte	0x5
 1025 0028 696E7400 		.ascii	"int\000"
 1026 002c 03       		.uleb128 0x3
ARM GAS  /tmp/cccI3Zqz.s 			page 19


 1027 002d 04       		.byte	0x4
 1028 002e 07       		.byte	0x7
 1029 002f 37020000 		.4byte	.LASF0
 1030 0033 03       		.uleb128 0x3
 1031 0034 01       		.byte	0x1
 1032 0035 06       		.byte	0x6
 1033 0036 17010000 		.4byte	.LASF1
 1034 003a 04       		.uleb128 0x4
 1035 003b 36000000 		.4byte	.LASF5
 1036 003f 05       		.byte	0x5
 1037 0040 1D       		.byte	0x1d
 1038 0041 45000000 		.4byte	0x45
 1039 0045 03       		.uleb128 0x3
 1040 0046 01       		.byte	0x1
 1041 0047 08       		.byte	0x8
 1042 0048 0E050000 		.4byte	.LASF2
 1043 004c 03       		.uleb128 0x3
 1044 004d 02       		.byte	0x2
 1045 004e 05       		.byte	0x5
 1046 004f 1C050000 		.4byte	.LASF3
 1047 0053 03       		.uleb128 0x3
 1048 0054 02       		.byte	0x2
 1049 0055 07       		.byte	0x7
 1050 0056 4C030000 		.4byte	.LASF4
 1051 005a 04       		.uleb128 0x4
 1052 005b F5030000 		.4byte	.LASF6
 1053 005f 05       		.byte	0x5
 1054 0060 3F       		.byte	0x3f
 1055 0061 65000000 		.4byte	0x65
 1056 0065 03       		.uleb128 0x3
 1057 0066 04       		.byte	0x4
 1058 0067 05       		.byte	0x5
 1059 0068 74010000 		.4byte	.LASF7
 1060 006c 04       		.uleb128 0x4
 1061 006d DD010000 		.4byte	.LASF8
 1062 0071 05       		.byte	0x5
 1063 0072 41       		.byte	0x41
 1064 0073 77000000 		.4byte	0x77
 1065 0077 03       		.uleb128 0x3
 1066 0078 04       		.byte	0x4
 1067 0079 07       		.byte	0x7
 1068 007a B1050000 		.4byte	.LASF9
 1069 007e 03       		.uleb128 0x3
 1070 007f 08       		.byte	0x8
 1071 0080 05       		.byte	0x5
 1072 0081 10020000 		.4byte	.LASF10
 1073 0085 04       		.uleb128 0x4
 1074 0086 BC040000 		.4byte	.LASF11
 1075 008a 05       		.byte	0x5
 1076 008b 5B       		.byte	0x5b
 1077 008c 90000000 		.4byte	0x90
 1078 0090 03       		.uleb128 0x3
 1079 0091 08       		.byte	0x8
 1080 0092 07       		.byte	0x7
 1081 0093 9F000000 		.4byte	.LASF12
 1082 0097 04       		.uleb128 0x4
 1083 0098 75060000 		.4byte	.LASF13
ARM GAS  /tmp/cccI3Zqz.s 			page 20


 1084 009c 06       		.byte	0x6
 1085 009d 14       		.byte	0x14
 1086 009e 3A000000 		.4byte	0x3a
 1087 00a2 04       		.uleb128 0x4
 1088 00a3 06050000 		.4byte	.LASF14
 1089 00a7 06       		.byte	0x6
 1090 00a8 1F       		.byte	0x1f
 1091 00a9 5A000000 		.4byte	0x5a
 1092 00ad 04       		.uleb128 0x4
 1093 00ae 7F050000 		.4byte	.LASF15
 1094 00b2 06       		.byte	0x6
 1095 00b3 20       		.byte	0x20
 1096 00b4 6C000000 		.4byte	0x6c
 1097 00b8 04       		.uleb128 0x4
 1098 00b9 20000000 		.4byte	.LASF16
 1099 00bd 06       		.byte	0x6
 1100 00be 26       		.byte	0x26
 1101 00bf 85000000 		.4byte	0x85
 1102 00c3 04       		.uleb128 0x4
 1103 00c4 4E060000 		.4byte	.LASF17
 1104 00c8 07       		.byte	0x7
 1105 00c9 39       		.byte	0x39
 1106 00ca AD000000 		.4byte	0xad
 1107 00ce 04       		.uleb128 0x4
 1108 00cf FA000000 		.4byte	.LASF18
 1109 00d3 07       		.byte	0x7
 1110 00d4 3A       		.byte	0x3a
 1111 00d5 B8000000 		.4byte	0xb8
 1112 00d9 04       		.uleb128 0x4
 1113 00da BB030000 		.4byte	.LASF19
 1114 00de 07       		.byte	0x7
 1115 00df 3C       		.byte	0x3c
 1116 00e0 97000000 		.4byte	0x97
 1117 00e4 04       		.uleb128 0x4
 1118 00e5 8B010000 		.4byte	.LASF20
 1119 00e9 07       		.byte	0x7
 1120 00ea 3D       		.byte	0x3d
 1121 00eb 97000000 		.4byte	0x97
 1122 00ef 04       		.uleb128 0x4
 1123 00f0 D2040000 		.4byte	.LASF21
 1124 00f4 07       		.byte	0x7
 1125 00f5 3E       		.byte	0x3e
 1126 00f6 97000000 		.4byte	0x97
 1127 00fa 04       		.uleb128 0x4
 1128 00fb EF040000 		.4byte	.LASF22
 1129 00ff 07       		.byte	0x7
 1130 0100 40       		.byte	0x40
 1131 0101 AD000000 		.4byte	0xad
 1132 0105 04       		.uleb128 0x4
 1133 0106 7D030000 		.4byte	.LASF23
 1134 010a 07       		.byte	0x7
 1135 010b 41       		.byte	0x41
 1136 010c A2000000 		.4byte	0xa2
 1137 0110 04       		.uleb128 0x4
 1138 0111 DC030000 		.4byte	.LASF24
 1139 0115 07       		.byte	0x7
 1140 0116 43       		.byte	0x43
ARM GAS  /tmp/cccI3Zqz.s 			page 21


 1141 0117 AD000000 		.4byte	0xad
 1142 011b 04       		.uleb128 0x4
 1143 011c 24020000 		.4byte	.LASF25
 1144 0120 07       		.byte	0x7
 1145 0121 45       		.byte	0x45
 1146 0122 A2000000 		.4byte	0xa2
 1147 0126 04       		.uleb128 0x4
 1148 0127 88030000 		.4byte	.LASF26
 1149 012b 07       		.byte	0x7
 1150 012c 46       		.byte	0x46
 1151 012d AD000000 		.4byte	0xad
 1152 0131 04       		.uleb128 0x4
 1153 0132 F5050000 		.4byte	.LASF27
 1154 0136 08       		.byte	0x8
 1155 0137 33       		.byte	0x33
 1156 0138 AD000000 		.4byte	0xad
 1157 013c 04       		.uleb128 0x4
 1158 013d D5050000 		.4byte	.LASF28
 1159 0141 08       		.byte	0x8
 1160 0142 3F       		.byte	0x3f
 1161 0143 47010000 		.4byte	0x147
 1162 0147 05       		.uleb128 0x5
 1163 0148 6E030000 		.4byte	.LASF47
 1164 014c 60       		.byte	0x60
 1165 014d 01       		.byte	0x1
 1166 014e 9A       		.byte	0x9a
 1167 014f 32020000 		.4byte	0x232
 1168 0153 06       		.uleb128 0x6
 1169 0154 40030000 		.4byte	.LASF29
 1170 0158 01       		.byte	0x1
 1171 0159 9B       		.byte	0x9b
 1172 015a 67020000 		.4byte	0x267
 1173 015e 00       		.byte	0
 1174 015f 06       		.uleb128 0x6
 1175 0160 AF040000 		.4byte	.LASF30
 1176 0164 01       		.byte	0x1
 1177 0165 9C       		.byte	0x9c
 1178 0166 FA000000 		.4byte	0xfa
 1179 016a 08       		.byte	0x8
 1180 016b 07       		.uleb128 0x7
 1181 016c 63747800 		.ascii	"ctx\000"
 1182 0170 01       		.byte	0x1
 1183 0171 9D       		.byte	0x9d
 1184 0172 6C040000 		.4byte	0x46c
 1185 0176 0C       		.byte	0xc
 1186 0177 06       		.uleb128 0x6
 1187 0178 0A040000 		.4byte	.LASF31
 1188 017c 01       		.byte	0x1
 1189 017d 9F       		.byte	0x9f
 1190 017e 3D020000 		.4byte	0x23d
 1191 0182 10       		.byte	0x10
 1192 0183 06       		.uleb128 0x6
 1193 0184 CF050000 		.4byte	.LASF32
 1194 0188 01       		.byte	0x1
 1195 0189 A0       		.byte	0xa0
 1196 018a 3D020000 		.4byte	0x23d
 1197 018e 14       		.byte	0x14
ARM GAS  /tmp/cccI3Zqz.s 			page 22


 1198 018f 06       		.uleb128 0x6
 1199 0190 78030000 		.4byte	.LASF33
 1200 0194 01       		.byte	0x1
 1201 0195 A7       		.byte	0xa7
 1202 0196 53070000 		.4byte	0x753
 1203 019a 18       		.byte	0x18
 1204 019b 06       		.uleb128 0x6
 1205 019c C3050000 		.4byte	.LASF34
 1206 01a0 01       		.byte	0x1
 1207 01a1 B0       		.byte	0xb0
 1208 01a2 65070000 		.4byte	0x765
 1209 01a6 1C       		.byte	0x1c
 1210 01a7 06       		.uleb128 0x6
 1211 01a8 6E010000 		.4byte	.LASF35
 1212 01ac 01       		.byte	0x1
 1213 01ad B5       		.byte	0xb5
 1214 01ae E4000000 		.4byte	0xe4
 1215 01b2 20       		.byte	0x20
 1216 01b3 06       		.uleb128 0x6
 1217 01b4 7D060000 		.4byte	.LASF36
 1218 01b8 01       		.byte	0x1
 1219 01b9 B9       		.byte	0xb9
 1220 01ba D9000000 		.4byte	0xd9
 1221 01be 21       		.byte	0x21
 1222 01bf 06       		.uleb128 0x6
 1223 01c0 DA040000 		.4byte	.LASF37
 1224 01c4 01       		.byte	0x1
 1225 01c5 BE       		.byte	0xbe
 1226 01c6 EF000000 		.4byte	0xef
 1227 01ca 22       		.byte	0x22
 1228 01cb 08       		.uleb128 0x8
 1229 01cc 7500     		.ascii	"u\000"
 1230 01ce 01       		.byte	0x1
 1231 01cf 0F01     		.2byte	0x10f
 1232 01d1 88060000 		.4byte	0x688
 1233 01d5 24       		.byte	0x24
 1234 01d6 09       		.uleb128 0x9
 1235 01d7 08020000 		.4byte	.LASF38
 1236 01db 01       		.byte	0x1
 1237 01dc 1401     		.2byte	0x114
 1238 01de 43020000 		.4byte	0x243
 1239 01e2 28       		.byte	0x28
 1240 01e3 09       		.uleb128 0x9
 1241 01e4 65010000 		.4byte	.LASF39
 1242 01e8 01       		.byte	0x1
 1243 01e9 1A01     		.2byte	0x11a
 1244 01eb 67020000 		.4byte	0x267
 1245 01ef 2C       		.byte	0x2c
 1246 01f0 09       		.uleb128 0x9
 1247 01f1 8F030000 		.4byte	.LASF40
 1248 01f5 01       		.byte	0x1
 1249 01f6 2001     		.2byte	0x120
 1250 01f8 10010000 		.4byte	0x110
 1251 01fc 34       		.byte	0x34
 1252 01fd 09       		.uleb128 0x9
 1253 01fe E0060000 		.4byte	.LASF41
 1254 0202 01       		.byte	0x1
ARM GAS  /tmp/cccI3Zqz.s 			page 23


 1255 0203 2701     		.2byte	0x127
 1256 0205 4D070000 		.4byte	0x74d
 1257 0209 38       		.byte	0x38
 1258 020a 09       		.uleb128 0x9
 1259 020b 10040000 		.4byte	.LASF42
 1260 020f 01       		.byte	0x1
 1261 0210 2B01     		.2byte	0x12b
 1262 0212 FA000000 		.4byte	0xfa
 1263 0216 3C       		.byte	0x3c
 1264 0217 09       		.uleb128 0x9
 1265 0218 46030000 		.4byte	.LASF43
 1266 021c 01       		.byte	0x1
 1267 021d 3201     		.2byte	0x132
 1268 021f 1A030000 		.4byte	0x31a
 1269 0223 40       		.byte	0x40
 1270 0224 09       		.uleb128 0x9
 1271 0225 B8010000 		.4byte	.LASF44
 1272 0229 01       		.byte	0x1
 1273 022a 3801     		.2byte	0x138
 1274 022c 39060000 		.4byte	0x639
 1275 0230 48       		.byte	0x48
 1276 0231 00       		.byte	0
 1277 0232 04       		.uleb128 0x4
 1278 0233 3F040000 		.4byte	.LASF45
 1279 0237 08       		.byte	0x8
 1280 0238 44       		.byte	0x44
 1281 0239 3D020000 		.4byte	0x23d
 1282 023d 0A       		.uleb128 0xa
 1283 023e 04       		.byte	0x4
 1284 023f 3C010000 		.4byte	0x13c
 1285 0243 04       		.uleb128 0x4
 1286 0244 A8060000 		.4byte	.LASF46
 1287 0248 08       		.byte	0x8
 1288 0249 49       		.byte	0x49
 1289 024a 4E020000 		.4byte	0x24e
 1290 024e 05       		.uleb128 0x5
 1291 024f 9B050000 		.4byte	.LASF48
 1292 0253 04       		.byte	0x4
 1293 0254 01       		.byte	0x1
 1294 0255 88       		.byte	0x88
 1295 0256 67020000 		.4byte	0x267
 1296 025a 06       		.uleb128 0x6
 1297 025b F5000000 		.4byte	.LASF49
 1298 025f 01       		.byte	0x1
 1299 0260 89       		.byte	0x89
 1300 0261 3D020000 		.4byte	0x23d
 1301 0265 00       		.byte	0
 1302 0266 00       		.byte	0
 1303 0267 04       		.uleb128 0x4
 1304 0268 56060000 		.4byte	.LASF50
 1305 026c 08       		.byte	0x8
 1306 026d 50       		.byte	0x50
 1307 026e 72020000 		.4byte	0x272
 1308 0272 05       		.uleb128 0x5
 1309 0273 51000000 		.4byte	.LASF51
 1310 0277 08       		.byte	0x8
 1311 0278 01       		.byte	0x1
ARM GAS  /tmp/cccI3Zqz.s 			page 24


 1312 0279 8F       		.byte	0x8f
 1313 027a 97020000 		.4byte	0x297
 1314 027e 06       		.uleb128 0x6
 1315 027f F5000000 		.4byte	.LASF49
 1316 0283 01       		.byte	0x1
 1317 0284 90       		.byte	0x90
 1318 0285 3D020000 		.4byte	0x23d
 1319 0289 00       		.byte	0
 1320 028a 06       		.uleb128 0x6
 1321 028b 40000000 		.4byte	.LASF52
 1322 028f 01       		.byte	0x1
 1323 0290 91       		.byte	0x91
 1324 0291 3D020000 		.4byte	0x23d
 1325 0295 04       		.byte	0x4
 1326 0296 00       		.byte	0
 1327 0297 04       		.uleb128 0x4
 1328 0298 00000000 		.4byte	.LASF53
 1329 029c 08       		.byte	0x8
 1330 029d 57       		.byte	0x57
 1331 029e A2020000 		.4byte	0x2a2
 1332 02a2 0B       		.uleb128 0xb
 1333 02a3 CE030000 		.4byte	.LASF54
 1334 02a7 1C       		.byte	0x1c
 1335 02a8 01       		.byte	0x1
 1336 02a9 6A01     		.2byte	0x16a
 1337 02ab FE020000 		.4byte	0x2fe
 1338 02af 09       		.uleb128 0x9
 1339 02b0 40030000 		.4byte	.LASF29
 1340 02b4 01       		.byte	0x1
 1341 02b5 6B01     		.2byte	0x16b
 1342 02b7 67020000 		.4byte	0x267
 1343 02bb 00       		.byte	0
 1344 02bc 09       		.uleb128 0x9
 1345 02bd AF040000 		.4byte	.LASF30
 1346 02c1 01       		.byte	0x1
 1347 02c2 6C01     		.2byte	0x16c
 1348 02c4 FA000000 		.4byte	0xfa
 1349 02c8 08       		.byte	0x8
 1350 02c9 08       		.uleb128 0x8
 1351 02ca 63747800 		.ascii	"ctx\000"
 1352 02ce 01       		.byte	0x1
 1353 02cf 6E01     		.2byte	0x16e
 1354 02d1 6C040000 		.4byte	0x46c
 1355 02d5 0C       		.byte	0xc
 1356 02d6 09       		.uleb128 0x9
 1357 02d7 0A040000 		.4byte	.LASF31
 1358 02db 01       		.byte	0x1
 1359 02dc 7101     		.2byte	0x171
 1360 02de 3D020000 		.4byte	0x23d
 1361 02e2 10       		.byte	0x10
 1362 02e3 09       		.uleb128 0x9
 1363 02e4 CF050000 		.4byte	.LASF32
 1364 02e8 01       		.byte	0x1
 1365 02e9 7201     		.2byte	0x172
 1366 02eb 3D020000 		.4byte	0x23d
 1367 02ef 14       		.byte	0x14
 1368 02f0 09       		.uleb128 0x9
ARM GAS  /tmp/cccI3Zqz.s 			page 25


 1369 02f1 B4040000 		.4byte	.LASF55
 1370 02f5 01       		.byte	0x1
 1371 02f6 7501     		.2byte	0x175
 1372 02f8 3D020000 		.4byte	0x23d
 1373 02fc 18       		.byte	0x18
 1374 02fd 00       		.byte	0
 1375 02fe 04       		.uleb128 0x4
 1376 02ff FF050000 		.4byte	.LASF56
 1377 0303 08       		.byte	0x8
 1378 0304 5C       		.byte	0x5c
 1379 0305 09030000 		.4byte	0x309
 1380 0309 0A       		.uleb128 0xa
 1381 030a 04       		.byte	0x4
 1382 030b 0F030000 		.4byte	0x30f
 1383 030f 0C       		.uleb128 0xc
 1384 0310 1A030000 		.4byte	0x31a
 1385 0314 0D       		.uleb128 0xd
 1386 0315 1A030000 		.4byte	0x31a
 1387 0319 00       		.byte	0
 1388 031a 0E       		.uleb128 0xe
 1389 031b 04       		.byte	0x4
 1390 031c 04       		.uleb128 0x4
 1391 031d DF040000 		.4byte	.LASF57
 1392 0321 08       		.byte	0x8
 1393 0322 61       		.byte	0x61
 1394 0323 27030000 		.4byte	0x327
 1395 0327 0B       		.uleb128 0xb
 1396 0328 53050000 		.4byte	.LASF58
 1397 032c 14       		.byte	0x14
 1398 032d 01       		.byte	0x1
 1399 032e 4501     		.2byte	0x145
 1400 0330 76030000 		.4byte	0x376
 1401 0334 09       		.uleb128 0x9
 1402 0335 F5000000 		.4byte	.LASF49
 1403 0339 01       		.byte	0x1
 1404 033a 4601     		.2byte	0x146
 1405 033c 6B070000 		.4byte	0x76b
 1406 0340 00       		.byte	0
 1407 0341 09       		.uleb128 0x9
 1408 0342 40000000 		.4byte	.LASF52
 1409 0346 01       		.byte	0x1
 1410 0347 4701     		.2byte	0x147
 1411 0349 6B070000 		.4byte	0x76b
 1412 034d 04       		.byte	0x4
 1413 034e 09       		.uleb128 0x9
 1414 034f 13000000 		.4byte	.LASF59
 1415 0353 01       		.byte	0x1
 1416 0354 4801     		.2byte	0x148
 1417 0356 31010000 		.4byte	0x131
 1418 035a 08       		.byte	0x8
 1419 035b 09       		.uleb128 0x9
 1420 035c B3010000 		.4byte	.LASF60
 1421 0360 01       		.byte	0x1
 1422 0361 4901     		.2byte	0x149
 1423 0363 FE020000 		.4byte	0x2fe
 1424 0367 0C       		.byte	0xc
 1425 0368 08       		.uleb128 0x8
ARM GAS  /tmp/cccI3Zqz.s 			page 26


 1426 0369 70617200 		.ascii	"par\000"
 1427 036d 01       		.byte	0x1
 1428 036e 4B01     		.2byte	0x14b
 1429 0370 1A030000 		.4byte	0x31a
 1430 0374 10       		.byte	0x10
 1431 0375 00       		.byte	0
 1432 0376 04       		.uleb128 0x4
 1433 0377 D2000000 		.4byte	.LASF61
 1434 037b 08       		.byte	0x8
 1435 037c 66       		.byte	0x66
 1436 037d 81030000 		.4byte	0x381
 1437 0381 0B       		.uleb128 0xb
 1438 0382 52040000 		.4byte	.LASF62
 1439 0386 10       		.byte	0x10
 1440 0387 01       		.byte	0x1
 1441 0388 5501     		.2byte	0x155
 1442 038a C3030000 		.4byte	0x3c3
 1443 038e 09       		.uleb128 0x9
 1444 038f F5000000 		.4byte	.LASF49
 1445 0393 01       		.byte	0x1
 1446 0394 5601     		.2byte	0x156
 1447 0396 6B070000 		.4byte	0x76b
 1448 039a 00       		.byte	0
 1449 039b 09       		.uleb128 0x9
 1450 039c 40000000 		.4byte	.LASF52
 1451 03a0 01       		.byte	0x1
 1452 03a1 5801     		.2byte	0x158
 1453 03a3 6B070000 		.4byte	0x76b
 1454 03a7 04       		.byte	0x4
 1455 03a8 09       		.uleb128 0x9
 1456 03a9 13000000 		.4byte	.LASF59
 1457 03ad 01       		.byte	0x1
 1458 03ae 5A01     		.2byte	0x15a
 1459 03b0 31010000 		.4byte	0x131
 1460 03b4 08       		.byte	0x8
 1461 03b5 09       		.uleb128 0x9
 1462 03b6 26050000 		.4byte	.LASF63
 1463 03ba 01       		.byte	0x1
 1464 03bb 6201     		.2byte	0x162
 1465 03bd 31010000 		.4byte	0x131
 1466 03c1 0C       		.byte	0xc
 1467 03c2 00       		.byte	0
 1468 03c3 04       		.uleb128 0x4
 1469 03c4 62000000 		.4byte	.LASF64
 1470 03c8 08       		.byte	0x8
 1471 03c9 6B       		.byte	0x6b
 1472 03ca CE030000 		.4byte	0x3ce
 1473 03ce 0B       		.uleb128 0xb
 1474 03cf F8010000 		.4byte	.LASF65
 1475 03d3 04       		.byte	0x4
 1476 03d4 01       		.byte	0x1
 1477 03d5 7C01     		.2byte	0x17c
 1478 03d7 E9030000 		.4byte	0x3e9
 1479 03db 09       		.uleb128 0x9
 1480 03dc 1C060000 		.4byte	.LASF66
 1481 03e0 01       		.byte	0x1
 1482 03e1 8401     		.2byte	0x184
ARM GAS  /tmp/cccI3Zqz.s 			page 27


 1483 03e3 71070000 		.4byte	0x771
 1484 03e7 00       		.byte	0
 1485 03e8 00       		.byte	0
 1486 03e9 04       		.uleb128 0x4
 1487 03ea 98030000 		.4byte	.LASF67
 1488 03ee 08       		.byte	0x8
 1489 03ef 70       		.byte	0x70
 1490 03f0 F4030000 		.4byte	0x3f4
 1491 03f4 0B       		.uleb128 0xb
 1492 03f5 36050000 		.4byte	.LASF68
 1493 03f9 D0       		.byte	0xd0
 1494 03fa 01       		.byte	0x1
 1495 03fb 9C01     		.2byte	0x19c
 1496 03fd 4F040000 		.4byte	0x44f
 1497 0401 09       		.uleb128 0x9
 1498 0402 6F060000 		.4byte	.LASF69
 1499 0406 01       		.byte	0x1
 1500 0407 A001     		.2byte	0x1a0
 1501 0409 97020000 		.4byte	0x297
 1502 040d 00       		.byte	0
 1503 040e 09       		.uleb128 0x9
 1504 040f 23010000 		.4byte	.LASF70
 1505 0413 01       		.byte	0x1
 1506 0414 A401     		.2byte	0x1a4
 1507 0416 76030000 		.4byte	0x376
 1508 041a 1C       		.byte	0x1c
 1509 041b 08       		.uleb128 0x8
 1510 041c 64626700 		.ascii	"dbg\000"
 1511 0420 01       		.byte	0x1
 1512 0421 A801     		.2byte	0x1a8
 1513 0423 C3030000 		.4byte	0x3c3
 1514 0427 2C       		.byte	0x2c
 1515 0428 09       		.uleb128 0x9
 1516 0429 BF000000 		.4byte	.LASF71
 1517 042d 01       		.byte	0x1
 1518 042e AC01     		.2byte	0x1ac
 1519 0430 3C010000 		.4byte	0x13c
 1520 0434 30       		.byte	0x30
 1521 0435 08       		.uleb128 0x8
 1522 0436 746D00   		.ascii	"tm\000"
 1523 0439 01       		.byte	0x1
 1524 043a B101     		.2byte	0x1b1
 1525 043c EB050000 		.4byte	0x5eb
 1526 0440 90       		.byte	0x90
 1527 0441 09       		.uleb128 0x9
 1528 0442 29000000 		.4byte	.LASF72
 1529 0446 01       		.byte	0x1
 1530 0447 B701     		.2byte	0x1b7
 1531 0449 7D060000 		.4byte	0x67d
 1532 044d 98       		.byte	0x98
 1533 044e 00       		.byte	0
 1534 044f 03       		.uleb128 0x3
 1535 0450 04       		.byte	0x4
 1536 0451 07       		.byte	0x7
 1537 0452 36040000 		.4byte	.LASF73
 1538 0456 04       		.uleb128 0x4
 1539 0457 E8010000 		.4byte	.LASF74
ARM GAS  /tmp/cccI3Zqz.s 			page 28


 1540 045b 09       		.byte	0x9
 1541 045c 65       		.byte	0x65
 1542 045d 1A030000 		.4byte	0x31a
 1543 0461 04       		.uleb128 0x4
 1544 0462 FF030000 		.4byte	.LASF75
 1545 0466 09       		.byte	0x9
 1546 0467 6D       		.byte	0x6d
 1547 0468 B8000000 		.4byte	0xb8
 1548 046c 05       		.uleb128 0x5
 1549 046d 91040000 		.4byte	.LASF76
 1550 0471 04       		.byte	0x4
 1551 0472 09       		.byte	0x9
 1552 0473 89       		.byte	0x89
 1553 0474 84040000 		.4byte	0x484
 1554 0478 07       		.uleb128 0x7
 1555 0479 737000   		.ascii	"sp\000"
 1556 047c 09       		.byte	0x9
 1557 047d 8A       		.byte	0x8a
 1558 047e D0050000 		.4byte	0x5d0
 1559 0482 00       		.byte	0
 1560 0483 00       		.byte	0
 1561 0484 0B       		.uleb128 0xb
 1562 0485 45000000 		.4byte	.LASF77
 1563 0489 64       		.byte	0x64
 1564 048a 0A       		.byte	0xa
 1565 048b 5901     		.2byte	0x159
 1566 048d D0050000 		.4byte	0x5d0
 1567 0491 08       		.uleb128 0x8
 1568 0492 73313600 		.ascii	"s16\000"
 1569 0496 0A       		.byte	0xa
 1570 0497 5B01     		.2byte	0x15b
 1571 0499 56040000 		.4byte	0x456
 1572 049d 00       		.byte	0
 1573 049e 08       		.uleb128 0x8
 1574 049f 73313700 		.ascii	"s17\000"
 1575 04a3 0A       		.byte	0xa
 1576 04a4 5C01     		.2byte	0x15c
 1577 04a6 56040000 		.4byte	0x456
 1578 04aa 04       		.byte	0x4
 1579 04ab 08       		.uleb128 0x8
 1580 04ac 73313800 		.ascii	"s18\000"
 1581 04b0 0A       		.byte	0xa
 1582 04b1 5D01     		.2byte	0x15d
 1583 04b3 56040000 		.4byte	0x456
 1584 04b7 08       		.byte	0x8
 1585 04b8 08       		.uleb128 0x8
 1586 04b9 73313900 		.ascii	"s19\000"
 1587 04bd 0A       		.byte	0xa
 1588 04be 5E01     		.2byte	0x15e
 1589 04c0 56040000 		.4byte	0x456
 1590 04c4 0C       		.byte	0xc
 1591 04c5 08       		.uleb128 0x8
 1592 04c6 73323000 		.ascii	"s20\000"
 1593 04ca 0A       		.byte	0xa
 1594 04cb 5F01     		.2byte	0x15f
 1595 04cd 56040000 		.4byte	0x456
 1596 04d1 10       		.byte	0x10
ARM GAS  /tmp/cccI3Zqz.s 			page 29


 1597 04d2 08       		.uleb128 0x8
 1598 04d3 73323100 		.ascii	"s21\000"
 1599 04d7 0A       		.byte	0xa
 1600 04d8 6001     		.2byte	0x160
 1601 04da 56040000 		.4byte	0x456
 1602 04de 14       		.byte	0x14
 1603 04df 08       		.uleb128 0x8
 1604 04e0 73323200 		.ascii	"s22\000"
 1605 04e4 0A       		.byte	0xa
 1606 04e5 6101     		.2byte	0x161
 1607 04e7 56040000 		.4byte	0x456
 1608 04eb 18       		.byte	0x18
 1609 04ec 08       		.uleb128 0x8
 1610 04ed 73323300 		.ascii	"s23\000"
 1611 04f1 0A       		.byte	0xa
 1612 04f2 6201     		.2byte	0x162
 1613 04f4 56040000 		.4byte	0x456
 1614 04f8 1C       		.byte	0x1c
 1615 04f9 08       		.uleb128 0x8
 1616 04fa 73323400 		.ascii	"s24\000"
 1617 04fe 0A       		.byte	0xa
 1618 04ff 6301     		.2byte	0x163
 1619 0501 56040000 		.4byte	0x456
 1620 0505 20       		.byte	0x20
 1621 0506 08       		.uleb128 0x8
 1622 0507 73323500 		.ascii	"s25\000"
 1623 050b 0A       		.byte	0xa
 1624 050c 6401     		.2byte	0x164
 1625 050e 56040000 		.4byte	0x456
 1626 0512 24       		.byte	0x24
 1627 0513 08       		.uleb128 0x8
 1628 0514 73323600 		.ascii	"s26\000"
 1629 0518 0A       		.byte	0xa
 1630 0519 6501     		.2byte	0x165
 1631 051b 56040000 		.4byte	0x456
 1632 051f 28       		.byte	0x28
 1633 0520 08       		.uleb128 0x8
 1634 0521 73323700 		.ascii	"s27\000"
 1635 0525 0A       		.byte	0xa
 1636 0526 6601     		.2byte	0x166
 1637 0528 56040000 		.4byte	0x456
 1638 052c 2C       		.byte	0x2c
 1639 052d 08       		.uleb128 0x8
 1640 052e 73323800 		.ascii	"s28\000"
 1641 0532 0A       		.byte	0xa
 1642 0533 6701     		.2byte	0x167
 1643 0535 56040000 		.4byte	0x456
 1644 0539 30       		.byte	0x30
 1645 053a 08       		.uleb128 0x8
 1646 053b 73323900 		.ascii	"s29\000"
 1647 053f 0A       		.byte	0xa
 1648 0540 6801     		.2byte	0x168
 1649 0542 56040000 		.4byte	0x456
 1650 0546 34       		.byte	0x34
 1651 0547 08       		.uleb128 0x8
 1652 0548 73333000 		.ascii	"s30\000"
 1653 054c 0A       		.byte	0xa
ARM GAS  /tmp/cccI3Zqz.s 			page 30


 1654 054d 6901     		.2byte	0x169
 1655 054f 56040000 		.4byte	0x456
 1656 0553 38       		.byte	0x38
 1657 0554 08       		.uleb128 0x8
 1658 0555 73333100 		.ascii	"s31\000"
 1659 0559 0A       		.byte	0xa
 1660 055a 6A01     		.2byte	0x16a
 1661 055c 56040000 		.4byte	0x456
 1662 0560 3C       		.byte	0x3c
 1663 0561 08       		.uleb128 0x8
 1664 0562 723400   		.ascii	"r4\000"
 1665 0565 0A       		.byte	0xa
 1666 0566 6C01     		.2byte	0x16c
 1667 0568 56040000 		.4byte	0x456
 1668 056c 40       		.byte	0x40
 1669 056d 08       		.uleb128 0x8
 1670 056e 723500   		.ascii	"r5\000"
 1671 0571 0A       		.byte	0xa
 1672 0572 6D01     		.2byte	0x16d
 1673 0574 56040000 		.4byte	0x456
 1674 0578 44       		.byte	0x44
 1675 0579 08       		.uleb128 0x8
 1676 057a 723600   		.ascii	"r6\000"
 1677 057d 0A       		.byte	0xa
 1678 057e 6E01     		.2byte	0x16e
 1679 0580 56040000 		.4byte	0x456
 1680 0584 48       		.byte	0x48
 1681 0585 08       		.uleb128 0x8
 1682 0586 723700   		.ascii	"r7\000"
 1683 0589 0A       		.byte	0xa
 1684 058a 6F01     		.2byte	0x16f
 1685 058c 56040000 		.4byte	0x456
 1686 0590 4C       		.byte	0x4c
 1687 0591 08       		.uleb128 0x8
 1688 0592 723800   		.ascii	"r8\000"
 1689 0595 0A       		.byte	0xa
 1690 0596 7001     		.2byte	0x170
 1691 0598 56040000 		.4byte	0x456
 1692 059c 50       		.byte	0x50
 1693 059d 08       		.uleb128 0x8
 1694 059e 723900   		.ascii	"r9\000"
 1695 05a1 0A       		.byte	0xa
 1696 05a2 7101     		.2byte	0x171
 1697 05a4 56040000 		.4byte	0x456
 1698 05a8 54       		.byte	0x54
 1699 05a9 08       		.uleb128 0x8
 1700 05aa 72313000 		.ascii	"r10\000"
 1701 05ae 0A       		.byte	0xa
 1702 05af 7201     		.2byte	0x172
 1703 05b1 56040000 		.4byte	0x456
 1704 05b5 58       		.byte	0x58
 1705 05b6 08       		.uleb128 0x8
 1706 05b7 72313100 		.ascii	"r11\000"
 1707 05bb 0A       		.byte	0xa
 1708 05bc 7301     		.2byte	0x173
 1709 05be 56040000 		.4byte	0x456
 1710 05c2 5C       		.byte	0x5c
ARM GAS  /tmp/cccI3Zqz.s 			page 31


 1711 05c3 08       		.uleb128 0x8
 1712 05c4 6C7200   		.ascii	"lr\000"
 1713 05c7 0A       		.byte	0xa
 1714 05c8 7401     		.2byte	0x174
 1715 05ca 56040000 		.4byte	0x456
 1716 05ce 60       		.byte	0x60
 1717 05cf 00       		.byte	0
 1718 05d0 0A       		.uleb128 0xa
 1719 05d1 04       		.byte	0x4
 1720 05d2 84040000 		.4byte	0x484
 1721 05d6 0F       		.uleb128 0xf
 1722 05d7 04       		.byte	0x4
 1723 05d8 0B       		.byte	0xb
 1724 05d9 38       		.byte	0x38
 1725 05da EB050000 		.4byte	0x5eb
 1726 05de 06       		.uleb128 0x6
 1727 05df F1010000 		.4byte	.LASF78
 1728 05e3 0B       		.byte	0xb
 1729 05e4 3C       		.byte	0x3c
 1730 05e5 C3000000 		.4byte	0xc3
 1731 05e9 00       		.byte	0
 1732 05ea 00       		.byte	0
 1733 05eb 04       		.uleb128 0x4
 1734 05ec 9E040000 		.4byte	.LASF79
 1735 05f0 0B       		.byte	0xb
 1736 05f1 3D       		.byte	0x3d
 1737 05f2 D6050000 		.4byte	0x5d6
 1738 05f6 0F       		.uleb128 0xf
 1739 05f7 18       		.byte	0x18
 1740 05f8 0B       		.byte	0xb
 1741 05f9 48       		.byte	0x48
 1742 05fa 39060000 		.4byte	0x639
 1743 05fe 06       		.uleb128 0x6
 1744 05ff DE050000 		.4byte	.LASF80
 1745 0603 0B       		.byte	0xb
 1746 0604 49       		.byte	0x49
 1747 0605 C3000000 		.4byte	0xc3
 1748 0609 00       		.byte	0
 1749 060a 06       		.uleb128 0x6
 1750 060b 86000000 		.4byte	.LASF81
 1751 060f 0B       		.byte	0xb
 1752 0610 4A       		.byte	0x4a
 1753 0611 C3000000 		.4byte	0xc3
 1754 0615 04       		.byte	0x4
 1755 0616 06       		.uleb128 0x6
 1756 0617 83030000 		.4byte	.LASF82
 1757 061b 0B       		.byte	0xb
 1758 061c 4B       		.byte	0x4b
 1759 061d C3000000 		.4byte	0xc3
 1760 0621 08       		.byte	0x8
 1761 0622 07       		.uleb128 0x7
 1762 0623 6E00     		.ascii	"n\000"
 1763 0625 0B       		.byte	0xb
 1764 0626 4C       		.byte	0x4c
 1765 0627 26010000 		.4byte	0x126
 1766 062b 0C       		.byte	0xc
 1767 062c 06       		.uleb128 0x6
ARM GAS  /tmp/cccI3Zqz.s 			page 32


 1768 062d C7040000 		.4byte	.LASF83
 1769 0631 0B       		.byte	0xb
 1770 0632 4D       		.byte	0x4d
 1771 0633 CE000000 		.4byte	0xce
 1772 0637 10       		.byte	0x10
 1773 0638 00       		.byte	0
 1774 0639 04       		.uleb128 0x4
 1775 063a 8C000000 		.4byte	.LASF84
 1776 063e 0B       		.byte	0xb
 1777 063f 4E       		.byte	0x4e
 1778 0640 F6050000 		.4byte	0x5f6
 1779 0644 0F       		.uleb128 0xf
 1780 0645 38       		.byte	0x38
 1781 0646 0C       		.byte	0xc
 1782 0647 38       		.byte	0x38
 1783 0648 7D060000 		.4byte	0x67d
 1784 064c 06       		.uleb128 0x6
 1785 064d 3A030000 		.4byte	.LASF85
 1786 0651 0C       		.byte	0xc
 1787 0652 39       		.byte	0x39
 1788 0653 26010000 		.4byte	0x126
 1789 0657 00       		.byte	0
 1790 0658 06       		.uleb128 0x6
 1791 0659 F7040000 		.4byte	.LASF86
 1792 065d 0C       		.byte	0xc
 1793 065e 3A       		.byte	0x3a
 1794 065f 26010000 		.4byte	0x126
 1795 0663 04       		.byte	0x4
 1796 0664 06       		.uleb128 0x6
 1797 0665 E8060000 		.4byte	.LASF87
 1798 0669 0C       		.byte	0xc
 1799 066a 3B       		.byte	0x3b
 1800 066b 39060000 		.4byte	0x639
 1801 066f 08       		.byte	0x8
 1802 0670 06       		.uleb128 0x6
 1803 0671 C3030000 		.4byte	.LASF88
 1804 0675 0C       		.byte	0xc
 1805 0676 3D       		.byte	0x3d
 1806 0677 39060000 		.4byte	0x639
 1807 067b 20       		.byte	0x20
 1808 067c 00       		.byte	0
 1809 067d 04       		.uleb128 0x4
 1810 067e 5F030000 		.4byte	.LASF89
 1811 0682 0C       		.byte	0xc
 1812 0683 3F       		.byte	0x3f
 1813 0684 44060000 		.4byte	0x644
 1814 0688 10       		.uleb128 0x10
 1815 0689 04       		.byte	0x4
 1816 068a 01       		.byte	0x1
 1817 068b D2       		.byte	0xd2
 1818 068c EB060000 		.4byte	0x6eb
 1819 0690 11       		.uleb128 0x11
 1820 0691 19000000 		.4byte	.LASF90
 1821 0695 01       		.byte	0x1
 1822 0696 D9       		.byte	0xd9
 1823 0697 05010000 		.4byte	0x105
 1824 069b 11       		.uleb128 0x11
ARM GAS  /tmp/cccI3Zqz.s 			page 33


 1825 069c B6000000 		.4byte	.LASF91
 1826 06a0 01       		.byte	0x1
 1827 06a1 E0       		.byte	0xe0
 1828 06a2 05010000 		.4byte	0x105
 1829 06a6 11       		.uleb128 0x11
 1830 06a7 A1060000 		.4byte	.LASF92
 1831 06ab 01       		.byte	0x1
 1832 06ac E7       		.byte	0xe7
 1833 06ad 1A030000 		.4byte	0x31a
 1834 06b1 11       		.uleb128 0x11
 1835 06b2 0D000000 		.4byte	.LASF93
 1836 06b6 01       		.byte	0x1
 1837 06b7 EE       		.byte	0xee
 1838 06b8 EB060000 		.4byte	0x6eb
 1839 06bc 11       		.uleb128 0x11
 1840 06bd CA000000 		.4byte	.LASF94
 1841 06c1 01       		.byte	0x1
 1842 06c2 F3       		.byte	0xf3
 1843 06c3 05010000 		.4byte	0x105
 1844 06c7 11       		.uleb128 0x11
 1845 06c8 33030000 		.4byte	.LASF95
 1846 06cc 01       		.byte	0x1
 1847 06cd FC       		.byte	0xfc
 1848 06ce 16070000 		.4byte	0x716
 1849 06d2 12       		.uleb128 0x12
 1850 06d3 88050000 		.4byte	.LASF96
 1851 06d7 01       		.byte	0x1
 1852 06d8 0501     		.2byte	0x105
 1853 06da 4D070000 		.4byte	0x74d
 1854 06de 12       		.uleb128 0x12
 1855 06df 2F050000 		.4byte	.LASF97
 1856 06e3 01       		.byte	0x1
 1857 06e4 0D01     		.2byte	0x10d
 1858 06e6 10010000 		.4byte	0x110
 1859 06ea 00       		.byte	0
 1860 06eb 0A       		.uleb128 0xa
 1861 06ec 04       		.byte	0x4
 1862 06ed 32020000 		.4byte	0x232
 1863 06f1 05       		.uleb128 0x5
 1864 06f2 64050000 		.4byte	.LASF98
 1865 06f6 0C       		.byte	0xc
 1866 06f7 0D       		.byte	0xd
 1867 06f8 34       		.byte	0x34
 1868 06f9 16070000 		.4byte	0x716
 1869 06fd 06       		.uleb128 0x6
 1870 06fe 40030000 		.4byte	.LASF29
 1871 0702 0D       		.byte	0xd
 1872 0703 35       		.byte	0x35
 1873 0704 67020000 		.4byte	0x267
 1874 0708 00       		.byte	0
 1875 0709 07       		.uleb128 0x7
 1876 070a 636E7400 		.ascii	"cnt\000"
 1877 070e 0D       		.byte	0xd
 1878 070f 37       		.byte	0x37
 1879 0710 1B010000 		.4byte	0x11b
 1880 0714 08       		.byte	0x8
 1881 0715 00       		.byte	0
ARM GAS  /tmp/cccI3Zqz.s 			page 34


 1882 0716 0A       		.uleb128 0xa
 1883 0717 04       		.byte	0x4
 1884 0718 F1060000 		.4byte	0x6f1
 1885 071c 05       		.uleb128 0x5
 1886 071d 66060000 		.4byte	.LASF99
 1887 0721 10       		.byte	0x10
 1888 0722 0E       		.byte	0xe
 1889 0723 39       		.byte	0x39
 1890 0724 4D070000 		.4byte	0x74d
 1891 0728 06       		.uleb128 0x6
 1892 0729 40030000 		.4byte	.LASF29
 1893 072d 0E       		.byte	0xe
 1894 072e 3A       		.byte	0x3a
 1895 072f 67020000 		.4byte	0x267
 1896 0733 00       		.byte	0
 1897 0734 06       		.uleb128 0x6
 1898 0735 AB050000 		.4byte	.LASF100
 1899 0739 0E       		.byte	0xe
 1900 073a 3C       		.byte	0x3c
 1901 073b 3D020000 		.4byte	0x23d
 1902 073f 08       		.byte	0x8
 1903 0740 06       		.uleb128 0x6
 1904 0741 F5000000 		.4byte	.LASF49
 1905 0745 0E       		.byte	0xe
 1906 0746 3E       		.byte	0x3e
 1907 0747 81070000 		.4byte	0x781
 1908 074b 0C       		.byte	0xc
 1909 074c 00       		.byte	0
 1910 074d 0A       		.uleb128 0xa
 1911 074e 04       		.byte	0x4
 1912 074f 1C070000 		.4byte	0x71c
 1913 0753 0A       		.uleb128 0xa
 1914 0754 04       		.byte	0x4
 1915 0755 59070000 		.4byte	0x759
 1916 0759 13       		.uleb128 0x13
 1917 075a 5E070000 		.4byte	0x75e
 1918 075e 03       		.uleb128 0x3
 1919 075f 01       		.byte	0x1
 1920 0760 08       		.byte	0x8
 1921 0761 CA050000 		.4byte	.LASF101
 1922 0765 0A       		.uleb128 0xa
 1923 0766 04       		.byte	0x4
 1924 0767 61040000 		.4byte	0x461
 1925 076b 0A       		.uleb128 0xa
 1926 076c 04       		.byte	0x4
 1927 076d 1C030000 		.4byte	0x31c
 1928 0771 14       		.uleb128 0x14
 1929 0772 53070000 		.4byte	0x753
 1930 0776 04       		.uleb128 0x4
 1931 0777 03010000 		.4byte	.LASF102
 1932 077b 0E       		.byte	0xe
 1933 077c 34       		.byte	0x34
 1934 077d 1C070000 		.4byte	0x71c
 1935 0781 0A       		.uleb128 0xa
 1936 0782 04       		.byte	0x4
 1937 0783 76070000 		.4byte	0x776
 1938 0787 03       		.uleb128 0x3
ARM GAS  /tmp/cccI3Zqz.s 			page 35


 1939 0788 01       		.byte	0x1
 1940 0789 02       		.byte	0x2
 1941 078a 00050000 		.4byte	.LASF103
 1942 078e 15       		.uleb128 0x15
 1943 078f 69040000 		.4byte	.LASF107
 1944 0793 03       		.byte	0x3
 1945 0794 0601     		.2byte	0x106
 1946 0796 03       		.byte	0x3
 1947 0797 A8070000 		.4byte	0x7a8
 1948 079b 16       		.uleb128 0x16
 1949 079c 1E020000 		.4byte	.LASF104
 1950 07a0 03       		.byte	0x3
 1951 07a1 0601     		.2byte	0x106
 1952 07a3 AD000000 		.4byte	0xad
 1953 07a7 00       		.byte	0
 1954 07a8 17       		.uleb128 0x17
 1955 07a9 94010000 		.4byte	.LASF109
 1956 07ad 01       		.byte	0x1
 1957 07ae 3F02     		.2byte	0x23f
 1958 07b0 87070000 		.4byte	0x787
 1959 07b4 03       		.byte	0x3
 1960 07b5 C6070000 		.4byte	0x7c6
 1961 07b9 18       		.uleb128 0x18
 1962 07ba 74717000 		.ascii	"tqp\000"
 1963 07be 01       		.byte	0x1
 1964 07bf 3F02     		.2byte	0x23f
 1965 07c1 C6070000 		.4byte	0x7c6
 1966 07c5 00       		.byte	0
 1967 07c6 0A       		.uleb128 0xa
 1968 07c7 04       		.byte	0x4
 1969 07c8 CC070000 		.4byte	0x7cc
 1970 07cc 13       		.uleb128 0x13
 1971 07cd 67020000 		.4byte	0x267
 1972 07d1 19       		.uleb128 0x19
 1973 07d2 7C000000 		.4byte	.LASF105
 1974 07d6 0A       		.byte	0xa
 1975 07d7 5202     		.2byte	0x252
 1976 07d9 03       		.byte	0x3
 1977 07da 19       		.uleb128 0x19
 1978 07db 59010000 		.4byte	.LASF106
 1979 07df 0A       		.byte	0xa
 1980 07e0 6A02     		.2byte	0x26a
 1981 07e2 03       		.byte	0x3
 1982 07e3 15       		.uleb128 0x15
 1983 07e4 71000000 		.4byte	.LASF108
 1984 07e8 01       		.byte	0x1
 1985 07e9 2402     		.2byte	0x224
 1986 07eb 03       		.byte	0x3
 1987 07ec FD070000 		.4byte	0x7fd
 1988 07f0 18       		.uleb128 0x18
 1989 07f1 74717000 		.ascii	"tqp\000"
 1990 07f5 01       		.byte	0x1
 1991 07f6 2402     		.2byte	0x224
 1992 07f8 FD070000 		.4byte	0x7fd
 1993 07fc 00       		.byte	0
 1994 07fd 0A       		.uleb128 0xa
 1995 07fe 04       		.byte	0x4
ARM GAS  /tmp/cccI3Zqz.s 			page 36


 1996 07ff 67020000 		.4byte	0x267
 1997 0803 1A       		.uleb128 0x1a
 1998 0804 BE010000 		.4byte	.LASF118
 1999 0808 02       		.byte	0x2
 2000 0809 1A01     		.2byte	0x11a
 2001 080b 87070000 		.4byte	0x787
 2002 080f 01       		.byte	0x1
 2003 0810 2D080000 		.4byte	0x82d
 2004 0814 18       		.uleb128 0x18
 2005 0815 6D7000   		.ascii	"mp\000"
 2006 0818 02       		.byte	0x2
 2007 0819 1A01     		.2byte	0x11a
 2008 081b 81070000 		.4byte	0x781
 2009 081f 1B       		.uleb128 0x1b
 2010 0820 40050000 		.4byte	.LASF112
 2011 0824 3D080000 		.4byte	0x83d
 2012 0828 BE010000 		.4byte	.LASF118
 2013 082c 00       		.byte	0
 2014 082d 1C       		.uleb128 0x1c
 2015 082e 5E070000 		.4byte	0x75e
 2016 0832 3D080000 		.4byte	0x83d
 2017 0836 1D       		.uleb128 0x1d
 2018 0837 4F040000 		.4byte	0x44f
 2019 083b 0D       		.byte	0xd
 2020 083c 00       		.byte	0
 2021 083d 13       		.uleb128 0x13
 2022 083e 2D080000 		.4byte	0x82d
 2023 0842 1E       		.uleb128 0x1e
 2024 0843 08060000 		.4byte	.LASF110
 2025 0847 0E       		.byte	0xe
 2026 0848 81       		.byte	0x81
 2027 0849 87070000 		.4byte	0x787
 2028 084d 03       		.byte	0x3
 2029 084e 5D080000 		.4byte	0x85d
 2030 0852 1F       		.uleb128 0x1f
 2031 0853 6D7000   		.ascii	"mp\000"
 2032 0856 0E       		.byte	0xe
 2033 0857 81       		.byte	0x81
 2034 0858 81070000 		.4byte	0x781
 2035 085c 00       		.byte	0
 2036 085d 17       		.uleb128 0x17
 2037 085e E3050000 		.4byte	.LASF111
 2038 0862 01       		.byte	0x1
 2039 0863 6902     		.2byte	0x269
 2040 0865 3D020000 		.4byte	0x23d
 2041 0869 03       		.byte	0x3
 2042 086a 86080000 		.4byte	0x886
 2043 086e 18       		.uleb128 0x18
 2044 086f 74717000 		.ascii	"tqp\000"
 2045 0873 01       		.byte	0x1
 2046 0874 6902     		.2byte	0x269
 2047 0876 FD070000 		.4byte	0x7fd
 2048 087a 20       		.uleb128 0x20
 2049 087b 747000   		.ascii	"tp\000"
 2050 087e 01       		.byte	0x1
 2051 087f 6A02     		.2byte	0x26a
 2052 0881 3D020000 		.4byte	0x23d
ARM GAS  /tmp/cccI3Zqz.s 			page 37


 2053 0885 00       		.byte	0
 2054 0886 21       		.uleb128 0x21
 2055 0887 CE060000 		.4byte	.LASF133
 2056 088b 01       		.byte	0x1
 2057 088c 5502     		.2byte	0x255
 2058 088e 00000000 		.4byte	.LFB155
 2059 0892 20000000 		.4byte	.LFE155-.LFB155
 2060 0896 01       		.uleb128 0x1
 2061 0897 9C       		.byte	0x9c
 2062 0898 C9080000 		.4byte	0x8c9
 2063 089c 22       		.uleb128 0x22
 2064 089d 747000   		.ascii	"tp\000"
 2065 08a0 01       		.byte	0x1
 2066 08a1 5502     		.2byte	0x255
 2067 08a3 3D020000 		.4byte	0x23d
 2068 08a7 01       		.uleb128 0x1
 2069 08a8 50       		.byte	0x50
 2070 08a9 23       		.uleb128 0x23
 2071 08aa 74717000 		.ascii	"tqp\000"
 2072 08ae 01       		.byte	0x1
 2073 08af 5502     		.2byte	0x255
 2074 08b1 FD070000 		.4byte	0x7fd
 2075 08b5 00000000 		.4byte	.LLST0
 2076 08b9 24       		.uleb128 0x24
 2077 08ba 637000   		.ascii	"cp\000"
 2078 08bd 01       		.byte	0x1
 2079 08be 5702     		.2byte	0x257
 2080 08c0 3D020000 		.4byte	0x23d
 2081 08c4 21000000 		.4byte	.LLST1
 2082 08c8 00       		.byte	0
 2083 08c9 25       		.uleb128 0x25
 2084 08ca 81040000 		.4byte	.LASF114
 2085 08ce 02       		.byte	0x2
 2086 08cf 67       		.byte	0x67
 2087 08d0 00000000 		.4byte	.LFB246
 2088 08d4 0A000000 		.4byte	.LFE246-.LFB246
 2089 08d8 01       		.uleb128 0x1
 2090 08d9 9C       		.byte	0x9c
 2091 08da 0B090000 		.4byte	0x90b
 2092 08de 26       		.uleb128 0x26
 2093 08df 6D7000   		.ascii	"mp\000"
 2094 08e2 02       		.byte	0x2
 2095 08e3 67       		.byte	0x67
 2096 08e4 81070000 		.4byte	0x781
 2097 08e8 01       		.uleb128 0x1
 2098 08e9 50       		.byte	0x50
 2099 08ea 27       		.uleb128 0x27
 2100 08eb 40050000 		.4byte	.LASF112
 2101 08ef 1B090000 		.4byte	0x91b
 2102 08f3 28       		.uleb128 0x28
 2103 08f4 E3070000 		.4byte	0x7e3
 2104 08f8 02000000 		.4byte	.LBB56
 2105 08fc 04000000 		.4byte	.LBE56-.LBB56
 2106 0900 02       		.byte	0x2
 2107 0901 6B       		.byte	0x6b
 2108 0902 29       		.uleb128 0x29
 2109 0903 F0070000 		.4byte	0x7f0
ARM GAS  /tmp/cccI3Zqz.s 			page 38


 2110 0907 01       		.uleb128 0x1
 2111 0908 50       		.byte	0x50
 2112 0909 00       		.byte	0
 2113 090a 00       		.byte	0
 2114 090b 1C       		.uleb128 0x1c
 2115 090c 5E070000 		.4byte	0x75e
 2116 0910 1B090000 		.4byte	0x91b
 2117 0914 1D       		.uleb128 0x1d
 2118 0915 4F040000 		.4byte	0x44f
 2119 0919 0F       		.byte	0xf
 2120 091a 00       		.byte	0
 2121 091b 13       		.uleb128 0x13
 2122 091c 0B090000 		.4byte	0x90b
 2123 0920 17       		.uleb128 0x17
 2124 0921 7D010000 		.4byte	.LASF113
 2125 0925 01       		.byte	0x1
 2126 0926 7B02     		.2byte	0x27b
 2127 0928 3D020000 		.4byte	0x23d
 2128 092c 03       		.byte	0x3
 2129 092d 3D090000 		.4byte	0x93d
 2130 0931 18       		.uleb128 0x18
 2131 0932 747000   		.ascii	"tp\000"
 2132 0935 01       		.byte	0x1
 2133 0936 7B02     		.2byte	0x27b
 2134 0938 3D020000 		.4byte	0x23d
 2135 093c 00       		.byte	0
 2136 093d 25       		.uleb128 0x25
 2137 093e C3060000 		.4byte	.LASF115
 2138 0942 02       		.byte	0x2
 2139 0943 8B       		.byte	0x8b
 2140 0944 00000000 		.4byte	.LFB248
 2141 0948 84000000 		.4byte	.LFE248-.LFB248
 2142 094c 01       		.uleb128 0x1
 2143 094d 9C       		.byte	0x9c
 2144 094e 490A0000 		.4byte	0xa49
 2145 0952 2A       		.uleb128 0x2a
 2146 0953 6D7000   		.ascii	"mp\000"
 2147 0956 02       		.byte	0x2
 2148 0957 8B       		.byte	0x8b
 2149 0958 81070000 		.4byte	0x781
 2150 095c 3F000000 		.4byte	.LLST2
 2151 0960 2B       		.uleb128 0x2b
 2152 0961 63747000 		.ascii	"ctp\000"
 2153 0965 02       		.byte	0x2
 2154 0966 8C       		.byte	0x8c
 2155 0967 3D020000 		.4byte	0x23d
 2156 096b 76000000 		.4byte	.LLST3
 2157 096f 27       		.uleb128 0x27
 2158 0970 40050000 		.4byte	.LASF112
 2159 0974 590A0000 		.4byte	0xa59
 2160 0978 2C       		.uleb128 0x2c
 2161 0979 00000000 		.4byte	.Ldebug_ranges0+0
 2162 097d 2B       		.uleb128 0x2b
 2163 097e 747000   		.ascii	"tp\000"
 2164 0981 02       		.byte	0x2
 2165 0982 A1       		.byte	0xa1
 2166 0983 3D020000 		.4byte	0x23d
ARM GAS  /tmp/cccI3Zqz.s 			page 39


 2167 0987 94000000 		.4byte	.LLST4
 2168 098b 2D       		.uleb128 0x2d
 2169 098c 20090000 		.4byte	0x920
 2170 0990 26000000 		.4byte	.LBB66
 2171 0994 18000000 		.4byte	.Ldebug_ranges0+0x18
 2172 0998 02       		.byte	0x2
 2173 0999 CA       		.byte	0xca
 2174 099a A8090000 		.4byte	0x9a8
 2175 099e 2E       		.uleb128 0x2e
 2176 099f 31090000 		.4byte	0x931
 2177 09a3 A7000000 		.4byte	.LLST5
 2178 09a7 00       		.byte	0
 2179 09a8 2D       		.uleb128 0x2d
 2180 09a9 20090000 		.4byte	0x920
 2181 09ad 38000000 		.4byte	.LBB70
 2182 09b1 30000000 		.4byte	.Ldebug_ranges0+0x30
 2183 09b5 02       		.byte	0x2
 2184 09b6 AD       		.byte	0xad
 2185 09b7 C5090000 		.4byte	0x9c5
 2186 09bb 2E       		.uleb128 0x2e
 2187 09bc 31090000 		.4byte	0x931
 2188 09c0 BA000000 		.4byte	.LLST6
 2189 09c4 00       		.byte	0
 2190 09c5 2D       		.uleb128 0x2d
 2191 09c6 20090000 		.4byte	0x920
 2192 09ca 50000000 		.4byte	.LBB74
 2193 09ce 48000000 		.4byte	.Ldebug_ranges0+0x48
 2194 09d2 02       		.byte	0x2
 2195 09d3 C1       		.byte	0xc1
 2196 09d4 E2090000 		.4byte	0x9e2
 2197 09d8 2E       		.uleb128 0x2e
 2198 09d9 31090000 		.4byte	0x931
 2199 09dd CD000000 		.4byte	.LLST7
 2200 09e1 00       		.byte	0
 2201 09e2 2F       		.uleb128 0x2f
 2202 09e3 36000000 		.4byte	.LVL10
 2203 09e7 D9110000 		.4byte	0x11d9
 2204 09eb F6090000 		.4byte	0x9f6
 2205 09ef 30       		.uleb128 0x30
 2206 09f0 01       		.uleb128 0x1
 2207 09f1 50       		.byte	0x50
 2208 09f2 02       		.uleb128 0x2
 2209 09f3 74       		.byte	0x74
 2210 09f4 00       		.sleb128 0
 2211 09f5 00       		.byte	0
 2212 09f6 2F       		.uleb128 0x2f
 2213 09f7 4A000000 		.4byte	.LVL12
 2214 09fb 86080000 		.4byte	0x886
 2215 09ff 0A0A0000 		.4byte	0xa0a
 2216 0a03 30       		.uleb128 0x30
 2217 0a04 01       		.uleb128 0x1
 2218 0a05 50       		.byte	0x50
 2219 0a06 02       		.uleb128 0x2
 2220 0a07 74       		.byte	0x74
 2221 0a08 00       		.sleb128 0
 2222 0a09 00       		.byte	0
 2223 0a0a 2F       		.uleb128 0x2f
ARM GAS  /tmp/cccI3Zqz.s 			page 40


 2224 0a0b 62000000 		.4byte	.LVL15
 2225 0a0f 86080000 		.4byte	0x886
 2226 0a13 1E0A0000 		.4byte	0xa1e
 2227 0a17 30       		.uleb128 0x30
 2228 0a18 01       		.uleb128 0x1
 2229 0a19 50       		.byte	0x50
 2230 0a1a 02       		.uleb128 0x2
 2231 0a1b 74       		.byte	0x74
 2232 0a1c 00       		.sleb128 0
 2233 0a1d 00       		.byte	0
 2234 0a1e 2F       		.uleb128 0x2f
 2235 0a1f 6A000000 		.4byte	.LVL16
 2236 0a23 86080000 		.4byte	0x886
 2237 0a27 380A0000 		.4byte	0xa38
 2238 0a2b 30       		.uleb128 0x30
 2239 0a2c 01       		.uleb128 0x1
 2240 0a2d 51       		.byte	0x51
 2241 0a2e 02       		.uleb128 0x2
 2242 0a2f 76       		.byte	0x76
 2243 0a30 00       		.sleb128 0
 2244 0a31 30       		.uleb128 0x30
 2245 0a32 01       		.uleb128 0x1
 2246 0a33 50       		.byte	0x50
 2247 0a34 02       		.uleb128 0x2
 2248 0a35 75       		.byte	0x75
 2249 0a36 00       		.sleb128 0
 2250 0a37 00       		.byte	0
 2251 0a38 31       		.uleb128 0x31
 2252 0a39 76000000 		.4byte	.LVL18
 2253 0a3d EF110000 		.4byte	0x11ef
 2254 0a41 30       		.uleb128 0x30
 2255 0a42 01       		.uleb128 0x1
 2256 0a43 50       		.byte	0x50
 2257 0a44 01       		.uleb128 0x1
 2258 0a45 36       		.byte	0x36
 2259 0a46 00       		.byte	0
 2260 0a47 00       		.byte	0
 2261 0a48 00       		.byte	0
 2262 0a49 1C       		.uleb128 0x1c
 2263 0a4a 5E070000 		.4byte	0x75e
 2264 0a4e 590A0000 		.4byte	0xa59
 2265 0a52 1D       		.uleb128 0x1d
 2266 0a53 4F040000 		.4byte	0x44f
 2267 0a57 0A       		.byte	0xa
 2268 0a58 00       		.byte	0
 2269 0a59 13       		.uleb128 0x13
 2270 0a5a 490A0000 		.4byte	0xa49
 2271 0a5e 19       		.uleb128 0x19
 2272 0a5f 49050000 		.4byte	.LASF116
 2273 0a63 04       		.byte	0x4
 2274 0a64 7601     		.2byte	0x176
 2275 0a66 03       		.byte	0x3
 2276 0a67 15       		.uleb128 0x15
 2277 0a68 B7060000 		.4byte	.LASF117
 2278 0a6c 04       		.byte	0x4
 2279 0a6d 8201     		.2byte	0x182
 2280 0a6f 03       		.byte	0x3
ARM GAS  /tmp/cccI3Zqz.s 			page 41


 2281 0a70 820A0000 		.4byte	0xa82
 2282 0a74 1B       		.uleb128 0x1b
 2283 0a75 40050000 		.4byte	.LASF112
 2284 0a79 920A0000 		.4byte	0xa92
 2285 0a7d B7060000 		.4byte	.LASF117
 2286 0a81 00       		.byte	0
 2287 0a82 1C       		.uleb128 0x1c
 2288 0a83 5E070000 		.4byte	0x75e
 2289 0a87 920A0000 		.4byte	0xa92
 2290 0a8b 1D       		.uleb128 0x1d
 2291 0a8c 4F040000 		.4byte	0x44f
 2292 0a90 0B       		.byte	0xb
 2293 0a91 00       		.byte	0
 2294 0a92 13       		.uleb128 0x13
 2295 0a93 820A0000 		.4byte	0xa82
 2296 0a97 25       		.uleb128 0x25
 2297 0a98 77040000 		.4byte	.LASF119
 2298 0a9c 02       		.byte	0x2
 2299 0a9d 7B       		.byte	0x7b
 2300 0a9e 00000000 		.4byte	.LFB247
 2301 0aa2 20000000 		.4byte	.LFE247-.LFB247
 2302 0aa6 01       		.uleb128 0x1
 2303 0aa7 9C       		.byte	0x9c
 2304 0aa8 6C0B0000 		.4byte	0xb6c
 2305 0aac 2A       		.uleb128 0x2a
 2306 0aad 6D7000   		.ascii	"mp\000"
 2307 0ab0 02       		.byte	0x2
 2308 0ab1 7B       		.byte	0x7b
 2309 0ab2 81070000 		.4byte	0x781
 2310 0ab6 E0000000 		.4byte	.LLST8
 2311 0aba 2D       		.uleb128 0x2d
 2312 0abb 5E0A0000 		.4byte	0xa5e
 2313 0abf 02000000 		.4byte	.LBB89
 2314 0ac3 60000000 		.4byte	.Ldebug_ranges0+0x60
 2315 0ac7 02       		.byte	0x2
 2316 0ac8 7D       		.byte	0x7d
 2317 0ac9 030B0000 		.4byte	0xb03
 2318 0acd 32       		.uleb128 0x32
 2319 0ace D1070000 		.4byte	0x7d1
 2320 0ad2 02000000 		.4byte	.LBB91
 2321 0ad6 78000000 		.4byte	.Ldebug_ranges0+0x78
 2322 0ada 04       		.byte	0x4
 2323 0adb 7801     		.2byte	0x178
 2324 0add F90A0000 		.4byte	0xaf9
 2325 0ae1 33       		.uleb128 0x33
 2326 0ae2 8E070000 		.4byte	0x78e
 2327 0ae6 02000000 		.4byte	.LBB92
 2328 0aea 78000000 		.4byte	.Ldebug_ranges0+0x78
 2329 0aee 0A       		.byte	0xa
 2330 0aef 5A02     		.2byte	0x25a
 2331 0af1 34       		.uleb128 0x34
 2332 0af2 9B070000 		.4byte	0x79b
 2333 0af6 20       		.byte	0x20
 2334 0af7 00       		.byte	0
 2335 0af8 00       		.byte	0
 2336 0af9 35       		.uleb128 0x35
 2337 0afa 0E000000 		.4byte	.LVL21
ARM GAS  /tmp/cccI3Zqz.s 			page 42


 2338 0afe 01120000 		.4byte	0x1201
 2339 0b02 00       		.byte	0
 2340 0b03 36       		.uleb128 0x36
 2341 0b04 670A0000 		.4byte	0xa67
 2342 0b08 14000000 		.4byte	.LBB99
 2343 0b0c 0C000000 		.4byte	.LBE99-.LBB99
 2344 0b10 02       		.byte	0x2
 2345 0b11 7F       		.byte	0x7f
 2346 0b12 5B0B0000 		.4byte	0xb5b
 2347 0b16 37       		.uleb128 0x37
 2348 0b17 14000000 		.4byte	.LBB100
 2349 0b1b 0C000000 		.4byte	.LBE100-.LBB100
 2350 0b1f 38       		.uleb128 0x38
 2351 0b20 740A0000 		.4byte	0xa74
 2352 0b24 39       		.uleb128 0x39
 2353 0b25 DA070000 		.4byte	0x7da
 2354 0b29 18000000 		.4byte	.LBB101
 2355 0b2d 08000000 		.4byte	.LBE101-.LBB101
 2356 0b31 04       		.byte	0x4
 2357 0b32 8F01     		.2byte	0x18f
 2358 0b34 500B0000 		.4byte	0xb50
 2359 0b38 3A       		.uleb128 0x3a
 2360 0b39 8E070000 		.4byte	0x78e
 2361 0b3d 18000000 		.4byte	.LBB102
 2362 0b41 08000000 		.4byte	.LBE102-.LBB102
 2363 0b45 0A       		.byte	0xa
 2364 0b46 6D02     		.2byte	0x26d
 2365 0b48 34       		.uleb128 0x34
 2366 0b49 9B070000 		.4byte	0x79b
 2367 0b4d 00       		.byte	0
 2368 0b4e 00       		.byte	0
 2369 0b4f 00       		.byte	0
 2370 0b50 35       		.uleb128 0x35
 2371 0b51 18000000 		.4byte	.LVL23
 2372 0b55 08120000 		.4byte	0x1208
 2373 0b59 00       		.byte	0
 2374 0b5a 00       		.byte	0
 2375 0b5b 3B       		.uleb128 0x3b
 2376 0b5c 14000000 		.4byte	.LVL22
 2377 0b60 3D090000 		.4byte	0x93d
 2378 0b64 30       		.uleb128 0x30
 2379 0b65 01       		.uleb128 0x1
 2380 0b66 50       		.byte	0x50
 2381 0b67 02       		.uleb128 0x2
 2382 0b68 74       		.byte	0x74
 2383 0b69 00       		.sleb128 0
 2384 0b6a 00       		.byte	0
 2385 0b6b 00       		.byte	0
 2386 0b6c 3C       		.uleb128 0x3c
 2387 0b6d 03080000 		.4byte	0x803
 2388 0b71 00000000 		.4byte	.LFB250
 2389 0b75 1C000000 		.4byte	.LFE250-.LFB250
 2390 0b79 01       		.uleb128 0x1
 2391 0b7a 9C       		.byte	0x9c
 2392 0b7b B00B0000 		.4byte	0xbb0
 2393 0b7f 2E       		.uleb128 0x2e
 2394 0b80 14080000 		.4byte	0x814
ARM GAS  /tmp/cccI3Zqz.s 			page 43


 2395 0b84 FE000000 		.4byte	.LLST9
 2396 0b88 38       		.uleb128 0x38
 2397 0b89 1F080000 		.4byte	0x81f
 2398 0b8d 37       		.uleb128 0x37
 2399 0b8e 04000000 		.4byte	.LBB106
 2400 0b92 10000000 		.4byte	.LBE106-.LBB106
 2401 0b96 2E       		.uleb128 0x2e
 2402 0b97 14080000 		.4byte	0x814
 2403 0b9b 36010000 		.4byte	.LLST10
 2404 0b9f 37       		.uleb128 0x37
 2405 0ba0 04000000 		.4byte	.LBB107
 2406 0ba4 10000000 		.4byte	.LBE107-.LBB107
 2407 0ba8 38       		.uleb128 0x38
 2408 0ba9 1F080000 		.4byte	0x81f
 2409 0bad 00       		.byte	0
 2410 0bae 00       		.byte	0
 2411 0baf 00       		.byte	0
 2412 0bb0 3D       		.uleb128 0x3d
 2413 0bb1 E8030000 		.4byte	.LASF134
 2414 0bb5 02       		.byte	0x2
 2415 0bb6 FF       		.byte	0xff
 2416 0bb7 87070000 		.4byte	0x787
 2417 0bbb 00000000 		.4byte	.LFB249
 2418 0bbf 24000000 		.4byte	.LFE249-.LFB249
 2419 0bc3 01       		.uleb128 0x1
 2420 0bc4 9C       		.byte	0x9c
 2421 0bc5 970C0000 		.4byte	0xc97
 2422 0bc9 2A       		.uleb128 0x2a
 2423 0bca 6D7000   		.ascii	"mp\000"
 2424 0bcd 02       		.byte	0x2
 2425 0bce FF       		.byte	0xff
 2426 0bcf 81070000 		.4byte	0x781
 2427 0bd3 55010000 		.4byte	.LLST11
 2428 0bd7 3E       		.uleb128 0x3e
 2429 0bd8 6200     		.ascii	"b\000"
 2430 0bda 02       		.byte	0x2
 2431 0bdb 0001     		.2byte	0x100
 2432 0bdd 87070000 		.4byte	0x787
 2433 0be1 01       		.uleb128 0x1
 2434 0be2 54       		.byte	0x54
 2435 0be3 32       		.uleb128 0x32
 2436 0be4 5E0A0000 		.4byte	0xa5e
 2437 0be8 02000000 		.4byte	.LBB118
 2438 0bec 90000000 		.4byte	.Ldebug_ranges0+0x90
 2439 0bf0 02       		.byte	0x2
 2440 0bf1 0201     		.2byte	0x102
 2441 0bf3 2D0C0000 		.4byte	0xc2d
 2442 0bf7 32       		.uleb128 0x32
 2443 0bf8 D1070000 		.4byte	0x7d1
 2444 0bfc 02000000 		.4byte	.LBB120
 2445 0c00 A8000000 		.4byte	.Ldebug_ranges0+0xa8
 2446 0c04 04       		.byte	0x4
 2447 0c05 7801     		.2byte	0x178
 2448 0c07 230C0000 		.4byte	0xc23
 2449 0c0b 33       		.uleb128 0x33
 2450 0c0c 8E070000 		.4byte	0x78e
 2451 0c10 02000000 		.4byte	.LBB121
ARM GAS  /tmp/cccI3Zqz.s 			page 44


 2452 0c14 A8000000 		.4byte	.Ldebug_ranges0+0xa8
 2453 0c18 0A       		.byte	0xa
 2454 0c19 5A02     		.2byte	0x25a
 2455 0c1b 34       		.uleb128 0x34
 2456 0c1c 9B070000 		.4byte	0x79b
 2457 0c20 20       		.byte	0x20
 2458 0c21 00       		.byte	0
 2459 0c22 00       		.byte	0
 2460 0c23 35       		.uleb128 0x35
 2461 0c24 0E000000 		.4byte	.LVL30
 2462 0c28 01120000 		.4byte	0x1201
 2463 0c2c 00       		.byte	0
 2464 0c2d 39       		.uleb128 0x39
 2465 0c2e 670A0000 		.4byte	0xa67
 2466 0c32 16000000 		.4byte	.LBB128
 2467 0c36 0A000000 		.4byte	.LBE128-.LBB128
 2468 0c3a 02       		.byte	0x2
 2469 0c3b 0401     		.2byte	0x104
 2470 0c3d 860C0000 		.4byte	0xc86
 2471 0c41 37       		.uleb128 0x37
 2472 0c42 16000000 		.4byte	.LBB129
 2473 0c46 0A000000 		.4byte	.LBE129-.LBB129
 2474 0c4a 38       		.uleb128 0x38
 2475 0c4b 740A0000 		.4byte	0xa74
 2476 0c4f 39       		.uleb128 0x39
 2477 0c50 DA070000 		.4byte	0x7da
 2478 0c54 1A000000 		.4byte	.LBB130
 2479 0c58 06000000 		.4byte	.LBE130-.LBB130
 2480 0c5c 04       		.byte	0x4
 2481 0c5d 8F01     		.2byte	0x18f
 2482 0c5f 7B0C0000 		.4byte	0xc7b
 2483 0c63 3A       		.uleb128 0x3a
 2484 0c64 8E070000 		.4byte	0x78e
 2485 0c68 1A000000 		.4byte	.LBB131
 2486 0c6c 06000000 		.4byte	.LBE131-.LBB131
 2487 0c70 0A       		.byte	0xa
 2488 0c71 6D02     		.2byte	0x26d
 2489 0c73 34       		.uleb128 0x34
 2490 0c74 9B070000 		.4byte	0x79b
 2491 0c78 00       		.byte	0
 2492 0c79 00       		.byte	0
 2493 0c7a 00       		.byte	0
 2494 0c7b 35       		.uleb128 0x35
 2495 0c7c 1A000000 		.4byte	.LVL33
 2496 0c80 08120000 		.4byte	0x1208
 2497 0c84 00       		.byte	0
 2498 0c85 00       		.byte	0
 2499 0c86 3B       		.uleb128 0x3b
 2500 0c87 14000000 		.4byte	.LVL31
 2501 0c8b 03080000 		.4byte	0x803
 2502 0c8f 30       		.uleb128 0x30
 2503 0c90 01       		.uleb128 0x1
 2504 0c91 50       		.byte	0x50
 2505 0c92 02       		.uleb128 0x2
 2506 0c93 74       		.byte	0x74
 2507 0c94 00       		.sleb128 0
 2508 0c95 00       		.byte	0
ARM GAS  /tmp/cccI3Zqz.s 			page 45


 2509 0c96 00       		.byte	0
 2510 0c97 3F       		.uleb128 0x3f
 2511 0c98 0B010000 		.4byte	.LASF120
 2512 0c9c 02       		.byte	0x2
 2513 0c9d 4301     		.2byte	0x143
 2514 0c9f 00000000 		.4byte	.LFB251
 2515 0ca3 60000000 		.4byte	.LFE251-.LFB251
 2516 0ca7 01       		.uleb128 0x1
 2517 0ca8 9C       		.byte	0x9c
 2518 0ca9 5B0E0000 		.4byte	0xe5b
 2519 0cad 23       		.uleb128 0x23
 2520 0cae 6D7000   		.ascii	"mp\000"
 2521 0cb1 02       		.byte	0x2
 2522 0cb2 4301     		.2byte	0x143
 2523 0cb4 81070000 		.4byte	0x781
 2524 0cb8 81010000 		.4byte	.LLST12
 2525 0cbc 24       		.uleb128 0x24
 2526 0cbd 63747000 		.ascii	"ctp\000"
 2527 0cc1 02       		.byte	0x2
 2528 0cc2 4401     		.2byte	0x144
 2529 0cc4 3D020000 		.4byte	0x23d
 2530 0cc8 AD010000 		.4byte	.LLST13
 2531 0ccc 24       		.uleb128 0x24
 2532 0ccd 6C6D7000 		.ascii	"lmp\000"
 2533 0cd1 02       		.byte	0x2
 2534 0cd2 4501     		.2byte	0x145
 2535 0cd4 81070000 		.4byte	0x781
 2536 0cd8 C0010000 		.4byte	.LLST14
 2537 0cdc 27       		.uleb128 0x27
 2538 0cdd 40050000 		.4byte	.LASF112
 2539 0ce1 5B0E0000 		.4byte	0xe5b
 2540 0ce5 39       		.uleb128 0x39
 2541 0ce6 5E0A0000 		.4byte	0xa5e
 2542 0cea 08000000 		.4byte	.LBB154
 2543 0cee 0A000000 		.4byte	.LBE154-.LBB154
 2544 0cf2 02       		.byte	0x2
 2545 0cf3 4901     		.2byte	0x149
 2546 0cf5 2F0D0000 		.4byte	0xd2f
 2547 0cf9 39       		.uleb128 0x39
 2548 0cfa D1070000 		.4byte	0x7d1
 2549 0cfe 08000000 		.4byte	.LBB156
 2550 0d02 06000000 		.4byte	.LBE156-.LBB156
 2551 0d06 04       		.byte	0x4
 2552 0d07 7801     		.2byte	0x178
 2553 0d09 250D0000 		.4byte	0xd25
 2554 0d0d 3A       		.uleb128 0x3a
 2555 0d0e 8E070000 		.4byte	0x78e
 2556 0d12 08000000 		.4byte	.LBB157
 2557 0d16 06000000 		.4byte	.LBE157-.LBB157
 2558 0d1a 0A       		.byte	0xa
 2559 0d1b 5A02     		.2byte	0x25a
 2560 0d1d 34       		.uleb128 0x34
 2561 0d1e 9B070000 		.4byte	0x79b
 2562 0d22 20       		.byte	0x20
 2563 0d23 00       		.byte	0
 2564 0d24 00       		.byte	0
 2565 0d25 35       		.uleb128 0x35
ARM GAS  /tmp/cccI3Zqz.s 			page 46


 2566 0d26 12000000 		.4byte	.LVL36
 2567 0d2a 01120000 		.4byte	0x1201
 2568 0d2e 00       		.byte	0
 2569 0d2f 39       		.uleb128 0x39
 2570 0d30 42080000 		.4byte	0x842
 2571 0d34 12000000 		.4byte	.LBB159
 2572 0d38 02000000 		.4byte	.LBE159-.LBB159
 2573 0d3c 02       		.byte	0x2
 2574 0d3d 5B01     		.2byte	0x15b
 2575 0d3f 660D0000 		.4byte	0xd66
 2576 0d43 2E       		.uleb128 0x2e
 2577 0d44 52080000 		.4byte	0x852
 2578 0d48 D3010000 		.4byte	.LLST15
 2579 0d4c 28       		.uleb128 0x28
 2580 0d4d A8070000 		.4byte	0x7a8
 2581 0d51 12000000 		.4byte	.LBB161
 2582 0d55 02000000 		.4byte	.LBE161-.LBB161
 2583 0d59 0E       		.byte	0xe
 2584 0d5a 85       		.byte	0x85
 2585 0d5b 2E       		.uleb128 0x2e
 2586 0d5c B9070000 		.4byte	0x7b9
 2587 0d60 D3010000 		.4byte	.LLST15
 2588 0d64 00       		.byte	0
 2589 0d65 00       		.byte	0
 2590 0d66 40       		.uleb128 0x40
 2591 0d67 1C000000 		.4byte	.LBB163
 2592 0d6b 2E000000 		.4byte	.LBE163-.LBB163
 2593 0d6f 050E0000 		.4byte	0xe05
 2594 0d73 20       		.uleb128 0x20
 2595 0d74 747000   		.ascii	"tp\000"
 2596 0d77 02       		.byte	0x2
 2597 0d78 5C01     		.2byte	0x15c
 2598 0d7a 3D020000 		.4byte	0x23d
 2599 0d7e 41       		.uleb128 0x41
 2600 0d7f B3030000 		.4byte	.LASF121
 2601 0d83 02       		.byte	0x2
 2602 0d84 6001     		.2byte	0x160
 2603 0d86 FA000000 		.4byte	0xfa
 2604 0d8a F4010000 		.4byte	.LLST17
 2605 0d8e 39       		.uleb128 0x39
 2606 0d8f 42080000 		.4byte	0x842
 2607 0d93 20000000 		.4byte	.LBB164
 2608 0d97 02000000 		.4byte	.LBE164-.LBB164
 2609 0d9b 02       		.byte	0x2
 2610 0d9c 6601     		.2byte	0x166
 2611 0d9e C50D0000 		.4byte	0xdc5
 2612 0da2 2E       		.uleb128 0x2e
 2613 0da3 52080000 		.4byte	0x852
 2614 0da7 07020000 		.4byte	.LLST18
 2615 0dab 28       		.uleb128 0x28
 2616 0dac A8070000 		.4byte	0x7a8
 2617 0db0 20000000 		.4byte	.LBB166
 2618 0db4 02000000 		.4byte	.LBE166-.LBB166
 2619 0db8 0E       		.byte	0xe
 2620 0db9 85       		.byte	0x85
 2621 0dba 2E       		.uleb128 0x2e
 2622 0dbb B9070000 		.4byte	0x7b9
ARM GAS  /tmp/cccI3Zqz.s 			page 47


 2623 0dbf 07020000 		.4byte	.LLST18
 2624 0dc3 00       		.byte	0
 2625 0dc4 00       		.byte	0
 2626 0dc5 32       		.uleb128 0x32
 2627 0dc6 5D080000 		.4byte	0x85d
 2628 0dca 32000000 		.4byte	.LBB168
 2629 0dce C0000000 		.4byte	.Ldebug_ranges0+0xc0
 2630 0dd2 02       		.byte	0x2
 2631 0dd3 7601     		.2byte	0x176
 2632 0dd5 F20D0000 		.4byte	0xdf2
 2633 0dd9 2E       		.uleb128 0x2e
 2634 0dda 6E080000 		.4byte	0x86e
 2635 0dde 1A020000 		.4byte	.LLST20
 2636 0de2 2C       		.uleb128 0x2c
 2637 0de3 C0000000 		.4byte	.Ldebug_ranges0+0xc0
 2638 0de7 42       		.uleb128 0x42
 2639 0de8 7A080000 		.4byte	0x87a
 2640 0dec 2D020000 		.4byte	.LLST21
 2641 0df0 00       		.byte	0
 2642 0df1 00       		.byte	0
 2643 0df2 35       		.uleb128 0x35
 2644 0df3 46000000 		.4byte	.LVL44
 2645 0df7 D9110000 		.4byte	0x11d9
 2646 0dfb 35       		.uleb128 0x35
 2647 0dfc 4A000000 		.4byte	.LVL45
 2648 0e00 0F120000 		.4byte	0x120f
 2649 0e04 00       		.byte	0
 2650 0e05 3A       		.uleb128 0x3a
 2651 0e06 670A0000 		.4byte	0xa67
 2652 0e0a 50000000 		.4byte	.LBB172
 2653 0e0e 10000000 		.4byte	.LBE172-.LBB172
 2654 0e12 02       		.byte	0x2
 2655 0e13 8901     		.2byte	0x189
 2656 0e15 37       		.uleb128 0x37
 2657 0e16 50000000 		.4byte	.LBB173
 2658 0e1a 10000000 		.4byte	.LBE173-.LBB173
 2659 0e1e 38       		.uleb128 0x38
 2660 0e1f 740A0000 		.4byte	0xa74
 2661 0e23 39       		.uleb128 0x39
 2662 0e24 DA070000 		.4byte	0x7da
 2663 0e28 54000000 		.4byte	.LBB174
 2664 0e2c 0C000000 		.4byte	.LBE174-.LBB174
 2665 0e30 04       		.byte	0x4
 2666 0e31 8F01     		.2byte	0x18f
 2667 0e33 4F0E0000 		.4byte	0xe4f
 2668 0e37 3A       		.uleb128 0x3a
 2669 0e38 8E070000 		.4byte	0x78e
 2670 0e3c 54000000 		.4byte	.LBB175
 2671 0e40 0C000000 		.4byte	.LBE175-.LBB175
 2672 0e44 0A       		.byte	0xa
 2673 0e45 6D02     		.2byte	0x26d
 2674 0e47 34       		.uleb128 0x34
 2675 0e48 9B070000 		.4byte	0x79b
 2676 0e4c 00       		.byte	0
 2677 0e4d 00       		.byte	0
 2678 0e4e 00       		.byte	0
 2679 0e4f 35       		.uleb128 0x35
ARM GAS  /tmp/cccI3Zqz.s 			page 48


 2680 0e50 54000000 		.4byte	.LVL47
 2681 0e54 08120000 		.4byte	0x1208
 2682 0e58 00       		.byte	0
 2683 0e59 00       		.byte	0
 2684 0e5a 00       		.byte	0
 2685 0e5b 13       		.uleb128 0x13
 2686 0e5c 820A0000 		.4byte	0xa82
 2687 0e60 3F       		.uleb128 0x3f
 2688 0e61 2A020000 		.4byte	.LASF122
 2689 0e65 02       		.byte	0x2
 2690 0e66 9A01     		.2byte	0x19a
 2691 0e68 00000000 		.4byte	.LFB252
 2692 0e6c 4C000000 		.4byte	.LFE252-.LFB252
 2693 0e70 01       		.uleb128 0x1
 2694 0e71 9C       		.byte	0x9c
 2695 0e72 6C0F0000 		.4byte	0xf6c
 2696 0e76 23       		.uleb128 0x23
 2697 0e77 6D7000   		.ascii	"mp\000"
 2698 0e7a 02       		.byte	0x2
 2699 0e7b 9A01     		.2byte	0x19a
 2700 0e7d 81070000 		.4byte	0x781
 2701 0e81 40020000 		.4byte	.LLST22
 2702 0e85 24       		.uleb128 0x24
 2703 0e86 63747000 		.ascii	"ctp\000"
 2704 0e8a 02       		.byte	0x2
 2705 0e8b 9B01     		.2byte	0x19b
 2706 0e8d 3D020000 		.4byte	0x23d
 2707 0e91 85020000 		.4byte	.LLST23
 2708 0e95 24       		.uleb128 0x24
 2709 0e96 6C6D7000 		.ascii	"lmp\000"
 2710 0e9a 02       		.byte	0x2
 2711 0e9b 9C01     		.2byte	0x19c
 2712 0e9d 81070000 		.4byte	0x781
 2713 0ea1 A3020000 		.4byte	.LLST24
 2714 0ea5 27       		.uleb128 0x27
 2715 0ea6 40050000 		.4byte	.LASF112
 2716 0eaa 7C0F0000 		.4byte	0xf7c
 2717 0eae 39       		.uleb128 0x39
 2718 0eaf 42080000 		.4byte	0x842
 2719 0eb3 08000000 		.4byte	.LBB177
 2720 0eb7 02000000 		.4byte	.LBE177-.LBB177
 2721 0ebb 02       		.byte	0x2
 2722 0ebc B101     		.2byte	0x1b1
 2723 0ebe DD0E0000 		.4byte	0xedd
 2724 0ec2 43       		.uleb128 0x43
 2725 0ec3 52080000 		.4byte	0x852
 2726 0ec7 28       		.uleb128 0x28
 2727 0ec8 A8070000 		.4byte	0x7a8
 2728 0ecc 08000000 		.4byte	.LBB179
 2729 0ed0 02000000 		.4byte	.LBE179-.LBB179
 2730 0ed4 0E       		.byte	0xe
 2731 0ed5 85       		.byte	0x85
 2732 0ed6 43       		.uleb128 0x43
 2733 0ed7 B9070000 		.4byte	0x7b9
 2734 0edb 00       		.byte	0
 2735 0edc 00       		.byte	0
 2736 0edd 2C       		.uleb128 0x2c
ARM GAS  /tmp/cccI3Zqz.s 			page 49


 2737 0ede D8000000 		.4byte	.Ldebug_ranges0+0xd8
 2738 0ee2 20       		.uleb128 0x20
 2739 0ee3 747000   		.ascii	"tp\000"
 2740 0ee6 02       		.byte	0x2
 2741 0ee7 B201     		.2byte	0x1b2
 2742 0ee9 3D020000 		.4byte	0x23d
 2743 0eed 41       		.uleb128 0x41
 2744 0eee B3030000 		.4byte	.LASF121
 2745 0ef2 02       		.byte	0x2
 2746 0ef3 B601     		.2byte	0x1b6
 2747 0ef5 FA000000 		.4byte	0xfa
 2748 0ef9 B6020000 		.4byte	.LLST25
 2749 0efd 39       		.uleb128 0x39
 2750 0efe 42080000 		.4byte	0x842
 2751 0f02 16000000 		.4byte	.LBB182
 2752 0f06 02000000 		.4byte	.LBE182-.LBB182
 2753 0f0a 02       		.byte	0x2
 2754 0f0b BC01     		.2byte	0x1bc
 2755 0f0d 340F0000 		.4byte	0xf34
 2756 0f11 2E       		.uleb128 0x2e
 2757 0f12 52080000 		.4byte	0x852
 2758 0f16 D5020000 		.4byte	.LLST26
 2759 0f1a 28       		.uleb128 0x28
 2760 0f1b A8070000 		.4byte	0x7a8
 2761 0f1f 16000000 		.4byte	.LBB184
 2762 0f23 02000000 		.4byte	.LBE184-.LBB184
 2763 0f27 0E       		.byte	0xe
 2764 0f28 85       		.byte	0x85
 2765 0f29 2E       		.uleb128 0x2e
 2766 0f2a B9070000 		.4byte	0x7b9
 2767 0f2e D5020000 		.4byte	.LLST26
 2768 0f32 00       		.byte	0
 2769 0f33 00       		.byte	0
 2770 0f34 32       		.uleb128 0x32
 2771 0f35 5D080000 		.4byte	0x85d
 2772 0f39 28000000 		.4byte	.LBB186
 2773 0f3d F0000000 		.4byte	.Ldebug_ranges0+0xf0
 2774 0f41 02       		.byte	0x2
 2775 0f42 CC01     		.2byte	0x1cc
 2776 0f44 610F0000 		.4byte	0xf61
 2777 0f48 2E       		.uleb128 0x2e
 2778 0f49 6E080000 		.4byte	0x86e
 2779 0f4d E8020000 		.4byte	.LLST28
 2780 0f51 2C       		.uleb128 0x2c
 2781 0f52 F0000000 		.4byte	.Ldebug_ranges0+0xf0
 2782 0f56 42       		.uleb128 0x42
 2783 0f57 7A080000 		.4byte	0x87a
 2784 0f5b 09030000 		.4byte	.LLST29
 2785 0f5f 00       		.byte	0
 2786 0f60 00       		.byte	0
 2787 0f61 44       		.uleb128 0x44
 2788 0f62 40000000 		.4byte	.LVL59
 2789 0f66 D9110000 		.4byte	0x11d9
 2790 0f6a 00       		.byte	0
 2791 0f6b 00       		.byte	0
 2792 0f6c 1C       		.uleb128 0x1c
 2793 0f6d 5E070000 		.4byte	0x75e
ARM GAS  /tmp/cccI3Zqz.s 			page 50


 2794 0f71 7C0F0000 		.4byte	0xf7c
 2795 0f75 1D       		.uleb128 0x1d
 2796 0f76 4F040000 		.4byte	0x44f
 2797 0f7a 0C       		.byte	0xc
 2798 0f7b 00       		.byte	0
 2799 0f7c 13       		.uleb128 0x13
 2800 0f7d 6C0F0000 		.4byte	0xf6c
 2801 0f81 3F       		.uleb128 0x3f
 2802 0f82 A3010000 		.4byte	.LASF123
 2803 0f86 02       		.byte	0x2
 2804 0f87 E701     		.2byte	0x1e7
 2805 0f89 00000000 		.4byte	.LFB253
 2806 0f8d 38000000 		.4byte	.LFE253-.LFB253
 2807 0f91 01       		.uleb128 0x1
 2808 0f92 9C       		.byte	0x9c
 2809 0f93 47100000 		.4byte	0x1047
 2810 0f97 24       		.uleb128 0x24
 2811 0f98 63747000 		.ascii	"ctp\000"
 2812 0f9c 02       		.byte	0x2
 2813 0f9d E801     		.2byte	0x1e8
 2814 0f9f 3D020000 		.4byte	0x23d
 2815 0fa3 1C030000 		.4byte	.LLST30
 2816 0fa7 37       		.uleb128 0x37
 2817 0fa8 0A000000 		.4byte	.LBB191
 2818 0fac 24000000 		.4byte	.LBE191-.LBB191
 2819 0fb0 24       		.uleb128 0x24
 2820 0fb1 6D7000   		.ascii	"mp\000"
 2821 0fb4 02       		.byte	0x2
 2822 0fb5 EB01     		.2byte	0x1eb
 2823 0fb7 81070000 		.4byte	0x781
 2824 0fbb 2F030000 		.4byte	.LLST31
 2825 0fbf 39       		.uleb128 0x39
 2826 0fc0 42080000 		.4byte	0x842
 2827 0fc4 0A000000 		.4byte	.LBB192
 2828 0fc8 02000000 		.4byte	.LBE192-.LBB192
 2829 0fcc 02       		.byte	0x2
 2830 0fcd ED01     		.2byte	0x1ed
 2831 0fcf F60F0000 		.4byte	0xff6
 2832 0fd3 2E       		.uleb128 0x2e
 2833 0fd4 52080000 		.4byte	0x852
 2834 0fd8 4D030000 		.4byte	.LLST32
 2835 0fdc 28       		.uleb128 0x28
 2836 0fdd A8070000 		.4byte	0x7a8
 2837 0fe1 0A000000 		.4byte	.LBB194
 2838 0fe5 02000000 		.4byte	.LBE194-.LBB194
 2839 0fe9 0E       		.byte	0xe
 2840 0fea 85       		.byte	0x85
 2841 0feb 2E       		.uleb128 0x2e
 2842 0fec B9070000 		.4byte	0x7b9
 2843 0ff0 4D030000 		.4byte	.LLST32
 2844 0ff4 00       		.byte	0
 2845 0ff5 00       		.byte	0
 2846 0ff6 37       		.uleb128 0x37
 2847 0ff7 14000000 		.4byte	.LBB196
 2848 0ffb 12000000 		.4byte	.LBE196-.LBB196
 2849 0fff 20       		.uleb128 0x20
 2850 1000 747000   		.ascii	"tp\000"
ARM GAS  /tmp/cccI3Zqz.s 			page 51


 2851 1003 02       		.byte	0x2
 2852 1004 F101     		.2byte	0x1f1
 2853 1006 3D020000 		.4byte	0x23d
 2854 100a 39       		.uleb128 0x39
 2855 100b 5D080000 		.4byte	0x85d
 2856 100f 14000000 		.4byte	.LBB197
 2857 1013 06000000 		.4byte	.LBE197-.LBB197
 2858 1017 02       		.byte	0x2
 2859 1018 F101     		.2byte	0x1f1
 2860 101a 3B100000 		.4byte	0x103b
 2861 101e 2E       		.uleb128 0x2e
 2862 101f 6E080000 		.4byte	0x86e
 2863 1023 6B030000 		.4byte	.LLST34
 2864 1027 37       		.uleb128 0x37
 2865 1028 14000000 		.4byte	.LBB198
 2866 102c 06000000 		.4byte	.LBE198-.LBB198
 2867 1030 42       		.uleb128 0x42
 2868 1031 7A080000 		.4byte	0x87a
 2869 1035 7E030000 		.4byte	.LLST35
 2870 1039 00       		.byte	0
 2871 103a 00       		.byte	0
 2872 103b 35       		.uleb128 0x35
 2873 103c 26000000 		.4byte	.LVL65
 2874 1040 D9110000 		.4byte	0x11d9
 2875 1044 00       		.byte	0
 2876 1045 00       		.byte	0
 2877 1046 00       		.byte	0
 2878 1047 3F       		.uleb128 0x3f
 2879 1048 A4030000 		.4byte	.LASF124
 2880 104c 02       		.byte	0x2
 2881 104d 0C02     		.2byte	0x20c
 2882 104f 00000000 		.4byte	.LFB254
 2883 1053 58000000 		.4byte	.LFE254-.LFB254
 2884 1057 01       		.uleb128 0x1
 2885 1058 9C       		.byte	0x9c
 2886 1059 BD110000 		.4byte	0x11bd
 2887 105d 24       		.uleb128 0x24
 2888 105e 63747000 		.ascii	"ctp\000"
 2889 1062 02       		.byte	0x2
 2890 1063 0D02     		.2byte	0x20d
 2891 1065 3D020000 		.4byte	0x23d
 2892 1069 91030000 		.4byte	.LLST36
 2893 106d 39       		.uleb128 0x39
 2894 106e 5E0A0000 		.4byte	0xa5e
 2895 1072 06000000 		.4byte	.LBB217
 2896 1076 0A000000 		.4byte	.LBE217-.LBB217
 2897 107a 02       		.byte	0x2
 2898 107b 0F02     		.2byte	0x20f
 2899 107d B7100000 		.4byte	0x10b7
 2900 1081 39       		.uleb128 0x39
 2901 1082 D1070000 		.4byte	0x7d1
 2902 1086 06000000 		.4byte	.LBB219
 2903 108a 06000000 		.4byte	.LBE219-.LBB219
 2904 108e 04       		.byte	0x4
 2905 108f 7801     		.2byte	0x178
 2906 1091 AD100000 		.4byte	0x10ad
 2907 1095 3A       		.uleb128 0x3a
ARM GAS  /tmp/cccI3Zqz.s 			page 52


 2908 1096 8E070000 		.4byte	0x78e
 2909 109a 06000000 		.4byte	.LBB220
 2910 109e 06000000 		.4byte	.LBE220-.LBB220
 2911 10a2 0A       		.byte	0xa
 2912 10a3 5A02     		.2byte	0x25a
 2913 10a5 34       		.uleb128 0x34
 2914 10a6 9B070000 		.4byte	0x79b
 2915 10aa 20       		.byte	0x20
 2916 10ab 00       		.byte	0
 2917 10ac 00       		.byte	0
 2918 10ad 35       		.uleb128 0x35
 2919 10ae 10000000 		.4byte	.LVL70
 2920 10b2 01120000 		.4byte	0x1201
 2921 10b6 00       		.byte	0
 2922 10b7 40       		.uleb128 0x40
 2923 10b8 14000000 		.4byte	.LBB222
 2924 10bc 24000000 		.4byte	.LBE222-.LBB222
 2925 10c0 5A110000 		.4byte	0x115a
 2926 10c4 24       		.uleb128 0x24
 2927 10c5 6D7000   		.ascii	"mp\000"
 2928 10c8 02       		.byte	0x2
 2929 10c9 1202     		.2byte	0x212
 2930 10cb 81070000 		.4byte	0x781
 2931 10cf A4030000 		.4byte	.LLST37
 2932 10d3 39       		.uleb128 0x39
 2933 10d4 42080000 		.4byte	0x842
 2934 10d8 16000000 		.4byte	.LBB223
 2935 10dc 02000000 		.4byte	.LBE223-.LBB223
 2936 10e0 02       		.byte	0x2
 2937 10e1 1402     		.2byte	0x214
 2938 10e3 0A110000 		.4byte	0x110a
 2939 10e7 2E       		.uleb128 0x2e
 2940 10e8 52080000 		.4byte	0x852
 2941 10ec C2030000 		.4byte	.LLST38
 2942 10f0 28       		.uleb128 0x28
 2943 10f1 A8070000 		.4byte	0x7a8
 2944 10f5 16000000 		.4byte	.LBB225
 2945 10f9 02000000 		.4byte	.LBE225-.LBB225
 2946 10fd 0E       		.byte	0xe
 2947 10fe 85       		.byte	0x85
 2948 10ff 2E       		.uleb128 0x2e
 2949 1100 B9070000 		.4byte	0x7b9
 2950 1104 C2030000 		.4byte	.LLST38
 2951 1108 00       		.byte	0
 2952 1109 00       		.byte	0
 2953 110a 37       		.uleb128 0x37
 2954 110b 20000000 		.4byte	.LBB227
 2955 110f 12000000 		.4byte	.LBE227-.LBB227
 2956 1113 20       		.uleb128 0x20
 2957 1114 747000   		.ascii	"tp\000"
 2958 1117 02       		.byte	0x2
 2959 1118 1802     		.2byte	0x218
 2960 111a 3D020000 		.4byte	0x23d
 2961 111e 39       		.uleb128 0x39
 2962 111f 5D080000 		.4byte	0x85d
 2963 1123 20000000 		.4byte	.LBB228
 2964 1127 06000000 		.4byte	.LBE228-.LBB228
ARM GAS  /tmp/cccI3Zqz.s 			page 53


 2965 112b 02       		.byte	0x2
 2966 112c 1802     		.2byte	0x218
 2967 112e 4F110000 		.4byte	0x114f
 2968 1132 2E       		.uleb128 0x2e
 2969 1133 6E080000 		.4byte	0x86e
 2970 1137 E0030000 		.4byte	.LLST40
 2971 113b 37       		.uleb128 0x37
 2972 113c 20000000 		.4byte	.LBB229
 2973 1140 06000000 		.4byte	.LBE229-.LBB229
 2974 1144 42       		.uleb128 0x42
 2975 1145 7A080000 		.4byte	0x87a
 2976 1149 F3030000 		.4byte	.LLST41
 2977 114d 00       		.byte	0
 2978 114e 00       		.byte	0
 2979 114f 35       		.uleb128 0x35
 2980 1150 32000000 		.4byte	.LVL74
 2981 1154 D9110000 		.4byte	0x11d9
 2982 1158 00       		.byte	0
 2983 1159 00       		.byte	0
 2984 115a 39       		.uleb128 0x39
 2985 115b 670A0000 		.4byte	0xa67
 2986 115f 46000000 		.4byte	.LBB230
 2987 1163 12000000 		.4byte	.LBE230-.LBB230
 2988 1167 02       		.byte	0x2
 2989 1168 2802     		.2byte	0x228
 2990 116a B3110000 		.4byte	0x11b3
 2991 116e 37       		.uleb128 0x37
 2992 116f 46000000 		.4byte	.LBB231
 2993 1173 12000000 		.4byte	.LBE231-.LBB231
 2994 1177 38       		.uleb128 0x38
 2995 1178 740A0000 		.4byte	0xa74
 2996 117c 39       		.uleb128 0x39
 2997 117d DA070000 		.4byte	0x7da
 2998 1181 4A000000 		.4byte	.LBB232
 2999 1185 0E000000 		.4byte	.LBE232-.LBB232
 3000 1189 04       		.byte	0x4
 3001 118a 8F01     		.2byte	0x18f
 3002 118c A8110000 		.4byte	0x11a8
 3003 1190 3A       		.uleb128 0x3a
 3004 1191 8E070000 		.4byte	0x78e
 3005 1195 4A000000 		.4byte	.LBB233
 3006 1199 0E000000 		.4byte	.LBE233-.LBB233
 3007 119d 0A       		.byte	0xa
 3008 119e 6D02     		.2byte	0x26d
 3009 11a0 34       		.uleb128 0x34
 3010 11a1 9B070000 		.4byte	0x79b
 3011 11a5 00       		.byte	0
 3012 11a6 00       		.byte	0
 3013 11a7 00       		.byte	0
 3014 11a8 35       		.uleb128 0x35
 3015 11a9 4A000000 		.4byte	.LVL78
 3016 11ad 08120000 		.4byte	0x1208
 3017 11b1 00       		.byte	0
 3018 11b2 00       		.byte	0
 3019 11b3 35       		.uleb128 0x35
 3020 11b4 46000000 		.4byte	.LVL77
 3021 11b8 0F120000 		.4byte	0x120f
ARM GAS  /tmp/cccI3Zqz.s 			page 54


 3022 11bc 00       		.byte	0
 3023 11bd 45       		.uleb128 0x45
 3024 11be E8000000 		.4byte	.LASF125
 3025 11c2 0F       		.byte	0xf
 3026 11c3 4407     		.2byte	0x744
 3027 11c5 C9110000 		.4byte	0x11c9
 3028 11c9 14       		.uleb128 0x14
 3029 11ca A2000000 		.4byte	0xa2
 3030 11ce 46       		.uleb128 0x46
 3031 11cf 636800   		.ascii	"ch\000"
 3032 11d2 01       		.byte	0x1
 3033 11d3 D201     		.2byte	0x1d2
 3034 11d5 E9030000 		.4byte	0x3e9
 3035 11d9 47       		.uleb128 0x47
 3036 11da 8F050000 		.4byte	.LASF126
 3037 11de 01       		.byte	0x1
 3038 11df DC01     		.2byte	0x1dc
 3039 11e1 3D020000 		.4byte	0x23d
 3040 11e5 EF110000 		.4byte	0x11ef
 3041 11e9 0D       		.uleb128 0xd
 3042 11ea 3D020000 		.4byte	0x23d
 3043 11ee 00       		.byte	0
 3044 11ef 48       		.uleb128 0x48
 3045 11f0 71050000 		.4byte	.LASF135
 3046 11f4 01       		.byte	0x1
 3047 11f5 DE01     		.2byte	0x1de
 3048 11f7 01120000 		.4byte	0x1201
 3049 11fb 0D       		.uleb128 0xd
 3050 11fc E4000000 		.4byte	0xe4
 3051 1200 00       		.byte	0
 3052 1201 49       		.uleb128 0x49
 3053 1202 83060000 		.4byte	.LASF127
 3054 1206 0C       		.byte	0xc
 3055 1207 4F       		.byte	0x4f
 3056 1208 49       		.uleb128 0x49
 3057 1209 19040000 		.4byte	.LASF128
 3058 120d 0C       		.byte	0xc
 3059 120e 50       		.byte	0x50
 3060 120f 4A       		.uleb128 0x4a
 3061 1210 CC010000 		.4byte	.LASF129
 3062 1214 01       		.byte	0x1
 3063 1215 E101     		.2byte	0x1e1
 3064 1217 00       		.byte	0
 3065              		.section	.debug_abbrev,"",%progbits
 3066              	.Ldebug_abbrev0:
 3067 0000 01       		.uleb128 0x1
 3068 0001 11       		.uleb128 0x11
 3069 0002 01       		.byte	0x1
 3070 0003 25       		.uleb128 0x25
 3071 0004 0E       		.uleb128 0xe
 3072 0005 13       		.uleb128 0x13
 3073 0006 0B       		.uleb128 0xb
 3074 0007 03       		.uleb128 0x3
 3075 0008 0E       		.uleb128 0xe
 3076 0009 1B       		.uleb128 0x1b
 3077 000a 0E       		.uleb128 0xe
 3078 000b 55       		.uleb128 0x55
ARM GAS  /tmp/cccI3Zqz.s 			page 55


 3079 000c 17       		.uleb128 0x17
 3080 000d 11       		.uleb128 0x11
 3081 000e 01       		.uleb128 0x1
 3082 000f 10       		.uleb128 0x10
 3083 0010 17       		.uleb128 0x17
 3084 0011 00       		.byte	0
 3085 0012 00       		.byte	0
 3086 0013 02       		.uleb128 0x2
 3087 0014 24       		.uleb128 0x24
 3088 0015 00       		.byte	0
 3089 0016 0B       		.uleb128 0xb
 3090 0017 0B       		.uleb128 0xb
 3091 0018 3E       		.uleb128 0x3e
 3092 0019 0B       		.uleb128 0xb
 3093 001a 03       		.uleb128 0x3
 3094 001b 08       		.uleb128 0x8
 3095 001c 00       		.byte	0
 3096 001d 00       		.byte	0
 3097 001e 03       		.uleb128 0x3
 3098 001f 24       		.uleb128 0x24
 3099 0020 00       		.byte	0
 3100 0021 0B       		.uleb128 0xb
 3101 0022 0B       		.uleb128 0xb
 3102 0023 3E       		.uleb128 0x3e
 3103 0024 0B       		.uleb128 0xb
 3104 0025 03       		.uleb128 0x3
 3105 0026 0E       		.uleb128 0xe
 3106 0027 00       		.byte	0
 3107 0028 00       		.byte	0
 3108 0029 04       		.uleb128 0x4
 3109 002a 16       		.uleb128 0x16
 3110 002b 00       		.byte	0
 3111 002c 03       		.uleb128 0x3
 3112 002d 0E       		.uleb128 0xe
 3113 002e 3A       		.uleb128 0x3a
 3114 002f 0B       		.uleb128 0xb
 3115 0030 3B       		.uleb128 0x3b
 3116 0031 0B       		.uleb128 0xb
 3117 0032 49       		.uleb128 0x49
 3118 0033 13       		.uleb128 0x13
 3119 0034 00       		.byte	0
 3120 0035 00       		.byte	0
 3121 0036 05       		.uleb128 0x5
 3122 0037 13       		.uleb128 0x13
 3123 0038 01       		.byte	0x1
 3124 0039 03       		.uleb128 0x3
 3125 003a 0E       		.uleb128 0xe
 3126 003b 0B       		.uleb128 0xb
 3127 003c 0B       		.uleb128 0xb
 3128 003d 3A       		.uleb128 0x3a
 3129 003e 0B       		.uleb128 0xb
 3130 003f 3B       		.uleb128 0x3b
 3131 0040 0B       		.uleb128 0xb
 3132 0041 01       		.uleb128 0x1
 3133 0042 13       		.uleb128 0x13
 3134 0043 00       		.byte	0
 3135 0044 00       		.byte	0
ARM GAS  /tmp/cccI3Zqz.s 			page 56


 3136 0045 06       		.uleb128 0x6
 3137 0046 0D       		.uleb128 0xd
 3138 0047 00       		.byte	0
 3139 0048 03       		.uleb128 0x3
 3140 0049 0E       		.uleb128 0xe
 3141 004a 3A       		.uleb128 0x3a
 3142 004b 0B       		.uleb128 0xb
 3143 004c 3B       		.uleb128 0x3b
 3144 004d 0B       		.uleb128 0xb
 3145 004e 49       		.uleb128 0x49
 3146 004f 13       		.uleb128 0x13
 3147 0050 38       		.uleb128 0x38
 3148 0051 0B       		.uleb128 0xb
 3149 0052 00       		.byte	0
 3150 0053 00       		.byte	0
 3151 0054 07       		.uleb128 0x7
 3152 0055 0D       		.uleb128 0xd
 3153 0056 00       		.byte	0
 3154 0057 03       		.uleb128 0x3
 3155 0058 08       		.uleb128 0x8
 3156 0059 3A       		.uleb128 0x3a
 3157 005a 0B       		.uleb128 0xb
 3158 005b 3B       		.uleb128 0x3b
 3159 005c 0B       		.uleb128 0xb
 3160 005d 49       		.uleb128 0x49
 3161 005e 13       		.uleb128 0x13
 3162 005f 38       		.uleb128 0x38
 3163 0060 0B       		.uleb128 0xb
 3164 0061 00       		.byte	0
 3165 0062 00       		.byte	0
 3166 0063 08       		.uleb128 0x8
 3167 0064 0D       		.uleb128 0xd
 3168 0065 00       		.byte	0
 3169 0066 03       		.uleb128 0x3
 3170 0067 08       		.uleb128 0x8
 3171 0068 3A       		.uleb128 0x3a
 3172 0069 0B       		.uleb128 0xb
 3173 006a 3B       		.uleb128 0x3b
 3174 006b 05       		.uleb128 0x5
 3175 006c 49       		.uleb128 0x49
 3176 006d 13       		.uleb128 0x13
 3177 006e 38       		.uleb128 0x38
 3178 006f 0B       		.uleb128 0xb
 3179 0070 00       		.byte	0
 3180 0071 00       		.byte	0
 3181 0072 09       		.uleb128 0x9
 3182 0073 0D       		.uleb128 0xd
 3183 0074 00       		.byte	0
 3184 0075 03       		.uleb128 0x3
 3185 0076 0E       		.uleb128 0xe
 3186 0077 3A       		.uleb128 0x3a
 3187 0078 0B       		.uleb128 0xb
 3188 0079 3B       		.uleb128 0x3b
 3189 007a 05       		.uleb128 0x5
 3190 007b 49       		.uleb128 0x49
 3191 007c 13       		.uleb128 0x13
 3192 007d 38       		.uleb128 0x38
ARM GAS  /tmp/cccI3Zqz.s 			page 57


 3193 007e 0B       		.uleb128 0xb
 3194 007f 00       		.byte	0
 3195 0080 00       		.byte	0
 3196 0081 0A       		.uleb128 0xa
 3197 0082 0F       		.uleb128 0xf
 3198 0083 00       		.byte	0
 3199 0084 0B       		.uleb128 0xb
 3200 0085 0B       		.uleb128 0xb
 3201 0086 49       		.uleb128 0x49
 3202 0087 13       		.uleb128 0x13
 3203 0088 00       		.byte	0
 3204 0089 00       		.byte	0
 3205 008a 0B       		.uleb128 0xb
 3206 008b 13       		.uleb128 0x13
 3207 008c 01       		.byte	0x1
 3208 008d 03       		.uleb128 0x3
 3209 008e 0E       		.uleb128 0xe
 3210 008f 0B       		.uleb128 0xb
 3211 0090 0B       		.uleb128 0xb
 3212 0091 3A       		.uleb128 0x3a
 3213 0092 0B       		.uleb128 0xb
 3214 0093 3B       		.uleb128 0x3b
 3215 0094 05       		.uleb128 0x5
 3216 0095 01       		.uleb128 0x1
 3217 0096 13       		.uleb128 0x13
 3218 0097 00       		.byte	0
 3219 0098 00       		.byte	0
 3220 0099 0C       		.uleb128 0xc
 3221 009a 15       		.uleb128 0x15
 3222 009b 01       		.byte	0x1
 3223 009c 27       		.uleb128 0x27
 3224 009d 19       		.uleb128 0x19
 3225 009e 01       		.uleb128 0x1
 3226 009f 13       		.uleb128 0x13
 3227 00a0 00       		.byte	0
 3228 00a1 00       		.byte	0
 3229 00a2 0D       		.uleb128 0xd
 3230 00a3 05       		.uleb128 0x5
 3231 00a4 00       		.byte	0
 3232 00a5 49       		.uleb128 0x49
 3233 00a6 13       		.uleb128 0x13
 3234 00a7 00       		.byte	0
 3235 00a8 00       		.byte	0
 3236 00a9 0E       		.uleb128 0xe
 3237 00aa 0F       		.uleb128 0xf
 3238 00ab 00       		.byte	0
 3239 00ac 0B       		.uleb128 0xb
 3240 00ad 0B       		.uleb128 0xb
 3241 00ae 00       		.byte	0
 3242 00af 00       		.byte	0
 3243 00b0 0F       		.uleb128 0xf
 3244 00b1 13       		.uleb128 0x13
 3245 00b2 01       		.byte	0x1
 3246 00b3 0B       		.uleb128 0xb
 3247 00b4 0B       		.uleb128 0xb
 3248 00b5 3A       		.uleb128 0x3a
 3249 00b6 0B       		.uleb128 0xb
ARM GAS  /tmp/cccI3Zqz.s 			page 58


 3250 00b7 3B       		.uleb128 0x3b
 3251 00b8 0B       		.uleb128 0xb
 3252 00b9 01       		.uleb128 0x1
 3253 00ba 13       		.uleb128 0x13
 3254 00bb 00       		.byte	0
 3255 00bc 00       		.byte	0
 3256 00bd 10       		.uleb128 0x10
 3257 00be 17       		.uleb128 0x17
 3258 00bf 01       		.byte	0x1
 3259 00c0 0B       		.uleb128 0xb
 3260 00c1 0B       		.uleb128 0xb
 3261 00c2 3A       		.uleb128 0x3a
 3262 00c3 0B       		.uleb128 0xb
 3263 00c4 3B       		.uleb128 0x3b
 3264 00c5 0B       		.uleb128 0xb
 3265 00c6 01       		.uleb128 0x1
 3266 00c7 13       		.uleb128 0x13
 3267 00c8 00       		.byte	0
 3268 00c9 00       		.byte	0
 3269 00ca 11       		.uleb128 0x11
 3270 00cb 0D       		.uleb128 0xd
 3271 00cc 00       		.byte	0
 3272 00cd 03       		.uleb128 0x3
 3273 00ce 0E       		.uleb128 0xe
 3274 00cf 3A       		.uleb128 0x3a
 3275 00d0 0B       		.uleb128 0xb
 3276 00d1 3B       		.uleb128 0x3b
 3277 00d2 0B       		.uleb128 0xb
 3278 00d3 49       		.uleb128 0x49
 3279 00d4 13       		.uleb128 0x13
 3280 00d5 00       		.byte	0
 3281 00d6 00       		.byte	0
 3282 00d7 12       		.uleb128 0x12
 3283 00d8 0D       		.uleb128 0xd
 3284 00d9 00       		.byte	0
 3285 00da 03       		.uleb128 0x3
 3286 00db 0E       		.uleb128 0xe
 3287 00dc 3A       		.uleb128 0x3a
 3288 00dd 0B       		.uleb128 0xb
 3289 00de 3B       		.uleb128 0x3b
 3290 00df 05       		.uleb128 0x5
 3291 00e0 49       		.uleb128 0x49
 3292 00e1 13       		.uleb128 0x13
 3293 00e2 00       		.byte	0
 3294 00e3 00       		.byte	0
 3295 00e4 13       		.uleb128 0x13
 3296 00e5 26       		.uleb128 0x26
 3297 00e6 00       		.byte	0
 3298 00e7 49       		.uleb128 0x49
 3299 00e8 13       		.uleb128 0x13
 3300 00e9 00       		.byte	0
 3301 00ea 00       		.byte	0
 3302 00eb 14       		.uleb128 0x14
 3303 00ec 35       		.uleb128 0x35
 3304 00ed 00       		.byte	0
 3305 00ee 49       		.uleb128 0x49
 3306 00ef 13       		.uleb128 0x13
ARM GAS  /tmp/cccI3Zqz.s 			page 59


 3307 00f0 00       		.byte	0
 3308 00f1 00       		.byte	0
 3309 00f2 15       		.uleb128 0x15
 3310 00f3 2E       		.uleb128 0x2e
 3311 00f4 01       		.byte	0x1
 3312 00f5 03       		.uleb128 0x3
 3313 00f6 0E       		.uleb128 0xe
 3314 00f7 3A       		.uleb128 0x3a
 3315 00f8 0B       		.uleb128 0xb
 3316 00f9 3B       		.uleb128 0x3b
 3317 00fa 05       		.uleb128 0x5
 3318 00fb 27       		.uleb128 0x27
 3319 00fc 19       		.uleb128 0x19
 3320 00fd 20       		.uleb128 0x20
 3321 00fe 0B       		.uleb128 0xb
 3322 00ff 01       		.uleb128 0x1
 3323 0100 13       		.uleb128 0x13
 3324 0101 00       		.byte	0
 3325 0102 00       		.byte	0
 3326 0103 16       		.uleb128 0x16
 3327 0104 05       		.uleb128 0x5
 3328 0105 00       		.byte	0
 3329 0106 03       		.uleb128 0x3
 3330 0107 0E       		.uleb128 0xe
 3331 0108 3A       		.uleb128 0x3a
 3332 0109 0B       		.uleb128 0xb
 3333 010a 3B       		.uleb128 0x3b
 3334 010b 05       		.uleb128 0x5
 3335 010c 49       		.uleb128 0x49
 3336 010d 13       		.uleb128 0x13
 3337 010e 00       		.byte	0
 3338 010f 00       		.byte	0
 3339 0110 17       		.uleb128 0x17
 3340 0111 2E       		.uleb128 0x2e
 3341 0112 01       		.byte	0x1
 3342 0113 03       		.uleb128 0x3
 3343 0114 0E       		.uleb128 0xe
 3344 0115 3A       		.uleb128 0x3a
 3345 0116 0B       		.uleb128 0xb
 3346 0117 3B       		.uleb128 0x3b
 3347 0118 05       		.uleb128 0x5
 3348 0119 27       		.uleb128 0x27
 3349 011a 19       		.uleb128 0x19
 3350 011b 49       		.uleb128 0x49
 3351 011c 13       		.uleb128 0x13
 3352 011d 20       		.uleb128 0x20
 3353 011e 0B       		.uleb128 0xb
 3354 011f 01       		.uleb128 0x1
 3355 0120 13       		.uleb128 0x13
 3356 0121 00       		.byte	0
 3357 0122 00       		.byte	0
 3358 0123 18       		.uleb128 0x18
 3359 0124 05       		.uleb128 0x5
 3360 0125 00       		.byte	0
 3361 0126 03       		.uleb128 0x3
 3362 0127 08       		.uleb128 0x8
 3363 0128 3A       		.uleb128 0x3a
ARM GAS  /tmp/cccI3Zqz.s 			page 60


 3364 0129 0B       		.uleb128 0xb
 3365 012a 3B       		.uleb128 0x3b
 3366 012b 05       		.uleb128 0x5
 3367 012c 49       		.uleb128 0x49
 3368 012d 13       		.uleb128 0x13
 3369 012e 00       		.byte	0
 3370 012f 00       		.byte	0
 3371 0130 19       		.uleb128 0x19
 3372 0131 2E       		.uleb128 0x2e
 3373 0132 00       		.byte	0
 3374 0133 03       		.uleb128 0x3
 3375 0134 0E       		.uleb128 0xe
 3376 0135 3A       		.uleb128 0x3a
 3377 0136 0B       		.uleb128 0xb
 3378 0137 3B       		.uleb128 0x3b
 3379 0138 05       		.uleb128 0x5
 3380 0139 27       		.uleb128 0x27
 3381 013a 19       		.uleb128 0x19
 3382 013b 20       		.uleb128 0x20
 3383 013c 0B       		.uleb128 0xb
 3384 013d 00       		.byte	0
 3385 013e 00       		.byte	0
 3386 013f 1A       		.uleb128 0x1a
 3387 0140 2E       		.uleb128 0x2e
 3388 0141 01       		.byte	0x1
 3389 0142 3F       		.uleb128 0x3f
 3390 0143 19       		.uleb128 0x19
 3391 0144 03       		.uleb128 0x3
 3392 0145 0E       		.uleb128 0xe
 3393 0146 3A       		.uleb128 0x3a
 3394 0147 0B       		.uleb128 0xb
 3395 0148 3B       		.uleb128 0x3b
 3396 0149 05       		.uleb128 0x5
 3397 014a 27       		.uleb128 0x27
 3398 014b 19       		.uleb128 0x19
 3399 014c 49       		.uleb128 0x49
 3400 014d 13       		.uleb128 0x13
 3401 014e 20       		.uleb128 0x20
 3402 014f 0B       		.uleb128 0xb
 3403 0150 01       		.uleb128 0x1
 3404 0151 13       		.uleb128 0x13
 3405 0152 00       		.byte	0
 3406 0153 00       		.byte	0
 3407 0154 1B       		.uleb128 0x1b
 3408 0155 34       		.uleb128 0x34
 3409 0156 00       		.byte	0
 3410 0157 03       		.uleb128 0x3
 3411 0158 0E       		.uleb128 0xe
 3412 0159 49       		.uleb128 0x49
 3413 015a 13       		.uleb128 0x13
 3414 015b 34       		.uleb128 0x34
 3415 015c 19       		.uleb128 0x19
 3416 015d 1C       		.uleb128 0x1c
 3417 015e 0E       		.uleb128 0xe
 3418 015f 00       		.byte	0
 3419 0160 00       		.byte	0
 3420 0161 1C       		.uleb128 0x1c
ARM GAS  /tmp/cccI3Zqz.s 			page 61


 3421 0162 01       		.uleb128 0x1
 3422 0163 01       		.byte	0x1
 3423 0164 49       		.uleb128 0x49
 3424 0165 13       		.uleb128 0x13
 3425 0166 01       		.uleb128 0x1
 3426 0167 13       		.uleb128 0x13
 3427 0168 00       		.byte	0
 3428 0169 00       		.byte	0
 3429 016a 1D       		.uleb128 0x1d
 3430 016b 21       		.uleb128 0x21
 3431 016c 00       		.byte	0
 3432 016d 49       		.uleb128 0x49
 3433 016e 13       		.uleb128 0x13
 3434 016f 2F       		.uleb128 0x2f
 3435 0170 0B       		.uleb128 0xb
 3436 0171 00       		.byte	0
 3437 0172 00       		.byte	0
 3438 0173 1E       		.uleb128 0x1e
 3439 0174 2E       		.uleb128 0x2e
 3440 0175 01       		.byte	0x1
 3441 0176 03       		.uleb128 0x3
 3442 0177 0E       		.uleb128 0xe
 3443 0178 3A       		.uleb128 0x3a
 3444 0179 0B       		.uleb128 0xb
 3445 017a 3B       		.uleb128 0x3b
 3446 017b 0B       		.uleb128 0xb
 3447 017c 27       		.uleb128 0x27
 3448 017d 19       		.uleb128 0x19
 3449 017e 49       		.uleb128 0x49
 3450 017f 13       		.uleb128 0x13
 3451 0180 20       		.uleb128 0x20
 3452 0181 0B       		.uleb128 0xb
 3453 0182 01       		.uleb128 0x1
 3454 0183 13       		.uleb128 0x13
 3455 0184 00       		.byte	0
 3456 0185 00       		.byte	0
 3457 0186 1F       		.uleb128 0x1f
 3458 0187 05       		.uleb128 0x5
 3459 0188 00       		.byte	0
 3460 0189 03       		.uleb128 0x3
 3461 018a 08       		.uleb128 0x8
 3462 018b 3A       		.uleb128 0x3a
 3463 018c 0B       		.uleb128 0xb
 3464 018d 3B       		.uleb128 0x3b
 3465 018e 0B       		.uleb128 0xb
 3466 018f 49       		.uleb128 0x49
 3467 0190 13       		.uleb128 0x13
 3468 0191 00       		.byte	0
 3469 0192 00       		.byte	0
 3470 0193 20       		.uleb128 0x20
 3471 0194 34       		.uleb128 0x34
 3472 0195 00       		.byte	0
 3473 0196 03       		.uleb128 0x3
 3474 0197 08       		.uleb128 0x8
 3475 0198 3A       		.uleb128 0x3a
 3476 0199 0B       		.uleb128 0xb
 3477 019a 3B       		.uleb128 0x3b
ARM GAS  /tmp/cccI3Zqz.s 			page 62


 3478 019b 05       		.uleb128 0x5
 3479 019c 49       		.uleb128 0x49
 3480 019d 13       		.uleb128 0x13
 3481 019e 00       		.byte	0
 3482 019f 00       		.byte	0
 3483 01a0 21       		.uleb128 0x21
 3484 01a1 2E       		.uleb128 0x2e
 3485 01a2 01       		.byte	0x1
 3486 01a3 03       		.uleb128 0x3
 3487 01a4 0E       		.uleb128 0xe
 3488 01a5 3A       		.uleb128 0x3a
 3489 01a6 0B       		.uleb128 0xb
 3490 01a7 3B       		.uleb128 0x3b
 3491 01a8 05       		.uleb128 0x5
 3492 01a9 27       		.uleb128 0x27
 3493 01aa 19       		.uleb128 0x19
 3494 01ab 11       		.uleb128 0x11
 3495 01ac 01       		.uleb128 0x1
 3496 01ad 12       		.uleb128 0x12
 3497 01ae 06       		.uleb128 0x6
 3498 01af 40       		.uleb128 0x40
 3499 01b0 18       		.uleb128 0x18
 3500 01b1 9742     		.uleb128 0x2117
 3501 01b3 19       		.uleb128 0x19
 3502 01b4 01       		.uleb128 0x1
 3503 01b5 13       		.uleb128 0x13
 3504 01b6 00       		.byte	0
 3505 01b7 00       		.byte	0
 3506 01b8 22       		.uleb128 0x22
 3507 01b9 05       		.uleb128 0x5
 3508 01ba 00       		.byte	0
 3509 01bb 03       		.uleb128 0x3
 3510 01bc 08       		.uleb128 0x8
 3511 01bd 3A       		.uleb128 0x3a
 3512 01be 0B       		.uleb128 0xb
 3513 01bf 3B       		.uleb128 0x3b
 3514 01c0 05       		.uleb128 0x5
 3515 01c1 49       		.uleb128 0x49
 3516 01c2 13       		.uleb128 0x13
 3517 01c3 02       		.uleb128 0x2
 3518 01c4 18       		.uleb128 0x18
 3519 01c5 00       		.byte	0
 3520 01c6 00       		.byte	0
 3521 01c7 23       		.uleb128 0x23
 3522 01c8 05       		.uleb128 0x5
 3523 01c9 00       		.byte	0
 3524 01ca 03       		.uleb128 0x3
 3525 01cb 08       		.uleb128 0x8
 3526 01cc 3A       		.uleb128 0x3a
 3527 01cd 0B       		.uleb128 0xb
 3528 01ce 3B       		.uleb128 0x3b
 3529 01cf 05       		.uleb128 0x5
 3530 01d0 49       		.uleb128 0x49
 3531 01d1 13       		.uleb128 0x13
 3532 01d2 02       		.uleb128 0x2
 3533 01d3 17       		.uleb128 0x17
 3534 01d4 00       		.byte	0
ARM GAS  /tmp/cccI3Zqz.s 			page 63


 3535 01d5 00       		.byte	0
 3536 01d6 24       		.uleb128 0x24
 3537 01d7 34       		.uleb128 0x34
 3538 01d8 00       		.byte	0
 3539 01d9 03       		.uleb128 0x3
 3540 01da 08       		.uleb128 0x8
 3541 01db 3A       		.uleb128 0x3a
 3542 01dc 0B       		.uleb128 0xb
 3543 01dd 3B       		.uleb128 0x3b
 3544 01de 05       		.uleb128 0x5
 3545 01df 49       		.uleb128 0x49
 3546 01e0 13       		.uleb128 0x13
 3547 01e1 02       		.uleb128 0x2
 3548 01e2 17       		.uleb128 0x17
 3549 01e3 00       		.byte	0
 3550 01e4 00       		.byte	0
 3551 01e5 25       		.uleb128 0x25
 3552 01e6 2E       		.uleb128 0x2e
 3553 01e7 01       		.byte	0x1
 3554 01e8 3F       		.uleb128 0x3f
 3555 01e9 19       		.uleb128 0x19
 3556 01ea 03       		.uleb128 0x3
 3557 01eb 0E       		.uleb128 0xe
 3558 01ec 3A       		.uleb128 0x3a
 3559 01ed 0B       		.uleb128 0xb
 3560 01ee 3B       		.uleb128 0x3b
 3561 01ef 0B       		.uleb128 0xb
 3562 01f0 27       		.uleb128 0x27
 3563 01f1 19       		.uleb128 0x19
 3564 01f2 11       		.uleb128 0x11
 3565 01f3 01       		.uleb128 0x1
 3566 01f4 12       		.uleb128 0x12
 3567 01f5 06       		.uleb128 0x6
 3568 01f6 40       		.uleb128 0x40
 3569 01f7 18       		.uleb128 0x18
 3570 01f8 9742     		.uleb128 0x2117
 3571 01fa 19       		.uleb128 0x19
 3572 01fb 01       		.uleb128 0x1
 3573 01fc 13       		.uleb128 0x13
 3574 01fd 00       		.byte	0
 3575 01fe 00       		.byte	0
 3576 01ff 26       		.uleb128 0x26
 3577 0200 05       		.uleb128 0x5
 3578 0201 00       		.byte	0
 3579 0202 03       		.uleb128 0x3
 3580 0203 08       		.uleb128 0x8
 3581 0204 3A       		.uleb128 0x3a
 3582 0205 0B       		.uleb128 0xb
 3583 0206 3B       		.uleb128 0x3b
 3584 0207 0B       		.uleb128 0xb
 3585 0208 49       		.uleb128 0x49
 3586 0209 13       		.uleb128 0x13
 3587 020a 02       		.uleb128 0x2
 3588 020b 18       		.uleb128 0x18
 3589 020c 00       		.byte	0
 3590 020d 00       		.byte	0
 3591 020e 27       		.uleb128 0x27
ARM GAS  /tmp/cccI3Zqz.s 			page 64


 3592 020f 34       		.uleb128 0x34
 3593 0210 00       		.byte	0
 3594 0211 03       		.uleb128 0x3
 3595 0212 0E       		.uleb128 0xe
 3596 0213 49       		.uleb128 0x49
 3597 0214 13       		.uleb128 0x13
 3598 0215 34       		.uleb128 0x34
 3599 0216 19       		.uleb128 0x19
 3600 0217 00       		.byte	0
 3601 0218 00       		.byte	0
 3602 0219 28       		.uleb128 0x28
 3603 021a 1D       		.uleb128 0x1d
 3604 021b 01       		.byte	0x1
 3605 021c 31       		.uleb128 0x31
 3606 021d 13       		.uleb128 0x13
 3607 021e 11       		.uleb128 0x11
 3608 021f 01       		.uleb128 0x1
 3609 0220 12       		.uleb128 0x12
 3610 0221 06       		.uleb128 0x6
 3611 0222 58       		.uleb128 0x58
 3612 0223 0B       		.uleb128 0xb
 3613 0224 59       		.uleb128 0x59
 3614 0225 0B       		.uleb128 0xb
 3615 0226 00       		.byte	0
 3616 0227 00       		.byte	0
 3617 0228 29       		.uleb128 0x29
 3618 0229 05       		.uleb128 0x5
 3619 022a 00       		.byte	0
 3620 022b 31       		.uleb128 0x31
 3621 022c 13       		.uleb128 0x13
 3622 022d 02       		.uleb128 0x2
 3623 022e 18       		.uleb128 0x18
 3624 022f 00       		.byte	0
 3625 0230 00       		.byte	0
 3626 0231 2A       		.uleb128 0x2a
 3627 0232 05       		.uleb128 0x5
 3628 0233 00       		.byte	0
 3629 0234 03       		.uleb128 0x3
 3630 0235 08       		.uleb128 0x8
 3631 0236 3A       		.uleb128 0x3a
 3632 0237 0B       		.uleb128 0xb
 3633 0238 3B       		.uleb128 0x3b
 3634 0239 0B       		.uleb128 0xb
 3635 023a 49       		.uleb128 0x49
 3636 023b 13       		.uleb128 0x13
 3637 023c 02       		.uleb128 0x2
 3638 023d 17       		.uleb128 0x17
 3639 023e 00       		.byte	0
 3640 023f 00       		.byte	0
 3641 0240 2B       		.uleb128 0x2b
 3642 0241 34       		.uleb128 0x34
 3643 0242 00       		.byte	0
 3644 0243 03       		.uleb128 0x3
 3645 0244 08       		.uleb128 0x8
 3646 0245 3A       		.uleb128 0x3a
 3647 0246 0B       		.uleb128 0xb
 3648 0247 3B       		.uleb128 0x3b
ARM GAS  /tmp/cccI3Zqz.s 			page 65


 3649 0248 0B       		.uleb128 0xb
 3650 0249 49       		.uleb128 0x49
 3651 024a 13       		.uleb128 0x13
 3652 024b 02       		.uleb128 0x2
 3653 024c 17       		.uleb128 0x17
 3654 024d 00       		.byte	0
 3655 024e 00       		.byte	0
 3656 024f 2C       		.uleb128 0x2c
 3657 0250 0B       		.uleb128 0xb
 3658 0251 01       		.byte	0x1
 3659 0252 55       		.uleb128 0x55
 3660 0253 17       		.uleb128 0x17
 3661 0254 00       		.byte	0
 3662 0255 00       		.byte	0
 3663 0256 2D       		.uleb128 0x2d
 3664 0257 1D       		.uleb128 0x1d
 3665 0258 01       		.byte	0x1
 3666 0259 31       		.uleb128 0x31
 3667 025a 13       		.uleb128 0x13
 3668 025b 52       		.uleb128 0x52
 3669 025c 01       		.uleb128 0x1
 3670 025d 55       		.uleb128 0x55
 3671 025e 17       		.uleb128 0x17
 3672 025f 58       		.uleb128 0x58
 3673 0260 0B       		.uleb128 0xb
 3674 0261 59       		.uleb128 0x59
 3675 0262 0B       		.uleb128 0xb
 3676 0263 01       		.uleb128 0x1
 3677 0264 13       		.uleb128 0x13
 3678 0265 00       		.byte	0
 3679 0266 00       		.byte	0
 3680 0267 2E       		.uleb128 0x2e
 3681 0268 05       		.uleb128 0x5
 3682 0269 00       		.byte	0
 3683 026a 31       		.uleb128 0x31
 3684 026b 13       		.uleb128 0x13
 3685 026c 02       		.uleb128 0x2
 3686 026d 17       		.uleb128 0x17
 3687 026e 00       		.byte	0
 3688 026f 00       		.byte	0
 3689 0270 2F       		.uleb128 0x2f
 3690 0271 898201   		.uleb128 0x4109
 3691 0274 01       		.byte	0x1
 3692 0275 11       		.uleb128 0x11
 3693 0276 01       		.uleb128 0x1
 3694 0277 31       		.uleb128 0x31
 3695 0278 13       		.uleb128 0x13
 3696 0279 01       		.uleb128 0x1
 3697 027a 13       		.uleb128 0x13
 3698 027b 00       		.byte	0
 3699 027c 00       		.byte	0
 3700 027d 30       		.uleb128 0x30
 3701 027e 8A8201   		.uleb128 0x410a
 3702 0281 00       		.byte	0
 3703 0282 02       		.uleb128 0x2
 3704 0283 18       		.uleb128 0x18
 3705 0284 9142     		.uleb128 0x2111
ARM GAS  /tmp/cccI3Zqz.s 			page 66


 3706 0286 18       		.uleb128 0x18
 3707 0287 00       		.byte	0
 3708 0288 00       		.byte	0
 3709 0289 31       		.uleb128 0x31
 3710 028a 898201   		.uleb128 0x4109
 3711 028d 01       		.byte	0x1
 3712 028e 11       		.uleb128 0x11
 3713 028f 01       		.uleb128 0x1
 3714 0290 9542     		.uleb128 0x2115
 3715 0292 19       		.uleb128 0x19
 3716 0293 31       		.uleb128 0x31
 3717 0294 13       		.uleb128 0x13
 3718 0295 00       		.byte	0
 3719 0296 00       		.byte	0
 3720 0297 32       		.uleb128 0x32
 3721 0298 1D       		.uleb128 0x1d
 3722 0299 01       		.byte	0x1
 3723 029a 31       		.uleb128 0x31
 3724 029b 13       		.uleb128 0x13
 3725 029c 52       		.uleb128 0x52
 3726 029d 01       		.uleb128 0x1
 3727 029e 55       		.uleb128 0x55
 3728 029f 17       		.uleb128 0x17
 3729 02a0 58       		.uleb128 0x58
 3730 02a1 0B       		.uleb128 0xb
 3731 02a2 59       		.uleb128 0x59
 3732 02a3 05       		.uleb128 0x5
 3733 02a4 01       		.uleb128 0x1
 3734 02a5 13       		.uleb128 0x13
 3735 02a6 00       		.byte	0
 3736 02a7 00       		.byte	0
 3737 02a8 33       		.uleb128 0x33
 3738 02a9 1D       		.uleb128 0x1d
 3739 02aa 01       		.byte	0x1
 3740 02ab 31       		.uleb128 0x31
 3741 02ac 13       		.uleb128 0x13
 3742 02ad 52       		.uleb128 0x52
 3743 02ae 01       		.uleb128 0x1
 3744 02af 55       		.uleb128 0x55
 3745 02b0 17       		.uleb128 0x17
 3746 02b1 58       		.uleb128 0x58
 3747 02b2 0B       		.uleb128 0xb
 3748 02b3 59       		.uleb128 0x59
 3749 02b4 05       		.uleb128 0x5
 3750 02b5 00       		.byte	0
 3751 02b6 00       		.byte	0
 3752 02b7 34       		.uleb128 0x34
 3753 02b8 05       		.uleb128 0x5
 3754 02b9 00       		.byte	0
 3755 02ba 31       		.uleb128 0x31
 3756 02bb 13       		.uleb128 0x13
 3757 02bc 1C       		.uleb128 0x1c
 3758 02bd 0B       		.uleb128 0xb
 3759 02be 00       		.byte	0
 3760 02bf 00       		.byte	0
 3761 02c0 35       		.uleb128 0x35
 3762 02c1 898201   		.uleb128 0x4109
ARM GAS  /tmp/cccI3Zqz.s 			page 67


 3763 02c4 00       		.byte	0
 3764 02c5 11       		.uleb128 0x11
 3765 02c6 01       		.uleb128 0x1
 3766 02c7 31       		.uleb128 0x31
 3767 02c8 13       		.uleb128 0x13
 3768 02c9 00       		.byte	0
 3769 02ca 00       		.byte	0
 3770 02cb 36       		.uleb128 0x36
 3771 02cc 1D       		.uleb128 0x1d
 3772 02cd 01       		.byte	0x1
 3773 02ce 31       		.uleb128 0x31
 3774 02cf 13       		.uleb128 0x13
 3775 02d0 11       		.uleb128 0x11
 3776 02d1 01       		.uleb128 0x1
 3777 02d2 12       		.uleb128 0x12
 3778 02d3 06       		.uleb128 0x6
 3779 02d4 58       		.uleb128 0x58
 3780 02d5 0B       		.uleb128 0xb
 3781 02d6 59       		.uleb128 0x59
 3782 02d7 0B       		.uleb128 0xb
 3783 02d8 01       		.uleb128 0x1
 3784 02d9 13       		.uleb128 0x13
 3785 02da 00       		.byte	0
 3786 02db 00       		.byte	0
 3787 02dc 37       		.uleb128 0x37
 3788 02dd 0B       		.uleb128 0xb
 3789 02de 01       		.byte	0x1
 3790 02df 11       		.uleb128 0x11
 3791 02e0 01       		.uleb128 0x1
 3792 02e1 12       		.uleb128 0x12
 3793 02e2 06       		.uleb128 0x6
 3794 02e3 00       		.byte	0
 3795 02e4 00       		.byte	0
 3796 02e5 38       		.uleb128 0x38
 3797 02e6 34       		.uleb128 0x34
 3798 02e7 00       		.byte	0
 3799 02e8 31       		.uleb128 0x31
 3800 02e9 13       		.uleb128 0x13
 3801 02ea 00       		.byte	0
 3802 02eb 00       		.byte	0
 3803 02ec 39       		.uleb128 0x39
 3804 02ed 1D       		.uleb128 0x1d
 3805 02ee 01       		.byte	0x1
 3806 02ef 31       		.uleb128 0x31
 3807 02f0 13       		.uleb128 0x13
 3808 02f1 11       		.uleb128 0x11
 3809 02f2 01       		.uleb128 0x1
 3810 02f3 12       		.uleb128 0x12
 3811 02f4 06       		.uleb128 0x6
 3812 02f5 58       		.uleb128 0x58
 3813 02f6 0B       		.uleb128 0xb
 3814 02f7 59       		.uleb128 0x59
 3815 02f8 05       		.uleb128 0x5
 3816 02f9 01       		.uleb128 0x1
 3817 02fa 13       		.uleb128 0x13
 3818 02fb 00       		.byte	0
 3819 02fc 00       		.byte	0
ARM GAS  /tmp/cccI3Zqz.s 			page 68


 3820 02fd 3A       		.uleb128 0x3a
 3821 02fe 1D       		.uleb128 0x1d
 3822 02ff 01       		.byte	0x1
 3823 0300 31       		.uleb128 0x31
 3824 0301 13       		.uleb128 0x13
 3825 0302 11       		.uleb128 0x11
 3826 0303 01       		.uleb128 0x1
 3827 0304 12       		.uleb128 0x12
 3828 0305 06       		.uleb128 0x6
 3829 0306 58       		.uleb128 0x58
 3830 0307 0B       		.uleb128 0xb
 3831 0308 59       		.uleb128 0x59
 3832 0309 05       		.uleb128 0x5
 3833 030a 00       		.byte	0
 3834 030b 00       		.byte	0
 3835 030c 3B       		.uleb128 0x3b
 3836 030d 898201   		.uleb128 0x4109
 3837 0310 01       		.byte	0x1
 3838 0311 11       		.uleb128 0x11
 3839 0312 01       		.uleb128 0x1
 3840 0313 31       		.uleb128 0x31
 3841 0314 13       		.uleb128 0x13
 3842 0315 00       		.byte	0
 3843 0316 00       		.byte	0
 3844 0317 3C       		.uleb128 0x3c
 3845 0318 2E       		.uleb128 0x2e
 3846 0319 01       		.byte	0x1
 3847 031a 31       		.uleb128 0x31
 3848 031b 13       		.uleb128 0x13
 3849 031c 11       		.uleb128 0x11
 3850 031d 01       		.uleb128 0x1
 3851 031e 12       		.uleb128 0x12
 3852 031f 06       		.uleb128 0x6
 3853 0320 40       		.uleb128 0x40
 3854 0321 18       		.uleb128 0x18
 3855 0322 9742     		.uleb128 0x2117
 3856 0324 19       		.uleb128 0x19
 3857 0325 01       		.uleb128 0x1
 3858 0326 13       		.uleb128 0x13
 3859 0327 00       		.byte	0
 3860 0328 00       		.byte	0
 3861 0329 3D       		.uleb128 0x3d
 3862 032a 2E       		.uleb128 0x2e
 3863 032b 01       		.byte	0x1
 3864 032c 3F       		.uleb128 0x3f
 3865 032d 19       		.uleb128 0x19
 3866 032e 03       		.uleb128 0x3
 3867 032f 0E       		.uleb128 0xe
 3868 0330 3A       		.uleb128 0x3a
 3869 0331 0B       		.uleb128 0xb
 3870 0332 3B       		.uleb128 0x3b
 3871 0333 0B       		.uleb128 0xb
 3872 0334 27       		.uleb128 0x27
 3873 0335 19       		.uleb128 0x19
 3874 0336 49       		.uleb128 0x49
 3875 0337 13       		.uleb128 0x13
 3876 0338 11       		.uleb128 0x11
ARM GAS  /tmp/cccI3Zqz.s 			page 69


 3877 0339 01       		.uleb128 0x1
 3878 033a 12       		.uleb128 0x12
 3879 033b 06       		.uleb128 0x6
 3880 033c 40       		.uleb128 0x40
 3881 033d 18       		.uleb128 0x18
 3882 033e 9742     		.uleb128 0x2117
 3883 0340 19       		.uleb128 0x19
 3884 0341 01       		.uleb128 0x1
 3885 0342 13       		.uleb128 0x13
 3886 0343 00       		.byte	0
 3887 0344 00       		.byte	0
 3888 0345 3E       		.uleb128 0x3e
 3889 0346 34       		.uleb128 0x34
 3890 0347 00       		.byte	0
 3891 0348 03       		.uleb128 0x3
 3892 0349 08       		.uleb128 0x8
 3893 034a 3A       		.uleb128 0x3a
 3894 034b 0B       		.uleb128 0xb
 3895 034c 3B       		.uleb128 0x3b
 3896 034d 05       		.uleb128 0x5
 3897 034e 49       		.uleb128 0x49
 3898 034f 13       		.uleb128 0x13
 3899 0350 02       		.uleb128 0x2
 3900 0351 18       		.uleb128 0x18
 3901 0352 00       		.byte	0
 3902 0353 00       		.byte	0
 3903 0354 3F       		.uleb128 0x3f
 3904 0355 2E       		.uleb128 0x2e
 3905 0356 01       		.byte	0x1
 3906 0357 3F       		.uleb128 0x3f
 3907 0358 19       		.uleb128 0x19
 3908 0359 03       		.uleb128 0x3
 3909 035a 0E       		.uleb128 0xe
 3910 035b 3A       		.uleb128 0x3a
 3911 035c 0B       		.uleb128 0xb
 3912 035d 3B       		.uleb128 0x3b
 3913 035e 05       		.uleb128 0x5
 3914 035f 27       		.uleb128 0x27
 3915 0360 19       		.uleb128 0x19
 3916 0361 11       		.uleb128 0x11
 3917 0362 01       		.uleb128 0x1
 3918 0363 12       		.uleb128 0x12
 3919 0364 06       		.uleb128 0x6
 3920 0365 40       		.uleb128 0x40
 3921 0366 18       		.uleb128 0x18
 3922 0367 9742     		.uleb128 0x2117
 3923 0369 19       		.uleb128 0x19
 3924 036a 01       		.uleb128 0x1
 3925 036b 13       		.uleb128 0x13
 3926 036c 00       		.byte	0
 3927 036d 00       		.byte	0
 3928 036e 40       		.uleb128 0x40
 3929 036f 0B       		.uleb128 0xb
 3930 0370 01       		.byte	0x1
 3931 0371 11       		.uleb128 0x11
 3932 0372 01       		.uleb128 0x1
 3933 0373 12       		.uleb128 0x12
ARM GAS  /tmp/cccI3Zqz.s 			page 70


 3934 0374 06       		.uleb128 0x6
 3935 0375 01       		.uleb128 0x1
 3936 0376 13       		.uleb128 0x13
 3937 0377 00       		.byte	0
 3938 0378 00       		.byte	0
 3939 0379 41       		.uleb128 0x41
 3940 037a 34       		.uleb128 0x34
 3941 037b 00       		.byte	0
 3942 037c 03       		.uleb128 0x3
 3943 037d 0E       		.uleb128 0xe
 3944 037e 3A       		.uleb128 0x3a
 3945 037f 0B       		.uleb128 0xb
 3946 0380 3B       		.uleb128 0x3b
 3947 0381 05       		.uleb128 0x5
 3948 0382 49       		.uleb128 0x49
 3949 0383 13       		.uleb128 0x13
 3950 0384 02       		.uleb128 0x2
 3951 0385 17       		.uleb128 0x17
 3952 0386 00       		.byte	0
 3953 0387 00       		.byte	0
 3954 0388 42       		.uleb128 0x42
 3955 0389 34       		.uleb128 0x34
 3956 038a 00       		.byte	0
 3957 038b 31       		.uleb128 0x31
 3958 038c 13       		.uleb128 0x13
 3959 038d 02       		.uleb128 0x2
 3960 038e 17       		.uleb128 0x17
 3961 038f 00       		.byte	0
 3962 0390 00       		.byte	0
 3963 0391 43       		.uleb128 0x43
 3964 0392 05       		.uleb128 0x5
 3965 0393 00       		.byte	0
 3966 0394 31       		.uleb128 0x31
 3967 0395 13       		.uleb128 0x13
 3968 0396 00       		.byte	0
 3969 0397 00       		.byte	0
 3970 0398 44       		.uleb128 0x44
 3971 0399 898201   		.uleb128 0x4109
 3972 039c 00       		.byte	0
 3973 039d 11       		.uleb128 0x11
 3974 039e 01       		.uleb128 0x1
 3975 039f 9542     		.uleb128 0x2115
 3976 03a1 19       		.uleb128 0x19
 3977 03a2 31       		.uleb128 0x31
 3978 03a3 13       		.uleb128 0x13
 3979 03a4 00       		.byte	0
 3980 03a5 00       		.byte	0
 3981 03a6 45       		.uleb128 0x45
 3982 03a7 34       		.uleb128 0x34
 3983 03a8 00       		.byte	0
 3984 03a9 03       		.uleb128 0x3
 3985 03aa 0E       		.uleb128 0xe
 3986 03ab 3A       		.uleb128 0x3a
 3987 03ac 0B       		.uleb128 0xb
 3988 03ad 3B       		.uleb128 0x3b
 3989 03ae 05       		.uleb128 0x5
 3990 03af 49       		.uleb128 0x49
ARM GAS  /tmp/cccI3Zqz.s 			page 71


 3991 03b0 13       		.uleb128 0x13
 3992 03b1 3F       		.uleb128 0x3f
 3993 03b2 19       		.uleb128 0x19
 3994 03b3 3C       		.uleb128 0x3c
 3995 03b4 19       		.uleb128 0x19
 3996 03b5 00       		.byte	0
 3997 03b6 00       		.byte	0
 3998 03b7 46       		.uleb128 0x46
 3999 03b8 34       		.uleb128 0x34
 4000 03b9 00       		.byte	0
 4001 03ba 03       		.uleb128 0x3
 4002 03bb 08       		.uleb128 0x8
 4003 03bc 3A       		.uleb128 0x3a
 4004 03bd 0B       		.uleb128 0xb
 4005 03be 3B       		.uleb128 0x3b
 4006 03bf 05       		.uleb128 0x5
 4007 03c0 49       		.uleb128 0x49
 4008 03c1 13       		.uleb128 0x13
 4009 03c2 3F       		.uleb128 0x3f
 4010 03c3 19       		.uleb128 0x19
 4011 03c4 3C       		.uleb128 0x3c
 4012 03c5 19       		.uleb128 0x19
 4013 03c6 00       		.byte	0
 4014 03c7 00       		.byte	0
 4015 03c8 47       		.uleb128 0x47
 4016 03c9 2E       		.uleb128 0x2e
 4017 03ca 01       		.byte	0x1
 4018 03cb 3F       		.uleb128 0x3f
 4019 03cc 19       		.uleb128 0x19
 4020 03cd 03       		.uleb128 0x3
 4021 03ce 0E       		.uleb128 0xe
 4022 03cf 3A       		.uleb128 0x3a
 4023 03d0 0B       		.uleb128 0xb
 4024 03d1 3B       		.uleb128 0x3b
 4025 03d2 05       		.uleb128 0x5
 4026 03d3 27       		.uleb128 0x27
 4027 03d4 19       		.uleb128 0x19
 4028 03d5 49       		.uleb128 0x49
 4029 03d6 13       		.uleb128 0x13
 4030 03d7 3C       		.uleb128 0x3c
 4031 03d8 19       		.uleb128 0x19
 4032 03d9 01       		.uleb128 0x1
 4033 03da 13       		.uleb128 0x13
 4034 03db 00       		.byte	0
 4035 03dc 00       		.byte	0
 4036 03dd 48       		.uleb128 0x48
 4037 03de 2E       		.uleb128 0x2e
 4038 03df 01       		.byte	0x1
 4039 03e0 3F       		.uleb128 0x3f
 4040 03e1 19       		.uleb128 0x19
 4041 03e2 03       		.uleb128 0x3
 4042 03e3 0E       		.uleb128 0xe
 4043 03e4 3A       		.uleb128 0x3a
 4044 03e5 0B       		.uleb128 0xb
 4045 03e6 3B       		.uleb128 0x3b
 4046 03e7 05       		.uleb128 0x5
 4047 03e8 27       		.uleb128 0x27
ARM GAS  /tmp/cccI3Zqz.s 			page 72


 4048 03e9 19       		.uleb128 0x19
 4049 03ea 3C       		.uleb128 0x3c
 4050 03eb 19       		.uleb128 0x19
 4051 03ec 01       		.uleb128 0x1
 4052 03ed 13       		.uleb128 0x13
 4053 03ee 00       		.byte	0
 4054 03ef 00       		.byte	0
 4055 03f0 49       		.uleb128 0x49
 4056 03f1 2E       		.uleb128 0x2e
 4057 03f2 00       		.byte	0
 4058 03f3 3F       		.uleb128 0x3f
 4059 03f4 19       		.uleb128 0x19
 4060 03f5 03       		.uleb128 0x3
 4061 03f6 0E       		.uleb128 0xe
 4062 03f7 3A       		.uleb128 0x3a
 4063 03f8 0B       		.uleb128 0xb
 4064 03f9 3B       		.uleb128 0x3b
 4065 03fa 0B       		.uleb128 0xb
 4066 03fb 27       		.uleb128 0x27
 4067 03fc 19       		.uleb128 0x19
 4068 03fd 3C       		.uleb128 0x3c
 4069 03fe 19       		.uleb128 0x19
 4070 03ff 00       		.byte	0
 4071 0400 00       		.byte	0
 4072 0401 4A       		.uleb128 0x4a
 4073 0402 2E       		.uleb128 0x2e
 4074 0403 00       		.byte	0
 4075 0404 3F       		.uleb128 0x3f
 4076 0405 19       		.uleb128 0x19
 4077 0406 03       		.uleb128 0x3
 4078 0407 0E       		.uleb128 0xe
 4079 0408 3A       		.uleb128 0x3a
 4080 0409 0B       		.uleb128 0xb
 4081 040a 3B       		.uleb128 0x3b
 4082 040b 05       		.uleb128 0x5
 4083 040c 27       		.uleb128 0x27
 4084 040d 19       		.uleb128 0x19
 4085 040e 3C       		.uleb128 0x3c
 4086 040f 19       		.uleb128 0x19
 4087 0410 00       		.byte	0
 4088 0411 00       		.byte	0
 4089 0412 00       		.byte	0
 4090              		.section	.debug_loc,"",%progbits
 4091              	.Ldebug_loc0:
 4092              	.LLST0:
 4093 0000 00000000 		.4byte	.LVL0
 4094 0004 14000000 		.4byte	.LVL3
 4095 0008 0100     		.2byte	0x1
 4096 000a 51       		.byte	0x51
 4097 000b 14000000 		.4byte	.LVL3
 4098 000f 20000000 		.4byte	.LFE155
 4099 0013 0400     		.2byte	0x4
 4100 0015 F3       		.byte	0xf3
 4101 0016 01       		.uleb128 0x1
 4102 0017 51       		.byte	0x51
 4103 0018 9F       		.byte	0x9f
 4104 0019 00000000 		.4byte	0
ARM GAS  /tmp/cccI3Zqz.s 			page 73


 4105 001d 00000000 		.4byte	0
 4106              	.LLST1:
 4107 0021 00000000 		.4byte	.LVL0
 4108 0025 04000000 		.4byte	.LVL1
 4109 0029 0100     		.2byte	0x1
 4110 002b 51       		.byte	0x51
 4111 002c 04000000 		.4byte	.LVL1
 4112 0030 16000000 		.4byte	.LVL4
 4113 0034 0100     		.2byte	0x1
 4114 0036 53       		.byte	0x53
 4115 0037 00000000 		.4byte	0
 4116 003b 00000000 		.4byte	0
 4117              	.LLST2:
 4118 003f 00000000 		.4byte	.LVL6
 4119 0043 0E000000 		.4byte	.LVL8
 4120 0047 0100     		.2byte	0x1
 4121 0049 50       		.byte	0x50
 4122 004a 0E000000 		.4byte	.LVL8
 4123 004e 72000000 		.4byte	.LVL17
 4124 0052 0100     		.2byte	0x1
 4125 0054 56       		.byte	0x56
 4126 0055 72000000 		.4byte	.LVL17
 4127 0059 76000000 		.4byte	.LVL18
 4128 005d 0400     		.2byte	0x4
 4129 005f F3       		.byte	0xf3
 4130 0060 01       		.uleb128 0x1
 4131 0061 50       		.byte	0x50
 4132 0062 9F       		.byte	0x9f
 4133 0063 76000000 		.4byte	.LVL18
 4134 0067 84000000 		.4byte	.LFE248
 4135 006b 0100     		.2byte	0x1
 4136 006d 50       		.byte	0x50
 4137 006e 00000000 		.4byte	0
 4138 0072 00000000 		.4byte	0
 4139              	.LLST3:
 4140 0076 08000000 		.4byte	.LVL7
 4141 007a 72000000 		.4byte	.LVL17
 4142 007e 0100     		.2byte	0x1
 4143 0080 55       		.byte	0x55
 4144 0081 76000000 		.4byte	.LVL18
 4145 0085 80000000 		.4byte	.LVL19
 4146 0089 0100     		.2byte	0x1
 4147 008b 55       		.byte	0x55
 4148 008c 00000000 		.4byte	0
 4149 0090 00000000 		.4byte	0
 4150              	.LLST4:
 4151 0094 0E000000 		.4byte	.LVL8
 4152 0098 72000000 		.4byte	.LVL17
 4153 009c 0100     		.2byte	0x1
 4154 009e 54       		.byte	0x54
 4155 009f 00000000 		.4byte	0
 4156 00a3 00000000 		.4byte	0
 4157              	.LLST5:
 4158 00a7 26000000 		.4byte	.LVL9
 4159 00ab 38000000 		.4byte	.LVL11
 4160 00af 0100     		.2byte	0x1
 4161 00b1 54       		.byte	0x54
ARM GAS  /tmp/cccI3Zqz.s 			page 74


 4162 00b2 00000000 		.4byte	0
 4163 00b6 00000000 		.4byte	0
 4164              	.LLST6:
 4165 00ba 38000000 		.4byte	.LVL11
 4166 00be 4E000000 		.4byte	.LVL13
 4167 00c2 0100     		.2byte	0x1
 4168 00c4 54       		.byte	0x54
 4169 00c5 00000000 		.4byte	0
 4170 00c9 00000000 		.4byte	0
 4171              	.LLST7:
 4172 00cd 50000000 		.4byte	.LVL14
 4173 00d1 62000000 		.4byte	.LVL15
 4174 00d5 0100     		.2byte	0x1
 4175 00d7 54       		.byte	0x54
 4176 00d8 00000000 		.4byte	0
 4177 00dc 00000000 		.4byte	0
 4178              	.LLST8:
 4179 00e0 00000000 		.4byte	.LVL20
 4180 00e4 0D000000 		.4byte	.LVL21-1
 4181 00e8 0100     		.2byte	0x1
 4182 00ea 50       		.byte	0x50
 4183 00eb 0D000000 		.4byte	.LVL21-1
 4184 00ef 20000000 		.4byte	.LFE247
 4185 00f3 0100     		.2byte	0x1
 4186 00f5 54       		.byte	0x54
 4187 00f6 00000000 		.4byte	0
 4188 00fa 00000000 		.4byte	0
 4189              	.LLST9:
 4190 00fe 00000000 		.4byte	.LVL24
 4191 0102 12000000 		.4byte	.LVL26
 4192 0106 0100     		.2byte	0x1
 4193 0108 50       		.byte	0x50
 4194 0109 12000000 		.4byte	.LVL26
 4195 010d 14000000 		.4byte	.LVL27
 4196 0111 0200     		.2byte	0x2
 4197 0113 73       		.byte	0x73
 4198 0114 38       		.sleb128 56
 4199 0115 14000000 		.4byte	.LVL27
 4200 0119 16000000 		.4byte	.LVL28
 4201 011d 0100     		.2byte	0x1
 4202 011f 50       		.byte	0x50
 4203 0120 16000000 		.4byte	.LVL28
 4204 0124 1C000000 		.4byte	.LFE250
 4205 0128 0400     		.2byte	0x4
 4206 012a F3       		.byte	0xf3
 4207 012b 01       		.uleb128 0x1
 4208 012c 50       		.byte	0x50
 4209 012d 9F       		.byte	0x9f
 4210 012e 00000000 		.4byte	0
 4211 0132 00000000 		.4byte	0
 4212              	.LLST10:
 4213 0136 04000000 		.4byte	.LVL25
 4214 013a 12000000 		.4byte	.LVL26
 4215 013e 0100     		.2byte	0x1
 4216 0140 50       		.byte	0x50
 4217 0141 12000000 		.4byte	.LVL26
 4218 0145 14000000 		.4byte	.LVL27
ARM GAS  /tmp/cccI3Zqz.s 			page 75


 4219 0149 0200     		.2byte	0x2
 4220 014b 73       		.byte	0x73
 4221 014c 38       		.sleb128 56
 4222 014d 00000000 		.4byte	0
 4223 0151 00000000 		.4byte	0
 4224              	.LLST11:
 4225 0155 00000000 		.4byte	.LVL29
 4226 0159 0D000000 		.4byte	.LVL30-1
 4227 015d 0100     		.2byte	0x1
 4228 015f 50       		.byte	0x50
 4229 0160 0D000000 		.4byte	.LVL30-1
 4230 0164 16000000 		.4byte	.LVL32
 4231 0168 0100     		.2byte	0x1
 4232 016a 54       		.byte	0x54
 4233 016b 16000000 		.4byte	.LVL32
 4234 016f 24000000 		.4byte	.LFE249
 4235 0173 0400     		.2byte	0x4
 4236 0175 F3       		.byte	0xf3
 4237 0176 01       		.uleb128 0x1
 4238 0177 50       		.byte	0x50
 4239 0178 9F       		.byte	0x9f
 4240 0179 00000000 		.4byte	0
 4241 017d 00000000 		.4byte	0
 4242              	.LLST12:
 4243 0181 00000000 		.4byte	.LVL34
 4244 0185 11000000 		.4byte	.LVL36-1
 4245 0189 0100     		.2byte	0x1
 4246 018b 50       		.byte	0x50
 4247 018c 11000000 		.4byte	.LVL36-1
 4248 0190 5C000000 		.4byte	.LVL48
 4249 0194 0100     		.2byte	0x1
 4250 0196 54       		.byte	0x54
 4251 0197 5C000000 		.4byte	.LVL48
 4252 019b 60000000 		.4byte	.LFE251
 4253 019f 0400     		.2byte	0x4
 4254 01a1 F3       		.byte	0xf3
 4255 01a2 01       		.uleb128 0x1
 4256 01a3 50       		.byte	0x50
 4257 01a4 9F       		.byte	0x9f
 4258 01a5 00000000 		.4byte	0
 4259 01a9 00000000 		.4byte	0
 4260              	.LLST13:
 4261 01ad 08000000 		.4byte	.LVL35
 4262 01b1 5C000000 		.4byte	.LVL48
 4263 01b5 0100     		.2byte	0x1
 4264 01b7 55       		.byte	0x55
 4265 01b8 00000000 		.4byte	0
 4266 01bc 00000000 		.4byte	0
 4267              	.LLST14:
 4268 01c0 1E000000 		.4byte	.LVL38
 4269 01c4 34000000 		.4byte	.LVL42
 4270 01c8 0100     		.2byte	0x1
 4271 01ca 53       		.byte	0x53
 4272 01cb 00000000 		.4byte	0
 4273 01cf 00000000 		.4byte	0
 4274              	.LLST15:
 4275 01d3 18000000 		.4byte	.LVL37
ARM GAS  /tmp/cccI3Zqz.s 			page 76


 4276 01d7 5C000000 		.4byte	.LVL48
 4277 01db 0100     		.2byte	0x1
 4278 01dd 54       		.byte	0x54
 4279 01de 5C000000 		.4byte	.LVL48
 4280 01e2 60000000 		.4byte	.LFE251
 4281 01e6 0400     		.2byte	0x4
 4282 01e8 F3       		.byte	0xf3
 4283 01e9 01       		.uleb128 0x1
 4284 01ea 50       		.byte	0x50
 4285 01eb 9F       		.byte	0x9f
 4286 01ec 00000000 		.4byte	0
 4287 01f0 00000000 		.4byte	0
 4288              	.LLST17:
 4289 01f4 1E000000 		.4byte	.LVL38
 4290 01f8 45000000 		.4byte	.LVL44-1
 4291 01fc 0100     		.2byte	0x1
 4292 01fe 52       		.byte	0x52
 4293 01ff 00000000 		.4byte	0
 4294 0203 00000000 		.4byte	0
 4295              	.LLST18:
 4296 0207 20000000 		.4byte	.LVL39
 4297 020b 30000000 		.4byte	.LVL41
 4298 020f 0100     		.2byte	0x1
 4299 0211 53       		.byte	0x53
 4300 0212 00000000 		.4byte	0
 4301 0216 00000000 		.4byte	0
 4302              	.LLST20:
 4303 021a 36000000 		.4byte	.LVL43
 4304 021e 4C000000 		.4byte	.LVL46
 4305 0222 0100     		.2byte	0x1
 4306 0224 54       		.byte	0x54
 4307 0225 00000000 		.4byte	0
 4308 0229 00000000 		.4byte	0
 4309              	.LLST21:
 4310 022d 36000000 		.4byte	.LVL43
 4311 0231 45000000 		.4byte	.LVL44-1
 4312 0235 0100     		.2byte	0x1
 4313 0237 50       		.byte	0x50
 4314 0238 00000000 		.4byte	0
 4315 023c 00000000 		.4byte	0
 4316              	.LLST22:
 4317 0240 00000000 		.4byte	.LVL49
 4318 0244 0A000000 		.4byte	.LVL51
 4319 0248 0100     		.2byte	0x1
 4320 024a 50       		.byte	0x50
 4321 024b 0A000000 		.4byte	.LVL51
 4322 024f 3F000000 		.4byte	.LVL59-1
 4323 0253 0100     		.2byte	0x1
 4324 0255 53       		.byte	0x53
 4325 0256 3F000000 		.4byte	.LVL59-1
 4326 025a 40000000 		.4byte	.LVL59
 4327 025e 0400     		.2byte	0x4
 4328 0260 F3       		.byte	0xf3
 4329 0261 01       		.uleb128 0x1
 4330 0262 50       		.byte	0x50
 4331 0263 9F       		.byte	0x9f
 4332 0264 40000000 		.4byte	.LVL59
ARM GAS  /tmp/cccI3Zqz.s 			page 77


 4333 0268 42000000 		.4byte	.LVL60
 4334 026c 0100     		.2byte	0x1
 4335 026e 53       		.byte	0x53
 4336 026f 42000000 		.4byte	.LVL60
 4337 0273 4C000000 		.4byte	.LFE252
 4338 0277 0400     		.2byte	0x4
 4339 0279 F3       		.byte	0xf3
 4340 027a 01       		.uleb128 0x1
 4341 027b 50       		.byte	0x50
 4342 027c 9F       		.byte	0x9f
 4343 027d 00000000 		.4byte	0
 4344 0281 00000000 		.4byte	0
 4345              	.LLST23:
 4346 0285 06000000 		.4byte	.LVL50
 4347 0289 3F000000 		.4byte	.LVL59-1
 4348 028d 0100     		.2byte	0x1
 4349 028f 51       		.byte	0x51
 4350 0290 40000000 		.4byte	.LVL59
 4351 0294 4C000000 		.4byte	.LFE252
 4352 0298 0100     		.2byte	0x1
 4353 029a 51       		.byte	0x51
 4354 029b 00000000 		.4byte	0
 4355 029f 00000000 		.4byte	0
 4356              	.LLST24:
 4357 02a3 14000000 		.4byte	.LVL52
 4358 02a7 2A000000 		.4byte	.LVL56
 4359 02ab 0100     		.2byte	0x1
 4360 02ad 52       		.byte	0x52
 4361 02ae 00000000 		.4byte	0
 4362 02b2 00000000 		.4byte	0
 4363              	.LLST25:
 4364 02b6 14000000 		.4byte	.LVL52
 4365 02ba 3A000000 		.4byte	.LVL58
 4366 02be 0100     		.2byte	0x1
 4367 02c0 54       		.byte	0x54
 4368 02c1 3A000000 		.4byte	.LVL58
 4369 02c5 3F000000 		.4byte	.LVL59-1
 4370 02c9 0200     		.2byte	0x2
 4371 02cb 71       		.byte	0x71
 4372 02cc 08       		.sleb128 8
 4373 02cd 00000000 		.4byte	0
 4374 02d1 00000000 		.4byte	0
 4375              	.LLST26:
 4376 02d5 16000000 		.4byte	.LVL53
 4377 02d9 26000000 		.4byte	.LVL55
 4378 02dd 0100     		.2byte	0x1
 4379 02df 52       		.byte	0x52
 4380 02e0 00000000 		.4byte	0
 4381 02e4 00000000 		.4byte	0
 4382              	.LLST28:
 4383 02e8 2C000000 		.4byte	.LVL57
 4384 02ec 3F000000 		.4byte	.LVL59-1
 4385 02f0 0100     		.2byte	0x1
 4386 02f2 53       		.byte	0x53
 4387 02f3 3F000000 		.4byte	.LVL59-1
 4388 02f7 40000000 		.4byte	.LVL59
 4389 02fb 0400     		.2byte	0x4
ARM GAS  /tmp/cccI3Zqz.s 			page 78


 4390 02fd F3       		.byte	0xf3
 4391 02fe 01       		.uleb128 0x1
 4392 02ff 50       		.byte	0x50
 4393 0300 9F       		.byte	0x9f
 4394 0301 00000000 		.4byte	0
 4395 0305 00000000 		.4byte	0
 4396              	.LLST29:
 4397 0309 2C000000 		.4byte	.LVL57
 4398 030d 3F000000 		.4byte	.LVL59-1
 4399 0311 0100     		.2byte	0x1
 4400 0313 50       		.byte	0x50
 4401 0314 00000000 		.4byte	0
 4402 0318 00000000 		.4byte	0
 4403              	.LLST30:
 4404 031c 06000000 		.4byte	.LVL61
 4405 0320 34000000 		.4byte	.LVL68
 4406 0324 0100     		.2byte	0x1
 4407 0326 54       		.byte	0x54
 4408 0327 00000000 		.4byte	0
 4409 032b 00000000 		.4byte	0
 4410              	.LLST31:
 4411 032f 0A000000 		.4byte	.LVL62
 4412 0333 25000000 		.4byte	.LVL65-1
 4413 0337 0100     		.2byte	0x1
 4414 0339 53       		.byte	0x53
 4415 033a 28000000 		.4byte	.LVL66
 4416 033e 2A000000 		.4byte	.LVL67
 4417 0342 0100     		.2byte	0x1
 4418 0344 53       		.byte	0x53
 4419 0345 00000000 		.4byte	0
 4420 0349 00000000 		.4byte	0
 4421              	.LLST32:
 4422 034d 10000000 		.4byte	.LVL63
 4423 0351 25000000 		.4byte	.LVL65-1
 4424 0355 0100     		.2byte	0x1
 4425 0357 53       		.byte	0x53
 4426 0358 28000000 		.4byte	.LVL66
 4427 035c 2A000000 		.4byte	.LVL67
 4428 0360 0100     		.2byte	0x1
 4429 0362 53       		.byte	0x53
 4430 0363 00000000 		.4byte	0
 4431 0367 00000000 		.4byte	0
 4432              	.LLST34:
 4433 036b 14000000 		.4byte	.LVL64
 4434 036f 25000000 		.4byte	.LVL65-1
 4435 0373 0100     		.2byte	0x1
 4436 0375 53       		.byte	0x53
 4437 0376 00000000 		.4byte	0
 4438 037a 00000000 		.4byte	0
 4439              	.LLST35:
 4440 037e 14000000 		.4byte	.LVL64
 4441 0382 25000000 		.4byte	.LVL65-1
 4442 0386 0100     		.2byte	0x1
 4443 0388 50       		.byte	0x50
 4444 0389 00000000 		.4byte	0
 4445 038d 00000000 		.4byte	0
 4446              	.LLST36:
ARM GAS  /tmp/cccI3Zqz.s 			page 79


 4447 0391 06000000 		.4byte	.LVL69
 4448 0395 52000000 		.4byte	.LVL79
 4449 0399 0100     		.2byte	0x1
 4450 039b 54       		.byte	0x54
 4451 039c 00000000 		.4byte	0
 4452 03a0 00000000 		.4byte	0
 4453              	.LLST37:
 4454 03a4 16000000 		.4byte	.LVL71
 4455 03a8 31000000 		.4byte	.LVL74-1
 4456 03ac 0100     		.2byte	0x1
 4457 03ae 53       		.byte	0x53
 4458 03af 34000000 		.4byte	.LVL75
 4459 03b3 36000000 		.4byte	.LVL76
 4460 03b7 0100     		.2byte	0x1
 4461 03b9 53       		.byte	0x53
 4462 03ba 00000000 		.4byte	0
 4463 03be 00000000 		.4byte	0
 4464              	.LLST38:
 4465 03c2 1C000000 		.4byte	.LVL72
 4466 03c6 31000000 		.4byte	.LVL74-1
 4467 03ca 0100     		.2byte	0x1
 4468 03cc 53       		.byte	0x53
 4469 03cd 34000000 		.4byte	.LVL75
 4470 03d1 36000000 		.4byte	.LVL76
 4471 03d5 0100     		.2byte	0x1
 4472 03d7 53       		.byte	0x53
 4473 03d8 00000000 		.4byte	0
 4474 03dc 00000000 		.4byte	0
 4475              	.LLST40:
 4476 03e0 20000000 		.4byte	.LVL73
 4477 03e4 31000000 		.4byte	.LVL74-1
 4478 03e8 0100     		.2byte	0x1
 4479 03ea 53       		.byte	0x53
 4480 03eb 00000000 		.4byte	0
 4481 03ef 00000000 		.4byte	0
 4482              	.LLST41:
 4483 03f3 20000000 		.4byte	.LVL73
 4484 03f7 31000000 		.4byte	.LVL74-1
 4485 03fb 0100     		.2byte	0x1
 4486 03fd 50       		.byte	0x50
 4487 03fe 00000000 		.4byte	0
 4488 0402 00000000 		.4byte	0
 4489              		.section	.debug_aranges,"",%progbits
 4490 0000 64000000 		.4byte	0x64
 4491 0004 0200     		.2byte	0x2
 4492 0006 00000000 		.4byte	.Ldebug_info0
 4493 000a 04       		.byte	0x4
 4494 000b 00       		.byte	0
 4495 000c 0000     		.2byte	0
 4496 000e 0000     		.2byte	0
 4497 0010 00000000 		.4byte	.LFB155
 4498 0014 20000000 		.4byte	.LFE155-.LFB155
 4499 0018 00000000 		.4byte	.LFB246
 4500 001c 0A000000 		.4byte	.LFE246-.LFB246
 4501 0020 00000000 		.4byte	.LFB248
 4502 0024 84000000 		.4byte	.LFE248-.LFB248
 4503 0028 00000000 		.4byte	.LFB247
ARM GAS  /tmp/cccI3Zqz.s 			page 80


 4504 002c 20000000 		.4byte	.LFE247-.LFB247
 4505 0030 00000000 		.4byte	.LFB250
 4506 0034 1C000000 		.4byte	.LFE250-.LFB250
 4507 0038 00000000 		.4byte	.LFB249
 4508 003c 24000000 		.4byte	.LFE249-.LFB249
 4509 0040 00000000 		.4byte	.LFB251
 4510 0044 60000000 		.4byte	.LFE251-.LFB251
 4511 0048 00000000 		.4byte	.LFB252
 4512 004c 4C000000 		.4byte	.LFE252-.LFB252
 4513 0050 00000000 		.4byte	.LFB253
 4514 0054 38000000 		.4byte	.LFE253-.LFB253
 4515 0058 00000000 		.4byte	.LFB254
 4516 005c 58000000 		.4byte	.LFE254-.LFB254
 4517 0060 00000000 		.4byte	0
 4518 0064 00000000 		.4byte	0
 4519              		.section	.debug_ranges,"",%progbits
 4520              	.Ldebug_ranges0:
 4521 0000 0E000000 		.4byte	.LBB65
 4522 0004 6E000000 		.4byte	.LBE65
 4523 0008 72000000 		.4byte	.LBB78
 4524 000c 76000000 		.4byte	.LBE78
 4525 0010 00000000 		.4byte	0
 4526 0014 00000000 		.4byte	0
 4527 0018 26000000 		.4byte	.LBB66
 4528 001c 2E000000 		.4byte	.LBE66
 4529 0020 30000000 		.4byte	.LBB69
 4530 0024 32000000 		.4byte	.LBE69
 4531 0028 00000000 		.4byte	0
 4532 002c 00000000 		.4byte	0
 4533 0030 38000000 		.4byte	.LBB70
 4534 0034 40000000 		.4byte	.LBE70
 4535 0038 42000000 		.4byte	.LBB73
 4536 003c 44000000 		.4byte	.LBE73
 4537 0040 00000000 		.4byte	0
 4538 0044 00000000 		.4byte	0
 4539 0048 50000000 		.4byte	.LBB74
 4540 004c 58000000 		.4byte	.LBE74
 4541 0050 5A000000 		.4byte	.LBB77
 4542 0054 5C000000 		.4byte	.LBE77
 4543 0058 00000000 		.4byte	0
 4544 005c 00000000 		.4byte	0
 4545 0060 02000000 		.4byte	.LBB89
 4546 0064 04000000 		.4byte	.LBE89
 4547 0068 06000000 		.4byte	.LBB98
 4548 006c 0E000000 		.4byte	.LBE98
 4549 0070 00000000 		.4byte	0
 4550 0074 00000000 		.4byte	0
 4551 0078 02000000 		.4byte	.LBB91
 4552 007c 04000000 		.4byte	.LBE91
 4553 0080 06000000 		.4byte	.LBB96
 4554 0084 0A000000 		.4byte	.LBE96
 4555 0088 00000000 		.4byte	0
 4556 008c 00000000 		.4byte	0
 4557 0090 02000000 		.4byte	.LBB118
 4558 0094 04000000 		.4byte	.LBE118
 4559 0098 06000000 		.4byte	.LBB127
 4560 009c 0E000000 		.4byte	.LBE127
ARM GAS  /tmp/cccI3Zqz.s 			page 81


 4561 00a0 00000000 		.4byte	0
 4562 00a4 00000000 		.4byte	0
 4563 00a8 02000000 		.4byte	.LBB120
 4564 00ac 04000000 		.4byte	.LBE120
 4565 00b0 06000000 		.4byte	.LBB125
 4566 00b4 0A000000 		.4byte	.LBE125
 4567 00b8 00000000 		.4byte	0
 4568 00bc 00000000 		.4byte	0
 4569 00c0 32000000 		.4byte	.LBB168
 4570 00c4 34000000 		.4byte	.LBE168
 4571 00c8 36000000 		.4byte	.LBB171
 4572 00cc 3A000000 		.4byte	.LBE171
 4573 00d0 00000000 		.4byte	0
 4574 00d4 00000000 		.4byte	0
 4575 00d8 12000000 		.4byte	.LBB181
 4576 00dc 36000000 		.4byte	.LBE181
 4577 00e0 3A000000 		.4byte	.LBB190
 4578 00e4 40000000 		.4byte	.LBE190
 4579 00e8 00000000 		.4byte	0
 4580 00ec 00000000 		.4byte	0
 4581 00f0 28000000 		.4byte	.LBB186
 4582 00f4 2A000000 		.4byte	.LBE186
 4583 00f8 2C000000 		.4byte	.LBB189
 4584 00fc 30000000 		.4byte	.LBE189
 4585 0100 00000000 		.4byte	0
 4586 0104 00000000 		.4byte	0
 4587 0108 00000000 		.4byte	.LFB155
 4588 010c 20000000 		.4byte	.LFE155
 4589 0110 00000000 		.4byte	.LFB246
 4590 0114 0A000000 		.4byte	.LFE246
 4591 0118 00000000 		.4byte	.LFB248
 4592 011c 84000000 		.4byte	.LFE248
 4593 0120 00000000 		.4byte	.LFB247
 4594 0124 20000000 		.4byte	.LFE247
 4595 0128 00000000 		.4byte	.LFB250
 4596 012c 1C000000 		.4byte	.LFE250
 4597 0130 00000000 		.4byte	.LFB249
 4598 0134 24000000 		.4byte	.LFE249
 4599 0138 00000000 		.4byte	.LFB251
 4600 013c 60000000 		.4byte	.LFE251
 4601 0140 00000000 		.4byte	.LFB252
 4602 0144 4C000000 		.4byte	.LFE252
 4603 0148 00000000 		.4byte	.LFB253
 4604 014c 38000000 		.4byte	.LFE253
 4605 0150 00000000 		.4byte	.LFB254
 4606 0154 58000000 		.4byte	.LFE254
 4607 0158 00000000 		.4byte	0
 4608 015c 00000000 		.4byte	0
 4609              		.section	.debug_line,"",%progbits
 4610              	.Ldebug_line0:
 4611 0000 9F040000 		.section	.debug_str,"MS",%progbits,1
 4611      0200EB01 
 4611      00000201 
 4611      FB0E0D00 
 4611      01010101 
 4612              	.LASF53:
 4613 0000 72656164 		.ascii	"ready_list_t\000"
ARM GAS  /tmp/cccI3Zqz.s 			page 82


 4613      795F6C69 
 4613      73745F74 
 4613      00
 4614              	.LASF93:
 4615 000d 77747472 		.ascii	"wttrp\000"
 4615      7000
 4616              	.LASF59:
 4617 0013 64656C74 		.ascii	"delta\000"
 4617      6100
 4618              	.LASF90:
 4619 0019 7264796D 		.ascii	"rdymsg\000"
 4619      736700
 4620              	.LASF16:
 4621 0020 75696E74 		.ascii	"uint64_t\000"
 4621      36345F74 
 4621      00
 4622              	.LASF72:
 4623 0029 6B65726E 		.ascii	"kernel_stats\000"
 4623      656C5F73 
 4623      74617473 
 4623      00
 4624              	.LASF5:
 4625 0036 5F5F7569 		.ascii	"__uint8_t\000"
 4625      6E74385F 
 4625      7400
 4626              	.LASF52:
 4627 0040 70726576 		.ascii	"prev\000"
 4627      00
 4628              	.LASF77:
 4629 0045 706F7274 		.ascii	"port_intctx\000"
 4629      5F696E74 
 4629      63747800 
 4630              	.LASF51:
 4631 0051 63685F74 		.ascii	"ch_threads_queue\000"
 4631      68726561 
 4631      64735F71 
 4631      75657565 
 4631      00
 4632              	.LASF64:
 4633 0062 73797374 		.ascii	"system_debug_t\000"
 4633      656D5F64 
 4633      65627567 
 4633      5F7400
 4634              	.LASF108:
 4635 0071 71756575 		.ascii	"queue_init\000"
 4635      655F696E 
 4635      697400
 4636              	.LASF105:
 4637 007c 706F7274 		.ascii	"port_lock\000"
 4637      5F6C6F63 
 4637      6B00
 4638              	.LASF81:
 4639 0086 776F7273 		.ascii	"worst\000"
 4639      7400
 4640              	.LASF84:
 4641 008c 74696D65 		.ascii	"time_measurement_t\000"
 4641      5F6D6561 
ARM GAS  /tmp/cccI3Zqz.s 			page 83


 4641      73757265 
 4641      6D656E74 
 4641      5F7400
 4642              	.LASF12:
 4643 009f 6C6F6E67 		.ascii	"long long unsigned int\000"
 4643      206C6F6E 
 4643      6720756E 
 4643      7369676E 
 4643      65642069 
 4644              	.LASF91:
 4645 00b6 65786974 		.ascii	"exitcode\000"
 4645      636F6465 
 4645      00
 4646              	.LASF71:
 4647 00bf 6D61696E 		.ascii	"mainthread\000"
 4647      74687265 
 4647      616400
 4648              	.LASF94:
 4649 00ca 73656E74 		.ascii	"sentmsg\000"
 4649      6D736700 
 4650              	.LASF61:
 4651 00d2 76697274 		.ascii	"virtual_timers_list_t\000"
 4651      75616C5F 
 4651      74696D65 
 4651      72735F6C 
 4651      6973745F 
 4652              	.LASF125:
 4653 00e8 49544D5F 		.ascii	"ITM_RxBuffer\000"
 4653      52784275 
 4653      66666572 
 4653      00
 4654              	.LASF49:
 4655 00f5 6E657874 		.ascii	"next\000"
 4655      00
 4656              	.LASF18:
 4657 00fa 72747469 		.ascii	"rttime_t\000"
 4657      6D655F74 
 4657      00
 4658              	.LASF102:
 4659 0103 6D757465 		.ascii	"mutex_t\000"
 4659      785F7400 
 4660              	.LASF120:
 4661 010b 63684D74 		.ascii	"chMtxUnlock\000"
 4661      78556E6C 
 4661      6F636B00 
 4662              	.LASF1:
 4663 0117 7369676E 		.ascii	"signed char\000"
 4663      65642063 
 4663      68617200 
 4664              	.LASF70:
 4665 0123 76746C69 		.ascii	"vtlist\000"
 4665      737400
 4666              	.LASF132:
 4667 012a 2F686F6D 		.ascii	"/home/kozinalexey/f4by/ardupilot/build/f4by-ch\000"
 4667      652F6B6F 
 4667      7A696E61 
 4667      6C657865 
ARM GAS  /tmp/cccI3Zqz.s 			page 84


 4667      792F6634 
 4668              	.LASF106:
 4669 0159 706F7274 		.ascii	"port_unlock\000"
 4669      5F756E6C 
 4669      6F636B00 
 4670              	.LASF39:
 4671 0165 6D736771 		.ascii	"msgqueue\000"
 4671      75657565 
 4671      00
 4672              	.LASF35:
 4673 016e 73746174 		.ascii	"state\000"
 4673      6500
 4674              	.LASF7:
 4675 0174 6C6F6E67 		.ascii	"long int\000"
 4675      20696E74 
 4675      00
 4676              	.LASF113:
 4677 017d 71756575 		.ascii	"queue_dequeue\000"
 4677      655F6465 
 4677      71756575 
 4677      6500
 4678              	.LASF20:
 4679 018b 74737461 		.ascii	"tstate_t\000"
 4679      74655F74 
 4679      00
 4680              	.LASF109:
 4681 0194 71756575 		.ascii	"queue_notempty\000"
 4681      655F6E6F 
 4681      74656D70 
 4681      747900
 4682              	.LASF123:
 4683 01a3 63684D74 		.ascii	"chMtxUnlockAllS\000"
 4683      78556E6C 
 4683      6F636B41 
 4683      6C6C5300 
 4684              	.LASF60:
 4685 01b3 66756E63 		.ascii	"func\000"
 4685      00
 4686              	.LASF44:
 4687 01b8 73746174 		.ascii	"stats\000"
 4687      7300
 4688              	.LASF118:
 4689 01be 63684D74 		.ascii	"chMtxTryLockS\000"
 4689      78547279 
 4689      4C6F636B 
 4689      5300
 4690              	.LASF129:
 4691 01cc 63685363 		.ascii	"chSchRescheduleS\000"
 4691      68526573 
 4691      63686564 
 4691      756C6553 
 4691      00
 4692              	.LASF8:
 4693 01dd 5F5F7569 		.ascii	"__uint32_t\000"
 4693      6E743332 
 4693      5F7400
 4694              	.LASF74:
ARM GAS  /tmp/cccI3Zqz.s 			page 85


 4695 01e8 72656761 		.ascii	"regarm_t\000"
 4695      726D5F74 
 4695      00
 4696              	.LASF78:
 4697 01f1 6F666673 		.ascii	"offset\000"
 4697      657400
 4698              	.LASF65:
 4699 01f8 63685F73 		.ascii	"ch_system_debug\000"
 4699      79737465 
 4699      6D5F6465 
 4699      62756700 
 4700              	.LASF38:
 4701 0208 77616974 		.ascii	"waiting\000"
 4701      696E6700 
 4702              	.LASF10:
 4703 0210 6C6F6E67 		.ascii	"long long int\000"
 4703      206C6F6E 
 4703      6720696E 
 4703      7400
 4704              	.LASF104:
 4705 021e 76616C75 		.ascii	"value\000"
 4705      6500
 4706              	.LASF25:
 4707 0224 636E745F 		.ascii	"cnt_t\000"
 4707      7400
 4708              	.LASF122:
 4709 022a 63684D74 		.ascii	"chMtxUnlockS\000"
 4709      78556E6C 
 4709      6F636B53 
 4709      00
 4710              	.LASF0:
 4711 0237 756E7369 		.ascii	"unsigned int\000"
 4711      676E6564 
 4711      20696E74 
 4711      00
 4712              	.LASF130:
 4713 0244 474E5520 		.ascii	"GNU C 4.9.3 20150529 (prerelease) -mcpu=cortex-m4 -"
 4713      4320342E 
 4713      392E3320 
 4713      32303135 
 4713      30353239 
 4714 0277 6D666C6F 		.ascii	"mfloat-abi=hard -mfpu=fpv4-sp-d16 -mno-thumb-interw"
 4714      61742D61 
 4714      62693D68 
 4714      61726420 
 4714      2D6D6670 
 4715 02aa 6F726B20 		.ascii	"ork -mthumb -g -Os -fomit-frame-pointer -falign-fun"
 4715      2D6D7468 
 4715      756D6220 
 4715      2D67202D 
 4715      4F73202D 
 4716 02dd 6374696F 		.ascii	"ctions=16 -ffunction-sections -fdata-sections -fno-"
 4716      6E733D31 
 4716      36202D66 
 4716      66756E63 
 4716      74696F6E 
 4717 0310 636F6D6D 		.ascii	"common -fsingle-precision-constant\000"
ARM GAS  /tmp/cccI3Zqz.s 			page 86


 4717      6F6E202D 
 4717      6673696E 
 4717      676C652D 
 4717      70726563 
 4718              	.LASF95:
 4719 0333 77747365 		.ascii	"wtsemp\000"
 4719      6D7000
 4720              	.LASF85:
 4721 033a 6E5F6972 		.ascii	"n_irq\000"
 4721      7100
 4722              	.LASF29:
 4723 0340 71756575 		.ascii	"queue\000"
 4723      6500
 4724              	.LASF43:
 4725 0346 6D706F6F 		.ascii	"mpool\000"
 4725      6C00
 4726              	.LASF4:
 4727 034c 73686F72 		.ascii	"short unsigned int\000"
 4727      7420756E 
 4727      7369676E 
 4727      65642069 
 4727      6E7400
 4728              	.LASF89:
 4729 035f 6B65726E 		.ascii	"kernel_stats_t\000"
 4729      656C5F73 
 4729      74617473 
 4729      5F7400
 4730              	.LASF47:
 4731 036e 63685F74 		.ascii	"ch_thread\000"
 4731      68726561 
 4731      6400
 4732              	.LASF33:
 4733 0378 6E616D65 		.ascii	"name\000"
 4733      00
 4734              	.LASF23:
 4735 037d 6D73675F 		.ascii	"msg_t\000"
 4735      7400
 4736              	.LASF82:
 4737 0383 6C617374 		.ascii	"last\000"
 4737      00
 4738              	.LASF26:
 4739 0388 75636E74 		.ascii	"ucnt_t\000"
 4739      5F7400
 4740              	.LASF40:
 4741 038f 6570656E 		.ascii	"epending\000"
 4741      64696E67 
 4741      00
 4742              	.LASF67:
 4743 0398 63685F73 		.ascii	"ch_system_t\000"
 4743      79737465 
 4743      6D5F7400 
 4744              	.LASF124:
 4745 03a4 63684D74 		.ascii	"chMtxUnlockAll\000"
 4745      78556E6C 
 4745      6F636B41 
 4745      6C6C00
 4746              	.LASF121:
ARM GAS  /tmp/cccI3Zqz.s 			page 87


 4747 03b3 6E657770 		.ascii	"newprio\000"
 4747      72696F00 
 4748              	.LASF19:
 4749 03bb 746D6F64 		.ascii	"tmode_t\000"
 4749      655F7400 
 4750              	.LASF88:
 4751 03c3 6D5F6372 		.ascii	"m_crit_isr\000"
 4751      69745F69 
 4751      737200
 4752              	.LASF54:
 4753 03ce 63685F72 		.ascii	"ch_ready_list\000"
 4753      65616479 
 4753      5F6C6973 
 4753      7400
 4754              	.LASF24:
 4755 03dc 6576656E 		.ascii	"eventmask_t\000"
 4755      746D6173 
 4755      6B5F7400 
 4756              	.LASF134:
 4757 03e8 63684D74 		.ascii	"chMtxTryLock\000"
 4757      78547279 
 4757      4C6F636B 
 4757      00
 4758              	.LASF6:
 4759 03f5 5F5F696E 		.ascii	"__int32_t\000"
 4759      7433325F 
 4759      7400
 4760              	.LASF75:
 4761 03ff 73746B61 		.ascii	"stkalign_t\000"
 4761      6C69676E 
 4761      5F7400
 4762              	.LASF31:
 4763 040a 6E657765 		.ascii	"newer\000"
 4763      7200
 4764              	.LASF42:
 4765 0410 7265616C 		.ascii	"realprio\000"
 4765      7072696F 
 4765      00
 4766              	.LASF128:
 4767 0419 5F737461 		.ascii	"_stats_stop_measure_crit_thd\000"
 4767      74735F73 
 4767      746F705F 
 4767      6D656173 
 4767      7572655F 
 4768              	.LASF73:
 4769 0436 73697A65 		.ascii	"sizetype\000"
 4769      74797065 
 4769      00
 4770              	.LASF45:
 4771 043f 74687265 		.ascii	"thread_reference_t\000"
 4771      61645F72 
 4771      65666572 
 4771      656E6365 
 4771      5F7400
 4772              	.LASF62:
 4773 0452 63685F76 		.ascii	"ch_virtual_timers_list\000"
 4773      69727475 
ARM GAS  /tmp/cccI3Zqz.s 			page 88


 4773      616C5F74 
 4773      696D6572 
 4773      735F6C69 
 4774              	.LASF107:
 4775 0469 5F5F7365 		.ascii	"__set_BASEPRI\000"
 4775      745F4241 
 4775      53455052 
 4775      4900
 4776              	.LASF119:
 4777 0477 63684D74 		.ascii	"chMtxLock\000"
 4777      784C6F63 
 4777      6B00
 4778              	.LASF114:
 4779 0481 63684D74 		.ascii	"chMtxObjectInit\000"
 4779      784F626A 
 4779      65637449 
 4779      6E697400 
 4780              	.LASF76:
 4781 0491 706F7274 		.ascii	"port_context\000"
 4781      5F636F6E 
 4781      74657874 
 4781      00
 4782              	.LASF79:
 4783 049e 746D5F63 		.ascii	"tm_calibration_t\000"
 4783      616C6962 
 4783      72617469 
 4783      6F6E5F74 
 4783      00
 4784              	.LASF30:
 4785 04af 7072696F 		.ascii	"prio\000"
 4785      00
 4786              	.LASF55:
 4787 04b4 63757272 		.ascii	"current\000"
 4787      656E7400 
 4788              	.LASF11:
 4789 04bc 5F5F7569 		.ascii	"__uint64_t\000"
 4789      6E743634 
 4789      5F7400
 4790              	.LASF83:
 4791 04c7 63756D75 		.ascii	"cumulative\000"
 4791      6C617469 
 4791      766500
 4792              	.LASF21:
 4793 04d2 74726566 		.ascii	"trefs_t\000"
 4793      735F7400 
 4794              	.LASF37:
 4795 04da 72656673 		.ascii	"refs\000"
 4795      00
 4796              	.LASF57:
 4797 04df 76697274 		.ascii	"virtual_timer_t\000"
 4797      75616C5F 
 4797      74696D65 
 4797      725F7400 
 4798              	.LASF22:
 4799 04ef 74707269 		.ascii	"tprio_t\000"
 4799      6F5F7400 
 4800              	.LASF86:
ARM GAS  /tmp/cccI3Zqz.s 			page 89


 4801 04f7 6E5F6374 		.ascii	"n_ctxswc\000"
 4801      78737763 
 4801      00
 4802              	.LASF103:
 4803 0500 5F426F6F 		.ascii	"_Bool\000"
 4803      6C00
 4804              	.LASF14:
 4805 0506 696E7433 		.ascii	"int32_t\000"
 4805      325F7400 
 4806              	.LASF2:
 4807 050e 756E7369 		.ascii	"unsigned char\000"
 4807      676E6564 
 4807      20636861 
 4807      7200
 4808              	.LASF3:
 4809 051c 73686F72 		.ascii	"short int\000"
 4809      7420696E 
 4809      7400
 4810              	.LASF63:
 4811 0526 6C617374 		.ascii	"lasttime\000"
 4811      74696D65 
 4811      00
 4812              	.LASF97:
 4813 052f 65776D61 		.ascii	"ewmask\000"
 4813      736B00
 4814              	.LASF68:
 4815 0536 63685F73 		.ascii	"ch_system\000"
 4815      79737465 
 4815      6D00
 4816              	.LASF112:
 4817 0540 5F5F6675 		.ascii	"__func__\000"
 4817      6E635F5F 
 4817      00
 4818              	.LASF116:
 4819 0549 63685379 		.ascii	"chSysLock\000"
 4819      734C6F63 
 4819      6B00
 4820              	.LASF58:
 4821 0553 63685F76 		.ascii	"ch_virtual_timer\000"
 4821      69727475 
 4821      616C5F74 
 4821      696D6572 
 4821      00
 4822              	.LASF98:
 4823 0564 63685F73 		.ascii	"ch_semaphore\000"
 4823      656D6170 
 4823      686F7265 
 4823      00
 4824              	.LASF135:
 4825 0571 63685363 		.ascii	"chSchGoSleepS\000"
 4825      68476F53 
 4825      6C656570 
 4825      5300
 4826              	.LASF15:
 4827 057f 75696E74 		.ascii	"uint32_t\000"
 4827      33325F74 
 4827      00
ARM GAS  /tmp/cccI3Zqz.s 			page 90


 4828              	.LASF96:
 4829 0588 77746D74 		.ascii	"wtmtxp\000"
 4829      787000
 4830              	.LASF126:
 4831 058f 63685363 		.ascii	"chSchReadyI\000"
 4831      68526561 
 4831      64794900 
 4832              	.LASF48:
 4833 059b 63685F74 		.ascii	"ch_threads_list\000"
 4833      68726561 
 4833      64735F6C 
 4833      69737400 
 4834              	.LASF100:
 4835 05ab 6F776E65 		.ascii	"owner\000"
 4835      7200
 4836              	.LASF9:
 4837 05b1 6C6F6E67 		.ascii	"long unsigned int\000"
 4837      20756E73 
 4837      69676E65 
 4837      6420696E 
 4837      7400
 4838              	.LASF34:
 4839 05c3 77616261 		.ascii	"wabase\000"
 4839      736500
 4840              	.LASF101:
 4841 05ca 63686172 		.ascii	"char\000"
 4841      00
 4842              	.LASF32:
 4843 05cf 6F6C6465 		.ascii	"older\000"
 4843      7200
 4844              	.LASF28:
 4845 05d5 74687265 		.ascii	"thread_t\000"
 4845      61645F74 
 4845      00
 4846              	.LASF80:
 4847 05de 62657374 		.ascii	"best\000"
 4847      00
 4848              	.LASF111:
 4849 05e3 71756575 		.ascii	"queue_fifo_remove\000"
 4849      655F6669 
 4849      666F5F72 
 4849      656D6F76 
 4849      6500
 4850              	.LASF27:
 4851 05f5 73797374 		.ascii	"systime_t\000"
 4851      696D655F 
 4851      7400
 4852              	.LASF56:
 4853 05ff 76746675 		.ascii	"vtfunc_t\000"
 4853      6E635F74 
 4853      00
 4854              	.LASF110:
 4855 0608 63684D74 		.ascii	"chMtxQueueNotEmptyS\000"
 4855      78517565 
 4855      75654E6F 
 4855      74456D70 
 4855      74795300 
ARM GAS  /tmp/cccI3Zqz.s 			page 91


 4856              	.LASF66:
 4857 061c 70616E69 		.ascii	"panic_msg\000"
 4857      635F6D73 
 4857      6700
 4858              	.LASF131:
 4859 0626 2E2E2F2E 		.ascii	"../../modules/ChibiOS/os/rt/src/chmtx.c\000"
 4859      2E2F6D6F 
 4859      64756C65 
 4859      732F4368 
 4859      6962694F 
 4860              	.LASF17:
 4861 064e 7274636E 		.ascii	"rtcnt_t\000"
 4861      745F7400 
 4862              	.LASF50:
 4863 0656 74687265 		.ascii	"threads_queue_t\000"
 4863      6164735F 
 4863      71756575 
 4863      655F7400 
 4864              	.LASF99:
 4865 0666 63685F6D 		.ascii	"ch_mutex\000"
 4865      75746578 
 4865      00
 4866              	.LASF69:
 4867 066f 726C6973 		.ascii	"rlist\000"
 4867      7400
 4868              	.LASF13:
 4869 0675 75696E74 		.ascii	"uint8_t\000"
 4869      385F7400 
 4870              	.LASF36:
 4871 067d 666C6167 		.ascii	"flags\000"
 4871      7300
 4872              	.LASF127:
 4873 0683 5F737461 		.ascii	"_stats_start_measure_crit_thd\000"
 4873      74735F73 
 4873      74617274 
 4873      5F6D6561 
 4873      73757265 
 4874              	.LASF92:
 4875 06a1 77746F62 		.ascii	"wtobjp\000"
 4875      6A7000
 4876              	.LASF46:
 4877 06a8 74687265 		.ascii	"threads_list_t\000"
 4877      6164735F 
 4877      6C697374 
 4877      5F7400
 4878              	.LASF117:
 4879 06b7 63685379 		.ascii	"chSysUnlock\000"
 4879      73556E6C 
 4879      6F636B00 
 4880              	.LASF115:
 4881 06c3 63684D74 		.ascii	"chMtxLockS\000"
 4881      784C6F63 
 4881      6B5300
 4882              	.LASF133:
 4883 06ce 71756575 		.ascii	"queue_prio_insert\000"
 4883      655F7072 
 4883      696F5F69 
ARM GAS  /tmp/cccI3Zqz.s 			page 92


 4883      6E736572 
 4883      7400
 4884              	.LASF41:
 4885 06e0 6D74786C 		.ascii	"mtxlist\000"
 4885      69737400 
 4886              	.LASF87:
 4887 06e8 6D5F6372 		.ascii	"m_crit_thd\000"
 4887      69745F74 
 4887      686400
 4888              		.ident	"GCC: (15:4.9.3+svn231177-1) 4.9.3 20150529 (prerelease)"
ARM GAS  /tmp/cccI3Zqz.s 			page 93


DEFINED SYMBOLS
                            *ABS*:0000000000000000 chmtx.c
     /tmp/cccI3Zqz.s:21     .text.queue_prio_insert:0000000000000000 $t
     /tmp/cccI3Zqz.s:25     .text.queue_prio_insert:0000000000000000 queue_prio_insert
     /tmp/cccI3Zqz.s:71     .text.chMtxObjectInit:0000000000000000 $t
     /tmp/cccI3Zqz.s:76     .text.chMtxObjectInit:0000000000000000 chMtxObjectInit
     /tmp/cccI3Zqz.s:102    .text.chMtxLockS:0000000000000000 $t
     /tmp/cccI3Zqz.s:107    .text.chMtxLockS:0000000000000000 chMtxLockS
     /tmp/cccI3Zqz.s:264    .text.chMtxLockS:0000000000000080 $d
     /tmp/cccI3Zqz.s:269    .text.chMtxLock:0000000000000000 $t
     /tmp/cccI3Zqz.s:274    .text.chMtxLock:0000000000000000 chMtxLock
     /tmp/cccI3Zqz.s:347    .text.chMtxTryLockS:0000000000000000 $t
     /tmp/cccI3Zqz.s:352    .text.chMtxTryLockS:0000000000000000 chMtxTryLockS
     /tmp/cccI3Zqz.s:390    .text.chMtxTryLockS:0000000000000018 $d
     /tmp/cccI3Zqz.s:395    .text.chMtxTryLock:0000000000000000 $t
     /tmp/cccI3Zqz.s:400    .text.chMtxTryLock:0000000000000000 chMtxTryLock
     /tmp/cccI3Zqz.s:475    .text.chMtxUnlock:0000000000000000 $t
     /tmp/cccI3Zqz.s:480    .text.chMtxUnlock:0000000000000000 chMtxUnlock
     /tmp/cccI3Zqz.s:627    .text.chMtxUnlock:000000000000005c $d
     /tmp/cccI3Zqz.s:637    .text.chMtxUnlockS:0000000000000000 $t
     /tmp/cccI3Zqz.s:642    .text.chMtxUnlockS:0000000000000000 chMtxUnlockS
     /tmp/cccI3Zqz.s:764    .text.chMtxUnlockS:0000000000000048 $d
     /tmp/cccI3Zqz.s:769    .text.chMtxUnlockAllS:0000000000000000 $t
     /tmp/cccI3Zqz.s:774    .text.chMtxUnlockAllS:0000000000000000 chMtxUnlockAllS
     /tmp/cccI3Zqz.s:854    .text.chMtxUnlockAllS:0000000000000034 $d
     /tmp/cccI3Zqz.s:859    .text.chMtxUnlockAll:0000000000000000 $t
     /tmp/cccI3Zqz.s:864    .text.chMtxUnlockAll:0000000000000000 chMtxUnlockAll
     /tmp/cccI3Zqz.s:986    .text.chMtxUnlockAll:0000000000000054 $d
                     .debug_frame:0000000000000010 $d

UNDEFINED SYMBOLS
chSchReadyI
chSchGoSleepS
ch
_stats_start_measure_crit_thd
_stats_stop_measure_crit_thd
chSchRescheduleS
