ARM GAS  /tmp/cccI3Zqz.s 			page 1


   1              		.syntax unified
   2              		.cpu cortex-m4
   3              		.eabi_attribute 27, 1
   4              		.eabi_attribute 28, 1
   5              		.fpu fpv4-sp-d16
   6              		.eabi_attribute 20, 1
   7              		.eabi_attribute 21, 1
   8              		.eabi_attribute 23, 3
   9              		.eabi_attribute 24, 1
  10              		.eabi_attribute 25, 1
  11              		.eabi_attribute 26, 1
  12              		.eabi_attribute 30, 4
  13              		.eabi_attribute 34, 1
  14              		.eabi_attribute 18, 4
  15              		.thumb
  16              		.file	"chmtx.c"
  17              		.text
  18              	.Ltext0:
  19              		.cfi_sections	.debug_frame
  20              		.section	.text.queue_prio_insert,"ax",%progbits
  21              		.align	1
  22              		.thumb
  23              		.thumb_func
  24              		.type	queue_prio_insert, %function
  25              	queue_prio_insert:
  26              	.LFB155:
  27              		.file 1 "../../modules/ChibiOS/os/rt/include/chschd.h"
  28              		.loc 1 597 0
  29              		.cfi_startproc
  30              		@ args = 0, pretend = 0, frame = 0
  31              		@ frame_needed = 0, uses_anonymous_args = 0
  32              	.LVL0:
  33 0000 10B5     		push	{r4, lr}
  34              		.cfi_def_cfa_offset 8
  35              		.cfi_offset 4, -8
  36              		.cfi_offset 14, -4
  37              		.loc 1 597 0
  38 0002 0B46     		mov	r3, r1
  39              	.LVL1:
  40              	.L3:
  41              		.loc 1 601 0 discriminator 2
  42 0004 1B68     		ldr	r3, [r3]
  43              	.LVL2:
  44              		.loc 1 602 0 discriminator 2
  45 0006 8B42     		cmp	r3, r1
  46 0008 04D0     		beq	.L2
  47              		.loc 1 602 0 is_stmt 0 discriminator 1
  48 000a 9C68     		ldr	r4, [r3, #8]
  49 000c 8268     		ldr	r2, [r0, #8]
  50 000e 9442     		cmp	r4, r2
  51 0010 F8D2     		bcs	.L3
  52 0012 1946     		mov	r1, r3
  53              	.LVL3:
  54              	.L2:
  55              		.loc 1 604 0 is_stmt 1
  56 0014 4B68     		ldr	r3, [r1, #4]
  57              	.LVL4:
ARM GAS  /tmp/cccI3Zqz.s 			page 2


  58              		.loc 1 603 0
  59 0016 0160     		str	r1, [r0]
  60              		.loc 1 604 0
  61 0018 4360     		str	r3, [r0, #4]
  62              		.loc 1 605 0
  63 001a 1860     		str	r0, [r3]
  64              		.loc 1 606 0
  65 001c 4860     		str	r0, [r1, #4]
  66 001e 10BD     		pop	{r4, pc}
  67              		.cfi_endproc
  68              	.LFE155:
  69              		.size	queue_prio_insert, .-queue_prio_insert
  70              		.section	.text.chMtxObjectInit,"ax",%progbits
  71              		.align	1
  72              		.global	chMtxObjectInit
  73              		.thumb
  74              		.thumb_func
  75              		.type	chMtxObjectInit, %function
  76              	chMtxObjectInit:
  77              	.LFB246:
  78              		.file 2 "../../modules/ChibiOS/os/rt/src/chmtx.c"
  79              		.loc 2 103 0
  80              		.cfi_startproc
  81              		@ args = 0, pretend = 0, frame = 0
  82              		@ frame_needed = 0, uses_anonymous_args = 0
  83              		@ link register save eliminated.
  84              	.LVL5:
  85              		.loc 2 108 0
  86 0000 0023     		movs	r3, #0
  87              	.LBB56:
  88              	.LBB57:
  89              		.loc 1 550 0
  90 0002 0060     		str	r0, [r0]
  91              		.loc 1 551 0
  92 0004 4060     		str	r0, [r0, #4]
  93              	.LBE57:
  94              	.LBE56:
  95              		.loc 2 108 0
  96 0006 8360     		str	r3, [r0, #8]
  97 0008 7047     		bx	lr
  98              		.cfi_endproc
  99              	.LFE246:
 100              		.size	chMtxObjectInit, .-chMtxObjectInit
 101              		.section	.text.chMtxLockS,"ax",%progbits
 102              		.align	1
 103              		.global	chMtxLockS
 104              		.thumb
 105              		.thumb_func
 106              		.type	chMtxLockS, %function
 107              	chMtxLockS:
 108              	.LFB248:
 109              		.loc 2 139 0
 110              		.cfi_startproc
 111              		@ args = 0, pretend = 0, frame = 0
 112              		@ frame_needed = 0, uses_anonymous_args = 0
 113              	.LVL6:
 114 0000 70B5     		push	{r4, r5, r6, lr}
ARM GAS  /tmp/cccI3Zqz.s 			page 3


 115              		.cfi_def_cfa_offset 16
 116              		.cfi_offset 4, -16
 117              		.cfi_offset 5, -12
 118              		.cfi_offset 6, -8
 119              		.cfi_offset 14, -4
 120              		.loc 2 140 0
 121 0002 1F4B     		ldr	r3, .L16
 122              		.loc 2 146 0
 123 0004 8468     		ldr	r4, [r0, #8]
 124              		.loc 2 140 0
 125 0006 9D69     		ldr	r5, [r3, #24]
 126              	.LVL7:
 127              		.loc 2 139 0
 128 0008 0646     		mov	r6, r0
 129              		.loc 2 146 0
 130 000a 002C     		cmp	r4, #0
 131 000c 33D0     		beq	.L15
 132              	.LVL8:
 133              	.L9:
 134              	.LBB65:
 135              		.loc 2 165 0
 136 000e AB68     		ldr	r3, [r5, #8]
 137 0010 A268     		ldr	r2, [r4, #8]
 138 0012 9A42     		cmp	r2, r3
 139 0014 25D2     		bcs	.L10
 140              		.loc 2 167 0
 141 0016 A360     		str	r3, [r4, #8]
 142              		.loc 2 170 0
 143 0018 94F82030 		ldrb	r3, [r4, #32]	@ zero_extendqisi2
 144 001c 062B     		cmp	r3, #6
 145 001e 0BD0     		beq	.L11
 146 0020 072B     		cmp	r3, #7
 147 0022 15D0     		beq	.L12
 148 0024 EBB9     		cbnz	r3, .L10
 149              	.LVL9:
 150              	.LBB66:
 151              	.LBB67:
 152              		.loc 1 637 0
 153 0026 94E80C00 		ldmia	r4, {r2, r3}
 154 002a 1A60     		str	r2, [r3]
 155              		.loc 1 638 0
 156 002c 2268     		ldr	r2, [r4]
 157              	.LBE67:
 158              	.LBE66:
 159              		.loc 2 202 0
 160 002e 2046     		mov	r0, r4
 161              	.LBB69:
 162              	.LBB68:
 163              		.loc 1 638 0
 164 0030 5360     		str	r3, [r2, #4]
 165              	.LBE68:
 166              	.LBE69:
 167              		.loc 2 202 0
 168 0032 FFF7FEFF 		bl	chSchReadyI
 169              	.LVL10:
 170              		.loc 2 203 0
 171 0036 14E0     		b	.L10
ARM GAS  /tmp/cccI3Zqz.s 			page 4


 172              	.LVL11:
 173              	.L11:
 174              	.LBB70:
 175              	.LBB71:
 176              		.loc 1 637 0
 177 0038 94E80C00 		ldmia	r4, {r2, r3}
 178 003c 1A60     		str	r2, [r3]
 179              		.loc 1 638 0
 180 003e 2268     		ldr	r2, [r4]
 181              	.LBE71:
 182              	.LBE70:
 183              		.loc 2 173 0
 184 0040 616A     		ldr	r1, [r4, #36]
 185              	.LBB73:
 186              	.LBB72:
 187              		.loc 1 638 0
 188 0042 5360     		str	r3, [r2, #4]
 189              	.LBE72:
 190              	.LBE73:
 191              		.loc 2 173 0
 192 0044 2046     		mov	r0, r4
 193 0046 FFF7FEFF 		bl	queue_prio_insert
 194              	.LVL12:
 195              		.loc 2 174 0
 196 004a 636A     		ldr	r3, [r4, #36]
 197 004c 9C68     		ldr	r4, [r3, #8]
 198              	.LVL13:
 199              		.loc 2 176 0
 200 004e DEE7     		b	.L9
 201              	.L12:
 202              	.LVL14:
 203              	.LBB74:
 204              	.LBB75:
 205              		.loc 1 637 0
 206 0050 94E80C00 		ldmia	r4, {r2, r3}
 207 0054 1A60     		str	r2, [r3]
 208              		.loc 1 638 0
 209 0056 2268     		ldr	r2, [r4]
 210              	.LBE75:
 211              	.LBE74:
 212              		.loc 2 193 0
 213 0058 616A     		ldr	r1, [r4, #36]
 214              	.LBB77:
 215              	.LBB76:
 216              		.loc 1 638 0
 217 005a 5360     		str	r3, [r2, #4]
 218              	.LBE76:
 219              	.LBE77:
 220              		.loc 2 193 0
 221 005c 2046     		mov	r0, r4
 222 005e FFF7FEFF 		bl	queue_prio_insert
 223              	.LVL15:
 224              	.L10:
 225              		.loc 2 212 0
 226 0062 2846     		mov	r0, r5
 227 0064 3146     		mov	r1, r6
 228 0066 FFF7FEFF 		bl	queue_prio_insert
ARM GAS  /tmp/cccI3Zqz.s 			page 5


 229              	.LVL16:
 230              		.loc 2 213 0
 231 006a 6E62     		str	r6, [r5, #36]
 232              		.loc 2 214 0
 233 006c 0620     		movs	r0, #6
 234              	.LBE65:
 235              		.loc 2 236 0
 236 006e BDE87040 		pop	{r4, r5, r6, lr}
 237              		.cfi_remember_state
 238              		.cfi_restore 14
 239              		.cfi_restore 6
 240              		.cfi_restore 5
 241              		.cfi_restore 4
 242              		.cfi_def_cfa_offset 0
 243              	.LVL17:
 244              	.LBB78:
 245              		.loc 2 214 0
 246 0072 FFF7FEBF 		b	chSchGoSleepS
 247              	.LVL18:
 248              	.L15:
 249              		.cfi_restore_state
 250              	.LBE78:
 251              		.loc 2 233 0
 252 0076 AB6B     		ldr	r3, [r5, #56]
 253              		.loc 2 232 0
 254 0078 8560     		str	r5, [r0, #8]
 255              		.loc 2 233 0
 256 007a C360     		str	r3, [r0, #12]
 257              		.loc 2 234 0
 258 007c A863     		str	r0, [r5, #56]
 259 007e 70BD     		pop	{r4, r5, r6, pc}
 260              	.LVL19:
 261              	.L17:
 262              		.align	2
 263              	.L16:
 264 0080 00000000 		.word	ch
 265              		.cfi_endproc
 266              	.LFE248:
 267              		.size	chMtxLockS, .-chMtxLockS
 268              		.section	.text.chMtxLock,"ax",%progbits
 269              		.align	1
 270              		.global	chMtxLock
 271              		.thumb
 272              		.thumb_func
 273              		.type	chMtxLock, %function
 274              	chMtxLock:
 275              	.LFB247:
 276              		.loc 2 123 0
 277              		.cfi_startproc
 278              		@ args = 0, pretend = 0, frame = 0
 279              		@ frame_needed = 0, uses_anonymous_args = 0
 280              	.LVL20:
 281 0000 10B5     		push	{r4, lr}
 282              		.cfi_def_cfa_offset 8
 283              		.cfi_offset 4, -8
 284              		.cfi_offset 14, -4
 285              	.LBB89:
ARM GAS  /tmp/cccI3Zqz.s 			page 6


 286              	.LBB90:
 287              	.LBB91:
 288              	.LBB92:
 289              	.LBB93:
 290              		.file 3 "../../modules/ChibiOS/os/common/ext/CMSIS/include/cmsis_gcc.h"
 291              		.loc 3 264 0
 292 0002 2023     		movs	r3, #32
 293              	.LBE93:
 294              	.LBE92:
 295              	.LBE91:
 296              	.LBE90:
 297              	.LBE89:
 298              		.loc 2 123 0
 299 0004 0446     		mov	r4, r0
 300              	.LBB98:
 301              	.LBB97:
 302              	.LBB96:
 303              	.LBB95:
 304              	.LBB94:
 305              		.loc 3 264 0
 306              	@ 264 "../../modules/ChibiOS/os/common/ext/CMSIS/include/cmsis_gcc.h" 1
 307 0006 83F31188 		MSR basepri, r3
 308              	@ 0 "" 2
 309              		.thumb
 310              	.LBE94:
 311              	.LBE95:
 312              	.LBE96:
 313              		.file 4 "../../modules/ChibiOS/os/rt/include/chsys.h"
 314              		.loc 4 377 0
 315 000a FFF7FEFF 		bl	_stats_start_measure_crit_thd
 316              	.LVL21:
 317              	.LBE97:
 318              	.LBE98:
 319              		.loc 2 126 0
 320 000e 2046     		mov	r0, r4
 321 0010 FFF7FEFF 		bl	chMtxLockS
 322              	.LVL22:
 323              	.LBB99:
 324              	.LBB100:
 325              		.loc 4 389 0
 326 0014 FFF7FEFF 		bl	_stats_stop_measure_crit_thd
 327              	.LVL23:
 328              	.LBB101:
 329              	.LBB102:
 330              	.LBB103:
 331              		.loc 3 264 0
 332 0018 0023     		movs	r3, #0
 333              	@ 264 "../../modules/ChibiOS/os/common/ext/CMSIS/include/cmsis_gcc.h" 1
 334 001a 83F31188 		MSR basepri, r3
 335              	@ 0 "" 2
 336              		.thumb
 337 001e 10BD     		pop	{r4, pc}
 338              	.LBE103:
 339              	.LBE102:
 340              	.LBE101:
 341              	.LBE100:
 342              	.LBE99:
ARM GAS  /tmp/cccI3Zqz.s 			page 7


 343              		.cfi_endproc
 344              	.LFE247:
 345              		.size	chMtxLock, .-chMtxLock
 346              		.section	.text.chMtxTryLockS,"ax",%progbits
 347              		.align	1
 348              		.global	chMtxTryLockS
 349              		.thumb
 350              		.thumb_func
 351              		.type	chMtxTryLockS, %function
 352              	chMtxTryLockS:
 353              	.LFB250:
 354              		.loc 2 282 0
 355              		.cfi_startproc
 356              		@ args = 0, pretend = 0, frame = 0
 357              		@ frame_needed = 0, uses_anonymous_args = 0
 358              		@ link register save eliminated.
 359              	.LVL24:
 360              		.loc 2 287 0
 361 0000 8368     		ldr	r3, [r0, #8]
 362 0002 3BB9     		cbnz	r3, .L21
 363              	.LVL25:
 364              	.LBB106:
 365              	.LBB107:
 366              		.loc 2 305 0
 367 0004 044B     		ldr	r3, .L22
 368 0006 9B69     		ldr	r3, [r3, #24]
 369 0008 8360     		str	r3, [r0, #8]
 370              		.loc 2 306 0
 371 000a 9A6B     		ldr	r2, [r3, #56]
 372 000c C260     		str	r2, [r0, #12]
 373              		.loc 2 307 0
 374 000e 9863     		str	r0, [r3, #56]
 375 0010 0120     		movs	r0, #1
 376              	.LVL26:
 377 0012 7047     		bx	lr
 378              	.LVL27:
 379              	.L21:
 380              	.LBE107:
 381              	.LBE106:
 382              		.loc 2 297 0
 383 0014 0020     		movs	r0, #0
 384              	.LVL28:
 385              		.loc 2 309 0
 386 0016 7047     		bx	lr
 387              	.L23:
 388              		.align	2
 389              	.L22:
 390 0018 00000000 		.word	ch
 391              		.cfi_endproc
 392              	.LFE250:
 393              		.size	chMtxTryLockS, .-chMtxTryLockS
 394              		.section	.text.chMtxTryLock,"ax",%progbits
 395              		.align	1
 396              		.global	chMtxTryLock
 397              		.thumb
 398              		.thumb_func
 399              		.type	chMtxTryLock, %function
ARM GAS  /tmp/cccI3Zqz.s 			page 8


 400              	chMtxTryLock:
 401              	.LFB249:
 402              		.loc 2 255 0
 403              		.cfi_startproc
 404              		@ args = 0, pretend = 0, frame = 0
 405              		@ frame_needed = 0, uses_anonymous_args = 0
 406              	.LVL29:
 407 0000 10B5     		push	{r4, lr}
 408              		.cfi_def_cfa_offset 8
 409              		.cfi_offset 4, -8
 410              		.cfi_offset 14, -4
 411              	.LBB118:
 412              	.LBB119:
 413              	.LBB120:
 414              	.LBB121:
 415              	.LBB122:
 416              		.loc 3 264 0
 417 0002 2023     		movs	r3, #32
 418              	.LBE122:
 419              	.LBE121:
 420              	.LBE120:
 421              	.LBE119:
 422              	.LBE118:
 423              		.loc 2 255 0
 424 0004 0446     		mov	r4, r0
 425              	.LBB127:
 426              	.LBB126:
 427              	.LBB125:
 428              	.LBB124:
 429              	.LBB123:
 430              		.loc 3 264 0
 431              	@ 264 "../../modules/ChibiOS/os/common/ext/CMSIS/include/cmsis_gcc.h" 1
 432 0006 83F31188 		MSR basepri, r3
 433              	@ 0 "" 2
 434              		.thumb
 435              	.LBE123:
 436              	.LBE124:
 437              	.LBE125:
 438              		.loc 4 377 0
 439 000a FFF7FEFF 		bl	_stats_start_measure_crit_thd
 440              	.LVL30:
 441              	.LBE126:
 442              	.LBE127:
 443              		.loc 2 259 0
 444 000e 2046     		mov	r0, r4
 445 0010 FFF7FEFF 		bl	chMtxTryLockS
 446              	.LVL31:
 447 0014 0446     		mov	r4, r0
 448              	.LVL32:
 449              	.LBB128:
 450              	.LBB129:
 451              		.loc 4 389 0
 452 0016 FFF7FEFF 		bl	_stats_stop_measure_crit_thd
 453              	.LVL33:
 454              	.LBB130:
 455              	.LBB131:
 456              	.LBB132:
ARM GAS  /tmp/cccI3Zqz.s 			page 9


 457              		.loc 3 264 0
 458 001a 0023     		movs	r3, #0
 459              	@ 264 "../../modules/ChibiOS/os/common/ext/CMSIS/include/cmsis_gcc.h" 1
 460 001c 83F31188 		MSR basepri, r3
 461              	@ 0 "" 2
 462              		.thumb
 463              	.LBE132:
 464              	.LBE131:
 465              	.LBE130:
 466              	.LBE129:
 467              	.LBE128:
 468              		.loc 2 263 0
 469 0020 2046     		mov	r0, r4
 470 0022 10BD     		pop	{r4, pc}
 471              		.cfi_endproc
 472              	.LFE249:
 473              		.size	chMtxTryLock, .-chMtxTryLock
 474              		.section	.text.chMtxUnlock,"ax",%progbits
 475              		.align	1
 476              		.global	chMtxUnlock
 477              		.thumb
 478              		.thumb_func
 479              		.type	chMtxUnlock, %function
 480              	chMtxUnlock:
 481              	.LFB251:
 482              		.loc 2 323 0
 483              		.cfi_startproc
 484              		@ args = 0, pretend = 0, frame = 0
 485              		@ frame_needed = 0, uses_anonymous_args = 0
 486              	.LVL34:
 487 0000 38B5     		push	{r3, r4, r5, lr}
 488              		.cfi_def_cfa_offset 16
 489              		.cfi_offset 3, -16
 490              		.cfi_offset 4, -12
 491              		.cfi_offset 5, -8
 492              		.cfi_offset 14, -4
 493              		.loc 2 324 0
 494 0002 164B     		ldr	r3, .L32
 495              		.loc 2 323 0
 496 0004 0446     		mov	r4, r0
 497              		.loc 2 324 0
 498 0006 9D69     		ldr	r5, [r3, #24]
 499              	.LVL35:
 500              	.LBB154:
 501              	.LBB155:
 502              	.LBB156:
 503              	.LBB157:
 504              	.LBB158:
 505              		.loc 3 264 0
 506 0008 2023     		movs	r3, #32
 507              	@ 264 "../../modules/ChibiOS/os/common/ext/CMSIS/include/cmsis_gcc.h" 1
 508 000a 83F31188 		MSR basepri, r3
 509              	@ 0 "" 2
 510              		.thumb
 511              	.LBE158:
 512              	.LBE157:
 513              	.LBE156:
ARM GAS  /tmp/cccI3Zqz.s 			page 10


 514              		.loc 4 377 0
 515 000e FFF7FEFF 		bl	_stats_start_measure_crit_thd
 516              	.LVL36:
 517              	.LBE155:
 518              	.LBE154:
 519              	.LBB159:
 520              	.LBB160:
 521              	.LBB161:
 522              	.LBB162:
 523              		.loc 1 577 0
 524 0012 2068     		ldr	r0, [r4]
 525              	.LBE162:
 526              	.LBE161:
 527              	.LBE160:
 528              	.LBE159:
 529              		.loc 2 344 0
 530 0014 E368     		ldr	r3, [r4, #12]
 531 0016 AB63     		str	r3, [r5, #56]
 532              	.LVL37:
 533              		.loc 2 347 0
 534 0018 A042     		cmp	r0, r4
 535 001a 17D0     		beq	.L26
 536              	.LBB163:
 537              		.loc 2 352 0
 538 001c EA6B     		ldr	r2, [r5, #60]
 539              	.LVL38:
 540              	.L27:
 541              		.loc 2 354 0
 542 001e 43B1     		cbz	r3, .L31
 543              	.LVL39:
 544              	.LBB164:
 545              	.LBB165:
 546              	.LBB166:
 547              	.LBB167:
 548              		.loc 1 577 0
 549 0020 1968     		ldr	r1, [r3]
 550              	.LBE167:
 551              	.LBE166:
 552              	.LBE165:
 553              	.LBE164:
 554              		.loc 2 358 0
 555 0022 9942     		cmp	r1, r3
 556 0024 03D0     		beq	.L28
 557              		.loc 2 359 0 discriminator 1
 558 0026 8968     		ldr	r1, [r1, #8]
 559 0028 8A42     		cmp	r2, r1
 560 002a 38BF     		it	cc
 561 002c 0A46     		movcc	r2, r1
 562              	.LVL40:
 563              	.L28:
 564              		.loc 2 362 0
 565 002e DB68     		ldr	r3, [r3, #12]
 566              	.LVL41:
 567 0030 F5E7     		b	.L27
 568              	.L31:
 569              	.LBB168:
 570              	.LBB169:
ARM GAS  /tmp/cccI3Zqz.s 			page 11


 571              		.loc 1 620 0
 572 0032 0368     		ldr	r3, [r0]
 573              	.LVL42:
 574              	.LBE169:
 575              	.LBE168:
 576              		.loc 2 367 0
 577 0034 AA60     		str	r2, [r5, #8]
 578              	.LVL43:
 579              	.LBB171:
 580              	.LBB170:
 581              		.loc 1 620 0
 582 0036 2360     		str	r3, [r4]
 583              		.loc 1 621 0
 584 0038 5C60     		str	r4, [r3, #4]
 585              	.LBE170:
 586              	.LBE171:
 587              		.loc 2 376 0
 588 003a 836B     		ldr	r3, [r0, #56]
 589 003c E360     		str	r3, [r4, #12]
 590              		.loc 2 375 0
 591 003e A060     		str	r0, [r4, #8]
 592              		.loc 2 377 0
 593 0040 8463     		str	r4, [r0, #56]
 594              		.loc 2 383 0
 595 0042 FFF7FEFF 		bl	chSchReadyI
 596              	.LVL44:
 597              		.loc 2 384 0
 598 0046 FFF7FEFF 		bl	chSchRescheduleS
 599              	.LVL45:
 600              	.LBE163:
 601 004a 01E0     		b	.L30
 602              	.LVL46:
 603              	.L26:
 604              		.loc 2 387 0
 605 004c 0023     		movs	r3, #0
 606 004e 8360     		str	r3, [r0, #8]
 607              	.L30:
 608              	.LBB172:
 609              	.LBB173:
 610              		.loc 4 389 0
 611 0050 FFF7FEFF 		bl	_stats_stop_measure_crit_thd
 612              	.LVL47:
 613              	.LBB174:
 614              	.LBB175:
 615              	.LBB176:
 616              		.loc 3 264 0
 617 0054 0023     		movs	r3, #0
 618              	@ 264 "../../modules/ChibiOS/os/common/ext/CMSIS/include/cmsis_gcc.h" 1
 619 0056 83F31188 		MSR basepri, r3
 620              	@ 0 "" 2
 621              		.thumb
 622 005a 38BD     		pop	{r3, r4, r5, pc}
 623              	.LVL48:
 624              	.L33:
 625              		.align	2
 626              	.L32:
 627 005c 00000000 		.word	ch
ARM GAS  /tmp/cccI3Zqz.s 			page 12


 628              	.LBE176:
 629              	.LBE175:
 630              	.LBE174:
 631              	.LBE173:
 632              	.LBE172:
 633              		.cfi_endproc
 634              	.LFE251:
 635              		.size	chMtxUnlock, .-chMtxUnlock
 636              		.section	.text.chMtxUnlockS,"ax",%progbits
 637              		.align	1
 638              		.global	chMtxUnlockS
 639              		.thumb
 640              		.thumb_func
 641              		.type	chMtxUnlockS, %function
 642              	chMtxUnlockS:
 643              	.LFB252:
 644              		.loc 2 410 0
 645              		.cfi_startproc
 646              		@ args = 0, pretend = 0, frame = 0
 647              		@ frame_needed = 0, uses_anonymous_args = 0
 648              	.LVL49:
 649              		.loc 2 411 0
 650 0000 114A     		ldr	r2, .L40
 651              		.loc 2 410 0
 652 0002 0346     		mov	r3, r0
 653              		.loc 2 411 0
 654 0004 9169     		ldr	r1, [r2, #24]
 655              	.LVL50:
 656              		.loc 2 430 0
 657 0006 C268     		ldr	r2, [r0, #12]
 658              	.LBB177:
 659              	.LBB178:
 660              	.LBB179:
 661              	.LBB180:
 662              		.loc 1 577 0
 663 0008 0068     		ldr	r0, [r0]
 664              	.LVL51:
 665              	.LBE180:
 666              	.LBE179:
 667              	.LBE178:
 668              	.LBE177:
 669              		.loc 2 433 0
 670 000a 9842     		cmp	r0, r3
 671              		.loc 2 410 0
 672 000c 30B5     		push	{r4, r5, lr}
 673              		.cfi_def_cfa_offset 12
 674              		.cfi_offset 4, -12
 675              		.cfi_offset 5, -8
 676              		.cfi_offset 14, -4
 677              		.loc 2 430 0
 678 000e 8A63     		str	r2, [r1, #56]
 679              		.loc 2 433 0
 680 0010 16D0     		beq	.L35
 681              	.LBB181:
 682              		.loc 2 438 0
 683 0012 CC6B     		ldr	r4, [r1, #60]
 684              	.LVL52:
ARM GAS  /tmp/cccI3Zqz.s 			page 13


 685              	.L36:
 686              		.loc 2 440 0
 687 0014 42B1     		cbz	r2, .L39
 688              	.LVL53:
 689              	.LBB182:
 690              	.LBB183:
 691              	.LBB184:
 692              	.LBB185:
 693              		.loc 1 577 0
 694 0016 1568     		ldr	r5, [r2]
 695              	.LBE185:
 696              	.LBE184:
 697              	.LBE183:
 698              	.LBE182:
 699              		.loc 2 444 0
 700 0018 9542     		cmp	r5, r2
 701 001a 03D0     		beq	.L37
 702              		.loc 2 445 0 discriminator 1
 703 001c AD68     		ldr	r5, [r5, #8]
 704 001e AC42     		cmp	r4, r5
 705 0020 38BF     		it	cc
 706 0022 2C46     		movcc	r4, r5
 707              	.LVL54:
 708              	.L37:
 709              		.loc 2 448 0
 710 0024 D268     		ldr	r2, [r2, #12]
 711              	.LVL55:
 712 0026 F5E7     		b	.L36
 713              	.L39:
 714              	.LBB186:
 715              	.LBB187:
 716              		.loc 1 620 0
 717 0028 0268     		ldr	r2, [r0]
 718              	.LVL56:
 719              	.LBE187:
 720              	.LBE186:
 721              		.loc 2 453 0
 722 002a 8C60     		str	r4, [r1, #8]
 723              	.LVL57:
 724              	.LBB189:
 725              	.LBB188:
 726              		.loc 1 620 0
 727 002c 1A60     		str	r2, [r3]
 728              		.loc 1 621 0
 729 002e 5360     		str	r3, [r2, #4]
 730              	.LBE188:
 731              	.LBE189:
 732              		.loc 2 462 0
 733 0030 826B     		ldr	r2, [r0, #56]
 734              		.loc 2 461 0
 735 0032 9860     		str	r0, [r3, #8]
 736              		.loc 2 462 0
 737 0034 DA60     		str	r2, [r3, #12]
 738              	.LBE181:
 739              		.loc 2 472 0
 740 0036 BDE83040 		pop	{r4, r5, lr}
 741              		.cfi_remember_state
ARM GAS  /tmp/cccI3Zqz.s 			page 14


 742              		.cfi_restore 14
 743              		.cfi_restore 5
 744              		.cfi_restore 4
 745              		.cfi_def_cfa_offset 0
 746              	.LVL58:
 747              	.LBB190:
 748              		.loc 2 463 0
 749 003a 8363     		str	r3, [r0, #56]
 750              		.loc 2 464 0
 751 003c FFF7FEBF 		b	chSchReadyI
 752              	.LVL59:
 753              	.L35:
 754              		.cfi_restore_state
 755              	.LBE190:
 756              		.loc 2 467 0
 757 0040 0023     		movs	r3, #0
 758              	.LVL60:
 759 0042 8360     		str	r3, [r0, #8]
 760 0044 30BD     		pop	{r4, r5, pc}
 761              	.L41:
 762 0046 00BF     		.align	2
 763              	.L40:
 764 0048 00000000 		.word	ch
 765              		.cfi_endproc
 766              	.LFE252:
 767              		.size	chMtxUnlockS, .-chMtxUnlockS
 768              		.section	.text.chMtxUnlockAllS,"ax",%progbits
 769              		.align	1
 770              		.global	chMtxUnlockAllS
 771              		.thumb
 772              		.thumb_func
 773              		.type	chMtxUnlockAllS, %function
 774              	chMtxUnlockAllS:
 775              	.LFB253:
 776              		.loc 2 487 0
 777              		.cfi_startproc
 778              		@ args = 0, pretend = 0, frame = 0
 779              		@ frame_needed = 0, uses_anonymous_args = 0
 780              		.loc 2 488 0
 781 0000 0C4B     		ldr	r3, .L48
 782              		.loc 2 487 0
 783 0002 10B5     		push	{r4, lr}
 784              		.cfi_def_cfa_offset 8
 785              		.cfi_offset 4, -8
 786              		.cfi_offset 14, -4
 787              		.loc 2 488 0
 788 0004 9C69     		ldr	r4, [r3, #24]
 789              	.LVL61:
 790              	.L43:
 791              		.loc 2 490 0
 792 0006 A36B     		ldr	r3, [r4, #56]
 793 0008 8BB1     		cbz	r3, .L47
 794              	.LVL62:
 795              	.LBB191:
 796              	.LBB192:
 797              	.LBB193:
 798              	.LBB194:
ARM GAS  /tmp/cccI3Zqz.s 			page 15


 799              	.LBB195:
 800              		.loc 1 577 0
 801 000a 1868     		ldr	r0, [r3]
 802              	.LBE195:
 803              	.LBE194:
 804              	.LBE193:
 805              	.LBE192:
 806              		.loc 2 492 0
 807 000c DA68     		ldr	r2, [r3, #12]
 808 000e A263     		str	r2, [r4, #56]
 809              	.LVL63:
 810              		.loc 2 493 0
 811 0010 9842     		cmp	r0, r3
 812 0012 09D0     		beq	.L44
 813              	.LVL64:
 814              	.LBB196:
 815              	.LBB197:
 816              	.LBB198:
 817              		.loc 1 620 0
 818 0014 0268     		ldr	r2, [r0]
 819 0016 1A60     		str	r2, [r3]
 820              		.loc 1 621 0
 821 0018 5360     		str	r3, [r2, #4]
 822              	.LBE198:
 823              	.LBE197:
 824              		.loc 2 499 0
 825 001a 826B     		ldr	r2, [r0, #56]
 826              		.loc 2 498 0
 827 001c 9860     		str	r0, [r3, #8]
 828              		.loc 2 499 0
 829 001e DA60     		str	r2, [r3, #12]
 830              		.loc 2 500 0
 831 0020 8363     		str	r3, [r0, #56]
 832              		.loc 2 501 0
 833 0022 FFF7FEFF 		bl	chSchReadyI
 834              	.LVL65:
 835              	.LBE196:
 836 0026 EEE7     		b	.L43
 837              	.LVL66:
 838              	.L44:
 839              		.loc 2 507 0
 840 0028 0023     		movs	r3, #0
 841              	.LVL67:
 842 002a 8360     		str	r3, [r0, #8]
 843 002c EBE7     		b	.L43
 844              	.L47:
 845              	.LBE191:
 846              		.loc 2 510 0
 847 002e E36B     		ldr	r3, [r4, #60]
 848 0030 A360     		str	r3, [r4, #8]
 849 0032 10BD     		pop	{r4, pc}
 850              	.LVL68:
 851              	.L49:
 852              		.align	2
 853              	.L48:
 854 0034 00000000 		.word	ch
 855              		.cfi_endproc
ARM GAS  /tmp/cccI3Zqz.s 			page 16


 856              	.LFE253:
 857              		.size	chMtxUnlockAllS, .-chMtxUnlockAllS
 858              		.section	.text.chMtxUnlockAll,"ax",%progbits
 859              		.align	1
 860              		.global	chMtxUnlockAll
 861              		.thumb
 862              		.thumb_func
 863              		.type	chMtxUnlockAll, %function
 864              	chMtxUnlockAll:
 865              	.LFB254:
 866              		.loc 2 524 0
 867              		.cfi_startproc
 868              		@ args = 0, pretend = 0, frame = 0
 869              		@ frame_needed = 0, uses_anonymous_args = 0
 870              		.loc 2 525 0
 871 0000 144B     		ldr	r3, .L60
 872              		.loc 2 524 0
 873 0002 10B5     		push	{r4, lr}
 874              		.cfi_def_cfa_offset 8
 875              		.cfi_offset 4, -8
 876              		.cfi_offset 14, -4
 877              		.loc 2 525 0
 878 0004 9C69     		ldr	r4, [r3, #24]
 879              	.LVL69:
 880              	.LBB217:
 881              	.LBB218:
 882              	.LBB219:
 883              	.LBB220:
 884              	.LBB221:
 885              		.loc 3 264 0
 886 0006 2023     		movs	r3, #32
 887              	@ 264 "../../modules/ChibiOS/os/common/ext/CMSIS/include/cmsis_gcc.h" 1
 888 0008 83F31188 		MSR basepri, r3
 889              	@ 0 "" 2
 890              		.thumb
 891              	.LBE221:
 892              	.LBE220:
 893              	.LBE219:
 894              		.loc 4 377 0
 895 000c FFF7FEFF 		bl	_stats_start_measure_crit_thd
 896              	.LVL70:
 897              	.LBE218:
 898              	.LBE217:
 899              		.loc 2 528 0
 900 0010 A36B     		ldr	r3, [r4, #56]
 901 0012 C3B1     		cbz	r3, .L51
 902              	.L57:
 903              	.LBB222:
 904              		.loc 2 530 0
 905 0014 A36B     		ldr	r3, [r4, #56]
 906              	.LVL71:
 907              	.LBB223:
 908              	.LBB224:
 909              	.LBB225:
 910              	.LBB226:
 911              		.loc 1 577 0
 912 0016 1868     		ldr	r0, [r3]
ARM GAS  /tmp/cccI3Zqz.s 			page 17


 913              	.LBE226:
 914              	.LBE225:
 915              	.LBE224:
 916              	.LBE223:
 917              		.loc 2 531 0
 918 0018 DA68     		ldr	r2, [r3, #12]
 919 001a A263     		str	r2, [r4, #56]
 920              	.LVL72:
 921              		.loc 2 532 0
 922 001c 9842     		cmp	r0, r3
 923 001e 09D0     		beq	.L52
 924              	.LVL73:
 925              	.LBB227:
 926              	.LBB228:
 927              	.LBB229:
 928              		.loc 1 620 0
 929 0020 0268     		ldr	r2, [r0]
 930 0022 1A60     		str	r2, [r3]
 931              		.loc 1 621 0
 932 0024 5360     		str	r3, [r2, #4]
 933              	.LBE229:
 934              	.LBE228:
 935              		.loc 2 538 0
 936 0026 826B     		ldr	r2, [r0, #56]
 937              		.loc 2 537 0
 938 0028 9860     		str	r0, [r3, #8]
 939              		.loc 2 538 0
 940 002a DA60     		str	r2, [r3, #12]
 941              		.loc 2 539 0
 942 002c 8363     		str	r3, [r0, #56]
 943              		.loc 2 540 0
 944 002e FFF7FEFF 		bl	chSchReadyI
 945              	.LVL74:
 946              	.LBE227:
 947 0032 01E0     		b	.L53
 948              	.LVL75:
 949              	.L52:
 950              		.loc 2 546 0
 951 0034 0023     		movs	r3, #0
 952              	.LVL76:
 953 0036 8360     		str	r3, [r0, #8]
 954              	.L53:
 955              	.LBE222:
 956              		.loc 2 548 0
 957 0038 A36B     		ldr	r3, [r4, #56]
 958 003a 002B     		cmp	r3, #0
 959 003c EAD1     		bne	.L57
 960              		.loc 2 549 0
 961 003e E36B     		ldr	r3, [r4, #60]
 962 0040 A360     		str	r3, [r4, #8]
 963              		.loc 2 550 0
 964 0042 FFF7FEFF 		bl	chSchRescheduleS
 965              	.LVL77:
 966              	.L51:
 967              	.LBB230:
 968              	.LBB231:
 969              		.loc 4 389 0
ARM GAS  /tmp/cccI3Zqz.s 			page 18


 970 0046 FFF7FEFF 		bl	_stats_stop_measure_crit_thd
 971              	.LVL78:
 972              	.LBB232:
 973              	.LBB233:
 974              	.LBB234:
 975              		.loc 3 264 0
 976 004a 0023     		movs	r3, #0
 977              	@ 264 "../../modules/ChibiOS/os/common/ext/CMSIS/include/cmsis_gcc.h" 1
 978 004c 83F31188 		MSR basepri, r3
 979              	@ 0 "" 2
 980              		.thumb
 981 0050 10BD     		pop	{r4, pc}
 982              	.LVL79:
 983              	.L61:
 984 0052 00BF     		.align	2
 985              	.L60:
 986 0054 00000000 		.word	ch
 987              	.LBE234:
 988              	.LBE233:
 989              	.LBE232:
 990              	.LBE231:
 991              	.LBE230:
 992              		.cfi_endproc
 993              	.LFE254:
 994              		.size	chMtxUnlockAll, .-chMtxUnlockAll
 995              		.text
 996              	.Letext0:
 997              		.file 5 "/usr/include/newlib/machine/_default_types.h"
 998              		.file 6 "/usr/include/newlib/sys/_stdint.h"
 999              		.file 7 "../../modules/ChibiOS/os/common/ports/ARMCMx/compilers/GCC/chtypes.h"
 1000              		.file 8 "../../modules/ChibiOS/os/rt/include/chsystypes.h"
 1001              		.file 9 "../../modules/ChibiOS/os/common/ports/ARMCMx/chcore.h"
 1002              		.file 10 "../../modules/ChibiOS/os/common/ports/ARMCMx/chcore_v7m.h"
 1003              		.file 11 "../../modules/ChibiOS/os/rt/include/chtm.h"
 1004              		.file 12 "../../modules/ChibiOS/os/rt/include/chstats.h"
 1005              		.file 13 "../../modules/ChibiOS/os/rt/include/chsem.h"
 1006              		.file 14 "../../modules/ChibiOS/os/rt/include/chmtx.h"
 1007              		.file 15 "../../modules/ChibiOS/os/common/ext/CMSIS/include/core_cm4.h"