ARM GAS  /tmp/ccFtBk3F.s 			page 1


   1              		.syntax unified
   2              		.cpu cortex-m4
   3              		.eabi_attribute 27, 1
   4              		.eabi_attribute 28, 1
   5              		.fpu fpv4-sp-d16
   6              		.eabi_attribute 20, 1
   7              		.eabi_attribute 21, 1
   8              		.eabi_attribute 23, 3
   9              		.eabi_attribute 24, 1
  10              		.eabi_attribute 25, 1
  11              		.eabi_attribute 26, 1
  12              		.eabi_attribute 30, 4
  13              		.eabi_attribute 34, 1
  14              		.eabi_attribute 18, 4
  15              		.thumb
  16              		.file	"chprintf.c"
  17              		.text
  18              	.Ltext0:
  19              		.cfi_sections	.debug_frame
  20              		.section	.text.long_to_string_with_divisor,"ax",%progbits
  21              		.align	1
  22              		.thumb
  23              		.thumb_func
  24              		.type	long_to_string_with_divisor, %function
  25              	long_to_string_with_divisor:
  26              	.LFB277:
  27              		.file 1 "../../modules/ChibiOS/os/hal/lib/streams/chprintf.c"
  28              		.loc 1 40 0
  29              		.cfi_startproc
  30              		@ args = 0, pretend = 0, frame = 0
  31              		@ frame_needed = 0, uses_anonymous_args = 0
  32              	.LVL0:
  33 0000 F0B5     		push	{r4, r5, r6, r7, lr}
  34              		.cfi_def_cfa_offset 20
  35              		.cfi_offset 4, -20
  36              		.cfi_offset 5, -16
  37              		.cfi_offset 6, -12
  38              		.cfi_offset 7, -8
  39              		.cfi_offset 14, -4
  40              		.loc 1 52 0
  41 0002 00F10B05 		add	r5, r0, #11
  42              		.loc 1 46 0
  43 0006 002B     		cmp	r3, #0
  44 0008 08BF     		it	eq
  45 000a 0B46     		moveq	r3, r1
  46              	.LVL1:
  47              		.loc 1 52 0
  48 000c 2C46     		mov	r4, r5
  49              	.LVL2:
  50              	.L4:
  51              		.loc 1 54 0
  52 000e B1FBF2F7 		udiv	r7, r1, r2
  53 0012 02FB1711 		mls	r1, r2, r7, r1
  54              	.LVL3:
  55              		.loc 1 55 0
  56 0016 01F13006 		add	r6, r1, #48
  57              	.LVL4:
ARM GAS  /tmp/ccFtBk3F.s 			page 2


  58              		.loc 1 56 0
  59 001a 392E     		cmp	r6, #57
  60              		.loc 1 57 0
  61 001c C8BF     		it	gt
  62 001e 01F13706 		addgt	r6, r1, #55
  63              	.LVL5:
  64              		.loc 1 58 0
  65 0022 04F8016D 		strb	r6, [r4, #-1]!
  66              	.LVL6:
  67              		.loc 1 60 0
  68 0026 B3FBF2F3 		udiv	r3, r3, r2
  69              	.LVL7:
  70              		.loc 1 59 0
  71 002a 3946     		mov	r1, r7
  72              	.LVL8:
  73              		.loc 1 60 0
  74 002c 002B     		cmp	r3, #0
  75 002e EED1     		bne	.L4
  76              	.LVL9:
  77 0030 431E     		subs	r3, r0, #1
  78              	.LVL10:
  79              		.loc 1 62 0
  80 0032 2A1B     		subs	r2, r5, r4
  81              	.LVL11:
  82              	.L5:
  83              		.loc 1 64 0 discriminator 1
  84 0034 14F8011B 		ldrb	r1, [r4], #1	@ zero_extendqisi2
  85              	.LVL12:
  86 0038 03F8011F 		strb	r1, [r3, #1]!
  87              		.loc 1 65 0 discriminator 1
  88 003c AC42     		cmp	r4, r5
  89 003e F9D1     		bne	.L5
  90              		.loc 1 68 0
  91 0040 1044     		add	r0, r0, r2
  92 0042 F0BD     		pop	{r4, r5, r6, r7, pc}
  93              		.cfi_endproc
  94              	.LFE277:
  95              		.size	long_to_string_with_divisor, .-long_to_string_with_divisor
  96              		.global	__aeabi_d2f
  97              		.global	__aeabi_f2d
  98              		.global	__aeabi_i2d
  99              		.global	__aeabi_dsub
 100              		.global	__aeabi_ui2d
 101              		.global	__aeabi_dmul
 102              		.global	__aeabi_d2iz
 103              		.section	.text.chvprintf,"ax",%progbits
 104              		.align	1
 105              		.global	chvprintf
 106              		.thumb
 107              		.thumb_func
 108              		.type	chvprintf, %function
 109              	chvprintf:
 110              	.LFB280:
 111              		.loc 1 121 0
 112              		.cfi_startproc
 113              		@ args = 0, pretend = 0, frame = 48
 114              		@ frame_needed = 0, uses_anonymous_args = 0
ARM GAS  /tmp/ccFtBk3F.s 			page 3


 115              	.LVL13:
 116 0000 2DE9F04F 		push	{r4, r5, r6, r7, r8, r9, r10, fp, lr}
 117              		.cfi_def_cfa_offset 36
 118              		.cfi_offset 4, -36
 119              		.cfi_offset 5, -32
 120              		.cfi_offset 6, -28
 121              		.cfi_offset 7, -24
 122              		.cfi_offset 8, -20
 123              		.cfi_offset 9, -16
 124              		.cfi_offset 10, -12
 125              		.cfi_offset 11, -8
 126              		.cfi_offset 14, -4
 127 0004 2DED028B 		fstmfdd	sp!, {d8}
 128              		.cfi_def_cfa_offset 44
 129              		.cfi_offset 80, -44
 130              		.cfi_offset 81, -40
 131 0008 0646     		mov	r6, r0
 132 000a 8DB0     		sub	sp, sp, #52
 133              		.cfi_def_cfa_offset 96
 134              		.loc 1 121 0
 135 000c 0B46     		mov	r3, r1
 136 000e 9246     		mov	r10, r2
 137              	.LVL14:
 138              		.loc 1 124 0
 139 0010 0027     		movs	r7, #0
 140              	.LVL15:
 141              	.L11:
 142              		.loc 1 135 0
 143 0012 1978     		ldrb	r1, [r3]	@ zero_extendqisi2
 144 0014 5C1C     		adds	r4, r3, #1
 145              	.LVL16:
 146              		.loc 1 136 0
 147 0016 0029     		cmp	r1, #0
 148 0018 00F05381 		beq	.L158
 149              		.loc 1 138 0
 150 001c 2529     		cmp	r1, #37
 151 001e 06D0     		beq	.L13
 152              		.loc 1 139 0
 153 0020 3368     		ldr	r3, [r6]
 154 0022 3046     		mov	r0, r6
 155 0024 9B68     		ldr	r3, [r3, #8]
 156 0026 9847     		blx	r3
 157              	.LVL17:
 158              		.loc 1 140 0
 159 0028 0137     		adds	r7, r7, #1
 160              	.LVL18:
 161              	.L14:
 162              		.loc 1 271 0
 163 002a 2346     		mov	r3, r4
 164 002c F1E7     		b	.L11
 165              	.LVL19:
 166              	.L13:
 167              		.loc 1 146 0
 168 002e 5A78     		ldrb	r2, [r3, #1]	@ zero_extendqisi2
 169              	.LVL20:
 170 0030 2D2A     		cmp	r2, #45
 171              		.loc 1 147 0
ARM GAS  /tmp/ccFtBk3F.s 			page 4


 172 0032 0CBF     		ite	eq
 173 0034 9C1C     		addeq	r4, r3, #2
 174              	.LVL21:
 175              		.loc 1 145 0
 176 0036 0023     		movne	r3, #0
 177              		.loc 1 151 0
 178 0038 2578     		ldrb	r5, [r4]	@ zero_extendqisi2
 179              		.loc 1 148 0
 180 003a 08BF     		it	eq
 181 003c 0123     		moveq	r3, #1
 182              		.loc 1 151 0
 183 003e 302D     		cmp	r5, #48
 184              		.loc 1 145 0
 185 0040 0293     		str	r3, [sp, #8]
 186              	.LVL22:
 187              		.loc 1 152 0
 188 0042 0CBF     		ite	eq
 189 0044 0134     		addeq	r4, r4, #1
 190              	.LVL23:
 191              		.loc 1 150 0
 192 0046 2025     		movne	r5, #32
 193              	.LVL24:
 194              		.loc 1 155 0
 195 0048 0023     		movs	r3, #0
 196              	.LVL25:
 197              	.L162:
 198 004a 0193     		str	r3, [sp, #4]
 199              	.LVL26:
 200              		.loc 1 157 0
 201 004c 14F8013B 		ldrb	r3, [r4], #1	@ zero_extendqisi2
 202              	.LVL27:
 203              		.loc 1 158 0
 204 0050 A3F13002 		sub	r2, r3, #48
 205 0054 D2B2     		uxtb	r2, r2
 206 0056 092A     		cmp	r2, #9
 207 0058 05D9     		bls	.L17
 208              		.loc 1 160 0
 209 005a 2A2B     		cmp	r3, #42
 210 005c 08D1     		bne	.L18
 211              		.loc 1 161 0
 212 005e 9AF80020 		ldrb	r2, [r10]	@ zero_extendqisi2
 213              	.LVL28:
 214 0062 0AF1040A 		add	r10, r10, #4
 215              	.LVL29:
 216              	.L17:
 217              		.loc 1 164 0
 218 0066 0199     		ldr	r1, [sp, #4]
 219 0068 0A23     		movs	r3, #10
 220 006a 03FB0123 		mla	r3, r3, r1, r2
 221 006e ECE7     		b	.L162
 222              	.LVL30:
 223              	.L18:
 224              		.loc 1 167 0
 225 0070 2E2B     		cmp	r3, #46
 226 0072 4FF00009 		mov	r9, #0
 227 0076 10D1     		bne	.L20
 228              	.LVL31:
ARM GAS  /tmp/ccFtBk3F.s 			page 5


 229              	.L22:
 230              		.loc 1 169 0
 231 0078 14F8013B 		ldrb	r3, [r4], #1	@ zero_extendqisi2
 232              	.LVL32:
 233              		.loc 1 170 0
 234 007c A3F13002 		sub	r2, r3, #48
 235 0080 D2B2     		uxtb	r2, r2
 236 0082 092A     		cmp	r2, #9
 237 0084 05D9     		bls	.L21
 238              		.loc 1 172 0
 239 0086 2A2B     		cmp	r3, #42
 240 0088 07D1     		bne	.L20
 241              		.loc 1 173 0
 242 008a 9AF80020 		ldrb	r2, [r10]	@ zero_extendqisi2
 243              	.LVL33:
 244 008e 0AF1040A 		add	r10, r10, #4
 245              	.LVL34:
 246              	.L21:
 247              		.loc 1 177 0
 248 0092 0A23     		movs	r3, #10
 249 0094 03FB0929 		mla	r9, r3, r9, r2
 250              	.LVL35:
 251              		.loc 1 178 0
 252 0098 EEE7     		b	.L22
 253              	.LVL36:
 254              	.L20:
 255              		.loc 1 181 0
 256 009a 03F0DF02 		and	r2, r3, #223
 257 009e 4C2A     		cmp	r2, #76
 258 00a0 03D1     		bne	.L24
 259              	.LVL37:
 260              		.loc 1 183 0
 261 00a2 2278     		ldrb	r2, [r4]	@ zero_extendqisi2
 262 00a4 0AB1     		cbz	r2, .L24
 263              		.loc 1 184 0
 264 00a6 0134     		adds	r4, r4, #1
 265              	.LVL38:
 266 00a8 1346     		mov	r3, r2
 267              	.LVL39:
 268              	.L24:
 269              		.loc 1 190 0
 270 00aa 642B     		cmp	r3, #100
 271 00ac 1DD1     		bne	.L189
 272              	.L41:
 273              		.loc 1 211 0
 274 00ae DAF80010 		ldr	r1, [r10]
 275              		.loc 1 212 0
 276 00b2 0029     		cmp	r1, #0
 277              		.loc 1 213 0
 278 00b4 B8BF     		it	lt
 279 00b6 2D23     		movlt	r3, #45
 280              	.LVL40:
 281              		.loc 1 211 0
 282 00b8 0AF10408 		add	r8, r10, #4
 283              	.LVL41:
 284              		.loc 1 213 0
 285 00bc BDBF     		ittte	lt
ARM GAS  /tmp/ccFtBk3F.s 			page 6


 286 00be 8DF81830 		strblt	r3, [sp, #24]
 287              		.loc 1 214 0
 288 00c2 4942     		rsblt	r1, r1, #0
 289              	.LVL42:
 290              		.loc 1 213 0
 291 00c4 0DF11900 		addlt	r0, sp, #25
 292              		.loc 1 143 0
 293 00c8 06A8     		addge	r0, sp, #24
 294              	.LVL43:
 295              	.LBB8:
 296              	.LBB9:
 297              		.loc 1 72 0
 298 00ca 0A22     		movs	r2, #10
 299 00cc 07E0     		b	.L166
 300              	.LVL44:
 301              	.L191:
 302              	.LBE9:
 303              	.LBE8:
 304              		.loc 1 190 0
 305 00ce 552B     		cmp	r3, #85
 306 00d0 7AD1     		bne	.L25
 307              	.L32:
 308              	.LVL45:
 309              		.loc 1 234 0
 310 00d2 0A22     		movs	r2, #10
 311              	.LVL46:
 312              	.L171:
 313              		.loc 1 243 0
 314 00d4 DAF80010 		ldr	r1, [r10]
 315 00d8 0AF10408 		add	r8, r10, #4
 316              	.LVL47:
 317              	.LBB10:
 318              	.LBB11:
 319              		.loc 1 72 0
 320 00dc 06A8     		add	r0, sp, #24
 321              	.LVL48:
 322              	.L166:
 323 00de 0023     		movs	r3, #0
 324              	.LVL49:
 325              	.L168:
 326 00e0 FFF7FEFF 		bl	long_to_string_with_divisor
 327              	.LVL50:
 328              	.LBE11:
 329              	.LBE10:
 330              		.loc 1 144 0
 331 00e4 0DF1180B 		add	fp, sp, #24
 332              	.LVL51:
 333              		.loc 1 245 0
 334 00e8 12E0     		b	.L36
 335              	.LVL52:
 336              	.L189:
 337              		.loc 1 190 0
 338 00ea 5AD8     		bhi	.L58
 339 00ec 4F2B     		cmp	r3, #79
 340 00ee 5AD0     		beq	.L28
 341 00f0 5BD9     		bls	.L190
 342 00f2 582B     		cmp	r3, #88
ARM GAS  /tmp/ccFtBk3F.s 			page 7


 343 00f4 63D0     		beq	.L66
 344 00f6 632B     		cmp	r3, #99
 345 00f8 E9D1     		bne	.L191
 346              	.LVL53:
 347              		.loc 1 193 0
 348 00fa 0DF1300B 		add	fp, sp, #48
 349 00fe DAF80030 		ldr	r3, [r10]
 350              	.LVL54:
 351 0102 0BF8183D 		strb	r3, [fp, #-24]!
 352 0106 0AF10408 		add	r8, r10, #4
 353              		.loc 1 192 0
 354 010a 2025     		movs	r5, #32
 355              	.LVL55:
 356              	.L167:
 357              		.loc 1 247 0
 358 010c 0DF11900 		add	r0, sp, #25
 359              	.LVL56:
 360              	.L36:
 361              		.loc 1 251 0
 362 0110 019B     		ldr	r3, [sp, #4]
 363              		.loc 1 250 0
 364 0112 CBEB0009 		rsb	r9, fp, r0
 365              	.LVL57:
 366              		.loc 1 251 0
 367 0116 C9EB030A 		rsb	r10, r9, r3
 368              	.LVL58:
 369              		.loc 1 253 0
 370 011a 029B     		ldr	r3, [sp, #8]
 371 011c 2AEAEA7A 		bic	r10, r10, r10, asr #31
 372              	.LVL59:
 373 0120 03BB     		cbnz	r3, .L50
 374              		.loc 1 254 0
 375 0122 CAF1000A 		rsb	r10, r10, #0
 376              	.LVL60:
 377              		.loc 1 255 0
 378 0126 BAF1000F 		cmp	r10, #0
 379 012a 1BD0     		beq	.L50
 380              		.loc 1 256 0
 381 012c 9BF80010 		ldrb	r1, [fp]	@ zero_extendqisi2
 382 0130 2D29     		cmp	r1, #45
 383 0132 0AD1     		bne	.L51
 384              		.loc 1 256 0 is_stmt 0 discriminator 1
 385 0134 302D     		cmp	r5, #48
 386 0136 08D1     		bne	.L51
 387              		.loc 1 257 0 is_stmt 1
 388 0138 3368     		ldr	r3, [r6]
 389 013a 3046     		mov	r0, r6
 390              	.LVL61:
 391 013c 9B68     		ldr	r3, [r3, #8]
 392 013e 9847     		blx	r3
 393              	.LVL62:
 394 0140 0BF1010B 		add	fp, fp, #1
 395              	.LVL63:
 396              		.loc 1 258 0
 397 0144 0137     		adds	r7, r7, #1
 398              	.LVL64:
 399              		.loc 1 259 0
ARM GAS  /tmp/ccFtBk3F.s 			page 8


 400 0146 09F1FF39 		add	r9, r9, #-1
 401              	.LVL65:
 402              	.L51:
 403              		.loc 1 196 0 discriminator 1
 404 014a 5346     		mov	r3, r10
 405              	.LVL66:
 406              	.L52:
 407              		.loc 1 262 0 discriminator 1
 408 014c 3268     		ldr	r2, [r6]
 409 014e 0193     		str	r3, [sp, #4]
 410              	.LVL67:
 411 0150 9268     		ldr	r2, [r2, #8]
 412 0152 3046     		mov	r0, r6
 413 0154 2946     		mov	r1, r5
 414 0156 9047     		blx	r2
 415              	.LVL68:
 416              		.loc 1 264 0 discriminator 1
 417 0158 019B     		ldr	r3, [sp, #4]
 418 015a 0133     		adds	r3, r3, #1
 419              	.LVL69:
 420 015c F6D1     		bne	.L52
 421 015e CAEB0707 		rsb	r7, r10, r7
 422              		.loc 1 264 0 is_stmt 0
 423 0162 9A46     		mov	r10, r3
 424              	.LVL70:
 425              	.L50:
 426 0164 4B46     		mov	r3, r9
 427              	.LVL71:
 428              	.L53:
 429              		.loc 1 266 0 is_stmt 1
 430 0166 013B     		subs	r3, r3, #1
 431              	.LVL72:
 432 0168 08D4     		bmi	.L192
 433              		.loc 1 267 0
 434 016a 3268     		ldr	r2, [r6]
 435 016c 1BF8011B 		ldrb	r1, [fp], #1	@ zero_extendqisi2
 436              	.LVL73:
 437 0170 9268     		ldr	r2, [r2, #8]
 438 0172 0193     		str	r3, [sp, #4]
 439              	.LVL74:
 440 0174 3046     		mov	r0, r6
 441 0176 9047     		blx	r2
 442              	.LVL75:
 443 0178 019B     		ldr	r3, [sp, #4]
 444 017a F4E7     		b	.L53
 445              	.LVL76:
 446              	.L192:
 447 017c B9F1000F 		cmp	r9, #0
 448 0180 A8BF     		it	ge
 449 0182 4F44     		addge	r7, r7, r9
 450              		.loc 1 266 0
 451 0184 D146     		mov	r9, r10
 452              	.LVL77:
 453              	.L55:
 454              		.loc 1 271 0
 455 0186 B9F1000F 		cmp	r9, #0
 456 018a 02D1     		bne	.L56
ARM GAS  /tmp/ccFtBk3F.s 			page 9


 457 018c 5744     		add	r7, r7, r10
 458 018e C246     		mov	r10, r8
 459 0190 4BE7     		b	.L14
 460              	.L56:
 461              		.loc 1 272 0
 462 0192 3368     		ldr	r3, [r6]
 463 0194 3046     		mov	r0, r6
 464 0196 9B68     		ldr	r3, [r3, #8]
 465 0198 2946     		mov	r1, r5
 466 019a 9847     		blx	r3
 467              	.LVL78:
 468              		.loc 1 274 0
 469 019c 09F1FF39 		add	r9, r9, #-1
 470              	.LVL79:
 471 01a0 F1E7     		b	.L55
 472              	.LVL80:
 473              	.L58:
 474              		.loc 1 190 0
 475 01a2 6F2B     		cmp	r3, #111
 476 01a4 06D1     		bne	.L193
 477              	.L28:
 478              	.LVL81:
 479              		.loc 1 238 0
 480 01a6 0822     		movs	r2, #8
 481 01a8 94E7     		b	.L171
 482              	.LVL82:
 483              	.L190:
 484              		.loc 1 190 0
 485 01aa 442B     		cmp	r3, #68
 486 01ac 3FF47FAF 		beq	.L41
 487 01b0 492B     		cmp	r3, #73
 488 01b2 07E0     		b	.L165
 489              	.L193:
 490 01b4 0ED9     		bls	.L194
 491 01b6 752B     		cmp	r3, #117
 492 01b8 8BD0     		beq	.L32
 493 01ba 782B     		cmp	r3, #120
 494 01bc 66D1     		bne	.L195
 495              	.L66:
 496              	.L30:
 497              		.loc 1 230 0
 498 01be 1022     		movs	r2, #16
 499              	.LVL83:
 500 01c0 88E7     		b	.L171
 501              	.LVL84:
 502              	.L196:
 503              		.loc 1 190 0
 504 01c2 692B     		cmp	r3, #105
 505              	.L165:
 506 01c4 3FF473AF 		beq	.L41
 507              	.L25:
 508              	.LVL85:
 509              		.loc 1 247 0
 510 01c8 0DF1300B 		add	fp, sp, #48
 511              		.loc 1 248 0
 512 01cc D046     		mov	r8, r10
 513              		.loc 1 247 0
ARM GAS  /tmp/ccFtBk3F.s 			page 10


 514 01ce 0BF8183D 		strb	r3, [fp, #-24]!
 515 01d2 9BE7     		b	.L167
 516              	.LVL86:
 517              	.L194:
 518              		.loc 1 190 0
 519 01d4 662B     		cmp	r3, #102
 520 01d6 F4D1     		bne	.L196
 521              		.loc 1 220 0
 522 01d8 0AF1070A 		add	r10, r10, #7
 523 01dc 2AF0070A 		bic	r10, r10, #7
 524 01e0 DAE90001 		ldrd	r0, [r10]
 525 01e4 FFF7FEFF 		bl	__aeabi_d2f
 526              	.LVL87:
 527 01e8 08EE100A 		fmsr	s16, r0
 528              		.loc 1 221 0
 529 01ec B5EEC08A 		fcmpezs	s16
 530 01f0 F1EE10FA 		fmstat
 531              		.loc 1 222 0
 532 01f4 43BF     		ittte	mi
 533 01f6 2D23     		movmi	r3, #45
 534              		.loc 1 223 0
 535 01f8 B1EE488A 		fnegsmi	s16, s16
 536              		.loc 1 222 0
 537 01fc 8DF81830 		strbmi	r3, [sp, #24]
 538              		.loc 1 143 0
 539 0200 06AB     		addpl	r3, sp, #24
 540              		.loc 1 222 0
 541 0202 48BF     		it	mi
 542 0204 0DF11903 		addmi	r3, sp, #25
 543              		.loc 1 225 0
 544 0208 18EE100A 		fmrs	r0, s16
 545 020c 0593     		str	r3, [sp, #20]
 546 020e FFF7FEFF 		bl	__aeabi_f2d
 547              	.LVL88:
 548              	.LBB12:
 549              	.LBB13:
 550              		.loc 1 83 0
 551 0212 09F1FF32 		add	r2, r9, #-1
 552              		.loc 1 84 0
 553 0216 092A     		cmp	r2, #9
 554 0218 28BF     		it	cs
 555 021a 4FF00909 		movcs	r9, #9
 556              		.loc 1 85 0
 557 021e 09F1FF39 		add	r9, r9, #-1
 558 0222 2B4A     		ldr	r2, .L197
 559 0224 52F82930 		ldr	r3, [r2, r9, lsl #2]
 560 0228 0393     		str	r3, [sp, #12]
 561              		.loc 1 87 0
 562 022a FDEEC87A 		ftosizs	s15, s16
 563              		.loc 1 88 0
 564 022e 059B     		ldr	r3, [sp, #20]
 565              		.loc 1 87 0
 566 0230 CDED047A 		fsts	s15, [sp, #16]	@ int
 567              	.LBE13:
 568              	.LBE12:
 569              		.loc 1 225 0
 570 0234 8B46     		mov	fp, r1
ARM GAS  /tmp/ccFtBk3F.s 			page 11


 571              	.LBB16:
 572              	.LBB14:
 573              		.loc 1 88 0
 574 0236 0A22     		movs	r2, #10
 575 0238 17EE901A 		fmrs	r1, s15	@ int
 576              	.LBE14:
 577              	.LBE16:
 578              		.loc 1 220 0
 579 023c 0AF10808 		add	r8, r10, #8
 580              	.LVL89:
 581              		.loc 1 225 0
 582 0240 8246     		mov	r10, r0
 583              	.LVL90:
 584              	.LBB17:
 585              	.LBB15:
 586              		.loc 1 88 0
 587 0242 1846     		mov	r0, r3
 588 0244 0023     		movs	r3, #0
 589              	.LVL91:
 590 0246 FFF7FEFF 		bl	long_to_string_with_divisor
 591              	.LVL92:
 592              		.loc 1 89 0
 593 024a 8146     		mov	r9, r0
 594              	.LVL93:
 595 024c 2E23     		movs	r3, #46
 596 024e 09F8013B 		strb	r3, [r9], #1
 597              	.LVL94:
 598              		.loc 1 90 0
 599 0252 0498     		ldr	r0, [sp, #16]
 600 0254 FFF7FEFF 		bl	__aeabi_i2d
 601              	.LVL95:
 602 0258 0246     		mov	r2, r0
 603 025a 0B46     		mov	r3, r1
 604 025c 5046     		mov	r0, r10
 605 025e 5946     		mov	r1, fp
 606 0260 FFF7FEFF 		bl	__aeabi_dsub
 607              	.LVL96:
 608 0264 8246     		mov	r10, r0
 609              	.LVL97:
 610 0266 0398     		ldr	r0, [sp, #12]
 611 0268 8B46     		mov	fp, r1
 612 026a FFF7FEFF 		bl	__aeabi_ui2d
 613              	.LVL98:
 614 026e 0246     		mov	r2, r0
 615 0270 0B46     		mov	r3, r1
 616 0272 5046     		mov	r0, r10
 617 0274 5946     		mov	r1, fp
 618 0276 FFF7FEFF 		bl	__aeabi_dmul
 619              	.LVL99:
 620 027a FFF7FEFF 		bl	__aeabi_d2iz
 621              	.LVL100:
 622              		.loc 1 91 0
 623 027e 0A22     		movs	r2, #10
 624              		.loc 1 90 0
 625 0280 0146     		mov	r1, r0
 626              		.loc 1 91 0
 627 0282 039B     		ldr	r3, [sp, #12]
ARM GAS  /tmp/ccFtBk3F.s 			page 12


 628 0284 B3FBF2F3 		udiv	r3, r3, r2
 629 0288 4846     		mov	r0, r9
 630 028a 29E7     		b	.L168
 631              	.LVL101:
 632              	.L195:
 633              	.LBE15:
 634              	.LBE17:
 635              		.loc 1 190 0
 636 028c 732B     		cmp	r3, #115
 637 028e 9BD1     		bne	.L25
 638              	.LVL102:
 639              		.loc 1 198 0
 640 0290 104B     		ldr	r3, .L197+4
 641              	.LVL103:
 642              		.loc 1 197 0
 643 0292 DAF800B0 		ldr	fp, [r10]
 644              		.loc 1 198 0
 645 0296 BBF1000F 		cmp	fp, #0
 646 029a 08BF     		it	eq
 647 029c 9B46     		moveq	fp, r3
 648              		.loc 1 200 0
 649 029e 47F6FF73 		movw	r3, #32767
 650 02a2 B9F1000F 		cmp	r9, #0
 651 02a6 08BF     		it	eq
 652 02a8 9946     		moveq	r9, r3
 653              		.loc 1 197 0
 654 02aa 0AF10408 		add	r8, r10, #4
 655              	.LVL104:
 656 02ae D944     		add	r9, r9, fp
 657              		.loc 1 200 0
 658 02b0 5846     		mov	r0, fp
 659              	.LVL105:
 660              	.L39:
 661              		.loc 1 201 0 discriminator 1
 662 02b2 0378     		ldrb	r3, [r0]	@ zero_extendqisi2
 663 02b4 1BB1     		cbz	r3, .L67
 664              		.loc 1 201 0 is_stmt 0 discriminator 3
 665 02b6 4845     		cmp	r0, r9
 666 02b8 01D0     		beq	.L67
 667              		.loc 1 201 0 discriminator 4
 668 02ba 0130     		adds	r0, r0, #1
 669              	.LVL106:
 670 02bc F9E7     		b	.L39
 671              	.L67:
 672              		.loc 1 196 0 is_stmt 1
 673 02be 2025     		movs	r5, #32
 674 02c0 26E7     		b	.L36
 675              	.LVL107:
 676              	.L158:
 677              		.loc 1 277 0
 678 02c2 3846     		mov	r0, r7
 679 02c4 0DB0     		add	sp, sp, #52
 680              		.cfi_def_cfa_offset 44
 681              		@ sp needed
 682 02c6 BDEC028B 		fldmfdd	sp!, {d8}
 683              		.cfi_restore 80
 684              		.cfi_restore 81
ARM GAS  /tmp/ccFtBk3F.s 			page 13


 685              		.cfi_def_cfa_offset 36
 686 02ca BDE8F08F 		pop	{r4, r5, r6, r7, r8, r9, r10, fp, pc}
 687              	.LVL108:
 688              	.L198:
 689 02ce 00BF     		.align	2
 690              	.L197:
 691 02d0 00000000 		.word	.LANCHOR0
 692 02d4 00000000 		.word	.LC0
 693              		.cfi_endproc
 694              	.LFE280:
 695              		.size	chvprintf, .-chvprintf
 696              		.section	.text.chprintf,"ax",%progbits
 697              		.align	1
 698              		.global	chprintf
 699              		.thumb
 700              		.thumb_func
 701              		.type	chprintf, %function
 702              	chprintf:
 703              	.LFB281:
 704              		.loc 1 302 0
 705              		.cfi_startproc
 706              		@ args = 4, pretend = 12, frame = 8
 707              		@ frame_needed = 0, uses_anonymous_args = 1
 708              	.LVL109:
 709 0000 0EB4     		push	{r1, r2, r3}
 710              		.cfi_def_cfa_offset 12
 711              		.cfi_offset 1, -12
 712              		.cfi_offset 2, -8
 713              		.cfi_offset 3, -4
 714 0002 03B5     		push	{r0, r1, lr}
 715              		.cfi_def_cfa_offset 24
 716              		.cfi_offset 14, -16
 717              		.loc 1 302 0
 718 0004 03AA     		add	r2, sp, #12
 719 0006 52F8041B 		ldr	r1, [r2], #4
 720              		.loc 1 306 0
 721 000a 0192     		str	r2, [sp, #4]
 722              		.loc 1 307 0
 723 000c FFF7FEFF 		bl	chvprintf
 724              	.LVL110:
 725              		.loc 1 311 0
 726 0010 02B0     		add	sp, sp, #8
 727              		.cfi_def_cfa_offset 16
 728              		@ sp needed
 729 0012 5DF804EB 		ldr	lr, [sp], #4
 730              		.cfi_restore 14
 731              		.cfi_def_cfa_offset 12
 732 0016 03B0     		add	sp, sp, #12
 733              		.cfi_restore 3
 734              		.cfi_restore 2
 735              		.cfi_restore 1
 736              		.cfi_def_cfa_offset 0
 737 0018 7047     		bx	lr
 738              		.cfi_endproc
 739              	.LFE281:
 740              		.size	chprintf, .-chprintf
 741              		.section	.text.chsnprintf,"ax",%progbits
ARM GAS  /tmp/ccFtBk3F.s 			page 14


 742              		.align	1
 743              		.global	chsnprintf
 744              		.thumb
 745              		.thumb_func
 746              		.type	chsnprintf, %function
 747              	chsnprintf:
 748              	.LFB282:
 749              		.loc 1 340 0
 750              		.cfi_startproc
 751              		@ args = 4, pretend = 8, frame = 24
 752              		@ frame_needed = 0, uses_anonymous_args = 1
 753              	.LVL111:
 754 0000 0CB4     		push	{r2, r3}
 755              		.cfi_def_cfa_offset 8
 756              		.cfi_offset 2, -8
 757              		.cfi_offset 3, -4
 758 0002 30B5     		push	{r4, r5, lr}
 759              		.cfi_def_cfa_offset 20
 760              		.cfi_offset 4, -20
 761              		.cfi_offset 5, -16
 762              		.cfi_offset 14, -12
 763 0004 0546     		mov	r5, r0
 764 0006 87B0     		sub	sp, sp, #28
 765              		.cfi_def_cfa_offset 48
 766              		.loc 1 347 0
 767 0008 0C46     		mov	r4, r1
 768 000a 09B1     		cbz	r1, .L203
 769              		.loc 1 348 0
 770 000c 4A1E     		subs	r2, r1, #1
 771              	.LVL112:
 772 000e 00E0     		b	.L201
 773              	.LVL113:
 774              	.L203:
 775              		.loc 1 350 0
 776 0010 0A46     		mov	r2, r1
 777              	.L201:
 778              	.LVL114:
 779              		.loc 1 354 0
 780 0012 01A8     		add	r0, sp, #4
 781              	.LVL115:
 782 0014 2946     		mov	r1, r5
 783              	.LVL116:
 784 0016 0023     		movs	r3, #0
 785 0018 FFF7FEFF 		bl	msObjectInit
 786              	.LVL117:
 787              		.loc 1 358 0
 788 001c 0BAA     		add	r2, sp, #44
 789              		.loc 1 359 0
 790 001e 01A8     		add	r0, sp, #4
 791              	.LVL118:
 792 0020 0A99     		ldr	r1, [sp, #40]
 793              		.loc 1 358 0
 794 0022 0092     		str	r2, [sp]
 795              		.loc 1 359 0
 796 0024 FFF7FEFF 		bl	chvprintf
 797              	.LVL119:
 798              		.loc 1 363 0
ARM GAS  /tmp/ccFtBk3F.s 			page 15


 799 0028 049B     		ldr	r3, [sp, #16]
 800 002a A342     		cmp	r3, r4
 801              		.loc 1 364 0
 802 002c 3CBF     		itt	cc
 803 002e 0022     		movcc	r2, #0
 804 0030 EA54     		strbcc	r2, [r5, r3]
 805              		.loc 1 368 0
 806 0032 07B0     		add	sp, sp, #28
 807              		.cfi_def_cfa_offset 20
 808              		@ sp needed
 809 0034 BDE83040 		pop	{r4, r5, lr}
 810              		.cfi_restore 14
 811              		.cfi_restore 5
 812              		.cfi_restore 4
 813              		.cfi_def_cfa_offset 8
 814              	.LVL120:
 815 0038 02B0     		add	sp, sp, #8
 816              		.cfi_restore 3
 817              		.cfi_restore 2
 818              		.cfi_def_cfa_offset 0
 819 003a 7047     		bx	lr
 820              		.cfi_endproc
 821              	.LFE282:
 822              		.size	chsnprintf, .-chsnprintf
 823              		.section	.rodata.str1.1,"aMS",%progbits,1
 824              	.LC0:
 825 0000 286E756C 		.ascii	"(null)\000"
 825      6C2900
 826              		.section	.rodata.pow10,"a",%progbits
 827              		.align	2
 828              		.set	.LANCHOR0,. + 0
 829              		.type	pow10, %object
 830              		.size	pow10, 36
 831              	pow10:
 832 0000 0A000000 		.word	10
 833 0004 64000000 		.word	100
 834 0008 E8030000 		.word	1000
 835 000c 10270000 		.word	10000
 836 0010 A0860100 		.word	100000
 837 0014 40420F00 		.word	1000000
 838 0018 80969800 		.word	10000000
 839 001c 00E1F505 		.word	100000000
 840 0020 00CA9A3B 		.word	1000000000
 841              		.text
 842              	.Letext0:
 843              		.file 2 "/usr/lib/gcc/arm-none-eabi/4.9.3/include/stddef.h"
 844              		.file 3 "/usr/include/newlib/machine/_default_types.h"
 845              		.file 4 "/usr/include/newlib/sys/_stdint.h"
 846              		.file 5 "../../modules/ChibiOS/os/common/ports/ARMCMx/compilers/GCC/chtypes.h"
 847              		.file 6 "../../modules/ChibiOS/os/rt/include/chsystypes.h"
 848              		.file 7 "../../modules/ChibiOS/os/rt/include/chschd.h"
 849              		.file 8 "../../modules/ChibiOS/os/common/ports/ARMCMx/chcore.h"
 850              		.file 9 "../../modules/ChibiOS/os/common/ports/ARMCMx/chcore_v7m.h"
 851              		.file 10 "../../modules/ChibiOS/os/rt/include/chtm.h"
 852              		.file 11 "../../modules/ChibiOS/os/rt/include/chstats.h"
 853              		.file 12 "../../modules/ChibiOS/os/rt/include/chsem.h"
 854              		.file 13 "../../modules/ChibiOS/os/rt/include/chmtx.h"
ARM GAS  /tmp/ccFtBk3F.s 			page 16


 855              		.file 14 "../../modules/ChibiOS/os/hal/include/hal_streams.h"
 856              		.file 15 "/usr/lib/gcc/arm-none-eabi/4.9.3/include/stdarg.h"
 857              		.file 16 "<built-in>"
 858              		.file 17 "../../modules/ChibiOS/os/hal/lib/streams/memstreams.h"
 859              		.file 18 "../../modules/ChibiOS/os/common/ext/CMSIS/include/core_cm4.h"
 860              		.section	.debug_info,"",%progbits
 861              	.Ldebug_info0:
 862 0000 320E0000 		.4byte	0xe32
 863 0004 0400     		.2byte	0x4
 864 0006 00000000 		.4byte	.Ldebug_abbrev0
 865 000a 04       		.byte	0x4
 866 000b 01       		.uleb128 0x1
 867 000c DE010000 		.4byte	.LASF137
 868 0010 01       		.byte	0x1
 869 0011 7D030000 		.4byte	.LASF138
 870 0015 CD020000 		.4byte	.LASF139
 871 0019 20000000 		.4byte	.Ldebug_ranges0+0x20
 872 001d 00000000 		.4byte	0
 873 0021 00000000 		.4byte	.Ldebug_line0
 874 0025 02       		.uleb128 0x2
 875 0026 08       		.byte	0x8
 876 0027 04       		.byte	0x4
 877 0028 B3060000 		.4byte	.LASF0
 878 002c 03       		.uleb128 0x3
 879 002d 04       		.byte	0x4
 880 002e 05       		.byte	0x5
 881 002f 696E7400 		.ascii	"int\000"
 882 0033 04       		.uleb128 0x4
 883 0034 0D000000 		.4byte	.LASF3
 884 0038 02       		.byte	0x2
 885 0039 D4       		.byte	0xd4
 886 003a 3E000000 		.4byte	0x3e
 887 003e 02       		.uleb128 0x2
 888 003f 04       		.byte	0x4
 889 0040 07       		.byte	0x7
 890 0041 D1010000 		.4byte	.LASF1
 891 0045 02       		.uleb128 0x2
 892 0046 01       		.byte	0x1
 893 0047 06       		.byte	0x6
 894 0048 13010000 		.4byte	.LASF2
 895 004c 04       		.uleb128 0x4
 896 004d 30000000 		.4byte	.LASF4
 897 0051 03       		.byte	0x3
 898 0052 1D       		.byte	0x1d
 899 0053 57000000 		.4byte	0x57
 900 0057 02       		.uleb128 0x2
 901 0058 01       		.byte	0x1
 902 0059 08       		.byte	0x8
 903 005a FC040000 		.4byte	.LASF5
 904 005e 02       		.uleb128 0x2
 905 005f 02       		.byte	0x2
 906 0060 05       		.byte	0x5
 907 0061 10050000 		.4byte	.LASF6
 908 0065 02       		.uleb128 0x2
 909 0066 02       		.byte	0x2
 910 0067 07       		.byte	0x7
 911 0068 2C030000 		.4byte	.LASF7
ARM GAS  /tmp/ccFtBk3F.s 			page 17


 912 006c 04       		.uleb128 0x4
 913 006d D6030000 		.4byte	.LASF8
 914 0071 03       		.byte	0x3
 915 0072 3F       		.byte	0x3f
 916 0073 77000000 		.4byte	0x77
 917 0077 02       		.uleb128 0x2
 918 0078 04       		.byte	0x4
 919 0079 05       		.byte	0x5
 920 007a 4C010000 		.4byte	.LASF9
 921 007e 04       		.uleb128 0x4
 922 007f 7C010000 		.4byte	.LASF10
 923 0083 03       		.byte	0x3
 924 0084 41       		.byte	0x41
 925 0085 89000000 		.4byte	0x89
 926 0089 02       		.uleb128 0x2
 927 008a 04       		.byte	0x4
 928 008b 07       		.byte	0x7
 929 008c 1F010000 		.4byte	.LASF11
 930 0090 02       		.uleb128 0x2
 931 0091 08       		.byte	0x8
 932 0092 05       		.byte	0x5
 933 0093 05010000 		.4byte	.LASF12
 934 0097 04       		.uleb128 0x4
 935 0098 9F040000 		.4byte	.LASF13
 936 009c 03       		.byte	0x3
 937 009d 5B       		.byte	0x5b
 938 009e A2000000 		.4byte	0xa2
 939 00a2 02       		.uleb128 0x2
 940 00a3 08       		.byte	0x8
 941 00a4 07       		.byte	0x7
 942 00a5 8C000000 		.4byte	.LASF14
 943 00a9 04       		.uleb128 0x4
 944 00aa 3E060000 		.4byte	.LASF15
 945 00ae 04       		.byte	0x4
 946 00af 14       		.byte	0x14
 947 00b0 4C000000 		.4byte	0x4c
 948 00b4 04       		.uleb128 0x4
 949 00b5 F4040000 		.4byte	.LASF16
 950 00b9 04       		.byte	0x4
 951 00ba 1F       		.byte	0x1f
 952 00bb 6C000000 		.4byte	0x6c
 953 00bf 04       		.uleb128 0x4
 954 00c0 77050000 		.4byte	.LASF17
 955 00c4 04       		.byte	0x4
 956 00c5 20       		.byte	0x20
 957 00c6 7E000000 		.4byte	0x7e
 958 00ca 04       		.uleb128 0x4
 959 00cb 1A000000 		.4byte	.LASF18
 960 00cf 04       		.byte	0x4
 961 00d0 26       		.byte	0x26
 962 00d1 97000000 		.4byte	0x97
 963 00d5 04       		.uleb128 0x4
 964 00d6 07060000 		.4byte	.LASF19
 965 00da 05       		.byte	0x5
 966 00db 39       		.byte	0x39
 967 00dc BF000000 		.4byte	0xbf
 968 00e0 04       		.uleb128 0x4
ARM GAS  /tmp/ccFtBk3F.s 			page 18


 969 00e1 FC000000 		.4byte	.LASF20
 970 00e5 05       		.byte	0x5
 971 00e6 3A       		.byte	0x3a
 972 00e7 CA000000 		.4byte	0xca
 973 00eb 04       		.uleb128 0x4
 974 00ec 88060000 		.4byte	.LASF21
 975 00f0 05       		.byte	0x5
 976 00f1 3C       		.byte	0x3c
 977 00f2 A9000000 		.4byte	0xa9
 978 00f6 04       		.uleb128 0x4
 979 00f7 55010000 		.4byte	.LASF22
 980 00fb 05       		.byte	0x5
 981 00fc 3D       		.byte	0x3d
 982 00fd A9000000 		.4byte	0xa9
 983 0101 04       		.uleb128 0x4
 984 0102 28060000 		.4byte	.LASF23
 985 0106 05       		.byte	0x5
 986 0107 3E       		.byte	0x3e
 987 0108 A9000000 		.4byte	0xa9
 988 010c 04       		.uleb128 0x4
 989 010d D0040000 		.4byte	.LASF24
 990 0111 05       		.byte	0x5
 991 0112 40       		.byte	0x40
 992 0113 BF000000 		.4byte	0xbf
 993 0117 04       		.uleb128 0x4
 994 0118 5D030000 		.4byte	.LASF25
 995 011c 05       		.byte	0x5
 996 011d 41       		.byte	0x41
 997 011e B4000000 		.4byte	0xb4
 998 0122 04       		.uleb128 0x4
 999 0123 CA030000 		.4byte	.LASF26
 1000 0127 05       		.byte	0x5
 1001 0128 43       		.byte	0x43
 1002 0129 BF000000 		.4byte	0xbf
 1003 012d 04       		.uleb128 0x4
 1004 012e CB010000 		.4byte	.LASF27
 1005 0132 05       		.byte	0x5
 1006 0133 45       		.byte	0x45
 1007 0134 B4000000 		.4byte	0xb4
 1008 0138 04       		.uleb128 0x4
 1009 0139 68030000 		.4byte	.LASF28
 1010 013d 05       		.byte	0x5
 1011 013e 46       		.byte	0x46
 1012 013f BF000000 		.4byte	0xbf
 1013 0143 04       		.uleb128 0x4
 1014 0144 D2050000 		.4byte	.LASF29
 1015 0148 06       		.byte	0x6
 1016 0149 33       		.byte	0x33
 1017 014a BF000000 		.4byte	0xbf
 1018 014e 04       		.uleb128 0x4
 1019 014f C4050000 		.4byte	.LASF30
 1020 0153 06       		.byte	0x6
 1021 0154 3F       		.byte	0x3f
 1022 0155 59010000 		.4byte	0x159
 1023 0159 05       		.uleb128 0x5
 1024 015a 53030000 		.4byte	.LASF49
 1025 015e 60       		.byte	0x60
ARM GAS  /tmp/ccFtBk3F.s 			page 19


 1026 015f 07       		.byte	0x7
 1027 0160 9A       		.byte	0x9a
 1028 0161 44020000 		.4byte	0x244
 1029 0165 06       		.uleb128 0x6
 1030 0166 1A030000 		.4byte	.LASF31
 1031 016a 07       		.byte	0x7
 1032 016b 9B       		.byte	0x9b
 1033 016c 79020000 		.4byte	0x279
 1034 0170 00       		.byte	0
 1035 0171 06       		.uleb128 0x6
 1036 0172 85040000 		.4byte	.LASF32
 1037 0176 07       		.byte	0x7
 1038 0177 9C       		.byte	0x9c
 1039 0178 0C010000 		.4byte	0x10c
 1040 017c 08       		.byte	0x8
 1041 017d 07       		.uleb128 0x7
 1042 017e 63747800 		.ascii	"ctx\000"
 1043 0182 07       		.byte	0x7
 1044 0183 9D       		.byte	0x9d
 1045 0184 7E040000 		.4byte	0x47e
 1046 0188 0C       		.byte	0xc
 1047 0189 06       		.uleb128 0x6
 1048 018a EB030000 		.4byte	.LASF33
 1049 018e 07       		.byte	0x7
 1050 018f 9F       		.byte	0x9f
 1051 0190 4F020000 		.4byte	0x24f
 1052 0194 10       		.byte	0x10
 1053 0195 06       		.uleb128 0x6
 1054 0196 B4050000 		.4byte	.LASF34
 1055 019a 07       		.byte	0x7
 1056 019b A0       		.byte	0xa0
 1057 019c 4F020000 		.4byte	0x24f
 1058 01a0 14       		.byte	0x14
 1059 01a1 06       		.uleb128 0x6
 1060 01a2 4E030000 		.4byte	.LASF35
 1061 01a6 07       		.byte	0x7
 1062 01a7 A7       		.byte	0xa7
 1063 01a8 65070000 		.4byte	0x765
 1064 01ac 18       		.byte	0x18
 1065 01ad 06       		.uleb128 0x6
 1066 01ae A8050000 		.4byte	.LASF36
 1067 01b2 07       		.byte	0x7
 1068 01b3 B0       		.byte	0xb0
 1069 01b4 77070000 		.4byte	0x777
 1070 01b8 1C       		.byte	0x1c
 1071 01b9 06       		.uleb128 0x6
 1072 01ba 46010000 		.4byte	.LASF37
 1073 01be 07       		.byte	0x7
 1074 01bf B5       		.byte	0xb5
 1075 01c0 F6000000 		.4byte	0xf6
 1076 01c4 20       		.byte	0x20
 1077 01c5 06       		.uleb128 0x6
 1078 01c6 50060000 		.4byte	.LASF38
 1079 01ca 07       		.byte	0x7
 1080 01cb B9       		.byte	0xb9
 1081 01cc EB000000 		.4byte	0xeb
 1082 01d0 21       		.byte	0x21
ARM GAS  /tmp/ccFtBk3F.s 			page 20


 1083 01d1 06       		.uleb128 0x6
 1084 01d2 BB040000 		.4byte	.LASF39
 1085 01d6 07       		.byte	0x7
 1086 01d7 BE       		.byte	0xbe
 1087 01d8 01010000 		.4byte	0x101
 1088 01dc 22       		.byte	0x22
 1089 01dd 08       		.uleb128 0x8
 1090 01de 7500     		.ascii	"u\000"
 1091 01e0 07       		.byte	0x7
 1092 01e1 0F01     		.2byte	0x10f
 1093 01e3 9A060000 		.4byte	0x69a
 1094 01e7 24       		.byte	0x24
 1095 01e8 09       		.uleb128 0x9
 1096 01e9 9E010000 		.4byte	.LASF40
 1097 01ed 07       		.byte	0x7
 1098 01ee 1401     		.2byte	0x114
 1099 01f0 55020000 		.4byte	0x255
 1100 01f4 28       		.byte	0x28
 1101 01f5 09       		.uleb128 0x9
 1102 01f6 3D010000 		.4byte	.LASF41
 1103 01fa 07       		.byte	0x7
 1104 01fb 1A01     		.2byte	0x11a
 1105 01fd 79020000 		.4byte	0x279
 1106 0201 2C       		.byte	0x2c
 1107 0202 09       		.uleb128 0x9
 1108 0203 6F030000 		.4byte	.LASF42
 1109 0207 07       		.byte	0x7
 1110 0208 2001     		.2byte	0x120
 1111 020a 22010000 		.4byte	0x122
 1112 020e 34       		.byte	0x34
 1113 020f 09       		.uleb128 0x9
 1114 0210 A0060000 		.4byte	.LASF43
 1115 0214 07       		.byte	0x7
 1116 0215 2701     		.2byte	0x127
 1117 0217 5F070000 		.4byte	0x75f
 1118 021b 38       		.byte	0x38
 1119 021c 09       		.uleb128 0x9
 1120 021d 04040000 		.4byte	.LASF44
 1121 0221 07       		.byte	0x7
 1122 0222 2B01     		.2byte	0x12b
 1123 0224 0C010000 		.4byte	0x10c
 1124 0228 3C       		.byte	0x3c
 1125 0229 09       		.uleb128 0x9
 1126 022a 26030000 		.4byte	.LASF45
 1127 022e 07       		.byte	0x7
 1128 022f 3201     		.2byte	0x132
 1129 0231 2C030000 		.4byte	0x32c
 1130 0235 40       		.byte	0x40
 1131 0236 09       		.uleb128 0x9
 1132 0237 68010000 		.4byte	.LASF46
 1133 023b 07       		.byte	0x7
 1134 023c 3801     		.2byte	0x138
 1135 023e 4B060000 		.4byte	0x64b
 1136 0242 48       		.byte	0x48
 1137 0243 00       		.byte	0
 1138 0244 04       		.uleb128 0x4
 1139 0245 16040000 		.4byte	.LASF47
ARM GAS  /tmp/ccFtBk3F.s 			page 21


 1140 0249 06       		.byte	0x6
 1141 024a 44       		.byte	0x44
 1142 024b 4F020000 		.4byte	0x24f
 1143 024f 0A       		.uleb128 0xa
 1144 0250 04       		.byte	0x4
 1145 0251 4E010000 		.4byte	0x14e
 1146 0255 04       		.uleb128 0x4
 1147 0256 79060000 		.4byte	.LASF48
 1148 025a 06       		.byte	0x6
 1149 025b 49       		.byte	0x49
 1150 025c 60020000 		.4byte	0x260
 1151 0260 05       		.uleb128 0x5
 1152 0261 87050000 		.4byte	.LASF50
 1153 0265 04       		.byte	0x4
 1154 0266 07       		.byte	0x7
 1155 0267 88       		.byte	0x88
 1156 0268 79020000 		.4byte	0x279
 1157 026c 06       		.uleb128 0x6
 1158 026d F7000000 		.4byte	.LASF51
 1159 0271 07       		.byte	0x7
 1160 0272 89       		.byte	0x89
 1161 0273 4F020000 		.4byte	0x24f
 1162 0277 00       		.byte	0
 1163 0278 00       		.byte	0
 1164 0279 04       		.uleb128 0x4
 1165 027a 0F060000 		.4byte	.LASF52
 1166 027e 06       		.byte	0x6
 1167 027f 50       		.byte	0x50
 1168 0280 84020000 		.4byte	0x284
 1169 0284 05       		.uleb128 0x5
 1170 0285 BA060000 		.4byte	.LASF53
 1171 0289 08       		.byte	0x8
 1172 028a 07       		.byte	0x7
 1173 028b 8F       		.byte	0x8f
 1174 028c A9020000 		.4byte	0x2a9
 1175 0290 06       		.uleb128 0x6
 1176 0291 F7000000 		.4byte	.LASF51
 1177 0295 07       		.byte	0x7
 1178 0296 90       		.byte	0x90
 1179 0297 4F020000 		.4byte	0x24f
 1180 029b 00       		.byte	0
 1181 029c 06       		.uleb128 0x6
 1182 029d 3A000000 		.4byte	.LASF54
 1183 02a1 07       		.byte	0x7
 1184 02a2 91       		.byte	0x91
 1185 02a3 4F020000 		.4byte	0x24f
 1186 02a7 04       		.byte	0x4
 1187 02a8 00       		.byte	0
 1188 02a9 04       		.uleb128 0x4
 1189 02aa 00000000 		.4byte	.LASF55
 1190 02ae 06       		.byte	0x6
 1191 02af 57       		.byte	0x57
 1192 02b0 B4020000 		.4byte	0x2b4
 1193 02b4 0B       		.uleb128 0xb
 1194 02b5 BC030000 		.4byte	.LASF56
 1195 02b9 1C       		.byte	0x1c
 1196 02ba 07       		.byte	0x7
ARM GAS  /tmp/ccFtBk3F.s 			page 22


 1197 02bb 6A01     		.2byte	0x16a
 1198 02bd 10030000 		.4byte	0x310
 1199 02c1 09       		.uleb128 0x9
 1200 02c2 1A030000 		.4byte	.LASF31
 1201 02c6 07       		.byte	0x7
 1202 02c7 6B01     		.2byte	0x16b
 1203 02c9 79020000 		.4byte	0x279
 1204 02cd 00       		.byte	0
 1205 02ce 09       		.uleb128 0x9
 1206 02cf 85040000 		.4byte	.LASF32
 1207 02d3 07       		.byte	0x7
 1208 02d4 6C01     		.2byte	0x16c
 1209 02d6 0C010000 		.4byte	0x10c
 1210 02da 08       		.byte	0x8
 1211 02db 08       		.uleb128 0x8
 1212 02dc 63747800 		.ascii	"ctx\000"
 1213 02e0 07       		.byte	0x7
 1214 02e1 6E01     		.2byte	0x16e
 1215 02e3 7E040000 		.4byte	0x47e
 1216 02e7 0C       		.byte	0xc
 1217 02e8 09       		.uleb128 0x9
 1218 02e9 EB030000 		.4byte	.LASF33
 1219 02ed 07       		.byte	0x7
 1220 02ee 7101     		.2byte	0x171
 1221 02f0 4F020000 		.4byte	0x24f
 1222 02f4 10       		.byte	0x10
 1223 02f5 09       		.uleb128 0x9
 1224 02f6 B4050000 		.4byte	.LASF34
 1225 02fa 07       		.byte	0x7
 1226 02fb 7201     		.2byte	0x172
 1227 02fd 4F020000 		.4byte	0x24f
 1228 0301 14       		.byte	0x14
 1229 0302 09       		.uleb128 0x9
 1230 0303 8A040000 		.4byte	.LASF57
 1231 0307 07       		.byte	0x7
 1232 0308 7501     		.2byte	0x175
 1233 030a 4F020000 		.4byte	0x24f
 1234 030e 18       		.byte	0x18
 1235 030f 00       		.byte	0
 1236 0310 04       		.uleb128 0x4
 1237 0311 DC050000 		.4byte	.LASF58
 1238 0315 06       		.byte	0x6
 1239 0316 5C       		.byte	0x5c
 1240 0317 1B030000 		.4byte	0x31b
 1241 031b 0A       		.uleb128 0xa
 1242 031c 04       		.byte	0x4
 1243 031d 21030000 		.4byte	0x321
 1244 0321 0C       		.uleb128 0xc
 1245 0322 2C030000 		.4byte	0x32c
 1246 0326 0D       		.uleb128 0xd
 1247 0327 2C030000 		.4byte	0x32c
 1248 032b 00       		.byte	0
 1249 032c 0E       		.uleb128 0xe
 1250 032d 04       		.byte	0x4
 1251 032e 04       		.uleb128 0x4
 1252 032f C0040000 		.4byte	.LASF59
 1253 0333 06       		.byte	0x6
ARM GAS  /tmp/ccFtBk3F.s 			page 23


 1254 0334 61       		.byte	0x61
 1255 0335 39030000 		.4byte	0x339
 1256 0339 0B       		.uleb128 0xb
 1257 033a 59050000 		.4byte	.LASF60
 1258 033e 14       		.byte	0x14
 1259 033f 07       		.byte	0x7
 1260 0340 4501     		.2byte	0x145
 1261 0342 88030000 		.4byte	0x388
 1262 0346 09       		.uleb128 0x9
 1263 0347 F7000000 		.4byte	.LASF51
 1264 034b 07       		.byte	0x7
 1265 034c 4601     		.2byte	0x146
 1266 034e 7D070000 		.4byte	0x77d
 1267 0352 00       		.byte	0
 1268 0353 09       		.uleb128 0x9
 1269 0354 3A000000 		.4byte	.LASF54
 1270 0358 07       		.byte	0x7
 1271 0359 4701     		.2byte	0x147
 1272 035b 7D070000 		.4byte	0x77d
 1273 035f 04       		.byte	0x4
 1274 0360 09       		.uleb128 0x9
 1275 0361 14000000 		.4byte	.LASF61
 1276 0365 07       		.byte	0x7
 1277 0366 4801     		.2byte	0x148
 1278 0368 43010000 		.4byte	0x143
 1279 036c 08       		.byte	0x8
 1280 036d 09       		.uleb128 0x9
 1281 036e F2000000 		.4byte	.LASF62
 1282 0372 07       		.byte	0x7
 1283 0373 4901     		.2byte	0x149
 1284 0375 10030000 		.4byte	0x310
 1285 0379 0C       		.byte	0xc
 1286 037a 08       		.uleb128 0x8
 1287 037b 70617200 		.ascii	"par\000"
 1288 037f 07       		.byte	0x7
 1289 0380 4B01     		.2byte	0x14b
 1290 0382 2C030000 		.4byte	0x32c
 1291 0386 10       		.byte	0x10
 1292 0387 00       		.byte	0
 1293 0388 04       		.uleb128 0x4
 1294 0389 CF000000 		.4byte	.LASF63
 1295 038d 06       		.byte	0x6
 1296 038e 66       		.byte	0x66
 1297 038f 93030000 		.4byte	0x393
 1298 0393 0B       		.uleb128 0xb
 1299 0394 29040000 		.4byte	.LASF64
 1300 0398 10       		.byte	0x10
 1301 0399 07       		.byte	0x7
 1302 039a 5501     		.2byte	0x155
 1303 039c D5030000 		.4byte	0x3d5
 1304 03a0 09       		.uleb128 0x9
 1305 03a1 F7000000 		.4byte	.LASF51
 1306 03a5 07       		.byte	0x7
 1307 03a6 5601     		.2byte	0x156
 1308 03a8 7D070000 		.4byte	0x77d
 1309 03ac 00       		.byte	0
 1310 03ad 09       		.uleb128 0x9
ARM GAS  /tmp/ccFtBk3F.s 			page 24


 1311 03ae 3A000000 		.4byte	.LASF54
 1312 03b2 07       		.byte	0x7
 1313 03b3 5801     		.2byte	0x158
 1314 03b5 7D070000 		.4byte	0x77d
 1315 03b9 04       		.byte	0x4
 1316 03ba 09       		.uleb128 0x9
 1317 03bb 14000000 		.4byte	.LASF61
 1318 03bf 07       		.byte	0x7
 1319 03c0 5A01     		.2byte	0x15a
 1320 03c2 43010000 		.4byte	0x143
 1321 03c6 08       		.byte	0x8
 1322 03c7 09       		.uleb128 0x9
 1323 03c8 1A050000 		.4byte	.LASF65
 1324 03cc 07       		.byte	0x7
 1325 03cd 6201     		.2byte	0x162
 1326 03cf 43010000 		.4byte	0x143
 1327 03d3 0C       		.byte	0xc
 1328 03d4 00       		.byte	0
 1329 03d5 04       		.uleb128 0x4
 1330 03d6 53000000 		.4byte	.LASF66
 1331 03da 06       		.byte	0x6
 1332 03db 6B       		.byte	0x6b
 1333 03dc E0030000 		.4byte	0x3e0
 1334 03e0 0B       		.uleb128 0xb
 1335 03e1 90060000 		.4byte	.LASF67
 1336 03e5 04       		.byte	0x4
 1337 03e6 07       		.byte	0x7
 1338 03e7 7C01     		.2byte	0x17c
 1339 03e9 FB030000 		.4byte	0x3fb
 1340 03ed 09       		.uleb128 0x9
 1341 03ee E5050000 		.4byte	.LASF68
 1342 03f2 07       		.byte	0x7
 1343 03f3 8401     		.2byte	0x184
 1344 03f5 83070000 		.4byte	0x783
 1345 03f9 00       		.byte	0
 1346 03fa 00       		.byte	0
 1347 03fb 04       		.uleb128 0x4
 1348 03fc FB050000 		.4byte	.LASF69
 1349 0400 06       		.byte	0x6
 1350 0401 70       		.byte	0x70
 1351 0402 06040000 		.4byte	0x406
 1352 0406 0B       		.uleb128 0xb
 1353 0407 2A050000 		.4byte	.LASF70
 1354 040b D0       		.byte	0xd0
 1355 040c 07       		.byte	0x7
 1356 040d 9C01     		.2byte	0x19c
 1357 040f 61040000 		.4byte	0x461
 1358 0413 09       		.uleb128 0x9
 1359 0414 38060000 		.4byte	.LASF71
 1360 0418 07       		.byte	0x7
 1361 0419 A001     		.2byte	0x1a0
 1362 041b A9020000 		.4byte	0x2a9
 1363 041f 00       		.byte	0
 1364 0420 09       		.uleb128 0x9
 1365 0421 90010000 		.4byte	.LASF72
 1366 0425 07       		.byte	0x7
 1367 0426 A401     		.2byte	0x1a4
ARM GAS  /tmp/ccFtBk3F.s 			page 25


 1368 0428 88030000 		.4byte	0x388
 1369 042c 1C       		.byte	0x1c
 1370 042d 08       		.uleb128 0x8
 1371 042e 64626700 		.ascii	"dbg\000"
 1372 0432 07       		.byte	0x7
 1373 0433 A801     		.2byte	0x1a8
 1374 0435 D5030000 		.4byte	0x3d5
 1375 0439 2C       		.byte	0x2c
 1376 043a 09       		.uleb128 0x9
 1377 043b BC000000 		.4byte	.LASF73
 1378 043f 07       		.byte	0x7
 1379 0440 AC01     		.2byte	0x1ac
 1380 0442 4E010000 		.4byte	0x14e
 1381 0446 30       		.byte	0x30
 1382 0447 08       		.uleb128 0x8
 1383 0448 746D00   		.ascii	"tm\000"
 1384 044b 07       		.byte	0x7
 1385 044c B101     		.2byte	0x1b1
 1386 044e FD050000 		.4byte	0x5fd
 1387 0452 90       		.byte	0x90
 1388 0453 09       		.uleb128 0x9
 1389 0454 23000000 		.4byte	.LASF74
 1390 0458 07       		.byte	0x7
 1391 0459 B701     		.2byte	0x1b7
 1392 045b 8F060000 		.4byte	0x68f
 1393 045f 98       		.byte	0x98
 1394 0460 00       		.byte	0
 1395 0461 02       		.uleb128 0x2
 1396 0462 04       		.byte	0x4
 1397 0463 07       		.byte	0x7
 1398 0464 0D040000 		.4byte	.LASF75
 1399 0468 04       		.uleb128 0x4
 1400 0469 87010000 		.4byte	.LASF76
 1401 046d 08       		.byte	0x8
 1402 046e 65       		.byte	0x65
 1403 046f 2C030000 		.4byte	0x32c
 1404 0473 04       		.uleb128 0x4
 1405 0474 E0030000 		.4byte	.LASF77
 1406 0478 08       		.byte	0x8
 1407 0479 6D       		.byte	0x6d
 1408 047a CA000000 		.4byte	0xca
 1409 047e 05       		.uleb128 0x5
 1410 047f 67040000 		.4byte	.LASF78
 1411 0483 04       		.byte	0x4
 1412 0484 08       		.byte	0x8
 1413 0485 89       		.byte	0x89
 1414 0486 96040000 		.4byte	0x496
 1415 048a 07       		.uleb128 0x7
 1416 048b 737000   		.ascii	"sp\000"
 1417 048e 08       		.byte	0x8
 1418 048f 8A       		.byte	0x8a
 1419 0490 E2050000 		.4byte	0x5e2
 1420 0494 00       		.byte	0
 1421 0495 00       		.byte	0
 1422 0496 0B       		.uleb128 0xb
 1423 0497 3F000000 		.4byte	.LASF79
 1424 049b 64       		.byte	0x64
ARM GAS  /tmp/ccFtBk3F.s 			page 26


 1425 049c 09       		.byte	0x9
 1426 049d 5901     		.2byte	0x159
 1427 049f E2050000 		.4byte	0x5e2
 1428 04a3 08       		.uleb128 0x8
 1429 04a4 73313600 		.ascii	"s16\000"
 1430 04a8 09       		.byte	0x9
 1431 04a9 5B01     		.2byte	0x15b
 1432 04ab 68040000 		.4byte	0x468
 1433 04af 00       		.byte	0
 1434 04b0 08       		.uleb128 0x8
 1435 04b1 73313700 		.ascii	"s17\000"
 1436 04b5 09       		.byte	0x9
 1437 04b6 5C01     		.2byte	0x15c
 1438 04b8 68040000 		.4byte	0x468
 1439 04bc 04       		.byte	0x4
 1440 04bd 08       		.uleb128 0x8
 1441 04be 73313800 		.ascii	"s18\000"
 1442 04c2 09       		.byte	0x9
 1443 04c3 5D01     		.2byte	0x15d
 1444 04c5 68040000 		.4byte	0x468
 1445 04c9 08       		.byte	0x8
 1446 04ca 08       		.uleb128 0x8
 1447 04cb 73313900 		.ascii	"s19\000"
 1448 04cf 09       		.byte	0x9
 1449 04d0 5E01     		.2byte	0x15e
 1450 04d2 68040000 		.4byte	0x468
 1451 04d6 0C       		.byte	0xc
 1452 04d7 08       		.uleb128 0x8
 1453 04d8 73323000 		.ascii	"s20\000"
 1454 04dc 09       		.byte	0x9
 1455 04dd 5F01     		.2byte	0x15f
 1456 04df 68040000 		.4byte	0x468
 1457 04e3 10       		.byte	0x10
 1458 04e4 08       		.uleb128 0x8
 1459 04e5 73323100 		.ascii	"s21\000"
 1460 04e9 09       		.byte	0x9
 1461 04ea 6001     		.2byte	0x160
 1462 04ec 68040000 		.4byte	0x468
 1463 04f0 14       		.byte	0x14
 1464 04f1 08       		.uleb128 0x8
 1465 04f2 73323200 		.ascii	"s22\000"
 1466 04f6 09       		.byte	0x9
 1467 04f7 6101     		.2byte	0x161
 1468 04f9 68040000 		.4byte	0x468
 1469 04fd 18       		.byte	0x18
 1470 04fe 08       		.uleb128 0x8
 1471 04ff 73323300 		.ascii	"s23\000"
 1472 0503 09       		.byte	0x9
 1473 0504 6201     		.2byte	0x162
 1474 0506 68040000 		.4byte	0x468
 1475 050a 1C       		.byte	0x1c
 1476 050b 08       		.uleb128 0x8
 1477 050c 73323400 		.ascii	"s24\000"
 1478 0510 09       		.byte	0x9
 1479 0511 6301     		.2byte	0x163
 1480 0513 68040000 		.4byte	0x468
 1481 0517 20       		.byte	0x20
ARM GAS  /tmp/ccFtBk3F.s 			page 27


 1482 0518 08       		.uleb128 0x8
 1483 0519 73323500 		.ascii	"s25\000"
 1484 051d 09       		.byte	0x9
 1485 051e 6401     		.2byte	0x164
 1486 0520 68040000 		.4byte	0x468
 1487 0524 24       		.byte	0x24
 1488 0525 08       		.uleb128 0x8
 1489 0526 73323600 		.ascii	"s26\000"
 1490 052a 09       		.byte	0x9
 1491 052b 6501     		.2byte	0x165
 1492 052d 68040000 		.4byte	0x468
 1493 0531 28       		.byte	0x28
 1494 0532 08       		.uleb128 0x8
 1495 0533 73323700 		.ascii	"s27\000"
 1496 0537 09       		.byte	0x9
 1497 0538 6601     		.2byte	0x166
 1498 053a 68040000 		.4byte	0x468
 1499 053e 2C       		.byte	0x2c
 1500 053f 08       		.uleb128 0x8
 1501 0540 73323800 		.ascii	"s28\000"
 1502 0544 09       		.byte	0x9
 1503 0545 6701     		.2byte	0x167
 1504 0547 68040000 		.4byte	0x468
 1505 054b 30       		.byte	0x30
 1506 054c 08       		.uleb128 0x8
 1507 054d 73323900 		.ascii	"s29\000"
 1508 0551 09       		.byte	0x9
 1509 0552 6801     		.2byte	0x168
 1510 0554 68040000 		.4byte	0x468
 1511 0558 34       		.byte	0x34
 1512 0559 08       		.uleb128 0x8
 1513 055a 73333000 		.ascii	"s30\000"
 1514 055e 09       		.byte	0x9
 1515 055f 6901     		.2byte	0x169
 1516 0561 68040000 		.4byte	0x468
 1517 0565 38       		.byte	0x38
 1518 0566 08       		.uleb128 0x8
 1519 0567 73333100 		.ascii	"s31\000"
 1520 056b 09       		.byte	0x9
 1521 056c 6A01     		.2byte	0x16a
 1522 056e 68040000 		.4byte	0x468
 1523 0572 3C       		.byte	0x3c
 1524 0573 08       		.uleb128 0x8
 1525 0574 723400   		.ascii	"r4\000"
 1526 0577 09       		.byte	0x9
 1527 0578 6C01     		.2byte	0x16c
 1528 057a 68040000 		.4byte	0x468
 1529 057e 40       		.byte	0x40
 1530 057f 08       		.uleb128 0x8
 1531 0580 723500   		.ascii	"r5\000"
 1532 0583 09       		.byte	0x9
 1533 0584 6D01     		.2byte	0x16d
 1534 0586 68040000 		.4byte	0x468
 1535 058a 44       		.byte	0x44
 1536 058b 08       		.uleb128 0x8
 1537 058c 723600   		.ascii	"r6\000"
 1538 058f 09       		.byte	0x9
ARM GAS  /tmp/ccFtBk3F.s 			page 28


 1539 0590 6E01     		.2byte	0x16e
 1540 0592 68040000 		.4byte	0x468
 1541 0596 48       		.byte	0x48
 1542 0597 08       		.uleb128 0x8
 1543 0598 723700   		.ascii	"r7\000"
 1544 059b 09       		.byte	0x9
 1545 059c 6F01     		.2byte	0x16f
 1546 059e 68040000 		.4byte	0x468
 1547 05a2 4C       		.byte	0x4c
 1548 05a3 08       		.uleb128 0x8
 1549 05a4 723800   		.ascii	"r8\000"
 1550 05a7 09       		.byte	0x9
 1551 05a8 7001     		.2byte	0x170
 1552 05aa 68040000 		.4byte	0x468
 1553 05ae 50       		.byte	0x50
 1554 05af 08       		.uleb128 0x8
 1555 05b0 723900   		.ascii	"r9\000"
 1556 05b3 09       		.byte	0x9
 1557 05b4 7101     		.2byte	0x171
 1558 05b6 68040000 		.4byte	0x468
 1559 05ba 54       		.byte	0x54
 1560 05bb 08       		.uleb128 0x8
 1561 05bc 72313000 		.ascii	"r10\000"
 1562 05c0 09       		.byte	0x9
 1563 05c1 7201     		.2byte	0x172
 1564 05c3 68040000 		.4byte	0x468
 1565 05c7 58       		.byte	0x58
 1566 05c8 08       		.uleb128 0x8
 1567 05c9 72313100 		.ascii	"r11\000"
 1568 05cd 09       		.byte	0x9
 1569 05ce 7301     		.2byte	0x173
 1570 05d0 68040000 		.4byte	0x468
 1571 05d4 5C       		.byte	0x5c
 1572 05d5 08       		.uleb128 0x8
 1573 05d6 6C7200   		.ascii	"lr\000"
 1574 05d9 09       		.byte	0x9
 1575 05da 7401     		.2byte	0x174
 1576 05dc 68040000 		.4byte	0x468
 1577 05e0 60       		.byte	0x60
 1578 05e1 00       		.byte	0
 1579 05e2 0A       		.uleb128 0xa
 1580 05e3 04       		.byte	0x4
 1581 05e4 96040000 		.4byte	0x496
 1582 05e8 0F       		.uleb128 0xf
 1583 05e9 04       		.byte	0x4
 1584 05ea 0A       		.byte	0xa
 1585 05eb 38       		.byte	0x38
 1586 05ec FD050000 		.4byte	0x5fd
 1587 05f0 06       		.uleb128 0x6
 1588 05f1 EF050000 		.4byte	.LASF80
 1589 05f5 0A       		.byte	0xa
 1590 05f6 3C       		.byte	0x3c
 1591 05f7 D5000000 		.4byte	0xd5
 1592 05fb 00       		.byte	0
 1593 05fc 00       		.byte	0
 1594 05fd 04       		.uleb128 0x4
 1595 05fe 74040000 		.4byte	.LASF81
ARM GAS  /tmp/ccFtBk3F.s 			page 29


 1596 0602 0A       		.byte	0xa
 1597 0603 3D       		.byte	0x3d
 1598 0604 E8050000 		.4byte	0x5e8
 1599 0608 0F       		.uleb128 0xf
 1600 0609 18       		.byte	0x18
 1601 060a 0A       		.byte	0xa
 1602 060b 48       		.byte	0x48
 1603 060c 4B060000 		.4byte	0x64b
 1604 0610 06       		.uleb128 0x6
 1605 0611 CD050000 		.4byte	.LASF82
 1606 0615 0A       		.byte	0xa
 1607 0616 49       		.byte	0x49
 1608 0617 D5000000 		.4byte	0xd5
 1609 061b 00       		.byte	0
 1610 061c 06       		.uleb128 0x6
 1611 061d 67000000 		.4byte	.LASF83
 1612 0621 0A       		.byte	0xa
 1613 0622 4A       		.byte	0x4a
 1614 0623 D5000000 		.4byte	0xd5
 1615 0627 04       		.byte	0x4
 1616 0628 06       		.uleb128 0x6
 1617 0629 63030000 		.4byte	.LASF84
 1618 062d 0A       		.byte	0xa
 1619 062e 4B       		.byte	0x4b
 1620 062f D5000000 		.4byte	0xd5
 1621 0633 08       		.byte	0x8
 1622 0634 07       		.uleb128 0x7
 1623 0635 6E00     		.ascii	"n\000"
 1624 0637 0A       		.byte	0xa
 1625 0638 4C       		.byte	0x4c
 1626 0639 38010000 		.4byte	0x138
 1627 063d 0C       		.byte	0xc
 1628 063e 06       		.uleb128 0x6
 1629 063f AA040000 		.4byte	.LASF85
 1630 0643 0A       		.byte	0xa
 1631 0644 4D       		.byte	0x4d
 1632 0645 E0000000 		.4byte	0xe0
 1633 0649 10       		.byte	0x10
 1634 064a 00       		.byte	0
 1635 064b 04       		.uleb128 0x4
 1636 064c 6D000000 		.4byte	.LASF86
 1637 0650 0A       		.byte	0xa
 1638 0651 4E       		.byte	0x4e
 1639 0652 08060000 		.4byte	0x608
 1640 0656 0F       		.uleb128 0xf
 1641 0657 38       		.byte	0x38
 1642 0658 0B       		.byte	0xb
 1643 0659 38       		.byte	0x38
 1644 065a 8F060000 		.4byte	0x68f
 1645 065e 06       		.uleb128 0x6
 1646 065f 14030000 		.4byte	.LASF87
 1647 0663 0B       		.byte	0xb
 1648 0664 39       		.byte	0x39
 1649 0665 38010000 		.4byte	0x138
 1650 0669 00       		.byte	0
 1651 066a 06       		.uleb128 0x6
 1652 066b E5040000 		.4byte	.LASF88
ARM GAS  /tmp/ccFtBk3F.s 			page 30


 1653 066f 0B       		.byte	0xb
 1654 0670 3A       		.byte	0x3a
 1655 0671 38010000 		.4byte	0x138
 1656 0675 04       		.byte	0x4
 1657 0676 06       		.uleb128 0x6
 1658 0677 A8060000 		.4byte	.LASF89
 1659 067b 0B       		.byte	0xb
 1660 067c 3B       		.byte	0x3b
 1661 067d 4B060000 		.4byte	0x64b
 1662 0681 08       		.byte	0x8
 1663 0682 06       		.uleb128 0x6
 1664 0683 B1030000 		.4byte	.LASF90
 1665 0687 0B       		.byte	0xb
 1666 0688 3D       		.byte	0x3d
 1667 0689 4B060000 		.4byte	0x64b
 1668 068d 20       		.byte	0x20
 1669 068e 00       		.byte	0
 1670 068f 04       		.uleb128 0x4
 1671 0690 3F030000 		.4byte	.LASF91
 1672 0694 0B       		.byte	0xb
 1673 0695 3F       		.byte	0x3f
 1674 0696 56060000 		.4byte	0x656
 1675 069a 10       		.uleb128 0x10
 1676 069b 04       		.byte	0x4
 1677 069c 07       		.byte	0x7
 1678 069d D2       		.byte	0xd2
 1679 069e FD060000 		.4byte	0x6fd
 1680 06a2 11       		.uleb128 0x11
 1681 06a3 52050000 		.4byte	.LASF92
 1682 06a7 07       		.byte	0x7
 1683 06a8 D9       		.byte	0xd9
 1684 06a9 17010000 		.4byte	0x117
 1685 06ad 11       		.uleb128 0x11
 1686 06ae B3000000 		.4byte	.LASF93
 1687 06b2 07       		.byte	0x7
 1688 06b3 E0       		.byte	0xe0
 1689 06b4 17010000 		.4byte	0x117
 1690 06b8 11       		.uleb128 0x11
 1691 06b9 56060000 		.4byte	.LASF94
 1692 06bd 07       		.byte	0x7
 1693 06be E7       		.byte	0xe7
 1694 06bf 2C030000 		.4byte	0x32c
 1695 06c3 11       		.uleb128 0x11
 1696 06c4 03030000 		.4byte	.LASF95
 1697 06c8 07       		.byte	0x7
 1698 06c9 EE       		.byte	0xee
 1699 06ca FD060000 		.4byte	0x6fd
 1700 06ce 11       		.uleb128 0x11
 1701 06cf C7000000 		.4byte	.LASF96
 1702 06d3 07       		.byte	0x7
 1703 06d4 F3       		.byte	0xf3
 1704 06d5 17010000 		.4byte	0x117
 1705 06d9 11       		.uleb128 0x11
 1706 06da FC020000 		.4byte	.LASF97
 1707 06de 07       		.byte	0x7
 1708 06df FC       		.byte	0xfc
 1709 06e0 28070000 		.4byte	0x728
ARM GAS  /tmp/ccFtBk3F.s 			page 31


 1710 06e4 12       		.uleb128 0x12
 1711 06e5 80050000 		.4byte	.LASF98
 1712 06e9 07       		.byte	0x7
 1713 06ea 0501     		.2byte	0x105
 1714 06ec 5F070000 		.4byte	0x75f
 1715 06f0 12       		.uleb128 0x12
 1716 06f1 23050000 		.4byte	.LASF99
 1717 06f5 07       		.byte	0x7
 1718 06f6 0D01     		.2byte	0x10d
 1719 06f8 22010000 		.4byte	0x122
 1720 06fc 00       		.byte	0
 1721 06fd 0A       		.uleb128 0xa
 1722 06fe 04       		.byte	0x4
 1723 06ff 44020000 		.4byte	0x244
 1724 0703 05       		.uleb128 0x5
 1725 0704 6A050000 		.4byte	.LASF100
 1726 0708 0C       		.byte	0xc
 1727 0709 0C       		.byte	0xc
 1728 070a 34       		.byte	0x34
 1729 070b 28070000 		.4byte	0x728
 1730 070f 06       		.uleb128 0x6
 1731 0710 1A030000 		.4byte	.LASF31
 1732 0714 0C       		.byte	0xc
 1733 0715 35       		.byte	0x35
 1734 0716 79020000 		.4byte	0x279
 1735 071a 00       		.byte	0
 1736 071b 07       		.uleb128 0x7
 1737 071c 636E7400 		.ascii	"cnt\000"
 1738 0720 0C       		.byte	0xc
 1739 0721 37       		.byte	0x37
 1740 0722 2D010000 		.4byte	0x12d
 1741 0726 08       		.byte	0x8
 1742 0727 00       		.byte	0
 1743 0728 0A       		.uleb128 0xa
 1744 0729 04       		.byte	0x4
 1745 072a 03070000 		.4byte	0x703
 1746 072e 05       		.uleb128 0x5
 1747 072f 1F060000 		.4byte	.LASF101
 1748 0733 10       		.byte	0x10
 1749 0734 0D       		.byte	0xd
 1750 0735 39       		.byte	0x39
 1751 0736 5F070000 		.4byte	0x75f
 1752 073a 06       		.uleb128 0x6
 1753 073b 1A030000 		.4byte	.LASF31
 1754 073f 0D       		.byte	0xd
 1755 0740 3A       		.byte	0x3a
 1756 0741 79020000 		.4byte	0x279
 1757 0745 00       		.byte	0
 1758 0746 06       		.uleb128 0x6
 1759 0747 97050000 		.4byte	.LASF102
 1760 074b 0D       		.byte	0xd
 1761 074c 3C       		.byte	0x3c
 1762 074d 4F020000 		.4byte	0x24f
 1763 0751 08       		.byte	0x8
 1764 0752 06       		.uleb128 0x6
 1765 0753 F7000000 		.4byte	.LASF51
 1766 0757 0D       		.byte	0xd
ARM GAS  /tmp/ccFtBk3F.s 			page 32


 1767 0758 3E       		.byte	0x3e
 1768 0759 93070000 		.4byte	0x793
 1769 075d 0C       		.byte	0xc
 1770 075e 00       		.byte	0
 1771 075f 0A       		.uleb128 0xa
 1772 0760 04       		.byte	0x4
 1773 0761 2E070000 		.4byte	0x72e
 1774 0765 0A       		.uleb128 0xa
 1775 0766 04       		.byte	0x4
 1776 0767 6B070000 		.4byte	0x76b
 1777 076b 13       		.uleb128 0x13
 1778 076c 70070000 		.4byte	0x770
 1779 0770 02       		.uleb128 0x2
 1780 0771 01       		.byte	0x1
 1781 0772 08       		.byte	0x8
 1782 0773 AF050000 		.4byte	.LASF103
 1783 0777 0A       		.uleb128 0xa
 1784 0778 04       		.byte	0x4
 1785 0779 73040000 		.4byte	0x473
 1786 077d 0A       		.uleb128 0xa
 1787 077e 04       		.byte	0x4
 1788 077f 2E030000 		.4byte	0x32e
 1789 0783 14       		.uleb128 0x14
 1790 0784 65070000 		.4byte	0x765
 1791 0788 04       		.uleb128 0x4
 1792 0789 AE010000 		.4byte	.LASF104
 1793 078d 0D       		.byte	0xd
 1794 078e 34       		.byte	0x34
 1795 078f 2E070000 		.4byte	0x72e
 1796 0793 0A       		.uleb128 0xa
 1797 0794 04       		.byte	0x4
 1798 0795 88070000 		.4byte	0x788
 1799 0799 02       		.uleb128 0x2
 1800 079a 01       		.byte	0x1
 1801 079b 02       		.byte	0x2
 1802 079c EE040000 		.4byte	.LASF105
 1803 07a0 05       		.uleb128 0x5
 1804 07a1 34050000 		.4byte	.LASF106
 1805 07a5 10       		.byte	0x10
 1806 07a6 0E       		.byte	0xe
 1807 07a7 46       		.byte	0x46
 1808 07a8 DD070000 		.4byte	0x7dd
 1809 07ac 06       		.uleb128 0x6
 1810 07ad FE030000 		.4byte	.LASF107
 1811 07b1 0E       		.byte	0xe
 1812 07b2 47       		.byte	0x47
 1813 07b3 01080000 		.4byte	0x801
 1814 07b7 00       		.byte	0
 1815 07b8 06       		.uleb128 0x6
 1816 07b9 78030000 		.4byte	.LASF108
 1817 07bd 0E       		.byte	0xe
 1818 07be 47       		.byte	0x47
 1819 07bf 26080000 		.4byte	0x826
 1820 07c3 04       		.byte	0x4
 1821 07c4 07       		.uleb128 0x7
 1822 07c5 70757400 		.ascii	"put\000"
 1823 07c9 0E       		.byte	0xe
ARM GAS  /tmp/ccFtBk3F.s 			page 33


 1824 07ca 47       		.byte	0x47
 1825 07cb 40080000 		.4byte	0x840
 1826 07cf 08       		.byte	0x8
 1827 07d0 07       		.uleb128 0x7
 1828 07d1 67657400 		.ascii	"get\000"
 1829 07d5 0E       		.byte	0xe
 1830 07d6 47       		.byte	0x47
 1831 07d7 55080000 		.4byte	0x855
 1832 07db 0C       		.byte	0xc
 1833 07dc 00       		.byte	0
 1834 07dd 15       		.uleb128 0x15
 1835 07de 33000000 		.4byte	0x33
 1836 07e2 F6070000 		.4byte	0x7f6
 1837 07e6 0D       		.uleb128 0xd
 1838 07e7 2C030000 		.4byte	0x32c
 1839 07eb 0D       		.uleb128 0xd
 1840 07ec F6070000 		.4byte	0x7f6
 1841 07f0 0D       		.uleb128 0xd
 1842 07f1 33000000 		.4byte	0x33
 1843 07f5 00       		.byte	0
 1844 07f6 0A       		.uleb128 0xa
 1845 07f7 04       		.byte	0x4
 1846 07f8 FC070000 		.4byte	0x7fc
 1847 07fc 13       		.uleb128 0x13
 1848 07fd A9000000 		.4byte	0xa9
 1849 0801 0A       		.uleb128 0xa
 1850 0802 04       		.byte	0x4
 1851 0803 DD070000 		.4byte	0x7dd
 1852 0807 15       		.uleb128 0x15
 1853 0808 33000000 		.4byte	0x33
 1854 080c 20080000 		.4byte	0x820
 1855 0810 0D       		.uleb128 0xd
 1856 0811 2C030000 		.4byte	0x32c
 1857 0815 0D       		.uleb128 0xd
 1858 0816 20080000 		.4byte	0x820
 1859 081a 0D       		.uleb128 0xd
 1860 081b 33000000 		.4byte	0x33
 1861 081f 00       		.byte	0
 1862 0820 0A       		.uleb128 0xa
 1863 0821 04       		.byte	0x4
 1864 0822 A9000000 		.4byte	0xa9
 1865 0826 0A       		.uleb128 0xa
 1866 0827 04       		.byte	0x4
 1867 0828 07080000 		.4byte	0x807
 1868 082c 15       		.uleb128 0x15
 1869 082d 17010000 		.4byte	0x117
 1870 0831 40080000 		.4byte	0x840
 1871 0835 0D       		.uleb128 0xd
 1872 0836 2C030000 		.4byte	0x32c
 1873 083a 0D       		.uleb128 0xd
 1874 083b A9000000 		.4byte	0xa9
 1875 083f 00       		.byte	0
 1876 0840 0A       		.uleb128 0xa
 1877 0841 04       		.byte	0x4
 1878 0842 2C080000 		.4byte	0x82c
 1879 0846 15       		.uleb128 0x15
 1880 0847 17010000 		.4byte	0x117
ARM GAS  /tmp/ccFtBk3F.s 			page 34


 1881 084b 55080000 		.4byte	0x855
 1882 084f 0D       		.uleb128 0xd
 1883 0850 2C030000 		.4byte	0x32c
 1884 0854 00       		.byte	0
 1885 0855 0A       		.uleb128 0xa
 1886 0856 04       		.byte	0x4
 1887 0857 46080000 		.4byte	0x846
 1888 085b 0F       		.uleb128 0xf
 1889 085c 04       		.byte	0x4
 1890 085d 0E       		.byte	0xe
 1891 085e 4F       		.byte	0x4f
 1892 085f 70080000 		.4byte	0x870
 1893 0863 07       		.uleb128 0x7
 1894 0864 766D7400 		.ascii	"vmt\000"
 1895 0868 0E       		.byte	0xe
 1896 0869 51       		.byte	0x51
 1897 086a 70080000 		.4byte	0x870
 1898 086e 00       		.byte	0
 1899 086f 00       		.byte	0
 1900 0870 0A       		.uleb128 0xa
 1901 0871 04       		.byte	0x4
 1902 0872 76080000 		.4byte	0x876
 1903 0876 13       		.uleb128 0x13
 1904 0877 A0070000 		.4byte	0x7a0
 1905 087b 04       		.uleb128 0x4
 1906 087c B6010000 		.4byte	.LASF109
 1907 0880 0E       		.byte	0xe
 1908 0881 53       		.byte	0x53
 1909 0882 5B080000 		.4byte	0x85b
 1910 0886 04       		.uleb128 0x4
 1911 0887 58040000 		.4byte	.LASF110
 1912 088b 0F       		.byte	0xf
 1913 088c 28       		.byte	0x28
 1914 088d 91080000 		.4byte	0x891
 1915 0891 05       		.uleb128 0x5
 1916 0892 5E010000 		.4byte	.LASF111
 1917 0896 04       		.byte	0x4
 1918 0897 10       		.byte	0x10
 1919 0898 00       		.byte	0
 1920 0899 A8080000 		.4byte	0x8a8
 1921 089d 16       		.uleb128 0x16
 1922 089e F6050000 		.4byte	.LASF112
 1923 08a2 2C030000 		.4byte	0x32c
 1924 08a6 00       		.byte	0
 1925 08a7 00       		.byte	0
 1926 08a8 04       		.uleb128 0x4
 1927 08a9 4B000000 		.4byte	.LASF113
 1928 08ad 0F       		.byte	0xf
 1929 08ae 62       		.byte	0x62
 1930 08af 86080000 		.4byte	0x886
 1931 08b3 05       		.uleb128 0x5
 1932 08b4 92040000 		.4byte	.LASF114
 1933 08b8 10       		.byte	0x10
 1934 08b9 11       		.byte	0x11
 1935 08ba 3D       		.byte	0x3d
 1936 08bb F0080000 		.4byte	0x8f0
 1937 08bf 06       		.uleb128 0x6
ARM GAS  /tmp/ccFtBk3F.s 			page 35


 1938 08c0 FE030000 		.4byte	.LASF107
 1939 08c4 11       		.byte	0x11
 1940 08c5 3E       		.byte	0x3e
 1941 08c6 01080000 		.4byte	0x801
 1942 08ca 00       		.byte	0
 1943 08cb 06       		.uleb128 0x6
 1944 08cc 78030000 		.4byte	.LASF108
 1945 08d0 11       		.byte	0x11
 1946 08d1 3E       		.byte	0x3e
 1947 08d2 26080000 		.4byte	0x826
 1948 08d6 04       		.byte	0x4
 1949 08d7 07       		.uleb128 0x7
 1950 08d8 70757400 		.ascii	"put\000"
 1951 08dc 11       		.byte	0x11
 1952 08dd 3E       		.byte	0x3e
 1953 08de 40080000 		.4byte	0x840
 1954 08e2 08       		.byte	0x8
 1955 08e3 07       		.uleb128 0x7
 1956 08e4 67657400 		.ascii	"get\000"
 1957 08e8 11       		.byte	0x11
 1958 08e9 3E       		.byte	0x3e
 1959 08ea 55080000 		.4byte	0x855
 1960 08ee 0C       		.byte	0xc
 1961 08ef 00       		.byte	0
 1962 08f0 0F       		.uleb128 0xf
 1963 08f1 14       		.byte	0x14
 1964 08f2 11       		.byte	0x11
 1965 08f3 46       		.byte	0x46
 1966 08f4 35090000 		.4byte	0x935
 1967 08f8 07       		.uleb128 0x7
 1968 08f9 766D7400 		.ascii	"vmt\000"
 1969 08fd 11       		.byte	0x11
 1970 08fe 48       		.byte	0x48
 1971 08ff 35090000 		.4byte	0x935
 1972 0903 00       		.byte	0
 1973 0904 06       		.uleb128 0x6
 1974 0905 75010000 		.4byte	.LASF115
 1975 0909 11       		.byte	0x11
 1976 090a 49       		.byte	0x49
 1977 090b 20080000 		.4byte	0x820
 1978 090f 04       		.byte	0x4
 1979 0910 06       		.uleb128 0x6
 1980 0911 31010000 		.4byte	.LASF116
 1981 0915 11       		.byte	0x11
 1982 0916 49       		.byte	0x49
 1983 0917 33000000 		.4byte	0x33
 1984 091b 08       		.byte	0x8
 1985 091c 07       		.uleb128 0x7
 1986 091d 656F7300 		.ascii	"eos\000"
 1987 0921 11       		.byte	0x11
 1988 0922 49       		.byte	0x49
 1989 0923 33000000 		.4byte	0x33
 1990 0927 0C       		.byte	0xc
 1991 0928 06       		.uleb128 0x6
 1992 0929 EF050000 		.4byte	.LASF80
 1993 092d 11       		.byte	0x11
 1994 092e 49       		.byte	0x49
ARM GAS  /tmp/ccFtBk3F.s 			page 36


 1995 092f 33000000 		.4byte	0x33
 1996 0933 10       		.byte	0x10
 1997 0934 00       		.byte	0
 1998 0935 0A       		.uleb128 0xa
 1999 0936 04       		.byte	0x4
 2000 0937 3B090000 		.4byte	0x93b
 2001 093b 13       		.uleb128 0x13
 2002 093c B3080000 		.4byte	0x8b3
 2003 0940 04       		.uleb128 0x4
 2004 0941 D8040000 		.4byte	.LASF117
 2005 0945 11       		.byte	0x11
 2006 0946 4A       		.byte	0x4a
 2007 0947 F0080000 		.4byte	0x8f0
 2008 094b 17       		.uleb128 0x17
 2009 094c 5D060000 		.4byte	.LASF140
 2010 0950 01       		.byte	0x1
 2011 0951 25       		.byte	0x25
 2012 0952 D4090000 		.4byte	0x9d4
 2013 0956 00000000 		.4byte	.LFB277
 2014 095a 44000000 		.4byte	.LFE277-.LFB277
 2015 095e 01       		.uleb128 0x1
 2016 095f 9C       		.byte	0x9c
 2017 0960 D4090000 		.4byte	0x9d4
 2018 0964 18       		.uleb128 0x18
 2019 0965 7000     		.ascii	"p\000"
 2020 0967 01       		.byte	0x1
 2021 0968 25       		.byte	0x25
 2022 0969 D4090000 		.4byte	0x9d4
 2023 096d 00000000 		.4byte	.LLST0
 2024 0971 18       		.uleb128 0x18
 2025 0972 6E756D00 		.ascii	"num\000"
 2026 0976 01       		.byte	0x1
 2027 0977 26       		.byte	0x26
 2028 0978 77000000 		.4byte	0x77
 2029 097c 13000000 		.4byte	.LLST1
 2030 0980 19       		.uleb128 0x19
 2031 0981 4C050000 		.4byte	.LASF118
 2032 0985 01       		.byte	0x1
 2033 0986 27       		.byte	0x27
 2034 0987 3E000000 		.4byte	0x3e
 2035 098b 34000000 		.4byte	.LLST2
 2036 098f 19       		.uleb128 0x19
 2037 0990 50040000 		.4byte	.LASF119
 2038 0994 01       		.byte	0x1
 2039 0995 28       		.byte	0x28
 2040 0996 77000000 		.4byte	0x77
 2041 099a 55000000 		.4byte	.LLST3
 2042 099e 1A       		.uleb128 0x1a
 2043 099f 6900     		.ascii	"i\000"
 2044 09a1 01       		.byte	0x1
 2045 09a2 29       		.byte	0x29
 2046 09a3 2C000000 		.4byte	0x2c
 2047 09a7 76000000 		.4byte	.LLST4
 2048 09ab 1A       		.uleb128 0x1a
 2049 09ac 7100     		.ascii	"q\000"
 2050 09ae 01       		.byte	0x1
 2051 09af 2A       		.byte	0x2a
ARM GAS  /tmp/ccFtBk3F.s 			page 37


 2052 09b0 D4090000 		.4byte	0x9d4
 2053 09b4 A4000000 		.4byte	.LLST5
 2054 09b8 1A       		.uleb128 0x1a
 2055 09b9 6C00     		.ascii	"l\000"
 2056 09bb 01       		.byte	0x1
 2057 09bc 2B       		.byte	0x2b
 2058 09bd 77000000 		.4byte	0x77
 2059 09c1 E7000000 		.4byte	.LLST6
 2060 09c5 1A       		.uleb128 0x1a
 2061 09c6 6C6C00   		.ascii	"ll\000"
 2062 09c9 01       		.byte	0x1
 2063 09ca 2B       		.byte	0x2b
 2064 09cb 77000000 		.4byte	0x77
 2065 09cf 10010000 		.4byte	.LLST7
 2066 09d3 00       		.byte	0
 2067 09d4 0A       		.uleb128 0xa
 2068 09d5 04       		.byte	0x4
 2069 09d6 70070000 		.4byte	0x770
 2070 09da 1B       		.uleb128 0x1b
 2071 09db 30060000 		.4byte	.LASF120
 2072 09df 01       		.byte	0x1
 2073 09e0 46       		.byte	0x46
 2074 09e1 D4090000 		.4byte	0x9d4
 2075 09e5 01       		.byte	0x1
 2076 09e6 0A0A0000 		.4byte	0xa0a
 2077 09ea 1C       		.uleb128 0x1c
 2078 09eb 7000     		.ascii	"p\000"
 2079 09ed 01       		.byte	0x1
 2080 09ee 46       		.byte	0x46
 2081 09ef D4090000 		.4byte	0x9d4
 2082 09f3 1C       		.uleb128 0x1c
 2083 09f4 6E756D00 		.ascii	"num\000"
 2084 09f8 01       		.byte	0x1
 2085 09f9 46       		.byte	0x46
 2086 09fa 77000000 		.4byte	0x77
 2087 09fe 1D       		.uleb128 0x1d
 2088 09ff 4C050000 		.4byte	.LASF118
 2089 0a03 01       		.byte	0x1
 2090 0a04 46       		.byte	0x46
 2091 0a05 3E000000 		.4byte	0x3e
 2092 0a09 00       		.byte	0
 2093 0a0a 1B       		.uleb128 0x1b
 2094 0a0b 62000000 		.4byte	.LASF121
 2095 0a0f 01       		.byte	0x1
 2096 0a10 50       		.byte	0x50
 2097 0a11 D4090000 		.4byte	0x9d4
 2098 0a15 01       		.byte	0x1
 2099 0a16 430A0000 		.4byte	0xa43
 2100 0a1a 1C       		.uleb128 0x1c
 2101 0a1b 7000     		.ascii	"p\000"
 2102 0a1d 01       		.byte	0x1
 2103 0a1e 50       		.byte	0x50
 2104 0a1f D4090000 		.4byte	0x9d4
 2105 0a23 1C       		.uleb128 0x1c
 2106 0a24 6E756D00 		.ascii	"num\000"
 2107 0a28 01       		.byte	0x1
 2108 0a29 50       		.byte	0x50
ARM GAS  /tmp/ccFtBk3F.s 			page 38


 2109 0a2a 25000000 		.4byte	0x25
 2110 0a2e 1D       		.uleb128 0x1d
 2111 0a2f BA050000 		.4byte	.LASF122
 2112 0a33 01       		.byte	0x1
 2113 0a34 50       		.byte	0x50
 2114 0a35 89000000 		.4byte	0x89
 2115 0a39 1E       		.uleb128 0x1e
 2116 0a3a 6C00     		.ascii	"l\000"
 2117 0a3c 01       		.byte	0x1
 2118 0a3d 51       		.byte	0x51
 2119 0a3e 77000000 		.4byte	0x77
 2120 0a42 00       		.byte	0
 2121 0a43 1F       		.uleb128 0x1f
 2122 0a44 46060000 		.4byte	.LASF129
 2123 0a48 01       		.byte	0x1
 2124 0a49 79       		.byte	0x79
 2125 0a4a 2C000000 		.4byte	0x2c
 2126 0a4e 00000000 		.4byte	.LFB280
 2127 0a52 D8020000 		.4byte	.LFE280-.LFB280
 2128 0a56 01       		.uleb128 0x1
 2129 0a57 9C       		.byte	0x9c
 2130 0a58 6A0C0000 		.4byte	0xc6a
 2131 0a5c 18       		.uleb128 0x18
 2132 0a5d 63687000 		.ascii	"chp\000"
 2133 0a61 01       		.byte	0x1
 2134 0a62 79       		.byte	0x79
 2135 0a63 6A0C0000 		.4byte	0xc6a
 2136 0a67 2E010000 		.4byte	.LLST8
 2137 0a6b 18       		.uleb128 0x18
 2138 0a6c 666D7400 		.ascii	"fmt\000"
 2139 0a70 01       		.byte	0x1
 2140 0a71 79       		.byte	0x79
 2141 0a72 65070000 		.4byte	0x765
 2142 0a76 5A010000 		.4byte	.LLST9
 2143 0a7a 18       		.uleb128 0x18
 2144 0a7b 617000   		.ascii	"ap\000"
 2145 0a7e 01       		.byte	0x1
 2146 0a7f 79       		.byte	0x79
 2147 0a80 A8080000 		.4byte	0x8a8
 2148 0a84 CB010000 		.4byte	.LLST10
 2149 0a88 1A       		.uleb128 0x1a
 2150 0a89 7000     		.ascii	"p\000"
 2151 0a8b 01       		.byte	0x1
 2152 0a8c 7A       		.byte	0x7a
 2153 0a8d D4090000 		.4byte	0x9d4
 2154 0a91 F4010000 		.4byte	.LLST11
 2155 0a95 1A       		.uleb128 0x1a
 2156 0a96 7300     		.ascii	"s\000"
 2157 0a98 01       		.byte	0x1
 2158 0a99 7A       		.byte	0x7a
 2159 0a9a D4090000 		.4byte	0x9d4
 2160 0a9e C9020000 		.4byte	.LLST12
 2161 0aa2 1A       		.uleb128 0x1a
 2162 0aa3 6300     		.ascii	"c\000"
 2163 0aa5 01       		.byte	0x1
 2164 0aa6 7A       		.byte	0x7a
 2165 0aa7 70070000 		.4byte	0x770
ARM GAS  /tmp/ccFtBk3F.s 			page 39


 2166 0aab 3F030000 		.4byte	.LLST13
 2167 0aaf 20       		.uleb128 0x20
 2168 0ab0 97010000 		.4byte	.LASF123
 2169 0ab4 01       		.byte	0x1
 2170 0ab5 7A       		.byte	0x7a
 2171 0ab6 70070000 		.4byte	0x770
 2172 0aba 25040000 		.4byte	.LLST14
 2173 0abe 1A       		.uleb128 0x1a
 2174 0abf 6900     		.ascii	"i\000"
 2175 0ac1 01       		.byte	0x1
 2176 0ac2 7B       		.byte	0x7b
 2177 0ac3 2C000000 		.4byte	0x2c
 2178 0ac7 77040000 		.4byte	.LLST15
 2179 0acb 20       		.uleb128 0x20
 2180 0acc BA050000 		.4byte	.LASF122
 2181 0ad0 01       		.byte	0x1
 2182 0ad1 7B       		.byte	0x7b
 2183 0ad2 2C000000 		.4byte	0x2c
 2184 0ad6 BA040000 		.4byte	.LLST16
 2185 0ada 20       		.uleb128 0x20
 2186 0adb 20030000 		.4byte	.LASF124
 2187 0adf 01       		.byte	0x1
 2188 0ae0 7B       		.byte	0x7b
 2189 0ae1 2C000000 		.4byte	0x2c
 2190 0ae5 E8040000 		.4byte	.LLST17
 2191 0ae9 1A       		.uleb128 0x1a
 2192 0aea 6E00     		.ascii	"n\000"
 2193 0aec 01       		.byte	0x1
 2194 0aed 7C       		.byte	0x7c
 2195 0aee 2C000000 		.4byte	0x2c
 2196 0af2 76050000 		.4byte	.LLST18
 2197 0af6 20       		.uleb128 0x20
 2198 0af7 A6010000 		.4byte	.LASF125
 2199 0afb 01       		.byte	0x1
 2200 0afc 7D       		.byte	0x7d
 2201 0afd 99070000 		.4byte	0x799
 2202 0b01 B6050000 		.4byte	.LLST19
 2203 0b05 20       		.uleb128 0x20
 2204 0b06 09030000 		.4byte	.LASF126
 2205 0b0a 01       		.byte	0x1
 2206 0b0b 7D       		.byte	0x7d
 2207 0b0c 99070000 		.4byte	0x799
 2208 0b10 CA050000 		.4byte	.LLST20
 2209 0b14 1A       		.uleb128 0x1a
 2210 0b15 6C00     		.ascii	"l\000"
 2211 0b17 01       		.byte	0x1
 2212 0b18 7E       		.byte	0x7e
 2213 0b19 77000000 		.4byte	0x77
 2214 0b1d F7050000 		.4byte	.LLST21
 2215 0b21 1A       		.uleb128 0x1a
 2216 0b22 6600     		.ascii	"f\000"
 2217 0b24 01       		.byte	0x1
 2218 0b25 80       		.byte	0x80
 2219 0b26 700C0000 		.4byte	0xc70
 2220 0b2a 15060000 		.4byte	.LLST22
 2221 0b2e 21       		.uleb128 0x21
 2222 0b2f 36010000 		.4byte	.LASF127
ARM GAS  /tmp/ccFtBk3F.s 			page 40


 2223 0b33 01       		.byte	0x1
 2224 0b34 81       		.byte	0x81
 2225 0b35 770C0000 		.4byte	0xc77
 2226 0b39 03       		.uleb128 0x3
 2227 0b3a 91       		.byte	0x91
 2228 0b3b B87F     		.sleb128 -72
 2229 0b3d 22       		.uleb128 0x22
 2230 0b3e 40040000 		.4byte	.LASF141
 2231 0b42 01       		.byte	0x1
 2232 0b43 EF       		.byte	0xef
 2233 0b44 BE010000 		.4byte	.L30
 2234 0b48 23       		.uleb128 0x23
 2235 0b49 DA090000 		.4byte	0x9da
 2236 0b4d CA000000 		.4byte	.LBB8
 2237 0b51 04000000 		.4byte	.LBE8-.LBB8
 2238 0b55 01       		.byte	0x1
 2239 0b56 D8       		.byte	0xd8
 2240 0b57 770B0000 		.4byte	0xb77
 2241 0b5b 24       		.uleb128 0x24
 2242 0b5c FE090000 		.4byte	0x9fe
 2243 0b60 29060000 		.4byte	.LLST23
 2244 0b64 24       		.uleb128 0x24
 2245 0b65 F3090000 		.4byte	0x9f3
 2246 0b69 3D060000 		.4byte	.LLST24
 2247 0b6d 24       		.uleb128 0x24
 2248 0b6e EA090000 		.4byte	0x9ea
 2249 0b72 50060000 		.4byte	.LLST25
 2250 0b76 00       		.byte	0
 2251 0b77 23       		.uleb128 0x23
 2252 0b78 DA090000 		.4byte	0x9da
 2253 0b7c DC000000 		.4byte	.LBB10
 2254 0b80 08000000 		.4byte	.LBE10-.LBB10
 2255 0b84 01       		.byte	0x1
 2256 0b85 F4       		.byte	0xf4
 2257 0b86 AF0B0000 		.4byte	0xbaf
 2258 0b8a 24       		.uleb128 0x24
 2259 0b8b FE090000 		.4byte	0x9fe
 2260 0b8f 63060000 		.4byte	.LLST26
 2261 0b93 24       		.uleb128 0x24
 2262 0b94 F3090000 		.4byte	0x9f3
 2263 0b98 7B060000 		.4byte	.LLST27
 2264 0b9c 24       		.uleb128 0x24
 2265 0b9d EA090000 		.4byte	0x9ea
 2266 0ba1 8E060000 		.4byte	.LLST28
 2267 0ba5 25       		.uleb128 0x25
 2268 0ba6 E4000000 		.4byte	.LVL50
 2269 0baa 4B090000 		.4byte	0x94b
 2270 0bae 00       		.byte	0
 2271 0baf 26       		.uleb128 0x26
 2272 0bb0 0A0A0000 		.4byte	0xa0a
 2273 0bb4 12020000 		.4byte	.LBB12
 2274 0bb8 00000000 		.4byte	.Ldebug_ranges0+0
 2275 0bbc 01       		.byte	0x1
 2276 0bbd E1       		.byte	0xe1
 2277 0bbe 110C0000 		.4byte	0xc11
 2278 0bc2 24       		.uleb128 0x24
 2279 0bc3 2E0A0000 		.4byte	0xa2e
ARM GAS  /tmp/ccFtBk3F.s 			page 41


 2280 0bc7 A4060000 		.4byte	.LLST29
 2281 0bcb 24       		.uleb128 0x24
 2282 0bcc 230A0000 		.4byte	0xa23
 2283 0bd0 CD060000 		.4byte	.LLST30
 2284 0bd4 24       		.uleb128 0x24
 2285 0bd5 1A0A0000 		.4byte	0xa1a
 2286 0bd9 E5060000 		.4byte	.LLST31
 2287 0bdd 27       		.uleb128 0x27
 2288 0bde 00000000 		.4byte	.Ldebug_ranges0+0
 2289 0be2 28       		.uleb128 0x28
 2290 0be3 390A0000 		.4byte	0xa39
 2291 0be7 28070000 		.4byte	.LLST32
 2292 0beb 29       		.uleb128 0x29
 2293 0bec 4A020000 		.4byte	.LVL92
 2294 0bf0 4B090000 		.4byte	0x94b
 2295 0bf4 2A       		.uleb128 0x2a
 2296 0bf5 01       		.uleb128 0x1
 2297 0bf6 53       		.byte	0x53
 2298 0bf7 01       		.uleb128 0x1
 2299 0bf8 30       		.byte	0x30
 2300 0bf9 2A       		.uleb128 0x2a
 2301 0bfa 01       		.uleb128 0x1
 2302 0bfb 52       		.byte	0x52
 2303 0bfc 01       		.uleb128 0x1
 2304 0bfd 3A       		.byte	0x3a
 2305 0bfe 2A       		.uleb128 0x2a
 2306 0bff 01       		.uleb128 0x1
 2307 0c00 51       		.byte	0x51
 2308 0c01 04       		.uleb128 0x4
 2309 0c02 91       		.byte	0x91
 2310 0c03 B07F     		.sleb128 -80
 2311 0c05 06       		.byte	0x6
 2312 0c06 2A       		.uleb128 0x2a
 2313 0c07 01       		.uleb128 0x1
 2314 0c08 50       		.byte	0x50
 2315 0c09 04       		.uleb128 0x4
 2316 0c0a 91       		.byte	0x91
 2317 0c0b B47F     		.sleb128 -76
 2318 0c0d 06       		.byte	0x6
 2319 0c0e 00       		.byte	0
 2320 0c0f 00       		.byte	0
 2321 0c10 00       		.byte	0
 2322 0c11 2B       		.uleb128 0x2b
 2323 0c12 28000000 		.4byte	.LVL17
 2324 0c16 210C0000 		.4byte	0xc21
 2325 0c1a 2A       		.uleb128 0x2a
 2326 0c1b 01       		.uleb128 0x1
 2327 0c1c 50       		.byte	0x50
 2328 0c1d 02       		.uleb128 0x2
 2329 0c1e 76       		.byte	0x76
 2330 0c1f 00       		.sleb128 0
 2331 0c20 00       		.byte	0
 2332 0c21 2B       		.uleb128 0x2b
 2333 0c22 40010000 		.4byte	.LVL62
 2334 0c26 310C0000 		.4byte	0xc31
 2335 0c2a 2A       		.uleb128 0x2a
 2336 0c2b 01       		.uleb128 0x1
ARM GAS  /tmp/ccFtBk3F.s 			page 42


 2337 0c2c 50       		.byte	0x50
 2338 0c2d 02       		.uleb128 0x2
 2339 0c2e 76       		.byte	0x76
 2340 0c2f 00       		.sleb128 0
 2341 0c30 00       		.byte	0
 2342 0c31 2B       		.uleb128 0x2b
 2343 0c32 58010000 		.4byte	.LVL68
 2344 0c36 470C0000 		.4byte	0xc47
 2345 0c3a 2A       		.uleb128 0x2a
 2346 0c3b 01       		.uleb128 0x1
 2347 0c3c 51       		.byte	0x51
 2348 0c3d 02       		.uleb128 0x2
 2349 0c3e 75       		.byte	0x75
 2350 0c3f 00       		.sleb128 0
 2351 0c40 2A       		.uleb128 0x2a
 2352 0c41 01       		.uleb128 0x1
 2353 0c42 50       		.byte	0x50
 2354 0c43 02       		.uleb128 0x2
 2355 0c44 76       		.byte	0x76
 2356 0c45 00       		.sleb128 0
 2357 0c46 00       		.byte	0
 2358 0c47 2B       		.uleb128 0x2b
 2359 0c48 78010000 		.4byte	.LVL75
 2360 0c4c 570C0000 		.4byte	0xc57
 2361 0c50 2A       		.uleb128 0x2a
 2362 0c51 01       		.uleb128 0x1
 2363 0c52 50       		.byte	0x50
 2364 0c53 02       		.uleb128 0x2
 2365 0c54 76       		.byte	0x76
 2366 0c55 00       		.sleb128 0
 2367 0c56 00       		.byte	0
 2368 0c57 2C       		.uleb128 0x2c
 2369 0c58 9C010000 		.4byte	.LVL78
 2370 0c5c 2A       		.uleb128 0x2a
 2371 0c5d 01       		.uleb128 0x1
 2372 0c5e 51       		.byte	0x51
 2373 0c5f 02       		.uleb128 0x2
 2374 0c60 75       		.byte	0x75
 2375 0c61 00       		.sleb128 0
 2376 0c62 2A       		.uleb128 0x2a
 2377 0c63 01       		.uleb128 0x1
 2378 0c64 50       		.byte	0x50
 2379 0c65 02       		.uleb128 0x2
 2380 0c66 76       		.byte	0x76
 2381 0c67 00       		.sleb128 0
 2382 0c68 00       		.byte	0
 2383 0c69 00       		.byte	0
 2384 0c6a 0A       		.uleb128 0xa
 2385 0c6b 04       		.byte	0x4
 2386 0c6c 7B080000 		.4byte	0x87b
 2387 0c70 02       		.uleb128 0x2
 2388 0c71 04       		.byte	0x4
 2389 0c72 04       		.byte	0x4
 2390 0c73 B5040000 		.4byte	.LASF128
 2391 0c77 2D       		.uleb128 0x2d
 2392 0c78 70070000 		.4byte	0x770
 2393 0c7c 870C0000 		.4byte	0xc87
ARM GAS  /tmp/ccFtBk3F.s 			page 43


 2394 0c80 2E       		.uleb128 0x2e
 2395 0c81 61040000 		.4byte	0x461
 2396 0c85 16       		.byte	0x16
 2397 0c86 00       		.byte	0
 2398 0c87 2F       		.uleb128 0x2f
 2399 0c88 CB060000 		.4byte	.LASF130
 2400 0c8c 01       		.byte	0x1
 2401 0c8d 2E01     		.2byte	0x12e
 2402 0c8f 2C000000 		.4byte	0x2c
 2403 0c93 00000000 		.4byte	.LFB281
 2404 0c97 1A000000 		.4byte	.LFE281-.LFB281
 2405 0c9b 01       		.uleb128 0x1
 2406 0c9c 9C       		.byte	0x9c
 2407 0c9d FC0C0000 		.4byte	0xcfc
 2408 0ca1 30       		.uleb128 0x30
 2409 0ca2 63687000 		.ascii	"chp\000"
 2410 0ca6 01       		.byte	0x1
 2411 0ca7 2E01     		.2byte	0x12e
 2412 0ca9 6A0C0000 		.4byte	0xc6a
 2413 0cad 5A070000 		.4byte	.LLST33
 2414 0cb1 31       		.uleb128 0x31
 2415 0cb2 666D7400 		.ascii	"fmt\000"
 2416 0cb6 01       		.byte	0x1
 2417 0cb7 2E01     		.2byte	0x12e
 2418 0cb9 65070000 		.4byte	0x765
 2419 0cbd 02       		.uleb128 0x2
 2420 0cbe 91       		.byte	0x91
 2421 0cbf 74       		.sleb128 -12
 2422 0cc0 32       		.uleb128 0x32
 2423 0cc1 33       		.uleb128 0x33
 2424 0cc2 617000   		.ascii	"ap\000"
 2425 0cc5 01       		.byte	0x1
 2426 0cc6 2F01     		.2byte	0x12f
 2427 0cc8 A8080000 		.4byte	0x8a8
 2428 0ccc 02       		.uleb128 0x2
 2429 0ccd 91       		.byte	0x91
 2430 0cce 6C       		.sleb128 -20
 2431 0ccf 34       		.uleb128 0x34
 2432 0cd0 A3000000 		.4byte	.LASF131
 2433 0cd4 01       		.byte	0x1
 2434 0cd5 3001     		.2byte	0x130
 2435 0cd7 2C000000 		.4byte	0x2c
 2436 0cdb 01       		.uleb128 0x1
 2437 0cdc 50       		.byte	0x50
 2438 0cdd 29       		.uleb128 0x29
 2439 0cde 10000000 		.4byte	.LVL110
 2440 0ce2 430A0000 		.4byte	0xa43
 2441 0ce6 2A       		.uleb128 0x2a
 2442 0ce7 01       		.uleb128 0x1
 2443 0ce8 52       		.byte	0x52
 2444 0ce9 02       		.uleb128 0x2
 2445 0cea 91       		.byte	0x91
 2446 0ceb 60       		.sleb128 -32
 2447 0cec 2A       		.uleb128 0x2a
 2448 0ced 01       		.uleb128 0x1
 2449 0cee 51       		.byte	0x51
 2450 0cef 03       		.uleb128 0x3
ARM GAS  /tmp/ccFtBk3F.s 			page 44


 2451 0cf0 91       		.byte	0x91
 2452 0cf1 5C       		.sleb128 -36
 2453 0cf2 06       		.byte	0x6
 2454 0cf3 2A       		.uleb128 0x2a
 2455 0cf4 01       		.uleb128 0x1
 2456 0cf5 50       		.byte	0x50
 2457 0cf6 03       		.uleb128 0x3
 2458 0cf7 F3       		.byte	0xf3
 2459 0cf8 01       		.uleb128 0x1
 2460 0cf9 50       		.byte	0x50
 2461 0cfa 00       		.byte	0
 2462 0cfb 00       		.byte	0
 2463 0cfc 2F       		.uleb128 0x2f
 2464 0cfd 9D050000 		.4byte	.LASF132
 2465 0d01 01       		.byte	0x1
 2466 0d02 5401     		.2byte	0x154
 2467 0d04 2C000000 		.4byte	0x2c
 2468 0d08 00000000 		.4byte	.LFB282
 2469 0d0c 3C000000 		.4byte	.LFE282-.LFB282
 2470 0d10 01       		.uleb128 0x1
 2471 0d11 9C       		.byte	0x9c
 2472 0d12 CD0D0000 		.4byte	0xdcd
 2473 0d16 30       		.uleb128 0x30
 2474 0d17 73747200 		.ascii	"str\000"
 2475 0d1b 01       		.byte	0x1
 2476 0d1c 5401     		.2byte	0x154
 2477 0d1e D4090000 		.4byte	0x9d4
 2478 0d22 7B070000 		.4byte	.LLST34
 2479 0d26 35       		.uleb128 0x35
 2480 0d27 31010000 		.4byte	.LASF116
 2481 0d2b 01       		.byte	0x1
 2482 0d2c 5401     		.2byte	0x154
 2483 0d2e 33000000 		.4byte	0x33
 2484 0d32 A7070000 		.4byte	.LLST35
 2485 0d36 31       		.uleb128 0x31
 2486 0d37 666D7400 		.ascii	"fmt\000"
 2487 0d3b 01       		.byte	0x1
 2488 0d3c 5401     		.2byte	0x154
 2489 0d3e 65070000 		.4byte	0x765
 2490 0d42 02       		.uleb128 0x2
 2491 0d43 91       		.byte	0x91
 2492 0d44 78       		.sleb128 -8
 2493 0d45 32       		.uleb128 0x32
 2494 0d46 33       		.uleb128 0x33
 2495 0d47 617000   		.ascii	"ap\000"
 2496 0d4a 01       		.byte	0x1
 2497 0d4b 5501     		.2byte	0x155
 2498 0d4d A8080000 		.4byte	0x8a8
 2499 0d51 02       		.uleb128 0x2
 2500 0d52 91       		.byte	0x91
 2501 0d53 50       		.sleb128 -48
 2502 0d54 33       		.uleb128 0x33
 2503 0d55 6D7300   		.ascii	"ms\000"
 2504 0d58 01       		.byte	0x1
 2505 0d59 5601     		.2byte	0x156
 2506 0d5b 40090000 		.4byte	0x940
 2507 0d5f 02       		.uleb128 0x2
ARM GAS  /tmp/ccFtBk3F.s 			page 45


 2508 0d60 91       		.byte	0x91
 2509 0d61 54       		.sleb128 -44
 2510 0d62 36       		.uleb128 0x36
 2511 0d63 63687000 		.ascii	"chp\000"
 2512 0d67 01       		.byte	0x1
 2513 0d68 5701     		.2byte	0x157
 2514 0d6a 6A0C0000 		.4byte	0xc6a
 2515 0d6e D3070000 		.4byte	.LLST36
 2516 0d72 37       		.uleb128 0x37
 2517 0d73 80000000 		.4byte	.LASF133
 2518 0d77 01       		.byte	0x1
 2519 0d78 5801     		.2byte	0x158
 2520 0d7a 33000000 		.4byte	0x33
 2521 0d7e 00080000 		.4byte	.LLST37
 2522 0d82 34       		.uleb128 0x34
 2523 0d83 6E010000 		.4byte	.LASF134
 2524 0d87 01       		.byte	0x1
 2525 0d88 5901     		.2byte	0x159
 2526 0d8a 2C000000 		.4byte	0x2c
 2527 0d8e 01       		.uleb128 0x1
 2528 0d8f 50       		.byte	0x50
 2529 0d90 38       		.uleb128 0x38
 2530 0d91 1C000000 		.4byte	.LVL117
 2531 0d95 0F0E0000 		.4byte	0xe0f
 2532 0d99 AF0D0000 		.4byte	0xdaf
 2533 0d9d 2A       		.uleb128 0x2a
 2534 0d9e 01       		.uleb128 0x1
 2535 0d9f 53       		.byte	0x53
 2536 0da0 01       		.uleb128 0x1
 2537 0da1 30       		.byte	0x30
 2538 0da2 2A       		.uleb128 0x2a
 2539 0da3 01       		.uleb128 0x1
 2540 0da4 51       		.byte	0x51
 2541 0da5 02       		.uleb128 0x2
 2542 0da6 75       		.byte	0x75
 2543 0da7 00       		.sleb128 0
 2544 0da8 2A       		.uleb128 0x2a
 2545 0da9 01       		.uleb128 0x1
 2546 0daa 50       		.byte	0x50
 2547 0dab 02       		.uleb128 0x2
 2548 0dac 91       		.byte	0x91
 2549 0dad 44       		.sleb128 -60
 2550 0dae 00       		.byte	0
 2551 0daf 29       		.uleb128 0x29
 2552 0db0 28000000 		.4byte	.LVL119
 2553 0db4 430A0000 		.4byte	0xa43
 2554 0db8 2A       		.uleb128 0x2a
 2555 0db9 01       		.uleb128 0x1
 2556 0dba 52       		.byte	0x52
 2557 0dbb 02       		.uleb128 0x2
 2558 0dbc 91       		.byte	0x91
 2559 0dbd 6C       		.sleb128 -20
 2560 0dbe 2A       		.uleb128 0x2a
 2561 0dbf 01       		.uleb128 0x1
 2562 0dc0 51       		.byte	0x51
 2563 0dc1 03       		.uleb128 0x3
 2564 0dc2 91       		.byte	0x91
ARM GAS  /tmp/ccFtBk3F.s 			page 46


 2565 0dc3 68       		.sleb128 -24
 2566 0dc4 06       		.byte	0x6
 2567 0dc5 2A       		.uleb128 0x2a
 2568 0dc6 01       		.uleb128 0x1
 2569 0dc7 50       		.byte	0x50
 2570 0dc8 02       		.uleb128 0x2
 2571 0dc9 91       		.byte	0x91
 2572 0dca 44       		.sleb128 -60
 2573 0dcb 00       		.byte	0
 2574 0dcc 00       		.byte	0
 2575 0dcd 2D       		.uleb128 0x2d
 2576 0dce 77000000 		.4byte	0x77
 2577 0dd2 DD0D0000 		.4byte	0xddd
 2578 0dd6 2E       		.uleb128 0x2e
 2579 0dd7 61040000 		.4byte	0x461
 2580 0ddb 08       		.byte	0x8
 2581 0ddc 00       		.byte	0
 2582 0ddd 21       		.uleb128 0x21
 2583 0dde 0A050000 		.4byte	.LASF135
 2584 0de2 01       		.byte	0x1
 2585 0de3 4C       		.byte	0x4c
 2586 0de4 EE0D0000 		.4byte	0xdee
 2587 0de8 05       		.uleb128 0x5
 2588 0de9 03       		.byte	0x3
 2589 0dea 00000000 		.4byte	pow10
 2590 0dee 13       		.uleb128 0x13
 2591 0def CD0D0000 		.4byte	0xdcd
 2592 0df3 39       		.uleb128 0x39
 2593 0df4 E5000000 		.4byte	.LASF136
 2594 0df8 12       		.byte	0x12
 2595 0df9 4407     		.2byte	0x744
 2596 0dfb FF0D0000 		.4byte	0xdff
 2597 0dff 14       		.uleb128 0x14
 2598 0e00 B4000000 		.4byte	0xb4
 2599 0e04 3A       		.uleb128 0x3a
 2600 0e05 636800   		.ascii	"ch\000"
 2601 0e08 07       		.byte	0x7
 2602 0e09 D201     		.2byte	0x1d2
 2603 0e0b FB030000 		.4byte	0x3fb
 2604 0e0f 3B       		.uleb128 0x3b
 2605 0e10 F1030000 		.4byte	.LASF142
 2606 0e14 11       		.byte	0x11
 2607 0e15 57       		.byte	0x57
 2608 0e16 2F0E0000 		.4byte	0xe2f
 2609 0e1a 0D       		.uleb128 0xd
 2610 0e1b 2F0E0000 		.4byte	0xe2f
 2611 0e1f 0D       		.uleb128 0xd
 2612 0e20 20080000 		.4byte	0x820
 2613 0e24 0D       		.uleb128 0xd
 2614 0e25 33000000 		.4byte	0x33
 2615 0e29 0D       		.uleb128 0xd
 2616 0e2a 33000000 		.4byte	0x33
 2617 0e2e 00       		.byte	0
 2618 0e2f 0A       		.uleb128 0xa
 2619 0e30 04       		.byte	0x4
 2620 0e31 40090000 		.4byte	0x940
 2621 0e35 00       		.byte	0
ARM GAS  /tmp/ccFtBk3F.s 			page 47


 2622              		.section	.debug_abbrev,"",%progbits
 2623              	.Ldebug_abbrev0:
 2624 0000 01       		.uleb128 0x1
 2625 0001 11       		.uleb128 0x11
 2626 0002 01       		.byte	0x1
 2627 0003 25       		.uleb128 0x25
 2628 0004 0E       		.uleb128 0xe
 2629 0005 13       		.uleb128 0x13
 2630 0006 0B       		.uleb128 0xb
 2631 0007 03       		.uleb128 0x3
 2632 0008 0E       		.uleb128 0xe
 2633 0009 1B       		.uleb128 0x1b
 2634 000a 0E       		.uleb128 0xe
 2635 000b 55       		.uleb128 0x55
 2636 000c 17       		.uleb128 0x17
 2637 000d 11       		.uleb128 0x11
 2638 000e 01       		.uleb128 0x1
 2639 000f 10       		.uleb128 0x10
 2640 0010 17       		.uleb128 0x17
 2641 0011 00       		.byte	0
 2642 0012 00       		.byte	0
 2643 0013 02       		.uleb128 0x2
 2644 0014 24       		.uleb128 0x24
 2645 0015 00       		.byte	0
 2646 0016 0B       		.uleb128 0xb
 2647 0017 0B       		.uleb128 0xb
 2648 0018 3E       		.uleb128 0x3e
 2649 0019 0B       		.uleb128 0xb
 2650 001a 03       		.uleb128 0x3
 2651 001b 0E       		.uleb128 0xe
 2652 001c 00       		.byte	0
 2653 001d 00       		.byte	0
 2654 001e 03       		.uleb128 0x3
 2655 001f 24       		.uleb128 0x24
 2656 0020 00       		.byte	0
 2657 0021 0B       		.uleb128 0xb
 2658 0022 0B       		.uleb128 0xb
 2659 0023 3E       		.uleb128 0x3e
 2660 0024 0B       		.uleb128 0xb
 2661 0025 03       		.uleb128 0x3
 2662 0026 08       		.uleb128 0x8
 2663 0027 00       		.byte	0
 2664 0028 00       		.byte	0
 2665 0029 04       		.uleb128 0x4
 2666 002a 16       		.uleb128 0x16
 2667 002b 00       		.byte	0
 2668 002c 03       		.uleb128 0x3
 2669 002d 0E       		.uleb128 0xe
 2670 002e 3A       		.uleb128 0x3a
 2671 002f 0B       		.uleb128 0xb
 2672 0030 3B       		.uleb128 0x3b
 2673 0031 0B       		.uleb128 0xb
 2674 0032 49       		.uleb128 0x49
 2675 0033 13       		.uleb128 0x13
 2676 0034 00       		.byte	0
 2677 0035 00       		.byte	0
 2678 0036 05       		.uleb128 0x5
ARM GAS  /tmp/ccFtBk3F.s 			page 48


 2679 0037 13       		.uleb128 0x13
 2680 0038 01       		.byte	0x1
 2681 0039 03       		.uleb128 0x3
 2682 003a 0E       		.uleb128 0xe
 2683 003b 0B       		.uleb128 0xb
 2684 003c 0B       		.uleb128 0xb
 2685 003d 3A       		.uleb128 0x3a
 2686 003e 0B       		.uleb128 0xb
 2687 003f 3B       		.uleb128 0x3b
 2688 0040 0B       		.uleb128 0xb
 2689 0041 01       		.uleb128 0x1
 2690 0042 13       		.uleb128 0x13
 2691 0043 00       		.byte	0
 2692 0044 00       		.byte	0
 2693 0045 06       		.uleb128 0x6
 2694 0046 0D       		.uleb128 0xd
 2695 0047 00       		.byte	0
 2696 0048 03       		.uleb128 0x3
 2697 0049 0E       		.uleb128 0xe
 2698 004a 3A       		.uleb128 0x3a
 2699 004b 0B       		.uleb128 0xb
 2700 004c 3B       		.uleb128 0x3b
 2701 004d 0B       		.uleb128 0xb
 2702 004e 49       		.uleb128 0x49
 2703 004f 13       		.uleb128 0x13
 2704 0050 38       		.uleb128 0x38
 2705 0051 0B       		.uleb128 0xb
 2706 0052 00       		.byte	0
 2707 0053 00       		.byte	0
 2708 0054 07       		.uleb128 0x7
 2709 0055 0D       		.uleb128 0xd
 2710 0056 00       		.byte	0
 2711 0057 03       		.uleb128 0x3
 2712 0058 08       		.uleb128 0x8
 2713 0059 3A       		.uleb128 0x3a
 2714 005a 0B       		.uleb128 0xb
 2715 005b 3B       		.uleb128 0x3b
 2716 005c 0B       		.uleb128 0xb
 2717 005d 49       		.uleb128 0x49
 2718 005e 13       		.uleb128 0x13
 2719 005f 38       		.uleb128 0x38
 2720 0060 0B       		.uleb128 0xb
 2721 0061 00       		.byte	0
 2722 0062 00       		.byte	0
 2723 0063 08       		.uleb128 0x8
 2724 0064 0D       		.uleb128 0xd
 2725 0065 00       		.byte	0
 2726 0066 03       		.uleb128 0x3
 2727 0067 08       		.uleb128 0x8
 2728 0068 3A       		.uleb128 0x3a
 2729 0069 0B       		.uleb128 0xb
 2730 006a 3B       		.uleb128 0x3b
 2731 006b 05       		.uleb128 0x5
 2732 006c 49       		.uleb128 0x49
 2733 006d 13       		.uleb128 0x13
 2734 006e 38       		.uleb128 0x38
 2735 006f 0B       		.uleb128 0xb
ARM GAS  /tmp/ccFtBk3F.s 			page 49


 2736 0070 00       		.byte	0
 2737 0071 00       		.byte	0
 2738 0072 09       		.uleb128 0x9
 2739 0073 0D       		.uleb128 0xd
 2740 0074 00       		.byte	0
 2741 0075 03       		.uleb128 0x3
 2742 0076 0E       		.uleb128 0xe
 2743 0077 3A       		.uleb128 0x3a
 2744 0078 0B       		.uleb128 0xb
 2745 0079 3B       		.uleb128 0x3b
 2746 007a 05       		.uleb128 0x5
 2747 007b 49       		.uleb128 0x49
 2748 007c 13       		.uleb128 0x13
 2749 007d 38       		.uleb128 0x38
 2750 007e 0B       		.uleb128 0xb
 2751 007f 00       		.byte	0
 2752 0080 00       		.byte	0
 2753 0081 0A       		.uleb128 0xa
 2754 0082 0F       		.uleb128 0xf
 2755 0083 00       		.byte	0
 2756 0084 0B       		.uleb128 0xb
 2757 0085 0B       		.uleb128 0xb
 2758 0086 49       		.uleb128 0x49
 2759 0087 13       		.uleb128 0x13
 2760 0088 00       		.byte	0
 2761 0089 00       		.byte	0
 2762 008a 0B       		.uleb128 0xb
 2763 008b 13       		.uleb128 0x13
 2764 008c 01       		.byte	0x1
 2765 008d 03       		.uleb128 0x3
 2766 008e 0E       		.uleb128 0xe
 2767 008f 0B       		.uleb128 0xb
 2768 0090 0B       		.uleb128 0xb
 2769 0091 3A       		.uleb128 0x3a
 2770 0092 0B       		.uleb128 0xb
 2771 0093 3B       		.uleb128 0x3b
 2772 0094 05       		.uleb128 0x5
 2773 0095 01       		.uleb128 0x1
 2774 0096 13       		.uleb128 0x13
 2775 0097 00       		.byte	0
 2776 0098 00       		.byte	0
 2777 0099 0C       		.uleb128 0xc
 2778 009a 15       		.uleb128 0x15
 2779 009b 01       		.byte	0x1
 2780 009c 27       		.uleb128 0x27
 2781 009d 19       		.uleb128 0x19
 2782 009e 01       		.uleb128 0x1
 2783 009f 13       		.uleb128 0x13
 2784 00a0 00       		.byte	0
 2785 00a1 00       		.byte	0
 2786 00a2 0D       		.uleb128 0xd
 2787 00a3 05       		.uleb128 0x5
 2788 00a4 00       		.byte	0
 2789 00a5 49       		.uleb128 0x49
 2790 00a6 13       		.uleb128 0x13
 2791 00a7 00       		.byte	0
 2792 00a8 00       		.byte	0
ARM GAS  /tmp/ccFtBk3F.s 			page 50


 2793 00a9 0E       		.uleb128 0xe
 2794 00aa 0F       		.uleb128 0xf
 2795 00ab 00       		.byte	0
 2796 00ac 0B       		.uleb128 0xb
 2797 00ad 0B       		.uleb128 0xb
 2798 00ae 00       		.byte	0
 2799 00af 00       		.byte	0
 2800 00b0 0F       		.uleb128 0xf
 2801 00b1 13       		.uleb128 0x13
 2802 00b2 01       		.byte	0x1
 2803 00b3 0B       		.uleb128 0xb
 2804 00b4 0B       		.uleb128 0xb
 2805 00b5 3A       		.uleb128 0x3a
 2806 00b6 0B       		.uleb128 0xb
 2807 00b7 3B       		.uleb128 0x3b
 2808 00b8 0B       		.uleb128 0xb
 2809 00b9 01       		.uleb128 0x1
 2810 00ba 13       		.uleb128 0x13
 2811 00bb 00       		.byte	0
 2812 00bc 00       		.byte	0
 2813 00bd 10       		.uleb128 0x10
 2814 00be 17       		.uleb128 0x17
 2815 00bf 01       		.byte	0x1
 2816 00c0 0B       		.uleb128 0xb
 2817 00c1 0B       		.uleb128 0xb
 2818 00c2 3A       		.uleb128 0x3a
 2819 00c3 0B       		.uleb128 0xb
 2820 00c4 3B       		.uleb128 0x3b
 2821 00c5 0B       		.uleb128 0xb
 2822 00c6 01       		.uleb128 0x1
 2823 00c7 13       		.uleb128 0x13
 2824 00c8 00       		.byte	0
 2825 00c9 00       		.byte	0
 2826 00ca 11       		.uleb128 0x11
 2827 00cb 0D       		.uleb128 0xd
 2828 00cc 00       		.byte	0
 2829 00cd 03       		.uleb128 0x3
 2830 00ce 0E       		.uleb128 0xe
 2831 00cf 3A       		.uleb128 0x3a
 2832 00d0 0B       		.uleb128 0xb
 2833 00d1 3B       		.uleb128 0x3b
 2834 00d2 0B       		.uleb128 0xb
 2835 00d3 49       		.uleb128 0x49
 2836 00d4 13       		.uleb128 0x13
 2837 00d5 00       		.byte	0
 2838 00d6 00       		.byte	0
 2839 00d7 12       		.uleb128 0x12
 2840 00d8 0D       		.uleb128 0xd
 2841 00d9 00       		.byte	0
 2842 00da 03       		.uleb128 0x3
 2843 00db 0E       		.uleb128 0xe
 2844 00dc 3A       		.uleb128 0x3a
 2845 00dd 0B       		.uleb128 0xb
 2846 00de 3B       		.uleb128 0x3b
 2847 00df 05       		.uleb128 0x5
 2848 00e0 49       		.uleb128 0x49
 2849 00e1 13       		.uleb128 0x13
ARM GAS  /tmp/ccFtBk3F.s 			page 51


 2850 00e2 00       		.byte	0
 2851 00e3 00       		.byte	0
 2852 00e4 13       		.uleb128 0x13
 2853 00e5 26       		.uleb128 0x26
 2854 00e6 00       		.byte	0
 2855 00e7 49       		.uleb128 0x49
 2856 00e8 13       		.uleb128 0x13
 2857 00e9 00       		.byte	0
 2858 00ea 00       		.byte	0
 2859 00eb 14       		.uleb128 0x14
 2860 00ec 35       		.uleb128 0x35
 2861 00ed 00       		.byte	0
 2862 00ee 49       		.uleb128 0x49
 2863 00ef 13       		.uleb128 0x13
 2864 00f0 00       		.byte	0
 2865 00f1 00       		.byte	0
 2866 00f2 15       		.uleb128 0x15
 2867 00f3 15       		.uleb128 0x15
 2868 00f4 01       		.byte	0x1
 2869 00f5 27       		.uleb128 0x27
 2870 00f6 19       		.uleb128 0x19
 2871 00f7 49       		.uleb128 0x49
 2872 00f8 13       		.uleb128 0x13
 2873 00f9 01       		.uleb128 0x1
 2874 00fa 13       		.uleb128 0x13
 2875 00fb 00       		.byte	0
 2876 00fc 00       		.byte	0
 2877 00fd 16       		.uleb128 0x16
 2878 00fe 0D       		.uleb128 0xd
 2879 00ff 00       		.byte	0
 2880 0100 03       		.uleb128 0x3
 2881 0101 0E       		.uleb128 0xe
 2882 0102 49       		.uleb128 0x49
 2883 0103 13       		.uleb128 0x13
 2884 0104 38       		.uleb128 0x38
 2885 0105 0B       		.uleb128 0xb
 2886 0106 34       		.uleb128 0x34
 2887 0107 19       		.uleb128 0x19
 2888 0108 00       		.byte	0
 2889 0109 00       		.byte	0
 2890 010a 17       		.uleb128 0x17
 2891 010b 2E       		.uleb128 0x2e
 2892 010c 01       		.byte	0x1
 2893 010d 03       		.uleb128 0x3
 2894 010e 0E       		.uleb128 0xe
 2895 010f 3A       		.uleb128 0x3a
 2896 0110 0B       		.uleb128 0xb
 2897 0111 3B       		.uleb128 0x3b
 2898 0112 0B       		.uleb128 0xb
 2899 0113 27       		.uleb128 0x27
 2900 0114 19       		.uleb128 0x19
 2901 0115 49       		.uleb128 0x49
 2902 0116 13       		.uleb128 0x13
 2903 0117 11       		.uleb128 0x11
 2904 0118 01       		.uleb128 0x1
 2905 0119 12       		.uleb128 0x12
 2906 011a 06       		.uleb128 0x6
ARM GAS  /tmp/ccFtBk3F.s 			page 52


 2907 011b 40       		.uleb128 0x40
 2908 011c 18       		.uleb128 0x18
 2909 011d 9742     		.uleb128 0x2117
 2910 011f 19       		.uleb128 0x19
 2911 0120 01       		.uleb128 0x1
 2912 0121 13       		.uleb128 0x13
 2913 0122 00       		.byte	0
 2914 0123 00       		.byte	0
 2915 0124 18       		.uleb128 0x18
 2916 0125 05       		.uleb128 0x5
 2917 0126 00       		.byte	0
 2918 0127 03       		.uleb128 0x3
 2919 0128 08       		.uleb128 0x8
 2920 0129 3A       		.uleb128 0x3a
 2921 012a 0B       		.uleb128 0xb
 2922 012b 3B       		.uleb128 0x3b
 2923 012c 0B       		.uleb128 0xb
 2924 012d 49       		.uleb128 0x49
 2925 012e 13       		.uleb128 0x13
 2926 012f 02       		.uleb128 0x2
 2927 0130 17       		.uleb128 0x17
 2928 0131 00       		.byte	0
 2929 0132 00       		.byte	0
 2930 0133 19       		.uleb128 0x19
 2931 0134 05       		.uleb128 0x5
 2932 0135 00       		.byte	0
 2933 0136 03       		.uleb128 0x3
 2934 0137 0E       		.uleb128 0xe
 2935 0138 3A       		.uleb128 0x3a
 2936 0139 0B       		.uleb128 0xb
 2937 013a 3B       		.uleb128 0x3b
 2938 013b 0B       		.uleb128 0xb
 2939 013c 49       		.uleb128 0x49
 2940 013d 13       		.uleb128 0x13
 2941 013e 02       		.uleb128 0x2
 2942 013f 17       		.uleb128 0x17
 2943 0140 00       		.byte	0
 2944 0141 00       		.byte	0
 2945 0142 1A       		.uleb128 0x1a
 2946 0143 34       		.uleb128 0x34
 2947 0144 00       		.byte	0
 2948 0145 03       		.uleb128 0x3
 2949 0146 08       		.uleb128 0x8
 2950 0147 3A       		.uleb128 0x3a
 2951 0148 0B       		.uleb128 0xb
 2952 0149 3B       		.uleb128 0x3b
 2953 014a 0B       		.uleb128 0xb
 2954 014b 49       		.uleb128 0x49
 2955 014c 13       		.uleb128 0x13
 2956 014d 02       		.uleb128 0x2
 2957 014e 17       		.uleb128 0x17
 2958 014f 00       		.byte	0
 2959 0150 00       		.byte	0
 2960 0151 1B       		.uleb128 0x1b
 2961 0152 2E       		.uleb128 0x2e
 2962 0153 01       		.byte	0x1
 2963 0154 03       		.uleb128 0x3
ARM GAS  /tmp/ccFtBk3F.s 			page 53


 2964 0155 0E       		.uleb128 0xe
 2965 0156 3A       		.uleb128 0x3a
 2966 0157 0B       		.uleb128 0xb
 2967 0158 3B       		.uleb128 0x3b
 2968 0159 0B       		.uleb128 0xb
 2969 015a 27       		.uleb128 0x27
 2970 015b 19       		.uleb128 0x19
 2971 015c 49       		.uleb128 0x49
 2972 015d 13       		.uleb128 0x13
 2973 015e 20       		.uleb128 0x20
 2974 015f 0B       		.uleb128 0xb
 2975 0160 01       		.uleb128 0x1
 2976 0161 13       		.uleb128 0x13
 2977 0162 00       		.byte	0
 2978 0163 00       		.byte	0
 2979 0164 1C       		.uleb128 0x1c
 2980 0165 05       		.uleb128 0x5
 2981 0166 00       		.byte	0
 2982 0167 03       		.uleb128 0x3
 2983 0168 08       		.uleb128 0x8
 2984 0169 3A       		.uleb128 0x3a
 2985 016a 0B       		.uleb128 0xb
 2986 016b 3B       		.uleb128 0x3b
 2987 016c 0B       		.uleb128 0xb
 2988 016d 49       		.uleb128 0x49
 2989 016e 13       		.uleb128 0x13
 2990 016f 00       		.byte	0
 2991 0170 00       		.byte	0
 2992 0171 1D       		.uleb128 0x1d
 2993 0172 05       		.uleb128 0x5
 2994 0173 00       		.byte	0
 2995 0174 03       		.uleb128 0x3
 2996 0175 0E       		.uleb128 0xe
 2997 0176 3A       		.uleb128 0x3a
 2998 0177 0B       		.uleb128 0xb
 2999 0178 3B       		.uleb128 0x3b
 3000 0179 0B       		.uleb128 0xb
 3001 017a 49       		.uleb128 0x49
 3002 017b 13       		.uleb128 0x13
 3003 017c 00       		.byte	0
 3004 017d 00       		.byte	0
 3005 017e 1E       		.uleb128 0x1e
 3006 017f 34       		.uleb128 0x34
 3007 0180 00       		.byte	0
 3008 0181 03       		.uleb128 0x3
 3009 0182 08       		.uleb128 0x8
 3010 0183 3A       		.uleb128 0x3a
 3011 0184 0B       		.uleb128 0xb
 3012 0185 3B       		.uleb128 0x3b
 3013 0186 0B       		.uleb128 0xb
 3014 0187 49       		.uleb128 0x49
 3015 0188 13       		.uleb128 0x13
 3016 0189 00       		.byte	0
 3017 018a 00       		.byte	0
 3018 018b 1F       		.uleb128 0x1f
 3019 018c 2E       		.uleb128 0x2e
 3020 018d 01       		.byte	0x1
ARM GAS  /tmp/ccFtBk3F.s 			page 54


 3021 018e 3F       		.uleb128 0x3f
 3022 018f 19       		.uleb128 0x19
 3023 0190 03       		.uleb128 0x3
 3024 0191 0E       		.uleb128 0xe
 3025 0192 3A       		.uleb128 0x3a
 3026 0193 0B       		.uleb128 0xb
 3027 0194 3B       		.uleb128 0x3b
 3028 0195 0B       		.uleb128 0xb
 3029 0196 27       		.uleb128 0x27
 3030 0197 19       		.uleb128 0x19
 3031 0198 49       		.uleb128 0x49
 3032 0199 13       		.uleb128 0x13
 3033 019a 11       		.uleb128 0x11
 3034 019b 01       		.uleb128 0x1
 3035 019c 12       		.uleb128 0x12
 3036 019d 06       		.uleb128 0x6
 3037 019e 40       		.uleb128 0x40
 3038 019f 18       		.uleb128 0x18
 3039 01a0 9642     		.uleb128 0x2116
 3040 01a2 19       		.uleb128 0x19
 3041 01a3 01       		.uleb128 0x1
 3042 01a4 13       		.uleb128 0x13
 3043 01a5 00       		.byte	0
 3044 01a6 00       		.byte	0
 3045 01a7 20       		.uleb128 0x20
 3046 01a8 34       		.uleb128 0x34
 3047 01a9 00       		.byte	0
 3048 01aa 03       		.uleb128 0x3
 3049 01ab 0E       		.uleb128 0xe
 3050 01ac 3A       		.uleb128 0x3a
 3051 01ad 0B       		.uleb128 0xb
 3052 01ae 3B       		.uleb128 0x3b
 3053 01af 0B       		.uleb128 0xb
 3054 01b0 49       		.uleb128 0x49
 3055 01b1 13       		.uleb128 0x13
 3056 01b2 02       		.uleb128 0x2
 3057 01b3 17       		.uleb128 0x17
 3058 01b4 00       		.byte	0
 3059 01b5 00       		.byte	0
 3060 01b6 21       		.uleb128 0x21
 3061 01b7 34       		.uleb128 0x34
 3062 01b8 00       		.byte	0
 3063 01b9 03       		.uleb128 0x3
 3064 01ba 0E       		.uleb128 0xe
 3065 01bb 3A       		.uleb128 0x3a
 3066 01bc 0B       		.uleb128 0xb
 3067 01bd 3B       		.uleb128 0x3b
 3068 01be 0B       		.uleb128 0xb
 3069 01bf 49       		.uleb128 0x49
 3070 01c0 13       		.uleb128 0x13
 3071 01c1 02       		.uleb128 0x2
 3072 01c2 18       		.uleb128 0x18
 3073 01c3 00       		.byte	0
 3074 01c4 00       		.byte	0
 3075 01c5 22       		.uleb128 0x22
 3076 01c6 0A       		.uleb128 0xa
 3077 01c7 00       		.byte	0
ARM GAS  /tmp/ccFtBk3F.s 			page 55


 3078 01c8 03       		.uleb128 0x3
 3079 01c9 0E       		.uleb128 0xe
 3080 01ca 3A       		.uleb128 0x3a
 3081 01cb 0B       		.uleb128 0xb
 3082 01cc 3B       		.uleb128 0x3b
 3083 01cd 0B       		.uleb128 0xb
 3084 01ce 11       		.uleb128 0x11
 3085 01cf 01       		.uleb128 0x1
 3086 01d0 00       		.byte	0
 3087 01d1 00       		.byte	0
 3088 01d2 23       		.uleb128 0x23
 3089 01d3 1D       		.uleb128 0x1d
 3090 01d4 01       		.byte	0x1
 3091 01d5 31       		.uleb128 0x31
 3092 01d6 13       		.uleb128 0x13
 3093 01d7 11       		.uleb128 0x11
 3094 01d8 01       		.uleb128 0x1
 3095 01d9 12       		.uleb128 0x12
 3096 01da 06       		.uleb128 0x6
 3097 01db 58       		.uleb128 0x58
 3098 01dc 0B       		.uleb128 0xb
 3099 01dd 59       		.uleb128 0x59
 3100 01de 0B       		.uleb128 0xb
 3101 01df 01       		.uleb128 0x1
 3102 01e0 13       		.uleb128 0x13
 3103 01e1 00       		.byte	0
 3104 01e2 00       		.byte	0
 3105 01e3 24       		.uleb128 0x24
 3106 01e4 05       		.uleb128 0x5
 3107 01e5 00       		.byte	0
 3108 01e6 31       		.uleb128 0x31
 3109 01e7 13       		.uleb128 0x13
 3110 01e8 02       		.uleb128 0x2
 3111 01e9 17       		.uleb128 0x17
 3112 01ea 00       		.byte	0
 3113 01eb 00       		.byte	0
 3114 01ec 25       		.uleb128 0x25
 3115 01ed 898201   		.uleb128 0x4109
 3116 01f0 00       		.byte	0
 3117 01f1 11       		.uleb128 0x11
 3118 01f2 01       		.uleb128 0x1
 3119 01f3 31       		.uleb128 0x31
 3120 01f4 13       		.uleb128 0x13
 3121 01f5 00       		.byte	0
 3122 01f6 00       		.byte	0
 3123 01f7 26       		.uleb128 0x26
 3124 01f8 1D       		.uleb128 0x1d
 3125 01f9 01       		.byte	0x1
 3126 01fa 31       		.uleb128 0x31
 3127 01fb 13       		.uleb128 0x13
 3128 01fc 52       		.uleb128 0x52
 3129 01fd 01       		.uleb128 0x1
 3130 01fe 55       		.uleb128 0x55
 3131 01ff 17       		.uleb128 0x17
 3132 0200 58       		.uleb128 0x58
 3133 0201 0B       		.uleb128 0xb
 3134 0202 59       		.uleb128 0x59
ARM GAS  /tmp/ccFtBk3F.s 			page 56


 3135 0203 0B       		.uleb128 0xb
 3136 0204 01       		.uleb128 0x1
 3137 0205 13       		.uleb128 0x13
 3138 0206 00       		.byte	0
 3139 0207 00       		.byte	0
 3140 0208 27       		.uleb128 0x27
 3141 0209 0B       		.uleb128 0xb
 3142 020a 01       		.byte	0x1
 3143 020b 55       		.uleb128 0x55
 3144 020c 17       		.uleb128 0x17
 3145 020d 00       		.byte	0
 3146 020e 00       		.byte	0
 3147 020f 28       		.uleb128 0x28
 3148 0210 34       		.uleb128 0x34
 3149 0211 00       		.byte	0
 3150 0212 31       		.uleb128 0x31
 3151 0213 13       		.uleb128 0x13
 3152 0214 02       		.uleb128 0x2
 3153 0215 17       		.uleb128 0x17
 3154 0216 00       		.byte	0
 3155 0217 00       		.byte	0
 3156 0218 29       		.uleb128 0x29
 3157 0219 898201   		.uleb128 0x4109
 3158 021c 01       		.byte	0x1
 3159 021d 11       		.uleb128 0x11
 3160 021e 01       		.uleb128 0x1
 3161 021f 31       		.uleb128 0x31
 3162 0220 13       		.uleb128 0x13
 3163 0221 00       		.byte	0
 3164 0222 00       		.byte	0
 3165 0223 2A       		.uleb128 0x2a
 3166 0224 8A8201   		.uleb128 0x410a
 3167 0227 00       		.byte	0
 3168 0228 02       		.uleb128 0x2
 3169 0229 18       		.uleb128 0x18
 3170 022a 9142     		.uleb128 0x2111
 3171 022c 18       		.uleb128 0x18
 3172 022d 00       		.byte	0
 3173 022e 00       		.byte	0
 3174 022f 2B       		.uleb128 0x2b
 3175 0230 898201   		.uleb128 0x4109
 3176 0233 01       		.byte	0x1
 3177 0234 11       		.uleb128 0x11
 3178 0235 01       		.uleb128 0x1
 3179 0236 01       		.uleb128 0x1
 3180 0237 13       		.uleb128 0x13
 3181 0238 00       		.byte	0
 3182 0239 00       		.byte	0
 3183 023a 2C       		.uleb128 0x2c
 3184 023b 898201   		.uleb128 0x4109
 3185 023e 01       		.byte	0x1
 3186 023f 11       		.uleb128 0x11
 3187 0240 01       		.uleb128 0x1
 3188 0241 00       		.byte	0
 3189 0242 00       		.byte	0
 3190 0243 2D       		.uleb128 0x2d
 3191 0244 01       		.uleb128 0x1
ARM GAS  /tmp/ccFtBk3F.s 			page 57


 3192 0245 01       		.byte	0x1
 3193 0246 49       		.uleb128 0x49
 3194 0247 13       		.uleb128 0x13
 3195 0248 01       		.uleb128 0x1
 3196 0249 13       		.uleb128 0x13
 3197 024a 00       		.byte	0
 3198 024b 00       		.byte	0
 3199 024c 2E       		.uleb128 0x2e
 3200 024d 21       		.uleb128 0x21
 3201 024e 00       		.byte	0
 3202 024f 49       		.uleb128 0x49
 3203 0250 13       		.uleb128 0x13
 3204 0251 2F       		.uleb128 0x2f
 3205 0252 0B       		.uleb128 0xb
 3206 0253 00       		.byte	0
 3207 0254 00       		.byte	0
 3208 0255 2F       		.uleb128 0x2f
 3209 0256 2E       		.uleb128 0x2e
 3210 0257 01       		.byte	0x1
 3211 0258 3F       		.uleb128 0x3f
 3212 0259 19       		.uleb128 0x19
 3213 025a 03       		.uleb128 0x3
 3214 025b 0E       		.uleb128 0xe
 3215 025c 3A       		.uleb128 0x3a
 3216 025d 0B       		.uleb128 0xb
 3217 025e 3B       		.uleb128 0x3b
 3218 025f 05       		.uleb128 0x5
 3219 0260 27       		.uleb128 0x27
 3220 0261 19       		.uleb128 0x19
 3221 0262 49       		.uleb128 0x49
 3222 0263 13       		.uleb128 0x13
 3223 0264 11       		.uleb128 0x11
 3224 0265 01       		.uleb128 0x1
 3225 0266 12       		.uleb128 0x12
 3226 0267 06       		.uleb128 0x6
 3227 0268 40       		.uleb128 0x40
 3228 0269 18       		.uleb128 0x18
 3229 026a 9742     		.uleb128 0x2117
 3230 026c 19       		.uleb128 0x19
 3231 026d 01       		.uleb128 0x1
 3232 026e 13       		.uleb128 0x13
 3233 026f 00       		.byte	0
 3234 0270 00       		.byte	0
 3235 0271 30       		.uleb128 0x30
 3236 0272 05       		.uleb128 0x5
 3237 0273 00       		.byte	0
 3238 0274 03       		.uleb128 0x3
 3239 0275 08       		.uleb128 0x8
 3240 0276 3A       		.uleb128 0x3a
 3241 0277 0B       		.uleb128 0xb
 3242 0278 3B       		.uleb128 0x3b
 3243 0279 05       		.uleb128 0x5
 3244 027a 49       		.uleb128 0x49
 3245 027b 13       		.uleb128 0x13
 3246 027c 02       		.uleb128 0x2
 3247 027d 17       		.uleb128 0x17
 3248 027e 00       		.byte	0
ARM GAS  /tmp/ccFtBk3F.s 			page 58


 3249 027f 00       		.byte	0
 3250 0280 31       		.uleb128 0x31
 3251 0281 05       		.uleb128 0x5
 3252 0282 00       		.byte	0
 3253 0283 03       		.uleb128 0x3
 3254 0284 08       		.uleb128 0x8
 3255 0285 3A       		.uleb128 0x3a
 3256 0286 0B       		.uleb128 0xb
 3257 0287 3B       		.uleb128 0x3b
 3258 0288 05       		.uleb128 0x5
 3259 0289 49       		.uleb128 0x49
 3260 028a 13       		.uleb128 0x13
 3261 028b 02       		.uleb128 0x2
 3262 028c 18       		.uleb128 0x18
 3263 028d 00       		.byte	0
 3264 028e 00       		.byte	0
 3265 028f 32       		.uleb128 0x32
 3266 0290 18       		.uleb128 0x18
 3267 0291 00       		.byte	0
 3268 0292 00       		.byte	0
 3269 0293 00       		.byte	0
 3270 0294 33       		.uleb128 0x33
 3271 0295 34       		.uleb128 0x34
 3272 0296 00       		.byte	0
 3273 0297 03       		.uleb128 0x3
 3274 0298 08       		.uleb128 0x8
 3275 0299 3A       		.uleb128 0x3a
 3276 029a 0B       		.uleb128 0xb
 3277 029b 3B       		.uleb128 0x3b
 3278 029c 05       		.uleb128 0x5
 3279 029d 49       		.uleb128 0x49
 3280 029e 13       		.uleb128 0x13
 3281 029f 02       		.uleb128 0x2
 3282 02a0 18       		.uleb128 0x18
 3283 02a1 00       		.byte	0
 3284 02a2 00       		.byte	0
 3285 02a3 34       		.uleb128 0x34
 3286 02a4 34       		.uleb128 0x34
 3287 02a5 00       		.byte	0
 3288 02a6 03       		.uleb128 0x3
 3289 02a7 0E       		.uleb128 0xe
 3290 02a8 3A       		.uleb128 0x3a
 3291 02a9 0B       		.uleb128 0xb
 3292 02aa 3B       		.uleb128 0x3b
 3293 02ab 05       		.uleb128 0x5
 3294 02ac 49       		.uleb128 0x49
 3295 02ad 13       		.uleb128 0x13
 3296 02ae 02       		.uleb128 0x2
 3297 02af 18       		.uleb128 0x18
 3298 02b0 00       		.byte	0
 3299 02b1 00       		.byte	0
 3300 02b2 35       		.uleb128 0x35
 3301 02b3 05       		.uleb128 0x5
 3302 02b4 00       		.byte	0
 3303 02b5 03       		.uleb128 0x3
 3304 02b6 0E       		.uleb128 0xe
 3305 02b7 3A       		.uleb128 0x3a
ARM GAS  /tmp/ccFtBk3F.s 			page 59


 3306 02b8 0B       		.uleb128 0xb
 3307 02b9 3B       		.uleb128 0x3b
 3308 02ba 05       		.uleb128 0x5
 3309 02bb 49       		.uleb128 0x49
 3310 02bc 13       		.uleb128 0x13
 3311 02bd 02       		.uleb128 0x2
 3312 02be 17       		.uleb128 0x17
 3313 02bf 00       		.byte	0
 3314 02c0 00       		.byte	0
 3315 02c1 36       		.uleb128 0x36
 3316 02c2 34       		.uleb128 0x34
 3317 02c3 00       		.byte	0
 3318 02c4 03       		.uleb128 0x3
 3319 02c5 08       		.uleb128 0x8
 3320 02c6 3A       		.uleb128 0x3a
 3321 02c7 0B       		.uleb128 0xb
 3322 02c8 3B       		.uleb128 0x3b
 3323 02c9 05       		.uleb128 0x5
 3324 02ca 49       		.uleb128 0x49
 3325 02cb 13       		.uleb128 0x13
 3326 02cc 02       		.uleb128 0x2
 3327 02cd 17       		.uleb128 0x17
 3328 02ce 00       		.byte	0
 3329 02cf 00       		.byte	0
 3330 02d0 37       		.uleb128 0x37
 3331 02d1 34       		.uleb128 0x34
 3332 02d2 00       		.byte	0
 3333 02d3 03       		.uleb128 0x3
 3334 02d4 0E       		.uleb128 0xe
 3335 02d5 3A       		.uleb128 0x3a
 3336 02d6 0B       		.uleb128 0xb
 3337 02d7 3B       		.uleb128 0x3b
 3338 02d8 05       		.uleb128 0x5
 3339 02d9 49       		.uleb128 0x49
 3340 02da 13       		.uleb128 0x13
 3341 02db 02       		.uleb128 0x2
 3342 02dc 17       		.uleb128 0x17
 3343 02dd 00       		.byte	0
 3344 02de 00       		.byte	0
 3345 02df 38       		.uleb128 0x38
 3346 02e0 898201   		.uleb128 0x4109
 3347 02e3 01       		.byte	0x1
 3348 02e4 11       		.uleb128 0x11
 3349 02e5 01       		.uleb128 0x1
 3350 02e6 31       		.uleb128 0x31
 3351 02e7 13       		.uleb128 0x13
 3352 02e8 01       		.uleb128 0x1
 3353 02e9 13       		.uleb128 0x13
 3354 02ea 00       		.byte	0
 3355 02eb 00       		.byte	0
 3356 02ec 39       		.uleb128 0x39
 3357 02ed 34       		.uleb128 0x34
 3358 02ee 00       		.byte	0
 3359 02ef 03       		.uleb128 0x3
 3360 02f0 0E       		.uleb128 0xe
 3361 02f1 3A       		.uleb128 0x3a
 3362 02f2 0B       		.uleb128 0xb
ARM GAS  /tmp/ccFtBk3F.s 			page 60


 3363 02f3 3B       		.uleb128 0x3b
 3364 02f4 05       		.uleb128 0x5
 3365 02f5 49       		.uleb128 0x49
 3366 02f6 13       		.uleb128 0x13
 3367 02f7 3F       		.uleb128 0x3f
 3368 02f8 19       		.uleb128 0x19
 3369 02f9 3C       		.uleb128 0x3c
 3370 02fa 19       		.uleb128 0x19
 3371 02fb 00       		.byte	0
 3372 02fc 00       		.byte	0
 3373 02fd 3A       		.uleb128 0x3a
 3374 02fe 34       		.uleb128 0x34
 3375 02ff 00       		.byte	0
 3376 0300 03       		.uleb128 0x3
 3377 0301 08       		.uleb128 0x8
 3378 0302 3A       		.uleb128 0x3a
 3379 0303 0B       		.uleb128 0xb
 3380 0304 3B       		.uleb128 0x3b
 3381 0305 05       		.uleb128 0x5
 3382 0306 49       		.uleb128 0x49
 3383 0307 13       		.uleb128 0x13
 3384 0308 3F       		.uleb128 0x3f
 3385 0309 19       		.uleb128 0x19
 3386 030a 3C       		.uleb128 0x3c
 3387 030b 19       		.uleb128 0x19
 3388 030c 00       		.byte	0
 3389 030d 00       		.byte	0
 3390 030e 3B       		.uleb128 0x3b
 3391 030f 2E       		.uleb128 0x2e
 3392 0310 01       		.byte	0x1
 3393 0311 3F       		.uleb128 0x3f
 3394 0312 19       		.uleb128 0x19
 3395 0313 03       		.uleb128 0x3
 3396 0314 0E       		.uleb128 0xe
 3397 0315 3A       		.uleb128 0x3a
 3398 0316 0B       		.uleb128 0xb
 3399 0317 3B       		.uleb128 0x3b
 3400 0318 0B       		.uleb128 0xb
 3401 0319 27       		.uleb128 0x27
 3402 031a 19       		.uleb128 0x19
 3403 031b 3C       		.uleb128 0x3c
 3404 031c 19       		.uleb128 0x19
 3405 031d 01       		.uleb128 0x1
 3406 031e 13       		.uleb128 0x13
 3407 031f 00       		.byte	0
 3408 0320 00       		.byte	0
 3409 0321 00       		.byte	0
 3410              		.section	.debug_loc,"",%progbits
 3411              	.Ldebug_loc0:
 3412              	.LLST0:
 3413 0000 00000000 		.4byte	.LVL0
 3414 0004 34000000 		.4byte	.LVL11
 3415 0008 0100     		.2byte	0x1
 3416 000a 50       		.byte	0x50
 3417 000b 00000000 		.4byte	0
 3418 000f 00000000 		.4byte	0
 3419              	.LLST1:
ARM GAS  /tmp/ccFtBk3F.s 			page 61


 3420 0013 00000000 		.4byte	.LVL0
 3421 0017 0E000000 		.4byte	.LVL2
 3422 001b 0100     		.2byte	0x1
 3423 001d 51       		.byte	0x51
 3424 001e 0E000000 		.4byte	.LVL2
 3425 0022 44000000 		.4byte	.LFE277
 3426 0026 0400     		.2byte	0x4
 3427 0028 F3       		.byte	0xf3
 3428 0029 01       		.uleb128 0x1
 3429 002a 51       		.byte	0x51
 3430 002b 9F       		.byte	0x9f
 3431 002c 00000000 		.4byte	0
 3432 0030 00000000 		.4byte	0
 3433              	.LLST2:
 3434 0034 00000000 		.4byte	.LVL0
 3435 0038 34000000 		.4byte	.LVL11
 3436 003c 0100     		.2byte	0x1
 3437 003e 52       		.byte	0x52
 3438 003f 34000000 		.4byte	.LVL11
 3439 0043 44000000 		.4byte	.LFE277
 3440 0047 0400     		.2byte	0x4
 3441 0049 F3       		.byte	0xf3
 3442 004a 01       		.uleb128 0x1
 3443 004b 52       		.byte	0x52
 3444 004c 9F       		.byte	0x9f
 3445 004d 00000000 		.4byte	0
 3446 0051 00000000 		.4byte	0
 3447              	.LLST3:
 3448 0055 00000000 		.4byte	.LVL0
 3449 0059 0C000000 		.4byte	.LVL1
 3450 005d 0100     		.2byte	0x1
 3451 005f 53       		.byte	0x53
 3452 0060 0C000000 		.4byte	.LVL1
 3453 0064 44000000 		.4byte	.LFE277
 3454 0068 0400     		.2byte	0x4
 3455 006a F3       		.byte	0xf3
 3456 006b 01       		.uleb128 0x1
 3457 006c 53       		.byte	0x53
 3458 006d 9F       		.byte	0x9f
 3459 006e 00000000 		.4byte	0
 3460 0072 00000000 		.4byte	0
 3461              	.LLST4:
 3462 0076 16000000 		.4byte	.LVL3
 3463 007a 1A000000 		.4byte	.LVL4
 3464 007e 0100     		.2byte	0x1
 3465 0080 51       		.byte	0x51
 3466 0081 1A000000 		.4byte	.LVL4
 3467 0085 30000000 		.4byte	.LVL9
 3468 0089 0100     		.2byte	0x1
 3469 008b 56       		.byte	0x56
 3470 008c 30000000 		.4byte	.LVL9
 3471 0090 34000000 		.4byte	.LVL11
 3472 0094 0600     		.2byte	0x6
 3473 0096 75       		.byte	0x75
 3474 0097 00       		.sleb128 0
 3475 0098 74       		.byte	0x74
 3476 0099 00       		.sleb128 0
ARM GAS  /tmp/ccFtBk3F.s 			page 62


 3477 009a 1C       		.byte	0x1c
 3478 009b 9F       		.byte	0x9f
 3479 009c 00000000 		.4byte	0
 3480 00a0 00000000 		.4byte	0
 3481              	.LLST5:
 3482 00a4 0C000000 		.4byte	.LVL1
 3483 00a8 0E000000 		.4byte	.LVL2
 3484 00ac 0100     		.2byte	0x1
 3485 00ae 55       		.byte	0x55
 3486 00af 0E000000 		.4byte	.LVL2
 3487 00b3 26000000 		.4byte	.LVL6
 3488 00b7 0100     		.2byte	0x1
 3489 00b9 54       		.byte	0x54
 3490 00ba 26000000 		.4byte	.LVL6
 3491 00be 34000000 		.4byte	.LVL11
 3492 00c2 0300     		.2byte	0x3
 3493 00c4 74       		.byte	0x74
 3494 00c5 01       		.sleb128 1
 3495 00c6 9F       		.byte	0x9f
 3496 00c7 34000000 		.4byte	.LVL11
 3497 00cb 38000000 		.4byte	.LVL12
 3498 00cf 0100     		.2byte	0x1
 3499 00d1 54       		.byte	0x54
 3500 00d2 38000000 		.4byte	.LVL12
 3501 00d6 44000000 		.4byte	.LFE277
 3502 00da 0300     		.2byte	0x3
 3503 00dc 74       		.byte	0x74
 3504 00dd 7F       		.sleb128 -1
 3505 00de 9F       		.byte	0x9f
 3506 00df 00000000 		.4byte	0
 3507 00e3 00000000 		.4byte	0
 3508              	.LLST6:
 3509 00e7 00000000 		.4byte	.LVL0
 3510 00eb 16000000 		.4byte	.LVL3
 3511 00ef 0100     		.2byte	0x1
 3512 00f1 51       		.byte	0x51
 3513 00f2 2C000000 		.4byte	.LVL8
 3514 00f6 34000000 		.4byte	.LVL11
 3515 00fa 0100     		.2byte	0x1
 3516 00fc 51       		.byte	0x51
 3517 00fd 34000000 		.4byte	.LVL11
 3518 0101 44000000 		.4byte	.LFE277
 3519 0105 0100     		.2byte	0x1
 3520 0107 57       		.byte	0x57
 3521 0108 00000000 		.4byte	0
 3522 010c 00000000 		.4byte	0
 3523              	.LLST7:
 3524 0110 0C000000 		.4byte	.LVL1
 3525 0114 2A000000 		.4byte	.LVL7
 3526 0118 0100     		.2byte	0x1
 3527 011a 53       		.byte	0x53
 3528 011b 2C000000 		.4byte	.LVL8
 3529 011f 32000000 		.4byte	.LVL10
 3530 0123 0100     		.2byte	0x1
 3531 0125 53       		.byte	0x53
 3532 0126 00000000 		.4byte	0
 3533 012a 00000000 		.4byte	0
ARM GAS  /tmp/ccFtBk3F.s 			page 63


 3534              	.LLST8:
 3535 012e 00000000 		.4byte	.LVL13
 3536 0132 12000000 		.4byte	.LVL15
 3537 0136 0100     		.2byte	0x1
 3538 0138 50       		.byte	0x50
 3539 0139 12000000 		.4byte	.LVL15
 3540 013d CE020000 		.4byte	.LVL108
 3541 0141 0100     		.2byte	0x1
 3542 0143 56       		.byte	0x56
 3543 0144 CE020000 		.4byte	.LVL108
 3544 0148 D8020000 		.4byte	.LFE280
 3545 014c 0400     		.2byte	0x4
 3546 014e F3       		.byte	0xf3
 3547 014f 01       		.uleb128 0x1
 3548 0150 50       		.byte	0x50
 3549 0151 9F       		.byte	0x9f
 3550 0152 00000000 		.4byte	0
 3551 0156 00000000 		.4byte	0
 3552              	.LLST9:
 3553 015a 00000000 		.4byte	.LVL13
 3554 015e 12000000 		.4byte	.LVL15
 3555 0162 0100     		.2byte	0x1
 3556 0164 51       		.byte	0x51
 3557 0165 12000000 		.4byte	.LVL15
 3558 0169 16000000 		.4byte	.LVL16
 3559 016d 0100     		.2byte	0x1
 3560 016f 53       		.byte	0x53
 3561 0170 16000000 		.4byte	.LVL16
 3562 0174 4A000000 		.4byte	.LVL25
 3563 0178 0100     		.2byte	0x1
 3564 017a 54       		.byte	0x54
 3565 017b 4C000000 		.4byte	.LVL26
 3566 017f 50000000 		.4byte	.LVL27
 3567 0183 0100     		.2byte	0x1
 3568 0185 54       		.byte	0x54
 3569 0186 50000000 		.4byte	.LVL27
 3570 018a 78000000 		.4byte	.LVL31
 3571 018e 0300     		.2byte	0x3
 3572 0190 74       		.byte	0x74
 3573 0191 7F       		.sleb128 -1
 3574 0192 9F       		.byte	0x9f
 3575 0193 78000000 		.4byte	.LVL31
 3576 0197 7C000000 		.4byte	.LVL32
 3577 019b 0100     		.2byte	0x1
 3578 019d 54       		.byte	0x54
 3579 019e 7C000000 		.4byte	.LVL32
 3580 01a2 9A000000 		.4byte	.LVL36
 3581 01a6 0300     		.2byte	0x3
 3582 01a8 74       		.byte	0x74
 3583 01a9 7F       		.sleb128 -1
 3584 01aa 9F       		.byte	0x9f
 3585 01ab 9A000000 		.4byte	.LVL36
 3586 01af CE020000 		.4byte	.LVL108
 3587 01b3 0100     		.2byte	0x1
 3588 01b5 54       		.byte	0x54
 3589 01b6 CE020000 		.4byte	.LVL108
 3590 01ba D8020000 		.4byte	.LFE280
ARM GAS  /tmp/ccFtBk3F.s 			page 64


 3591 01be 0300     		.2byte	0x3
 3592 01c0 73       		.byte	0x73
 3593 01c1 01       		.sleb128 1
 3594 01c2 9F       		.byte	0x9f
 3595 01c3 00000000 		.4byte	0
 3596 01c7 00000000 		.4byte	0
 3597              	.LLST10:
 3598 01cb 00000000 		.4byte	.LVL13
 3599 01cf 27000000 		.4byte	.LVL17-1
 3600 01d3 0100     		.2byte	0x1
 3601 01d5 52       		.byte	0x52
 3602 01d6 2E000000 		.4byte	.LVL19
 3603 01da 30000000 		.4byte	.LVL20
 3604 01de 0100     		.2byte	0x1
 3605 01e0 52       		.byte	0x52
 3606 01e1 C2020000 		.4byte	.LVL107
 3607 01e5 D8020000 		.4byte	.LFE280
 3608 01e9 0100     		.2byte	0x1
 3609 01eb 52       		.byte	0x52
 3610 01ec 00000000 		.4byte	0
 3611 01f0 00000000 		.4byte	0
 3612              	.LLST11:
 3613 01f4 2E000000 		.4byte	.LVL19
 3614 01f8 BC000000 		.4byte	.LVL41
 3615 01fc 0400     		.2byte	0x4
 3616 01fe 91       		.byte	0x91
 3617 01ff B87F     		.sleb128 -72
 3618 0201 9F       		.byte	0x9f
 3619 0202 BC000000 		.4byte	.LVL41
 3620 0206 CA000000 		.4byte	.LVL43
 3621 020a 0400     		.2byte	0x4
 3622 020c 91       		.byte	0x91
 3623 020d B97F     		.sleb128 -71
 3624 020f 9F       		.byte	0x9f
 3625 0210 CA000000 		.4byte	.LVL43
 3626 0214 CE000000 		.4byte	.LVL44
 3627 0218 0100     		.2byte	0x1
 3628 021a 50       		.byte	0x50
 3629 021b CE000000 		.4byte	.LVL44
 3630 021f DE000000 		.4byte	.LVL48
 3631 0223 0400     		.2byte	0x4
 3632 0225 91       		.byte	0x91
 3633 0226 B87F     		.sleb128 -72
 3634 0228 9F       		.byte	0x9f
 3635 0229 DE000000 		.4byte	.LVL48
 3636 022d E0000000 		.4byte	.LVL49
 3637 0231 0100     		.2byte	0x1
 3638 0233 50       		.byte	0x50
 3639 0234 EA000000 		.4byte	.LVL52
 3640 0238 FA000000 		.4byte	.LVL53
 3641 023c 0400     		.2byte	0x4
 3642 023e 91       		.byte	0x91
 3643 023f B87F     		.sleb128 -72
 3644 0241 9F       		.byte	0x9f
 3645 0242 FA000000 		.4byte	.LVL53
 3646 0246 10010000 		.4byte	.LVL56
 3647 024a 0400     		.2byte	0x4
ARM GAS  /tmp/ccFtBk3F.s 			page 65


 3648 024c 91       		.byte	0x91
 3649 024d B97F     		.sleb128 -71
 3650 024f 9F       		.byte	0x9f
 3651 0250 10010000 		.4byte	.LVL56
 3652 0254 3C010000 		.4byte	.LVL61
 3653 0258 0100     		.2byte	0x1
 3654 025a 50       		.byte	0x50
 3655 025b A2010000 		.4byte	.LVL80
 3656 025f C8010000 		.4byte	.LVL85
 3657 0263 0400     		.2byte	0x4
 3658 0265 91       		.byte	0x91
 3659 0266 B87F     		.sleb128 -72
 3660 0268 9F       		.byte	0x9f
 3661 0269 C8010000 		.4byte	.LVL85
 3662 026d D4010000 		.4byte	.LVL86
 3663 0271 0400     		.2byte	0x4
 3664 0273 91       		.byte	0x91
 3665 0274 B97F     		.sleb128 -71
 3666 0276 9F       		.byte	0x9f
 3667 0277 D4010000 		.4byte	.LVL86
 3668 027b 40020000 		.4byte	.LVL89
 3669 027f 0400     		.2byte	0x4
 3670 0281 91       		.byte	0x91
 3671 0282 B87F     		.sleb128 -72
 3672 0284 9F       		.byte	0x9f
 3673 0285 40020000 		.4byte	.LVL89
 3674 0289 46020000 		.4byte	.LVL91
 3675 028d 0100     		.2byte	0x1
 3676 028f 53       		.byte	0x53
 3677 0290 46020000 		.4byte	.LVL91
 3678 0294 49020000 		.4byte	.LVL92-1
 3679 0298 0100     		.2byte	0x1
 3680 029a 50       		.byte	0x50
 3681 029b 49020000 		.4byte	.LVL92-1
 3682 029f 8C020000 		.4byte	.LVL101
 3683 02a3 0300     		.2byte	0x3
 3684 02a5 91       		.byte	0x91
 3685 02a6 B47F     		.sleb128 -76
 3686 02a8 8C020000 		.4byte	.LVL101
 3687 02ac B2020000 		.4byte	.LVL105
 3688 02b0 0400     		.2byte	0x4
 3689 02b2 91       		.byte	0x91
 3690 02b3 B87F     		.sleb128 -72
 3691 02b5 9F       		.byte	0x9f
 3692 02b6 B2020000 		.4byte	.LVL105
 3693 02ba C2020000 		.4byte	.LVL107
 3694 02be 0100     		.2byte	0x1
 3695 02c0 50       		.byte	0x50
 3696 02c1 00000000 		.4byte	0
 3697 02c5 00000000 		.4byte	0
 3698              	.LLST12:
 3699 02c9 2E000000 		.4byte	.LVL19
 3700 02cd E8000000 		.4byte	.LVL51
 3701 02d1 0400     		.2byte	0x4
 3702 02d3 91       		.byte	0x91
 3703 02d4 B87F     		.sleb128 -72
 3704 02d6 9F       		.byte	0x9f
ARM GAS  /tmp/ccFtBk3F.s 			page 66


 3705 02d7 E8000000 		.4byte	.LVL51
 3706 02db EA000000 		.4byte	.LVL52
 3707 02df 0100     		.2byte	0x1
 3708 02e1 5B       		.byte	0x5b
 3709 02e2 EA000000 		.4byte	.LVL52
 3710 02e6 10010000 		.4byte	.LVL56
 3711 02ea 0400     		.2byte	0x4
 3712 02ec 91       		.byte	0x91
 3713 02ed B87F     		.sleb128 -72
 3714 02ef 9F       		.byte	0x9f
 3715 02f0 10010000 		.4byte	.LVL56
 3716 02f4 4C010000 		.4byte	.LVL66
 3717 02f8 0100     		.2byte	0x1
 3718 02fa 5B       		.byte	0x5b
 3719 02fb 66010000 		.4byte	.LVL71
 3720 02ff 70010000 		.4byte	.LVL73
 3721 0303 0100     		.2byte	0x1
 3722 0305 5B       		.byte	0x5b
 3723 0306 70010000 		.4byte	.LVL73
 3724 030a 74010000 		.4byte	.LVL74
 3725 030e 0300     		.2byte	0x3
 3726 0310 7B       		.byte	0x7b
 3727 0311 7F       		.sleb128 -1
 3728 0312 9F       		.byte	0x9f
 3729 0313 7C010000 		.4byte	.LVL76
 3730 0317 A2010000 		.4byte	.LVL80
 3731 031b 0100     		.2byte	0x1
 3732 031d 5B       		.byte	0x5b
 3733 031e A2010000 		.4byte	.LVL80
 3734 0322 AE020000 		.4byte	.LVL104
 3735 0326 0400     		.2byte	0x4
 3736 0328 91       		.byte	0x91
 3737 0329 B87F     		.sleb128 -72
 3738 032b 9F       		.byte	0x9f
 3739 032c AE020000 		.4byte	.LVL104
 3740 0330 C2020000 		.4byte	.LVL107
 3741 0334 0100     		.2byte	0x1
 3742 0336 5B       		.byte	0x5b
 3743 0337 00000000 		.4byte	0
 3744 033b 00000000 		.4byte	0
 3745              	.LLST13:
 3746 033f 16000000 		.4byte	.LVL16
 3747 0343 27000000 		.4byte	.LVL17-1
 3748 0347 0100     		.2byte	0x1
 3749 0349 51       		.byte	0x51
 3750 034a 2E000000 		.4byte	.LVL19
 3751 034e 4A000000 		.4byte	.LVL25
 3752 0352 0100     		.2byte	0x1
 3753 0354 51       		.byte	0x51
 3754 0355 50000000 		.4byte	.LVL27
 3755 0359 62000000 		.4byte	.LVL28
 3756 035d 0100     		.2byte	0x1
 3757 035f 53       		.byte	0x53
 3758 0360 62000000 		.4byte	.LVL28
 3759 0364 70000000 		.4byte	.LVL30
 3760 0368 0100     		.2byte	0x1
 3761 036a 52       		.byte	0x52
ARM GAS  /tmp/ccFtBk3F.s 			page 67


 3762 036b 70000000 		.4byte	.LVL30
 3763 036f 78000000 		.4byte	.LVL31
 3764 0373 0100     		.2byte	0x1
 3765 0375 53       		.byte	0x53
 3766 0376 7C000000 		.4byte	.LVL32
 3767 037a 8E000000 		.4byte	.LVL33
 3768 037e 0100     		.2byte	0x1
 3769 0380 53       		.byte	0x53
 3770 0381 8E000000 		.4byte	.LVL33
 3771 0385 9A000000 		.4byte	.LVL36
 3772 0389 0100     		.2byte	0x1
 3773 038b 52       		.byte	0x52
 3774 038c 9A000000 		.4byte	.LVL36
 3775 0390 A8000000 		.4byte	.LVL38
 3776 0394 0100     		.2byte	0x1
 3777 0396 53       		.byte	0x53
 3778 0397 A8000000 		.4byte	.LVL38
 3779 039b AA000000 		.4byte	.LVL39
 3780 039f 0100     		.2byte	0x1
 3781 03a1 52       		.byte	0x52
 3782 03a2 AA000000 		.4byte	.LVL39
 3783 03a6 B8000000 		.4byte	.LVL40
 3784 03aa 0100     		.2byte	0x1
 3785 03ac 53       		.byte	0x53
 3786 03ad CE000000 		.4byte	.LVL44
 3787 03b1 D2000000 		.4byte	.LVL45
 3788 03b5 0100     		.2byte	0x1
 3789 03b7 53       		.byte	0x53
 3790 03b8 D2000000 		.4byte	.LVL45
 3791 03bc D4000000 		.4byte	.LVL46
 3792 03c0 0200     		.2byte	0x2
 3793 03c2 3A       		.byte	0x3a
 3794 03c3 9F       		.byte	0x9f
 3795 03c4 EA000000 		.4byte	.LVL52
 3796 03c8 02010000 		.4byte	.LVL54
 3797 03cc 0100     		.2byte	0x1
 3798 03ce 53       		.byte	0x53
 3799 03cf A2010000 		.4byte	.LVL80
 3800 03d3 A6010000 		.4byte	.LVL81
 3801 03d7 0100     		.2byte	0x1
 3802 03d9 53       		.byte	0x53
 3803 03da A6010000 		.4byte	.LVL81
 3804 03de AA010000 		.4byte	.LVL82
 3805 03e2 0200     		.2byte	0x2
 3806 03e4 38       		.byte	0x38
 3807 03e5 9F       		.byte	0x9f
 3808 03e6 AA010000 		.4byte	.LVL82
 3809 03ea C0010000 		.4byte	.LVL83
 3810 03ee 0100     		.2byte	0x1
 3811 03f0 53       		.byte	0x53
 3812 03f1 C0010000 		.4byte	.LVL83
 3813 03f5 C2010000 		.4byte	.LVL84
 3814 03f9 0100     		.2byte	0x1
 3815 03fb 52       		.byte	0x52
 3816 03fc C2010000 		.4byte	.LVL84
 3817 0400 E7010000 		.4byte	.LVL87-1
 3818 0404 0100     		.2byte	0x1
ARM GAS  /tmp/ccFtBk3F.s 			page 68


 3819 0406 53       		.byte	0x53
 3820 0407 8C020000 		.4byte	.LVL101
 3821 040b 92020000 		.4byte	.LVL103
 3822 040f 0100     		.2byte	0x1
 3823 0411 53       		.byte	0x53
 3824 0412 C2020000 		.4byte	.LVL107
 3825 0416 D8020000 		.4byte	.LFE280
 3826 041a 0100     		.2byte	0x1
 3827 041c 51       		.byte	0x51
 3828 041d 00000000 		.4byte	0
 3829 0421 00000000 		.4byte	0
 3830              	.LLST14:
 3831 0425 42000000 		.4byte	.LVL22
 3832 0429 46000000 		.4byte	.LVL23
 3833 042d 0300     		.2byte	0x3
 3834 042f 08       		.byte	0x8
 3835 0430 20       		.byte	0x20
 3836 0431 9F       		.byte	0x9f
 3837 0432 46000000 		.4byte	.LVL23
 3838 0436 48000000 		.4byte	.LVL24
 3839 043a 0300     		.2byte	0x3
 3840 043c 08       		.byte	0x8
 3841 043d 30       		.byte	0x30
 3842 043e 9F       		.byte	0x9f
 3843 043f 48000000 		.4byte	.LVL24
 3844 0443 FA000000 		.4byte	.LVL53
 3845 0447 0100     		.2byte	0x1
 3846 0449 55       		.byte	0x55
 3847 044a FA000000 		.4byte	.LVL53
 3848 044e 0C010000 		.4byte	.LVL55
 3849 0452 0300     		.2byte	0x3
 3850 0454 08       		.byte	0x8
 3851 0455 20       		.byte	0x20
 3852 0456 9F       		.byte	0x9f
 3853 0457 10010000 		.4byte	.LVL56
 3854 045b 90020000 		.4byte	.LVL102
 3855 045f 0100     		.2byte	0x1
 3856 0461 55       		.byte	0x55
 3857 0462 90020000 		.4byte	.LVL102
 3858 0466 C2020000 		.4byte	.LVL107
 3859 046a 0300     		.2byte	0x3
 3860 046c 08       		.byte	0x8
 3861 046d 20       		.byte	0x20
 3862 046e 9F       		.byte	0x9f
 3863 046f 00000000 		.4byte	0
 3864 0473 00000000 		.4byte	0
 3865              	.LLST15:
 3866 0477 16010000 		.4byte	.LVL57
 3867 047b 4C010000 		.4byte	.LVL66
 3868 047f 0100     		.2byte	0x1
 3869 0481 59       		.byte	0x59
 3870 0482 66010000 		.4byte	.LVL71
 3871 0486 68010000 		.4byte	.LVL72
 3872 048a 0300     		.2byte	0x3
 3873 048c 73       		.byte	0x73
 3874 048d 7F       		.sleb128 -1
 3875 048e 9F       		.byte	0x9f
ARM GAS  /tmp/ccFtBk3F.s 			page 69


 3876 048f 68010000 		.4byte	.LVL72
 3877 0493 77010000 		.4byte	.LVL75-1
 3878 0497 0100     		.2byte	0x1
 3879 0499 53       		.byte	0x53
 3880 049a 77010000 		.4byte	.LVL75-1
 3881 049e 7C010000 		.4byte	.LVL76
 3882 04a2 0300     		.2byte	0x3
 3883 04a4 91       		.byte	0x91
 3884 04a5 A47F     		.sleb128 -92
 3885 04a7 7C010000 		.4byte	.LVL76
 3886 04ab 86010000 		.4byte	.LVL77
 3887 04af 0100     		.2byte	0x1
 3888 04b1 53       		.byte	0x53
 3889 04b2 00000000 		.4byte	0
 3890 04b6 00000000 		.4byte	0
 3891              	.LLST16:
 3892 04ba 70000000 		.4byte	.LVL30
 3893 04be 78000000 		.4byte	.LVL31
 3894 04c2 0200     		.2byte	0x2
 3895 04c4 30       		.byte	0x30
 3896 04c5 9F       		.byte	0x9f
 3897 04c6 92000000 		.4byte	.LVL34
 3898 04ca 98000000 		.4byte	.LVL35
 3899 04ce 0500     		.2byte	0x5
 3900 04d0 79       		.byte	0x79
 3901 04d1 00       		.sleb128 0
 3902 04d2 3A       		.byte	0x3a
 3903 04d3 1E       		.byte	0x1e
 3904 04d4 9F       		.byte	0x9f
 3905 04d5 98000000 		.4byte	.LVL35
 3906 04d9 9A000000 		.4byte	.LVL36
 3907 04dd 0100     		.2byte	0x1
 3908 04df 59       		.byte	0x59
 3909 04e0 00000000 		.4byte	0
 3910 04e4 00000000 		.4byte	0
 3911              	.LLST17:
 3912 04e8 48000000 		.4byte	.LVL24
 3913 04ec 4A000000 		.4byte	.LVL25
 3914 04f0 0200     		.2byte	0x2
 3915 04f2 30       		.byte	0x30
 3916 04f3 9F       		.byte	0x9f
 3917 04f4 4C000000 		.4byte	.LVL26
 3918 04f8 50000000 		.4byte	.LVL27
 3919 04fc 0100     		.2byte	0x1
 3920 04fe 53       		.byte	0x53
 3921 04ff 50000000 		.4byte	.LVL27
 3922 0503 1A010000 		.4byte	.LVL58
 3923 0507 0300     		.2byte	0x3
 3924 0509 91       		.byte	0x91
 3925 050a A47F     		.sleb128 -92
 3926 050c 1A010000 		.4byte	.LVL58
 3927 0510 4C010000 		.4byte	.LVL66
 3928 0514 0100     		.2byte	0x1
 3929 0516 5A       		.byte	0x5a
 3930 0517 4C010000 		.4byte	.LVL66
 3931 051b 50010000 		.4byte	.LVL67
 3932 051f 0100     		.2byte	0x1
ARM GAS  /tmp/ccFtBk3F.s 			page 70


 3933 0521 53       		.byte	0x53
 3934 0522 50010000 		.4byte	.LVL67
 3935 0526 58010000 		.4byte	.LVL68
 3936 052a 0300     		.2byte	0x3
 3937 052c 91       		.byte	0x91
 3938 052d A47F     		.sleb128 -92
 3939 052f 58010000 		.4byte	.LVL68
 3940 0533 5C010000 		.4byte	.LVL69
 3941 0537 0700     		.2byte	0x7
 3942 0539 91       		.byte	0x91
 3943 053a A47F     		.sleb128 -92
 3944 053c 06       		.byte	0x6
 3945 053d 23       		.byte	0x23
 3946 053e 01       		.uleb128 0x1
 3947 053f 9F       		.byte	0x9f
 3948 0540 5C010000 		.4byte	.LVL69
 3949 0544 64010000 		.4byte	.LVL70
 3950 0548 0100     		.2byte	0x1
 3951 054a 53       		.byte	0x53
 3952 054b 64010000 		.4byte	.LVL70
 3953 054f 66010000 		.4byte	.LVL71
 3954 0553 0100     		.2byte	0x1
 3955 0555 5A       		.byte	0x5a
 3956 0556 86010000 		.4byte	.LVL77
 3957 055a A2010000 		.4byte	.LVL80
 3958 055e 0100     		.2byte	0x1
 3959 0560 59       		.byte	0x59
 3960 0561 A2010000 		.4byte	.LVL80
 3961 0565 C2020000 		.4byte	.LVL107
 3962 0569 0300     		.2byte	0x3
 3963 056b 91       		.byte	0x91
 3964 056c A47F     		.sleb128 -92
 3965 056e 00000000 		.4byte	0
 3966 0572 00000000 		.4byte	0
 3967              	.LLST18:
 3968 0576 10000000 		.4byte	.LVL14
 3969 057a 12000000 		.4byte	.LVL15
 3970 057e 0200     		.2byte	0x2
 3971 0580 30       		.byte	0x30
 3972 0581 9F       		.byte	0x9f
 3973 0582 12000000 		.4byte	.LVL15
 3974 0586 2A000000 		.4byte	.LVL18
 3975 058a 0100     		.2byte	0x1
 3976 058c 57       		.byte	0x57
 3977 058d 2E000000 		.4byte	.LVL19
 3978 0591 4C010000 		.4byte	.LVL66
 3979 0595 0100     		.2byte	0x1
 3980 0597 57       		.byte	0x57
 3981 0598 A2010000 		.4byte	.LVL80
 3982 059c CE020000 		.4byte	.LVL108
 3983 05a0 0100     		.2byte	0x1
 3984 05a2 57       		.byte	0x57
 3985 05a3 CE020000 		.4byte	.LVL108
 3986 05a7 D8020000 		.4byte	.LFE280
 3987 05ab 0100     		.2byte	0x1
 3988 05ad 50       		.byte	0x50
 3989 05ae 00000000 		.4byte	0
ARM GAS  /tmp/ccFtBk3F.s 			page 71


 3990 05b2 00000000 		.4byte	0
 3991              	.LLST19:
 3992 05b6 A2000000 		.4byte	.LVL37
 3993 05ba C2020000 		.4byte	.LVL107
 3994 05be 0200     		.2byte	0x2
 3995 05c0 31       		.byte	0x31
 3996 05c1 9F       		.byte	0x9f
 3997 05c2 00000000 		.4byte	0
 3998 05c6 00000000 		.4byte	0
 3999              	.LLST20:
 4000 05ca 2E000000 		.4byte	.LVL19
 4001 05ce 36000000 		.4byte	.LVL21
 4002 05d2 0200     		.2byte	0x2
 4003 05d4 30       		.byte	0x30
 4004 05d5 9F       		.byte	0x9f
 4005 05d6 36000000 		.4byte	.LVL21
 4006 05da 42000000 		.4byte	.LVL22
 4007 05de 0200     		.2byte	0x2
 4008 05e0 31       		.byte	0x31
 4009 05e1 9F       		.byte	0x9f
 4010 05e2 42000000 		.4byte	.LVL22
 4011 05e6 C2020000 		.4byte	.LVL107
 4012 05ea 0300     		.2byte	0x3
 4013 05ec 91       		.byte	0x91
 4014 05ed A87F     		.sleb128 -88
 4015 05ef 00000000 		.4byte	0
 4016 05f3 00000000 		.4byte	0
 4017              	.LLST21:
 4018 05f7 BC000000 		.4byte	.LVL41
 4019 05fb CE000000 		.4byte	.LVL44
 4020 05ff 0100     		.2byte	0x1
 4021 0601 51       		.byte	0x51
 4022 0602 DC000000 		.4byte	.LVL47
 4023 0606 E0000000 		.4byte	.LVL49
 4024 060a 0100     		.2byte	0x1
 4025 060c 51       		.byte	0x51
 4026 060d 00000000 		.4byte	0
 4027 0611 00000000 		.4byte	0
 4028              	.LLST22:
 4029 0615 40020000 		.4byte	.LVL89
 4030 0619 8C020000 		.4byte	.LVL101
 4031 061d 0200     		.2byte	0x2
 4032 061f 90       		.byte	0x90
 4033 0620 50       		.uleb128 0x50
 4034 0621 00000000 		.4byte	0
 4035 0625 00000000 		.4byte	0
 4036              	.LLST23:
 4037 0629 CA000000 		.4byte	.LVL43
 4038 062d CE000000 		.4byte	.LVL44
 4039 0631 0200     		.2byte	0x2
 4040 0633 3A       		.byte	0x3a
 4041 0634 9F       		.byte	0x9f
 4042 0635 00000000 		.4byte	0
 4043 0639 00000000 		.4byte	0
 4044              	.LLST24:
 4045 063d CA000000 		.4byte	.LVL43
 4046 0641 CE000000 		.4byte	.LVL44
ARM GAS  /tmp/ccFtBk3F.s 			page 72


 4047 0645 0100     		.2byte	0x1
 4048 0647 51       		.byte	0x51
 4049 0648 00000000 		.4byte	0
 4050 064c 00000000 		.4byte	0
 4051              	.LLST25:
 4052 0650 CA000000 		.4byte	.LVL43
 4053 0654 CE000000 		.4byte	.LVL44
 4054 0658 0100     		.2byte	0x1
 4055 065a 50       		.byte	0x50
 4056 065b 00000000 		.4byte	0
 4057 065f 00000000 		.4byte	0
 4058              	.LLST26:
 4059 0663 DC000000 		.4byte	.LVL47
 4060 0667 DE000000 		.4byte	.LVL48
 4061 066b 0600     		.2byte	0x6
 4062 066d 72       		.byte	0x72
 4063 066e 00       		.sleb128 0
 4064 066f 08       		.byte	0x8
 4065 0670 FF       		.byte	0xff
 4066 0671 1A       		.byte	0x1a
 4067 0672 9F       		.byte	0x9f
 4068 0673 00000000 		.4byte	0
 4069 0677 00000000 		.4byte	0
 4070              	.LLST27:
 4071 067b DC000000 		.4byte	.LVL47
 4072 067f DE000000 		.4byte	.LVL48
 4073 0683 0100     		.2byte	0x1
 4074 0685 51       		.byte	0x51
 4075 0686 00000000 		.4byte	0
 4076 068a 00000000 		.4byte	0
 4077              	.LLST28:
 4078 068e DC000000 		.4byte	.LVL47
 4079 0692 DE000000 		.4byte	.LVL48
 4080 0696 0400     		.2byte	0x4
 4081 0698 91       		.byte	0x91
 4082 0699 B87F     		.sleb128 -72
 4083 069b 9F       		.byte	0x9f
 4084 069c 00000000 		.4byte	0
 4085 06a0 00000000 		.4byte	0
 4086              	.LLST29:
 4087 06a4 42020000 		.4byte	.LVL90
 4088 06a8 4C020000 		.4byte	.LVL93
 4089 06ac 0A00     		.2byte	0xa
 4090 06ae 79       		.byte	0x79
 4091 06af 00       		.sleb128 0
 4092 06b0 32       		.byte	0x32
 4093 06b1 24       		.byte	0x24
 4094 06b2 03       		.byte	0x3
 4095 06b3 00000000 		.4byte	.LANCHOR0
 4096 06b7 22       		.byte	0x22
 4097 06b8 4C020000 		.4byte	.LVL93
 4098 06bc 8C020000 		.4byte	.LVL101
 4099 06c0 0300     		.2byte	0x3
 4100 06c2 91       		.byte	0x91
 4101 06c3 AC7F     		.sleb128 -84
 4102 06c5 00000000 		.4byte	0
 4103 06c9 00000000 		.4byte	0
ARM GAS  /tmp/ccFtBk3F.s 			page 73


 4104              	.LLST30:
 4105 06cd 42020000 		.4byte	.LVL90
 4106 06d1 66020000 		.4byte	.LVL97
 4107 06d5 0600     		.2byte	0x6
 4108 06d7 5A       		.byte	0x5a
 4109 06d8 93       		.byte	0x93
 4110 06d9 04       		.uleb128 0x4
 4111 06da 5B       		.byte	0x5b
 4112 06db 93       		.byte	0x93
 4113 06dc 04       		.uleb128 0x4
 4114 06dd 00000000 		.4byte	0
 4115 06e1 00000000 		.4byte	0
 4116              	.LLST31:
 4117 06e5 40020000 		.4byte	.LVL89
 4118 06e9 46020000 		.4byte	.LVL91
 4119 06ed 0100     		.2byte	0x1
 4120 06ef 53       		.byte	0x53
 4121 06f0 46020000 		.4byte	.LVL91
 4122 06f4 49020000 		.4byte	.LVL92-1
 4123 06f8 0100     		.2byte	0x1
 4124 06fa 50       		.byte	0x50
 4125 06fb 49020000 		.4byte	.LVL92-1
 4126 06ff 4A020000 		.4byte	.LVL92
 4127 0703 0300     		.2byte	0x3
 4128 0705 91       		.byte	0x91
 4129 0706 B47F     		.sleb128 -76
 4130 0708 4A020000 		.4byte	.LVL92
 4131 070c 52020000 		.4byte	.LVL94
 4132 0710 0300     		.2byte	0x3
 4133 0712 70       		.byte	0x70
 4134 0713 01       		.sleb128 1
 4135 0714 9F       		.byte	0x9f
 4136 0715 52020000 		.4byte	.LVL94
 4137 0719 8C020000 		.4byte	.LVL101
 4138 071d 0100     		.2byte	0x1
 4139 071f 59       		.byte	0x59
 4140 0720 00000000 		.4byte	0
 4141 0724 00000000 		.4byte	0
 4142              	.LLST32:
 4143 0728 42020000 		.4byte	.LVL90
 4144 072c 49020000 		.4byte	.LVL92-1
 4145 0730 0100     		.2byte	0x1
 4146 0732 51       		.byte	0x51
 4147 0733 49020000 		.4byte	.LVL92-1
 4148 0737 7A020000 		.4byte	.LVL99
 4149 073b 0300     		.2byte	0x3
 4150 073d 91       		.byte	0x91
 4151 073e B07F     		.sleb128 -80
 4152 0740 7A020000 		.4byte	.LVL99
 4153 0744 7D020000 		.4byte	.LVL100-1
 4154 0748 0800     		.2byte	0x8
 4155 074a F5       		.byte	0xf5
 4156 074b 00       		.uleb128 0
 4157 074c 25       		.uleb128 0x25
 4158 074d F7       		.byte	0xf7
 4159 074e 2C       		.uleb128 0x2c
 4160 074f F7       		.byte	0xf7
ARM GAS  /tmp/ccFtBk3F.s 			page 74


 4161 0750 00       		.uleb128 0
 4162 0751 9F       		.byte	0x9f
 4163 0752 00000000 		.4byte	0
 4164 0756 00000000 		.4byte	0
 4165              	.LLST33:
 4166 075a 00000000 		.4byte	.LVL109
 4167 075e 0F000000 		.4byte	.LVL110-1
 4168 0762 0100     		.2byte	0x1
 4169 0764 50       		.byte	0x50
 4170 0765 0F000000 		.4byte	.LVL110-1
 4171 0769 1A000000 		.4byte	.LFE281
 4172 076d 0400     		.2byte	0x4
 4173 076f F3       		.byte	0xf3
 4174 0770 01       		.uleb128 0x1
 4175 0771 50       		.byte	0x50
 4176 0772 9F       		.byte	0x9f
 4177 0773 00000000 		.4byte	0
 4178 0777 00000000 		.4byte	0
 4179              	.LLST34:
 4180 077b 00000000 		.4byte	.LVL111
 4181 077f 14000000 		.4byte	.LVL115
 4182 0783 0100     		.2byte	0x1
 4183 0785 50       		.byte	0x50
 4184 0786 14000000 		.4byte	.LVL115
 4185 078a 38000000 		.4byte	.LVL120
 4186 078e 0100     		.2byte	0x1
 4187 0790 55       		.byte	0x55
 4188 0791 38000000 		.4byte	.LVL120
 4189 0795 3C000000 		.4byte	.LFE282
 4190 0799 0400     		.2byte	0x4
 4191 079b F3       		.byte	0xf3
 4192 079c 01       		.uleb128 0x1
 4193 079d 50       		.byte	0x50
 4194 079e 9F       		.byte	0x9f
 4195 079f 00000000 		.4byte	0
 4196 07a3 00000000 		.4byte	0
 4197              	.LLST35:
 4198 07a7 00000000 		.4byte	.LVL111
 4199 07ab 16000000 		.4byte	.LVL116
 4200 07af 0100     		.2byte	0x1
 4201 07b1 51       		.byte	0x51
 4202 07b2 16000000 		.4byte	.LVL116
 4203 07b6 38000000 		.4byte	.LVL120
 4204 07ba 0100     		.2byte	0x1
 4205 07bc 54       		.byte	0x54
 4206 07bd 38000000 		.4byte	.LVL120
 4207 07c1 3C000000 		.4byte	.LFE282
 4208 07c5 0400     		.2byte	0x4
 4209 07c7 F3       		.byte	0xf3
 4210 07c8 01       		.uleb128 0x1
 4211 07c9 51       		.byte	0x51
 4212 07ca 9F       		.byte	0x9f
 4213 07cb 00000000 		.4byte	0
 4214 07cf 00000000 		.4byte	0
 4215              	.LLST36:
 4216 07d3 1C000000 		.4byte	.LVL117
 4217 07d7 20000000 		.4byte	.LVL118
ARM GAS  /tmp/ccFtBk3F.s 			page 75


 4218 07db 0300     		.2byte	0x3
 4219 07dd 91       		.byte	0x91
 4220 07de 44       		.sleb128 -60
 4221 07df 9F       		.byte	0x9f
 4222 07e0 20000000 		.4byte	.LVL118
 4223 07e4 27000000 		.4byte	.LVL119-1
 4224 07e8 0100     		.2byte	0x1
 4225 07ea 50       		.byte	0x50
 4226 07eb 27000000 		.4byte	.LVL119-1
 4227 07ef 3C000000 		.4byte	.LFE282
 4228 07f3 0300     		.2byte	0x3
 4229 07f5 91       		.byte	0x91
 4230 07f6 44       		.sleb128 -60
 4231 07f7 9F       		.byte	0x9f
 4232 07f8 00000000 		.4byte	0
 4233 07fc 00000000 		.4byte	0
 4234              	.LLST37:
 4235 0800 0E000000 		.4byte	.LVL112
 4236 0804 10000000 		.4byte	.LVL113
 4237 0808 0100     		.2byte	0x1
 4238 080a 52       		.byte	0x52
 4239 080b 12000000 		.4byte	.LVL114
 4240 080f 1B000000 		.4byte	.LVL117-1
 4241 0813 0100     		.2byte	0x1
 4242 0815 52       		.byte	0x52
 4243 0816 00000000 		.4byte	0
 4244 081a 00000000 		.4byte	0
 4245              		.section	.debug_aranges,"",%progbits
 4246 0000 34000000 		.4byte	0x34
 4247 0004 0200     		.2byte	0x2
 4248 0006 00000000 		.4byte	.Ldebug_info0
 4249 000a 04       		.byte	0x4
 4250 000b 00       		.byte	0
 4251 000c 0000     		.2byte	0
 4252 000e 0000     		.2byte	0
 4253 0010 00000000 		.4byte	.LFB277
 4254 0014 44000000 		.4byte	.LFE277-.LFB277
 4255 0018 00000000 		.4byte	.LFB280
 4256 001c D8020000 		.4byte	.LFE280-.LFB280
 4257 0020 00000000 		.4byte	.LFB281
 4258 0024 1A000000 		.4byte	.LFE281-.LFB281
 4259 0028 00000000 		.4byte	.LFB282
 4260 002c 3C000000 		.4byte	.LFE282-.LFB282
 4261 0030 00000000 		.4byte	0
 4262 0034 00000000 		.4byte	0
 4263              		.section	.debug_ranges,"",%progbits
 4264              	.Ldebug_ranges0:
 4265 0000 12020000 		.4byte	.LBB12
 4266 0004 34020000 		.4byte	.LBE12
 4267 0008 36020000 		.4byte	.LBB16
 4268 000c 3C020000 		.4byte	.LBE16
 4269 0010 42020000 		.4byte	.LBB17
 4270 0014 8C020000 		.4byte	.LBE17
 4271 0018 00000000 		.4byte	0
 4272 001c 00000000 		.4byte	0
 4273 0020 00000000 		.4byte	.LFB277
 4274 0024 44000000 		.4byte	.LFE277
ARM GAS  /tmp/ccFtBk3F.s 			page 76


 4275 0028 00000000 		.4byte	.LFB280
 4276 002c D8020000 		.4byte	.LFE280
 4277 0030 00000000 		.4byte	.LFB281
 4278 0034 1A000000 		.4byte	.LFE281
 4279 0038 00000000 		.4byte	.LFB282
 4280 003c 3C000000 		.4byte	.LFE282
 4281 0040 00000000 		.4byte	0
 4282 0044 00000000 		.4byte	0
 4283              		.section	.debug_line,"",%progbits
 4284              	.Ldebug_line0:
 4285 0000 D2030000 		.section	.debug_str,"MS",%progbits,1
 4285      02007202 
 4285      00000201 
 4285      FB0E0D00 
 4285      01010101 
 4286              	.LASF55:
 4287 0000 72656164 		.ascii	"ready_list_t\000"
 4287      795F6C69 
 4287      73745F74 
 4287      00
 4288              	.LASF3:
 4289 000d 73697A65 		.ascii	"size_t\000"
 4289      5F7400
 4290              	.LASF61:
 4291 0014 64656C74 		.ascii	"delta\000"
 4291      6100
 4292              	.LASF18:
 4293 001a 75696E74 		.ascii	"uint64_t\000"
 4293      36345F74 
 4293      00
 4294              	.LASF74:
 4295 0023 6B65726E 		.ascii	"kernel_stats\000"
 4295      656C5F73 
 4295      74617473 
 4295      00
 4296              	.LASF4:
 4297 0030 5F5F7569 		.ascii	"__uint8_t\000"
 4297      6E74385F 
 4297      7400
 4298              	.LASF54:
 4299 003a 70726576 		.ascii	"prev\000"
 4299      00
 4300              	.LASF79:
 4301 003f 706F7274 		.ascii	"port_intctx\000"
 4301      5F696E74 
 4301      63747800 
 4302              	.LASF113:
 4303 004b 76615F6C 		.ascii	"va_list\000"
 4303      69737400 
 4304              	.LASF66:
 4305 0053 73797374 		.ascii	"system_debug_t\000"
 4305      656D5F64 
 4305      65627567 
 4305      5F7400
 4306              	.LASF121:
 4307 0062 66746F61 		.ascii	"ftoa\000"
 4307      00
ARM GAS  /tmp/ccFtBk3F.s 			page 77


 4308              	.LASF83:
 4309 0067 776F7273 		.ascii	"worst\000"
 4309      7400
 4310              	.LASF86:
 4311 006d 74696D65 		.ascii	"time_measurement_t\000"
 4311      5F6D6561 
 4311      73757265 
 4311      6D656E74 
 4311      5F7400
 4312              	.LASF133:
 4313 0080 73697A65 		.ascii	"size_wo_nul\000"
 4313      5F776F5F 
 4313      6E756C00 
 4314              	.LASF14:
 4315 008c 6C6F6E67 		.ascii	"long long unsigned int\000"
 4315      206C6F6E 
 4315      6720756E 
 4315      7369676E 
 4315      65642069 
 4316              	.LASF131:
 4317 00a3 666F726D 		.ascii	"formatted_bytes\000"
 4317      61747465 
 4317      645F6279 
 4317      74657300 
 4318              	.LASF93:
 4319 00b3 65786974 		.ascii	"exitcode\000"
 4319      636F6465 
 4319      00
 4320              	.LASF73:
 4321 00bc 6D61696E 		.ascii	"mainthread\000"
 4321      74687265 
 4321      616400
 4322              	.LASF96:
 4323 00c7 73656E74 		.ascii	"sentmsg\000"
 4323      6D736700 
 4324              	.LASF63:
 4325 00cf 76697274 		.ascii	"virtual_timers_list_t\000"
 4325      75616C5F 
 4325      74696D65 
 4325      72735F6C 
 4325      6973745F 
 4326              	.LASF136:
 4327 00e5 49544D5F 		.ascii	"ITM_RxBuffer\000"
 4327      52784275 
 4327      66666572 
 4327      00
 4328              	.LASF62:
 4329 00f2 66756E63 		.ascii	"func\000"
 4329      00
 4330              	.LASF51:
 4331 00f7 6E657874 		.ascii	"next\000"
 4331      00
 4332              	.LASF20:
 4333 00fc 72747469 		.ascii	"rttime_t\000"
 4333      6D655F74 
 4333      00
 4334              	.LASF12:
ARM GAS  /tmp/ccFtBk3F.s 			page 78


 4335 0105 6C6F6E67 		.ascii	"long long int\000"
 4335      206C6F6E 
 4335      6720696E 
 4335      7400
 4336              	.LASF2:
 4337 0113 7369676E 		.ascii	"signed char\000"
 4337      65642063 
 4337      68617200 
 4338              	.LASF11:
 4339 011f 6C6F6E67 		.ascii	"long unsigned int\000"
 4339      20756E73 
 4339      69676E65 
 4339      6420696E 
 4339      7400
 4340              	.LASF116:
 4341 0131 73697A65 		.ascii	"size\000"
 4341      00
 4342              	.LASF127:
 4343 0136 746D7062 		.ascii	"tmpbuf\000"
 4343      756600
 4344              	.LASF41:
 4345 013d 6D736771 		.ascii	"msgqueue\000"
 4345      75657565 
 4345      00
 4346              	.LASF37:
 4347 0146 73746174 		.ascii	"state\000"
 4347      6500
 4348              	.LASF9:
 4349 014c 6C6F6E67 		.ascii	"long int\000"
 4349      20696E74 
 4349      00
 4350              	.LASF22:
 4351 0155 74737461 		.ascii	"tstate_t\000"
 4351      74655F74 
 4351      00
 4352              	.LASF111:
 4353 015e 5F5F7661 		.ascii	"__va_list\000"
 4353      5F6C6973 
 4353      7400
 4354              	.LASF46:
 4355 0168 73746174 		.ascii	"stats\000"
 4355      7300
 4356              	.LASF134:
 4357 016e 72657476 		.ascii	"retval\000"
 4357      616C00
 4358              	.LASF115:
 4359 0175 62756666 		.ascii	"buffer\000"
 4359      657200
 4360              	.LASF10:
 4361 017c 5F5F7569 		.ascii	"__uint32_t\000"
 4361      6E743332 
 4361      5F7400
 4362              	.LASF76:
 4363 0187 72656761 		.ascii	"regarm_t\000"
 4363      726D5F74 
 4363      00
 4364              	.LASF72:
ARM GAS  /tmp/ccFtBk3F.s 			page 79


 4365 0190 76746C69 		.ascii	"vtlist\000"
 4365      737400
 4366              	.LASF123:
 4367 0197 66696C6C 		.ascii	"filler\000"
 4367      657200
 4368              	.LASF40:
 4369 019e 77616974 		.ascii	"waiting\000"
 4369      696E6700 
 4370              	.LASF125:
 4371 01a6 69735F6C 		.ascii	"is_long\000"
 4371      6F6E6700 
 4372              	.LASF104:
 4373 01ae 6D757465 		.ascii	"mutex_t\000"
 4373      785F7400 
 4374              	.LASF109:
 4375 01b6 42617365 		.ascii	"BaseSequentialStream\000"
 4375      53657175 
 4375      656E7469 
 4375      616C5374 
 4375      7265616D 
 4376              	.LASF27:
 4377 01cb 636E745F 		.ascii	"cnt_t\000"
 4377      7400
 4378              	.LASF1:
 4379 01d1 756E7369 		.ascii	"unsigned int\000"
 4379      676E6564 
 4379      20696E74 
 4379      00
 4380              	.LASF137:
 4381 01de 474E5520 		.ascii	"GNU C 4.9.3 20150529 (prerelease) -mcpu=cortex-m4 -"
 4381      4320342E 
 4381      392E3320 
 4381      32303135 
 4381      30353239 
 4382 0211 6D666C6F 		.ascii	"mfloat-abi=hard -mfpu=fpv4-sp-d16 -mno-thumb-interw"
 4382      61742D61 
 4382      62693D68 
 4382      61726420 
 4382      2D6D6670 
 4383 0244 6F726B20 		.ascii	"ork -mthumb -g -Os -fomit-frame-pointer -falign-fun"
 4383      2D6D7468 
 4383      756D6220 
 4383      2D67202D 
 4383      4F73202D 
 4384 0277 6374696F 		.ascii	"ctions=16 -ffunction-sections -fdata-sections -fno-"
 4384      6E733D31 
 4384      36202D66 
 4384      66756E63 
 4384      74696F6E 
 4385 02aa 636F6D6D 		.ascii	"common -fsingle-precision-constant\000"
 4385      6F6E202D 
 4385      6673696E 
 4385      676C652D 
 4385      70726563 
 4386              	.LASF139:
 4387 02cd 2F686F6D 		.ascii	"/home/kozinalexey/f4by/ardupilot/build/f4by-ch\000"
 4387      652F6B6F 
ARM GAS  /tmp/ccFtBk3F.s 			page 80


 4387      7A696E61 
 4387      6C657865 
 4387      792F6634 
 4388              	.LASF97:
 4389 02fc 77747365 		.ascii	"wtsemp\000"
 4389      6D7000
 4390              	.LASF95:
 4391 0303 77747472 		.ascii	"wttrp\000"
 4391      7000
 4392              	.LASF126:
 4393 0309 6C656674 		.ascii	"left_align\000"
 4393      5F616C69 
 4393      676E00
 4394              	.LASF87:
 4395 0314 6E5F6972 		.ascii	"n_irq\000"
 4395      7100
 4396              	.LASF31:
 4397 031a 71756575 		.ascii	"queue\000"
 4397      6500
 4398              	.LASF124:
 4399 0320 77696474 		.ascii	"width\000"
 4399      6800
 4400              	.LASF45:
 4401 0326 6D706F6F 		.ascii	"mpool\000"
 4401      6C00
 4402              	.LASF7:
 4403 032c 73686F72 		.ascii	"short unsigned int\000"
 4403      7420756E 
 4403      7369676E 
 4403      65642069 
 4403      6E7400
 4404              	.LASF91:
 4405 033f 6B65726E 		.ascii	"kernel_stats_t\000"
 4405      656C5F73 
 4405      74617473 
 4405      5F7400
 4406              	.LASF35:
 4407 034e 6E616D65 		.ascii	"name\000"
 4407      00
 4408              	.LASF49:
 4409 0353 63685F74 		.ascii	"ch_thread\000"
 4409      68726561 
 4409      6400
 4410              	.LASF25:
 4411 035d 6D73675F 		.ascii	"msg_t\000"
 4411      7400
 4412              	.LASF84:
 4413 0363 6C617374 		.ascii	"last\000"
 4413      00
 4414              	.LASF28:
 4415 0368 75636E74 		.ascii	"ucnt_t\000"
 4415      5F7400
 4416              	.LASF42:
 4417 036f 6570656E 		.ascii	"epending\000"
 4417      64696E67 
 4417      00
 4418              	.LASF108:
ARM GAS  /tmp/ccFtBk3F.s 			page 81


 4419 0378 72656164 		.ascii	"read\000"
 4419      00
 4420              	.LASF138:
 4421 037d 2E2E2F2E 		.ascii	"../../modules/ChibiOS/os/hal/lib/streams/chprintf.c"
 4421      2E2F6D6F 
 4421      64756C65 
 4421      732F4368 
 4421      6962694F 
 4422 03b0 00       		.ascii	"\000"
 4423              	.LASF90:
 4424 03b1 6D5F6372 		.ascii	"m_crit_isr\000"
 4424      69745F69 
 4424      737200
 4425              	.LASF56:
 4426 03bc 63685F72 		.ascii	"ch_ready_list\000"
 4426      65616479 
 4426      5F6C6973 
 4426      7400
 4427              	.LASF26:
 4428 03ca 6576656E 		.ascii	"eventmask_t\000"
 4428      746D6173 
 4428      6B5F7400 
 4429              	.LASF8:
 4430 03d6 5F5F696E 		.ascii	"__int32_t\000"
 4430      7433325F 
 4430      7400
 4431              	.LASF77:
 4432 03e0 73746B61 		.ascii	"stkalign_t\000"
 4432      6C69676E 
 4432      5F7400
 4433              	.LASF33:
 4434 03eb 6E657765 		.ascii	"newer\000"
 4434      7200
 4435              	.LASF142:
 4436 03f1 6D734F62 		.ascii	"msObjectInit\000"
 4436      6A656374 
 4436      496E6974 
 4436      00
 4437              	.LASF107:
 4438 03fe 77726974 		.ascii	"write\000"
 4438      6500
 4439              	.LASF44:
 4440 0404 7265616C 		.ascii	"realprio\000"
 4440      7072696F 
 4440      00
 4441              	.LASF75:
 4442 040d 73697A65 		.ascii	"sizetype\000"
 4442      74797065 
 4442      00
 4443              	.LASF47:
 4444 0416 74687265 		.ascii	"thread_reference_t\000"
 4444      61645F72 
 4444      65666572 
 4444      656E6365 
 4444      5F7400
 4445              	.LASF64:
 4446 0429 63685F76 		.ascii	"ch_virtual_timers_list\000"
ARM GAS  /tmp/ccFtBk3F.s 			page 82


 4446      69727475 
 4446      616C5F74 
 4446      696D6572 
 4446      735F6C69 
 4447              	.LASF141:
 4448 0440 756E7369 		.ascii	"unsigned_common\000"
 4448      676E6564 
 4448      5F636F6D 
 4448      6D6F6E00 
 4449              	.LASF119:
 4450 0450 64697669 		.ascii	"divisor\000"
 4450      736F7200 
 4451              	.LASF110:
 4452 0458 5F5F676E 		.ascii	"__gnuc_va_list\000"
 4452      75635F76 
 4452      615F6C69 
 4452      737400
 4453              	.LASF78:
 4454 0467 706F7274 		.ascii	"port_context\000"
 4454      5F636F6E 
 4454      74657874 
 4454      00
 4455              	.LASF81:
 4456 0474 746D5F63 		.ascii	"tm_calibration_t\000"
 4456      616C6962 
 4456      72617469 
 4456      6F6E5F74 
 4456      00
 4457              	.LASF32:
 4458 0485 7072696F 		.ascii	"prio\000"
 4458      00
 4459              	.LASF57:
 4460 048a 63757272 		.ascii	"current\000"
 4460      656E7400 
 4461              	.LASF114:
 4462 0492 4D656D53 		.ascii	"MemStreamVMT\000"
 4462      74726561 
 4462      6D564D54 
 4462      00
 4463              	.LASF13:
 4464 049f 5F5F7569 		.ascii	"__uint64_t\000"
 4464      6E743634 
 4464      5F7400
 4465              	.LASF85:
 4466 04aa 63756D75 		.ascii	"cumulative\000"
 4466      6C617469 
 4466      766500
 4467              	.LASF128:
 4468 04b5 666C6F61 		.ascii	"float\000"
 4468      7400
 4469              	.LASF39:
 4470 04bb 72656673 		.ascii	"refs\000"
 4470      00
 4471              	.LASF59:
 4472 04c0 76697274 		.ascii	"virtual_timer_t\000"
 4472      75616C5F 
 4472      74696D65 
ARM GAS  /tmp/ccFtBk3F.s 			page 83


 4472      725F7400 
 4473              	.LASF24:
 4474 04d0 74707269 		.ascii	"tprio_t\000"
 4474      6F5F7400 
 4475              	.LASF117:
 4476 04d8 4D656D6F 		.ascii	"MemoryStream\000"
 4476      72795374 
 4476      7265616D 
 4476      00
 4477              	.LASF88:
 4478 04e5 6E5F6374 		.ascii	"n_ctxswc\000"
 4478      78737763 
 4478      00
 4479              	.LASF105:
 4480 04ee 5F426F6F 		.ascii	"_Bool\000"
 4480      6C00
 4481              	.LASF16:
 4482 04f4 696E7433 		.ascii	"int32_t\000"
 4482      325F7400 
 4483              	.LASF5:
 4484 04fc 756E7369 		.ascii	"unsigned char\000"
 4484      676E6564 
 4484      20636861 
 4484      7200
 4485              	.LASF135:
 4486 050a 706F7731 		.ascii	"pow10\000"
 4486      3000
 4487              	.LASF6:
 4488 0510 73686F72 		.ascii	"short int\000"
 4488      7420696E 
 4488      7400
 4489              	.LASF65:
 4490 051a 6C617374 		.ascii	"lasttime\000"
 4490      74696D65 
 4490      00
 4491              	.LASF99:
 4492 0523 65776D61 		.ascii	"ewmask\000"
 4492      736B00
 4493              	.LASF70:
 4494 052a 63685F73 		.ascii	"ch_system\000"
 4494      79737465 
 4494      6D00
 4495              	.LASF106:
 4496 0534 42617365 		.ascii	"BaseSequentialStreamVMT\000"
 4496      53657175 
 4496      656E7469 
 4496      616C5374 
 4496      7265616D 
 4497              	.LASF118:
 4498 054c 72616469 		.ascii	"radix\000"
 4498      7800
 4499              	.LASF92:
 4500 0552 7264796D 		.ascii	"rdymsg\000"
 4500      736700
 4501              	.LASF60:
 4502 0559 63685F76 		.ascii	"ch_virtual_timer\000"
 4502      69727475 
ARM GAS  /tmp/ccFtBk3F.s 			page 84


 4502      616C5F74 
 4502      696D6572 
 4502      00
 4503              	.LASF100:
 4504 056a 63685F73 		.ascii	"ch_semaphore\000"
 4504      656D6170 
 4504      686F7265 
 4504      00
 4505              	.LASF17:
 4506 0577 75696E74 		.ascii	"uint32_t\000"
 4506      33325F74 
 4506      00
 4507              	.LASF98:
 4508 0580 77746D74 		.ascii	"wtmtxp\000"
 4508      787000
 4509              	.LASF50:
 4510 0587 63685F74 		.ascii	"ch_threads_list\000"
 4510      68726561 
 4510      64735F6C 
 4510      69737400 
 4511              	.LASF102:
 4512 0597 6F776E65 		.ascii	"owner\000"
 4512      7200
 4513              	.LASF132:
 4514 059d 6368736E 		.ascii	"chsnprintf\000"
 4514      7072696E 
 4514      746600
 4515              	.LASF36:
 4516 05a8 77616261 		.ascii	"wabase\000"
 4516      736500
 4517              	.LASF103:
 4518 05af 63686172 		.ascii	"char\000"
 4518      00
 4519              	.LASF34:
 4520 05b4 6F6C6465 		.ascii	"older\000"
 4520      7200
 4521              	.LASF122:
 4522 05ba 70726563 		.ascii	"precision\000"
 4522      6973696F 
 4522      6E00
 4523              	.LASF30:
 4524 05c4 74687265 		.ascii	"thread_t\000"
 4524      61645F74 
 4524      00
 4525              	.LASF82:
 4526 05cd 62657374 		.ascii	"best\000"
 4526      00
 4527              	.LASF29:
 4528 05d2 73797374 		.ascii	"systime_t\000"
 4528      696D655F 
 4528      7400
 4529              	.LASF58:
 4530 05dc 76746675 		.ascii	"vtfunc_t\000"
 4530      6E635F74 
 4530      00
 4531              	.LASF68:
 4532 05e5 70616E69 		.ascii	"panic_msg\000"
ARM GAS  /tmp/ccFtBk3F.s 			page 85


 4532      635F6D73 
 4532      6700
 4533              	.LASF80:
 4534 05ef 6F666673 		.ascii	"offset\000"
 4534      657400
 4535              	.LASF112:
 4536 05f6 5F5F6170 		.ascii	"__ap\000"
 4536      00
 4537              	.LASF69:
 4538 05fb 63685F73 		.ascii	"ch_system_t\000"
 4538      79737465 
 4538      6D5F7400 
 4539              	.LASF19:
 4540 0607 7274636E 		.ascii	"rtcnt_t\000"
 4540      745F7400 
 4541              	.LASF52:
 4542 060f 74687265 		.ascii	"threads_queue_t\000"
 4542      6164735F 
 4542      71756575 
 4542      655F7400 
 4543              	.LASF101:
 4544 061f 63685F6D 		.ascii	"ch_mutex\000"
 4544      75746578 
 4544      00
 4545              	.LASF23:
 4546 0628 74726566 		.ascii	"trefs_t\000"
 4546      735F7400 
 4547              	.LASF120:
 4548 0630 63685F6C 		.ascii	"ch_ltoa\000"
 4548      746F6100 
 4549              	.LASF71:
 4550 0638 726C6973 		.ascii	"rlist\000"
 4550      7400
 4551              	.LASF15:
 4552 063e 75696E74 		.ascii	"uint8_t\000"
 4552      385F7400 
 4553              	.LASF129:
 4554 0646 63687670 		.ascii	"chvprintf\000"
 4554      72696E74 
 4554      6600
 4555              	.LASF38:
 4556 0650 666C6167 		.ascii	"flags\000"
 4556      7300
 4557              	.LASF94:
 4558 0656 77746F62 		.ascii	"wtobjp\000"
 4558      6A7000
 4559              	.LASF140:
 4560 065d 6C6F6E67 		.ascii	"long_to_string_with_divisor\000"
 4560      5F746F5F 
 4560      73747269 
 4560      6E675F77 
 4560      6974685F 
 4561              	.LASF48:
 4562 0679 74687265 		.ascii	"threads_list_t\000"
 4562      6164735F 
 4562      6C697374 
 4562      5F7400
ARM GAS  /tmp/ccFtBk3F.s 			page 86


 4563              	.LASF21:
 4564 0688 746D6F64 		.ascii	"tmode_t\000"
 4564      655F7400 
 4565              	.LASF67:
 4566 0690 63685F73 		.ascii	"ch_system_debug\000"
 4566      79737465 
 4566      6D5F6465 
 4566      62756700 
 4567              	.LASF43:
 4568 06a0 6D74786C 		.ascii	"mtxlist\000"
 4568      69737400 
 4569              	.LASF89:
 4570 06a8 6D5F6372 		.ascii	"m_crit_thd\000"
 4570      69745F74 
 4570      686400
 4571              	.LASF0:
 4572 06b3 646F7562 		.ascii	"double\000"
 4572      6C6500
 4573              	.LASF53:
 4574 06ba 63685F74 		.ascii	"ch_threads_queue\000"
 4574      68726561 
 4574      64735F71 
 4574      75657565 
 4574      00
 4575              	.LASF130:
 4576 06cb 63687072 		.ascii	"chprintf\000"
 4576      696E7466 
 4576      00
 4577              		.ident	"GCC: (15:4.9.3+svn231177-1) 4.9.3 20150529 (prerelease)"
ARM GAS  /tmp/ccFtBk3F.s 			page 87


DEFINED SYMBOLS
                            *ABS*:0000000000000000 chprintf.c
     /tmp/ccFtBk3F.s:21     .text.long_to_string_with_divisor:0000000000000000 $t
     /tmp/ccFtBk3F.s:25     .text.long_to_string_with_divisor:0000000000000000 long_to_string_with_divisor
     /tmp/ccFtBk3F.s:104    .text.chvprintf:0000000000000000 $t
     /tmp/ccFtBk3F.s:109    .text.chvprintf:0000000000000000 chvprintf
     /tmp/ccFtBk3F.s:691    .text.chvprintf:00000000000002d0 $d
     /tmp/ccFtBk3F.s:697    .text.chprintf:0000000000000000 $t
     /tmp/ccFtBk3F.s:702    .text.chprintf:0000000000000000 chprintf
     /tmp/ccFtBk3F.s:742    .text.chsnprintf:0000000000000000 $t
     /tmp/ccFtBk3F.s:747    .text.chsnprintf:0000000000000000 chsnprintf
     /tmp/ccFtBk3F.s:827    .rodata.pow10:0000000000000000 $d
     /tmp/ccFtBk3F.s:831    .rodata.pow10:0000000000000000 pow10
                     .debug_frame:0000000000000010 $d

UNDEFINED SYMBOLS
__aeabi_d2f
__aeabi_f2d
__aeabi_i2d
__aeabi_dsub
__aeabi_ui2d
__aeabi_dmul
__aeabi_d2iz
msObjectInit
