ARM GAS  /tmp/ccKL1tXS.s 			page 1


   1              		.syntax unified
   2              		.cpu cortex-m4
   3              		.eabi_attribute 27, 1
   4              		.eabi_attribute 28, 1
   5              		.fpu fpv4-sp-d16
   6              		.eabi_attribute 20, 1
   7              		.eabi_attribute 21, 1
   8              		.eabi_attribute 23, 3
   9              		.eabi_attribute 24, 1
  10              		.eabi_attribute 25, 1
  11              		.eabi_attribute 26, 1
  12              		.eabi_attribute 30, 4
  13              		.eabi_attribute 34, 1
  14              		.eabi_attribute 18, 4
  15              		.thumb
  16              		.file	"chregistry.c"
  17              		.text
  18              	.Ltext0:
  19              		.cfi_sections	.debug_frame
  20              		.section	.text.chRegFirstThread,"ax",%progbits
  21              		.align	1
  22              		.global	chRegFirstThread
  23              		.thumb
  24              		.thumb_func
  25              		.type	chRegFirstThread, %function
  26              	chRegFirstThread:
  27              	.LFB246:
  28              		.file 1 "../../modules/ChibiOS/os/rt/src/chregistry.c"
  29              		.loc 1 134 0
  30              		.cfi_startproc
  31              		@ args = 0, pretend = 0, frame = 0
  32              		@ frame_needed = 0, uses_anonymous_args = 0
  33              	.LVL0:
  34 0000 10B5     		push	{r4, lr}
  35              		.cfi_def_cfa_offset 8
  36              		.cfi_offset 4, -8
  37              		.cfi_offset 14, -4
  38              	.LBB28:
  39              	.LBB29:
  40              	.LBB30:
  41              	.LBB31:
  42              	.LBB32:
  43              		.file 2 "../../modules/ChibiOS/os/common/ext/CMSIS/include/cmsis_gcc.h"
  44              		.loc 2 264 0
  45 0002 2023     		movs	r3, #32
  46              	@ 264 "../../modules/ChibiOS/os/common/ext/CMSIS/include/cmsis_gcc.h" 1
  47 0004 83F31188 		MSR basepri, r3
  48              	@ 0 "" 2
  49              		.thumb
  50              	.LBE32:
  51              	.LBE31:
  52              	.LBE30:
  53              		.file 3 "../../modules/ChibiOS/os/rt/include/chsys.h"
  54              		.loc 3 377 0
  55 0008 FFF7FEFF 		bl	_stats_start_measure_crit_thd
  56              	.LVL1:
  57              	.LBE29:
ARM GAS  /tmp/ccKL1tXS.s 			page 2


  58              	.LBE28:
  59              		.loc 1 138 0
  60 000c 064B     		ldr	r3, .L2
  61 000e 1C69     		ldr	r4, [r3, #16]
  62              	.LVL2:
  63              		.loc 1 140 0
  64 0010 94F82230 		ldrb	r3, [r4, #34]	@ zero_extendqisi2
  65 0014 0133     		adds	r3, r3, #1
  66 0016 84F82230 		strb	r3, [r4, #34]
  67              	.LBB33:
  68              	.LBB34:
  69              		.loc 3 389 0
  70 001a FFF7FEFF 		bl	_stats_stop_measure_crit_thd
  71              	.LVL3:
  72              	.LBB35:
  73              	.LBB36:
  74              	.LBB37:
  75              		.loc 2 264 0
  76 001e 0023     		movs	r3, #0
  77              	@ 264 "../../modules/ChibiOS/os/common/ext/CMSIS/include/cmsis_gcc.h" 1
  78 0020 83F31188 		MSR basepri, r3
  79              	@ 0 "" 2
  80              		.thumb
  81              	.LBE37:
  82              	.LBE36:
  83              	.LBE35:
  84              	.LBE34:
  85              	.LBE33:
  86              		.loc 1 145 0
  87 0024 2046     		mov	r0, r4
  88 0026 10BD     		pop	{r4, pc}
  89              	.LVL4:
  90              	.L3:
  91              		.align	2
  92              	.L2:
  93 0028 00000000 		.word	ch
  94              		.cfi_endproc
  95              	.LFE246:
  96              		.size	chRegFirstThread, .-chRegFirstThread
  97              		.section	.text.chRegNextThread,"ax",%progbits
  98              		.align	1
  99              		.global	chRegNextThread
 100              		.thumb
 101              		.thumb_func
 102              		.type	chRegNextThread, %function
 103              	chRegNextThread:
 104              	.LFB247:
 105              		.loc 1 158 0
 106              		.cfi_startproc
 107              		@ args = 0, pretend = 0, frame = 0
 108              		@ frame_needed = 0, uses_anonymous_args = 0
 109              	.LVL5:
 110 0000 38B5     		push	{r3, r4, r5, lr}
 111              		.cfi_def_cfa_offset 16
 112              		.cfi_offset 3, -16
 113              		.cfi_offset 4, -12
 114              		.cfi_offset 5, -8
ARM GAS  /tmp/ccKL1tXS.s 			page 3


 115              		.cfi_offset 14, -4
 116              		.loc 1 158 0
 117 0002 0546     		mov	r5, r0
 118              	.LBB48:
 119              	.LBB49:
 120              	.LBB50:
 121              	.LBB51:
 122              	.LBB52:
 123              		.loc 2 264 0
 124 0004 2023     		movs	r3, #32
 125              	@ 264 "../../modules/ChibiOS/os/common/ext/CMSIS/include/cmsis_gcc.h" 1
 126 0006 83F31188 		MSR basepri, r3
 127              	@ 0 "" 2
 128              		.thumb
 129              	.LBE52:
 130              	.LBE51:
 131              	.LBE50:
 132              		.loc 3 377 0
 133 000a FFF7FEFF 		bl	_stats_start_measure_crit_thd
 134              	.LVL6:
 135              	.LBE49:
 136              	.LBE48:
 137              		.loc 1 162 0
 138 000e 2C69     		ldr	r4, [r5, #16]
 139              	.LVL7:
 140              		.loc 1 164 0
 141 0010 094B     		ldr	r3, .L7
 142 0012 9C42     		cmp	r4, r3
 143              		.loc 1 171 0
 144 0014 1DBF     		ittte	ne
 145 0016 94F82230 		ldrbne	r3, [r4, #34]	@ zero_extendqisi2
 146 001a 0133     		addne	r3, r3, #1
 147 001c 84F82230 		strbne	r3, [r4, #34]
 148              		.loc 1 166 0
 149 0020 0024     		moveq	r4, #0
 150              	.LVL8:
 151              	.LBB53:
 152              	.LBB54:
 153              		.loc 3 389 0
 154 0022 FFF7FEFF 		bl	_stats_stop_measure_crit_thd
 155              	.LVL9:
 156              	.LBB55:
 157              	.LBB56:
 158              	.LBB57:
 159              		.loc 2 264 0
 160 0026 0023     		movs	r3, #0
 161              	@ 264 "../../modules/ChibiOS/os/common/ext/CMSIS/include/cmsis_gcc.h" 1
 162 0028 83F31188 		MSR basepri, r3
 163              	@ 0 "" 2
 164              		.thumb
 165              	.LBE57:
 166              	.LBE56:
 167              	.LBE55:
 168              	.LBE54:
 169              	.LBE53:
 170              		.loc 1 176 0
 171 002c 2846     		mov	r0, r5
ARM GAS  /tmp/ccKL1tXS.s 			page 4


 172 002e FFF7FEFF 		bl	chThdRelease
 173              	.LVL10:
 174              		.loc 1 180 0
 175 0032 2046     		mov	r0, r4
 176 0034 38BD     		pop	{r3, r4, r5, pc}
 177              	.LVL11:
 178              	.L8:
 179 0036 00BF     		.align	2
 180              	.L7:
 181 0038 00000000 		.word	ch
 182              		.cfi_endproc
 183              	.LFE247:
 184              		.size	chRegNextThread, .-chRegNextThread
 185              		.section	.text.chRegFindThreadByName,"ax",%progbits
 186              		.align	1
 187              		.global	chRegFindThreadByName
 188              		.thumb
 189              		.thumb_func
 190              		.type	chRegFindThreadByName, %function
 191              	chRegFindThreadByName:
 192              	.LFB248:
 193              		.loc 1 194 0
 194              		.cfi_startproc
 195              		@ args = 0, pretend = 0, frame = 0
 196              		@ frame_needed = 0, uses_anonymous_args = 0
 197              	.LVL12:
 198 0000 38B5     		push	{r3, r4, r5, lr}
 199              		.cfi_def_cfa_offset 16
 200              		.cfi_offset 3, -16
 201              		.cfi_offset 4, -12
 202              		.cfi_offset 5, -8
 203              		.cfi_offset 14, -4
 204              		.loc 1 194 0
 205 0002 0546     		mov	r5, r0
 206              		.loc 1 198 0
 207 0004 FFF7FEFF 		bl	chRegFirstThread
 208              	.LVL13:
 209 0008 0446     		mov	r4, r0
 210              	.LVL14:
 211              	.L11:
 212              		.loc 1 200 0
 213 000a A069     		ldr	r0, [r4, #24]
 214              	.LVL15:
 215 000c 2946     		mov	r1, r5
 216 000e FFF7FEFF 		bl	strcmp
 217              	.LVL16:
 218 0012 28B1     		cbz	r0, .L10
 219              		.loc 1 203 0
 220 0014 2046     		mov	r0, r4
 221 0016 FFF7FEFF 		bl	chRegNextThread
 222              	.LVL17:
 223              		.loc 1 204 0
 224 001a 0446     		mov	r4, r0
 225              	.LVL18:
 226 001c 0028     		cmp	r0, #0
 227 001e F4D1     		bne	.L11
 228              	.LVL19:
ARM GAS  /tmp/ccKL1tXS.s 			page 5


 229              	.L10:
 230              		.loc 1 207 0
 231 0020 2046     		mov	r0, r4
 232 0022 38BD     		pop	{r3, r4, r5, pc}
 233              		.cfi_endproc
 234              	.LFE248:
 235              		.size	chRegFindThreadByName, .-chRegFindThreadByName
 236              		.section	.text.chRegFindThreadByPointer,"ax",%progbits
 237              		.align	1
 238              		.global	chRegFindThreadByPointer
 239              		.thumb
 240              		.thumb_func
 241              		.type	chRegFindThreadByPointer, %function
 242              	chRegFindThreadByPointer:
 243              	.LFB249:
 244              		.loc 1 221 0
 245              		.cfi_startproc
 246              		@ args = 0, pretend = 0, frame = 0
 247              		@ frame_needed = 0, uses_anonymous_args = 0
 248              	.LVL20:
 249 0000 10B5     		push	{r4, lr}
 250              		.cfi_def_cfa_offset 8
 251              		.cfi_offset 4, -8
 252              		.cfi_offset 14, -4
 253              		.loc 1 221 0
 254 0002 0446     		mov	r4, r0
 255              		.loc 1 225 0
 256 0004 FFF7FEFF 		bl	chRegFirstThread
 257              	.LVL21:
 258              	.L18:
 259              		.loc 1 227 0
 260 0008 A042     		cmp	r0, r4
 261 000a 03D0     		beq	.L17
 262              		.loc 1 230 0
 263 000c FFF7FEFF 		bl	chRegNextThread
 264              	.LVL22:
 265              		.loc 1 231 0
 266 0010 0028     		cmp	r0, #0
 267 0012 F9D1     		bne	.L18
 268              	.L17:
 269              		.loc 1 234 0
 270 0014 10BD     		pop	{r4, pc}
 271              		.cfi_endproc
 272              	.LFE249:
 273              		.size	chRegFindThreadByPointer, .-chRegFindThreadByPointer
 274              		.section	.text.chRegFindThreadByWorkingArea,"ax",%progbits
 275              		.align	1
 276              		.global	chRegFindThreadByWorkingArea
 277              		.thumb
 278              		.thumb_func
 279              		.type	chRegFindThreadByWorkingArea, %function
 280              	chRegFindThreadByWorkingArea:
 281              	.LFB250:
 282              		.loc 1 250 0
 283              		.cfi_startproc
 284              		@ args = 0, pretend = 0, frame = 0
 285              		@ frame_needed = 0, uses_anonymous_args = 0
ARM GAS  /tmp/ccKL1tXS.s 			page 6


 286              	.LVL23:
 287 0000 10B5     		push	{r4, lr}
 288              		.cfi_def_cfa_offset 8
 289              		.cfi_offset 4, -8
 290              		.cfi_offset 14, -4
 291              		.loc 1 250 0
 292 0002 0446     		mov	r4, r0
 293              		.loc 1 254 0
 294 0004 FFF7FEFF 		bl	chRegFirstThread
 295              	.LVL24:
 296              	.L23:
 297              		.loc 1 256 0
 298 0008 C369     		ldr	r3, [r0, #28]
 299 000a A342     		cmp	r3, r4
 300 000c 03D0     		beq	.L22
 301              		.loc 1 259 0
 302 000e FFF7FEFF 		bl	chRegNextThread
 303              	.LVL25:
 304              		.loc 1 260 0
 305 0012 0028     		cmp	r0, #0
 306 0014 F8D1     		bne	.L23
 307              	.L22:
 308              		.loc 1 263 0
 309 0016 10BD     		pop	{r4, pc}
 310              		.cfi_endproc
 311              	.LFE250:
 312              		.size	chRegFindThreadByWorkingArea, .-chRegFindThreadByWorkingArea
 313              		.global	ch_debug
 314              		.section	.rodata.ch_debug,"a",%progbits
 315              		.align	1
 316              		.type	ch_debug, %object
 317              		.size	ch_debug, 22
 318              	ch_debug:
 319 0000 6D       		.byte	109
 320 0001 61       		.byte	97
 321 0002 69       		.byte	105
 322 0003 6E       		.byte	110
 323 0004 00       		.byte	0
 324 0005 16       		.byte	22
 325 0006 0020     		.short	8192
 326 0008 04       		.byte	4
 327 0009 04       		.byte	4
 328 000a 60       		.byte	96
 329 000b 08       		.byte	8
 330 000c 0C       		.byte	12
 331 000d 10       		.byte	16
 332 000e 14       		.byte	20
 333 000f 18       		.byte	24
 334 0010 1C       		.byte	28
 335 0011 20       		.byte	32
 336 0012 21       		.byte	33
 337 0013 22       		.byte	34
 338 0014 00       		.byte	0
 339 0015 00       		.byte	0
 340              		.text
 341              	.Letext0:
 342              		.file 4 "/usr/lib/gcc/arm-none-eabi/4.9.3/include/stddef.h"
ARM GAS  /tmp/ccKL1tXS.s 			page 7


 343              		.file 5 "/usr/include/newlib/machine/_default_types.h"
 344              		.file 6 "/usr/include/newlib/sys/_stdint.h"
 345              		.file 7 "../../modules/ChibiOS/os/common/ports/ARMCMx/compilers/GCC/chtypes.h"
 346              		.file 8 "../../modules/ChibiOS/os/rt/include/chsystypes.h"
 347              		.file 9 "../../modules/ChibiOS/os/rt/include/chschd.h"
 348              		.file 10 "../../modules/ChibiOS/os/common/ports/ARMCMx/chcore.h"
 349              		.file 11 "../../modules/ChibiOS/os/common/ports/ARMCMx/chcore_v7m.h"
 350              		.file 12 "../../modules/ChibiOS/os/rt/include/chtm.h"
 351              		.file 13 "../../modules/ChibiOS/os/rt/include/chstats.h"
 352              		.file 14 "../../modules/ChibiOS/os/rt/include/chsem.h"
 353              		.file 15 "../../modules/ChibiOS/os/rt/include/chmtx.h"
 354              		.file 16 "../../modules/ChibiOS/os/rt/include/chregistry.h"
 355              		.file 17 "../../modules/ChibiOS/os/rt/include/chthreads.h"
 356              		.file 18 "../../modules/ChibiOS/os/common/ext/CMSIS/include/core_cm4.h"
 357              		.file 19 "/usr/include/newlib/string.h"
 358              		.section	.debug_info,"",%progbits
 359              	.Ldebug_info0:
 360 0000 6E0C0000 		.4byte	0xc6e
 361 0004 0400     		.2byte	0x4
 362 0006 00000000 		.4byte	.Ldebug_abbrev0
 363 000a 04       		.byte	0x4
 364 000b 01       		.uleb128 0x1
 365 000c 52020000 		.4byte	.LASF145
 366 0010 01       		.byte	0x1
 367 0011 E6000000 		.4byte	.LASF146
 368 0015 64010000 		.4byte	.LASF147
 369 0019 00000000 		.4byte	.Ldebug_ranges0+0
 370 001d 00000000 		.4byte	0
 371 0021 00000000 		.4byte	.Ldebug_line0
 372 0025 02       		.uleb128 0x2
 373 0026 04       		.byte	0x4
 374 0027 05       		.byte	0x5
 375 0028 696E7400 		.ascii	"int\000"
 376 002c 03       		.uleb128 0x3
 377 002d 0D000000 		.4byte	.LASF2
 378 0031 04       		.byte	0x4
 379 0032 D4       		.byte	0xd4
 380 0033 37000000 		.4byte	0x37
 381 0037 04       		.uleb128 0x4
 382 0038 04       		.byte	0x4
 383 0039 07       		.byte	0x7
 384 003a 45020000 		.4byte	.LASF0
 385 003e 04       		.uleb128 0x4
 386 003f 01       		.byte	0x1
 387 0040 06       		.byte	0x6
 388 0041 2F010000 		.4byte	.LASF1
 389 0045 03       		.uleb128 0x3
 390 0046 37000000 		.4byte	.LASF3
 391 004a 05       		.byte	0x5
 392 004b 1D       		.byte	0x1d
 393 004c 50000000 		.4byte	0x50
 394 0050 04       		.uleb128 0x4
 395 0051 01       		.byte	0x1
 396 0052 08       		.byte	0x8
 397 0053 29050000 		.4byte	.LASF4
 398 0057 04       		.uleb128 0x4
 399 0058 02       		.byte	0x2
ARM GAS  /tmp/ccKL1tXS.s 			page 8


 400 0059 05       		.byte	0x5
 401 005a 4D050000 		.4byte	.LASF5
 402 005e 03       		.uleb128 0x3
 403 005f 3E060000 		.4byte	.LASF6
 404 0063 05       		.byte	0x5
 405 0064 2B       		.byte	0x2b
 406 0065 69000000 		.4byte	0x69
 407 0069 04       		.uleb128 0x4
 408 006a 02       		.byte	0x2
 409 006b 07       		.byte	0x7
 410 006c 93060000 		.4byte	.LASF7
 411 0070 03       		.uleb128 0x3
 412 0071 FE030000 		.4byte	.LASF8
 413 0075 05       		.byte	0x5
 414 0076 3F       		.byte	0x3f
 415 0077 7B000000 		.4byte	0x7b
 416 007b 04       		.uleb128 0x4
 417 007c 04       		.byte	0x4
 418 007d 05       		.byte	0x5
 419 007e AE010000 		.4byte	.LASF9
 420 0082 03       		.uleb128 0x3
 421 0083 00020000 		.4byte	.LASF10
 422 0087 05       		.byte	0x5
 423 0088 41       		.byte	0x41
 424 0089 8D000000 		.4byte	0x8d
 425 008d 04       		.uleb128 0x4
 426 008e 04       		.byte	0x4
 427 008f 07       		.byte	0x7
 428 0090 10060000 		.4byte	.LASF11
 429 0094 04       		.uleb128 0x4
 430 0095 08       		.byte	0x8
 431 0096 05       		.byte	0x5
 432 0097 21010000 		.4byte	.LASF12
 433 009b 03       		.uleb128 0x3
 434 009c CC040000 		.4byte	.LASF13
 435 00a0 05       		.byte	0x5
 436 00a1 5B       		.byte	0x5b
 437 00a2 A6000000 		.4byte	0xa6
 438 00a6 04       		.uleb128 0x4
 439 00a7 08       		.byte	0x8
 440 00a8 07       		.byte	0x7
 441 00a9 95000000 		.4byte	.LASF14
 442 00ad 04       		.uleb128 0x4
 443 00ae 04       		.byte	0x4
 444 00af 07       		.byte	0x7
 445 00b0 64040000 		.4byte	.LASF15
 446 00b4 05       		.uleb128 0x5
 447 00b5 04       		.byte	0x4
 448 00b6 04       		.uleb128 0x4
 449 00b7 01       		.byte	0x1
 450 00b8 08       		.byte	0x8
 451 00b9 29060000 		.4byte	.LASF16
 452 00bd 06       		.uleb128 0x6
 453 00be 04       		.byte	0x4
 454 00bf C3000000 		.4byte	0xc3
 455 00c3 07       		.uleb128 0x7
 456 00c4 B6000000 		.4byte	0xb6
ARM GAS  /tmp/ccKL1tXS.s 			page 9


 457 00c8 03       		.uleb128 0x3
 458 00c9 F6060000 		.4byte	.LASF17
 459 00cd 06       		.byte	0x6
 460 00ce 14       		.byte	0x14
 461 00cf 45000000 		.4byte	0x45
 462 00d3 03       		.uleb128 0x3
 463 00d4 41030000 		.4byte	.LASF18
 464 00d8 06       		.byte	0x6
 465 00d9 1A       		.byte	0x1a
 466 00da 5E000000 		.4byte	0x5e
 467 00de 03       		.uleb128 0x3
 468 00df 21050000 		.4byte	.LASF19
 469 00e3 06       		.byte	0x6
 470 00e4 1F       		.byte	0x1f
 471 00e5 70000000 		.4byte	0x70
 472 00e9 03       		.uleb128 0x3
 473 00ea D6050000 		.4byte	.LASF20
 474 00ee 06       		.byte	0x6
 475 00ef 20       		.byte	0x20
 476 00f0 82000000 		.4byte	0x82
 477 00f4 03       		.uleb128 0x3
 478 00f5 21000000 		.4byte	.LASF21
 479 00f9 06       		.byte	0x6
 480 00fa 26       		.byte	0x26
 481 00fb 9B000000 		.4byte	0x9b
 482 00ff 03       		.uleb128 0x3
 483 0100 B1060000 		.4byte	.LASF22
 484 0104 07       		.byte	0x7
 485 0105 39       		.byte	0x39
 486 0106 E9000000 		.4byte	0xe9
 487 010a 03       		.uleb128 0x3
 488 010b 18010000 		.4byte	.LASF23
 489 010f 07       		.byte	0x7
 490 0110 3A       		.byte	0x3a
 491 0111 F4000000 		.4byte	0xf4
 492 0115 03       		.uleb128 0x3
 493 0116 C8030000 		.4byte	.LASF24
 494 011a 07       		.byte	0x7
 495 011b 3C       		.byte	0x3c
 496 011c C8000000 		.4byte	0xc8
 497 0120 03       		.uleb128 0x3
 498 0121 B7010000 		.4byte	.LASF25
 499 0125 07       		.byte	0x7
 500 0126 3D       		.byte	0x3d
 501 0127 C8000000 		.4byte	0xc8
 502 012b 03       		.uleb128 0x3
 503 012c E2040000 		.4byte	.LASF26
 504 0130 07       		.byte	0x7
 505 0131 3E       		.byte	0x3e
 506 0132 C8000000 		.4byte	0xc8
 507 0136 03       		.uleb128 0x3
 508 0137 0A050000 		.4byte	.LASF27
 509 013b 07       		.byte	0x7
 510 013c 40       		.byte	0x40
 511 013d E9000000 		.4byte	0xe9
 512 0141 03       		.uleb128 0x3
 513 0142 99030000 		.4byte	.LASF28
ARM GAS  /tmp/ccKL1tXS.s 			page 10


 514 0146 07       		.byte	0x7
 515 0147 41       		.byte	0x41
 516 0148 DE000000 		.4byte	0xde
 517 014c 03       		.uleb128 0x3
 518 014d E9030000 		.4byte	.LASF29
 519 0151 07       		.byte	0x7
 520 0152 43       		.byte	0x43
 521 0153 E9000000 		.4byte	0xe9
 522 0157 03       		.uleb128 0x3
 523 0158 3F020000 		.4byte	.LASF30
 524 015c 07       		.byte	0x7
 525 015d 45       		.byte	0x45
 526 015e DE000000 		.4byte	0xde
 527 0162 03       		.uleb128 0x3
 528 0163 A4030000 		.4byte	.LASF31
 529 0167 07       		.byte	0x7
 530 0168 46       		.byte	0x46
 531 0169 E9000000 		.4byte	0xe9
 532 016d 03       		.uleb128 0x3
 533 016e 57060000 		.4byte	.LASF32
 534 0172 08       		.byte	0x8
 535 0173 33       		.byte	0x33
 536 0174 E9000000 		.4byte	0xe9
 537 0178 03       		.uleb128 0x3
 538 0179 49060000 		.4byte	.LASF33
 539 017d 08       		.byte	0x8
 540 017e 3F       		.byte	0x3f
 541 017f 83010000 		.4byte	0x183
 542 0183 08       		.uleb128 0x8
 543 0184 8A030000 		.4byte	.LASF52
 544 0188 60       		.byte	0x60
 545 0189 09       		.byte	0x9
 546 018a 9A       		.byte	0x9a
 547 018b 6E020000 		.4byte	0x26e
 548 018f 09       		.uleb128 0x9
 549 0190 66030000 		.4byte	.LASF34
 550 0194 09       		.byte	0x9
 551 0195 9B       		.byte	0x9b
 552 0196 A3020000 		.4byte	0x2a3
 553 019a 00       		.byte	0
 554 019b 09       		.uleb128 0x9
 555 019c BF040000 		.4byte	.LASF35
 556 01a0 09       		.byte	0x9
 557 01a1 9C       		.byte	0x9c
 558 01a2 36010000 		.4byte	0x136
 559 01a6 08       		.byte	0x8
 560 01a7 0A       		.uleb128 0xa
 561 01a8 63747800 		.ascii	"ctx\000"
 562 01ac 09       		.byte	0x9
 563 01ad 9D       		.byte	0x9d
 564 01ae 9F040000 		.4byte	0x49f
 565 01b2 0C       		.byte	0xc
 566 01b3 09       		.uleb128 0x9
 567 01b4 30040000 		.4byte	.LASF36
 568 01b8 09       		.byte	0x9
 569 01b9 9F       		.byte	0x9f
 570 01ba 79020000 		.4byte	0x279
ARM GAS  /tmp/ccKL1tXS.s 			page 11


 571 01be 10       		.byte	0x10
 572 01bf 09       		.uleb128 0x9
 573 01c0 FA010000 		.4byte	.LASF37
 574 01c4 09       		.byte	0x9
 575 01c5 A0       		.byte	0xa0
 576 01c6 79020000 		.4byte	0x279
 577 01ca 14       		.byte	0x14
 578 01cb 09       		.uleb128 0x9
 579 01cc 94030000 		.4byte	.LASF38
 580 01d0 09       		.byte	0x9
 581 01d1 A7       		.byte	0xa7
 582 01d2 BD000000 		.4byte	0xbd
 583 01d6 18       		.byte	0x18
 584 01d7 09       		.uleb128 0x9
 585 01d8 22060000 		.4byte	.LASF39
 586 01dc 09       		.byte	0x9
 587 01dd B0       		.byte	0xb0
 588 01de 86070000 		.4byte	0x786
 589 01e2 1C       		.byte	0x1c
 590 01e3 09       		.uleb128 0x9
 591 01e4 A8010000 		.4byte	.LASF40
 592 01e8 09       		.byte	0x9
 593 01e9 B5       		.byte	0xb5
 594 01ea 20010000 		.4byte	0x120
 595 01ee 20       		.byte	0x20
 596 01ef 09       		.uleb128 0x9
 597 01f0 FE060000 		.4byte	.LASF41
 598 01f4 09       		.byte	0x9
 599 01f5 B9       		.byte	0xb9
 600 01f6 15010000 		.4byte	0x115
 601 01fa 21       		.byte	0x21
 602 01fb 09       		.uleb128 0x9
 603 01fc F5040000 		.4byte	.LASF42
 604 0200 09       		.byte	0x9
 605 0201 BE       		.byte	0xbe
 606 0202 2B010000 		.4byte	0x12b
 607 0206 22       		.byte	0x22
 608 0207 0B       		.uleb128 0xb
 609 0208 7500     		.ascii	"u\000"
 610 020a 09       		.byte	0x9
 611 020b 0F01     		.2byte	0x10f
 612 020d BB060000 		.4byte	0x6bb
 613 0211 24       		.byte	0x24
 614 0212 0C       		.uleb128 0xc
 615 0213 24020000 		.4byte	.LASF43
 616 0217 09       		.byte	0x9
 617 0218 1401     		.2byte	0x114
 618 021a 7F020000 		.4byte	0x27f
 619 021e 28       		.byte	0x28
 620 021f 0C       		.uleb128 0xc
 621 0220 9F010000 		.4byte	.LASF44
 622 0224 09       		.byte	0x9
 623 0225 1A01     		.2byte	0x11a
 624 0227 A3020000 		.4byte	0x2a3
 625 022b 2C       		.byte	0x2c
 626 022c 0C       		.uleb128 0xc
 627 022d AB030000 		.4byte	.LASF45
ARM GAS  /tmp/ccKL1tXS.s 			page 12


 628 0231 09       		.byte	0x9
 629 0232 2001     		.2byte	0x120
 630 0234 4C010000 		.4byte	0x14c
 631 0238 34       		.byte	0x34
 632 0239 0C       		.uleb128 0xc
 633 023a 58070000 		.4byte	.LASF46
 634 023e 09       		.byte	0x9
 635 023f 2701     		.2byte	0x127
 636 0241 80070000 		.4byte	0x780
 637 0245 38       		.byte	0x38
 638 0246 0C       		.uleb128 0xc
 639 0247 36040000 		.4byte	.LASF47
 640 024b 09       		.byte	0x9
 641 024c 2B01     		.2byte	0x12b
 642 024e 36010000 		.4byte	0x136
 643 0252 3C       		.byte	0x3c
 644 0253 0C       		.uleb128 0xc
 645 0254 6C030000 		.4byte	.LASF48
 646 0258 09       		.byte	0x9
 647 0259 3201     		.2byte	0x132
 648 025b B4000000 		.4byte	0xb4
 649 025f 40       		.byte	0x40
 650 0260 0C       		.uleb128 0xc
 651 0261 C5010000 		.4byte	.LASF49
 652 0265 09       		.byte	0x9
 653 0266 3801     		.2byte	0x138
 654 0268 6C060000 		.4byte	0x66c
 655 026c 48       		.byte	0x48
 656 026d 00       		.byte	0
 657 026e 03       		.uleb128 0x3
 658 026f 6D040000 		.4byte	.LASF50
 659 0273 08       		.byte	0x8
 660 0274 44       		.byte	0x44
 661 0275 79020000 		.4byte	0x279
 662 0279 06       		.uleb128 0x6
 663 027a 04       		.byte	0x4
 664 027b 78010000 		.4byte	0x178
 665 027f 03       		.uleb128 0x3
 666 0280 29070000 		.4byte	.LASF51
 667 0284 08       		.byte	0x8
 668 0285 49       		.byte	0x49
 669 0286 8A020000 		.4byte	0x28a
 670 028a 08       		.uleb128 0x8
 671 028b E6050000 		.4byte	.LASF53
 672 028f 04       		.byte	0x4
 673 0290 09       		.byte	0x9
 674 0291 88       		.byte	0x88
 675 0292 A3020000 		.4byte	0x2a3
 676 0296 09       		.uleb128 0x9
 677 0297 13010000 		.4byte	.LASF54
 678 029b 09       		.byte	0x9
 679 029c 89       		.byte	0x89
 680 029d 79020000 		.4byte	0x279
 681 02a1 00       		.byte	0
 682 02a2 00       		.byte	0
 683 02a3 03       		.uleb128 0x3
 684 02a4 D7060000 		.4byte	.LASF55
ARM GAS  /tmp/ccKL1tXS.s 			page 13


 685 02a8 08       		.byte	0x8
 686 02a9 50       		.byte	0x50
 687 02aa AE020000 		.4byte	0x2ae
 688 02ae 08       		.uleb128 0x8
 689 02af 52000000 		.4byte	.LASF56
 690 02b3 08       		.byte	0x8
 691 02b4 09       		.byte	0x9
 692 02b5 8F       		.byte	0x8f
 693 02b6 D3020000 		.4byte	0x2d3
 694 02ba 09       		.uleb128 0x9
 695 02bb 13010000 		.4byte	.LASF54
 696 02bf 09       		.byte	0x9
 697 02c0 90       		.byte	0x90
 698 02c1 79020000 		.4byte	0x279
 699 02c5 00       		.byte	0
 700 02c6 09       		.uleb128 0x9
 701 02c7 41000000 		.4byte	.LASF57
 702 02cb 09       		.byte	0x9
 703 02cc 91       		.byte	0x91
 704 02cd 79020000 		.4byte	0x279
 705 02d1 04       		.byte	0x4
 706 02d2 00       		.byte	0
 707 02d3 03       		.uleb128 0x3
 708 02d4 00000000 		.4byte	.LASF58
 709 02d8 08       		.byte	0x8
 710 02d9 57       		.byte	0x57
 711 02da DE020000 		.4byte	0x2de
 712 02de 0D       		.uleb128 0xd
 713 02df DB030000 		.4byte	.LASF59
 714 02e3 1C       		.byte	0x1c
 715 02e4 09       		.byte	0x9
 716 02e5 6A01     		.2byte	0x16a
 717 02e7 3A030000 		.4byte	0x33a
 718 02eb 0C       		.uleb128 0xc
 719 02ec 66030000 		.4byte	.LASF34
 720 02f0 09       		.byte	0x9
 721 02f1 6B01     		.2byte	0x16b
 722 02f3 A3020000 		.4byte	0x2a3
 723 02f7 00       		.byte	0
 724 02f8 0C       		.uleb128 0xc
 725 02f9 BF040000 		.4byte	.LASF35
 726 02fd 09       		.byte	0x9
 727 02fe 6C01     		.2byte	0x16c
 728 0300 36010000 		.4byte	0x136
 729 0304 08       		.byte	0x8
 730 0305 0B       		.uleb128 0xb
 731 0306 63747800 		.ascii	"ctx\000"
 732 030a 09       		.byte	0x9
 733 030b 6E01     		.2byte	0x16e
 734 030d 9F040000 		.4byte	0x49f
 735 0311 0C       		.byte	0xc
 736 0312 0C       		.uleb128 0xc
 737 0313 30040000 		.4byte	.LASF36
 738 0317 09       		.byte	0x9
 739 0318 7101     		.2byte	0x171
 740 031a 79020000 		.4byte	0x279
 741 031e 10       		.byte	0x10
ARM GAS  /tmp/ccKL1tXS.s 			page 14


 742 031f 0C       		.uleb128 0xc
 743 0320 FA010000 		.4byte	.LASF37
 744 0324 09       		.byte	0x9
 745 0325 7201     		.2byte	0x172
 746 0327 79020000 		.4byte	0x279
 747 032b 14       		.byte	0x14
 748 032c 0C       		.uleb128 0xc
 749 032d C4040000 		.4byte	.LASF60
 750 0331 09       		.byte	0x9
 751 0332 7501     		.2byte	0x175
 752 0334 79020000 		.4byte	0x279
 753 0338 18       		.byte	0x18
 754 0339 00       		.byte	0
 755 033a 03       		.uleb128 0x3
 756 033b 61060000 		.4byte	.LASF61
 757 033f 08       		.byte	0x8
 758 0340 5C       		.byte	0x5c
 759 0341 45030000 		.4byte	0x345
 760 0345 06       		.uleb128 0x6
 761 0346 04       		.byte	0x4
 762 0347 4B030000 		.4byte	0x34b
 763 034b 0E       		.uleb128 0xe
 764 034c 56030000 		.4byte	0x356
 765 0350 0F       		.uleb128 0xf
 766 0351 B4000000 		.4byte	0xb4
 767 0355 00       		.byte	0
 768 0356 03       		.uleb128 0x3
 769 0357 FA040000 		.4byte	.LASF62
 770 035b 08       		.byte	0x8
 771 035c 61       		.byte	0x61
 772 035d 61030000 		.4byte	0x361
 773 0361 0D       		.uleb128 0xd
 774 0362 A6050000 		.4byte	.LASF63
 775 0366 14       		.byte	0x14
 776 0367 09       		.byte	0x9
 777 0368 4501     		.2byte	0x145
 778 036a B0030000 		.4byte	0x3b0
 779 036e 0C       		.uleb128 0xc
 780 036f 13010000 		.4byte	.LASF54
 781 0373 09       		.byte	0x9
 782 0374 4601     		.2byte	0x146
 783 0376 8C070000 		.4byte	0x78c
 784 037a 00       		.byte	0
 785 037b 0C       		.uleb128 0xc
 786 037c 41000000 		.4byte	.LASF57
 787 0380 09       		.byte	0x9
 788 0381 4701     		.2byte	0x147
 789 0383 8C070000 		.4byte	0x78c
 790 0387 04       		.byte	0x4
 791 0388 0C       		.uleb128 0xc
 792 0389 14000000 		.4byte	.LASF64
 793 038d 09       		.byte	0x9
 794 038e 4801     		.2byte	0x148
 795 0390 6D010000 		.4byte	0x16d
 796 0394 08       		.byte	0x8
 797 0395 0C       		.uleb128 0xc
 798 0396 C0010000 		.4byte	.LASF65
ARM GAS  /tmp/ccKL1tXS.s 			page 15


 799 039a 09       		.byte	0x9
 800 039b 4901     		.2byte	0x149
 801 039d 3A030000 		.4byte	0x33a
 802 03a1 0C       		.byte	0xc
 803 03a2 0B       		.uleb128 0xb
 804 03a3 70617200 		.ascii	"par\000"
 805 03a7 09       		.byte	0x9
 806 03a8 4B01     		.2byte	0x14b
 807 03aa B4000000 		.4byte	0xb4
 808 03ae 10       		.byte	0x10
 809 03af 00       		.byte	0
 810 03b0 03       		.uleb128 0x3
 811 03b1 08040000 		.4byte	.LASF66
 812 03b5 08       		.byte	0x8
 813 03b6 66       		.byte	0x66
 814 03b7 BB030000 		.4byte	0x3bb
 815 03bb 0D       		.uleb128 0xd
 816 03bc 80040000 		.4byte	.LASF67
 817 03c0 10       		.byte	0x10
 818 03c1 09       		.byte	0x9
 819 03c2 5501     		.2byte	0x155
 820 03c4 FD030000 		.4byte	0x3fd
 821 03c8 0C       		.uleb128 0xc
 822 03c9 13010000 		.4byte	.LASF54
 823 03cd 09       		.byte	0x9
 824 03ce 5601     		.2byte	0x156
 825 03d0 8C070000 		.4byte	0x78c
 826 03d4 00       		.byte	0
 827 03d5 0C       		.uleb128 0xc
 828 03d6 41000000 		.4byte	.LASF57
 829 03da 09       		.byte	0x9
 830 03db 5801     		.2byte	0x158
 831 03dd 8C070000 		.4byte	0x78c
 832 03e1 04       		.byte	0x4
 833 03e2 0C       		.uleb128 0xc
 834 03e3 14000000 		.4byte	.LASF64
 835 03e7 09       		.byte	0x9
 836 03e8 5A01     		.2byte	0x15a
 837 03ea 6D010000 		.4byte	0x16d
 838 03ee 08       		.byte	0x8
 839 03ef 0C       		.uleb128 0xc
 840 03f0 57050000 		.4byte	.LASF68
 841 03f4 09       		.byte	0x9
 842 03f5 6201     		.2byte	0x162
 843 03f7 6D010000 		.4byte	0x16d
 844 03fb 0C       		.byte	0xc
 845 03fc 00       		.byte	0
 846 03fd 03       		.uleb128 0x3
 847 03fe 63000000 		.4byte	.LASF69
 848 0402 08       		.byte	0x8
 849 0403 6B       		.byte	0x6b
 850 0404 08040000 		.4byte	0x408
 851 0408 0D       		.uleb128 0xd
 852 0409 14020000 		.4byte	.LASF70
 853 040d 04       		.byte	0x4
 854 040e 09       		.byte	0x9
 855 040f 7C01     		.2byte	0x17c
ARM GAS  /tmp/ccKL1tXS.s 			page 16


 856 0411 23040000 		.4byte	0x423
 857 0415 0C       		.uleb128 0xc
 858 0416 78060000 		.4byte	.LASF71
 859 041a 09       		.byte	0x9
 860 041b 8401     		.2byte	0x184
 861 041d 92070000 		.4byte	0x792
 862 0421 00       		.byte	0
 863 0422 00       		.byte	0
 864 0423 03       		.uleb128 0x3
 865 0424 B4030000 		.4byte	.LASF72
 866 0428 08       		.byte	0x8
 867 0429 70       		.byte	0x70
 868 042a 2E040000 		.4byte	0x42e
 869 042e 0D       		.uleb128 0xd
 870 042f 7C050000 		.4byte	.LASF73
 871 0433 D0       		.byte	0xd0
 872 0434 09       		.byte	0x9
 873 0435 9C01     		.2byte	0x19c
 874 0437 89040000 		.4byte	0x489
 875 043b 0C       		.uleb128 0xc
 876 043c F0060000 		.4byte	.LASF74
 877 0440 09       		.byte	0x9
 878 0441 A001     		.2byte	0x1a0
 879 0443 D3020000 		.4byte	0x2d3
 880 0447 00       		.byte	0
 881 0448 0C       		.uleb128 0xc
 882 0449 5D010000 		.4byte	.LASF75
 883 044d 09       		.byte	0x9
 884 044e A401     		.2byte	0x1a4
 885 0450 B0030000 		.4byte	0x3b0
 886 0454 1C       		.byte	0x1c
 887 0455 0B       		.uleb128 0xb
 888 0456 64626700 		.ascii	"dbg\000"
 889 045a 09       		.byte	0x9
 890 045b A801     		.2byte	0x1a8
 891 045d FD030000 		.4byte	0x3fd
 892 0461 2C       		.byte	0x2c
 893 0462 0C       		.uleb128 0xc
 894 0463 B5000000 		.4byte	.LASF76
 895 0467 09       		.byte	0x9
 896 0468 AC01     		.2byte	0x1ac
 897 046a 78010000 		.4byte	0x178
 898 046e 30       		.byte	0x30
 899 046f 0B       		.uleb128 0xb
 900 0470 746D00   		.ascii	"tm\000"
 901 0473 09       		.byte	0x9
 902 0474 B101     		.2byte	0x1b1
 903 0476 1E060000 		.4byte	0x61e
 904 047a 90       		.byte	0x90
 905 047b 0C       		.uleb128 0xc
 906 047c 2A000000 		.4byte	.LASF77
 907 0480 09       		.byte	0x9
 908 0481 B701     		.2byte	0x1b7
 909 0483 B0060000 		.4byte	0x6b0
 910 0487 98       		.byte	0x98
 911 0488 00       		.byte	0
 912 0489 03       		.uleb128 0x3
ARM GAS  /tmp/ccKL1tXS.s 			page 17


 913 048a 0B020000 		.4byte	.LASF78
 914 048e 0A       		.byte	0xa
 915 048f 65       		.byte	0x65
 916 0490 B4000000 		.4byte	0xb4
 917 0494 03       		.uleb128 0x3
 918 0495 25040000 		.4byte	.LASF79
 919 0499 0A       		.byte	0xa
 920 049a 6D       		.byte	0x6d
 921 049b F4000000 		.4byte	0xf4
 922 049f 08       		.uleb128 0x8
 923 04a0 A1040000 		.4byte	.LASF80
 924 04a4 04       		.byte	0x4
 925 04a5 0A       		.byte	0xa
 926 04a6 89       		.byte	0x89
 927 04a7 B7040000 		.4byte	0x4b7
 928 04ab 0A       		.uleb128 0xa
 929 04ac 737000   		.ascii	"sp\000"
 930 04af 0A       		.byte	0xa
 931 04b0 8A       		.byte	0x8a
 932 04b1 03060000 		.4byte	0x603
 933 04b5 00       		.byte	0
 934 04b6 00       		.byte	0
 935 04b7 0D       		.uleb128 0xd
 936 04b8 46000000 		.4byte	.LASF81
 937 04bc 64       		.byte	0x64
 938 04bd 0B       		.byte	0xb
 939 04be 5901     		.2byte	0x159
 940 04c0 03060000 		.4byte	0x603
 941 04c4 0B       		.uleb128 0xb
 942 04c5 73313600 		.ascii	"s16\000"
 943 04c9 0B       		.byte	0xb
 944 04ca 5B01     		.2byte	0x15b
 945 04cc 89040000 		.4byte	0x489
 946 04d0 00       		.byte	0
 947 04d1 0B       		.uleb128 0xb
 948 04d2 73313700 		.ascii	"s17\000"
 949 04d6 0B       		.byte	0xb
 950 04d7 5C01     		.2byte	0x15c
 951 04d9 89040000 		.4byte	0x489
 952 04dd 04       		.byte	0x4
 953 04de 0B       		.uleb128 0xb
 954 04df 73313800 		.ascii	"s18\000"
 955 04e3 0B       		.byte	0xb
 956 04e4 5D01     		.2byte	0x15d
 957 04e6 89040000 		.4byte	0x489
 958 04ea 08       		.byte	0x8
 959 04eb 0B       		.uleb128 0xb
 960 04ec 73313900 		.ascii	"s19\000"
 961 04f0 0B       		.byte	0xb
 962 04f1 5E01     		.2byte	0x15e
 963 04f3 89040000 		.4byte	0x489
 964 04f7 0C       		.byte	0xc
 965 04f8 0B       		.uleb128 0xb
 966 04f9 73323000 		.ascii	"s20\000"
 967 04fd 0B       		.byte	0xb
 968 04fe 5F01     		.2byte	0x15f
 969 0500 89040000 		.4byte	0x489
ARM GAS  /tmp/ccKL1tXS.s 			page 18


 970 0504 10       		.byte	0x10
 971 0505 0B       		.uleb128 0xb
 972 0506 73323100 		.ascii	"s21\000"
 973 050a 0B       		.byte	0xb
 974 050b 6001     		.2byte	0x160
 975 050d 89040000 		.4byte	0x489
 976 0511 14       		.byte	0x14
 977 0512 0B       		.uleb128 0xb
 978 0513 73323200 		.ascii	"s22\000"
 979 0517 0B       		.byte	0xb
 980 0518 6101     		.2byte	0x161
 981 051a 89040000 		.4byte	0x489
 982 051e 18       		.byte	0x18
 983 051f 0B       		.uleb128 0xb
 984 0520 73323300 		.ascii	"s23\000"
 985 0524 0B       		.byte	0xb
 986 0525 6201     		.2byte	0x162
 987 0527 89040000 		.4byte	0x489
 988 052b 1C       		.byte	0x1c
 989 052c 0B       		.uleb128 0xb
 990 052d 73323400 		.ascii	"s24\000"
 991 0531 0B       		.byte	0xb
 992 0532 6301     		.2byte	0x163
 993 0534 89040000 		.4byte	0x489
 994 0538 20       		.byte	0x20
 995 0539 0B       		.uleb128 0xb
 996 053a 73323500 		.ascii	"s25\000"
 997 053e 0B       		.byte	0xb
 998 053f 6401     		.2byte	0x164
 999 0541 89040000 		.4byte	0x489
 1000 0545 24       		.byte	0x24
 1001 0546 0B       		.uleb128 0xb
 1002 0547 73323600 		.ascii	"s26\000"
 1003 054b 0B       		.byte	0xb
 1004 054c 6501     		.2byte	0x165
 1005 054e 89040000 		.4byte	0x489
 1006 0552 28       		.byte	0x28
 1007 0553 0B       		.uleb128 0xb
 1008 0554 73323700 		.ascii	"s27\000"
 1009 0558 0B       		.byte	0xb
 1010 0559 6601     		.2byte	0x166
 1011 055b 89040000 		.4byte	0x489
 1012 055f 2C       		.byte	0x2c
 1013 0560 0B       		.uleb128 0xb
 1014 0561 73323800 		.ascii	"s28\000"
 1015 0565 0B       		.byte	0xb
 1016 0566 6701     		.2byte	0x167
 1017 0568 89040000 		.4byte	0x489
 1018 056c 30       		.byte	0x30
 1019 056d 0B       		.uleb128 0xb
 1020 056e 73323900 		.ascii	"s29\000"
 1021 0572 0B       		.byte	0xb
 1022 0573 6801     		.2byte	0x168
 1023 0575 89040000 		.4byte	0x489
 1024 0579 34       		.byte	0x34
 1025 057a 0B       		.uleb128 0xb
 1026 057b 73333000 		.ascii	"s30\000"
ARM GAS  /tmp/ccKL1tXS.s 			page 19


 1027 057f 0B       		.byte	0xb
 1028 0580 6901     		.2byte	0x169
 1029 0582 89040000 		.4byte	0x489
 1030 0586 38       		.byte	0x38
 1031 0587 0B       		.uleb128 0xb
 1032 0588 73333100 		.ascii	"s31\000"
 1033 058c 0B       		.byte	0xb
 1034 058d 6A01     		.2byte	0x16a
 1035 058f 89040000 		.4byte	0x489
 1036 0593 3C       		.byte	0x3c
 1037 0594 0B       		.uleb128 0xb
 1038 0595 723400   		.ascii	"r4\000"
 1039 0598 0B       		.byte	0xb
 1040 0599 6C01     		.2byte	0x16c
 1041 059b 89040000 		.4byte	0x489
 1042 059f 40       		.byte	0x40
 1043 05a0 0B       		.uleb128 0xb
 1044 05a1 723500   		.ascii	"r5\000"
 1045 05a4 0B       		.byte	0xb
 1046 05a5 6D01     		.2byte	0x16d
 1047 05a7 89040000 		.4byte	0x489
 1048 05ab 44       		.byte	0x44
 1049 05ac 0B       		.uleb128 0xb
 1050 05ad 723600   		.ascii	"r6\000"
 1051 05b0 0B       		.byte	0xb
 1052 05b1 6E01     		.2byte	0x16e
 1053 05b3 89040000 		.4byte	0x489
 1054 05b7 48       		.byte	0x48
 1055 05b8 0B       		.uleb128 0xb
 1056 05b9 723700   		.ascii	"r7\000"
 1057 05bc 0B       		.byte	0xb
 1058 05bd 6F01     		.2byte	0x16f
 1059 05bf 89040000 		.4byte	0x489
 1060 05c3 4C       		.byte	0x4c
 1061 05c4 0B       		.uleb128 0xb
 1062 05c5 723800   		.ascii	"r8\000"
 1063 05c8 0B       		.byte	0xb
 1064 05c9 7001     		.2byte	0x170
 1065 05cb 89040000 		.4byte	0x489
 1066 05cf 50       		.byte	0x50
 1067 05d0 0B       		.uleb128 0xb
 1068 05d1 723900   		.ascii	"r9\000"
 1069 05d4 0B       		.byte	0xb
 1070 05d5 7101     		.2byte	0x171
 1071 05d7 89040000 		.4byte	0x489
 1072 05db 54       		.byte	0x54
 1073 05dc 0B       		.uleb128 0xb
 1074 05dd 72313000 		.ascii	"r10\000"
 1075 05e1 0B       		.byte	0xb
 1076 05e2 7201     		.2byte	0x172
 1077 05e4 89040000 		.4byte	0x489
 1078 05e8 58       		.byte	0x58
 1079 05e9 0B       		.uleb128 0xb
 1080 05ea 72313100 		.ascii	"r11\000"
 1081 05ee 0B       		.byte	0xb
 1082 05ef 7301     		.2byte	0x173
 1083 05f1 89040000 		.4byte	0x489
ARM GAS  /tmp/ccKL1tXS.s 			page 20


 1084 05f5 5C       		.byte	0x5c
 1085 05f6 0B       		.uleb128 0xb
 1086 05f7 6C7200   		.ascii	"lr\000"
 1087 05fa 0B       		.byte	0xb
 1088 05fb 7401     		.2byte	0x174
 1089 05fd 89040000 		.4byte	0x489
 1090 0601 60       		.byte	0x60
 1091 0602 00       		.byte	0
 1092 0603 06       		.uleb128 0x6
 1093 0604 04       		.byte	0x4
 1094 0605 B7040000 		.4byte	0x4b7
 1095 0609 10       		.uleb128 0x10
 1096 060a 04       		.byte	0x4
 1097 060b 0C       		.byte	0xc
 1098 060c 38       		.byte	0x38
 1099 060d 1E060000 		.4byte	0x61e
 1100 0611 09       		.uleb128 0x9
 1101 0612 82060000 		.4byte	.LASF82
 1102 0616 0C       		.byte	0xc
 1103 0617 3C       		.byte	0x3c
 1104 0618 FF000000 		.4byte	0xff
 1105 061c 00       		.byte	0
 1106 061d 00       		.byte	0
 1107 061e 03       		.uleb128 0x3
 1108 061f AE040000 		.4byte	.LASF83
 1109 0623 0C       		.byte	0xc
 1110 0624 3D       		.byte	0x3d
 1111 0625 09060000 		.4byte	0x609
 1112 0629 10       		.uleb128 0x10
 1113 062a 18       		.byte	0x18
 1114 062b 0C       		.byte	0xc
 1115 062c 48       		.byte	0x48
 1116 062d 6C060000 		.4byte	0x66c
 1117 0631 09       		.uleb128 0x9
 1118 0632 52060000 		.4byte	.LASF84
 1119 0636 0C       		.byte	0xc
 1120 0637 49       		.byte	0x49
 1121 0638 FF000000 		.4byte	0xff
 1122 063c 00       		.byte	0
 1123 063d 09       		.uleb128 0x9
 1124 063e 7C000000 		.4byte	.LASF85
 1125 0642 0C       		.byte	0xc
 1126 0643 4A       		.byte	0x4a
 1127 0644 FF000000 		.4byte	0xff
 1128 0648 04       		.byte	0x4
 1129 0649 09       		.uleb128 0x9
 1130 064a 9F030000 		.4byte	.LASF86
 1131 064e 0C       		.byte	0xc
 1132 064f 4B       		.byte	0x4b
 1133 0650 FF000000 		.4byte	0xff
 1134 0654 08       		.byte	0x8
 1135 0655 0A       		.uleb128 0xa
 1136 0656 6E00     		.ascii	"n\000"
 1137 0658 0C       		.byte	0xc
 1138 0659 4C       		.byte	0x4c
 1139 065a 62010000 		.4byte	0x162
 1140 065e 0C       		.byte	0xc
ARM GAS  /tmp/ccKL1tXS.s 			page 21


 1141 065f 09       		.uleb128 0x9
 1142 0660 D7040000 		.4byte	.LASF87
 1143 0664 0C       		.byte	0xc
 1144 0665 4D       		.byte	0x4d
 1145 0666 0A010000 		.4byte	0x10a
 1146 066a 10       		.byte	0x10
 1147 066b 00       		.byte	0
 1148 066c 03       		.uleb128 0x3
 1149 066d 82000000 		.4byte	.LASF88
 1150 0671 0C       		.byte	0xc
 1151 0672 4E       		.byte	0x4e
 1152 0673 29060000 		.4byte	0x629
 1153 0677 10       		.uleb128 0x10
 1154 0678 38       		.byte	0x38
 1155 0679 0D       		.byte	0xd
 1156 067a 38       		.byte	0x38
 1157 067b B0060000 		.4byte	0x6b0
 1158 067f 09       		.uleb128 0x9
 1159 0680 60030000 		.4byte	.LASF89
 1160 0684 0D       		.byte	0xd
 1161 0685 39       		.byte	0x39
 1162 0686 62010000 		.4byte	0x162
 1163 068a 00       		.byte	0
 1164 068b 09       		.uleb128 0x9
 1165 068c 12050000 		.4byte	.LASF90
 1166 0690 0D       		.byte	0xd
 1167 0691 3A       		.byte	0x3a
 1168 0692 62010000 		.4byte	0x162
 1169 0696 04       		.byte	0x4
 1170 0697 09       		.uleb128 0x9
 1171 0698 60070000 		.4byte	.LASF91
 1172 069c 0D       		.byte	0xd
 1173 069d 3B       		.byte	0x3b
 1174 069e 6C060000 		.4byte	0x66c
 1175 06a2 08       		.byte	0x8
 1176 06a3 09       		.uleb128 0x9
 1177 06a4 D0030000 		.4byte	.LASF92
 1178 06a8 0D       		.byte	0xd
 1179 06a9 3D       		.byte	0x3d
 1180 06aa 6C060000 		.4byte	0x66c
 1181 06ae 20       		.byte	0x20
 1182 06af 00       		.byte	0
 1183 06b0 03       		.uleb128 0x3
 1184 06b1 7B030000 		.4byte	.LASF93
 1185 06b5 0D       		.byte	0xd
 1186 06b6 3F       		.byte	0x3f
 1187 06b7 77060000 		.4byte	0x677
 1188 06bb 11       		.uleb128 0x11
 1189 06bc 04       		.byte	0x4
 1190 06bd 09       		.byte	0x9
 1191 06be D2       		.byte	0xd2
 1192 06bf 1E070000 		.4byte	0x71e
 1193 06c3 12       		.uleb128 0x12
 1194 06c4 1A000000 		.4byte	.LASF94
 1195 06c8 09       		.byte	0x9
 1196 06c9 D9       		.byte	0xd9
 1197 06ca 41010000 		.4byte	0x141
ARM GAS  /tmp/ccKL1tXS.s 			page 22


 1198 06ce 12       		.uleb128 0x12
 1199 06cf AC000000 		.4byte	.LASF95
 1200 06d3 09       		.byte	0x9
 1201 06d4 E0       		.byte	0xe0
 1202 06d5 41010000 		.4byte	0x141
 1203 06d9 12       		.uleb128 0x12
 1204 06da 22070000 		.4byte	.LASF96
 1205 06de 09       		.byte	0x9
 1206 06df E7       		.byte	0xe7
 1207 06e0 B4000000 		.4byte	0xb4
 1208 06e4 12       		.uleb128 0x12
 1209 06e5 51030000 		.4byte	.LASF97
 1210 06e9 09       		.byte	0x9
 1211 06ea EE       		.byte	0xee
 1212 06eb 1E070000 		.4byte	0x71e
 1213 06ef 12       		.uleb128 0x12
 1214 06f0 C0000000 		.4byte	.LASF98
 1215 06f4 09       		.byte	0x9
 1216 06f5 F3       		.byte	0xf3
 1217 06f6 41010000 		.4byte	0x141
 1218 06fa 12       		.uleb128 0x12
 1219 06fb 4A030000 		.4byte	.LASF99
 1220 06ff 09       		.byte	0x9
 1221 0700 FC       		.byte	0xfc
 1222 0701 49070000 		.4byte	0x749
 1223 0705 13       		.uleb128 0x13
 1224 0706 DF050000 		.4byte	.LASF100
 1225 070a 09       		.byte	0x9
 1226 070b 0501     		.2byte	0x105
 1227 070d 80070000 		.4byte	0x780
 1228 0711 13       		.uleb128 0x13
 1229 0712 75050000 		.4byte	.LASF101
 1230 0716 09       		.byte	0x9
 1231 0717 0D01     		.2byte	0x10d
 1232 0719 4C010000 		.4byte	0x14c
 1233 071d 00       		.byte	0
 1234 071e 06       		.uleb128 0x6
 1235 071f 04       		.byte	0x4
 1236 0720 6E020000 		.4byte	0x26e
 1237 0724 08       		.uleb128 0x8
 1238 0725 B7050000 		.4byte	.LASF102
 1239 0729 0C       		.byte	0xc
 1240 072a 0E       		.byte	0xe
 1241 072b 34       		.byte	0x34
 1242 072c 49070000 		.4byte	0x749
 1243 0730 09       		.uleb128 0x9
 1244 0731 66030000 		.4byte	.LASF34
 1245 0735 0E       		.byte	0xe
 1246 0736 35       		.byte	0x35
 1247 0737 A3020000 		.4byte	0x2a3
 1248 073b 00       		.byte	0
 1249 073c 0A       		.uleb128 0xa
 1250 073d 636E7400 		.ascii	"cnt\000"
 1251 0741 0E       		.byte	0xe
 1252 0742 37       		.byte	0x37
 1253 0743 57010000 		.4byte	0x157
 1254 0747 08       		.byte	0x8
ARM GAS  /tmp/ccKL1tXS.s 			page 23


 1255 0748 00       		.byte	0
 1256 0749 06       		.uleb128 0x6
 1257 074a 04       		.byte	0x4
 1258 074b 24070000 		.4byte	0x724
 1259 074f 08       		.uleb128 0x8
 1260 0750 E7060000 		.4byte	.LASF103
 1261 0754 10       		.byte	0x10
 1262 0755 0F       		.byte	0xf
 1263 0756 39       		.byte	0x39
 1264 0757 80070000 		.4byte	0x780
 1265 075b 09       		.uleb128 0x9
 1266 075c 66030000 		.4byte	.LASF34
 1267 0760 0F       		.byte	0xf
 1268 0761 3A       		.byte	0x3a
 1269 0762 A3020000 		.4byte	0x2a3
 1270 0766 00       		.byte	0
 1271 0767 09       		.uleb128 0x9
 1272 0768 F6050000 		.4byte	.LASF104
 1273 076c 0F       		.byte	0xf
 1274 076d 3C       		.byte	0x3c
 1275 076e 79020000 		.4byte	0x279
 1276 0772 08       		.byte	0x8
 1277 0773 09       		.uleb128 0x9
 1278 0774 13010000 		.4byte	.LASF54
 1279 0778 0F       		.byte	0xf
 1280 0779 3E       		.byte	0x3e
 1281 077a 9E080000 		.4byte	0x89e
 1282 077e 0C       		.byte	0xc
 1283 077f 00       		.byte	0
 1284 0780 06       		.uleb128 0x6
 1285 0781 04       		.byte	0x4
 1286 0782 4F070000 		.4byte	0x74f
 1287 0786 06       		.uleb128 0x6
 1288 0787 04       		.byte	0x4
 1289 0788 94040000 		.4byte	0x494
 1290 078c 06       		.uleb128 0x6
 1291 078d 04       		.byte	0x4
 1292 078e 56030000 		.4byte	0x356
 1293 0792 14       		.uleb128 0x14
 1294 0793 BD000000 		.4byte	0xbd
 1295 0797 10       		.uleb128 0x10
 1296 0798 16       		.byte	0x16
 1297 0799 10       		.byte	0x10
 1298 079a 34       		.byte	0x34
 1299 079b 78080000 		.4byte	0x878
 1300 079f 09       		.uleb128 0x9
 1301 07a0 A6060000 		.4byte	.LASF105
 1302 07a4 10       		.byte	0x10
 1303 07a5 35       		.byte	0x35
 1304 07a6 78080000 		.4byte	0x878
 1305 07aa 00       		.byte	0
 1306 07ab 09       		.uleb128 0x9
 1307 07ac 2C020000 		.4byte	.LASF106
 1308 07b0 10       		.byte	0x10
 1309 07b1 36       		.byte	0x36
 1310 07b2 C8000000 		.4byte	0xc8
 1311 07b6 04       		.byte	0x4
ARM GAS  /tmp/ccKL1tXS.s 			page 24


 1312 07b7 09       		.uleb128 0x9
 1313 07b8 3B010000 		.4byte	.LASF107
 1314 07bc 10       		.byte	0x10
 1315 07bd 37       		.byte	0x37
 1316 07be C8000000 		.4byte	0xc8
 1317 07c2 05       		.byte	0x5
 1318 07c3 09       		.uleb128 0x9
 1319 07c4 3F040000 		.4byte	.LASF108
 1320 07c8 10       		.byte	0x10
 1321 07c9 38       		.byte	0x38
 1322 07ca D3000000 		.4byte	0xd3
 1323 07ce 06       		.byte	0x6
 1324 07cf 09       		.uleb128 0x9
 1325 07d0 CF060000 		.4byte	.LASF109
 1326 07d4 10       		.byte	0x10
 1327 07d5 39       		.byte	0x39
 1328 07d6 C8000000 		.4byte	0xc8
 1329 07da 08       		.byte	0x8
 1330 07db 09       		.uleb128 0x9
 1331 07dc CD050000 		.4byte	.LASF110
 1332 07e0 10       		.byte	0x10
 1333 07e1 3A       		.byte	0x3a
 1334 07e2 C8000000 		.4byte	0xc8
 1335 07e6 09       		.byte	0x9
 1336 07e7 09       		.uleb128 0x9
 1337 07e8 EA040000 		.4byte	.LASF111
 1338 07ec 10       		.byte	0x10
 1339 07ed 3B       		.byte	0x3b
 1340 07ee C8000000 		.4byte	0xc8
 1341 07f2 0A       		.byte	0xa
 1342 07f3 09       		.uleb128 0x9
 1343 07f4 37050000 		.4byte	.LASF112
 1344 07f8 10       		.byte	0x10
 1345 07f9 3C       		.byte	0x3c
 1346 07fa C8000000 		.4byte	0xc8
 1347 07fe 0B       		.byte	0xb
 1348 07ff 09       		.uleb128 0x9
 1349 0800 C0030000 		.4byte	.LASF113
 1350 0804 10       		.byte	0x10
 1351 0805 3D       		.byte	0x3d
 1352 0806 C8000000 		.4byte	0xc8
 1353 080a 0C       		.byte	0xc
 1354 080b 09       		.uleb128 0x9
 1355 080c 97040000 		.4byte	.LASF114
 1356 0810 10       		.byte	0x10
 1357 0811 3E       		.byte	0x3e
 1358 0812 C8000000 		.4byte	0xc8
 1359 0816 0D       		.byte	0xd
 1360 0817 09       		.uleb128 0x9
 1361 0818 89060000 		.4byte	.LASF115
 1362 081c 10       		.byte	0x10
 1363 081d 3F       		.byte	0x3f
 1364 081e C8000000 		.4byte	0xc8
 1365 0822 0E       		.byte	0xe
 1366 0823 09       		.uleb128 0x9
 1367 0824 F5030000 		.4byte	.LASF116
 1368 0828 10       		.byte	0x10
ARM GAS  /tmp/ccKL1tXS.s 			page 25


 1369 0829 40       		.byte	0x40
 1370 082a C8000000 		.4byte	0xc8
 1371 082e 0F       		.byte	0xf
 1372 082f 09       		.uleb128 0x9
 1373 0830 40050000 		.4byte	.LASF117
 1374 0834 10       		.byte	0x10
 1375 0835 41       		.byte	0x41
 1376 0836 C8000000 		.4byte	0xc8
 1377 083a 10       		.byte	0x10
 1378 083b 09       		.uleb128 0x9
 1379 083c 38070000 		.4byte	.LASF118
 1380 0840 10       		.byte	0x10
 1381 0841 42       		.byte	0x42
 1382 0842 C8000000 		.4byte	0xc8
 1383 0846 11       		.byte	0x11
 1384 0847 09       		.uleb128 0x9
 1385 0848 4E070000 		.4byte	.LASF119
 1386 084c 10       		.byte	0x10
 1387 084d 43       		.byte	0x43
 1388 084e C8000000 		.4byte	0xc8
 1389 0852 12       		.byte	0x12
 1390 0853 09       		.uleb128 0x9
 1391 0854 72030000 		.4byte	.LASF120
 1392 0858 10       		.byte	0x10
 1393 0859 44       		.byte	0x44
 1394 085a C8000000 		.4byte	0xc8
 1395 085e 13       		.byte	0x13
 1396 085f 09       		.uleb128 0x9
 1397 0860 D5010000 		.4byte	.LASF121
 1398 0864 10       		.byte	0x10
 1399 0865 45       		.byte	0x45
 1400 0866 C8000000 		.4byte	0xc8
 1401 086a 14       		.byte	0x14
 1402 086b 09       		.uleb128 0x9
 1403 086c C4050000 		.4byte	.LASF122
 1404 0870 10       		.byte	0x10
 1405 0871 46       		.byte	0x46
 1406 0872 C8000000 		.4byte	0xc8
 1407 0876 15       		.byte	0x15
 1408 0877 00       		.byte	0
 1409 0878 15       		.uleb128 0x15
 1410 0879 B6000000 		.4byte	0xb6
 1411 087d 88080000 		.4byte	0x888
 1412 0881 16       		.uleb128 0x16
 1413 0882 AD000000 		.4byte	0xad
 1414 0886 03       		.byte	0x3
 1415 0887 00       		.byte	0
 1416 0888 03       		.uleb128 0x3
 1417 0889 CB010000 		.4byte	.LASF123
 1418 088d 10       		.byte	0x10
 1419 088e 47       		.byte	0x47
 1420 088f 97070000 		.4byte	0x797
 1421 0893 03       		.uleb128 0x3
 1422 0894 31020000 		.4byte	.LASF124
 1423 0898 0F       		.byte	0xf
 1424 0899 34       		.byte	0x34
 1425 089a 4F070000 		.4byte	0x74f
ARM GAS  /tmp/ccKL1tXS.s 			page 26


 1426 089e 06       		.uleb128 0x6
 1427 089f 04       		.byte	0x4
 1428 08a0 93080000 		.4byte	0x893
 1429 08a4 04       		.uleb128 0x4
 1430 08a5 01       		.byte	0x1
 1431 08a6 02       		.byte	0x2
 1432 08a7 1B050000 		.4byte	.LASF125
 1433 08ab 17       		.uleb128 0x17
 1434 08ac 6A060000 		.4byte	.LASF132
 1435 08b0 02       		.byte	0x2
 1436 08b1 0601     		.2byte	0x106
 1437 08b3 03       		.byte	0x3
 1438 08b4 C5080000 		.4byte	0x8c5
 1439 08b8 18       		.uleb128 0x18
 1440 08b9 39020000 		.4byte	.LASF126
 1441 08bd 02       		.byte	0x2
 1442 08be 0601     		.2byte	0x106
 1443 08c0 E9000000 		.4byte	0xe9
 1444 08c4 00       		.byte	0
 1445 08c5 19       		.uleb128 0x19
 1446 08c6 60050000 		.4byte	.LASF127
 1447 08ca 11       		.byte	0x11
 1448 08cb 4901     		.2byte	0x149
 1449 08cd 86070000 		.4byte	0x786
 1450 08d1 03       		.byte	0x3
 1451 08d2 E2080000 		.4byte	0x8e2
 1452 08d6 1A       		.uleb128 0x1a
 1453 08d7 747000   		.ascii	"tp\000"
 1454 08da 11       		.byte	0x11
 1455 08db 4901     		.2byte	0x149
 1456 08dd 79020000 		.4byte	0x279
 1457 08e1 00       		.byte	0
 1458 08e2 1B       		.uleb128 0x1b
 1459 08e3 FC050000 		.4byte	.LASF128
 1460 08e7 10       		.byte	0x10
 1461 08e8 99       		.byte	0x99
 1462 08e9 BD000000 		.4byte	0xbd
 1463 08ed 03       		.byte	0x3
 1464 08ee FD080000 		.4byte	0x8fd
 1465 08f2 1C       		.uleb128 0x1c
 1466 08f3 747000   		.ascii	"tp\000"
 1467 08f6 10       		.byte	0x10
 1468 08f7 99       		.byte	0x99
 1469 08f8 79020000 		.4byte	0x279
 1470 08fc 00       		.byte	0
 1471 08fd 1D       		.uleb128 0x1d
 1472 08fe 72000000 		.4byte	.LASF129
 1473 0902 0B       		.byte	0xb
 1474 0903 5202     		.2byte	0x252
 1475 0905 03       		.byte	0x3
 1476 0906 1D       		.uleb128 0x1d
 1477 0907 93010000 		.4byte	.LASF130
 1478 090b 0B       		.byte	0xb
 1479 090c 6A02     		.2byte	0x26a
 1480 090e 03       		.byte	0x3
 1481 090f 1D       		.uleb128 0x1d
 1482 0910 8F050000 		.4byte	.LASF131
ARM GAS  /tmp/ccKL1tXS.s 			page 27


 1483 0914 03       		.byte	0x3
 1484 0915 7601     		.2byte	0x176
 1485 0917 03       		.byte	0x3
 1486 0918 17       		.uleb128 0x17
 1487 0919 42070000 		.4byte	.LASF133
 1488 091d 03       		.byte	0x3
 1489 091e 8201     		.2byte	0x182
 1490 0920 03       		.byte	0x3
 1491 0921 33090000 		.4byte	0x933
 1492 0925 1E       		.uleb128 0x1e
 1493 0926 86050000 		.4byte	.LASF148
 1494 092a 43090000 		.4byte	0x943
 1495 092e 42070000 		.4byte	.LASF133
 1496 0932 00       		.byte	0
 1497 0933 15       		.uleb128 0x15
 1498 0934 B6000000 		.4byte	0xb6
 1499 0938 43090000 		.4byte	0x943
 1500 093c 16       		.uleb128 0x16
 1501 093d AD000000 		.4byte	0xad
 1502 0941 0B       		.byte	0xb
 1503 0942 00       		.byte	0
 1504 0943 07       		.uleb128 0x7
 1505 0944 33090000 		.4byte	0x933
 1506 0948 1F       		.uleb128 0x1f
 1507 0949 C8000000 		.4byte	.LASF134
 1508 094d 01       		.byte	0x1
 1509 094e 86       		.byte	0x86
 1510 094f 79020000 		.4byte	0x279
 1511 0953 00000000 		.4byte	.LFB246
 1512 0957 2C000000 		.4byte	.LFE246-.LFB246
 1513 095b 01       		.uleb128 0x1
 1514 095c 9C       		.byte	0x9c
 1515 095d 0D0A0000 		.4byte	0xa0d
 1516 0961 20       		.uleb128 0x20
 1517 0962 747000   		.ascii	"tp\000"
 1518 0965 01       		.byte	0x1
 1519 0966 87       		.byte	0x87
 1520 0967 79020000 		.4byte	0x279
 1521 096b 00000000 		.4byte	.LLST0
 1522 096f 21       		.uleb128 0x21
 1523 0970 0F090000 		.4byte	0x90f
 1524 0974 02000000 		.4byte	.LBB28
 1525 0978 0A000000 		.4byte	.LBE28-.LBB28
 1526 097c 01       		.byte	0x1
 1527 097d 89       		.byte	0x89
 1528 097e B8090000 		.4byte	0x9b8
 1529 0982 22       		.uleb128 0x22
 1530 0983 FD080000 		.4byte	0x8fd
 1531 0987 02000000 		.4byte	.LBB30
 1532 098b 06000000 		.4byte	.LBE30-.LBB30
 1533 098f 03       		.byte	0x3
 1534 0990 7801     		.2byte	0x178
 1535 0992 AE090000 		.4byte	0x9ae
 1536 0996 23       		.uleb128 0x23
 1537 0997 AB080000 		.4byte	0x8ab
 1538 099b 02000000 		.4byte	.LBB31
 1539 099f 06000000 		.4byte	.LBE31-.LBB31
ARM GAS  /tmp/ccKL1tXS.s 			page 28


 1540 09a3 0B       		.byte	0xb
 1541 09a4 5A02     		.2byte	0x25a
 1542 09a6 24       		.uleb128 0x24
 1543 09a7 B8080000 		.4byte	0x8b8
 1544 09ab 20       		.byte	0x20
 1545 09ac 00       		.byte	0
 1546 09ad 00       		.byte	0
 1547 09ae 25       		.uleb128 0x25
 1548 09af 0C000000 		.4byte	.LVL1
 1549 09b3 3C0C0000 		.4byte	0xc3c
 1550 09b7 00       		.byte	0
 1551 09b8 26       		.uleb128 0x26
 1552 09b9 18090000 		.4byte	0x918
 1553 09bd 1A000000 		.4byte	.LBB33
 1554 09c1 0A000000 		.4byte	.LBE33-.LBB33
 1555 09c5 01       		.byte	0x1
 1556 09c6 8E       		.byte	0x8e
 1557 09c7 27       		.uleb128 0x27
 1558 09c8 1A000000 		.4byte	.LBB34
 1559 09cc 0A000000 		.4byte	.LBE34-.LBB34
 1560 09d0 28       		.uleb128 0x28
 1561 09d1 25090000 		.4byte	0x925
 1562 09d5 22       		.uleb128 0x22
 1563 09d6 06090000 		.4byte	0x906
 1564 09da 1E000000 		.4byte	.LBB35
 1565 09de 06000000 		.4byte	.LBE35-.LBB35
 1566 09e2 03       		.byte	0x3
 1567 09e3 8F01     		.2byte	0x18f
 1568 09e5 010A0000 		.4byte	0xa01
 1569 09e9 23       		.uleb128 0x23
 1570 09ea AB080000 		.4byte	0x8ab
 1571 09ee 1E000000 		.4byte	.LBB36
 1572 09f2 06000000 		.4byte	.LBE36-.LBB36
 1573 09f6 0B       		.byte	0xb
 1574 09f7 6D02     		.2byte	0x26d
 1575 09f9 24       		.uleb128 0x24
 1576 09fa B8080000 		.4byte	0x8b8
 1577 09fe 00       		.byte	0
 1578 09ff 00       		.byte	0
 1579 0a00 00       		.byte	0
 1580 0a01 25       		.uleb128 0x25
 1581 0a02 1E000000 		.4byte	.LVL3
 1582 0a06 430C0000 		.4byte	0xc43
 1583 0a0a 00       		.byte	0
 1584 0a0b 00       		.byte	0
 1585 0a0c 00       		.byte	0
 1586 0a0d 1F       		.uleb128 0x1f
 1587 0a0e 2E060000 		.4byte	.LASF135
 1588 0a12 01       		.byte	0x1
 1589 0a13 9E       		.byte	0x9e
 1590 0a14 79020000 		.4byte	0x279
 1591 0a18 00000000 		.4byte	.LFB247
 1592 0a1c 3C000000 		.4byte	.LFE247-.LFB247
 1593 0a20 01       		.uleb128 0x1
 1594 0a21 9C       		.byte	0x9c
 1595 0a22 FE0A0000 		.4byte	0xafe
 1596 0a26 29       		.uleb128 0x29
ARM GAS  /tmp/ccKL1tXS.s 			page 29


 1597 0a27 747000   		.ascii	"tp\000"
 1598 0a2a 01       		.byte	0x1
 1599 0a2b 9E       		.byte	0x9e
 1600 0a2c 79020000 		.4byte	0x279
 1601 0a30 1E000000 		.4byte	.LLST1
 1602 0a34 20       		.uleb128 0x20
 1603 0a35 6E747000 		.ascii	"ntp\000"
 1604 0a39 01       		.byte	0x1
 1605 0a3a 9F       		.byte	0x9f
 1606 0a3b 79020000 		.4byte	0x279
 1607 0a3f 4A000000 		.4byte	.LLST2
 1608 0a43 2A       		.uleb128 0x2a
 1609 0a44 86050000 		.4byte	.LASF148
 1610 0a48 0E0B0000 		.4byte	0xb0e
 1611 0a4c 21       		.uleb128 0x21
 1612 0a4d 0F090000 		.4byte	0x90f
 1613 0a51 04000000 		.4byte	.LBB48
 1614 0a55 0A000000 		.4byte	.LBE48-.LBB48
 1615 0a59 01       		.byte	0x1
 1616 0a5a A1       		.byte	0xa1
 1617 0a5b 950A0000 		.4byte	0xa95
 1618 0a5f 22       		.uleb128 0x22
 1619 0a60 FD080000 		.4byte	0x8fd
 1620 0a64 04000000 		.4byte	.LBB50
 1621 0a68 06000000 		.4byte	.LBE50-.LBB50
 1622 0a6c 03       		.byte	0x3
 1623 0a6d 7801     		.2byte	0x178
 1624 0a6f 8B0A0000 		.4byte	0xa8b
 1625 0a73 23       		.uleb128 0x23
 1626 0a74 AB080000 		.4byte	0x8ab
 1627 0a78 04000000 		.4byte	.LBB51
 1628 0a7c 06000000 		.4byte	.LBE51-.LBB51
 1629 0a80 0B       		.byte	0xb
 1630 0a81 5A02     		.2byte	0x25a
 1631 0a83 24       		.uleb128 0x24
 1632 0a84 B8080000 		.4byte	0x8b8
 1633 0a88 20       		.byte	0x20
 1634 0a89 00       		.byte	0
 1635 0a8a 00       		.byte	0
 1636 0a8b 25       		.uleb128 0x25
 1637 0a8c 0E000000 		.4byte	.LVL6
 1638 0a90 3C0C0000 		.4byte	0xc3c
 1639 0a94 00       		.byte	0
 1640 0a95 21       		.uleb128 0x21
 1641 0a96 18090000 		.4byte	0x918
 1642 0a9a 22000000 		.4byte	.LBB53
 1643 0a9e 0A000000 		.4byte	.LBE53-.LBB53
 1644 0aa2 01       		.byte	0x1
 1645 0aa3 AE       		.byte	0xae
 1646 0aa4 ED0A0000 		.4byte	0xaed
 1647 0aa8 27       		.uleb128 0x27
 1648 0aa9 22000000 		.4byte	.LBB54
 1649 0aad 0A000000 		.4byte	.LBE54-.LBB54
 1650 0ab1 28       		.uleb128 0x28
 1651 0ab2 25090000 		.4byte	0x925
 1652 0ab6 22       		.uleb128 0x22
 1653 0ab7 06090000 		.4byte	0x906
ARM GAS  /tmp/ccKL1tXS.s 			page 30


 1654 0abb 26000000 		.4byte	.LBB55
 1655 0abf 06000000 		.4byte	.LBE55-.LBB55
 1656 0ac3 03       		.byte	0x3
 1657 0ac4 8F01     		.2byte	0x18f
 1658 0ac6 E20A0000 		.4byte	0xae2
 1659 0aca 23       		.uleb128 0x23
 1660 0acb AB080000 		.4byte	0x8ab
 1661 0acf 26000000 		.4byte	.LBB56
 1662 0ad3 06000000 		.4byte	.LBE56-.LBB56
 1663 0ad7 0B       		.byte	0xb
 1664 0ad8 6D02     		.2byte	0x26d
 1665 0ada 24       		.uleb128 0x24
 1666 0adb B8080000 		.4byte	0x8b8
 1667 0adf 00       		.byte	0
 1668 0ae0 00       		.byte	0
 1669 0ae1 00       		.byte	0
 1670 0ae2 25       		.uleb128 0x25
 1671 0ae3 26000000 		.4byte	.LVL9
 1672 0ae7 430C0000 		.4byte	0xc43
 1673 0aeb 00       		.byte	0
 1674 0aec 00       		.byte	0
 1675 0aed 2B       		.uleb128 0x2b
 1676 0aee 32000000 		.4byte	.LVL10
 1677 0af2 4A0C0000 		.4byte	0xc4a
 1678 0af6 2C       		.uleb128 0x2c
 1679 0af7 01       		.uleb128 0x1
 1680 0af8 50       		.byte	0x50
 1681 0af9 02       		.uleb128 0x2
 1682 0afa 75       		.byte	0x75
 1683 0afb 00       		.sleb128 0
 1684 0afc 00       		.byte	0
 1685 0afd 00       		.byte	0
 1686 0afe 15       		.uleb128 0x15
 1687 0aff B6000000 		.4byte	0xb6
 1688 0b03 0E0B0000 		.4byte	0xb0e
 1689 0b07 16       		.uleb128 0x16
 1690 0b08 AD000000 		.4byte	0xad
 1691 0b0c 0F       		.byte	0xf
 1692 0b0d 00       		.byte	0
 1693 0b0e 07       		.uleb128 0x7
 1694 0b0f FE0A0000 		.4byte	0xafe
 1695 0b13 1F       		.uleb128 0x1f
 1696 0b14 B9060000 		.4byte	.LASF136
 1697 0b18 01       		.byte	0x1
 1698 0b19 C2       		.byte	0xc2
 1699 0b1a 79020000 		.4byte	0x279
 1700 0b1e 00000000 		.4byte	.LFB248
 1701 0b22 24000000 		.4byte	.LFE248-.LFB248
 1702 0b26 01       		.uleb128 0x1
 1703 0b27 9C       		.byte	0x9c
 1704 0b28 780B0000 		.4byte	0xb78
 1705 0b2c 2D       		.uleb128 0x2d
 1706 0b2d 94030000 		.4byte	.LASF38
 1707 0b31 01       		.byte	0x1
 1708 0b32 C2       		.byte	0xc2
 1709 0b33 BD000000 		.4byte	0xbd
 1710 0b37 68000000 		.4byte	.LLST3
ARM GAS  /tmp/ccKL1tXS.s 			page 31


 1711 0b3b 20       		.uleb128 0x20
 1712 0b3c 63747000 		.ascii	"ctp\000"
 1713 0b40 01       		.byte	0x1
 1714 0b41 C3       		.byte	0xc3
 1715 0b42 79020000 		.4byte	0x279
 1716 0b46 86000000 		.4byte	.LLST4
 1717 0b4a 25       		.uleb128 0x25
 1718 0b4b 08000000 		.4byte	.LVL13
 1719 0b4f 48090000 		.4byte	0x948
 1720 0b53 2E       		.uleb128 0x2e
 1721 0b54 12000000 		.4byte	.LVL16
 1722 0b58 5B0C0000 		.4byte	0xc5b
 1723 0b5c 670B0000 		.4byte	0xb67
 1724 0b60 2C       		.uleb128 0x2c
 1725 0b61 01       		.uleb128 0x1
 1726 0b62 51       		.byte	0x51
 1727 0b63 02       		.uleb128 0x2
 1728 0b64 75       		.byte	0x75
 1729 0b65 00       		.sleb128 0
 1730 0b66 00       		.byte	0
 1731 0b67 2B       		.uleb128 0x2b
 1732 0b68 1A000000 		.4byte	.LVL17
 1733 0b6c 0D0A0000 		.4byte	0xa0d
 1734 0b70 2C       		.uleb128 0x2c
 1735 0b71 01       		.uleb128 0x1
 1736 0b72 50       		.byte	0x50
 1737 0b73 02       		.uleb128 0x2
 1738 0b74 74       		.byte	0x74
 1739 0b75 00       		.sleb128 0
 1740 0b76 00       		.byte	0
 1741 0b77 00       		.byte	0
 1742 0b78 1F       		.uleb128 0x1f
 1743 0b79 E1010000 		.4byte	.LASF137
 1744 0b7d 01       		.byte	0x1
 1745 0b7e DD       		.byte	0xdd
 1746 0b7f 79020000 		.4byte	0x279
 1747 0b83 00000000 		.4byte	.LFB249
 1748 0b87 16000000 		.4byte	.LFE249-.LFB249
 1749 0b8b 01       		.uleb128 0x1
 1750 0b8c 9C       		.byte	0x9c
 1751 0b8d C10B0000 		.4byte	0xbc1
 1752 0b91 29       		.uleb128 0x29
 1753 0b92 747000   		.ascii	"tp\000"
 1754 0b95 01       		.byte	0x1
 1755 0b96 DD       		.byte	0xdd
 1756 0b97 79020000 		.4byte	0x279
 1757 0b9b BA000000 		.4byte	.LLST5
 1758 0b9f 20       		.uleb128 0x20
 1759 0ba0 63747000 		.ascii	"ctp\000"
 1760 0ba4 01       		.byte	0x1
 1761 0ba5 DE       		.byte	0xde
 1762 0ba6 79020000 		.4byte	0x279
 1763 0baa D8000000 		.4byte	.LLST6
 1764 0bae 25       		.uleb128 0x25
 1765 0baf 08000000 		.4byte	.LVL21
 1766 0bb3 48090000 		.4byte	0x948
 1767 0bb7 25       		.uleb128 0x25
ARM GAS  /tmp/ccKL1tXS.s 			page 32


 1768 0bb8 10000000 		.4byte	.LVL22
 1769 0bbc 0D0A0000 		.4byte	0xa0d
 1770 0bc0 00       		.byte	0
 1771 0bc1 1F       		.uleb128 0x1f
 1772 0bc2 40010000 		.4byte	.LASF138
 1773 0bc6 01       		.byte	0x1
 1774 0bc7 FA       		.byte	0xfa
 1775 0bc8 79020000 		.4byte	0x279
 1776 0bcc 00000000 		.4byte	.LFB250
 1777 0bd0 18000000 		.4byte	.LFE250-.LFB250
 1778 0bd4 01       		.uleb128 0x1
 1779 0bd5 9C       		.byte	0x9c
 1780 0bd6 0A0C0000 		.4byte	0xc0a
 1781 0bda 29       		.uleb128 0x29
 1782 0bdb 776100   		.ascii	"wa\000"
 1783 0bde 01       		.byte	0x1
 1784 0bdf FA       		.byte	0xfa
 1785 0be0 86070000 		.4byte	0x786
 1786 0be4 F6000000 		.4byte	.LLST7
 1787 0be8 20       		.uleb128 0x20
 1788 0be9 63747000 		.ascii	"ctp\000"
 1789 0bed 01       		.byte	0x1
 1790 0bee FB       		.byte	0xfb
 1791 0bef 79020000 		.4byte	0x279
 1792 0bf3 14010000 		.4byte	.LLST8
 1793 0bf7 25       		.uleb128 0x25
 1794 0bf8 08000000 		.4byte	.LVL24
 1795 0bfc 48090000 		.4byte	0x948
 1796 0c00 25       		.uleb128 0x25
 1797 0c01 12000000 		.4byte	.LVL25
 1798 0c05 0D0A0000 		.4byte	0xa0d
 1799 0c09 00       		.byte	0
 1800 0c0a 2F       		.uleb128 0x2f
 1801 0c0b D9000000 		.4byte	.LASF139
 1802 0c0f 12       		.byte	0x12
 1803 0c10 4407     		.2byte	0x744
 1804 0c12 160C0000 		.4byte	0xc16
 1805 0c16 14       		.uleb128 0x14
 1806 0c17 DE000000 		.4byte	0xde
 1807 0c1b 30       		.uleb128 0x30
 1808 0c1c 636800   		.ascii	"ch\000"
 1809 0c1f 09       		.byte	0x9
 1810 0c20 D201     		.2byte	0x1d2
 1811 0c22 23040000 		.4byte	0x423
 1812 0c26 31       		.uleb128 0x31
 1813 0c27 57030000 		.4byte	.LASF140
 1814 0c2b 01       		.byte	0x1
 1815 0c2c 53       		.byte	0x53
 1816 0c2d 370C0000 		.4byte	0xc37
 1817 0c31 05       		.uleb128 0x5
 1818 0c32 03       		.byte	0x3
 1819 0c33 00000000 		.4byte	ch_debug
 1820 0c37 07       		.uleb128 0x7
 1821 0c38 88080000 		.4byte	0x888
 1822 0c3c 32       		.uleb128 0x32
 1823 0c3d 04070000 		.4byte	.LASF141
 1824 0c41 0D       		.byte	0xd
ARM GAS  /tmp/ccKL1tXS.s 			page 33


 1825 0c42 4F       		.byte	0x4f
 1826 0c43 32       		.uleb128 0x32
 1827 0c44 47040000 		.4byte	.LASF142
 1828 0c48 0D       		.byte	0xd
 1829 0c49 50       		.byte	0x50
 1830 0c4a 33       		.uleb128 0x33
 1831 0c4b 99050000 		.4byte	.LASF143
 1832 0c4f 11       		.byte	0x11
 1833 0c50 F8       		.byte	0xf8
 1834 0c51 5B0C0000 		.4byte	0xc5b
 1835 0c55 0F       		.uleb128 0xf
 1836 0c56 79020000 		.4byte	0x279
 1837 0c5a 00       		.byte	0
 1838 0c5b 34       		.uleb128 0x34
 1839 0c5c 1E040000 		.4byte	.LASF144
 1840 0c60 13       		.byte	0x13
 1841 0c61 1C       		.byte	0x1c
 1842 0c62 25000000 		.4byte	0x25
 1843 0c66 0F       		.uleb128 0xf
 1844 0c67 BD000000 		.4byte	0xbd
 1845 0c6b 0F       		.uleb128 0xf
 1846 0c6c BD000000 		.4byte	0xbd
 1847 0c70 00       		.byte	0
 1848 0c71 00       		.byte	0
 1849              		.section	.debug_abbrev,"",%progbits
 1850              	.Ldebug_abbrev0:
 1851 0000 01       		.uleb128 0x1
 1852 0001 11       		.uleb128 0x11
 1853 0002 01       		.byte	0x1
 1854 0003 25       		.uleb128 0x25
 1855 0004 0E       		.uleb128 0xe
 1856 0005 13       		.uleb128 0x13
 1857 0006 0B       		.uleb128 0xb
 1858 0007 03       		.uleb128 0x3
 1859 0008 0E       		.uleb128 0xe
 1860 0009 1B       		.uleb128 0x1b
 1861 000a 0E       		.uleb128 0xe
 1862 000b 55       		.uleb128 0x55
 1863 000c 17       		.uleb128 0x17
 1864 000d 11       		.uleb128 0x11
 1865 000e 01       		.uleb128 0x1
 1866 000f 10       		.uleb128 0x10
 1867 0010 17       		.uleb128 0x17
 1868 0011 00       		.byte	0
 1869 0012 00       		.byte	0
 1870 0013 02       		.uleb128 0x2
 1871 0014 24       		.uleb128 0x24
 1872 0015 00       		.byte	0
 1873 0016 0B       		.uleb128 0xb
 1874 0017 0B       		.uleb128 0xb
 1875 0018 3E       		.uleb128 0x3e
 1876 0019 0B       		.uleb128 0xb
 1877 001a 03       		.uleb128 0x3
 1878 001b 08       		.uleb128 0x8
 1879 001c 00       		.byte	0
 1880 001d 00       		.byte	0
 1881 001e 03       		.uleb128 0x3
ARM GAS  /tmp/ccKL1tXS.s 			page 34


 1882 001f 16       		.uleb128 0x16
 1883 0020 00       		.byte	0
 1884 0021 03       		.uleb128 0x3
 1885 0022 0E       		.uleb128 0xe
 1886 0023 3A       		.uleb128 0x3a
 1887 0024 0B       		.uleb128 0xb
 1888 0025 3B       		.uleb128 0x3b
 1889 0026 0B       		.uleb128 0xb
 1890 0027 49       		.uleb128 0x49
 1891 0028 13       		.uleb128 0x13
 1892 0029 00       		.byte	0
 1893 002a 00       		.byte	0
 1894 002b 04       		.uleb128 0x4
 1895 002c 24       		.uleb128 0x24
 1896 002d 00       		.byte	0
 1897 002e 0B       		.uleb128 0xb
 1898 002f 0B       		.uleb128 0xb
 1899 0030 3E       		.uleb128 0x3e
 1900 0031 0B       		.uleb128 0xb
 1901 0032 03       		.uleb128 0x3
 1902 0033 0E       		.uleb128 0xe
 1903 0034 00       		.byte	0
 1904 0035 00       		.byte	0
 1905 0036 05       		.uleb128 0x5
 1906 0037 0F       		.uleb128 0xf
 1907 0038 00       		.byte	0
 1908 0039 0B       		.uleb128 0xb
 1909 003a 0B       		.uleb128 0xb
 1910 003b 00       		.byte	0
 1911 003c 00       		.byte	0
 1912 003d 06       		.uleb128 0x6
 1913 003e 0F       		.uleb128 0xf
 1914 003f 00       		.byte	0
 1915 0040 0B       		.uleb128 0xb
 1916 0041 0B       		.uleb128 0xb
 1917 0042 49       		.uleb128 0x49
 1918 0043 13       		.uleb128 0x13
 1919 0044 00       		.byte	0
 1920 0045 00       		.byte	0
 1921 0046 07       		.uleb128 0x7
 1922 0047 26       		.uleb128 0x26
 1923 0048 00       		.byte	0
 1924 0049 49       		.uleb128 0x49
 1925 004a 13       		.uleb128 0x13
 1926 004b 00       		.byte	0
 1927 004c 00       		.byte	0
 1928 004d 08       		.uleb128 0x8
 1929 004e 13       		.uleb128 0x13
 1930 004f 01       		.byte	0x1
 1931 0050 03       		.uleb128 0x3
 1932 0051 0E       		.uleb128 0xe
 1933 0052 0B       		.uleb128 0xb
 1934 0053 0B       		.uleb128 0xb
 1935 0054 3A       		.uleb128 0x3a
 1936 0055 0B       		.uleb128 0xb
 1937 0056 3B       		.uleb128 0x3b
 1938 0057 0B       		.uleb128 0xb
ARM GAS  /tmp/ccKL1tXS.s 			page 35


 1939 0058 01       		.uleb128 0x1
 1940 0059 13       		.uleb128 0x13
 1941 005a 00       		.byte	0
 1942 005b 00       		.byte	0
 1943 005c 09       		.uleb128 0x9
 1944 005d 0D       		.uleb128 0xd
 1945 005e 00       		.byte	0
 1946 005f 03       		.uleb128 0x3
 1947 0060 0E       		.uleb128 0xe
 1948 0061 3A       		.uleb128 0x3a
 1949 0062 0B       		.uleb128 0xb
 1950 0063 3B       		.uleb128 0x3b
 1951 0064 0B       		.uleb128 0xb
 1952 0065 49       		.uleb128 0x49
 1953 0066 13       		.uleb128 0x13
 1954 0067 38       		.uleb128 0x38
 1955 0068 0B       		.uleb128 0xb
 1956 0069 00       		.byte	0
 1957 006a 00       		.byte	0
 1958 006b 0A       		.uleb128 0xa
 1959 006c 0D       		.uleb128 0xd
 1960 006d 00       		.byte	0
 1961 006e 03       		.uleb128 0x3
 1962 006f 08       		.uleb128 0x8
 1963 0070 3A       		.uleb128 0x3a
 1964 0071 0B       		.uleb128 0xb
 1965 0072 3B       		.uleb128 0x3b
 1966 0073 0B       		.uleb128 0xb
 1967 0074 49       		.uleb128 0x49
 1968 0075 13       		.uleb128 0x13
 1969 0076 38       		.uleb128 0x38
 1970 0077 0B       		.uleb128 0xb
 1971 0078 00       		.byte	0
 1972 0079 00       		.byte	0
 1973 007a 0B       		.uleb128 0xb
 1974 007b 0D       		.uleb128 0xd
 1975 007c 00       		.byte	0
 1976 007d 03       		.uleb128 0x3
 1977 007e 08       		.uleb128 0x8
 1978 007f 3A       		.uleb128 0x3a
 1979 0080 0B       		.uleb128 0xb
 1980 0081 3B       		.uleb128 0x3b
 1981 0082 05       		.uleb128 0x5
 1982 0083 49       		.uleb128 0x49
 1983 0084 13       		.uleb128 0x13
 1984 0085 38       		.uleb128 0x38
 1985 0086 0B       		.uleb128 0xb
 1986 0087 00       		.byte	0
 1987 0088 00       		.byte	0
 1988 0089 0C       		.uleb128 0xc
 1989 008a 0D       		.uleb128 0xd
 1990 008b 00       		.byte	0
 1991 008c 03       		.uleb128 0x3
 1992 008d 0E       		.uleb128 0xe
 1993 008e 3A       		.uleb128 0x3a
 1994 008f 0B       		.uleb128 0xb
 1995 0090 3B       		.uleb128 0x3b
ARM GAS  /tmp/ccKL1tXS.s 			page 36


 1996 0091 05       		.uleb128 0x5
 1997 0092 49       		.uleb128 0x49
 1998 0093 13       		.uleb128 0x13
 1999 0094 38       		.uleb128 0x38
 2000 0095 0B       		.uleb128 0xb
 2001 0096 00       		.byte	0
 2002 0097 00       		.byte	0
 2003 0098 0D       		.uleb128 0xd
 2004 0099 13       		.uleb128 0x13
 2005 009a 01       		.byte	0x1
 2006 009b 03       		.uleb128 0x3
 2007 009c 0E       		.uleb128 0xe
 2008 009d 0B       		.uleb128 0xb
 2009 009e 0B       		.uleb128 0xb
 2010 009f 3A       		.uleb128 0x3a
 2011 00a0 0B       		.uleb128 0xb
 2012 00a1 3B       		.uleb128 0x3b
 2013 00a2 05       		.uleb128 0x5
 2014 00a3 01       		.uleb128 0x1
 2015 00a4 13       		.uleb128 0x13
 2016 00a5 00       		.byte	0
 2017 00a6 00       		.byte	0
 2018 00a7 0E       		.uleb128 0xe
 2019 00a8 15       		.uleb128 0x15
 2020 00a9 01       		.byte	0x1
 2021 00aa 27       		.uleb128 0x27
 2022 00ab 19       		.uleb128 0x19
 2023 00ac 01       		.uleb128 0x1
 2024 00ad 13       		.uleb128 0x13
 2025 00ae 00       		.byte	0
 2026 00af 00       		.byte	0
 2027 00b0 0F       		.uleb128 0xf
 2028 00b1 05       		.uleb128 0x5
 2029 00b2 00       		.byte	0
 2030 00b3 49       		.uleb128 0x49
 2031 00b4 13       		.uleb128 0x13
 2032 00b5 00       		.byte	0
 2033 00b6 00       		.byte	0
 2034 00b7 10       		.uleb128 0x10
 2035 00b8 13       		.uleb128 0x13
 2036 00b9 01       		.byte	0x1
 2037 00ba 0B       		.uleb128 0xb
 2038 00bb 0B       		.uleb128 0xb
 2039 00bc 3A       		.uleb128 0x3a
 2040 00bd 0B       		.uleb128 0xb
 2041 00be 3B       		.uleb128 0x3b
 2042 00bf 0B       		.uleb128 0xb
 2043 00c0 01       		.uleb128 0x1
 2044 00c1 13       		.uleb128 0x13
 2045 00c2 00       		.byte	0
 2046 00c3 00       		.byte	0
 2047 00c4 11       		.uleb128 0x11
 2048 00c5 17       		.uleb128 0x17
 2049 00c6 01       		.byte	0x1
 2050 00c7 0B       		.uleb128 0xb
 2051 00c8 0B       		.uleb128 0xb
 2052 00c9 3A       		.uleb128 0x3a
ARM GAS  /tmp/ccKL1tXS.s 			page 37


 2053 00ca 0B       		.uleb128 0xb
 2054 00cb 3B       		.uleb128 0x3b
 2055 00cc 0B       		.uleb128 0xb
 2056 00cd 01       		.uleb128 0x1
 2057 00ce 13       		.uleb128 0x13
 2058 00cf 00       		.byte	0
 2059 00d0 00       		.byte	0
 2060 00d1 12       		.uleb128 0x12
 2061 00d2 0D       		.uleb128 0xd
 2062 00d3 00       		.byte	0
 2063 00d4 03       		.uleb128 0x3
 2064 00d5 0E       		.uleb128 0xe
 2065 00d6 3A       		.uleb128 0x3a
 2066 00d7 0B       		.uleb128 0xb
 2067 00d8 3B       		.uleb128 0x3b
 2068 00d9 0B       		.uleb128 0xb
 2069 00da 49       		.uleb128 0x49
 2070 00db 13       		.uleb128 0x13
 2071 00dc 00       		.byte	0
 2072 00dd 00       		.byte	0
 2073 00de 13       		.uleb128 0x13
 2074 00df 0D       		.uleb128 0xd
 2075 00e0 00       		.byte	0
 2076 00e1 03       		.uleb128 0x3
 2077 00e2 0E       		.uleb128 0xe
 2078 00e3 3A       		.uleb128 0x3a
 2079 00e4 0B       		.uleb128 0xb
 2080 00e5 3B       		.uleb128 0x3b
 2081 00e6 05       		.uleb128 0x5
 2082 00e7 49       		.uleb128 0x49
 2083 00e8 13       		.uleb128 0x13
 2084 00e9 00       		.byte	0
 2085 00ea 00       		.byte	0
 2086 00eb 14       		.uleb128 0x14
 2087 00ec 35       		.uleb128 0x35
 2088 00ed 00       		.byte	0
 2089 00ee 49       		.uleb128 0x49
 2090 00ef 13       		.uleb128 0x13
 2091 00f0 00       		.byte	0
 2092 00f1 00       		.byte	0
 2093 00f2 15       		.uleb128 0x15
 2094 00f3 01       		.uleb128 0x1
 2095 00f4 01       		.byte	0x1
 2096 00f5 49       		.uleb128 0x49
 2097 00f6 13       		.uleb128 0x13
 2098 00f7 01       		.uleb128 0x1
 2099 00f8 13       		.uleb128 0x13
 2100 00f9 00       		.byte	0
 2101 00fa 00       		.byte	0
 2102 00fb 16       		.uleb128 0x16
 2103 00fc 21       		.uleb128 0x21
 2104 00fd 00       		.byte	0
 2105 00fe 49       		.uleb128 0x49
 2106 00ff 13       		.uleb128 0x13
 2107 0100 2F       		.uleb128 0x2f
 2108 0101 0B       		.uleb128 0xb
 2109 0102 00       		.byte	0
ARM GAS  /tmp/ccKL1tXS.s 			page 38


 2110 0103 00       		.byte	0
 2111 0104 17       		.uleb128 0x17
 2112 0105 2E       		.uleb128 0x2e
 2113 0106 01       		.byte	0x1
 2114 0107 03       		.uleb128 0x3
 2115 0108 0E       		.uleb128 0xe
 2116 0109 3A       		.uleb128 0x3a
 2117 010a 0B       		.uleb128 0xb
 2118 010b 3B       		.uleb128 0x3b
 2119 010c 05       		.uleb128 0x5
 2120 010d 27       		.uleb128 0x27
 2121 010e 19       		.uleb128 0x19
 2122 010f 20       		.uleb128 0x20
 2123 0110 0B       		.uleb128 0xb
 2124 0111 01       		.uleb128 0x1
 2125 0112 13       		.uleb128 0x13
 2126 0113 00       		.byte	0
 2127 0114 00       		.byte	0
 2128 0115 18       		.uleb128 0x18
 2129 0116 05       		.uleb128 0x5
 2130 0117 00       		.byte	0
 2131 0118 03       		.uleb128 0x3
 2132 0119 0E       		.uleb128 0xe
 2133 011a 3A       		.uleb128 0x3a
 2134 011b 0B       		.uleb128 0xb
 2135 011c 3B       		.uleb128 0x3b
 2136 011d 05       		.uleb128 0x5
 2137 011e 49       		.uleb128 0x49
 2138 011f 13       		.uleb128 0x13
 2139 0120 00       		.byte	0
 2140 0121 00       		.byte	0
 2141 0122 19       		.uleb128 0x19
 2142 0123 2E       		.uleb128 0x2e
 2143 0124 01       		.byte	0x1
 2144 0125 03       		.uleb128 0x3
 2145 0126 0E       		.uleb128 0xe
 2146 0127 3A       		.uleb128 0x3a
 2147 0128 0B       		.uleb128 0xb
 2148 0129 3B       		.uleb128 0x3b
 2149 012a 05       		.uleb128 0x5
 2150 012b 27       		.uleb128 0x27
 2151 012c 19       		.uleb128 0x19
 2152 012d 49       		.uleb128 0x49
 2153 012e 13       		.uleb128 0x13
 2154 012f 20       		.uleb128 0x20
 2155 0130 0B       		.uleb128 0xb
 2156 0131 01       		.uleb128 0x1
 2157 0132 13       		.uleb128 0x13
 2158 0133 00       		.byte	0
 2159 0134 00       		.byte	0
 2160 0135 1A       		.uleb128 0x1a
 2161 0136 05       		.uleb128 0x5
 2162 0137 00       		.byte	0
 2163 0138 03       		.uleb128 0x3
 2164 0139 08       		.uleb128 0x8
 2165 013a 3A       		.uleb128 0x3a
 2166 013b 0B       		.uleb128 0xb
ARM GAS  /tmp/ccKL1tXS.s 			page 39


 2167 013c 3B       		.uleb128 0x3b
 2168 013d 05       		.uleb128 0x5
 2169 013e 49       		.uleb128 0x49
 2170 013f 13       		.uleb128 0x13
 2171 0140 00       		.byte	0
 2172 0141 00       		.byte	0
 2173 0142 1B       		.uleb128 0x1b
 2174 0143 2E       		.uleb128 0x2e
 2175 0144 01       		.byte	0x1
 2176 0145 03       		.uleb128 0x3
 2177 0146 0E       		.uleb128 0xe
 2178 0147 3A       		.uleb128 0x3a
 2179 0148 0B       		.uleb128 0xb
 2180 0149 3B       		.uleb128 0x3b
 2181 014a 0B       		.uleb128 0xb
 2182 014b 27       		.uleb128 0x27
 2183 014c 19       		.uleb128 0x19
 2184 014d 49       		.uleb128 0x49
 2185 014e 13       		.uleb128 0x13
 2186 014f 20       		.uleb128 0x20
 2187 0150 0B       		.uleb128 0xb
 2188 0151 01       		.uleb128 0x1
 2189 0152 13       		.uleb128 0x13
 2190 0153 00       		.byte	0
 2191 0154 00       		.byte	0
 2192 0155 1C       		.uleb128 0x1c
 2193 0156 05       		.uleb128 0x5
 2194 0157 00       		.byte	0
 2195 0158 03       		.uleb128 0x3
 2196 0159 08       		.uleb128 0x8
 2197 015a 3A       		.uleb128 0x3a
 2198 015b 0B       		.uleb128 0xb
 2199 015c 3B       		.uleb128 0x3b
 2200 015d 0B       		.uleb128 0xb
 2201 015e 49       		.uleb128 0x49
 2202 015f 13       		.uleb128 0x13
 2203 0160 00       		.byte	0
 2204 0161 00       		.byte	0
 2205 0162 1D       		.uleb128 0x1d
 2206 0163 2E       		.uleb128 0x2e
 2207 0164 00       		.byte	0
 2208 0165 03       		.uleb128 0x3
 2209 0166 0E       		.uleb128 0xe
 2210 0167 3A       		.uleb128 0x3a
 2211 0168 0B       		.uleb128 0xb
 2212 0169 3B       		.uleb128 0x3b
 2213 016a 05       		.uleb128 0x5
 2214 016b 27       		.uleb128 0x27
 2215 016c 19       		.uleb128 0x19
 2216 016d 20       		.uleb128 0x20
 2217 016e 0B       		.uleb128 0xb
 2218 016f 00       		.byte	0
 2219 0170 00       		.byte	0
 2220 0171 1E       		.uleb128 0x1e
 2221 0172 34       		.uleb128 0x34
 2222 0173 00       		.byte	0
 2223 0174 03       		.uleb128 0x3
ARM GAS  /tmp/ccKL1tXS.s 			page 40


 2224 0175 0E       		.uleb128 0xe
 2225 0176 49       		.uleb128 0x49
 2226 0177 13       		.uleb128 0x13
 2227 0178 34       		.uleb128 0x34
 2228 0179 19       		.uleb128 0x19
 2229 017a 1C       		.uleb128 0x1c
 2230 017b 0E       		.uleb128 0xe
 2231 017c 00       		.byte	0
 2232 017d 00       		.byte	0
 2233 017e 1F       		.uleb128 0x1f
 2234 017f 2E       		.uleb128 0x2e
 2235 0180 01       		.byte	0x1
 2236 0181 3F       		.uleb128 0x3f
 2237 0182 19       		.uleb128 0x19
 2238 0183 03       		.uleb128 0x3
 2239 0184 0E       		.uleb128 0xe
 2240 0185 3A       		.uleb128 0x3a
 2241 0186 0B       		.uleb128 0xb
 2242 0187 3B       		.uleb128 0x3b
 2243 0188 0B       		.uleb128 0xb
 2244 0189 27       		.uleb128 0x27
 2245 018a 19       		.uleb128 0x19
 2246 018b 49       		.uleb128 0x49
 2247 018c 13       		.uleb128 0x13
 2248 018d 11       		.uleb128 0x11
 2249 018e 01       		.uleb128 0x1
 2250 018f 12       		.uleb128 0x12
 2251 0190 06       		.uleb128 0x6
 2252 0191 40       		.uleb128 0x40
 2253 0192 18       		.uleb128 0x18
 2254 0193 9742     		.uleb128 0x2117
 2255 0195 19       		.uleb128 0x19
 2256 0196 01       		.uleb128 0x1
 2257 0197 13       		.uleb128 0x13
 2258 0198 00       		.byte	0
 2259 0199 00       		.byte	0
 2260 019a 20       		.uleb128 0x20
 2261 019b 34       		.uleb128 0x34
 2262 019c 00       		.byte	0
 2263 019d 03       		.uleb128 0x3
 2264 019e 08       		.uleb128 0x8
 2265 019f 3A       		.uleb128 0x3a
 2266 01a0 0B       		.uleb128 0xb
 2267 01a1 3B       		.uleb128 0x3b
 2268 01a2 0B       		.uleb128 0xb
 2269 01a3 49       		.uleb128 0x49
 2270 01a4 13       		.uleb128 0x13
 2271 01a5 02       		.uleb128 0x2
 2272 01a6 17       		.uleb128 0x17
 2273 01a7 00       		.byte	0
 2274 01a8 00       		.byte	0
 2275 01a9 21       		.uleb128 0x21
 2276 01aa 1D       		.uleb128 0x1d
 2277 01ab 01       		.byte	0x1
 2278 01ac 31       		.uleb128 0x31
 2279 01ad 13       		.uleb128 0x13
 2280 01ae 11       		.uleb128 0x11
ARM GAS  /tmp/ccKL1tXS.s 			page 41


 2281 01af 01       		.uleb128 0x1
 2282 01b0 12       		.uleb128 0x12
 2283 01b1 06       		.uleb128 0x6
 2284 01b2 58       		.uleb128 0x58
 2285 01b3 0B       		.uleb128 0xb
 2286 01b4 59       		.uleb128 0x59
 2287 01b5 0B       		.uleb128 0xb
 2288 01b6 01       		.uleb128 0x1
 2289 01b7 13       		.uleb128 0x13
 2290 01b8 00       		.byte	0
 2291 01b9 00       		.byte	0
 2292 01ba 22       		.uleb128 0x22
 2293 01bb 1D       		.uleb128 0x1d
 2294 01bc 01       		.byte	0x1
 2295 01bd 31       		.uleb128 0x31
 2296 01be 13       		.uleb128 0x13
 2297 01bf 11       		.uleb128 0x11
 2298 01c0 01       		.uleb128 0x1
 2299 01c1 12       		.uleb128 0x12
 2300 01c2 06       		.uleb128 0x6
 2301 01c3 58       		.uleb128 0x58
 2302 01c4 0B       		.uleb128 0xb
 2303 01c5 59       		.uleb128 0x59
 2304 01c6 05       		.uleb128 0x5
 2305 01c7 01       		.uleb128 0x1
 2306 01c8 13       		.uleb128 0x13
 2307 01c9 00       		.byte	0
 2308 01ca 00       		.byte	0
 2309 01cb 23       		.uleb128 0x23
 2310 01cc 1D       		.uleb128 0x1d
 2311 01cd 01       		.byte	0x1
 2312 01ce 31       		.uleb128 0x31
 2313 01cf 13       		.uleb128 0x13
 2314 01d0 11       		.uleb128 0x11
 2315 01d1 01       		.uleb128 0x1
 2316 01d2 12       		.uleb128 0x12
 2317 01d3 06       		.uleb128 0x6
 2318 01d4 58       		.uleb128 0x58
 2319 01d5 0B       		.uleb128 0xb
 2320 01d6 59       		.uleb128 0x59
 2321 01d7 05       		.uleb128 0x5
 2322 01d8 00       		.byte	0
 2323 01d9 00       		.byte	0
 2324 01da 24       		.uleb128 0x24
 2325 01db 05       		.uleb128 0x5
 2326 01dc 00       		.byte	0
 2327 01dd 31       		.uleb128 0x31
 2328 01de 13       		.uleb128 0x13
 2329 01df 1C       		.uleb128 0x1c
 2330 01e0 0B       		.uleb128 0xb
 2331 01e1 00       		.byte	0
 2332 01e2 00       		.byte	0
 2333 01e3 25       		.uleb128 0x25
 2334 01e4 898201   		.uleb128 0x4109
 2335 01e7 00       		.byte	0
 2336 01e8 11       		.uleb128 0x11
 2337 01e9 01       		.uleb128 0x1
ARM GAS  /tmp/ccKL1tXS.s 			page 42


 2338 01ea 31       		.uleb128 0x31
 2339 01eb 13       		.uleb128 0x13
 2340 01ec 00       		.byte	0
 2341 01ed 00       		.byte	0
 2342 01ee 26       		.uleb128 0x26
 2343 01ef 1D       		.uleb128 0x1d
 2344 01f0 01       		.byte	0x1
 2345 01f1 31       		.uleb128 0x31
 2346 01f2 13       		.uleb128 0x13
 2347 01f3 11       		.uleb128 0x11
 2348 01f4 01       		.uleb128 0x1
 2349 01f5 12       		.uleb128 0x12
 2350 01f6 06       		.uleb128 0x6
 2351 01f7 58       		.uleb128 0x58
 2352 01f8 0B       		.uleb128 0xb
 2353 01f9 59       		.uleb128 0x59
 2354 01fa 0B       		.uleb128 0xb
 2355 01fb 00       		.byte	0
 2356 01fc 00       		.byte	0
 2357 01fd 27       		.uleb128 0x27
 2358 01fe 0B       		.uleb128 0xb
 2359 01ff 01       		.byte	0x1
 2360 0200 11       		.uleb128 0x11
 2361 0201 01       		.uleb128 0x1
 2362 0202 12       		.uleb128 0x12
 2363 0203 06       		.uleb128 0x6
 2364 0204 00       		.byte	0
 2365 0205 00       		.byte	0
 2366 0206 28       		.uleb128 0x28
 2367 0207 34       		.uleb128 0x34
 2368 0208 00       		.byte	0
 2369 0209 31       		.uleb128 0x31
 2370 020a 13       		.uleb128 0x13
 2371 020b 00       		.byte	0
 2372 020c 00       		.byte	0
 2373 020d 29       		.uleb128 0x29
 2374 020e 05       		.uleb128 0x5
 2375 020f 00       		.byte	0
 2376 0210 03       		.uleb128 0x3
 2377 0211 08       		.uleb128 0x8
 2378 0212 3A       		.uleb128 0x3a
 2379 0213 0B       		.uleb128 0xb
 2380 0214 3B       		.uleb128 0x3b
 2381 0215 0B       		.uleb128 0xb
 2382 0216 49       		.uleb128 0x49
 2383 0217 13       		.uleb128 0x13
 2384 0218 02       		.uleb128 0x2
 2385 0219 17       		.uleb128 0x17
 2386 021a 00       		.byte	0
 2387 021b 00       		.byte	0
 2388 021c 2A       		.uleb128 0x2a
 2389 021d 34       		.uleb128 0x34
 2390 021e 00       		.byte	0
 2391 021f 03       		.uleb128 0x3
 2392 0220 0E       		.uleb128 0xe
 2393 0221 49       		.uleb128 0x49
 2394 0222 13       		.uleb128 0x13
ARM GAS  /tmp/ccKL1tXS.s 			page 43


 2395 0223 34       		.uleb128 0x34
 2396 0224 19       		.uleb128 0x19
 2397 0225 00       		.byte	0
 2398 0226 00       		.byte	0
 2399 0227 2B       		.uleb128 0x2b
 2400 0228 898201   		.uleb128 0x4109
 2401 022b 01       		.byte	0x1
 2402 022c 11       		.uleb128 0x11
 2403 022d 01       		.uleb128 0x1
 2404 022e 31       		.uleb128 0x31
 2405 022f 13       		.uleb128 0x13
 2406 0230 00       		.byte	0
 2407 0231 00       		.byte	0
 2408 0232 2C       		.uleb128 0x2c
 2409 0233 8A8201   		.uleb128 0x410a
 2410 0236 00       		.byte	0
 2411 0237 02       		.uleb128 0x2
 2412 0238 18       		.uleb128 0x18
 2413 0239 9142     		.uleb128 0x2111
 2414 023b 18       		.uleb128 0x18
 2415 023c 00       		.byte	0
 2416 023d 00       		.byte	0
 2417 023e 2D       		.uleb128 0x2d
 2418 023f 05       		.uleb128 0x5
 2419 0240 00       		.byte	0
 2420 0241 03       		.uleb128 0x3
 2421 0242 0E       		.uleb128 0xe
 2422 0243 3A       		.uleb128 0x3a
 2423 0244 0B       		.uleb128 0xb
 2424 0245 3B       		.uleb128 0x3b
 2425 0246 0B       		.uleb128 0xb
 2426 0247 49       		.uleb128 0x49
 2427 0248 13       		.uleb128 0x13
 2428 0249 02       		.uleb128 0x2
 2429 024a 17       		.uleb128 0x17
 2430 024b 00       		.byte	0
 2431 024c 00       		.byte	0
 2432 024d 2E       		.uleb128 0x2e
 2433 024e 898201   		.uleb128 0x4109
 2434 0251 01       		.byte	0x1
 2435 0252 11       		.uleb128 0x11
 2436 0253 01       		.uleb128 0x1
 2437 0254 31       		.uleb128 0x31
 2438 0255 13       		.uleb128 0x13
 2439 0256 01       		.uleb128 0x1
 2440 0257 13       		.uleb128 0x13
 2441 0258 00       		.byte	0
 2442 0259 00       		.byte	0
 2443 025a 2F       		.uleb128 0x2f
 2444 025b 34       		.uleb128 0x34
 2445 025c 00       		.byte	0
 2446 025d 03       		.uleb128 0x3
 2447 025e 0E       		.uleb128 0xe
 2448 025f 3A       		.uleb128 0x3a
 2449 0260 0B       		.uleb128 0xb
 2450 0261 3B       		.uleb128 0x3b
 2451 0262 05       		.uleb128 0x5
ARM GAS  /tmp/ccKL1tXS.s 			page 44


 2452 0263 49       		.uleb128 0x49
 2453 0264 13       		.uleb128 0x13
 2454 0265 3F       		.uleb128 0x3f
 2455 0266 19       		.uleb128 0x19
 2456 0267 3C       		.uleb128 0x3c
 2457 0268 19       		.uleb128 0x19
 2458 0269 00       		.byte	0
 2459 026a 00       		.byte	0
 2460 026b 30       		.uleb128 0x30
 2461 026c 34       		.uleb128 0x34
 2462 026d 00       		.byte	0
 2463 026e 03       		.uleb128 0x3
 2464 026f 08       		.uleb128 0x8
 2465 0270 3A       		.uleb128 0x3a
 2466 0271 0B       		.uleb128 0xb
 2467 0272 3B       		.uleb128 0x3b
 2468 0273 05       		.uleb128 0x5
 2469 0274 49       		.uleb128 0x49
 2470 0275 13       		.uleb128 0x13
 2471 0276 3F       		.uleb128 0x3f
 2472 0277 19       		.uleb128 0x19
 2473 0278 3C       		.uleb128 0x3c
 2474 0279 19       		.uleb128 0x19
 2475 027a 00       		.byte	0
 2476 027b 00       		.byte	0
 2477 027c 31       		.uleb128 0x31
 2478 027d 34       		.uleb128 0x34
 2479 027e 00       		.byte	0
 2480 027f 03       		.uleb128 0x3
 2481 0280 0E       		.uleb128 0xe
 2482 0281 3A       		.uleb128 0x3a
 2483 0282 0B       		.uleb128 0xb
 2484 0283 3B       		.uleb128 0x3b
 2485 0284 0B       		.uleb128 0xb
 2486 0285 49       		.uleb128 0x49
 2487 0286 13       		.uleb128 0x13
 2488 0287 3F       		.uleb128 0x3f
 2489 0288 19       		.uleb128 0x19
 2490 0289 02       		.uleb128 0x2
 2491 028a 18       		.uleb128 0x18
 2492 028b 00       		.byte	0
 2493 028c 00       		.byte	0
 2494 028d 32       		.uleb128 0x32
 2495 028e 2E       		.uleb128 0x2e
 2496 028f 00       		.byte	0
 2497 0290 3F       		.uleb128 0x3f
 2498 0291 19       		.uleb128 0x19
 2499 0292 03       		.uleb128 0x3
 2500 0293 0E       		.uleb128 0xe
 2501 0294 3A       		.uleb128 0x3a
 2502 0295 0B       		.uleb128 0xb
 2503 0296 3B       		.uleb128 0x3b
 2504 0297 0B       		.uleb128 0xb
 2505 0298 27       		.uleb128 0x27
 2506 0299 19       		.uleb128 0x19
 2507 029a 3C       		.uleb128 0x3c
 2508 029b 19       		.uleb128 0x19
ARM GAS  /tmp/ccKL1tXS.s 			page 45


 2509 029c 00       		.byte	0
 2510 029d 00       		.byte	0
 2511 029e 33       		.uleb128 0x33
 2512 029f 2E       		.uleb128 0x2e
 2513 02a0 01       		.byte	0x1
 2514 02a1 3F       		.uleb128 0x3f
 2515 02a2 19       		.uleb128 0x19
 2516 02a3 03       		.uleb128 0x3
 2517 02a4 0E       		.uleb128 0xe
 2518 02a5 3A       		.uleb128 0x3a
 2519 02a6 0B       		.uleb128 0xb
 2520 02a7 3B       		.uleb128 0x3b
 2521 02a8 0B       		.uleb128 0xb
 2522 02a9 27       		.uleb128 0x27
 2523 02aa 19       		.uleb128 0x19
 2524 02ab 3C       		.uleb128 0x3c
 2525 02ac 19       		.uleb128 0x19
 2526 02ad 01       		.uleb128 0x1
 2527 02ae 13       		.uleb128 0x13
 2528 02af 00       		.byte	0
 2529 02b0 00       		.byte	0
 2530 02b1 34       		.uleb128 0x34
 2531 02b2 2E       		.uleb128 0x2e
 2532 02b3 01       		.byte	0x1
 2533 02b4 3F       		.uleb128 0x3f
 2534 02b5 19       		.uleb128 0x19
 2535 02b6 03       		.uleb128 0x3
 2536 02b7 0E       		.uleb128 0xe
 2537 02b8 3A       		.uleb128 0x3a
 2538 02b9 0B       		.uleb128 0xb
 2539 02ba 3B       		.uleb128 0x3b
 2540 02bb 0B       		.uleb128 0xb
 2541 02bc 27       		.uleb128 0x27
 2542 02bd 19       		.uleb128 0x19
 2543 02be 49       		.uleb128 0x49
 2544 02bf 13       		.uleb128 0x13
 2545 02c0 3C       		.uleb128 0x3c
 2546 02c1 19       		.uleb128 0x19
 2547 02c2 00       		.byte	0
 2548 02c3 00       		.byte	0
 2549 02c4 00       		.byte	0
 2550              		.section	.debug_loc,"",%progbits
 2551              	.Ldebug_loc0:
 2552              	.LLST0:
 2553 0000 10000000 		.4byte	.LVL2
 2554 0004 28000000 		.4byte	.LVL4
 2555 0008 0100     		.2byte	0x1
 2556 000a 54       		.byte	0x54
 2557 000b 28000000 		.4byte	.LVL4
 2558 000f 2C000000 		.4byte	.LFE246
 2559 0013 0100     		.2byte	0x1
 2560 0015 50       		.byte	0x50
 2561 0016 00000000 		.4byte	0
 2562 001a 00000000 		.4byte	0
 2563              	.LLST1:
 2564 001e 00000000 		.4byte	.LVL5
 2565 0022 0D000000 		.4byte	.LVL6-1
ARM GAS  /tmp/ccKL1tXS.s 			page 46


 2566 0026 0100     		.2byte	0x1
 2567 0028 50       		.byte	0x50
 2568 0029 0D000000 		.4byte	.LVL6-1
 2569 002d 36000000 		.4byte	.LVL11
 2570 0031 0100     		.2byte	0x1
 2571 0033 55       		.byte	0x55
 2572 0034 36000000 		.4byte	.LVL11
 2573 0038 3C000000 		.4byte	.LFE247
 2574 003c 0400     		.2byte	0x4
 2575 003e F3       		.byte	0xf3
 2576 003f 01       		.uleb128 0x1
 2577 0040 50       		.byte	0x50
 2578 0041 9F       		.byte	0x9f
 2579 0042 00000000 		.4byte	0
 2580 0046 00000000 		.4byte	0
 2581              	.LLST2:
 2582 004a 10000000 		.4byte	.LVL7
 2583 004e 36000000 		.4byte	.LVL11
 2584 0052 0100     		.2byte	0x1
 2585 0054 54       		.byte	0x54
 2586 0055 36000000 		.4byte	.LVL11
 2587 0059 3C000000 		.4byte	.LFE247
 2588 005d 0100     		.2byte	0x1
 2589 005f 50       		.byte	0x50
 2590 0060 00000000 		.4byte	0
 2591 0064 00000000 		.4byte	0
 2592              	.LLST3:
 2593 0068 00000000 		.4byte	.LVL12
 2594 006c 07000000 		.4byte	.LVL13-1
 2595 0070 0100     		.2byte	0x1
 2596 0072 50       		.byte	0x50
 2597 0073 07000000 		.4byte	.LVL13-1
 2598 0077 24000000 		.4byte	.LFE248
 2599 007b 0100     		.2byte	0x1
 2600 007d 55       		.byte	0x55
 2601 007e 00000000 		.4byte	0
 2602 0082 00000000 		.4byte	0
 2603              	.LLST4:
 2604 0086 0A000000 		.4byte	.LVL14
 2605 008a 0C000000 		.4byte	.LVL15
 2606 008e 0100     		.2byte	0x1
 2607 0090 50       		.byte	0x50
 2608 0091 0C000000 		.4byte	.LVL15
 2609 0095 1A000000 		.4byte	.LVL17
 2610 0099 0100     		.2byte	0x1
 2611 009b 54       		.byte	0x54
 2612 009c 1A000000 		.4byte	.LVL17
 2613 00a0 20000000 		.4byte	.LVL19
 2614 00a4 0100     		.2byte	0x1
 2615 00a6 50       		.byte	0x50
 2616 00a7 20000000 		.4byte	.LVL19
 2617 00ab 24000000 		.4byte	.LFE248
 2618 00af 0100     		.2byte	0x1
 2619 00b1 54       		.byte	0x54
 2620 00b2 00000000 		.4byte	0
 2621 00b6 00000000 		.4byte	0
 2622              	.LLST5:
ARM GAS  /tmp/ccKL1tXS.s 			page 47


 2623 00ba 00000000 		.4byte	.LVL20
 2624 00be 07000000 		.4byte	.LVL21-1
 2625 00c2 0100     		.2byte	0x1
 2626 00c4 50       		.byte	0x50
 2627 00c5 07000000 		.4byte	.LVL21-1
 2628 00c9 16000000 		.4byte	.LFE249
 2629 00cd 0100     		.2byte	0x1
 2630 00cf 54       		.byte	0x54
 2631 00d0 00000000 		.4byte	0
 2632 00d4 00000000 		.4byte	0
 2633              	.LLST6:
 2634 00d8 08000000 		.4byte	.LVL21
 2635 00dc 0F000000 		.4byte	.LVL22-1
 2636 00e0 0100     		.2byte	0x1
 2637 00e2 50       		.byte	0x50
 2638 00e3 10000000 		.4byte	.LVL22
 2639 00e7 16000000 		.4byte	.LFE249
 2640 00eb 0100     		.2byte	0x1
 2641 00ed 50       		.byte	0x50
 2642 00ee 00000000 		.4byte	0
 2643 00f2 00000000 		.4byte	0
 2644              	.LLST7:
 2645 00f6 00000000 		.4byte	.LVL23
 2646 00fa 07000000 		.4byte	.LVL24-1
 2647 00fe 0100     		.2byte	0x1
 2648 0100 50       		.byte	0x50
 2649 0101 07000000 		.4byte	.LVL24-1
 2650 0105 18000000 		.4byte	.LFE250
 2651 0109 0100     		.2byte	0x1
 2652 010b 54       		.byte	0x54
 2653 010c 00000000 		.4byte	0
 2654 0110 00000000 		.4byte	0
 2655              	.LLST8:
 2656 0114 08000000 		.4byte	.LVL24
 2657 0118 11000000 		.4byte	.LVL25-1
 2658 011c 0100     		.2byte	0x1
 2659 011e 50       		.byte	0x50
 2660 011f 12000000 		.4byte	.LVL25
 2661 0123 18000000 		.4byte	.LFE250
 2662 0127 0100     		.2byte	0x1
 2663 0129 50       		.byte	0x50
 2664 012a 00000000 		.4byte	0
 2665 012e 00000000 		.4byte	0
 2666              		.section	.debug_aranges,"",%progbits
 2667 0000 3C000000 		.4byte	0x3c
 2668 0004 0200     		.2byte	0x2
 2669 0006 00000000 		.4byte	.Ldebug_info0
 2670 000a 04       		.byte	0x4
 2671 000b 00       		.byte	0
 2672 000c 0000     		.2byte	0
 2673 000e 0000     		.2byte	0
 2674 0010 00000000 		.4byte	.LFB246
 2675 0014 2C000000 		.4byte	.LFE246-.LFB246
 2676 0018 00000000 		.4byte	.LFB247
 2677 001c 3C000000 		.4byte	.LFE247-.LFB247
 2678 0020 00000000 		.4byte	.LFB248
 2679 0024 24000000 		.4byte	.LFE248-.LFB248
ARM GAS  /tmp/ccKL1tXS.s 			page 48


 2680 0028 00000000 		.4byte	.LFB249
 2681 002c 16000000 		.4byte	.LFE249-.LFB249
 2682 0030 00000000 		.4byte	.LFB250
 2683 0034 18000000 		.4byte	.LFE250-.LFB250
 2684 0038 00000000 		.4byte	0
 2685 003c 00000000 		.4byte	0
 2686              		.section	.debug_ranges,"",%progbits
 2687              	.Ldebug_ranges0:
 2688 0000 00000000 		.4byte	.LFB246
 2689 0004 2C000000 		.4byte	.LFE246
 2690 0008 00000000 		.4byte	.LFB247
 2691 000c 3C000000 		.4byte	.LFE247
 2692 0010 00000000 		.4byte	.LFB248
 2693 0014 24000000 		.4byte	.LFE248
 2694 0018 00000000 		.4byte	.LFB249
 2695 001c 16000000 		.4byte	.LFE249
 2696 0020 00000000 		.4byte	.LFB250
 2697 0024 18000000 		.4byte	.LFE250
 2698 0028 00000000 		.4byte	0
 2699 002c 00000000 		.4byte	0
 2700              		.section	.debug_line,"",%progbits
 2701              	.Ldebug_line0:
 2702 0000 1A030000 		.section	.debug_str,"MS",%progbits,1
 2702      02006402 
 2702      00000201 
 2702      FB0E0D00 
 2702      01010101 
 2703              	.LASF58:
 2704 0000 72656164 		.ascii	"ready_list_t\000"
 2704      795F6C69 
 2704      73745F74 
 2704      00
 2705              	.LASF2:
 2706 000d 73697A65 		.ascii	"size_t\000"
 2706      5F7400
 2707              	.LASF64:
 2708 0014 64656C74 		.ascii	"delta\000"
 2708      6100
 2709              	.LASF94:
 2710 001a 7264796D 		.ascii	"rdymsg\000"
 2710      736700
 2711              	.LASF21:
 2712 0021 75696E74 		.ascii	"uint64_t\000"
 2712      36345F74 
 2712      00
 2713              	.LASF77:
 2714 002a 6B65726E 		.ascii	"kernel_stats\000"
 2714      656C5F73 
 2714      74617473 
 2714      00
 2715              	.LASF3:
 2716 0037 5F5F7569 		.ascii	"__uint8_t\000"
 2716      6E74385F 
 2716      7400
 2717              	.LASF57:
 2718 0041 70726576 		.ascii	"prev\000"
 2718      00
ARM GAS  /tmp/ccKL1tXS.s 			page 49


 2719              	.LASF81:
 2720 0046 706F7274 		.ascii	"port_intctx\000"
 2720      5F696E74 
 2720      63747800 
 2721              	.LASF56:
 2722 0052 63685F74 		.ascii	"ch_threads_queue\000"
 2722      68726561 
 2722      64735F71 
 2722      75657565 
 2722      00
 2723              	.LASF69:
 2724 0063 73797374 		.ascii	"system_debug_t\000"
 2724      656D5F64 
 2724      65627567 
 2724      5F7400
 2725              	.LASF129:
 2726 0072 706F7274 		.ascii	"port_lock\000"
 2726      5F6C6F63 
 2726      6B00
 2727              	.LASF85:
 2728 007c 776F7273 		.ascii	"worst\000"
 2728      7400
 2729              	.LASF88:
 2730 0082 74696D65 		.ascii	"time_measurement_t\000"
 2730      5F6D6561 
 2730      73757265 
 2730      6D656E74 
 2730      5F7400
 2731              	.LASF14:
 2732 0095 6C6F6E67 		.ascii	"long long unsigned int\000"
 2732      206C6F6E 
 2732      6720756E 
 2732      7369676E 
 2732      65642069 
 2733              	.LASF95:
 2734 00ac 65786974 		.ascii	"exitcode\000"
 2734      636F6465 
 2734      00
 2735              	.LASF76:
 2736 00b5 6D61696E 		.ascii	"mainthread\000"
 2736      74687265 
 2736      616400
 2737              	.LASF98:
 2738 00c0 73656E74 		.ascii	"sentmsg\000"
 2738      6D736700 
 2739              	.LASF134:
 2740 00c8 63685265 		.ascii	"chRegFirstThread\000"
 2740      67466972 
 2740      73745468 
 2740      72656164 
 2740      00
 2741              	.LASF139:
 2742 00d9 49544D5F 		.ascii	"ITM_RxBuffer\000"
 2742      52784275 
 2742      66666572 
 2742      00
 2743              	.LASF146:
ARM GAS  /tmp/ccKL1tXS.s 			page 50


 2744 00e6 2E2E2F2E 		.ascii	"../../modules/ChibiOS/os/rt/src/chregistry.c\000"
 2744      2E2F6D6F 
 2744      64756C65 
 2744      732F4368 
 2744      6962694F 
 2745              	.LASF54:
 2746 0113 6E657874 		.ascii	"next\000"
 2746      00
 2747              	.LASF23:
 2748 0118 72747469 		.ascii	"rttime_t\000"
 2748      6D655F74 
 2748      00
 2749              	.LASF12:
 2750 0121 6C6F6E67 		.ascii	"long long int\000"
 2750      206C6F6E 
 2750      6720696E 
 2750      7400
 2751              	.LASF1:
 2752 012f 7369676E 		.ascii	"signed char\000"
 2752      65642063 
 2752      68617200 
 2753              	.LASF107:
 2754 013b 73697A65 		.ascii	"size\000"
 2754      00
 2755              	.LASF138:
 2756 0140 63685265 		.ascii	"chRegFindThreadByWorkingArea\000"
 2756      6746696E 
 2756      64546872 
 2756      65616442 
 2756      79576F72 
 2757              	.LASF75:
 2758 015d 76746C69 		.ascii	"vtlist\000"
 2758      737400
 2759              	.LASF147:
 2760 0164 2F686F6D 		.ascii	"/home/kozinalexey/f4by/ardupilot/build/f4by-ch\000"
 2760      652F6B6F 
 2760      7A696E61 
 2760      6C657865 
 2760      792F6634 
 2761              	.LASF130:
 2762 0193 706F7274 		.ascii	"port_unlock\000"
 2762      5F756E6C 
 2762      6F636B00 
 2763              	.LASF44:
 2764 019f 6D736771 		.ascii	"msgqueue\000"
 2764      75657565 
 2764      00
 2765              	.LASF40:
 2766 01a8 73746174 		.ascii	"state\000"
 2766      6500
 2767              	.LASF9:
 2768 01ae 6C6F6E67 		.ascii	"long int\000"
 2768      20696E74 
 2768      00
 2769              	.LASF25:
 2770 01b7 74737461 		.ascii	"tstate_t\000"
 2770      74655F74 
ARM GAS  /tmp/ccKL1tXS.s 			page 51


 2770      00
 2771              	.LASF65:
 2772 01c0 66756E63 		.ascii	"func\000"
 2772      00
 2773              	.LASF49:
 2774 01c5 73746174 		.ascii	"stats\000"
 2774      7300
 2775              	.LASF123:
 2776 01cb 63686465 		.ascii	"chdebug_t\000"
 2776      6275675F 
 2776      7400
 2777              	.LASF121:
 2778 01d5 6F66665F 		.ascii	"off_preempt\000"
 2778      70726565 
 2778      6D707400 
 2779              	.LASF137:
 2780 01e1 63685265 		.ascii	"chRegFindThreadByPointer\000"
 2780      6746696E 
 2780      64546872 
 2780      65616442 
 2780      79506F69 
 2781              	.LASF37:
 2782 01fa 6F6C6465 		.ascii	"older\000"
 2782      7200
 2783              	.LASF10:
 2784 0200 5F5F7569 		.ascii	"__uint32_t\000"
 2784      6E743332 
 2784      5F7400
 2785              	.LASF78:
 2786 020b 72656761 		.ascii	"regarm_t\000"
 2786      726D5F74 
 2786      00
 2787              	.LASF70:
 2788 0214 63685F73 		.ascii	"ch_system_debug\000"
 2788      79737465 
 2788      6D5F6465 
 2788      62756700 
 2789              	.LASF43:
 2790 0224 77616974 		.ascii	"waiting\000"
 2790      696E6700 
 2791              	.LASF106:
 2792 022c 7A65726F 		.ascii	"zero\000"
 2792      00
 2793              	.LASF124:
 2794 0231 6D757465 		.ascii	"mutex_t\000"
 2794      785F7400 
 2795              	.LASF126:
 2796 0239 76616C75 		.ascii	"value\000"
 2796      6500
 2797              	.LASF30:
 2798 023f 636E745F 		.ascii	"cnt_t\000"
 2798      7400
 2799              	.LASF0:
 2800 0245 756E7369 		.ascii	"unsigned int\000"
 2800      676E6564 
 2800      20696E74 
 2800      00
ARM GAS  /tmp/ccKL1tXS.s 			page 52


 2801              	.LASF145:
 2802 0252 474E5520 		.ascii	"GNU C 4.9.3 20150529 (prerelease) -mcpu=cortex-m4 -"
 2802      4320342E 
 2802      392E3320 
 2802      32303135 
 2802      30353239 
 2803 0285 6D666C6F 		.ascii	"mfloat-abi=hard -mfpu=fpv4-sp-d16 -mno-thumb-interw"
 2803      61742D61 
 2803      62693D68 
 2803      61726420 
 2803      2D6D6670 
 2804 02b8 6F726B20 		.ascii	"ork -mthumb -g -Os -fomit-frame-pointer -falign-fun"
 2804      2D6D7468 
 2804      756D6220 
 2804      2D67202D 
 2804      4F73202D 
 2805 02eb 6374696F 		.ascii	"ctions=16 -ffunction-sections -fdata-sections -fno-"
 2805      6E733D31 
 2805      36202D66 
 2805      66756E63 
 2805      74696F6E 
 2806 031e 636F6D6D 		.ascii	"common -fsingle-precision-constant\000"
 2806      6F6E202D 
 2806      6673696E 
 2806      676C652D 
 2806      70726563 
 2807              	.LASF18:
 2808 0341 75696E74 		.ascii	"uint16_t\000"
 2808      31365F74 
 2808      00
 2809              	.LASF99:
 2810 034a 77747365 		.ascii	"wtsemp\000"
 2810      6D7000
 2811              	.LASF97:
 2812 0351 77747472 		.ascii	"wttrp\000"
 2812      7000
 2813              	.LASF140:
 2814 0357 63685F64 		.ascii	"ch_debug\000"
 2814      65627567 
 2814      00
 2815              	.LASF89:
 2816 0360 6E5F6972 		.ascii	"n_irq\000"
 2816      7100
 2817              	.LASF34:
 2818 0366 71756575 		.ascii	"queue\000"
 2818      6500
 2819              	.LASF48:
 2820 036c 6D706F6F 		.ascii	"mpool\000"
 2820      6C00
 2821              	.LASF120:
 2822 0372 6F66665F 		.ascii	"off_refs\000"
 2822      72656673 
 2822      00
 2823              	.LASF93:
 2824 037b 6B65726E 		.ascii	"kernel_stats_t\000"
 2824      656C5F73 
 2824      74617473 
ARM GAS  /tmp/ccKL1tXS.s 			page 53


 2824      5F7400
 2825              	.LASF52:
 2826 038a 63685F74 		.ascii	"ch_thread\000"
 2826      68726561 
 2826      6400
 2827              	.LASF38:
 2828 0394 6E616D65 		.ascii	"name\000"
 2828      00
 2829              	.LASF28:
 2830 0399 6D73675F 		.ascii	"msg_t\000"
 2830      7400
 2831              	.LASF86:
 2832 039f 6C617374 		.ascii	"last\000"
 2832      00
 2833              	.LASF31:
 2834 03a4 75636E74 		.ascii	"ucnt_t\000"
 2834      5F7400
 2835              	.LASF45:
 2836 03ab 6570656E 		.ascii	"epending\000"
 2836      64696E67 
 2836      00
 2837              	.LASF72:
 2838 03b4 63685F73 		.ascii	"ch_system_t\000"
 2838      79737465 
 2838      6D5F7400 
 2839              	.LASF113:
 2840 03c0 6F66665F 		.ascii	"off_ctx\000"
 2840      63747800 
 2841              	.LASF24:
 2842 03c8 746D6F64 		.ascii	"tmode_t\000"
 2842      655F7400 
 2843              	.LASF92:
 2844 03d0 6D5F6372 		.ascii	"m_crit_isr\000"
 2844      69745F69 
 2844      737200
 2845              	.LASF59:
 2846 03db 63685F72 		.ascii	"ch_ready_list\000"
 2846      65616479 
 2846      5F6C6973 
 2846      7400
 2847              	.LASF29:
 2848 03e9 6576656E 		.ascii	"eventmask_t\000"
 2848      746D6173 
 2848      6B5F7400 
 2849              	.LASF116:
 2850 03f5 6F66665F 		.ascii	"off_name\000"
 2850      6E616D65 
 2850      00
 2851              	.LASF8:
 2852 03fe 5F5F696E 		.ascii	"__int32_t\000"
 2852      7433325F 
 2852      7400
 2853              	.LASF66:
 2854 0408 76697274 		.ascii	"virtual_timers_list_t\000"
 2854      75616C5F 
 2854      74696D65 
 2854      72735F6C 
ARM GAS  /tmp/ccKL1tXS.s 			page 54


 2854      6973745F 
 2855              	.LASF144:
 2856 041e 73747263 		.ascii	"strcmp\000"
 2856      6D7000
 2857              	.LASF79:
 2858 0425 73746B61 		.ascii	"stkalign_t\000"
 2858      6C69676E 
 2858      5F7400
 2859              	.LASF36:
 2860 0430 6E657765 		.ascii	"newer\000"
 2860      7200
 2861              	.LASF47:
 2862 0436 7265616C 		.ascii	"realprio\000"
 2862      7072696F 
 2862      00
 2863              	.LASF108:
 2864 043f 76657273 		.ascii	"version\000"
 2864      696F6E00 
 2865              	.LASF142:
 2866 0447 5F737461 		.ascii	"_stats_stop_measure_crit_thd\000"
 2866      74735F73 
 2866      746F705F 
 2866      6D656173 
 2866      7572655F 
 2867              	.LASF15:
 2868 0464 73697A65 		.ascii	"sizetype\000"
 2868      74797065 
 2868      00
 2869              	.LASF50:
 2870 046d 74687265 		.ascii	"thread_reference_t\000"
 2870      61645F72 
 2870      65666572 
 2870      656E6365 
 2870      5F7400
 2871              	.LASF67:
 2872 0480 63685F76 		.ascii	"ch_virtual_timers_list\000"
 2872      69727475 
 2872      616C5F74 
 2872      696D6572 
 2872      735F6C69 
 2873              	.LASF114:
 2874 0497 6F66665F 		.ascii	"off_newer\000"
 2874      6E657765 
 2874      7200
 2875              	.LASF80:
 2876 04a1 706F7274 		.ascii	"port_context\000"
 2876      5F636F6E 
 2876      74657874 
 2876      00
 2877              	.LASF83:
 2878 04ae 746D5F63 		.ascii	"tm_calibration_t\000"
 2878      616C6962 
 2878      72617469 
 2878      6F6E5F74 
 2878      00
 2879              	.LASF35:
 2880 04bf 7072696F 		.ascii	"prio\000"
ARM GAS  /tmp/ccKL1tXS.s 			page 55


 2880      00
 2881              	.LASF60:
 2882 04c4 63757272 		.ascii	"current\000"
 2882      656E7400 
 2883              	.LASF13:
 2884 04cc 5F5F7569 		.ascii	"__uint64_t\000"
 2884      6E743634 
 2884      5F7400
 2885              	.LASF87:
 2886 04d7 63756D75 		.ascii	"cumulative\000"
 2886      6C617469 
 2886      766500
 2887              	.LASF26:
 2888 04e2 74726566 		.ascii	"trefs_t\000"
 2888      735F7400 
 2889              	.LASF111:
 2890 04ea 74687265 		.ascii	"threadsize\000"
 2890      61647369 
 2890      7A6500
 2891              	.LASF42:
 2892 04f5 72656673 		.ascii	"refs\000"
 2892      00
 2893              	.LASF62:
 2894 04fa 76697274 		.ascii	"virtual_timer_t\000"
 2894      75616C5F 
 2894      74696D65 
 2894      725F7400 
 2895              	.LASF27:
 2896 050a 74707269 		.ascii	"tprio_t\000"
 2896      6F5F7400 
 2897              	.LASF90:
 2898 0512 6E5F6374 		.ascii	"n_ctxswc\000"
 2898      78737763 
 2898      00
 2899              	.LASF125:
 2900 051b 5F426F6F 		.ascii	"_Bool\000"
 2900      6C00
 2901              	.LASF19:
 2902 0521 696E7433 		.ascii	"int32_t\000"
 2902      325F7400 
 2903              	.LASF4:
 2904 0529 756E7369 		.ascii	"unsigned char\000"
 2904      676E6564 
 2904      20636861 
 2904      7200
 2905              	.LASF112:
 2906 0537 6F66665F 		.ascii	"off_prio\000"
 2906      7072696F 
 2906      00
 2907              	.LASF117:
 2908 0540 6F66665F 		.ascii	"off_stklimit\000"
 2908      73746B6C 
 2908      696D6974 
 2908      00
 2909              	.LASF5:
 2910 054d 73686F72 		.ascii	"short int\000"
 2910      7420696E 
ARM GAS  /tmp/ccKL1tXS.s 			page 56


 2910      7400
 2911              	.LASF68:
 2912 0557 6C617374 		.ascii	"lasttime\000"
 2912      74696D65 
 2912      00
 2913              	.LASF127:
 2914 0560 63685468 		.ascii	"chThdGetWorkingAreaX\000"
 2914      64476574 
 2914      576F726B 
 2914      696E6741 
 2914      72656158 
 2915              	.LASF101:
 2916 0575 65776D61 		.ascii	"ewmask\000"
 2916      736B00
 2917              	.LASF73:
 2918 057c 63685F73 		.ascii	"ch_system\000"
 2918      79737465 
 2918      6D00
 2919              	.LASF148:
 2920 0586 5F5F6675 		.ascii	"__func__\000"
 2920      6E635F5F 
 2920      00
 2921              	.LASF131:
 2922 058f 63685379 		.ascii	"chSysLock\000"
 2922      734C6F63 
 2922      6B00
 2923              	.LASF143:
 2924 0599 63685468 		.ascii	"chThdRelease\000"
 2924      6452656C 
 2924      65617365 
 2924      00
 2925              	.LASF63:
 2926 05a6 63685F76 		.ascii	"ch_virtual_timer\000"
 2926      69727475 
 2926      616C5F74 
 2926      696D6572 
 2926      00
 2927              	.LASF102:
 2928 05b7 63685F73 		.ascii	"ch_semaphore\000"
 2928      656D6170 
 2928      686F7265 
 2928      00
 2929              	.LASF122:
 2930 05c4 6F66665F 		.ascii	"off_time\000"
 2930      74696D65 
 2930      00
 2931              	.LASF110:
 2932 05cd 74696D65 		.ascii	"timesize\000"
 2932      73697A65 
 2932      00
 2933              	.LASF20:
 2934 05d6 75696E74 		.ascii	"uint32_t\000"
 2934      33325F74 
 2934      00
 2935              	.LASF100:
 2936 05df 77746D74 		.ascii	"wtmtxp\000"
 2936      787000
ARM GAS  /tmp/ccKL1tXS.s 			page 57


 2937              	.LASF53:
 2938 05e6 63685F74 		.ascii	"ch_threads_list\000"
 2938      68726561 
 2938      64735F6C 
 2938      69737400 
 2939              	.LASF104:
 2940 05f6 6F776E65 		.ascii	"owner\000"
 2940      7200
 2941              	.LASF128:
 2942 05fc 63685265 		.ascii	"chRegGetThreadNameX\000"
 2942      67476574 
 2942      54687265 
 2942      61644E61 
 2942      6D655800 
 2943              	.LASF11:
 2944 0610 6C6F6E67 		.ascii	"long unsigned int\000"
 2944      20756E73 
 2944      69676E65 
 2944      6420696E 
 2944      7400
 2945              	.LASF39:
 2946 0622 77616261 		.ascii	"wabase\000"
 2946      736500
 2947              	.LASF16:
 2948 0629 63686172 		.ascii	"char\000"
 2948      00
 2949              	.LASF135:
 2950 062e 63685265 		.ascii	"chRegNextThread\000"
 2950      674E6578 
 2950      74546872 
 2950      65616400 
 2951              	.LASF6:
 2952 063e 5F5F7569 		.ascii	"__uint16_t\000"
 2952      6E743136 
 2952      5F7400
 2953              	.LASF33:
 2954 0649 74687265 		.ascii	"thread_t\000"
 2954      61645F74 
 2954      00
 2955              	.LASF84:
 2956 0652 62657374 		.ascii	"best\000"
 2956      00
 2957              	.LASF32:
 2958 0657 73797374 		.ascii	"systime_t\000"
 2958      696D655F 
 2958      7400
 2959              	.LASF61:
 2960 0661 76746675 		.ascii	"vtfunc_t\000"
 2960      6E635F74 
 2960      00
 2961              	.LASF132:
 2962 066a 5F5F7365 		.ascii	"__set_BASEPRI\000"
 2962      745F4241 
 2962      53455052 
 2962      4900
 2963              	.LASF71:
 2964 0678 70616E69 		.ascii	"panic_msg\000"
ARM GAS  /tmp/ccKL1tXS.s 			page 58


 2964      635F6D73 
 2964      6700
 2965              	.LASF82:
 2966 0682 6F666673 		.ascii	"offset\000"
 2966      657400
 2967              	.LASF115:
 2968 0689 6F66665F 		.ascii	"off_older\000"
 2968      6F6C6465 
 2968      7200
 2969              	.LASF7:
 2970 0693 73686F72 		.ascii	"short unsigned int\000"
 2970      7420756E 
 2970      7369676E 
 2970      65642069 
 2970      6E7400
 2971              	.LASF105:
 2972 06a6 6964656E 		.ascii	"identifier\000"
 2972      74696669 
 2972      657200
 2973              	.LASF22:
 2974 06b1 7274636E 		.ascii	"rtcnt_t\000"
 2974      745F7400 
 2975              	.LASF136:
 2976 06b9 63685265 		.ascii	"chRegFindThreadByName\000"
 2976      6746696E 
 2976      64546872 
 2976      65616442 
 2976      794E616D 
 2977              	.LASF109:
 2978 06cf 70747273 		.ascii	"ptrsize\000"
 2978      697A6500 
 2979              	.LASF55:
 2980 06d7 74687265 		.ascii	"threads_queue_t\000"
 2980      6164735F 
 2980      71756575 
 2980      655F7400 
 2981              	.LASF103:
 2982 06e7 63685F6D 		.ascii	"ch_mutex\000"
 2982      75746578 
 2982      00
 2983              	.LASF74:
 2984 06f0 726C6973 		.ascii	"rlist\000"
 2984      7400
 2985              	.LASF17:
 2986 06f6 75696E74 		.ascii	"uint8_t\000"
 2986      385F7400 
 2987              	.LASF41:
 2988 06fe 666C6167 		.ascii	"flags\000"
 2988      7300
 2989              	.LASF141:
 2990 0704 5F737461 		.ascii	"_stats_start_measure_crit_thd\000"
 2990      74735F73 
 2990      74617274 
 2990      5F6D6561 
 2990      73757265 
 2991              	.LASF96:
 2992 0722 77746F62 		.ascii	"wtobjp\000"
ARM GAS  /tmp/ccKL1tXS.s 			page 59


 2992      6A7000
 2993              	.LASF51:
 2994 0729 74687265 		.ascii	"threads_list_t\000"
 2994      6164735F 
 2994      6C697374 
 2994      5F7400
 2995              	.LASF118:
 2996 0738 6F66665F 		.ascii	"off_state\000"
 2996      73746174 
 2996      6500
 2997              	.LASF133:
 2998 0742 63685379 		.ascii	"chSysUnlock\000"
 2998      73556E6C 
 2998      6F636B00 
 2999              	.LASF119:
 3000 074e 6F66665F 		.ascii	"off_flags\000"
 3000      666C6167 
 3000      7300
 3001              	.LASF46:
 3002 0758 6D74786C 		.ascii	"mtxlist\000"
 3002      69737400 
 3003              	.LASF91:
 3004 0760 6D5F6372 		.ascii	"m_crit_thd\000"
 3004      69745F74 
 3004      686400
 3005              		.ident	"GCC: (15:4.9.3+svn231177-1) 4.9.3 20150529 (prerelease)"
ARM GAS  /tmp/ccKL1tXS.s 			page 60


DEFINED SYMBOLS
                            *ABS*:0000000000000000 chregistry.c
     /tmp/ccKL1tXS.s:21     .text.chRegFirstThread:0000000000000000 $t
     /tmp/ccKL1tXS.s:26     .text.chRegFirstThread:0000000000000000 chRegFirstThread
     /tmp/ccKL1tXS.s:93     .text.chRegFirstThread:0000000000000028 $d
     /tmp/ccKL1tXS.s:98     .text.chRegNextThread:0000000000000000 $t
     /tmp/ccKL1tXS.s:103    .text.chRegNextThread:0000000000000000 chRegNextThread
     /tmp/ccKL1tXS.s:181    .text.chRegNextThread:0000000000000038 $d
     /tmp/ccKL1tXS.s:186    .text.chRegFindThreadByName:0000000000000000 $t
     /tmp/ccKL1tXS.s:191    .text.chRegFindThreadByName:0000000000000000 chRegFindThreadByName
     /tmp/ccKL1tXS.s:237    .text.chRegFindThreadByPointer:0000000000000000 $t
     /tmp/ccKL1tXS.s:242    .text.chRegFindThreadByPointer:0000000000000000 chRegFindThreadByPointer
     /tmp/ccKL1tXS.s:275    .text.chRegFindThreadByWorkingArea:0000000000000000 $t
     /tmp/ccKL1tXS.s:280    .text.chRegFindThreadByWorkingArea:0000000000000000 chRegFindThreadByWorkingArea
     /tmp/ccKL1tXS.s:318    .rodata.ch_debug:0000000000000000 ch_debug
     /tmp/ccKL1tXS.s:315    .rodata.ch_debug:0000000000000000 $d
                     .debug_frame:0000000000000010 $d

UNDEFINED SYMBOLS
_stats_start_measure_crit_thd
_stats_stop_measure_crit_thd
ch
chThdRelease
strcmp
