ARM GAS  /tmp/ccq2hZYK.s 			page 1


   1              		.syntax unified
   2              		.cpu cortex-m4
   3              		.eabi_attribute 27, 1
   4              		.eabi_attribute 28, 1
   5              		.fpu fpv4-sp-d16
   6              		.eabi_attribute 20, 1
   7              		.eabi_attribute 21, 1
   8              		.eabi_attribute 23, 3
   9              		.eabi_attribute 24, 1
  10              		.eabi_attribute 25, 1
  11              		.eabi_attribute 26, 1
  12              		.eabi_attribute 30, 4
  13              		.eabi_attribute 34, 1
  14              		.eabi_attribute 18, 4
  15              		.thumb
  16              		.file	"chschd.c"
  17              		.text
  18              	.Ltext0:
  19              		.cfi_sections	.debug_frame
  20              		.section	.text._scheduler_init,"ax",%progbits
  21              		.align	1
  22              		.global	_scheduler_init
  23              		.thumb
  24              		.thumb_func
  25              		.type	_scheduler_init, %function
  26              	_scheduler_init:
  27              	.LFB246:
  28              		.file 1 "../../modules/ChibiOS/os/rt/src/chschd.c"
  29              		.loc 1 65 0
  30              		.cfi_startproc
  31              		@ args = 0, pretend = 0, frame = 0
  32              		@ frame_needed = 0, uses_anonymous_args = 0
  33              		@ link register save eliminated.
  34              	.LVL0:
  35              	.LBB39:
  36              	.LBB40:
  37              		.file 2 "../../modules/ChibiOS/os/rt/include/chschd.h"
  38              		.loc 2 550 0
  39 0000 034B     		ldr	r3, .L2
  40              	.LBE40:
  41              	.LBE39:
  42              		.loc 1 68 0
  43 0002 0022     		movs	r2, #0
  44              	.LBB42:
  45              	.LBB41:
  46              		.loc 2 550 0
  47 0004 1B60     		str	r3, [r3]
  48              		.loc 2 551 0
  49 0006 5B60     		str	r3, [r3, #4]
  50              	.LBE41:
  51              	.LBE42:
  52              		.loc 1 68 0
  53 0008 9A60     		str	r2, [r3, #8]
  54              		.loc 1 70 0
  55 000a 1B61     		str	r3, [r3, #16]
  56              		.loc 1 71 0
  57 000c 5B61     		str	r3, [r3, #20]
ARM GAS  /tmp/ccq2hZYK.s 			page 2


  58 000e 7047     		bx	lr
  59              	.L3:
  60              		.align	2
  61              	.L2:
  62 0010 00000000 		.word	.LANCHOR0
  63              		.cfi_endproc
  64              	.LFE246:
  65              		.size	_scheduler_init, .-_scheduler_init
  66              		.section	.text.chSchReadyI,"ax",%progbits
  67              		.align	1
  68              		.global	chSchReadyI
  69              		.thumb
  70              		.thumb_func
  71              		.type	chSchReadyI, %function
  72              	chSchReadyI:
  73              	.LFB247:
  74              		.loc 1 218 0
  75              		.cfi_startproc
  76              		@ args = 0, pretend = 0, frame = 0
  77              		@ frame_needed = 0, uses_anonymous_args = 0
  78              		@ link register save eliminated.
  79              	.LVL1:
  80              		.loc 1 227 0
  81 0000 0023     		movs	r3, #0
  82 0002 80F82030 		strb	r3, [r0, #32]
  83              	.LVL2:
  84              		.loc 1 231 0
  85 0006 8268     		ldr	r2, [r0, #8]
  86              		.loc 1 228 0
  87 0008 054B     		ldr	r3, .L8
  88              	.LVL3:
  89              	.L5:
  90              		.loc 1 230 0 discriminator 1
  91 000a 1B68     		ldr	r3, [r3]
  92              	.LVL4:
  93              		.loc 1 231 0 discriminator 1
  94 000c 9968     		ldr	r1, [r3, #8]
  95 000e 9142     		cmp	r1, r2
  96 0010 FBD2     		bcs	.L5
  97              		.loc 1 234 0
  98 0012 5A68     		ldr	r2, [r3, #4]
  99              		.loc 1 233 0
 100 0014 0360     		str	r3, [r0]
 101              		.loc 1 234 0
 102 0016 4260     		str	r2, [r0, #4]
 103              		.loc 1 235 0
 104 0018 1060     		str	r0, [r2]
 105              		.loc 1 236 0
 106 001a 5860     		str	r0, [r3, #4]
 107              		.loc 1 239 0
 108 001c 7047     		bx	lr
 109              	.L9:
 110 001e 00BF     		.align	2
 111              	.L8:
 112 0020 00000000 		.word	.LANCHOR0
 113              		.cfi_endproc
 114              	.LFE247:
ARM GAS  /tmp/ccq2hZYK.s 			page 3


 115              		.size	chSchReadyI, .-chSchReadyI
 116              		.section	.text.wakeup,"ax",%progbits
 117              		.align	1
 118              		.thumb
 119              		.thumb_func
 120              		.type	wakeup, %function
 121              	wakeup:
 122              	.LFB250:
 123              		.loc 1 319 0
 124              		.cfi_startproc
 125              		@ args = 0, pretend = 0, frame = 0
 126              		@ frame_needed = 0, uses_anonymous_args = 0
 127              	.LVL5:
 128 0000 38B5     		push	{r3, r4, r5, lr}
 129              		.cfi_def_cfa_offset 16
 130              		.cfi_offset 3, -16
 131              		.cfi_offset 4, -12
 132              		.cfi_offset 5, -8
 133              		.cfi_offset 14, -4
 134              		.loc 1 319 0
 135 0002 0446     		mov	r4, r0
 136              	.LVL6:
 137              	.LBB65:
 138              	.LBB66:
 139              	.LBB67:
 140              	.LBB68:
 141              	.LBB69:
 142              	.LBB70:
 143              		.file 3 "../../modules/ChibiOS/os/common/ext/CMSIS/include/cmsis_gcc.h"
 144              		.loc 3 264 0
 145 0004 2023     		movs	r3, #32
 146              	@ 264 "../../modules/ChibiOS/os/common/ext/CMSIS/include/cmsis_gcc.h" 1
 147 0006 83F31188 		MSR basepri, r3
 148              	@ 0 "" 2
 149              		.thumb
 150              	.LBE70:
 151              	.LBE69:
 152              	.LBE68:
 153              	.LBE67:
 154              		.file 4 "../../modules/ChibiOS/os/rt/include/chsys.h"
 155              		.loc 4 417 0
 156 000a FFF7FEFF 		bl	_stats_start_measure_crit_isr
 157              	.LVL7:
 158              	.LBE66:
 159              	.LBE65:
 160              		.loc 1 323 0
 161 000e 94F82030 		ldrb	r3, [r4, #32]	@ zero_extendqisi2
 162 0012 0025     		movs	r5, #0
 163 0014 072B     		cmp	r3, #7
 164 0016 16D8     		bhi	.L11
 165 0018 DFE803F0 		tbb	[pc, r3]
 166              	.L13:
 167 001c 04       		.byte	(.L12-.L13)/2
 168 001d 15       		.byte	(.L11-.L13)/2
 169 001e 15       		.byte	(.L11-.L13)/2
 170 001f 09       		.byte	(.L14-.L13)/2
 171 0020 10       		.byte	(.L15-.L13)/2
ARM GAS  /tmp/ccq2hZYK.s 			page 4


 172 0021 0C       		.byte	(.L16-.L13)/2
 173 0022 15       		.byte	(.L11-.L13)/2
 174 0023 10       		.byte	(.L15-.L13)/2
 175              		.p2align 1
 176              	.L12:
 177              	.LBB71:
 178              	.LBB72:
 179              		.loc 4 437 0
 180 0024 FFF7FEFF 		bl	_stats_stop_measure_crit_isr
 181              	.LVL8:
 182              	.LBB73:
 183              	.LBB74:
 184              	.LBB75:
 185              	.LBB76:
 186              		.loc 3 264 0
 187              	@ 264 "../../modules/ChibiOS/os/common/ext/CMSIS/include/cmsis_gcc.h" 1
 188 0028 85F31188 		MSR basepri, r5
 189              	@ 0 "" 2
 190              		.thumb
 191 002c 38BD     		pop	{r3, r4, r5, pc}
 192              	.LVL9:
 193              	.L14:
 194              	.LBE76:
 195              	.LBE75:
 196              	.LBE74:
 197              	.LBE73:
 198              	.LBE72:
 199              	.LBE71:
 200              		.loc 1 330 0
 201 002e 636A     		ldr	r3, [r4, #36]
 202 0030 1D60     		str	r5, [r3]
 203              		.loc 1 331 0
 204 0032 08E0     		b	.L11
 205              	.L16:
 206              		.loc 1 334 0
 207 0034 626A     		ldr	r2, [r4, #36]
 208              	.LVL10:
 209              	.LBB77:
 210              	.LBB78:
 211              		.file 5 "../../modules/ChibiOS/os/rt/include/chsem.h"
 212              		.loc 5 138 0
 213 0036 9368     		ldr	r3, [r2, #8]
 214 0038 0133     		adds	r3, r3, #1
 215 003a 9360     		str	r3, [r2, #8]
 216              	.LVL11:
 217              	.L15:
 218              	.LBE78:
 219              	.LBE77:
 220              	.LBB79:
 221              	.LBB80:
 222              		.loc 2 637 0
 223 003c 94E80C00 		ldmia	r4, {r2, r3}
 224 0040 1A60     		str	r2, [r3]
 225              		.loc 2 638 0
 226 0042 2268     		ldr	r2, [r4]
 227 0044 5360     		str	r3, [r2, #4]
 228              	.LVL12:
ARM GAS  /tmp/ccq2hZYK.s 			page 5


 229              	.L11:
 230              	.LBE80:
 231              	.LBE79:
 232              		.loc 1 348 0
 233 0046 4FF0FF33 		mov	r3, #-1
 234 004a 6362     		str	r3, [r4, #36]
 235              		.loc 1 349 0
 236 004c 2046     		mov	r0, r4
 237 004e FFF7FEFF 		bl	chSchReadyI
 238              	.LVL13:
 239              	.LBB81:
 240              	.LBB82:
 241              		.loc 4 437 0
 242 0052 FFF7FEFF 		bl	_stats_stop_measure_crit_isr
 243              	.LVL14:
 244              	.LBB83:
 245              	.LBB84:
 246              	.LBB85:
 247              	.LBB86:
 248              		.loc 3 264 0
 249 0056 0023     		movs	r3, #0
 250              	@ 264 "../../modules/ChibiOS/os/common/ext/CMSIS/include/cmsis_gcc.h" 1
 251 0058 83F31188 		MSR basepri, r3
 252              	@ 0 "" 2
 253              		.thumb
 254 005c 38BD     		pop	{r3, r4, r5, pc}
 255              	.LBE86:
 256              	.LBE85:
 257              	.LBE84:
 258              	.LBE83:
 259              	.LBE82:
 260              	.LBE81:
 261              		.cfi_endproc
 262              	.LFE250:
 263              		.size	wakeup, .-wakeup
 264              		.section	.text.chSchReadyAheadI,"ax",%progbits
 265              		.align	1
 266              		.global	chSchReadyAheadI
 267              		.thumb
 268              		.thumb_func
 269              		.type	chSchReadyAheadI, %function
 270              	chSchReadyAheadI:
 271              	.LFB248:
 272              		.loc 1 257 0
 273              		.cfi_startproc
 274              		@ args = 0, pretend = 0, frame = 0
 275              		@ frame_needed = 0, uses_anonymous_args = 0
 276              		@ link register save eliminated.
 277              	.LVL15:
 278              		.loc 1 266 0
 279 0000 0023     		movs	r3, #0
 280 0002 80F82030 		strb	r3, [r0, #32]
 281              	.LVL16:
 282              		.loc 1 270 0
 283 0006 8268     		ldr	r2, [r0, #8]
 284              		.loc 1 267 0
 285 0008 054B     		ldr	r3, .L21
ARM GAS  /tmp/ccq2hZYK.s 			page 6


 286              	.LVL17:
 287              	.L19:
 288              		.loc 1 269 0 discriminator 1
 289 000a 1B68     		ldr	r3, [r3]
 290              	.LVL18:
 291              		.loc 1 270 0 discriminator 1
 292 000c 9968     		ldr	r1, [r3, #8]
 293 000e 9142     		cmp	r1, r2
 294 0010 FBD8     		bhi	.L19
 295              		.loc 1 273 0
 296 0012 5A68     		ldr	r2, [r3, #4]
 297              		.loc 1 272 0
 298 0014 0360     		str	r3, [r0]
 299              		.loc 1 273 0
 300 0016 4260     		str	r2, [r0, #4]
 301              		.loc 1 274 0
 302 0018 1060     		str	r0, [r2]
 303              		.loc 1 275 0
 304 001a 5860     		str	r0, [r3, #4]
 305              		.loc 1 278 0
 306 001c 7047     		bx	lr
 307              	.L22:
 308 001e 00BF     		.align	2
 309              	.L21:
 310 0020 00000000 		.word	.LANCHOR0
 311              		.cfi_endproc
 312              	.LFE248:
 313              		.size	chSchReadyAheadI, .-chSchReadyAheadI
 314              		.section	.text.chSchGoSleepS,"ax",%progbits
 315              		.align	1
 316              		.global	chSchGoSleepS
 317              		.thumb
 318              		.thumb_func
 319              		.type	chSchGoSleepS, %function
 320              	chSchGoSleepS:
 321              	.LFB249:
 322              		.loc 1 289 0
 323              		.cfi_startproc
 324              		@ args = 0, pretend = 0, frame = 0
 325              		@ frame_needed = 0, uses_anonymous_args = 0
 326              	.LVL19:
 327 0000 38B5     		push	{r3, r4, r5, lr}
 328              		.cfi_def_cfa_offset 16
 329              		.cfi_offset 3, -16
 330              		.cfi_offset 4, -12
 331              		.cfi_offset 5, -8
 332              		.cfi_offset 14, -4
 333              		.loc 1 290 0
 334 0002 0A4C     		ldr	r4, .L24
 335 0004 A569     		ldr	r5, [r4, #24]
 336              	.LVL20:
 337              		.loc 1 295 0
 338 0006 85F82000 		strb	r0, [r5, #32]
 339              	.LVL21:
 340              	.LBB87:
 341              	.LBB88:
 342              		.loc 2 618 0
ARM GAS  /tmp/ccq2hZYK.s 			page 7


 343 000a 2068     		ldr	r0, [r4]
 344              	.LVL22:
 345              		.loc 2 620 0
 346 000c 0368     		ldr	r3, [r0]
 347 000e 2360     		str	r3, [r4]
 348              		.loc 2 621 0
 349 0010 5C60     		str	r4, [r3, #4]
 350              	.LBE88:
 351              	.LBE87:
 352              		.loc 1 305 0
 353 0012 0123     		movs	r3, #1
 354 0014 80F82030 		strb	r3, [r0, #32]
 355              	.LVL23:
 356              		.loc 1 313 0
 357 0018 2946     		mov	r1, r5
 358              		.loc 1 304 0
 359 001a A061     		str	r0, [r4, #24]
 360              		.loc 1 313 0
 361 001c FFF7FEFF 		bl	_stats_ctxswc
 362              	.LVL24:
 363 0020 A069     		ldr	r0, [r4, #24]
 364 0022 2946     		mov	r1, r5
 365              		.loc 1 314 0
 366 0024 BDE83840 		pop	{r3, r4, r5, lr}
 367              		.cfi_restore 14
 368              		.cfi_restore 5
 369              		.cfi_restore 4
 370              		.cfi_restore 3
 371              		.cfi_def_cfa_offset 0
 372              	.LVL25:
 373              		.loc 1 313 0
 374 0028 FFF7FEBF 		b	_port_switch
 375              	.LVL26:
 376              	.L25:
 377              		.align	2
 378              	.L24:
 379 002c 00000000 		.word	.LANCHOR0
 380              		.cfi_endproc
 381              	.LFE249:
 382              		.size	chSchGoSleepS, .-chSchGoSleepS
 383              		.section	.text.chSchGoSleepTimeoutS,"ax",%progbits
 384              		.align	1
 385              		.global	chSchGoSleepTimeoutS
 386              		.thumb
 387              		.thumb_func
 388              		.type	chSchGoSleepTimeoutS, %function
 389              	chSchGoSleepTimeoutS:
 390              	.LFB251:
 391              		.loc 1 374 0
 392              		.cfi_startproc
 393              		@ args = 0, pretend = 0, frame = 24
 394              		@ frame_needed = 0, uses_anonymous_args = 0
 395              	.LVL27:
 396 0000 30B5     		push	{r4, r5, lr}
 397              		.cfi_def_cfa_offset 12
 398              		.cfi_offset 4, -12
 399              		.cfi_offset 5, -8
ARM GAS  /tmp/ccq2hZYK.s 			page 8


 400              		.cfi_offset 14, -4
 401              		.loc 1 378 0
 402 0002 4B1C     		adds	r3, r1, #1
 403              		.loc 1 374 0
 404 0004 87B0     		sub	sp, sp, #28
 405              		.cfi_def_cfa_offset 40
 406              		.loc 1 374 0
 407 0006 0546     		mov	r5, r0
 408 0008 0A4C     		ldr	r4, .L33
 409              		.loc 1 378 0
 410 000a 0DD0     		beq	.L27
 411              	.LBB89:
 412              		.loc 1 381 0
 413 000c A369     		ldr	r3, [r4, #24]
 414 000e 0A4A     		ldr	r2, .L33+4
 415 0010 01A8     		add	r0, sp, #4
 416              	.LVL28:
 417 0012 FFF7FEFF 		bl	chVTDoSetI
 418              	.LVL29:
 419              		.loc 1 382 0
 420 0016 2846     		mov	r0, r5
 421 0018 FFF7FEFF 		bl	chSchGoSleepS
 422              	.LVL30:
 423              		.loc 1 383 0
 424 001c 049B     		ldr	r3, [sp, #16]
 425 001e 2BB1     		cbz	r3, .L29
 426              		.loc 1 384 0
 427 0020 01A8     		add	r0, sp, #4
 428              	.LVL31:
 429 0022 FFF7FEFF 		bl	chVTDoResetI
 430              	.LVL32:
 431 0026 01E0     		b	.L29
 432              	.LVL33:
 433              	.L27:
 434              	.LBE89:
 435              		.loc 1 388 0
 436 0028 FFF7FEFF 		bl	chSchGoSleepS
 437              	.LVL34:
 438              	.L29:
 439              		.loc 1 391 0
 440 002c A369     		ldr	r3, [r4, #24]
 441              		.loc 1 392 0
 442 002e 586A     		ldr	r0, [r3, #36]
 443 0030 07B0     		add	sp, sp, #28
 444              		.cfi_def_cfa_offset 12
 445              		@ sp needed
 446 0032 30BD     		pop	{r4, r5, pc}
 447              	.L34:
 448              		.align	2
 449              	.L33:
 450 0034 00000000 		.word	.LANCHOR0
 451 0038 00000000 		.word	wakeup
 452              		.cfi_endproc
 453              	.LFE251:
 454              		.size	chSchGoSleepTimeoutS, .-chSchGoSleepTimeoutS
 455              		.section	.text.chSchWakeupS,"ax",%progbits
 456              		.align	1
ARM GAS  /tmp/ccq2hZYK.s 			page 9


 457              		.global	chSchWakeupS
 458              		.thumb
 459              		.thumb_func
 460              		.type	chSchWakeupS, %function
 461              	chSchWakeupS:
 462              	.LFB252:
 463              		.loc 1 411 0
 464              		.cfi_startproc
 465              		@ args = 0, pretend = 0, frame = 0
 466              		@ frame_needed = 0, uses_anonymous_args = 0
 467              	.LVL35:
 468 0000 70B5     		push	{r4, r5, r6, lr}
 469              		.cfi_def_cfa_offset 16
 470              		.cfi_offset 4, -16
 471              		.cfi_offset 5, -12
 472              		.cfi_offset 6, -8
 473              		.cfi_offset 14, -4
 474              		.loc 1 412 0
 475 0002 0F4E     		ldr	r6, .L37
 476              		.loc 1 422 0
 477 0004 4162     		str	r1, [r0, #36]
 478              		.loc 1 412 0
 479 0006 B369     		ldr	r3, [r6, #24]
 480              	.LVL36:
 481              		.loc 1 428 0
 482 0008 8168     		ldr	r1, [r0, #8]
 483              	.LVL37:
 484 000a 9A68     		ldr	r2, [r3, #8]
 485 000c 9142     		cmp	r1, r2
 486              		.loc 1 411 0
 487 000e 0446     		mov	r4, r0
 488              		.loc 1 428 0
 489 0010 03D8     		bhi	.L36
 490              		.loc 1 446 0
 491 0012 BDE87040 		pop	{r4, r5, r6, lr}
 492              		.cfi_remember_state
 493              		.cfi_restore 14
 494              		.cfi_restore 6
 495              		.cfi_restore 5
 496              		.cfi_restore 4
 497              		.cfi_def_cfa_offset 0
 498              		.loc 1 429 0
 499 0016 FFF7FEBF 		b	chSchReadyI
 500              	.LVL38:
 501              	.L36:
 502              		.cfi_restore_state
 503              		.loc 1 432 0
 504 001a 1846     		mov	r0, r3
 505              	.LVL39:
 506 001c FFF7FEFF 		bl	chSchReadyI
 507              	.LVL40:
 508              		.loc 1 441 0
 509 0020 0123     		movs	r3, #1
 510              		.loc 1 432 0
 511 0022 0546     		mov	r5, r0
 512              	.LVL41:
 513              		.loc 1 444 0
ARM GAS  /tmp/ccq2hZYK.s 			page 10


 514 0024 2946     		mov	r1, r5
 515 0026 2046     		mov	r0, r4
 516              	.LVL42:
 517              		.loc 1 441 0
 518 0028 84F82030 		strb	r3, [r4, #32]
 519              		.loc 1 440 0
 520 002c B461     		str	r4, [r6, #24]
 521              		.loc 1 444 0
 522 002e FFF7FEFF 		bl	_stats_ctxswc
 523              	.LVL43:
 524 0032 2046     		mov	r0, r4
 525 0034 2946     		mov	r1, r5
 526              		.loc 1 446 0
 527 0036 BDE87040 		pop	{r4, r5, r6, lr}
 528              		.cfi_restore 14
 529              		.cfi_restore 6
 530              		.cfi_restore 5
 531              		.cfi_restore 4
 532              		.cfi_def_cfa_offset 0
 533              	.LVL44:
 534              		.loc 1 444 0
 535 003a FFF7FEBF 		b	_port_switch
 536              	.LVL45:
 537              	.L38:
 538 003e 00BF     		.align	2
 539              	.L37:
 540 0040 00000000 		.word	.LANCHOR0
 541              		.cfi_endproc
 542              	.LFE252:
 543              		.size	chSchWakeupS, .-chSchWakeupS
 544              		.section	.text.chSchIsPreemptionRequired,"ax",%progbits
 545              		.align	1
 546              		.global	chSchIsPreemptionRequired
 547              		.thumb
 548              		.thumb_func
 549              		.type	chSchIsPreemptionRequired, %function
 550              	chSchIsPreemptionRequired:
 551              	.LFB254:
 552              		.loc 1 477 0
 553              		.cfi_startproc
 554              		@ args = 0, pretend = 0, frame = 0
 555              		@ frame_needed = 0, uses_anonymous_args = 0
 556              		@ link register save eliminated.
 557              	.LVL46:
 558              		.loc 1 478 0
 559 0000 044B     		ldr	r3, .L40
 560 0002 1A68     		ldr	r2, [r3]
 561              		.loc 1 479 0
 562 0004 9B69     		ldr	r3, [r3, #24]
 563              		.loc 1 490 0
 564 0006 9068     		ldr	r0, [r2, #8]
 565 0008 9B68     		ldr	r3, [r3, #8]
 566              		.loc 1 492 0
 567 000a 9842     		cmp	r0, r3
 568 000c 94BF     		ite	ls
 569 000e 0020     		movls	r0, #0
 570 0010 0120     		movhi	r0, #1
ARM GAS  /tmp/ccq2hZYK.s 			page 11


 571 0012 7047     		bx	lr
 572              	.L41:
 573              		.align	2
 574              	.L40:
 575 0014 00000000 		.word	.LANCHOR0
 576              		.cfi_endproc
 577              	.LFE254:
 578              		.size	chSchIsPreemptionRequired, .-chSchIsPreemptionRequired
 579              		.section	.text.chSchDoRescheduleBehind,"ax",%progbits
 580              		.align	1
 581              		.global	chSchDoRescheduleBehind
 582              		.thumb
 583              		.thumb_func
 584              		.type	chSchDoRescheduleBehind, %function
 585              	chSchDoRescheduleBehind:
 586              	.LFB255:
 587              		.loc 1 504 0
 588              		.cfi_startproc
 589              		@ args = 0, pretend = 0, frame = 0
 590              		@ frame_needed = 0, uses_anonymous_args = 0
 591 0000 38B5     		push	{r3, r4, r5, lr}
 592              		.cfi_def_cfa_offset 16
 593              		.cfi_offset 3, -16
 594              		.cfi_offset 4, -12
 595              		.cfi_offset 5, -8
 596              		.cfi_offset 14, -4
 597              		.loc 1 505 0
 598 0002 0B4C     		ldr	r4, .L43
 599              	.LBB90:
 600              	.LBB91:
 601              		.loc 2 618 0
 602 0004 2368     		ldr	r3, [r4]
 603              	.LBE91:
 604              	.LBE90:
 605              		.loc 1 505 0
 606 0006 A069     		ldr	r0, [r4, #24]
 607              	.LVL47:
 608              	.LBB93:
 609              	.LBB92:
 610              		.loc 2 620 0
 611 0008 1A68     		ldr	r2, [r3]
 612 000a 2260     		str	r2, [r4]
 613              		.loc 2 621 0
 614 000c 5460     		str	r4, [r2, #4]
 615              	.LBE92:
 616              	.LBE93:
 617              		.loc 1 509 0
 618 000e 0122     		movs	r2, #1
 619 0010 83F82020 		strb	r2, [r3, #32]
 620              		.loc 1 508 0
 621 0014 A361     		str	r3, [r4, #24]
 622              		.loc 1 522 0
 623 0016 FFF7FEFF 		bl	chSchReadyI
 624              	.LVL48:
 625 001a 0546     		mov	r5, r0
 626              	.LVL49:
 627              		.loc 1 525 0
ARM GAS  /tmp/ccq2hZYK.s 			page 12


 628 001c 2946     		mov	r1, r5
 629 001e A069     		ldr	r0, [r4, #24]
 630              	.LVL50:
 631 0020 FFF7FEFF 		bl	_stats_ctxswc
 632              	.LVL51:
 633 0024 A069     		ldr	r0, [r4, #24]
 634 0026 2946     		mov	r1, r5
 635              		.loc 1 526 0
 636 0028 BDE83840 		pop	{r3, r4, r5, lr}
 637              		.cfi_restore 14
 638              		.cfi_restore 5
 639              		.cfi_restore 4
 640              		.cfi_restore 3
 641              		.cfi_def_cfa_offset 0
 642              	.LVL52:
 643              		.loc 1 525 0
 644 002c FFF7FEBF 		b	_port_switch
 645              	.LVL53:
 646              	.L44:
 647              		.align	2
 648              	.L43:
 649 0030 00000000 		.word	.LANCHOR0
 650              		.cfi_endproc
 651              	.LFE255:
 652              		.size	chSchDoRescheduleBehind, .-chSchDoRescheduleBehind
 653              		.section	.text.chSchDoRescheduleAhead,"ax",%progbits
 654              		.align	1
 655              		.global	chSchDoRescheduleAhead
 656              		.thumb
 657              		.thumb_func
 658              		.type	chSchDoRescheduleAhead, %function
 659              	chSchDoRescheduleAhead:
 660              	.LFB256:
 661              		.loc 1 537 0
 662              		.cfi_startproc
 663              		@ args = 0, pretend = 0, frame = 0
 664              		@ frame_needed = 0, uses_anonymous_args = 0
 665 0000 38B5     		push	{r3, r4, r5, lr}
 666              		.cfi_def_cfa_offset 16
 667              		.cfi_offset 3, -16
 668              		.cfi_offset 4, -12
 669              		.cfi_offset 5, -8
 670              		.cfi_offset 14, -4
 671              		.loc 1 538 0
 672 0002 0B4C     		ldr	r4, .L46
 673              	.LBB94:
 674              	.LBB95:
 675              		.loc 2 618 0
 676 0004 2368     		ldr	r3, [r4]
 677              	.LBE95:
 678              	.LBE94:
 679              		.loc 1 538 0
 680 0006 A069     		ldr	r0, [r4, #24]
 681              	.LVL54:
 682              	.LBB97:
 683              	.LBB96:
 684              		.loc 2 620 0
ARM GAS  /tmp/ccq2hZYK.s 			page 13


 685 0008 1A68     		ldr	r2, [r3]
 686 000a 2260     		str	r2, [r4]
 687              		.loc 2 621 0
 688 000c 5460     		str	r4, [r2, #4]
 689              	.LBE96:
 690              	.LBE97:
 691              		.loc 1 542 0
 692 000e 0122     		movs	r2, #1
 693 0010 83F82020 		strb	r2, [r3, #32]
 694              		.loc 1 541 0
 695 0014 A361     		str	r3, [r4, #24]
 696              		.loc 1 550 0
 697 0016 FFF7FEFF 		bl	chSchReadyAheadI
 698              	.LVL55:
 699 001a 0546     		mov	r5, r0
 700              	.LVL56:
 701              		.loc 1 553 0
 702 001c 2946     		mov	r1, r5
 703 001e A069     		ldr	r0, [r4, #24]
 704              	.LVL57:
 705 0020 FFF7FEFF 		bl	_stats_ctxswc
 706              	.LVL58:
 707 0024 A069     		ldr	r0, [r4, #24]
 708 0026 2946     		mov	r1, r5
 709              		.loc 1 554 0
 710 0028 BDE83840 		pop	{r3, r4, r5, lr}
 711              		.cfi_restore 14
 712              		.cfi_restore 5
 713              		.cfi_restore 4
 714              		.cfi_restore 3
 715              		.cfi_def_cfa_offset 0
 716              	.LVL59:
 717              		.loc 1 553 0
 718 002c FFF7FEBF 		b	_port_switch
 719              	.LVL60:
 720              	.L47:
 721              		.align	2
 722              	.L46:
 723 0030 00000000 		.word	.LANCHOR0
 724              		.cfi_endproc
 725              	.LFE256:
 726              		.size	chSchDoRescheduleAhead, .-chSchDoRescheduleAhead
 727              		.section	.text.chSchRescheduleS,"ax",%progbits
 728              		.align	1
 729              		.global	chSchRescheduleS
 730              		.thumb
 731              		.thumb_func
 732              		.type	chSchRescheduleS, %function
 733              	chSchRescheduleS:
 734              	.LFB253:
 735              		.loc 1 455 0
 736              		.cfi_startproc
 737              		@ args = 0, pretend = 0, frame = 0
 738              		@ frame_needed = 0, uses_anonymous_args = 0
 739              		@ link register save eliminated.
 740              	.LBB100:
 741              	.LBB101:
ARM GAS  /tmp/ccq2hZYK.s 			page 14


 742              		.loc 2 659 0
 743 0000 044B     		ldr	r3, .L50
 744 0002 1A68     		ldr	r2, [r3]
 745 0004 9B69     		ldr	r3, [r3, #24]
 746              	.LBE101:
 747              	.LBE100:
 748              		.loc 1 459 0
 749 0006 9268     		ldr	r2, [r2, #8]
 750 0008 9B68     		ldr	r3, [r3, #8]
 751 000a 9A42     		cmp	r2, r3
 752 000c 01D9     		bls	.L48
 753              		.loc 1 460 0
 754 000e FFF7FEBF 		b	chSchDoRescheduleAhead
 755              	.LVL61:
 756              	.L48:
 757 0012 7047     		bx	lr
 758              	.L51:
 759              		.align	2
 760              	.L50:
 761 0014 00000000 		.word	.LANCHOR0
 762              		.cfi_endproc
 763              	.LFE253:
 764              		.size	chSchRescheduleS, .-chSchRescheduleS
 765              		.section	.text.chSchDoReschedule,"ax",%progbits
 766              		.align	1
 767              		.global	chSchDoReschedule
 768              		.thumb
 769              		.thumb_func
 770              		.type	chSchDoReschedule, %function
 771              	chSchDoReschedule:
 772              	.LFB257:
 773              		.loc 1 566 0
 774              		.cfi_startproc
 775              		@ args = 0, pretend = 0, frame = 0
 776              		@ frame_needed = 0, uses_anonymous_args = 0
 777 0000 38B5     		push	{r3, r4, r5, lr}
 778              		.cfi_def_cfa_offset 16
 779              		.cfi_offset 3, -16
 780              		.cfi_offset 4, -12
 781              		.cfi_offset 5, -8
 782              		.cfi_offset 14, -4
 783              		.loc 1 567 0
 784 0002 0B4C     		ldr	r4, .L53
 785              	.LBB102:
 786              	.LBB103:
 787              		.loc 2 618 0
 788 0004 2368     		ldr	r3, [r4]
 789              	.LBE103:
 790              	.LBE102:
 791              		.loc 1 567 0
 792 0006 A069     		ldr	r0, [r4, #24]
 793              	.LVL62:
 794              	.LBB105:
 795              	.LBB104:
 796              		.loc 2 620 0
 797 0008 1A68     		ldr	r2, [r3]
 798 000a 2260     		str	r2, [r4]
ARM GAS  /tmp/ccq2hZYK.s 			page 15


 799              		.loc 2 621 0
 800 000c 5460     		str	r4, [r2, #4]
 801              	.LBE104:
 802              	.LBE105:
 803              		.loc 1 571 0
 804 000e 0122     		movs	r2, #1
 805 0010 83F82020 		strb	r2, [r3, #32]
 806              		.loc 1 570 0
 807 0014 A361     		str	r3, [r4, #24]
 808              		.loc 1 598 0
 809 0016 FFF7FEFF 		bl	chSchReadyAheadI
 810              	.LVL63:
 811 001a 0546     		mov	r5, r0
 812              	.LVL64:
 813              		.loc 1 602 0
 814 001c 2946     		mov	r1, r5
 815 001e A069     		ldr	r0, [r4, #24]
 816              	.LVL65:
 817 0020 FFF7FEFF 		bl	_stats_ctxswc
 818              	.LVL66:
 819 0024 A069     		ldr	r0, [r4, #24]
 820 0026 2946     		mov	r1, r5
 821              		.loc 1 603 0
 822 0028 BDE83840 		pop	{r3, r4, r5, lr}
 823              		.cfi_restore 14
 824              		.cfi_restore 5
 825              		.cfi_restore 4
 826              		.cfi_restore 3
 827              		.cfi_def_cfa_offset 0
 828              	.LVL67:
 829              		.loc 1 602 0
 830 002c FFF7FEBF 		b	_port_switch
 831              	.LVL68:
 832              	.L54:
 833              		.align	2
 834              	.L53:
 835 0030 00000000 		.word	.LANCHOR0
 836              		.cfi_endproc
 837              	.LFE257:
 838              		.size	chSchDoReschedule, .-chSchDoReschedule
 839              		.global	ch
 840              		.section	.bss.ch,"aw",%nobits
 841              		.align	3
 842              		.set	.LANCHOR0,. + 0
 843              		.type	ch, %object
 844              		.size	ch, 208
 845              	ch:
 846 0000 00000000 		.space	208
 846      00000000 
 846      00000000 
 846      00000000 
 846      00000000 
 847              		.text
 848              	.Letext0:
 849              		.file 6 "/usr/include/newlib/machine/_default_types.h"
 850              		.file 7 "/usr/include/newlib/sys/_stdint.h"
 851              		.file 8 "../../modules/ChibiOS/os/common/ports/ARMCMx/compilers/GCC/chtypes.h"
ARM GAS  /tmp/ccq2hZYK.s 			page 16


 852              		.file 9 "../../modules/ChibiOS/os/rt/include/chsystypes.h"
 853              		.file 10 "../../modules/ChibiOS/os/common/ports/ARMCMx/chcore.h"
 854              		.file 11 "../../modules/ChibiOS/os/common/ports/ARMCMx/chcore_v7m.h"
 855              		.file 12 "../../modules/ChibiOS/os/rt/include/chtm.h"
 856              		.file 13 "../../modules/ChibiOS/os/rt/include/chstats.h"
 857              		.file 14 "../../modules/ChibiOS/os/rt/include/chmtx.h"
 858              		.file 15 "../../modules/ChibiOS/os/rt/include/chvt.h"
 859              		.file 16 "../../modules/ChibiOS/os/common/ext/CMSIS/include/core_cm4.h"
 860              		.section	.debug_info,"",%progbits
 861              	.Ldebug_info0:
 862 0000 520F0000 		.4byte	0xf52
 863 0004 0400     		.2byte	0x4
 864 0006 00000000 		.4byte	.Ldebug_abbrev0
 865 000a 04       		.byte	0x4
 866 000b 01       		.uleb128 0x1
 867 000c DB020000 		.4byte	.LASF138
 868 0010 01       		.byte	0x1
 869 0011 F5030000 		.4byte	.LASF139
 870 0015 57010000 		.4byte	.LASF140
 871 0019 60000000 		.4byte	.Ldebug_ranges0+0x60
 872 001d 00000000 		.4byte	0
 873 0021 00000000 		.4byte	.Ldebug_line0
 874 0025 02       		.uleb128 0x2
 875 0026 04       		.byte	0x4
 876 0027 05       		.byte	0x5
 877 0028 696E7400 		.ascii	"int\000"
 878 002c 03       		.uleb128 0x3
 879 002d 04       		.byte	0x4
 880 002e 07       		.byte	0x7
 881 002f 49020000 		.4byte	.LASF0
 882 0033 03       		.uleb128 0x3
 883 0034 01       		.byte	0x1
 884 0035 06       		.byte	0x6
 885 0036 44010000 		.4byte	.LASF1
 886 003a 04       		.uleb128 0x4
 887 003b 4C000000 		.4byte	.LASF5
 888 003f 06       		.byte	0x6
 889 0040 1D       		.byte	0x1d
 890 0041 45000000 		.4byte	0x45
 891 0045 03       		.uleb128 0x3
 892 0046 01       		.byte	0x1
 893 0047 08       		.byte	0x8
 894 0048 36050000 		.4byte	.LASF2
 895 004c 03       		.uleb128 0x3
 896 004d 02       		.byte	0x2
 897 004e 05       		.byte	0x5
 898 004f 4D050000 		.4byte	.LASF3
 899 0053 03       		.uleb128 0x3
 900 0054 02       		.byte	0x2
 901 0055 07       		.byte	0x7
 902 0056 83020000 		.4byte	.LASF4
 903 005a 04       		.uleb128 0x4
 904 005b 3F060000 		.4byte	.LASF6
 905 005f 06       		.byte	0x6
 906 0060 3F       		.byte	0x3f
 907 0061 65000000 		.4byte	0x65
 908 0065 03       		.uleb128 0x3
ARM GAS  /tmp/ccq2hZYK.s 			page 17


 909 0066 04       		.byte	0x4
 910 0067 05       		.byte	0x5
 911 0068 A1010000 		.4byte	.LASF7
 912 006c 04       		.uleb128 0x4
 913 006d F7010000 		.4byte	.LASF8
 914 0071 06       		.byte	0x6
 915 0072 41       		.byte	0x41
 916 0073 77000000 		.4byte	0x77
 917 0077 03       		.uleb128 0x3
 918 0078 04       		.byte	0x4
 919 0079 07       		.byte	0x7
 920 007a 1B060000 		.4byte	.LASF9
 921 007e 03       		.uleb128 0x3
 922 007f 08       		.byte	0x8
 923 0080 05       		.byte	0x5
 924 0081 36010000 		.4byte	.LASF10
 925 0085 04       		.uleb128 0x4
 926 0086 D1040000 		.4byte	.LASF11
 927 008a 06       		.byte	0x6
 928 008b 5B       		.byte	0x5b
 929 008c 90000000 		.4byte	0x90
 930 0090 03       		.uleb128 0x3
 931 0091 08       		.byte	0x8
 932 0092 07       		.byte	0x7
 933 0093 B5000000 		.4byte	.LASF12
 934 0097 04       		.uleb128 0x4
 935 0098 04070000 		.4byte	.LASF13
 936 009c 07       		.byte	0x7
 937 009d 14       		.byte	0x14
 938 009e 3A000000 		.4byte	0x3a
 939 00a2 04       		.uleb128 0x4
 940 00a3 2E050000 		.4byte	.LASF14
 941 00a7 07       		.byte	0x7
 942 00a8 1F       		.byte	0x1f
 943 00a9 5A000000 		.4byte	0x5a
 944 00ad 04       		.uleb128 0x4
 945 00ae E9050000 		.4byte	.LASF15
 946 00b2 07       		.byte	0x7
 947 00b3 20       		.byte	0x20
 948 00b4 6C000000 		.4byte	0x6c
 949 00b8 04       		.uleb128 0x4
 950 00b9 20000000 		.4byte	.LASF16
 951 00bd 07       		.byte	0x7
 952 00be 26       		.byte	0x26
 953 00bf 85000000 		.4byte	0x85
 954 00c3 04       		.uleb128 0x4
 955 00c4 BD060000 		.4byte	.LASF17
 956 00c8 08       		.byte	0x8
 957 00c9 39       		.byte	0x39
 958 00ca AD000000 		.4byte	0xad
 959 00ce 04       		.uleb128 0x4
 960 00cf 1D010000 		.4byte	.LASF18
 961 00d3 08       		.byte	0x8
 962 00d4 3A       		.byte	0x3a
 963 00d5 B8000000 		.4byte	0xb8
 964 00d9 04       		.uleb128 0x4
 965 00da 82050000 		.4byte	.LASF19
ARM GAS  /tmp/ccq2hZYK.s 			page 18


 966 00de 08       		.byte	0x8
 967 00df 3C       		.byte	0x3c
 968 00e0 97000000 		.4byte	0x97
 969 00e4 04       		.uleb128 0x4
 970 00e5 B8010000 		.4byte	.LASF20
 971 00e9 08       		.byte	0x8
 972 00ea 3D       		.byte	0x3d
 973 00eb 97000000 		.4byte	0x97
 974 00ef 04       		.uleb128 0x4
 975 00f0 E7040000 		.4byte	.LASF21
 976 00f4 08       		.byte	0x8
 977 00f5 3E       		.byte	0x3e
 978 00f6 97000000 		.4byte	0x97
 979 00fa 04       		.uleb128 0x4
 980 00fb 04050000 		.4byte	.LASF22
 981 00ff 08       		.byte	0x8
 982 0100 40       		.byte	0x40
 983 0101 AD000000 		.4byte	0xad
 984 0105 04       		.uleb128 0x4
 985 0106 B4020000 		.4byte	.LASF23
 986 010a 08       		.byte	0x8
 987 010b 41       		.byte	0x41
 988 010c A2000000 		.4byte	0xa2
 989 0110 04       		.uleb128 0x4
 990 0111 40000000 		.4byte	.LASF24
 991 0115 08       		.byte	0x8
 992 0116 43       		.byte	0x43
 993 0117 AD000000 		.4byte	0xad
 994 011b 04       		.uleb128 0x4
 995 011c 43020000 		.4byte	.LASF25
 996 0120 08       		.byte	0x8
 997 0121 45       		.byte	0x45
 998 0122 A2000000 		.4byte	0xa2
 999 0126 04       		.uleb128 0x4
 1000 0127 BF020000 		.4byte	.LASF26
 1001 012b 08       		.byte	0x8
 1002 012c 46       		.byte	0x46
 1003 012d AD000000 		.4byte	0xad
 1004 0131 04       		.uleb128 0x4
 1005 0132 7E060000 		.4byte	.LASF27
 1006 0136 09       		.byte	0x9
 1007 0137 33       		.byte	0x33
 1008 0138 AD000000 		.4byte	0xad
 1009 013c 04       		.uleb128 0x4
 1010 013d 5E060000 		.4byte	.LASF28
 1011 0141 09       		.byte	0x9
 1012 0142 3F       		.byte	0x3f
 1013 0143 47010000 		.4byte	0x147
 1014 0147 05       		.uleb128 0x5
 1015 0148 A5020000 		.4byte	.LASF47
 1016 014c 60       		.byte	0x60
 1017 014d 02       		.byte	0x2
 1018 014e 9A       		.byte	0x9a
 1019 014f 32020000 		.4byte	0x232
 1020 0153 06       		.uleb128 0x6
 1021 0154 77020000 		.4byte	.LASF29
 1022 0158 02       		.byte	0x2
ARM GAS  /tmp/ccq2hZYK.s 			page 19


 1023 0159 9B       		.byte	0x9b
 1024 015a 67020000 		.4byte	0x267
 1025 015e 00       		.byte	0
 1026 015f 06       		.uleb128 0x6
 1027 0160 A6040000 		.4byte	.LASF30
 1028 0164 02       		.byte	0x2
 1029 0165 9C       		.byte	0x9c
 1030 0166 FA000000 		.4byte	0xfa
 1031 016a 08       		.byte	0x8
 1032 016b 07       		.uleb128 0x7
 1033 016c 63747800 		.ascii	"ctx\000"
 1034 0170 02       		.byte	0x2
 1035 0171 9D       		.byte	0x9d
 1036 0172 6C040000 		.4byte	0x46c
 1037 0176 0C       		.byte	0xc
 1038 0177 06       		.uleb128 0x6
 1039 0178 29040000 		.4byte	.LASF31
 1040 017c 02       		.byte	0x2
 1041 017d 9F       		.byte	0x9f
 1042 017e 3D020000 		.4byte	0x23d
 1043 0182 10       		.byte	0x10
 1044 0183 06       		.uleb128 0x6
 1045 0184 39060000 		.4byte	.LASF32
 1046 0188 02       		.byte	0x2
 1047 0189 A0       		.byte	0xa0
 1048 018a 3D020000 		.4byte	0x23d
 1049 018e 14       		.byte	0x14
 1050 018f 06       		.uleb128 0x6
 1051 0190 AF020000 		.4byte	.LASF33
 1052 0194 02       		.byte	0x2
 1053 0195 A7       		.byte	0xa7
 1054 0196 53070000 		.4byte	0x753
 1055 019a 18       		.byte	0x18
 1056 019b 06       		.uleb128 0x6
 1057 019c 2D060000 		.4byte	.LASF34
 1058 01a0 02       		.byte	0x2
 1059 01a1 B0       		.byte	0xb0
 1060 01a2 65070000 		.4byte	0x765
 1061 01a6 1C       		.byte	0x1c
 1062 01a7 06       		.uleb128 0x6
 1063 01a8 9B010000 		.4byte	.LASF35
 1064 01ac 02       		.byte	0x2
 1065 01ad B5       		.byte	0xb5
 1066 01ae E4000000 		.4byte	0xe4
 1067 01b2 20       		.byte	0x20
 1068 01b3 06       		.uleb128 0x6
 1069 01b4 0C070000 		.4byte	.LASF36
 1070 01b8 02       		.byte	0x2
 1071 01b9 B9       		.byte	0xb9
 1072 01ba D9000000 		.4byte	0xd9
 1073 01be 21       		.byte	0x21
 1074 01bf 06       		.uleb128 0x6
 1075 01c0 EF040000 		.4byte	.LASF37
 1076 01c4 02       		.byte	0x2
 1077 01c5 BE       		.byte	0xbe
 1078 01c6 EF000000 		.4byte	0xef
 1079 01ca 22       		.byte	0x22
ARM GAS  /tmp/ccq2hZYK.s 			page 20


 1080 01cb 08       		.uleb128 0x8
 1081 01cc 7500     		.ascii	"u\000"
 1082 01ce 02       		.byte	0x2
 1083 01cf 0F01     		.2byte	0x10f
 1084 01d1 88060000 		.4byte	0x688
 1085 01d5 24       		.byte	0x24
 1086 01d6 09       		.uleb128 0x9
 1087 01d7 2D020000 		.4byte	.LASF38
 1088 01db 02       		.byte	0x2
 1089 01dc 1401     		.2byte	0x114
 1090 01de 43020000 		.4byte	0x243
 1091 01e2 28       		.byte	0x28
 1092 01e3 09       		.uleb128 0x9
 1093 01e4 92010000 		.4byte	.LASF39
 1094 01e8 02       		.byte	0x2
 1095 01e9 1A01     		.2byte	0x11a
 1096 01eb 67020000 		.4byte	0x267
 1097 01ef 2C       		.byte	0x2c
 1098 01f0 09       		.uleb128 0x9
 1099 01f1 C6020000 		.4byte	.LASF40
 1100 01f5 02       		.byte	0x2
 1101 01f6 2001     		.2byte	0x120
 1102 01f8 10010000 		.4byte	0x110
 1103 01fc 34       		.byte	0x34
 1104 01fd 09       		.uleb128 0x9
 1105 01fe 87070000 		.4byte	.LASF41
 1106 0202 02       		.byte	0x2
 1107 0203 2701     		.2byte	0x127
 1108 0205 4D070000 		.4byte	0x74d
 1109 0209 38       		.byte	0x38
 1110 020a 09       		.uleb128 0x9
 1111 020b 2F040000 		.4byte	.LASF42
 1112 020f 02       		.byte	0x2
 1113 0210 2B01     		.2byte	0x12b
 1114 0212 FA000000 		.4byte	0xfa
 1115 0216 3C       		.byte	0x3c
 1116 0217 09       		.uleb128 0x9
 1117 0218 7D020000 		.4byte	.LASF43
 1118 021c 02       		.byte	0x2
 1119 021d 3201     		.2byte	0x132
 1120 021f 1A030000 		.4byte	0x31a
 1121 0223 40       		.byte	0x40
 1122 0224 09       		.uleb128 0x9
 1123 0225 C6010000 		.4byte	.LASF44
 1124 0229 02       		.byte	0x2
 1125 022a 3801     		.2byte	0x138
 1126 022c 39060000 		.4byte	0x639
 1127 0230 48       		.byte	0x48
 1128 0231 00       		.byte	0
 1129 0232 04       		.uleb128 0x4
 1130 0233 41040000 		.4byte	.LASF45
 1131 0237 09       		.byte	0x9
 1132 0238 44       		.byte	0x44
 1133 0239 3D020000 		.4byte	0x23d
 1134 023d 0A       		.uleb128 0xa
 1135 023e 04       		.byte	0x4
 1136 023f 3C010000 		.4byte	0x13c
ARM GAS  /tmp/ccq2hZYK.s 			page 21


 1137 0243 04       		.uleb128 0x4
 1138 0244 31070000 		.4byte	.LASF46
 1139 0248 09       		.byte	0x9
 1140 0249 49       		.byte	0x49
 1141 024a 4E020000 		.4byte	0x24e
 1142 024e 05       		.uleb128 0x5
 1143 024f 05060000 		.4byte	.LASF48
 1144 0253 04       		.byte	0x4
 1145 0254 02       		.byte	0x2
 1146 0255 88       		.byte	0x88
 1147 0256 67020000 		.4byte	0x267
 1148 025a 06       		.uleb128 0x6
 1149 025b 18010000 		.4byte	.LASF49
 1150 025f 02       		.byte	0x2
 1151 0260 89       		.byte	0x89
 1152 0261 3D020000 		.4byte	0x23d
 1153 0265 00       		.byte	0
 1154 0266 00       		.byte	0
 1155 0267 04       		.uleb128 0x4
 1156 0268 E5060000 		.4byte	.LASF50
 1157 026c 09       		.byte	0x9
 1158 026d 50       		.byte	0x50
 1159 026e 72020000 		.4byte	0x272
 1160 0272 05       		.uleb128 0x5
 1161 0273 67000000 		.4byte	.LASF51
 1162 0277 08       		.byte	0x8
 1163 0278 02       		.byte	0x2
 1164 0279 8F       		.byte	0x8f
 1165 027a 97020000 		.4byte	0x297
 1166 027e 06       		.uleb128 0x6
 1167 027f 18010000 		.4byte	.LASF49
 1168 0283 02       		.byte	0x2
 1169 0284 90       		.byte	0x90
 1170 0285 3D020000 		.4byte	0x23d
 1171 0289 00       		.byte	0
 1172 028a 06       		.uleb128 0x6
 1173 028b 56000000 		.4byte	.LASF52
 1174 028f 02       		.byte	0x2
 1175 0290 91       		.byte	0x91
 1176 0291 3D020000 		.4byte	0x23d
 1177 0295 04       		.byte	0x4
 1178 0296 00       		.byte	0
 1179 0297 04       		.uleb128 0x4
 1180 0298 00000000 		.4byte	.LASF53
 1181 029c 09       		.byte	0x9
 1182 029d 57       		.byte	0x57
 1183 029e A2020000 		.4byte	0x2a2
 1184 02a2 0B       		.uleb128 0xb
 1185 02a3 DC030000 		.4byte	.LASF54
 1186 02a7 1C       		.byte	0x1c
 1187 02a8 02       		.byte	0x2
 1188 02a9 6A01     		.2byte	0x16a
 1189 02ab FE020000 		.4byte	0x2fe
 1190 02af 09       		.uleb128 0x9
 1191 02b0 77020000 		.4byte	.LASF29
 1192 02b4 02       		.byte	0x2
 1193 02b5 6B01     		.2byte	0x16b
ARM GAS  /tmp/ccq2hZYK.s 			page 22


 1194 02b7 67020000 		.4byte	0x267
 1195 02bb 00       		.byte	0
 1196 02bc 09       		.uleb128 0x9
 1197 02bd A6040000 		.4byte	.LASF30
 1198 02c1 02       		.byte	0x2
 1199 02c2 6C01     		.2byte	0x16c
 1200 02c4 FA000000 		.4byte	0xfa
 1201 02c8 08       		.byte	0x8
 1202 02c9 08       		.uleb128 0x8
 1203 02ca 63747800 		.ascii	"ctx\000"
 1204 02ce 02       		.byte	0x2
 1205 02cf 6E01     		.2byte	0x16e
 1206 02d1 6C040000 		.4byte	0x46c
 1207 02d5 0C       		.byte	0xc
 1208 02d6 09       		.uleb128 0x9
 1209 02d7 29040000 		.4byte	.LASF31
 1210 02db 02       		.byte	0x2
 1211 02dc 7101     		.2byte	0x171
 1212 02de 3D020000 		.4byte	0x23d
 1213 02e2 10       		.byte	0x10
 1214 02e3 09       		.uleb128 0x9
 1215 02e4 39060000 		.4byte	.LASF32
 1216 02e8 02       		.byte	0x2
 1217 02e9 7201     		.2byte	0x172
 1218 02eb 3D020000 		.4byte	0x23d
 1219 02ef 14       		.byte	0x14
 1220 02f0 09       		.uleb128 0x9
 1221 02f1 C9040000 		.4byte	.LASF55
 1222 02f5 02       		.byte	0x2
 1223 02f6 7501     		.2byte	0x175
 1224 02f8 3D020000 		.4byte	0x23d
 1225 02fc 18       		.byte	0x18
 1226 02fd 00       		.byte	0
 1227 02fe 04       		.uleb128 0x4
 1228 02ff 88060000 		.4byte	.LASF56
 1229 0303 09       		.byte	0x9
 1230 0304 5C       		.byte	0x5c
 1231 0305 09030000 		.4byte	0x309
 1232 0309 0A       		.uleb128 0xa
 1233 030a 04       		.byte	0x4
 1234 030b 0F030000 		.4byte	0x30f
 1235 030f 0C       		.uleb128 0xc
 1236 0310 1A030000 		.4byte	0x31a
 1237 0314 0D       		.uleb128 0xd
 1238 0315 1A030000 		.4byte	0x31a
 1239 0319 00       		.byte	0
 1240 031a 0E       		.uleb128 0xe
 1241 031b 04       		.byte	0x4
 1242 031c 04       		.uleb128 0x4
 1243 031d F4040000 		.4byte	.LASF57
 1244 0321 09       		.byte	0x9
 1245 0322 61       		.byte	0x61
 1246 0323 27030000 		.4byte	0x327
 1247 0327 0B       		.uleb128 0xb
 1248 0328 AC050000 		.4byte	.LASF58
 1249 032c 14       		.byte	0x14
 1250 032d 02       		.byte	0x2
ARM GAS  /tmp/ccq2hZYK.s 			page 23


 1251 032e 4501     		.2byte	0x145
 1252 0330 76030000 		.4byte	0x376
 1253 0334 09       		.uleb128 0x9
 1254 0335 18010000 		.4byte	.LASF49
 1255 0339 02       		.byte	0x2
 1256 033a 4601     		.2byte	0x146
 1257 033c 6B070000 		.4byte	0x76b
 1258 0340 00       		.byte	0
 1259 0341 09       		.uleb128 0x9
 1260 0342 56000000 		.4byte	.LASF52
 1261 0346 02       		.byte	0x2
 1262 0347 4701     		.2byte	0x147
 1263 0349 6B070000 		.4byte	0x76b
 1264 034d 04       		.byte	0x4
 1265 034e 09       		.uleb128 0x9
 1266 034f 13000000 		.4byte	.LASF59
 1267 0353 02       		.byte	0x2
 1268 0354 4801     		.2byte	0x148
 1269 0356 31010000 		.4byte	0x131
 1270 035a 08       		.byte	0x8
 1271 035b 09       		.uleb128 0x9
 1272 035c C1010000 		.4byte	.LASF60
 1273 0360 02       		.byte	0x2
 1274 0361 4901     		.2byte	0x149
 1275 0363 FE020000 		.4byte	0x2fe
 1276 0367 0C       		.byte	0xc
 1277 0368 08       		.uleb128 0x8
 1278 0369 70617200 		.ascii	"par\000"
 1279 036d 02       		.byte	0x2
 1280 036e 4B01     		.2byte	0x14b
 1281 0370 1A030000 		.4byte	0x31a
 1282 0374 10       		.byte	0x10
 1283 0375 00       		.byte	0
 1284 0376 04       		.uleb128 0x4
 1285 0377 F5000000 		.4byte	.LASF61
 1286 037b 09       		.byte	0x9
 1287 037c 66       		.byte	0x66
 1288 037d 81030000 		.4byte	0x381
 1289 0381 0B       		.uleb128 0xb
 1290 0382 54040000 		.4byte	.LASF62
 1291 0386 10       		.byte	0x10
 1292 0387 02       		.byte	0x2
 1293 0388 5501     		.2byte	0x155
 1294 038a C3030000 		.4byte	0x3c3
 1295 038e 09       		.uleb128 0x9
 1296 038f 18010000 		.4byte	.LASF49
 1297 0393 02       		.byte	0x2
 1298 0394 5601     		.2byte	0x156
 1299 0396 6B070000 		.4byte	0x76b
 1300 039a 00       		.byte	0
 1301 039b 09       		.uleb128 0x9
 1302 039c 56000000 		.4byte	.LASF52
 1303 03a0 02       		.byte	0x2
 1304 03a1 5801     		.2byte	0x158
 1305 03a3 6B070000 		.4byte	0x76b
 1306 03a7 04       		.byte	0x4
 1307 03a8 09       		.uleb128 0x9
ARM GAS  /tmp/ccq2hZYK.s 			page 24


 1308 03a9 13000000 		.4byte	.LASF59
 1309 03ad 02       		.byte	0x2
 1310 03ae 5A01     		.2byte	0x15a
 1311 03b0 31010000 		.4byte	0x131
 1312 03b4 08       		.byte	0x8
 1313 03b5 09       		.uleb128 0x9
 1314 03b6 57050000 		.4byte	.LASF63
 1315 03ba 02       		.byte	0x2
 1316 03bb 6201     		.2byte	0x162
 1317 03bd 31010000 		.4byte	0x131
 1318 03c1 0C       		.byte	0xc
 1319 03c2 00       		.byte	0
 1320 03c3 04       		.uleb128 0x4
 1321 03c4 78000000 		.4byte	.LASF64
 1322 03c8 09       		.byte	0x9
 1323 03c9 6B       		.byte	0x6b
 1324 03ca CE030000 		.4byte	0x3ce
 1325 03ce 0B       		.uleb128 0xb
 1326 03cf 1D020000 		.4byte	.LASF65
 1327 03d3 04       		.byte	0x4
 1328 03d4 02       		.byte	0x2
 1329 03d5 7C01     		.2byte	0x17c
 1330 03d7 E9030000 		.4byte	0x3e9
 1331 03db 09       		.uleb128 0x9
 1332 03dc 9F060000 		.4byte	.LASF66
 1333 03e0 02       		.byte	0x2
 1334 03e1 8401     		.2byte	0x184
 1335 03e3 71070000 		.4byte	0x771
 1336 03e7 00       		.byte	0
 1337 03e8 00       		.byte	0
 1338 03e9 04       		.uleb128 0x4
 1339 03ea CF020000 		.4byte	.LASF67
 1340 03ee 09       		.byte	0x9
 1341 03ef 70       		.byte	0x70
 1342 03f0 F4030000 		.4byte	0x3f4
 1343 03f4 0B       		.uleb128 0xb
 1344 03f5 78050000 		.4byte	.LASF68
 1345 03f9 D0       		.byte	0xd0
 1346 03fa 02       		.byte	0x2
 1347 03fb 9C01     		.2byte	0x19c
 1348 03fd 4F040000 		.4byte	0x44f
 1349 0401 09       		.uleb128 0x9
 1350 0402 FE060000 		.4byte	.LASF69
 1351 0406 02       		.byte	0x2
 1352 0407 A001     		.2byte	0x1a0
 1353 0409 97020000 		.4byte	0x297
 1354 040d 00       		.byte	0
 1355 040e 09       		.uleb128 0x9
 1356 040f 50010000 		.4byte	.LASF70
 1357 0413 02       		.byte	0x2
 1358 0414 A401     		.2byte	0x1a4
 1359 0416 76030000 		.4byte	0x376
 1360 041a 1C       		.byte	0x1c
 1361 041b 08       		.uleb128 0x8
 1362 041c 64626700 		.ascii	"dbg\000"
 1363 0420 02       		.byte	0x2
 1364 0421 A801     		.2byte	0x1a8
ARM GAS  /tmp/ccq2hZYK.s 			page 25


 1365 0423 C3030000 		.4byte	0x3c3
 1366 0427 2C       		.byte	0x2c
 1367 0428 09       		.uleb128 0x9
 1368 0429 E2000000 		.4byte	.LASF71
 1369 042d 02       		.byte	0x2
 1370 042e AC01     		.2byte	0x1ac
 1371 0430 3C010000 		.4byte	0x13c
 1372 0434 30       		.byte	0x30
 1373 0435 08       		.uleb128 0x8
 1374 0436 746D00   		.ascii	"tm\000"
 1375 0439 02       		.byte	0x2
 1376 043a B101     		.2byte	0x1b1
 1377 043c EB050000 		.4byte	0x5eb
 1378 0440 90       		.byte	0x90
 1379 0441 09       		.uleb128 0x9
 1380 0442 B0060000 		.4byte	.LASF72
 1381 0446 02       		.byte	0x2
 1382 0447 B701     		.2byte	0x1b7
 1383 0449 7D060000 		.4byte	0x67d
 1384 044d 98       		.byte	0x98
 1385 044e 00       		.byte	0
 1386 044f 03       		.uleb128 0x3
 1387 0450 04       		.byte	0x4
 1388 0451 07       		.byte	0x7
 1389 0452 38040000 		.4byte	.LASF73
 1390 0456 04       		.uleb128 0x4
 1391 0457 02020000 		.4byte	.LASF74
 1392 045b 0A       		.byte	0xa
 1393 045c 65       		.byte	0x65
 1394 045d 1A030000 		.4byte	0x31a
 1395 0461 04       		.uleb128 0x4
 1396 0462 1E040000 		.4byte	.LASF75
 1397 0466 0A       		.byte	0xa
 1398 0467 6D       		.byte	0x6d
 1399 0468 B8000000 		.4byte	0xb8
 1400 046c 05       		.uleb128 0x5
 1401 046d 83040000 		.4byte	.LASF76
 1402 0471 04       		.byte	0x4
 1403 0472 0A       		.byte	0xa
 1404 0473 89       		.byte	0x89
 1405 0474 84040000 		.4byte	0x484
 1406 0478 07       		.uleb128 0x7
 1407 0479 737000   		.ascii	"sp\000"
 1408 047c 0A       		.byte	0xa
 1409 047d 8A       		.byte	0x8a
 1410 047e D0050000 		.4byte	0x5d0
 1411 0482 00       		.byte	0
 1412 0483 00       		.byte	0
 1413 0484 0B       		.uleb128 0xb
 1414 0485 5B000000 		.4byte	.LASF77
 1415 0489 64       		.byte	0x64
 1416 048a 0B       		.byte	0xb
 1417 048b 5901     		.2byte	0x159
 1418 048d D0050000 		.4byte	0x5d0
 1419 0491 08       		.uleb128 0x8
 1420 0492 73313600 		.ascii	"s16\000"
 1421 0496 0B       		.byte	0xb
ARM GAS  /tmp/ccq2hZYK.s 			page 26


 1422 0497 5B01     		.2byte	0x15b
 1423 0499 56040000 		.4byte	0x456
 1424 049d 00       		.byte	0
 1425 049e 08       		.uleb128 0x8
 1426 049f 73313700 		.ascii	"s17\000"
 1427 04a3 0B       		.byte	0xb
 1428 04a4 5C01     		.2byte	0x15c
 1429 04a6 56040000 		.4byte	0x456
 1430 04aa 04       		.byte	0x4
 1431 04ab 08       		.uleb128 0x8
 1432 04ac 73313800 		.ascii	"s18\000"
 1433 04b0 0B       		.byte	0xb
 1434 04b1 5D01     		.2byte	0x15d
 1435 04b3 56040000 		.4byte	0x456
 1436 04b7 08       		.byte	0x8
 1437 04b8 08       		.uleb128 0x8
 1438 04b9 73313900 		.ascii	"s19\000"
 1439 04bd 0B       		.byte	0xb
 1440 04be 5E01     		.2byte	0x15e
 1441 04c0 56040000 		.4byte	0x456
 1442 04c4 0C       		.byte	0xc
 1443 04c5 08       		.uleb128 0x8
 1444 04c6 73323000 		.ascii	"s20\000"
 1445 04ca 0B       		.byte	0xb
 1446 04cb 5F01     		.2byte	0x15f
 1447 04cd 56040000 		.4byte	0x456
 1448 04d1 10       		.byte	0x10
 1449 04d2 08       		.uleb128 0x8
 1450 04d3 73323100 		.ascii	"s21\000"
 1451 04d7 0B       		.byte	0xb
 1452 04d8 6001     		.2byte	0x160
 1453 04da 56040000 		.4byte	0x456
 1454 04de 14       		.byte	0x14
 1455 04df 08       		.uleb128 0x8
 1456 04e0 73323200 		.ascii	"s22\000"
 1457 04e4 0B       		.byte	0xb
 1458 04e5 6101     		.2byte	0x161
 1459 04e7 56040000 		.4byte	0x456
 1460 04eb 18       		.byte	0x18
 1461 04ec 08       		.uleb128 0x8
 1462 04ed 73323300 		.ascii	"s23\000"
 1463 04f1 0B       		.byte	0xb
 1464 04f2 6201     		.2byte	0x162
 1465 04f4 56040000 		.4byte	0x456
 1466 04f8 1C       		.byte	0x1c
 1467 04f9 08       		.uleb128 0x8
 1468 04fa 73323400 		.ascii	"s24\000"
 1469 04fe 0B       		.byte	0xb
 1470 04ff 6301     		.2byte	0x163
 1471 0501 56040000 		.4byte	0x456
 1472 0505 20       		.byte	0x20
 1473 0506 08       		.uleb128 0x8
 1474 0507 73323500 		.ascii	"s25\000"
 1475 050b 0B       		.byte	0xb
 1476 050c 6401     		.2byte	0x164
 1477 050e 56040000 		.4byte	0x456
 1478 0512 24       		.byte	0x24
ARM GAS  /tmp/ccq2hZYK.s 			page 27


 1479 0513 08       		.uleb128 0x8
 1480 0514 73323600 		.ascii	"s26\000"
 1481 0518 0B       		.byte	0xb
 1482 0519 6501     		.2byte	0x165
 1483 051b 56040000 		.4byte	0x456
 1484 051f 28       		.byte	0x28
 1485 0520 08       		.uleb128 0x8
 1486 0521 73323700 		.ascii	"s27\000"
 1487 0525 0B       		.byte	0xb
 1488 0526 6601     		.2byte	0x166
 1489 0528 56040000 		.4byte	0x456
 1490 052c 2C       		.byte	0x2c
 1491 052d 08       		.uleb128 0x8
 1492 052e 73323800 		.ascii	"s28\000"
 1493 0532 0B       		.byte	0xb
 1494 0533 6701     		.2byte	0x167
 1495 0535 56040000 		.4byte	0x456
 1496 0539 30       		.byte	0x30
 1497 053a 08       		.uleb128 0x8
 1498 053b 73323900 		.ascii	"s29\000"
 1499 053f 0B       		.byte	0xb
 1500 0540 6801     		.2byte	0x168
 1501 0542 56040000 		.4byte	0x456
 1502 0546 34       		.byte	0x34
 1503 0547 08       		.uleb128 0x8
 1504 0548 73333000 		.ascii	"s30\000"
 1505 054c 0B       		.byte	0xb
 1506 054d 6901     		.2byte	0x169
 1507 054f 56040000 		.4byte	0x456
 1508 0553 38       		.byte	0x38
 1509 0554 08       		.uleb128 0x8
 1510 0555 73333100 		.ascii	"s31\000"
 1511 0559 0B       		.byte	0xb
 1512 055a 6A01     		.2byte	0x16a
 1513 055c 56040000 		.4byte	0x456
 1514 0560 3C       		.byte	0x3c
 1515 0561 08       		.uleb128 0x8
 1516 0562 723400   		.ascii	"r4\000"
 1517 0565 0B       		.byte	0xb
 1518 0566 6C01     		.2byte	0x16c
 1519 0568 56040000 		.4byte	0x456
 1520 056c 40       		.byte	0x40
 1521 056d 08       		.uleb128 0x8
 1522 056e 723500   		.ascii	"r5\000"
 1523 0571 0B       		.byte	0xb
 1524 0572 6D01     		.2byte	0x16d
 1525 0574 56040000 		.4byte	0x456
 1526 0578 44       		.byte	0x44
 1527 0579 08       		.uleb128 0x8
 1528 057a 723600   		.ascii	"r6\000"
 1529 057d 0B       		.byte	0xb
 1530 057e 6E01     		.2byte	0x16e
 1531 0580 56040000 		.4byte	0x456
 1532 0584 48       		.byte	0x48
 1533 0585 08       		.uleb128 0x8
 1534 0586 723700   		.ascii	"r7\000"
 1535 0589 0B       		.byte	0xb
ARM GAS  /tmp/ccq2hZYK.s 			page 28


 1536 058a 6F01     		.2byte	0x16f
 1537 058c 56040000 		.4byte	0x456
 1538 0590 4C       		.byte	0x4c
 1539 0591 08       		.uleb128 0x8
 1540 0592 723800   		.ascii	"r8\000"
 1541 0595 0B       		.byte	0xb
 1542 0596 7001     		.2byte	0x170
 1543 0598 56040000 		.4byte	0x456
 1544 059c 50       		.byte	0x50
 1545 059d 08       		.uleb128 0x8
 1546 059e 723900   		.ascii	"r9\000"
 1547 05a1 0B       		.byte	0xb
 1548 05a2 7101     		.2byte	0x171
 1549 05a4 56040000 		.4byte	0x456
 1550 05a8 54       		.byte	0x54
 1551 05a9 08       		.uleb128 0x8
 1552 05aa 72313000 		.ascii	"r10\000"
 1553 05ae 0B       		.byte	0xb
 1554 05af 7201     		.2byte	0x172
 1555 05b1 56040000 		.4byte	0x456
 1556 05b5 58       		.byte	0x58
 1557 05b6 08       		.uleb128 0x8
 1558 05b7 72313100 		.ascii	"r11\000"
 1559 05bb 0B       		.byte	0xb
 1560 05bc 7301     		.2byte	0x173
 1561 05be 56040000 		.4byte	0x456
 1562 05c2 5C       		.byte	0x5c
 1563 05c3 08       		.uleb128 0x8
 1564 05c4 6C7200   		.ascii	"lr\000"
 1565 05c7 0B       		.byte	0xb
 1566 05c8 7401     		.2byte	0x174
 1567 05ca 56040000 		.4byte	0x456
 1568 05ce 60       		.byte	0x60
 1569 05cf 00       		.byte	0
 1570 05d0 0A       		.uleb128 0xa
 1571 05d1 04       		.byte	0x4
 1572 05d2 84040000 		.4byte	0x484
 1573 05d6 0F       		.uleb128 0xf
 1574 05d7 04       		.byte	0x4
 1575 05d8 0C       		.byte	0xc
 1576 05d9 38       		.byte	0x38
 1577 05da EB050000 		.4byte	0x5eb
 1578 05de 06       		.uleb128 0x6
 1579 05df A9060000 		.4byte	.LASF78
 1580 05e3 0C       		.byte	0xc
 1581 05e4 3C       		.byte	0x3c
 1582 05e5 C3000000 		.4byte	0xc3
 1583 05e9 00       		.byte	0
 1584 05ea 00       		.byte	0
 1585 05eb 04       		.uleb128 0x4
 1586 05ec 90040000 		.4byte	.LASF79
 1587 05f0 0C       		.byte	0xc
 1588 05f1 3D       		.byte	0x3d
 1589 05f2 D6050000 		.4byte	0x5d6
 1590 05f6 0F       		.uleb128 0xf
 1591 05f7 18       		.byte	0x18
 1592 05f8 0C       		.byte	0xc
ARM GAS  /tmp/ccq2hZYK.s 			page 29


 1593 05f9 48       		.byte	0x48
 1594 05fa 39060000 		.4byte	0x639
 1595 05fe 06       		.uleb128 0x6
 1596 05ff 67060000 		.4byte	.LASF80
 1597 0603 0C       		.byte	0xc
 1598 0604 49       		.byte	0x49
 1599 0605 C3000000 		.4byte	0xc3
 1600 0609 00       		.byte	0
 1601 060a 06       		.uleb128 0x6
 1602 060b 9C000000 		.4byte	.LASF81
 1603 060f 0C       		.byte	0xc
 1604 0610 4A       		.byte	0x4a
 1605 0611 C3000000 		.4byte	0xc3
 1606 0615 04       		.byte	0x4
 1607 0616 06       		.uleb128 0x6
 1608 0617 BA020000 		.4byte	.LASF82
 1609 061b 0C       		.byte	0xc
 1610 061c 4B       		.byte	0x4b
 1611 061d C3000000 		.4byte	0xc3
 1612 0621 08       		.byte	0x8
 1613 0622 07       		.uleb128 0x7
 1614 0623 6E00     		.ascii	"n\000"
 1615 0625 0C       		.byte	0xc
 1616 0626 4C       		.byte	0x4c
 1617 0627 26010000 		.4byte	0x126
 1618 062b 0C       		.byte	0xc
 1619 062c 06       		.uleb128 0x6
 1620 062d DC040000 		.4byte	.LASF83
 1621 0631 0C       		.byte	0xc
 1622 0632 4D       		.byte	0x4d
 1623 0633 CE000000 		.4byte	0xce
 1624 0637 10       		.byte	0x10
 1625 0638 00       		.byte	0
 1626 0639 04       		.uleb128 0x4
 1627 063a A2000000 		.4byte	.LASF84
 1628 063e 0C       		.byte	0xc
 1629 063f 4E       		.byte	0x4e
 1630 0640 F6050000 		.4byte	0x5f6
 1631 0644 0F       		.uleb128 0xf
 1632 0645 38       		.byte	0x38
 1633 0646 0D       		.byte	0xd
 1634 0647 38       		.byte	0x38
 1635 0648 7D060000 		.4byte	0x67d
 1636 064c 06       		.uleb128 0x6
 1637 064d 71020000 		.4byte	.LASF85
 1638 0651 0D       		.byte	0xd
 1639 0652 39       		.byte	0x39
 1640 0653 26010000 		.4byte	0x126
 1641 0657 00       		.byte	0
 1642 0658 06       		.uleb128 0x6
 1643 0659 1F050000 		.4byte	.LASF86
 1644 065d 0D       		.byte	0xd
 1645 065e 3A       		.byte	0x3a
 1646 065f 26010000 		.4byte	0x126
 1647 0663 04       		.byte	0x4
 1648 0664 06       		.uleb128 0x6
 1649 0665 8F070000 		.4byte	.LASF87
ARM GAS  /tmp/ccq2hZYK.s 			page 30


 1650 0669 0D       		.byte	0xd
 1651 066a 3B       		.byte	0x3b
 1652 066b 39060000 		.4byte	0x639
 1653 066f 08       		.byte	0x8
 1654 0670 06       		.uleb128 0x6
 1655 0671 D1030000 		.4byte	.LASF88
 1656 0675 0D       		.byte	0xd
 1657 0676 3D       		.byte	0x3d
 1658 0677 39060000 		.4byte	0x639
 1659 067b 20       		.byte	0x20
 1660 067c 00       		.byte	0
 1661 067d 04       		.uleb128 0x4
 1662 067e 96020000 		.4byte	.LASF89
 1663 0682 0D       		.byte	0xd
 1664 0683 3F       		.byte	0x3f
 1665 0684 44060000 		.4byte	0x644
 1666 0688 10       		.uleb128 0x10
 1667 0689 04       		.byte	0x4
 1668 068a 02       		.byte	0x2
 1669 068b D2       		.byte	0xd2
 1670 068c EB060000 		.4byte	0x6eb
 1671 0690 11       		.uleb128 0x11
 1672 0691 19000000 		.4byte	.LASF90
 1673 0695 02       		.byte	0x2
 1674 0696 D9       		.byte	0xd9
 1675 0697 05010000 		.4byte	0x105
 1676 069b 11       		.uleb128 0x11
 1677 069c D9000000 		.4byte	.LASF91
 1678 06a0 02       		.byte	0x2
 1679 06a1 E0       		.byte	0xe0
 1680 06a2 05010000 		.4byte	0x105
 1681 06a6 11       		.uleb128 0x11
 1682 06a7 CA030000 		.4byte	.LASF92
 1683 06ab 02       		.byte	0x2
 1684 06ac E7       		.byte	0xe7
 1685 06ad 1A030000 		.4byte	0x31a
 1686 06b1 11       		.uleb128 0x11
 1687 06b2 0D000000 		.4byte	.LASF93
 1688 06b6 02       		.byte	0x2
 1689 06b7 EE       		.byte	0xee
 1690 06b8 EB060000 		.4byte	0x6eb
 1691 06bc 11       		.uleb128 0x11
 1692 06bd ED000000 		.4byte	.LASF94
 1693 06c1 02       		.byte	0x2
 1694 06c2 F3       		.byte	0xf3
 1695 06c3 05010000 		.4byte	0x105
 1696 06c7 11       		.uleb128 0x11
 1697 06c8 5D020000 		.4byte	.LASF95
 1698 06cc 02       		.byte	0x2
 1699 06cd FC       		.byte	0xfc
 1700 06ce 16070000 		.4byte	0x716
 1701 06d2 12       		.uleb128 0x12
 1702 06d3 F2050000 		.4byte	.LASF96
 1703 06d7 02       		.byte	0x2
 1704 06d8 0501     		.2byte	0x105
 1705 06da 4D070000 		.4byte	0x74d
 1706 06de 12       		.uleb128 0x12
ARM GAS  /tmp/ccq2hZYK.s 			page 31


 1707 06df 71050000 		.4byte	.LASF97
 1708 06e3 02       		.byte	0x2
 1709 06e4 0D01     		.2byte	0x10d
 1710 06e6 10010000 		.4byte	0x110
 1711 06ea 00       		.byte	0
 1712 06eb 0A       		.uleb128 0xa
 1713 06ec 04       		.byte	0x4
 1714 06ed 32020000 		.4byte	0x232
 1715 06f1 05       		.uleb128 0x5
 1716 06f2 BD050000 		.4byte	.LASF98
 1717 06f6 0C       		.byte	0xc
 1718 06f7 05       		.byte	0x5
 1719 06f8 34       		.byte	0x34
 1720 06f9 16070000 		.4byte	0x716
 1721 06fd 06       		.uleb128 0x6
 1722 06fe 77020000 		.4byte	.LASF29
 1723 0702 05       		.byte	0x5
 1724 0703 35       		.byte	0x35
 1725 0704 67020000 		.4byte	0x267
 1726 0708 00       		.byte	0
 1727 0709 07       		.uleb128 0x7
 1728 070a 636E7400 		.ascii	"cnt\000"
 1729 070e 05       		.byte	0x5
 1730 070f 37       		.byte	0x37
 1731 0710 1B010000 		.4byte	0x11b
 1732 0714 08       		.byte	0x8
 1733 0715 00       		.byte	0
 1734 0716 0A       		.uleb128 0xa
 1735 0717 04       		.byte	0x4
 1736 0718 F1060000 		.4byte	0x6f1
 1737 071c 05       		.uleb128 0x5
 1738 071d F5060000 		.4byte	.LASF99
 1739 0721 10       		.byte	0x10
 1740 0722 0E       		.byte	0xe
 1741 0723 39       		.byte	0x39
 1742 0724 4D070000 		.4byte	0x74d
 1743 0728 06       		.uleb128 0x6
 1744 0729 77020000 		.4byte	.LASF29
 1745 072d 0E       		.byte	0xe
 1746 072e 3A       		.byte	0x3a
 1747 072f 67020000 		.4byte	0x267
 1748 0733 00       		.byte	0
 1749 0734 06       		.uleb128 0x6
 1750 0735 15060000 		.4byte	.LASF100
 1751 0739 0E       		.byte	0xe
 1752 073a 3C       		.byte	0x3c
 1753 073b 3D020000 		.4byte	0x23d
 1754 073f 08       		.byte	0x8
 1755 0740 06       		.uleb128 0x6
 1756 0741 18010000 		.4byte	.LASF49
 1757 0745 0E       		.byte	0xe
 1758 0746 3E       		.byte	0x3e
 1759 0747 8C070000 		.4byte	0x78c
 1760 074b 0C       		.byte	0xc
 1761 074c 00       		.byte	0
 1762 074d 0A       		.uleb128 0xa
 1763 074e 04       		.byte	0x4
ARM GAS  /tmp/ccq2hZYK.s 			page 32


 1764 074f 1C070000 		.4byte	0x71c
 1765 0753 0A       		.uleb128 0xa
 1766 0754 04       		.byte	0x4
 1767 0755 59070000 		.4byte	0x759
 1768 0759 13       		.uleb128 0x13
 1769 075a 5E070000 		.4byte	0x75e
 1770 075e 03       		.uleb128 0x3
 1771 075f 01       		.byte	0x1
 1772 0760 08       		.byte	0x8
 1773 0761 34060000 		.4byte	.LASF101
 1774 0765 0A       		.uleb128 0xa
 1775 0766 04       		.byte	0x4
 1776 0767 61040000 		.4byte	0x461
 1777 076b 0A       		.uleb128 0xa
 1778 076c 04       		.byte	0x4
 1779 076d 1C030000 		.4byte	0x31c
 1780 0771 14       		.uleb128 0x14
 1781 0772 53070000 		.4byte	0x753
 1782 0776 04       		.uleb128 0x4
 1783 0777 A0050000 		.4byte	.LASF102
 1784 077b 05       		.byte	0x5
 1785 077c 38       		.byte	0x38
 1786 077d F1060000 		.4byte	0x6f1
 1787 0781 04       		.uleb128 0x4
 1788 0782 35020000 		.4byte	.LASF103
 1789 0786 0E       		.byte	0xe
 1790 0787 34       		.byte	0x34
 1791 0788 1C070000 		.4byte	0x71c
 1792 078c 0A       		.uleb128 0xa
 1793 078d 04       		.byte	0x4
 1794 078e 81070000 		.4byte	0x781
 1795 0792 03       		.uleb128 0x3
 1796 0793 01       		.byte	0x1
 1797 0794 02       		.byte	0x2
 1798 0795 28050000 		.4byte	.LASF104
 1799 0799 15       		.uleb128 0x15
 1800 079a 91060000 		.4byte	.LASF108
 1801 079e 03       		.byte	0x3
 1802 079f 0601     		.2byte	0x106
 1803 07a1 03       		.byte	0x3
 1804 07a2 B3070000 		.4byte	0x7b3
 1805 07a6 16       		.uleb128 0x16
 1806 07a7 3D020000 		.4byte	.LASF107
 1807 07ab 03       		.byte	0x3
 1808 07ac 0601     		.2byte	0x106
 1809 07ae AD000000 		.4byte	0xad
 1810 07b2 00       		.byte	0
 1811 07b3 17       		.uleb128 0x17
 1812 07b4 92000000 		.4byte	.LASF105
 1813 07b8 0B       		.byte	0xb
 1814 07b9 5202     		.2byte	0x252
 1815 07bb 03       		.byte	0x3
 1816 07bc 17       		.uleb128 0x17
 1817 07bd 86010000 		.4byte	.LASF106
 1818 07c1 0B       		.byte	0xb
 1819 07c2 6A02     		.2byte	0x26a
 1820 07c4 03       		.byte	0x3
ARM GAS  /tmp/ccq2hZYK.s 			page 33


 1821 07c5 18       		.uleb128 0x18
 1822 07c6 93050000 		.4byte	.LASF113
 1823 07ca 0F       		.byte	0xf
 1824 07cb 3D02     		.2byte	0x23d
 1825 07cd 92070000 		.4byte	0x792
 1826 07d1 03       		.byte	0x3
 1827 07d2 E3070000 		.4byte	0x7e3
 1828 07d6 19       		.uleb128 0x19
 1829 07d7 76747000 		.ascii	"vtp\000"
 1830 07db 0F       		.byte	0xf
 1831 07dc 3D02     		.2byte	0x23d
 1832 07de 6B070000 		.4byte	0x76b
 1833 07e2 00       		.byte	0
 1834 07e3 1A       		.uleb128 0x1a
 1835 07e4 60050000 		.4byte	.LASF109
 1836 07e8 05       		.byte	0x5
 1837 07e9 86       		.byte	0x86
 1838 07ea 03       		.byte	0x3
 1839 07eb FA070000 		.4byte	0x7fa
 1840 07ef 1B       		.uleb128 0x1b
 1841 07f0 737000   		.ascii	"sp\000"
 1842 07f3 05       		.byte	0x5
 1843 07f4 86       		.byte	0x86
 1844 07f5 FA070000 		.4byte	0x7fa
 1845 07f9 00       		.byte	0
 1846 07fa 0A       		.uleb128 0xa
 1847 07fb 04       		.byte	0x4
 1848 07fc 76070000 		.4byte	0x776
 1849 0800 17       		.uleb128 0x17
 1850 0801 C5060000 		.4byte	.LASF110
 1851 0805 0B       		.byte	0xb
 1852 0806 7902     		.2byte	0x279
 1853 0808 03       		.byte	0x3
 1854 0809 17       		.uleb128 0x17
 1855 080a 49060000 		.4byte	.LASF111
 1856 080e 0B       		.byte	0xb
 1857 080f 8402     		.2byte	0x284
 1858 0811 03       		.byte	0x3
 1859 0812 15       		.uleb128 0x15
 1860 0813 87000000 		.4byte	.LASF112
 1861 0817 02       		.byte	0x2
 1862 0818 2402     		.2byte	0x224
 1863 081a 03       		.byte	0x3
 1864 081b 2C080000 		.4byte	0x82c
 1865 081f 19       		.uleb128 0x19
 1866 0820 74717000 		.ascii	"tqp\000"
 1867 0824 02       		.byte	0x2
 1868 0825 2402     		.2byte	0x224
 1869 0827 2C080000 		.4byte	0x82c
 1870 082b 00       		.byte	0
 1871 082c 0A       		.uleb128 0xa
 1872 082d 04       		.byte	0x4
 1873 082e 67020000 		.4byte	0x267
 1874 0832 18       		.uleb128 0x18
 1875 0833 6C060000 		.4byte	.LASF114
 1876 0837 02       		.byte	0x2
 1877 0838 6902     		.2byte	0x269
ARM GAS  /tmp/ccq2hZYK.s 			page 34


 1878 083a 3D020000 		.4byte	0x23d
 1879 083e 03       		.byte	0x3
 1880 083f 5B080000 		.4byte	0x85b
 1881 0843 19       		.uleb128 0x19
 1882 0844 74717000 		.ascii	"tqp\000"
 1883 0848 02       		.byte	0x2
 1884 0849 6902     		.2byte	0x269
 1885 084b 2C080000 		.4byte	0x82c
 1886 084f 1C       		.uleb128 0x1c
 1887 0850 747000   		.ascii	"tp\000"
 1888 0853 02       		.byte	0x2
 1889 0854 6A02     		.2byte	0x26a
 1890 0856 3D020000 		.4byte	0x23d
 1891 085a 00       		.byte	0
 1892 085b 1D       		.uleb128 0x1d
 1893 085c 26010000 		.4byte	.LASF121
 1894 0860 01       		.byte	0x1
 1895 0861 41       		.byte	0x41
 1896 0862 00000000 		.4byte	.LFB246
 1897 0866 14000000 		.4byte	.LFE246-.LFB246
 1898 086a 01       		.uleb128 0x1
 1899 086b 9C       		.byte	0x9c
 1900 086c 8D080000 		.4byte	0x88d
 1901 0870 1E       		.uleb128 0x1e
 1902 0871 12080000 		.4byte	0x812
 1903 0875 00000000 		.4byte	.LBB39
 1904 0879 00000000 		.4byte	.Ldebug_ranges0+0
 1905 087d 01       		.byte	0x1
 1906 087e 43       		.byte	0x43
 1907 087f 1F       		.uleb128 0x1f
 1908 0880 1F080000 		.4byte	0x81f
 1909 0884 06       		.uleb128 0x6
 1910 0885 03       		.byte	0x3
 1911 0886 00000000 		.4byte	ch
 1912 088a 9F       		.byte	0x9f
 1913 088b 00       		.byte	0
 1914 088c 00       		.byte	0
 1915 088d 20       		.uleb128 0x20
 1916 088e F9050000 		.4byte	.LASF118
 1917 0892 01       		.byte	0x1
 1918 0893 DA       		.byte	0xda
 1919 0894 3D020000 		.4byte	0x23d
 1920 0898 00000000 		.4byte	.LFB247
 1921 089c 24000000 		.4byte	.LFE247-.LFB247
 1922 08a0 01       		.uleb128 0x1
 1923 08a1 9C       		.byte	0x9c
 1924 08a2 CA080000 		.4byte	0x8ca
 1925 08a6 21       		.uleb128 0x21
 1926 08a7 747000   		.ascii	"tp\000"
 1927 08aa 01       		.byte	0x1
 1928 08ab DA       		.byte	0xda
 1929 08ac 3D020000 		.4byte	0x23d
 1930 08b0 01       		.uleb128 0x1
 1931 08b1 50       		.byte	0x50
 1932 08b2 22       		.uleb128 0x22
 1933 08b3 637000   		.ascii	"cp\000"
 1934 08b6 01       		.byte	0x1
ARM GAS  /tmp/ccq2hZYK.s 			page 35


 1935 08b7 DB       		.byte	0xdb
 1936 08b8 3D020000 		.4byte	0x23d
 1937 08bc 00000000 		.4byte	.LLST0
 1938 08c0 23       		.uleb128 0x23
 1939 08c1 8A050000 		.4byte	.LASF120
 1940 08c5 DA080000 		.4byte	0x8da
 1941 08c9 00       		.byte	0
 1942 08ca 24       		.uleb128 0x24
 1943 08cb 5E070000 		.4byte	0x75e
 1944 08cf DA080000 		.4byte	0x8da
 1945 08d3 25       		.uleb128 0x25
 1946 08d4 4F040000 		.4byte	0x44f
 1947 08d8 0B       		.byte	0xb
 1948 08d9 00       		.byte	0
 1949 08da 13       		.uleb128 0x13
 1950 08db CA080000 		.4byte	0x8ca
 1951 08df 17       		.uleb128 0x17
 1952 08e0 20070000 		.4byte	.LASF115
 1953 08e4 04       		.byte	0x4
 1954 08e5 9E01     		.2byte	0x19e
 1955 08e7 03       		.byte	0x3
 1956 08e8 17       		.uleb128 0x17
 1957 08e9 0C050000 		.4byte	.LASF116
 1958 08ed 04       		.byte	0x4
 1959 08ee B201     		.2byte	0x1b2
 1960 08f0 03       		.byte	0x3
 1961 08f1 18       		.uleb128 0x18
 1962 08f2 AA010000 		.4byte	.LASF117
 1963 08f6 02       		.byte	0x2
 1964 08f7 7B02     		.2byte	0x27b
 1965 08f9 3D020000 		.4byte	0x23d
 1966 08fd 03       		.byte	0x3
 1967 08fe 0E090000 		.4byte	0x90e
 1968 0902 19       		.uleb128 0x19
 1969 0903 747000   		.ascii	"tp\000"
 1970 0906 02       		.byte	0x2
 1971 0907 7B02     		.2byte	0x27b
 1972 0909 3D020000 		.4byte	0x23d
 1973 090d 00       		.byte	0
 1974 090e 26       		.uleb128 0x26
 1975 090f 56020000 		.4byte	.LASF141
 1976 0913 01       		.byte	0x1
 1977 0914 3F01     		.2byte	0x13f
 1978 0916 00000000 		.4byte	.LFB250
 1979 091a 5E000000 		.4byte	.LFE250-.LFB250
 1980 091e 01       		.uleb128 0x1
 1981 091f 9C       		.byte	0x9c
 1982 0920 A20A0000 		.4byte	0xaa2
 1983 0924 27       		.uleb128 0x27
 1984 0925 7000     		.ascii	"p\000"
 1985 0927 01       		.byte	0x1
 1986 0928 3F01     		.2byte	0x13f
 1987 092a 1A030000 		.4byte	0x31a
 1988 092e 23000000 		.4byte	.LLST1
 1989 0932 28       		.uleb128 0x28
 1990 0933 747000   		.ascii	"tp\000"
 1991 0936 01       		.byte	0x1
ARM GAS  /tmp/ccq2hZYK.s 			page 36


 1992 0937 4001     		.2byte	0x140
 1993 0939 3D020000 		.4byte	0x23d
 1994 093d 41000000 		.4byte	.LLST2
 1995 0941 29       		.uleb128 0x29
 1996 0942 DF080000 		.4byte	0x8df
 1997 0946 04000000 		.4byte	.LBB65
 1998 094a 0A000000 		.4byte	.LBE65-.LBB65
 1999 094e 01       		.byte	0x1
 2000 094f 4201     		.2byte	0x142
 2001 0951 9C090000 		.4byte	0x99c
 2002 0955 29       		.uleb128 0x29
 2003 0956 00080000 		.4byte	0x800
 2004 095a 04000000 		.4byte	.LBB67
 2005 095e 06000000 		.4byte	.LBE67-.LBB67
 2006 0962 04       		.byte	0x4
 2007 0963 A001     		.2byte	0x1a0
 2008 0965 92090000 		.4byte	0x992
 2009 0969 2A       		.uleb128 0x2a
 2010 096a B3070000 		.4byte	0x7b3
 2011 096e 04000000 		.4byte	.LBB68
 2012 0972 06000000 		.4byte	.LBE68-.LBB68
 2013 0976 0B       		.byte	0xb
 2014 0977 7B02     		.2byte	0x27b
 2015 0979 2A       		.uleb128 0x2a
 2016 097a 99070000 		.4byte	0x799
 2017 097e 04000000 		.4byte	.LBB69
 2018 0982 06000000 		.4byte	.LBE69-.LBB69
 2019 0986 0B       		.byte	0xb
 2020 0987 5A02     		.2byte	0x25a
 2021 0989 2B       		.uleb128 0x2b
 2022 098a A6070000 		.4byte	0x7a6
 2023 098e 20       		.byte	0x20
 2024 098f 00       		.byte	0
 2025 0990 00       		.byte	0
 2026 0991 00       		.byte	0
 2027 0992 2C       		.uleb128 0x2c
 2028 0993 0E000000 		.4byte	.LVL7
 2029 0997 ED0E0000 		.4byte	0xeed
 2030 099b 00       		.byte	0
 2031 099c 29       		.uleb128 0x29
 2032 099d E8080000 		.4byte	0x8e8
 2033 09a1 24000000 		.4byte	.LBB71
 2034 09a5 0A000000 		.4byte	.LBE71-.LBB71
 2035 09a9 01       		.byte	0x1
 2036 09aa 4701     		.2byte	0x147
 2037 09ac FA090000 		.4byte	0x9fa
 2038 09b0 29       		.uleb128 0x29
 2039 09b1 09080000 		.4byte	0x809
 2040 09b5 28000000 		.4byte	.LBB73
 2041 09b9 06000000 		.4byte	.LBE73-.LBB73
 2042 09bd 04       		.byte	0x4
 2043 09be B601     		.2byte	0x1b6
 2044 09c0 F0090000 		.4byte	0x9f0
 2045 09c4 2A       		.uleb128 0x2a
 2046 09c5 BC070000 		.4byte	0x7bc
 2047 09c9 28000000 		.4byte	.LBB74
 2048 09cd 06000000 		.4byte	.LBE74-.LBB74
ARM GAS  /tmp/ccq2hZYK.s 			page 37


 2049 09d1 0B       		.byte	0xb
 2050 09d2 8602     		.2byte	0x286
 2051 09d4 2A       		.uleb128 0x2a
 2052 09d5 99070000 		.4byte	0x799
 2053 09d9 28000000 		.4byte	.LBB75
 2054 09dd 06000000 		.4byte	.LBE75-.LBB75
 2055 09e1 0B       		.byte	0xb
 2056 09e2 6D02     		.2byte	0x26d
 2057 09e4 2D       		.uleb128 0x2d
 2058 09e5 A6070000 		.4byte	0x7a6
 2059 09e9 5F000000 		.4byte	.LLST3
 2060 09ed 00       		.byte	0
 2061 09ee 00       		.byte	0
 2062 09ef 00       		.byte	0
 2063 09f0 2C       		.uleb128 0x2c
 2064 09f1 28000000 		.4byte	.LVL8
 2065 09f5 F40E0000 		.4byte	0xef4
 2066 09f9 00       		.byte	0
 2067 09fa 29       		.uleb128 0x29
 2068 09fb E3070000 		.4byte	0x7e3
 2069 09ff 36000000 		.4byte	.LBB77
 2070 0a03 06000000 		.4byte	.LBE77-.LBB77
 2071 0a07 01       		.byte	0x1
 2072 0a08 4E01     		.2byte	0x14e
 2073 0a0a 180A0000 		.4byte	0xa18
 2074 0a0e 2D       		.uleb128 0x2d
 2075 0a0f EF070000 		.4byte	0x7ef
 2076 0a13 73000000 		.4byte	.LLST4
 2077 0a17 00       		.byte	0
 2078 0a18 29       		.uleb128 0x29
 2079 0a19 F1080000 		.4byte	0x8f1
 2080 0a1d 3C000000 		.4byte	.LBB79
 2081 0a21 0A000000 		.4byte	.LBE79-.LBB79
 2082 0a25 01       		.byte	0x1
 2083 0a26 5601     		.2byte	0x156
 2084 0a28 360A0000 		.4byte	0xa36
 2085 0a2c 2D       		.uleb128 0x2d
 2086 0a2d 02090000 		.4byte	0x902
 2087 0a31 86000000 		.4byte	.LLST5
 2088 0a35 00       		.byte	0
 2089 0a36 29       		.uleb128 0x29
 2090 0a37 E8080000 		.4byte	0x8e8
 2091 0a3b 52000000 		.4byte	.LBB81
 2092 0a3f 0C000000 		.4byte	.LBE81-.LBB81
 2093 0a43 01       		.byte	0x1
 2094 0a44 5E01     		.2byte	0x15e
 2095 0a46 910A0000 		.4byte	0xa91
 2096 0a4a 29       		.uleb128 0x29
 2097 0a4b 09080000 		.4byte	0x809
 2098 0a4f 56000000 		.4byte	.LBB83
 2099 0a53 08000000 		.4byte	.LBE83-.LBB83
 2100 0a57 04       		.byte	0x4
 2101 0a58 B601     		.2byte	0x1b6
 2102 0a5a 870A0000 		.4byte	0xa87
 2103 0a5e 2A       		.uleb128 0x2a
 2104 0a5f BC070000 		.4byte	0x7bc
 2105 0a63 56000000 		.4byte	.LBB84
ARM GAS  /tmp/ccq2hZYK.s 			page 38


 2106 0a67 08000000 		.4byte	.LBE84-.LBB84
 2107 0a6b 0B       		.byte	0xb
 2108 0a6c 8602     		.2byte	0x286
 2109 0a6e 2A       		.uleb128 0x2a
 2110 0a6f 99070000 		.4byte	0x799
 2111 0a73 56000000 		.4byte	.LBB85
 2112 0a77 08000000 		.4byte	.LBE85-.LBB85
 2113 0a7b 0B       		.byte	0xb
 2114 0a7c 6D02     		.2byte	0x26d
 2115 0a7e 2B       		.uleb128 0x2b
 2116 0a7f A6070000 		.4byte	0x7a6
 2117 0a83 00       		.byte	0
 2118 0a84 00       		.byte	0
 2119 0a85 00       		.byte	0
 2120 0a86 00       		.byte	0
 2121 0a87 2C       		.uleb128 0x2c
 2122 0a88 56000000 		.4byte	.LVL14
 2123 0a8c F40E0000 		.4byte	0xef4
 2124 0a90 00       		.byte	0
 2125 0a91 2E       		.uleb128 0x2e
 2126 0a92 52000000 		.4byte	.LVL13
 2127 0a96 8D080000 		.4byte	0x88d
 2128 0a9a 2F       		.uleb128 0x2f
 2129 0a9b 01       		.uleb128 0x1
 2130 0a9c 50       		.byte	0x50
 2131 0a9d 02       		.uleb128 0x2
 2132 0a9e 74       		.byte	0x74
 2133 0a9f 00       		.sleb128 0
 2134 0aa0 00       		.byte	0
 2135 0aa1 00       		.byte	0
 2136 0aa2 30       		.uleb128 0x30
 2137 0aa3 D8050000 		.4byte	.LASF119
 2138 0aa7 01       		.byte	0x1
 2139 0aa8 0101     		.2byte	0x101
 2140 0aaa 3D020000 		.4byte	0x23d
 2141 0aae 00000000 		.4byte	.LFB248
 2142 0ab2 24000000 		.4byte	.LFE248-.LFB248
 2143 0ab6 01       		.uleb128 0x1
 2144 0ab7 9C       		.byte	0x9c
 2145 0ab8 E20A0000 		.4byte	0xae2
 2146 0abc 31       		.uleb128 0x31
 2147 0abd 747000   		.ascii	"tp\000"
 2148 0ac0 01       		.byte	0x1
 2149 0ac1 0101     		.2byte	0x101
 2150 0ac3 3D020000 		.4byte	0x23d
 2151 0ac7 01       		.uleb128 0x1
 2152 0ac8 50       		.byte	0x50
 2153 0ac9 28       		.uleb128 0x28
 2154 0aca 637000   		.ascii	"cp\000"
 2155 0acd 01       		.byte	0x1
 2156 0ace 0201     		.2byte	0x102
 2157 0ad0 3D020000 		.4byte	0x23d
 2158 0ad4 99000000 		.4byte	.LLST6
 2159 0ad8 23       		.uleb128 0x23
 2160 0ad9 8A050000 		.4byte	.LASF120
 2161 0add F20A0000 		.4byte	0xaf2
 2162 0ae1 00       		.byte	0
ARM GAS  /tmp/ccq2hZYK.s 			page 39


 2163 0ae2 24       		.uleb128 0x24
 2164 0ae3 5E070000 		.4byte	0x75e
 2165 0ae7 F20A0000 		.4byte	0xaf2
 2166 0aeb 25       		.uleb128 0x25
 2167 0aec 4F040000 		.4byte	0x44f
 2168 0af0 10       		.byte	0x10
 2169 0af1 00       		.byte	0
 2170 0af2 13       		.uleb128 0x13
 2171 0af3 E20A0000 		.4byte	0xae2
 2172 0af7 32       		.uleb128 0x32
 2173 0af8 CA050000 		.4byte	.LASF122
 2174 0afc 01       		.byte	0x1
 2175 0afd 2101     		.2byte	0x121
 2176 0aff 00000000 		.4byte	.LFB249
 2177 0b03 30000000 		.4byte	.LFE249-.LFB249
 2178 0b07 01       		.uleb128 0x1
 2179 0b08 9C       		.byte	0x9c
 2180 0b09 7F0B0000 		.4byte	0xb7f
 2181 0b0d 33       		.uleb128 0x33
 2182 0b0e 44050000 		.4byte	.LASF123
 2183 0b12 01       		.byte	0x1
 2184 0b13 2101     		.2byte	0x121
 2185 0b15 E4000000 		.4byte	0xe4
 2186 0b19 BC000000 		.4byte	.LLST7
 2187 0b1d 28       		.uleb128 0x28
 2188 0b1e 6F747000 		.ascii	"otp\000"
 2189 0b22 01       		.byte	0x1
 2190 0b23 2201     		.2byte	0x122
 2191 0b25 3D020000 		.4byte	0x23d
 2192 0b29 E9000000 		.4byte	.LLST8
 2193 0b2d 29       		.uleb128 0x29
 2194 0b2e 32080000 		.4byte	0x832
 2195 0b32 0A000000 		.4byte	.LBB87
 2196 0b36 08000000 		.4byte	.LBE87-.LBB87
 2197 0b3a 01       		.byte	0x1
 2198 0b3b 3001     		.2byte	0x130
 2199 0b3d 610B0000 		.4byte	0xb61
 2200 0b41 1F       		.uleb128 0x1f
 2201 0b42 43080000 		.4byte	0x843
 2202 0b46 06       		.uleb128 0x6
 2203 0b47 03       		.byte	0x3
 2204 0b48 00000000 		.4byte	ch
 2205 0b4c 9F       		.byte	0x9f
 2206 0b4d 34       		.uleb128 0x34
 2207 0b4e 0A000000 		.4byte	.LBB88
 2208 0b52 08000000 		.4byte	.LBE88-.LBB88
 2209 0b56 35       		.uleb128 0x35
 2210 0b57 4F080000 		.4byte	0x84f
 2211 0b5b 07010000 		.4byte	.LLST9
 2212 0b5f 00       		.byte	0
 2213 0b60 00       		.byte	0
 2214 0b61 36       		.uleb128 0x36
 2215 0b62 20000000 		.4byte	.LVL24
 2216 0b66 FB0E0000 		.4byte	0xefb
 2217 0b6a 750B0000 		.4byte	0xb75
 2218 0b6e 2F       		.uleb128 0x2f
 2219 0b6f 01       		.uleb128 0x1
ARM GAS  /tmp/ccq2hZYK.s 			page 40


 2220 0b70 51       		.byte	0x51
 2221 0b71 02       		.uleb128 0x2
 2222 0b72 75       		.byte	0x75
 2223 0b73 00       		.sleb128 0
 2224 0b74 00       		.byte	0
 2225 0b75 37       		.uleb128 0x37
 2226 0b76 2C000000 		.4byte	.LVL26
 2227 0b7a 110F0000 		.4byte	0xf11
 2228 0b7e 00       		.byte	0
 2229 0b7f 30       		.uleb128 0x30
 2230 0b80 40070000 		.4byte	.LASF124
 2231 0b84 01       		.byte	0x1
 2232 0b85 7601     		.2byte	0x176
 2233 0b87 05010000 		.4byte	0x105
 2234 0b8b 00000000 		.4byte	.LFB251
 2235 0b8f 3C000000 		.4byte	.LFE251-.LFB251
 2236 0b93 01       		.uleb128 0x1
 2237 0b94 9C       		.byte	0x9c
 2238 0b95 270C0000 		.4byte	0xc27
 2239 0b99 33       		.uleb128 0x33
 2240 0b9a 44050000 		.4byte	.LASF123
 2241 0b9e 01       		.byte	0x1
 2242 0b9f 7601     		.2byte	0x176
 2243 0ba1 E4000000 		.4byte	0xe4
 2244 0ba5 1A010000 		.4byte	.LLST10
 2245 0ba9 33       		.uleb128 0x33
 2246 0baa A1040000 		.4byte	.LASF125
 2247 0bae 01       		.byte	0x1
 2248 0baf 7601     		.2byte	0x176
 2249 0bb1 31010000 		.4byte	0x131
 2250 0bb5 54010000 		.4byte	.LLST11
 2251 0bb9 38       		.uleb128 0x38
 2252 0bba 0C000000 		.4byte	.LBB89
 2253 0bbe 1C000000 		.4byte	.LBE89-.LBB89
 2254 0bc2 1D0C0000 		.4byte	0xc1d
 2255 0bc6 39       		.uleb128 0x39
 2256 0bc7 767400   		.ascii	"vt\000"
 2257 0bca 01       		.byte	0x1
 2258 0bcb 7B01     		.2byte	0x17b
 2259 0bcd 1C030000 		.4byte	0x31c
 2260 0bd1 02       		.uleb128 0x2
 2261 0bd2 91       		.byte	0x91
 2262 0bd3 5C       		.sleb128 -36
 2263 0bd4 36       		.uleb128 0x36
 2264 0bd5 16000000 		.4byte	.LVL29
 2265 0bd9 280F0000 		.4byte	0xf28
 2266 0bdd F80B0000 		.4byte	0xbf8
 2267 0be1 2F       		.uleb128 0x2f
 2268 0be2 01       		.uleb128 0x1
 2269 0be3 52       		.byte	0x52
 2270 0be4 05       		.uleb128 0x5
 2271 0be5 03       		.byte	0x3
 2272 0be6 00000000 		.4byte	wakeup
 2273 0bea 2F       		.uleb128 0x2f
 2274 0beb 01       		.uleb128 0x1
 2275 0bec 51       		.byte	0x51
 2276 0bed 03       		.uleb128 0x3
ARM GAS  /tmp/ccq2hZYK.s 			page 41


 2277 0bee F3       		.byte	0xf3
 2278 0bef 01       		.uleb128 0x1
 2279 0bf0 51       		.byte	0x51
 2280 0bf1 2F       		.uleb128 0x2f
 2281 0bf2 01       		.uleb128 0x1
 2282 0bf3 50       		.byte	0x50
 2283 0bf4 02       		.uleb128 0x2
 2284 0bf5 91       		.byte	0x91
 2285 0bf6 5C       		.sleb128 -36
 2286 0bf7 00       		.byte	0
 2287 0bf8 36       		.uleb128 0x36
 2288 0bf9 1C000000 		.4byte	.LVL30
 2289 0bfd F70A0000 		.4byte	0xaf7
 2290 0c01 0C0C0000 		.4byte	0xc0c
 2291 0c05 2F       		.uleb128 0x2f
 2292 0c06 01       		.uleb128 0x1
 2293 0c07 50       		.byte	0x50
 2294 0c08 02       		.uleb128 0x2
 2295 0c09 75       		.byte	0x75
 2296 0c0a 00       		.sleb128 0
 2297 0c0b 00       		.byte	0
 2298 0c0c 2E       		.uleb128 0x2e
 2299 0c0d 26000000 		.4byte	.LVL32
 2300 0c11 480F0000 		.4byte	0xf48
 2301 0c15 2F       		.uleb128 0x2f
 2302 0c16 01       		.uleb128 0x1
 2303 0c17 50       		.byte	0x50
 2304 0c18 02       		.uleb128 0x2
 2305 0c19 91       		.byte	0x91
 2306 0c1a 5C       		.sleb128 -36
 2307 0c1b 00       		.byte	0
 2308 0c1c 00       		.byte	0
 2309 0c1d 2C       		.uleb128 0x2c
 2310 0c1e 2C000000 		.4byte	.LVL34
 2311 0c22 F70A0000 		.4byte	0xaf7
 2312 0c26 00       		.byte	0
 2313 0c27 32       		.uleb128 0x32
 2314 0c28 D8060000 		.4byte	.LASF126
 2315 0c2c 01       		.byte	0x1
 2316 0c2d 9B01     		.2byte	0x19b
 2317 0c2f 00000000 		.4byte	.LFB252
 2318 0c33 44000000 		.4byte	.LFE252-.LFB252
 2319 0c37 01       		.uleb128 0x1
 2320 0c38 9C       		.byte	0x9c
 2321 0c39 C00C0000 		.4byte	0xcc0
 2322 0c3d 27       		.uleb128 0x27
 2323 0c3e 6E747000 		.ascii	"ntp\000"
 2324 0c42 01       		.byte	0x1
 2325 0c43 9B01     		.2byte	0x19b
 2326 0c45 3D020000 		.4byte	0x23d
 2327 0c49 8E010000 		.4byte	.LLST12
 2328 0c4d 27       		.uleb128 0x27
 2329 0c4e 6D736700 		.ascii	"msg\000"
 2330 0c52 01       		.byte	0x1
 2331 0c53 9B01     		.2byte	0x19b
 2332 0c55 05010000 		.4byte	0x105
 2333 0c59 DE010000 		.4byte	.LLST13
ARM GAS  /tmp/ccq2hZYK.s 			page 42


 2334 0c5d 28       		.uleb128 0x28
 2335 0c5e 6F747000 		.ascii	"otp\000"
 2336 0c62 01       		.byte	0x1
 2337 0c63 9C01     		.2byte	0x19c
 2338 0c65 3D020000 		.4byte	0x23d
 2339 0c69 31020000 		.4byte	.LLST14
 2340 0c6d 23       		.uleb128 0x23
 2341 0c6e 8A050000 		.4byte	.LASF120
 2342 0c72 D00C0000 		.4byte	0xcd0
 2343 0c76 3A       		.uleb128 0x3a
 2344 0c77 1A000000 		.4byte	.LVL38
 2345 0c7b 8D080000 		.4byte	0x88d
 2346 0c7f 8B0C0000 		.4byte	0xc8b
 2347 0c83 2F       		.uleb128 0x2f
 2348 0c84 01       		.uleb128 0x1
 2349 0c85 50       		.byte	0x50
 2350 0c86 03       		.uleb128 0x3
 2351 0c87 F3       		.byte	0xf3
 2352 0c88 01       		.uleb128 0x1
 2353 0c89 50       		.byte	0x50
 2354 0c8a 00       		.byte	0
 2355 0c8b 2C       		.uleb128 0x2c
 2356 0c8c 20000000 		.4byte	.LVL40
 2357 0c90 8D080000 		.4byte	0x88d
 2358 0c94 36       		.uleb128 0x36
 2359 0c95 32000000 		.4byte	.LVL43
 2360 0c99 FB0E0000 		.4byte	0xefb
 2361 0c9d AE0C0000 		.4byte	0xcae
 2362 0ca1 2F       		.uleb128 0x2f
 2363 0ca2 01       		.uleb128 0x1
 2364 0ca3 51       		.byte	0x51
 2365 0ca4 02       		.uleb128 0x2
 2366 0ca5 75       		.byte	0x75
 2367 0ca6 00       		.sleb128 0
 2368 0ca7 2F       		.uleb128 0x2f
 2369 0ca8 01       		.uleb128 0x1
 2370 0ca9 50       		.byte	0x50
 2371 0caa 02       		.uleb128 0x2
 2372 0cab 74       		.byte	0x74
 2373 0cac 00       		.sleb128 0
 2374 0cad 00       		.byte	0
 2375 0cae 3B       		.uleb128 0x3b
 2376 0caf 3E000000 		.4byte	.LVL45
 2377 0cb3 110F0000 		.4byte	0xf11
 2378 0cb7 2F       		.uleb128 0x2f
 2379 0cb8 01       		.uleb128 0x1
 2380 0cb9 50       		.byte	0x50
 2381 0cba 03       		.uleb128 0x3
 2382 0cbb F3       		.byte	0xf3
 2383 0cbc 01       		.uleb128 0x1
 2384 0cbd 50       		.byte	0x50
 2385 0cbe 00       		.byte	0
 2386 0cbf 00       		.byte	0
 2387 0cc0 24       		.uleb128 0x24
 2388 0cc1 5E070000 		.4byte	0x75e
 2389 0cc5 D00C0000 		.4byte	0xcd0
 2390 0cc9 25       		.uleb128 0x25
ARM GAS  /tmp/ccq2hZYK.s 			page 43


 2391 0cca 4F040000 		.4byte	0x44f
 2392 0cce 0C       		.byte	0xc
 2393 0ccf 00       		.byte	0
 2394 0cd0 13       		.uleb128 0x13
 2395 0cd1 C00C0000 		.4byte	0xcc0
 2396 0cd5 30       		.uleb128 0x30
 2397 0cd6 CC010000 		.4byte	.LASF127
 2398 0cda 01       		.byte	0x1
 2399 0cdb DD01     		.2byte	0x1dd
 2400 0cdd 92070000 		.4byte	0x792
 2401 0ce1 00000000 		.4byte	.LFB254
 2402 0ce5 18000000 		.4byte	.LFE254-.LFB254
 2403 0ce9 01       		.uleb128 0x1
 2404 0cea 9C       		.byte	0x9c
 2405 0ceb 180D0000 		.4byte	0xd18
 2406 0cef 39       		.uleb128 0x39
 2407 0cf0 703100   		.ascii	"p1\000"
 2408 0cf3 01       		.byte	0x1
 2409 0cf4 DE01     		.2byte	0x1de
 2410 0cf6 FA000000 		.4byte	0xfa
 2411 0cfa 08       		.uleb128 0x8
 2412 0cfb 03       		.byte	0x3
 2413 0cfc 00000000 		.4byte	ch
 2414 0d00 06       		.byte	0x6
 2415 0d01 23       		.byte	0x23
 2416 0d02 08       		.uleb128 0x8
 2417 0d03 39       		.uleb128 0x39
 2418 0d04 703200   		.ascii	"p2\000"
 2419 0d07 01       		.byte	0x1
 2420 0d08 DF01     		.2byte	0x1df
 2421 0d0a FA000000 		.4byte	0xfa
 2422 0d0e 08       		.uleb128 0x8
 2423 0d0f 03       		.byte	0x3
 2424 0d10 18000000 		.4byte	ch+24
 2425 0d14 06       		.byte	0x6
 2426 0d15 23       		.byte	0x23
 2427 0d16 08       		.uleb128 0x8
 2428 0d17 00       		.byte	0
 2429 0d18 32       		.uleb128 0x32
 2430 0d19 6B040000 		.4byte	.LASF128
 2431 0d1d 01       		.byte	0x1
 2432 0d1e F801     		.2byte	0x1f8
 2433 0d20 00000000 		.4byte	.LFB255
 2434 0d24 34000000 		.4byte	.LFE255-.LFB255
 2435 0d28 01       		.uleb128 0x1
 2436 0d29 9C       		.byte	0x9c
 2437 0d2a 950D0000 		.4byte	0xd95
 2438 0d2e 28       		.uleb128 0x28
 2439 0d2f 6F747000 		.ascii	"otp\000"
 2440 0d33 01       		.byte	0x1
 2441 0d34 F901     		.2byte	0x1f9
 2442 0d36 3D020000 		.4byte	0x23d
 2443 0d3a 7B020000 		.4byte	.LLST15
 2444 0d3e 3C       		.uleb128 0x3c
 2445 0d3f 32080000 		.4byte	0x832
 2446 0d43 04000000 		.4byte	.LBB90
 2447 0d47 18000000 		.4byte	.Ldebug_ranges0+0x18
ARM GAS  /tmp/ccq2hZYK.s 			page 44


 2448 0d4b 01       		.byte	0x1
 2449 0d4c FC01     		.2byte	0x1fc
 2450 0d4e 6E0D0000 		.4byte	0xd6e
 2451 0d52 1F       		.uleb128 0x1f
 2452 0d53 43080000 		.4byte	0x843
 2453 0d57 06       		.uleb128 0x6
 2454 0d58 03       		.byte	0x3
 2455 0d59 00000000 		.4byte	ch
 2456 0d5d 9F       		.byte	0x9f
 2457 0d5e 3D       		.uleb128 0x3d
 2458 0d5f 18000000 		.4byte	.Ldebug_ranges0+0x18
 2459 0d63 35       		.uleb128 0x35
 2460 0d64 4F080000 		.4byte	0x84f
 2461 0d68 BA020000 		.4byte	.LLST16
 2462 0d6c 00       		.byte	0
 2463 0d6d 00       		.byte	0
 2464 0d6e 2C       		.uleb128 0x2c
 2465 0d6f 1A000000 		.4byte	.LVL48
 2466 0d73 8D080000 		.4byte	0x88d
 2467 0d77 36       		.uleb128 0x36
 2468 0d78 24000000 		.4byte	.LVL51
 2469 0d7c FB0E0000 		.4byte	0xefb
 2470 0d80 8B0D0000 		.4byte	0xd8b
 2471 0d84 2F       		.uleb128 0x2f
 2472 0d85 01       		.uleb128 0x1
 2473 0d86 51       		.byte	0x51
 2474 0d87 02       		.uleb128 0x2
 2475 0d88 75       		.byte	0x75
 2476 0d89 00       		.sleb128 0
 2477 0d8a 00       		.byte	0
 2478 0d8b 37       		.uleb128 0x37
 2479 0d8c 30000000 		.4byte	.LVL53
 2480 0d90 110F0000 		.4byte	0xf11
 2481 0d94 00       		.byte	0
 2482 0d95 32       		.uleb128 0x32
 2483 0d96 29000000 		.4byte	.LASF129
 2484 0d9a 01       		.byte	0x1
 2485 0d9b 1902     		.2byte	0x219
 2486 0d9d 00000000 		.4byte	.LFB256
 2487 0da1 34000000 		.4byte	.LFE256-.LFB256
 2488 0da5 01       		.uleb128 0x1
 2489 0da6 9C       		.byte	0x9c
 2490 0da7 120E0000 		.4byte	0xe12
 2491 0dab 28       		.uleb128 0x28
 2492 0dac 6F747000 		.ascii	"otp\000"
 2493 0db0 01       		.byte	0x1
 2494 0db1 1A02     		.2byte	0x21a
 2495 0db3 3D020000 		.4byte	0x23d
 2496 0db7 CD020000 		.4byte	.LLST17
 2497 0dbb 3C       		.uleb128 0x3c
 2498 0dbc 32080000 		.4byte	0x832
 2499 0dc0 04000000 		.4byte	.LBB94
 2500 0dc4 30000000 		.4byte	.Ldebug_ranges0+0x30
 2501 0dc8 01       		.byte	0x1
 2502 0dc9 1D02     		.2byte	0x21d
 2503 0dcb EB0D0000 		.4byte	0xdeb
 2504 0dcf 1F       		.uleb128 0x1f
ARM GAS  /tmp/ccq2hZYK.s 			page 45


 2505 0dd0 43080000 		.4byte	0x843
 2506 0dd4 06       		.uleb128 0x6
 2507 0dd5 03       		.byte	0x3
 2508 0dd6 00000000 		.4byte	ch
 2509 0dda 9F       		.byte	0x9f
 2510 0ddb 3D       		.uleb128 0x3d
 2511 0ddc 30000000 		.4byte	.Ldebug_ranges0+0x30
 2512 0de0 35       		.uleb128 0x35
 2513 0de1 4F080000 		.4byte	0x84f
 2514 0de5 0C030000 		.4byte	.LLST18
 2515 0de9 00       		.byte	0
 2516 0dea 00       		.byte	0
 2517 0deb 2C       		.uleb128 0x2c
 2518 0dec 1A000000 		.4byte	.LVL55
 2519 0df0 A20A0000 		.4byte	0xaa2
 2520 0df4 36       		.uleb128 0x36
 2521 0df5 24000000 		.4byte	.LVL58
 2522 0df9 FB0E0000 		.4byte	0xefb
 2523 0dfd 080E0000 		.4byte	0xe08
 2524 0e01 2F       		.uleb128 0x2f
 2525 0e02 01       		.uleb128 0x1
 2526 0e03 51       		.byte	0x51
 2527 0e04 02       		.uleb128 0x2
 2528 0e05 75       		.byte	0x75
 2529 0e06 00       		.sleb128 0
 2530 0e07 00       		.byte	0
 2531 0e08 37       		.uleb128 0x37
 2532 0e09 30000000 		.4byte	.LVL60
 2533 0e0d 110F0000 		.4byte	0xf11
 2534 0e11 00       		.byte	0
 2535 0e12 3E       		.uleb128 0x3e
 2536 0e13 55070000 		.4byte	.LASF142
 2537 0e17 02       		.byte	0x2
 2538 0e18 8F02     		.2byte	0x28f
 2539 0e1a 92070000 		.4byte	0x792
 2540 0e1e 03       		.byte	0x3
 2541 0e1f 32       		.uleb128 0x32
 2542 0e20 E6010000 		.4byte	.LASF130
 2543 0e24 01       		.byte	0x1
 2544 0e25 C701     		.2byte	0x1c7
 2545 0e27 00000000 		.4byte	.LFB253
 2546 0e2b 18000000 		.4byte	.LFE253-.LFB253
 2547 0e2f 01       		.uleb128 0x1
 2548 0e30 9C       		.byte	0x9c
 2549 0e31 4F0E0000 		.4byte	0xe4f
 2550 0e35 3F       		.uleb128 0x3f
 2551 0e36 120E0000 		.4byte	0xe12
 2552 0e3a 00000000 		.4byte	.LBB100
 2553 0e3e 06000000 		.4byte	.LBE100-.LBB100
 2554 0e42 01       		.byte	0x1
 2555 0e43 CB01     		.2byte	0x1cb
 2556 0e45 37       		.uleb128 0x37
 2557 0e46 12000000 		.4byte	.LVL61
 2558 0e4a 950D0000 		.4byte	0xd95
 2559 0e4e 00       		.byte	0
 2560 0e4f 32       		.uleb128 0x32
 2561 0e50 0B020000 		.4byte	.LASF131
ARM GAS  /tmp/ccq2hZYK.s 			page 46


 2562 0e54 01       		.byte	0x1
 2563 0e55 3602     		.2byte	0x236
 2564 0e57 00000000 		.4byte	.LFB257
 2565 0e5b 34000000 		.4byte	.LFE257-.LFB257
 2566 0e5f 01       		.uleb128 0x1
 2567 0e60 9C       		.byte	0x9c
 2568 0e61 CC0E0000 		.4byte	0xecc
 2569 0e65 28       		.uleb128 0x28
 2570 0e66 6F747000 		.ascii	"otp\000"
 2571 0e6a 01       		.byte	0x1
 2572 0e6b 3702     		.2byte	0x237
 2573 0e6d 3D020000 		.4byte	0x23d
 2574 0e71 1F030000 		.4byte	.LLST19
 2575 0e75 3C       		.uleb128 0x3c
 2576 0e76 32080000 		.4byte	0x832
 2577 0e7a 04000000 		.4byte	.LBB102
 2578 0e7e 48000000 		.4byte	.Ldebug_ranges0+0x48
 2579 0e82 01       		.byte	0x1
 2580 0e83 3A02     		.2byte	0x23a
 2581 0e85 A50E0000 		.4byte	0xea5
 2582 0e89 1F       		.uleb128 0x1f
 2583 0e8a 43080000 		.4byte	0x843
 2584 0e8e 06       		.uleb128 0x6
 2585 0e8f 03       		.byte	0x3
 2586 0e90 00000000 		.4byte	ch
 2587 0e94 9F       		.byte	0x9f
 2588 0e95 3D       		.uleb128 0x3d
 2589 0e96 48000000 		.4byte	.Ldebug_ranges0+0x48
 2590 0e9a 35       		.uleb128 0x35
 2591 0e9b 4F080000 		.4byte	0x84f
 2592 0e9f 5E030000 		.4byte	.LLST20
 2593 0ea3 00       		.byte	0
 2594 0ea4 00       		.byte	0
 2595 0ea5 2C       		.uleb128 0x2c
 2596 0ea6 1A000000 		.4byte	.LVL63
 2597 0eaa A20A0000 		.4byte	0xaa2
 2598 0eae 36       		.uleb128 0x36
 2599 0eaf 24000000 		.4byte	.LVL66
 2600 0eb3 FB0E0000 		.4byte	0xefb
 2601 0eb7 C20E0000 		.4byte	0xec2
 2602 0ebb 2F       		.uleb128 0x2f
 2603 0ebc 01       		.uleb128 0x1
 2604 0ebd 51       		.byte	0x51
 2605 0ebe 02       		.uleb128 0x2
 2606 0ebf 75       		.byte	0x75
 2607 0ec0 00       		.sleb128 0
 2608 0ec1 00       		.byte	0
 2609 0ec2 37       		.uleb128 0x37
 2610 0ec3 30000000 		.4byte	.LVL68
 2611 0ec7 110F0000 		.4byte	0xf11
 2612 0ecb 00       		.byte	0
 2613 0ecc 40       		.uleb128 0x40
 2614 0ecd 0B010000 		.4byte	.LASF132
 2615 0ed1 10       		.byte	0x10
 2616 0ed2 4407     		.2byte	0x744
 2617 0ed4 D80E0000 		.4byte	0xed8
 2618 0ed8 14       		.uleb128 0x14
ARM GAS  /tmp/ccq2hZYK.s 			page 47


 2619 0ed9 A2000000 		.4byte	0xa2
 2620 0edd 41       		.uleb128 0x41
 2621 0ede 636800   		.ascii	"ch\000"
 2622 0ee1 01       		.byte	0x1
 2623 0ee2 2A       		.byte	0x2a
 2624 0ee3 E9030000 		.4byte	0x3e9
 2625 0ee7 05       		.uleb128 0x5
 2626 0ee8 03       		.byte	0x3
 2627 0ee9 00000000 		.4byte	ch
 2628 0eed 42       		.uleb128 0x42
 2629 0eee AB040000 		.4byte	.LASF133
 2630 0ef2 0D       		.byte	0xd
 2631 0ef3 51       		.byte	0x51
 2632 0ef4 42       		.uleb128 0x42
 2633 0ef5 6A070000 		.4byte	.LASF134
 2634 0ef9 0D       		.byte	0xd
 2635 0efa 52       		.byte	0x52
 2636 0efb 43       		.uleb128 0x43
 2637 0efc 12070000 		.4byte	.LASF135
 2638 0f00 0D       		.byte	0xd
 2639 0f01 4E       		.byte	0x4e
 2640 0f02 110F0000 		.4byte	0xf11
 2641 0f06 0D       		.uleb128 0xd
 2642 0f07 3D020000 		.4byte	0x23d
 2643 0f0b 0D       		.uleb128 0xd
 2644 0f0c 3D020000 		.4byte	0x23d
 2645 0f10 00       		.byte	0
 2646 0f11 44       		.uleb128 0x44
 2647 0f12 64020000 		.4byte	.LASF136
 2648 0f16 0B       		.byte	0xb
 2649 0f17 EB01     		.2byte	0x1eb
 2650 0f19 280F0000 		.4byte	0xf28
 2651 0f1d 0D       		.uleb128 0xd
 2652 0f1e 3D020000 		.4byte	0x23d
 2653 0f22 0D       		.uleb128 0xd
 2654 0f23 3D020000 		.4byte	0x23d
 2655 0f27 00       		.byte	0
 2656 0f28 43       		.uleb128 0x43
 2657 0f29 EA030000 		.4byte	.LASF137
 2658 0f2d 0F       		.byte	0xf
 2659 0f2e FC       		.byte	0xfc
 2660 0f2f 480F0000 		.4byte	0xf48
 2661 0f33 0D       		.uleb128 0xd
 2662 0f34 6B070000 		.4byte	0x76b
 2663 0f38 0D       		.uleb128 0xd
 2664 0f39 31010000 		.4byte	0x131
 2665 0f3d 0D       		.uleb128 0xd
 2666 0f3e FE020000 		.4byte	0x2fe
 2667 0f42 0D       		.uleb128 0xd
 2668 0f43 1A030000 		.4byte	0x31a
 2669 0f47 00       		.byte	0
 2670 0f48 45       		.uleb128 0x45
 2671 0f49 CC000000 		.4byte	.LASF143
 2672 0f4d 0F       		.byte	0xf
 2673 0f4e FE       		.byte	0xfe
 2674 0f4f 0D       		.uleb128 0xd
 2675 0f50 6B070000 		.4byte	0x76b
ARM GAS  /tmp/ccq2hZYK.s 			page 48


 2676 0f54 00       		.byte	0
 2677 0f55 00       		.byte	0
 2678              		.section	.debug_abbrev,"",%progbits
 2679              	.Ldebug_abbrev0:
 2680 0000 01       		.uleb128 0x1
 2681 0001 11       		.uleb128 0x11
 2682 0002 01       		.byte	0x1
 2683 0003 25       		.uleb128 0x25
 2684 0004 0E       		.uleb128 0xe
 2685 0005 13       		.uleb128 0x13
 2686 0006 0B       		.uleb128 0xb
 2687 0007 03       		.uleb128 0x3
 2688 0008 0E       		.uleb128 0xe
 2689 0009 1B       		.uleb128 0x1b
 2690 000a 0E       		.uleb128 0xe
 2691 000b 55       		.uleb128 0x55
 2692 000c 17       		.uleb128 0x17
 2693 000d 11       		.uleb128 0x11
 2694 000e 01       		.uleb128 0x1
 2695 000f 10       		.uleb128 0x10
 2696 0010 17       		.uleb128 0x17
 2697 0011 00       		.byte	0
 2698 0012 00       		.byte	0
 2699 0013 02       		.uleb128 0x2
 2700 0014 24       		.uleb128 0x24
 2701 0015 00       		.byte	0
 2702 0016 0B       		.uleb128 0xb
 2703 0017 0B       		.uleb128 0xb
 2704 0018 3E       		.uleb128 0x3e
 2705 0019 0B       		.uleb128 0xb
 2706 001a 03       		.uleb128 0x3
 2707 001b 08       		.uleb128 0x8
 2708 001c 00       		.byte	0
 2709 001d 00       		.byte	0
 2710 001e 03       		.uleb128 0x3
 2711 001f 24       		.uleb128 0x24
 2712 0020 00       		.byte	0
 2713 0021 0B       		.uleb128 0xb
 2714 0022 0B       		.uleb128 0xb
 2715 0023 3E       		.uleb128 0x3e
 2716 0024 0B       		.uleb128 0xb
 2717 0025 03       		.uleb128 0x3
 2718 0026 0E       		.uleb128 0xe
 2719 0027 00       		.byte	0
 2720 0028 00       		.byte	0
 2721 0029 04       		.uleb128 0x4
 2722 002a 16       		.uleb128 0x16
 2723 002b 00       		.byte	0
 2724 002c 03       		.uleb128 0x3
 2725 002d 0E       		.uleb128 0xe
 2726 002e 3A       		.uleb128 0x3a
 2727 002f 0B       		.uleb128 0xb
 2728 0030 3B       		.uleb128 0x3b
 2729 0031 0B       		.uleb128 0xb
 2730 0032 49       		.uleb128 0x49
 2731 0033 13       		.uleb128 0x13
 2732 0034 00       		.byte	0
ARM GAS  /tmp/ccq2hZYK.s 			page 49


 2733 0035 00       		.byte	0
 2734 0036 05       		.uleb128 0x5
 2735 0037 13       		.uleb128 0x13
 2736 0038 01       		.byte	0x1
 2737 0039 03       		.uleb128 0x3
 2738 003a 0E       		.uleb128 0xe
 2739 003b 0B       		.uleb128 0xb
 2740 003c 0B       		.uleb128 0xb
 2741 003d 3A       		.uleb128 0x3a
 2742 003e 0B       		.uleb128 0xb
 2743 003f 3B       		.uleb128 0x3b
 2744 0040 0B       		.uleb128 0xb
 2745 0041 01       		.uleb128 0x1
 2746 0042 13       		.uleb128 0x13
 2747 0043 00       		.byte	0
 2748 0044 00       		.byte	0
 2749 0045 06       		.uleb128 0x6
 2750 0046 0D       		.uleb128 0xd
 2751 0047 00       		.byte	0
 2752 0048 03       		.uleb128 0x3
 2753 0049 0E       		.uleb128 0xe
 2754 004a 3A       		.uleb128 0x3a
 2755 004b 0B       		.uleb128 0xb
 2756 004c 3B       		.uleb128 0x3b
 2757 004d 0B       		.uleb128 0xb
 2758 004e 49       		.uleb128 0x49
 2759 004f 13       		.uleb128 0x13
 2760 0050 38       		.uleb128 0x38
 2761 0051 0B       		.uleb128 0xb
 2762 0052 00       		.byte	0
 2763 0053 00       		.byte	0
 2764 0054 07       		.uleb128 0x7
 2765 0055 0D       		.uleb128 0xd
 2766 0056 00       		.byte	0
 2767 0057 03       		.uleb128 0x3
 2768 0058 08       		.uleb128 0x8
 2769 0059 3A       		.uleb128 0x3a
 2770 005a 0B       		.uleb128 0xb
 2771 005b 3B       		.uleb128 0x3b
 2772 005c 0B       		.uleb128 0xb
 2773 005d 49       		.uleb128 0x49
 2774 005e 13       		.uleb128 0x13
 2775 005f 38       		.uleb128 0x38
 2776 0060 0B       		.uleb128 0xb
 2777 0061 00       		.byte	0
 2778 0062 00       		.byte	0
 2779 0063 08       		.uleb128 0x8
 2780 0064 0D       		.uleb128 0xd
 2781 0065 00       		.byte	0
 2782 0066 03       		.uleb128 0x3
 2783 0067 08       		.uleb128 0x8
 2784 0068 3A       		.uleb128 0x3a
 2785 0069 0B       		.uleb128 0xb
 2786 006a 3B       		.uleb128 0x3b
 2787 006b 05       		.uleb128 0x5
 2788 006c 49       		.uleb128 0x49
 2789 006d 13       		.uleb128 0x13
ARM GAS  /tmp/ccq2hZYK.s 			page 50


 2790 006e 38       		.uleb128 0x38
 2791 006f 0B       		.uleb128 0xb
 2792 0070 00       		.byte	0
 2793 0071 00       		.byte	0
 2794 0072 09       		.uleb128 0x9
 2795 0073 0D       		.uleb128 0xd
 2796 0074 00       		.byte	0
 2797 0075 03       		.uleb128 0x3
 2798 0076 0E       		.uleb128 0xe
 2799 0077 3A       		.uleb128 0x3a
 2800 0078 0B       		.uleb128 0xb
 2801 0079 3B       		.uleb128 0x3b
 2802 007a 05       		.uleb128 0x5
 2803 007b 49       		.uleb128 0x49
 2804 007c 13       		.uleb128 0x13
 2805 007d 38       		.uleb128 0x38
 2806 007e 0B       		.uleb128 0xb
 2807 007f 00       		.byte	0
 2808 0080 00       		.byte	0
 2809 0081 0A       		.uleb128 0xa
 2810 0082 0F       		.uleb128 0xf
 2811 0083 00       		.byte	0
 2812 0084 0B       		.uleb128 0xb
 2813 0085 0B       		.uleb128 0xb
 2814 0086 49       		.uleb128 0x49
 2815 0087 13       		.uleb128 0x13
 2816 0088 00       		.byte	0
 2817 0089 00       		.byte	0
 2818 008a 0B       		.uleb128 0xb
 2819 008b 13       		.uleb128 0x13
 2820 008c 01       		.byte	0x1
 2821 008d 03       		.uleb128 0x3
 2822 008e 0E       		.uleb128 0xe
 2823 008f 0B       		.uleb128 0xb
 2824 0090 0B       		.uleb128 0xb
 2825 0091 3A       		.uleb128 0x3a
 2826 0092 0B       		.uleb128 0xb
 2827 0093 3B       		.uleb128 0x3b
 2828 0094 05       		.uleb128 0x5
 2829 0095 01       		.uleb128 0x1
 2830 0096 13       		.uleb128 0x13
 2831 0097 00       		.byte	0
 2832 0098 00       		.byte	0
 2833 0099 0C       		.uleb128 0xc
 2834 009a 15       		.uleb128 0x15
 2835 009b 01       		.byte	0x1
 2836 009c 27       		.uleb128 0x27
 2837 009d 19       		.uleb128 0x19
 2838 009e 01       		.uleb128 0x1
 2839 009f 13       		.uleb128 0x13
 2840 00a0 00       		.byte	0
 2841 00a1 00       		.byte	0
 2842 00a2 0D       		.uleb128 0xd
 2843 00a3 05       		.uleb128 0x5
 2844 00a4 00       		.byte	0
 2845 00a5 49       		.uleb128 0x49
 2846 00a6 13       		.uleb128 0x13
ARM GAS  /tmp/ccq2hZYK.s 			page 51


 2847 00a7 00       		.byte	0
 2848 00a8 00       		.byte	0
 2849 00a9 0E       		.uleb128 0xe
 2850 00aa 0F       		.uleb128 0xf
 2851 00ab 00       		.byte	0
 2852 00ac 0B       		.uleb128 0xb
 2853 00ad 0B       		.uleb128 0xb
 2854 00ae 00       		.byte	0
 2855 00af 00       		.byte	0
 2856 00b0 0F       		.uleb128 0xf
 2857 00b1 13       		.uleb128 0x13
 2858 00b2 01       		.byte	0x1
 2859 00b3 0B       		.uleb128 0xb
 2860 00b4 0B       		.uleb128 0xb
 2861 00b5 3A       		.uleb128 0x3a
 2862 00b6 0B       		.uleb128 0xb
 2863 00b7 3B       		.uleb128 0x3b
 2864 00b8 0B       		.uleb128 0xb
 2865 00b9 01       		.uleb128 0x1
 2866 00ba 13       		.uleb128 0x13
 2867 00bb 00       		.byte	0
 2868 00bc 00       		.byte	0
 2869 00bd 10       		.uleb128 0x10
 2870 00be 17       		.uleb128 0x17
 2871 00bf 01       		.byte	0x1
 2872 00c0 0B       		.uleb128 0xb
 2873 00c1 0B       		.uleb128 0xb
 2874 00c2 3A       		.uleb128 0x3a
 2875 00c3 0B       		.uleb128 0xb
 2876 00c4 3B       		.uleb128 0x3b
 2877 00c5 0B       		.uleb128 0xb
 2878 00c6 01       		.uleb128 0x1
 2879 00c7 13       		.uleb128 0x13
 2880 00c8 00       		.byte	0
 2881 00c9 00       		.byte	0
 2882 00ca 11       		.uleb128 0x11
 2883 00cb 0D       		.uleb128 0xd
 2884 00cc 00       		.byte	0
 2885 00cd 03       		.uleb128 0x3
 2886 00ce 0E       		.uleb128 0xe
 2887 00cf 3A       		.uleb128 0x3a
 2888 00d0 0B       		.uleb128 0xb
 2889 00d1 3B       		.uleb128 0x3b
 2890 00d2 0B       		.uleb128 0xb
 2891 00d3 49       		.uleb128 0x49
 2892 00d4 13       		.uleb128 0x13
 2893 00d5 00       		.byte	0
 2894 00d6 00       		.byte	0
 2895 00d7 12       		.uleb128 0x12
 2896 00d8 0D       		.uleb128 0xd
 2897 00d9 00       		.byte	0
 2898 00da 03       		.uleb128 0x3
 2899 00db 0E       		.uleb128 0xe
 2900 00dc 3A       		.uleb128 0x3a
 2901 00dd 0B       		.uleb128 0xb
 2902 00de 3B       		.uleb128 0x3b
 2903 00df 05       		.uleb128 0x5
ARM GAS  /tmp/ccq2hZYK.s 			page 52


 2904 00e0 49       		.uleb128 0x49
 2905 00e1 13       		.uleb128 0x13
 2906 00e2 00       		.byte	0
 2907 00e3 00       		.byte	0
 2908 00e4 13       		.uleb128 0x13
 2909 00e5 26       		.uleb128 0x26
 2910 00e6 00       		.byte	0
 2911 00e7 49       		.uleb128 0x49
 2912 00e8 13       		.uleb128 0x13
 2913 00e9 00       		.byte	0
 2914 00ea 00       		.byte	0
 2915 00eb 14       		.uleb128 0x14
 2916 00ec 35       		.uleb128 0x35
 2917 00ed 00       		.byte	0
 2918 00ee 49       		.uleb128 0x49
 2919 00ef 13       		.uleb128 0x13
 2920 00f0 00       		.byte	0
 2921 00f1 00       		.byte	0
 2922 00f2 15       		.uleb128 0x15
 2923 00f3 2E       		.uleb128 0x2e
 2924 00f4 01       		.byte	0x1
 2925 00f5 03       		.uleb128 0x3
 2926 00f6 0E       		.uleb128 0xe
 2927 00f7 3A       		.uleb128 0x3a
 2928 00f8 0B       		.uleb128 0xb
 2929 00f9 3B       		.uleb128 0x3b
 2930 00fa 05       		.uleb128 0x5
 2931 00fb 27       		.uleb128 0x27
 2932 00fc 19       		.uleb128 0x19
 2933 00fd 20       		.uleb128 0x20
 2934 00fe 0B       		.uleb128 0xb
 2935 00ff 01       		.uleb128 0x1
 2936 0100 13       		.uleb128 0x13
 2937 0101 00       		.byte	0
 2938 0102 00       		.byte	0
 2939 0103 16       		.uleb128 0x16
 2940 0104 05       		.uleb128 0x5
 2941 0105 00       		.byte	0
 2942 0106 03       		.uleb128 0x3
 2943 0107 0E       		.uleb128 0xe
 2944 0108 3A       		.uleb128 0x3a
 2945 0109 0B       		.uleb128 0xb
 2946 010a 3B       		.uleb128 0x3b
 2947 010b 05       		.uleb128 0x5
 2948 010c 49       		.uleb128 0x49
 2949 010d 13       		.uleb128 0x13
 2950 010e 00       		.byte	0
 2951 010f 00       		.byte	0
 2952 0110 17       		.uleb128 0x17
 2953 0111 2E       		.uleb128 0x2e
 2954 0112 00       		.byte	0
 2955 0113 03       		.uleb128 0x3
 2956 0114 0E       		.uleb128 0xe
 2957 0115 3A       		.uleb128 0x3a
 2958 0116 0B       		.uleb128 0xb
 2959 0117 3B       		.uleb128 0x3b
 2960 0118 05       		.uleb128 0x5
ARM GAS  /tmp/ccq2hZYK.s 			page 53


 2961 0119 27       		.uleb128 0x27
 2962 011a 19       		.uleb128 0x19
 2963 011b 20       		.uleb128 0x20
 2964 011c 0B       		.uleb128 0xb
 2965 011d 00       		.byte	0
 2966 011e 00       		.byte	0
 2967 011f 18       		.uleb128 0x18
 2968 0120 2E       		.uleb128 0x2e
 2969 0121 01       		.byte	0x1
 2970 0122 03       		.uleb128 0x3
 2971 0123 0E       		.uleb128 0xe
 2972 0124 3A       		.uleb128 0x3a
 2973 0125 0B       		.uleb128 0xb
 2974 0126 3B       		.uleb128 0x3b
 2975 0127 05       		.uleb128 0x5
 2976 0128 27       		.uleb128 0x27
 2977 0129 19       		.uleb128 0x19
 2978 012a 49       		.uleb128 0x49
 2979 012b 13       		.uleb128 0x13
 2980 012c 20       		.uleb128 0x20
 2981 012d 0B       		.uleb128 0xb
 2982 012e 01       		.uleb128 0x1
 2983 012f 13       		.uleb128 0x13
 2984 0130 00       		.byte	0
 2985 0131 00       		.byte	0
 2986 0132 19       		.uleb128 0x19
 2987 0133 05       		.uleb128 0x5
 2988 0134 00       		.byte	0
 2989 0135 03       		.uleb128 0x3
 2990 0136 08       		.uleb128 0x8
 2991 0137 3A       		.uleb128 0x3a
 2992 0138 0B       		.uleb128 0xb
 2993 0139 3B       		.uleb128 0x3b
 2994 013a 05       		.uleb128 0x5
 2995 013b 49       		.uleb128 0x49
 2996 013c 13       		.uleb128 0x13
 2997 013d 00       		.byte	0
 2998 013e 00       		.byte	0
 2999 013f 1A       		.uleb128 0x1a
 3000 0140 2E       		.uleb128 0x2e
 3001 0141 01       		.byte	0x1
 3002 0142 03       		.uleb128 0x3
 3003 0143 0E       		.uleb128 0xe
 3004 0144 3A       		.uleb128 0x3a
 3005 0145 0B       		.uleb128 0xb
 3006 0146 3B       		.uleb128 0x3b
 3007 0147 0B       		.uleb128 0xb
 3008 0148 27       		.uleb128 0x27
 3009 0149 19       		.uleb128 0x19
 3010 014a 20       		.uleb128 0x20
 3011 014b 0B       		.uleb128 0xb
 3012 014c 01       		.uleb128 0x1
 3013 014d 13       		.uleb128 0x13
 3014 014e 00       		.byte	0
 3015 014f 00       		.byte	0
 3016 0150 1B       		.uleb128 0x1b
 3017 0151 05       		.uleb128 0x5
ARM GAS  /tmp/ccq2hZYK.s 			page 54


 3018 0152 00       		.byte	0
 3019 0153 03       		.uleb128 0x3
 3020 0154 08       		.uleb128 0x8
 3021 0155 3A       		.uleb128 0x3a
 3022 0156 0B       		.uleb128 0xb
 3023 0157 3B       		.uleb128 0x3b
 3024 0158 0B       		.uleb128 0xb
 3025 0159 49       		.uleb128 0x49
 3026 015a 13       		.uleb128 0x13
 3027 015b 00       		.byte	0
 3028 015c 00       		.byte	0
 3029 015d 1C       		.uleb128 0x1c
 3030 015e 34       		.uleb128 0x34
 3031 015f 00       		.byte	0
 3032 0160 03       		.uleb128 0x3
 3033 0161 08       		.uleb128 0x8
 3034 0162 3A       		.uleb128 0x3a
 3035 0163 0B       		.uleb128 0xb
 3036 0164 3B       		.uleb128 0x3b
 3037 0165 05       		.uleb128 0x5
 3038 0166 49       		.uleb128 0x49
 3039 0167 13       		.uleb128 0x13
 3040 0168 00       		.byte	0
 3041 0169 00       		.byte	0
 3042 016a 1D       		.uleb128 0x1d
 3043 016b 2E       		.uleb128 0x2e
 3044 016c 01       		.byte	0x1
 3045 016d 3F       		.uleb128 0x3f
 3046 016e 19       		.uleb128 0x19
 3047 016f 03       		.uleb128 0x3
 3048 0170 0E       		.uleb128 0xe
 3049 0171 3A       		.uleb128 0x3a
 3050 0172 0B       		.uleb128 0xb
 3051 0173 3B       		.uleb128 0x3b
 3052 0174 0B       		.uleb128 0xb
 3053 0175 27       		.uleb128 0x27
 3054 0176 19       		.uleb128 0x19
 3055 0177 11       		.uleb128 0x11
 3056 0178 01       		.uleb128 0x1
 3057 0179 12       		.uleb128 0x12
 3058 017a 06       		.uleb128 0x6
 3059 017b 40       		.uleb128 0x40
 3060 017c 18       		.uleb128 0x18
 3061 017d 9742     		.uleb128 0x2117
 3062 017f 19       		.uleb128 0x19
 3063 0180 01       		.uleb128 0x1
 3064 0181 13       		.uleb128 0x13
 3065 0182 00       		.byte	0
 3066 0183 00       		.byte	0
 3067 0184 1E       		.uleb128 0x1e
 3068 0185 1D       		.uleb128 0x1d
 3069 0186 01       		.byte	0x1
 3070 0187 31       		.uleb128 0x31
 3071 0188 13       		.uleb128 0x13
 3072 0189 52       		.uleb128 0x52
 3073 018a 01       		.uleb128 0x1
 3074 018b 55       		.uleb128 0x55
ARM GAS  /tmp/ccq2hZYK.s 			page 55


 3075 018c 17       		.uleb128 0x17
 3076 018d 58       		.uleb128 0x58
 3077 018e 0B       		.uleb128 0xb
 3078 018f 59       		.uleb128 0x59
 3079 0190 0B       		.uleb128 0xb
 3080 0191 00       		.byte	0
 3081 0192 00       		.byte	0
 3082 0193 1F       		.uleb128 0x1f
 3083 0194 05       		.uleb128 0x5
 3084 0195 00       		.byte	0
 3085 0196 31       		.uleb128 0x31
 3086 0197 13       		.uleb128 0x13
 3087 0198 02       		.uleb128 0x2
 3088 0199 18       		.uleb128 0x18
 3089 019a 00       		.byte	0
 3090 019b 00       		.byte	0
 3091 019c 20       		.uleb128 0x20
 3092 019d 2E       		.uleb128 0x2e
 3093 019e 01       		.byte	0x1
 3094 019f 3F       		.uleb128 0x3f
 3095 01a0 19       		.uleb128 0x19
 3096 01a1 03       		.uleb128 0x3
 3097 01a2 0E       		.uleb128 0xe
 3098 01a3 3A       		.uleb128 0x3a
 3099 01a4 0B       		.uleb128 0xb
 3100 01a5 3B       		.uleb128 0x3b
 3101 01a6 0B       		.uleb128 0xb
 3102 01a7 27       		.uleb128 0x27
 3103 01a8 19       		.uleb128 0x19
 3104 01a9 49       		.uleb128 0x49
 3105 01aa 13       		.uleb128 0x13
 3106 01ab 11       		.uleb128 0x11
 3107 01ac 01       		.uleb128 0x1
 3108 01ad 12       		.uleb128 0x12
 3109 01ae 06       		.uleb128 0x6
 3110 01af 40       		.uleb128 0x40
 3111 01b0 18       		.uleb128 0x18
 3112 01b1 9742     		.uleb128 0x2117
 3113 01b3 19       		.uleb128 0x19
 3114 01b4 01       		.uleb128 0x1
 3115 01b5 13       		.uleb128 0x13
 3116 01b6 00       		.byte	0
 3117 01b7 00       		.byte	0
 3118 01b8 21       		.uleb128 0x21
 3119 01b9 05       		.uleb128 0x5
 3120 01ba 00       		.byte	0
 3121 01bb 03       		.uleb128 0x3
 3122 01bc 08       		.uleb128 0x8
 3123 01bd 3A       		.uleb128 0x3a
 3124 01be 0B       		.uleb128 0xb
 3125 01bf 3B       		.uleb128 0x3b
 3126 01c0 0B       		.uleb128 0xb
 3127 01c1 49       		.uleb128 0x49
 3128 01c2 13       		.uleb128 0x13
 3129 01c3 02       		.uleb128 0x2
 3130 01c4 18       		.uleb128 0x18
 3131 01c5 00       		.byte	0
ARM GAS  /tmp/ccq2hZYK.s 			page 56


 3132 01c6 00       		.byte	0
 3133 01c7 22       		.uleb128 0x22
 3134 01c8 34       		.uleb128 0x34
 3135 01c9 00       		.byte	0
 3136 01ca 03       		.uleb128 0x3
 3137 01cb 08       		.uleb128 0x8
 3138 01cc 3A       		.uleb128 0x3a
 3139 01cd 0B       		.uleb128 0xb
 3140 01ce 3B       		.uleb128 0x3b
 3141 01cf 0B       		.uleb128 0xb
 3142 01d0 49       		.uleb128 0x49
 3143 01d1 13       		.uleb128 0x13
 3144 01d2 02       		.uleb128 0x2
 3145 01d3 17       		.uleb128 0x17
 3146 01d4 00       		.byte	0
 3147 01d5 00       		.byte	0
 3148 01d6 23       		.uleb128 0x23
 3149 01d7 34       		.uleb128 0x34
 3150 01d8 00       		.byte	0
 3151 01d9 03       		.uleb128 0x3
 3152 01da 0E       		.uleb128 0xe
 3153 01db 49       		.uleb128 0x49
 3154 01dc 13       		.uleb128 0x13
 3155 01dd 34       		.uleb128 0x34
 3156 01de 19       		.uleb128 0x19
 3157 01df 00       		.byte	0
 3158 01e0 00       		.byte	0
 3159 01e1 24       		.uleb128 0x24
 3160 01e2 01       		.uleb128 0x1
 3161 01e3 01       		.byte	0x1
 3162 01e4 49       		.uleb128 0x49
 3163 01e5 13       		.uleb128 0x13
 3164 01e6 01       		.uleb128 0x1
 3165 01e7 13       		.uleb128 0x13
 3166 01e8 00       		.byte	0
 3167 01e9 00       		.byte	0
 3168 01ea 25       		.uleb128 0x25
 3169 01eb 21       		.uleb128 0x21
 3170 01ec 00       		.byte	0
 3171 01ed 49       		.uleb128 0x49
 3172 01ee 13       		.uleb128 0x13
 3173 01ef 2F       		.uleb128 0x2f
 3174 01f0 0B       		.uleb128 0xb
 3175 01f1 00       		.byte	0
 3176 01f2 00       		.byte	0
 3177 01f3 26       		.uleb128 0x26
 3178 01f4 2E       		.uleb128 0x2e
 3179 01f5 01       		.byte	0x1
 3180 01f6 03       		.uleb128 0x3
 3181 01f7 0E       		.uleb128 0xe
 3182 01f8 3A       		.uleb128 0x3a
 3183 01f9 0B       		.uleb128 0xb
 3184 01fa 3B       		.uleb128 0x3b
 3185 01fb 05       		.uleb128 0x5
 3186 01fc 27       		.uleb128 0x27
 3187 01fd 19       		.uleb128 0x19
 3188 01fe 11       		.uleb128 0x11
ARM GAS  /tmp/ccq2hZYK.s 			page 57


 3189 01ff 01       		.uleb128 0x1
 3190 0200 12       		.uleb128 0x12
 3191 0201 06       		.uleb128 0x6
 3192 0202 40       		.uleb128 0x40
 3193 0203 18       		.uleb128 0x18
 3194 0204 9742     		.uleb128 0x2117
 3195 0206 19       		.uleb128 0x19
 3196 0207 01       		.uleb128 0x1
 3197 0208 13       		.uleb128 0x13
 3198 0209 00       		.byte	0
 3199 020a 00       		.byte	0
 3200 020b 27       		.uleb128 0x27
 3201 020c 05       		.uleb128 0x5
 3202 020d 00       		.byte	0
 3203 020e 03       		.uleb128 0x3
 3204 020f 08       		.uleb128 0x8
 3205 0210 3A       		.uleb128 0x3a
 3206 0211 0B       		.uleb128 0xb
 3207 0212 3B       		.uleb128 0x3b
 3208 0213 05       		.uleb128 0x5
 3209 0214 49       		.uleb128 0x49
 3210 0215 13       		.uleb128 0x13
 3211 0216 02       		.uleb128 0x2
 3212 0217 17       		.uleb128 0x17
 3213 0218 00       		.byte	0
 3214 0219 00       		.byte	0
 3215 021a 28       		.uleb128 0x28
 3216 021b 34       		.uleb128 0x34
 3217 021c 00       		.byte	0
 3218 021d 03       		.uleb128 0x3
 3219 021e 08       		.uleb128 0x8
 3220 021f 3A       		.uleb128 0x3a
 3221 0220 0B       		.uleb128 0xb
 3222 0221 3B       		.uleb128 0x3b
 3223 0222 05       		.uleb128 0x5
 3224 0223 49       		.uleb128 0x49
 3225 0224 13       		.uleb128 0x13
 3226 0225 02       		.uleb128 0x2
 3227 0226 17       		.uleb128 0x17
 3228 0227 00       		.byte	0
 3229 0228 00       		.byte	0
 3230 0229 29       		.uleb128 0x29
 3231 022a 1D       		.uleb128 0x1d
 3232 022b 01       		.byte	0x1
 3233 022c 31       		.uleb128 0x31
 3234 022d 13       		.uleb128 0x13
 3235 022e 11       		.uleb128 0x11
 3236 022f 01       		.uleb128 0x1
 3237 0230 12       		.uleb128 0x12
 3238 0231 06       		.uleb128 0x6
 3239 0232 58       		.uleb128 0x58
 3240 0233 0B       		.uleb128 0xb
 3241 0234 59       		.uleb128 0x59
 3242 0235 05       		.uleb128 0x5
 3243 0236 01       		.uleb128 0x1
 3244 0237 13       		.uleb128 0x13
 3245 0238 00       		.byte	0
ARM GAS  /tmp/ccq2hZYK.s 			page 58


 3246 0239 00       		.byte	0
 3247 023a 2A       		.uleb128 0x2a
 3248 023b 1D       		.uleb128 0x1d
 3249 023c 01       		.byte	0x1
 3250 023d 31       		.uleb128 0x31
 3251 023e 13       		.uleb128 0x13
 3252 023f 11       		.uleb128 0x11
 3253 0240 01       		.uleb128 0x1
 3254 0241 12       		.uleb128 0x12
 3255 0242 06       		.uleb128 0x6
 3256 0243 58       		.uleb128 0x58
 3257 0244 0B       		.uleb128 0xb
 3258 0245 59       		.uleb128 0x59
 3259 0246 05       		.uleb128 0x5
 3260 0247 00       		.byte	0
 3261 0248 00       		.byte	0
 3262 0249 2B       		.uleb128 0x2b
 3263 024a 05       		.uleb128 0x5
 3264 024b 00       		.byte	0
 3265 024c 31       		.uleb128 0x31
 3266 024d 13       		.uleb128 0x13
 3267 024e 1C       		.uleb128 0x1c
 3268 024f 0B       		.uleb128 0xb
 3269 0250 00       		.byte	0
 3270 0251 00       		.byte	0
 3271 0252 2C       		.uleb128 0x2c
 3272 0253 898201   		.uleb128 0x4109
 3273 0256 00       		.byte	0
 3274 0257 11       		.uleb128 0x11
 3275 0258 01       		.uleb128 0x1
 3276 0259 31       		.uleb128 0x31
 3277 025a 13       		.uleb128 0x13
 3278 025b 00       		.byte	0
 3279 025c 00       		.byte	0
 3280 025d 2D       		.uleb128 0x2d
 3281 025e 05       		.uleb128 0x5
 3282 025f 00       		.byte	0
 3283 0260 31       		.uleb128 0x31
 3284 0261 13       		.uleb128 0x13
 3285 0262 02       		.uleb128 0x2
 3286 0263 17       		.uleb128 0x17
 3287 0264 00       		.byte	0
 3288 0265 00       		.byte	0
 3289 0266 2E       		.uleb128 0x2e
 3290 0267 898201   		.uleb128 0x4109
 3291 026a 01       		.byte	0x1
 3292 026b 11       		.uleb128 0x11
 3293 026c 01       		.uleb128 0x1
 3294 026d 31       		.uleb128 0x31
 3295 026e 13       		.uleb128 0x13
 3296 026f 00       		.byte	0
 3297 0270 00       		.byte	0
 3298 0271 2F       		.uleb128 0x2f
 3299 0272 8A8201   		.uleb128 0x410a
 3300 0275 00       		.byte	0
 3301 0276 02       		.uleb128 0x2
 3302 0277 18       		.uleb128 0x18
ARM GAS  /tmp/ccq2hZYK.s 			page 59


 3303 0278 9142     		.uleb128 0x2111
 3304 027a 18       		.uleb128 0x18
 3305 027b 00       		.byte	0
 3306 027c 00       		.byte	0
 3307 027d 30       		.uleb128 0x30
 3308 027e 2E       		.uleb128 0x2e
 3309 027f 01       		.byte	0x1
 3310 0280 3F       		.uleb128 0x3f
 3311 0281 19       		.uleb128 0x19
 3312 0282 03       		.uleb128 0x3
 3313 0283 0E       		.uleb128 0xe
 3314 0284 3A       		.uleb128 0x3a
 3315 0285 0B       		.uleb128 0xb
 3316 0286 3B       		.uleb128 0x3b
 3317 0287 05       		.uleb128 0x5
 3318 0288 27       		.uleb128 0x27
 3319 0289 19       		.uleb128 0x19
 3320 028a 49       		.uleb128 0x49
 3321 028b 13       		.uleb128 0x13
 3322 028c 11       		.uleb128 0x11
 3323 028d 01       		.uleb128 0x1
 3324 028e 12       		.uleb128 0x12
 3325 028f 06       		.uleb128 0x6
 3326 0290 40       		.uleb128 0x40
 3327 0291 18       		.uleb128 0x18
 3328 0292 9742     		.uleb128 0x2117
 3329 0294 19       		.uleb128 0x19
 3330 0295 01       		.uleb128 0x1
 3331 0296 13       		.uleb128 0x13
 3332 0297 00       		.byte	0
 3333 0298 00       		.byte	0
 3334 0299 31       		.uleb128 0x31
 3335 029a 05       		.uleb128 0x5
 3336 029b 00       		.byte	0
 3337 029c 03       		.uleb128 0x3
 3338 029d 08       		.uleb128 0x8
 3339 029e 3A       		.uleb128 0x3a
 3340 029f 0B       		.uleb128 0xb
 3341 02a0 3B       		.uleb128 0x3b
 3342 02a1 05       		.uleb128 0x5
 3343 02a2 49       		.uleb128 0x49
 3344 02a3 13       		.uleb128 0x13
 3345 02a4 02       		.uleb128 0x2
 3346 02a5 18       		.uleb128 0x18
 3347 02a6 00       		.byte	0
 3348 02a7 00       		.byte	0
 3349 02a8 32       		.uleb128 0x32
 3350 02a9 2E       		.uleb128 0x2e
 3351 02aa 01       		.byte	0x1
 3352 02ab 3F       		.uleb128 0x3f
 3353 02ac 19       		.uleb128 0x19
 3354 02ad 03       		.uleb128 0x3
 3355 02ae 0E       		.uleb128 0xe
 3356 02af 3A       		.uleb128 0x3a
 3357 02b0 0B       		.uleb128 0xb
 3358 02b1 3B       		.uleb128 0x3b
 3359 02b2 05       		.uleb128 0x5
ARM GAS  /tmp/ccq2hZYK.s 			page 60


 3360 02b3 27       		.uleb128 0x27
 3361 02b4 19       		.uleb128 0x19
 3362 02b5 11       		.uleb128 0x11
 3363 02b6 01       		.uleb128 0x1
 3364 02b7 12       		.uleb128 0x12
 3365 02b8 06       		.uleb128 0x6
 3366 02b9 40       		.uleb128 0x40
 3367 02ba 18       		.uleb128 0x18
 3368 02bb 9742     		.uleb128 0x2117
 3369 02bd 19       		.uleb128 0x19
 3370 02be 01       		.uleb128 0x1
 3371 02bf 13       		.uleb128 0x13
 3372 02c0 00       		.byte	0
 3373 02c1 00       		.byte	0
 3374 02c2 33       		.uleb128 0x33
 3375 02c3 05       		.uleb128 0x5
 3376 02c4 00       		.byte	0
 3377 02c5 03       		.uleb128 0x3
 3378 02c6 0E       		.uleb128 0xe
 3379 02c7 3A       		.uleb128 0x3a
 3380 02c8 0B       		.uleb128 0xb
 3381 02c9 3B       		.uleb128 0x3b
 3382 02ca 05       		.uleb128 0x5
 3383 02cb 49       		.uleb128 0x49
 3384 02cc 13       		.uleb128 0x13
 3385 02cd 02       		.uleb128 0x2
 3386 02ce 17       		.uleb128 0x17
 3387 02cf 00       		.byte	0
 3388 02d0 00       		.byte	0
 3389 02d1 34       		.uleb128 0x34
 3390 02d2 0B       		.uleb128 0xb
 3391 02d3 01       		.byte	0x1
 3392 02d4 11       		.uleb128 0x11
 3393 02d5 01       		.uleb128 0x1
 3394 02d6 12       		.uleb128 0x12
 3395 02d7 06       		.uleb128 0x6
 3396 02d8 00       		.byte	0
 3397 02d9 00       		.byte	0
 3398 02da 35       		.uleb128 0x35
 3399 02db 34       		.uleb128 0x34
 3400 02dc 00       		.byte	0
 3401 02dd 31       		.uleb128 0x31
 3402 02de 13       		.uleb128 0x13
 3403 02df 02       		.uleb128 0x2
 3404 02e0 17       		.uleb128 0x17
 3405 02e1 00       		.byte	0
 3406 02e2 00       		.byte	0
 3407 02e3 36       		.uleb128 0x36
 3408 02e4 898201   		.uleb128 0x4109
 3409 02e7 01       		.byte	0x1
 3410 02e8 11       		.uleb128 0x11
 3411 02e9 01       		.uleb128 0x1
 3412 02ea 31       		.uleb128 0x31
 3413 02eb 13       		.uleb128 0x13
 3414 02ec 01       		.uleb128 0x1
 3415 02ed 13       		.uleb128 0x13
 3416 02ee 00       		.byte	0
ARM GAS  /tmp/ccq2hZYK.s 			page 61


 3417 02ef 00       		.byte	0
 3418 02f0 37       		.uleb128 0x37
 3419 02f1 898201   		.uleb128 0x4109
 3420 02f4 00       		.byte	0
 3421 02f5 11       		.uleb128 0x11
 3422 02f6 01       		.uleb128 0x1
 3423 02f7 9542     		.uleb128 0x2115
 3424 02f9 19       		.uleb128 0x19
 3425 02fa 31       		.uleb128 0x31
 3426 02fb 13       		.uleb128 0x13
 3427 02fc 00       		.byte	0
 3428 02fd 00       		.byte	0
 3429 02fe 38       		.uleb128 0x38
 3430 02ff 0B       		.uleb128 0xb
 3431 0300 01       		.byte	0x1
 3432 0301 11       		.uleb128 0x11
 3433 0302 01       		.uleb128 0x1
 3434 0303 12       		.uleb128 0x12
 3435 0304 06       		.uleb128 0x6
 3436 0305 01       		.uleb128 0x1
 3437 0306 13       		.uleb128 0x13
 3438 0307 00       		.byte	0
 3439 0308 00       		.byte	0
 3440 0309 39       		.uleb128 0x39
 3441 030a 34       		.uleb128 0x34
 3442 030b 00       		.byte	0
 3443 030c 03       		.uleb128 0x3
 3444 030d 08       		.uleb128 0x8
 3445 030e 3A       		.uleb128 0x3a
 3446 030f 0B       		.uleb128 0xb
 3447 0310 3B       		.uleb128 0x3b
 3448 0311 05       		.uleb128 0x5
 3449 0312 49       		.uleb128 0x49
 3450 0313 13       		.uleb128 0x13
 3451 0314 02       		.uleb128 0x2
 3452 0315 18       		.uleb128 0x18
 3453 0316 00       		.byte	0
 3454 0317 00       		.byte	0
 3455 0318 3A       		.uleb128 0x3a
 3456 0319 898201   		.uleb128 0x4109
 3457 031c 01       		.byte	0x1
 3458 031d 11       		.uleb128 0x11
 3459 031e 01       		.uleb128 0x1
 3460 031f 9542     		.uleb128 0x2115
 3461 0321 19       		.uleb128 0x19
 3462 0322 31       		.uleb128 0x31
 3463 0323 13       		.uleb128 0x13
 3464 0324 01       		.uleb128 0x1
 3465 0325 13       		.uleb128 0x13
 3466 0326 00       		.byte	0
 3467 0327 00       		.byte	0
 3468 0328 3B       		.uleb128 0x3b
 3469 0329 898201   		.uleb128 0x4109
 3470 032c 01       		.byte	0x1
 3471 032d 11       		.uleb128 0x11
 3472 032e 01       		.uleb128 0x1
 3473 032f 9542     		.uleb128 0x2115
ARM GAS  /tmp/ccq2hZYK.s 			page 62


 3474 0331 19       		.uleb128 0x19
 3475 0332 31       		.uleb128 0x31
 3476 0333 13       		.uleb128 0x13
 3477 0334 00       		.byte	0
 3478 0335 00       		.byte	0
 3479 0336 3C       		.uleb128 0x3c
 3480 0337 1D       		.uleb128 0x1d
 3481 0338 01       		.byte	0x1
 3482 0339 31       		.uleb128 0x31
 3483 033a 13       		.uleb128 0x13
 3484 033b 52       		.uleb128 0x52
 3485 033c 01       		.uleb128 0x1
 3486 033d 55       		.uleb128 0x55
 3487 033e 17       		.uleb128 0x17
 3488 033f 58       		.uleb128 0x58
 3489 0340 0B       		.uleb128 0xb
 3490 0341 59       		.uleb128 0x59
 3491 0342 05       		.uleb128 0x5
 3492 0343 01       		.uleb128 0x1
 3493 0344 13       		.uleb128 0x13
 3494 0345 00       		.byte	0
 3495 0346 00       		.byte	0
 3496 0347 3D       		.uleb128 0x3d
 3497 0348 0B       		.uleb128 0xb
 3498 0349 01       		.byte	0x1
 3499 034a 55       		.uleb128 0x55
 3500 034b 17       		.uleb128 0x17
 3501 034c 00       		.byte	0
 3502 034d 00       		.byte	0
 3503 034e 3E       		.uleb128 0x3e
 3504 034f 2E       		.uleb128 0x2e
 3505 0350 00       		.byte	0
 3506 0351 03       		.uleb128 0x3
 3507 0352 0E       		.uleb128 0xe
 3508 0353 3A       		.uleb128 0x3a
 3509 0354 0B       		.uleb128 0xb
 3510 0355 3B       		.uleb128 0x3b
 3511 0356 05       		.uleb128 0x5
 3512 0357 27       		.uleb128 0x27
 3513 0358 19       		.uleb128 0x19
 3514 0359 49       		.uleb128 0x49
 3515 035a 13       		.uleb128 0x13
 3516 035b 20       		.uleb128 0x20
 3517 035c 0B       		.uleb128 0xb
 3518 035d 00       		.byte	0
 3519 035e 00       		.byte	0
 3520 035f 3F       		.uleb128 0x3f
 3521 0360 1D       		.uleb128 0x1d
 3522 0361 00       		.byte	0
 3523 0362 31       		.uleb128 0x31
 3524 0363 13       		.uleb128 0x13
 3525 0364 11       		.uleb128 0x11
 3526 0365 01       		.uleb128 0x1
 3527 0366 12       		.uleb128 0x12
 3528 0367 06       		.uleb128 0x6
 3529 0368 58       		.uleb128 0x58
 3530 0369 0B       		.uleb128 0xb
ARM GAS  /tmp/ccq2hZYK.s 			page 63


 3531 036a 59       		.uleb128 0x59
 3532 036b 05       		.uleb128 0x5
 3533 036c 00       		.byte	0
 3534 036d 00       		.byte	0
 3535 036e 40       		.uleb128 0x40
 3536 036f 34       		.uleb128 0x34
 3537 0370 00       		.byte	0
 3538 0371 03       		.uleb128 0x3
 3539 0372 0E       		.uleb128 0xe
 3540 0373 3A       		.uleb128 0x3a
 3541 0374 0B       		.uleb128 0xb
 3542 0375 3B       		.uleb128 0x3b
 3543 0376 05       		.uleb128 0x5
 3544 0377 49       		.uleb128 0x49
 3545 0378 13       		.uleb128 0x13
 3546 0379 3F       		.uleb128 0x3f
 3547 037a 19       		.uleb128 0x19
 3548 037b 3C       		.uleb128 0x3c
 3549 037c 19       		.uleb128 0x19
 3550 037d 00       		.byte	0
 3551 037e 00       		.byte	0
 3552 037f 41       		.uleb128 0x41
 3553 0380 34       		.uleb128 0x34
 3554 0381 00       		.byte	0
 3555 0382 03       		.uleb128 0x3
 3556 0383 08       		.uleb128 0x8
 3557 0384 3A       		.uleb128 0x3a
 3558 0385 0B       		.uleb128 0xb
 3559 0386 3B       		.uleb128 0x3b
 3560 0387 0B       		.uleb128 0xb
 3561 0388 49       		.uleb128 0x49
 3562 0389 13       		.uleb128 0x13
 3563 038a 3F       		.uleb128 0x3f
 3564 038b 19       		.uleb128 0x19
 3565 038c 02       		.uleb128 0x2
 3566 038d 18       		.uleb128 0x18
 3567 038e 00       		.byte	0
 3568 038f 00       		.byte	0
 3569 0390 42       		.uleb128 0x42
 3570 0391 2E       		.uleb128 0x2e
 3571 0392 00       		.byte	0
 3572 0393 3F       		.uleb128 0x3f
 3573 0394 19       		.uleb128 0x19
 3574 0395 03       		.uleb128 0x3
 3575 0396 0E       		.uleb128 0xe
 3576 0397 3A       		.uleb128 0x3a
 3577 0398 0B       		.uleb128 0xb
 3578 0399 3B       		.uleb128 0x3b
 3579 039a 0B       		.uleb128 0xb
 3580 039b 27       		.uleb128 0x27
 3581 039c 19       		.uleb128 0x19
 3582 039d 3C       		.uleb128 0x3c
 3583 039e 19       		.uleb128 0x19
 3584 039f 00       		.byte	0
 3585 03a0 00       		.byte	0
 3586 03a1 43       		.uleb128 0x43
 3587 03a2 2E       		.uleb128 0x2e
ARM GAS  /tmp/ccq2hZYK.s 			page 64


 3588 03a3 01       		.byte	0x1
 3589 03a4 3F       		.uleb128 0x3f
 3590 03a5 19       		.uleb128 0x19
 3591 03a6 03       		.uleb128 0x3
 3592 03a7 0E       		.uleb128 0xe
 3593 03a8 3A       		.uleb128 0x3a
 3594 03a9 0B       		.uleb128 0xb
 3595 03aa 3B       		.uleb128 0x3b
 3596 03ab 0B       		.uleb128 0xb
 3597 03ac 27       		.uleb128 0x27
 3598 03ad 19       		.uleb128 0x19
 3599 03ae 3C       		.uleb128 0x3c
 3600 03af 19       		.uleb128 0x19
 3601 03b0 01       		.uleb128 0x1
 3602 03b1 13       		.uleb128 0x13
 3603 03b2 00       		.byte	0
 3604 03b3 00       		.byte	0
 3605 03b4 44       		.uleb128 0x44
 3606 03b5 2E       		.uleb128 0x2e
 3607 03b6 01       		.byte	0x1
 3608 03b7 3F       		.uleb128 0x3f
 3609 03b8 19       		.uleb128 0x19
 3610 03b9 03       		.uleb128 0x3
 3611 03ba 0E       		.uleb128 0xe
 3612 03bb 3A       		.uleb128 0x3a
 3613 03bc 0B       		.uleb128 0xb
 3614 03bd 3B       		.uleb128 0x3b
 3615 03be 05       		.uleb128 0x5
 3616 03bf 27       		.uleb128 0x27
 3617 03c0 19       		.uleb128 0x19
 3618 03c1 3C       		.uleb128 0x3c
 3619 03c2 19       		.uleb128 0x19
 3620 03c3 01       		.uleb128 0x1
 3621 03c4 13       		.uleb128 0x13
 3622 03c5 00       		.byte	0
 3623 03c6 00       		.byte	0
 3624 03c7 45       		.uleb128 0x45
 3625 03c8 2E       		.uleb128 0x2e
 3626 03c9 01       		.byte	0x1
 3627 03ca 3F       		.uleb128 0x3f
 3628 03cb 19       		.uleb128 0x19
 3629 03cc 03       		.uleb128 0x3
 3630 03cd 0E       		.uleb128 0xe
 3631 03ce 3A       		.uleb128 0x3a
 3632 03cf 0B       		.uleb128 0xb
 3633 03d0 3B       		.uleb128 0x3b
 3634 03d1 0B       		.uleb128 0xb
 3635 03d2 27       		.uleb128 0x27
 3636 03d3 19       		.uleb128 0x19
 3637 03d4 3C       		.uleb128 0x3c
 3638 03d5 19       		.uleb128 0x19
 3639 03d6 00       		.byte	0
 3640 03d7 00       		.byte	0
 3641 03d8 00       		.byte	0
 3642              		.section	.debug_loc,"",%progbits
 3643              	.Ldebug_loc0:
 3644              	.LLST0:
ARM GAS  /tmp/ccq2hZYK.s 			page 65


 3645 0000 06000000 		.4byte	.LVL2
 3646 0004 0A000000 		.4byte	.LVL3
 3647 0008 0600     		.2byte	0x6
 3648 000a 03       		.byte	0x3
 3649 000b 00000000 		.4byte	ch
 3650 000f 9F       		.byte	0x9f
 3651 0010 0A000000 		.4byte	.LVL3
 3652 0014 24000000 		.4byte	.LFE247
 3653 0018 0100     		.2byte	0x1
 3654 001a 53       		.byte	0x53
 3655 001b 00000000 		.4byte	0
 3656 001f 00000000 		.4byte	0
 3657              	.LLST1:
 3658 0023 00000000 		.4byte	.LVL5
 3659 0027 0D000000 		.4byte	.LVL7-1
 3660 002b 0100     		.2byte	0x1
 3661 002d 50       		.byte	0x50
 3662 002e 0D000000 		.4byte	.LVL7-1
 3663 0032 5E000000 		.4byte	.LFE250
 3664 0036 0100     		.2byte	0x1
 3665 0038 54       		.byte	0x54
 3666 0039 00000000 		.4byte	0
 3667 003d 00000000 		.4byte	0
 3668              	.LLST2:
 3669 0041 04000000 		.4byte	.LVL6
 3670 0045 0D000000 		.4byte	.LVL7-1
 3671 0049 0100     		.2byte	0x1
 3672 004b 50       		.byte	0x50
 3673 004c 0D000000 		.4byte	.LVL7-1
 3674 0050 5E000000 		.4byte	.LFE250
 3675 0054 0100     		.2byte	0x1
 3676 0056 54       		.byte	0x54
 3677 0057 00000000 		.4byte	0
 3678 005b 00000000 		.4byte	0
 3679              	.LLST3:
 3680 005f 28000000 		.4byte	.LVL8
 3681 0063 2E000000 		.4byte	.LVL9
 3682 0067 0200     		.2byte	0x2
 3683 0069 30       		.byte	0x30
 3684 006a 9F       		.byte	0x9f
 3685 006b 00000000 		.4byte	0
 3686 006f 00000000 		.4byte	0
 3687              	.LLST4:
 3688 0073 36000000 		.4byte	.LVL10
 3689 0077 3C000000 		.4byte	.LVL11
 3690 007b 0100     		.2byte	0x1
 3691 007d 52       		.byte	0x52
 3692 007e 00000000 		.4byte	0
 3693 0082 00000000 		.4byte	0
 3694              	.LLST5:
 3695 0086 3C000000 		.4byte	.LVL11
 3696 008a 46000000 		.4byte	.LVL12
 3697 008e 0100     		.2byte	0x1
 3698 0090 54       		.byte	0x54
 3699 0091 00000000 		.4byte	0
 3700 0095 00000000 		.4byte	0
 3701              	.LLST6:
ARM GAS  /tmp/ccq2hZYK.s 			page 66


 3702 0099 06000000 		.4byte	.LVL16
 3703 009d 0A000000 		.4byte	.LVL17
 3704 00a1 0600     		.2byte	0x6
 3705 00a3 03       		.byte	0x3
 3706 00a4 00000000 		.4byte	ch
 3707 00a8 9F       		.byte	0x9f
 3708 00a9 0A000000 		.4byte	.LVL17
 3709 00ad 24000000 		.4byte	.LFE248
 3710 00b1 0100     		.2byte	0x1
 3711 00b3 53       		.byte	0x53
 3712 00b4 00000000 		.4byte	0
 3713 00b8 00000000 		.4byte	0
 3714              	.LLST7:
 3715 00bc 00000000 		.4byte	.LVL19
 3716 00c0 0C000000 		.4byte	.LVL22
 3717 00c4 0100     		.2byte	0x1
 3718 00c6 50       		.byte	0x50
 3719 00c7 0C000000 		.4byte	.LVL22
 3720 00cb 18000000 		.4byte	.LVL23
 3721 00cf 0200     		.2byte	0x2
 3722 00d1 75       		.byte	0x75
 3723 00d2 20       		.sleb128 32
 3724 00d3 18000000 		.4byte	.LVL23
 3725 00d7 30000000 		.4byte	.LFE249
 3726 00db 0400     		.2byte	0x4
 3727 00dd F3       		.byte	0xf3
 3728 00de 01       		.uleb128 0x1
 3729 00df 50       		.byte	0x50
 3730 00e0 9F       		.byte	0x9f
 3731 00e1 00000000 		.4byte	0
 3732 00e5 00000000 		.4byte	0
 3733              	.LLST8:
 3734 00e9 06000000 		.4byte	.LVL20
 3735 00ed 28000000 		.4byte	.LVL25
 3736 00f1 0100     		.2byte	0x1
 3737 00f3 55       		.byte	0x55
 3738 00f4 28000000 		.4byte	.LVL25
 3739 00f8 2B000000 		.4byte	.LVL26-1
 3740 00fc 0100     		.2byte	0x1
 3741 00fe 51       		.byte	0x51
 3742 00ff 00000000 		.4byte	0
 3743 0103 00000000 		.4byte	0
 3744              	.LLST9:
 3745 0107 0C000000 		.4byte	.LVL22
 3746 010b 1F000000 		.4byte	.LVL24-1
 3747 010f 0100     		.2byte	0x1
 3748 0111 50       		.byte	0x50
 3749 0112 00000000 		.4byte	0
 3750 0116 00000000 		.4byte	0
 3751              	.LLST10:
 3752 011a 00000000 		.4byte	.LVL27
 3753 011e 12000000 		.4byte	.LVL28
 3754 0122 0100     		.2byte	0x1
 3755 0124 50       		.byte	0x50
 3756 0125 12000000 		.4byte	.LVL28
 3757 0129 28000000 		.4byte	.LVL33
 3758 012d 0400     		.2byte	0x4
ARM GAS  /tmp/ccq2hZYK.s 			page 67


 3759 012f F3       		.byte	0xf3
 3760 0130 01       		.uleb128 0x1
 3761 0131 50       		.byte	0x50
 3762 0132 9F       		.byte	0x9f
 3763 0133 28000000 		.4byte	.LVL33
 3764 0137 2B000000 		.4byte	.LVL34-1
 3765 013b 0100     		.2byte	0x1
 3766 013d 50       		.byte	0x50
 3767 013e 2B000000 		.4byte	.LVL34-1
 3768 0142 3C000000 		.4byte	.LFE251
 3769 0146 0400     		.2byte	0x4
 3770 0148 F3       		.byte	0xf3
 3771 0149 01       		.uleb128 0x1
 3772 014a 50       		.byte	0x50
 3773 014b 9F       		.byte	0x9f
 3774 014c 00000000 		.4byte	0
 3775 0150 00000000 		.4byte	0
 3776              	.LLST11:
 3777 0154 00000000 		.4byte	.LVL27
 3778 0158 15000000 		.4byte	.LVL29-1
 3779 015c 0100     		.2byte	0x1
 3780 015e 51       		.byte	0x51
 3781 015f 15000000 		.4byte	.LVL29-1
 3782 0163 28000000 		.4byte	.LVL33
 3783 0167 0400     		.2byte	0x4
 3784 0169 F3       		.byte	0xf3
 3785 016a 01       		.uleb128 0x1
 3786 016b 51       		.byte	0x51
 3787 016c 9F       		.byte	0x9f
 3788 016d 28000000 		.4byte	.LVL33
 3789 0171 2B000000 		.4byte	.LVL34-1
 3790 0175 0100     		.2byte	0x1
 3791 0177 51       		.byte	0x51
 3792 0178 2B000000 		.4byte	.LVL34-1
 3793 017c 3C000000 		.4byte	.LFE251
 3794 0180 0400     		.2byte	0x4
 3795 0182 F3       		.byte	0xf3
 3796 0183 01       		.uleb128 0x1
 3797 0184 51       		.byte	0x51
 3798 0185 9F       		.byte	0x9f
 3799 0186 00000000 		.4byte	0
 3800 018a 00000000 		.4byte	0
 3801              	.LLST12:
 3802 018e 00000000 		.4byte	.LVL35
 3803 0192 19000000 		.4byte	.LVL38-1
 3804 0196 0100     		.2byte	0x1
 3805 0198 50       		.byte	0x50
 3806 0199 19000000 		.4byte	.LVL38-1
 3807 019d 1A000000 		.4byte	.LVL38
 3808 01a1 0400     		.2byte	0x4
 3809 01a3 F3       		.byte	0xf3
 3810 01a4 01       		.uleb128 0x1
 3811 01a5 50       		.byte	0x50
 3812 01a6 9F       		.byte	0x9f
 3813 01a7 1A000000 		.4byte	.LVL38
 3814 01ab 1C000000 		.4byte	.LVL39
 3815 01af 0100     		.2byte	0x1
ARM GAS  /tmp/ccq2hZYK.s 			page 68


 3816 01b1 50       		.byte	0x50
 3817 01b2 1C000000 		.4byte	.LVL39
 3818 01b6 3A000000 		.4byte	.LVL44
 3819 01ba 0100     		.2byte	0x1
 3820 01bc 54       		.byte	0x54
 3821 01bd 3A000000 		.4byte	.LVL44
 3822 01c1 3D000000 		.4byte	.LVL45-1
 3823 01c5 0100     		.2byte	0x1
 3824 01c7 50       		.byte	0x50
 3825 01c8 3D000000 		.4byte	.LVL45-1
 3826 01cc 44000000 		.4byte	.LFE252
 3827 01d0 0400     		.2byte	0x4
 3828 01d2 F3       		.byte	0xf3
 3829 01d3 01       		.uleb128 0x1
 3830 01d4 50       		.byte	0x50
 3831 01d5 9F       		.byte	0x9f
 3832 01d6 00000000 		.4byte	0
 3833 01da 00000000 		.4byte	0
 3834              	.LLST13:
 3835 01de 00000000 		.4byte	.LVL35
 3836 01e2 0A000000 		.4byte	.LVL37
 3837 01e6 0100     		.2byte	0x1
 3838 01e8 51       		.byte	0x51
 3839 01e9 0A000000 		.4byte	.LVL37
 3840 01ed 19000000 		.4byte	.LVL38-1
 3841 01f1 0200     		.2byte	0x2
 3842 01f3 70       		.byte	0x70
 3843 01f4 24       		.sleb128 36
 3844 01f5 19000000 		.4byte	.LVL38-1
 3845 01f9 1A000000 		.4byte	.LVL38
 3846 01fd 0400     		.2byte	0x4
 3847 01ff F3       		.byte	0xf3
 3848 0200 01       		.uleb128 0x1
 3849 0201 51       		.byte	0x51
 3850 0202 9F       		.byte	0x9f
 3851 0203 1A000000 		.4byte	.LVL38
 3852 0207 1C000000 		.4byte	.LVL39
 3853 020b 0200     		.2byte	0x2
 3854 020d 70       		.byte	0x70
 3855 020e 24       		.sleb128 36
 3856 020f 1C000000 		.4byte	.LVL39
 3857 0213 1F000000 		.4byte	.LVL40-1
 3858 0217 0200     		.2byte	0x2
 3859 0219 74       		.byte	0x74
 3860 021a 24       		.sleb128 36
 3861 021b 1F000000 		.4byte	.LVL40-1
 3862 021f 44000000 		.4byte	.LFE252
 3863 0223 0400     		.2byte	0x4
 3864 0225 F3       		.byte	0xf3
 3865 0226 01       		.uleb128 0x1
 3866 0227 51       		.byte	0x51
 3867 0228 9F       		.byte	0x9f
 3868 0229 00000000 		.4byte	0
 3869 022d 00000000 		.4byte	0
 3870              	.LLST14:
 3871 0231 08000000 		.4byte	.LVL36
 3872 0235 19000000 		.4byte	.LVL38-1
ARM GAS  /tmp/ccq2hZYK.s 			page 69


 3873 0239 0100     		.2byte	0x1
 3874 023b 53       		.byte	0x53
 3875 023c 1A000000 		.4byte	.LVL38
 3876 0240 1F000000 		.4byte	.LVL40-1
 3877 0244 0100     		.2byte	0x1
 3878 0246 53       		.byte	0x53
 3879 0247 24000000 		.4byte	.LVL41
 3880 024b 28000000 		.4byte	.LVL42
 3881 024f 0100     		.2byte	0x1
 3882 0251 50       		.byte	0x50
 3883 0252 28000000 		.4byte	.LVL42
 3884 0256 31000000 		.4byte	.LVL43-1
 3885 025a 0100     		.2byte	0x1
 3886 025c 51       		.byte	0x51
 3887 025d 31000000 		.4byte	.LVL43-1
 3888 0261 3A000000 		.4byte	.LVL44
 3889 0265 0100     		.2byte	0x1
 3890 0267 55       		.byte	0x55
 3891 0268 3A000000 		.4byte	.LVL44
 3892 026c 3D000000 		.4byte	.LVL45-1
 3893 0270 0100     		.2byte	0x1
 3894 0272 51       		.byte	0x51
 3895 0273 00000000 		.4byte	0
 3896 0277 00000000 		.4byte	0
 3897              	.LLST15:
 3898 027b 08000000 		.4byte	.LVL47
 3899 027f 19000000 		.4byte	.LVL48-1
 3900 0283 0100     		.2byte	0x1
 3901 0285 50       		.byte	0x50
 3902 0286 1C000000 		.4byte	.LVL49
 3903 028a 20000000 		.4byte	.LVL50
 3904 028e 0100     		.2byte	0x1
 3905 0290 50       		.byte	0x50
 3906 0291 20000000 		.4byte	.LVL50
 3907 0295 23000000 		.4byte	.LVL51-1
 3908 0299 0100     		.2byte	0x1
 3909 029b 51       		.byte	0x51
 3910 029c 23000000 		.4byte	.LVL51-1
 3911 02a0 2C000000 		.4byte	.LVL52
 3912 02a4 0100     		.2byte	0x1
 3913 02a6 55       		.byte	0x55
 3914 02a7 2C000000 		.4byte	.LVL52
 3915 02ab 2F000000 		.4byte	.LVL53-1
 3916 02af 0100     		.2byte	0x1
 3917 02b1 51       		.byte	0x51
 3918 02b2 00000000 		.4byte	0
 3919 02b6 00000000 		.4byte	0
 3920              	.LLST16:
 3921 02ba 08000000 		.4byte	.LVL47
 3922 02be 19000000 		.4byte	.LVL48-1
 3923 02c2 0100     		.2byte	0x1
 3924 02c4 53       		.byte	0x53
 3925 02c5 00000000 		.4byte	0
 3926 02c9 00000000 		.4byte	0
 3927              	.LLST17:
 3928 02cd 08000000 		.4byte	.LVL54
 3929 02d1 19000000 		.4byte	.LVL55-1
ARM GAS  /tmp/ccq2hZYK.s 			page 70


 3930 02d5 0100     		.2byte	0x1
 3931 02d7 50       		.byte	0x50
 3932 02d8 1C000000 		.4byte	.LVL56
 3933 02dc 20000000 		.4byte	.LVL57
 3934 02e0 0100     		.2byte	0x1
 3935 02e2 50       		.byte	0x50
 3936 02e3 20000000 		.4byte	.LVL57
 3937 02e7 23000000 		.4byte	.LVL58-1
 3938 02eb 0100     		.2byte	0x1
 3939 02ed 51       		.byte	0x51
 3940 02ee 23000000 		.4byte	.LVL58-1
 3941 02f2 2C000000 		.4byte	.LVL59
 3942 02f6 0100     		.2byte	0x1
 3943 02f8 55       		.byte	0x55
 3944 02f9 2C000000 		.4byte	.LVL59
 3945 02fd 2F000000 		.4byte	.LVL60-1
 3946 0301 0100     		.2byte	0x1
 3947 0303 51       		.byte	0x51
 3948 0304 00000000 		.4byte	0
 3949 0308 00000000 		.4byte	0
 3950              	.LLST18:
 3951 030c 08000000 		.4byte	.LVL54
 3952 0310 19000000 		.4byte	.LVL55-1
 3953 0314 0100     		.2byte	0x1
 3954 0316 53       		.byte	0x53
 3955 0317 00000000 		.4byte	0
 3956 031b 00000000 		.4byte	0
 3957              	.LLST19:
 3958 031f 08000000 		.4byte	.LVL62
 3959 0323 19000000 		.4byte	.LVL63-1
 3960 0327 0100     		.2byte	0x1
 3961 0329 50       		.byte	0x50
 3962 032a 1C000000 		.4byte	.LVL64
 3963 032e 20000000 		.4byte	.LVL65
 3964 0332 0100     		.2byte	0x1
 3965 0334 50       		.byte	0x50
 3966 0335 20000000 		.4byte	.LVL65
 3967 0339 23000000 		.4byte	.LVL66-1
 3968 033d 0100     		.2byte	0x1
 3969 033f 51       		.byte	0x51
 3970 0340 23000000 		.4byte	.LVL66-1
 3971 0344 2C000000 		.4byte	.LVL67
 3972 0348 0100     		.2byte	0x1
 3973 034a 55       		.byte	0x55
 3974 034b 2C000000 		.4byte	.LVL67
 3975 034f 2F000000 		.4byte	.LVL68-1
 3976 0353 0100     		.2byte	0x1
 3977 0355 51       		.byte	0x51
 3978 0356 00000000 		.4byte	0
 3979 035a 00000000 		.4byte	0
 3980              	.LLST20:
 3981 035e 08000000 		.4byte	.LVL62
 3982 0362 19000000 		.4byte	.LVL63-1
 3983 0366 0100     		.2byte	0x1
 3984 0368 53       		.byte	0x53
 3985 0369 00000000 		.4byte	0
 3986 036d 00000000 		.4byte	0
ARM GAS  /tmp/ccq2hZYK.s 			page 71


 3987              		.section	.debug_aranges,"",%progbits
 3988 0000 74000000 		.4byte	0x74
 3989 0004 0200     		.2byte	0x2
 3990 0006 00000000 		.4byte	.Ldebug_info0
 3991 000a 04       		.byte	0x4
 3992 000b 00       		.byte	0
 3993 000c 0000     		.2byte	0
 3994 000e 0000     		.2byte	0
 3995 0010 00000000 		.4byte	.LFB246
 3996 0014 14000000 		.4byte	.LFE246-.LFB246
 3997 0018 00000000 		.4byte	.LFB247
 3998 001c 24000000 		.4byte	.LFE247-.LFB247
 3999 0020 00000000 		.4byte	.LFB250
 4000 0024 5E000000 		.4byte	.LFE250-.LFB250
 4001 0028 00000000 		.4byte	.LFB248
 4002 002c 24000000 		.4byte	.LFE248-.LFB248
 4003 0030 00000000 		.4byte	.LFB249
 4004 0034 30000000 		.4byte	.LFE249-.LFB249
 4005 0038 00000000 		.4byte	.LFB251
 4006 003c 3C000000 		.4byte	.LFE251-.LFB251
 4007 0040 00000000 		.4byte	.LFB252
 4008 0044 44000000 		.4byte	.LFE252-.LFB252
 4009 0048 00000000 		.4byte	.LFB254
 4010 004c 18000000 		.4byte	.LFE254-.LFB254
 4011 0050 00000000 		.4byte	.LFB255
 4012 0054 34000000 		.4byte	.LFE255-.LFB255
 4013 0058 00000000 		.4byte	.LFB256
 4014 005c 34000000 		.4byte	.LFE256-.LFB256
 4015 0060 00000000 		.4byte	.LFB253
 4016 0064 18000000 		.4byte	.LFE253-.LFB253
 4017 0068 00000000 		.4byte	.LFB257
 4018 006c 34000000 		.4byte	.LFE257-.LFB257
 4019 0070 00000000 		.4byte	0
 4020 0074 00000000 		.4byte	0
 4021              		.section	.debug_ranges,"",%progbits
 4022              	.Ldebug_ranges0:
 4023 0000 00000000 		.4byte	.LBB39
 4024 0004 02000000 		.4byte	.LBE39
 4025 0008 04000000 		.4byte	.LBB42
 4026 000c 08000000 		.4byte	.LBE42
 4027 0010 00000000 		.4byte	0
 4028 0014 00000000 		.4byte	0
 4029 0018 04000000 		.4byte	.LBB90
 4030 001c 06000000 		.4byte	.LBE90
 4031 0020 08000000 		.4byte	.LBB93
 4032 0024 0E000000 		.4byte	.LBE93
 4033 0028 00000000 		.4byte	0
 4034 002c 00000000 		.4byte	0
 4035 0030 04000000 		.4byte	.LBB94
 4036 0034 06000000 		.4byte	.LBE94
 4037 0038 08000000 		.4byte	.LBB97
 4038 003c 0E000000 		.4byte	.LBE97
 4039 0040 00000000 		.4byte	0
 4040 0044 00000000 		.4byte	0
 4041 0048 04000000 		.4byte	.LBB102
 4042 004c 06000000 		.4byte	.LBE102
 4043 0050 08000000 		.4byte	.LBB105
ARM GAS  /tmp/ccq2hZYK.s 			page 72


 4044 0054 0E000000 		.4byte	.LBE105
 4045 0058 00000000 		.4byte	0
 4046 005c 00000000 		.4byte	0
 4047 0060 00000000 		.4byte	.LFB246
 4048 0064 14000000 		.4byte	.LFE246
 4049 0068 00000000 		.4byte	.LFB247
 4050 006c 24000000 		.4byte	.LFE247
 4051 0070 00000000 		.4byte	.LFB250
 4052 0074 5E000000 		.4byte	.LFE250
 4053 0078 00000000 		.4byte	.LFB248
 4054 007c 24000000 		.4byte	.LFE248
 4055 0080 00000000 		.4byte	.LFB249
 4056 0084 30000000 		.4byte	.LFE249
 4057 0088 00000000 		.4byte	.LFB251
 4058 008c 3C000000 		.4byte	.LFE251
 4059 0090 00000000 		.4byte	.LFB252
 4060 0094 44000000 		.4byte	.LFE252
 4061 0098 00000000 		.4byte	.LFB254
 4062 009c 18000000 		.4byte	.LFE254
 4063 00a0 00000000 		.4byte	.LFB255
 4064 00a4 34000000 		.4byte	.LFE255
 4065 00a8 00000000 		.4byte	.LFB256
 4066 00ac 34000000 		.4byte	.LFE256
 4067 00b0 00000000 		.4byte	.LFB253
 4068 00b4 18000000 		.4byte	.LFE253
 4069 00b8 00000000 		.4byte	.LFB257
 4070 00bc 34000000 		.4byte	.LFE257
 4071 00c0 00000000 		.4byte	0
 4072 00c4 00000000 		.4byte	0
 4073              		.section	.debug_line,"",%progbits
 4074              	.Ldebug_line0:
 4075 0000 02040000 		.section	.debug_str,"MS",%progbits,1
 4075      0200F601 
 4075      00000201 
 4075      FB0E0D00 
 4075      01010101 
 4076              	.LASF53:
 4077 0000 72656164 		.ascii	"ready_list_t\000"
 4077      795F6C69 
 4077      73745F74 
 4077      00
 4078              	.LASF93:
 4079 000d 77747472 		.ascii	"wttrp\000"
 4079      7000
 4080              	.LASF59:
 4081 0013 64656C74 		.ascii	"delta\000"
 4081      6100
 4082              	.LASF90:
 4083 0019 7264796D 		.ascii	"rdymsg\000"
 4083      736700
 4084              	.LASF16:
 4085 0020 75696E74 		.ascii	"uint64_t\000"
 4085      36345F74 
 4085      00
 4086              	.LASF129:
 4087 0029 63685363 		.ascii	"chSchDoRescheduleAhead\000"
 4087      68446F52 
ARM GAS  /tmp/ccq2hZYK.s 			page 73


 4087      65736368 
 4087      6564756C 
 4087      65416865 
 4088              	.LASF24:
 4089 0040 6576656E 		.ascii	"eventmask_t\000"
 4089      746D6173 
 4089      6B5F7400 
 4090              	.LASF5:
 4091 004c 5F5F7569 		.ascii	"__uint8_t\000"
 4091      6E74385F 
 4091      7400
 4092              	.LASF52:
 4093 0056 70726576 		.ascii	"prev\000"
 4093      00
 4094              	.LASF77:
 4095 005b 706F7274 		.ascii	"port_intctx\000"
 4095      5F696E74 
 4095      63747800 
 4096              	.LASF51:
 4097 0067 63685F74 		.ascii	"ch_threads_queue\000"
 4097      68726561 
 4097      64735F71 
 4097      75657565 
 4097      00
 4098              	.LASF64:
 4099 0078 73797374 		.ascii	"system_debug_t\000"
 4099      656D5F64 
 4099      65627567 
 4099      5F7400
 4100              	.LASF112:
 4101 0087 71756575 		.ascii	"queue_init\000"
 4101      655F696E 
 4101      697400
 4102              	.LASF105:
 4103 0092 706F7274 		.ascii	"port_lock\000"
 4103      5F6C6F63 
 4103      6B00
 4104              	.LASF81:
 4105 009c 776F7273 		.ascii	"worst\000"
 4105      7400
 4106              	.LASF84:
 4107 00a2 74696D65 		.ascii	"time_measurement_t\000"
 4107      5F6D6561 
 4107      73757265 
 4107      6D656E74 
 4107      5F7400
 4108              	.LASF12:
 4109 00b5 6C6F6E67 		.ascii	"long long unsigned int\000"
 4109      206C6F6E 
 4109      6720756E 
 4109      7369676E 
 4109      65642069 
 4110              	.LASF143:
 4111 00cc 63685654 		.ascii	"chVTDoResetI\000"
 4111      446F5265 
 4111      73657449 
 4111      00
ARM GAS  /tmp/ccq2hZYK.s 			page 74


 4112              	.LASF91:
 4113 00d9 65786974 		.ascii	"exitcode\000"
 4113      636F6465 
 4113      00
 4114              	.LASF71:
 4115 00e2 6D61696E 		.ascii	"mainthread\000"
 4115      74687265 
 4115      616400
 4116              	.LASF94:
 4117 00ed 73656E74 		.ascii	"sentmsg\000"
 4117      6D736700 
 4118              	.LASF61:
 4119 00f5 76697274 		.ascii	"virtual_timers_list_t\000"
 4119      75616C5F 
 4119      74696D65 
 4119      72735F6C 
 4119      6973745F 
 4120              	.LASF132:
 4121 010b 49544D5F 		.ascii	"ITM_RxBuffer\000"
 4121      52784275 
 4121      66666572 
 4121      00
 4122              	.LASF49:
 4123 0118 6E657874 		.ascii	"next\000"
 4123      00
 4124              	.LASF18:
 4125 011d 72747469 		.ascii	"rttime_t\000"
 4125      6D655F74 
 4125      00
 4126              	.LASF121:
 4127 0126 5F736368 		.ascii	"_scheduler_init\000"
 4127      6564756C 
 4127      65725F69 
 4127      6E697400 
 4128              	.LASF10:
 4129 0136 6C6F6E67 		.ascii	"long long int\000"
 4129      206C6F6E 
 4129      6720696E 
 4129      7400
 4130              	.LASF1:
 4131 0144 7369676E 		.ascii	"signed char\000"
 4131      65642063 
 4131      68617200 
 4132              	.LASF70:
 4133 0150 76746C69 		.ascii	"vtlist\000"
 4133      737400
 4134              	.LASF140:
 4135 0157 2F686F6D 		.ascii	"/home/kozinalexey/f4by/ardupilot/build/f4by-ch\000"
 4135      652F6B6F 
 4135      7A696E61 
 4135      6C657865 
 4135      792F6634 
 4136              	.LASF106:
 4137 0186 706F7274 		.ascii	"port_unlock\000"
 4137      5F756E6C 
 4137      6F636B00 
 4138              	.LASF39:
ARM GAS  /tmp/ccq2hZYK.s 			page 75


 4139 0192 6D736771 		.ascii	"msgqueue\000"
 4139      75657565 
 4139      00
 4140              	.LASF35:
 4141 019b 73746174 		.ascii	"state\000"
 4141      6500
 4142              	.LASF7:
 4143 01a1 6C6F6E67 		.ascii	"long int\000"
 4143      20696E74 
 4143      00
 4144              	.LASF117:
 4145 01aa 71756575 		.ascii	"queue_dequeue\000"
 4145      655F6465 
 4145      71756575 
 4145      6500
 4146              	.LASF20:
 4147 01b8 74737461 		.ascii	"tstate_t\000"
 4147      74655F74 
 4147      00
 4148              	.LASF60:
 4149 01c1 66756E63 		.ascii	"func\000"
 4149      00
 4150              	.LASF44:
 4151 01c6 73746174 		.ascii	"stats\000"
 4151      7300
 4152              	.LASF127:
 4153 01cc 63685363 		.ascii	"chSchIsPreemptionRequired\000"
 4153      68497350 
 4153      7265656D 
 4153      7074696F 
 4153      6E526571 
 4154              	.LASF130:
 4155 01e6 63685363 		.ascii	"chSchRescheduleS\000"
 4155      68526573 
 4155      63686564 
 4155      756C6553 
 4155      00
 4156              	.LASF8:
 4157 01f7 5F5F7569 		.ascii	"__uint32_t\000"
 4157      6E743332 
 4157      5F7400
 4158              	.LASF74:
 4159 0202 72656761 		.ascii	"regarm_t\000"
 4159      726D5F74 
 4159      00
 4160              	.LASF131:
 4161 020b 63685363 		.ascii	"chSchDoReschedule\000"
 4161      68446F52 
 4161      65736368 
 4161      6564756C 
 4161      6500
 4162              	.LASF65:
 4163 021d 63685F73 		.ascii	"ch_system_debug\000"
 4163      79737465 
 4163      6D5F6465 
 4163      62756700 
 4164              	.LASF38:
ARM GAS  /tmp/ccq2hZYK.s 			page 76


 4165 022d 77616974 		.ascii	"waiting\000"
 4165      696E6700 
 4166              	.LASF103:
 4167 0235 6D757465 		.ascii	"mutex_t\000"
 4167      785F7400 
 4168              	.LASF107:
 4169 023d 76616C75 		.ascii	"value\000"
 4169      6500
 4170              	.LASF25:
 4171 0243 636E745F 		.ascii	"cnt_t\000"
 4171      7400
 4172              	.LASF0:
 4173 0249 756E7369 		.ascii	"unsigned int\000"
 4173      676E6564 
 4173      20696E74 
 4173      00
 4174              	.LASF141:
 4175 0256 77616B65 		.ascii	"wakeup\000"
 4175      757000
 4176              	.LASF95:
 4177 025d 77747365 		.ascii	"wtsemp\000"
 4177      6D7000
 4178              	.LASF136:
 4179 0264 5F706F72 		.ascii	"_port_switch\000"
 4179      745F7377 
 4179      69746368 
 4179      00
 4180              	.LASF85:
 4181 0271 6E5F6972 		.ascii	"n_irq\000"
 4181      7100
 4182              	.LASF29:
 4183 0277 71756575 		.ascii	"queue\000"
 4183      6500
 4184              	.LASF43:
 4185 027d 6D706F6F 		.ascii	"mpool\000"
 4185      6C00
 4186              	.LASF4:
 4187 0283 73686F72 		.ascii	"short unsigned int\000"
 4187      7420756E 
 4187      7369676E 
 4187      65642069 
 4187      6E7400
 4188              	.LASF89:
 4189 0296 6B65726E 		.ascii	"kernel_stats_t\000"
 4189      656C5F73 
 4189      74617473 
 4189      5F7400
 4190              	.LASF47:
 4191 02a5 63685F74 		.ascii	"ch_thread\000"
 4191      68726561 
 4191      6400
 4192              	.LASF33:
 4193 02af 6E616D65 		.ascii	"name\000"
 4193      00
 4194              	.LASF23:
 4195 02b4 6D73675F 		.ascii	"msg_t\000"
 4195      7400
ARM GAS  /tmp/ccq2hZYK.s 			page 77


 4196              	.LASF82:
 4197 02ba 6C617374 		.ascii	"last\000"
 4197      00
 4198              	.LASF26:
 4199 02bf 75636E74 		.ascii	"ucnt_t\000"
 4199      5F7400
 4200              	.LASF40:
 4201 02c6 6570656E 		.ascii	"epending\000"
 4201      64696E67 
 4201      00
 4202              	.LASF67:
 4203 02cf 63685F73 		.ascii	"ch_system_t\000"
 4203      79737465 
 4203      6D5F7400 
 4204              	.LASF138:
 4205 02db 474E5520 		.ascii	"GNU C 4.9.3 20150529 (prerelease) -mcpu=cortex-m4 -"
 4205      4320342E 
 4205      392E3320 
 4205      32303135 
 4205      30353239 
 4206 030e 6D666C6F 		.ascii	"mfloat-abi=hard -mfpu=fpv4-sp-d16 -mno-thumb-interw"
 4206      61742D61 
 4206      62693D68 
 4206      61726420 
 4206      2D6D6670 
 4207 0341 6F726B20 		.ascii	"ork -mthumb -g -Os -fomit-frame-pointer -falign-fun"
 4207      2D6D7468 
 4207      756D6220 
 4207      2D67202D 
 4207      4F73202D 
 4208 0374 6374696F 		.ascii	"ctions=16 -ffunction-sections -fdata-sections -fno-"
 4208      6E733D31 
 4208      36202D66 
 4208      66756E63 
 4208      74696F6E 
 4209 03a7 636F6D6D 		.ascii	"common -fsingle-precision-constant\000"
 4209      6F6E202D 
 4209      6673696E 
 4209      676C652D 
 4209      70726563 
 4210              	.LASF92:
 4211 03ca 77746F62 		.ascii	"wtobjp\000"
 4211      6A7000
 4212              	.LASF88:
 4213 03d1 6D5F6372 		.ascii	"m_crit_isr\000"
 4213      69745F69 
 4213      737200
 4214              	.LASF54:
 4215 03dc 63685F72 		.ascii	"ch_ready_list\000"
 4215      65616479 
 4215      5F6C6973 
 4215      7400
 4216              	.LASF137:
 4217 03ea 63685654 		.ascii	"chVTDoSetI\000"
 4217      446F5365 
 4217      744900
 4218              	.LASF139:
ARM GAS  /tmp/ccq2hZYK.s 			page 78


 4219 03f5 2E2E2F2E 		.ascii	"../../modules/ChibiOS/os/rt/src/chschd.c\000"
 4219      2E2F6D6F 
 4219      64756C65 
 4219      732F4368 
 4219      6962694F 
 4220              	.LASF75:
 4221 041e 73746B61 		.ascii	"stkalign_t\000"
 4221      6C69676E 
 4221      5F7400
 4222              	.LASF31:
 4223 0429 6E657765 		.ascii	"newer\000"
 4223      7200
 4224              	.LASF42:
 4225 042f 7265616C 		.ascii	"realprio\000"
 4225      7072696F 
 4225      00
 4226              	.LASF73:
 4227 0438 73697A65 		.ascii	"sizetype\000"
 4227      74797065 
 4227      00
 4228              	.LASF45:
 4229 0441 74687265 		.ascii	"thread_reference_t\000"
 4229      61645F72 
 4229      65666572 
 4229      656E6365 
 4229      5F7400
 4230              	.LASF62:
 4231 0454 63685F76 		.ascii	"ch_virtual_timers_list\000"
 4231      69727475 
 4231      616C5F74 
 4231      696D6572 
 4231      735F6C69 
 4232              	.LASF128:
 4233 046b 63685363 		.ascii	"chSchDoRescheduleBehind\000"
 4233      68446F52 
 4233      65736368 
 4233      6564756C 
 4233      65426568 
 4234              	.LASF76:
 4235 0483 706F7274 		.ascii	"port_context\000"
 4235      5F636F6E 
 4235      74657874 
 4235      00
 4236              	.LASF79:
 4237 0490 746D5F63 		.ascii	"tm_calibration_t\000"
 4237      616C6962 
 4237      72617469 
 4237      6F6E5F74 
 4237      00
 4238              	.LASF125:
 4239 04a1 74696D65 		.ascii	"time\000"
 4239      00
 4240              	.LASF30:
 4241 04a6 7072696F 		.ascii	"prio\000"
 4241      00
 4242              	.LASF133:
 4243 04ab 5F737461 		.ascii	"_stats_start_measure_crit_isr\000"
ARM GAS  /tmp/ccq2hZYK.s 			page 79


 4243      74735F73 
 4243      74617274 
 4243      5F6D6561 
 4243      73757265 
 4244              	.LASF55:
 4245 04c9 63757272 		.ascii	"current\000"
 4245      656E7400 
 4246              	.LASF11:
 4247 04d1 5F5F7569 		.ascii	"__uint64_t\000"
 4247      6E743634 
 4247      5F7400
 4248              	.LASF83:
 4249 04dc 63756D75 		.ascii	"cumulative\000"
 4249      6C617469 
 4249      766500
 4250              	.LASF21:
 4251 04e7 74726566 		.ascii	"trefs_t\000"
 4251      735F7400 
 4252              	.LASF37:
 4253 04ef 72656673 		.ascii	"refs\000"
 4253      00
 4254              	.LASF57:
 4255 04f4 76697274 		.ascii	"virtual_timer_t\000"
 4255      75616C5F 
 4255      74696D65 
 4255      725F7400 
 4256              	.LASF22:
 4257 0504 74707269 		.ascii	"tprio_t\000"
 4257      6F5F7400 
 4258              	.LASF116:
 4259 050c 63685379 		.ascii	"chSysUnlockFromISR\000"
 4259      73556E6C 
 4259      6F636B46 
 4259      726F6D49 
 4259      535200
 4260              	.LASF86:
 4261 051f 6E5F6374 		.ascii	"n_ctxswc\000"
 4261      78737763 
 4261      00
 4262              	.LASF104:
 4263 0528 5F426F6F 		.ascii	"_Bool\000"
 4263      6C00
 4264              	.LASF14:
 4265 052e 696E7433 		.ascii	"int32_t\000"
 4265      325F7400 
 4266              	.LASF2:
 4267 0536 756E7369 		.ascii	"unsigned char\000"
 4267      676E6564 
 4267      20636861 
 4267      7200
 4268              	.LASF123:
 4269 0544 6E657773 		.ascii	"newstate\000"
 4269      74617465 
 4269      00
 4270              	.LASF3:
 4271 054d 73686F72 		.ascii	"short int\000"
 4271      7420696E 
ARM GAS  /tmp/ccq2hZYK.s 			page 80


 4271      7400
 4272              	.LASF63:
 4273 0557 6C617374 		.ascii	"lasttime\000"
 4273      74696D65 
 4273      00
 4274              	.LASF109:
 4275 0560 63685365 		.ascii	"chSemFastSignalI\000"
 4275      6D466173 
 4275      74536967 
 4275      6E616C49 
 4275      00
 4276              	.LASF97:
 4277 0571 65776D61 		.ascii	"ewmask\000"
 4277      736B00
 4278              	.LASF68:
 4279 0578 63685F73 		.ascii	"ch_system\000"
 4279      79737465 
 4279      6D00
 4280              	.LASF19:
 4281 0582 746D6F64 		.ascii	"tmode_t\000"
 4281      655F7400 
 4282              	.LASF120:
 4283 058a 5F5F6675 		.ascii	"__func__\000"
 4283      6E635F5F 
 4283      00
 4284              	.LASF113:
 4285 0593 63685654 		.ascii	"chVTIsArmedI\000"
 4285      49734172 
 4285      6D656449 
 4285      00
 4286              	.LASF102:
 4287 05a0 73656D61 		.ascii	"semaphore_t\000"
 4287      70686F72 
 4287      655F7400 
 4288              	.LASF58:
 4289 05ac 63685F76 		.ascii	"ch_virtual_timer\000"
 4289      69727475 
 4289      616C5F74 
 4289      696D6572 
 4289      00
 4290              	.LASF98:
 4291 05bd 63685F73 		.ascii	"ch_semaphore\000"
 4291      656D6170 
 4291      686F7265 
 4291      00
 4292              	.LASF122:
 4293 05ca 63685363 		.ascii	"chSchGoSleepS\000"
 4293      68476F53 
 4293      6C656570 
 4293      5300
 4294              	.LASF119:
 4295 05d8 63685363 		.ascii	"chSchReadyAheadI\000"
 4295      68526561 
 4295      64794168 
 4295      65616449 
 4295      00
 4296              	.LASF15:
ARM GAS  /tmp/ccq2hZYK.s 			page 81


 4297 05e9 75696E74 		.ascii	"uint32_t\000"
 4297      33325F74 
 4297      00
 4298              	.LASF96:
 4299 05f2 77746D74 		.ascii	"wtmtxp\000"
 4299      787000
 4300              	.LASF118:
 4301 05f9 63685363 		.ascii	"chSchReadyI\000"
 4301      68526561 
 4301      64794900 
 4302              	.LASF48:
 4303 0605 63685F74 		.ascii	"ch_threads_list\000"
 4303      68726561 
 4303      64735F6C 
 4303      69737400 
 4304              	.LASF100:
 4305 0615 6F776E65 		.ascii	"owner\000"
 4305      7200
 4306              	.LASF9:
 4307 061b 6C6F6E67 		.ascii	"long unsigned int\000"
 4307      20756E73 
 4307      69676E65 
 4307      6420696E 
 4307      7400
 4308              	.LASF34:
 4309 062d 77616261 		.ascii	"wabase\000"
 4309      736500
 4310              	.LASF101:
 4311 0634 63686172 		.ascii	"char\000"
 4311      00
 4312              	.LASF32:
 4313 0639 6F6C6465 		.ascii	"older\000"
 4313      7200
 4314              	.LASF6:
 4315 063f 5F5F696E 		.ascii	"__int32_t\000"
 4315      7433325F 
 4315      7400
 4316              	.LASF111:
 4317 0649 706F7274 		.ascii	"port_unlock_from_isr\000"
 4317      5F756E6C 
 4317      6F636B5F 
 4317      66726F6D 
 4317      5F697372 
 4318              	.LASF28:
 4319 065e 74687265 		.ascii	"thread_t\000"
 4319      61645F74 
 4319      00
 4320              	.LASF80:
 4321 0667 62657374 		.ascii	"best\000"
 4321      00
 4322              	.LASF114:
 4323 066c 71756575 		.ascii	"queue_fifo_remove\000"
 4323      655F6669 
 4323      666F5F72 
 4323      656D6F76 
 4323      6500
 4324              	.LASF27:
ARM GAS  /tmp/ccq2hZYK.s 			page 82


 4325 067e 73797374 		.ascii	"systime_t\000"
 4325      696D655F 
 4325      7400
 4326              	.LASF56:
 4327 0688 76746675 		.ascii	"vtfunc_t\000"
 4327      6E635F74 
 4327      00
 4328              	.LASF108:
 4329 0691 5F5F7365 		.ascii	"__set_BASEPRI\000"
 4329      745F4241 
 4329      53455052 
 4329      4900
 4330              	.LASF66:
 4331 069f 70616E69 		.ascii	"panic_msg\000"
 4331      635F6D73 
 4331      6700
 4332              	.LASF78:
 4333 06a9 6F666673 		.ascii	"offset\000"
 4333      657400
 4334              	.LASF72:
 4335 06b0 6B65726E 		.ascii	"kernel_stats\000"
 4335      656C5F73 
 4335      74617473 
 4335      00
 4336              	.LASF17:
 4337 06bd 7274636E 		.ascii	"rtcnt_t\000"
 4337      745F7400 
 4338              	.LASF110:
 4339 06c5 706F7274 		.ascii	"port_lock_from_isr\000"
 4339      5F6C6F63 
 4339      6B5F6672 
 4339      6F6D5F69 
 4339      737200
 4340              	.LASF126:
 4341 06d8 63685363 		.ascii	"chSchWakeupS\000"
 4341      6857616B 
 4341      65757053 
 4341      00
 4342              	.LASF50:
 4343 06e5 74687265 		.ascii	"threads_queue_t\000"
 4343      6164735F 
 4343      71756575 
 4343      655F7400 
 4344              	.LASF99:
 4345 06f5 63685F6D 		.ascii	"ch_mutex\000"
 4345      75746578 
 4345      00
 4346              	.LASF69:
 4347 06fe 726C6973 		.ascii	"rlist\000"
 4347      7400
 4348              	.LASF13:
 4349 0704 75696E74 		.ascii	"uint8_t\000"
 4349      385F7400 
 4350              	.LASF36:
 4351 070c 666C6167 		.ascii	"flags\000"
 4351      7300
 4352              	.LASF135:
ARM GAS  /tmp/ccq2hZYK.s 			page 83


 4353 0712 5F737461 		.ascii	"_stats_ctxswc\000"
 4353      74735F63 
 4353      74787377 
 4353      6300
 4354              	.LASF115:
 4355 0720 63685379 		.ascii	"chSysLockFromISR\000"
 4355      734C6F63 
 4355      6B46726F 
 4355      6D495352 
 4355      00
 4356              	.LASF46:
 4357 0731 74687265 		.ascii	"threads_list_t\000"
 4357      6164735F 
 4357      6C697374 
 4357      5F7400
 4358              	.LASF124:
 4359 0740 63685363 		.ascii	"chSchGoSleepTimeoutS\000"
 4359      68476F53 
 4359      6C656570 
 4359      54696D65 
 4359      6F757453 
 4360              	.LASF142:
 4361 0755 63685363 		.ascii	"chSchIsRescRequiredI\000"
 4361      68497352 
 4361      65736352 
 4361      65717569 
 4361      72656449 
 4362              	.LASF134:
 4363 076a 5F737461 		.ascii	"_stats_stop_measure_crit_isr\000"
 4363      74735F73 
 4363      746F705F 
 4363      6D656173 
 4363      7572655F 
 4364              	.LASF41:
 4365 0787 6D74786C 		.ascii	"mtxlist\000"
 4365      69737400 
 4366              	.LASF87:
 4367 078f 6D5F6372 		.ascii	"m_crit_thd\000"
 4367      69745F74 
 4367      686400
 4368              		.ident	"GCC: (15:4.9.3+svn231177-1) 4.9.3 20150529 (prerelease)"
ARM GAS  /tmp/ccq2hZYK.s 			page 84


DEFINED SYMBOLS
                            *ABS*:0000000000000000 chschd.c
     /tmp/ccq2hZYK.s:21     .text._scheduler_init:0000000000000000 $t
     /tmp/ccq2hZYK.s:26     .text._scheduler_init:0000000000000000 _scheduler_init
     /tmp/ccq2hZYK.s:62     .text._scheduler_init:0000000000000010 $d
     /tmp/ccq2hZYK.s:67     .text.chSchReadyI:0000000000000000 $t
     /tmp/ccq2hZYK.s:72     .text.chSchReadyI:0000000000000000 chSchReadyI
     /tmp/ccq2hZYK.s:112    .text.chSchReadyI:0000000000000020 $d
     /tmp/ccq2hZYK.s:117    .text.wakeup:0000000000000000 $t
     /tmp/ccq2hZYK.s:121    .text.wakeup:0000000000000000 wakeup
     /tmp/ccq2hZYK.s:167    .text.wakeup:000000000000001c $d
     /tmp/ccq2hZYK.s:175    .text.wakeup:0000000000000024 $t
     /tmp/ccq2hZYK.s:265    .text.chSchReadyAheadI:0000000000000000 $t
     /tmp/ccq2hZYK.s:270    .text.chSchReadyAheadI:0000000000000000 chSchReadyAheadI
     /tmp/ccq2hZYK.s:310    .text.chSchReadyAheadI:0000000000000020 $d
     /tmp/ccq2hZYK.s:315    .text.chSchGoSleepS:0000000000000000 $t
     /tmp/ccq2hZYK.s:320    .text.chSchGoSleepS:0000000000000000 chSchGoSleepS
     /tmp/ccq2hZYK.s:379    .text.chSchGoSleepS:000000000000002c $d
     /tmp/ccq2hZYK.s:384    .text.chSchGoSleepTimeoutS:0000000000000000 $t
     /tmp/ccq2hZYK.s:389    .text.chSchGoSleepTimeoutS:0000000000000000 chSchGoSleepTimeoutS
     /tmp/ccq2hZYK.s:450    .text.chSchGoSleepTimeoutS:0000000000000034 $d
     /tmp/ccq2hZYK.s:456    .text.chSchWakeupS:0000000000000000 $t
     /tmp/ccq2hZYK.s:461    .text.chSchWakeupS:0000000000000000 chSchWakeupS
     /tmp/ccq2hZYK.s:540    .text.chSchWakeupS:0000000000000040 $d
     /tmp/ccq2hZYK.s:545    .text.chSchIsPreemptionRequired:0000000000000000 $t
     /tmp/ccq2hZYK.s:550    .text.chSchIsPreemptionRequired:0000000000000000 chSchIsPreemptionRequired
     /tmp/ccq2hZYK.s:575    .text.chSchIsPreemptionRequired:0000000000000014 $d
     /tmp/ccq2hZYK.s:580    .text.chSchDoRescheduleBehind:0000000000000000 $t
     /tmp/ccq2hZYK.s:585    .text.chSchDoRescheduleBehind:0000000000000000 chSchDoRescheduleBehind
     /tmp/ccq2hZYK.s:649    .text.chSchDoRescheduleBehind:0000000000000030 $d
     /tmp/ccq2hZYK.s:654    .text.chSchDoRescheduleAhead:0000000000000000 $t
     /tmp/ccq2hZYK.s:659    .text.chSchDoRescheduleAhead:0000000000000000 chSchDoRescheduleAhead
     /tmp/ccq2hZYK.s:723    .text.chSchDoRescheduleAhead:0000000000000030 $d
     /tmp/ccq2hZYK.s:728    .text.chSchRescheduleS:0000000000000000 $t
     /tmp/ccq2hZYK.s:733    .text.chSchRescheduleS:0000000000000000 chSchRescheduleS
     /tmp/ccq2hZYK.s:761    .text.chSchRescheduleS:0000000000000014 $d
     /tmp/ccq2hZYK.s:766    .text.chSchDoReschedule:0000000000000000 $t
     /tmp/ccq2hZYK.s:771    .text.chSchDoReschedule:0000000000000000 chSchDoReschedule
     /tmp/ccq2hZYK.s:835    .text.chSchDoReschedule:0000000000000030 $d
     /tmp/ccq2hZYK.s:845    .bss.ch:0000000000000000 ch
     /tmp/ccq2hZYK.s:841    .bss.ch:0000000000000000 $d
                     .debug_frame:0000000000000010 $d

UNDEFINED SYMBOLS
_stats_start_measure_crit_isr
_stats_stop_measure_crit_isr
_stats_ctxswc
_port_switch
chVTDoSetI
chVTDoResetI
