ARM GAS  /tmp/ccq2hZYK.s 			page 1


   1              		.syntax unified
   2              		.cpu cortex-m4
   3              		.eabi_attribute 27, 1
   4              		.eabi_attribute 28, 1
   5              		.fpu fpv4-sp-d16
   6              		.eabi_attribute 20, 1
   7              		.eabi_attribute 21, 1
   8              		.eabi_attribute 23, 3
   9              		.eabi_attribute 24, 1
  10              		.eabi_attribute 25, 1
  11              		.eabi_attribute 26, 1
  12              		.eabi_attribute 30, 4
  13              		.eabi_attribute 34, 1
  14              		.eabi_attribute 18, 4
  15              		.thumb
  16              		.file	"chschd.c"
  17              		.text
  18              	.Ltext0:
  19              		.cfi_sections	.debug_frame
  20              		.section	.text._scheduler_init,"ax",%progbits
  21              		.align	1
  22              		.global	_scheduler_init
  23              		.thumb
  24              		.thumb_func
  25              		.type	_scheduler_init, %function
  26              	_scheduler_init:
  27              	.LFB246:
  28              		.file 1 "../../modules/ChibiOS/os/rt/src/chschd.c"
  29              		.loc 1 65 0
  30              		.cfi_startproc
  31              		@ args = 0, pretend = 0, frame = 0
  32              		@ frame_needed = 0, uses_anonymous_args = 0
  33              		@ link register save eliminated.
  34              	.LVL0:
  35              	.LBB39:
  36              	.LBB40:
  37              		.file 2 "../../modules/ChibiOS/os/rt/include/chschd.h"
  38              		.loc 2 550 0
  39 0000 034B     		ldr	r3, .L2
  40              	.LBE40:
  41              	.LBE39:
  42              		.loc 1 68 0
  43 0002 0022     		movs	r2, #0
  44              	.LBB42:
  45              	.LBB41:
  46              		.loc 2 550 0
  47 0004 1B60     		str	r3, [r3]
  48              		.loc 2 551 0
  49 0006 5B60     		str	r3, [r3, #4]
  50              	.LBE41:
  51              	.LBE42:
  52              		.loc 1 68 0
  53 0008 9A60     		str	r2, [r3, #8]
  54              		.loc 1 70 0
  55 000a 1B61     		str	r3, [r3, #16]
  56              		.loc 1 71 0
  57 000c 5B61     		str	r3, [r3, #20]
ARM GAS  /tmp/ccq2hZYK.s 			page 2


  58 000e 7047     		bx	lr
  59              	.L3:
  60              		.align	2
  61              	.L2:
  62 0010 00000000 		.word	.LANCHOR0
  63              		.cfi_endproc
  64              	.LFE246:
  65              		.size	_scheduler_init, .-_scheduler_init
  66              		.section	.text.chSchReadyI,"ax",%progbits
  67              		.align	1
  68              		.global	chSchReadyI
  69              		.thumb
  70              		.thumb_func
  71              		.type	chSchReadyI, %function
  72              	chSchReadyI:
  73              	.LFB247:
  74              		.loc 1 218 0
  75              		.cfi_startproc
  76              		@ args = 0, pretend = 0, frame = 0
  77              		@ frame_needed = 0, uses_anonymous_args = 0
  78              		@ link register save eliminated.
  79              	.LVL1:
  80              		.loc 1 227 0
  81 0000 0023     		movs	r3, #0
  82 0002 80F82030 		strb	r3, [r0, #32]
  83              	.LVL2:
  84              		.loc 1 231 0
  85 0006 8268     		ldr	r2, [r0, #8]
  86              		.loc 1 228 0
  87 0008 054B     		ldr	r3, .L8
  88              	.LVL3:
  89              	.L5:
  90              		.loc 1 230 0 discriminator 1
  91 000a 1B68     		ldr	r3, [r3]
  92              	.LVL4:
  93              		.loc 1 231 0 discriminator 1
  94 000c 9968     		ldr	r1, [r3, #8]
  95 000e 9142     		cmp	r1, r2
  96 0010 FBD2     		bcs	.L5
  97              		.loc 1 234 0
  98 0012 5A68     		ldr	r2, [r3, #4]
  99              		.loc 1 233 0
 100 0014 0360     		str	r3, [r0]
 101              		.loc 1 234 0
 102 0016 4260     		str	r2, [r0, #4]
 103              		.loc 1 235 0
 104 0018 1060     		str	r0, [r2]
 105              		.loc 1 236 0
 106 001a 5860     		str	r0, [r3, #4]
 107              		.loc 1 239 0
 108 001c 7047     		bx	lr
 109              	.L9:
 110 001e 00BF     		.align	2
 111              	.L8:
 112 0020 00000000 		.word	.LANCHOR0
 113              		.cfi_endproc
 114              	.LFE247:
ARM GAS  /tmp/ccq2hZYK.s 			page 3


 115              		.size	chSchReadyI, .-chSchReadyI
 116              		.section	.text.wakeup,"ax",%progbits
 117              		.align	1
 118              		.thumb
 119              		.thumb_func
 120              		.type	wakeup, %function
 121              	wakeup:
 122              	.LFB250:
 123              		.loc 1 319 0
 124              		.cfi_startproc
 125              		@ args = 0, pretend = 0, frame = 0
 126              		@ frame_needed = 0, uses_anonymous_args = 0
 127              	.LVL5:
 128 0000 38B5     		push	{r3, r4, r5, lr}
 129              		.cfi_def_cfa_offset 16
 130              		.cfi_offset 3, -16
 131              		.cfi_offset 4, -12
 132              		.cfi_offset 5, -8
 133              		.cfi_offset 14, -4
 134              		.loc 1 319 0
 135 0002 0446     		mov	r4, r0
 136              	.LVL6:
 137              	.LBB65:
 138              	.LBB66:
 139              	.LBB67:
 140              	.LBB68:
 141              	.LBB69:
 142              	.LBB70:
 143              		.file 3 "../../modules/ChibiOS/os/common/ext/CMSIS/include/cmsis_gcc.h"
 144              		.loc 3 264 0
 145 0004 2023     		movs	r3, #32
 146              	@ 264 "../../modules/ChibiOS/os/common/ext/CMSIS/include/cmsis_gcc.h" 1
 147 0006 83F31188 		MSR basepri, r3
 148              	@ 0 "" 2
 149              		.thumb
 150              	.LBE70:
 151              	.LBE69:
 152              	.LBE68:
 153              	.LBE67:
 154              		.file 4 "../../modules/ChibiOS/os/rt/include/chsys.h"
 155              		.loc 4 417 0
 156 000a FFF7FEFF 		bl	_stats_start_measure_crit_isr
 157              	.LVL7:
 158              	.LBE66:
 159              	.LBE65:
 160              		.loc 1 323 0
 161 000e 94F82030 		ldrb	r3, [r4, #32]	@ zero_extendqisi2
 162 0012 0025     		movs	r5, #0
 163 0014 072B     		cmp	r3, #7
 164 0016 16D8     		bhi	.L11
 165 0018 DFE803F0 		tbb	[pc, r3]
 166              	.L13:
 167 001c 04       		.byte	(.L12-.L13)/2
 168 001d 15       		.byte	(.L11-.L13)/2
 169 001e 15       		.byte	(.L11-.L13)/2
 170 001f 09       		.byte	(.L14-.L13)/2
 171 0020 10       		.byte	(.L15-.L13)/2
ARM GAS  /tmp/ccq2hZYK.s 			page 4


 172 0021 0C       		.byte	(.L16-.L13)/2
 173 0022 15       		.byte	(.L11-.L13)/2
 174 0023 10       		.byte	(.L15-.L13)/2
 175              		.p2align 1
 176              	.L12:
 177              	.LBB71:
 178              	.LBB72:
 179              		.loc 4 437 0
 180 0024 FFF7FEFF 		bl	_stats_stop_measure_crit_isr
 181              	.LVL8:
 182              	.LBB73:
 183              	.LBB74:
 184              	.LBB75:
 185              	.LBB76:
 186              		.loc 3 264 0
 187              	@ 264 "../../modules/ChibiOS/os/common/ext/CMSIS/include/cmsis_gcc.h" 1
 188 0028 85F31188 		MSR basepri, r5
 189              	@ 0 "" 2
 190              		.thumb
 191 002c 38BD     		pop	{r3, r4, r5, pc}
 192              	.LVL9:
 193              	.L14:
 194              	.LBE76:
 195              	.LBE75:
 196              	.LBE74:
 197              	.LBE73:
 198              	.LBE72:
 199              	.LBE71:
 200              		.loc 1 330 0
 201 002e 636A     		ldr	r3, [r4, #36]
 202 0030 1D60     		str	r5, [r3]
 203              		.loc 1 331 0
 204 0032 08E0     		b	.L11
 205              	.L16:
 206              		.loc 1 334 0
 207 0034 626A     		ldr	r2, [r4, #36]
 208              	.LVL10:
 209              	.LBB77:
 210              	.LBB78:
 211              		.file 5 "../../modules/ChibiOS/os/rt/include/chsem.h"
 212              		.loc 5 138 0
 213 0036 9368     		ldr	r3, [r2, #8]
 214 0038 0133     		adds	r3, r3, #1
 215 003a 9360     		str	r3, [r2, #8]
 216              	.LVL11:
 217              	.L15:
 218              	.LBE78:
 219              	.LBE77:
 220              	.LBB79:
 221              	.LBB80:
 222              		.loc 2 637 0
 223 003c 94E80C00 		ldmia	r4, {r2, r3}
 224 0040 1A60     		str	r2, [r3]
 225              		.loc 2 638 0
 226 0042 2268     		ldr	r2, [r4]
 227 0044 5360     		str	r3, [r2, #4]
 228              	.LVL12:
ARM GAS  /tmp/ccq2hZYK.s 			page 5


 229              	.L11:
 230              	.LBE80:
 231              	.LBE79:
 232              		.loc 1 348 0
 233 0046 4FF0FF33 		mov	r3, #-1
 234 004a 6362     		str	r3, [r4, #36]
 235              		.loc 1 349 0
 236 004c 2046     		mov	r0, r4
 237 004e FFF7FEFF 		bl	chSchReadyI
 238              	.LVL13:
 239              	.LBB81:
 240              	.LBB82:
 241              		.loc 4 437 0
 242 0052 FFF7FEFF 		bl	_stats_stop_measure_crit_isr
 243              	.LVL14:
 244              	.LBB83:
 245              	.LBB84:
 246              	.LBB85:
 247              	.LBB86:
 248              		.loc 3 264 0
 249 0056 0023     		movs	r3, #0
 250              	@ 264 "../../modules/ChibiOS/os/common/ext/CMSIS/include/cmsis_gcc.h" 1
 251 0058 83F31188 		MSR basepri, r3
 252              	@ 0 "" 2
 253              		.thumb
 254 005c 38BD     		pop	{r3, r4, r5, pc}
 255              	.LBE86:
 256              	.LBE85:
 257              	.LBE84:
 258              	.LBE83:
 259              	.LBE82:
 260              	.LBE81:
 261              		.cfi_endproc
 262              	.LFE250:
 263              		.size	wakeup, .-wakeup
 264              		.section	.text.chSchReadyAheadI,"ax",%progbits
 265              		.align	1
 266              		.global	chSchReadyAheadI
 267              		.thumb
 268              		.thumb_func
 269              		.type	chSchReadyAheadI, %function
 270              	chSchReadyAheadI:
 271              	.LFB248:
 272              		.loc 1 257 0
 273              		.cfi_startproc
 274              		@ args = 0, pretend = 0, frame = 0
 275              		@ frame_needed = 0, uses_anonymous_args = 0
 276              		@ link register save eliminated.
 277              	.LVL15:
 278              		.loc 1 266 0
 279 0000 0023     		movs	r3, #0
 280 0002 80F82030 		strb	r3, [r0, #32]
 281              	.LVL16:
 282              		.loc 1 270 0
 283 0006 8268     		ldr	r2, [r0, #8]
 284              		.loc 1 267 0
 285 0008 054B     		ldr	r3, .L21
ARM GAS  /tmp/ccq2hZYK.s 			page 6


 286              	.LVL17:
 287              	.L19:
 288              		.loc 1 269 0 discriminator 1
 289 000a 1B68     		ldr	r3, [r3]
 290              	.LVL18:
 291              		.loc 1 270 0 discriminator 1
 292 000c 9968     		ldr	r1, [r3, #8]
 293 000e 9142     		cmp	r1, r2
 294 0010 FBD8     		bhi	.L19
 295              		.loc 1 273 0
 296 0012 5A68     		ldr	r2, [r3, #4]
 297              		.loc 1 272 0
 298 0014 0360     		str	r3, [r0]
 299              		.loc 1 273 0
 300 0016 4260     		str	r2, [r0, #4]
 301              		.loc 1 274 0
 302 0018 1060     		str	r0, [r2]
 303              		.loc 1 275 0
 304 001a 5860     		str	r0, [r3, #4]
 305              		.loc 1 278 0
 306 001c 7047     		bx	lr
 307              	.L22:
 308 001e 00BF     		.align	2
 309              	.L21:
 310 0020 00000000 		.word	.LANCHOR0
 311              		.cfi_endproc
 312              	.LFE248:
 313              		.size	chSchReadyAheadI, .-chSchReadyAheadI
 314              		.section	.text.chSchGoSleepS,"ax",%progbits
 315              		.align	1
 316              		.global	chSchGoSleepS
 317              		.thumb
 318              		.thumb_func
 319              		.type	chSchGoSleepS, %function
 320              	chSchGoSleepS:
 321              	.LFB249:
 322              		.loc 1 289 0
 323              		.cfi_startproc
 324              		@ args = 0, pretend = 0, frame = 0
 325              		@ frame_needed = 0, uses_anonymous_args = 0
 326              	.LVL19:
 327 0000 38B5     		push	{r3, r4, r5, lr}
 328              		.cfi_def_cfa_offset 16
 329              		.cfi_offset 3, -16
 330              		.cfi_offset 4, -12
 331              		.cfi_offset 5, -8
 332              		.cfi_offset 14, -4
 333              		.loc 1 290 0
 334 0002 0A4C     		ldr	r4, .L24
 335 0004 A569     		ldr	r5, [r4, #24]
 336              	.LVL20:
 337              		.loc 1 295 0
 338 0006 85F82000 		strb	r0, [r5, #32]
 339              	.LVL21:
 340              	.LBB87:
 341              	.LBB88:
 342              		.loc 2 618 0
ARM GAS  /tmp/ccq2hZYK.s 			page 7


 343 000a 2068     		ldr	r0, [r4]
 344              	.LVL22:
 345              		.loc 2 620 0
 346 000c 0368     		ldr	r3, [r0]
 347 000e 2360     		str	r3, [r4]
 348              		.loc 2 621 0
 349 0010 5C60     		str	r4, [r3, #4]
 350              	.LBE88:
 351              	.LBE87:
 352              		.loc 1 305 0
 353 0012 0123     		movs	r3, #1
 354 0014 80F82030 		strb	r3, [r0, #32]
 355              	.LVL23:
 356              		.loc 1 313 0
 357 0018 2946     		mov	r1, r5
 358              		.loc 1 304 0
 359 001a A061     		str	r0, [r4, #24]
 360              		.loc 1 313 0
 361 001c FFF7FEFF 		bl	_stats_ctxswc
 362              	.LVL24:
 363 0020 A069     		ldr	r0, [r4, #24]
 364 0022 2946     		mov	r1, r5
 365              		.loc 1 314 0
 366 0024 BDE83840 		pop	{r3, r4, r5, lr}
 367              		.cfi_restore 14
 368              		.cfi_restore 5
 369              		.cfi_restore 4
 370              		.cfi_restore 3
 371              		.cfi_def_cfa_offset 0
 372              	.LVL25:
 373              		.loc 1 313 0
 374 0028 FFF7FEBF 		b	_port_switch
 375              	.LVL26:
 376              	.L25:
 377              		.align	2
 378              	.L24:
 379 002c 00000000 		.word	.LANCHOR0
 380              		.cfi_endproc
 381              	.LFE249:
 382              		.size	chSchGoSleepS, .-chSchGoSleepS
 383              		.section	.text.chSchGoSleepTimeoutS,"ax",%progbits
 384              		.align	1
 385              		.global	chSchGoSleepTimeoutS
 386              		.thumb
 387              		.thumb_func
 388              		.type	chSchGoSleepTimeoutS, %function
 389              	chSchGoSleepTimeoutS:
 390              	.LFB251:
 391              		.loc 1 374 0
 392              		.cfi_startproc
 393              		@ args = 0, pretend = 0, frame = 24
 394              		@ frame_needed = 0, uses_anonymous_args = 0
 395              	.LVL27:
 396 0000 30B5     		push	{r4, r5, lr}
 397              		.cfi_def_cfa_offset 12
 398              		.cfi_offset 4, -12
 399              		.cfi_offset 5, -8
ARM GAS  /tmp/ccq2hZYK.s 			page 8


 400              		.cfi_offset 14, -4
 401              		.loc 1 378 0
 402 0002 4B1C     		adds	r3, r1, #1
 403              		.loc 1 374 0
 404 0004 87B0     		sub	sp, sp, #28
 405              		.cfi_def_cfa_offset 40
 406              		.loc 1 374 0
 407 0006 0546     		mov	r5, r0
 408 0008 0A4C     		ldr	r4, .L33
 409              		.loc 1 378 0
 410 000a 0DD0     		beq	.L27
 411              	.LBB89:
 412              		.loc 1 381 0
 413 000c A369     		ldr	r3, [r4, #24]
 414 000e 0A4A     		ldr	r2, .L33+4
 415 0010 01A8     		add	r0, sp, #4
 416              	.LVL28:
 417 0012 FFF7FEFF 		bl	chVTDoSetI
 418              	.LVL29:
 419              		.loc 1 382 0
 420 0016 2846     		mov	r0, r5
 421 0018 FFF7FEFF 		bl	chSchGoSleepS
 422              	.LVL30:
 423              		.loc 1 383 0
 424 001c 049B     		ldr	r3, [sp, #16]
 425 001e 2BB1     		cbz	r3, .L29
 426              		.loc 1 384 0
 427 0020 01A8     		add	r0, sp, #4
 428              	.LVL31:
 429 0022 FFF7FEFF 		bl	chVTDoResetI
 430              	.LVL32:
 431 0026 01E0     		b	.L29
 432              	.LVL33:
 433              	.L27:
 434              	.LBE89:
 435              		.loc 1 388 0
 436 0028 FFF7FEFF 		bl	chSchGoSleepS
 437              	.LVL34:
 438              	.L29:
 439              		.loc 1 391 0
 440 002c A369     		ldr	r3, [r4, #24]
 441              		.loc 1 392 0
 442 002e 586A     		ldr	r0, [r3, #36]
 443 0030 07B0     		add	sp, sp, #28
 444              		.cfi_def_cfa_offset 12
 445              		@ sp needed
 446 0032 30BD     		pop	{r4, r5, pc}
 447              	.L34:
 448              		.align	2
 449              	.L33:
 450 0034 00000000 		.word	.LANCHOR0
 451 0038 00000000 		.word	wakeup
 452              		.cfi_endproc
 453              	.LFE251:
 454              		.size	chSchGoSleepTimeoutS, .-chSchGoSleepTimeoutS
 455              		.section	.text.chSchWakeupS,"ax",%progbits
 456              		.align	1
ARM GAS  /tmp/ccq2hZYK.s 			page 9


 457              		.global	chSchWakeupS
 458              		.thumb
 459              		.thumb_func
 460              		.type	chSchWakeupS, %function
 461              	chSchWakeupS:
 462              	.LFB252:
 463              		.loc 1 411 0
 464              		.cfi_startproc
 465              		@ args = 0, pretend = 0, frame = 0
 466              		@ frame_needed = 0, uses_anonymous_args = 0
 467              	.LVL35:
 468 0000 70B5     		push	{r4, r5, r6, lr}
 469              		.cfi_def_cfa_offset 16
 470              		.cfi_offset 4, -16
 471              		.cfi_offset 5, -12
 472              		.cfi_offset 6, -8
 473              		.cfi_offset 14, -4
 474              		.loc 1 412 0
 475 0002 0F4E     		ldr	r6, .L37
 476              		.loc 1 422 0
 477 0004 4162     		str	r1, [r0, #36]
 478              		.loc 1 412 0
 479 0006 B369     		ldr	r3, [r6, #24]
 480              	.LVL36:
 481              		.loc 1 428 0
 482 0008 8168     		ldr	r1, [r0, #8]
 483              	.LVL37:
 484 000a 9A68     		ldr	r2, [r3, #8]
 485 000c 9142     		cmp	r1, r2
 486              		.loc 1 411 0
 487 000e 0446     		mov	r4, r0
 488              		.loc 1 428 0
 489 0010 03D8     		bhi	.L36
 490              		.loc 1 446 0
 491 0012 BDE87040 		pop	{r4, r5, r6, lr}
 492              		.cfi_remember_state
 493              		.cfi_restore 14
 494              		.cfi_restore 6
 495              		.cfi_restore 5
 496              		.cfi_restore 4
 497              		.cfi_def_cfa_offset 0
 498              		.loc 1 429 0
 499 0016 FFF7FEBF 		b	chSchReadyI
 500              	.LVL38:
 501              	.L36:
 502              		.cfi_restore_state
 503              		.loc 1 432 0
 504 001a 1846     		mov	r0, r3
 505              	.LVL39:
 506 001c FFF7FEFF 		bl	chSchReadyI
 507              	.LVL40:
 508              		.loc 1 441 0
 509 0020 0123     		movs	r3, #1
 510              		.loc 1 432 0
 511 0022 0546     		mov	r5, r0
 512              	.LVL41:
 513              		.loc 1 444 0
ARM GAS  /tmp/ccq2hZYK.s 			page 10


 514 0024 2946     		mov	r1, r5
 515 0026 2046     		mov	r0, r4
 516              	.LVL42:
 517              		.loc 1 441 0
 518 0028 84F82030 		strb	r3, [r4, #32]
 519              		.loc 1 440 0
 520 002c B461     		str	r4, [r6, #24]
 521              		.loc 1 444 0
 522 002e FFF7FEFF 		bl	_stats_ctxswc
 523              	.LVL43:
 524 0032 2046     		mov	r0, r4
 525 0034 2946     		mov	r1, r5
 526              		.loc 1 446 0
 527 0036 BDE87040 		pop	{r4, r5, r6, lr}
 528              		.cfi_restore 14
 529              		.cfi_restore 6
 530              		.cfi_restore 5
 531              		.cfi_restore 4
 532              		.cfi_def_cfa_offset 0
 533              	.LVL44:
 534              		.loc 1 444 0
 535 003a FFF7FEBF 		b	_port_switch
 536              	.LVL45:
 537              	.L38:
 538 003e 00BF     		.align	2
 539              	.L37:
 540 0040 00000000 		.word	.LANCHOR0
 541              		.cfi_endproc
 542              	.LFE252:
 543              		.size	chSchWakeupS, .-chSchWakeupS
 544              		.section	.text.chSchIsPreemptionRequired,"ax",%progbits
 545              		.align	1
 546              		.global	chSchIsPreemptionRequired
 547              		.thumb
 548              		.thumb_func
 549              		.type	chSchIsPreemptionRequired, %function
 550              	chSchIsPreemptionRequired:
 551              	.LFB254:
 552              		.loc 1 477 0
 553              		.cfi_startproc
 554              		@ args = 0, pretend = 0, frame = 0
 555              		@ frame_needed = 0, uses_anonymous_args = 0
 556              		@ link register save eliminated.
 557              	.LVL46:
 558              		.loc 1 478 0
 559 0000 044B     		ldr	r3, .L40
 560 0002 1A68     		ldr	r2, [r3]
 561              		.loc 1 479 0
 562 0004 9B69     		ldr	r3, [r3, #24]
 563              		.loc 1 490 0
 564 0006 9068     		ldr	r0, [r2, #8]
 565 0008 9B68     		ldr	r3, [r3, #8]
 566              		.loc 1 492 0
 567 000a 9842     		cmp	r0, r3
 568 000c 94BF     		ite	ls
 569 000e 0020     		movls	r0, #0
 570 0010 0120     		movhi	r0, #1
ARM GAS  /tmp/ccq2hZYK.s 			page 11


 571 0012 7047     		bx	lr
 572              	.L41:
 573              		.align	2
 574              	.L40:
 575 0014 00000000 		.word	.LANCHOR0
 576              		.cfi_endproc
 577              	.LFE254:
 578              		.size	chSchIsPreemptionRequired, .-chSchIsPreemptionRequired
 579              		.section	.text.chSchDoRescheduleBehind,"ax",%progbits
 580              		.align	1
 581              		.global	chSchDoRescheduleBehind
 582              		.thumb
 583              		.thumb_func
 584              		.type	chSchDoRescheduleBehind, %function
 585              	chSchDoRescheduleBehind:
 586              	.LFB255:
 587              		.loc 1 504 0
 588              		.cfi_startproc
 589              		@ args = 0, pretend = 0, frame = 0
 590              		@ frame_needed = 0, uses_anonymous_args = 0
 591 0000 38B5     		push	{r3, r4, r5, lr}
 592              		.cfi_def_cfa_offset 16
 593              		.cfi_offset 3, -16
 594              		.cfi_offset 4, -12
 595              		.cfi_offset 5, -8
 596              		.cfi_offset 14, -4
 597              		.loc 1 505 0
 598 0002 0B4C     		ldr	r4, .L43
 599              	.LBB90:
 600              	.LBB91:
 601              		.loc 2 618 0
 602 0004 2368     		ldr	r3, [r4]
 603              	.LBE91:
 604              	.LBE90:
 605              		.loc 1 505 0
 606 0006 A069     		ldr	r0, [r4, #24]
 607              	.LVL47:
 608              	.LBB93:
 609              	.LBB92:
 610              		.loc 2 620 0
 611 0008 1A68     		ldr	r2, [r3]
 612 000a 2260     		str	r2, [r4]
 613              		.loc 2 621 0
 614 000c 5460     		str	r4, [r2, #4]
 615              	.LBE92:
 616              	.LBE93:
 617              		.loc 1 509 0
 618 000e 0122     		movs	r2, #1
 619 0010 83F82020 		strb	r2, [r3, #32]
 620              		.loc 1 508 0
 621 0014 A361     		str	r3, [r4, #24]
 622              		.loc 1 522 0
 623 0016 FFF7FEFF 		bl	chSchReadyI
 624              	.LVL48:
 625 001a 0546     		mov	r5, r0
 626              	.LVL49:
 627              		.loc 1 525 0
ARM GAS  /tmp/ccq2hZYK.s 			page 12


 628 001c 2946     		mov	r1, r5
 629 001e A069     		ldr	r0, [r4, #24]
 630              	.LVL50:
 631 0020 FFF7FEFF 		bl	_stats_ctxswc
 632              	.LVL51:
 633 0024 A069     		ldr	r0, [r4, #24]
 634 0026 2946     		mov	r1, r5
 635              		.loc 1 526 0
 636 0028 BDE83840 		pop	{r3, r4, r5, lr}
 637              		.cfi_restore 14
 638              		.cfi_restore 5
 639              		.cfi_restore 4
 640              		.cfi_restore 3
 641              		.cfi_def_cfa_offset 0
 642              	.LVL52:
 643              		.loc 1 525 0
 644 002c FFF7FEBF 		b	_port_switch
 645              	.LVL53:
 646              	.L44:
 647              		.align	2
 648              	.L43:
 649 0030 00000000 		.word	.LANCHOR0
 650              		.cfi_endproc
 651              	.LFE255:
 652              		.size	chSchDoRescheduleBehind, .-chSchDoRescheduleBehind
 653              		.section	.text.chSchDoRescheduleAhead,"ax",%progbits
 654              		.align	1
 655              		.global	chSchDoRescheduleAhead
 656              		.thumb
 657              		.thumb_func
 658              		.type	chSchDoRescheduleAhead, %function
 659              	chSchDoRescheduleAhead:
 660              	.LFB256:
 661              		.loc 1 537 0
 662              		.cfi_startproc
 663              		@ args = 0, pretend = 0, frame = 0
 664              		@ frame_needed = 0, uses_anonymous_args = 0
 665 0000 38B5     		push	{r3, r4, r5, lr}
 666              		.cfi_def_cfa_offset 16
 667              		.cfi_offset 3, -16
 668              		.cfi_offset 4, -12
 669              		.cfi_offset 5, -8
 670              		.cfi_offset 14, -4
 671              		.loc 1 538 0
 672 0002 0B4C     		ldr	r4, .L46
 673              	.LBB94:
 674              	.LBB95:
 675              		.loc 2 618 0
 676 0004 2368     		ldr	r3, [r4]
 677              	.LBE95:
 678              	.LBE94:
 679              		.loc 1 538 0
 680 0006 A069     		ldr	r0, [r4, #24]
 681              	.LVL54:
 682              	.LBB97:
 683              	.LBB96:
 684              		.loc 2 620 0
ARM GAS  /tmp/ccq2hZYK.s 			page 13


 685 0008 1A68     		ldr	r2, [r3]
 686 000a 2260     		str	r2, [r4]
 687              		.loc 2 621 0
 688 000c 5460     		str	r4, [r2, #4]
 689              	.LBE96:
 690              	.LBE97:
 691              		.loc 1 542 0
 692 000e 0122     		movs	r2, #1
 693 0010 83F82020 		strb	r2, [r3, #32]
 694              		.loc 1 541 0
 695 0014 A361     		str	r3, [r4, #24]
 696              		.loc 1 550 0
 697 0016 FFF7FEFF 		bl	chSchReadyAheadI
 698              	.LVL55:
 699 001a 0546     		mov	r5, r0
 700              	.LVL56:
 701              		.loc 1 553 0
 702 001c 2946     		mov	r1, r5
 703 001e A069     		ldr	r0, [r4, #24]
 704              	.LVL57:
 705 0020 FFF7FEFF 		bl	_stats_ctxswc
 706              	.LVL58:
 707 0024 A069     		ldr	r0, [r4, #24]
 708 0026 2946     		mov	r1, r5
 709              		.loc 1 554 0
 710 0028 BDE83840 		pop	{r3, r4, r5, lr}
 711              		.cfi_restore 14
 712              		.cfi_restore 5
 713              		.cfi_restore 4
 714              		.cfi_restore 3
 715              		.cfi_def_cfa_offset 0
 716              	.LVL59:
 717              		.loc 1 553 0
 718 002c FFF7FEBF 		b	_port_switch
 719              	.LVL60:
 720              	.L47:
 721              		.align	2
 722              	.L46:
 723 0030 00000000 		.word	.LANCHOR0
 724              		.cfi_endproc
 725              	.LFE256:
 726              		.size	chSchDoRescheduleAhead, .-chSchDoRescheduleAhead
 727              		.section	.text.chSchRescheduleS,"ax",%progbits
 728              		.align	1
 729              		.global	chSchRescheduleS
 730              		.thumb
 731              		.thumb_func
 732              		.type	chSchRescheduleS, %function
 733              	chSchRescheduleS:
 734              	.LFB253:
 735              		.loc 1 455 0
 736              		.cfi_startproc
 737              		@ args = 0, pretend = 0, frame = 0
 738              		@ frame_needed = 0, uses_anonymous_args = 0
 739              		@ link register save eliminated.
 740              	.LBB100:
 741              	.LBB101:
ARM GAS  /tmp/ccq2hZYK.s 			page 14


 742              		.loc 2 659 0
 743 0000 044B     		ldr	r3, .L50
 744 0002 1A68     		ldr	r2, [r3]
 745 0004 9B69     		ldr	r3, [r3, #24]
 746              	.LBE101:
 747              	.LBE100:
 748              		.loc 1 459 0
 749 0006 9268     		ldr	r2, [r2, #8]
 750 0008 9B68     		ldr	r3, [r3, #8]
 751 000a 9A42     		cmp	r2, r3
 752 000c 01D9     		bls	.L48
 753              		.loc 1 460 0
 754 000e FFF7FEBF 		b	chSchDoRescheduleAhead
 755              	.LVL61:
 756              	.L48:
 757 0012 7047     		bx	lr
 758              	.L51:
 759              		.align	2
 760              	.L50:
 761 0014 00000000 		.word	.LANCHOR0
 762              		.cfi_endproc
 763              	.LFE253:
 764              		.size	chSchRescheduleS, .-chSchRescheduleS
 765              		.section	.text.chSchDoReschedule,"ax",%progbits
 766              		.align	1
 767              		.global	chSchDoReschedule
 768              		.thumb
 769              		.thumb_func
 770              		.type	chSchDoReschedule, %function
 771              	chSchDoReschedule:
 772              	.LFB257:
 773              		.loc 1 566 0
 774              		.cfi_startproc
 775              		@ args = 0, pretend = 0, frame = 0
 776              		@ frame_needed = 0, uses_anonymous_args = 0
 777 0000 38B5     		push	{r3, r4, r5, lr}
 778              		.cfi_def_cfa_offset 16
 779              		.cfi_offset 3, -16
 780              		.cfi_offset 4, -12
 781              		.cfi_offset 5, -8
 782              		.cfi_offset 14, -4
 783              		.loc 1 567 0
 784 0002 0B4C     		ldr	r4, .L53
 785              	.LBB102:
 786              	.LBB103:
 787              		.loc 2 618 0
 788 0004 2368     		ldr	r3, [r4]
 789              	.LBE103:
 790              	.LBE102:
 791              		.loc 1 567 0
 792 0006 A069     		ldr	r0, [r4, #24]
 793              	.LVL62:
 794              	.LBB105:
 795              	.LBB104:
 796              		.loc 2 620 0
 797 0008 1A68     		ldr	r2, [r3]
 798 000a 2260     		str	r2, [r4]
ARM GAS  /tmp/ccq2hZYK.s 			page 15


 799              		.loc 2 621 0
 800 000c 5460     		str	r4, [r2, #4]
 801              	.LBE104:
 802              	.LBE105:
 803              		.loc 1 571 0
 804 000e 0122     		movs	r2, #1
 805 0010 83F82020 		strb	r2, [r3, #32]
 806              		.loc 1 570 0
 807 0014 A361     		str	r3, [r4, #24]
 808              		.loc 1 598 0
 809 0016 FFF7FEFF 		bl	chSchReadyAheadI
 810              	.LVL63:
 811 001a 0546     		mov	r5, r0
 812              	.LVL64:
 813              		.loc 1 602 0
 814 001c 2946     		mov	r1, r5
 815 001e A069     		ldr	r0, [r4, #24]
 816              	.LVL65:
 817 0020 FFF7FEFF 		bl	_stats_ctxswc
 818              	.LVL66:
 819 0024 A069     		ldr	r0, [r4, #24]
 820 0026 2946     		mov	r1, r5
 821              		.loc 1 603 0
 822 0028 BDE83840 		pop	{r3, r4, r5, lr}
 823              		.cfi_restore 14
 824              		.cfi_restore 5
 825              		.cfi_restore 4
 826              		.cfi_restore 3
 827              		.cfi_def_cfa_offset 0
 828              	.LVL67:
 829              		.loc 1 602 0
 830 002c FFF7FEBF 		b	_port_switch
 831              	.LVL68:
 832              	.L54:
 833              		.align	2
 834              	.L53:
 835 0030 00000000 		.word	.LANCHOR0
 836              		.cfi_endproc
 837              	.LFE257:
 838              		.size	chSchDoReschedule, .-chSchDoReschedule
 839              		.global	ch
 840              		.section	.bss.ch,"aw",%nobits
 841              		.align	3
 842              		.set	.LANCHOR0,. + 0
 843              		.type	ch, %object
 844              		.size	ch, 208
 845              	ch:
 846 0000 00000000 		.space	208
 846      00000000 
 846      00000000 
 846      00000000 
 846      00000000 
 847              		.text
 848              	.Letext0:
 849              		.file 6 "/usr/include/newlib/machine/_default_types.h"
 850              		.file 7 "/usr/include/newlib/sys/_stdint.h"
 851              		.file 8 "../../modules/ChibiOS/os/common/ports/ARMCMx/compilers/GCC/chtypes.h"
ARM GAS  /tmp/ccq2hZYK.s 			page 16


 852              		.file 9 "../../modules/ChibiOS/os/rt/include/chsystypes.h"
 853              		.file 10 "../../modules/ChibiOS/os/common/ports/ARMCMx/chcore.h"
 854              		.file 11 "../../modules/ChibiOS/os/common/ports/ARMCMx/chcore_v7m.h"
 855              		.file 12 "../../modules/ChibiOS/os/rt/include/chtm.h"
 856              		.file 13 "../../modules/ChibiOS/os/rt/include/chstats.h"
 857              		.file 14 "../../modules/ChibiOS/os/rt/include/chmtx.h"
 858              		.file 15 "../../modules/ChibiOS/os/rt/include/chvt.h"
 859              		.file 16 "../../modules/ChibiOS/os/common/ext/CMSIS/include/core_cm4.h"