ARM GAS  /tmp/ccYi4OMh.s 			page 1


   1              		.syntax unified
   2              		.cpu cortex-m4
   3              		.eabi_attribute 27, 1
   4              		.eabi_attribute 28, 1
   5              		.fpu fpv4-sp-d16
   6              		.eabi_attribute 20, 1
   7              		.eabi_attribute 21, 1
   8              		.eabi_attribute 23, 3
   9              		.eabi_attribute 24, 1
  10              		.eabi_attribute 25, 1
  11              		.eabi_attribute 26, 1
  12              		.eabi_attribute 30, 4
  13              		.eabi_attribute 34, 1
  14              		.eabi_attribute 18, 4
  15              		.thumb
  16              		.file	"chsem.c"
  17              		.text
  18              	.Ltext0:
  19              		.cfi_sections	.debug_frame
  20              		.section	.text.chSemObjectInit,"ax",%progbits
  21              		.align	1
  22              		.global	chSemObjectInit
  23              		.thumb
  24              		.thumb_func
  25              		.type	chSemObjectInit, %function
  26              	chSemObjectInit:
  27              	.LFB246:
  28              		.file 1 "../../modules/ChibiOS/os/rt/src/chsem.c"
  29              		.loc 1 97 0
  30              		.cfi_startproc
  31              		@ args = 0, pretend = 0, frame = 0
  32              		@ frame_needed = 0, uses_anonymous_args = 0
  33              		@ link register save eliminated.
  34              	.LVL0:
  35              	.LBB38:
  36              	.LBB39:
  37              		.file 2 "../../modules/ChibiOS/os/rt/include/chschd.h"
  38              		.loc 2 550 0
  39 0000 0060     		str	r0, [r0]
  40              		.loc 2 551 0
  41 0002 4060     		str	r0, [r0, #4]
  42              	.LBE39:
  43              	.LBE38:
  44              		.loc 1 102 0
  45 0004 8160     		str	r1, [r0, #8]
  46 0006 7047     		bx	lr
  47              		.cfi_endproc
  48              	.LFE246:
  49              		.size	chSemObjectInit, .-chSemObjectInit
  50              		.section	.text.chSemResetI,"ax",%progbits
  51              		.align	1
  52              		.global	chSemResetI
  53              		.thumb
  54              		.thumb_func
  55              		.type	chSemResetI, %function
  56              	chSemResetI:
  57              	.LFB248:
ARM GAS  /tmp/ccYi4OMh.s 			page 2


  58              		.loc 1 147 0
  59              		.cfi_startproc
  60              		@ args = 0, pretend = 0, frame = 0
  61              		@ frame_needed = 0, uses_anonymous_args = 0
  62              	.LVL1:
  63 0000 38B5     		push	{r3, r4, r5, lr}
  64              		.cfi_def_cfa_offset 16
  65              		.cfi_offset 3, -16
  66              		.cfi_offset 4, -12
  67              		.cfi_offset 5, -8
  68              		.cfi_offset 14, -4
  69              		.loc 1 156 0
  70 0002 8568     		ldr	r5, [r0, #8]
  71              	.LVL2:
  72              		.loc 1 157 0
  73 0004 8160     		str	r1, [r0, #8]
  74              		.loc 1 147 0
  75 0006 0446     		mov	r4, r0
  76              	.LVL3:
  77              	.L3:
  78              		.loc 1 158 0
  79 0008 0135     		adds	r5, r5, #1
  80              	.LVL4:
  81 000a 002D     		cmp	r5, #0
  82 000c 09DC     		bgt	.L6
  83              	.LVL5:
  84              	.LBB40:
  85              	.LBB41:
  86              		.loc 2 627 0
  87 000e 6068     		ldr	r0, [r4, #4]
  88              	.LVL6:
  89              		.loc 2 629 0
  90 0010 4368     		ldr	r3, [r0, #4]
  91 0012 6360     		str	r3, [r4, #4]
  92              		.loc 2 630 0
  93 0014 1C60     		str	r4, [r3]
  94              	.LBE41:
  95              	.LBE40:
  96              		.loc 1 159 0
  97 0016 FFF7FEFF 		bl	chSchReadyI
  98              	.LVL7:
  99 001a 6FF00103 		mvn	r3, #1
 100 001e 4362     		str	r3, [r0, #36]
 101 0020 F2E7     		b	.L3
 102              	.LVL8:
 103              	.L6:
 104              		.loc 1 161 0
 105 0022 38BD     		pop	{r3, r4, r5, pc}
 106              		.cfi_endproc
 107              	.LFE248:
 108              		.size	chSemResetI, .-chSemResetI
 109              		.section	.text.chSemReset,"ax",%progbits
 110              		.align	1
 111              		.global	chSemReset
 112              		.thumb
 113              		.thumb_func
 114              		.type	chSemReset, %function
ARM GAS  /tmp/ccYi4OMh.s 			page 3


 115              	chSemReset:
 116              	.LFB247:
 117              		.loc 1 120 0
 118              		.cfi_startproc
 119              		@ args = 0, pretend = 0, frame = 0
 120              		@ frame_needed = 0, uses_anonymous_args = 0
 121              	.LVL9:
 122 0000 38B5     		push	{r3, r4, r5, lr}
 123              		.cfi_def_cfa_offset 16
 124              		.cfi_offset 3, -16
 125              		.cfi_offset 4, -12
 126              		.cfi_offset 5, -8
 127              		.cfi_offset 14, -4
 128              		.loc 1 120 0
 129 0002 0546     		mov	r5, r0
 130 0004 0C46     		mov	r4, r1
 131              	.LBB52:
 132              	.LBB53:
 133              	.LBB54:
 134              	.LBB55:
 135              	.LBB56:
 136              		.file 3 "../../modules/ChibiOS/os/common/ext/CMSIS/include/cmsis_gcc.h"
 137              		.loc 3 264 0
 138 0006 2023     		movs	r3, #32
 139              	@ 264 "../../modules/ChibiOS/os/common/ext/CMSIS/include/cmsis_gcc.h" 1
 140 0008 83F31188 		MSR basepri, r3
 141              	@ 0 "" 2
 142              		.thumb
 143              	.LBE56:
 144              	.LBE55:
 145              	.LBE54:
 146              		.file 4 "../../modules/ChibiOS/os/rt/include/chsys.h"
 147              		.loc 4 377 0
 148 000c FFF7FEFF 		bl	_stats_start_measure_crit_thd
 149              	.LVL10:
 150              	.LBE53:
 151              	.LBE52:
 152              		.loc 1 123 0
 153 0010 2846     		mov	r0, r5
 154 0012 2146     		mov	r1, r4
 155 0014 FFF7FEFF 		bl	chSemResetI
 156              	.LVL11:
 157              		.loc 1 124 0
 158 0018 FFF7FEFF 		bl	chSchRescheduleS
 159              	.LVL12:
 160              	.LBB57:
 161              	.LBB58:
 162              		.loc 4 389 0
 163 001c FFF7FEFF 		bl	_stats_stop_measure_crit_thd
 164              	.LVL13:
 165              	.LBB59:
 166              	.LBB60:
 167              	.LBB61:
 168              		.loc 3 264 0
 169 0020 0023     		movs	r3, #0
 170              	@ 264 "../../modules/ChibiOS/os/common/ext/CMSIS/include/cmsis_gcc.h" 1
 171 0022 83F31188 		MSR basepri, r3
ARM GAS  /tmp/ccYi4OMh.s 			page 4


 172              	@ 0 "" 2
 173              		.thumb
 174 0026 38BD     		pop	{r3, r4, r5, pc}
 175              	.LBE61:
 176              	.LBE60:
 177              	.LBE59:
 178              	.LBE58:
 179              	.LBE57:
 180              		.cfi_endproc
 181              	.LFE247:
 182              		.size	chSemReset, .-chSemReset
 183              		.section	.text.chSemWaitS,"ax",%progbits
 184              		.align	1
 185              		.global	chSemWaitS
 186              		.thumb
 187              		.thumb_func
 188              		.type	chSemWaitS, %function
 189              	chSemWaitS:
 190              	.LFB250:
 191              		.loc 1 197 0
 192              		.cfi_startproc
 193              		@ args = 0, pretend = 0, frame = 0
 194              		@ frame_needed = 0, uses_anonymous_args = 0
 195              	.LVL14:
 196              		.loc 1 205 0
 197 0000 8368     		ldr	r3, [r0, #8]
 198 0002 013B     		subs	r3, r3, #1
 199 0004 002B     		cmp	r3, #0
 200              		.loc 1 197 0
 201 0006 10B5     		push	{r4, lr}
 202              		.cfi_def_cfa_offset 8
 203              		.cfi_offset 4, -8
 204              		.cfi_offset 14, -4
 205              		.loc 1 205 0
 206 0008 8360     		str	r3, [r0, #8]
 207 000a 0DDA     		bge	.L10
 208              	.LVL15:
 209              	.LBB66:
 210              	.LBB67:
 211              		.loc 1 206 0
 212 000c 074C     		ldr	r4, .L11
 213 000e A369     		ldr	r3, [r4, #24]
 214 0010 5862     		str	r0, [r3, #36]
 215              	.LVL16:
 216              	.LBB68:
 217              	.LBB69:
 218              		.loc 2 612 0
 219 0012 4268     		ldr	r2, [r0, #4]
 220              		.loc 2 611 0
 221 0014 1860     		str	r0, [r3]
 222              		.loc 2 612 0
 223 0016 5A60     		str	r2, [r3, #4]
 224              		.loc 2 613 0
 225 0018 1360     		str	r3, [r2]
 226              		.loc 2 614 0
 227 001a 4360     		str	r3, [r0, #4]
 228              	.LBE69:
ARM GAS  /tmp/ccYi4OMh.s 			page 5


 229              	.LBE68:
 230              		.loc 1 208 0
 231 001c 0520     		movs	r0, #5
 232              	.LVL17:
 233 001e FFF7FEFF 		bl	chSchGoSleepS
 234              	.LVL18:
 235              		.loc 1 210 0
 236 0022 A369     		ldr	r3, [r4, #24]
 237 0024 586A     		ldr	r0, [r3, #36]
 238 0026 10BD     		pop	{r4, pc}
 239              	.LVL19:
 240              	.L10:
 241              	.LBE67:
 242              	.LBE66:
 243              		.loc 1 213 0
 244 0028 0020     		movs	r0, #0
 245              	.LVL20:
 246              		.loc 1 214 0
 247 002a 10BD     		pop	{r4, pc}
 248              	.L12:
 249              		.align	2
 250              	.L11:
 251 002c 00000000 		.word	ch
 252              		.cfi_endproc
 253              	.LFE250:
 254              		.size	chSemWaitS, .-chSemWaitS
 255              		.section	.text.chSemWait,"ax",%progbits
 256              		.align	1
 257              		.global	chSemWait
 258              		.thumb
 259              		.thumb_func
 260              		.type	chSemWait, %function
 261              	chSemWait:
 262              	.LFB249:
 263              		.loc 1 175 0
 264              		.cfi_startproc
 265              		@ args = 0, pretend = 0, frame = 0
 266              		@ frame_needed = 0, uses_anonymous_args = 0
 267              	.LVL21:
 268 0000 10B5     		push	{r4, lr}
 269              		.cfi_def_cfa_offset 8
 270              		.cfi_offset 4, -8
 271              		.cfi_offset 14, -4
 272              	.LBB80:
 273              	.LBB81:
 274              	.LBB82:
 275              	.LBB83:
 276              	.LBB84:
 277              		.loc 3 264 0
 278 0002 2023     		movs	r3, #32
 279              	.LBE84:
 280              	.LBE83:
 281              	.LBE82:
 282              	.LBE81:
 283              	.LBE80:
 284              		.loc 1 175 0
 285 0004 0446     		mov	r4, r0
ARM GAS  /tmp/ccYi4OMh.s 			page 6


 286              	.LBB89:
 287              	.LBB88:
 288              	.LBB87:
 289              	.LBB86:
 290              	.LBB85:
 291              		.loc 3 264 0
 292              	@ 264 "../../modules/ChibiOS/os/common/ext/CMSIS/include/cmsis_gcc.h" 1
 293 0006 83F31188 		MSR basepri, r3
 294              	@ 0 "" 2
 295              		.thumb
 296              	.LBE85:
 297              	.LBE86:
 298              	.LBE87:
 299              		.loc 4 377 0
 300 000a FFF7FEFF 		bl	_stats_start_measure_crit_thd
 301              	.LVL22:
 302              	.LBE88:
 303              	.LBE89:
 304              		.loc 1 179 0
 305 000e 2046     		mov	r0, r4
 306 0010 FFF7FEFF 		bl	chSemWaitS
 307              	.LVL23:
 308 0014 0446     		mov	r4, r0
 309              	.LVL24:
 310              	.LBB90:
 311              	.LBB91:
 312              		.loc 4 389 0
 313 0016 FFF7FEFF 		bl	_stats_stop_measure_crit_thd
 314              	.LVL25:
 315              	.LBB92:
 316              	.LBB93:
 317              	.LBB94:
 318              		.loc 3 264 0
 319 001a 0023     		movs	r3, #0
 320              	@ 264 "../../modules/ChibiOS/os/common/ext/CMSIS/include/cmsis_gcc.h" 1
 321 001c 83F31188 		MSR basepri, r3
 322              	@ 0 "" 2
 323              		.thumb
 324              	.LBE94:
 325              	.LBE93:
 326              	.LBE92:
 327              	.LBE91:
 328              	.LBE90:
 329              		.loc 1 183 0
 330 0020 2046     		mov	r0, r4
 331 0022 10BD     		pop	{r4, pc}
 332              		.cfi_endproc
 333              	.LFE249:
 334              		.size	chSemWait, .-chSemWait
 335              		.section	.text.chSemWaitTimeoutS,"ax",%progbits
 336              		.align	1
 337              		.global	chSemWaitTimeoutS
 338              		.thumb
 339              		.thumb_func
 340              		.type	chSemWaitTimeoutS, %function
 341              	chSemWaitTimeoutS:
 342              	.LFB252:
ARM GAS  /tmp/ccYi4OMh.s 			page 7


 343              		.loc 1 264 0
 344              		.cfi_startproc
 345              		@ args = 0, pretend = 0, frame = 0
 346              		@ frame_needed = 0, uses_anonymous_args = 0
 347              	.LVL26:
 348              		.loc 1 272 0
 349 0000 8368     		ldr	r3, [r0, #8]
 350 0002 5A1E     		subs	r2, r3, #1
 351 0004 002A     		cmp	r2, #0
 352              		.loc 1 264 0
 353 0006 10B5     		push	{r4, lr}
 354              		.cfi_def_cfa_offset 8
 355              		.cfi_offset 4, -8
 356              		.cfi_offset 14, -4
 357              		.loc 1 272 0
 358 0008 8260     		str	r2, [r0, #8]
 359 000a 11DA     		bge	.L17
 360              		.loc 1 273 0
 361 000c 19B9     		cbnz	r1, .L16
 362              		.loc 1 274 0
 363 000e 8360     		str	r3, [r0, #8]
 364              		.loc 1 276 0
 365 0010 4FF0FF30 		mov	r0, #-1
 366              	.LVL27:
 367 0014 10BD     		pop	{r4, pc}
 368              	.LVL28:
 369              	.L16:
 370              	.LBB99:
 371              	.LBB100:
 372              		.loc 1 278 0
 373 0016 074B     		ldr	r3, .L18
 374 0018 9B69     		ldr	r3, [r3, #24]
 375 001a 5862     		str	r0, [r3, #36]
 376              	.LVL29:
 377              	.LBB101:
 378              	.LBB102:
 379              		.loc 2 612 0
 380 001c 4268     		ldr	r2, [r0, #4]
 381              		.loc 2 611 0
 382 001e 1860     		str	r0, [r3]
 383              		.loc 2 612 0
 384 0020 5A60     		str	r2, [r3, #4]
 385              	.LBE102:
 386              	.LBE101:
 387              	.LBE100:
 388              	.LBE99:
 389              		.loc 1 285 0
 390 0022 BDE81040 		pop	{r4, lr}
 391              		.cfi_remember_state
 392              		.cfi_restore 14
 393              		.cfi_restore 4
 394              		.cfi_def_cfa_offset 0
 395              	.LBB106:
 396              	.LBB105:
 397              	.LBB104:
 398              	.LBB103:
 399              		.loc 2 613 0
ARM GAS  /tmp/ccYi4OMh.s 			page 8


 400 0026 1360     		str	r3, [r2]
 401              		.loc 2 614 0
 402 0028 4360     		str	r3, [r0, #4]
 403              	.LBE103:
 404              	.LBE104:
 405              		.loc 1 281 0
 406 002a 0520     		movs	r0, #5
 407              	.LVL30:
 408 002c FFF7FEBF 		b	chSchGoSleepTimeoutS
 409              	.LVL31:
 410              	.L17:
 411              		.cfi_restore_state
 412              	.LBE105:
 413              	.LBE106:
 414              		.loc 1 284 0
 415 0030 0020     		movs	r0, #0
 416              	.LVL32:
 417              		.loc 1 285 0
 418 0032 10BD     		pop	{r4, pc}
 419              	.L19:
 420              		.align	2
 421              	.L18:
 422 0034 00000000 		.word	ch
 423              		.cfi_endproc
 424              	.LFE252:
 425              		.size	chSemWaitTimeoutS, .-chSemWaitTimeoutS
 426              		.section	.text.chSemWaitTimeout,"ax",%progbits
 427              		.align	1
 428              		.global	chSemWaitTimeout
 429              		.thumb
 430              		.thumb_func
 431              		.type	chSemWaitTimeout, %function
 432              	chSemWaitTimeout:
 433              	.LFB251:
 434              		.loc 1 235 0
 435              		.cfi_startproc
 436              		@ args = 0, pretend = 0, frame = 0
 437              		@ frame_needed = 0, uses_anonymous_args = 0
 438              	.LVL33:
 439 0000 38B5     		push	{r3, r4, r5, lr}
 440              		.cfi_def_cfa_offset 16
 441              		.cfi_offset 3, -16
 442              		.cfi_offset 4, -12
 443              		.cfi_offset 5, -8
 444              		.cfi_offset 14, -4
 445              		.loc 1 235 0
 446 0002 0546     		mov	r5, r0
 447 0004 0C46     		mov	r4, r1
 448              	.LBB117:
 449              	.LBB118:
 450              	.LBB119:
 451              	.LBB120:
 452              	.LBB121:
 453              		.loc 3 264 0
 454 0006 2023     		movs	r3, #32
 455              	@ 264 "../../modules/ChibiOS/os/common/ext/CMSIS/include/cmsis_gcc.h" 1
 456 0008 83F31188 		MSR basepri, r3
ARM GAS  /tmp/ccYi4OMh.s 			page 9


 457              	@ 0 "" 2
 458              		.thumb
 459              	.LBE121:
 460              	.LBE120:
 461              	.LBE119:
 462              		.loc 4 377 0
 463 000c FFF7FEFF 		bl	_stats_start_measure_crit_thd
 464              	.LVL34:
 465              	.LBE118:
 466              	.LBE117:
 467              		.loc 1 239 0
 468 0010 2146     		mov	r1, r4
 469 0012 2846     		mov	r0, r5
 470 0014 FFF7FEFF 		bl	chSemWaitTimeoutS
 471              	.LVL35:
 472 0018 0446     		mov	r4, r0
 473              	.LVL36:
 474              	.LBB122:
 475              	.LBB123:
 476              		.loc 4 389 0
 477 001a FFF7FEFF 		bl	_stats_stop_measure_crit_thd
 478              	.LVL37:
 479              	.LBB124:
 480              	.LBB125:
 481              	.LBB126:
 482              		.loc 3 264 0
 483 001e 0023     		movs	r3, #0
 484              	@ 264 "../../modules/ChibiOS/os/common/ext/CMSIS/include/cmsis_gcc.h" 1
 485 0020 83F31188 		MSR basepri, r3
 486              	@ 0 "" 2
 487              		.thumb
 488              	.LBE126:
 489              	.LBE125:
 490              	.LBE124:
 491              	.LBE123:
 492              	.LBE122:
 493              		.loc 1 243 0
 494 0024 2046     		mov	r0, r4
 495 0026 38BD     		pop	{r3, r4, r5, pc}
 496              		.cfi_endproc
 497              	.LFE251:
 498              		.size	chSemWaitTimeout, .-chSemWaitTimeout
 499              		.section	.text.chSemSignal,"ax",%progbits
 500              		.align	1
 501              		.global	chSemSignal
 502              		.thumb
 503              		.thumb_func
 504              		.type	chSemSignal, %function
 505              	chSemSignal:
 506              	.LFB253:
 507              		.loc 1 294 0
 508              		.cfi_startproc
 509              		@ args = 0, pretend = 0, frame = 0
 510              		@ frame_needed = 0, uses_anonymous_args = 0
 511              	.LVL38:
 512 0000 10B5     		push	{r4, lr}
 513              		.cfi_def_cfa_offset 8
ARM GAS  /tmp/ccYi4OMh.s 			page 10


 514              		.cfi_offset 4, -8
 515              		.cfi_offset 14, -4
 516              	.LBB139:
 517              	.LBB140:
 518              	.LBB141:
 519              	.LBB142:
 520              	.LBB143:
 521              		.loc 3 264 0
 522 0002 2023     		movs	r3, #32
 523              	.LBE143:
 524              	.LBE142:
 525              	.LBE141:
 526              	.LBE140:
 527              	.LBE139:
 528              		.loc 1 294 0
 529 0004 0446     		mov	r4, r0
 530              	.LBB148:
 531              	.LBB147:
 532              	.LBB146:
 533              	.LBB145:
 534              	.LBB144:
 535              		.loc 3 264 0
 536              	@ 264 "../../modules/ChibiOS/os/common/ext/CMSIS/include/cmsis_gcc.h" 1
 537 0006 83F31188 		MSR basepri, r3
 538              	@ 0 "" 2
 539              		.thumb
 540              	.LBE144:
 541              	.LBE145:
 542              	.LBE146:
 543              		.loc 4 377 0
 544 000a FFF7FEFF 		bl	_stats_start_measure_crit_thd
 545              	.LVL39:
 546              	.LBE147:
 547              	.LBE148:
 548              		.loc 1 302 0
 549 000e A368     		ldr	r3, [r4, #8]
 550 0010 0133     		adds	r3, r3, #1
 551 0012 002B     		cmp	r3, #0
 552 0014 A360     		str	r3, [r4, #8]
 553 0016 06DC     		bgt	.L22
 554              	.LVL40:
 555              	.LBB149:
 556              	.LBB150:
 557              		.loc 2 618 0
 558 0018 2068     		ldr	r0, [r4]
 559              	.LVL41:
 560              		.loc 2 620 0
 561 001a 0368     		ldr	r3, [r0]
 562 001c 2360     		str	r3, [r4]
 563              	.LBE150:
 564              	.LBE149:
 565              		.loc 1 303 0
 566 001e 0021     		movs	r1, #0
 567              	.LBB152:
 568              	.LBB151:
 569              		.loc 2 621 0
 570 0020 5C60     		str	r4, [r3, #4]
ARM GAS  /tmp/ccYi4OMh.s 			page 11


 571              	.LBE151:
 572              	.LBE152:
 573              		.loc 1 303 0
 574 0022 FFF7FEFF 		bl	chSchWakeupS
 575              	.LVL42:
 576              	.L22:
 577              	.LBB153:
 578              	.LBB154:
 579              		.loc 4 389 0
 580 0026 FFF7FEFF 		bl	_stats_stop_measure_crit_thd
 581              	.LVL43:
 582              	.LBB155:
 583              	.LBB156:
 584              	.LBB157:
 585              		.loc 3 264 0
 586 002a 0023     		movs	r3, #0
 587              	@ 264 "../../modules/ChibiOS/os/common/ext/CMSIS/include/cmsis_gcc.h" 1
 588 002c 83F31188 		MSR basepri, r3
 589              	@ 0 "" 2
 590              		.thumb
 591 0030 10BD     		pop	{r4, pc}
 592              	.LBE157:
 593              	.LBE156:
 594              	.LBE155:
 595              	.LBE154:
 596              	.LBE153:
 597              		.cfi_endproc
 598              	.LFE253:
 599              		.size	chSemSignal, .-chSemSignal
 600              		.section	.text.chSemSignalI,"ax",%progbits
 601              		.align	1
 602              		.global	chSemSignalI
 603              		.thumb
 604              		.thumb_func
 605              		.type	chSemSignalI, %function
 606              	chSemSignalI:
 607              	.LFB254:
 608              		.loc 1 319 0
 609              		.cfi_startproc
 610              		@ args = 0, pretend = 0, frame = 0
 611              		@ frame_needed = 0, uses_anonymous_args = 0
 612              		@ link register save eliminated.
 613              	.LVL44:
 614              		.loc 1 327 0
 615 0000 8268     		ldr	r2, [r0, #8]
 616 0002 0132     		adds	r2, r2, #1
 617 0004 002A     		cmp	r2, #0
 618              		.loc 1 319 0
 619 0006 0346     		mov	r3, r0
 620              		.loc 1 327 0
 621 0008 8260     		str	r2, [r0, #8]
 622 000a 07DC     		bgt	.L23
 623              	.LVL45:
 624              	.LBB158:
 625              	.LBB159:
 626              	.LBB160:
 627              		.loc 2 618 0
ARM GAS  /tmp/ccYi4OMh.s 			page 12


 628 000c 0068     		ldr	r0, [r0]
 629              	.LVL46:
 630              		.loc 2 620 0
 631 000e 0268     		ldr	r2, [r0]
 632 0010 1A60     		str	r2, [r3]
 633              		.loc 2 621 0
 634 0012 5360     		str	r3, [r2, #4]
 635              	.LBE160:
 636              	.LBE159:
 637              		.loc 1 331 0
 638 0014 0023     		movs	r3, #0
 639              	.LVL47:
 640 0016 4362     		str	r3, [r0, #36]
 641              		.loc 1 332 0
 642 0018 FFF7FEBF 		b	chSchReadyI
 643              	.LVL48:
 644              	.L23:
 645 001c 7047     		bx	lr
 646              	.LBE158:
 647              		.cfi_endproc
 648              	.LFE254:
 649              		.size	chSemSignalI, .-chSemSignalI
 650              		.section	.text.chSemAddCounterI,"ax",%progbits
 651              		.align	1
 652              		.global	chSemAddCounterI
 653              		.thumb
 654              		.thumb_func
 655              		.type	chSemAddCounterI, %function
 656              	chSemAddCounterI:
 657              	.LFB255:
 658              		.loc 1 349 0
 659              		.cfi_startproc
 660              		@ args = 0, pretend = 0, frame = 0
 661              		@ frame_needed = 0, uses_anonymous_args = 0
 662              	.LVL49:
 663 0000 38B5     		push	{r3, r4, r5, lr}
 664              		.cfi_def_cfa_offset 16
 665              		.cfi_offset 3, -16
 666              		.cfi_offset 4, -12
 667              		.cfi_offset 5, -8
 668              		.cfi_offset 14, -4
 669 0002 0446     		mov	r4, r0
 670 0004 0D46     		mov	r5, r1
 671              	.LVL50:
 672              	.L26:
 673              		.loc 1 357 0
 674 0006 002D     		cmp	r5, #0
 675 0008 0EDD     		ble	.L29
 676              		.loc 1 358 0
 677 000a A368     		ldr	r3, [r4, #8]
 678 000c 0133     		adds	r3, r3, #1
 679 000e 002B     		cmp	r3, #0
 680 0010 A360     		str	r3, [r4, #8]
 681 0012 07DC     		bgt	.L27
 682              	.LVL51:
 683              	.LBB161:
 684              	.LBB162:
ARM GAS  /tmp/ccYi4OMh.s 			page 13


 685              		.loc 2 618 0
 686 0014 2068     		ldr	r0, [r4]
 687              	.LVL52:
 688              		.loc 2 620 0
 689 0016 0368     		ldr	r3, [r0]
 690 0018 2360     		str	r3, [r4]
 691              		.loc 2 621 0
 692 001a 5C60     		str	r4, [r3, #4]
 693              	.LBE162:
 694              	.LBE161:
 695              		.loc 1 359 0
 696 001c FFF7FEFF 		bl	chSchReadyI
 697              	.LVL53:
 698 0020 0023     		movs	r3, #0
 699 0022 4362     		str	r3, [r0, #36]
 700              	.LVL54:
 701              	.L27:
 702              		.loc 1 361 0
 703 0024 013D     		subs	r5, r5, #1
 704              	.LVL55:
 705 0026 EEE7     		b	.L26
 706              	.L29:
 707              		.loc 1 363 0
 708 0028 38BD     		pop	{r3, r4, r5, pc}
 709              		.cfi_endproc
 710              	.LFE255:
 711              		.size	chSemAddCounterI, .-chSemAddCounterI
 712              		.section	.text.chSemSignalWait,"ax",%progbits
 713              		.align	1
 714              		.global	chSemSignalWait
 715              		.thumb
 716              		.thumb_func
 717              		.type	chSemSignalWait, %function
 718              	chSemSignalWait:
 719              	.LFB256:
 720              		.loc 1 378 0
 721              		.cfi_startproc
 722              		@ args = 0, pretend = 0, frame = 0
 723              		@ frame_needed = 0, uses_anonymous_args = 0
 724              	.LVL56:
 725 0000 38B5     		push	{r3, r4, r5, lr}
 726              		.cfi_def_cfa_offset 16
 727              		.cfi_offset 3, -16
 728              		.cfi_offset 4, -12
 729              		.cfi_offset 5, -8
 730              		.cfi_offset 14, -4
 731              		.loc 1 378 0
 732 0002 0446     		mov	r4, r0
 733 0004 0D46     		mov	r5, r1
 734              	.LBB178:
 735              	.LBB179:
 736              	.LBB180:
 737              	.LBB181:
 738              	.LBB182:
 739              		.loc 3 264 0
 740 0006 2023     		movs	r3, #32
 741              	@ 264 "../../modules/ChibiOS/os/common/ext/CMSIS/include/cmsis_gcc.h" 1
ARM GAS  /tmp/ccYi4OMh.s 			page 14


 742 0008 83F31188 		MSR basepri, r3
 743              	@ 0 "" 2
 744              		.thumb
 745              	.LBE182:
 746              	.LBE181:
 747              	.LBE180:
 748              		.loc 4 377 0
 749 000c FFF7FEFF 		bl	_stats_start_measure_crit_thd
 750              	.LVL57:
 751              	.LBE179:
 752              	.LBE178:
 753              		.loc 1 390 0
 754 0010 A368     		ldr	r3, [r4, #8]
 755 0012 0133     		adds	r3, r3, #1
 756 0014 002B     		cmp	r3, #0
 757 0016 A360     		str	r3, [r4, #8]
 758 0018 07DC     		bgt	.L31
 759              	.LVL58:
 760              	.LBB183:
 761              	.LBB184:
 762              		.loc 2 618 0
 763 001a 2068     		ldr	r0, [r4]
 764              	.LVL59:
 765              		.loc 2 620 0
 766 001c 0368     		ldr	r3, [r0]
 767 001e 2360     		str	r3, [r4]
 768              		.loc 2 621 0
 769 0020 5C60     		str	r4, [r3, #4]
 770              	.LBE184:
 771              	.LBE183:
 772              		.loc 1 391 0
 773 0022 FFF7FEFF 		bl	chSchReadyI
 774              	.LVL60:
 775 0026 0023     		movs	r3, #0
 776 0028 4362     		str	r3, [r0, #36]
 777              	.LVL61:
 778              	.L31:
 779              		.loc 1 393 0
 780 002a AB68     		ldr	r3, [r5, #8]
 781 002c 013B     		subs	r3, r3, #1
 782 002e 002B     		cmp	r3, #0
 783 0030 AB60     		str	r3, [r5, #8]
 784 0032 0CDA     		bge	.L32
 785              	.LBB185:
 786              		.loc 1 394 0
 787 0034 0B4B     		ldr	r3, .L34
 788 0036 9C69     		ldr	r4, [r3, #24]
 789              	.LVL62:
 790              	.LBB186:
 791              	.LBB187:
 792              		.loc 2 612 0
 793 0038 6B68     		ldr	r3, [r5, #4]
 794              		.loc 2 611 0
 795 003a 2560     		str	r5, [r4]
 796              		.loc 2 612 0
 797 003c 6360     		str	r3, [r4, #4]
 798              	.LBE187:
ARM GAS  /tmp/ccYi4OMh.s 			page 15


 799              	.LBE186:
 800              		.loc 1 397 0
 801 003e 0520     		movs	r0, #5
 802              	.LBB189:
 803              	.LBB188:
 804              		.loc 2 613 0
 805 0040 1C60     		str	r4, [r3]
 806              		.loc 2 614 0
 807 0042 6C60     		str	r4, [r5, #4]
 808              	.LBE188:
 809              	.LBE189:
 810              		.loc 1 396 0
 811 0044 6562     		str	r5, [r4, #36]
 812              		.loc 1 397 0
 813 0046 FFF7FEFF 		bl	chSchGoSleepS
 814              	.LVL63:
 815              		.loc 1 398 0
 816 004a 646A     		ldr	r4, [r4, #36]
 817              	.LVL64:
 818              	.LBE185:
 819 004c 02E0     		b	.L33
 820              	.LVL65:
 821              	.L32:
 822              		.loc 1 401 0
 823 004e FFF7FEFF 		bl	chSchRescheduleS
 824              	.LVL66:
 825              		.loc 1 402 0
 826 0052 0024     		movs	r4, #0
 827              	.LVL67:
 828              	.L33:
 829              	.LBB190:
 830              	.LBB191:
 831              		.loc 4 389 0
 832 0054 FFF7FEFF 		bl	_stats_stop_measure_crit_thd
 833              	.LVL68:
 834              	.LBB192:
 835              	.LBB193:
 836              	.LBB194:
 837              		.loc 3 264 0
 838 0058 0023     		movs	r3, #0
 839              	@ 264 "../../modules/ChibiOS/os/common/ext/CMSIS/include/cmsis_gcc.h" 1
 840 005a 83F31188 		MSR basepri, r3
 841              	@ 0 "" 2
 842              		.thumb
 843              	.LBE194:
 844              	.LBE193:
 845              	.LBE192:
 846              	.LBE191:
 847              	.LBE190:
 848              		.loc 1 407 0
 849 005e 2046     		mov	r0, r4
 850 0060 38BD     		pop	{r3, r4, r5, pc}
 851              	.LVL69:
 852              	.L35:
 853 0062 00BF     		.align	2
 854              	.L34:
 855 0064 00000000 		.word	ch
ARM GAS  /tmp/ccYi4OMh.s 			page 16


 856              		.cfi_endproc
 857              	.LFE256:
 858              		.size	chSemSignalWait, .-chSemSignalWait
 859              		.text
 860              	.Letext0:
 861              		.file 5 "/usr/include/newlib/machine/_default_types.h"
 862              		.file 6 "/usr/include/newlib/sys/_stdint.h"
 863              		.file 7 "../../modules/ChibiOS/os/common/ports/ARMCMx/compilers/GCC/chtypes.h"
 864              		.file 8 "../../modules/ChibiOS/os/rt/include/chsystypes.h"
 865              		.file 9 "../../modules/ChibiOS/os/common/ports/ARMCMx/chcore.h"
 866              		.file 10 "../../modules/ChibiOS/os/common/ports/ARMCMx/chcore_v7m.h"
 867              		.file 11 "../../modules/ChibiOS/os/rt/include/chtm.h"
 868              		.file 12 "../../modules/ChibiOS/os/rt/include/chstats.h"
 869              		.file 13 "../../modules/ChibiOS/os/rt/include/chsem.h"
 870              		.file 14 "../../modules/ChibiOS/os/rt/include/chmtx.h"
 871              		.file 15 "../../modules/ChibiOS/os/common/ext/CMSIS/include/core_cm4.h"
 872              		.section	.debug_info,"",%progbits
 873              	.Ldebug_info0:
 874 0000 29120000 		.4byte	0x1229
 875 0004 0400     		.2byte	0x4
 876 0006 00000000 		.4byte	.Ldebug_abbrev0
 877 000a 04       		.byte	0x4
 878 000b 01       		.uleb128 0x1
 879 000c 64020000 		.4byte	.LASF134
 880 0010 01       		.byte	0x1
 881 0011 5A000000 		.4byte	.LASF135
 882 0015 8F010000 		.4byte	.LASF136
 883 0019 C0000000 		.4byte	.Ldebug_ranges0+0xc0
 884 001d 00000000 		.4byte	0
 885 0021 00000000 		.4byte	.Ldebug_line0
 886 0025 02       		.uleb128 0x2
 887 0026 04       		.byte	0x4
 888 0027 05       		.byte	0x5
 889 0028 696E7400 		.ascii	"int\000"
 890 002c 03       		.uleb128 0x3
 891 002d 04       		.byte	0x4
 892 002e 07       		.byte	0x7
 893 002f 57020000 		.4byte	.LASF0
 894 0033 03       		.uleb128 0x3
 895 0034 01       		.byte	0x1
 896 0035 06       		.byte	0x6
 897 0036 55010000 		.4byte	.LASF1
 898 003a 04       		.uleb128 0x4
 899 003b 50000000 		.4byte	.LASF5
 900 003f 05       		.byte	0x5
 901 0040 1D       		.byte	0x1d
 902 0041 45000000 		.4byte	0x45
 903 0045 03       		.uleb128 0x3
 904 0046 01       		.byte	0x1
 905 0047 08       		.byte	0x8
 906 0048 23050000 		.4byte	.LASF2
 907 004c 03       		.uleb128 0x3
 908 004d 02       		.byte	0x2
 909 004e 05       		.byte	0x5
 910 004f 31050000 		.4byte	.LASF3
 911 0053 03       		.uleb128 0x3
 912 0054 02       		.byte	0x2
ARM GAS  /tmp/ccYi4OMh.s 			page 17


 913 0055 07       		.byte	0x7
 914 0056 77030000 		.4byte	.LASF4
 915 005a 04       		.uleb128 0x4
 916 005b 0D040000 		.4byte	.LASF6
 917 005f 05       		.byte	0x5
 918 0060 3F       		.byte	0x3f
 919 0061 65000000 		.4byte	0x65
 920 0065 03       		.uleb128 0x3
 921 0066 04       		.byte	0x4
 922 0067 05       		.byte	0x5
 923 0068 D9010000 		.4byte	.LASF7
 924 006c 04       		.uleb128 0x4
 925 006d 07020000 		.4byte	.LASF8
 926 0071 05       		.byte	0x5
 927 0072 41       		.byte	0x41
 928 0073 77000000 		.4byte	0x77
 929 0077 03       		.uleb128 0x3
 930 0078 04       		.byte	0x4
 931 0079 07       		.byte	0x7
 932 007a D3050000 		.4byte	.LASF9
 933 007e 03       		.uleb128 0x3
 934 007f 08       		.byte	0x8
 935 0080 05       		.byte	0x5
 936 0081 47010000 		.4byte	.LASF10
 937 0085 04       		.uleb128 0x4
 938 0086 D1040000 		.4byte	.LASF11
 939 008a 05       		.byte	0x5
 940 008b 5B       		.byte	0x5b
 941 008c 90000000 		.4byte	0x90
 942 0090 03       		.uleb128 0x3
 943 0091 08       		.byte	0x8
 944 0092 07       		.byte	0x7
 945 0093 71010000 		.4byte	.LASF12
 946 0097 04       		.uleb128 0x4
 947 0098 A5060000 		.4byte	.LASF13
 948 009c 06       		.byte	0x6
 949 009d 14       		.byte	0x14
 950 009e 3A000000 		.4byte	0x3a
 951 00a2 04       		.uleb128 0x4
 952 00a3 1B050000 		.4byte	.LASF14
 953 00a7 06       		.byte	0x6
 954 00a8 1F       		.byte	0x1f
 955 00a9 5A000000 		.4byte	0x5a
 956 00ad 04       		.uleb128 0x4
 957 00ae A1050000 		.4byte	.LASF15
 958 00b2 06       		.byte	0x6
 959 00b3 20       		.byte	0x20
 960 00b4 6C000000 		.4byte	0x6c
 961 00b8 04       		.uleb128 0x4
 962 00b9 3A000000 		.4byte	.LASF16
 963 00bd 06       		.byte	0x6
 964 00be 26       		.byte	0x26
 965 00bf 85000000 		.4byte	0x85
 966 00c3 04       		.uleb128 0x4
 967 00c4 65060000 		.4byte	.LASF17
 968 00c8 07       		.byte	0x7
 969 00c9 39       		.byte	0x39
ARM GAS  /tmp/ccYi4OMh.s 			page 18


 970 00ca AD000000 		.4byte	0xad
 971 00ce 04       		.uleb128 0x4
 972 00cf 3E010000 		.4byte	.LASF18
 973 00d3 07       		.byte	0x7
 974 00d4 3A       		.byte	0x3a
 975 00d5 B8000000 		.4byte	0xb8
 976 00d9 04       		.uleb128 0x4
 977 00da CF030000 		.4byte	.LASF19
 978 00de 07       		.byte	0x7
 979 00df 3C       		.byte	0x3c
 980 00e0 97000000 		.4byte	0x97
 981 00e4 04       		.uleb128 0x4
 982 00e5 E2010000 		.4byte	.LASF20
 983 00e9 07       		.byte	0x7
 984 00ea 3D       		.byte	0x3d
 985 00eb 97000000 		.4byte	0x97
 986 00ef 04       		.uleb128 0x4
 987 00f0 E7040000 		.4byte	.LASF21
 988 00f4 07       		.byte	0x7
 989 00f5 3E       		.byte	0x3e
 990 00f6 97000000 		.4byte	0x97
 991 00fa 04       		.uleb128 0x4
 992 00fb 04050000 		.4byte	.LASF22
 993 00ff 07       		.byte	0x7
 994 0100 40       		.byte	0x40
 995 0101 AD000000 		.4byte	0xad
 996 0105 04       		.uleb128 0x4
 997 0106 A8030000 		.4byte	.LASF23
 998 010a 07       		.byte	0x7
 999 010b 41       		.byte	0x41
 1000 010c A2000000 		.4byte	0xa2
 1001 0110 04       		.uleb128 0x4
 1002 0111 F0030000 		.4byte	.LASF24
 1003 0115 07       		.byte	0x7
 1004 0116 43       		.byte	0x43
 1005 0117 AD000000 		.4byte	0xad
 1006 011b 04       		.uleb128 0x4
 1007 011c 51020000 		.4byte	.LASF25
 1008 0120 07       		.byte	0x7
 1009 0121 45       		.byte	0x45
 1010 0122 A2000000 		.4byte	0xa2
 1011 0126 04       		.uleb128 0x4
 1012 0127 B3030000 		.4byte	.LASF26
 1013 012b 07       		.byte	0x7
 1014 012c 46       		.byte	0x46
 1015 012d AD000000 		.4byte	0xad
 1016 0131 04       		.uleb128 0x4
 1017 0132 29060000 		.4byte	.LASF27
 1018 0136 08       		.byte	0x8
 1019 0137 33       		.byte	0x33
 1020 0138 AD000000 		.4byte	0xad
 1021 013c 04       		.uleb128 0x4
 1022 013d 09060000 		.4byte	.LASF28
 1023 0141 08       		.byte	0x8
 1024 0142 3F       		.byte	0x3f
 1025 0143 47010000 		.4byte	0x147
 1026 0147 05       		.uleb128 0x5
ARM GAS  /tmp/ccYi4OMh.s 			page 19


 1027 0148 99030000 		.4byte	.LASF47
 1028 014c 60       		.byte	0x60
 1029 014d 02       		.byte	0x2
 1030 014e 9A       		.byte	0x9a
 1031 014f 32020000 		.4byte	0x232
 1032 0153 06       		.uleb128 0x6
 1033 0154 6B030000 		.4byte	.LASF29
 1034 0158 02       		.byte	0x2
 1035 0159 9B       		.byte	0x9b
 1036 015a 67020000 		.4byte	0x267
 1037 015e 00       		.byte	0
 1038 015f 06       		.uleb128 0x6
 1039 0160 C4040000 		.4byte	.LASF30
 1040 0164 02       		.byte	0x2
 1041 0165 9C       		.byte	0x9c
 1042 0166 FA000000 		.4byte	0xfa
 1043 016a 08       		.byte	0x8
 1044 016b 07       		.uleb128 0x7
 1045 016c 63747800 		.ascii	"ctx\000"
 1046 0170 02       		.byte	0x2
 1047 0171 9D       		.byte	0x9d
 1048 0172 6C040000 		.4byte	0x46c
 1049 0176 0C       		.byte	0xc
 1050 0177 06       		.uleb128 0x6
 1051 0178 38040000 		.4byte	.LASF31
 1052 017c 02       		.byte	0x2
 1053 017d 9F       		.byte	0x9f
 1054 017e 3D020000 		.4byte	0x23d
 1055 0182 10       		.byte	0x10
 1056 0183 06       		.uleb128 0x6
 1057 0184 F1050000 		.4byte	.LASF32
 1058 0188 02       		.byte	0x2
 1059 0189 A0       		.byte	0xa0
 1060 018a 3D020000 		.4byte	0x23d
 1061 018e 14       		.byte	0x14
 1062 018f 06       		.uleb128 0x6
 1063 0190 A3030000 		.4byte	.LASF33
 1064 0194 02       		.byte	0x2
 1065 0195 A7       		.byte	0xa7
 1066 0196 53070000 		.4byte	0x753
 1067 019a 18       		.byte	0x18
 1068 019b 06       		.uleb128 0x6
 1069 019c E5050000 		.4byte	.LASF34
 1070 01a0 02       		.byte	0x2
 1071 01a1 B0       		.byte	0xb0
 1072 01a2 65070000 		.4byte	0x765
 1073 01a6 1C       		.byte	0x1c
 1074 01a7 06       		.uleb128 0x6
 1075 01a8 D3010000 		.4byte	.LASF35
 1076 01ac 02       		.byte	0x2
 1077 01ad B5       		.byte	0xb5
 1078 01ae E4000000 		.4byte	0xe4
 1079 01b2 20       		.byte	0x20
 1080 01b3 06       		.uleb128 0x6
 1081 01b4 AD060000 		.4byte	.LASF36
 1082 01b8 02       		.byte	0x2
 1083 01b9 B9       		.byte	0xb9
ARM GAS  /tmp/ccYi4OMh.s 			page 20


 1084 01ba D9000000 		.4byte	0xd9
 1085 01be 21       		.byte	0x21
 1086 01bf 06       		.uleb128 0x6
 1087 01c0 EF040000 		.4byte	.LASF37
 1088 01c4 02       		.byte	0x2
 1089 01c5 BE       		.byte	0xbe
 1090 01c6 EF000000 		.4byte	0xef
 1091 01ca 22       		.byte	0x22
 1092 01cb 08       		.uleb128 0x8
 1093 01cc 7500     		.ascii	"u\000"
 1094 01ce 02       		.byte	0x2
 1095 01cf 0F01     		.2byte	0x10f
 1096 01d1 88060000 		.4byte	0x688
 1097 01d5 24       		.byte	0x24
 1098 01d6 09       		.uleb128 0x9
 1099 01d7 2B020000 		.4byte	.LASF38
 1100 01db 02       		.byte	0x2
 1101 01dc 1401     		.2byte	0x114
 1102 01de 43020000 		.4byte	0x243
 1103 01e2 28       		.byte	0x28
 1104 01e3 09       		.uleb128 0x9
 1105 01e4 CA010000 		.4byte	.LASF39
 1106 01e8 02       		.byte	0x2
 1107 01e9 1A01     		.2byte	0x11a
 1108 01eb 67020000 		.4byte	0x267
 1109 01ef 2C       		.byte	0x2c
 1110 01f0 09       		.uleb128 0x9
 1111 01f1 BA030000 		.4byte	.LASF40
 1112 01f5 02       		.byte	0x2
 1113 01f6 2001     		.2byte	0x120
 1114 01f8 10010000 		.4byte	0x110
 1115 01fc 34       		.byte	0x34
 1116 01fd 09       		.uleb128 0x9
 1117 01fe 08070000 		.4byte	.LASF41
 1118 0202 02       		.byte	0x2
 1119 0203 2701     		.2byte	0x127
 1120 0205 4D070000 		.4byte	0x74d
 1121 0209 38       		.byte	0x38
 1122 020a 09       		.uleb128 0x9
 1123 020b 3E040000 		.4byte	.LASF42
 1124 020f 02       		.byte	0x2
 1125 0210 2B01     		.2byte	0x12b
 1126 0212 FA000000 		.4byte	0xfa
 1127 0216 3C       		.byte	0x3c
 1128 0217 09       		.uleb128 0x9
 1129 0218 71030000 		.4byte	.LASF43
 1130 021c 02       		.byte	0x2
 1131 021d 3201     		.2byte	0x132
 1132 021f 1A030000 		.4byte	0x31a
 1133 0223 40       		.byte	0x40
 1134 0224 09       		.uleb128 0x9
 1135 0225 F0010000 		.4byte	.LASF44
 1136 0229 02       		.byte	0x2
 1137 022a 3801     		.2byte	0x138
 1138 022c 39060000 		.4byte	0x639
 1139 0230 48       		.byte	0x48
 1140 0231 00       		.byte	0
ARM GAS  /tmp/ccYi4OMh.s 			page 21


 1141 0232 04       		.uleb128 0x4
 1142 0233 6D040000 		.4byte	.LASF45
 1143 0237 08       		.byte	0x8
 1144 0238 44       		.byte	0x44
 1145 0239 3D020000 		.4byte	0x23d
 1146 023d 0A       		.uleb128 0xa
 1147 023e 04       		.byte	0x4
 1148 023f 3C010000 		.4byte	0x13c
 1149 0243 04       		.uleb128 0x4
 1150 0244 D8060000 		.4byte	.LASF46
 1151 0248 08       		.byte	0x8
 1152 0249 49       		.byte	0x49
 1153 024a 4E020000 		.4byte	0x24e
 1154 024e 05       		.uleb128 0x5
 1155 024f BD050000 		.4byte	.LASF48
 1156 0253 04       		.byte	0x4
 1157 0254 02       		.byte	0x2
 1158 0255 88       		.byte	0x88
 1159 0256 67020000 		.4byte	0x267
 1160 025a 06       		.uleb128 0x6
 1161 025b 39010000 		.4byte	.LASF49
 1162 025f 02       		.byte	0x2
 1163 0260 89       		.byte	0x89
 1164 0261 3D020000 		.4byte	0x23d
 1165 0265 00       		.byte	0
 1166 0266 00       		.byte	0
 1167 0267 04       		.uleb128 0x4
 1168 0268 7A060000 		.4byte	.LASF50
 1169 026c 08       		.byte	0x8
 1170 026d 50       		.byte	0x50
 1171 026e 72020000 		.4byte	0x272
 1172 0272 05       		.uleb128 0x5
 1173 0273 93000000 		.4byte	.LASF51
 1174 0277 08       		.byte	0x8
 1175 0278 02       		.byte	0x2
 1176 0279 8F       		.byte	0x8f
 1177 027a 97020000 		.4byte	0x297
 1178 027e 06       		.uleb128 0x6
 1179 027f 39010000 		.4byte	.LASF49
 1180 0283 02       		.byte	0x2
 1181 0284 90       		.byte	0x90
 1182 0285 3D020000 		.4byte	0x23d
 1183 0289 00       		.byte	0
 1184 028a 06       		.uleb128 0x6
 1185 028b 82000000 		.4byte	.LASF52
 1186 028f 02       		.byte	0x2
 1187 0290 91       		.byte	0x91
 1188 0291 3D020000 		.4byte	0x23d
 1189 0295 04       		.byte	0x4
 1190 0296 00       		.byte	0
 1191 0297 04       		.uleb128 0x4
 1192 0298 00000000 		.4byte	.LASF53
 1193 029c 08       		.byte	0x8
 1194 029d 57       		.byte	0x57
 1195 029e A2020000 		.4byte	0x2a2
 1196 02a2 0B       		.uleb128 0xb
 1197 02a3 E2030000 		.4byte	.LASF54
ARM GAS  /tmp/ccYi4OMh.s 			page 22


 1198 02a7 1C       		.byte	0x1c
 1199 02a8 02       		.byte	0x2
 1200 02a9 6A01     		.2byte	0x16a
 1201 02ab FE020000 		.4byte	0x2fe
 1202 02af 09       		.uleb128 0x9
 1203 02b0 6B030000 		.4byte	.LASF29
 1204 02b4 02       		.byte	0x2
 1205 02b5 6B01     		.2byte	0x16b
 1206 02b7 67020000 		.4byte	0x267
 1207 02bb 00       		.byte	0
 1208 02bc 09       		.uleb128 0x9
 1209 02bd C4040000 		.4byte	.LASF30
 1210 02c1 02       		.byte	0x2
 1211 02c2 6C01     		.2byte	0x16c
 1212 02c4 FA000000 		.4byte	0xfa
 1213 02c8 08       		.byte	0x8
 1214 02c9 08       		.uleb128 0x8
 1215 02ca 63747800 		.ascii	"ctx\000"
 1216 02ce 02       		.byte	0x2
 1217 02cf 6E01     		.2byte	0x16e
 1218 02d1 6C040000 		.4byte	0x46c
 1219 02d5 0C       		.byte	0xc
 1220 02d6 09       		.uleb128 0x9
 1221 02d7 38040000 		.4byte	.LASF31
 1222 02db 02       		.byte	0x2
 1223 02dc 7101     		.2byte	0x171
 1224 02de 3D020000 		.4byte	0x23d
 1225 02e2 10       		.byte	0x10
 1226 02e3 09       		.uleb128 0x9
 1227 02e4 F1050000 		.4byte	.LASF32
 1228 02e8 02       		.byte	0x2
 1229 02e9 7201     		.2byte	0x172
 1230 02eb 3D020000 		.4byte	0x23d
 1231 02ef 14       		.byte	0x14
 1232 02f0 09       		.uleb128 0x9
 1233 02f1 C9040000 		.4byte	.LASF55
 1234 02f5 02       		.byte	0x2
 1235 02f6 7501     		.2byte	0x175
 1236 02f8 3D020000 		.4byte	0x23d
 1237 02fc 18       		.byte	0x18
 1238 02fd 00       		.byte	0
 1239 02fe 04       		.uleb128 0x4
 1240 02ff 33060000 		.4byte	.LASF56
 1241 0303 08       		.byte	0x8
 1242 0304 5C       		.byte	0x5c
 1243 0305 09030000 		.4byte	0x309
 1244 0309 0A       		.uleb128 0xa
 1245 030a 04       		.byte	0x4
 1246 030b 0F030000 		.4byte	0x30f
 1247 030f 0C       		.uleb128 0xc
 1248 0310 1A030000 		.4byte	0x31a
 1249 0314 0D       		.uleb128 0xd
 1250 0315 1A030000 		.4byte	0x31a
 1251 0319 00       		.byte	0
 1252 031a 0E       		.uleb128 0xe
 1253 031b 04       		.byte	0x4
 1254 031c 04       		.uleb128 0x4
ARM GAS  /tmp/ccYi4OMh.s 			page 23


 1255 031d F4040000 		.4byte	.LASF57
 1256 0321 08       		.byte	0x8
 1257 0322 61       		.byte	0x61
 1258 0323 27030000 		.4byte	0x327
 1259 0327 0B       		.uleb128 0xb
 1260 0328 75050000 		.4byte	.LASF58
 1261 032c 14       		.byte	0x14
 1262 032d 02       		.byte	0x2
 1263 032e 4501     		.2byte	0x145
 1264 0330 76030000 		.4byte	0x376
 1265 0334 09       		.uleb128 0x9
 1266 0335 39010000 		.4byte	.LASF49
 1267 0339 02       		.byte	0x2
 1268 033a 4601     		.2byte	0x146
 1269 033c 6B070000 		.4byte	0x76b
 1270 0340 00       		.byte	0
 1271 0341 09       		.uleb128 0x9
 1272 0342 82000000 		.4byte	.LASF52
 1273 0346 02       		.byte	0x2
 1274 0347 4701     		.2byte	0x147
 1275 0349 6B070000 		.4byte	0x76b
 1276 034d 04       		.byte	0x4
 1277 034e 09       		.uleb128 0x9
 1278 034f 2D000000 		.4byte	.LASF59
 1279 0353 02       		.byte	0x2
 1280 0354 4801     		.2byte	0x148
 1281 0356 31010000 		.4byte	0x131
 1282 035a 08       		.byte	0x8
 1283 035b 09       		.uleb128 0x9
 1284 035c EB010000 		.4byte	.LASF60
 1285 0360 02       		.byte	0x2
 1286 0361 4901     		.2byte	0x149
 1287 0363 FE020000 		.4byte	0x2fe
 1288 0367 0C       		.byte	0xc
 1289 0368 08       		.uleb128 0x8
 1290 0369 70617200 		.ascii	"par\000"
 1291 036d 02       		.byte	0x2
 1292 036e 4B01     		.2byte	0x14b
 1293 0370 1A030000 		.4byte	0x31a
 1294 0374 10       		.byte	0x10
 1295 0375 00       		.byte	0
 1296 0376 04       		.uleb128 0x4
 1297 0377 17040000 		.4byte	.LASF61
 1298 037b 08       		.byte	0x8
 1299 037c 66       		.byte	0x66
 1300 037d 81030000 		.4byte	0x381
 1301 0381 0B       		.uleb128 0xb
 1302 0382 80040000 		.4byte	.LASF62
 1303 0386 10       		.byte	0x10
 1304 0387 02       		.byte	0x2
 1305 0388 5501     		.2byte	0x155
 1306 038a C3030000 		.4byte	0x3c3
 1307 038e 09       		.uleb128 0x9
 1308 038f 39010000 		.4byte	.LASF49
 1309 0393 02       		.byte	0x2
 1310 0394 5601     		.2byte	0x156
 1311 0396 6B070000 		.4byte	0x76b
ARM GAS  /tmp/ccYi4OMh.s 			page 24


 1312 039a 00       		.byte	0
 1313 039b 09       		.uleb128 0x9
 1314 039c 82000000 		.4byte	.LASF52
 1315 03a0 02       		.byte	0x2
 1316 03a1 5801     		.2byte	0x158
 1317 03a3 6B070000 		.4byte	0x76b
 1318 03a7 04       		.byte	0x4
 1319 03a8 09       		.uleb128 0x9
 1320 03a9 2D000000 		.4byte	.LASF59
 1321 03ad 02       		.byte	0x2
 1322 03ae 5A01     		.2byte	0x15a
 1323 03b0 31010000 		.4byte	0x131
 1324 03b4 08       		.byte	0x8
 1325 03b5 09       		.uleb128 0x9
 1326 03b6 3B050000 		.4byte	.LASF63
 1327 03ba 02       		.byte	0x2
 1328 03bb 6201     		.2byte	0x162
 1329 03bd 31010000 		.4byte	0x131
 1330 03c1 0C       		.byte	0xc
 1331 03c2 00       		.byte	0
 1332 03c3 04       		.uleb128 0x4
 1333 03c4 A4000000 		.4byte	.LASF64
 1334 03c8 08       		.byte	0x8
 1335 03c9 6B       		.byte	0x6b
 1336 03ca CE030000 		.4byte	0x3ce
 1337 03ce 0B       		.uleb128 0xb
 1338 03cf 1B020000 		.4byte	.LASF65
 1339 03d3 04       		.byte	0x4
 1340 03d4 02       		.byte	0x2
 1341 03d5 7C01     		.2byte	0x17c
 1342 03d7 E9030000 		.4byte	0x3e9
 1343 03db 09       		.uleb128 0x9
 1344 03dc 54060000 		.4byte	.LASF66
 1345 03e0 02       		.byte	0x2
 1346 03e1 8401     		.2byte	0x184
 1347 03e3 71070000 		.4byte	0x771
 1348 03e7 00       		.byte	0
 1349 03e8 00       		.byte	0
 1350 03e9 04       		.uleb128 0x4
 1351 03ea C3030000 		.4byte	.LASF67
 1352 03ee 08       		.byte	0x8
 1353 03ef 70       		.byte	0x70
 1354 03f0 F4030000 		.4byte	0x3f4
 1355 03f4 0B       		.uleb128 0xb
 1356 03f5 4B050000 		.4byte	.LASF68
 1357 03f9 D0       		.byte	0xd0
 1358 03fa 02       		.byte	0x2
 1359 03fb 9C01     		.2byte	0x19c
 1360 03fd 4F040000 		.4byte	0x44f
 1361 0401 09       		.uleb128 0x9
 1362 0402 9F060000 		.4byte	.LASF69
 1363 0406 02       		.byte	0x2
 1364 0407 A001     		.2byte	0x1a0
 1365 0409 97020000 		.4byte	0x297
 1366 040d 00       		.byte	0
 1367 040e 09       		.uleb128 0x9
 1368 040f 88010000 		.4byte	.LASF70
ARM GAS  /tmp/ccYi4OMh.s 			page 25


 1369 0413 02       		.byte	0x2
 1370 0414 A401     		.2byte	0x1a4
 1371 0416 76030000 		.4byte	0x376
 1372 041a 1C       		.byte	0x1c
 1373 041b 08       		.uleb128 0x8
 1374 041c 64626700 		.ascii	"dbg\000"
 1375 0420 02       		.byte	0x2
 1376 0421 A801     		.2byte	0x1a8
 1377 0423 C3030000 		.4byte	0x3c3
 1378 0427 2C       		.byte	0x2c
 1379 0428 09       		.uleb128 0x9
 1380 0429 08010000 		.4byte	.LASF71
 1381 042d 02       		.byte	0x2
 1382 042e AC01     		.2byte	0x1ac
 1383 0430 3C010000 		.4byte	0x13c
 1384 0434 30       		.byte	0x30
 1385 0435 08       		.uleb128 0x8
 1386 0436 746D00   		.ascii	"tm\000"
 1387 0439 02       		.byte	0x2
 1388 043a B101     		.2byte	0x1b1
 1389 043c EB050000 		.4byte	0x5eb
 1390 0440 90       		.byte	0x90
 1391 0441 09       		.uleb128 0x9
 1392 0442 43000000 		.4byte	.LASF72
 1393 0446 02       		.byte	0x2
 1394 0447 B701     		.2byte	0x1b7
 1395 0449 7D060000 		.4byte	0x67d
 1396 044d 98       		.byte	0x98
 1397 044e 00       		.byte	0
 1398 044f 03       		.uleb128 0x3
 1399 0450 04       		.byte	0x4
 1400 0451 07       		.byte	0x7
 1401 0452 64040000 		.4byte	.LASF73
 1402 0456 04       		.uleb128 0x4
 1403 0457 12020000 		.4byte	.LASF74
 1404 045b 09       		.byte	0x9
 1405 045c 65       		.byte	0x65
 1406 045d 1A030000 		.4byte	0x31a
 1407 0461 04       		.uleb128 0x4
 1408 0462 2D040000 		.4byte	.LASF75
 1409 0466 09       		.byte	0x9
 1410 0467 6D       		.byte	0x6d
 1411 0468 B8000000 		.4byte	0xb8
 1412 046c 05       		.uleb128 0x5
 1413 046d A1040000 		.4byte	.LASF76
 1414 0471 04       		.byte	0x4
 1415 0472 09       		.byte	0x9
 1416 0473 89       		.byte	0x89
 1417 0474 84040000 		.4byte	0x484
 1418 0478 07       		.uleb128 0x7
 1419 0479 737000   		.ascii	"sp\000"
 1420 047c 09       		.byte	0x9
 1421 047d 8A       		.byte	0x8a
 1422 047e D0050000 		.4byte	0x5d0
 1423 0482 00       		.byte	0
 1424 0483 00       		.byte	0
 1425 0484 0B       		.uleb128 0xb
ARM GAS  /tmp/ccYi4OMh.s 			page 26


 1426 0485 87000000 		.4byte	.LASF77
 1427 0489 64       		.byte	0x64
 1428 048a 0A       		.byte	0xa
 1429 048b 5901     		.2byte	0x159
 1430 048d D0050000 		.4byte	0x5d0
 1431 0491 08       		.uleb128 0x8
 1432 0492 73313600 		.ascii	"s16\000"
 1433 0496 0A       		.byte	0xa
 1434 0497 5B01     		.2byte	0x15b
 1435 0499 56040000 		.4byte	0x456
 1436 049d 00       		.byte	0
 1437 049e 08       		.uleb128 0x8
 1438 049f 73313700 		.ascii	"s17\000"
 1439 04a3 0A       		.byte	0xa
 1440 04a4 5C01     		.2byte	0x15c
 1441 04a6 56040000 		.4byte	0x456
 1442 04aa 04       		.byte	0x4
 1443 04ab 08       		.uleb128 0x8
 1444 04ac 73313800 		.ascii	"s18\000"
 1445 04b0 0A       		.byte	0xa
 1446 04b1 5D01     		.2byte	0x15d
 1447 04b3 56040000 		.4byte	0x456
 1448 04b7 08       		.byte	0x8
 1449 04b8 08       		.uleb128 0x8
 1450 04b9 73313900 		.ascii	"s19\000"
 1451 04bd 0A       		.byte	0xa
 1452 04be 5E01     		.2byte	0x15e
 1453 04c0 56040000 		.4byte	0x456
 1454 04c4 0C       		.byte	0xc
 1455 04c5 08       		.uleb128 0x8
 1456 04c6 73323000 		.ascii	"s20\000"
 1457 04ca 0A       		.byte	0xa
 1458 04cb 5F01     		.2byte	0x15f
 1459 04cd 56040000 		.4byte	0x456
 1460 04d1 10       		.byte	0x10
 1461 04d2 08       		.uleb128 0x8
 1462 04d3 73323100 		.ascii	"s21\000"
 1463 04d7 0A       		.byte	0xa
 1464 04d8 6001     		.2byte	0x160
 1465 04da 56040000 		.4byte	0x456
 1466 04de 14       		.byte	0x14
 1467 04df 08       		.uleb128 0x8
 1468 04e0 73323200 		.ascii	"s22\000"
 1469 04e4 0A       		.byte	0xa
 1470 04e5 6101     		.2byte	0x161
 1471 04e7 56040000 		.4byte	0x456
 1472 04eb 18       		.byte	0x18
 1473 04ec 08       		.uleb128 0x8
 1474 04ed 73323300 		.ascii	"s23\000"
 1475 04f1 0A       		.byte	0xa
 1476 04f2 6201     		.2byte	0x162
 1477 04f4 56040000 		.4byte	0x456
 1478 04f8 1C       		.byte	0x1c
 1479 04f9 08       		.uleb128 0x8
 1480 04fa 73323400 		.ascii	"s24\000"
 1481 04fe 0A       		.byte	0xa
 1482 04ff 6301     		.2byte	0x163
ARM GAS  /tmp/ccYi4OMh.s 			page 27


 1483 0501 56040000 		.4byte	0x456
 1484 0505 20       		.byte	0x20
 1485 0506 08       		.uleb128 0x8
 1486 0507 73323500 		.ascii	"s25\000"
 1487 050b 0A       		.byte	0xa
 1488 050c 6401     		.2byte	0x164
 1489 050e 56040000 		.4byte	0x456
 1490 0512 24       		.byte	0x24
 1491 0513 08       		.uleb128 0x8
 1492 0514 73323600 		.ascii	"s26\000"
 1493 0518 0A       		.byte	0xa
 1494 0519 6501     		.2byte	0x165
 1495 051b 56040000 		.4byte	0x456
 1496 051f 28       		.byte	0x28
 1497 0520 08       		.uleb128 0x8
 1498 0521 73323700 		.ascii	"s27\000"
 1499 0525 0A       		.byte	0xa
 1500 0526 6601     		.2byte	0x166
 1501 0528 56040000 		.4byte	0x456
 1502 052c 2C       		.byte	0x2c
 1503 052d 08       		.uleb128 0x8
 1504 052e 73323800 		.ascii	"s28\000"
 1505 0532 0A       		.byte	0xa
 1506 0533 6701     		.2byte	0x167
 1507 0535 56040000 		.4byte	0x456
 1508 0539 30       		.byte	0x30
 1509 053a 08       		.uleb128 0x8
 1510 053b 73323900 		.ascii	"s29\000"
 1511 053f 0A       		.byte	0xa
 1512 0540 6801     		.2byte	0x168
 1513 0542 56040000 		.4byte	0x456
 1514 0546 34       		.byte	0x34
 1515 0547 08       		.uleb128 0x8
 1516 0548 73333000 		.ascii	"s30\000"
 1517 054c 0A       		.byte	0xa
 1518 054d 6901     		.2byte	0x169
 1519 054f 56040000 		.4byte	0x456
 1520 0553 38       		.byte	0x38
 1521 0554 08       		.uleb128 0x8
 1522 0555 73333100 		.ascii	"s31\000"
 1523 0559 0A       		.byte	0xa
 1524 055a 6A01     		.2byte	0x16a
 1525 055c 56040000 		.4byte	0x456
 1526 0560 3C       		.byte	0x3c
 1527 0561 08       		.uleb128 0x8
 1528 0562 723400   		.ascii	"r4\000"
 1529 0565 0A       		.byte	0xa
 1530 0566 6C01     		.2byte	0x16c
 1531 0568 56040000 		.4byte	0x456
 1532 056c 40       		.byte	0x40
 1533 056d 08       		.uleb128 0x8
 1534 056e 723500   		.ascii	"r5\000"
 1535 0571 0A       		.byte	0xa
 1536 0572 6D01     		.2byte	0x16d
 1537 0574 56040000 		.4byte	0x456
 1538 0578 44       		.byte	0x44
 1539 0579 08       		.uleb128 0x8
ARM GAS  /tmp/ccYi4OMh.s 			page 28


 1540 057a 723600   		.ascii	"r6\000"
 1541 057d 0A       		.byte	0xa
 1542 057e 6E01     		.2byte	0x16e
 1543 0580 56040000 		.4byte	0x456
 1544 0584 48       		.byte	0x48
 1545 0585 08       		.uleb128 0x8
 1546 0586 723700   		.ascii	"r7\000"
 1547 0589 0A       		.byte	0xa
 1548 058a 6F01     		.2byte	0x16f
 1549 058c 56040000 		.4byte	0x456
 1550 0590 4C       		.byte	0x4c
 1551 0591 08       		.uleb128 0x8
 1552 0592 723800   		.ascii	"r8\000"
 1553 0595 0A       		.byte	0xa
 1554 0596 7001     		.2byte	0x170
 1555 0598 56040000 		.4byte	0x456
 1556 059c 50       		.byte	0x50
 1557 059d 08       		.uleb128 0x8
 1558 059e 723900   		.ascii	"r9\000"
 1559 05a1 0A       		.byte	0xa
 1560 05a2 7101     		.2byte	0x171
 1561 05a4 56040000 		.4byte	0x456
 1562 05a8 54       		.byte	0x54
 1563 05a9 08       		.uleb128 0x8
 1564 05aa 72313000 		.ascii	"r10\000"
 1565 05ae 0A       		.byte	0xa
 1566 05af 7201     		.2byte	0x172
 1567 05b1 56040000 		.4byte	0x456
 1568 05b5 58       		.byte	0x58
 1569 05b6 08       		.uleb128 0x8
 1570 05b7 72313100 		.ascii	"r11\000"
 1571 05bb 0A       		.byte	0xa
 1572 05bc 7301     		.2byte	0x173
 1573 05be 56040000 		.4byte	0x456
 1574 05c2 5C       		.byte	0x5c
 1575 05c3 08       		.uleb128 0x8
 1576 05c4 6C7200   		.ascii	"lr\000"
 1577 05c7 0A       		.byte	0xa
 1578 05c8 7401     		.2byte	0x174
 1579 05ca 56040000 		.4byte	0x456
 1580 05ce 60       		.byte	0x60
 1581 05cf 00       		.byte	0
 1582 05d0 0A       		.uleb128 0xa
 1583 05d1 04       		.byte	0x4
 1584 05d2 84040000 		.4byte	0x484
 1585 05d6 0F       		.uleb128 0xf
 1586 05d7 04       		.byte	0x4
 1587 05d8 0B       		.byte	0xb
 1588 05d9 38       		.byte	0x38
 1589 05da EB050000 		.4byte	0x5eb
 1590 05de 06       		.uleb128 0x6
 1591 05df 5E060000 		.4byte	.LASF78
 1592 05e3 0B       		.byte	0xb
 1593 05e4 3C       		.byte	0x3c
 1594 05e5 C3000000 		.4byte	0xc3
 1595 05e9 00       		.byte	0
 1596 05ea 00       		.byte	0
ARM GAS  /tmp/ccYi4OMh.s 			page 29


 1597 05eb 04       		.uleb128 0x4
 1598 05ec AE040000 		.4byte	.LASF79
 1599 05f0 0B       		.byte	0xb
 1600 05f1 3D       		.byte	0x3d
 1601 05f2 D6050000 		.4byte	0x5d6
 1602 05f6 0F       		.uleb128 0xf
 1603 05f7 18       		.byte	0x18
 1604 05f8 0B       		.byte	0xb
 1605 05f9 48       		.byte	0x48
 1606 05fa 39060000 		.4byte	0x639
 1607 05fe 06       		.uleb128 0x6
 1608 05ff 12060000 		.4byte	.LASF80
 1609 0603 0B       		.byte	0xb
 1610 0604 49       		.byte	0x49
 1611 0605 C3000000 		.4byte	0xc3
 1612 0609 00       		.byte	0
 1613 060a 06       		.uleb128 0x6
 1614 060b C8000000 		.4byte	.LASF81
 1615 060f 0B       		.byte	0xb
 1616 0610 4A       		.byte	0x4a
 1617 0611 C3000000 		.4byte	0xc3
 1618 0615 04       		.byte	0x4
 1619 0616 06       		.uleb128 0x6
 1620 0617 AE030000 		.4byte	.LASF82
 1621 061b 0B       		.byte	0xb
 1622 061c 4B       		.byte	0x4b
 1623 061d C3000000 		.4byte	0xc3
 1624 0621 08       		.byte	0x8
 1625 0622 07       		.uleb128 0x7
 1626 0623 6E00     		.ascii	"n\000"
 1627 0625 0B       		.byte	0xb
 1628 0626 4C       		.byte	0x4c
 1629 0627 26010000 		.4byte	0x126
 1630 062b 0C       		.byte	0xc
 1631 062c 06       		.uleb128 0x6
 1632 062d DC040000 		.4byte	.LASF83
 1633 0631 0B       		.byte	0xb
 1634 0632 4D       		.byte	0x4d
 1635 0633 CE000000 		.4byte	0xce
 1636 0637 10       		.byte	0x10
 1637 0638 00       		.byte	0
 1638 0639 04       		.uleb128 0x4
 1639 063a E0000000 		.4byte	.LASF84
 1640 063e 0B       		.byte	0xb
 1641 063f 4E       		.byte	0x4e
 1642 0640 F6050000 		.4byte	0x5f6
 1643 0644 0F       		.uleb128 0xf
 1644 0645 38       		.byte	0x38
 1645 0646 0C       		.byte	0xc
 1646 0647 38       		.byte	0x38
 1647 0648 7D060000 		.4byte	0x67d
 1648 064c 06       		.uleb128 0x6
 1649 064d 65030000 		.4byte	.LASF85
 1650 0651 0C       		.byte	0xc
 1651 0652 39       		.byte	0x39
 1652 0653 26010000 		.4byte	0x126
 1653 0657 00       		.byte	0
ARM GAS  /tmp/ccYi4OMh.s 			page 30


 1654 0658 06       		.uleb128 0x6
 1655 0659 0C050000 		.4byte	.LASF86
 1656 065d 0C       		.byte	0xc
 1657 065e 3A       		.byte	0x3a
 1658 065f 26010000 		.4byte	0x126
 1659 0663 04       		.byte	0x4
 1660 0664 06       		.uleb128 0x6
 1661 0665 10070000 		.4byte	.LASF87
 1662 0669 0C       		.byte	0xc
 1663 066a 3B       		.byte	0x3b
 1664 066b 39060000 		.4byte	0x639
 1665 066f 08       		.byte	0x8
 1666 0670 06       		.uleb128 0x6
 1667 0671 D7030000 		.4byte	.LASF88
 1668 0675 0C       		.byte	0xc
 1669 0676 3D       		.byte	0x3d
 1670 0677 39060000 		.4byte	0x639
 1671 067b 20       		.byte	0x20
 1672 067c 00       		.byte	0
 1673 067d 04       		.uleb128 0x4
 1674 067e 8A030000 		.4byte	.LASF89
 1675 0682 0C       		.byte	0xc
 1676 0683 3F       		.byte	0x3f
 1677 0684 44060000 		.4byte	0x644
 1678 0688 10       		.uleb128 0x10
 1679 0689 04       		.byte	0x4
 1680 068a 02       		.byte	0x2
 1681 068b D2       		.byte	0xd2
 1682 068c EB060000 		.4byte	0x6eb
 1683 0690 11       		.uleb128 0x11
 1684 0691 33000000 		.4byte	.LASF90
 1685 0695 02       		.byte	0x2
 1686 0696 D9       		.byte	0xd9
 1687 0697 05010000 		.4byte	0x105
 1688 069b 11       		.uleb128 0x11
 1689 069c FF000000 		.4byte	.LASF91
 1690 06a0 02       		.byte	0x2
 1691 06a1 E0       		.byte	0xe0
 1692 06a2 05010000 		.4byte	0x105
 1693 06a6 11       		.uleb128 0x11
 1694 06a7 D1060000 		.4byte	.LASF92
 1695 06ab 02       		.byte	0x2
 1696 06ac E7       		.byte	0xe7
 1697 06ad 1A030000 		.4byte	0x31a
 1698 06b1 11       		.uleb128 0x11
 1699 06b2 27000000 		.4byte	.LASF93
 1700 06b6 02       		.byte	0x2
 1701 06b7 EE       		.byte	0xee
 1702 06b8 EB060000 		.4byte	0x6eb
 1703 06bc 11       		.uleb128 0x11
 1704 06bd 13010000 		.4byte	.LASF94
 1705 06c1 02       		.byte	0x2
 1706 06c2 F3       		.byte	0xf3
 1707 06c3 05010000 		.4byte	0x105
 1708 06c7 11       		.uleb128 0x11
 1709 06c8 53030000 		.4byte	.LASF95
 1710 06cc 02       		.byte	0x2
ARM GAS  /tmp/ccYi4OMh.s 			page 31


 1711 06cd FC       		.byte	0xfc
 1712 06ce 16070000 		.4byte	0x716
 1713 06d2 12       		.uleb128 0x12
 1714 06d3 AA050000 		.4byte	.LASF96
 1715 06d7 02       		.byte	0x2
 1716 06d8 0501     		.2byte	0x105
 1717 06da 4D070000 		.4byte	0x74d
 1718 06de 12       		.uleb128 0x12
 1719 06df 44050000 		.4byte	.LASF97
 1720 06e3 02       		.byte	0x2
 1721 06e4 0D01     		.2byte	0x10d
 1722 06e6 10010000 		.4byte	0x110
 1723 06ea 00       		.byte	0
 1724 06eb 0A       		.uleb128 0xa
 1725 06ec 04       		.byte	0x4
 1726 06ed 32020000 		.4byte	0x232
 1727 06f1 05       		.uleb128 0x5
 1728 06f2 86050000 		.4byte	.LASF98
 1729 06f6 0C       		.byte	0xc
 1730 06f7 0D       		.byte	0xd
 1731 06f8 34       		.byte	0x34
 1732 06f9 16070000 		.4byte	0x716
 1733 06fd 06       		.uleb128 0x6
 1734 06fe 6B030000 		.4byte	.LASF29
 1735 0702 0D       		.byte	0xd
 1736 0703 35       		.byte	0x35
 1737 0704 67020000 		.4byte	0x267
 1738 0708 00       		.byte	0
 1739 0709 07       		.uleb128 0x7
 1740 070a 636E7400 		.ascii	"cnt\000"
 1741 070e 0D       		.byte	0xd
 1742 070f 37       		.byte	0x37
 1743 0710 1B010000 		.4byte	0x11b
 1744 0714 08       		.byte	0x8
 1745 0715 00       		.byte	0
 1746 0716 0A       		.uleb128 0xa
 1747 0717 04       		.byte	0x4
 1748 0718 F1060000 		.4byte	0x6f1
 1749 071c 05       		.uleb128 0x5
 1750 071d 8A060000 		.4byte	.LASF99
 1751 0721 10       		.byte	0x10
 1752 0722 0E       		.byte	0xe
 1753 0723 39       		.byte	0x39
 1754 0724 4D070000 		.4byte	0x74d
 1755 0728 06       		.uleb128 0x6
 1756 0729 6B030000 		.4byte	.LASF29
 1757 072d 0E       		.byte	0xe
 1758 072e 3A       		.byte	0x3a
 1759 072f 67020000 		.4byte	0x267
 1760 0733 00       		.byte	0
 1761 0734 06       		.uleb128 0x6
 1762 0735 CD050000 		.4byte	.LASF100
 1763 0739 0E       		.byte	0xe
 1764 073a 3C       		.byte	0x3c
 1765 073b 3D020000 		.4byte	0x23d
 1766 073f 08       		.byte	0x8
 1767 0740 06       		.uleb128 0x6
ARM GAS  /tmp/ccYi4OMh.s 			page 32


 1768 0741 39010000 		.4byte	.LASF49
 1769 0745 0E       		.byte	0xe
 1770 0746 3E       		.byte	0x3e
 1771 0747 8C070000 		.4byte	0x78c
 1772 074b 0C       		.byte	0xc
 1773 074c 00       		.byte	0
 1774 074d 0A       		.uleb128 0xa
 1775 074e 04       		.byte	0x4
 1776 074f 1C070000 		.4byte	0x71c
 1777 0753 0A       		.uleb128 0xa
 1778 0754 04       		.byte	0x4
 1779 0755 59070000 		.4byte	0x759
 1780 0759 13       		.uleb128 0x13
 1781 075a 5E070000 		.4byte	0x75e
 1782 075e 03       		.uleb128 0x3
 1783 075f 01       		.byte	0x1
 1784 0760 08       		.byte	0x8
 1785 0761 EC050000 		.4byte	.LASF101
 1786 0765 0A       		.uleb128 0xa
 1787 0766 04       		.byte	0x4
 1788 0767 61040000 		.4byte	0x461
 1789 076b 0A       		.uleb128 0xa
 1790 076c 04       		.byte	0x4
 1791 076d 1C030000 		.4byte	0x31c
 1792 0771 14       		.uleb128 0x14
 1793 0772 53070000 		.4byte	0x753
 1794 0776 04       		.uleb128 0x4
 1795 0777 69050000 		.4byte	.LASF102
 1796 077b 0D       		.byte	0xd
 1797 077c 38       		.byte	0x38
 1798 077d F1060000 		.4byte	0x6f1
 1799 0781 04       		.uleb128 0x4
 1800 0782 33020000 		.4byte	.LASF103
 1801 0786 0E       		.byte	0xe
 1802 0787 34       		.byte	0x34
 1803 0788 1C070000 		.4byte	0x71c
 1804 078c 0A       		.uleb128 0xa
 1805 078d 04       		.byte	0x4
 1806 078e 81070000 		.4byte	0x781
 1807 0792 03       		.uleb128 0x3
 1808 0793 01       		.byte	0x1
 1809 0794 02       		.byte	0x2
 1810 0795 15050000 		.4byte	.LASF104
 1811 0799 15       		.uleb128 0x15
 1812 079a 3C060000 		.4byte	.LASF107
 1813 079e 03       		.byte	0x3
 1814 079f 0601     		.2byte	0x106
 1815 07a1 03       		.byte	0x3
 1816 07a2 B3070000 		.4byte	0x7b3
 1817 07a6 16       		.uleb128 0x16
 1818 07a7 3B020000 		.4byte	.LASF109
 1819 07ab 03       		.byte	0x3
 1820 07ac 0601     		.2byte	0x106
 1821 07ae AD000000 		.4byte	0xad
 1822 07b2 00       		.byte	0
 1823 07b3 17       		.uleb128 0x17
 1824 07b4 BE000000 		.4byte	.LASF105
ARM GAS  /tmp/ccYi4OMh.s 			page 33


 1825 07b8 0A       		.byte	0xa
 1826 07b9 5202     		.2byte	0x252
 1827 07bb 03       		.byte	0x3
 1828 07bc 17       		.uleb128 0x17
 1829 07bd BE010000 		.4byte	.LASF106
 1830 07c1 0A       		.byte	0xa
 1831 07c2 6A02     		.2byte	0x26a
 1832 07c4 03       		.byte	0x3
 1833 07c5 15       		.uleb128 0x15
 1834 07c6 B3000000 		.4byte	.LASF108
 1835 07ca 02       		.byte	0x2
 1836 07cb 2402     		.2byte	0x224
 1837 07cd 03       		.byte	0x3
 1838 07ce DF070000 		.4byte	0x7df
 1839 07d2 18       		.uleb128 0x18
 1840 07d3 74717000 		.ascii	"tqp\000"
 1841 07d7 02       		.byte	0x2
 1842 07d8 2402     		.2byte	0x224
 1843 07da DF070000 		.4byte	0x7df
 1844 07de 00       		.byte	0
 1845 07df 0A       		.uleb128 0xa
 1846 07e0 04       		.byte	0x4
 1847 07e1 67020000 		.4byte	0x267
 1848 07e5 19       		.uleb128 0x19
 1849 07e6 CE000000 		.4byte	.LASF115
 1850 07ea 02       		.byte	0x2
 1851 07eb 7202     		.2byte	0x272
 1852 07ed 3D020000 		.4byte	0x23d
 1853 07f1 03       		.byte	0x3
 1854 07f2 0E080000 		.4byte	0x80e
 1855 07f6 18       		.uleb128 0x18
 1856 07f7 74717000 		.ascii	"tqp\000"
 1857 07fb 02       		.byte	0x2
 1858 07fc 7202     		.2byte	0x272
 1859 07fe DF070000 		.4byte	0x7df
 1860 0802 1A       		.uleb128 0x1a
 1861 0803 747000   		.ascii	"tp\000"
 1862 0806 02       		.byte	0x2
 1863 0807 7302     		.2byte	0x273
 1864 0809 3D020000 		.4byte	0x23d
 1865 080d 00       		.byte	0
 1866 080e 15       		.uleb128 0x15
 1867 080f 0D000000 		.4byte	.LASF110
 1868 0813 02       		.byte	0x2
 1869 0814 6102     		.2byte	0x261
 1870 0816 03       		.byte	0x3
 1871 0817 33080000 		.4byte	0x833
 1872 081b 18       		.uleb128 0x18
 1873 081c 747000   		.ascii	"tp\000"
 1874 081f 02       		.byte	0x2
 1875 0820 6102     		.2byte	0x261
 1876 0822 3D020000 		.4byte	0x23d
 1877 0826 18       		.uleb128 0x18
 1878 0827 74717000 		.ascii	"tqp\000"
 1879 082b 02       		.byte	0x2
 1880 082c 6102     		.2byte	0x261
 1881 082e DF070000 		.4byte	0x7df
ARM GAS  /tmp/ccYi4OMh.s 			page 34


 1882 0832 00       		.byte	0
 1883 0833 1B       		.uleb128 0x1b
 1884 0834 5E050000 		.4byte	.LASF112
 1885 0838 01       		.byte	0x1
 1886 0839 C5       		.byte	0xc5
 1887 083a 05010000 		.4byte	0x105
 1888 083e 01       		.byte	0x1
 1889 083f 5B080000 		.4byte	0x85b
 1890 0843 1C       		.uleb128 0x1c
 1891 0844 737000   		.ascii	"sp\000"
 1892 0847 01       		.byte	0x1
 1893 0848 C5       		.byte	0xc5
 1894 0849 5B080000 		.4byte	0x85b
 1895 084d 1D       		.uleb128 0x1d
 1896 084e 55050000 		.4byte	.LASF111
 1897 0852 71080000 		.4byte	0x871
 1898 0856 5E050000 		.4byte	.LASF112
 1899 085a 00       		.byte	0
 1900 085b 0A       		.uleb128 0xa
 1901 085c 04       		.byte	0x4
 1902 085d 76070000 		.4byte	0x776
 1903 0861 1E       		.uleb128 0x1e
 1904 0862 5E070000 		.4byte	0x75e
 1905 0866 71080000 		.4byte	0x871
 1906 086a 1F       		.uleb128 0x1f
 1907 086b 4F040000 		.4byte	0x44f
 1908 086f 0A       		.byte	0xa
 1909 0870 00       		.byte	0
 1910 0871 13       		.uleb128 0x13
 1911 0872 61080000 		.4byte	0x861
 1912 0876 20       		.uleb128 0x20
 1913 0877 F7050000 		.4byte	.LASF113
 1914 087b 01       		.byte	0x1
 1915 087c 0801     		.2byte	0x108
 1916 087e 05010000 		.4byte	0x105
 1917 0882 01       		.byte	0x1
 1918 0883 AC080000 		.4byte	0x8ac
 1919 0887 18       		.uleb128 0x18
 1920 0888 737000   		.ascii	"sp\000"
 1921 088b 01       		.byte	0x1
 1922 088c 0801     		.2byte	0x108
 1923 088e 5B080000 		.4byte	0x85b
 1924 0892 16       		.uleb128 0x16
 1925 0893 BF040000 		.4byte	.LASF114
 1926 0897 01       		.byte	0x1
 1927 0898 0801     		.2byte	0x108
 1928 089a 31010000 		.4byte	0x131
 1929 089e 1D       		.uleb128 0x1d
 1930 089f 55050000 		.4byte	.LASF111
 1931 08a3 BC080000 		.4byte	0x8bc
 1932 08a7 F7050000 		.4byte	.LASF113
 1933 08ab 00       		.byte	0
 1934 08ac 1E       		.uleb128 0x1e
 1935 08ad 5E070000 		.4byte	0x75e
 1936 08b1 BC080000 		.4byte	0x8bc
 1937 08b5 1F       		.uleb128 0x1f
 1938 08b6 4F040000 		.4byte	0x44f
ARM GAS  /tmp/ccYi4OMh.s 			page 35


 1939 08ba 11       		.byte	0x11
 1940 08bb 00       		.byte	0
 1941 08bc 13       		.uleb128 0x13
 1942 08bd AC080000 		.4byte	0x8ac
 1943 08c1 19       		.uleb128 0x19
 1944 08c2 17060000 		.4byte	.LASF116
 1945 08c6 02       		.byte	0x2
 1946 08c7 6902     		.2byte	0x269
 1947 08c9 3D020000 		.4byte	0x23d
 1948 08cd 03       		.byte	0x3
 1949 08ce EA080000 		.4byte	0x8ea
 1950 08d2 18       		.uleb128 0x18
 1951 08d3 74717000 		.ascii	"tqp\000"
 1952 08d7 02       		.byte	0x2
 1953 08d8 6902     		.2byte	0x269
 1954 08da DF070000 		.4byte	0x7df
 1955 08de 1A       		.uleb128 0x1a
 1956 08df 747000   		.ascii	"tp\000"
 1957 08e2 02       		.byte	0x2
 1958 08e3 6A02     		.2byte	0x26a
 1959 08e5 3D020000 		.4byte	0x23d
 1960 08e9 00       		.byte	0
 1961 08ea 21       		.uleb128 0x21
 1962 08eb 41020000 		.4byte	.LASF117
 1963 08ef 01       		.byte	0x1
 1964 08f0 61       		.byte	0x61
 1965 08f1 00000000 		.4byte	.LFB246
 1966 08f5 08000000 		.4byte	.LFE246-.LFB246
 1967 08f9 01       		.uleb128 0x1
 1968 08fa 9C       		.byte	0x9c
 1969 08fb 37090000 		.4byte	0x937
 1970 08ff 22       		.uleb128 0x22
 1971 0900 737000   		.ascii	"sp\000"
 1972 0903 01       		.byte	0x1
 1973 0904 61       		.byte	0x61
 1974 0905 5B080000 		.4byte	0x85b
 1975 0909 01       		.uleb128 0x1
 1976 090a 50       		.byte	0x50
 1977 090b 22       		.uleb128 0x22
 1978 090c 6E00     		.ascii	"n\000"
 1979 090e 01       		.byte	0x1
 1980 090f 61       		.byte	0x61
 1981 0910 1B010000 		.4byte	0x11b
 1982 0914 01       		.uleb128 0x1
 1983 0915 51       		.byte	0x51
 1984 0916 23       		.uleb128 0x23
 1985 0917 55050000 		.4byte	.LASF111
 1986 091b 47090000 		.4byte	0x947
 1987 091f 24       		.uleb128 0x24
 1988 0920 C5070000 		.4byte	0x7c5
 1989 0924 00000000 		.4byte	.LBB38
 1990 0928 04000000 		.4byte	.LBE38-.LBB38
 1991 092c 01       		.byte	0x1
 1992 092d 65       		.byte	0x65
 1993 092e 25       		.uleb128 0x25
 1994 092f D2070000 		.4byte	0x7d2
 1995 0933 01       		.uleb128 0x1
ARM GAS  /tmp/ccYi4OMh.s 			page 36


 1996 0934 50       		.byte	0x50
 1997 0935 00       		.byte	0
 1998 0936 00       		.byte	0
 1999 0937 1E       		.uleb128 0x1e
 2000 0938 5E070000 		.4byte	0x75e
 2001 093c 47090000 		.4byte	0x947
 2002 0940 1F       		.uleb128 0x1f
 2003 0941 4F040000 		.4byte	0x44f
 2004 0945 0F       		.byte	0xf
 2005 0946 00       		.byte	0
 2006 0947 13       		.uleb128 0x13
 2007 0948 37090000 		.4byte	0x937
 2008 094c 21       		.uleb128 0x21
 2009 094d 93060000 		.4byte	.LASF118
 2010 0951 01       		.byte	0x1
 2011 0952 93       		.byte	0x93
 2012 0953 00000000 		.4byte	.LFB248
 2013 0957 24000000 		.4byte	.LFE248-.LFB248
 2014 095b 01       		.uleb128 0x1
 2015 095c 9C       		.byte	0x9c
 2016 095d CC090000 		.4byte	0x9cc
 2017 0961 26       		.uleb128 0x26
 2018 0962 737000   		.ascii	"sp\000"
 2019 0965 01       		.byte	0x1
 2020 0966 93       		.byte	0x93
 2021 0967 5B080000 		.4byte	0x85b
 2022 096b 00000000 		.4byte	.LLST0
 2023 096f 26       		.uleb128 0x26
 2024 0970 6E00     		.ascii	"n\000"
 2025 0972 01       		.byte	0x1
 2026 0973 93       		.byte	0x93
 2027 0974 1B010000 		.4byte	0x11b
 2028 0978 1E000000 		.4byte	.LLST1
 2029 097c 27       		.uleb128 0x27
 2030 097d 636E7400 		.ascii	"cnt\000"
 2031 0981 01       		.byte	0x1
 2032 0982 94       		.byte	0x94
 2033 0983 1B010000 		.4byte	0x11b
 2034 0987 01       		.uleb128 0x1
 2035 0988 55       		.byte	0x55
 2036 0989 23       		.uleb128 0x23
 2037 098a 55050000 		.4byte	.LASF111
 2038 098e DC090000 		.4byte	0x9dc
 2039 0992 28       		.uleb128 0x28
 2040 0993 E5070000 		.4byte	0x7e5
 2041 0997 0E000000 		.4byte	.LBB40
 2042 099b 08000000 		.4byte	.LBE40-.LBB40
 2043 099f 01       		.byte	0x1
 2044 09a0 9F       		.byte	0x9f
 2045 09a1 C2090000 		.4byte	0x9c2
 2046 09a5 29       		.uleb128 0x29
 2047 09a6 F6070000 		.4byte	0x7f6
 2048 09aa 3F000000 		.4byte	.LLST2
 2049 09ae 2A       		.uleb128 0x2a
 2050 09af 0E000000 		.4byte	.LBB41
 2051 09b3 08000000 		.4byte	.LBE41-.LBB41
 2052 09b7 2B       		.uleb128 0x2b
ARM GAS  /tmp/ccYi4OMh.s 			page 37


 2053 09b8 02080000 		.4byte	0x802
 2054 09bc 52000000 		.4byte	.LLST3
 2055 09c0 00       		.byte	0
 2056 09c1 00       		.byte	0
 2057 09c2 2C       		.uleb128 0x2c
 2058 09c3 1A000000 		.4byte	.LVL7
 2059 09c7 C0110000 		.4byte	0x11c0
 2060 09cb 00       		.byte	0
 2061 09cc 1E       		.uleb128 0x1e
 2062 09cd 5E070000 		.4byte	0x75e
 2063 09d1 DC090000 		.4byte	0x9dc
 2064 09d5 1F       		.uleb128 0x1f
 2065 09d6 4F040000 		.4byte	0x44f
 2066 09da 0B       		.byte	0xb
 2067 09db 00       		.byte	0
 2068 09dc 13       		.uleb128 0x13
 2069 09dd CC090000 		.4byte	0x9cc
 2070 09e1 17       		.uleb128 0x17
 2071 09e2 97040000 		.4byte	.LASF119
 2072 09e6 04       		.byte	0x4
 2073 09e7 7601     		.2byte	0x176
 2074 09e9 03       		.byte	0x3
 2075 09ea 15       		.uleb128 0x15
 2076 09eb FC060000 		.4byte	.LASF120
 2077 09ef 04       		.byte	0x4
 2078 09f0 8201     		.2byte	0x182
 2079 09f2 03       		.byte	0x3
 2080 09f3 050A0000 		.4byte	0xa05
 2081 09f7 1D       		.uleb128 0x1d
 2082 09f8 55050000 		.4byte	.LASF111
 2083 09fc 050A0000 		.4byte	0xa05
 2084 0a00 FC060000 		.4byte	.LASF120
 2085 0a04 00       		.byte	0
 2086 0a05 13       		.uleb128 0x13
 2087 0a06 CC090000 		.4byte	0x9cc
 2088 0a0a 21       		.uleb128 0x21
 2089 0a0b 5A030000 		.4byte	.LASF121
 2090 0a0f 01       		.byte	0x1
 2091 0a10 78       		.byte	0x78
 2092 0a11 00000000 		.4byte	.LFB247
 2093 0a15 28000000 		.4byte	.LFE247-.LFB247
 2094 0a19 01       		.uleb128 0x1
 2095 0a1a 9C       		.byte	0x9c
 2096 0a1b FF0A0000 		.4byte	0xaff
 2097 0a1f 26       		.uleb128 0x26
 2098 0a20 737000   		.ascii	"sp\000"
 2099 0a23 01       		.byte	0x1
 2100 0a24 78       		.byte	0x78
 2101 0a25 5B080000 		.4byte	0x85b
 2102 0a29 65000000 		.4byte	.LLST4
 2103 0a2d 26       		.uleb128 0x26
 2104 0a2e 6E00     		.ascii	"n\000"
 2105 0a30 01       		.byte	0x1
 2106 0a31 78       		.byte	0x78
 2107 0a32 1B010000 		.4byte	0x11b
 2108 0a36 83000000 		.4byte	.LLST5
 2109 0a3a 28       		.uleb128 0x28
ARM GAS  /tmp/ccYi4OMh.s 			page 38


 2110 0a3b E1090000 		.4byte	0x9e1
 2111 0a3f 06000000 		.4byte	.LBB52
 2112 0a43 0A000000 		.4byte	.LBE52-.LBB52
 2113 0a47 01       		.byte	0x1
 2114 0a48 7A       		.byte	0x7a
 2115 0a49 830A0000 		.4byte	0xa83
 2116 0a4d 2D       		.uleb128 0x2d
 2117 0a4e B3070000 		.4byte	0x7b3
 2118 0a52 06000000 		.4byte	.LBB54
 2119 0a56 06000000 		.4byte	.LBE54-.LBB54
 2120 0a5a 04       		.byte	0x4
 2121 0a5b 7801     		.2byte	0x178
 2122 0a5d 790A0000 		.4byte	0xa79
 2123 0a61 2E       		.uleb128 0x2e
 2124 0a62 99070000 		.4byte	0x799
 2125 0a66 06000000 		.4byte	.LBB55
 2126 0a6a 06000000 		.4byte	.LBE55-.LBB55
 2127 0a6e 0A       		.byte	0xa
 2128 0a6f 5A02     		.2byte	0x25a
 2129 0a71 2F       		.uleb128 0x2f
 2130 0a72 A6070000 		.4byte	0x7a6
 2131 0a76 20       		.byte	0x20
 2132 0a77 00       		.byte	0
 2133 0a78 00       		.byte	0
 2134 0a79 2C       		.uleb128 0x2c
 2135 0a7a 10000000 		.4byte	.LVL10
 2136 0a7e D6110000 		.4byte	0x11d6
 2137 0a82 00       		.byte	0
 2138 0a83 28       		.uleb128 0x28
 2139 0a84 EA090000 		.4byte	0x9ea
 2140 0a88 1C000000 		.4byte	.LBB57
 2141 0a8c 0C000000 		.4byte	.LBE57-.LBB57
 2142 0a90 01       		.byte	0x1
 2143 0a91 7D       		.byte	0x7d
 2144 0a92 DB0A0000 		.4byte	0xadb
 2145 0a96 2A       		.uleb128 0x2a
 2146 0a97 1C000000 		.4byte	.LBB58
 2147 0a9b 0C000000 		.4byte	.LBE58-.LBB58
 2148 0a9f 30       		.uleb128 0x30
 2149 0aa0 F7090000 		.4byte	0x9f7
 2150 0aa4 2D       		.uleb128 0x2d
 2151 0aa5 BC070000 		.4byte	0x7bc
 2152 0aa9 20000000 		.4byte	.LBB59
 2153 0aad 08000000 		.4byte	.LBE59-.LBB59
 2154 0ab1 04       		.byte	0x4
 2155 0ab2 8F01     		.2byte	0x18f
 2156 0ab4 D00A0000 		.4byte	0xad0
 2157 0ab8 2E       		.uleb128 0x2e
 2158 0ab9 99070000 		.4byte	0x799
 2159 0abd 20000000 		.4byte	.LBB60
 2160 0ac1 08000000 		.4byte	.LBE60-.LBB60
 2161 0ac5 0A       		.byte	0xa
 2162 0ac6 6D02     		.2byte	0x26d
 2163 0ac8 2F       		.uleb128 0x2f
 2164 0ac9 A6070000 		.4byte	0x7a6
 2165 0acd 00       		.byte	0
 2166 0ace 00       		.byte	0
ARM GAS  /tmp/ccYi4OMh.s 			page 39


 2167 0acf 00       		.byte	0
 2168 0ad0 2C       		.uleb128 0x2c
 2169 0ad1 20000000 		.4byte	.LVL13
 2170 0ad5 DD110000 		.4byte	0x11dd
 2171 0ad9 00       		.byte	0
 2172 0ada 00       		.byte	0
 2173 0adb 31       		.uleb128 0x31
 2174 0adc 18000000 		.4byte	.LVL11
 2175 0ae0 4C090000 		.4byte	0x94c
 2176 0ae4 F50A0000 		.4byte	0xaf5
 2177 0ae8 32       		.uleb128 0x32
 2178 0ae9 01       		.uleb128 0x1
 2179 0aea 51       		.byte	0x51
 2180 0aeb 02       		.uleb128 0x2
 2181 0aec 74       		.byte	0x74
 2182 0aed 00       		.sleb128 0
 2183 0aee 32       		.uleb128 0x32
 2184 0aef 01       		.uleb128 0x1
 2185 0af0 50       		.byte	0x50
 2186 0af1 02       		.uleb128 0x2
 2187 0af2 75       		.byte	0x75
 2188 0af3 00       		.sleb128 0
 2189 0af4 00       		.byte	0
 2190 0af5 2C       		.uleb128 0x2c
 2191 0af6 1C000000 		.4byte	.LVL12
 2192 0afa E4110000 		.4byte	0x11e4
 2193 0afe 00       		.byte	0
 2194 0aff 33       		.uleb128 0x33
 2195 0b00 33080000 		.4byte	0x833
 2196 0b04 00000000 		.4byte	.LFB250
 2197 0b08 30000000 		.4byte	.LFE250-.LFB250
 2198 0b0c 01       		.uleb128 0x1
 2199 0b0d 9C       		.byte	0x9c
 2200 0b0e 780B0000 		.4byte	0xb78
 2201 0b12 29       		.uleb128 0x29
 2202 0b13 43080000 		.4byte	0x843
 2203 0b17 A1000000 		.4byte	.LLST6
 2204 0b1b 30       		.uleb128 0x30
 2205 0b1c 4D080000 		.4byte	0x84d
 2206 0b20 2A       		.uleb128 0x2a
 2207 0b21 0C000000 		.4byte	.LBB66
 2208 0b25 1C000000 		.4byte	.LBE66-.LBB66
 2209 0b29 29       		.uleb128 0x29
 2210 0b2a 43080000 		.4byte	0x843
 2211 0b2e DB000000 		.4byte	.LLST7
 2212 0b32 2A       		.uleb128 0x2a
 2213 0b33 0C000000 		.4byte	.LBB67
 2214 0b37 1C000000 		.4byte	.LBE67-.LBB67
 2215 0b3b 30       		.uleb128 0x30
 2216 0b3c 4D080000 		.4byte	0x84d
 2217 0b40 28       		.uleb128 0x28
 2218 0b41 0E080000 		.4byte	0x80e
 2219 0b45 12000000 		.4byte	.LBB68
 2220 0b49 0A000000 		.4byte	.LBE68-.LBB68
 2221 0b4d 01       		.byte	0x1
 2222 0b4e CF       		.byte	0xcf
 2223 0b4f 660B0000 		.4byte	0xb66
ARM GAS  /tmp/ccYi4OMh.s 			page 40


 2224 0b53 29       		.uleb128 0x29
 2225 0b54 26080000 		.4byte	0x826
 2226 0b58 FC000000 		.4byte	.LLST8
 2227 0b5c 29       		.uleb128 0x29
 2228 0b5d 1B080000 		.4byte	0x81b
 2229 0b61 1D010000 		.4byte	.LLST9
 2230 0b65 00       		.byte	0
 2231 0b66 34       		.uleb128 0x34
 2232 0b67 22000000 		.4byte	.LVL18
 2233 0b6b EC110000 		.4byte	0x11ec
 2234 0b6f 32       		.uleb128 0x32
 2235 0b70 01       		.uleb128 0x1
 2236 0b71 50       		.byte	0x50
 2237 0b72 01       		.uleb128 0x1
 2238 0b73 35       		.byte	0x35
 2239 0b74 00       		.byte	0
 2240 0b75 00       		.byte	0
 2241 0b76 00       		.byte	0
 2242 0b77 00       		.byte	0
 2243 0b78 35       		.uleb128 0x35
 2244 0b79 4A060000 		.4byte	.LASF122
 2245 0b7d 01       		.byte	0x1
 2246 0b7e AF       		.byte	0xaf
 2247 0b7f 05010000 		.4byte	0x105
 2248 0b83 00000000 		.4byte	.LFB249
 2249 0b87 24000000 		.4byte	.LFE249-.LFB249
 2250 0b8b 01       		.uleb128 0x1
 2251 0b8c 9C       		.byte	0x9c
 2252 0b8d 600C0000 		.4byte	0xc60
 2253 0b91 26       		.uleb128 0x26
 2254 0b92 737000   		.ascii	"sp\000"
 2255 0b95 01       		.byte	0x1
 2256 0b96 AF       		.byte	0xaf
 2257 0b97 5B080000 		.4byte	0x85b
 2258 0b9b 30010000 		.4byte	.LLST10
 2259 0b9f 36       		.uleb128 0x36
 2260 0ba0 6D736700 		.ascii	"msg\000"
 2261 0ba4 01       		.byte	0x1
 2262 0ba5 B0       		.byte	0xb0
 2263 0ba6 05010000 		.4byte	0x105
 2264 0baa 5C010000 		.4byte	.LLST11
 2265 0bae 37       		.uleb128 0x37
 2266 0baf E1090000 		.4byte	0x9e1
 2267 0bb3 02000000 		.4byte	.LBB80
 2268 0bb7 00000000 		.4byte	.Ldebug_ranges0+0
 2269 0bbb 01       		.byte	0x1
 2270 0bbc B2       		.byte	0xb2
 2271 0bbd F70B0000 		.4byte	0xbf7
 2272 0bc1 38       		.uleb128 0x38
 2273 0bc2 B3070000 		.4byte	0x7b3
 2274 0bc6 02000000 		.4byte	.LBB82
 2275 0bca 18000000 		.4byte	.Ldebug_ranges0+0x18
 2276 0bce 04       		.byte	0x4
 2277 0bcf 7801     		.2byte	0x178
 2278 0bd1 ED0B0000 		.4byte	0xbed
 2279 0bd5 39       		.uleb128 0x39
 2280 0bd6 99070000 		.4byte	0x799
ARM GAS  /tmp/ccYi4OMh.s 			page 41


 2281 0bda 02000000 		.4byte	.LBB83
 2282 0bde 18000000 		.4byte	.Ldebug_ranges0+0x18
 2283 0be2 0A       		.byte	0xa
 2284 0be3 5A02     		.2byte	0x25a
 2285 0be5 2F       		.uleb128 0x2f
 2286 0be6 A6070000 		.4byte	0x7a6
 2287 0bea 20       		.byte	0x20
 2288 0beb 00       		.byte	0
 2289 0bec 00       		.byte	0
 2290 0bed 2C       		.uleb128 0x2c
 2291 0bee 0E000000 		.4byte	.LVL22
 2292 0bf2 D6110000 		.4byte	0x11d6
 2293 0bf6 00       		.byte	0
 2294 0bf7 28       		.uleb128 0x28
 2295 0bf8 EA090000 		.4byte	0x9ea
 2296 0bfc 16000000 		.4byte	.LBB90
 2297 0c00 0A000000 		.4byte	.LBE90-.LBB90
 2298 0c04 01       		.byte	0x1
 2299 0c05 B4       		.byte	0xb4
 2300 0c06 4F0C0000 		.4byte	0xc4f
 2301 0c0a 2A       		.uleb128 0x2a
 2302 0c0b 16000000 		.4byte	.LBB91
 2303 0c0f 0A000000 		.4byte	.LBE91-.LBB91
 2304 0c13 30       		.uleb128 0x30
 2305 0c14 F7090000 		.4byte	0x9f7
 2306 0c18 2D       		.uleb128 0x2d
 2307 0c19 BC070000 		.4byte	0x7bc
 2308 0c1d 1A000000 		.4byte	.LBB92
 2309 0c21 06000000 		.4byte	.LBE92-.LBB92
 2310 0c25 04       		.byte	0x4
 2311 0c26 8F01     		.2byte	0x18f
 2312 0c28 440C0000 		.4byte	0xc44
 2313 0c2c 2E       		.uleb128 0x2e
 2314 0c2d 99070000 		.4byte	0x799
 2315 0c31 1A000000 		.4byte	.LBB93
 2316 0c35 06000000 		.4byte	.LBE93-.LBB93
 2317 0c39 0A       		.byte	0xa
 2318 0c3a 6D02     		.2byte	0x26d
 2319 0c3c 2F       		.uleb128 0x2f
 2320 0c3d A6070000 		.4byte	0x7a6
 2321 0c41 00       		.byte	0
 2322 0c42 00       		.byte	0
 2323 0c43 00       		.byte	0
 2324 0c44 2C       		.uleb128 0x2c
 2325 0c45 1A000000 		.4byte	.LVL25
 2326 0c49 DD110000 		.4byte	0x11dd
 2327 0c4d 00       		.byte	0
 2328 0c4e 00       		.byte	0
 2329 0c4f 34       		.uleb128 0x34
 2330 0c50 14000000 		.4byte	.LVL23
 2331 0c54 33080000 		.4byte	0x833
 2332 0c58 32       		.uleb128 0x32
 2333 0c59 01       		.uleb128 0x1
 2334 0c5a 50       		.byte	0x50
 2335 0c5b 02       		.uleb128 0x2
 2336 0c5c 74       		.byte	0x74
 2337 0c5d 00       		.sleb128 0
ARM GAS  /tmp/ccYi4OMh.s 			page 42


 2338 0c5e 00       		.byte	0
 2339 0c5f 00       		.byte	0
 2340 0c60 33       		.uleb128 0x33
 2341 0c61 76080000 		.4byte	0x876
 2342 0c65 00000000 		.4byte	.LFB252
 2343 0c69 38000000 		.4byte	.LFE252-.LFB252
 2344 0c6d 01       		.uleb128 0x1
 2345 0c6e 9C       		.byte	0x9c
 2346 0c6f E00C0000 		.4byte	0xce0
 2347 0c73 29       		.uleb128 0x29
 2348 0c74 87080000 		.4byte	0x887
 2349 0c78 7A010000 		.4byte	.LLST12
 2350 0c7c 29       		.uleb128 0x29
 2351 0c7d 92080000 		.4byte	0x892
 2352 0c81 CD010000 		.4byte	.LLST13
 2353 0c85 30       		.uleb128 0x30
 2354 0c86 9E080000 		.4byte	0x89e
 2355 0c8a 3A       		.uleb128 0x3a
 2356 0c8b 30000000 		.4byte	.Ldebug_ranges0+0x30
 2357 0c8f 3B       		.uleb128 0x3b
 2358 0c90 92080000 		.4byte	0x892
 2359 0c94 29       		.uleb128 0x29
 2360 0c95 87080000 		.4byte	0x887
 2361 0c99 F9010000 		.4byte	.LLST14
 2362 0c9d 3A       		.uleb128 0x3a
 2363 0c9e 30000000 		.4byte	.Ldebug_ranges0+0x30
 2364 0ca2 30       		.uleb128 0x30
 2365 0ca3 9E080000 		.4byte	0x89e
 2366 0ca7 38       		.uleb128 0x38
 2367 0ca8 0E080000 		.4byte	0x80e
 2368 0cac 1C000000 		.4byte	.LBB101
 2369 0cb0 48000000 		.4byte	.Ldebug_ranges0+0x48
 2370 0cb4 01       		.byte	0x1
 2371 0cb5 1701     		.2byte	0x117
 2372 0cb7 CE0C0000 		.4byte	0xcce
 2373 0cbb 29       		.uleb128 0x29
 2374 0cbc 26080000 		.4byte	0x826
 2375 0cc0 1A020000 		.4byte	.LLST15
 2376 0cc4 29       		.uleb128 0x29
 2377 0cc5 1B080000 		.4byte	0x81b
 2378 0cc9 3B020000 		.4byte	.LLST16
 2379 0ccd 00       		.byte	0
 2380 0cce 3C       		.uleb128 0x3c
 2381 0ccf 30000000 		.4byte	.LVL31
 2382 0cd3 FE110000 		.4byte	0x11fe
 2383 0cd7 32       		.uleb128 0x32
 2384 0cd8 01       		.uleb128 0x1
 2385 0cd9 50       		.byte	0x50
 2386 0cda 01       		.uleb128 0x1
 2387 0cdb 35       		.byte	0x35
 2388 0cdc 00       		.byte	0
 2389 0cdd 00       		.byte	0
 2390 0cde 00       		.byte	0
 2391 0cdf 00       		.byte	0
 2392 0ce0 35       		.uleb128 0x35
 2393 0ce1 FC030000 		.4byte	.LASF123
 2394 0ce5 01       		.byte	0x1
ARM GAS  /tmp/ccYi4OMh.s 			page 43


 2395 0ce6 EB       		.byte	0xeb
 2396 0ce7 05010000 		.4byte	0x105
 2397 0ceb 00000000 		.4byte	.LFB251
 2398 0cef 28000000 		.4byte	.LFE251-.LFB251
 2399 0cf3 01       		.uleb128 0x1
 2400 0cf4 9C       		.byte	0x9c
 2401 0cf5 DD0D0000 		.4byte	0xddd
 2402 0cf9 26       		.uleb128 0x26
 2403 0cfa 737000   		.ascii	"sp\000"
 2404 0cfd 01       		.byte	0x1
 2405 0cfe EB       		.byte	0xeb
 2406 0cff 5B080000 		.4byte	0x85b
 2407 0d03 4E020000 		.4byte	.LLST17
 2408 0d07 3D       		.uleb128 0x3d
 2409 0d08 BF040000 		.4byte	.LASF114
 2410 0d0c 01       		.byte	0x1
 2411 0d0d EB       		.byte	0xeb
 2412 0d0e 31010000 		.4byte	0x131
 2413 0d12 6C020000 		.4byte	.LLST18
 2414 0d16 36       		.uleb128 0x36
 2415 0d17 6D736700 		.ascii	"msg\000"
 2416 0d1b 01       		.byte	0x1
 2417 0d1c EC       		.byte	0xec
 2418 0d1d 05010000 		.4byte	0x105
 2419 0d21 98020000 		.4byte	.LLST19
 2420 0d25 28       		.uleb128 0x28
 2421 0d26 E1090000 		.4byte	0x9e1
 2422 0d2a 06000000 		.4byte	.LBB117
 2423 0d2e 0A000000 		.4byte	.LBE117-.LBB117
 2424 0d32 01       		.byte	0x1
 2425 0d33 EE       		.byte	0xee
 2426 0d34 6E0D0000 		.4byte	0xd6e
 2427 0d38 2D       		.uleb128 0x2d
 2428 0d39 B3070000 		.4byte	0x7b3
 2429 0d3d 06000000 		.4byte	.LBB119
 2430 0d41 06000000 		.4byte	.LBE119-.LBB119
 2431 0d45 04       		.byte	0x4
 2432 0d46 7801     		.2byte	0x178
 2433 0d48 640D0000 		.4byte	0xd64
 2434 0d4c 2E       		.uleb128 0x2e
 2435 0d4d 99070000 		.4byte	0x799
 2436 0d51 06000000 		.4byte	.LBB120
 2437 0d55 06000000 		.4byte	.LBE120-.LBB120
 2438 0d59 0A       		.byte	0xa
 2439 0d5a 5A02     		.2byte	0x25a
 2440 0d5c 2F       		.uleb128 0x2f
 2441 0d5d A6070000 		.4byte	0x7a6
 2442 0d61 20       		.byte	0x20
 2443 0d62 00       		.byte	0
 2444 0d63 00       		.byte	0
 2445 0d64 2C       		.uleb128 0x2c
 2446 0d65 10000000 		.4byte	.LVL34
 2447 0d69 D6110000 		.4byte	0x11d6
 2448 0d6d 00       		.byte	0
 2449 0d6e 28       		.uleb128 0x28
 2450 0d6f EA090000 		.4byte	0x9ea
 2451 0d73 1A000000 		.4byte	.LBB122
ARM GAS  /tmp/ccYi4OMh.s 			page 44


 2452 0d77 0A000000 		.4byte	.LBE122-.LBB122
 2453 0d7b 01       		.byte	0x1
 2454 0d7c F0       		.byte	0xf0
 2455 0d7d C60D0000 		.4byte	0xdc6
 2456 0d81 2A       		.uleb128 0x2a
 2457 0d82 1A000000 		.4byte	.LBB123
 2458 0d86 0A000000 		.4byte	.LBE123-.LBB123
 2459 0d8a 30       		.uleb128 0x30
 2460 0d8b F7090000 		.4byte	0x9f7
 2461 0d8f 2D       		.uleb128 0x2d
 2462 0d90 BC070000 		.4byte	0x7bc
 2463 0d94 1E000000 		.4byte	.LBB124
 2464 0d98 06000000 		.4byte	.LBE124-.LBB124
 2465 0d9c 04       		.byte	0x4
 2466 0d9d 8F01     		.2byte	0x18f
 2467 0d9f BB0D0000 		.4byte	0xdbb
 2468 0da3 2E       		.uleb128 0x2e
 2469 0da4 99070000 		.4byte	0x799
 2470 0da8 1E000000 		.4byte	.LBB125
 2471 0dac 06000000 		.4byte	.LBE125-.LBB125
 2472 0db0 0A       		.byte	0xa
 2473 0db1 6D02     		.2byte	0x26d
 2474 0db3 2F       		.uleb128 0x2f
 2475 0db4 A6070000 		.4byte	0x7a6
 2476 0db8 00       		.byte	0
 2477 0db9 00       		.byte	0
 2478 0dba 00       		.byte	0
 2479 0dbb 2C       		.uleb128 0x2c
 2480 0dbc 1E000000 		.4byte	.LVL37
 2481 0dc0 DD110000 		.4byte	0x11dd
 2482 0dc4 00       		.byte	0
 2483 0dc5 00       		.byte	0
 2484 0dc6 34       		.uleb128 0x34
 2485 0dc7 18000000 		.4byte	.LVL35
 2486 0dcb 76080000 		.4byte	0x876
 2487 0dcf 32       		.uleb128 0x32
 2488 0dd0 01       		.uleb128 0x1
 2489 0dd1 51       		.byte	0x51
 2490 0dd2 02       		.uleb128 0x2
 2491 0dd3 74       		.byte	0x74
 2492 0dd4 00       		.sleb128 0
 2493 0dd5 32       		.uleb128 0x32
 2494 0dd6 01       		.uleb128 0x1
 2495 0dd7 50       		.byte	0x50
 2496 0dd8 02       		.uleb128 0x2
 2497 0dd9 75       		.byte	0x75
 2498 0dda 00       		.sleb128 0
 2499 0ddb 00       		.byte	0
 2500 0ddc 00       		.byte	0
 2501 0ddd 3E       		.uleb128 0x3e
 2502 0dde F3000000 		.4byte	.LASF124
 2503 0de2 01       		.byte	0x1
 2504 0de3 2601     		.2byte	0x126
 2505 0de5 00000000 		.4byte	.LFB253
 2506 0de9 32000000 		.4byte	.LFE253-.LFB253
 2507 0ded 01       		.uleb128 0x1
 2508 0dee 9C       		.byte	0x9c
ARM GAS  /tmp/ccYi4OMh.s 			page 45


 2509 0def EB0E0000 		.4byte	0xeeb
 2510 0df3 3F       		.uleb128 0x3f
 2511 0df4 737000   		.ascii	"sp\000"
 2512 0df7 01       		.byte	0x1
 2513 0df8 2601     		.2byte	0x126
 2514 0dfa 5B080000 		.4byte	0x85b
 2515 0dfe B6020000 		.4byte	.LLST20
 2516 0e02 23       		.uleb128 0x23
 2517 0e03 55050000 		.4byte	.LASF111
 2518 0e07 EB0E0000 		.4byte	0xeeb
 2519 0e0b 38       		.uleb128 0x38
 2520 0e0c E1090000 		.4byte	0x9e1
 2521 0e10 02000000 		.4byte	.LBB139
 2522 0e14 60000000 		.4byte	.Ldebug_ranges0+0x60
 2523 0e18 01       		.byte	0x1
 2524 0e19 2A01     		.2byte	0x12a
 2525 0e1b 550E0000 		.4byte	0xe55
 2526 0e1f 38       		.uleb128 0x38
 2527 0e20 B3070000 		.4byte	0x7b3
 2528 0e24 02000000 		.4byte	.LBB141
 2529 0e28 78000000 		.4byte	.Ldebug_ranges0+0x78
 2530 0e2c 04       		.byte	0x4
 2531 0e2d 7801     		.2byte	0x178
 2532 0e2f 4B0E0000 		.4byte	0xe4b
 2533 0e33 39       		.uleb128 0x39
 2534 0e34 99070000 		.4byte	0x799
 2535 0e38 02000000 		.4byte	.LBB142
 2536 0e3c 78000000 		.4byte	.Ldebug_ranges0+0x78
 2537 0e40 0A       		.byte	0xa
 2538 0e41 5A02     		.2byte	0x25a
 2539 0e43 2F       		.uleb128 0x2f
 2540 0e44 A6070000 		.4byte	0x7a6
 2541 0e48 20       		.byte	0x20
 2542 0e49 00       		.byte	0
 2543 0e4a 00       		.byte	0
 2544 0e4b 2C       		.uleb128 0x2c
 2545 0e4c 0E000000 		.4byte	.LVL39
 2546 0e50 D6110000 		.4byte	0x11d6
 2547 0e54 00       		.byte	0
 2548 0e55 38       		.uleb128 0x38
 2549 0e56 C1080000 		.4byte	0x8c1
 2550 0e5a 18000000 		.4byte	.LBB149
 2551 0e5e 90000000 		.4byte	.Ldebug_ranges0+0x90
 2552 0e62 01       		.byte	0x1
 2553 0e63 2F01     		.2byte	0x12f
 2554 0e65 820E0000 		.4byte	0xe82
 2555 0e69 29       		.uleb128 0x29
 2556 0e6a D2080000 		.4byte	0x8d2
 2557 0e6e D4020000 		.4byte	.LLST21
 2558 0e72 3A       		.uleb128 0x3a
 2559 0e73 90000000 		.4byte	.Ldebug_ranges0+0x90
 2560 0e77 2B       		.uleb128 0x2b
 2561 0e78 DE080000 		.4byte	0x8de
 2562 0e7c E7020000 		.4byte	.LLST22
 2563 0e80 00       		.byte	0
 2564 0e81 00       		.byte	0
 2565 0e82 2D       		.uleb128 0x2d
ARM GAS  /tmp/ccYi4OMh.s 			page 46


 2566 0e83 EA090000 		.4byte	0x9ea
 2567 0e87 26000000 		.4byte	.LBB153
 2568 0e8b 0C000000 		.4byte	.LBE153-.LBB153
 2569 0e8f 01       		.byte	0x1
 2570 0e90 3101     		.2byte	0x131
 2571 0e92 DB0E0000 		.4byte	0xedb
 2572 0e96 2A       		.uleb128 0x2a
 2573 0e97 26000000 		.4byte	.LBB154
 2574 0e9b 0C000000 		.4byte	.LBE154-.LBB154
 2575 0e9f 30       		.uleb128 0x30
 2576 0ea0 F7090000 		.4byte	0x9f7
 2577 0ea4 2D       		.uleb128 0x2d
 2578 0ea5 BC070000 		.4byte	0x7bc
 2579 0ea9 2A000000 		.4byte	.LBB155
 2580 0ead 08000000 		.4byte	.LBE155-.LBB155
 2581 0eb1 04       		.byte	0x4
 2582 0eb2 8F01     		.2byte	0x18f
 2583 0eb4 D00E0000 		.4byte	0xed0
 2584 0eb8 2E       		.uleb128 0x2e
 2585 0eb9 99070000 		.4byte	0x799
 2586 0ebd 2A000000 		.4byte	.LBB156
 2587 0ec1 08000000 		.4byte	.LBE156-.LBB156
 2588 0ec5 0A       		.byte	0xa
 2589 0ec6 6D02     		.2byte	0x26d
 2590 0ec8 2F       		.uleb128 0x2f
 2591 0ec9 A6070000 		.4byte	0x7a6
 2592 0ecd 00       		.byte	0
 2593 0ece 00       		.byte	0
 2594 0ecf 00       		.byte	0
 2595 0ed0 2C       		.uleb128 0x2c
 2596 0ed1 2A000000 		.4byte	.LVL43
 2597 0ed5 DD110000 		.4byte	0x11dd
 2598 0ed9 00       		.byte	0
 2599 0eda 00       		.byte	0
 2600 0edb 34       		.uleb128 0x34
 2601 0edc 26000000 		.4byte	.LVL42
 2602 0ee0 19120000 		.4byte	0x1219
 2603 0ee4 32       		.uleb128 0x32
 2604 0ee5 01       		.uleb128 0x1
 2605 0ee6 51       		.byte	0x51
 2606 0ee7 01       		.uleb128 0x1
 2607 0ee8 30       		.byte	0x30
 2608 0ee9 00       		.byte	0
 2609 0eea 00       		.byte	0
 2610 0eeb 13       		.uleb128 0x13
 2611 0eec CC090000 		.4byte	0x9cc
 2612 0ef0 3E       		.uleb128 0x3e
 2613 0ef1 1A000000 		.4byte	.LASF125
 2614 0ef5 01       		.byte	0x1
 2615 0ef6 3F01     		.2byte	0x13f
 2616 0ef8 00000000 		.4byte	.LFB254
 2617 0efc 1E000000 		.4byte	.LFE254-.LFB254
 2618 0f00 01       		.uleb128 0x1
 2619 0f01 9C       		.byte	0x9c
 2620 0f02 700F0000 		.4byte	0xf70
 2621 0f06 3F       		.uleb128 0x3f
 2622 0f07 737000   		.ascii	"sp\000"
ARM GAS  /tmp/ccYi4OMh.s 			page 47


 2623 0f0a 01       		.byte	0x1
 2624 0f0b 3F01     		.2byte	0x13f
 2625 0f0d 5B080000 		.4byte	0x85b
 2626 0f11 FA020000 		.4byte	.LLST23
 2627 0f15 23       		.uleb128 0x23
 2628 0f16 55050000 		.4byte	.LASF111
 2629 0f1a 800F0000 		.4byte	0xf80
 2630 0f1e 2A       		.uleb128 0x2a
 2631 0f1f 0C000000 		.4byte	.LBB158
 2632 0f23 12000000 		.4byte	.LBE158-.LBB158
 2633 0f27 40       		.uleb128 0x40
 2634 0f28 747000   		.ascii	"tp\000"
 2635 0f2b 01       		.byte	0x1
 2636 0f2c 4A01     		.2byte	0x14a
 2637 0f2e 3D020000 		.4byte	0x23d
 2638 0f32 01       		.uleb128 0x1
 2639 0f33 50       		.byte	0x50
 2640 0f34 2D       		.uleb128 0x2d
 2641 0f35 C1080000 		.4byte	0x8c1
 2642 0f39 0C000000 		.4byte	.LBB159
 2643 0f3d 08000000 		.4byte	.LBE159-.LBB159
 2644 0f41 01       		.byte	0x1
 2645 0f42 4A01     		.2byte	0x14a
 2646 0f44 650F0000 		.4byte	0xf65
 2647 0f48 29       		.uleb128 0x29
 2648 0f49 D2080000 		.4byte	0x8d2
 2649 0f4d 3D030000 		.4byte	.LLST24
 2650 0f51 2A       		.uleb128 0x2a
 2651 0f52 0C000000 		.4byte	.LBB160
 2652 0f56 08000000 		.4byte	.LBE160-.LBB160
 2653 0f5a 2B       		.uleb128 0x2b
 2654 0f5b DE080000 		.4byte	0x8de
 2655 0f5f 75030000 		.4byte	.LLST25
 2656 0f63 00       		.byte	0
 2657 0f64 00       		.byte	0
 2658 0f65 41       		.uleb128 0x41
 2659 0f66 1C000000 		.4byte	.LVL48
 2660 0f6a C0110000 		.4byte	0x11c0
 2661 0f6e 00       		.byte	0
 2662 0f6f 00       		.byte	0
 2663 0f70 1E       		.uleb128 0x1e
 2664 0f71 5E070000 		.4byte	0x75e
 2665 0f75 800F0000 		.4byte	0xf80
 2666 0f79 1F       		.uleb128 0x1f
 2667 0f7a 4F040000 		.4byte	0x44f
 2668 0f7e 0C       		.byte	0xc
 2669 0f7f 00       		.byte	0
 2670 0f80 13       		.uleb128 0x13
 2671 0f81 700F0000 		.4byte	0xf70
 2672 0f85 3E       		.uleb128 0x3e
 2673 0f86 1B010000 		.4byte	.LASF126
 2674 0f8a 01       		.byte	0x1
 2675 0f8b 5D01     		.2byte	0x15d
 2676 0f8d 00000000 		.4byte	.LFB255
 2677 0f91 2A000000 		.4byte	.LFE255-.LFB255
 2678 0f95 01       		.uleb128 0x1
 2679 0f96 9C       		.byte	0x9c
ARM GAS  /tmp/ccYi4OMh.s 			page 48


 2680 0f97 FC0F0000 		.4byte	0xffc
 2681 0f9b 3F       		.uleb128 0x3f
 2682 0f9c 737000   		.ascii	"sp\000"
 2683 0f9f 01       		.byte	0x1
 2684 0fa0 5D01     		.2byte	0x15d
 2685 0fa2 5B080000 		.4byte	0x85b
 2686 0fa6 88030000 		.4byte	.LLST26
 2687 0faa 3F       		.uleb128 0x3f
 2688 0fab 6E00     		.ascii	"n\000"
 2689 0fad 01       		.byte	0x1
 2690 0fae 5D01     		.2byte	0x15d
 2691 0fb0 1B010000 		.4byte	0x11b
 2692 0fb4 A6030000 		.4byte	.LLST27
 2693 0fb8 23       		.uleb128 0x23
 2694 0fb9 55050000 		.4byte	.LASF111
 2695 0fbd 0C100000 		.4byte	0x100c
 2696 0fc1 2D       		.uleb128 0x2d
 2697 0fc2 C1080000 		.4byte	0x8c1
 2698 0fc6 14000000 		.4byte	.LBB161
 2699 0fca 08000000 		.4byte	.LBE161-.LBB161
 2700 0fce 01       		.byte	0x1
 2701 0fcf 6701     		.2byte	0x167
 2702 0fd1 F20F0000 		.4byte	0xff2
 2703 0fd5 29       		.uleb128 0x29
 2704 0fd6 D2080000 		.4byte	0x8d2
 2705 0fda C4030000 		.4byte	.LLST28
 2706 0fde 2A       		.uleb128 0x2a
 2707 0fdf 14000000 		.4byte	.LBB162
 2708 0fe3 08000000 		.4byte	.LBE162-.LBB162
 2709 0fe7 2B       		.uleb128 0x2b
 2710 0fe8 DE080000 		.4byte	0x8de
 2711 0fec D7030000 		.4byte	.LLST29
 2712 0ff0 00       		.byte	0
 2713 0ff1 00       		.byte	0
 2714 0ff2 2C       		.uleb128 0x2c
 2715 0ff3 20000000 		.4byte	.LVL53
 2716 0ff7 C0110000 		.4byte	0x11c0
 2717 0ffb 00       		.byte	0
 2718 0ffc 1E       		.uleb128 0x1e
 2719 0ffd 5E070000 		.4byte	0x75e
 2720 1001 0C100000 		.4byte	0x100c
 2721 1005 1F       		.uleb128 0x1f
 2722 1006 4F040000 		.4byte	0x44f
 2723 100a 10       		.byte	0x10
 2724 100b 00       		.byte	0
 2725 100c 13       		.uleb128 0x13
 2726 100d FC0F0000 		.4byte	0xffc
 2727 1011 42       		.uleb128 0x42
 2728 1012 61010000 		.4byte	.LASF127
 2729 1016 01       		.byte	0x1
 2730 1017 7A01     		.2byte	0x17a
 2731 1019 05010000 		.4byte	0x105
 2732 101d 00000000 		.4byte	.LFB256
 2733 1021 68000000 		.4byte	.LFE256-.LFB256
 2734 1025 01       		.uleb128 0x1
 2735 1026 9C       		.byte	0x9c
 2736 1027 9F110000 		.4byte	0x119f
ARM GAS  /tmp/ccYi4OMh.s 			page 49


 2737 102b 3F       		.uleb128 0x3f
 2738 102c 73707300 		.ascii	"sps\000"
 2739 1030 01       		.byte	0x1
 2740 1031 7A01     		.2byte	0x17a
 2741 1033 5B080000 		.4byte	0x85b
 2742 1037 EA030000 		.4byte	.LLST30
 2743 103b 3F       		.uleb128 0x3f
 2744 103c 73707700 		.ascii	"spw\000"
 2745 1040 01       		.byte	0x1
 2746 1041 7A01     		.2byte	0x17a
 2747 1043 5B080000 		.4byte	0x85b
 2748 1047 2F040000 		.4byte	.LLST31
 2749 104b 43       		.uleb128 0x43
 2750 104c 6D736700 		.ascii	"msg\000"
 2751 1050 01       		.byte	0x1
 2752 1051 7B01     		.2byte	0x17b
 2753 1053 05010000 		.4byte	0x105
 2754 1057 5B040000 		.4byte	.LLST32
 2755 105b 23       		.uleb128 0x23
 2756 105c 55050000 		.4byte	.LASF111
 2757 1060 9F110000 		.4byte	0x119f
 2758 1064 2D       		.uleb128 0x2d
 2759 1065 E1090000 		.4byte	0x9e1
 2760 1069 06000000 		.4byte	.LBB178
 2761 106d 0A000000 		.4byte	.LBE178-.LBB178
 2762 1071 01       		.byte	0x1
 2763 1072 7F01     		.2byte	0x17f
 2764 1074 AE100000 		.4byte	0x10ae
 2765 1078 2D       		.uleb128 0x2d
 2766 1079 B3070000 		.4byte	0x7b3
 2767 107d 06000000 		.4byte	.LBB180
 2768 1081 06000000 		.4byte	.LBE180-.LBB180
 2769 1085 04       		.byte	0x4
 2770 1086 7801     		.2byte	0x178
 2771 1088 A4100000 		.4byte	0x10a4
 2772 108c 2E       		.uleb128 0x2e
 2773 108d 99070000 		.4byte	0x799
 2774 1091 06000000 		.4byte	.LBB181
 2775 1095 06000000 		.4byte	.LBE181-.LBB181
 2776 1099 0A       		.byte	0xa
 2777 109a 5A02     		.2byte	0x25a
 2778 109c 2F       		.uleb128 0x2f
 2779 109d A6070000 		.4byte	0x7a6
 2780 10a1 20       		.byte	0x20
 2781 10a2 00       		.byte	0
 2782 10a3 00       		.byte	0
 2783 10a4 2C       		.uleb128 0x2c
 2784 10a5 10000000 		.4byte	.LVL57
 2785 10a9 D6110000 		.4byte	0x11d6
 2786 10ad 00       		.byte	0
 2787 10ae 2D       		.uleb128 0x2d
 2788 10af C1080000 		.4byte	0x8c1
 2789 10b3 1A000000 		.4byte	.LBB183
 2790 10b7 08000000 		.4byte	.LBE183-.LBB183
 2791 10bb 01       		.byte	0x1
 2792 10bc 8701     		.2byte	0x187
 2793 10be DF100000 		.4byte	0x10df
ARM GAS  /tmp/ccYi4OMh.s 			page 50


 2794 10c2 29       		.uleb128 0x29
 2795 10c3 D2080000 		.4byte	0x8d2
 2796 10c7 90040000 		.4byte	.LLST33
 2797 10cb 2A       		.uleb128 0x2a
 2798 10cc 1A000000 		.4byte	.LBB184
 2799 10d0 08000000 		.4byte	.LBE184-.LBB184
 2800 10d4 2B       		.uleb128 0x2b
 2801 10d5 DE080000 		.4byte	0x8de
 2802 10d9 A3040000 		.4byte	.LLST34
 2803 10dd 00       		.byte	0
 2804 10de 00       		.byte	0
 2805 10df 44       		.uleb128 0x44
 2806 10e0 34000000 		.4byte	.LBB185
 2807 10e4 18000000 		.4byte	.LBE185-.LBB185
 2808 10e8 33110000 		.4byte	0x1133
 2809 10ec 43       		.uleb128 0x43
 2810 10ed 63747000 		.ascii	"ctp\000"
 2811 10f1 01       		.byte	0x1
 2812 10f2 8A01     		.2byte	0x18a
 2813 10f4 3D020000 		.4byte	0x23d
 2814 10f8 B6040000 		.4byte	.LLST35
 2815 10fc 38       		.uleb128 0x38
 2816 10fd 0E080000 		.4byte	0x80e
 2817 1101 38000000 		.4byte	.LBB186
 2818 1105 A8000000 		.4byte	.Ldebug_ranges0+0xa8
 2819 1109 01       		.byte	0x1
 2820 110a 8B01     		.2byte	0x18b
 2821 110c 23110000 		.4byte	0x1123
 2822 1110 29       		.uleb128 0x29
 2823 1111 26080000 		.4byte	0x826
 2824 1115 C9040000 		.4byte	.LLST36
 2825 1119 29       		.uleb128 0x29
 2826 111a 1B080000 		.4byte	0x81b
 2827 111e B6040000 		.4byte	.LLST35
 2828 1122 00       		.byte	0
 2829 1123 34       		.uleb128 0x34
 2830 1124 4A000000 		.4byte	.LVL63
 2831 1128 EC110000 		.4byte	0x11ec
 2832 112c 32       		.uleb128 0x32
 2833 112d 01       		.uleb128 0x1
 2834 112e 50       		.byte	0x50
 2835 112f 01       		.uleb128 0x1
 2836 1130 35       		.byte	0x35
 2837 1131 00       		.byte	0
 2838 1132 00       		.byte	0
 2839 1133 2D       		.uleb128 0x2d
 2840 1134 EA090000 		.4byte	0x9ea
 2841 1138 54000000 		.4byte	.LBB190
 2842 113c 0A000000 		.4byte	.LBE190-.LBB190
 2843 1140 01       		.byte	0x1
 2844 1141 9401     		.2byte	0x194
 2845 1143 8C110000 		.4byte	0x118c
 2846 1147 2A       		.uleb128 0x2a
 2847 1148 54000000 		.4byte	.LBB191
 2848 114c 0A000000 		.4byte	.LBE191-.LBB191
 2849 1150 30       		.uleb128 0x30
 2850 1151 F7090000 		.4byte	0x9f7
ARM GAS  /tmp/ccYi4OMh.s 			page 51


 2851 1155 2D       		.uleb128 0x2d
 2852 1156 BC070000 		.4byte	0x7bc
 2853 115a 58000000 		.4byte	.LBB192
 2854 115e 06000000 		.4byte	.LBE192-.LBB192
 2855 1162 04       		.byte	0x4
 2856 1163 8F01     		.2byte	0x18f
 2857 1165 81110000 		.4byte	0x1181
 2858 1169 2E       		.uleb128 0x2e
 2859 116a 99070000 		.4byte	0x799
 2860 116e 58000000 		.4byte	.LBB193
 2861 1172 06000000 		.4byte	.LBE193-.LBB193
 2862 1176 0A       		.byte	0xa
 2863 1177 6D02     		.2byte	0x26d
 2864 1179 2F       		.uleb128 0x2f
 2865 117a A6070000 		.4byte	0x7a6
 2866 117e 00       		.byte	0
 2867 117f 00       		.byte	0
 2868 1180 00       		.byte	0
 2869 1181 2C       		.uleb128 0x2c
 2870 1182 58000000 		.4byte	.LVL68
 2871 1186 DD110000 		.4byte	0x11dd
 2872 118a 00       		.byte	0
 2873 118b 00       		.byte	0
 2874 118c 2C       		.uleb128 0x2c
 2875 118d 26000000 		.4byte	.LVL60
 2876 1191 C0110000 		.4byte	0x11c0
 2877 1195 2C       		.uleb128 0x2c
 2878 1196 52000000 		.4byte	.LVL66
 2879 119a E4110000 		.4byte	0x11e4
 2880 119e 00       		.byte	0
 2881 119f 13       		.uleb128 0x13
 2882 11a0 37090000 		.4byte	0x937
 2883 11a4 45       		.uleb128 0x45
 2884 11a5 2C010000 		.4byte	.LASF128
 2885 11a9 0F       		.byte	0xf
 2886 11aa 4407     		.2byte	0x744
 2887 11ac B0110000 		.4byte	0x11b0
 2888 11b0 14       		.uleb128 0x14
 2889 11b1 A2000000 		.4byte	0xa2
 2890 11b5 46       		.uleb128 0x46
 2891 11b6 636800   		.ascii	"ch\000"
 2892 11b9 02       		.byte	0x2
 2893 11ba D201     		.2byte	0x1d2
 2894 11bc E9030000 		.4byte	0x3e9
 2895 11c0 47       		.uleb128 0x47
 2896 11c1 B1050000 		.4byte	.LASF129
 2897 11c5 02       		.byte	0x2
 2898 11c6 DC01     		.2byte	0x1dc
 2899 11c8 3D020000 		.4byte	0x23d
 2900 11cc D6110000 		.4byte	0x11d6
 2901 11d0 0D       		.uleb128 0xd
 2902 11d1 3D020000 		.4byte	0x23d
 2903 11d5 00       		.byte	0
 2904 11d6 48       		.uleb128 0x48
 2905 11d7 B3060000 		.4byte	.LASF130
 2906 11db 0C       		.byte	0xc
 2907 11dc 4F       		.byte	0x4f
ARM GAS  /tmp/ccYi4OMh.s 			page 52


 2908 11dd 48       		.uleb128 0x48
 2909 11de 47040000 		.4byte	.LASF131
 2910 11e2 0C       		.byte	0xc
 2911 11e3 50       		.byte	0x50
 2912 11e4 49       		.uleb128 0x49
 2913 11e5 F6010000 		.4byte	.LASF132
 2914 11e9 02       		.byte	0x2
 2915 11ea E101     		.2byte	0x1e1
 2916 11ec 4A       		.uleb128 0x4a
 2917 11ed 93050000 		.4byte	.LASF137
 2918 11f1 02       		.byte	0x2
 2919 11f2 DE01     		.2byte	0x1de
 2920 11f4 FE110000 		.4byte	0x11fe
 2921 11f8 0D       		.uleb128 0xd
 2922 11f9 E4000000 		.4byte	0xe4
 2923 11fd 00       		.byte	0
 2924 11fe 47       		.uleb128 0x47
 2925 11ff E7060000 		.4byte	.LASF133
 2926 1203 02       		.byte	0x2
 2927 1204 DF01     		.2byte	0x1df
 2928 1206 05010000 		.4byte	0x105
 2929 120a 19120000 		.4byte	0x1219
 2930 120e 0D       		.uleb128 0xd
 2931 120f E4000000 		.4byte	0xe4
 2932 1213 0D       		.uleb128 0xd
 2933 1214 31010000 		.4byte	0x131
 2934 1218 00       		.byte	0
 2935 1219 4B       		.uleb128 0x4b
 2936 121a 6D060000 		.4byte	.LASF138
 2937 121e 02       		.byte	0x2
 2938 121f E001     		.2byte	0x1e0
 2939 1221 0D       		.uleb128 0xd
 2940 1222 3D020000 		.4byte	0x23d
 2941 1226 0D       		.uleb128 0xd
 2942 1227 05010000 		.4byte	0x105
 2943 122b 00       		.byte	0
 2944 122c 00       		.byte	0
 2945              		.section	.debug_abbrev,"",%progbits
 2946              	.Ldebug_abbrev0:
 2947 0000 01       		.uleb128 0x1
 2948 0001 11       		.uleb128 0x11
 2949 0002 01       		.byte	0x1
 2950 0003 25       		.uleb128 0x25
 2951 0004 0E       		.uleb128 0xe
 2952 0005 13       		.uleb128 0x13
 2953 0006 0B       		.uleb128 0xb
 2954 0007 03       		.uleb128 0x3
 2955 0008 0E       		.uleb128 0xe
 2956 0009 1B       		.uleb128 0x1b
 2957 000a 0E       		.uleb128 0xe
 2958 000b 55       		.uleb128 0x55
 2959 000c 17       		.uleb128 0x17
 2960 000d 11       		.uleb128 0x11
 2961 000e 01       		.uleb128 0x1
 2962 000f 10       		.uleb128 0x10
 2963 0010 17       		.uleb128 0x17
 2964 0011 00       		.byte	0
ARM GAS  /tmp/ccYi4OMh.s 			page 53


 2965 0012 00       		.byte	0
 2966 0013 02       		.uleb128 0x2
 2967 0014 24       		.uleb128 0x24
 2968 0015 00       		.byte	0
 2969 0016 0B       		.uleb128 0xb
 2970 0017 0B       		.uleb128 0xb
 2971 0018 3E       		.uleb128 0x3e
 2972 0019 0B       		.uleb128 0xb
 2973 001a 03       		.uleb128 0x3
 2974 001b 08       		.uleb128 0x8
 2975 001c 00       		.byte	0
 2976 001d 00       		.byte	0
 2977 001e 03       		.uleb128 0x3
 2978 001f 24       		.uleb128 0x24
 2979 0020 00       		.byte	0
 2980 0021 0B       		.uleb128 0xb
 2981 0022 0B       		.uleb128 0xb
 2982 0023 3E       		.uleb128 0x3e
 2983 0024 0B       		.uleb128 0xb
 2984 0025 03       		.uleb128 0x3
 2985 0026 0E       		.uleb128 0xe
 2986 0027 00       		.byte	0
 2987 0028 00       		.byte	0
 2988 0029 04       		.uleb128 0x4
 2989 002a 16       		.uleb128 0x16
 2990 002b 00       		.byte	0
 2991 002c 03       		.uleb128 0x3
 2992 002d 0E       		.uleb128 0xe
 2993 002e 3A       		.uleb128 0x3a
 2994 002f 0B       		.uleb128 0xb
 2995 0030 3B       		.uleb128 0x3b
 2996 0031 0B       		.uleb128 0xb
 2997 0032 49       		.uleb128 0x49
 2998 0033 13       		.uleb128 0x13
 2999 0034 00       		.byte	0
 3000 0035 00       		.byte	0
 3001 0036 05       		.uleb128 0x5
 3002 0037 13       		.uleb128 0x13
 3003 0038 01       		.byte	0x1
 3004 0039 03       		.uleb128 0x3
 3005 003a 0E       		.uleb128 0xe
 3006 003b 0B       		.uleb128 0xb
 3007 003c 0B       		.uleb128 0xb
 3008 003d 3A       		.uleb128 0x3a
 3009 003e 0B       		.uleb128 0xb
 3010 003f 3B       		.uleb128 0x3b
 3011 0040 0B       		.uleb128 0xb
 3012 0041 01       		.uleb128 0x1
 3013 0042 13       		.uleb128 0x13
 3014 0043 00       		.byte	0
 3015 0044 00       		.byte	0
 3016 0045 06       		.uleb128 0x6
 3017 0046 0D       		.uleb128 0xd
 3018 0047 00       		.byte	0
 3019 0048 03       		.uleb128 0x3
 3020 0049 0E       		.uleb128 0xe
 3021 004a 3A       		.uleb128 0x3a
ARM GAS  /tmp/ccYi4OMh.s 			page 54


 3022 004b 0B       		.uleb128 0xb
 3023 004c 3B       		.uleb128 0x3b
 3024 004d 0B       		.uleb128 0xb
 3025 004e 49       		.uleb128 0x49
 3026 004f 13       		.uleb128 0x13
 3027 0050 38       		.uleb128 0x38
 3028 0051 0B       		.uleb128 0xb
 3029 0052 00       		.byte	0
 3030 0053 00       		.byte	0
 3031 0054 07       		.uleb128 0x7
 3032 0055 0D       		.uleb128 0xd
 3033 0056 00       		.byte	0
 3034 0057 03       		.uleb128 0x3
 3035 0058 08       		.uleb128 0x8
 3036 0059 3A       		.uleb128 0x3a
 3037 005a 0B       		.uleb128 0xb
 3038 005b 3B       		.uleb128 0x3b
 3039 005c 0B       		.uleb128 0xb
 3040 005d 49       		.uleb128 0x49
 3041 005e 13       		.uleb128 0x13
 3042 005f 38       		.uleb128 0x38
 3043 0060 0B       		.uleb128 0xb
 3044 0061 00       		.byte	0
 3045 0062 00       		.byte	0
 3046 0063 08       		.uleb128 0x8
 3047 0064 0D       		.uleb128 0xd
 3048 0065 00       		.byte	0
 3049 0066 03       		.uleb128 0x3
 3050 0067 08       		.uleb128 0x8
 3051 0068 3A       		.uleb128 0x3a
 3052 0069 0B       		.uleb128 0xb
 3053 006a 3B       		.uleb128 0x3b
 3054 006b 05       		.uleb128 0x5
 3055 006c 49       		.uleb128 0x49
 3056 006d 13       		.uleb128 0x13
 3057 006e 38       		.uleb128 0x38
 3058 006f 0B       		.uleb128 0xb
 3059 0070 00       		.byte	0
 3060 0071 00       		.byte	0
 3061 0072 09       		.uleb128 0x9
 3062 0073 0D       		.uleb128 0xd
 3063 0074 00       		.byte	0
 3064 0075 03       		.uleb128 0x3
 3065 0076 0E       		.uleb128 0xe
 3066 0077 3A       		.uleb128 0x3a
 3067 0078 0B       		.uleb128 0xb
 3068 0079 3B       		.uleb128 0x3b
 3069 007a 05       		.uleb128 0x5
 3070 007b 49       		.uleb128 0x49
 3071 007c 13       		.uleb128 0x13
 3072 007d 38       		.uleb128 0x38
 3073 007e 0B       		.uleb128 0xb
 3074 007f 00       		.byte	0
 3075 0080 00       		.byte	0
 3076 0081 0A       		.uleb128 0xa
 3077 0082 0F       		.uleb128 0xf
 3078 0083 00       		.byte	0
ARM GAS  /tmp/ccYi4OMh.s 			page 55


 3079 0084 0B       		.uleb128 0xb
 3080 0085 0B       		.uleb128 0xb
 3081 0086 49       		.uleb128 0x49
 3082 0087 13       		.uleb128 0x13
 3083 0088 00       		.byte	0
 3084 0089 00       		.byte	0
 3085 008a 0B       		.uleb128 0xb
 3086 008b 13       		.uleb128 0x13
 3087 008c 01       		.byte	0x1
 3088 008d 03       		.uleb128 0x3
 3089 008e 0E       		.uleb128 0xe
 3090 008f 0B       		.uleb128 0xb
 3091 0090 0B       		.uleb128 0xb
 3092 0091 3A       		.uleb128 0x3a
 3093 0092 0B       		.uleb128 0xb
 3094 0093 3B       		.uleb128 0x3b
 3095 0094 05       		.uleb128 0x5
 3096 0095 01       		.uleb128 0x1
 3097 0096 13       		.uleb128 0x13
 3098 0097 00       		.byte	0
 3099 0098 00       		.byte	0
 3100 0099 0C       		.uleb128 0xc
 3101 009a 15       		.uleb128 0x15
 3102 009b 01       		.byte	0x1
 3103 009c 27       		.uleb128 0x27
 3104 009d 19       		.uleb128 0x19
 3105 009e 01       		.uleb128 0x1
 3106 009f 13       		.uleb128 0x13
 3107 00a0 00       		.byte	0
 3108 00a1 00       		.byte	0
 3109 00a2 0D       		.uleb128 0xd
 3110 00a3 05       		.uleb128 0x5
 3111 00a4 00       		.byte	0
 3112 00a5 49       		.uleb128 0x49
 3113 00a6 13       		.uleb128 0x13
 3114 00a7 00       		.byte	0
 3115 00a8 00       		.byte	0
 3116 00a9 0E       		.uleb128 0xe
 3117 00aa 0F       		.uleb128 0xf
 3118 00ab 00       		.byte	0
 3119 00ac 0B       		.uleb128 0xb
 3120 00ad 0B       		.uleb128 0xb
 3121 00ae 00       		.byte	0
 3122 00af 00       		.byte	0
 3123 00b0 0F       		.uleb128 0xf
 3124 00b1 13       		.uleb128 0x13
 3125 00b2 01       		.byte	0x1
 3126 00b3 0B       		.uleb128 0xb
 3127 00b4 0B       		.uleb128 0xb
 3128 00b5 3A       		.uleb128 0x3a
 3129 00b6 0B       		.uleb128 0xb
 3130 00b7 3B       		.uleb128 0x3b
 3131 00b8 0B       		.uleb128 0xb
 3132 00b9 01       		.uleb128 0x1
 3133 00ba 13       		.uleb128 0x13
 3134 00bb 00       		.byte	0
 3135 00bc 00       		.byte	0
ARM GAS  /tmp/ccYi4OMh.s 			page 56


 3136 00bd 10       		.uleb128 0x10
 3137 00be 17       		.uleb128 0x17
 3138 00bf 01       		.byte	0x1
 3139 00c0 0B       		.uleb128 0xb
 3140 00c1 0B       		.uleb128 0xb
 3141 00c2 3A       		.uleb128 0x3a
 3142 00c3 0B       		.uleb128 0xb
 3143 00c4 3B       		.uleb128 0x3b
 3144 00c5 0B       		.uleb128 0xb
 3145 00c6 01       		.uleb128 0x1
 3146 00c7 13       		.uleb128 0x13
 3147 00c8 00       		.byte	0
 3148 00c9 00       		.byte	0
 3149 00ca 11       		.uleb128 0x11
 3150 00cb 0D       		.uleb128 0xd
 3151 00cc 00       		.byte	0
 3152 00cd 03       		.uleb128 0x3
 3153 00ce 0E       		.uleb128 0xe
 3154 00cf 3A       		.uleb128 0x3a
 3155 00d0 0B       		.uleb128 0xb
 3156 00d1 3B       		.uleb128 0x3b
 3157 00d2 0B       		.uleb128 0xb
 3158 00d3 49       		.uleb128 0x49
 3159 00d4 13       		.uleb128 0x13
 3160 00d5 00       		.byte	0
 3161 00d6 00       		.byte	0
 3162 00d7 12       		.uleb128 0x12
 3163 00d8 0D       		.uleb128 0xd
 3164 00d9 00       		.byte	0
 3165 00da 03       		.uleb128 0x3
 3166 00db 0E       		.uleb128 0xe
 3167 00dc 3A       		.uleb128 0x3a
 3168 00dd 0B       		.uleb128 0xb
 3169 00de 3B       		.uleb128 0x3b
 3170 00df 05       		.uleb128 0x5
 3171 00e0 49       		.uleb128 0x49
 3172 00e1 13       		.uleb128 0x13
 3173 00e2 00       		.byte	0
 3174 00e3 00       		.byte	0
 3175 00e4 13       		.uleb128 0x13
 3176 00e5 26       		.uleb128 0x26
 3177 00e6 00       		.byte	0
 3178 00e7 49       		.uleb128 0x49
 3179 00e8 13       		.uleb128 0x13
 3180 00e9 00       		.byte	0
 3181 00ea 00       		.byte	0
 3182 00eb 14       		.uleb128 0x14
 3183 00ec 35       		.uleb128 0x35
 3184 00ed 00       		.byte	0
 3185 00ee 49       		.uleb128 0x49
 3186 00ef 13       		.uleb128 0x13
 3187 00f0 00       		.byte	0
 3188 00f1 00       		.byte	0
 3189 00f2 15       		.uleb128 0x15
 3190 00f3 2E       		.uleb128 0x2e
 3191 00f4 01       		.byte	0x1
 3192 00f5 03       		.uleb128 0x3
ARM GAS  /tmp/ccYi4OMh.s 			page 57


 3193 00f6 0E       		.uleb128 0xe
 3194 00f7 3A       		.uleb128 0x3a
 3195 00f8 0B       		.uleb128 0xb
 3196 00f9 3B       		.uleb128 0x3b
 3197 00fa 05       		.uleb128 0x5
 3198 00fb 27       		.uleb128 0x27
 3199 00fc 19       		.uleb128 0x19
 3200 00fd 20       		.uleb128 0x20
 3201 00fe 0B       		.uleb128 0xb
 3202 00ff 01       		.uleb128 0x1
 3203 0100 13       		.uleb128 0x13
 3204 0101 00       		.byte	0
 3205 0102 00       		.byte	0
 3206 0103 16       		.uleb128 0x16
 3207 0104 05       		.uleb128 0x5
 3208 0105 00       		.byte	0
 3209 0106 03       		.uleb128 0x3
 3210 0107 0E       		.uleb128 0xe
 3211 0108 3A       		.uleb128 0x3a
 3212 0109 0B       		.uleb128 0xb
 3213 010a 3B       		.uleb128 0x3b
 3214 010b 05       		.uleb128 0x5
 3215 010c 49       		.uleb128 0x49
 3216 010d 13       		.uleb128 0x13
 3217 010e 00       		.byte	0
 3218 010f 00       		.byte	0
 3219 0110 17       		.uleb128 0x17
 3220 0111 2E       		.uleb128 0x2e
 3221 0112 00       		.byte	0
 3222 0113 03       		.uleb128 0x3
 3223 0114 0E       		.uleb128 0xe
 3224 0115 3A       		.uleb128 0x3a
 3225 0116 0B       		.uleb128 0xb
 3226 0117 3B       		.uleb128 0x3b
 3227 0118 05       		.uleb128 0x5
 3228 0119 27       		.uleb128 0x27
 3229 011a 19       		.uleb128 0x19
 3230 011b 20       		.uleb128 0x20
 3231 011c 0B       		.uleb128 0xb
 3232 011d 00       		.byte	0
 3233 011e 00       		.byte	0
 3234 011f 18       		.uleb128 0x18
 3235 0120 05       		.uleb128 0x5
 3236 0121 00       		.byte	0
 3237 0122 03       		.uleb128 0x3
 3238 0123 08       		.uleb128 0x8
 3239 0124 3A       		.uleb128 0x3a
 3240 0125 0B       		.uleb128 0xb
 3241 0126 3B       		.uleb128 0x3b
 3242 0127 05       		.uleb128 0x5
 3243 0128 49       		.uleb128 0x49
 3244 0129 13       		.uleb128 0x13
 3245 012a 00       		.byte	0
 3246 012b 00       		.byte	0
 3247 012c 19       		.uleb128 0x19
 3248 012d 2E       		.uleb128 0x2e
 3249 012e 01       		.byte	0x1
ARM GAS  /tmp/ccYi4OMh.s 			page 58


 3250 012f 03       		.uleb128 0x3
 3251 0130 0E       		.uleb128 0xe
 3252 0131 3A       		.uleb128 0x3a
 3253 0132 0B       		.uleb128 0xb
 3254 0133 3B       		.uleb128 0x3b
 3255 0134 05       		.uleb128 0x5
 3256 0135 27       		.uleb128 0x27
 3257 0136 19       		.uleb128 0x19
 3258 0137 49       		.uleb128 0x49
 3259 0138 13       		.uleb128 0x13
 3260 0139 20       		.uleb128 0x20
 3261 013a 0B       		.uleb128 0xb
 3262 013b 01       		.uleb128 0x1
 3263 013c 13       		.uleb128 0x13
 3264 013d 00       		.byte	0
 3265 013e 00       		.byte	0
 3266 013f 1A       		.uleb128 0x1a
 3267 0140 34       		.uleb128 0x34
 3268 0141 00       		.byte	0
 3269 0142 03       		.uleb128 0x3
 3270 0143 08       		.uleb128 0x8
 3271 0144 3A       		.uleb128 0x3a
 3272 0145 0B       		.uleb128 0xb
 3273 0146 3B       		.uleb128 0x3b
 3274 0147 05       		.uleb128 0x5
 3275 0148 49       		.uleb128 0x49
 3276 0149 13       		.uleb128 0x13
 3277 014a 00       		.byte	0
 3278 014b 00       		.byte	0
 3279 014c 1B       		.uleb128 0x1b
 3280 014d 2E       		.uleb128 0x2e
 3281 014e 01       		.byte	0x1
 3282 014f 3F       		.uleb128 0x3f
 3283 0150 19       		.uleb128 0x19
 3284 0151 03       		.uleb128 0x3
 3285 0152 0E       		.uleb128 0xe
 3286 0153 3A       		.uleb128 0x3a
 3287 0154 0B       		.uleb128 0xb
 3288 0155 3B       		.uleb128 0x3b
 3289 0156 0B       		.uleb128 0xb
 3290 0157 27       		.uleb128 0x27
 3291 0158 19       		.uleb128 0x19
 3292 0159 49       		.uleb128 0x49
 3293 015a 13       		.uleb128 0x13
 3294 015b 20       		.uleb128 0x20
 3295 015c 0B       		.uleb128 0xb
 3296 015d 01       		.uleb128 0x1
 3297 015e 13       		.uleb128 0x13
 3298 015f 00       		.byte	0
 3299 0160 00       		.byte	0
 3300 0161 1C       		.uleb128 0x1c
 3301 0162 05       		.uleb128 0x5
 3302 0163 00       		.byte	0
 3303 0164 03       		.uleb128 0x3
 3304 0165 08       		.uleb128 0x8
 3305 0166 3A       		.uleb128 0x3a
 3306 0167 0B       		.uleb128 0xb
ARM GAS  /tmp/ccYi4OMh.s 			page 59


 3307 0168 3B       		.uleb128 0x3b
 3308 0169 0B       		.uleb128 0xb
 3309 016a 49       		.uleb128 0x49
 3310 016b 13       		.uleb128 0x13
 3311 016c 00       		.byte	0
 3312 016d 00       		.byte	0
 3313 016e 1D       		.uleb128 0x1d
 3314 016f 34       		.uleb128 0x34
 3315 0170 00       		.byte	0
 3316 0171 03       		.uleb128 0x3
 3317 0172 0E       		.uleb128 0xe
 3318 0173 49       		.uleb128 0x49
 3319 0174 13       		.uleb128 0x13
 3320 0175 34       		.uleb128 0x34
 3321 0176 19       		.uleb128 0x19
 3322 0177 1C       		.uleb128 0x1c
 3323 0178 0E       		.uleb128 0xe
 3324 0179 00       		.byte	0
 3325 017a 00       		.byte	0
 3326 017b 1E       		.uleb128 0x1e
 3327 017c 01       		.uleb128 0x1
 3328 017d 01       		.byte	0x1
 3329 017e 49       		.uleb128 0x49
 3330 017f 13       		.uleb128 0x13
 3331 0180 01       		.uleb128 0x1
 3332 0181 13       		.uleb128 0x13
 3333 0182 00       		.byte	0
 3334 0183 00       		.byte	0
 3335 0184 1F       		.uleb128 0x1f
 3336 0185 21       		.uleb128 0x21
 3337 0186 00       		.byte	0
 3338 0187 49       		.uleb128 0x49
 3339 0188 13       		.uleb128 0x13
 3340 0189 2F       		.uleb128 0x2f
 3341 018a 0B       		.uleb128 0xb
 3342 018b 00       		.byte	0
 3343 018c 00       		.byte	0
 3344 018d 20       		.uleb128 0x20
 3345 018e 2E       		.uleb128 0x2e
 3346 018f 01       		.byte	0x1
 3347 0190 3F       		.uleb128 0x3f
 3348 0191 19       		.uleb128 0x19
 3349 0192 03       		.uleb128 0x3
 3350 0193 0E       		.uleb128 0xe
 3351 0194 3A       		.uleb128 0x3a
 3352 0195 0B       		.uleb128 0xb
 3353 0196 3B       		.uleb128 0x3b
 3354 0197 05       		.uleb128 0x5
 3355 0198 27       		.uleb128 0x27
 3356 0199 19       		.uleb128 0x19
 3357 019a 49       		.uleb128 0x49
 3358 019b 13       		.uleb128 0x13
 3359 019c 20       		.uleb128 0x20
 3360 019d 0B       		.uleb128 0xb
 3361 019e 01       		.uleb128 0x1
 3362 019f 13       		.uleb128 0x13
 3363 01a0 00       		.byte	0
ARM GAS  /tmp/ccYi4OMh.s 			page 60


 3364 01a1 00       		.byte	0
 3365 01a2 21       		.uleb128 0x21
 3366 01a3 2E       		.uleb128 0x2e
 3367 01a4 01       		.byte	0x1
 3368 01a5 3F       		.uleb128 0x3f
 3369 01a6 19       		.uleb128 0x19
 3370 01a7 03       		.uleb128 0x3
 3371 01a8 0E       		.uleb128 0xe
 3372 01a9 3A       		.uleb128 0x3a
 3373 01aa 0B       		.uleb128 0xb
 3374 01ab 3B       		.uleb128 0x3b
 3375 01ac 0B       		.uleb128 0xb
 3376 01ad 27       		.uleb128 0x27
 3377 01ae 19       		.uleb128 0x19
 3378 01af 11       		.uleb128 0x11
 3379 01b0 01       		.uleb128 0x1
 3380 01b1 12       		.uleb128 0x12
 3381 01b2 06       		.uleb128 0x6
 3382 01b3 40       		.uleb128 0x40
 3383 01b4 18       		.uleb128 0x18
 3384 01b5 9742     		.uleb128 0x2117
 3385 01b7 19       		.uleb128 0x19
 3386 01b8 01       		.uleb128 0x1
 3387 01b9 13       		.uleb128 0x13
 3388 01ba 00       		.byte	0
 3389 01bb 00       		.byte	0
 3390 01bc 22       		.uleb128 0x22
 3391 01bd 05       		.uleb128 0x5
 3392 01be 00       		.byte	0
 3393 01bf 03       		.uleb128 0x3
 3394 01c0 08       		.uleb128 0x8
 3395 01c1 3A       		.uleb128 0x3a
 3396 01c2 0B       		.uleb128 0xb
 3397 01c3 3B       		.uleb128 0x3b
 3398 01c4 0B       		.uleb128 0xb
 3399 01c5 49       		.uleb128 0x49
 3400 01c6 13       		.uleb128 0x13
 3401 01c7 02       		.uleb128 0x2
 3402 01c8 18       		.uleb128 0x18
 3403 01c9 00       		.byte	0
 3404 01ca 00       		.byte	0
 3405 01cb 23       		.uleb128 0x23
 3406 01cc 34       		.uleb128 0x34
 3407 01cd 00       		.byte	0
 3408 01ce 03       		.uleb128 0x3
 3409 01cf 0E       		.uleb128 0xe
 3410 01d0 49       		.uleb128 0x49
 3411 01d1 13       		.uleb128 0x13
 3412 01d2 34       		.uleb128 0x34
 3413 01d3 19       		.uleb128 0x19
 3414 01d4 00       		.byte	0
 3415 01d5 00       		.byte	0
 3416 01d6 24       		.uleb128 0x24
 3417 01d7 1D       		.uleb128 0x1d
 3418 01d8 01       		.byte	0x1
 3419 01d9 31       		.uleb128 0x31
 3420 01da 13       		.uleb128 0x13
ARM GAS  /tmp/ccYi4OMh.s 			page 61


 3421 01db 11       		.uleb128 0x11
 3422 01dc 01       		.uleb128 0x1
 3423 01dd 12       		.uleb128 0x12
 3424 01de 06       		.uleb128 0x6
 3425 01df 58       		.uleb128 0x58
 3426 01e0 0B       		.uleb128 0xb
 3427 01e1 59       		.uleb128 0x59
 3428 01e2 0B       		.uleb128 0xb
 3429 01e3 00       		.byte	0
 3430 01e4 00       		.byte	0
 3431 01e5 25       		.uleb128 0x25
 3432 01e6 05       		.uleb128 0x5
 3433 01e7 00       		.byte	0
 3434 01e8 31       		.uleb128 0x31
 3435 01e9 13       		.uleb128 0x13
 3436 01ea 02       		.uleb128 0x2
 3437 01eb 18       		.uleb128 0x18
 3438 01ec 00       		.byte	0
 3439 01ed 00       		.byte	0
 3440 01ee 26       		.uleb128 0x26
 3441 01ef 05       		.uleb128 0x5
 3442 01f0 00       		.byte	0
 3443 01f1 03       		.uleb128 0x3
 3444 01f2 08       		.uleb128 0x8
 3445 01f3 3A       		.uleb128 0x3a
 3446 01f4 0B       		.uleb128 0xb
 3447 01f5 3B       		.uleb128 0x3b
 3448 01f6 0B       		.uleb128 0xb
 3449 01f7 49       		.uleb128 0x49
 3450 01f8 13       		.uleb128 0x13
 3451 01f9 02       		.uleb128 0x2
 3452 01fa 17       		.uleb128 0x17
 3453 01fb 00       		.byte	0
 3454 01fc 00       		.byte	0
 3455 01fd 27       		.uleb128 0x27
 3456 01fe 34       		.uleb128 0x34
 3457 01ff 00       		.byte	0
 3458 0200 03       		.uleb128 0x3
 3459 0201 08       		.uleb128 0x8
 3460 0202 3A       		.uleb128 0x3a
 3461 0203 0B       		.uleb128 0xb
 3462 0204 3B       		.uleb128 0x3b
 3463 0205 0B       		.uleb128 0xb
 3464 0206 49       		.uleb128 0x49
 3465 0207 13       		.uleb128 0x13
 3466 0208 02       		.uleb128 0x2
 3467 0209 18       		.uleb128 0x18
 3468 020a 00       		.byte	0
 3469 020b 00       		.byte	0
 3470 020c 28       		.uleb128 0x28
 3471 020d 1D       		.uleb128 0x1d
 3472 020e 01       		.byte	0x1
 3473 020f 31       		.uleb128 0x31
 3474 0210 13       		.uleb128 0x13
 3475 0211 11       		.uleb128 0x11
 3476 0212 01       		.uleb128 0x1
 3477 0213 12       		.uleb128 0x12
ARM GAS  /tmp/ccYi4OMh.s 			page 62


 3478 0214 06       		.uleb128 0x6
 3479 0215 58       		.uleb128 0x58
 3480 0216 0B       		.uleb128 0xb
 3481 0217 59       		.uleb128 0x59
 3482 0218 0B       		.uleb128 0xb
 3483 0219 01       		.uleb128 0x1
 3484 021a 13       		.uleb128 0x13
 3485 021b 00       		.byte	0
 3486 021c 00       		.byte	0
 3487 021d 29       		.uleb128 0x29
 3488 021e 05       		.uleb128 0x5
 3489 021f 00       		.byte	0
 3490 0220 31       		.uleb128 0x31
 3491 0221 13       		.uleb128 0x13
 3492 0222 02       		.uleb128 0x2
 3493 0223 17       		.uleb128 0x17
 3494 0224 00       		.byte	0
 3495 0225 00       		.byte	0
 3496 0226 2A       		.uleb128 0x2a
 3497 0227 0B       		.uleb128 0xb
 3498 0228 01       		.byte	0x1
 3499 0229 11       		.uleb128 0x11
 3500 022a 01       		.uleb128 0x1
 3501 022b 12       		.uleb128 0x12
 3502 022c 06       		.uleb128 0x6
 3503 022d 00       		.byte	0
 3504 022e 00       		.byte	0
 3505 022f 2B       		.uleb128 0x2b
 3506 0230 34       		.uleb128 0x34
 3507 0231 00       		.byte	0
 3508 0232 31       		.uleb128 0x31
 3509 0233 13       		.uleb128 0x13
 3510 0234 02       		.uleb128 0x2
 3511 0235 17       		.uleb128 0x17
 3512 0236 00       		.byte	0
 3513 0237 00       		.byte	0
 3514 0238 2C       		.uleb128 0x2c
 3515 0239 898201   		.uleb128 0x4109
 3516 023c 00       		.byte	0
 3517 023d 11       		.uleb128 0x11
 3518 023e 01       		.uleb128 0x1
 3519 023f 31       		.uleb128 0x31
 3520 0240 13       		.uleb128 0x13
 3521 0241 00       		.byte	0
 3522 0242 00       		.byte	0
 3523 0243 2D       		.uleb128 0x2d
 3524 0244 1D       		.uleb128 0x1d
 3525 0245 01       		.byte	0x1
 3526 0246 31       		.uleb128 0x31
 3527 0247 13       		.uleb128 0x13
 3528 0248 11       		.uleb128 0x11
 3529 0249 01       		.uleb128 0x1
 3530 024a 12       		.uleb128 0x12
 3531 024b 06       		.uleb128 0x6
 3532 024c 58       		.uleb128 0x58
 3533 024d 0B       		.uleb128 0xb
 3534 024e 59       		.uleb128 0x59
ARM GAS  /tmp/ccYi4OMh.s 			page 63


 3535 024f 05       		.uleb128 0x5
 3536 0250 01       		.uleb128 0x1
 3537 0251 13       		.uleb128 0x13
 3538 0252 00       		.byte	0
 3539 0253 00       		.byte	0
 3540 0254 2E       		.uleb128 0x2e
 3541 0255 1D       		.uleb128 0x1d
 3542 0256 01       		.byte	0x1
 3543 0257 31       		.uleb128 0x31
 3544 0258 13       		.uleb128 0x13
 3545 0259 11       		.uleb128 0x11
 3546 025a 01       		.uleb128 0x1
 3547 025b 12       		.uleb128 0x12
 3548 025c 06       		.uleb128 0x6
 3549 025d 58       		.uleb128 0x58
 3550 025e 0B       		.uleb128 0xb
 3551 025f 59       		.uleb128 0x59
 3552 0260 05       		.uleb128 0x5
 3553 0261 00       		.byte	0
 3554 0262 00       		.byte	0
 3555 0263 2F       		.uleb128 0x2f
 3556 0264 05       		.uleb128 0x5
 3557 0265 00       		.byte	0
 3558 0266 31       		.uleb128 0x31
 3559 0267 13       		.uleb128 0x13
 3560 0268 1C       		.uleb128 0x1c
 3561 0269 0B       		.uleb128 0xb
 3562 026a 00       		.byte	0
 3563 026b 00       		.byte	0
 3564 026c 30       		.uleb128 0x30
 3565 026d 34       		.uleb128 0x34
 3566 026e 00       		.byte	0
 3567 026f 31       		.uleb128 0x31
 3568 0270 13       		.uleb128 0x13
 3569 0271 00       		.byte	0
 3570 0272 00       		.byte	0
 3571 0273 31       		.uleb128 0x31
 3572 0274 898201   		.uleb128 0x4109
 3573 0277 01       		.byte	0x1
 3574 0278 11       		.uleb128 0x11
 3575 0279 01       		.uleb128 0x1
 3576 027a 31       		.uleb128 0x31
 3577 027b 13       		.uleb128 0x13
 3578 027c 01       		.uleb128 0x1
 3579 027d 13       		.uleb128 0x13
 3580 027e 00       		.byte	0
 3581 027f 00       		.byte	0
 3582 0280 32       		.uleb128 0x32
 3583 0281 8A8201   		.uleb128 0x410a
 3584 0284 00       		.byte	0
 3585 0285 02       		.uleb128 0x2
 3586 0286 18       		.uleb128 0x18
 3587 0287 9142     		.uleb128 0x2111
 3588 0289 18       		.uleb128 0x18
 3589 028a 00       		.byte	0
 3590 028b 00       		.byte	0
 3591 028c 33       		.uleb128 0x33
ARM GAS  /tmp/ccYi4OMh.s 			page 64


 3592 028d 2E       		.uleb128 0x2e
 3593 028e 01       		.byte	0x1
 3594 028f 31       		.uleb128 0x31
 3595 0290 13       		.uleb128 0x13
 3596 0291 11       		.uleb128 0x11
 3597 0292 01       		.uleb128 0x1
 3598 0293 12       		.uleb128 0x12
 3599 0294 06       		.uleb128 0x6
 3600 0295 40       		.uleb128 0x40
 3601 0296 18       		.uleb128 0x18
 3602 0297 9742     		.uleb128 0x2117
 3603 0299 19       		.uleb128 0x19
 3604 029a 01       		.uleb128 0x1
 3605 029b 13       		.uleb128 0x13
 3606 029c 00       		.byte	0
 3607 029d 00       		.byte	0
 3608 029e 34       		.uleb128 0x34
 3609 029f 898201   		.uleb128 0x4109
 3610 02a2 01       		.byte	0x1
 3611 02a3 11       		.uleb128 0x11
 3612 02a4 01       		.uleb128 0x1
 3613 02a5 31       		.uleb128 0x31
 3614 02a6 13       		.uleb128 0x13
 3615 02a7 00       		.byte	0
 3616 02a8 00       		.byte	0
 3617 02a9 35       		.uleb128 0x35
 3618 02aa 2E       		.uleb128 0x2e
 3619 02ab 01       		.byte	0x1
 3620 02ac 3F       		.uleb128 0x3f
 3621 02ad 19       		.uleb128 0x19
 3622 02ae 03       		.uleb128 0x3
 3623 02af 0E       		.uleb128 0xe
 3624 02b0 3A       		.uleb128 0x3a
 3625 02b1 0B       		.uleb128 0xb
 3626 02b2 3B       		.uleb128 0x3b
 3627 02b3 0B       		.uleb128 0xb
 3628 02b4 27       		.uleb128 0x27
 3629 02b5 19       		.uleb128 0x19
 3630 02b6 49       		.uleb128 0x49
 3631 02b7 13       		.uleb128 0x13
 3632 02b8 11       		.uleb128 0x11
 3633 02b9 01       		.uleb128 0x1
 3634 02ba 12       		.uleb128 0x12
 3635 02bb 06       		.uleb128 0x6
 3636 02bc 40       		.uleb128 0x40
 3637 02bd 18       		.uleb128 0x18
 3638 02be 9742     		.uleb128 0x2117
 3639 02c0 19       		.uleb128 0x19
 3640 02c1 01       		.uleb128 0x1
 3641 02c2 13       		.uleb128 0x13
 3642 02c3 00       		.byte	0
 3643 02c4 00       		.byte	0
 3644 02c5 36       		.uleb128 0x36
 3645 02c6 34       		.uleb128 0x34
 3646 02c7 00       		.byte	0
 3647 02c8 03       		.uleb128 0x3
 3648 02c9 08       		.uleb128 0x8
ARM GAS  /tmp/ccYi4OMh.s 			page 65


 3649 02ca 3A       		.uleb128 0x3a
 3650 02cb 0B       		.uleb128 0xb
 3651 02cc 3B       		.uleb128 0x3b
 3652 02cd 0B       		.uleb128 0xb
 3653 02ce 49       		.uleb128 0x49
 3654 02cf 13       		.uleb128 0x13
 3655 02d0 02       		.uleb128 0x2
 3656 02d1 17       		.uleb128 0x17
 3657 02d2 00       		.byte	0
 3658 02d3 00       		.byte	0
 3659 02d4 37       		.uleb128 0x37
 3660 02d5 1D       		.uleb128 0x1d
 3661 02d6 01       		.byte	0x1
 3662 02d7 31       		.uleb128 0x31
 3663 02d8 13       		.uleb128 0x13
 3664 02d9 52       		.uleb128 0x52
 3665 02da 01       		.uleb128 0x1
 3666 02db 55       		.uleb128 0x55
 3667 02dc 17       		.uleb128 0x17
 3668 02dd 58       		.uleb128 0x58
 3669 02de 0B       		.uleb128 0xb
 3670 02df 59       		.uleb128 0x59
 3671 02e0 0B       		.uleb128 0xb
 3672 02e1 01       		.uleb128 0x1
 3673 02e2 13       		.uleb128 0x13
 3674 02e3 00       		.byte	0
 3675 02e4 00       		.byte	0
 3676 02e5 38       		.uleb128 0x38
 3677 02e6 1D       		.uleb128 0x1d
 3678 02e7 01       		.byte	0x1
 3679 02e8 31       		.uleb128 0x31
 3680 02e9 13       		.uleb128 0x13
 3681 02ea 52       		.uleb128 0x52
 3682 02eb 01       		.uleb128 0x1
 3683 02ec 55       		.uleb128 0x55
 3684 02ed 17       		.uleb128 0x17
 3685 02ee 58       		.uleb128 0x58
 3686 02ef 0B       		.uleb128 0xb
 3687 02f0 59       		.uleb128 0x59
 3688 02f1 05       		.uleb128 0x5
 3689 02f2 01       		.uleb128 0x1
 3690 02f3 13       		.uleb128 0x13
 3691 02f4 00       		.byte	0
 3692 02f5 00       		.byte	0
 3693 02f6 39       		.uleb128 0x39
 3694 02f7 1D       		.uleb128 0x1d
 3695 02f8 01       		.byte	0x1
 3696 02f9 31       		.uleb128 0x31
 3697 02fa 13       		.uleb128 0x13
 3698 02fb 52       		.uleb128 0x52
 3699 02fc 01       		.uleb128 0x1
 3700 02fd 55       		.uleb128 0x55
 3701 02fe 17       		.uleb128 0x17
 3702 02ff 58       		.uleb128 0x58
 3703 0300 0B       		.uleb128 0xb
 3704 0301 59       		.uleb128 0x59
 3705 0302 05       		.uleb128 0x5
ARM GAS  /tmp/ccYi4OMh.s 			page 66


 3706 0303 00       		.byte	0
 3707 0304 00       		.byte	0
 3708 0305 3A       		.uleb128 0x3a
 3709 0306 0B       		.uleb128 0xb
 3710 0307 01       		.byte	0x1
 3711 0308 55       		.uleb128 0x55
 3712 0309 17       		.uleb128 0x17
 3713 030a 00       		.byte	0
 3714 030b 00       		.byte	0
 3715 030c 3B       		.uleb128 0x3b
 3716 030d 05       		.uleb128 0x5
 3717 030e 00       		.byte	0
 3718 030f 31       		.uleb128 0x31
 3719 0310 13       		.uleb128 0x13
 3720 0311 00       		.byte	0
 3721 0312 00       		.byte	0
 3722 0313 3C       		.uleb128 0x3c
 3723 0314 898201   		.uleb128 0x4109
 3724 0317 01       		.byte	0x1
 3725 0318 11       		.uleb128 0x11
 3726 0319 01       		.uleb128 0x1
 3727 031a 9542     		.uleb128 0x2115
 3728 031c 19       		.uleb128 0x19
 3729 031d 31       		.uleb128 0x31
 3730 031e 13       		.uleb128 0x13
 3731 031f 00       		.byte	0
 3732 0320 00       		.byte	0
 3733 0321 3D       		.uleb128 0x3d
 3734 0322 05       		.uleb128 0x5
 3735 0323 00       		.byte	0
 3736 0324 03       		.uleb128 0x3
 3737 0325 0E       		.uleb128 0xe
 3738 0326 3A       		.uleb128 0x3a
 3739 0327 0B       		.uleb128 0xb
 3740 0328 3B       		.uleb128 0x3b
 3741 0329 0B       		.uleb128 0xb
 3742 032a 49       		.uleb128 0x49
 3743 032b 13       		.uleb128 0x13
 3744 032c 02       		.uleb128 0x2
 3745 032d 17       		.uleb128 0x17
 3746 032e 00       		.byte	0
 3747 032f 00       		.byte	0
 3748 0330 3E       		.uleb128 0x3e
 3749 0331 2E       		.uleb128 0x2e
 3750 0332 01       		.byte	0x1
 3751 0333 3F       		.uleb128 0x3f
 3752 0334 19       		.uleb128 0x19
 3753 0335 03       		.uleb128 0x3
 3754 0336 0E       		.uleb128 0xe
 3755 0337 3A       		.uleb128 0x3a
 3756 0338 0B       		.uleb128 0xb
 3757 0339 3B       		.uleb128 0x3b
 3758 033a 05       		.uleb128 0x5
 3759 033b 27       		.uleb128 0x27
 3760 033c 19       		.uleb128 0x19
 3761 033d 11       		.uleb128 0x11
 3762 033e 01       		.uleb128 0x1
ARM GAS  /tmp/ccYi4OMh.s 			page 67


 3763 033f 12       		.uleb128 0x12
 3764 0340 06       		.uleb128 0x6
 3765 0341 40       		.uleb128 0x40
 3766 0342 18       		.uleb128 0x18
 3767 0343 9742     		.uleb128 0x2117
 3768 0345 19       		.uleb128 0x19
 3769 0346 01       		.uleb128 0x1
 3770 0347 13       		.uleb128 0x13
 3771 0348 00       		.byte	0
 3772 0349 00       		.byte	0
 3773 034a 3F       		.uleb128 0x3f
 3774 034b 05       		.uleb128 0x5
 3775 034c 00       		.byte	0
 3776 034d 03       		.uleb128 0x3
 3777 034e 08       		.uleb128 0x8
 3778 034f 3A       		.uleb128 0x3a
 3779 0350 0B       		.uleb128 0xb
 3780 0351 3B       		.uleb128 0x3b
 3781 0352 05       		.uleb128 0x5
 3782 0353 49       		.uleb128 0x49
 3783 0354 13       		.uleb128 0x13
 3784 0355 02       		.uleb128 0x2
 3785 0356 17       		.uleb128 0x17
 3786 0357 00       		.byte	0
 3787 0358 00       		.byte	0
 3788 0359 40       		.uleb128 0x40
 3789 035a 34       		.uleb128 0x34
 3790 035b 00       		.byte	0
 3791 035c 03       		.uleb128 0x3
 3792 035d 08       		.uleb128 0x8
 3793 035e 3A       		.uleb128 0x3a
 3794 035f 0B       		.uleb128 0xb
 3795 0360 3B       		.uleb128 0x3b
 3796 0361 05       		.uleb128 0x5
 3797 0362 49       		.uleb128 0x49
 3798 0363 13       		.uleb128 0x13
 3799 0364 02       		.uleb128 0x2
 3800 0365 18       		.uleb128 0x18
 3801 0366 00       		.byte	0
 3802 0367 00       		.byte	0
 3803 0368 41       		.uleb128 0x41
 3804 0369 898201   		.uleb128 0x4109
 3805 036c 00       		.byte	0
 3806 036d 11       		.uleb128 0x11
 3807 036e 01       		.uleb128 0x1
 3808 036f 9542     		.uleb128 0x2115
 3809 0371 19       		.uleb128 0x19
 3810 0372 31       		.uleb128 0x31
 3811 0373 13       		.uleb128 0x13
 3812 0374 00       		.byte	0
 3813 0375 00       		.byte	0
 3814 0376 42       		.uleb128 0x42
 3815 0377 2E       		.uleb128 0x2e
 3816 0378 01       		.byte	0x1
 3817 0379 3F       		.uleb128 0x3f
 3818 037a 19       		.uleb128 0x19
 3819 037b 03       		.uleb128 0x3
ARM GAS  /tmp/ccYi4OMh.s 			page 68


 3820 037c 0E       		.uleb128 0xe
 3821 037d 3A       		.uleb128 0x3a
 3822 037e 0B       		.uleb128 0xb
 3823 037f 3B       		.uleb128 0x3b
 3824 0380 05       		.uleb128 0x5
 3825 0381 27       		.uleb128 0x27
 3826 0382 19       		.uleb128 0x19
 3827 0383 49       		.uleb128 0x49
 3828 0384 13       		.uleb128 0x13
 3829 0385 11       		.uleb128 0x11
 3830 0386 01       		.uleb128 0x1
 3831 0387 12       		.uleb128 0x12
 3832 0388 06       		.uleb128 0x6
 3833 0389 40       		.uleb128 0x40
 3834 038a 18       		.uleb128 0x18
 3835 038b 9742     		.uleb128 0x2117
 3836 038d 19       		.uleb128 0x19
 3837 038e 01       		.uleb128 0x1
 3838 038f 13       		.uleb128 0x13
 3839 0390 00       		.byte	0
 3840 0391 00       		.byte	0
 3841 0392 43       		.uleb128 0x43
 3842 0393 34       		.uleb128 0x34
 3843 0394 00       		.byte	0
 3844 0395 03       		.uleb128 0x3
 3845 0396 08       		.uleb128 0x8
 3846 0397 3A       		.uleb128 0x3a
 3847 0398 0B       		.uleb128 0xb
 3848 0399 3B       		.uleb128 0x3b
 3849 039a 05       		.uleb128 0x5
 3850 039b 49       		.uleb128 0x49
 3851 039c 13       		.uleb128 0x13
 3852 039d 02       		.uleb128 0x2
 3853 039e 17       		.uleb128 0x17
 3854 039f 00       		.byte	0
 3855 03a0 00       		.byte	0
 3856 03a1 44       		.uleb128 0x44
 3857 03a2 0B       		.uleb128 0xb
 3858 03a3 01       		.byte	0x1
 3859 03a4 11       		.uleb128 0x11
 3860 03a5 01       		.uleb128 0x1
 3861 03a6 12       		.uleb128 0x12
 3862 03a7 06       		.uleb128 0x6
 3863 03a8 01       		.uleb128 0x1
 3864 03a9 13       		.uleb128 0x13
 3865 03aa 00       		.byte	0
 3866 03ab 00       		.byte	0
 3867 03ac 45       		.uleb128 0x45
 3868 03ad 34       		.uleb128 0x34
 3869 03ae 00       		.byte	0
 3870 03af 03       		.uleb128 0x3
 3871 03b0 0E       		.uleb128 0xe
 3872 03b1 3A       		.uleb128 0x3a
 3873 03b2 0B       		.uleb128 0xb
 3874 03b3 3B       		.uleb128 0x3b
 3875 03b4 05       		.uleb128 0x5
 3876 03b5 49       		.uleb128 0x49
ARM GAS  /tmp/ccYi4OMh.s 			page 69


 3877 03b6 13       		.uleb128 0x13
 3878 03b7 3F       		.uleb128 0x3f
 3879 03b8 19       		.uleb128 0x19
 3880 03b9 3C       		.uleb128 0x3c
 3881 03ba 19       		.uleb128 0x19
 3882 03bb 00       		.byte	0
 3883 03bc 00       		.byte	0
 3884 03bd 46       		.uleb128 0x46
 3885 03be 34       		.uleb128 0x34
 3886 03bf 00       		.byte	0
 3887 03c0 03       		.uleb128 0x3
 3888 03c1 08       		.uleb128 0x8
 3889 03c2 3A       		.uleb128 0x3a
 3890 03c3 0B       		.uleb128 0xb
 3891 03c4 3B       		.uleb128 0x3b
 3892 03c5 05       		.uleb128 0x5
 3893 03c6 49       		.uleb128 0x49
 3894 03c7 13       		.uleb128 0x13
 3895 03c8 3F       		.uleb128 0x3f
 3896 03c9 19       		.uleb128 0x19
 3897 03ca 3C       		.uleb128 0x3c
 3898 03cb 19       		.uleb128 0x19
 3899 03cc 00       		.byte	0
 3900 03cd 00       		.byte	0
 3901 03ce 47       		.uleb128 0x47
 3902 03cf 2E       		.uleb128 0x2e
 3903 03d0 01       		.byte	0x1
 3904 03d1 3F       		.uleb128 0x3f
 3905 03d2 19       		.uleb128 0x19
 3906 03d3 03       		.uleb128 0x3
 3907 03d4 0E       		.uleb128 0xe
 3908 03d5 3A       		.uleb128 0x3a
 3909 03d6 0B       		.uleb128 0xb
 3910 03d7 3B       		.uleb128 0x3b
 3911 03d8 05       		.uleb128 0x5
 3912 03d9 27       		.uleb128 0x27
 3913 03da 19       		.uleb128 0x19
 3914 03db 49       		.uleb128 0x49
 3915 03dc 13       		.uleb128 0x13
 3916 03dd 3C       		.uleb128 0x3c
 3917 03de 19       		.uleb128 0x19
 3918 03df 01       		.uleb128 0x1
 3919 03e0 13       		.uleb128 0x13
 3920 03e1 00       		.byte	0
 3921 03e2 00       		.byte	0
 3922 03e3 48       		.uleb128 0x48
 3923 03e4 2E       		.uleb128 0x2e
 3924 03e5 00       		.byte	0
 3925 03e6 3F       		.uleb128 0x3f
 3926 03e7 19       		.uleb128 0x19
 3927 03e8 03       		.uleb128 0x3
 3928 03e9 0E       		.uleb128 0xe
 3929 03ea 3A       		.uleb128 0x3a
 3930 03eb 0B       		.uleb128 0xb
 3931 03ec 3B       		.uleb128 0x3b
 3932 03ed 0B       		.uleb128 0xb
 3933 03ee 27       		.uleb128 0x27
ARM GAS  /tmp/ccYi4OMh.s 			page 70


 3934 03ef 19       		.uleb128 0x19
 3935 03f0 3C       		.uleb128 0x3c
 3936 03f1 19       		.uleb128 0x19
 3937 03f2 00       		.byte	0
 3938 03f3 00       		.byte	0
 3939 03f4 49       		.uleb128 0x49
 3940 03f5 2E       		.uleb128 0x2e
 3941 03f6 00       		.byte	0
 3942 03f7 3F       		.uleb128 0x3f
 3943 03f8 19       		.uleb128 0x19
 3944 03f9 03       		.uleb128 0x3
 3945 03fa 0E       		.uleb128 0xe
 3946 03fb 3A       		.uleb128 0x3a
 3947 03fc 0B       		.uleb128 0xb
 3948 03fd 3B       		.uleb128 0x3b
 3949 03fe 05       		.uleb128 0x5
 3950 03ff 27       		.uleb128 0x27
 3951 0400 19       		.uleb128 0x19
 3952 0401 3C       		.uleb128 0x3c
 3953 0402 19       		.uleb128 0x19
 3954 0403 00       		.byte	0
 3955 0404 00       		.byte	0
 3956 0405 4A       		.uleb128 0x4a
 3957 0406 2E       		.uleb128 0x2e
 3958 0407 01       		.byte	0x1
 3959 0408 3F       		.uleb128 0x3f
 3960 0409 19       		.uleb128 0x19
 3961 040a 03       		.uleb128 0x3
 3962 040b 0E       		.uleb128 0xe
 3963 040c 3A       		.uleb128 0x3a
 3964 040d 0B       		.uleb128 0xb
 3965 040e 3B       		.uleb128 0x3b
 3966 040f 05       		.uleb128 0x5
 3967 0410 27       		.uleb128 0x27
 3968 0411 19       		.uleb128 0x19
 3969 0412 3C       		.uleb128 0x3c
 3970 0413 19       		.uleb128 0x19
 3971 0414 01       		.uleb128 0x1
 3972 0415 13       		.uleb128 0x13
 3973 0416 00       		.byte	0
 3974 0417 00       		.byte	0
 3975 0418 4B       		.uleb128 0x4b
 3976 0419 2E       		.uleb128 0x2e
 3977 041a 01       		.byte	0x1
 3978 041b 3F       		.uleb128 0x3f
 3979 041c 19       		.uleb128 0x19
 3980 041d 03       		.uleb128 0x3
 3981 041e 0E       		.uleb128 0xe
 3982 041f 3A       		.uleb128 0x3a
 3983 0420 0B       		.uleb128 0xb
 3984 0421 3B       		.uleb128 0x3b
 3985 0422 05       		.uleb128 0x5
 3986 0423 27       		.uleb128 0x27
 3987 0424 19       		.uleb128 0x19
 3988 0425 3C       		.uleb128 0x3c
 3989 0426 19       		.uleb128 0x19
 3990 0427 00       		.byte	0
ARM GAS  /tmp/ccYi4OMh.s 			page 71


 3991 0428 00       		.byte	0
 3992 0429 00       		.byte	0
 3993              		.section	.debug_loc,"",%progbits
 3994              	.Ldebug_loc0:
 3995              	.LLST0:
 3996 0000 00000000 		.4byte	.LVL1
 3997 0004 08000000 		.4byte	.LVL3
 3998 0008 0100     		.2byte	0x1
 3999 000a 50       		.byte	0x50
 4000 000b 08000000 		.4byte	.LVL3
 4001 000f 24000000 		.4byte	.LFE248
 4002 0013 0100     		.2byte	0x1
 4003 0015 54       		.byte	0x54
 4004 0016 00000000 		.4byte	0
 4005 001a 00000000 		.4byte	0
 4006              	.LLST1:
 4007 001e 00000000 		.4byte	.LVL1
 4008 0022 08000000 		.4byte	.LVL3
 4009 0026 0100     		.2byte	0x1
 4010 0028 51       		.byte	0x51
 4011 0029 08000000 		.4byte	.LVL3
 4012 002d 24000000 		.4byte	.LFE248
 4013 0031 0400     		.2byte	0x4
 4014 0033 F3       		.byte	0xf3
 4015 0034 01       		.uleb128 0x1
 4016 0035 51       		.byte	0x51
 4017 0036 9F       		.byte	0x9f
 4018 0037 00000000 		.4byte	0
 4019 003b 00000000 		.4byte	0
 4020              	.LLST2:
 4021 003f 0E000000 		.4byte	.LVL5
 4022 0043 22000000 		.4byte	.LVL8
 4023 0047 0100     		.2byte	0x1
 4024 0049 54       		.byte	0x54
 4025 004a 00000000 		.4byte	0
 4026 004e 00000000 		.4byte	0
 4027              	.LLST3:
 4028 0052 10000000 		.4byte	.LVL6
 4029 0056 19000000 		.4byte	.LVL7-1
 4030 005a 0100     		.2byte	0x1
 4031 005c 50       		.byte	0x50
 4032 005d 00000000 		.4byte	0
 4033 0061 00000000 		.4byte	0
 4034              	.LLST4:
 4035 0065 00000000 		.4byte	.LVL9
 4036 0069 0F000000 		.4byte	.LVL10-1
 4037 006d 0100     		.2byte	0x1
 4038 006f 50       		.byte	0x50
 4039 0070 0F000000 		.4byte	.LVL10-1
 4040 0074 28000000 		.4byte	.LFE247
 4041 0078 0100     		.2byte	0x1
 4042 007a 55       		.byte	0x55
 4043 007b 00000000 		.4byte	0
 4044 007f 00000000 		.4byte	0
 4045              	.LLST5:
 4046 0083 00000000 		.4byte	.LVL9
 4047 0087 0F000000 		.4byte	.LVL10-1
ARM GAS  /tmp/ccYi4OMh.s 			page 72


 4048 008b 0100     		.2byte	0x1
 4049 008d 51       		.byte	0x51
 4050 008e 0F000000 		.4byte	.LVL10-1
 4051 0092 28000000 		.4byte	.LFE247
 4052 0096 0100     		.2byte	0x1
 4053 0098 54       		.byte	0x54
 4054 0099 00000000 		.4byte	0
 4055 009d 00000000 		.4byte	0
 4056              	.LLST6:
 4057 00a1 00000000 		.4byte	.LVL14
 4058 00a5 1E000000 		.4byte	.LVL17
 4059 00a9 0100     		.2byte	0x1
 4060 00ab 50       		.byte	0x50
 4061 00ac 1E000000 		.4byte	.LVL17
 4062 00b0 28000000 		.4byte	.LVL19
 4063 00b4 0400     		.2byte	0x4
 4064 00b6 F3       		.byte	0xf3
 4065 00b7 01       		.uleb128 0x1
 4066 00b8 50       		.byte	0x50
 4067 00b9 9F       		.byte	0x9f
 4068 00ba 28000000 		.4byte	.LVL19
 4069 00be 2A000000 		.4byte	.LVL20
 4070 00c2 0100     		.2byte	0x1
 4071 00c4 50       		.byte	0x50
 4072 00c5 2A000000 		.4byte	.LVL20
 4073 00c9 30000000 		.4byte	.LFE250
 4074 00cd 0400     		.2byte	0x4
 4075 00cf F3       		.byte	0xf3
 4076 00d0 01       		.uleb128 0x1
 4077 00d1 50       		.byte	0x50
 4078 00d2 9F       		.byte	0x9f
 4079 00d3 00000000 		.4byte	0
 4080 00d7 00000000 		.4byte	0
 4081              	.LLST7:
 4082 00db 0C000000 		.4byte	.LVL15
 4083 00df 1E000000 		.4byte	.LVL17
 4084 00e3 0100     		.2byte	0x1
 4085 00e5 50       		.byte	0x50
 4086 00e6 1E000000 		.4byte	.LVL17
 4087 00ea 28000000 		.4byte	.LVL19
 4088 00ee 0400     		.2byte	0x4
 4089 00f0 F3       		.byte	0xf3
 4090 00f1 01       		.uleb128 0x1
 4091 00f2 50       		.byte	0x50
 4092 00f3 9F       		.byte	0x9f
 4093 00f4 00000000 		.4byte	0
 4094 00f8 00000000 		.4byte	0
 4095              	.LLST8:
 4096 00fc 12000000 		.4byte	.LVL16
 4097 0100 1E000000 		.4byte	.LVL17
 4098 0104 0100     		.2byte	0x1
 4099 0106 50       		.byte	0x50
 4100 0107 1E000000 		.4byte	.LVL17
 4101 010b 28000000 		.4byte	.LVL19
 4102 010f 0400     		.2byte	0x4
 4103 0111 F3       		.byte	0xf3
 4104 0112 01       		.uleb128 0x1
ARM GAS  /tmp/ccYi4OMh.s 			page 73


 4105 0113 50       		.byte	0x50
 4106 0114 9F       		.byte	0x9f
 4107 0115 00000000 		.4byte	0
 4108 0119 00000000 		.4byte	0
 4109              	.LLST9:
 4110 011d 12000000 		.4byte	.LVL16
 4111 0121 21000000 		.4byte	.LVL18-1
 4112 0125 0100     		.2byte	0x1
 4113 0127 53       		.byte	0x53
 4114 0128 00000000 		.4byte	0
 4115 012c 00000000 		.4byte	0
 4116              	.LLST10:
 4117 0130 00000000 		.4byte	.LVL21
 4118 0134 0D000000 		.4byte	.LVL22-1
 4119 0138 0100     		.2byte	0x1
 4120 013a 50       		.byte	0x50
 4121 013b 0D000000 		.4byte	.LVL22-1
 4122 013f 16000000 		.4byte	.LVL24
 4123 0143 0100     		.2byte	0x1
 4124 0145 54       		.byte	0x54
 4125 0146 16000000 		.4byte	.LVL24
 4126 014a 24000000 		.4byte	.LFE249
 4127 014e 0400     		.2byte	0x4
 4128 0150 F3       		.byte	0xf3
 4129 0151 01       		.uleb128 0x1
 4130 0152 50       		.byte	0x50
 4131 0153 9F       		.byte	0x9f
 4132 0154 00000000 		.4byte	0
 4133 0158 00000000 		.4byte	0
 4134              	.LLST11:
 4135 015c 16000000 		.4byte	.LVL24
 4136 0160 19000000 		.4byte	.LVL25-1
 4137 0164 0100     		.2byte	0x1
 4138 0166 50       		.byte	0x50
 4139 0167 19000000 		.4byte	.LVL25-1
 4140 016b 24000000 		.4byte	.LFE249
 4141 016f 0100     		.2byte	0x1
 4142 0171 54       		.byte	0x54
 4143 0172 00000000 		.4byte	0
 4144 0176 00000000 		.4byte	0
 4145              	.LLST12:
 4146 017a 00000000 		.4byte	.LVL26
 4147 017e 14000000 		.4byte	.LVL27
 4148 0182 0100     		.2byte	0x1
 4149 0184 50       		.byte	0x50
 4150 0185 14000000 		.4byte	.LVL27
 4151 0189 16000000 		.4byte	.LVL28
 4152 018d 0400     		.2byte	0x4
 4153 018f F3       		.byte	0xf3
 4154 0190 01       		.uleb128 0x1
 4155 0191 50       		.byte	0x50
 4156 0192 9F       		.byte	0x9f
 4157 0193 16000000 		.4byte	.LVL28
 4158 0197 2C000000 		.4byte	.LVL30
 4159 019b 0100     		.2byte	0x1
 4160 019d 50       		.byte	0x50
 4161 019e 2C000000 		.4byte	.LVL30
ARM GAS  /tmp/ccYi4OMh.s 			page 74


 4162 01a2 30000000 		.4byte	.LVL31
 4163 01a6 0400     		.2byte	0x4
 4164 01a8 F3       		.byte	0xf3
 4165 01a9 01       		.uleb128 0x1
 4166 01aa 50       		.byte	0x50
 4167 01ab 9F       		.byte	0x9f
 4168 01ac 30000000 		.4byte	.LVL31
 4169 01b0 32000000 		.4byte	.LVL32
 4170 01b4 0100     		.2byte	0x1
 4171 01b6 50       		.byte	0x50
 4172 01b7 32000000 		.4byte	.LVL32
 4173 01bb 38000000 		.4byte	.LFE252
 4174 01bf 0400     		.2byte	0x4
 4175 01c1 F3       		.byte	0xf3
 4176 01c2 01       		.uleb128 0x1
 4177 01c3 50       		.byte	0x50
 4178 01c4 9F       		.byte	0x9f
 4179 01c5 00000000 		.4byte	0
 4180 01c9 00000000 		.4byte	0
 4181              	.LLST13:
 4182 01cd 00000000 		.4byte	.LVL26
 4183 01d1 2F000000 		.4byte	.LVL31-1
 4184 01d5 0100     		.2byte	0x1
 4185 01d7 51       		.byte	0x51
 4186 01d8 2F000000 		.4byte	.LVL31-1
 4187 01dc 30000000 		.4byte	.LVL31
 4188 01e0 0400     		.2byte	0x4
 4189 01e2 F3       		.byte	0xf3
 4190 01e3 01       		.uleb128 0x1
 4191 01e4 51       		.byte	0x51
 4192 01e5 9F       		.byte	0x9f
 4193 01e6 30000000 		.4byte	.LVL31
 4194 01ea 38000000 		.4byte	.LFE252
 4195 01ee 0100     		.2byte	0x1
 4196 01f0 51       		.byte	0x51
 4197 01f1 00000000 		.4byte	0
 4198 01f5 00000000 		.4byte	0
 4199              	.LLST14:
 4200 01f9 16000000 		.4byte	.LVL28
 4201 01fd 2C000000 		.4byte	.LVL30
 4202 0201 0100     		.2byte	0x1
 4203 0203 50       		.byte	0x50
 4204 0204 2C000000 		.4byte	.LVL30
 4205 0208 30000000 		.4byte	.LVL31
 4206 020c 0400     		.2byte	0x4
 4207 020e F3       		.byte	0xf3
 4208 020f 01       		.uleb128 0x1
 4209 0210 50       		.byte	0x50
 4210 0211 9F       		.byte	0x9f
 4211 0212 00000000 		.4byte	0
 4212 0216 00000000 		.4byte	0
 4213              	.LLST15:
 4214 021a 1C000000 		.4byte	.LVL29
 4215 021e 2C000000 		.4byte	.LVL30
 4216 0222 0100     		.2byte	0x1
 4217 0224 50       		.byte	0x50
 4218 0225 2C000000 		.4byte	.LVL30
ARM GAS  /tmp/ccYi4OMh.s 			page 75


 4219 0229 30000000 		.4byte	.LVL31
 4220 022d 0400     		.2byte	0x4
 4221 022f F3       		.byte	0xf3
 4222 0230 01       		.uleb128 0x1
 4223 0231 50       		.byte	0x50
 4224 0232 9F       		.byte	0x9f
 4225 0233 00000000 		.4byte	0
 4226 0237 00000000 		.4byte	0
 4227              	.LLST16:
 4228 023b 1C000000 		.4byte	.LVL29
 4229 023f 2F000000 		.4byte	.LVL31-1
 4230 0243 0100     		.2byte	0x1
 4231 0245 53       		.byte	0x53
 4232 0246 00000000 		.4byte	0
 4233 024a 00000000 		.4byte	0
 4234              	.LLST17:
 4235 024e 00000000 		.4byte	.LVL33
 4236 0252 0F000000 		.4byte	.LVL34-1
 4237 0256 0100     		.2byte	0x1
 4238 0258 50       		.byte	0x50
 4239 0259 0F000000 		.4byte	.LVL34-1
 4240 025d 28000000 		.4byte	.LFE251
 4241 0261 0100     		.2byte	0x1
 4242 0263 55       		.byte	0x55
 4243 0264 00000000 		.4byte	0
 4244 0268 00000000 		.4byte	0
 4245              	.LLST18:
 4246 026c 00000000 		.4byte	.LVL33
 4247 0270 0F000000 		.4byte	.LVL34-1
 4248 0274 0100     		.2byte	0x1
 4249 0276 51       		.byte	0x51
 4250 0277 0F000000 		.4byte	.LVL34-1
 4251 027b 1A000000 		.4byte	.LVL36
 4252 027f 0100     		.2byte	0x1
 4253 0281 54       		.byte	0x54
 4254 0282 1A000000 		.4byte	.LVL36
 4255 0286 28000000 		.4byte	.LFE251
 4256 028a 0400     		.2byte	0x4
 4257 028c F3       		.byte	0xf3
 4258 028d 01       		.uleb128 0x1
 4259 028e 51       		.byte	0x51
 4260 028f 9F       		.byte	0x9f
 4261 0290 00000000 		.4byte	0
 4262 0294 00000000 		.4byte	0
 4263              	.LLST19:
 4264 0298 1A000000 		.4byte	.LVL36
 4265 029c 1D000000 		.4byte	.LVL37-1
 4266 02a0 0100     		.2byte	0x1
 4267 02a2 50       		.byte	0x50
 4268 02a3 1D000000 		.4byte	.LVL37-1
 4269 02a7 28000000 		.4byte	.LFE251
 4270 02ab 0100     		.2byte	0x1
 4271 02ad 54       		.byte	0x54
 4272 02ae 00000000 		.4byte	0
 4273 02b2 00000000 		.4byte	0
 4274              	.LLST20:
 4275 02b6 00000000 		.4byte	.LVL38
ARM GAS  /tmp/ccYi4OMh.s 			page 76


 4276 02ba 0D000000 		.4byte	.LVL39-1
 4277 02be 0100     		.2byte	0x1
 4278 02c0 50       		.byte	0x50
 4279 02c1 0D000000 		.4byte	.LVL39-1
 4280 02c5 32000000 		.4byte	.LFE253
 4281 02c9 0100     		.2byte	0x1
 4282 02cb 54       		.byte	0x54
 4283 02cc 00000000 		.4byte	0
 4284 02d0 00000000 		.4byte	0
 4285              	.LLST21:
 4286 02d4 18000000 		.4byte	.LVL40
 4287 02d8 26000000 		.4byte	.LVL42
 4288 02dc 0100     		.2byte	0x1
 4289 02de 54       		.byte	0x54
 4290 02df 00000000 		.4byte	0
 4291 02e3 00000000 		.4byte	0
 4292              	.LLST22:
 4293 02e7 1A000000 		.4byte	.LVL41
 4294 02eb 25000000 		.4byte	.LVL42-1
 4295 02ef 0100     		.2byte	0x1
 4296 02f1 50       		.byte	0x50
 4297 02f2 00000000 		.4byte	0
 4298 02f6 00000000 		.4byte	0
 4299              	.LLST23:
 4300 02fa 00000000 		.4byte	.LVL44
 4301 02fe 0E000000 		.4byte	.LVL46
 4302 0302 0100     		.2byte	0x1
 4303 0304 50       		.byte	0x50
 4304 0305 0E000000 		.4byte	.LVL46
 4305 0309 16000000 		.4byte	.LVL47
 4306 030d 0100     		.2byte	0x1
 4307 030f 53       		.byte	0x53
 4308 0310 16000000 		.4byte	.LVL47
 4309 0314 1B000000 		.4byte	.LVL48-1
 4310 0318 0200     		.2byte	0x2
 4311 031a 72       		.byte	0x72
 4312 031b 04       		.sleb128 4
 4313 031c 1B000000 		.4byte	.LVL48-1
 4314 0320 1C000000 		.4byte	.LVL48
 4315 0324 0400     		.2byte	0x4
 4316 0326 F3       		.byte	0xf3
 4317 0327 01       		.uleb128 0x1
 4318 0328 50       		.byte	0x50
 4319 0329 9F       		.byte	0x9f
 4320 032a 1C000000 		.4byte	.LVL48
 4321 032e 1E000000 		.4byte	.LFE254
 4322 0332 0100     		.2byte	0x1
 4323 0334 50       		.byte	0x50
 4324 0335 00000000 		.4byte	0
 4325 0339 00000000 		.4byte	0
 4326              	.LLST24:
 4327 033d 0C000000 		.4byte	.LVL45
 4328 0341 0E000000 		.4byte	.LVL46
 4329 0345 0100     		.2byte	0x1
 4330 0347 50       		.byte	0x50
 4331 0348 0E000000 		.4byte	.LVL46
 4332 034c 16000000 		.4byte	.LVL47
ARM GAS  /tmp/ccYi4OMh.s 			page 77


 4333 0350 0100     		.2byte	0x1
 4334 0352 53       		.byte	0x53
 4335 0353 16000000 		.4byte	.LVL47
 4336 0357 1B000000 		.4byte	.LVL48-1
 4337 035b 0200     		.2byte	0x2
 4338 035d 72       		.byte	0x72
 4339 035e 04       		.sleb128 4
 4340 035f 1B000000 		.4byte	.LVL48-1
 4341 0363 1C000000 		.4byte	.LVL48
 4342 0367 0400     		.2byte	0x4
 4343 0369 F3       		.byte	0xf3
 4344 036a 01       		.uleb128 0x1
 4345 036b 50       		.byte	0x50
 4346 036c 9F       		.byte	0x9f
 4347 036d 00000000 		.4byte	0
 4348 0371 00000000 		.4byte	0
 4349              	.LLST25:
 4350 0375 0E000000 		.4byte	.LVL46
 4351 0379 1B000000 		.4byte	.LVL48-1
 4352 037d 0100     		.2byte	0x1
 4353 037f 50       		.byte	0x50
 4354 0380 00000000 		.4byte	0
 4355 0384 00000000 		.4byte	0
 4356              	.LLST26:
 4357 0388 00000000 		.4byte	.LVL49
 4358 038c 06000000 		.4byte	.LVL50
 4359 0390 0100     		.2byte	0x1
 4360 0392 50       		.byte	0x50
 4361 0393 06000000 		.4byte	.LVL50
 4362 0397 2A000000 		.4byte	.LFE255
 4363 039b 0100     		.2byte	0x1
 4364 039d 54       		.byte	0x54
 4365 039e 00000000 		.4byte	0
 4366 03a2 00000000 		.4byte	0
 4367              	.LLST27:
 4368 03a6 00000000 		.4byte	.LVL49
 4369 03aa 06000000 		.4byte	.LVL50
 4370 03ae 0100     		.2byte	0x1
 4371 03b0 51       		.byte	0x51
 4372 03b1 06000000 		.4byte	.LVL50
 4373 03b5 2A000000 		.4byte	.LFE255
 4374 03b9 0100     		.2byte	0x1
 4375 03bb 55       		.byte	0x55
 4376 03bc 00000000 		.4byte	0
 4377 03c0 00000000 		.4byte	0
 4378              	.LLST28:
 4379 03c4 14000000 		.4byte	.LVL51
 4380 03c8 24000000 		.4byte	.LVL54
 4381 03cc 0100     		.2byte	0x1
 4382 03ce 54       		.byte	0x54
 4383 03cf 00000000 		.4byte	0
 4384 03d3 00000000 		.4byte	0
 4385              	.LLST29:
 4386 03d7 16000000 		.4byte	.LVL52
 4387 03db 1F000000 		.4byte	.LVL53-1
 4388 03df 0100     		.2byte	0x1
 4389 03e1 50       		.byte	0x50
ARM GAS  /tmp/ccYi4OMh.s 			page 78


 4390 03e2 00000000 		.4byte	0
 4391 03e6 00000000 		.4byte	0
 4392              	.LLST30:
 4393 03ea 00000000 		.4byte	.LVL56
 4394 03ee 0F000000 		.4byte	.LVL57-1
 4395 03f2 0100     		.2byte	0x1
 4396 03f4 50       		.byte	0x50
 4397 03f5 0F000000 		.4byte	.LVL57-1
 4398 03f9 38000000 		.4byte	.LVL62
 4399 03fd 0100     		.2byte	0x1
 4400 03ff 54       		.byte	0x54
 4401 0400 38000000 		.4byte	.LVL62
 4402 0404 4E000000 		.4byte	.LVL65
 4403 0408 0400     		.2byte	0x4
 4404 040a F3       		.byte	0xf3
 4405 040b 01       		.uleb128 0x1
 4406 040c 50       		.byte	0x50
 4407 040d 9F       		.byte	0x9f
 4408 040e 4E000000 		.4byte	.LVL65
 4409 0412 54000000 		.4byte	.LVL67
 4410 0416 0100     		.2byte	0x1
 4411 0418 54       		.byte	0x54
 4412 0419 54000000 		.4byte	.LVL67
 4413 041d 68000000 		.4byte	.LFE256
 4414 0421 0400     		.2byte	0x4
 4415 0423 F3       		.byte	0xf3
 4416 0424 01       		.uleb128 0x1
 4417 0425 50       		.byte	0x50
 4418 0426 9F       		.byte	0x9f
 4419 0427 00000000 		.4byte	0
 4420 042b 00000000 		.4byte	0
 4421              	.LLST31:
 4422 042f 00000000 		.4byte	.LVL56
 4423 0433 0F000000 		.4byte	.LVL57-1
 4424 0437 0100     		.2byte	0x1
 4425 0439 51       		.byte	0x51
 4426 043a 0F000000 		.4byte	.LVL57-1
 4427 043e 62000000 		.4byte	.LVL69
 4428 0442 0100     		.2byte	0x1
 4429 0444 55       		.byte	0x55
 4430 0445 62000000 		.4byte	.LVL69
 4431 0449 68000000 		.4byte	.LFE256
 4432 044d 0400     		.2byte	0x4
 4433 044f F3       		.byte	0xf3
 4434 0450 01       		.uleb128 0x1
 4435 0451 51       		.byte	0x51
 4436 0452 9F       		.byte	0x9f
 4437 0453 00000000 		.4byte	0
 4438 0457 00000000 		.4byte	0
 4439              	.LLST32:
 4440 045b 4C000000 		.4byte	.LVL64
 4441 045f 4E000000 		.4byte	.LVL65
 4442 0463 0100     		.2byte	0x1
 4443 0465 54       		.byte	0x54
 4444 0466 52000000 		.4byte	.LVL66
 4445 046a 54000000 		.4byte	.LVL67
 4446 046e 0200     		.2byte	0x2
ARM GAS  /tmp/ccYi4OMh.s 			page 79


 4447 0470 30       		.byte	0x30
 4448 0471 9F       		.byte	0x9f
 4449 0472 54000000 		.4byte	.LVL67
 4450 0476 62000000 		.4byte	.LVL69
 4451 047a 0100     		.2byte	0x1
 4452 047c 54       		.byte	0x54
 4453 047d 62000000 		.4byte	.LVL69
 4454 0481 68000000 		.4byte	.LFE256
 4455 0485 0100     		.2byte	0x1
 4456 0487 50       		.byte	0x50
 4457 0488 00000000 		.4byte	0
 4458 048c 00000000 		.4byte	0
 4459              	.LLST33:
 4460 0490 1A000000 		.4byte	.LVL58
 4461 0494 2A000000 		.4byte	.LVL61
 4462 0498 0100     		.2byte	0x1
 4463 049a 54       		.byte	0x54
 4464 049b 00000000 		.4byte	0
 4465 049f 00000000 		.4byte	0
 4466              	.LLST34:
 4467 04a3 1C000000 		.4byte	.LVL59
 4468 04a7 25000000 		.4byte	.LVL60-1
 4469 04ab 0100     		.2byte	0x1
 4470 04ad 50       		.byte	0x50
 4471 04ae 00000000 		.4byte	0
 4472 04b2 00000000 		.4byte	0
 4473              	.LLST35:
 4474 04b6 38000000 		.4byte	.LVL62
 4475 04ba 4C000000 		.4byte	.LVL64
 4476 04be 0100     		.2byte	0x1
 4477 04c0 54       		.byte	0x54
 4478 04c1 00000000 		.4byte	0
 4479 04c5 00000000 		.4byte	0
 4480              	.LLST36:
 4481 04c9 38000000 		.4byte	.LVL62
 4482 04cd 4E000000 		.4byte	.LVL65
 4483 04d1 0100     		.2byte	0x1
 4484 04d3 55       		.byte	0x55
 4485 04d4 00000000 		.4byte	0
 4486 04d8 00000000 		.4byte	0
 4487              		.section	.debug_aranges,"",%progbits
 4488 0000 6C000000 		.4byte	0x6c
 4489 0004 0200     		.2byte	0x2
 4490 0006 00000000 		.4byte	.Ldebug_info0
 4491 000a 04       		.byte	0x4
 4492 000b 00       		.byte	0
 4493 000c 0000     		.2byte	0
 4494 000e 0000     		.2byte	0
 4495 0010 00000000 		.4byte	.LFB246
 4496 0014 08000000 		.4byte	.LFE246-.LFB246
 4497 0018 00000000 		.4byte	.LFB248
 4498 001c 24000000 		.4byte	.LFE248-.LFB248
 4499 0020 00000000 		.4byte	.LFB247
 4500 0024 28000000 		.4byte	.LFE247-.LFB247
 4501 0028 00000000 		.4byte	.LFB250
 4502 002c 30000000 		.4byte	.LFE250-.LFB250
 4503 0030 00000000 		.4byte	.LFB249
ARM GAS  /tmp/ccYi4OMh.s 			page 80


 4504 0034 24000000 		.4byte	.LFE249-.LFB249
 4505 0038 00000000 		.4byte	.LFB252
 4506 003c 38000000 		.4byte	.LFE252-.LFB252
 4507 0040 00000000 		.4byte	.LFB251
 4508 0044 28000000 		.4byte	.LFE251-.LFB251
 4509 0048 00000000 		.4byte	.LFB253
 4510 004c 32000000 		.4byte	.LFE253-.LFB253
 4511 0050 00000000 		.4byte	.LFB254
 4512 0054 1E000000 		.4byte	.LFE254-.LFB254
 4513 0058 00000000 		.4byte	.LFB255
 4514 005c 2A000000 		.4byte	.LFE255-.LFB255
 4515 0060 00000000 		.4byte	.LFB256
 4516 0064 68000000 		.4byte	.LFE256-.LFB256
 4517 0068 00000000 		.4byte	0
 4518 006c 00000000 		.4byte	0
 4519              		.section	.debug_ranges,"",%progbits
 4520              	.Ldebug_ranges0:
 4521 0000 02000000 		.4byte	.LBB80
 4522 0004 04000000 		.4byte	.LBE80
 4523 0008 06000000 		.4byte	.LBB89
 4524 000c 0E000000 		.4byte	.LBE89
 4525 0010 00000000 		.4byte	0
 4526 0014 00000000 		.4byte	0
 4527 0018 02000000 		.4byte	.LBB82
 4528 001c 04000000 		.4byte	.LBE82
 4529 0020 06000000 		.4byte	.LBB87
 4530 0024 0A000000 		.4byte	.LBE87
 4531 0028 00000000 		.4byte	0
 4532 002c 00000000 		.4byte	0
 4533 0030 16000000 		.4byte	.LBB99
 4534 0034 22000000 		.4byte	.LBE99
 4535 0038 26000000 		.4byte	.LBB106
 4536 003c 30000000 		.4byte	.LBE106
 4537 0040 00000000 		.4byte	0
 4538 0044 00000000 		.4byte	0
 4539 0048 1C000000 		.4byte	.LBB101
 4540 004c 22000000 		.4byte	.LBE101
 4541 0050 26000000 		.4byte	.LBB104
 4542 0054 2A000000 		.4byte	.LBE104
 4543 0058 00000000 		.4byte	0
 4544 005c 00000000 		.4byte	0
 4545 0060 02000000 		.4byte	.LBB139
 4546 0064 04000000 		.4byte	.LBE139
 4547 0068 06000000 		.4byte	.LBB148
 4548 006c 0E000000 		.4byte	.LBE148
 4549 0070 00000000 		.4byte	0
 4550 0074 00000000 		.4byte	0
 4551 0078 02000000 		.4byte	.LBB141
 4552 007c 04000000 		.4byte	.LBE141
 4553 0080 06000000 		.4byte	.LBB146
 4554 0084 0A000000 		.4byte	.LBE146
 4555 0088 00000000 		.4byte	0
 4556 008c 00000000 		.4byte	0
 4557 0090 18000000 		.4byte	.LBB149
 4558 0094 1E000000 		.4byte	.LBE149
 4559 0098 20000000 		.4byte	.LBB152
 4560 009c 22000000 		.4byte	.LBE152
ARM GAS  /tmp/ccYi4OMh.s 			page 81


 4561 00a0 00000000 		.4byte	0
 4562 00a4 00000000 		.4byte	0
 4563 00a8 38000000 		.4byte	.LBB186
 4564 00ac 3E000000 		.4byte	.LBE186
 4565 00b0 40000000 		.4byte	.LBB189
 4566 00b4 44000000 		.4byte	.LBE189
 4567 00b8 00000000 		.4byte	0
 4568 00bc 00000000 		.4byte	0
 4569 00c0 00000000 		.4byte	.LFB246
 4570 00c4 08000000 		.4byte	.LFE246
 4571 00c8 00000000 		.4byte	.LFB248
 4572 00cc 24000000 		.4byte	.LFE248
 4573 00d0 00000000 		.4byte	.LFB247
 4574 00d4 28000000 		.4byte	.LFE247
 4575 00d8 00000000 		.4byte	.LFB250
 4576 00dc 30000000 		.4byte	.LFE250
 4577 00e0 00000000 		.4byte	.LFB249
 4578 00e4 24000000 		.4byte	.LFE249
 4579 00e8 00000000 		.4byte	.LFB252
 4580 00ec 38000000 		.4byte	.LFE252
 4581 00f0 00000000 		.4byte	.LFB251
 4582 00f4 28000000 		.4byte	.LFE251
 4583 00f8 00000000 		.4byte	.LFB253
 4584 00fc 32000000 		.4byte	.LFE253
 4585 0100 00000000 		.4byte	.LFB254
 4586 0104 1E000000 		.4byte	.LFE254
 4587 0108 00000000 		.4byte	.LFB255
 4588 010c 2A000000 		.4byte	.LFE255
 4589 0110 00000000 		.4byte	.LFB256
 4590 0114 68000000 		.4byte	.LFE256
 4591 0118 00000000 		.4byte	0
 4592 011c 00000000 		.4byte	0
 4593              		.section	.debug_line,"",%progbits
 4594              	.Ldebug_line0:
 4595 0000 31040000 		.section	.debug_str,"MS",%progbits,1
 4595      0200EB01 
 4595      00000201 
 4595      FB0E0D00 
 4595      01010101 
 4596              	.LASF53:
 4597 0000 72656164 		.ascii	"ready_list_t\000"
 4597      795F6C69 
 4597      73745F74 
 4597      00
 4598              	.LASF110:
 4599 000d 71756575 		.ascii	"queue_insert\000"
 4599      655F696E 
 4599      73657274 
 4599      00
 4600              	.LASF125:
 4601 001a 63685365 		.ascii	"chSemSignalI\000"
 4601      6D536967 
 4601      6E616C49 
 4601      00
 4602              	.LASF93:
 4603 0027 77747472 		.ascii	"wttrp\000"
 4603      7000
ARM GAS  /tmp/ccYi4OMh.s 			page 82


 4604              	.LASF59:
 4605 002d 64656C74 		.ascii	"delta\000"
 4605      6100
 4606              	.LASF90:
 4607 0033 7264796D 		.ascii	"rdymsg\000"
 4607      736700
 4608              	.LASF16:
 4609 003a 75696E74 		.ascii	"uint64_t\000"
 4609      36345F74 
 4609      00
 4610              	.LASF72:
 4611 0043 6B65726E 		.ascii	"kernel_stats\000"
 4611      656C5F73 
 4611      74617473 
 4611      00
 4612              	.LASF5:
 4613 0050 5F5F7569 		.ascii	"__uint8_t\000"
 4613      6E74385F 
 4613      7400
 4614              	.LASF135:
 4615 005a 2E2E2F2E 		.ascii	"../../modules/ChibiOS/os/rt/src/chsem.c\000"
 4615      2E2F6D6F 
 4615      64756C65 
 4615      732F4368 
 4615      6962694F 
 4616              	.LASF52:
 4617 0082 70726576 		.ascii	"prev\000"
 4617      00
 4618              	.LASF77:
 4619 0087 706F7274 		.ascii	"port_intctx\000"
 4619      5F696E74 
 4619      63747800 
 4620              	.LASF51:
 4621 0093 63685F74 		.ascii	"ch_threads_queue\000"
 4621      68726561 
 4621      64735F71 
 4621      75657565 
 4621      00
 4622              	.LASF64:
 4623 00a4 73797374 		.ascii	"system_debug_t\000"
 4623      656D5F64 
 4623      65627567 
 4623      5F7400
 4624              	.LASF108:
 4625 00b3 71756575 		.ascii	"queue_init\000"
 4625      655F696E 
 4625      697400
 4626              	.LASF105:
 4627 00be 706F7274 		.ascii	"port_lock\000"
 4627      5F6C6F63 
 4627      6B00
 4628              	.LASF81:
 4629 00c8 776F7273 		.ascii	"worst\000"
 4629      7400
 4630              	.LASF115:
 4631 00ce 71756575 		.ascii	"queue_lifo_remove\000"
 4631      655F6C69 
ARM GAS  /tmp/ccYi4OMh.s 			page 83


 4631      666F5F72 
 4631      656D6F76 
 4631      6500
 4632              	.LASF84:
 4633 00e0 74696D65 		.ascii	"time_measurement_t\000"
 4633      5F6D6561 
 4633      73757265 
 4633      6D656E74 
 4633      5F7400
 4634              	.LASF124:
 4635 00f3 63685365 		.ascii	"chSemSignal\000"
 4635      6D536967 
 4635      6E616C00 
 4636              	.LASF91:
 4637 00ff 65786974 		.ascii	"exitcode\000"
 4637      636F6465 
 4637      00
 4638              	.LASF71:
 4639 0108 6D61696E 		.ascii	"mainthread\000"
 4639      74687265 
 4639      616400
 4640              	.LASF94:
 4641 0113 73656E74 		.ascii	"sentmsg\000"
 4641      6D736700 
 4642              	.LASF126:
 4643 011b 63685365 		.ascii	"chSemAddCounterI\000"
 4643      6D416464 
 4643      436F756E 
 4643      74657249 
 4643      00
 4644              	.LASF128:
 4645 012c 49544D5F 		.ascii	"ITM_RxBuffer\000"
 4645      52784275 
 4645      66666572 
 4645      00
 4646              	.LASF49:
 4647 0139 6E657874 		.ascii	"next\000"
 4647      00
 4648              	.LASF18:
 4649 013e 72747469 		.ascii	"rttime_t\000"
 4649      6D655F74 
 4649      00
 4650              	.LASF10:
 4651 0147 6C6F6E67 		.ascii	"long long int\000"
 4651      206C6F6E 
 4651      6720696E 
 4651      7400
 4652              	.LASF1:
 4653 0155 7369676E 		.ascii	"signed char\000"
 4653      65642063 
 4653      68617200 
 4654              	.LASF127:
 4655 0161 63685365 		.ascii	"chSemSignalWait\000"
 4655      6D536967 
 4655      6E616C57 
 4655      61697400 
 4656              	.LASF12:
ARM GAS  /tmp/ccYi4OMh.s 			page 84


 4657 0171 6C6F6E67 		.ascii	"long long unsigned int\000"
 4657      206C6F6E 
 4657      6720756E 
 4657      7369676E 
 4657      65642069 
 4658              	.LASF70:
 4659 0188 76746C69 		.ascii	"vtlist\000"
 4659      737400
 4660              	.LASF136:
 4661 018f 2F686F6D 		.ascii	"/home/kozinalexey/f4by/ardupilot/build/f4by-ch\000"
 4661      652F6B6F 
 4661      7A696E61 
 4661      6C657865 
 4661      792F6634 
 4662              	.LASF106:
 4663 01be 706F7274 		.ascii	"port_unlock\000"
 4663      5F756E6C 
 4663      6F636B00 
 4664              	.LASF39:
 4665 01ca 6D736771 		.ascii	"msgqueue\000"
 4665      75657565 
 4665      00
 4666              	.LASF35:
 4667 01d3 73746174 		.ascii	"state\000"
 4667      6500
 4668              	.LASF7:
 4669 01d9 6C6F6E67 		.ascii	"long int\000"
 4669      20696E74 
 4669      00
 4670              	.LASF20:
 4671 01e2 74737461 		.ascii	"tstate_t\000"
 4671      74655F74 
 4671      00
 4672              	.LASF60:
 4673 01eb 66756E63 		.ascii	"func\000"
 4673      00
 4674              	.LASF44:
 4675 01f0 73746174 		.ascii	"stats\000"
 4675      7300
 4676              	.LASF132:
 4677 01f6 63685363 		.ascii	"chSchRescheduleS\000"
 4677      68526573 
 4677      63686564 
 4677      756C6553 
 4677      00
 4678              	.LASF8:
 4679 0207 5F5F7569 		.ascii	"__uint32_t\000"
 4679      6E743332 
 4679      5F7400
 4680              	.LASF74:
 4681 0212 72656761 		.ascii	"regarm_t\000"
 4681      726D5F74 
 4681      00
 4682              	.LASF65:
 4683 021b 63685F73 		.ascii	"ch_system_debug\000"
 4683      79737465 
 4683      6D5F6465 
ARM GAS  /tmp/ccYi4OMh.s 			page 85


 4683      62756700 
 4684              	.LASF38:
 4685 022b 77616974 		.ascii	"waiting\000"
 4685      696E6700 
 4686              	.LASF103:
 4687 0233 6D757465 		.ascii	"mutex_t\000"
 4687      785F7400 
 4688              	.LASF109:
 4689 023b 76616C75 		.ascii	"value\000"
 4689      6500
 4690              	.LASF117:
 4691 0241 63685365 		.ascii	"chSemObjectInit\000"
 4691      6D4F626A 
 4691      65637449 
 4691      6E697400 
 4692              	.LASF25:
 4693 0251 636E745F 		.ascii	"cnt_t\000"
 4693      7400
 4694              	.LASF0:
 4695 0257 756E7369 		.ascii	"unsigned int\000"
 4695      676E6564 
 4695      20696E74 
 4695      00
 4696              	.LASF134:
 4697 0264 474E5520 		.ascii	"GNU C 4.9.3 20150529 (prerelease) -mcpu=cortex-m4 -"
 4697      4320342E 
 4697      392E3320 
 4697      32303135 
 4697      30353239 
 4698 0297 6D666C6F 		.ascii	"mfloat-abi=hard -mfpu=fpv4-sp-d16 -mno-thumb-interw"
 4698      61742D61 
 4698      62693D68 
 4698      61726420 
 4698      2D6D6670 
 4699 02ca 6F726B20 		.ascii	"ork -mthumb -g -Os -fomit-frame-pointer -falign-fun"
 4699      2D6D7468 
 4699      756D6220 
 4699      2D67202D 
 4699      4F73202D 
 4700 02fd 6374696F 		.ascii	"ctions=16 -ffunction-sections -fdata-sections -fno-"
 4700      6E733D31 
 4700      36202D66 
 4700      66756E63 
 4700      74696F6E 
 4701 0330 636F6D6D 		.ascii	"common -fsingle-precision-constant\000"
 4701      6F6E202D 
 4701      6673696E 
 4701      676C652D 
 4701      70726563 
 4702              	.LASF95:
 4703 0353 77747365 		.ascii	"wtsemp\000"
 4703      6D7000
 4704              	.LASF121:
 4705 035a 63685365 		.ascii	"chSemReset\000"
 4705      6D526573 
 4705      657400
 4706              	.LASF85:
ARM GAS  /tmp/ccYi4OMh.s 			page 86


 4707 0365 6E5F6972 		.ascii	"n_irq\000"
 4707      7100
 4708              	.LASF29:
 4709 036b 71756575 		.ascii	"queue\000"
 4709      6500
 4710              	.LASF43:
 4711 0371 6D706F6F 		.ascii	"mpool\000"
 4711      6C00
 4712              	.LASF4:
 4713 0377 73686F72 		.ascii	"short unsigned int\000"
 4713      7420756E 
 4713      7369676E 
 4713      65642069 
 4713      6E7400
 4714              	.LASF89:
 4715 038a 6B65726E 		.ascii	"kernel_stats_t\000"
 4715      656C5F73 
 4715      74617473 
 4715      5F7400
 4716              	.LASF47:
 4717 0399 63685F74 		.ascii	"ch_thread\000"
 4717      68726561 
 4717      6400
 4718              	.LASF33:
 4719 03a3 6E616D65 		.ascii	"name\000"
 4719      00
 4720              	.LASF23:
 4721 03a8 6D73675F 		.ascii	"msg_t\000"
 4721      7400
 4722              	.LASF82:
 4723 03ae 6C617374 		.ascii	"last\000"
 4723      00
 4724              	.LASF26:
 4725 03b3 75636E74 		.ascii	"ucnt_t\000"
 4725      5F7400
 4726              	.LASF40:
 4727 03ba 6570656E 		.ascii	"epending\000"
 4727      64696E67 
 4727      00
 4728              	.LASF67:
 4729 03c3 63685F73 		.ascii	"ch_system_t\000"
 4729      79737465 
 4729      6D5F7400 
 4730              	.LASF19:
 4731 03cf 746D6F64 		.ascii	"tmode_t\000"
 4731      655F7400 
 4732              	.LASF88:
 4733 03d7 6D5F6372 		.ascii	"m_crit_isr\000"
 4733      69745F69 
 4733      737200
 4734              	.LASF54:
 4735 03e2 63685F72 		.ascii	"ch_ready_list\000"
 4735      65616479 
 4735      5F6C6973 
 4735      7400
 4736              	.LASF24:
 4737 03f0 6576656E 		.ascii	"eventmask_t\000"
ARM GAS  /tmp/ccYi4OMh.s 			page 87


 4737      746D6173 
 4737      6B5F7400 
 4738              	.LASF123:
 4739 03fc 63685365 		.ascii	"chSemWaitTimeout\000"
 4739      6D576169 
 4739      7454696D 
 4739      656F7574 
 4739      00
 4740              	.LASF6:
 4741 040d 5F5F696E 		.ascii	"__int32_t\000"
 4741      7433325F 
 4741      7400
 4742              	.LASF61:
 4743 0417 76697274 		.ascii	"virtual_timers_list_t\000"
 4743      75616C5F 
 4743      74696D65 
 4743      72735F6C 
 4743      6973745F 
 4744              	.LASF75:
 4745 042d 73746B61 		.ascii	"stkalign_t\000"
 4745      6C69676E 
 4745      5F7400
 4746              	.LASF31:
 4747 0438 6E657765 		.ascii	"newer\000"
 4747      7200
 4748              	.LASF42:
 4749 043e 7265616C 		.ascii	"realprio\000"
 4749      7072696F 
 4749      00
 4750              	.LASF131:
 4751 0447 5F737461 		.ascii	"_stats_stop_measure_crit_thd\000"
 4751      74735F73 
 4751      746F705F 
 4751      6D656173 
 4751      7572655F 
 4752              	.LASF73:
 4753 0464 73697A65 		.ascii	"sizetype\000"
 4753      74797065 
 4753      00
 4754              	.LASF45:
 4755 046d 74687265 		.ascii	"thread_reference_t\000"
 4755      61645F72 
 4755      65666572 
 4755      656E6365 
 4755      5F7400
 4756              	.LASF62:
 4757 0480 63685F76 		.ascii	"ch_virtual_timers_list\000"
 4757      69727475 
 4757      616C5F74 
 4757      696D6572 
 4757      735F6C69 
 4758              	.LASF119:
 4759 0497 63685379 		.ascii	"chSysLock\000"
 4759      734C6F63 
 4759      6B00
 4760              	.LASF76:
 4761 04a1 706F7274 		.ascii	"port_context\000"
ARM GAS  /tmp/ccYi4OMh.s 			page 88


 4761      5F636F6E 
 4761      74657874 
 4761      00
 4762              	.LASF79:
 4763 04ae 746D5F63 		.ascii	"tm_calibration_t\000"
 4763      616C6962 
 4763      72617469 
 4763      6F6E5F74 
 4763      00
 4764              	.LASF114:
 4765 04bf 74696D65 		.ascii	"time\000"
 4765      00
 4766              	.LASF30:
 4767 04c4 7072696F 		.ascii	"prio\000"
 4767      00
 4768              	.LASF55:
 4769 04c9 63757272 		.ascii	"current\000"
 4769      656E7400 
 4770              	.LASF11:
 4771 04d1 5F5F7569 		.ascii	"__uint64_t\000"
 4771      6E743634 
 4771      5F7400
 4772              	.LASF83:
 4773 04dc 63756D75 		.ascii	"cumulative\000"
 4773      6C617469 
 4773      766500
 4774              	.LASF21:
 4775 04e7 74726566 		.ascii	"trefs_t\000"
 4775      735F7400 
 4776              	.LASF37:
 4777 04ef 72656673 		.ascii	"refs\000"
 4777      00
 4778              	.LASF57:
 4779 04f4 76697274 		.ascii	"virtual_timer_t\000"
 4779      75616C5F 
 4779      74696D65 
 4779      725F7400 
 4780              	.LASF22:
 4781 0504 74707269 		.ascii	"tprio_t\000"
 4781      6F5F7400 
 4782              	.LASF86:
 4783 050c 6E5F6374 		.ascii	"n_ctxswc\000"
 4783      78737763 
 4783      00
 4784              	.LASF104:
 4785 0515 5F426F6F 		.ascii	"_Bool\000"
 4785      6C00
 4786              	.LASF14:
 4787 051b 696E7433 		.ascii	"int32_t\000"
 4787      325F7400 
 4788              	.LASF2:
 4789 0523 756E7369 		.ascii	"unsigned char\000"
 4789      676E6564 
 4789      20636861 
 4789      7200
 4790              	.LASF3:
 4791 0531 73686F72 		.ascii	"short int\000"
ARM GAS  /tmp/ccYi4OMh.s 			page 89


 4791      7420696E 
 4791      7400
 4792              	.LASF63:
 4793 053b 6C617374 		.ascii	"lasttime\000"
 4793      74696D65 
 4793      00
 4794              	.LASF97:
 4795 0544 65776D61 		.ascii	"ewmask\000"
 4795      736B00
 4796              	.LASF68:
 4797 054b 63685F73 		.ascii	"ch_system\000"
 4797      79737465 
 4797      6D00
 4798              	.LASF111:
 4799 0555 5F5F6675 		.ascii	"__func__\000"
 4799      6E635F5F 
 4799      00
 4800              	.LASF112:
 4801 055e 63685365 		.ascii	"chSemWaitS\000"
 4801      6D576169 
 4801      745300
 4802              	.LASF102:
 4803 0569 73656D61 		.ascii	"semaphore_t\000"
 4803      70686F72 
 4803      655F7400 
 4804              	.LASF58:
 4805 0575 63685F76 		.ascii	"ch_virtual_timer\000"
 4805      69727475 
 4805      616C5F74 
 4805      696D6572 
 4805      00
 4806              	.LASF98:
 4807 0586 63685F73 		.ascii	"ch_semaphore\000"
 4807      656D6170 
 4807      686F7265 
 4807      00
 4808              	.LASF137:
 4809 0593 63685363 		.ascii	"chSchGoSleepS\000"
 4809      68476F53 
 4809      6C656570 
 4809      5300
 4810              	.LASF15:
 4811 05a1 75696E74 		.ascii	"uint32_t\000"
 4811      33325F74 
 4811      00
 4812              	.LASF96:
 4813 05aa 77746D74 		.ascii	"wtmtxp\000"
 4813      787000
 4814              	.LASF129:
 4815 05b1 63685363 		.ascii	"chSchReadyI\000"
 4815      68526561 
 4815      64794900 
 4816              	.LASF48:
 4817 05bd 63685F74 		.ascii	"ch_threads_list\000"
 4817      68726561 
 4817      64735F6C 
 4817      69737400 
ARM GAS  /tmp/ccYi4OMh.s 			page 90


 4818              	.LASF100:
 4819 05cd 6F776E65 		.ascii	"owner\000"
 4819      7200
 4820              	.LASF9:
 4821 05d3 6C6F6E67 		.ascii	"long unsigned int\000"
 4821      20756E73 
 4821      69676E65 
 4821      6420696E 
 4821      7400
 4822              	.LASF34:
 4823 05e5 77616261 		.ascii	"wabase\000"
 4823      736500
 4824              	.LASF101:
 4825 05ec 63686172 		.ascii	"char\000"
 4825      00
 4826              	.LASF32:
 4827 05f1 6F6C6465 		.ascii	"older\000"
 4827      7200
 4828              	.LASF113:
 4829 05f7 63685365 		.ascii	"chSemWaitTimeoutS\000"
 4829      6D576169 
 4829      7454696D 
 4829      656F7574 
 4829      5300
 4830              	.LASF28:
 4831 0609 74687265 		.ascii	"thread_t\000"
 4831      61645F74 
 4831      00
 4832              	.LASF80:
 4833 0612 62657374 		.ascii	"best\000"
 4833      00
 4834              	.LASF116:
 4835 0617 71756575 		.ascii	"queue_fifo_remove\000"
 4835      655F6669 
 4835      666F5F72 
 4835      656D6F76 
 4835      6500
 4836              	.LASF27:
 4837 0629 73797374 		.ascii	"systime_t\000"
 4837      696D655F 
 4837      7400
 4838              	.LASF56:
 4839 0633 76746675 		.ascii	"vtfunc_t\000"
 4839      6E635F74 
 4839      00
 4840              	.LASF107:
 4841 063c 5F5F7365 		.ascii	"__set_BASEPRI\000"
 4841      745F4241 
 4841      53455052 
 4841      4900
 4842              	.LASF122:
 4843 064a 63685365 		.ascii	"chSemWait\000"
 4843      6D576169 
 4843      7400
 4844              	.LASF66:
 4845 0654 70616E69 		.ascii	"panic_msg\000"
 4845      635F6D73 
ARM GAS  /tmp/ccYi4OMh.s 			page 91


 4845      6700
 4846              	.LASF78:
 4847 065e 6F666673 		.ascii	"offset\000"
 4847      657400
 4848              	.LASF17:
 4849 0665 7274636E 		.ascii	"rtcnt_t\000"
 4849      745F7400 
 4850              	.LASF138:
 4851 066d 63685363 		.ascii	"chSchWakeupS\000"
 4851      6857616B 
 4851      65757053 
 4851      00
 4852              	.LASF50:
 4853 067a 74687265 		.ascii	"threads_queue_t\000"
 4853      6164735F 
 4853      71756575 
 4853      655F7400 
 4854              	.LASF99:
 4855 068a 63685F6D 		.ascii	"ch_mutex\000"
 4855      75746578 
 4855      00
 4856              	.LASF118:
 4857 0693 63685365 		.ascii	"chSemResetI\000"
 4857      6D526573 
 4857      65744900 
 4858              	.LASF69:
 4859 069f 726C6973 		.ascii	"rlist\000"
 4859      7400
 4860              	.LASF13:
 4861 06a5 75696E74 		.ascii	"uint8_t\000"
 4861      385F7400 
 4862              	.LASF36:
 4863 06ad 666C6167 		.ascii	"flags\000"
 4863      7300
 4864              	.LASF130:
 4865 06b3 5F737461 		.ascii	"_stats_start_measure_crit_thd\000"
 4865      74735F73 
 4865      74617274 
 4865      5F6D6561 
 4865      73757265 
 4866              	.LASF92:
 4867 06d1 77746F62 		.ascii	"wtobjp\000"
 4867      6A7000
 4868              	.LASF46:
 4869 06d8 74687265 		.ascii	"threads_list_t\000"
 4869      6164735F 
 4869      6C697374 
 4869      5F7400
 4870              	.LASF133:
 4871 06e7 63685363 		.ascii	"chSchGoSleepTimeoutS\000"
 4871      68476F53 
 4871      6C656570 
 4871      54696D65 
 4871      6F757453 
 4872              	.LASF120:
 4873 06fc 63685379 		.ascii	"chSysUnlock\000"
 4873      73556E6C 
ARM GAS  /tmp/ccYi4OMh.s 			page 92


 4873      6F636B00 
 4874              	.LASF41:
 4875 0708 6D74786C 		.ascii	"mtxlist\000"
 4875      69737400 
 4876              	.LASF87:
 4877 0710 6D5F6372 		.ascii	"m_crit_thd\000"
 4877      69745F74 
 4877      686400
 4878              		.ident	"GCC: (15:4.9.3+svn231177-1) 4.9.3 20150529 (prerelease)"
ARM GAS  /tmp/ccYi4OMh.s 			page 93


DEFINED SYMBOLS
                            *ABS*:0000000000000000 chsem.c
     /tmp/ccYi4OMh.s:21     .text.chSemObjectInit:0000000000000000 $t
     /tmp/ccYi4OMh.s:26     .text.chSemObjectInit:0000000000000000 chSemObjectInit
     /tmp/ccYi4OMh.s:51     .text.chSemResetI:0000000000000000 $t
     /tmp/ccYi4OMh.s:56     .text.chSemResetI:0000000000000000 chSemResetI
     /tmp/ccYi4OMh.s:110    .text.chSemReset:0000000000000000 $t
     /tmp/ccYi4OMh.s:115    .text.chSemReset:0000000000000000 chSemReset
     /tmp/ccYi4OMh.s:184    .text.chSemWaitS:0000000000000000 $t
     /tmp/ccYi4OMh.s:189    .text.chSemWaitS:0000000000000000 chSemWaitS
     /tmp/ccYi4OMh.s:251    .text.chSemWaitS:000000000000002c $d
     /tmp/ccYi4OMh.s:256    .text.chSemWait:0000000000000000 $t
     /tmp/ccYi4OMh.s:261    .text.chSemWait:0000000000000000 chSemWait
     /tmp/ccYi4OMh.s:336    .text.chSemWaitTimeoutS:0000000000000000 $t
     /tmp/ccYi4OMh.s:341    .text.chSemWaitTimeoutS:0000000000000000 chSemWaitTimeoutS
     /tmp/ccYi4OMh.s:422    .text.chSemWaitTimeoutS:0000000000000034 $d
     /tmp/ccYi4OMh.s:427    .text.chSemWaitTimeout:0000000000000000 $t
     /tmp/ccYi4OMh.s:432    .text.chSemWaitTimeout:0000000000000000 chSemWaitTimeout
     /tmp/ccYi4OMh.s:500    .text.chSemSignal:0000000000000000 $t
     /tmp/ccYi4OMh.s:505    .text.chSemSignal:0000000000000000 chSemSignal
     /tmp/ccYi4OMh.s:601    .text.chSemSignalI:0000000000000000 $t
     /tmp/ccYi4OMh.s:606    .text.chSemSignalI:0000000000000000 chSemSignalI
     /tmp/ccYi4OMh.s:651    .text.chSemAddCounterI:0000000000000000 $t
     /tmp/ccYi4OMh.s:656    .text.chSemAddCounterI:0000000000000000 chSemAddCounterI
     /tmp/ccYi4OMh.s:713    .text.chSemSignalWait:0000000000000000 $t
     /tmp/ccYi4OMh.s:718    .text.chSemSignalWait:0000000000000000 chSemSignalWait
     /tmp/ccYi4OMh.s:855    .text.chSemSignalWait:0000000000000064 $d
                     .debug_frame:0000000000000010 $d

UNDEFINED SYMBOLS
chSchReadyI
_stats_start_measure_crit_thd
chSchRescheduleS
_stats_stop_measure_crit_thd
chSchGoSleepS
ch
chSchGoSleepTimeoutS
chSchWakeupS
