ARM GAS  /tmp/ccYi4OMh.s 			page 1


   1              		.syntax unified
   2              		.cpu cortex-m4
   3              		.eabi_attribute 27, 1
   4              		.eabi_attribute 28, 1
   5              		.fpu fpv4-sp-d16
   6              		.eabi_attribute 20, 1
   7              		.eabi_attribute 21, 1
   8              		.eabi_attribute 23, 3
   9              		.eabi_attribute 24, 1
  10              		.eabi_attribute 25, 1
  11              		.eabi_attribute 26, 1
  12              		.eabi_attribute 30, 4
  13              		.eabi_attribute 34, 1
  14              		.eabi_attribute 18, 4
  15              		.thumb
  16              		.file	"chsem.c"
  17              		.text
  18              	.Ltext0:
  19              		.cfi_sections	.debug_frame
  20              		.section	.text.chSemObjectInit,"ax",%progbits
  21              		.align	1
  22              		.global	chSemObjectInit
  23              		.thumb
  24              		.thumb_func
  25              		.type	chSemObjectInit, %function
  26              	chSemObjectInit:
  27              	.LFB246:
  28              		.file 1 "../../modules/ChibiOS/os/rt/src/chsem.c"
  29              		.loc 1 97 0
  30              		.cfi_startproc
  31              		@ args = 0, pretend = 0, frame = 0
  32              		@ frame_needed = 0, uses_anonymous_args = 0
  33              		@ link register save eliminated.
  34              	.LVL0:
  35              	.LBB38:
  36              	.LBB39:
  37              		.file 2 "../../modules/ChibiOS/os/rt/include/chschd.h"
  38              		.loc 2 550 0
  39 0000 0060     		str	r0, [r0]
  40              		.loc 2 551 0
  41 0002 4060     		str	r0, [r0, #4]
  42              	.LBE39:
  43              	.LBE38:
  44              		.loc 1 102 0
  45 0004 8160     		str	r1, [r0, #8]
  46 0006 7047     		bx	lr
  47              		.cfi_endproc
  48              	.LFE246:
  49              		.size	chSemObjectInit, .-chSemObjectInit
  50              		.section	.text.chSemResetI,"ax",%progbits
  51              		.align	1
  52              		.global	chSemResetI
  53              		.thumb
  54              		.thumb_func
  55              		.type	chSemResetI, %function
  56              	chSemResetI:
  57              	.LFB248:
ARM GAS  /tmp/ccYi4OMh.s 			page 2


  58              		.loc 1 147 0
  59              		.cfi_startproc
  60              		@ args = 0, pretend = 0, frame = 0
  61              		@ frame_needed = 0, uses_anonymous_args = 0
  62              	.LVL1:
  63 0000 38B5     		push	{r3, r4, r5, lr}
  64              		.cfi_def_cfa_offset 16
  65              		.cfi_offset 3, -16
  66              		.cfi_offset 4, -12
  67              		.cfi_offset 5, -8
  68              		.cfi_offset 14, -4
  69              		.loc 1 156 0
  70 0002 8568     		ldr	r5, [r0, #8]
  71              	.LVL2:
  72              		.loc 1 157 0
  73 0004 8160     		str	r1, [r0, #8]
  74              		.loc 1 147 0
  75 0006 0446     		mov	r4, r0
  76              	.LVL3:
  77              	.L3:
  78              		.loc 1 158 0
  79 0008 0135     		adds	r5, r5, #1
  80              	.LVL4:
  81 000a 002D     		cmp	r5, #0
  82 000c 09DC     		bgt	.L6
  83              	.LVL5:
  84              	.LBB40:
  85              	.LBB41:
  86              		.loc 2 627 0
  87 000e 6068     		ldr	r0, [r4, #4]
  88              	.LVL6:
  89              		.loc 2 629 0
  90 0010 4368     		ldr	r3, [r0, #4]
  91 0012 6360     		str	r3, [r4, #4]
  92              		.loc 2 630 0
  93 0014 1C60     		str	r4, [r3]
  94              	.LBE41:
  95              	.LBE40:
  96              		.loc 1 159 0
  97 0016 FFF7FEFF 		bl	chSchReadyI
  98              	.LVL7:
  99 001a 6FF00103 		mvn	r3, #1
 100 001e 4362     		str	r3, [r0, #36]
 101 0020 F2E7     		b	.L3
 102              	.LVL8:
 103              	.L6:
 104              		.loc 1 161 0
 105 0022 38BD     		pop	{r3, r4, r5, pc}
 106              		.cfi_endproc
 107              	.LFE248:
 108              		.size	chSemResetI, .-chSemResetI
 109              		.section	.text.chSemReset,"ax",%progbits
 110              		.align	1
 111              		.global	chSemReset
 112              		.thumb
 113              		.thumb_func
 114              		.type	chSemReset, %function
ARM GAS  /tmp/ccYi4OMh.s 			page 3


 115              	chSemReset:
 116              	.LFB247:
 117              		.loc 1 120 0
 118              		.cfi_startproc
 119              		@ args = 0, pretend = 0, frame = 0
 120              		@ frame_needed = 0, uses_anonymous_args = 0
 121              	.LVL9:
 122 0000 38B5     		push	{r3, r4, r5, lr}
 123              		.cfi_def_cfa_offset 16
 124              		.cfi_offset 3, -16
 125              		.cfi_offset 4, -12
 126              		.cfi_offset 5, -8
 127              		.cfi_offset 14, -4
 128              		.loc 1 120 0
 129 0002 0546     		mov	r5, r0
 130 0004 0C46     		mov	r4, r1
 131              	.LBB52:
 132              	.LBB53:
 133              	.LBB54:
 134              	.LBB55:
 135              	.LBB56:
 136              		.file 3 "../../modules/ChibiOS/os/common/ext/CMSIS/include/cmsis_gcc.h"
 137              		.loc 3 264 0
 138 0006 2023     		movs	r3, #32
 139              	@ 264 "../../modules/ChibiOS/os/common/ext/CMSIS/include/cmsis_gcc.h" 1
 140 0008 83F31188 		MSR basepri, r3
 141              	@ 0 "" 2
 142              		.thumb
 143              	.LBE56:
 144              	.LBE55:
 145              	.LBE54:
 146              		.file 4 "../../modules/ChibiOS/os/rt/include/chsys.h"
 147              		.loc 4 377 0
 148 000c FFF7FEFF 		bl	_stats_start_measure_crit_thd
 149              	.LVL10:
 150              	.LBE53:
 151              	.LBE52:
 152              		.loc 1 123 0
 153 0010 2846     		mov	r0, r5
 154 0012 2146     		mov	r1, r4
 155 0014 FFF7FEFF 		bl	chSemResetI
 156              	.LVL11:
 157              		.loc 1 124 0
 158 0018 FFF7FEFF 		bl	chSchRescheduleS
 159              	.LVL12:
 160              	.LBB57:
 161              	.LBB58:
 162              		.loc 4 389 0
 163 001c FFF7FEFF 		bl	_stats_stop_measure_crit_thd
 164              	.LVL13:
 165              	.LBB59:
 166              	.LBB60:
 167              	.LBB61:
 168              		.loc 3 264 0
 169 0020 0023     		movs	r3, #0
 170              	@ 264 "../../modules/ChibiOS/os/common/ext/CMSIS/include/cmsis_gcc.h" 1
 171 0022 83F31188 		MSR basepri, r3
ARM GAS  /tmp/ccYi4OMh.s 			page 4


 172              	@ 0 "" 2
 173              		.thumb
 174 0026 38BD     		pop	{r3, r4, r5, pc}
 175              	.LBE61:
 176              	.LBE60:
 177              	.LBE59:
 178              	.LBE58:
 179              	.LBE57:
 180              		.cfi_endproc
 181              	.LFE247:
 182              		.size	chSemReset, .-chSemReset
 183              		.section	.text.chSemWaitS,"ax",%progbits
 184              		.align	1
 185              		.global	chSemWaitS
 186              		.thumb
 187              		.thumb_func
 188              		.type	chSemWaitS, %function
 189              	chSemWaitS:
 190              	.LFB250:
 191              		.loc 1 197 0
 192              		.cfi_startproc
 193              		@ args = 0, pretend = 0, frame = 0
 194              		@ frame_needed = 0, uses_anonymous_args = 0
 195              	.LVL14:
 196              		.loc 1 205 0
 197 0000 8368     		ldr	r3, [r0, #8]
 198 0002 013B     		subs	r3, r3, #1
 199 0004 002B     		cmp	r3, #0
 200              		.loc 1 197 0
 201 0006 10B5     		push	{r4, lr}
 202              		.cfi_def_cfa_offset 8
 203              		.cfi_offset 4, -8
 204              		.cfi_offset 14, -4
 205              		.loc 1 205 0
 206 0008 8360     		str	r3, [r0, #8]
 207 000a 0DDA     		bge	.L10
 208              	.LVL15:
 209              	.LBB66:
 210              	.LBB67:
 211              		.loc 1 206 0
 212 000c 074C     		ldr	r4, .L11
 213 000e A369     		ldr	r3, [r4, #24]
 214 0010 5862     		str	r0, [r3, #36]
 215              	.LVL16:
 216              	.LBB68:
 217              	.LBB69:
 218              		.loc 2 612 0
 219 0012 4268     		ldr	r2, [r0, #4]
 220              		.loc 2 611 0
 221 0014 1860     		str	r0, [r3]
 222              		.loc 2 612 0
 223 0016 5A60     		str	r2, [r3, #4]
 224              		.loc 2 613 0
 225 0018 1360     		str	r3, [r2]
 226              		.loc 2 614 0
 227 001a 4360     		str	r3, [r0, #4]
 228              	.LBE69:
ARM GAS  /tmp/ccYi4OMh.s 			page 5


 229              	.LBE68:
 230              		.loc 1 208 0
 231 001c 0520     		movs	r0, #5
 232              	.LVL17:
 233 001e FFF7FEFF 		bl	chSchGoSleepS
 234              	.LVL18:
 235              		.loc 1 210 0
 236 0022 A369     		ldr	r3, [r4, #24]
 237 0024 586A     		ldr	r0, [r3, #36]
 238 0026 10BD     		pop	{r4, pc}
 239              	.LVL19:
 240              	.L10:
 241              	.LBE67:
 242              	.LBE66:
 243              		.loc 1 213 0
 244 0028 0020     		movs	r0, #0
 245              	.LVL20:
 246              		.loc 1 214 0
 247 002a 10BD     		pop	{r4, pc}
 248              	.L12:
 249              		.align	2
 250              	.L11:
 251 002c 00000000 		.word	ch
 252              		.cfi_endproc
 253              	.LFE250:
 254              		.size	chSemWaitS, .-chSemWaitS
 255              		.section	.text.chSemWait,"ax",%progbits
 256              		.align	1
 257              		.global	chSemWait
 258              		.thumb
 259              		.thumb_func
 260              		.type	chSemWait, %function
 261              	chSemWait:
 262              	.LFB249:
 263              		.loc 1 175 0
 264              		.cfi_startproc
 265              		@ args = 0, pretend = 0, frame = 0
 266              		@ frame_needed = 0, uses_anonymous_args = 0
 267              	.LVL21:
 268 0000 10B5     		push	{r4, lr}
 269              		.cfi_def_cfa_offset 8
 270              		.cfi_offset 4, -8
 271              		.cfi_offset 14, -4
 272              	.LBB80:
 273              	.LBB81:
 274              	.LBB82:
 275              	.LBB83:
 276              	.LBB84:
 277              		.loc 3 264 0
 278 0002 2023     		movs	r3, #32
 279              	.LBE84:
 280              	.LBE83:
 281              	.LBE82:
 282              	.LBE81:
 283              	.LBE80:
 284              		.loc 1 175 0
 285 0004 0446     		mov	r4, r0
ARM GAS  /tmp/ccYi4OMh.s 			page 6


 286              	.LBB89:
 287              	.LBB88:
 288              	.LBB87:
 289              	.LBB86:
 290              	.LBB85:
 291              		.loc 3 264 0
 292              	@ 264 "../../modules/ChibiOS/os/common/ext/CMSIS/include/cmsis_gcc.h" 1
 293 0006 83F31188 		MSR basepri, r3
 294              	@ 0 "" 2
 295              		.thumb
 296              	.LBE85:
 297              	.LBE86:
 298              	.LBE87:
 299              		.loc 4 377 0
 300 000a FFF7FEFF 		bl	_stats_start_measure_crit_thd
 301              	.LVL22:
 302              	.LBE88:
 303              	.LBE89:
 304              		.loc 1 179 0
 305 000e 2046     		mov	r0, r4
 306 0010 FFF7FEFF 		bl	chSemWaitS
 307              	.LVL23:
 308 0014 0446     		mov	r4, r0
 309              	.LVL24:
 310              	.LBB90:
 311              	.LBB91:
 312              		.loc 4 389 0
 313 0016 FFF7FEFF 		bl	_stats_stop_measure_crit_thd
 314              	.LVL25:
 315              	.LBB92:
 316              	.LBB93:
 317              	.LBB94:
 318              		.loc 3 264 0
 319 001a 0023     		movs	r3, #0
 320              	@ 264 "../../modules/ChibiOS/os/common/ext/CMSIS/include/cmsis_gcc.h" 1
 321 001c 83F31188 		MSR basepri, r3
 322              	@ 0 "" 2
 323              		.thumb
 324              	.LBE94:
 325              	.LBE93:
 326              	.LBE92:
 327              	.LBE91:
 328              	.LBE90:
 329              		.loc 1 183 0
 330 0020 2046     		mov	r0, r4
 331 0022 10BD     		pop	{r4, pc}
 332              		.cfi_endproc
 333              	.LFE249:
 334              		.size	chSemWait, .-chSemWait
 335              		.section	.text.chSemWaitTimeoutS,"ax",%progbits
 336              		.align	1
 337              		.global	chSemWaitTimeoutS
 338              		.thumb
 339              		.thumb_func
 340              		.type	chSemWaitTimeoutS, %function
 341              	chSemWaitTimeoutS:
 342              	.LFB252:
ARM GAS  /tmp/ccYi4OMh.s 			page 7


 343              		.loc 1 264 0
 344              		.cfi_startproc
 345              		@ args = 0, pretend = 0, frame = 0
 346              		@ frame_needed = 0, uses_anonymous_args = 0
 347              	.LVL26:
 348              		.loc 1 272 0
 349 0000 8368     		ldr	r3, [r0, #8]
 350 0002 5A1E     		subs	r2, r3, #1
 351 0004 002A     		cmp	r2, #0
 352              		.loc 1 264 0
 353 0006 10B5     		push	{r4, lr}
 354              		.cfi_def_cfa_offset 8
 355              		.cfi_offset 4, -8
 356              		.cfi_offset 14, -4
 357              		.loc 1 272 0
 358 0008 8260     		str	r2, [r0, #8]
 359 000a 11DA     		bge	.L17
 360              		.loc 1 273 0
 361 000c 19B9     		cbnz	r1, .L16
 362              		.loc 1 274 0
 363 000e 8360     		str	r3, [r0, #8]
 364              		.loc 1 276 0
 365 0010 4FF0FF30 		mov	r0, #-1
 366              	.LVL27:
 367 0014 10BD     		pop	{r4, pc}
 368              	.LVL28:
 369              	.L16:
 370              	.LBB99:
 371              	.LBB100:
 372              		.loc 1 278 0
 373 0016 074B     		ldr	r3, .L18
 374 0018 9B69     		ldr	r3, [r3, #24]
 375 001a 5862     		str	r0, [r3, #36]
 376              	.LVL29:
 377              	.LBB101:
 378              	.LBB102:
 379              		.loc 2 612 0
 380 001c 4268     		ldr	r2, [r0, #4]
 381              		.loc 2 611 0
 382 001e 1860     		str	r0, [r3]
 383              		.loc 2 612 0
 384 0020 5A60     		str	r2, [r3, #4]
 385              	.LBE102:
 386              	.LBE101:
 387              	.LBE100:
 388              	.LBE99:
 389              		.loc 1 285 0
 390 0022 BDE81040 		pop	{r4, lr}
 391              		.cfi_remember_state
 392              		.cfi_restore 14
 393              		.cfi_restore 4
 394              		.cfi_def_cfa_offset 0
 395              	.LBB106:
 396              	.LBB105:
 397              	.LBB104:
 398              	.LBB103:
 399              		.loc 2 613 0
ARM GAS  /tmp/ccYi4OMh.s 			page 8


 400 0026 1360     		str	r3, [r2]
 401              		.loc 2 614 0
 402 0028 4360     		str	r3, [r0, #4]
 403              	.LBE103:
 404              	.LBE104:
 405              		.loc 1 281 0
 406 002a 0520     		movs	r0, #5
 407              	.LVL30:
 408 002c FFF7FEBF 		b	chSchGoSleepTimeoutS
 409              	.LVL31:
 410              	.L17:
 411              		.cfi_restore_state
 412              	.LBE105:
 413              	.LBE106:
 414              		.loc 1 284 0
 415 0030 0020     		movs	r0, #0
 416              	.LVL32:
 417              		.loc 1 285 0
 418 0032 10BD     		pop	{r4, pc}
 419              	.L19:
 420              		.align	2
 421              	.L18:
 422 0034 00000000 		.word	ch
 423              		.cfi_endproc
 424              	.LFE252:
 425              		.size	chSemWaitTimeoutS, .-chSemWaitTimeoutS
 426              		.section	.text.chSemWaitTimeout,"ax",%progbits
 427              		.align	1
 428              		.global	chSemWaitTimeout
 429              		.thumb
 430              		.thumb_func
 431              		.type	chSemWaitTimeout, %function
 432              	chSemWaitTimeout:
 433              	.LFB251:
 434              		.loc 1 235 0
 435              		.cfi_startproc
 436              		@ args = 0, pretend = 0, frame = 0
 437              		@ frame_needed = 0, uses_anonymous_args = 0
 438              	.LVL33:
 439 0000 38B5     		push	{r3, r4, r5, lr}
 440              		.cfi_def_cfa_offset 16
 441              		.cfi_offset 3, -16
 442              		.cfi_offset 4, -12
 443              		.cfi_offset 5, -8
 444              		.cfi_offset 14, -4
 445              		.loc 1 235 0
 446 0002 0546     		mov	r5, r0
 447 0004 0C46     		mov	r4, r1
 448              	.LBB117:
 449              	.LBB118:
 450              	.LBB119:
 451              	.LBB120:
 452              	.LBB121:
 453              		.loc 3 264 0
 454 0006 2023     		movs	r3, #32
 455              	@ 264 "../../modules/ChibiOS/os/common/ext/CMSIS/include/cmsis_gcc.h" 1
 456 0008 83F31188 		MSR basepri, r3
ARM GAS  /tmp/ccYi4OMh.s 			page 9


 457              	@ 0 "" 2
 458              		.thumb
 459              	.LBE121:
 460              	.LBE120:
 461              	.LBE119:
 462              		.loc 4 377 0
 463 000c FFF7FEFF 		bl	_stats_start_measure_crit_thd
 464              	.LVL34:
 465              	.LBE118:
 466              	.LBE117:
 467              		.loc 1 239 0
 468 0010 2146     		mov	r1, r4
 469 0012 2846     		mov	r0, r5
 470 0014 FFF7FEFF 		bl	chSemWaitTimeoutS
 471              	.LVL35:
 472 0018 0446     		mov	r4, r0
 473              	.LVL36:
 474              	.LBB122:
 475              	.LBB123:
 476              		.loc 4 389 0
 477 001a FFF7FEFF 		bl	_stats_stop_measure_crit_thd
 478              	.LVL37:
 479              	.LBB124:
 480              	.LBB125:
 481              	.LBB126:
 482              		.loc 3 264 0
 483 001e 0023     		movs	r3, #0
 484              	@ 264 "../../modules/ChibiOS/os/common/ext/CMSIS/include/cmsis_gcc.h" 1
 485 0020 83F31188 		MSR basepri, r3
 486              	@ 0 "" 2
 487              		.thumb
 488              	.LBE126:
 489              	.LBE125:
 490              	.LBE124:
 491              	.LBE123:
 492              	.LBE122:
 493              		.loc 1 243 0
 494 0024 2046     		mov	r0, r4
 495 0026 38BD     		pop	{r3, r4, r5, pc}
 496              		.cfi_endproc
 497              	.LFE251:
 498              		.size	chSemWaitTimeout, .-chSemWaitTimeout
 499              		.section	.text.chSemSignal,"ax",%progbits
 500              		.align	1
 501              		.global	chSemSignal
 502              		.thumb
 503              		.thumb_func
 504              		.type	chSemSignal, %function
 505              	chSemSignal:
 506              	.LFB253:
 507              		.loc 1 294 0
 508              		.cfi_startproc
 509              		@ args = 0, pretend = 0, frame = 0
 510              		@ frame_needed = 0, uses_anonymous_args = 0
 511              	.LVL38:
 512 0000 10B5     		push	{r4, lr}
 513              		.cfi_def_cfa_offset 8
ARM GAS  /tmp/ccYi4OMh.s 			page 10


 514              		.cfi_offset 4, -8
 515              		.cfi_offset 14, -4
 516              	.LBB139:
 517              	.LBB140:
 518              	.LBB141:
 519              	.LBB142:
 520              	.LBB143:
 521              		.loc 3 264 0
 522 0002 2023     		movs	r3, #32
 523              	.LBE143:
 524              	.LBE142:
 525              	.LBE141:
 526              	.LBE140:
 527              	.LBE139:
 528              		.loc 1 294 0
 529 0004 0446     		mov	r4, r0
 530              	.LBB148:
 531              	.LBB147:
 532              	.LBB146:
 533              	.LBB145:
 534              	.LBB144:
 535              		.loc 3 264 0
 536              	@ 264 "../../modules/ChibiOS/os/common/ext/CMSIS/include/cmsis_gcc.h" 1
 537 0006 83F31188 		MSR basepri, r3
 538              	@ 0 "" 2
 539              		.thumb
 540              	.LBE144:
 541              	.LBE145:
 542              	.LBE146:
 543              		.loc 4 377 0
 544 000a FFF7FEFF 		bl	_stats_start_measure_crit_thd
 545              	.LVL39:
 546              	.LBE147:
 547              	.LBE148:
 548              		.loc 1 302 0
 549 000e A368     		ldr	r3, [r4, #8]
 550 0010 0133     		adds	r3, r3, #1
 551 0012 002B     		cmp	r3, #0
 552 0014 A360     		str	r3, [r4, #8]
 553 0016 06DC     		bgt	.L22
 554              	.LVL40:
 555              	.LBB149:
 556              	.LBB150:
 557              		.loc 2 618 0
 558 0018 2068     		ldr	r0, [r4]
 559              	.LVL41:
 560              		.loc 2 620 0
 561 001a 0368     		ldr	r3, [r0]
 562 001c 2360     		str	r3, [r4]
 563              	.LBE150:
 564              	.LBE149:
 565              		.loc 1 303 0
 566 001e 0021     		movs	r1, #0
 567              	.LBB152:
 568              	.LBB151:
 569              		.loc 2 621 0
 570 0020 5C60     		str	r4, [r3, #4]
ARM GAS  /tmp/ccYi4OMh.s 			page 11


 571              	.LBE151:
 572              	.LBE152:
 573              		.loc 1 303 0
 574 0022 FFF7FEFF 		bl	chSchWakeupS
 575              	.LVL42:
 576              	.L22:
 577              	.LBB153:
 578              	.LBB154:
 579              		.loc 4 389 0
 580 0026 FFF7FEFF 		bl	_stats_stop_measure_crit_thd
 581              	.LVL43:
 582              	.LBB155:
 583              	.LBB156:
 584              	.LBB157:
 585              		.loc 3 264 0
 586 002a 0023     		movs	r3, #0
 587              	@ 264 "../../modules/ChibiOS/os/common/ext/CMSIS/include/cmsis_gcc.h" 1
 588 002c 83F31188 		MSR basepri, r3
 589              	@ 0 "" 2
 590              		.thumb
 591 0030 10BD     		pop	{r4, pc}
 592              	.LBE157:
 593              	.LBE156:
 594              	.LBE155:
 595              	.LBE154:
 596              	.LBE153:
 597              		.cfi_endproc
 598              	.LFE253:
 599              		.size	chSemSignal, .-chSemSignal
 600              		.section	.text.chSemSignalI,"ax",%progbits
 601              		.align	1
 602              		.global	chSemSignalI
 603              		.thumb
 604              		.thumb_func
 605              		.type	chSemSignalI, %function
 606              	chSemSignalI:
 607              	.LFB254:
 608              		.loc 1 319 0
 609              		.cfi_startproc
 610              		@ args = 0, pretend = 0, frame = 0
 611              		@ frame_needed = 0, uses_anonymous_args = 0
 612              		@ link register save eliminated.
 613              	.LVL44:
 614              		.loc 1 327 0
 615 0000 8268     		ldr	r2, [r0, #8]
 616 0002 0132     		adds	r2, r2, #1
 617 0004 002A     		cmp	r2, #0
 618              		.loc 1 319 0
 619 0006 0346     		mov	r3, r0
 620              		.loc 1 327 0
 621 0008 8260     		str	r2, [r0, #8]
 622 000a 07DC     		bgt	.L23
 623              	.LVL45:
 624              	.LBB158:
 625              	.LBB159:
 626              	.LBB160:
 627              		.loc 2 618 0
ARM GAS  /tmp/ccYi4OMh.s 			page 12


 628 000c 0068     		ldr	r0, [r0]
 629              	.LVL46:
 630              		.loc 2 620 0
 631 000e 0268     		ldr	r2, [r0]
 632 0010 1A60     		str	r2, [r3]
 633              		.loc 2 621 0
 634 0012 5360     		str	r3, [r2, #4]
 635              	.LBE160:
 636              	.LBE159:
 637              		.loc 1 331 0
 638 0014 0023     		movs	r3, #0
 639              	.LVL47:
 640 0016 4362     		str	r3, [r0, #36]
 641              		.loc 1 332 0
 642 0018 FFF7FEBF 		b	chSchReadyI
 643              	.LVL48:
 644              	.L23:
 645 001c 7047     		bx	lr
 646              	.LBE158:
 647              		.cfi_endproc
 648              	.LFE254:
 649              		.size	chSemSignalI, .-chSemSignalI
 650              		.section	.text.chSemAddCounterI,"ax",%progbits
 651              		.align	1
 652              		.global	chSemAddCounterI
 653              		.thumb
 654              		.thumb_func
 655              		.type	chSemAddCounterI, %function
 656              	chSemAddCounterI:
 657              	.LFB255:
 658              		.loc 1 349 0
 659              		.cfi_startproc
 660              		@ args = 0, pretend = 0, frame = 0
 661              		@ frame_needed = 0, uses_anonymous_args = 0
 662              	.LVL49:
 663 0000 38B5     		push	{r3, r4, r5, lr}
 664              		.cfi_def_cfa_offset 16
 665              		.cfi_offset 3, -16
 666              		.cfi_offset 4, -12
 667              		.cfi_offset 5, -8
 668              		.cfi_offset 14, -4
 669 0002 0446     		mov	r4, r0
 670 0004 0D46     		mov	r5, r1
 671              	.LVL50:
 672              	.L26:
 673              		.loc 1 357 0
 674 0006 002D     		cmp	r5, #0
 675 0008 0EDD     		ble	.L29
 676              		.loc 1 358 0
 677 000a A368     		ldr	r3, [r4, #8]
 678 000c 0133     		adds	r3, r3, #1
 679 000e 002B     		cmp	r3, #0
 680 0010 A360     		str	r3, [r4, #8]
 681 0012 07DC     		bgt	.L27
 682              	.LVL51:
 683              	.LBB161:
 684              	.LBB162:
ARM GAS  /tmp/ccYi4OMh.s 			page 13


 685              		.loc 2 618 0
 686 0014 2068     		ldr	r0, [r4]
 687              	.LVL52:
 688              		.loc 2 620 0
 689 0016 0368     		ldr	r3, [r0]
 690 0018 2360     		str	r3, [r4]
 691              		.loc 2 621 0
 692 001a 5C60     		str	r4, [r3, #4]
 693              	.LBE162:
 694              	.LBE161:
 695              		.loc 1 359 0
 696 001c FFF7FEFF 		bl	chSchReadyI
 697              	.LVL53:
 698 0020 0023     		movs	r3, #0
 699 0022 4362     		str	r3, [r0, #36]
 700              	.LVL54:
 701              	.L27:
 702              		.loc 1 361 0
 703 0024 013D     		subs	r5, r5, #1
 704              	.LVL55:
 705 0026 EEE7     		b	.L26
 706              	.L29:
 707              		.loc 1 363 0
 708 0028 38BD     		pop	{r3, r4, r5, pc}
 709              		.cfi_endproc
 710              	.LFE255:
 711              		.size	chSemAddCounterI, .-chSemAddCounterI
 712              		.section	.text.chSemSignalWait,"ax",%progbits
 713              		.align	1
 714              		.global	chSemSignalWait
 715              		.thumb
 716              		.thumb_func
 717              		.type	chSemSignalWait, %function
 718              	chSemSignalWait:
 719              	.LFB256:
 720              		.loc 1 378 0
 721              		.cfi_startproc
 722              		@ args = 0, pretend = 0, frame = 0
 723              		@ frame_needed = 0, uses_anonymous_args = 0
 724              	.LVL56:
 725 0000 38B5     		push	{r3, r4, r5, lr}
 726              		.cfi_def_cfa_offset 16
 727              		.cfi_offset 3, -16
 728              		.cfi_offset 4, -12
 729              		.cfi_offset 5, -8
 730              		.cfi_offset 14, -4
 731              		.loc 1 378 0
 732 0002 0446     		mov	r4, r0
 733 0004 0D46     		mov	r5, r1
 734              	.LBB178:
 735              	.LBB179:
 736              	.LBB180:
 737              	.LBB181:
 738              	.LBB182:
 739              		.loc 3 264 0
 740 0006 2023     		movs	r3, #32
 741              	@ 264 "../../modules/ChibiOS/os/common/ext/CMSIS/include/cmsis_gcc.h" 1
ARM GAS  /tmp/ccYi4OMh.s 			page 14


 742 0008 83F31188 		MSR basepri, r3
 743              	@ 0 "" 2
 744              		.thumb
 745              	.LBE182:
 746              	.LBE181:
 747              	.LBE180:
 748              		.loc 4 377 0
 749 000c FFF7FEFF 		bl	_stats_start_measure_crit_thd
 750              	.LVL57:
 751              	.LBE179:
 752              	.LBE178:
 753              		.loc 1 390 0
 754 0010 A368     		ldr	r3, [r4, #8]
 755 0012 0133     		adds	r3, r3, #1
 756 0014 002B     		cmp	r3, #0
 757 0016 A360     		str	r3, [r4, #8]
 758 0018 07DC     		bgt	.L31
 759              	.LVL58:
 760              	.LBB183:
 761              	.LBB184:
 762              		.loc 2 618 0
 763 001a 2068     		ldr	r0, [r4]
 764              	.LVL59:
 765              		.loc 2 620 0
 766 001c 0368     		ldr	r3, [r0]
 767 001e 2360     		str	r3, [r4]
 768              		.loc 2 621 0
 769 0020 5C60     		str	r4, [r3, #4]
 770              	.LBE184:
 771              	.LBE183:
 772              		.loc 1 391 0
 773 0022 FFF7FEFF 		bl	chSchReadyI
 774              	.LVL60:
 775 0026 0023     		movs	r3, #0
 776 0028 4362     		str	r3, [r0, #36]
 777              	.LVL61:
 778              	.L31:
 779              		.loc 1 393 0
 780 002a AB68     		ldr	r3, [r5, #8]
 781 002c 013B     		subs	r3, r3, #1
 782 002e 002B     		cmp	r3, #0
 783 0030 AB60     		str	r3, [r5, #8]
 784 0032 0CDA     		bge	.L32
 785              	.LBB185:
 786              		.loc 1 394 0
 787 0034 0B4B     		ldr	r3, .L34
 788 0036 9C69     		ldr	r4, [r3, #24]
 789              	.LVL62:
 790              	.LBB186:
 791              	.LBB187:
 792              		.loc 2 612 0
 793 0038 6B68     		ldr	r3, [r5, #4]
 794              		.loc 2 611 0
 795 003a 2560     		str	r5, [r4]
 796              		.loc 2 612 0
 797 003c 6360     		str	r3, [r4, #4]
 798              	.LBE187:
ARM GAS  /tmp/ccYi4OMh.s 			page 15


 799              	.LBE186:
 800              		.loc 1 397 0
 801 003e 0520     		movs	r0, #5
 802              	.LBB189:
 803              	.LBB188:
 804              		.loc 2 613 0
 805 0040 1C60     		str	r4, [r3]
 806              		.loc 2 614 0
 807 0042 6C60     		str	r4, [r5, #4]
 808              	.LBE188:
 809              	.LBE189:
 810              		.loc 1 396 0
 811 0044 6562     		str	r5, [r4, #36]
 812              		.loc 1 397 0
 813 0046 FFF7FEFF 		bl	chSchGoSleepS
 814              	.LVL63:
 815              		.loc 1 398 0
 816 004a 646A     		ldr	r4, [r4, #36]
 817              	.LVL64:
 818              	.LBE185:
 819 004c 02E0     		b	.L33
 820              	.LVL65:
 821              	.L32:
 822              		.loc 1 401 0
 823 004e FFF7FEFF 		bl	chSchRescheduleS
 824              	.LVL66:
 825              		.loc 1 402 0
 826 0052 0024     		movs	r4, #0
 827              	.LVL67:
 828              	.L33:
 829              	.LBB190:
 830              	.LBB191:
 831              		.loc 4 389 0
 832 0054 FFF7FEFF 		bl	_stats_stop_measure_crit_thd
 833              	.LVL68:
 834              	.LBB192:
 835              	.LBB193:
 836              	.LBB194:
 837              		.loc 3 264 0
 838 0058 0023     		movs	r3, #0
 839              	@ 264 "../../modules/ChibiOS/os/common/ext/CMSIS/include/cmsis_gcc.h" 1
 840 005a 83F31188 		MSR basepri, r3
 841              	@ 0 "" 2
 842              		.thumb
 843              	.LBE194:
 844              	.LBE193:
 845              	.LBE192:
 846              	.LBE191:
 847              	.LBE190:
 848              		.loc 1 407 0
 849 005e 2046     		mov	r0, r4
 850 0060 38BD     		pop	{r3, r4, r5, pc}
 851              	.LVL69:
 852              	.L35:
 853 0062 00BF     		.align	2
 854              	.L34:
 855 0064 00000000 		.word	ch
ARM GAS  /tmp/ccYi4OMh.s 			page 16


 856              		.cfi_endproc
 857              	.LFE256:
 858              		.size	chSemSignalWait, .-chSemSignalWait
 859              		.text
 860              	.Letext0:
 861              		.file 5 "/usr/include/newlib/machine/_default_types.h"
 862              		.file 6 "/usr/include/newlib/sys/_stdint.h"
 863              		.file 7 "../../modules/ChibiOS/os/common/ports/ARMCMx/compilers/GCC/chtypes.h"
 864              		.file 8 "../../modules/ChibiOS/os/rt/include/chsystypes.h"
 865              		.file 9 "../../modules/ChibiOS/os/common/ports/ARMCMx/chcore.h"
 866              		.file 10 "../../modules/ChibiOS/os/common/ports/ARMCMx/chcore_v7m.h"
 867              		.file 11 "../../modules/ChibiOS/os/rt/include/chtm.h"
 868              		.file 12 "../../modules/ChibiOS/os/rt/include/chstats.h"
 869              		.file 13 "../../modules/ChibiOS/os/rt/include/chsem.h"
 870              		.file 14 "../../modules/ChibiOS/os/rt/include/chmtx.h"
 871              		.file 15 "../../modules/ChibiOS/os/common/ext/CMSIS/include/core_cm4.h"