ARM GAS  /tmp/ccDyn4AJ.s 			page 1


   1              		.syntax unified
   2              		.cpu cortex-m4
   3              		.eabi_attribute 27, 1
   4              		.eabi_attribute 28, 1
   5              		.fpu fpv4-sp-d16
   6              		.eabi_attribute 20, 1
   7              		.eabi_attribute 21, 1
   8              		.eabi_attribute 23, 3
   9              		.eabi_attribute 24, 1
  10              		.eabi_attribute 25, 1
  11              		.eabi_attribute 26, 1
  12              		.eabi_attribute 30, 4
  13              		.eabi_attribute 34, 1
  14              		.eabi_attribute 18, 4
  15              		.thumb
  16              		.file	"chstats.c"
  17              		.text
  18              	.Ltext0:
  19              		.cfi_sections	.debug_frame
  20              		.section	.text._stats_init,"ax",%progbits
  21              		.align	1
  22              		.global	_stats_init
  23              		.thumb
  24              		.thumb_func
  25              		.type	_stats_init, %function
  26              	_stats_init:
  27              	.LFB246:
  28              		.file 1 "../../modules/ChibiOS/os/rt/src/chstats.c"
  29              		.loc 1 62 0
  30              		.cfi_startproc
  31              		@ args = 0, pretend = 0, frame = 0
  32              		@ frame_needed = 0, uses_anonymous_args = 0
  33 0000 10B5     		push	{r4, lr}
  34              		.cfi_def_cfa_offset 8
  35              		.cfi_offset 4, -8
  36              		.cfi_offset 14, -4
  37              		.loc 1 64 0
  38 0002 084C     		ldr	r4, .L2
  39 0004 0023     		movs	r3, #0
  40              		.loc 1 66 0
  41 0006 04F1A000 		add	r0, r4, #160
  42              		.loc 1 64 0
  43 000a C4F89830 		str	r3, [r4, #152]
  44              		.loc 1 65 0
  45 000e C4F89C30 		str	r3, [r4, #156]
  46              		.loc 1 66 0
  47 0012 FFF7FEFF 		bl	chTMObjectInit
  48              	.LVL0:
  49              		.loc 1 67 0
  50 0016 04F1B800 		add	r0, r4, #184
  51              		.loc 1 68 0
  52 001a BDE81040 		pop	{r4, lr}
  53              		.cfi_restore 14
  54              		.cfi_restore 4
  55              		.cfi_def_cfa_offset 0
  56              		.loc 1 67 0
  57 001e FFF7FEBF 		b	chTMObjectInit
ARM GAS  /tmp/ccDyn4AJ.s 			page 2


  58              	.LVL1:
  59              	.L3:
  60 0022 00BF     		.align	2
  61              	.L2:
  62 0024 00000000 		.word	ch
  63              		.cfi_endproc
  64              	.LFE246:
  65              		.size	_stats_init, .-_stats_init
  66              		.section	.text._stats_increase_irq,"ax",%progbits
  67              		.align	1
  68              		.global	_stats_increase_irq
  69              		.thumb
  70              		.thumb_func
  71              		.type	_stats_increase_irq, %function
  72              	_stats_increase_irq:
  73              	.LFB247:
  74              		.loc 1 73 0
  75              		.cfi_startproc
  76              		@ args = 0, pretend = 0, frame = 0
  77              		@ frame_needed = 0, uses_anonymous_args = 0
  78              		@ link register save eliminated.
  79              	.LVL2:
  80              	.LBB24:
  81              	.LBB25:
  82              	.LBB26:
  83              	.LBB27:
  84              		.file 2 "../../modules/ChibiOS/os/common/ext/CMSIS/include/cmsis_gcc.h"
  85              		.loc 2 264 0
  86 0000 2023     		movs	r3, #32
  87              	@ 264 "../../modules/ChibiOS/os/common/ext/CMSIS/include/cmsis_gcc.h" 1
  88 0002 83F31188 		MSR basepri, r3
  89              	@ 0 "" 2
  90              		.thumb
  91              	.LBE27:
  92              	.LBE26:
  93              	.LBE25:
  94              	.LBE24:
  95              		.loc 1 76 0
  96 0006 054A     		ldr	r2, .L5
  97 0008 D2F89830 		ldr	r3, [r2, #152]
  98 000c 0133     		adds	r3, r3, #1
  99 000e C2F89830 		str	r3, [r2, #152]
 100              	.LVL3:
 101              	.LBB28:
 102              	.LBB29:
 103              	.LBB30:
 104              	.LBB31:
 105              		.loc 2 264 0
 106 0012 0023     		movs	r3, #0
 107              	@ 264 "../../modules/ChibiOS/os/common/ext/CMSIS/include/cmsis_gcc.h" 1
 108 0014 83F31188 		MSR basepri, r3
 109              	@ 0 "" 2
 110              		.thumb
 111 0018 7047     		bx	lr
 112              	.L6:
 113 001a 00BF     		.align	2
 114              	.L5:
ARM GAS  /tmp/ccDyn4AJ.s 			page 3


 115 001c 00000000 		.word	ch
 116              	.LBE31:
 117              	.LBE30:
 118              	.LBE29:
 119              	.LBE28:
 120              		.cfi_endproc
 121              	.LFE247:
 122              		.size	_stats_increase_irq, .-_stats_increase_irq
 123              		.section	.text._stats_ctxswc,"ax",%progbits
 124              		.align	1
 125              		.global	_stats_ctxswc
 126              		.thumb
 127              		.thumb_func
 128              		.type	_stats_ctxswc, %function
 129              	_stats_ctxswc:
 130              	.LFB248:
 131              		.loc 1 86 0
 132              		.cfi_startproc
 133              		@ args = 0, pretend = 0, frame = 0
 134              		@ frame_needed = 0, uses_anonymous_args = 0
 135              		@ link register save eliminated.
 136              	.LVL4:
 137              		.loc 1 88 0
 138 0000 064A     		ldr	r2, .L8
 139 0002 D2F89C30 		ldr	r3, [r2, #156]
 140 0006 0133     		adds	r3, r3, #1
 141 0008 C2F89C30 		str	r3, [r2, #156]
 142              		.loc 1 89 0
 143 000c 00F14803 		add	r3, r0, #72
 144 0010 01F14800 		add	r0, r1, #72
 145              	.LVL5:
 146 0014 1946     		mov	r1, r3
 147              	.LVL6:
 148 0016 FFF7FEBF 		b	chTMChainMeasurementToX
 149              	.LVL7:
 150              	.L9:
 151 001a 00BF     		.align	2
 152              	.L8:
 153 001c 00000000 		.word	ch
 154              		.cfi_endproc
 155              	.LFE248:
 156              		.size	_stats_ctxswc, .-_stats_ctxswc
 157              		.section	.text._stats_start_measure_crit_thd,"ax",%progbits
 158              		.align	1
 159              		.global	_stats_start_measure_crit_thd
 160              		.thumb
 161              		.thumb_func
 162              		.type	_stats_start_measure_crit_thd, %function
 163              	_stats_start_measure_crit_thd:
 164              	.LFB249:
 165              		.loc 1 95 0
 166              		.cfi_startproc
 167              		@ args = 0, pretend = 0, frame = 0
 168              		@ frame_needed = 0, uses_anonymous_args = 0
 169              		@ link register save eliminated.
 170              		.loc 1 97 0
 171 0000 0148     		ldr	r0, .L11
ARM GAS  /tmp/ccDyn4AJ.s 			page 4


 172 0002 FFF7FEBF 		b	chTMStartMeasurementX
 173              	.LVL8:
 174              	.L12:
 175 0006 00BF     		.align	2
 176              	.L11:
 177 0008 A0000000 		.word	ch+160
 178              		.cfi_endproc
 179              	.LFE249:
 180              		.size	_stats_start_measure_crit_thd, .-_stats_start_measure_crit_thd
 181              		.section	.text._stats_stop_measure_crit_thd,"ax",%progbits
 182              		.align	1
 183              		.global	_stats_stop_measure_crit_thd
 184              		.thumb
 185              		.thumb_func
 186              		.type	_stats_stop_measure_crit_thd, %function
 187              	_stats_stop_measure_crit_thd:
 188              	.LFB250:
 189              		.loc 1 103 0
 190              		.cfi_startproc
 191              		@ args = 0, pretend = 0, frame = 0
 192              		@ frame_needed = 0, uses_anonymous_args = 0
 193              		@ link register save eliminated.
 194              		.loc 1 105 0
 195 0000 0148     		ldr	r0, .L14
 196 0002 FFF7FEBF 		b	chTMStopMeasurementX
 197              	.LVL9:
 198              	.L15:
 199 0006 00BF     		.align	2
 200              	.L14:
 201 0008 A0000000 		.word	ch+160
 202              		.cfi_endproc
 203              	.LFE250:
 204              		.size	_stats_stop_measure_crit_thd, .-_stats_stop_measure_crit_thd
 205              		.section	.text._stats_start_measure_crit_isr,"ax",%progbits
 206              		.align	1
 207              		.global	_stats_start_measure_crit_isr
 208              		.thumb
 209              		.thumb_func
 210              		.type	_stats_start_measure_crit_isr, %function
 211              	_stats_start_measure_crit_isr:
 212              	.LFB251:
 213              		.loc 1 111 0
 214              		.cfi_startproc
 215              		@ args = 0, pretend = 0, frame = 0
 216              		@ frame_needed = 0, uses_anonymous_args = 0
 217              		@ link register save eliminated.
 218              		.loc 1 113 0
 219 0000 0148     		ldr	r0, .L17
 220 0002 FFF7FEBF 		b	chTMStartMeasurementX
 221              	.LVL10:
 222              	.L18:
 223 0006 00BF     		.align	2
 224              	.L17:
 225 0008 B8000000 		.word	ch+184
 226              		.cfi_endproc
 227              	.LFE251:
 228              		.size	_stats_start_measure_crit_isr, .-_stats_start_measure_crit_isr
ARM GAS  /tmp/ccDyn4AJ.s 			page 5


 229              		.section	.text._stats_stop_measure_crit_isr,"ax",%progbits
 230              		.align	1
 231              		.global	_stats_stop_measure_crit_isr
 232              		.thumb
 233              		.thumb_func
 234              		.type	_stats_stop_measure_crit_isr, %function
 235              	_stats_stop_measure_crit_isr:
 236              	.LFB252:
 237              		.loc 1 119 0
 238              		.cfi_startproc
 239              		@ args = 0, pretend = 0, frame = 0
 240              		@ frame_needed = 0, uses_anonymous_args = 0
 241              		@ link register save eliminated.
 242              		.loc 1 121 0
 243 0000 0148     		ldr	r0, .L20
 244 0002 FFF7FEBF 		b	chTMStopMeasurementX
 245              	.LVL11:
 246              	.L21:
 247 0006 00BF     		.align	2
 248              	.L20:
 249 0008 B8000000 		.word	ch+184
 250              		.cfi_endproc
 251              	.LFE252:
 252              		.size	_stats_stop_measure_crit_isr, .-_stats_stop_measure_crit_isr
 253              		.text
 254              	.Letext0:
 255              		.file 3 "/usr/include/newlib/machine/_default_types.h"
 256              		.file 4 "/usr/include/newlib/sys/_stdint.h"
 257              		.file 5 "../../modules/ChibiOS/os/common/ports/ARMCMx/compilers/GCC/chtypes.h"
 258              		.file 6 "../../modules/ChibiOS/os/rt/include/chsystypes.h"
 259              		.file 7 "../../modules/ChibiOS/os/rt/include/chschd.h"
 260              		.file 8 "../../modules/ChibiOS/os/common/ports/ARMCMx/chcore.h"
 261              		.file 9 "../../modules/ChibiOS/os/common/ports/ARMCMx/chcore_v7m.h"
 262              		.file 10 "../../modules/ChibiOS/os/rt/include/chtm.h"
 263              		.file 11 "../../modules/ChibiOS/os/rt/include/chstats.h"
 264              		.file 12 "../../modules/ChibiOS/os/rt/include/chsem.h"
 265              		.file 13 "../../modules/ChibiOS/os/rt/include/chmtx.h"
 266              		.file 14 "../../modules/ChibiOS/os/common/ext/CMSIS/include/core_cm4.h"
 267              		.section	.debug_info,"",%progbits
 268              	.Ldebug_info0:
 269 0000 BA090000 		.4byte	0x9ba
 270 0004 0400     		.2byte	0x4
 271 0006 00000000 		.4byte	.Ldebug_abbrev0
 272 000a 04       		.byte	0x4
 273 000b 01       		.uleb128 0x1
 274 000c FA010000 		.4byte	.LASF119
 275 0010 01       		.byte	0x1
 276 0011 71060000 		.4byte	.LASF120
 277 0015 1B010000 		.4byte	.LASF121
 278 0019 00000000 		.4byte	.Ldebug_ranges0+0
 279 001d 00000000 		.4byte	0
 280 0021 00000000 		.4byte	.Ldebug_line0
 281 0025 02       		.uleb128 0x2
 282 0026 04       		.byte	0x4
 283 0027 05       		.byte	0x5
 284 0028 696E7400 		.ascii	"int\000"
 285 002c 03       		.uleb128 0x3
ARM GAS  /tmp/ccDyn4AJ.s 			page 6


 286 002d 04       		.byte	0x4
 287 002e 07       		.byte	0x7
 288 002f ED010000 		.4byte	.LASF0
 289 0033 03       		.uleb128 0x3
 290 0034 01       		.byte	0x1
 291 0035 06       		.byte	0x6
 292 0036 08010000 		.4byte	.LASF1
 293 003a 04       		.uleb128 0x4
 294 003b 36000000 		.4byte	.LASF5
 295 003f 03       		.byte	0x3
 296 0040 1D       		.byte	0x1d
 297 0041 45000000 		.4byte	0x45
 298 0045 03       		.uleb128 0x3
 299 0046 01       		.byte	0x1
 300 0047 08       		.byte	0x8
 301 0048 A4040000 		.4byte	.LASF2
 302 004c 03       		.uleb128 0x3
 303 004d 02       		.byte	0x2
 304 004e 05       		.byte	0x5
 305 004f BF040000 		.4byte	.LASF3
 306 0053 03       		.uleb128 0x3
 307 0054 02       		.byte	0x2
 308 0055 07       		.byte	0x7
 309 0056 02030000 		.4byte	.LASF4
 310 005a 04       		.uleb128 0x4
 311 005b 58050000 		.4byte	.LASF6
 312 005f 03       		.byte	0x3
 313 0060 3F       		.byte	0x3f
 314 0061 65000000 		.4byte	0x65
 315 0065 03       		.uleb128 0x3
 316 0066 04       		.byte	0x4
 317 0067 05       		.byte	0x5
 318 0068 87010000 		.4byte	.LASF7
 319 006c 04       		.uleb128 0x4
 320 006d A4010000 		.4byte	.LASF8
 321 0071 03       		.byte	0x3
 322 0072 41       		.byte	0x41
 323 0073 77000000 		.4byte	0x77
 324 0077 03       		.uleb128 0x3
 325 0078 04       		.byte	0x4
 326 0079 07       		.byte	0x7
 327 007a 34050000 		.4byte	.LASF9
 328 007e 03       		.uleb128 0x3
 329 007f 08       		.byte	0x8
 330 0080 05       		.byte	0x5
 331 0081 FA000000 		.4byte	.LASF10
 332 0085 04       		.uleb128 0x4
 333 0086 52040000 		.4byte	.LASF11
 334 008a 03       		.byte	0x3
 335 008b 5B       		.byte	0x5b
 336 008c 90000000 		.4byte	0x90
 337 0090 03       		.uleb128 0x3
 338 0091 08       		.byte	0x8
 339 0092 07       		.byte	0x7
 340 0093 94000000 		.4byte	.LASF12
 341 0097 04       		.uleb128 0x4
 342 0098 F8050000 		.4byte	.LASF13
ARM GAS  /tmp/ccDyn4AJ.s 			page 7


 343 009c 04       		.byte	0x4
 344 009d 14       		.byte	0x14
 345 009e 3A000000 		.4byte	0x3a
 346 00a2 04       		.uleb128 0x4
 347 00a3 9C040000 		.4byte	.LASF14
 348 00a7 04       		.byte	0x4
 349 00a8 1F       		.byte	0x1f
 350 00a9 5A000000 		.4byte	0x5a
 351 00ad 04       		.uleb128 0x4
 352 00ae 01050000 		.4byte	.LASF15
 353 00b2 04       		.byte	0x4
 354 00b3 20       		.byte	0x20
 355 00b4 6C000000 		.4byte	0x6c
 356 00b8 04       		.uleb128 0x4
 357 00b9 20000000 		.4byte	.LASF16
 358 00bd 04       		.byte	0x4
 359 00be 26       		.byte	0x26
 360 00bf 85000000 		.4byte	0x85
 361 00c3 04       		.uleb128 0x4
 362 00c4 BE050000 		.4byte	.LASF17
 363 00c8 05       		.byte	0x5
 364 00c9 39       		.byte	0x39
 365 00ca AD000000 		.4byte	0xad
 366 00ce 04       		.uleb128 0x4
 367 00cf F1000000 		.4byte	.LASF18
 368 00d3 05       		.byte	0x5
 369 00d4 3A       		.byte	0x3a
 370 00d5 B8000000 		.4byte	0xb8
 371 00d9 04       		.uleb128 0x4
 372 00da 5A030000 		.4byte	.LASF19
 373 00de 05       		.byte	0x5
 374 00df 3C       		.byte	0x3c
 375 00e0 97000000 		.4byte	0x97
 376 00e4 04       		.uleb128 0x4
 377 00e5 90010000 		.4byte	.LASF20
 378 00e9 05       		.byte	0x5
 379 00ea 3D       		.byte	0x3d
 380 00eb 97000000 		.4byte	0x97
 381 00ef 04       		.uleb128 0x4
 382 00f0 68040000 		.4byte	.LASF21
 383 00f4 05       		.byte	0x5
 384 00f5 3E       		.byte	0x3e
 385 00f6 97000000 		.4byte	0x97
 386 00fa 04       		.uleb128 0x4
 387 00fb 85040000 		.4byte	.LASF22
 388 00ff 05       		.byte	0x5
 389 0100 40       		.byte	0x40
 390 0101 AD000000 		.4byte	0xad
 391 0105 04       		.uleb128 0x4
 392 0106 33030000 		.4byte	.LASF23
 393 010a 05       		.byte	0x5
 394 010b 41       		.byte	0x41
 395 010c A2000000 		.4byte	0xa2
 396 0110 04       		.uleb128 0x4
 397 0111 7B030000 		.4byte	.LASF24
 398 0115 05       		.byte	0x5
 399 0116 43       		.byte	0x43
ARM GAS  /tmp/ccDyn4AJ.s 			page 8


 400 0117 AD000000 		.4byte	0xad
 401 011b 04       		.uleb128 0x4
 402 011c DE010000 		.4byte	.LASF25
 403 0120 05       		.byte	0x5
 404 0121 45       		.byte	0x45
 405 0122 A2000000 		.4byte	0xa2
 406 0126 04       		.uleb128 0x4
 407 0127 3E030000 		.4byte	.LASF26
 408 012b 05       		.byte	0x5
 409 012c 46       		.byte	0x46
 410 012d AD000000 		.4byte	0xad
 411 0131 04       		.uleb128 0x4
 412 0132 8C050000 		.4byte	.LASF27
 413 0136 06       		.byte	0x6
 414 0137 33       		.byte	0x33
 415 0138 AD000000 		.4byte	0xad
 416 013c 04       		.uleb128 0x4
 417 013d 7E050000 		.4byte	.LASF28
 418 0141 06       		.byte	0x6
 419 0142 3F       		.byte	0x3f
 420 0143 47010000 		.4byte	0x147
 421 0147 05       		.uleb128 0x5
 422 0148 29030000 		.4byte	.LASF47
 423 014c 60       		.byte	0x60
 424 014d 07       		.byte	0x7
 425 014e 9A       		.byte	0x9a
 426 014f 32020000 		.4byte	0x232
 427 0153 06       		.uleb128 0x6
 428 0154 F6020000 		.4byte	.LASF29
 429 0158 07       		.byte	0x7
 430 0159 9B       		.byte	0x9b
 431 015a 67020000 		.4byte	0x267
 432 015e 00       		.byte	0
 433 015f 06       		.uleb128 0x6
 434 0160 27040000 		.4byte	.LASF30
 435 0164 07       		.byte	0x7
 436 0165 9C       		.byte	0x9c
 437 0166 FA000000 		.4byte	0xfa
 438 016a 08       		.byte	0x8
 439 016b 07       		.uleb128 0x7
 440 016c 63747800 		.ascii	"ctx\000"
 441 0170 07       		.byte	0x7
 442 0171 9D       		.byte	0x9d
 443 0172 6C040000 		.4byte	0x46c
 444 0176 0C       		.byte	0xc
 445 0177 06       		.uleb128 0x6
 446 0178 AA030000 		.4byte	.LASF31
 447 017c 07       		.byte	0x7
 448 017d 9F       		.byte	0x9f
 449 017e 3D020000 		.4byte	0x23d
 450 0182 10       		.byte	0x10
 451 0183 06       		.uleb128 0x6
 452 0184 52050000 		.4byte	.LASF32
 453 0188 07       		.byte	0x7
 454 0189 A0       		.byte	0xa0
 455 018a 3D020000 		.4byte	0x23d
 456 018e 14       		.byte	0x14
ARM GAS  /tmp/ccDyn4AJ.s 			page 9


 457 018f 06       		.uleb128 0x6
 458 0190 24030000 		.4byte	.LASF33
 459 0194 07       		.byte	0x7
 460 0195 A7       		.byte	0xa7
 461 0196 53070000 		.4byte	0x753
 462 019a 18       		.byte	0x18
 463 019b 06       		.uleb128 0x6
 464 019c 46050000 		.4byte	.LASF34
 465 01a0 07       		.byte	0x7
 466 01a1 B0       		.byte	0xb0
 467 01a2 65070000 		.4byte	0x765
 468 01a6 1C       		.byte	0x1c
 469 01a7 06       		.uleb128 0x6
 470 01a8 6C010000 		.4byte	.LASF35
 471 01ac 07       		.byte	0x7
 472 01ad B5       		.byte	0xb5
 473 01ae E4000000 		.4byte	0xe4
 474 01b2 20       		.byte	0x20
 475 01b3 06       		.uleb128 0x6
 476 01b4 00060000 		.4byte	.LASF36
 477 01b8 07       		.byte	0x7
 478 01b9 B9       		.byte	0xb9
 479 01ba D9000000 		.4byte	0xd9
 480 01be 21       		.byte	0x21
 481 01bf 06       		.uleb128 0x6
 482 01c0 70040000 		.4byte	.LASF37
 483 01c4 07       		.byte	0x7
 484 01c5 BE       		.byte	0xbe
 485 01c6 EF000000 		.4byte	0xef
 486 01ca 22       		.byte	0x22
 487 01cb 08       		.uleb128 0x8
 488 01cc 7500     		.ascii	"u\000"
 489 01ce 07       		.byte	0x7
 490 01cf 0F01     		.2byte	0x10f
 491 01d1 88060000 		.4byte	0x688
 492 01d5 24       		.byte	0x24
 493 01d6 09       		.uleb128 0x9
 494 01d7 C8010000 		.4byte	.LASF38
 495 01db 07       		.byte	0x7
 496 01dc 1401     		.2byte	0x114
 497 01de 43020000 		.4byte	0x243
 498 01e2 28       		.byte	0x28
 499 01e3 09       		.uleb128 0x9
 500 01e4 E4010000 		.4byte	.LASF39
 501 01e8 07       		.byte	0x7
 502 01e9 1A01     		.2byte	0x11a
 503 01eb 67020000 		.4byte	0x267
 504 01ef 2C       		.byte	0x2c
 505 01f0 09       		.uleb128 0x9
 506 01f1 45030000 		.4byte	.LASF40
 507 01f5 07       		.byte	0x7
 508 01f6 2001     		.2byte	0x120
 509 01f8 10010000 		.4byte	0x110
 510 01fc 34       		.byte	0x34
 511 01fd 09       		.uleb128 0x9
 512 01fe 9B060000 		.4byte	.LASF41
 513 0202 07       		.byte	0x7
ARM GAS  /tmp/ccDyn4AJ.s 			page 10


 514 0203 2701     		.2byte	0x127
 515 0205 4D070000 		.4byte	0x74d
 516 0209 38       		.byte	0x38
 517 020a 09       		.uleb128 0x9
 518 020b B0030000 		.4byte	.LASF42
 519 020f 07       		.byte	0x7
 520 0210 2B01     		.2byte	0x12b
 521 0212 FA000000 		.4byte	0xfa
 522 0216 3C       		.byte	0x3c
 523 0217 09       		.uleb128 0x9
 524 0218 FC020000 		.4byte	.LASF43
 525 021c 07       		.byte	0x7
 526 021d 3201     		.2byte	0x132
 527 021f 1A030000 		.4byte	0x31a
 528 0223 40       		.byte	0x40
 529 0224 09       		.uleb128 0x9
 530 0225 9E010000 		.4byte	.LASF44
 531 0229 07       		.byte	0x7
 532 022a 3801     		.2byte	0x138
 533 022c 39060000 		.4byte	0x639
 534 0230 48       		.byte	0x48
 535 0231 00       		.byte	0
 536 0232 04       		.uleb128 0x4
 537 0233 DF030000 		.4byte	.LASF45
 538 0237 06       		.byte	0x6
 539 0238 44       		.byte	0x44
 540 0239 3D020000 		.4byte	0x23d
 541 023d 0A       		.uleb128 0xa
 542 023e 04       		.byte	0x4
 543 023f 3C010000 		.4byte	0x13c
 544 0243 04       		.uleb128 0x4
 545 0244 39060000 		.4byte	.LASF46
 546 0248 06       		.byte	0x6
 547 0249 49       		.byte	0x49
 548 024a 4E020000 		.4byte	0x24e
 549 024e 05       		.uleb128 0x5
 550 024f 1E050000 		.4byte	.LASF48
 551 0253 04       		.byte	0x4
 552 0254 07       		.byte	0x7
 553 0255 88       		.byte	0x88
 554 0256 67020000 		.4byte	0x267
 555 025a 06       		.uleb128 0x6
 556 025b EC000000 		.4byte	.LASF49
 557 025f 07       		.byte	0x7
 558 0260 89       		.byte	0x89
 559 0261 3D020000 		.4byte	0x23d
 560 0265 00       		.byte	0
 561 0266 00       		.byte	0
 562 0267 04       		.uleb128 0x4
 563 0268 D9050000 		.4byte	.LASF50
 564 026c 06       		.byte	0x6
 565 026d 50       		.byte	0x50
 566 026e 72020000 		.4byte	0x272
 567 0272 05       		.uleb128 0x5
 568 0273 51000000 		.4byte	.LASF51
 569 0277 08       		.byte	0x8
 570 0278 07       		.byte	0x7
ARM GAS  /tmp/ccDyn4AJ.s 			page 11


 571 0279 8F       		.byte	0x8f
 572 027a 97020000 		.4byte	0x297
 573 027e 06       		.uleb128 0x6
 574 027f EC000000 		.4byte	.LASF49
 575 0283 07       		.byte	0x7
 576 0284 90       		.byte	0x90
 577 0285 3D020000 		.4byte	0x23d
 578 0289 00       		.byte	0
 579 028a 06       		.uleb128 0x6
 580 028b 40000000 		.4byte	.LASF52
 581 028f 07       		.byte	0x7
 582 0290 91       		.byte	0x91
 583 0291 3D020000 		.4byte	0x23d
 584 0295 04       		.byte	0x4
 585 0296 00       		.byte	0
 586 0297 04       		.uleb128 0x4
 587 0298 00000000 		.4byte	.LASF53
 588 029c 06       		.byte	0x6
 589 029d 57       		.byte	0x57
 590 029e A2020000 		.4byte	0x2a2
 591 02a2 0B       		.uleb128 0xb
 592 02a3 6D030000 		.4byte	.LASF54
 593 02a7 1C       		.byte	0x1c
 594 02a8 07       		.byte	0x7
 595 02a9 6A01     		.2byte	0x16a
 596 02ab FE020000 		.4byte	0x2fe
 597 02af 09       		.uleb128 0x9
 598 02b0 F6020000 		.4byte	.LASF29
 599 02b4 07       		.byte	0x7
 600 02b5 6B01     		.2byte	0x16b
 601 02b7 67020000 		.4byte	0x267
 602 02bb 00       		.byte	0
 603 02bc 09       		.uleb128 0x9
 604 02bd 27040000 		.4byte	.LASF30
 605 02c1 07       		.byte	0x7
 606 02c2 6C01     		.2byte	0x16c
 607 02c4 FA000000 		.4byte	0xfa
 608 02c8 08       		.byte	0x8
 609 02c9 08       		.uleb128 0x8
 610 02ca 63747800 		.ascii	"ctx\000"
 611 02ce 07       		.byte	0x7
 612 02cf 6E01     		.2byte	0x16e
 613 02d1 6C040000 		.4byte	0x46c
 614 02d5 0C       		.byte	0xc
 615 02d6 09       		.uleb128 0x9
 616 02d7 AA030000 		.4byte	.LASF31
 617 02db 07       		.byte	0x7
 618 02dc 7101     		.2byte	0x171
 619 02de 3D020000 		.4byte	0x23d
 620 02e2 10       		.byte	0x10
 621 02e3 09       		.uleb128 0x9
 622 02e4 52050000 		.4byte	.LASF32
 623 02e8 07       		.byte	0x7
 624 02e9 7201     		.2byte	0x172
 625 02eb 3D020000 		.4byte	0x23d
 626 02ef 14       		.byte	0x14
 627 02f0 09       		.uleb128 0x9
ARM GAS  /tmp/ccDyn4AJ.s 			page 12


 628 02f1 4A040000 		.4byte	.LASF55
 629 02f5 07       		.byte	0x7
 630 02f6 7501     		.2byte	0x175
 631 02f8 3D020000 		.4byte	0x23d
 632 02fc 18       		.byte	0x18
 633 02fd 00       		.byte	0
 634 02fe 04       		.uleb128 0x4
 635 02ff 96050000 		.4byte	.LASF56
 636 0303 06       		.byte	0x6
 637 0304 5C       		.byte	0x5c
 638 0305 09030000 		.4byte	0x309
 639 0309 0A       		.uleb128 0xa
 640 030a 04       		.byte	0x4
 641 030b 0F030000 		.4byte	0x30f
 642 030f 0C       		.uleb128 0xc
 643 0310 1A030000 		.4byte	0x31a
 644 0314 0D       		.uleb128 0xd
 645 0315 1A030000 		.4byte	0x31a
 646 0319 00       		.byte	0
 647 031a 0E       		.uleb128 0xe
 648 031b 04       		.byte	0x4
 649 031c 04       		.uleb128 0x4
 650 031d 75040000 		.4byte	.LASF57
 651 0321 06       		.byte	0x6
 652 0322 61       		.byte	0x61
 653 0323 27030000 		.4byte	0x327
 654 0327 0B       		.uleb128 0xb
 655 0328 E3040000 		.4byte	.LASF58
 656 032c 14       		.byte	0x14
 657 032d 07       		.byte	0x7
 658 032e 4501     		.2byte	0x145
 659 0330 76030000 		.4byte	0x376
 660 0334 09       		.uleb128 0x9
 661 0335 EC000000 		.4byte	.LASF49
 662 0339 07       		.byte	0x7
 663 033a 4601     		.2byte	0x146
 664 033c 6B070000 		.4byte	0x76b
 665 0340 00       		.byte	0
 666 0341 09       		.uleb128 0x9
 667 0342 40000000 		.4byte	.LASF52
 668 0346 07       		.byte	0x7
 669 0347 4701     		.2byte	0x147
 670 0349 6B070000 		.4byte	0x76b
 671 034d 04       		.byte	0x4
 672 034e 09       		.uleb128 0x9
 673 034f 13000000 		.4byte	.LASF59
 674 0353 07       		.byte	0x7
 675 0354 4801     		.2byte	0x148
 676 0356 31010000 		.4byte	0x131
 677 035a 08       		.byte	0x8
 678 035b 09       		.uleb128 0x9
 679 035c 99010000 		.4byte	.LASF60
 680 0360 07       		.byte	0x7
 681 0361 4901     		.2byte	0x149
 682 0363 FE020000 		.4byte	0x2fe
 683 0367 0C       		.byte	0xc
 684 0368 08       		.uleb128 0x8
ARM GAS  /tmp/ccDyn4AJ.s 			page 13


 685 0369 70617200 		.ascii	"par\000"
 686 036d 07       		.byte	0x7
 687 036e 4B01     		.2byte	0x14b
 688 0370 1A030000 		.4byte	0x31a
 689 0374 10       		.byte	0x10
 690 0375 00       		.byte	0
 691 0376 04       		.uleb128 0x4
 692 0377 C7000000 		.4byte	.LASF61
 693 037b 06       		.byte	0x6
 694 037c 66       		.byte	0x66
 695 037d 81030000 		.4byte	0x381
 696 0381 0B       		.uleb128 0xb
 697 0382 F2030000 		.4byte	.LASF62
 698 0386 10       		.byte	0x10
 699 0387 07       		.byte	0x7
 700 0388 5501     		.2byte	0x155
 701 038a C3030000 		.4byte	0x3c3
 702 038e 09       		.uleb128 0x9
 703 038f EC000000 		.4byte	.LASF49
 704 0393 07       		.byte	0x7
 705 0394 5601     		.2byte	0x156
 706 0396 6B070000 		.4byte	0x76b
 707 039a 00       		.byte	0
 708 039b 09       		.uleb128 0x9
 709 039c 40000000 		.4byte	.LASF52
 710 03a0 07       		.byte	0x7
 711 03a1 5801     		.2byte	0x158
 712 03a3 6B070000 		.4byte	0x76b
 713 03a7 04       		.byte	0x4
 714 03a8 09       		.uleb128 0x9
 715 03a9 13000000 		.4byte	.LASF59
 716 03ad 07       		.byte	0x7
 717 03ae 5A01     		.2byte	0x15a
 718 03b0 31010000 		.4byte	0x131
 719 03b4 08       		.byte	0x8
 720 03b5 09       		.uleb128 0x9
 721 03b6 C9040000 		.4byte	.LASF63
 722 03ba 07       		.byte	0x7
 723 03bb 6201     		.2byte	0x162
 724 03bd 31010000 		.4byte	0x131
 725 03c1 0C       		.byte	0xc
 726 03c2 00       		.byte	0
 727 03c3 04       		.uleb128 0x4
 728 03c4 62000000 		.4byte	.LASF64
 729 03c8 06       		.byte	0x6
 730 03c9 6B       		.byte	0x6b
 731 03ca CE030000 		.4byte	0x3ce
 732 03ce 0B       		.uleb128 0xb
 733 03cf B8010000 		.4byte	.LASF65
 734 03d3 04       		.byte	0x4
 735 03d4 07       		.byte	0x7
 736 03d5 7C01     		.2byte	0x17c
 737 03d7 E9030000 		.4byte	0x3e9
 738 03db 09       		.uleb128 0x9
 739 03dc AD050000 		.4byte	.LASF66
 740 03e0 07       		.byte	0x7
 741 03e1 8401     		.2byte	0x184
ARM GAS  /tmp/ccDyn4AJ.s 			page 14


 742 03e3 71070000 		.4byte	0x771
 743 03e7 00       		.byte	0
 744 03e8 00       		.byte	0
 745 03e9 04       		.uleb128 0x4
 746 03ea 4E030000 		.4byte	.LASF67
 747 03ee 06       		.byte	0x6
 748 03ef 70       		.byte	0x70
 749 03f0 F4030000 		.4byte	0x3f4
 750 03f4 0B       		.uleb128 0xb
 751 03f5 D9040000 		.4byte	.LASF68
 752 03f9 D0       		.byte	0xd0
 753 03fa 07       		.byte	0x7
 754 03fb 9C01     		.2byte	0x19c
 755 03fd 4F040000 		.4byte	0x44f
 756 0401 09       		.uleb128 0x9
 757 0402 F2050000 		.4byte	.LASF69
 758 0406 07       		.byte	0x7
 759 0407 A001     		.2byte	0x1a0
 760 0409 97020000 		.4byte	0x297
 761 040d 00       		.byte	0
 762 040e 09       		.uleb128 0x9
 763 040f 14010000 		.4byte	.LASF70
 764 0413 07       		.byte	0x7
 765 0414 A401     		.2byte	0x1a4
 766 0416 76030000 		.4byte	0x376
 767 041a 1C       		.byte	0x1c
 768 041b 08       		.uleb128 0x8
 769 041c 64626700 		.ascii	"dbg\000"
 770 0420 07       		.byte	0x7
 771 0421 A801     		.2byte	0x1a8
 772 0423 C3030000 		.4byte	0x3c3
 773 0427 2C       		.byte	0x2c
 774 0428 09       		.uleb128 0x9
 775 0429 B4000000 		.4byte	.LASF71
 776 042d 07       		.byte	0x7
 777 042e AC01     		.2byte	0x1ac
 778 0430 3C010000 		.4byte	0x13c
 779 0434 30       		.byte	0x30
 780 0435 08       		.uleb128 0x8
 781 0436 746D00   		.ascii	"tm\000"
 782 0439 07       		.byte	0x7
 783 043a B101     		.2byte	0x1b1
 784 043c EB050000 		.4byte	0x5eb
 785 0440 90       		.byte	0x90
 786 0441 09       		.uleb128 0x9
 787 0442 29000000 		.4byte	.LASF72
 788 0446 07       		.byte	0x7
 789 0447 B701     		.2byte	0x1b7
 790 0449 7D060000 		.4byte	0x67d
 791 044d 98       		.byte	0x98
 792 044e 00       		.byte	0
 793 044f 03       		.uleb128 0x3
 794 0450 04       		.byte	0x4
 795 0451 07       		.byte	0x7
 796 0452 D6030000 		.4byte	.LASF73
 797 0456 04       		.uleb128 0x4
 798 0457 AF010000 		.4byte	.LASF74
ARM GAS  /tmp/ccDyn4AJ.s 			page 15


 799 045b 08       		.byte	0x8
 800 045c 65       		.byte	0x65
 801 045d 1A030000 		.4byte	0x31a
 802 0461 04       		.uleb128 0x4
 803 0462 9F030000 		.4byte	.LASF75
 804 0466 08       		.byte	0x8
 805 0467 6D       		.byte	0x6d
 806 0468 B8000000 		.4byte	0xb8
 807 046c 05       		.uleb128 0x5
 808 046d 09040000 		.4byte	.LASF76
 809 0471 04       		.byte	0x4
 810 0472 08       		.byte	0x8
 811 0473 89       		.byte	0x89
 812 0474 84040000 		.4byte	0x484
 813 0478 07       		.uleb128 0x7
 814 0479 737000   		.ascii	"sp\000"
 815 047c 08       		.byte	0x8
 816 047d 8A       		.byte	0x8a
 817 047e D0050000 		.4byte	0x5d0
 818 0482 00       		.byte	0
 819 0483 00       		.byte	0
 820 0484 0B       		.uleb128 0xb
 821 0485 45000000 		.4byte	.LASF77
 822 0489 64       		.byte	0x64
 823 048a 09       		.byte	0x9
 824 048b 5901     		.2byte	0x159
 825 048d D0050000 		.4byte	0x5d0
 826 0491 08       		.uleb128 0x8
 827 0492 73313600 		.ascii	"s16\000"
 828 0496 09       		.byte	0x9
 829 0497 5B01     		.2byte	0x15b
 830 0499 56040000 		.4byte	0x456
 831 049d 00       		.byte	0
 832 049e 08       		.uleb128 0x8
 833 049f 73313700 		.ascii	"s17\000"
 834 04a3 09       		.byte	0x9
 835 04a4 5C01     		.2byte	0x15c
 836 04a6 56040000 		.4byte	0x456
 837 04aa 04       		.byte	0x4
 838 04ab 08       		.uleb128 0x8
 839 04ac 73313800 		.ascii	"s18\000"
 840 04b0 09       		.byte	0x9
 841 04b1 5D01     		.2byte	0x15d
 842 04b3 56040000 		.4byte	0x456
 843 04b7 08       		.byte	0x8
 844 04b8 08       		.uleb128 0x8
 845 04b9 73313900 		.ascii	"s19\000"
 846 04bd 09       		.byte	0x9
 847 04be 5E01     		.2byte	0x15e
 848 04c0 56040000 		.4byte	0x456
 849 04c4 0C       		.byte	0xc
 850 04c5 08       		.uleb128 0x8
 851 04c6 73323000 		.ascii	"s20\000"
 852 04ca 09       		.byte	0x9
 853 04cb 5F01     		.2byte	0x15f
 854 04cd 56040000 		.4byte	0x456
 855 04d1 10       		.byte	0x10
ARM GAS  /tmp/ccDyn4AJ.s 			page 16


 856 04d2 08       		.uleb128 0x8
 857 04d3 73323100 		.ascii	"s21\000"
 858 04d7 09       		.byte	0x9
 859 04d8 6001     		.2byte	0x160
 860 04da 56040000 		.4byte	0x456
 861 04de 14       		.byte	0x14
 862 04df 08       		.uleb128 0x8
 863 04e0 73323200 		.ascii	"s22\000"
 864 04e4 09       		.byte	0x9
 865 04e5 6101     		.2byte	0x161
 866 04e7 56040000 		.4byte	0x456
 867 04eb 18       		.byte	0x18
 868 04ec 08       		.uleb128 0x8
 869 04ed 73323300 		.ascii	"s23\000"
 870 04f1 09       		.byte	0x9
 871 04f2 6201     		.2byte	0x162
 872 04f4 56040000 		.4byte	0x456
 873 04f8 1C       		.byte	0x1c
 874 04f9 08       		.uleb128 0x8
 875 04fa 73323400 		.ascii	"s24\000"
 876 04fe 09       		.byte	0x9
 877 04ff 6301     		.2byte	0x163
 878 0501 56040000 		.4byte	0x456
 879 0505 20       		.byte	0x20
 880 0506 08       		.uleb128 0x8
 881 0507 73323500 		.ascii	"s25\000"
 882 050b 09       		.byte	0x9
 883 050c 6401     		.2byte	0x164
 884 050e 56040000 		.4byte	0x456
 885 0512 24       		.byte	0x24
 886 0513 08       		.uleb128 0x8
 887 0514 73323600 		.ascii	"s26\000"
 888 0518 09       		.byte	0x9
 889 0519 6501     		.2byte	0x165
 890 051b 56040000 		.4byte	0x456
 891 051f 28       		.byte	0x28
 892 0520 08       		.uleb128 0x8
 893 0521 73323700 		.ascii	"s27\000"
 894 0525 09       		.byte	0x9
 895 0526 6601     		.2byte	0x166
 896 0528 56040000 		.4byte	0x456
 897 052c 2C       		.byte	0x2c
 898 052d 08       		.uleb128 0x8
 899 052e 73323800 		.ascii	"s28\000"
 900 0532 09       		.byte	0x9
 901 0533 6701     		.2byte	0x167
 902 0535 56040000 		.4byte	0x456
 903 0539 30       		.byte	0x30
 904 053a 08       		.uleb128 0x8
 905 053b 73323900 		.ascii	"s29\000"
 906 053f 09       		.byte	0x9
 907 0540 6801     		.2byte	0x168
 908 0542 56040000 		.4byte	0x456
 909 0546 34       		.byte	0x34
 910 0547 08       		.uleb128 0x8
 911 0548 73333000 		.ascii	"s30\000"
 912 054c 09       		.byte	0x9
ARM GAS  /tmp/ccDyn4AJ.s 			page 17


 913 054d 6901     		.2byte	0x169
 914 054f 56040000 		.4byte	0x456
 915 0553 38       		.byte	0x38
 916 0554 08       		.uleb128 0x8
 917 0555 73333100 		.ascii	"s31\000"
 918 0559 09       		.byte	0x9
 919 055a 6A01     		.2byte	0x16a
 920 055c 56040000 		.4byte	0x456
 921 0560 3C       		.byte	0x3c
 922 0561 08       		.uleb128 0x8
 923 0562 723400   		.ascii	"r4\000"
 924 0565 09       		.byte	0x9
 925 0566 6C01     		.2byte	0x16c
 926 0568 56040000 		.4byte	0x456
 927 056c 40       		.byte	0x40
 928 056d 08       		.uleb128 0x8
 929 056e 723500   		.ascii	"r5\000"
 930 0571 09       		.byte	0x9
 931 0572 6D01     		.2byte	0x16d
 932 0574 56040000 		.4byte	0x456
 933 0578 44       		.byte	0x44
 934 0579 08       		.uleb128 0x8
 935 057a 723600   		.ascii	"r6\000"
 936 057d 09       		.byte	0x9
 937 057e 6E01     		.2byte	0x16e
 938 0580 56040000 		.4byte	0x456
 939 0584 48       		.byte	0x48
 940 0585 08       		.uleb128 0x8
 941 0586 723700   		.ascii	"r7\000"
 942 0589 09       		.byte	0x9
 943 058a 6F01     		.2byte	0x16f
 944 058c 56040000 		.4byte	0x456
 945 0590 4C       		.byte	0x4c
 946 0591 08       		.uleb128 0x8
 947 0592 723800   		.ascii	"r8\000"
 948 0595 09       		.byte	0x9
 949 0596 7001     		.2byte	0x170
 950 0598 56040000 		.4byte	0x456
 951 059c 50       		.byte	0x50
 952 059d 08       		.uleb128 0x8
 953 059e 723900   		.ascii	"r9\000"
 954 05a1 09       		.byte	0x9
 955 05a2 7101     		.2byte	0x171
 956 05a4 56040000 		.4byte	0x456
 957 05a8 54       		.byte	0x54
 958 05a9 08       		.uleb128 0x8
 959 05aa 72313000 		.ascii	"r10\000"
 960 05ae 09       		.byte	0x9
 961 05af 7201     		.2byte	0x172
 962 05b1 56040000 		.4byte	0x456
 963 05b5 58       		.byte	0x58
 964 05b6 08       		.uleb128 0x8
 965 05b7 72313100 		.ascii	"r11\000"
 966 05bb 09       		.byte	0x9
 967 05bc 7301     		.2byte	0x173
 968 05be 56040000 		.4byte	0x456
 969 05c2 5C       		.byte	0x5c
ARM GAS  /tmp/ccDyn4AJ.s 			page 18


 970 05c3 08       		.uleb128 0x8
 971 05c4 6C7200   		.ascii	"lr\000"
 972 05c7 09       		.byte	0x9
 973 05c8 7401     		.2byte	0x174
 974 05ca 56040000 		.4byte	0x456
 975 05ce 60       		.byte	0x60
 976 05cf 00       		.byte	0
 977 05d0 0A       		.uleb128 0xa
 978 05d1 04       		.byte	0x4
 979 05d2 84040000 		.4byte	0x484
 980 05d6 0F       		.uleb128 0xf
 981 05d7 04       		.byte	0x4
 982 05d8 0A       		.byte	0xa
 983 05d9 38       		.byte	0x38
 984 05da EB050000 		.4byte	0x5eb
 985 05de 06       		.uleb128 0x6
 986 05df B7050000 		.4byte	.LASF78
 987 05e3 0A       		.byte	0xa
 988 05e4 3C       		.byte	0x3c
 989 05e5 C3000000 		.4byte	0xc3
 990 05e9 00       		.byte	0
 991 05ea 00       		.byte	0
 992 05eb 04       		.uleb128 0x4
 993 05ec 16040000 		.4byte	.LASF79
 994 05f0 0A       		.byte	0xa
 995 05f1 3D       		.byte	0x3d
 996 05f2 D6050000 		.4byte	0x5d6
 997 05f6 0F       		.uleb128 0xf
 998 05f7 18       		.byte	0x18
 999 05f8 0A       		.byte	0xa
 1000 05f9 48       		.byte	0x48
 1001 05fa 39060000 		.4byte	0x639
 1002 05fe 06       		.uleb128 0x6
 1003 05ff 87050000 		.4byte	.LASF80
 1004 0603 0A       		.byte	0xa
 1005 0604 49       		.byte	0x49
 1006 0605 C3000000 		.4byte	0xc3
 1007 0609 00       		.byte	0
 1008 060a 06       		.uleb128 0x6
 1009 060b 7B000000 		.4byte	.LASF81
 1010 060f 0A       		.byte	0xa
 1011 0610 4A       		.byte	0x4a
 1012 0611 C3000000 		.4byte	0xc3
 1013 0615 04       		.byte	0x4
 1014 0616 06       		.uleb128 0x6
 1015 0617 39030000 		.4byte	.LASF82
 1016 061b 0A       		.byte	0xa
 1017 061c 4B       		.byte	0x4b
 1018 061d C3000000 		.4byte	0xc3
 1019 0621 08       		.byte	0x8
 1020 0622 07       		.uleb128 0x7
 1021 0623 6E00     		.ascii	"n\000"
 1022 0625 0A       		.byte	0xa
 1023 0626 4C       		.byte	0x4c
 1024 0627 26010000 		.4byte	0x126
 1025 062b 0C       		.byte	0xc
 1026 062c 06       		.uleb128 0x6
ARM GAS  /tmp/ccDyn4AJ.s 			page 19


 1027 062d 5D040000 		.4byte	.LASF83
 1028 0631 0A       		.byte	0xa
 1029 0632 4D       		.byte	0x4d
 1030 0633 CE000000 		.4byte	0xce
 1031 0637 10       		.byte	0x10
 1032 0638 00       		.byte	0
 1033 0639 04       		.uleb128 0x4
 1034 063a 81000000 		.4byte	.LASF84
 1035 063e 0A       		.byte	0xa
 1036 063f 4E       		.byte	0x4e
 1037 0640 F6050000 		.4byte	0x5f6
 1038 0644 0F       		.uleb128 0xf
 1039 0645 38       		.byte	0x38
 1040 0646 0B       		.byte	0xb
 1041 0647 38       		.byte	0x38
 1042 0648 7D060000 		.4byte	0x67d
 1043 064c 06       		.uleb128 0x6
 1044 064d F0020000 		.4byte	.LASF85
 1045 0651 0B       		.byte	0xb
 1046 0652 39       		.byte	0x39
 1047 0653 26010000 		.4byte	0x126
 1048 0657 00       		.byte	0
 1049 0658 06       		.uleb128 0x6
 1050 0659 8D040000 		.4byte	.LASF86
 1051 065d 0B       		.byte	0xb
 1052 065e 3A       		.byte	0x3a
 1053 065f 26010000 		.4byte	0x126
 1054 0663 04       		.byte	0x4
 1055 0664 06       		.uleb128 0x6
 1056 0665 A3060000 		.4byte	.LASF87
 1057 0669 0B       		.byte	0xb
 1058 066a 3B       		.byte	0x3b
 1059 066b 39060000 		.4byte	0x639
 1060 066f 08       		.byte	0x8
 1061 0670 06       		.uleb128 0x6
 1062 0671 62030000 		.4byte	.LASF88
 1063 0675 0B       		.byte	0xb
 1064 0676 3D       		.byte	0x3d
 1065 0677 39060000 		.4byte	0x639
 1066 067b 20       		.byte	0x20
 1067 067c 00       		.byte	0
 1068 067d 04       		.uleb128 0x4
 1069 067e 15030000 		.4byte	.LASF89
 1070 0682 0B       		.byte	0xb
 1071 0683 3F       		.byte	0x3f
 1072 0684 44060000 		.4byte	0x644
 1073 0688 10       		.uleb128 0x10
 1074 0689 04       		.byte	0x4
 1075 068a 07       		.byte	0x7
 1076 068b D2       		.byte	0xd2
 1077 068c EB060000 		.4byte	0x6eb
 1078 0690 11       		.uleb128 0x11
 1079 0691 19000000 		.4byte	.LASF90
 1080 0695 07       		.byte	0x7
 1081 0696 D9       		.byte	0xd9
 1082 0697 05010000 		.4byte	0x105
 1083 069b 11       		.uleb128 0x11
ARM GAS  /tmp/ccDyn4AJ.s 			page 20


 1084 069c AB000000 		.4byte	.LASF91
 1085 06a0 07       		.byte	0x7
 1086 06a1 E0       		.byte	0xe0
 1087 06a2 05010000 		.4byte	0x105
 1088 06a6 11       		.uleb128 0x11
 1089 06a7 32060000 		.4byte	.LASF92
 1090 06ab 07       		.byte	0x7
 1091 06ac E7       		.byte	0xe7
 1092 06ad 1A030000 		.4byte	0x31a
 1093 06b1 11       		.uleb128 0x11
 1094 06b2 0D000000 		.4byte	.LASF93
 1095 06b6 07       		.byte	0x7
 1096 06b7 EE       		.byte	0xee
 1097 06b8 EB060000 		.4byte	0x6eb
 1098 06bc 11       		.uleb128 0x11
 1099 06bd BF000000 		.4byte	.LASF94
 1100 06c1 07       		.byte	0x7
 1101 06c2 F3       		.byte	0xf3
 1102 06c3 05010000 		.4byte	0x105
 1103 06c7 11       		.uleb128 0x11
 1104 06c8 E9020000 		.4byte	.LASF95
 1105 06cc 07       		.byte	0x7
 1106 06cd FC       		.byte	0xfc
 1107 06ce 16070000 		.4byte	0x716
 1108 06d2 12       		.uleb128 0x12
 1109 06d3 62050000 		.4byte	.LASF96
 1110 06d7 07       		.byte	0x7
 1111 06d8 0501     		.2byte	0x105
 1112 06da 4D070000 		.4byte	0x74d
 1113 06de 12       		.uleb128 0x12
 1114 06df D2040000 		.4byte	.LASF97
 1115 06e3 07       		.byte	0x7
 1116 06e4 0D01     		.2byte	0x10d
 1117 06e6 10010000 		.4byte	0x110
 1118 06ea 00       		.byte	0
 1119 06eb 0A       		.uleb128 0xa
 1120 06ec 04       		.byte	0x4
 1121 06ed 32020000 		.4byte	0x232
 1122 06f1 05       		.uleb128 0x5
 1123 06f2 F4040000 		.4byte	.LASF98
 1124 06f6 0C       		.byte	0xc
 1125 06f7 0C       		.byte	0xc
 1126 06f8 34       		.byte	0x34
 1127 06f9 16070000 		.4byte	0x716
 1128 06fd 06       		.uleb128 0x6
 1129 06fe F6020000 		.4byte	.LASF29
 1130 0702 0C       		.byte	0xc
 1131 0703 35       		.byte	0x35
 1132 0704 67020000 		.4byte	0x267
 1133 0708 00       		.byte	0
 1134 0709 07       		.uleb128 0x7
 1135 070a 636E7400 		.ascii	"cnt\000"
 1136 070e 0C       		.byte	0xc
 1137 070f 37       		.byte	0x37
 1138 0710 1B010000 		.4byte	0x11b
 1139 0714 08       		.byte	0x8
 1140 0715 00       		.byte	0
ARM GAS  /tmp/ccDyn4AJ.s 			page 21


 1141 0716 0A       		.uleb128 0xa
 1142 0717 04       		.byte	0x4
 1143 0718 F1060000 		.4byte	0x6f1
 1144 071c 05       		.uleb128 0x5
 1145 071d E9050000 		.4byte	.LASF99
 1146 0721 10       		.byte	0x10
 1147 0722 0D       		.byte	0xd
 1148 0723 39       		.byte	0x39
 1149 0724 4D070000 		.4byte	0x74d
 1150 0728 06       		.uleb128 0x6
 1151 0729 F6020000 		.4byte	.LASF29
 1152 072d 0D       		.byte	0xd
 1153 072e 3A       		.byte	0x3a
 1154 072f 67020000 		.4byte	0x267
 1155 0733 00       		.byte	0
 1156 0734 06       		.uleb128 0x6
 1157 0735 2E050000 		.4byte	.LASF100
 1158 0739 0D       		.byte	0xd
 1159 073a 3C       		.byte	0x3c
 1160 073b 3D020000 		.4byte	0x23d
 1161 073f 08       		.byte	0x8
 1162 0740 06       		.uleb128 0x6
 1163 0741 EC000000 		.4byte	.LASF49
 1164 0745 0D       		.byte	0xd
 1165 0746 3E       		.byte	0x3e
 1166 0747 81070000 		.4byte	0x781
 1167 074b 0C       		.byte	0xc
 1168 074c 00       		.byte	0
 1169 074d 0A       		.uleb128 0xa
 1170 074e 04       		.byte	0x4
 1171 074f 1C070000 		.4byte	0x71c
 1172 0753 0A       		.uleb128 0xa
 1173 0754 04       		.byte	0x4
 1174 0755 59070000 		.4byte	0x759
 1175 0759 13       		.uleb128 0x13
 1176 075a 5E070000 		.4byte	0x75e
 1177 075e 03       		.uleb128 0x3
 1178 075f 01       		.byte	0x1
 1179 0760 08       		.byte	0x8
 1180 0761 4D050000 		.4byte	.LASF101
 1181 0765 0A       		.uleb128 0xa
 1182 0766 04       		.byte	0x4
 1183 0767 61040000 		.4byte	0x461
 1184 076b 0A       		.uleb128 0xa
 1185 076c 04       		.byte	0x4
 1186 076d 1C030000 		.4byte	0x31c
 1187 0771 14       		.uleb128 0x14
 1188 0772 53070000 		.4byte	0x753
 1189 0776 04       		.uleb128 0x4
 1190 0777 D0010000 		.4byte	.LASF102
 1191 077b 0D       		.byte	0xd
 1192 077c 34       		.byte	0x34
 1193 077d 1C070000 		.4byte	0x71c
 1194 0781 0A       		.uleb128 0xa
 1195 0782 04       		.byte	0x4
 1196 0783 76070000 		.4byte	0x776
 1197 0787 03       		.uleb128 0x3
ARM GAS  /tmp/ccDyn4AJ.s 			page 22


 1198 0788 01       		.byte	0x1
 1199 0789 02       		.byte	0x2
 1200 078a 96040000 		.4byte	.LASF103
 1201 078e 15       		.uleb128 0x15
 1202 078f 9F050000 		.4byte	.LASF122
 1203 0793 02       		.byte	0x2
 1204 0794 0601     		.2byte	0x106
 1205 0796 03       		.byte	0x3
 1206 0797 A8070000 		.4byte	0x7a8
 1207 079b 16       		.uleb128 0x16
 1208 079c D8010000 		.4byte	.LASF123
 1209 07a0 02       		.byte	0x2
 1210 07a1 0601     		.2byte	0x106
 1211 07a3 AD000000 		.4byte	0xad
 1212 07a7 00       		.byte	0
 1213 07a8 17       		.uleb128 0x17
 1214 07a9 71000000 		.4byte	.LASF104
 1215 07ad 09       		.byte	0x9
 1216 07ae 5202     		.2byte	0x252
 1217 07b0 03       		.byte	0x3
 1218 07b1 17       		.uleb128 0x17
 1219 07b2 4A010000 		.4byte	.LASF105
 1220 07b6 09       		.byte	0x9
 1221 07b7 6A02     		.2byte	0x26a
 1222 07b9 03       		.byte	0x3
 1223 07ba 17       		.uleb128 0x17
 1224 07bb C6050000 		.4byte	.LASF106
 1225 07bf 09       		.byte	0x9
 1226 07c0 7902     		.2byte	0x279
 1227 07c2 03       		.byte	0x3
 1228 07c3 17       		.uleb128 0x17
 1229 07c4 69050000 		.4byte	.LASF107
 1230 07c8 09       		.byte	0x9
 1231 07c9 8402     		.2byte	0x284
 1232 07cb 03       		.byte	0x3
 1233 07cc 18       		.uleb128 0x18
 1234 07cd 48060000 		.4byte	.LASF108
 1235 07d1 01       		.byte	0x1
 1236 07d2 3E       		.byte	0x3e
 1237 07d3 00000000 		.4byte	.LFB246
 1238 07d7 28000000 		.4byte	.LFE246-.LFB246
 1239 07db 01       		.uleb128 0x1
 1240 07dc 9C       		.byte	0x9c
 1241 07dd 00080000 		.4byte	0x800
 1242 07e1 19       		.uleb128 0x19
 1243 07e2 16000000 		.4byte	.LVL0
 1244 07e6 72090000 		.4byte	0x972
 1245 07ea F6070000 		.4byte	0x7f6
 1246 07ee 1A       		.uleb128 0x1a
 1247 07ef 01       		.uleb128 0x1
 1248 07f0 50       		.byte	0x50
 1249 07f1 03       		.uleb128 0x3
 1250 07f2 74       		.byte	0x74
 1251 07f3 A001     		.sleb128 160
 1252 07f5 00       		.byte	0
 1253 07f6 1B       		.uleb128 0x1b
 1254 07f7 22000000 		.4byte	.LVL1
ARM GAS  /tmp/ccDyn4AJ.s 			page 23


 1255 07fb 72090000 		.4byte	0x972
 1256 07ff 00       		.byte	0
 1257 0800 18       		.uleb128 0x18
 1258 0801 0A050000 		.4byte	.LASF109
 1259 0805 01       		.byte	0x1
 1260 0806 49       		.byte	0x49
 1261 0807 00000000 		.4byte	.LFB247
 1262 080b 20000000 		.4byte	.LFE247-.LFB247
 1263 080f 01       		.uleb128 0x1
 1264 0810 9C       		.byte	0x9c
 1265 0811 8A080000 		.4byte	0x88a
 1266 0815 1C       		.uleb128 0x1c
 1267 0816 BA070000 		.4byte	0x7ba
 1268 081a 00000000 		.4byte	.LBB24
 1269 081e 06000000 		.4byte	.LBE24-.LBB24
 1270 0822 01       		.byte	0x1
 1271 0823 4B       		.byte	0x4b
 1272 0824 51080000 		.4byte	0x851
 1273 0828 1D       		.uleb128 0x1d
 1274 0829 A8070000 		.4byte	0x7a8
 1275 082d 00000000 		.4byte	.LBB25
 1276 0831 06000000 		.4byte	.LBE25-.LBB25
 1277 0835 09       		.byte	0x9
 1278 0836 7B02     		.2byte	0x27b
 1279 0838 1D       		.uleb128 0x1d
 1280 0839 8E070000 		.4byte	0x78e
 1281 083d 00000000 		.4byte	.LBB26
 1282 0841 06000000 		.4byte	.LBE26-.LBB26
 1283 0845 09       		.byte	0x9
 1284 0846 5A02     		.2byte	0x25a
 1285 0848 1E       		.uleb128 0x1e
 1286 0849 9B070000 		.4byte	0x79b
 1287 084d 20       		.byte	0x20
 1288 084e 00       		.byte	0
 1289 084f 00       		.byte	0
 1290 0850 00       		.byte	0
 1291 0851 1F       		.uleb128 0x1f
 1292 0852 C3070000 		.4byte	0x7c3
 1293 0856 12000000 		.4byte	.LBB28
 1294 085a 0E000000 		.4byte	.LBE28-.LBB28
 1295 085e 01       		.byte	0x1
 1296 085f 4D       		.byte	0x4d
 1297 0860 1D       		.uleb128 0x1d
 1298 0861 B1070000 		.4byte	0x7b1
 1299 0865 12000000 		.4byte	.LBB29
 1300 0869 0E000000 		.4byte	.LBE29-.LBB29
 1301 086d 09       		.byte	0x9
 1302 086e 8602     		.2byte	0x286
 1303 0870 1D       		.uleb128 0x1d
 1304 0871 8E070000 		.4byte	0x78e
 1305 0875 12000000 		.4byte	.LBB30
 1306 0879 0E000000 		.4byte	.LBE30-.LBB30
 1307 087d 09       		.byte	0x9
 1308 087e 6D02     		.2byte	0x26d
 1309 0880 1E       		.uleb128 0x1e
 1310 0881 9B070000 		.4byte	0x79b
 1311 0885 00       		.byte	0
ARM GAS  /tmp/ccDyn4AJ.s 			page 24


 1312 0886 00       		.byte	0
 1313 0887 00       		.byte	0
 1314 0888 00       		.byte	0
 1315 0889 00       		.byte	0
 1316 088a 18       		.uleb128 0x18
 1317 088b 24060000 		.4byte	.LASF110
 1318 088f 01       		.byte	0x1
 1319 0890 56       		.byte	0x56
 1320 0891 00000000 		.4byte	.LFB248
 1321 0895 20000000 		.4byte	.LFE248-.LFB248
 1322 0899 01       		.uleb128 0x1
 1323 089a 9C       		.byte	0x9c
 1324 089b DA080000 		.4byte	0x8da
 1325 089f 20       		.uleb128 0x20
 1326 08a0 6E747000 		.ascii	"ntp\000"
 1327 08a4 01       		.byte	0x1
 1328 08a5 56       		.byte	0x56
 1329 08a6 3D020000 		.4byte	0x23d
 1330 08aa 00000000 		.4byte	.LLST0
 1331 08ae 20       		.uleb128 0x20
 1332 08af 6F747000 		.ascii	"otp\000"
 1333 08b3 01       		.byte	0x1
 1334 08b4 56       		.byte	0x56
 1335 08b5 3D020000 		.4byte	0x23d
 1336 08b9 2F000000 		.4byte	.LLST1
 1337 08bd 21       		.uleb128 0x21
 1338 08be 1A000000 		.4byte	.LVL7
 1339 08c2 89090000 		.4byte	0x989
 1340 08c6 1A       		.uleb128 0x1a
 1341 08c7 01       		.uleb128 0x1
 1342 08c8 51       		.byte	0x51
 1343 08c9 05       		.uleb128 0x5
 1344 08ca F3       		.byte	0xf3
 1345 08cb 01       		.uleb128 0x1
 1346 08cc 50       		.byte	0x50
 1347 08cd 23       		.byte	0x23
 1348 08ce 48       		.uleb128 0x48
 1349 08cf 1A       		.uleb128 0x1a
 1350 08d0 01       		.uleb128 0x1
 1351 08d1 50       		.byte	0x50
 1352 08d2 05       		.uleb128 0x5
 1353 08d3 F3       		.byte	0xf3
 1354 08d4 01       		.uleb128 0x1
 1355 08d5 51       		.byte	0x51
 1356 08d6 23       		.byte	0x23
 1357 08d7 48       		.uleb128 0x48
 1358 08d8 00       		.byte	0
 1359 08d9 00       		.byte	0
 1360 08da 18       		.uleb128 0x18
 1361 08db 06060000 		.4byte	.LASF111
 1362 08df 01       		.byte	0x1
 1363 08e0 5F       		.byte	0x5f
 1364 08e1 00000000 		.4byte	.LFB249
 1365 08e5 0C000000 		.4byte	.LFE249-.LFB249
 1366 08e9 01       		.uleb128 0x1
 1367 08ea 9C       		.byte	0x9c
 1368 08eb F9080000 		.4byte	0x8f9
ARM GAS  /tmp/ccDyn4AJ.s 			page 25


 1369 08ef 1B       		.uleb128 0x1b
 1370 08f0 06000000 		.4byte	.LVL8
 1371 08f4 9F090000 		.4byte	0x99f
 1372 08f8 00       		.byte	0
 1373 08f9 18       		.uleb128 0x18
 1374 08fa B9030000 		.4byte	.LASF112
 1375 08fe 01       		.byte	0x1
 1376 08ff 67       		.byte	0x67
 1377 0900 00000000 		.4byte	.LFB250
 1378 0904 0C000000 		.4byte	.LFE250-.LFB250
 1379 0908 01       		.uleb128 0x1
 1380 0909 9C       		.byte	0x9c
 1381 090a 18090000 		.4byte	0x918
 1382 090e 1B       		.uleb128 0x1b
 1383 090f 06000000 		.4byte	.LVL9
 1384 0913 B0090000 		.4byte	0x9b0
 1385 0917 00       		.byte	0
 1386 0918 18       		.uleb128 0x18
 1387 0919 2C040000 		.4byte	.LASF113
 1388 091d 01       		.byte	0x1
 1389 091e 6F       		.byte	0x6f
 1390 091f 00000000 		.4byte	.LFB251
 1391 0923 0C000000 		.4byte	.LFE251-.LFB251
 1392 0927 01       		.uleb128 0x1
 1393 0928 9C       		.byte	0x9c
 1394 0929 37090000 		.4byte	0x937
 1395 092d 1B       		.uleb128 0x1b
 1396 092e 06000000 		.4byte	.LVL10
 1397 0932 9F090000 		.4byte	0x99f
 1398 0936 00       		.byte	0
 1399 0937 18       		.uleb128 0x18
 1400 0938 54060000 		.4byte	.LASF114
 1401 093c 01       		.byte	0x1
 1402 093d 77       		.byte	0x77
 1403 093e 00000000 		.4byte	.LFB252
 1404 0942 0C000000 		.4byte	.LFE252-.LFB252
 1405 0946 01       		.uleb128 0x1
 1406 0947 9C       		.byte	0x9c
 1407 0948 56090000 		.4byte	0x956
 1408 094c 1B       		.uleb128 0x1b
 1409 094d 06000000 		.4byte	.LVL11
 1410 0951 B0090000 		.4byte	0x9b0
 1411 0955 00       		.byte	0
 1412 0956 22       		.uleb128 0x22
 1413 0957 B2040000 		.4byte	.LASF115
 1414 095b 0E       		.byte	0xe
 1415 095c 4407     		.2byte	0x744
 1416 095e 62090000 		.4byte	0x962
 1417 0962 14       		.uleb128 0x14
 1418 0963 A2000000 		.4byte	0xa2
 1419 0967 23       		.uleb128 0x23
 1420 0968 636800   		.ascii	"ch\000"
 1421 096b 07       		.byte	0x7
 1422 096c D201     		.2byte	0x1d2
 1423 096e E9030000 		.4byte	0x3e9
 1424 0972 24       		.uleb128 0x24
 1425 0973 DD000000 		.4byte	.LASF116
ARM GAS  /tmp/ccDyn4AJ.s 			page 26


 1426 0977 0A       		.byte	0xa
 1427 0978 5C       		.byte	0x5c
 1428 0979 83090000 		.4byte	0x983
 1429 097d 0D       		.uleb128 0xd
 1430 097e 83090000 		.4byte	0x983
 1431 0982 00       		.byte	0
 1432 0983 0A       		.uleb128 0xa
 1433 0984 04       		.byte	0x4
 1434 0985 39060000 		.4byte	0x639
 1435 0989 24       		.uleb128 0x24
 1436 098a 87030000 		.4byte	.LASF117
 1437 098e 0A       		.byte	0xa
 1438 098f 5F       		.byte	0x5f
 1439 0990 9F090000 		.4byte	0x99f
 1440 0994 0D       		.uleb128 0xd
 1441 0995 83090000 		.4byte	0x983
 1442 0999 0D       		.uleb128 0xd
 1443 099a 83090000 		.4byte	0x983
 1444 099e 00       		.byte	0
 1445 099f 24       		.uleb128 0x24
 1446 09a0 56010000 		.4byte	.LASF118
 1447 09a4 0A       		.byte	0xa
 1448 09a5 5D       		.byte	0x5d
 1449 09a6 B0090000 		.4byte	0x9b0
 1450 09aa 0D       		.uleb128 0xd
 1451 09ab 83090000 		.4byte	0x983
 1452 09af 00       		.byte	0
 1453 09b0 25       		.uleb128 0x25
 1454 09b1 72010000 		.4byte	.LASF124
 1455 09b5 0A       		.byte	0xa
 1456 09b6 5E       		.byte	0x5e
 1457 09b7 0D       		.uleb128 0xd
 1458 09b8 83090000 		.4byte	0x983
 1459 09bc 00       		.byte	0
 1460 09bd 00       		.byte	0
 1461              		.section	.debug_abbrev,"",%progbits
 1462              	.Ldebug_abbrev0:
 1463 0000 01       		.uleb128 0x1
 1464 0001 11       		.uleb128 0x11
 1465 0002 01       		.byte	0x1
 1466 0003 25       		.uleb128 0x25
 1467 0004 0E       		.uleb128 0xe
 1468 0005 13       		.uleb128 0x13
 1469 0006 0B       		.uleb128 0xb
 1470 0007 03       		.uleb128 0x3
 1471 0008 0E       		.uleb128 0xe
 1472 0009 1B       		.uleb128 0x1b
 1473 000a 0E       		.uleb128 0xe
 1474 000b 55       		.uleb128 0x55
 1475 000c 17       		.uleb128 0x17
 1476 000d 11       		.uleb128 0x11
 1477 000e 01       		.uleb128 0x1
 1478 000f 10       		.uleb128 0x10
 1479 0010 17       		.uleb128 0x17
 1480 0011 00       		.byte	0
 1481 0012 00       		.byte	0
 1482 0013 02       		.uleb128 0x2
ARM GAS  /tmp/ccDyn4AJ.s 			page 27


 1483 0014 24       		.uleb128 0x24
 1484 0015 00       		.byte	0
 1485 0016 0B       		.uleb128 0xb
 1486 0017 0B       		.uleb128 0xb
 1487 0018 3E       		.uleb128 0x3e
 1488 0019 0B       		.uleb128 0xb
 1489 001a 03       		.uleb128 0x3
 1490 001b 08       		.uleb128 0x8
 1491 001c 00       		.byte	0
 1492 001d 00       		.byte	0
 1493 001e 03       		.uleb128 0x3
 1494 001f 24       		.uleb128 0x24
 1495 0020 00       		.byte	0
 1496 0021 0B       		.uleb128 0xb
 1497 0022 0B       		.uleb128 0xb
 1498 0023 3E       		.uleb128 0x3e
 1499 0024 0B       		.uleb128 0xb
 1500 0025 03       		.uleb128 0x3
 1501 0026 0E       		.uleb128 0xe
 1502 0027 00       		.byte	0
 1503 0028 00       		.byte	0
 1504 0029 04       		.uleb128 0x4
 1505 002a 16       		.uleb128 0x16
 1506 002b 00       		.byte	0
 1507 002c 03       		.uleb128 0x3
 1508 002d 0E       		.uleb128 0xe
 1509 002e 3A       		.uleb128 0x3a
 1510 002f 0B       		.uleb128 0xb
 1511 0030 3B       		.uleb128 0x3b
 1512 0031 0B       		.uleb128 0xb
 1513 0032 49       		.uleb128 0x49
 1514 0033 13       		.uleb128 0x13
 1515 0034 00       		.byte	0
 1516 0035 00       		.byte	0
 1517 0036 05       		.uleb128 0x5
 1518 0037 13       		.uleb128 0x13
 1519 0038 01       		.byte	0x1
 1520 0039 03       		.uleb128 0x3
 1521 003a 0E       		.uleb128 0xe
 1522 003b 0B       		.uleb128 0xb
 1523 003c 0B       		.uleb128 0xb
 1524 003d 3A       		.uleb128 0x3a
 1525 003e 0B       		.uleb128 0xb
 1526 003f 3B       		.uleb128 0x3b
 1527 0040 0B       		.uleb128 0xb
 1528 0041 01       		.uleb128 0x1
 1529 0042 13       		.uleb128 0x13
 1530 0043 00       		.byte	0
 1531 0044 00       		.byte	0
 1532 0045 06       		.uleb128 0x6
 1533 0046 0D       		.uleb128 0xd
 1534 0047 00       		.byte	0
 1535 0048 03       		.uleb128 0x3
 1536 0049 0E       		.uleb128 0xe
 1537 004a 3A       		.uleb128 0x3a
 1538 004b 0B       		.uleb128 0xb
 1539 004c 3B       		.uleb128 0x3b
ARM GAS  /tmp/ccDyn4AJ.s 			page 28


 1540 004d 0B       		.uleb128 0xb
 1541 004e 49       		.uleb128 0x49
 1542 004f 13       		.uleb128 0x13
 1543 0050 38       		.uleb128 0x38
 1544 0051 0B       		.uleb128 0xb
 1545 0052 00       		.byte	0
 1546 0053 00       		.byte	0
 1547 0054 07       		.uleb128 0x7
 1548 0055 0D       		.uleb128 0xd
 1549 0056 00       		.byte	0
 1550 0057 03       		.uleb128 0x3
 1551 0058 08       		.uleb128 0x8
 1552 0059 3A       		.uleb128 0x3a
 1553 005a 0B       		.uleb128 0xb
 1554 005b 3B       		.uleb128 0x3b
 1555 005c 0B       		.uleb128 0xb
 1556 005d 49       		.uleb128 0x49
 1557 005e 13       		.uleb128 0x13
 1558 005f 38       		.uleb128 0x38
 1559 0060 0B       		.uleb128 0xb
 1560 0061 00       		.byte	0
 1561 0062 00       		.byte	0
 1562 0063 08       		.uleb128 0x8
 1563 0064 0D       		.uleb128 0xd
 1564 0065 00       		.byte	0
 1565 0066 03       		.uleb128 0x3
 1566 0067 08       		.uleb128 0x8
 1567 0068 3A       		.uleb128 0x3a
 1568 0069 0B       		.uleb128 0xb
 1569 006a 3B       		.uleb128 0x3b
 1570 006b 05       		.uleb128 0x5
 1571 006c 49       		.uleb128 0x49
 1572 006d 13       		.uleb128 0x13
 1573 006e 38       		.uleb128 0x38
 1574 006f 0B       		.uleb128 0xb
 1575 0070 00       		.byte	0
 1576 0071 00       		.byte	0
 1577 0072 09       		.uleb128 0x9
 1578 0073 0D       		.uleb128 0xd
 1579 0074 00       		.byte	0
 1580 0075 03       		.uleb128 0x3
 1581 0076 0E       		.uleb128 0xe
 1582 0077 3A       		.uleb128 0x3a
 1583 0078 0B       		.uleb128 0xb
 1584 0079 3B       		.uleb128 0x3b
 1585 007a 05       		.uleb128 0x5
 1586 007b 49       		.uleb128 0x49
 1587 007c 13       		.uleb128 0x13
 1588 007d 38       		.uleb128 0x38
 1589 007e 0B       		.uleb128 0xb
 1590 007f 00       		.byte	0
 1591 0080 00       		.byte	0
 1592 0081 0A       		.uleb128 0xa
 1593 0082 0F       		.uleb128 0xf
 1594 0083 00       		.byte	0
 1595 0084 0B       		.uleb128 0xb
 1596 0085 0B       		.uleb128 0xb
ARM GAS  /tmp/ccDyn4AJ.s 			page 29


 1597 0086 49       		.uleb128 0x49
 1598 0087 13       		.uleb128 0x13
 1599 0088 00       		.byte	0
 1600 0089 00       		.byte	0
 1601 008a 0B       		.uleb128 0xb
 1602 008b 13       		.uleb128 0x13
 1603 008c 01       		.byte	0x1
 1604 008d 03       		.uleb128 0x3
 1605 008e 0E       		.uleb128 0xe
 1606 008f 0B       		.uleb128 0xb
 1607 0090 0B       		.uleb128 0xb
 1608 0091 3A       		.uleb128 0x3a
 1609 0092 0B       		.uleb128 0xb
 1610 0093 3B       		.uleb128 0x3b
 1611 0094 05       		.uleb128 0x5
 1612 0095 01       		.uleb128 0x1
 1613 0096 13       		.uleb128 0x13
 1614 0097 00       		.byte	0
 1615 0098 00       		.byte	0
 1616 0099 0C       		.uleb128 0xc
 1617 009a 15       		.uleb128 0x15
 1618 009b 01       		.byte	0x1
 1619 009c 27       		.uleb128 0x27
 1620 009d 19       		.uleb128 0x19
 1621 009e 01       		.uleb128 0x1
 1622 009f 13       		.uleb128 0x13
 1623 00a0 00       		.byte	0
 1624 00a1 00       		.byte	0
 1625 00a2 0D       		.uleb128 0xd
 1626 00a3 05       		.uleb128 0x5
 1627 00a4 00       		.byte	0
 1628 00a5 49       		.uleb128 0x49
 1629 00a6 13       		.uleb128 0x13
 1630 00a7 00       		.byte	0
 1631 00a8 00       		.byte	0
 1632 00a9 0E       		.uleb128 0xe
 1633 00aa 0F       		.uleb128 0xf
 1634 00ab 00       		.byte	0
 1635 00ac 0B       		.uleb128 0xb
 1636 00ad 0B       		.uleb128 0xb
 1637 00ae 00       		.byte	0
 1638 00af 00       		.byte	0
 1639 00b0 0F       		.uleb128 0xf
 1640 00b1 13       		.uleb128 0x13
 1641 00b2 01       		.byte	0x1
 1642 00b3 0B       		.uleb128 0xb
 1643 00b4 0B       		.uleb128 0xb
 1644 00b5 3A       		.uleb128 0x3a
 1645 00b6 0B       		.uleb128 0xb
 1646 00b7 3B       		.uleb128 0x3b
 1647 00b8 0B       		.uleb128 0xb
 1648 00b9 01       		.uleb128 0x1
 1649 00ba 13       		.uleb128 0x13
 1650 00bb 00       		.byte	0
 1651 00bc 00       		.byte	0
 1652 00bd 10       		.uleb128 0x10
 1653 00be 17       		.uleb128 0x17
ARM GAS  /tmp/ccDyn4AJ.s 			page 30


 1654 00bf 01       		.byte	0x1
 1655 00c0 0B       		.uleb128 0xb
 1656 00c1 0B       		.uleb128 0xb
 1657 00c2 3A       		.uleb128 0x3a
 1658 00c3 0B       		.uleb128 0xb
 1659 00c4 3B       		.uleb128 0x3b
 1660 00c5 0B       		.uleb128 0xb
 1661 00c6 01       		.uleb128 0x1
 1662 00c7 13       		.uleb128 0x13
 1663 00c8 00       		.byte	0
 1664 00c9 00       		.byte	0
 1665 00ca 11       		.uleb128 0x11
 1666 00cb 0D       		.uleb128 0xd
 1667 00cc 00       		.byte	0
 1668 00cd 03       		.uleb128 0x3
 1669 00ce 0E       		.uleb128 0xe
 1670 00cf 3A       		.uleb128 0x3a
 1671 00d0 0B       		.uleb128 0xb
 1672 00d1 3B       		.uleb128 0x3b
 1673 00d2 0B       		.uleb128 0xb
 1674 00d3 49       		.uleb128 0x49
 1675 00d4 13       		.uleb128 0x13
 1676 00d5 00       		.byte	0
 1677 00d6 00       		.byte	0
 1678 00d7 12       		.uleb128 0x12
 1679 00d8 0D       		.uleb128 0xd
 1680 00d9 00       		.byte	0
 1681 00da 03       		.uleb128 0x3
 1682 00db 0E       		.uleb128 0xe
 1683 00dc 3A       		.uleb128 0x3a
 1684 00dd 0B       		.uleb128 0xb
 1685 00de 3B       		.uleb128 0x3b
 1686 00df 05       		.uleb128 0x5
 1687 00e0 49       		.uleb128 0x49
 1688 00e1 13       		.uleb128 0x13
 1689 00e2 00       		.byte	0
 1690 00e3 00       		.byte	0
 1691 00e4 13       		.uleb128 0x13
 1692 00e5 26       		.uleb128 0x26
 1693 00e6 00       		.byte	0
 1694 00e7 49       		.uleb128 0x49
 1695 00e8 13       		.uleb128 0x13
 1696 00e9 00       		.byte	0
 1697 00ea 00       		.byte	0
 1698 00eb 14       		.uleb128 0x14
 1699 00ec 35       		.uleb128 0x35
 1700 00ed 00       		.byte	0
 1701 00ee 49       		.uleb128 0x49
 1702 00ef 13       		.uleb128 0x13
 1703 00f0 00       		.byte	0
 1704 00f1 00       		.byte	0
 1705 00f2 15       		.uleb128 0x15
 1706 00f3 2E       		.uleb128 0x2e
 1707 00f4 01       		.byte	0x1
 1708 00f5 03       		.uleb128 0x3
 1709 00f6 0E       		.uleb128 0xe
 1710 00f7 3A       		.uleb128 0x3a
ARM GAS  /tmp/ccDyn4AJ.s 			page 31


 1711 00f8 0B       		.uleb128 0xb
 1712 00f9 3B       		.uleb128 0x3b
 1713 00fa 05       		.uleb128 0x5
 1714 00fb 27       		.uleb128 0x27
 1715 00fc 19       		.uleb128 0x19
 1716 00fd 20       		.uleb128 0x20
 1717 00fe 0B       		.uleb128 0xb
 1718 00ff 01       		.uleb128 0x1
 1719 0100 13       		.uleb128 0x13
 1720 0101 00       		.byte	0
 1721 0102 00       		.byte	0
 1722 0103 16       		.uleb128 0x16
 1723 0104 05       		.uleb128 0x5
 1724 0105 00       		.byte	0
 1725 0106 03       		.uleb128 0x3
 1726 0107 0E       		.uleb128 0xe
 1727 0108 3A       		.uleb128 0x3a
 1728 0109 0B       		.uleb128 0xb
 1729 010a 3B       		.uleb128 0x3b
 1730 010b 05       		.uleb128 0x5
 1731 010c 49       		.uleb128 0x49
 1732 010d 13       		.uleb128 0x13
 1733 010e 00       		.byte	0
 1734 010f 00       		.byte	0
 1735 0110 17       		.uleb128 0x17
 1736 0111 2E       		.uleb128 0x2e
 1737 0112 00       		.byte	0
 1738 0113 03       		.uleb128 0x3
 1739 0114 0E       		.uleb128 0xe
 1740 0115 3A       		.uleb128 0x3a
 1741 0116 0B       		.uleb128 0xb
 1742 0117 3B       		.uleb128 0x3b
 1743 0118 05       		.uleb128 0x5
 1744 0119 27       		.uleb128 0x27
 1745 011a 19       		.uleb128 0x19
 1746 011b 20       		.uleb128 0x20
 1747 011c 0B       		.uleb128 0xb
 1748 011d 00       		.byte	0
 1749 011e 00       		.byte	0
 1750 011f 18       		.uleb128 0x18
 1751 0120 2E       		.uleb128 0x2e
 1752 0121 01       		.byte	0x1
 1753 0122 3F       		.uleb128 0x3f
 1754 0123 19       		.uleb128 0x19
 1755 0124 03       		.uleb128 0x3
 1756 0125 0E       		.uleb128 0xe
 1757 0126 3A       		.uleb128 0x3a
 1758 0127 0B       		.uleb128 0xb
 1759 0128 3B       		.uleb128 0x3b
 1760 0129 0B       		.uleb128 0xb
 1761 012a 27       		.uleb128 0x27
 1762 012b 19       		.uleb128 0x19
 1763 012c 11       		.uleb128 0x11
 1764 012d 01       		.uleb128 0x1
 1765 012e 12       		.uleb128 0x12
 1766 012f 06       		.uleb128 0x6
 1767 0130 40       		.uleb128 0x40
ARM GAS  /tmp/ccDyn4AJ.s 			page 32


 1768 0131 18       		.uleb128 0x18
 1769 0132 9742     		.uleb128 0x2117
 1770 0134 19       		.uleb128 0x19
 1771 0135 01       		.uleb128 0x1
 1772 0136 13       		.uleb128 0x13
 1773 0137 00       		.byte	0
 1774 0138 00       		.byte	0
 1775 0139 19       		.uleb128 0x19
 1776 013a 898201   		.uleb128 0x4109
 1777 013d 01       		.byte	0x1
 1778 013e 11       		.uleb128 0x11
 1779 013f 01       		.uleb128 0x1
 1780 0140 31       		.uleb128 0x31
 1781 0141 13       		.uleb128 0x13
 1782 0142 01       		.uleb128 0x1
 1783 0143 13       		.uleb128 0x13
 1784 0144 00       		.byte	0
 1785 0145 00       		.byte	0
 1786 0146 1A       		.uleb128 0x1a
 1787 0147 8A8201   		.uleb128 0x410a
 1788 014a 00       		.byte	0
 1789 014b 02       		.uleb128 0x2
 1790 014c 18       		.uleb128 0x18
 1791 014d 9142     		.uleb128 0x2111
 1792 014f 18       		.uleb128 0x18
 1793 0150 00       		.byte	0
 1794 0151 00       		.byte	0
 1795 0152 1B       		.uleb128 0x1b
 1796 0153 898201   		.uleb128 0x4109
 1797 0156 00       		.byte	0
 1798 0157 11       		.uleb128 0x11
 1799 0158 01       		.uleb128 0x1
 1800 0159 9542     		.uleb128 0x2115
 1801 015b 19       		.uleb128 0x19
 1802 015c 31       		.uleb128 0x31
 1803 015d 13       		.uleb128 0x13
 1804 015e 00       		.byte	0
 1805 015f 00       		.byte	0
 1806 0160 1C       		.uleb128 0x1c
 1807 0161 1D       		.uleb128 0x1d
 1808 0162 01       		.byte	0x1
 1809 0163 31       		.uleb128 0x31
 1810 0164 13       		.uleb128 0x13
 1811 0165 11       		.uleb128 0x11
 1812 0166 01       		.uleb128 0x1
 1813 0167 12       		.uleb128 0x12
 1814 0168 06       		.uleb128 0x6
 1815 0169 58       		.uleb128 0x58
 1816 016a 0B       		.uleb128 0xb
 1817 016b 59       		.uleb128 0x59
 1818 016c 0B       		.uleb128 0xb
 1819 016d 01       		.uleb128 0x1
 1820 016e 13       		.uleb128 0x13
 1821 016f 00       		.byte	0
 1822 0170 00       		.byte	0
 1823 0171 1D       		.uleb128 0x1d
 1824 0172 1D       		.uleb128 0x1d
ARM GAS  /tmp/ccDyn4AJ.s 			page 33


 1825 0173 01       		.byte	0x1
 1826 0174 31       		.uleb128 0x31
 1827 0175 13       		.uleb128 0x13
 1828 0176 11       		.uleb128 0x11
 1829 0177 01       		.uleb128 0x1
 1830 0178 12       		.uleb128 0x12
 1831 0179 06       		.uleb128 0x6
 1832 017a 58       		.uleb128 0x58
 1833 017b 0B       		.uleb128 0xb
 1834 017c 59       		.uleb128 0x59
 1835 017d 05       		.uleb128 0x5
 1836 017e 00       		.byte	0
 1837 017f 00       		.byte	0
 1838 0180 1E       		.uleb128 0x1e
 1839 0181 05       		.uleb128 0x5
 1840 0182 00       		.byte	0
 1841 0183 31       		.uleb128 0x31
 1842 0184 13       		.uleb128 0x13
 1843 0185 1C       		.uleb128 0x1c
 1844 0186 0B       		.uleb128 0xb
 1845 0187 00       		.byte	0
 1846 0188 00       		.byte	0
 1847 0189 1F       		.uleb128 0x1f
 1848 018a 1D       		.uleb128 0x1d
 1849 018b 01       		.byte	0x1
 1850 018c 31       		.uleb128 0x31
 1851 018d 13       		.uleb128 0x13
 1852 018e 11       		.uleb128 0x11
 1853 018f 01       		.uleb128 0x1
 1854 0190 12       		.uleb128 0x12
 1855 0191 06       		.uleb128 0x6
 1856 0192 58       		.uleb128 0x58
 1857 0193 0B       		.uleb128 0xb
 1858 0194 59       		.uleb128 0x59
 1859 0195 0B       		.uleb128 0xb
 1860 0196 00       		.byte	0
 1861 0197 00       		.byte	0
 1862 0198 20       		.uleb128 0x20
 1863 0199 05       		.uleb128 0x5
 1864 019a 00       		.byte	0
 1865 019b 03       		.uleb128 0x3
 1866 019c 08       		.uleb128 0x8
 1867 019d 3A       		.uleb128 0x3a
 1868 019e 0B       		.uleb128 0xb
 1869 019f 3B       		.uleb128 0x3b
 1870 01a0 0B       		.uleb128 0xb
 1871 01a1 49       		.uleb128 0x49
 1872 01a2 13       		.uleb128 0x13
 1873 01a3 02       		.uleb128 0x2
 1874 01a4 17       		.uleb128 0x17
 1875 01a5 00       		.byte	0
 1876 01a6 00       		.byte	0
 1877 01a7 21       		.uleb128 0x21
 1878 01a8 898201   		.uleb128 0x4109
 1879 01ab 01       		.byte	0x1
 1880 01ac 11       		.uleb128 0x11
 1881 01ad 01       		.uleb128 0x1
ARM GAS  /tmp/ccDyn4AJ.s 			page 34


 1882 01ae 9542     		.uleb128 0x2115
 1883 01b0 19       		.uleb128 0x19
 1884 01b1 31       		.uleb128 0x31
 1885 01b2 13       		.uleb128 0x13
 1886 01b3 00       		.byte	0
 1887 01b4 00       		.byte	0
 1888 01b5 22       		.uleb128 0x22
 1889 01b6 34       		.uleb128 0x34
 1890 01b7 00       		.byte	0
 1891 01b8 03       		.uleb128 0x3
 1892 01b9 0E       		.uleb128 0xe
 1893 01ba 3A       		.uleb128 0x3a
 1894 01bb 0B       		.uleb128 0xb
 1895 01bc 3B       		.uleb128 0x3b
 1896 01bd 05       		.uleb128 0x5
 1897 01be 49       		.uleb128 0x49
 1898 01bf 13       		.uleb128 0x13
 1899 01c0 3F       		.uleb128 0x3f
 1900 01c1 19       		.uleb128 0x19
 1901 01c2 3C       		.uleb128 0x3c
 1902 01c3 19       		.uleb128 0x19
 1903 01c4 00       		.byte	0
 1904 01c5 00       		.byte	0
 1905 01c6 23       		.uleb128 0x23
 1906 01c7 34       		.uleb128 0x34
 1907 01c8 00       		.byte	0
 1908 01c9 03       		.uleb128 0x3
 1909 01ca 08       		.uleb128 0x8
 1910 01cb 3A       		.uleb128 0x3a
 1911 01cc 0B       		.uleb128 0xb
 1912 01cd 3B       		.uleb128 0x3b
 1913 01ce 05       		.uleb128 0x5
 1914 01cf 49       		.uleb128 0x49
 1915 01d0 13       		.uleb128 0x13
 1916 01d1 3F       		.uleb128 0x3f
 1917 01d2 19       		.uleb128 0x19
 1918 01d3 3C       		.uleb128 0x3c
 1919 01d4 19       		.uleb128 0x19
 1920 01d5 00       		.byte	0
 1921 01d6 00       		.byte	0
 1922 01d7 24       		.uleb128 0x24
 1923 01d8 2E       		.uleb128 0x2e
 1924 01d9 01       		.byte	0x1
 1925 01da 3F       		.uleb128 0x3f
 1926 01db 19       		.uleb128 0x19
 1927 01dc 03       		.uleb128 0x3
 1928 01dd 0E       		.uleb128 0xe
 1929 01de 3A       		.uleb128 0x3a
 1930 01df 0B       		.uleb128 0xb
 1931 01e0 3B       		.uleb128 0x3b
 1932 01e1 0B       		.uleb128 0xb
 1933 01e2 27       		.uleb128 0x27
 1934 01e3 19       		.uleb128 0x19
 1935 01e4 3C       		.uleb128 0x3c
 1936 01e5 19       		.uleb128 0x19
 1937 01e6 01       		.uleb128 0x1
 1938 01e7 13       		.uleb128 0x13
ARM GAS  /tmp/ccDyn4AJ.s 			page 35


 1939 01e8 00       		.byte	0
 1940 01e9 00       		.byte	0
 1941 01ea 25       		.uleb128 0x25
 1942 01eb 2E       		.uleb128 0x2e
 1943 01ec 01       		.byte	0x1
 1944 01ed 3F       		.uleb128 0x3f
 1945 01ee 19       		.uleb128 0x19
 1946 01ef 03       		.uleb128 0x3
 1947 01f0 0E       		.uleb128 0xe
 1948 01f1 3A       		.uleb128 0x3a
 1949 01f2 0B       		.uleb128 0xb
 1950 01f3 3B       		.uleb128 0x3b
 1951 01f4 0B       		.uleb128 0xb
 1952 01f5 27       		.uleb128 0x27
 1953 01f6 19       		.uleb128 0x19
 1954 01f7 3C       		.uleb128 0x3c
 1955 01f8 19       		.uleb128 0x19
 1956 01f9 00       		.byte	0
 1957 01fa 00       		.byte	0
 1958 01fb 00       		.byte	0
 1959              		.section	.debug_loc,"",%progbits
 1960              	.Ldebug_loc0:
 1961              	.LLST0:
 1962 0000 00000000 		.4byte	.LVL4
 1963 0004 14000000 		.4byte	.LVL5
 1964 0008 0100     		.2byte	0x1
 1965 000a 50       		.byte	0x50
 1966 000b 14000000 		.4byte	.LVL5
 1967 000f 19000000 		.4byte	.LVL7-1
 1968 0013 0400     		.2byte	0x4
 1969 0015 73       		.byte	0x73
 1970 0016 B87F     		.sleb128 -72
 1971 0018 9F       		.byte	0x9f
 1972 0019 19000000 		.4byte	.LVL7-1
 1973 001d 20000000 		.4byte	.LFE248
 1974 0021 0400     		.2byte	0x4
 1975 0023 F3       		.byte	0xf3
 1976 0024 01       		.uleb128 0x1
 1977 0025 50       		.byte	0x50
 1978 0026 9F       		.byte	0x9f
 1979 0027 00000000 		.4byte	0
 1980 002b 00000000 		.4byte	0
 1981              	.LLST1:
 1982 002f 00000000 		.4byte	.LVL4
 1983 0033 16000000 		.4byte	.LVL6
 1984 0037 0100     		.2byte	0x1
 1985 0039 51       		.byte	0x51
 1986 003a 16000000 		.4byte	.LVL6
 1987 003e 19000000 		.4byte	.LVL7-1
 1988 0042 0400     		.2byte	0x4
 1989 0044 70       		.byte	0x70
 1990 0045 B87F     		.sleb128 -72
 1991 0047 9F       		.byte	0x9f
 1992 0048 19000000 		.4byte	.LVL7-1
 1993 004c 20000000 		.4byte	.LFE248
 1994 0050 0400     		.2byte	0x4
 1995 0052 F3       		.byte	0xf3
ARM GAS  /tmp/ccDyn4AJ.s 			page 36


 1996 0053 01       		.uleb128 0x1
 1997 0054 51       		.byte	0x51
 1998 0055 9F       		.byte	0x9f
 1999 0056 00000000 		.4byte	0
 2000 005a 00000000 		.4byte	0
 2001              		.section	.debug_aranges,"",%progbits
 2002 0000 4C000000 		.4byte	0x4c
 2003 0004 0200     		.2byte	0x2
 2004 0006 00000000 		.4byte	.Ldebug_info0
 2005 000a 04       		.byte	0x4
 2006 000b 00       		.byte	0
 2007 000c 0000     		.2byte	0
 2008 000e 0000     		.2byte	0
 2009 0010 00000000 		.4byte	.LFB246
 2010 0014 28000000 		.4byte	.LFE246-.LFB246
 2011 0018 00000000 		.4byte	.LFB247
 2012 001c 20000000 		.4byte	.LFE247-.LFB247
 2013 0020 00000000 		.4byte	.LFB248
 2014 0024 20000000 		.4byte	.LFE248-.LFB248
 2015 0028 00000000 		.4byte	.LFB249
 2016 002c 0C000000 		.4byte	.LFE249-.LFB249
 2017 0030 00000000 		.4byte	.LFB250
 2018 0034 0C000000 		.4byte	.LFE250-.LFB250
 2019 0038 00000000 		.4byte	.LFB251
 2020 003c 0C000000 		.4byte	.LFE251-.LFB251
 2021 0040 00000000 		.4byte	.LFB252
 2022 0044 0C000000 		.4byte	.LFE252-.LFB252
 2023 0048 00000000 		.4byte	0
 2024 004c 00000000 		.4byte	0
 2025              		.section	.debug_ranges,"",%progbits
 2026              	.Ldebug_ranges0:
 2027 0000 00000000 		.4byte	.LFB246
 2028 0004 28000000 		.4byte	.LFE246
 2029 0008 00000000 		.4byte	.LFB247
 2030 000c 20000000 		.4byte	.LFE247
 2031 0010 00000000 		.4byte	.LFB248
 2032 0014 20000000 		.4byte	.LFE248
 2033 0018 00000000 		.4byte	.LFB249
 2034 001c 0C000000 		.4byte	.LFE249
 2035 0020 00000000 		.4byte	.LFB250
 2036 0024 0C000000 		.4byte	.LFE250
 2037 0028 00000000 		.4byte	.LFB251
 2038 002c 0C000000 		.4byte	.LFE251
 2039 0030 00000000 		.4byte	.LFB252
 2040 0034 0C000000 		.4byte	.LFE252
 2041 0038 00000000 		.4byte	0
 2042 003c 00000000 		.4byte	0
 2043              		.section	.debug_line,"",%progbits
 2044              	.Ldebug_line0:
 2045 0000 77020000 		.section	.debug_str,"MS",%progbits,1
 2045      0200E201 
 2045      00000201 
 2045      FB0E0D00 
 2045      01010101 
 2046              	.LASF53:
 2047 0000 72656164 		.ascii	"ready_list_t\000"
 2047      795F6C69 
ARM GAS  /tmp/ccDyn4AJ.s 			page 37


 2047      73745F74 
 2047      00
 2048              	.LASF93:
 2049 000d 77747472 		.ascii	"wttrp\000"
 2049      7000
 2050              	.LASF59:
 2051 0013 64656C74 		.ascii	"delta\000"
 2051      6100
 2052              	.LASF90:
 2053 0019 7264796D 		.ascii	"rdymsg\000"
 2053      736700
 2054              	.LASF16:
 2055 0020 75696E74 		.ascii	"uint64_t\000"
 2055      36345F74 
 2055      00
 2056              	.LASF72:
 2057 0029 6B65726E 		.ascii	"kernel_stats\000"
 2057      656C5F73 
 2057      74617473 
 2057      00
 2058              	.LASF5:
 2059 0036 5F5F7569 		.ascii	"__uint8_t\000"
 2059      6E74385F 
 2059      7400
 2060              	.LASF52:
 2061 0040 70726576 		.ascii	"prev\000"
 2061      00
 2062              	.LASF77:
 2063 0045 706F7274 		.ascii	"port_intctx\000"
 2063      5F696E74 
 2063      63747800 
 2064              	.LASF51:
 2065 0051 63685F74 		.ascii	"ch_threads_queue\000"
 2065      68726561 
 2065      64735F71 
 2065      75657565 
 2065      00
 2066              	.LASF64:
 2067 0062 73797374 		.ascii	"system_debug_t\000"
 2067      656D5F64 
 2067      65627567 
 2067      5F7400
 2068              	.LASF104:
 2069 0071 706F7274 		.ascii	"port_lock\000"
 2069      5F6C6F63 
 2069      6B00
 2070              	.LASF81:
 2071 007b 776F7273 		.ascii	"worst\000"
 2071      7400
 2072              	.LASF84:
 2073 0081 74696D65 		.ascii	"time_measurement_t\000"
 2073      5F6D6561 
 2073      73757265 
 2073      6D656E74 
 2073      5F7400
 2074              	.LASF12:
 2075 0094 6C6F6E67 		.ascii	"long long unsigned int\000"
ARM GAS  /tmp/ccDyn4AJ.s 			page 38


 2075      206C6F6E 
 2075      6720756E 
 2075      7369676E 
 2075      65642069 
 2076              	.LASF91:
 2077 00ab 65786974 		.ascii	"exitcode\000"
 2077      636F6465 
 2077      00
 2078              	.LASF71:
 2079 00b4 6D61696E 		.ascii	"mainthread\000"
 2079      74687265 
 2079      616400
 2080              	.LASF94:
 2081 00bf 73656E74 		.ascii	"sentmsg\000"
 2081      6D736700 
 2082              	.LASF61:
 2083 00c7 76697274 		.ascii	"virtual_timers_list_t\000"
 2083      75616C5F 
 2083      74696D65 
 2083      72735F6C 
 2083      6973745F 
 2084              	.LASF116:
 2085 00dd 6368544D 		.ascii	"chTMObjectInit\000"
 2085      4F626A65 
 2085      6374496E 
 2085      697400
 2086              	.LASF49:
 2087 00ec 6E657874 		.ascii	"next\000"
 2087      00
 2088              	.LASF18:
 2089 00f1 72747469 		.ascii	"rttime_t\000"
 2089      6D655F74 
 2089      00
 2090              	.LASF10:
 2091 00fa 6C6F6E67 		.ascii	"long long int\000"
 2091      206C6F6E 
 2091      6720696E 
 2091      7400
 2092              	.LASF1:
 2093 0108 7369676E 		.ascii	"signed char\000"
 2093      65642063 
 2093      68617200 
 2094              	.LASF70:
 2095 0114 76746C69 		.ascii	"vtlist\000"
 2095      737400
 2096              	.LASF121:
 2097 011b 2F686F6D 		.ascii	"/home/kozinalexey/f4by/ardupilot/build/f4by-ch\000"
 2097      652F6B6F 
 2097      7A696E61 
 2097      6C657865 
 2097      792F6634 
 2098              	.LASF105:
 2099 014a 706F7274 		.ascii	"port_unlock\000"
 2099      5F756E6C 
 2099      6F636B00 
 2100              	.LASF118:
 2101 0156 6368544D 		.ascii	"chTMStartMeasurementX\000"
ARM GAS  /tmp/ccDyn4AJ.s 			page 39


 2101      53746172 
 2101      744D6561 
 2101      73757265 
 2101      6D656E74 
 2102              	.LASF35:
 2103 016c 73746174 		.ascii	"state\000"
 2103      6500
 2104              	.LASF124:
 2105 0172 6368544D 		.ascii	"chTMStopMeasurementX\000"
 2105      53746F70 
 2105      4D656173 
 2105      7572656D 
 2105      656E7458 
 2106              	.LASF7:
 2107 0187 6C6F6E67 		.ascii	"long int\000"
 2107      20696E74 
 2107      00
 2108              	.LASF20:
 2109 0190 74737461 		.ascii	"tstate_t\000"
 2109      74655F74 
 2109      00
 2110              	.LASF60:
 2111 0199 66756E63 		.ascii	"func\000"
 2111      00
 2112              	.LASF44:
 2113 019e 73746174 		.ascii	"stats\000"
 2113      7300
 2114              	.LASF8:
 2115 01a4 5F5F7569 		.ascii	"__uint32_t\000"
 2115      6E743332 
 2115      5F7400
 2116              	.LASF74:
 2117 01af 72656761 		.ascii	"regarm_t\000"
 2117      726D5F74 
 2117      00
 2118              	.LASF65:
 2119 01b8 63685F73 		.ascii	"ch_system_debug\000"
 2119      79737465 
 2119      6D5F6465 
 2119      62756700 
 2120              	.LASF38:
 2121 01c8 77616974 		.ascii	"waiting\000"
 2121      696E6700 
 2122              	.LASF102:
 2123 01d0 6D757465 		.ascii	"mutex_t\000"
 2123      785F7400 
 2124              	.LASF123:
 2125 01d8 76616C75 		.ascii	"value\000"
 2125      6500
 2126              	.LASF25:
 2127 01de 636E745F 		.ascii	"cnt_t\000"
 2127      7400
 2128              	.LASF39:
 2129 01e4 6D736771 		.ascii	"msgqueue\000"
 2129      75657565 
 2129      00
 2130              	.LASF0:
ARM GAS  /tmp/ccDyn4AJ.s 			page 40


 2131 01ed 756E7369 		.ascii	"unsigned int\000"
 2131      676E6564 
 2131      20696E74 
 2131      00
 2132              	.LASF119:
 2133 01fa 474E5520 		.ascii	"GNU C 4.9.3 20150529 (prerelease) -mcpu=cortex-m4 -"
 2133      4320342E 
 2133      392E3320 
 2133      32303135 
 2133      30353239 
 2134 022d 6D666C6F 		.ascii	"mfloat-abi=hard -mfpu=fpv4-sp-d16 -mno-thumb-interw"
 2134      61742D61 
 2134      62693D68 
 2134      61726420 
 2134      2D6D6670 
 2135 0260 6F726B20 		.ascii	"ork -mthumb -g -Os -fomit-frame-pointer -falign-fun"
 2135      2D6D7468 
 2135      756D6220 
 2135      2D67202D 
 2135      4F73202D 
 2136 0293 6374696F 		.ascii	"ctions=16 -ffunction-sections -fdata-sections -fno-"
 2136      6E733D31 
 2136      36202D66 
 2136      66756E63 
 2136      74696F6E 
 2137 02c6 636F6D6D 		.ascii	"common -fsingle-precision-constant\000"
 2137      6F6E202D 
 2137      6673696E 
 2137      676C652D 
 2137      70726563 
 2138              	.LASF95:
 2139 02e9 77747365 		.ascii	"wtsemp\000"
 2139      6D7000
 2140              	.LASF85:
 2141 02f0 6E5F6972 		.ascii	"n_irq\000"
 2141      7100
 2142              	.LASF29:
 2143 02f6 71756575 		.ascii	"queue\000"
 2143      6500
 2144              	.LASF43:
 2145 02fc 6D706F6F 		.ascii	"mpool\000"
 2145      6C00
 2146              	.LASF4:
 2147 0302 73686F72 		.ascii	"short unsigned int\000"
 2147      7420756E 
 2147      7369676E 
 2147      65642069 
 2147      6E7400
 2148              	.LASF89:
 2149 0315 6B65726E 		.ascii	"kernel_stats_t\000"
 2149      656C5F73 
 2149      74617473 
 2149      5F7400
 2150              	.LASF33:
 2151 0324 6E616D65 		.ascii	"name\000"
 2151      00
 2152              	.LASF47:
ARM GAS  /tmp/ccDyn4AJ.s 			page 41


 2153 0329 63685F74 		.ascii	"ch_thread\000"
 2153      68726561 
 2153      6400
 2154              	.LASF23:
 2155 0333 6D73675F 		.ascii	"msg_t\000"
 2155      7400
 2156              	.LASF82:
 2157 0339 6C617374 		.ascii	"last\000"
 2157      00
 2158              	.LASF26:
 2159 033e 75636E74 		.ascii	"ucnt_t\000"
 2159      5F7400
 2160              	.LASF40:
 2161 0345 6570656E 		.ascii	"epending\000"
 2161      64696E67 
 2161      00
 2162              	.LASF67:
 2163 034e 63685F73 		.ascii	"ch_system_t\000"
 2163      79737465 
 2163      6D5F7400 
 2164              	.LASF19:
 2165 035a 746D6F64 		.ascii	"tmode_t\000"
 2165      655F7400 
 2166              	.LASF88:
 2167 0362 6D5F6372 		.ascii	"m_crit_isr\000"
 2167      69745F69 
 2167      737200
 2168              	.LASF54:
 2169 036d 63685F72 		.ascii	"ch_ready_list\000"
 2169      65616479 
 2169      5F6C6973 
 2169      7400
 2170              	.LASF24:
 2171 037b 6576656E 		.ascii	"eventmask_t\000"
 2171      746D6173 
 2171      6B5F7400 
 2172              	.LASF117:
 2173 0387 6368544D 		.ascii	"chTMChainMeasurementToX\000"
 2173      43686169 
 2173      6E4D6561 
 2173      73757265 
 2173      6D656E74 
 2174              	.LASF75:
 2175 039f 73746B61 		.ascii	"stkalign_t\000"
 2175      6C69676E 
 2175      5F7400
 2176              	.LASF31:
 2177 03aa 6E657765 		.ascii	"newer\000"
 2177      7200
 2178              	.LASF42:
 2179 03b0 7265616C 		.ascii	"realprio\000"
 2179      7072696F 
 2179      00
 2180              	.LASF112:
 2181 03b9 5F737461 		.ascii	"_stats_stop_measure_crit_thd\000"
 2181      74735F73 
 2181      746F705F 
ARM GAS  /tmp/ccDyn4AJ.s 			page 42


 2181      6D656173 
 2181      7572655F 
 2182              	.LASF73:
 2183 03d6 73697A65 		.ascii	"sizetype\000"
 2183      74797065 
 2183      00
 2184              	.LASF45:
 2185 03df 74687265 		.ascii	"thread_reference_t\000"
 2185      61645F72 
 2185      65666572 
 2185      656E6365 
 2185      5F7400
 2186              	.LASF62:
 2187 03f2 63685F76 		.ascii	"ch_virtual_timers_list\000"
 2187      69727475 
 2187      616C5F74 
 2187      696D6572 
 2187      735F6C69 
 2188              	.LASF76:
 2189 0409 706F7274 		.ascii	"port_context\000"
 2189      5F636F6E 
 2189      74657874 
 2189      00
 2190              	.LASF79:
 2191 0416 746D5F63 		.ascii	"tm_calibration_t\000"
 2191      616C6962 
 2191      72617469 
 2191      6F6E5F74 
 2191      00
 2192              	.LASF30:
 2193 0427 7072696F 		.ascii	"prio\000"
 2193      00
 2194              	.LASF113:
 2195 042c 5F737461 		.ascii	"_stats_start_measure_crit_isr\000"
 2195      74735F73 
 2195      74617274 
 2195      5F6D6561 
 2195      73757265 
 2196              	.LASF55:
 2197 044a 63757272 		.ascii	"current\000"
 2197      656E7400 
 2198              	.LASF11:
 2199 0452 5F5F7569 		.ascii	"__uint64_t\000"
 2199      6E743634 
 2199      5F7400
 2200              	.LASF83:
 2201 045d 63756D75 		.ascii	"cumulative\000"
 2201      6C617469 
 2201      766500
 2202              	.LASF21:
 2203 0468 74726566 		.ascii	"trefs_t\000"
 2203      735F7400 
 2204              	.LASF37:
 2205 0470 72656673 		.ascii	"refs\000"
 2205      00
 2206              	.LASF57:
 2207 0475 76697274 		.ascii	"virtual_timer_t\000"
ARM GAS  /tmp/ccDyn4AJ.s 			page 43


 2207      75616C5F 
 2207      74696D65 
 2207      725F7400 
 2208              	.LASF22:
 2209 0485 74707269 		.ascii	"tprio_t\000"
 2209      6F5F7400 
 2210              	.LASF86:
 2211 048d 6E5F6374 		.ascii	"n_ctxswc\000"
 2211      78737763 
 2211      00
 2212              	.LASF103:
 2213 0496 5F426F6F 		.ascii	"_Bool\000"
 2213      6C00
 2214              	.LASF14:
 2215 049c 696E7433 		.ascii	"int32_t\000"
 2215      325F7400 
 2216              	.LASF2:
 2217 04a4 756E7369 		.ascii	"unsigned char\000"
 2217      676E6564 
 2217      20636861 
 2217      7200
 2218              	.LASF115:
 2219 04b2 49544D5F 		.ascii	"ITM_RxBuffer\000"
 2219      52784275 
 2219      66666572 
 2219      00
 2220              	.LASF3:
 2221 04bf 73686F72 		.ascii	"short int\000"
 2221      7420696E 
 2221      7400
 2222              	.LASF63:
 2223 04c9 6C617374 		.ascii	"lasttime\000"
 2223      74696D65 
 2223      00
 2224              	.LASF97:
 2225 04d2 65776D61 		.ascii	"ewmask\000"
 2225      736B00
 2226              	.LASF68:
 2227 04d9 63685F73 		.ascii	"ch_system\000"
 2227      79737465 
 2227      6D00
 2228              	.LASF58:
 2229 04e3 63685F76 		.ascii	"ch_virtual_timer\000"
 2229      69727475 
 2229      616C5F74 
 2229      696D6572 
 2229      00
 2230              	.LASF98:
 2231 04f4 63685F73 		.ascii	"ch_semaphore\000"
 2231      656D6170 
 2231      686F7265 
 2231      00
 2232              	.LASF15:
 2233 0501 75696E74 		.ascii	"uint32_t\000"
 2233      33325F74 
 2233      00
 2234              	.LASF109:
ARM GAS  /tmp/ccDyn4AJ.s 			page 44


 2235 050a 5F737461 		.ascii	"_stats_increase_irq\000"
 2235      74735F69 
 2235      6E637265 
 2235      6173655F 
 2235      69727100 
 2236              	.LASF48:
 2237 051e 63685F74 		.ascii	"ch_threads_list\000"
 2237      68726561 
 2237      64735F6C 
 2237      69737400 
 2238              	.LASF100:
 2239 052e 6F776E65 		.ascii	"owner\000"
 2239      7200
 2240              	.LASF9:
 2241 0534 6C6F6E67 		.ascii	"long unsigned int\000"
 2241      20756E73 
 2241      69676E65 
 2241      6420696E 
 2241      7400
 2242              	.LASF34:
 2243 0546 77616261 		.ascii	"wabase\000"
 2243      736500
 2244              	.LASF101:
 2245 054d 63686172 		.ascii	"char\000"
 2245      00
 2246              	.LASF32:
 2247 0552 6F6C6465 		.ascii	"older\000"
 2247      7200
 2248              	.LASF6:
 2249 0558 5F5F696E 		.ascii	"__int32_t\000"
 2249      7433325F 
 2249      7400
 2250              	.LASF96:
 2251 0562 77746D74 		.ascii	"wtmtxp\000"
 2251      787000
 2252              	.LASF107:
 2253 0569 706F7274 		.ascii	"port_unlock_from_isr\000"
 2253      5F756E6C 
 2253      6F636B5F 
 2253      66726F6D 
 2253      5F697372 
 2254              	.LASF28:
 2255 057e 74687265 		.ascii	"thread_t\000"
 2255      61645F74 
 2255      00
 2256              	.LASF80:
 2257 0587 62657374 		.ascii	"best\000"
 2257      00
 2258              	.LASF27:
 2259 058c 73797374 		.ascii	"systime_t\000"
 2259      696D655F 
 2259      7400
 2260              	.LASF56:
 2261 0596 76746675 		.ascii	"vtfunc_t\000"
 2261      6E635F74 
 2261      00
 2262              	.LASF122:
ARM GAS  /tmp/ccDyn4AJ.s 			page 45


 2263 059f 5F5F7365 		.ascii	"__set_BASEPRI\000"
 2263      745F4241 
 2263      53455052 
 2263      4900
 2264              	.LASF66:
 2265 05ad 70616E69 		.ascii	"panic_msg\000"
 2265      635F6D73 
 2265      6700
 2266              	.LASF78:
 2267 05b7 6F666673 		.ascii	"offset\000"
 2267      657400
 2268              	.LASF17:
 2269 05be 7274636E 		.ascii	"rtcnt_t\000"
 2269      745F7400 
 2270              	.LASF106:
 2271 05c6 706F7274 		.ascii	"port_lock_from_isr\000"
 2271      5F6C6F63 
 2271      6B5F6672 
 2271      6F6D5F69 
 2271      737200
 2272              	.LASF50:
 2273 05d9 74687265 		.ascii	"threads_queue_t\000"
 2273      6164735F 
 2273      71756575 
 2273      655F7400 
 2274              	.LASF99:
 2275 05e9 63685F6D 		.ascii	"ch_mutex\000"
 2275      75746578 
 2275      00
 2276              	.LASF69:
 2277 05f2 726C6973 		.ascii	"rlist\000"
 2277      7400
 2278              	.LASF13:
 2279 05f8 75696E74 		.ascii	"uint8_t\000"
 2279      385F7400 
 2280              	.LASF36:
 2281 0600 666C6167 		.ascii	"flags\000"
 2281      7300
 2282              	.LASF111:
 2283 0606 5F737461 		.ascii	"_stats_start_measure_crit_thd\000"
 2283      74735F73 
 2283      74617274 
 2283      5F6D6561 
 2283      73757265 
 2284              	.LASF110:
 2285 0624 5F737461 		.ascii	"_stats_ctxswc\000"
 2285      74735F63 
 2285      74787377 
 2285      6300
 2286              	.LASF92:
 2287 0632 77746F62 		.ascii	"wtobjp\000"
 2287      6A7000
 2288              	.LASF46:
 2289 0639 74687265 		.ascii	"threads_list_t\000"
 2289      6164735F 
 2289      6C697374 
 2289      5F7400
ARM GAS  /tmp/ccDyn4AJ.s 			page 46


 2290              	.LASF108:
 2291 0648 5F737461 		.ascii	"_stats_init\000"
 2291      74735F69 
 2291      6E697400 
 2292              	.LASF114:
 2293 0654 5F737461 		.ascii	"_stats_stop_measure_crit_isr\000"
 2293      74735F73 
 2293      746F705F 
 2293      6D656173 
 2293      7572655F 
 2294              	.LASF120:
 2295 0671 2E2E2F2E 		.ascii	"../../modules/ChibiOS/os/rt/src/chstats.c\000"
 2295      2E2F6D6F 
 2295      64756C65 
 2295      732F4368 
 2295      6962694F 
 2296              	.LASF41:
 2297 069b 6D74786C 		.ascii	"mtxlist\000"
 2297      69737400 
 2298              	.LASF87:
 2299 06a3 6D5F6372 		.ascii	"m_crit_thd\000"
 2299      69745F74 
 2299      686400
 2300              		.ident	"GCC: (15:4.9.3+svn231177-1) 4.9.3 20150529 (prerelease)"
ARM GAS  /tmp/ccDyn4AJ.s 			page 47


DEFINED SYMBOLS
                            *ABS*:0000000000000000 chstats.c
     /tmp/ccDyn4AJ.s:21     .text._stats_init:0000000000000000 $t
     /tmp/ccDyn4AJ.s:26     .text._stats_init:0000000000000000 _stats_init
     /tmp/ccDyn4AJ.s:62     .text._stats_init:0000000000000024 $d
     /tmp/ccDyn4AJ.s:67     .text._stats_increase_irq:0000000000000000 $t
     /tmp/ccDyn4AJ.s:72     .text._stats_increase_irq:0000000000000000 _stats_increase_irq
     /tmp/ccDyn4AJ.s:115    .text._stats_increase_irq:000000000000001c $d
     /tmp/ccDyn4AJ.s:124    .text._stats_ctxswc:0000000000000000 $t
     /tmp/ccDyn4AJ.s:129    .text._stats_ctxswc:0000000000000000 _stats_ctxswc
     /tmp/ccDyn4AJ.s:153    .text._stats_ctxswc:000000000000001c $d
     /tmp/ccDyn4AJ.s:158    .text._stats_start_measure_crit_thd:0000000000000000 $t
     /tmp/ccDyn4AJ.s:163    .text._stats_start_measure_crit_thd:0000000000000000 _stats_start_measure_crit_thd
     /tmp/ccDyn4AJ.s:177    .text._stats_start_measure_crit_thd:0000000000000008 $d
     /tmp/ccDyn4AJ.s:182    .text._stats_stop_measure_crit_thd:0000000000000000 $t
     /tmp/ccDyn4AJ.s:187    .text._stats_stop_measure_crit_thd:0000000000000000 _stats_stop_measure_crit_thd
     /tmp/ccDyn4AJ.s:201    .text._stats_stop_measure_crit_thd:0000000000000008 $d
     /tmp/ccDyn4AJ.s:206    .text._stats_start_measure_crit_isr:0000000000000000 $t
     /tmp/ccDyn4AJ.s:211    .text._stats_start_measure_crit_isr:0000000000000000 _stats_start_measure_crit_isr
     /tmp/ccDyn4AJ.s:225    .text._stats_start_measure_crit_isr:0000000000000008 $d
     /tmp/ccDyn4AJ.s:230    .text._stats_stop_measure_crit_isr:0000000000000000 $t
     /tmp/ccDyn4AJ.s:235    .text._stats_stop_measure_crit_isr:0000000000000000 _stats_stop_measure_crit_isr
     /tmp/ccDyn4AJ.s:249    .text._stats_stop_measure_crit_isr:0000000000000008 $d
                     .debug_frame:0000000000000010 $d

UNDEFINED SYMBOLS
chTMObjectInit
ch
chTMChainMeasurementToX
chTMStartMeasurementX
chTMStopMeasurementX
