ARM GAS  /tmp/ccVEFvzq.s 			page 1


   1              		.syntax unified
   2              		.cpu cortex-m4
   3              		.eabi_attribute 27, 1
   4              		.eabi_attribute 28, 1
   5              		.fpu fpv4-sp-d16
   6              		.eabi_attribute 20, 1
   7              		.eabi_attribute 21, 1
   8              		.eabi_attribute 23, 3
   9              		.eabi_attribute 24, 1
  10              		.eabi_attribute 25, 1
  11              		.eabi_attribute 26, 1
  12              		.eabi_attribute 30, 4
  13              		.eabi_attribute 34, 1
  14              		.eabi_attribute 18, 4
  15              		.thumb
  16              		.file	"chtm.c"
  17              		.text
  18              	.Ltext0:
  19              		.cfi_sections	.debug_frame
  20              		.section	.text.chTMObjectInit,"ax",%progbits
  21              		.align	1
  22              		.global	chTMObjectInit
  23              		.thumb
  24              		.thumb_func
  25              		.type	chTMObjectInit, %function
  26              	chTMObjectInit:
  27              	.LFB248:
  28              		.file 1 "../../modules/ChibiOS/os/rt/src/chtm.c"
  29              		.loc 1 97 0
  30              		.cfi_startproc
  31              		@ args = 0, pretend = 0, frame = 0
  32              		@ frame_needed = 0, uses_anonymous_args = 0
  33              		@ link register save eliminated.
  34              	.LVL0:
  35              		.loc 1 99 0
  36 0000 4FF0FF33 		mov	r3, #-1
  37 0004 0360     		str	r3, [r0]
  38              		.loc 1 100 0
  39 0006 0023     		movs	r3, #0
  40 0008 4360     		str	r3, [r0, #4]
  41              		.loc 1 101 0
  42 000a 8360     		str	r3, [r0, #8]
  43              		.loc 1 102 0
  44 000c C360     		str	r3, [r0, #12]
  45              		.loc 1 103 0
  46 000e 0022     		movs	r2, #0
  47 0010 0023     		movs	r3, #0
  48 0012 C0E90423 		strd	r2, [r0, #16]
  49 0016 7047     		bx	lr
  50              		.cfi_endproc
  51              	.LFE248:
  52              		.size	chTMObjectInit, .-chTMObjectInit
  53              		.section	.text.chTMStartMeasurementX,"ax",%progbits
  54              		.align	1
  55              		.global	chTMStartMeasurementX
  56              		.thumb
  57              		.thumb_func
ARM GAS  /tmp/ccVEFvzq.s 			page 2


  58              		.type	chTMStartMeasurementX, %function
  59              	chTMStartMeasurementX:
  60              	.LFB249:
  61              		.loc 1 114 0
  62              		.cfi_startproc
  63              		@ args = 0, pretend = 0, frame = 0
  64              		@ frame_needed = 0, uses_anonymous_args = 0
  65              		@ link register save eliminated.
  66              	.LVL1:
  67              	.LBB8:
  68              	.LBB9:
  69              		.file 2 "../../modules/ChibiOS/os/common/ports/ARMCMx/chcore_v7m.h"
  70              		.loc 2 708 0
  71 0000 014B     		ldr	r3, .L3
  72 0002 5B68     		ldr	r3, [r3, #4]
  73              	.LBE9:
  74              	.LBE8:
  75              		.loc 1 116 0
  76 0004 8360     		str	r3, [r0, #8]
  77 0006 7047     		bx	lr
  78              	.L4:
  79              		.align	2
  80              	.L3:
  81 0008 001000E0 		.word	-536866816
  82              		.cfi_endproc
  83              	.LFE249:
  84              		.size	chTMStartMeasurementX, .-chTMStartMeasurementX
  85              		.section	.text.chTMStopMeasurementX,"ax",%progbits
  86              		.align	1
  87              		.global	chTMStopMeasurementX
  88              		.thumb
  89              		.thumb_func
  90              		.type	chTMStopMeasurementX, %function
  91              	chTMStopMeasurementX:
  92              	.LFB250:
  93              		.loc 1 127 0
  94              		.cfi_startproc
  95              		@ args = 0, pretend = 0, frame = 0
  96              		@ frame_needed = 0, uses_anonymous_args = 0
  97              	.LVL2:
  98              	.LBB14:
  99              	.LBB15:
 100              		.loc 2 708 0
 101 0000 0E4B     		ldr	r3, .L8
 102              	.LBE15:
 103              	.LBE14:
 104              	.LBB17:
 105              	.LBB18:
 106              		.loc 1 57 0
 107 0002 C168     		ldr	r1, [r0, #12]
 108              	.LBE18:
 109              	.LBE17:
 110              	.LBB20:
 111              	.LBB16:
 112              		.loc 2 708 0
 113 0004 5A68     		ldr	r2, [r3, #4]
 114              	.LBE16:
ARM GAS  /tmp/ccVEFvzq.s 			page 3


 115              	.LBE20:
 116              		.loc 1 129 0
 117 0006 0E4B     		ldr	r3, .L8+4
 118              		.loc 1 127 0
 119 0008 30B5     		push	{r4, r5, lr}
 120              		.cfi_def_cfa_offset 12
 121              		.cfi_offset 4, -12
 122              		.cfi_offset 5, -8
 123              		.cfi_offset 14, -4
 124              		.loc 1 129 0
 125 000a D3F89040 		ldr	r4, [r3, #144]
 126              	.LVL3:
 127              	.LBB21:
 128              	.LBB19:
 129              		.loc 1 58 0
 130 000e 8368     		ldr	r3, [r0, #8]
 131 0010 D31A     		subs	r3, r2, r3
 132 0012 1B1B     		subs	r3, r3, r4
 133              		.loc 1 59 0
 134 0014 D0E90445 		ldrd	r4, [r0, #16]
 135              	.LVL4:
 136              		.loc 1 60 0
 137 0018 4268     		ldr	r2, [r0, #4]
 138              	.LVL5:
 139              		.loc 1 58 0
 140 001a 8360     		str	r3, [r0, #8]
 141              		.loc 1 59 0
 142 001c E418     		adds	r4, r4, r3
 143 001e 45F10005 		adc	r5, r5, #0
 144              		.loc 1 60 0
 145 0022 9342     		cmp	r3, r2
 146              		.loc 1 63 0
 147 0024 0268     		ldr	r2, [r0]
 148              		.loc 1 61 0
 149 0026 88BF     		it	hi
 150 0028 4360     		strhi	r3, [r0, #4]
 151              		.loc 1 57 0
 152 002a 0131     		adds	r1, r1, #1
 153              		.loc 1 63 0
 154 002c 9342     		cmp	r3, r2
 155              		.loc 1 57 0
 156 002e C160     		str	r1, [r0, #12]
 157              		.loc 1 59 0
 158 0030 C0E90445 		strd	r4, [r0, #16]
 159              		.loc 1 64 0
 160 0034 38BF     		it	cc
 161 0036 0360     		strcc	r3, [r0]
 162 0038 30BD     		pop	{r4, r5, pc}
 163              	.L9:
 164 003a 00BF     		.align	2
 165              	.L8:
 166 003c 001000E0 		.word	-536866816
 167 0040 00000000 		.word	ch
 168              	.LBE19:
 169              	.LBE21:
 170              		.cfi_endproc
 171              	.LFE250:
ARM GAS  /tmp/ccVEFvzq.s 			page 4


 172              		.size	chTMStopMeasurementX, .-chTMStopMeasurementX
 173              		.section	.text._tm_init,"ax",%progbits
 174              		.align	1
 175              		.global	_tm_init
 176              		.thumb
 177              		.thumb_func
 178              		.type	_tm_init, %function
 179              	_tm_init:
 180              	.LFB247:
 181              		.loc 1 77 0
 182              		.cfi_startproc
 183              		@ args = 0, pretend = 0, frame = 24
 184              		@ frame_needed = 0, uses_anonymous_args = 0
 185 0000 10B5     		push	{r4, lr}
 186              		.cfi_def_cfa_offset 8
 187              		.cfi_offset 4, -8
 188              		.cfi_offset 14, -4
 189              		.loc 1 83 0
 190 0002 094C     		ldr	r4, .L11
 191              		.loc 1 77 0
 192 0004 86B0     		sub	sp, sp, #24
 193              		.cfi_def_cfa_offset 32
 194              		.loc 1 83 0
 195 0006 0023     		movs	r3, #0
 196              		.loc 1 84 0
 197 0008 6846     		mov	r0, sp
 198              		.loc 1 83 0
 199 000a C4F89030 		str	r3, [r4, #144]
 200              		.loc 1 84 0
 201 000e FFF7FEFF 		bl	chTMObjectInit
 202              	.LVL6:
 203              		.loc 1 85 0
 204 0012 6846     		mov	r0, sp
 205 0014 FFF7FEFF 		bl	chTMStartMeasurementX
 206              	.LVL7:
 207              		.loc 1 86 0
 208 0018 6846     		mov	r0, sp
 209 001a FFF7FEFF 		bl	chTMStopMeasurementX
 210              	.LVL8:
 211              		.loc 1 87 0
 212 001e 029B     		ldr	r3, [sp, #8]
 213 0020 C4F89030 		str	r3, [r4, #144]
 214              		.loc 1 88 0
 215 0024 06B0     		add	sp, sp, #24
 216              		.cfi_def_cfa_offset 8
 217              		@ sp needed
 218 0026 10BD     		pop	{r4, pc}
 219              	.L12:
 220              		.align	2
 221              	.L11:
 222 0028 00000000 		.word	ch
 223              		.cfi_endproc
 224              	.LFE247:
 225              		.size	_tm_init, .-_tm_init
 226              		.section	.text.chTMChainMeasurementToX,"ax",%progbits
 227              		.align	1
 228              		.global	chTMChainMeasurementToX
ARM GAS  /tmp/ccVEFvzq.s 			page 5


 229              		.thumb
 230              		.thumb_func
 231              		.type	chTMChainMeasurementToX, %function
 232              	chTMChainMeasurementToX:
 233              	.LFB251:
 234              		.loc 1 145 0
 235              		.cfi_startproc
 236              		@ args = 0, pretend = 0, frame = 0
 237              		@ frame_needed = 0, uses_anonymous_args = 0
 238              	.LVL9:
 239              	.LBB26:
 240              	.LBB27:
 241              		.loc 2 708 0
 242 0000 0C4B     		ldr	r3, .L16
 243              	.LBE27:
 244              	.LBE26:
 245              	.LBB29:
 246              	.LBB30:
 247              		.loc 1 57 0
 248 0002 C268     		ldr	r2, [r0, #12]
 249              	.LBE30:
 250              	.LBE29:
 251              	.LBB33:
 252              	.LBB28:
 253              		.loc 2 708 0
 254 0004 5B68     		ldr	r3, [r3, #4]
 255              	.LBE28:
 256              	.LBE33:
 257              		.loc 1 145 0
 258 0006 30B5     		push	{r4, r5, lr}
 259              		.cfi_def_cfa_offset 12
 260              		.cfi_offset 4, -12
 261              		.cfi_offset 5, -8
 262              		.cfi_offset 14, -4
 263              	.LBB34:
 264              	.LBB31:
 265              		.loc 1 57 0
 266 0008 0132     		adds	r2, r2, #1
 267              	.LBE31:
 268              	.LBE34:
 269              		.loc 1 148 0
 270 000a 8B60     		str	r3, [r1, #8]
 271              	.LVL10:
 272              	.LBB35:
 273              	.LBB32:
 274              		.loc 1 59 0
 275 000c D0E90445 		ldrd	r4, [r0, #16]
 276              		.loc 1 57 0
 277 0010 C260     		str	r2, [r0, #12]
 278              		.loc 1 58 0
 279 0012 8268     		ldr	r2, [r0, #8]
 280 0014 9B1A     		subs	r3, r3, r2
 281              	.LVL11:
 282              		.loc 1 60 0
 283 0016 4268     		ldr	r2, [r0, #4]
 284              		.loc 1 58 0
 285 0018 8360     		str	r3, [r0, #8]
ARM GAS  /tmp/ccVEFvzq.s 			page 6


 286              	.LVL12:
 287              		.loc 1 59 0
 288 001a E418     		adds	r4, r4, r3
 289 001c 45F10005 		adc	r5, r5, #0
 290              		.loc 1 60 0
 291 0020 9342     		cmp	r3, r2
 292              		.loc 1 63 0
 293 0022 0268     		ldr	r2, [r0]
 294              		.loc 1 61 0
 295 0024 88BF     		it	hi
 296 0026 4360     		strhi	r3, [r0, #4]
 297              		.loc 1 63 0
 298 0028 9342     		cmp	r3, r2
 299              		.loc 1 59 0
 300 002a C0E90445 		strd	r4, [r0, #16]
 301              		.loc 1 64 0
 302 002e 38BF     		it	cc
 303 0030 0360     		strcc	r3, [r0]
 304 0032 30BD     		pop	{r4, r5, pc}
 305              	.L17:
 306              		.align	2
 307              	.L16:
 308 0034 001000E0 		.word	-536866816
 309              	.LBE32:
 310              	.LBE35:
 311              		.cfi_endproc
 312              	.LFE251:
 313              		.size	chTMChainMeasurementToX, .-chTMChainMeasurementToX
 314              		.text
 315              	.Letext0:
 316              		.file 3 "/usr/include/newlib/machine/_default_types.h"
 317              		.file 4 "/usr/include/newlib/sys/_stdint.h"
 318              		.file 5 "../../modules/ChibiOS/os/common/ports/ARMCMx/compilers/GCC/chtypes.h"
 319              		.file 6 "../../modules/ChibiOS/os/rt/include/chsystypes.h"
 320              		.file 7 "../../modules/ChibiOS/os/rt/include/chschd.h"
 321              		.file 8 "../../modules/ChibiOS/os/common/ext/CMSIS/include/core_cm4.h"
 322              		.file 9 "../../modules/ChibiOS/os/common/ports/ARMCMx/chcore.h"
 323              		.file 10 "../../modules/ChibiOS/os/rt/include/chtm.h"
 324              		.file 11 "../../modules/ChibiOS/os/rt/include/chstats.h"
 325              		.file 12 "../../modules/ChibiOS/os/rt/include/chsem.h"
 326              		.file 13 "../../modules/ChibiOS/os/rt/include/chmtx.h"