ARM GAS  /tmp/ccKjFdwr.s 			page 1


   1              		.syntax unified
   2              		.cpu cortex-m4
   3              		.eabi_attribute 27, 1
   4              		.eabi_attribute 28, 1
   5              		.fpu fpv4-sp-d16
   6              		.eabi_attribute 20, 1
   7              		.eabi_attribute 21, 1
   8              		.eabi_attribute 23, 3
   9              		.eabi_attribute 24, 1
  10              		.eabi_attribute 25, 1
  11              		.eabi_attribute 26, 1
  12              		.eabi_attribute 30, 4
  13              		.eabi_attribute 34, 1
  14              		.eabi_attribute 18, 4
  15              		.thumb
  16              		.file	"chvt.c"
  17              		.text
  18              	.Ltext0:
  19              		.cfi_sections	.debug_frame
  20              		.section	.text._vt_init,"ax",%progbits
  21              		.align	1
  22              		.global	_vt_init
  23              		.thumb
  24              		.thumb_func
  25              		.type	_vt_init, %function
  26              	_vt_init:
  27              	.LFB246:
  28              		.file 1 "../../modules/ChibiOS/os/rt/src/chvt.c"
  29              		.loc 1 61 0
  30              		.cfi_startproc
  31              		@ args = 0, pretend = 0, frame = 0
  32              		@ frame_needed = 0, uses_anonymous_args = 0
  33              		@ link register save eliminated.
  34              		.loc 1 63 0
  35 0000 054B     		ldr	r3, .L2
  36 0002 03F11C02 		add	r2, r3, #28
  37 0006 DA61     		str	r2, [r3, #28]
  38              		.loc 1 64 0
  39 0008 1A62     		str	r2, [r3, #32]
  40              		.loc 1 65 0
  41 000a 4FF0FF32 		mov	r2, #-1
  42 000e 5A62     		str	r2, [r3, #36]
  43              		.loc 1 69 0
  44 0010 0022     		movs	r2, #0
  45 0012 9A62     		str	r2, [r3, #40]
  46 0014 7047     		bx	lr
  47              	.L3:
  48 0016 00BF     		.align	2
  49              	.L2:
  50 0018 00000000 		.word	ch
  51              		.cfi_endproc
  52              	.LFE246:
  53              		.size	_vt_init, .-_vt_init
  54              		.section	.text.chVTDoSetI,"ax",%progbits
  55              		.align	1
  56              		.global	chVTDoSetI
  57              		.thumb
ARM GAS  /tmp/ccKjFdwr.s 			page 2


  58              		.thumb_func
  59              		.type	chVTDoSetI, %function
  60              	chVTDoSetI:
  61              	.LFB247:
  62              		.loc 1 96 0
  63              		.cfi_startproc
  64              		@ args = 0, pretend = 0, frame = 0
  65              		@ frame_needed = 0, uses_anonymous_args = 0
  66              	.LVL0:
  67 0000 F8B5     		push	{r3, r4, r5, r6, r7, lr}
  68              		.cfi_def_cfa_offset 24
  69              		.cfi_offset 3, -24
  70              		.cfi_offset 4, -20
  71              		.cfi_offset 5, -16
  72              		.cfi_offset 6, -12
  73              		.cfi_offset 7, -8
  74              		.cfi_offset 14, -4
  75              		.loc 1 103 0
  76 0002 0361     		str	r3, [r0, #16]
  77              	.LBB27:
  78              	.LBB28:
  79              	.LBB29:
  80              	.LBB30:
  81              	.LBB31:
  82              		.file 2 "../../modules/ChibiOS/os/hal/ports/STM32/LLD/TIMv1/hal_st_lld.h"
  83              		.loc 2 141 0
  84 0004 1A4B     		ldr	r3, .L12
  85              	.LVL1:
  86              	.LBE31:
  87              	.LBE30:
  88              	.LBE29:
  89              	.LBE28:
  90              	.LBE27:
  91              		.loc 1 104 0
  92 0006 C260     		str	r2, [r0, #12]
  93              	.LBB42:
  94              	.LBB35:
  95              	.LBB34:
  96              	.LBB33:
  97              	.LBB32:
  98              		.loc 2 141 0
  99 0008 5C6A     		ldr	r4, [r3, #36]
 100              	.LBE32:
 101              	.LBE33:
 102              	.LBE34:
 103              	.LBE35:
 104              		.loc 1 117 0
 105 000a 1A4B     		ldr	r3, .L12+4
 106 000c 1A46     		mov	r2, r3
 107              	.LVL2:
 108              		.loc 1 113 0
 109 000e 0129     		cmp	r1, #1
 110 0010 98BF     		it	ls
 111 0012 0221     		movls	r1, #2
 112              	.LVL3:
 113              		.loc 1 117 0
 114 0014 52F81C5F 		ldr	r5, [r2, #28]!
ARM GAS  /tmp/ccKjFdwr.s 			page 3


 115 0018 9542     		cmp	r5, r2
 116              	.LBE42:
 117              		.loc 1 96 0
 118 001a 0646     		mov	r6, r0
 119 001c 1F46     		mov	r7, r3
 120              	.LBB43:
 121              		.loc 1 117 0
 122 001e 0AD1     		bne	.L6
 123              		.loc 1 122 0
 124 0020 D861     		str	r0, [r3, #28]
 125              		.loc 1 123 0
 126 0022 1862     		str	r0, [r3, #32]
 127              		.loc 1 121 0
 128 0024 9C62     		str	r4, [r3, #40]
 129              		.loc 1 124 0
 130 0026 0560     		str	r5, [r0]
 131              		.loc 1 125 0
 132 0028 4560     		str	r5, [r0, #4]
 133              		.loc 1 126 0
 134 002a 8160     		str	r1, [r0, #8]
 135              	.LVL4:
 136              	.LBB36:
 137              	.LBB37:
 138              		.file 3 "../../modules/ChibiOS/os/common/ports/ARMCMx/chcore_timer.h"
 139              		.loc 3 73 0
 140 002c 0819     		adds	r0, r1, r4
 141              	.LVL5:
 142              	.LBE37:
 143              	.LBE36:
 144              	.LBE43:
 145              		.loc 1 180 0
 146 002e BDE8F840 		pop	{r3, r4, r5, r6, r7, lr}
 147              		.cfi_remember_state
 148              		.cfi_restore 14
 149              		.cfi_restore 7
 150              		.cfi_restore 6
 151              		.cfi_restore 5
 152              		.cfi_restore 4
 153              		.cfi_restore 3
 154              		.cfi_def_cfa_offset 0
 155              	.LVL6:
 156              	.LBB44:
 157              	.LBB39:
 158              	.LBB38:
 159              		.loc 3 73 0
 160 0032 FFF7FEBF 		b	stStartAlarm
 161              	.LVL7:
 162              	.L6:
 163              		.cfi_restore_state
 164              	.LBE38:
 165              	.LBE39:
 166              		.loc 1 139 0
 167 0036 986A     		ldr	r0, [r3, #40]
 168              	.LVL8:
 169 0038 AB68     		ldr	r3, [r5, #8]
 170 003a 241A     		subs	r4, r4, r0
 171              	.LVL9:
ARM GAS  /tmp/ccKjFdwr.s 			page 4


 172              		.loc 1 141 0
 173 003c 0C19     		adds	r4, r1, r4
 174              	.LVL10:
 175 003e 05D2     		bcs	.L10
 176              		.loc 1 148 0
 177 0040 9C42     		cmp	r4, r3
 178 0042 05D2     		bcs	.L8
 179              	.LVL11:
 180              	.LBB40:
 181              	.LBB41:
 182              		.loc 3 95 0
 183 0044 2044     		add	r0, r0, r4
 184              	.LVL12:
 185 0046 FFF7FEFF 		bl	stSetAlarm
 186              	.LVL13:
 187 004a 01E0     		b	.L8
 188              	.L10:
 189              	.LBE41:
 190              	.LBE40:
 191              	.LBE44:
 192              		.loc 1 166 0
 193 004c 2D68     		ldr	r5, [r5]
 194              	.LVL14:
 195              		.loc 1 165 0
 196 004e E41A     		subs	r4, r4, r3
 197              	.LVL15:
 198              	.L8:
 199              		.loc 1 164 0
 200 0050 AB68     		ldr	r3, [r5, #8]
 201 0052 A342     		cmp	r3, r4
 202 0054 FAD3     		bcc	.L10
 203              		.loc 1 171 0
 204 0056 6B68     		ldr	r3, [r5, #4]
 205 0058 7360     		str	r3, [r6, #4]
 206              		.loc 1 170 0
 207 005a 3560     		str	r5, [r6]
 208              		.loc 1 172 0
 209 005c 1E60     		str	r6, [r3]
 210              		.loc 1 173 0
 211 005e 6E60     		str	r6, [r5, #4]
 212              		.loc 1 174 0
 213 0060 B460     		str	r4, [r6, #8]
 214              		.loc 1 178 0
 215 0062 A968     		ldr	r1, [r5, #8]
 216              		.loc 1 179 0
 217 0064 4FF0FF33 		mov	r3, #-1
 218              		.loc 1 178 0
 219 0068 091B     		subs	r1, r1, r4
 220 006a A960     		str	r1, [r5, #8]
 221              		.loc 1 179 0
 222 006c 7B62     		str	r3, [r7, #36]
 223 006e F8BD     		pop	{r3, r4, r5, r6, r7, pc}
 224              	.LVL16:
 225              	.L13:
 226              		.align	2
 227              	.L12:
 228 0070 000C0040 		.word	1073744896
ARM GAS  /tmp/ccKjFdwr.s 			page 5


 229 0074 00000000 		.word	ch
 230              		.cfi_endproc
 231              	.LFE247:
 232              		.size	chVTDoSetI, .-chVTDoSetI
 233              		.section	.text.chVTDoResetI,"ax",%progbits
 234              		.align	1
 235              		.global	chVTDoResetI
 236              		.thumb
 237              		.thumb_func
 238              		.type	chVTDoResetI, %function
 239              	chVTDoResetI:
 240              	.LFB248:
 241              		.loc 1 190 0
 242              		.cfi_startproc
 243              		@ args = 0, pretend = 0, frame = 0
 244              		@ frame_needed = 0, uses_anonymous_args = 0
 245              	.LVL17:
 246 0000 10B5     		push	{r4, lr}
 247              		.cfi_def_cfa_offset 8
 248              		.cfi_offset 4, -8
 249              		.cfi_offset 14, -4
 250              		.loc 1 214 0
 251 0002 1A4C     		ldr	r4, .L21
 252 0004 2346     		mov	r3, r4
 253 0006 53F81C2F 		ldr	r2, [r3, #28]!
 254 000a 8242     		cmp	r2, r0
 255 000c 0ED0     		beq	.L15
 256              		.loc 1 216 0
 257 000e 4168     		ldr	r1, [r0, #4]
 258 0010 0268     		ldr	r2, [r0]
 259 0012 0A60     		str	r2, [r1]
 260              		.loc 1 217 0
 261 0014 0268     		ldr	r2, [r0]
 262 0016 5160     		str	r1, [r2, #4]
 263              		.loc 1 221 0
 264 0018 9A42     		cmp	r2, r3
 265              		.loc 1 218 0
 266 001a 4FF00001 		mov	r1, #0
 267 001e C160     		str	r1, [r0, #12]
 268              		.loc 1 221 0
 269 0020 22D0     		beq	.L14
 270              		.loc 1 222 0
 271 0022 9168     		ldr	r1, [r2, #8]
 272 0024 8368     		ldr	r3, [r0, #8]
 273 0026 0B44     		add	r3, r3, r1
 274 0028 9360     		str	r3, [r2, #8]
 275 002a 10BD     		pop	{r4, pc}
 276              	.L15:
 277              		.loc 1 228 0
 278 002c 1168     		ldr	r1, [r2]
 279 002e E161     		str	r1, [r4, #28]
 280              		.loc 1 230 0
 281 0030 0020     		movs	r0, #0
 282              	.LVL18:
 283              		.loc 1 233 0
 284 0032 9942     		cmp	r1, r3
 285              		.loc 1 229 0
ARM GAS  /tmp/ccKjFdwr.s 			page 6


 286 0034 4B60     		str	r3, [r1, #4]
 287              		.loc 1 230 0
 288 0036 D060     		str	r0, [r2, #12]
 289              		.loc 1 233 0
 290 0038 03D1     		bne	.L18
 291              		.loc 1 268 0
 292 003a BDE81040 		pop	{r4, lr}
 293              		.cfi_remember_state
 294              		.cfi_restore 14
 295              		.cfi_restore 4
 296              		.cfi_def_cfa_offset 0
 297              	.LBB45:
 298              	.LBB46:
 299              		.loc 3 83 0
 300 003e FFF7FEBF 		b	stStopAlarm
 301              	.LVL19:
 302              	.L18:
 303              		.cfi_restore_state
 304              	.LBE46:
 305              	.LBE45:
 306              		.loc 1 240 0
 307 0042 8B68     		ldr	r3, [r1, #8]
 308 0044 9268     		ldr	r2, [r2, #8]
 309 0046 1A44     		add	r2, r2, r3
 310              	.LBB47:
 311              	.LBB48:
 312              	.LBB49:
 313              	.LBB50:
 314              		.loc 2 141 0
 315 0048 094B     		ldr	r3, .L21+4
 316              	.LBE50:
 317              	.LBE49:
 318              	.LBE48:
 319              	.LBE47:
 320              		.loc 1 240 0
 321 004a 8A60     		str	r2, [r1, #8]
 322              	.LBB54:
 323              	.LBB53:
 324              	.LBB52:
 325              	.LBB51:
 326              		.loc 2 141 0
 327 004c 586A     		ldr	r0, [r3, #36]
 328              	.LBE51:
 329              	.LBE52:
 330              	.LBE53:
 331              	.LBE54:
 332              		.loc 1 249 0
 333 004e A36A     		ldr	r3, [r4, #40]
 334 0050 C31A     		subs	r3, r0, r3
 335              	.LVL20:
 336              		.loc 1 253 0
 337 0052 9342     		cmp	r3, r2
 338 0054 08D2     		bcs	.L14
 339              		.loc 1 258 0
 340 0056 D31A     		subs	r3, r2, r3
 341              	.LVL21:
 342              		.loc 1 263 0
ARM GAS  /tmp/ccKjFdwr.s 			page 7


 343 0058 012B     		cmp	r3, #1
 344 005a 98BF     		it	ls
 345 005c 0223     		movls	r3, #2
 346              	.LVL22:
 347              	.LBB55:
 348              	.LBB56:
 349              		.loc 3 95 0
 350 005e 1844     		add	r0, r0, r3
 351              	.LVL23:
 352              	.LBE56:
 353              	.LBE55:
 354              		.loc 1 268 0
 355 0060 BDE81040 		pop	{r4, lr}
 356              		.cfi_remember_state
 357              		.cfi_restore 14
 358              		.cfi_restore 4
 359              		.cfi_def_cfa_offset 0
 360              	.LBB58:
 361              	.LBB57:
 362              		.loc 3 95 0
 363 0064 FFF7FEBF 		b	stSetAlarm
 364              	.LVL24:
 365              	.L14:
 366              		.cfi_restore_state
 367 0068 10BD     		pop	{r4, pc}
 368              	.L22:
 369 006a 00BF     		.align	2
 370              	.L21:
 371 006c 00000000 		.word	ch
 372 0070 000C0040 		.word	1073744896
 373              	.LBE57:
 374              	.LBE58:
 375              		.cfi_endproc
 376              	.LFE248:
 377              		.size	chVTDoResetI, .-chVTDoResetI
 378              		.text
 379              	.Letext0:
 380              		.file 4 "/usr/include/newlib/machine/_default_types.h"
 381              		.file 5 "/usr/include/newlib/sys/_stdint.h"
 382              		.file 6 "../../modules/ChibiOS/os/common/ports/ARMCMx/compilers/GCC/chtypes.h"
 383              		.file 7 "../../modules/ChibiOS/os/rt/include/chsystypes.h"
 384              		.file 8 "../../modules/ChibiOS/os/rt/include/chschd.h"
 385              		.file 9 "../../modules/ChibiOS/os/common/ports/ARMCMx/chcore.h"
 386              		.file 10 "../../modules/ChibiOS/os/common/ports/ARMCMx/chcore_v7m.h"
 387              		.file 11 "../../modules/ChibiOS/os/hal/ports/STM32/LLD/TIMv1/stm32_tim.h"
 388              		.file 12 "../../modules/ChibiOS/os/rt/include/chtm.h"
 389              		.file 13 "../../modules/ChibiOS/os/rt/include/chstats.h"
 390              		.file 14 "../../modules/ChibiOS/os/rt/include/chsem.h"
 391              		.file 15 "../../modules/ChibiOS/os/rt/include/chmtx.h"
 392              		.file 16 "../../modules/ChibiOS/os/rt/include/chvt.h"
 393              		.file 17 "../../modules/ChibiOS/os/hal/include/hal_st.h"
 394              		.file 18 "../../modules/ChibiOS/os/common/ext/CMSIS/include/core_cm4.h"