ARM GAS  /tmp/ccKjFdwr.s 			page 1


   1              		.syntax unified
   2              		.cpu cortex-m4
   3              		.eabi_attribute 27, 1
   4              		.eabi_attribute 28, 1
   5              		.fpu fpv4-sp-d16
   6              		.eabi_attribute 20, 1
   7              		.eabi_attribute 21, 1
   8              		.eabi_attribute 23, 3
   9              		.eabi_attribute 24, 1
  10              		.eabi_attribute 25, 1
  11              		.eabi_attribute 26, 1
  12              		.eabi_attribute 30, 4
  13              		.eabi_attribute 34, 1
  14              		.eabi_attribute 18, 4
  15              		.thumb
  16              		.file	"chvt.c"
  17              		.text
  18              	.Ltext0:
  19              		.cfi_sections	.debug_frame
  20              		.section	.text._vt_init,"ax",%progbits
  21              		.align	1
  22              		.global	_vt_init
  23              		.thumb
  24              		.thumb_func
  25              		.type	_vt_init, %function
  26              	_vt_init:
  27              	.LFB246:
  28              		.file 1 "../../modules/ChibiOS/os/rt/src/chvt.c"
  29              		.loc 1 61 0
  30              		.cfi_startproc
  31              		@ args = 0, pretend = 0, frame = 0
  32              		@ frame_needed = 0, uses_anonymous_args = 0
  33              		@ link register save eliminated.
  34              		.loc 1 63 0
  35 0000 054B     		ldr	r3, .L2
  36 0002 03F11C02 		add	r2, r3, #28
  37 0006 DA61     		str	r2, [r3, #28]
  38              		.loc 1 64 0
  39 0008 1A62     		str	r2, [r3, #32]
  40              		.loc 1 65 0
  41 000a 4FF0FF32 		mov	r2, #-1
  42 000e 5A62     		str	r2, [r3, #36]
  43              		.loc 1 69 0
  44 0010 0022     		movs	r2, #0
  45 0012 9A62     		str	r2, [r3, #40]
  46 0014 7047     		bx	lr
  47              	.L3:
  48 0016 00BF     		.align	2
  49              	.L2:
  50 0018 00000000 		.word	ch
  51              		.cfi_endproc
  52              	.LFE246:
  53              		.size	_vt_init, .-_vt_init
  54              		.section	.text.chVTDoSetI,"ax",%progbits
  55              		.align	1
  56              		.global	chVTDoSetI
  57              		.thumb
ARM GAS  /tmp/ccKjFdwr.s 			page 2


  58              		.thumb_func
  59              		.type	chVTDoSetI, %function
  60              	chVTDoSetI:
  61              	.LFB247:
  62              		.loc 1 96 0
  63              		.cfi_startproc
  64              		@ args = 0, pretend = 0, frame = 0
  65              		@ frame_needed = 0, uses_anonymous_args = 0
  66              	.LVL0:
  67 0000 F8B5     		push	{r3, r4, r5, r6, r7, lr}
  68              		.cfi_def_cfa_offset 24
  69              		.cfi_offset 3, -24
  70              		.cfi_offset 4, -20
  71              		.cfi_offset 5, -16
  72              		.cfi_offset 6, -12
  73              		.cfi_offset 7, -8
  74              		.cfi_offset 14, -4
  75              		.loc 1 103 0
  76 0002 0361     		str	r3, [r0, #16]
  77              	.LBB27:
  78              	.LBB28:
  79              	.LBB29:
  80              	.LBB30:
  81              	.LBB31:
  82              		.file 2 "../../modules/ChibiOS/os/hal/ports/STM32/LLD/TIMv1/hal_st_lld.h"
  83              		.loc 2 141 0
  84 0004 1A4B     		ldr	r3, .L12
  85              	.LVL1:
  86              	.LBE31:
  87              	.LBE30:
  88              	.LBE29:
  89              	.LBE28:
  90              	.LBE27:
  91              		.loc 1 104 0
  92 0006 C260     		str	r2, [r0, #12]
  93              	.LBB42:
  94              	.LBB35:
  95              	.LBB34:
  96              	.LBB33:
  97              	.LBB32:
  98              		.loc 2 141 0
  99 0008 5C6A     		ldr	r4, [r3, #36]
 100              	.LBE32:
 101              	.LBE33:
 102              	.LBE34:
 103              	.LBE35:
 104              		.loc 1 117 0
 105 000a 1A4B     		ldr	r3, .L12+4
 106 000c 1A46     		mov	r2, r3
 107              	.LVL2:
 108              		.loc 1 113 0
 109 000e 0129     		cmp	r1, #1
 110 0010 98BF     		it	ls
 111 0012 0221     		movls	r1, #2
 112              	.LVL3:
 113              		.loc 1 117 0
 114 0014 52F81C5F 		ldr	r5, [r2, #28]!
ARM GAS  /tmp/ccKjFdwr.s 			page 3


 115 0018 9542     		cmp	r5, r2
 116              	.LBE42:
 117              		.loc 1 96 0
 118 001a 0646     		mov	r6, r0
 119 001c 1F46     		mov	r7, r3
 120              	.LBB43:
 121              		.loc 1 117 0
 122 001e 0AD1     		bne	.L6
 123              		.loc 1 122 0
 124 0020 D861     		str	r0, [r3, #28]
 125              		.loc 1 123 0
 126 0022 1862     		str	r0, [r3, #32]
 127              		.loc 1 121 0
 128 0024 9C62     		str	r4, [r3, #40]
 129              		.loc 1 124 0
 130 0026 0560     		str	r5, [r0]
 131              		.loc 1 125 0
 132 0028 4560     		str	r5, [r0, #4]
 133              		.loc 1 126 0
 134 002a 8160     		str	r1, [r0, #8]
 135              	.LVL4:
 136              	.LBB36:
 137              	.LBB37:
 138              		.file 3 "../../modules/ChibiOS/os/common/ports/ARMCMx/chcore_timer.h"
 139              		.loc 3 73 0
 140 002c 0819     		adds	r0, r1, r4
 141              	.LVL5:
 142              	.LBE37:
 143              	.LBE36:
 144              	.LBE43:
 145              		.loc 1 180 0
 146 002e BDE8F840 		pop	{r3, r4, r5, r6, r7, lr}
 147              		.cfi_remember_state
 148              		.cfi_restore 14
 149              		.cfi_restore 7
 150              		.cfi_restore 6
 151              		.cfi_restore 5
 152              		.cfi_restore 4
 153              		.cfi_restore 3
 154              		.cfi_def_cfa_offset 0
 155              	.LVL6:
 156              	.LBB44:
 157              	.LBB39:
 158              	.LBB38:
 159              		.loc 3 73 0
 160 0032 FFF7FEBF 		b	stStartAlarm
 161              	.LVL7:
 162              	.L6:
 163              		.cfi_restore_state
 164              	.LBE38:
 165              	.LBE39:
 166              		.loc 1 139 0
 167 0036 986A     		ldr	r0, [r3, #40]
 168              	.LVL8:
 169 0038 AB68     		ldr	r3, [r5, #8]
 170 003a 241A     		subs	r4, r4, r0
 171              	.LVL9:
ARM GAS  /tmp/ccKjFdwr.s 			page 4


 172              		.loc 1 141 0
 173 003c 0C19     		adds	r4, r1, r4
 174              	.LVL10:
 175 003e 05D2     		bcs	.L10
 176              		.loc 1 148 0
 177 0040 9C42     		cmp	r4, r3
 178 0042 05D2     		bcs	.L8
 179              	.LVL11:
 180              	.LBB40:
 181              	.LBB41:
 182              		.loc 3 95 0
 183 0044 2044     		add	r0, r0, r4
 184              	.LVL12:
 185 0046 FFF7FEFF 		bl	stSetAlarm
 186              	.LVL13:
 187 004a 01E0     		b	.L8
 188              	.L10:
 189              	.LBE41:
 190              	.LBE40:
 191              	.LBE44:
 192              		.loc 1 166 0
 193 004c 2D68     		ldr	r5, [r5]
 194              	.LVL14:
 195              		.loc 1 165 0
 196 004e E41A     		subs	r4, r4, r3
 197              	.LVL15:
 198              	.L8:
 199              		.loc 1 164 0
 200 0050 AB68     		ldr	r3, [r5, #8]
 201 0052 A342     		cmp	r3, r4
 202 0054 FAD3     		bcc	.L10
 203              		.loc 1 171 0
 204 0056 6B68     		ldr	r3, [r5, #4]
 205 0058 7360     		str	r3, [r6, #4]
 206              		.loc 1 170 0
 207 005a 3560     		str	r5, [r6]
 208              		.loc 1 172 0
 209 005c 1E60     		str	r6, [r3]
 210              		.loc 1 173 0
 211 005e 6E60     		str	r6, [r5, #4]
 212              		.loc 1 174 0
 213 0060 B460     		str	r4, [r6, #8]
 214              		.loc 1 178 0
 215 0062 A968     		ldr	r1, [r5, #8]
 216              		.loc 1 179 0
 217 0064 4FF0FF33 		mov	r3, #-1
 218              		.loc 1 178 0
 219 0068 091B     		subs	r1, r1, r4
 220 006a A960     		str	r1, [r5, #8]
 221              		.loc 1 179 0
 222 006c 7B62     		str	r3, [r7, #36]
 223 006e F8BD     		pop	{r3, r4, r5, r6, r7, pc}
 224              	.LVL16:
 225              	.L13:
 226              		.align	2
 227              	.L12:
 228 0070 000C0040 		.word	1073744896
ARM GAS  /tmp/ccKjFdwr.s 			page 5


 229 0074 00000000 		.word	ch
 230              		.cfi_endproc
 231              	.LFE247:
 232              		.size	chVTDoSetI, .-chVTDoSetI
 233              		.section	.text.chVTDoResetI,"ax",%progbits
 234              		.align	1
 235              		.global	chVTDoResetI
 236              		.thumb
 237              		.thumb_func
 238              		.type	chVTDoResetI, %function
 239              	chVTDoResetI:
 240              	.LFB248:
 241              		.loc 1 190 0
 242              		.cfi_startproc
 243              		@ args = 0, pretend = 0, frame = 0
 244              		@ frame_needed = 0, uses_anonymous_args = 0
 245              	.LVL17:
 246 0000 10B5     		push	{r4, lr}
 247              		.cfi_def_cfa_offset 8
 248              		.cfi_offset 4, -8
 249              		.cfi_offset 14, -4
 250              		.loc 1 214 0
 251 0002 1A4C     		ldr	r4, .L21
 252 0004 2346     		mov	r3, r4
 253 0006 53F81C2F 		ldr	r2, [r3, #28]!
 254 000a 8242     		cmp	r2, r0
 255 000c 0ED0     		beq	.L15
 256              		.loc 1 216 0
 257 000e 4168     		ldr	r1, [r0, #4]
 258 0010 0268     		ldr	r2, [r0]
 259 0012 0A60     		str	r2, [r1]
 260              		.loc 1 217 0
 261 0014 0268     		ldr	r2, [r0]
 262 0016 5160     		str	r1, [r2, #4]
 263              		.loc 1 221 0
 264 0018 9A42     		cmp	r2, r3
 265              		.loc 1 218 0
 266 001a 4FF00001 		mov	r1, #0
 267 001e C160     		str	r1, [r0, #12]
 268              		.loc 1 221 0
 269 0020 22D0     		beq	.L14
 270              		.loc 1 222 0
 271 0022 9168     		ldr	r1, [r2, #8]
 272 0024 8368     		ldr	r3, [r0, #8]
 273 0026 0B44     		add	r3, r3, r1
 274 0028 9360     		str	r3, [r2, #8]
 275 002a 10BD     		pop	{r4, pc}
 276              	.L15:
 277              		.loc 1 228 0
 278 002c 1168     		ldr	r1, [r2]
 279 002e E161     		str	r1, [r4, #28]
 280              		.loc 1 230 0
 281 0030 0020     		movs	r0, #0
 282              	.LVL18:
 283              		.loc 1 233 0
 284 0032 9942     		cmp	r1, r3
 285              		.loc 1 229 0
ARM GAS  /tmp/ccKjFdwr.s 			page 6


 286 0034 4B60     		str	r3, [r1, #4]
 287              		.loc 1 230 0
 288 0036 D060     		str	r0, [r2, #12]
 289              		.loc 1 233 0
 290 0038 03D1     		bne	.L18
 291              		.loc 1 268 0
 292 003a BDE81040 		pop	{r4, lr}
 293              		.cfi_remember_state
 294              		.cfi_restore 14
 295              		.cfi_restore 4
 296              		.cfi_def_cfa_offset 0
 297              	.LBB45:
 298              	.LBB46:
 299              		.loc 3 83 0
 300 003e FFF7FEBF 		b	stStopAlarm
 301              	.LVL19:
 302              	.L18:
 303              		.cfi_restore_state
 304              	.LBE46:
 305              	.LBE45:
 306              		.loc 1 240 0
 307 0042 8B68     		ldr	r3, [r1, #8]
 308 0044 9268     		ldr	r2, [r2, #8]
 309 0046 1A44     		add	r2, r2, r3
 310              	.LBB47:
 311              	.LBB48:
 312              	.LBB49:
 313              	.LBB50:
 314              		.loc 2 141 0
 315 0048 094B     		ldr	r3, .L21+4
 316              	.LBE50:
 317              	.LBE49:
 318              	.LBE48:
 319              	.LBE47:
 320              		.loc 1 240 0
 321 004a 8A60     		str	r2, [r1, #8]
 322              	.LBB54:
 323              	.LBB53:
 324              	.LBB52:
 325              	.LBB51:
 326              		.loc 2 141 0
 327 004c 586A     		ldr	r0, [r3, #36]
 328              	.LBE51:
 329              	.LBE52:
 330              	.LBE53:
 331              	.LBE54:
 332              		.loc 1 249 0
 333 004e A36A     		ldr	r3, [r4, #40]
 334 0050 C31A     		subs	r3, r0, r3
 335              	.LVL20:
 336              		.loc 1 253 0
 337 0052 9342     		cmp	r3, r2
 338 0054 08D2     		bcs	.L14
 339              		.loc 1 258 0
 340 0056 D31A     		subs	r3, r2, r3
 341              	.LVL21:
 342              		.loc 1 263 0
ARM GAS  /tmp/ccKjFdwr.s 			page 7


 343 0058 012B     		cmp	r3, #1
 344 005a 98BF     		it	ls
 345 005c 0223     		movls	r3, #2
 346              	.LVL22:
 347              	.LBB55:
 348              	.LBB56:
 349              		.loc 3 95 0
 350 005e 1844     		add	r0, r0, r3
 351              	.LVL23:
 352              	.LBE56:
 353              	.LBE55:
 354              		.loc 1 268 0
 355 0060 BDE81040 		pop	{r4, lr}
 356              		.cfi_remember_state
 357              		.cfi_restore 14
 358              		.cfi_restore 4
 359              		.cfi_def_cfa_offset 0
 360              	.LBB58:
 361              	.LBB57:
 362              		.loc 3 95 0
 363 0064 FFF7FEBF 		b	stSetAlarm
 364              	.LVL24:
 365              	.L14:
 366              		.cfi_restore_state
 367 0068 10BD     		pop	{r4, pc}
 368              	.L22:
 369 006a 00BF     		.align	2
 370              	.L21:
 371 006c 00000000 		.word	ch
 372 0070 000C0040 		.word	1073744896
 373              	.LBE57:
 374              	.LBE58:
 375              		.cfi_endproc
 376              	.LFE248:
 377              		.size	chVTDoResetI, .-chVTDoResetI
 378              		.text
 379              	.Letext0:
 380              		.file 4 "/usr/include/newlib/machine/_default_types.h"
 381              		.file 5 "/usr/include/newlib/sys/_stdint.h"
 382              		.file 6 "../../modules/ChibiOS/os/common/ports/ARMCMx/compilers/GCC/chtypes.h"
 383              		.file 7 "../../modules/ChibiOS/os/rt/include/chsystypes.h"
 384              		.file 8 "../../modules/ChibiOS/os/rt/include/chschd.h"
 385              		.file 9 "../../modules/ChibiOS/os/common/ports/ARMCMx/chcore.h"
 386              		.file 10 "../../modules/ChibiOS/os/common/ports/ARMCMx/chcore_v7m.h"
 387              		.file 11 "../../modules/ChibiOS/os/hal/ports/STM32/LLD/TIMv1/stm32_tim.h"
 388              		.file 12 "../../modules/ChibiOS/os/rt/include/chtm.h"
 389              		.file 13 "../../modules/ChibiOS/os/rt/include/chstats.h"
 390              		.file 14 "../../modules/ChibiOS/os/rt/include/chsem.h"
 391              		.file 15 "../../modules/ChibiOS/os/rt/include/chmtx.h"
 392              		.file 16 "../../modules/ChibiOS/os/rt/include/chvt.h"
 393              		.file 17 "../../modules/ChibiOS/os/hal/include/hal_st.h"
 394              		.file 18 "../../modules/ChibiOS/os/common/ext/CMSIS/include/core_cm4.h"
 395              		.section	.debug_info,"",%progbits
 396              	.Ldebug_info0:
 397 0000 730B0000 		.4byte	0xb73
 398 0004 0400     		.2byte	0x4
 399 0006 00000000 		.4byte	.Ldebug_abbrev0
ARM GAS  /tmp/ccKjFdwr.s 			page 8


 400 000a 04       		.byte	0x4
 401 000b 01       		.uleb128 0x1
 402 000c FC010000 		.4byte	.LASF129
 403 0010 01       		.byte	0x1
 404 0011 09040000 		.4byte	.LASF130
 405 0015 45010000 		.4byte	.LASF131
 406 0019 88000000 		.4byte	.Ldebug_ranges0+0x88
 407 001d 00000000 		.4byte	0
 408 0021 00000000 		.4byte	.Ldebug_line0
 409 0025 02       		.uleb128 0x2
 410 0026 04       		.byte	0x4
 411 0027 05       		.byte	0x5
 412 0028 696E7400 		.ascii	"int\000"
 413 002c 03       		.uleb128 0x3
 414 002d 04       		.byte	0x4
 415 002e 07       		.byte	0x7
 416 002f 69050000 		.4byte	.LASF0
 417 0033 03       		.uleb128 0x3
 418 0034 01       		.byte	0x1
 419 0035 06       		.byte	0x6
 420 0036 32010000 		.4byte	.LASF1
 421 003a 04       		.uleb128 0x4
 422 003b 4C000000 		.4byte	.LASF5
 423 003f 04       		.byte	0x4
 424 0040 1D       		.byte	0x1d
 425 0041 45000000 		.4byte	0x45
 426 0045 03       		.uleb128 0x3
 427 0046 01       		.byte	0x1
 428 0047 08       		.byte	0x8
 429 0048 94040000 		.4byte	.LASF2
 430 004c 03       		.uleb128 0x3
 431 004d 02       		.byte	0x2
 432 004e 05       		.byte	0x5
 433 004f A8040000 		.4byte	.LASF3
 434 0053 03       		.uleb128 0x3
 435 0054 02       		.byte	0x2
 436 0055 07       		.byte	0x7
 437 0056 BA050000 		.4byte	.LASF4
 438 005a 04       		.uleb128 0x4
 439 005b 94030000 		.4byte	.LASF6
 440 005f 04       		.byte	0x4
 441 0060 3F       		.byte	0x3f
 442 0061 65000000 		.4byte	0x65
 443 0065 03       		.uleb128 0x3
 444 0066 04       		.byte	0x4
 445 0067 05       		.byte	0x5
 446 0068 83010000 		.4byte	.LASF7
 447 006c 04       		.uleb128 0x4
 448 006d A0010000 		.4byte	.LASF8
 449 0071 04       		.byte	0x4
 450 0072 41       		.byte	0x41
 451 0073 77000000 		.4byte	0x77
 452 0077 03       		.uleb128 0x3
 453 0078 04       		.byte	0x4
 454 0079 07       		.byte	0x7
 455 007a 39050000 		.4byte	.LASF9
 456 007e 03       		.uleb128 0x3
ARM GAS  /tmp/ccKjFdwr.s 			page 9


 457 007f 08       		.byte	0x8
 458 0080 05       		.byte	0x5
 459 0081 CC010000 		.4byte	.LASF10
 460 0085 04       		.uleb128 0x4
 461 0086 42040000 		.4byte	.LASF11
 462 008a 04       		.byte	0x4
 463 008b 5B       		.byte	0x5b
 464 008c 90000000 		.4byte	0x90
 465 0090 03       		.uleb128 0x3
 466 0091 08       		.byte	0x8
 467 0092 07       		.byte	0x7
 468 0093 AC000000 		.4byte	.LASF12
 469 0097 04       		.uleb128 0x4
 470 0098 CC040000 		.4byte	.LASF13
 471 009c 05       		.byte	0x5
 472 009d 14       		.byte	0x14
 473 009e 3A000000 		.4byte	0x3a
 474 00a2 04       		.uleb128 0x4
 475 00a3 8C040000 		.4byte	.LASF14
 476 00a7 05       		.byte	0x5
 477 00a8 1F       		.byte	0x1f
 478 00a9 5A000000 		.4byte	0x5a
 479 00ad 04       		.uleb128 0x4
 480 00ae 13050000 		.4byte	.LASF15
 481 00b2 05       		.byte	0x5
 482 00b3 20       		.byte	0x20
 483 00b4 6C000000 		.4byte	0x6c
 484 00b8 04       		.uleb128 0x4
 485 00b9 2A000000 		.4byte	.LASF16
 486 00bd 05       		.byte	0x5
 487 00be 26       		.byte	0x26
 488 00bf 85000000 		.4byte	0x85
 489 00c3 04       		.uleb128 0x4
 490 00c4 E1050000 		.4byte	.LASF17
 491 00c8 06       		.byte	0x6
 492 00c9 39       		.byte	0x39
 493 00ca AD000000 		.4byte	0xad
 494 00ce 04       		.uleb128 0x4
 495 00cf 14010000 		.4byte	.LASF18
 496 00d3 06       		.byte	0x6
 497 00d4 3A       		.byte	0x3a
 498 00d5 B8000000 		.4byte	0xb8
 499 00d9 04       		.uleb128 0x4
 500 00da 61060000 		.4byte	.LASF19
 501 00de 06       		.byte	0x6
 502 00df 3C       		.byte	0x3c
 503 00e0 97000000 		.4byte	0x97
 504 00e4 04       		.uleb128 0x4
 505 00e5 8C010000 		.4byte	.LASF20
 506 00e9 06       		.byte	0x6
 507 00ea 3D       		.byte	0x3d
 508 00eb 97000000 		.4byte	0x97
 509 00ef 04       		.uleb128 0x4
 510 00f0 58040000 		.4byte	.LASF21
 511 00f4 06       		.byte	0x6
 512 00f5 3E       		.byte	0x3e
 513 00f6 97000000 		.4byte	0x97
ARM GAS  /tmp/ccKjFdwr.s 			page 10


 514 00fa 04       		.uleb128 0x4
 515 00fb 75040000 		.4byte	.LASF22
 516 00ff 06       		.byte	0x6
 517 0100 40       		.byte	0x40
 518 0101 AD000000 		.4byte	0xad
 519 0105 04       		.uleb128 0x4
 520 0106 56000000 		.4byte	.LASF23
 521 010a 06       		.byte	0x6
 522 010b 41       		.byte	0x41
 523 010c A2000000 		.4byte	0xa2
 524 0110 04       		.uleb128 0x4
 525 0111 40000000 		.4byte	.LASF24
 526 0115 06       		.byte	0x6
 527 0116 43       		.byte	0x43
 528 0117 AD000000 		.4byte	0xad
 529 011b 04       		.uleb128 0x4
 530 011c DA010000 		.4byte	.LASF25
 531 0120 06       		.byte	0x6
 532 0121 45       		.byte	0x45
 533 0122 A2000000 		.4byte	0xa2
 534 0126 04       		.uleb128 0x4
 535 0127 48030000 		.4byte	.LASF26
 536 012b 06       		.byte	0x6
 537 012c 46       		.byte	0x46
 538 012d AD000000 		.4byte	0xad
 539 0131 04       		.uleb128 0x4
 540 0132 89050000 		.4byte	.LASF27
 541 0136 07       		.byte	0x7
 542 0137 33       		.byte	0x33
 543 0138 AD000000 		.4byte	0xad
 544 013c 04       		.uleb128 0x4
 545 013d 7B050000 		.4byte	.LASF28
 546 0141 07       		.byte	0x7
 547 0142 3F       		.byte	0x3f
 548 0143 47010000 		.4byte	0x147
 549 0147 05       		.uleb128 0x5
 550 0148 22030000 		.4byte	.LASF47
 551 014c 60       		.byte	0x60
 552 014d 08       		.byte	0x8
 553 014e 9A       		.byte	0x9a
 554 014f 32020000 		.4byte	0x232
 555 0153 06       		.uleb128 0x6
 556 0154 F8020000 		.4byte	.LASF29
 557 0158 08       		.byte	0x8
 558 0159 9B       		.byte	0x9b
 559 015a 67020000 		.4byte	0x267
 560 015e 00       		.byte	0
 561 015f 06       		.uleb128 0x6
 562 0160 35040000 		.4byte	.LASF30
 563 0164 08       		.byte	0x8
 564 0165 9C       		.byte	0x9c
 565 0166 FA000000 		.4byte	0xfa
 566 016a 08       		.byte	0x8
 567 016b 07       		.uleb128 0x7
 568 016c 63747800 		.ascii	"ctx\000"
 569 0170 08       		.byte	0x8
 570 0171 9D       		.byte	0x9d
ARM GAS  /tmp/ccKjFdwr.s 			page 11


 571 0172 91040000 		.4byte	0x491
 572 0176 0C       		.byte	0xc
 573 0177 06       		.uleb128 0x6
 574 0178 A9030000 		.4byte	.LASF31
 575 017c 08       		.byte	0x8
 576 017d 9F       		.byte	0x9f
 577 017e 3D020000 		.4byte	0x23d
 578 0182 10       		.byte	0x10
 579 0183 06       		.uleb128 0x6
 580 0184 63050000 		.4byte	.LASF32
 581 0188 08       		.byte	0x8
 582 0189 A0       		.byte	0xa0
 583 018a 3D020000 		.4byte	0x23d
 584 018e 14       		.byte	0x14
 585 018f 06       		.uleb128 0x6
 586 0190 1D030000 		.4byte	.LASF33
 587 0194 08       		.byte	0x8
 588 0195 A7       		.byte	0xa7
 589 0196 9A080000 		.4byte	0x89a
 590 019a 18       		.byte	0x18
 591 019b 06       		.uleb128 0x6
 592 019c 4B050000 		.4byte	.LASF34
 593 01a0 08       		.byte	0x8
 594 01a1 B0       		.byte	0xb0
 595 01a2 AC080000 		.4byte	0x8ac
 596 01a6 1C       		.byte	0x1c
 597 01a7 06       		.uleb128 0x6
 598 01a8 7D010000 		.4byte	.LASF35
 599 01ac 08       		.byte	0x8
 600 01ad B5       		.byte	0xb5
 601 01ae E4000000 		.4byte	0xe4
 602 01b2 20       		.byte	0x20
 603 01b3 06       		.uleb128 0x6
 604 01b4 1A060000 		.4byte	.LASF36
 605 01b8 08       		.byte	0x8
 606 01b9 B9       		.byte	0xb9
 607 01ba D9000000 		.4byte	0xd9
 608 01be 21       		.byte	0x21
 609 01bf 06       		.uleb128 0x6
 610 01c0 60040000 		.4byte	.LASF37
 611 01c4 08       		.byte	0x8
 612 01c5 BE       		.byte	0xbe
 613 01c6 EF000000 		.4byte	0xef
 614 01ca 22       		.byte	0x22
 615 01cb 08       		.uleb128 0x8
 616 01cc 7500     		.ascii	"u\000"
 617 01ce 08       		.byte	0x8
 618 01cf 0F01     		.2byte	0x10f
 619 01d1 CF070000 		.4byte	0x7cf
 620 01d5 24       		.byte	0x24
 621 01d6 09       		.uleb128 0x9
 622 01d7 C4010000 		.4byte	.LASF38
 623 01db 08       		.byte	0x8
 624 01dc 1401     		.2byte	0x114
 625 01de 43020000 		.4byte	0x243
 626 01e2 28       		.byte	0x28
 627 01e3 09       		.uleb128 0x9
ARM GAS  /tmp/ccKjFdwr.s 			page 12


 628 01e4 74010000 		.4byte	.LASF39
 629 01e8 08       		.byte	0x8
 630 01e9 1A01     		.2byte	0x11a
 631 01eb 67020000 		.4byte	0x267
 632 01ef 2C       		.byte	0x2c
 633 01f0 09       		.uleb128 0x9
 634 01f1 4F030000 		.4byte	.LASF40
 635 01f5 08       		.byte	0x8
 636 01f6 2001     		.2byte	0x120
 637 01f8 10010000 		.4byte	0x110
 638 01fc 34       		.byte	0x34
 639 01fd 09       		.uleb128 0x9
 640 01fe 69060000 		.4byte	.LASF41
 641 0202 08       		.byte	0x8
 642 0203 2701     		.2byte	0x127
 643 0205 94080000 		.4byte	0x894
 644 0209 38       		.byte	0x38
 645 020a 09       		.uleb128 0x9
 646 020b AF030000 		.4byte	.LASF42
 647 020f 08       		.byte	0x8
 648 0210 2B01     		.2byte	0x12b
 649 0212 FA000000 		.4byte	0xfa
 650 0216 3C       		.byte	0x3c
 651 0217 09       		.uleb128 0x9
 652 0218 FE020000 		.4byte	.LASF43
 653 021c 08       		.byte	0x8
 654 021d 3201     		.2byte	0x132
 655 021f 1A030000 		.4byte	0x31a
 656 0223 40       		.byte	0x40
 657 0224 09       		.uleb128 0x9
 658 0225 9A010000 		.4byte	.LASF44
 659 0229 08       		.byte	0x8
 660 022a 3801     		.2byte	0x138
 661 022c 80070000 		.4byte	0x780
 662 0230 48       		.byte	0x48
 663 0231 00       		.byte	0
 664 0232 04       		.uleb128 0x4
 665 0233 C1030000 		.4byte	.LASF45
 666 0237 07       		.byte	0x7
 667 0238 44       		.byte	0x44
 668 0239 3D020000 		.4byte	0x23d
 669 023d 0A       		.uleb128 0xa
 670 023e 04       		.byte	0x4
 671 023f 3C010000 		.4byte	0x13c
 672 0243 04       		.uleb128 0x4
 673 0244 52060000 		.4byte	.LASF46
 674 0248 07       		.byte	0x7
 675 0249 49       		.byte	0x49
 676 024a 4E020000 		.4byte	0x24e
 677 024e 05       		.uleb128 0x5
 678 024f 23050000 		.4byte	.LASF48
 679 0253 04       		.byte	0x4
 680 0254 08       		.byte	0x8
 681 0255 88       		.byte	0x88
 682 0256 67020000 		.4byte	0x267
 683 025a 06       		.uleb128 0x6
 684 025b 18000000 		.4byte	.LASF49
ARM GAS  /tmp/ccKjFdwr.s 			page 13


 685 025f 08       		.byte	0x8
 686 0260 89       		.byte	0x89
 687 0261 3D020000 		.4byte	0x23d
 688 0265 00       		.byte	0
 689 0266 00       		.byte	0
 690 0267 04       		.uleb128 0x4
 691 0268 F0050000 		.4byte	.LASF50
 692 026c 07       		.byte	0x7
 693 026d 50       		.byte	0x50
 694 026e 72020000 		.4byte	0x272
 695 0272 05       		.uleb128 0x5
 696 0273 6D000000 		.4byte	.LASF51
 697 0277 08       		.byte	0x8
 698 0278 08       		.byte	0x8
 699 0279 8F       		.byte	0x8f
 700 027a 97020000 		.4byte	0x297
 701 027e 06       		.uleb128 0x6
 702 027f 18000000 		.4byte	.LASF49
 703 0283 08       		.byte	0x8
 704 0284 90       		.byte	0x90
 705 0285 3D020000 		.4byte	0x23d
 706 0289 00       		.byte	0
 707 028a 06       		.uleb128 0x6
 708 028b 5C000000 		.4byte	.LASF52
 709 028f 08       		.byte	0x8
 710 0290 91       		.byte	0x91
 711 0291 3D020000 		.4byte	0x23d
 712 0295 04       		.byte	0x4
 713 0296 00       		.byte	0
 714 0297 04       		.uleb128 0x4
 715 0298 00000000 		.4byte	.LASF53
 716 029c 07       		.byte	0x7
 717 029d 57       		.byte	0x57
 718 029e A2020000 		.4byte	0x2a2
 719 02a2 0B       		.uleb128 0xb
 720 02a3 7B030000 		.4byte	.LASF54
 721 02a7 1C       		.byte	0x1c
 722 02a8 08       		.byte	0x8
 723 02a9 6A01     		.2byte	0x16a
 724 02ab FE020000 		.4byte	0x2fe
 725 02af 09       		.uleb128 0x9
 726 02b0 F8020000 		.4byte	.LASF29
 727 02b4 08       		.byte	0x8
 728 02b5 6B01     		.2byte	0x16b
 729 02b7 67020000 		.4byte	0x267
 730 02bb 00       		.byte	0
 731 02bc 09       		.uleb128 0x9
 732 02bd 35040000 		.4byte	.LASF30
 733 02c1 08       		.byte	0x8
 734 02c2 6C01     		.2byte	0x16c
 735 02c4 FA000000 		.4byte	0xfa
 736 02c8 08       		.byte	0x8
 737 02c9 08       		.uleb128 0x8
 738 02ca 63747800 		.ascii	"ctx\000"
 739 02ce 08       		.byte	0x8
 740 02cf 6E01     		.2byte	0x16e
 741 02d1 91040000 		.4byte	0x491
ARM GAS  /tmp/ccKjFdwr.s 			page 14


 742 02d5 0C       		.byte	0xc
 743 02d6 09       		.uleb128 0x9
 744 02d7 A9030000 		.4byte	.LASF31
 745 02db 08       		.byte	0x8
 746 02dc 7101     		.2byte	0x171
 747 02de 3D020000 		.4byte	0x23d
 748 02e2 10       		.byte	0x10
 749 02e3 09       		.uleb128 0x9
 750 02e4 63050000 		.4byte	.LASF32
 751 02e8 08       		.byte	0x8
 752 02e9 7201     		.2byte	0x172
 753 02eb 3D020000 		.4byte	0x23d
 754 02ef 14       		.byte	0x14
 755 02f0 09       		.uleb128 0x9
 756 02f1 3A040000 		.4byte	.LASF55
 757 02f5 08       		.byte	0x8
 758 02f6 7501     		.2byte	0x175
 759 02f8 3D020000 		.4byte	0x23d
 760 02fc 18       		.byte	0x18
 761 02fd 00       		.byte	0
 762 02fe 04       		.uleb128 0x4
 763 02ff 93050000 		.4byte	.LASF56
 764 0303 07       		.byte	0x7
 765 0304 5C       		.byte	0x5c
 766 0305 09030000 		.4byte	0x309
 767 0309 0A       		.uleb128 0xa
 768 030a 04       		.byte	0x4
 769 030b 0F030000 		.4byte	0x30f
 770 030f 0C       		.uleb128 0xc
 771 0310 1A030000 		.4byte	0x31a
 772 0314 0D       		.uleb128 0xd
 773 0315 1A030000 		.4byte	0x31a
 774 0319 00       		.byte	0
 775 031a 0E       		.uleb128 0xe
 776 031b 04       		.byte	0x4
 777 031c 04       		.uleb128 0x4
 778 031d 65040000 		.4byte	.LASF57
 779 0321 07       		.byte	0x7
 780 0322 61       		.byte	0x61
 781 0323 27030000 		.4byte	0x327
 782 0327 0B       		.uleb128 0xb
 783 0328 DD040000 		.4byte	.LASF58
 784 032c 14       		.byte	0x14
 785 032d 08       		.byte	0x8
 786 032e 4501     		.2byte	0x145
 787 0330 76030000 		.4byte	0x376
 788 0334 09       		.uleb128 0x9
 789 0335 18000000 		.4byte	.LASF49
 790 0339 08       		.byte	0x8
 791 033a 4601     		.2byte	0x146
 792 033c B2080000 		.4byte	0x8b2
 793 0340 00       		.byte	0
 794 0341 09       		.uleb128 0x9
 795 0342 5C000000 		.4byte	.LASF52
 796 0346 08       		.byte	0x8
 797 0347 4701     		.2byte	0x147
 798 0349 B2080000 		.4byte	0x8b2
ARM GAS  /tmp/ccKjFdwr.s 			page 15


 799 034d 04       		.byte	0x4
 800 034e 09       		.uleb128 0x9
 801 034f 1D000000 		.4byte	.LASF59
 802 0353 08       		.byte	0x8
 803 0354 4801     		.2byte	0x148
 804 0356 31010000 		.4byte	0x131
 805 035a 08       		.byte	0x8
 806 035b 09       		.uleb128 0x9
 807 035c 95010000 		.4byte	.LASF60
 808 0360 08       		.byte	0x8
 809 0361 4901     		.2byte	0x149
 810 0363 FE020000 		.4byte	0x2fe
 811 0367 0C       		.byte	0xc
 812 0368 08       		.uleb128 0x8
 813 0369 70617200 		.ascii	"par\000"
 814 036d 08       		.byte	0x8
 815 036e 4B01     		.2byte	0x14b
 816 0370 1A030000 		.4byte	0x31a
 817 0374 10       		.byte	0x10
 818 0375 00       		.byte	0
 819 0376 04       		.uleb128 0x4
 820 0377 EC000000 		.4byte	.LASF61
 821 037b 07       		.byte	0x7
 822 037c 66       		.byte	0x66
 823 037d 81030000 		.4byte	0x381
 824 0381 0B       		.uleb128 0xb
 825 0382 D4030000 		.4byte	.LASF62
 826 0386 10       		.byte	0x10
 827 0387 08       		.byte	0x8
 828 0388 5501     		.2byte	0x155
 829 038a C3030000 		.4byte	0x3c3
 830 038e 09       		.uleb128 0x9
 831 038f 18000000 		.4byte	.LASF49
 832 0393 08       		.byte	0x8
 833 0394 5601     		.2byte	0x156
 834 0396 B2080000 		.4byte	0x8b2
 835 039a 00       		.byte	0
 836 039b 09       		.uleb128 0x9
 837 039c 5C000000 		.4byte	.LASF52
 838 03a0 08       		.byte	0x8
 839 03a1 5801     		.2byte	0x158
 840 03a3 B2080000 		.4byte	0x8b2
 841 03a7 04       		.byte	0x4
 842 03a8 09       		.uleb128 0x9
 843 03a9 1D000000 		.4byte	.LASF59
 844 03ad 08       		.byte	0x8
 845 03ae 5A01     		.2byte	0x15a
 846 03b0 31010000 		.4byte	0x131
 847 03b4 08       		.byte	0x8
 848 03b5 09       		.uleb128 0x9
 849 03b6 B2040000 		.4byte	.LASF63
 850 03ba 08       		.byte	0x8
 851 03bb 6201     		.2byte	0x162
 852 03bd 31010000 		.4byte	0x131
 853 03c1 0C       		.byte	0xc
 854 03c2 00       		.byte	0
 855 03c3 04       		.uleb128 0x4
ARM GAS  /tmp/ccKjFdwr.s 			page 16


 856 03c4 7E000000 		.4byte	.LASF64
 857 03c8 07       		.byte	0x7
 858 03c9 6B       		.byte	0x6b
 859 03ca CE030000 		.4byte	0x3ce
 860 03ce 0B       		.uleb128 0xb
 861 03cf B4010000 		.4byte	.LASF65
 862 03d3 04       		.byte	0x4
 863 03d4 08       		.byte	0x8
 864 03d5 7C01     		.2byte	0x17c
 865 03d7 E9030000 		.4byte	0x3e9
 866 03db 09       		.uleb128 0x9
 867 03dc 9C050000 		.4byte	.LASF66
 868 03e0 08       		.byte	0x8
 869 03e1 8401     		.2byte	0x184
 870 03e3 B8080000 		.4byte	0x8b8
 871 03e7 00       		.byte	0
 872 03e8 00       		.byte	0
 873 03e9 04       		.uleb128 0x4
 874 03ea 58030000 		.4byte	.LASF67
 875 03ee 07       		.byte	0x7
 876 03ef 70       		.byte	0x70
 877 03f0 F4030000 		.4byte	0x3f4
 878 03f4 0B       		.uleb128 0xb
 879 03f5 C2040000 		.4byte	.LASF68
 880 03f9 D0       		.byte	0xd0
 881 03fa 08       		.byte	0x8
 882 03fb 9C01     		.2byte	0x19c
 883 03fd 4F040000 		.4byte	0x44f
 884 0401 09       		.uleb128 0x9
 885 0402 09060000 		.4byte	.LASF69
 886 0406 08       		.byte	0x8
 887 0407 A001     		.2byte	0x1a0
 888 0409 97020000 		.4byte	0x297
 889 040d 00       		.byte	0
 890 040e 09       		.uleb128 0x9
 891 040f 3E010000 		.4byte	.LASF70
 892 0413 08       		.byte	0x8
 893 0414 A401     		.2byte	0x1a4
 894 0416 76030000 		.4byte	0x376
 895 041a 1C       		.byte	0x1c
 896 041b 08       		.uleb128 0x8
 897 041c 64626700 		.ascii	"dbg\000"
 898 0420 08       		.byte	0x8
 899 0421 A801     		.2byte	0x1a8
 900 0423 C3030000 		.4byte	0x3c3
 901 0427 2C       		.byte	0x2c
 902 0428 09       		.uleb128 0x9
 903 0429 D9000000 		.4byte	.LASF71
 904 042d 08       		.byte	0x8
 905 042e AC01     		.2byte	0x1ac
 906 0430 3C010000 		.4byte	0x13c
 907 0434 30       		.byte	0x30
 908 0435 08       		.uleb128 0x8
 909 0436 746D00   		.ascii	"tm\000"
 910 0439 08       		.byte	0x8
 911 043a B101     		.2byte	0x1b1
 912 043c 32070000 		.4byte	0x732
ARM GAS  /tmp/ccKjFdwr.s 			page 17


 913 0440 90       		.byte	0x90
 914 0441 09       		.uleb128 0x9
 915 0442 33000000 		.4byte	.LASF72
 916 0446 08       		.byte	0x8
 917 0447 B701     		.2byte	0x1b7
 918 0449 C4070000 		.4byte	0x7c4
 919 044d 98       		.byte	0x98
 920 044e 00       		.byte	0
 921 044f 03       		.uleb128 0x3
 922 0450 04       		.byte	0x4
 923 0451 07       		.byte	0x7
 924 0452 B8030000 		.4byte	.LASF73
 925 0456 0F       		.uleb128 0xf
 926 0457 AD000000 		.4byte	0xad
 927 045b 10       		.uleb128 0x10
 928 045c AD000000 		.4byte	0xad
 929 0460 6B040000 		.4byte	0x46b
 930 0464 11       		.uleb128 0x11
 931 0465 4F040000 		.4byte	0x44f
 932 0469 01       		.byte	0x1
 933 046a 00       		.byte	0
 934 046b 10       		.uleb128 0x10
 935 046c AD000000 		.4byte	0xad
 936 0470 7B040000 		.4byte	0x47b
 937 0474 11       		.uleb128 0x11
 938 0475 4F040000 		.4byte	0x44f
 939 0479 03       		.byte	0x3
 940 047a 00       		.byte	0
 941 047b 04       		.uleb128 0x4
 942 047c AB010000 		.4byte	.LASF74
 943 0480 09       		.byte	0x9
 944 0481 65       		.byte	0x65
 945 0482 1A030000 		.4byte	0x31a
 946 0486 04       		.uleb128 0x4
 947 0487 9E030000 		.4byte	.LASF75
 948 048b 09       		.byte	0x9
 949 048c 6D       		.byte	0x6d
 950 048d B8000000 		.4byte	0xb8
 951 0491 05       		.uleb128 0x5
 952 0492 EB030000 		.4byte	.LASF76
 953 0496 04       		.byte	0x4
 954 0497 09       		.byte	0x9
 955 0498 89       		.byte	0x89
 956 0499 A9040000 		.4byte	0x4a9
 957 049d 07       		.uleb128 0x7
 958 049e 737000   		.ascii	"sp\000"
 959 04a1 09       		.byte	0x9
 960 04a2 8A       		.byte	0x8a
 961 04a3 F5050000 		.4byte	0x5f5
 962 04a7 00       		.byte	0
 963 04a8 00       		.byte	0
 964 04a9 0B       		.uleb128 0xb
 965 04aa 61000000 		.4byte	.LASF77
 966 04ae 64       		.byte	0x64
 967 04af 0A       		.byte	0xa
 968 04b0 5901     		.2byte	0x159
 969 04b2 F5050000 		.4byte	0x5f5
ARM GAS  /tmp/ccKjFdwr.s 			page 18


 970 04b6 08       		.uleb128 0x8
 971 04b7 73313600 		.ascii	"s16\000"
 972 04bb 0A       		.byte	0xa
 973 04bc 5B01     		.2byte	0x15b
 974 04be 7B040000 		.4byte	0x47b
 975 04c2 00       		.byte	0
 976 04c3 08       		.uleb128 0x8
 977 04c4 73313700 		.ascii	"s17\000"
 978 04c8 0A       		.byte	0xa
 979 04c9 5C01     		.2byte	0x15c
 980 04cb 7B040000 		.4byte	0x47b
 981 04cf 04       		.byte	0x4
 982 04d0 08       		.uleb128 0x8
 983 04d1 73313800 		.ascii	"s18\000"
 984 04d5 0A       		.byte	0xa
 985 04d6 5D01     		.2byte	0x15d
 986 04d8 7B040000 		.4byte	0x47b
 987 04dc 08       		.byte	0x8
 988 04dd 08       		.uleb128 0x8
 989 04de 73313900 		.ascii	"s19\000"
 990 04e2 0A       		.byte	0xa
 991 04e3 5E01     		.2byte	0x15e
 992 04e5 7B040000 		.4byte	0x47b
 993 04e9 0C       		.byte	0xc
 994 04ea 08       		.uleb128 0x8
 995 04eb 73323000 		.ascii	"s20\000"
 996 04ef 0A       		.byte	0xa
 997 04f0 5F01     		.2byte	0x15f
 998 04f2 7B040000 		.4byte	0x47b
 999 04f6 10       		.byte	0x10
 1000 04f7 08       		.uleb128 0x8
 1001 04f8 73323100 		.ascii	"s21\000"
 1002 04fc 0A       		.byte	0xa
 1003 04fd 6001     		.2byte	0x160
 1004 04ff 7B040000 		.4byte	0x47b
 1005 0503 14       		.byte	0x14
 1006 0504 08       		.uleb128 0x8
 1007 0505 73323200 		.ascii	"s22\000"
 1008 0509 0A       		.byte	0xa
 1009 050a 6101     		.2byte	0x161
 1010 050c 7B040000 		.4byte	0x47b
 1011 0510 18       		.byte	0x18
 1012 0511 08       		.uleb128 0x8
 1013 0512 73323300 		.ascii	"s23\000"
 1014 0516 0A       		.byte	0xa
 1015 0517 6201     		.2byte	0x162
 1016 0519 7B040000 		.4byte	0x47b
 1017 051d 1C       		.byte	0x1c
 1018 051e 08       		.uleb128 0x8
 1019 051f 73323400 		.ascii	"s24\000"
 1020 0523 0A       		.byte	0xa
 1021 0524 6301     		.2byte	0x163
 1022 0526 7B040000 		.4byte	0x47b
 1023 052a 20       		.byte	0x20
 1024 052b 08       		.uleb128 0x8
 1025 052c 73323500 		.ascii	"s25\000"
 1026 0530 0A       		.byte	0xa
ARM GAS  /tmp/ccKjFdwr.s 			page 19


 1027 0531 6401     		.2byte	0x164
 1028 0533 7B040000 		.4byte	0x47b
 1029 0537 24       		.byte	0x24
 1030 0538 08       		.uleb128 0x8
 1031 0539 73323600 		.ascii	"s26\000"
 1032 053d 0A       		.byte	0xa
 1033 053e 6501     		.2byte	0x165
 1034 0540 7B040000 		.4byte	0x47b
 1035 0544 28       		.byte	0x28
 1036 0545 08       		.uleb128 0x8
 1037 0546 73323700 		.ascii	"s27\000"
 1038 054a 0A       		.byte	0xa
 1039 054b 6601     		.2byte	0x166
 1040 054d 7B040000 		.4byte	0x47b
 1041 0551 2C       		.byte	0x2c
 1042 0552 08       		.uleb128 0x8
 1043 0553 73323800 		.ascii	"s28\000"
 1044 0557 0A       		.byte	0xa
 1045 0558 6701     		.2byte	0x167
 1046 055a 7B040000 		.4byte	0x47b
 1047 055e 30       		.byte	0x30
 1048 055f 08       		.uleb128 0x8
 1049 0560 73323900 		.ascii	"s29\000"
 1050 0564 0A       		.byte	0xa
 1051 0565 6801     		.2byte	0x168
 1052 0567 7B040000 		.4byte	0x47b
 1053 056b 34       		.byte	0x34
 1054 056c 08       		.uleb128 0x8
 1055 056d 73333000 		.ascii	"s30\000"
 1056 0571 0A       		.byte	0xa
 1057 0572 6901     		.2byte	0x169
 1058 0574 7B040000 		.4byte	0x47b
 1059 0578 38       		.byte	0x38
 1060 0579 08       		.uleb128 0x8
 1061 057a 73333100 		.ascii	"s31\000"
 1062 057e 0A       		.byte	0xa
 1063 057f 6A01     		.2byte	0x16a
 1064 0581 7B040000 		.4byte	0x47b
 1065 0585 3C       		.byte	0x3c
 1066 0586 08       		.uleb128 0x8
 1067 0587 723400   		.ascii	"r4\000"
 1068 058a 0A       		.byte	0xa
 1069 058b 6C01     		.2byte	0x16c
 1070 058d 7B040000 		.4byte	0x47b
 1071 0591 40       		.byte	0x40
 1072 0592 08       		.uleb128 0x8
 1073 0593 723500   		.ascii	"r5\000"
 1074 0596 0A       		.byte	0xa
 1075 0597 6D01     		.2byte	0x16d
 1076 0599 7B040000 		.4byte	0x47b
 1077 059d 44       		.byte	0x44
 1078 059e 08       		.uleb128 0x8
 1079 059f 723600   		.ascii	"r6\000"
 1080 05a2 0A       		.byte	0xa
 1081 05a3 6E01     		.2byte	0x16e
 1082 05a5 7B040000 		.4byte	0x47b
 1083 05a9 48       		.byte	0x48
ARM GAS  /tmp/ccKjFdwr.s 			page 20


 1084 05aa 08       		.uleb128 0x8
 1085 05ab 723700   		.ascii	"r7\000"
 1086 05ae 0A       		.byte	0xa
 1087 05af 6F01     		.2byte	0x16f
 1088 05b1 7B040000 		.4byte	0x47b
 1089 05b5 4C       		.byte	0x4c
 1090 05b6 08       		.uleb128 0x8
 1091 05b7 723800   		.ascii	"r8\000"
 1092 05ba 0A       		.byte	0xa
 1093 05bb 7001     		.2byte	0x170
 1094 05bd 7B040000 		.4byte	0x47b
 1095 05c1 50       		.byte	0x50
 1096 05c2 08       		.uleb128 0x8
 1097 05c3 723900   		.ascii	"r9\000"
 1098 05c6 0A       		.byte	0xa
 1099 05c7 7101     		.2byte	0x171
 1100 05c9 7B040000 		.4byte	0x47b
 1101 05cd 54       		.byte	0x54
 1102 05ce 08       		.uleb128 0x8
 1103 05cf 72313000 		.ascii	"r10\000"
 1104 05d3 0A       		.byte	0xa
 1105 05d4 7201     		.2byte	0x172
 1106 05d6 7B040000 		.4byte	0x47b
 1107 05da 58       		.byte	0x58
 1108 05db 08       		.uleb128 0x8
 1109 05dc 72313100 		.ascii	"r11\000"
 1110 05e0 0A       		.byte	0xa
 1111 05e1 7301     		.2byte	0x173
 1112 05e3 7B040000 		.4byte	0x47b
 1113 05e7 5C       		.byte	0x5c
 1114 05e8 08       		.uleb128 0x8
 1115 05e9 6C7200   		.ascii	"lr\000"
 1116 05ec 0A       		.byte	0xa
 1117 05ed 7401     		.2byte	0x174
 1118 05ef 7B040000 		.4byte	0x47b
 1119 05f3 60       		.byte	0x60
 1120 05f4 00       		.byte	0
 1121 05f5 0A       		.uleb128 0xa
 1122 05f6 04       		.byte	0x4
 1123 05f7 A9040000 		.4byte	0x4a9
 1124 05fb 12       		.uleb128 0x12
 1125 05fc 60       		.byte	0x60
 1126 05fd 0B       		.byte	0xb
 1127 05fe A101     		.2byte	0x1a1
 1128 0600 07070000 		.4byte	0x707
 1129 0604 08       		.uleb128 0x8
 1130 0605 43523100 		.ascii	"CR1\000"
 1131 0609 0B       		.byte	0xb
 1132 060a A201     		.2byte	0x1a2
 1133 060c 56040000 		.4byte	0x456
 1134 0610 00       		.byte	0
 1135 0611 08       		.uleb128 0x8
 1136 0612 43523200 		.ascii	"CR2\000"
 1137 0616 0B       		.byte	0xb
 1138 0617 A301     		.2byte	0x1a3
 1139 0619 56040000 		.4byte	0x456
 1140 061d 04       		.byte	0x4
ARM GAS  /tmp/ccKjFdwr.s 			page 21


 1141 061e 09       		.uleb128 0x9
 1142 061f 09030000 		.4byte	.LASF78
 1143 0623 0B       		.byte	0xb
 1144 0624 A401     		.2byte	0x1a4
 1145 0626 56040000 		.4byte	0x456
 1146 062a 08       		.byte	0x8
 1147 062b 09       		.uleb128 0x9
 1148 062c 0D000000 		.4byte	.LASF79
 1149 0630 0B       		.byte	0xb
 1150 0631 A501     		.2byte	0x1a5
 1151 0633 56040000 		.4byte	0x456
 1152 0637 0C       		.byte	0xc
 1153 0638 08       		.uleb128 0x8
 1154 0639 535200   		.ascii	"SR\000"
 1155 063c 0B       		.byte	0xb
 1156 063d A601     		.2byte	0x1a6
 1157 063f 56040000 		.4byte	0x456
 1158 0643 10       		.byte	0x10
 1159 0644 08       		.uleb128 0x8
 1160 0645 45475200 		.ascii	"EGR\000"
 1161 0649 0B       		.byte	0xb
 1162 064a A701     		.2byte	0x1a7
 1163 064c 56040000 		.4byte	0x456
 1164 0650 14       		.byte	0x14
 1165 0651 09       		.uleb128 0x9
 1166 0652 1D010000 		.4byte	.LASF80
 1167 0656 0B       		.byte	0xb
 1168 0657 A801     		.2byte	0x1a8
 1169 0659 56040000 		.4byte	0x456
 1170 065d 18       		.byte	0x18
 1171 065e 09       		.uleb128 0x9
 1172 065f 8D000000 		.4byte	.LASF81
 1173 0663 0B       		.byte	0xb
 1174 0664 A901     		.2byte	0x1a9
 1175 0666 56040000 		.4byte	0x456
 1176 066a 1C       		.byte	0x1c
 1177 066b 09       		.uleb128 0x9
 1178 066c 84050000 		.4byte	.LASF82
 1179 0670 0B       		.byte	0xb
 1180 0671 AA01     		.2byte	0x1aa
 1181 0673 56040000 		.4byte	0x456
 1182 0677 20       		.byte	0x20
 1183 0678 08       		.uleb128 0x8
 1184 0679 434E5400 		.ascii	"CNT\000"
 1185 067d 0B       		.byte	0xb
 1186 067e AB01     		.2byte	0x1ab
 1187 0680 56040000 		.4byte	0x456
 1188 0684 24       		.byte	0x24
 1189 0685 08       		.uleb128 0x8
 1190 0686 50534300 		.ascii	"PSC\000"
 1191 068a 0B       		.byte	0xb
 1192 068b AC01     		.2byte	0x1ac
 1193 068d 56040000 		.4byte	0x456
 1194 0691 28       		.byte	0x28
 1195 0692 08       		.uleb128 0x8
 1196 0693 41525200 		.ascii	"ARR\000"
 1197 0697 0B       		.byte	0xb
ARM GAS  /tmp/ccKjFdwr.s 			page 22


 1198 0698 AD01     		.2byte	0x1ad
 1199 069a 56040000 		.4byte	0x456
 1200 069e 2C       		.byte	0x2c
 1201 069f 08       		.uleb128 0x8
 1202 06a0 52435200 		.ascii	"RCR\000"
 1203 06a4 0B       		.byte	0xb
 1204 06a5 AE01     		.2byte	0x1ae
 1205 06a7 56040000 		.4byte	0x456
 1206 06ab 30       		.byte	0x30
 1207 06ac 08       		.uleb128 0x8
 1208 06ad 43435200 		.ascii	"CCR\000"
 1209 06b1 0B       		.byte	0xb
 1210 06b2 AF01     		.2byte	0x1af
 1211 06b4 07070000 		.4byte	0x707
 1212 06b8 34       		.byte	0x34
 1213 06b9 09       		.uleb128 0x9
 1214 06ba 0F010000 		.4byte	.LASF83
 1215 06be 0B       		.byte	0xb
 1216 06bf B001     		.2byte	0x1b0
 1217 06c1 56040000 		.4byte	0x456
 1218 06c5 44       		.byte	0x44
 1219 06c6 08       		.uleb128 0x8
 1220 06c7 44435200 		.ascii	"DCR\000"
 1221 06cb 0B       		.byte	0xb
 1222 06cc B101     		.2byte	0x1b1
 1223 06ce 56040000 		.4byte	0x456
 1224 06d2 48       		.byte	0x48
 1225 06d3 09       		.uleb128 0x9
 1226 06d4 76050000 		.4byte	.LASF84
 1227 06d8 0B       		.byte	0xb
 1228 06d9 B201     		.2byte	0x1b2
 1229 06db 56040000 		.4byte	0x456
 1230 06df 4C       		.byte	0x4c
 1231 06e0 08       		.uleb128 0x8
 1232 06e1 4F5200   		.ascii	"OR\000"
 1233 06e4 0B       		.byte	0xb
 1234 06e5 B301     		.2byte	0x1b3
 1235 06e7 56040000 		.4byte	0x456
 1236 06eb 50       		.byte	0x50
 1237 06ec 09       		.uleb128 0x9
 1238 06ed 2C010000 		.4byte	.LASF85
 1239 06f1 0B       		.byte	0xb
 1240 06f2 B401     		.2byte	0x1b4
 1241 06f4 56040000 		.4byte	0x456
 1242 06f8 54       		.byte	0x54
 1243 06f9 09       		.uleb128 0x9
 1244 06fa FB040000 		.4byte	.LASF86
 1245 06fe 0B       		.byte	0xb
 1246 06ff B501     		.2byte	0x1b5
 1247 0701 0C070000 		.4byte	0x70c
 1248 0705 58       		.byte	0x58
 1249 0706 00       		.byte	0
 1250 0707 0F       		.uleb128 0xf
 1251 0708 6B040000 		.4byte	0x46b
 1252 070c 0F       		.uleb128 0xf
 1253 070d 5B040000 		.4byte	0x45b
 1254 0711 13       		.uleb128 0x13
ARM GAS  /tmp/ccKjFdwr.s 			page 23


 1255 0712 64030000 		.4byte	.LASF87
 1256 0716 0B       		.byte	0xb
 1257 0717 B601     		.2byte	0x1b6
 1258 0719 FB050000 		.4byte	0x5fb
 1259 071d 14       		.uleb128 0x14
 1260 071e 04       		.byte	0x4
 1261 071f 0C       		.byte	0xc
 1262 0720 38       		.byte	0x38
 1263 0721 32070000 		.4byte	0x732
 1264 0725 06       		.uleb128 0x6
 1265 0726 A6050000 		.4byte	.LASF88
 1266 072a 0C       		.byte	0xc
 1267 072b 3C       		.byte	0x3c
 1268 072c C3000000 		.4byte	0xc3
 1269 0730 00       		.byte	0
 1270 0731 00       		.byte	0
 1271 0732 04       		.uleb128 0x4
 1272 0733 F8030000 		.4byte	.LASF89
 1273 0737 0C       		.byte	0xc
 1274 0738 3D       		.byte	0x3d
 1275 0739 1D070000 		.4byte	0x71d
 1276 073d 14       		.uleb128 0x14
 1277 073e 18       		.byte	0x18
 1278 073f 0C       		.byte	0xc
 1279 0740 48       		.byte	0x48
 1280 0741 80070000 		.4byte	0x780
 1281 0745 06       		.uleb128 0x6
 1282 0746 04030000 		.4byte	.LASF90
 1283 074a 0C       		.byte	0xc
 1284 074b 49       		.byte	0x49
 1285 074c C3000000 		.4byte	0xc3
 1286 0750 00       		.byte	0
 1287 0751 06       		.uleb128 0x6
 1288 0752 93000000 		.4byte	.LASF91
 1289 0756 0C       		.byte	0xc
 1290 0757 4A       		.byte	0x4a
 1291 0758 C3000000 		.4byte	0xc3
 1292 075c 04       		.byte	0x4
 1293 075d 06       		.uleb128 0x6
 1294 075e 43030000 		.4byte	.LASF92
 1295 0762 0C       		.byte	0xc
 1296 0763 4B       		.byte	0x4b
 1297 0764 C3000000 		.4byte	0xc3
 1298 0768 08       		.byte	0x8
 1299 0769 07       		.uleb128 0x7
 1300 076a 6E00     		.ascii	"n\000"
 1301 076c 0C       		.byte	0xc
 1302 076d 4C       		.byte	0x4c
 1303 076e 26010000 		.4byte	0x126
 1304 0772 0C       		.byte	0xc
 1305 0773 06       		.uleb128 0x6
 1306 0774 4D040000 		.4byte	.LASF93
 1307 0778 0C       		.byte	0xc
 1308 0779 4D       		.byte	0x4d
 1309 077a CE000000 		.4byte	0xce
 1310 077e 10       		.byte	0x10
 1311 077f 00       		.byte	0
ARM GAS  /tmp/ccKjFdwr.s 			page 24


 1312 0780 04       		.uleb128 0x4
 1313 0781 99000000 		.4byte	.LASF94
 1314 0785 0C       		.byte	0xc
 1315 0786 4E       		.byte	0x4e
 1316 0787 3D070000 		.4byte	0x73d
 1317 078b 14       		.uleb128 0x14
 1318 078c 38       		.byte	0x38
 1319 078d 0D       		.byte	0xd
 1320 078e 38       		.byte	0x38
 1321 078f C4070000 		.4byte	0x7c4
 1322 0793 06       		.uleb128 0x6
 1323 0794 F2020000 		.4byte	.LASF95
 1324 0798 0D       		.byte	0xd
 1325 0799 39       		.byte	0x39
 1326 079a 26010000 		.4byte	0x126
 1327 079e 00       		.byte	0
 1328 079f 06       		.uleb128 0x6
 1329 07a0 7D040000 		.4byte	.LASF96
 1330 07a4 0D       		.byte	0xd
 1331 07a5 3A       		.byte	0x3a
 1332 07a6 26010000 		.4byte	0x126
 1333 07aa 04       		.byte	0x4
 1334 07ab 06       		.uleb128 0x6
 1335 07ac 79060000 		.4byte	.LASF97
 1336 07b0 0D       		.byte	0xd
 1337 07b1 3B       		.byte	0x3b
 1338 07b2 80070000 		.4byte	0x780
 1339 07b6 08       		.byte	0x8
 1340 07b7 06       		.uleb128 0x6
 1341 07b8 70030000 		.4byte	.LASF98
 1342 07bc 0D       		.byte	0xd
 1343 07bd 3D       		.byte	0x3d
 1344 07be 80070000 		.4byte	0x780
 1345 07c2 20       		.byte	0x20
 1346 07c3 00       		.byte	0
 1347 07c4 04       		.uleb128 0x4
 1348 07c5 0E030000 		.4byte	.LASF99
 1349 07c9 0D       		.byte	0xd
 1350 07ca 3F       		.byte	0x3f
 1351 07cb 8B070000 		.4byte	0x78b
 1352 07cf 15       		.uleb128 0x15
 1353 07d0 04       		.byte	0x4
 1354 07d1 08       		.byte	0x8
 1355 07d2 D2       		.byte	0xd2
 1356 07d3 32080000 		.4byte	0x832
 1357 07d7 16       		.uleb128 0x16
 1358 07d8 23000000 		.4byte	.LASF100
 1359 07dc 08       		.byte	0x8
 1360 07dd D9       		.byte	0xd9
 1361 07de 05010000 		.4byte	0x105
 1362 07e2 16       		.uleb128 0x16
 1363 07e3 D0000000 		.4byte	.LASF101
 1364 07e7 08       		.byte	0x8
 1365 07e8 E0       		.byte	0xe0
 1366 07e9 05010000 		.4byte	0x105
 1367 07ed 16       		.uleb128 0x16
 1368 07ee 4B060000 		.4byte	.LASF102
ARM GAS  /tmp/ccKjFdwr.s 			page 25


 1369 07f2 08       		.byte	0x8
 1370 07f3 E7       		.byte	0xe7
 1371 07f4 1A030000 		.4byte	0x31a
 1372 07f8 16       		.uleb128 0x16
 1373 07f9 12000000 		.4byte	.LASF103
 1374 07fd 08       		.byte	0x8
 1375 07fe EE       		.byte	0xee
 1376 07ff 32080000 		.4byte	0x832
 1377 0803 16       		.uleb128 0x16
 1378 0804 E4000000 		.4byte	.LASF104
 1379 0808 08       		.byte	0x8
 1380 0809 F3       		.byte	0xf3
 1381 080a 05010000 		.4byte	0x105
 1382 080e 16       		.uleb128 0x16
 1383 080f EB020000 		.4byte	.LASF105
 1384 0813 08       		.byte	0x8
 1385 0814 FC       		.byte	0xfc
 1386 0815 5D080000 		.4byte	0x85d
 1387 0819 17       		.uleb128 0x17
 1388 081a 1C050000 		.4byte	.LASF106
 1389 081e 08       		.byte	0x8
 1390 081f 0501     		.2byte	0x105
 1391 0821 94080000 		.4byte	0x894
 1392 0825 17       		.uleb128 0x17
 1393 0826 BB040000 		.4byte	.LASF107
 1394 082a 08       		.byte	0x8
 1395 082b 0D01     		.2byte	0x10d
 1396 082d 10010000 		.4byte	0x110
 1397 0831 00       		.byte	0
 1398 0832 0A       		.uleb128 0xa
 1399 0833 04       		.byte	0x4
 1400 0834 32020000 		.4byte	0x232
 1401 0838 05       		.uleb128 0x5
 1402 0839 EE040000 		.4byte	.LASF108
 1403 083d 0C       		.byte	0xc
 1404 083e 0E       		.byte	0xe
 1405 083f 34       		.byte	0x34
 1406 0840 5D080000 		.4byte	0x85d
 1407 0844 06       		.uleb128 0x6
 1408 0845 F8020000 		.4byte	.LASF29
 1409 0849 0E       		.byte	0xe
 1410 084a 35       		.byte	0x35
 1411 084b 67020000 		.4byte	0x267
 1412 084f 00       		.byte	0
 1413 0850 07       		.uleb128 0x7
 1414 0851 636E7400 		.ascii	"cnt\000"
 1415 0855 0E       		.byte	0xe
 1416 0856 37       		.byte	0x37
 1417 0857 1B010000 		.4byte	0x11b
 1418 085b 08       		.byte	0x8
 1419 085c 00       		.byte	0
 1420 085d 0A       		.uleb128 0xa
 1421 085e 04       		.byte	0x4
 1422 085f 38080000 		.4byte	0x838
 1423 0863 05       		.uleb128 0x5
 1424 0864 00060000 		.4byte	.LASF109
 1425 0868 10       		.byte	0x10
ARM GAS  /tmp/ccKjFdwr.s 			page 26


 1426 0869 0F       		.byte	0xf
 1427 086a 39       		.byte	0x39
 1428 086b 94080000 		.4byte	0x894
 1429 086f 06       		.uleb128 0x6
 1430 0870 F8020000 		.4byte	.LASF29
 1431 0874 0F       		.byte	0xf
 1432 0875 3A       		.byte	0x3a
 1433 0876 67020000 		.4byte	0x267
 1434 087a 00       		.byte	0
 1435 087b 06       		.uleb128 0x6
 1436 087c 33050000 		.4byte	.LASF110
 1437 0880 0F       		.byte	0xf
 1438 0881 3C       		.byte	0x3c
 1439 0882 3D020000 		.4byte	0x23d
 1440 0886 08       		.byte	0x8
 1441 0887 06       		.uleb128 0x6
 1442 0888 18000000 		.4byte	.LASF49
 1443 088c 0F       		.byte	0xf
 1444 088d 3E       		.byte	0x3e
 1445 088e C8080000 		.4byte	0x8c8
 1446 0892 0C       		.byte	0xc
 1447 0893 00       		.byte	0
 1448 0894 0A       		.uleb128 0xa
 1449 0895 04       		.byte	0x4
 1450 0896 63080000 		.4byte	0x863
 1451 089a 0A       		.uleb128 0xa
 1452 089b 04       		.byte	0x4
 1453 089c A0080000 		.4byte	0x8a0
 1454 08a0 18       		.uleb128 0x18
 1455 08a1 A5080000 		.4byte	0x8a5
 1456 08a5 03       		.uleb128 0x3
 1457 08a6 01       		.byte	0x1
 1458 08a7 08       		.byte	0x8
 1459 08a8 5E050000 		.4byte	.LASF111
 1460 08ac 0A       		.uleb128 0xa
 1461 08ad 04       		.byte	0x4
 1462 08ae 86040000 		.4byte	0x486
 1463 08b2 0A       		.uleb128 0xa
 1464 08b3 04       		.byte	0x4
 1465 08b4 1C030000 		.4byte	0x31c
 1466 08b8 0F       		.uleb128 0xf
 1467 08b9 9A080000 		.4byte	0x89a
 1468 08bd 04       		.uleb128 0x4
 1469 08be 71060000 		.4byte	.LASF112
 1470 08c2 0F       		.byte	0xf
 1471 08c3 34       		.byte	0x34
 1472 08c4 63080000 		.4byte	0x863
 1473 08c8 0A       		.uleb128 0xa
 1474 08c9 04       		.byte	0x4
 1475 08ca BD080000 		.4byte	0x8bd
 1476 08ce 03       		.uleb128 0x3
 1477 08cf 01       		.byte	0x1
 1478 08d0 02       		.byte	0x2
 1479 08d1 86040000 		.4byte	.LASF113
 1480 08d5 19       		.uleb128 0x19
 1481 08d6 00050000 		.4byte	.LASF114
 1482 08da 02       		.byte	0x2
ARM GAS  /tmp/ccKjFdwr.s 			page 27


 1483 08db 8B       		.byte	0x8b
 1484 08dc 31010000 		.4byte	0x131
 1485 08e0 03       		.byte	0x3
 1486 08e1 19       		.uleb128 0x19
 1487 08e2 CD050000 		.4byte	.LASF115
 1488 08e6 03       		.byte	0x3
 1489 08e7 69       		.byte	0x69
 1490 08e8 31010000 		.4byte	0x131
 1491 08ec 03       		.byte	0x3
 1492 08ed 1A       		.uleb128 0x1a
 1493 08ee E0010000 		.4byte	.LASF116
 1494 08f2 10       		.byte	0x10
 1495 08f3 AC01     		.2byte	0x1ac
 1496 08f5 31010000 		.4byte	0x131
 1497 08f9 03       		.byte	0x3
 1498 08fa 1B       		.uleb128 0x1b
 1499 08fb 2C030000 		.4byte	.LASF117
 1500 08ff 03       		.byte	0x3
 1501 0900 47       		.byte	0x47
 1502 0901 03       		.byte	0x3
 1503 0902 12090000 		.4byte	0x912
 1504 0906 1C       		.uleb128 0x1c
 1505 0907 30040000 		.4byte	.LASF119
 1506 090b 03       		.byte	0x3
 1507 090c 47       		.byte	0x47
 1508 090d 31010000 		.4byte	0x131
 1509 0911 00       		.byte	0
 1510 0912 1B       		.uleb128 0x1b
 1511 0913 36060000 		.4byte	.LASF118
 1512 0917 03       		.byte	0x3
 1513 0918 5D       		.byte	0x5d
 1514 0919 03       		.byte	0x3
 1515 091a 2A090000 		.4byte	0x92a
 1516 091e 1C       		.uleb128 0x1c
 1517 091f 30040000 		.4byte	.LASF119
 1518 0923 03       		.byte	0x3
 1519 0924 5D       		.byte	0x5d
 1520 0925 31010000 		.4byte	0x131
 1521 0929 00       		.byte	0
 1522 092a 1D       		.uleb128 0x1d
 1523 092b 20060000 		.4byte	.LASF132
 1524 092f 03       		.byte	0x3
 1525 0930 51       		.byte	0x51
 1526 0931 03       		.byte	0x3
 1527 0932 1E       		.uleb128 0x1e
 1528 0933 23010000 		.4byte	.LASF133
 1529 0937 01       		.byte	0x1
 1530 0938 3D       		.byte	0x3d
 1531 0939 00000000 		.4byte	.LFB246
 1532 093d 1C000000 		.4byte	.LFE246-.LFB246
 1533 0941 01       		.uleb128 0x1
 1534 0942 9C       		.byte	0x9c
 1535 0943 1F       		.uleb128 0x1f
 1536 0944 89030000 		.4byte	.LASF122
 1537 0948 01       		.byte	0x1
 1538 0949 5F       		.byte	0x5f
 1539 094a 00000000 		.4byte	.LFB247
ARM GAS  /tmp/ccKjFdwr.s 			page 28


 1540 094e 78000000 		.4byte	.LFE247-.LFB247
 1541 0952 01       		.uleb128 0x1
 1542 0953 9C       		.byte	0x9c
 1543 0954 470A0000 		.4byte	0xa47
 1544 0958 20       		.uleb128 0x20
 1545 0959 76747000 		.ascii	"vtp\000"
 1546 095d 01       		.byte	0x1
 1547 095e 5F       		.byte	0x5f
 1548 095f B2080000 		.4byte	0x8b2
 1549 0963 00000000 		.4byte	.LLST0
 1550 0967 21       		.uleb128 0x21
 1551 0968 A2040000 		.4byte	.LASF120
 1552 096c 01       		.byte	0x1
 1553 096d 5F       		.byte	0x5f
 1554 096e 31010000 		.4byte	0x131
 1555 0972 5C000000 		.4byte	.LLST1
 1556 0976 21       		.uleb128 0x21
 1557 0977 E9050000 		.4byte	.LASF121
 1558 097b 01       		.byte	0x1
 1559 097c 60       		.byte	0x60
 1560 097d FE020000 		.4byte	0x2fe
 1561 0981 C7000000 		.4byte	.LLST2
 1562 0985 20       		.uleb128 0x20
 1563 0986 70617200 		.ascii	"par\000"
 1564 098a 01       		.byte	0x1
 1565 098b 60       		.byte	0x60
 1566 098c 1A030000 		.4byte	0x31a
 1567 0990 35010000 		.4byte	.LLST3
 1568 0994 22       		.uleb128 0x22
 1569 0995 7000     		.ascii	"p\000"
 1570 0997 01       		.byte	0x1
 1571 0998 61       		.byte	0x61
 1572 0999 B2080000 		.4byte	0x8b2
 1573 099d A3010000 		.4byte	.LLST4
 1574 09a1 23       		.uleb128 0x23
 1575 09a2 1D000000 		.4byte	.LASF59
 1576 09a6 01       		.byte	0x1
 1577 09a7 62       		.byte	0x62
 1578 09a8 31010000 		.4byte	0x131
 1579 09ac C1010000 		.4byte	.LLST5
 1580 09b0 24       		.uleb128 0x24
 1581 09b1 D4040000 		.4byte	.LASF124
 1582 09b5 570A0000 		.4byte	0xa57
 1583 09b9 25       		.uleb128 0x25
 1584 09ba 00000000 		.4byte	.Ldebug_ranges0+0
 1585 09be 26       		.uleb128 0x26
 1586 09bf 6E6F7700 		.ascii	"now\000"
 1587 09c3 01       		.byte	0x1
 1588 09c4 6C       		.byte	0x6c
 1589 09c5 31010000 		.4byte	0x131
 1590 09c9 27       		.uleb128 0x27
 1591 09ca ED080000 		.4byte	0x8ed
 1592 09ce 04000000 		.4byte	.LBB28
 1593 09d2 28000000 		.4byte	.Ldebug_ranges0+0x28
 1594 09d6 01       		.byte	0x1
 1595 09d7 6C       		.byte	0x6c
 1596 09d8 FD090000 		.4byte	0x9fd
ARM GAS  /tmp/ccKjFdwr.s 			page 29


 1597 09dc 28       		.uleb128 0x28
 1598 09dd E1080000 		.4byte	0x8e1
 1599 09e1 04000000 		.4byte	.LBB29
 1600 09e5 28000000 		.4byte	.Ldebug_ranges0+0x28
 1601 09e9 10       		.byte	0x10
 1602 09ea B101     		.2byte	0x1b1
 1603 09ec 29       		.uleb128 0x29
 1604 09ed D5080000 		.4byte	0x8d5
 1605 09f1 04000000 		.4byte	.LBB30
 1606 09f5 28000000 		.4byte	.Ldebug_ranges0+0x28
 1607 09f9 03       		.byte	0x3
 1608 09fa 6B       		.byte	0x6b
 1609 09fb 00       		.byte	0
 1610 09fc 00       		.byte	0
 1611 09fd 27       		.uleb128 0x27
 1612 09fe FA080000 		.4byte	0x8fa
 1613 0a02 2C000000 		.4byte	.LBB36
 1614 0a06 40000000 		.4byte	.Ldebug_ranges0+0x40
 1615 0a0a 01       		.byte	0x1
 1616 0a0b 81       		.byte	0x81
 1617 0a0c 230A0000 		.4byte	0xa23
 1618 0a10 2A       		.uleb128 0x2a
 1619 0a11 06090000 		.4byte	0x906
 1620 0a15 E4010000 		.4byte	.LLST6
 1621 0a19 2B       		.uleb128 0x2b
 1622 0a1a 36000000 		.4byte	.LVL7
 1623 0a1e 4D0B0000 		.4byte	0xb4d
 1624 0a22 00       		.byte	0
 1625 0a23 2C       		.uleb128 0x2c
 1626 0a24 12090000 		.4byte	0x912
 1627 0a28 44000000 		.4byte	.LBB40
 1628 0a2c 08000000 		.4byte	.LBE40-.LBB40
 1629 0a30 01       		.byte	0x1
 1630 0a31 97       		.byte	0x97
 1631 0a32 2A       		.uleb128 0x2a
 1632 0a33 1E090000 		.4byte	0x91e
 1633 0a37 07020000 		.4byte	.LLST7
 1634 0a3b 2D       		.uleb128 0x2d
 1635 0a3c 4A000000 		.4byte	.LVL13
 1636 0a40 5E0B0000 		.4byte	0xb5e
 1637 0a44 00       		.byte	0
 1638 0a45 00       		.byte	0
 1639 0a46 00       		.byte	0
 1640 0a47 10       		.uleb128 0x10
 1641 0a48 A5080000 		.4byte	0x8a5
 1642 0a4c 570A0000 		.4byte	0xa57
 1643 0a50 11       		.uleb128 0x11
 1644 0a51 4F040000 		.4byte	0x44f
 1645 0a55 0A       		.byte	0xa
 1646 0a56 00       		.byte	0
 1647 0a57 18       		.uleb128 0x18
 1648 0a58 470A0000 		.4byte	0xa47
 1649 0a5c 1F       		.uleb128 0x1f
 1650 0a5d C3000000 		.4byte	.LASF123
 1651 0a61 01       		.byte	0x1
 1652 0a62 BE       		.byte	0xbe
 1653 0a63 00000000 		.4byte	.LFB248
ARM GAS  /tmp/ccKjFdwr.s 			page 30


 1654 0a67 74000000 		.4byte	.LFE248-.LFB248
 1655 0a6b 01       		.uleb128 0x1
 1656 0a6c 9C       		.byte	0x9c
 1657 0a6d 1C0B0000 		.4byte	0xb1c
 1658 0a71 20       		.uleb128 0x20
 1659 0a72 76747000 		.ascii	"vtp\000"
 1660 0a76 01       		.byte	0x1
 1661 0a77 BE       		.byte	0xbe
 1662 0a78 B2080000 		.4byte	0x8b2
 1663 0a7c 2A020000 		.4byte	.LLST8
 1664 0a80 24       		.uleb128 0x24
 1665 0a81 D4040000 		.4byte	.LASF124
 1666 0a85 2C0B0000 		.4byte	0xb2c
 1667 0a89 23       		.uleb128 0x23
 1668 0a8a F3010000 		.4byte	.LASF125
 1669 0a8e 01       		.byte	0x1
 1670 0a8f D2       		.byte	0xd2
 1671 0a90 31010000 		.4byte	0x131
 1672 0a94 4B020000 		.4byte	.LLST9
 1673 0a98 23       		.uleb128 0x23
 1674 0a99 1D000000 		.4byte	.LASF59
 1675 0a9d 01       		.byte	0x1
 1676 0a9e D2       		.byte	0xd2
 1677 0a9f 31010000 		.4byte	0x131
 1678 0aa3 6F020000 		.4byte	.LLST10
 1679 0aa7 2E       		.uleb128 0x2e
 1680 0aa8 2A090000 		.4byte	0x92a
 1681 0aac 3E000000 		.4byte	.LBB45
 1682 0ab0 04000000 		.4byte	.LBE45-.LBB45
 1683 0ab4 01       		.byte	0x1
 1684 0ab5 EA       		.byte	0xea
 1685 0ab6 C40A0000 		.4byte	0xac4
 1686 0aba 2B       		.uleb128 0x2b
 1687 0abb 42000000 		.4byte	.LVL19
 1688 0abf 6F0B0000 		.4byte	0xb6f
 1689 0ac3 00       		.byte	0
 1690 0ac4 27       		.uleb128 0x27
 1691 0ac5 ED080000 		.4byte	0x8ed
 1692 0ac9 48000000 		.4byte	.LBB47
 1693 0acd 58000000 		.4byte	.Ldebug_ranges0+0x58
 1694 0ad1 01       		.byte	0x1
 1695 0ad2 F9       		.byte	0xf9
 1696 0ad3 F80A0000 		.4byte	0xaf8
 1697 0ad7 28       		.uleb128 0x28
 1698 0ad8 E1080000 		.4byte	0x8e1
 1699 0adc 48000000 		.4byte	.LBB48
 1700 0ae0 58000000 		.4byte	.Ldebug_ranges0+0x58
 1701 0ae4 10       		.byte	0x10
 1702 0ae5 B101     		.2byte	0x1b1
 1703 0ae7 29       		.uleb128 0x29
 1704 0ae8 D5080000 		.4byte	0x8d5
 1705 0aec 48000000 		.4byte	.LBB49
 1706 0af0 58000000 		.4byte	.Ldebug_ranges0+0x58
 1707 0af4 03       		.byte	0x3
 1708 0af5 6B       		.byte	0x6b
 1709 0af6 00       		.byte	0
 1710 0af7 00       		.byte	0
ARM GAS  /tmp/ccKjFdwr.s 			page 31


 1711 0af8 28       		.uleb128 0x28
 1712 0af9 12090000 		.4byte	0x912
 1713 0afd 5E000000 		.4byte	.LBB55
 1714 0b01 70000000 		.4byte	.Ldebug_ranges0+0x70
 1715 0b05 01       		.byte	0x1
 1716 0b06 0A01     		.2byte	0x10a
 1717 0b08 2A       		.uleb128 0x2a
 1718 0b09 1E090000 		.4byte	0x91e
 1719 0b0d 82020000 		.4byte	.LLST11
 1720 0b11 2B       		.uleb128 0x2b
 1721 0b12 68000000 		.4byte	.LVL24
 1722 0b16 5E0B0000 		.4byte	0xb5e
 1723 0b1a 00       		.byte	0
 1724 0b1b 00       		.byte	0
 1725 0b1c 10       		.uleb128 0x10
 1726 0b1d A5080000 		.4byte	0x8a5
 1727 0b21 2C0B0000 		.4byte	0xb2c
 1728 0b25 11       		.uleb128 0x11
 1729 0b26 4F040000 		.4byte	0x44f
 1730 0b2a 0C       		.byte	0xc
 1731 0b2b 00       		.byte	0
 1732 0b2c 18       		.uleb128 0x18
 1733 0b2d 1C0B0000 		.4byte	0xb1c
 1734 0b31 2F       		.uleb128 0x2f
 1735 0b32 02010000 		.4byte	.LASF126
 1736 0b36 12       		.byte	0x12
 1737 0b37 4407     		.2byte	0x744
 1738 0b39 3D0B0000 		.4byte	0xb3d
 1739 0b3d 0F       		.uleb128 0xf
 1740 0b3e A2000000 		.4byte	0xa2
 1741 0b42 30       		.uleb128 0x30
 1742 0b43 636800   		.ascii	"ch\000"
 1743 0b46 08       		.byte	0x8
 1744 0b47 D201     		.2byte	0x1d2
 1745 0b49 E9030000 		.4byte	0x3e9
 1746 0b4d 31       		.uleb128 0x31
 1747 0b4e AD050000 		.4byte	.LASF127
 1748 0b52 11       		.byte	0x11
 1749 0b53 57       		.byte	0x57
 1750 0b54 5E0B0000 		.4byte	0xb5e
 1751 0b58 0D       		.uleb128 0xd
 1752 0b59 31010000 		.4byte	0x131
 1753 0b5d 00       		.byte	0
 1754 0b5e 31       		.uleb128 0x31
 1755 0b5f 0F060000 		.4byte	.LASF128
 1756 0b63 11       		.byte	0x11
 1757 0b64 59       		.byte	0x59
 1758 0b65 6F0B0000 		.4byte	0xb6f
 1759 0b69 0D       		.uleb128 0xd
 1760 0b6a 31010000 		.4byte	0x131
 1761 0b6e 00       		.byte	0
 1762 0b6f 32       		.uleb128 0x32
 1763 0b70 52050000 		.4byte	.LASF134
 1764 0b74 11       		.byte	0x11
 1765 0b75 58       		.byte	0x58
 1766 0b76 00       		.byte	0
 1767              		.section	.debug_abbrev,"",%progbits
ARM GAS  /tmp/ccKjFdwr.s 			page 32


 1768              	.Ldebug_abbrev0:
 1769 0000 01       		.uleb128 0x1
 1770 0001 11       		.uleb128 0x11
 1771 0002 01       		.byte	0x1
 1772 0003 25       		.uleb128 0x25
 1773 0004 0E       		.uleb128 0xe
 1774 0005 13       		.uleb128 0x13
 1775 0006 0B       		.uleb128 0xb
 1776 0007 03       		.uleb128 0x3
 1777 0008 0E       		.uleb128 0xe
 1778 0009 1B       		.uleb128 0x1b
 1779 000a 0E       		.uleb128 0xe
 1780 000b 55       		.uleb128 0x55
 1781 000c 17       		.uleb128 0x17
 1782 000d 11       		.uleb128 0x11
 1783 000e 01       		.uleb128 0x1
 1784 000f 10       		.uleb128 0x10
 1785 0010 17       		.uleb128 0x17
 1786 0011 00       		.byte	0
 1787 0012 00       		.byte	0
 1788 0013 02       		.uleb128 0x2
 1789 0014 24       		.uleb128 0x24
 1790 0015 00       		.byte	0
 1791 0016 0B       		.uleb128 0xb
 1792 0017 0B       		.uleb128 0xb
 1793 0018 3E       		.uleb128 0x3e
 1794 0019 0B       		.uleb128 0xb
 1795 001a 03       		.uleb128 0x3
 1796 001b 08       		.uleb128 0x8
 1797 001c 00       		.byte	0
 1798 001d 00       		.byte	0
 1799 001e 03       		.uleb128 0x3
 1800 001f 24       		.uleb128 0x24
 1801 0020 00       		.byte	0
 1802 0021 0B       		.uleb128 0xb
 1803 0022 0B       		.uleb128 0xb
 1804 0023 3E       		.uleb128 0x3e
 1805 0024 0B       		.uleb128 0xb
 1806 0025 03       		.uleb128 0x3
 1807 0026 0E       		.uleb128 0xe
 1808 0027 00       		.byte	0
 1809 0028 00       		.byte	0
 1810 0029 04       		.uleb128 0x4
 1811 002a 16       		.uleb128 0x16
 1812 002b 00       		.byte	0
 1813 002c 03       		.uleb128 0x3
 1814 002d 0E       		.uleb128 0xe
 1815 002e 3A       		.uleb128 0x3a
 1816 002f 0B       		.uleb128 0xb
 1817 0030 3B       		.uleb128 0x3b
 1818 0031 0B       		.uleb128 0xb
 1819 0032 49       		.uleb128 0x49
 1820 0033 13       		.uleb128 0x13
 1821 0034 00       		.byte	0
 1822 0035 00       		.byte	0
 1823 0036 05       		.uleb128 0x5
 1824 0037 13       		.uleb128 0x13
ARM GAS  /tmp/ccKjFdwr.s 			page 33


 1825 0038 01       		.byte	0x1
 1826 0039 03       		.uleb128 0x3
 1827 003a 0E       		.uleb128 0xe
 1828 003b 0B       		.uleb128 0xb
 1829 003c 0B       		.uleb128 0xb
 1830 003d 3A       		.uleb128 0x3a
 1831 003e 0B       		.uleb128 0xb
 1832 003f 3B       		.uleb128 0x3b
 1833 0040 0B       		.uleb128 0xb
 1834 0041 01       		.uleb128 0x1
 1835 0042 13       		.uleb128 0x13
 1836 0043 00       		.byte	0
 1837 0044 00       		.byte	0
 1838 0045 06       		.uleb128 0x6
 1839 0046 0D       		.uleb128 0xd
 1840 0047 00       		.byte	0
 1841 0048 03       		.uleb128 0x3
 1842 0049 0E       		.uleb128 0xe
 1843 004a 3A       		.uleb128 0x3a
 1844 004b 0B       		.uleb128 0xb
 1845 004c 3B       		.uleb128 0x3b
 1846 004d 0B       		.uleb128 0xb
 1847 004e 49       		.uleb128 0x49
 1848 004f 13       		.uleb128 0x13
 1849 0050 38       		.uleb128 0x38
 1850 0051 0B       		.uleb128 0xb
 1851 0052 00       		.byte	0
 1852 0053 00       		.byte	0
 1853 0054 07       		.uleb128 0x7
 1854 0055 0D       		.uleb128 0xd
 1855 0056 00       		.byte	0
 1856 0057 03       		.uleb128 0x3
 1857 0058 08       		.uleb128 0x8
 1858 0059 3A       		.uleb128 0x3a
 1859 005a 0B       		.uleb128 0xb
 1860 005b 3B       		.uleb128 0x3b
 1861 005c 0B       		.uleb128 0xb
 1862 005d 49       		.uleb128 0x49
 1863 005e 13       		.uleb128 0x13
 1864 005f 38       		.uleb128 0x38
 1865 0060 0B       		.uleb128 0xb
 1866 0061 00       		.byte	0
 1867 0062 00       		.byte	0
 1868 0063 08       		.uleb128 0x8
 1869 0064 0D       		.uleb128 0xd
 1870 0065 00       		.byte	0
 1871 0066 03       		.uleb128 0x3
 1872 0067 08       		.uleb128 0x8
 1873 0068 3A       		.uleb128 0x3a
 1874 0069 0B       		.uleb128 0xb
 1875 006a 3B       		.uleb128 0x3b
 1876 006b 05       		.uleb128 0x5
 1877 006c 49       		.uleb128 0x49
 1878 006d 13       		.uleb128 0x13
 1879 006e 38       		.uleb128 0x38
 1880 006f 0B       		.uleb128 0xb
 1881 0070 00       		.byte	0
ARM GAS  /tmp/ccKjFdwr.s 			page 34


 1882 0071 00       		.byte	0
 1883 0072 09       		.uleb128 0x9
 1884 0073 0D       		.uleb128 0xd
 1885 0074 00       		.byte	0
 1886 0075 03       		.uleb128 0x3
 1887 0076 0E       		.uleb128 0xe
 1888 0077 3A       		.uleb128 0x3a
 1889 0078 0B       		.uleb128 0xb
 1890 0079 3B       		.uleb128 0x3b
 1891 007a 05       		.uleb128 0x5
 1892 007b 49       		.uleb128 0x49
 1893 007c 13       		.uleb128 0x13
 1894 007d 38       		.uleb128 0x38
 1895 007e 0B       		.uleb128 0xb
 1896 007f 00       		.byte	0
 1897 0080 00       		.byte	0
 1898 0081 0A       		.uleb128 0xa
 1899 0082 0F       		.uleb128 0xf
 1900 0083 00       		.byte	0
 1901 0084 0B       		.uleb128 0xb
 1902 0085 0B       		.uleb128 0xb
 1903 0086 49       		.uleb128 0x49
 1904 0087 13       		.uleb128 0x13
 1905 0088 00       		.byte	0
 1906 0089 00       		.byte	0
 1907 008a 0B       		.uleb128 0xb
 1908 008b 13       		.uleb128 0x13
 1909 008c 01       		.byte	0x1
 1910 008d 03       		.uleb128 0x3
 1911 008e 0E       		.uleb128 0xe
 1912 008f 0B       		.uleb128 0xb
 1913 0090 0B       		.uleb128 0xb
 1914 0091 3A       		.uleb128 0x3a
 1915 0092 0B       		.uleb128 0xb
 1916 0093 3B       		.uleb128 0x3b
 1917 0094 05       		.uleb128 0x5
 1918 0095 01       		.uleb128 0x1
 1919 0096 13       		.uleb128 0x13
 1920 0097 00       		.byte	0
 1921 0098 00       		.byte	0
 1922 0099 0C       		.uleb128 0xc
 1923 009a 15       		.uleb128 0x15
 1924 009b 01       		.byte	0x1
 1925 009c 27       		.uleb128 0x27
 1926 009d 19       		.uleb128 0x19
 1927 009e 01       		.uleb128 0x1
 1928 009f 13       		.uleb128 0x13
 1929 00a0 00       		.byte	0
 1930 00a1 00       		.byte	0
 1931 00a2 0D       		.uleb128 0xd
 1932 00a3 05       		.uleb128 0x5
 1933 00a4 00       		.byte	0
 1934 00a5 49       		.uleb128 0x49
 1935 00a6 13       		.uleb128 0x13
 1936 00a7 00       		.byte	0
 1937 00a8 00       		.byte	0
 1938 00a9 0E       		.uleb128 0xe
ARM GAS  /tmp/ccKjFdwr.s 			page 35


 1939 00aa 0F       		.uleb128 0xf
 1940 00ab 00       		.byte	0
 1941 00ac 0B       		.uleb128 0xb
 1942 00ad 0B       		.uleb128 0xb
 1943 00ae 00       		.byte	0
 1944 00af 00       		.byte	0
 1945 00b0 0F       		.uleb128 0xf
 1946 00b1 35       		.uleb128 0x35
 1947 00b2 00       		.byte	0
 1948 00b3 49       		.uleb128 0x49
 1949 00b4 13       		.uleb128 0x13
 1950 00b5 00       		.byte	0
 1951 00b6 00       		.byte	0
 1952 00b7 10       		.uleb128 0x10
 1953 00b8 01       		.uleb128 0x1
 1954 00b9 01       		.byte	0x1
 1955 00ba 49       		.uleb128 0x49
 1956 00bb 13       		.uleb128 0x13
 1957 00bc 01       		.uleb128 0x1
 1958 00bd 13       		.uleb128 0x13
 1959 00be 00       		.byte	0
 1960 00bf 00       		.byte	0
 1961 00c0 11       		.uleb128 0x11
 1962 00c1 21       		.uleb128 0x21
 1963 00c2 00       		.byte	0
 1964 00c3 49       		.uleb128 0x49
 1965 00c4 13       		.uleb128 0x13
 1966 00c5 2F       		.uleb128 0x2f
 1967 00c6 0B       		.uleb128 0xb
 1968 00c7 00       		.byte	0
 1969 00c8 00       		.byte	0
 1970 00c9 12       		.uleb128 0x12
 1971 00ca 13       		.uleb128 0x13
 1972 00cb 01       		.byte	0x1
 1973 00cc 0B       		.uleb128 0xb
 1974 00cd 0B       		.uleb128 0xb
 1975 00ce 3A       		.uleb128 0x3a
 1976 00cf 0B       		.uleb128 0xb
 1977 00d0 3B       		.uleb128 0x3b
 1978 00d1 05       		.uleb128 0x5
 1979 00d2 01       		.uleb128 0x1
 1980 00d3 13       		.uleb128 0x13
 1981 00d4 00       		.byte	0
 1982 00d5 00       		.byte	0
 1983 00d6 13       		.uleb128 0x13
 1984 00d7 16       		.uleb128 0x16
 1985 00d8 00       		.byte	0
 1986 00d9 03       		.uleb128 0x3
 1987 00da 0E       		.uleb128 0xe
 1988 00db 3A       		.uleb128 0x3a
 1989 00dc 0B       		.uleb128 0xb
 1990 00dd 3B       		.uleb128 0x3b
 1991 00de 05       		.uleb128 0x5
 1992 00df 49       		.uleb128 0x49
 1993 00e0 13       		.uleb128 0x13
 1994 00e1 00       		.byte	0
 1995 00e2 00       		.byte	0
ARM GAS  /tmp/ccKjFdwr.s 			page 36


 1996 00e3 14       		.uleb128 0x14
 1997 00e4 13       		.uleb128 0x13
 1998 00e5 01       		.byte	0x1
 1999 00e6 0B       		.uleb128 0xb
 2000 00e7 0B       		.uleb128 0xb
 2001 00e8 3A       		.uleb128 0x3a
 2002 00e9 0B       		.uleb128 0xb
 2003 00ea 3B       		.uleb128 0x3b
 2004 00eb 0B       		.uleb128 0xb
 2005 00ec 01       		.uleb128 0x1
 2006 00ed 13       		.uleb128 0x13
 2007 00ee 00       		.byte	0
 2008 00ef 00       		.byte	0
 2009 00f0 15       		.uleb128 0x15
 2010 00f1 17       		.uleb128 0x17
 2011 00f2 01       		.byte	0x1
 2012 00f3 0B       		.uleb128 0xb
 2013 00f4 0B       		.uleb128 0xb
 2014 00f5 3A       		.uleb128 0x3a
 2015 00f6 0B       		.uleb128 0xb
 2016 00f7 3B       		.uleb128 0x3b
 2017 00f8 0B       		.uleb128 0xb
 2018 00f9 01       		.uleb128 0x1
 2019 00fa 13       		.uleb128 0x13
 2020 00fb 00       		.byte	0
 2021 00fc 00       		.byte	0
 2022 00fd 16       		.uleb128 0x16
 2023 00fe 0D       		.uleb128 0xd
 2024 00ff 00       		.byte	0
 2025 0100 03       		.uleb128 0x3
 2026 0101 0E       		.uleb128 0xe
 2027 0102 3A       		.uleb128 0x3a
 2028 0103 0B       		.uleb128 0xb
 2029 0104 3B       		.uleb128 0x3b
 2030 0105 0B       		.uleb128 0xb
 2031 0106 49       		.uleb128 0x49
 2032 0107 13       		.uleb128 0x13
 2033 0108 00       		.byte	0
 2034 0109 00       		.byte	0
 2035 010a 17       		.uleb128 0x17
 2036 010b 0D       		.uleb128 0xd
 2037 010c 00       		.byte	0
 2038 010d 03       		.uleb128 0x3
 2039 010e 0E       		.uleb128 0xe
 2040 010f 3A       		.uleb128 0x3a
 2041 0110 0B       		.uleb128 0xb
 2042 0111 3B       		.uleb128 0x3b
 2043 0112 05       		.uleb128 0x5
 2044 0113 49       		.uleb128 0x49
 2045 0114 13       		.uleb128 0x13
 2046 0115 00       		.byte	0
 2047 0116 00       		.byte	0
 2048 0117 18       		.uleb128 0x18
 2049 0118 26       		.uleb128 0x26
 2050 0119 00       		.byte	0
 2051 011a 49       		.uleb128 0x49
 2052 011b 13       		.uleb128 0x13
ARM GAS  /tmp/ccKjFdwr.s 			page 37


 2053 011c 00       		.byte	0
 2054 011d 00       		.byte	0
 2055 011e 19       		.uleb128 0x19
 2056 011f 2E       		.uleb128 0x2e
 2057 0120 00       		.byte	0
 2058 0121 03       		.uleb128 0x3
 2059 0122 0E       		.uleb128 0xe
 2060 0123 3A       		.uleb128 0x3a
 2061 0124 0B       		.uleb128 0xb
 2062 0125 3B       		.uleb128 0x3b
 2063 0126 0B       		.uleb128 0xb
 2064 0127 27       		.uleb128 0x27
 2065 0128 19       		.uleb128 0x19
 2066 0129 49       		.uleb128 0x49
 2067 012a 13       		.uleb128 0x13
 2068 012b 20       		.uleb128 0x20
 2069 012c 0B       		.uleb128 0xb
 2070 012d 00       		.byte	0
 2071 012e 00       		.byte	0
 2072 012f 1A       		.uleb128 0x1a
 2073 0130 2E       		.uleb128 0x2e
 2074 0131 00       		.byte	0
 2075 0132 03       		.uleb128 0x3
 2076 0133 0E       		.uleb128 0xe
 2077 0134 3A       		.uleb128 0x3a
 2078 0135 0B       		.uleb128 0xb
 2079 0136 3B       		.uleb128 0x3b
 2080 0137 05       		.uleb128 0x5
 2081 0138 27       		.uleb128 0x27
 2082 0139 19       		.uleb128 0x19
 2083 013a 49       		.uleb128 0x49
 2084 013b 13       		.uleb128 0x13
 2085 013c 20       		.uleb128 0x20
 2086 013d 0B       		.uleb128 0xb
 2087 013e 00       		.byte	0
 2088 013f 00       		.byte	0
 2089 0140 1B       		.uleb128 0x1b
 2090 0141 2E       		.uleb128 0x2e
 2091 0142 01       		.byte	0x1
 2092 0143 03       		.uleb128 0x3
 2093 0144 0E       		.uleb128 0xe
 2094 0145 3A       		.uleb128 0x3a
 2095 0146 0B       		.uleb128 0xb
 2096 0147 3B       		.uleb128 0x3b
 2097 0148 0B       		.uleb128 0xb
 2098 0149 27       		.uleb128 0x27
 2099 014a 19       		.uleb128 0x19
 2100 014b 20       		.uleb128 0x20
 2101 014c 0B       		.uleb128 0xb
 2102 014d 01       		.uleb128 0x1
 2103 014e 13       		.uleb128 0x13
 2104 014f 00       		.byte	0
 2105 0150 00       		.byte	0
 2106 0151 1C       		.uleb128 0x1c
 2107 0152 05       		.uleb128 0x5
 2108 0153 00       		.byte	0
 2109 0154 03       		.uleb128 0x3
ARM GAS  /tmp/ccKjFdwr.s 			page 38


 2110 0155 0E       		.uleb128 0xe
 2111 0156 3A       		.uleb128 0x3a
 2112 0157 0B       		.uleb128 0xb
 2113 0158 3B       		.uleb128 0x3b
 2114 0159 0B       		.uleb128 0xb
 2115 015a 49       		.uleb128 0x49
 2116 015b 13       		.uleb128 0x13
 2117 015c 00       		.byte	0
 2118 015d 00       		.byte	0
 2119 015e 1D       		.uleb128 0x1d
 2120 015f 2E       		.uleb128 0x2e
 2121 0160 00       		.byte	0
 2122 0161 03       		.uleb128 0x3
 2123 0162 0E       		.uleb128 0xe
 2124 0163 3A       		.uleb128 0x3a
 2125 0164 0B       		.uleb128 0xb
 2126 0165 3B       		.uleb128 0x3b
 2127 0166 0B       		.uleb128 0xb
 2128 0167 27       		.uleb128 0x27
 2129 0168 19       		.uleb128 0x19
 2130 0169 20       		.uleb128 0x20
 2131 016a 0B       		.uleb128 0xb
 2132 016b 00       		.byte	0
 2133 016c 00       		.byte	0
 2134 016d 1E       		.uleb128 0x1e
 2135 016e 2E       		.uleb128 0x2e
 2136 016f 00       		.byte	0
 2137 0170 3F       		.uleb128 0x3f
 2138 0171 19       		.uleb128 0x19
 2139 0172 03       		.uleb128 0x3
 2140 0173 0E       		.uleb128 0xe
 2141 0174 3A       		.uleb128 0x3a
 2142 0175 0B       		.uleb128 0xb
 2143 0176 3B       		.uleb128 0x3b
 2144 0177 0B       		.uleb128 0xb
 2145 0178 27       		.uleb128 0x27
 2146 0179 19       		.uleb128 0x19
 2147 017a 11       		.uleb128 0x11
 2148 017b 01       		.uleb128 0x1
 2149 017c 12       		.uleb128 0x12
 2150 017d 06       		.uleb128 0x6
 2151 017e 40       		.uleb128 0x40
 2152 017f 18       		.uleb128 0x18
 2153 0180 9742     		.uleb128 0x2117
 2154 0182 19       		.uleb128 0x19
 2155 0183 00       		.byte	0
 2156 0184 00       		.byte	0
 2157 0185 1F       		.uleb128 0x1f
 2158 0186 2E       		.uleb128 0x2e
 2159 0187 01       		.byte	0x1
 2160 0188 3F       		.uleb128 0x3f
 2161 0189 19       		.uleb128 0x19
 2162 018a 03       		.uleb128 0x3
 2163 018b 0E       		.uleb128 0xe
 2164 018c 3A       		.uleb128 0x3a
 2165 018d 0B       		.uleb128 0xb
 2166 018e 3B       		.uleb128 0x3b
ARM GAS  /tmp/ccKjFdwr.s 			page 39


 2167 018f 0B       		.uleb128 0xb
 2168 0190 27       		.uleb128 0x27
 2169 0191 19       		.uleb128 0x19
 2170 0192 11       		.uleb128 0x11
 2171 0193 01       		.uleb128 0x1
 2172 0194 12       		.uleb128 0x12
 2173 0195 06       		.uleb128 0x6
 2174 0196 40       		.uleb128 0x40
 2175 0197 18       		.uleb128 0x18
 2176 0198 9742     		.uleb128 0x2117
 2177 019a 19       		.uleb128 0x19
 2178 019b 01       		.uleb128 0x1
 2179 019c 13       		.uleb128 0x13
 2180 019d 00       		.byte	0
 2181 019e 00       		.byte	0
 2182 019f 20       		.uleb128 0x20
 2183 01a0 05       		.uleb128 0x5
 2184 01a1 00       		.byte	0
 2185 01a2 03       		.uleb128 0x3
 2186 01a3 08       		.uleb128 0x8
 2187 01a4 3A       		.uleb128 0x3a
 2188 01a5 0B       		.uleb128 0xb
 2189 01a6 3B       		.uleb128 0x3b
 2190 01a7 0B       		.uleb128 0xb
 2191 01a8 49       		.uleb128 0x49
 2192 01a9 13       		.uleb128 0x13
 2193 01aa 02       		.uleb128 0x2
 2194 01ab 17       		.uleb128 0x17
 2195 01ac 00       		.byte	0
 2196 01ad 00       		.byte	0
 2197 01ae 21       		.uleb128 0x21
 2198 01af 05       		.uleb128 0x5
 2199 01b0 00       		.byte	0
 2200 01b1 03       		.uleb128 0x3
 2201 01b2 0E       		.uleb128 0xe
 2202 01b3 3A       		.uleb128 0x3a
 2203 01b4 0B       		.uleb128 0xb
 2204 01b5 3B       		.uleb128 0x3b
 2205 01b6 0B       		.uleb128 0xb
 2206 01b7 49       		.uleb128 0x49
 2207 01b8 13       		.uleb128 0x13
 2208 01b9 02       		.uleb128 0x2
 2209 01ba 17       		.uleb128 0x17
 2210 01bb 00       		.byte	0
 2211 01bc 00       		.byte	0
 2212 01bd 22       		.uleb128 0x22
 2213 01be 34       		.uleb128 0x34
 2214 01bf 00       		.byte	0
 2215 01c0 03       		.uleb128 0x3
 2216 01c1 08       		.uleb128 0x8
 2217 01c2 3A       		.uleb128 0x3a
 2218 01c3 0B       		.uleb128 0xb
 2219 01c4 3B       		.uleb128 0x3b
 2220 01c5 0B       		.uleb128 0xb
 2221 01c6 49       		.uleb128 0x49
 2222 01c7 13       		.uleb128 0x13
 2223 01c8 02       		.uleb128 0x2
ARM GAS  /tmp/ccKjFdwr.s 			page 40


 2224 01c9 17       		.uleb128 0x17
 2225 01ca 00       		.byte	0
 2226 01cb 00       		.byte	0
 2227 01cc 23       		.uleb128 0x23
 2228 01cd 34       		.uleb128 0x34
 2229 01ce 00       		.byte	0
 2230 01cf 03       		.uleb128 0x3
 2231 01d0 0E       		.uleb128 0xe
 2232 01d1 3A       		.uleb128 0x3a
 2233 01d2 0B       		.uleb128 0xb
 2234 01d3 3B       		.uleb128 0x3b
 2235 01d4 0B       		.uleb128 0xb
 2236 01d5 49       		.uleb128 0x49
 2237 01d6 13       		.uleb128 0x13
 2238 01d7 02       		.uleb128 0x2
 2239 01d8 17       		.uleb128 0x17
 2240 01d9 00       		.byte	0
 2241 01da 00       		.byte	0
 2242 01db 24       		.uleb128 0x24
 2243 01dc 34       		.uleb128 0x34
 2244 01dd 00       		.byte	0
 2245 01de 03       		.uleb128 0x3
 2246 01df 0E       		.uleb128 0xe
 2247 01e0 49       		.uleb128 0x49
 2248 01e1 13       		.uleb128 0x13
 2249 01e2 34       		.uleb128 0x34
 2250 01e3 19       		.uleb128 0x19
 2251 01e4 00       		.byte	0
 2252 01e5 00       		.byte	0
 2253 01e6 25       		.uleb128 0x25
 2254 01e7 0B       		.uleb128 0xb
 2255 01e8 01       		.byte	0x1
 2256 01e9 55       		.uleb128 0x55
 2257 01ea 17       		.uleb128 0x17
 2258 01eb 00       		.byte	0
 2259 01ec 00       		.byte	0
 2260 01ed 26       		.uleb128 0x26
 2261 01ee 34       		.uleb128 0x34
 2262 01ef 00       		.byte	0
 2263 01f0 03       		.uleb128 0x3
 2264 01f1 08       		.uleb128 0x8
 2265 01f2 3A       		.uleb128 0x3a
 2266 01f3 0B       		.uleb128 0xb
 2267 01f4 3B       		.uleb128 0x3b
 2268 01f5 0B       		.uleb128 0xb
 2269 01f6 49       		.uleb128 0x49
 2270 01f7 13       		.uleb128 0x13
 2271 01f8 00       		.byte	0
 2272 01f9 00       		.byte	0
 2273 01fa 27       		.uleb128 0x27
 2274 01fb 1D       		.uleb128 0x1d
 2275 01fc 01       		.byte	0x1
 2276 01fd 31       		.uleb128 0x31
 2277 01fe 13       		.uleb128 0x13
 2278 01ff 52       		.uleb128 0x52
 2279 0200 01       		.uleb128 0x1
 2280 0201 55       		.uleb128 0x55
ARM GAS  /tmp/ccKjFdwr.s 			page 41


 2281 0202 17       		.uleb128 0x17
 2282 0203 58       		.uleb128 0x58
 2283 0204 0B       		.uleb128 0xb
 2284 0205 59       		.uleb128 0x59
 2285 0206 0B       		.uleb128 0xb
 2286 0207 01       		.uleb128 0x1
 2287 0208 13       		.uleb128 0x13
 2288 0209 00       		.byte	0
 2289 020a 00       		.byte	0
 2290 020b 28       		.uleb128 0x28
 2291 020c 1D       		.uleb128 0x1d
 2292 020d 01       		.byte	0x1
 2293 020e 31       		.uleb128 0x31
 2294 020f 13       		.uleb128 0x13
 2295 0210 52       		.uleb128 0x52
 2296 0211 01       		.uleb128 0x1
 2297 0212 55       		.uleb128 0x55
 2298 0213 17       		.uleb128 0x17
 2299 0214 58       		.uleb128 0x58
 2300 0215 0B       		.uleb128 0xb
 2301 0216 59       		.uleb128 0x59
 2302 0217 05       		.uleb128 0x5
 2303 0218 00       		.byte	0
 2304 0219 00       		.byte	0
 2305 021a 29       		.uleb128 0x29
 2306 021b 1D       		.uleb128 0x1d
 2307 021c 00       		.byte	0
 2308 021d 31       		.uleb128 0x31
 2309 021e 13       		.uleb128 0x13
 2310 021f 52       		.uleb128 0x52
 2311 0220 01       		.uleb128 0x1
 2312 0221 55       		.uleb128 0x55
 2313 0222 17       		.uleb128 0x17
 2314 0223 58       		.uleb128 0x58
 2315 0224 0B       		.uleb128 0xb
 2316 0225 59       		.uleb128 0x59
 2317 0226 0B       		.uleb128 0xb
 2318 0227 00       		.byte	0
 2319 0228 00       		.byte	0
 2320 0229 2A       		.uleb128 0x2a
 2321 022a 05       		.uleb128 0x5
 2322 022b 00       		.byte	0
 2323 022c 31       		.uleb128 0x31
 2324 022d 13       		.uleb128 0x13
 2325 022e 02       		.uleb128 0x2
 2326 022f 17       		.uleb128 0x17
 2327 0230 00       		.byte	0
 2328 0231 00       		.byte	0
 2329 0232 2B       		.uleb128 0x2b
 2330 0233 898201   		.uleb128 0x4109
 2331 0236 00       		.byte	0
 2332 0237 11       		.uleb128 0x11
 2333 0238 01       		.uleb128 0x1
 2334 0239 9542     		.uleb128 0x2115
 2335 023b 19       		.uleb128 0x19
 2336 023c 31       		.uleb128 0x31
 2337 023d 13       		.uleb128 0x13
ARM GAS  /tmp/ccKjFdwr.s 			page 42


 2338 023e 00       		.byte	0
 2339 023f 00       		.byte	0
 2340 0240 2C       		.uleb128 0x2c
 2341 0241 1D       		.uleb128 0x1d
 2342 0242 01       		.byte	0x1
 2343 0243 31       		.uleb128 0x31
 2344 0244 13       		.uleb128 0x13
 2345 0245 11       		.uleb128 0x11
 2346 0246 01       		.uleb128 0x1
 2347 0247 12       		.uleb128 0x12
 2348 0248 06       		.uleb128 0x6
 2349 0249 58       		.uleb128 0x58
 2350 024a 0B       		.uleb128 0xb
 2351 024b 59       		.uleb128 0x59
 2352 024c 0B       		.uleb128 0xb
 2353 024d 00       		.byte	0
 2354 024e 00       		.byte	0
 2355 024f 2D       		.uleb128 0x2d
 2356 0250 898201   		.uleb128 0x4109
 2357 0253 00       		.byte	0
 2358 0254 11       		.uleb128 0x11
 2359 0255 01       		.uleb128 0x1
 2360 0256 31       		.uleb128 0x31
 2361 0257 13       		.uleb128 0x13
 2362 0258 00       		.byte	0
 2363 0259 00       		.byte	0
 2364 025a 2E       		.uleb128 0x2e
 2365 025b 1D       		.uleb128 0x1d
 2366 025c 01       		.byte	0x1
 2367 025d 31       		.uleb128 0x31
 2368 025e 13       		.uleb128 0x13
 2369 025f 11       		.uleb128 0x11
 2370 0260 01       		.uleb128 0x1
 2371 0261 12       		.uleb128 0x12
 2372 0262 06       		.uleb128 0x6
 2373 0263 58       		.uleb128 0x58
 2374 0264 0B       		.uleb128 0xb
 2375 0265 59       		.uleb128 0x59
 2376 0266 0B       		.uleb128 0xb
 2377 0267 01       		.uleb128 0x1
 2378 0268 13       		.uleb128 0x13
 2379 0269 00       		.byte	0
 2380 026a 00       		.byte	0
 2381 026b 2F       		.uleb128 0x2f
 2382 026c 34       		.uleb128 0x34
 2383 026d 00       		.byte	0
 2384 026e 03       		.uleb128 0x3
 2385 026f 0E       		.uleb128 0xe
 2386 0270 3A       		.uleb128 0x3a
 2387 0271 0B       		.uleb128 0xb
 2388 0272 3B       		.uleb128 0x3b
 2389 0273 05       		.uleb128 0x5
 2390 0274 49       		.uleb128 0x49
 2391 0275 13       		.uleb128 0x13
 2392 0276 3F       		.uleb128 0x3f
 2393 0277 19       		.uleb128 0x19
 2394 0278 3C       		.uleb128 0x3c
ARM GAS  /tmp/ccKjFdwr.s 			page 43


 2395 0279 19       		.uleb128 0x19
 2396 027a 00       		.byte	0
 2397 027b 00       		.byte	0
 2398 027c 30       		.uleb128 0x30
 2399 027d 34       		.uleb128 0x34
 2400 027e 00       		.byte	0
 2401 027f 03       		.uleb128 0x3
 2402 0280 08       		.uleb128 0x8
 2403 0281 3A       		.uleb128 0x3a
 2404 0282 0B       		.uleb128 0xb
 2405 0283 3B       		.uleb128 0x3b
 2406 0284 05       		.uleb128 0x5
 2407 0285 49       		.uleb128 0x49
 2408 0286 13       		.uleb128 0x13
 2409 0287 3F       		.uleb128 0x3f
 2410 0288 19       		.uleb128 0x19
 2411 0289 3C       		.uleb128 0x3c
 2412 028a 19       		.uleb128 0x19
 2413 028b 00       		.byte	0
 2414 028c 00       		.byte	0
 2415 028d 31       		.uleb128 0x31
 2416 028e 2E       		.uleb128 0x2e
 2417 028f 01       		.byte	0x1
 2418 0290 3F       		.uleb128 0x3f
 2419 0291 19       		.uleb128 0x19
 2420 0292 03       		.uleb128 0x3
 2421 0293 0E       		.uleb128 0xe
 2422 0294 3A       		.uleb128 0x3a
 2423 0295 0B       		.uleb128 0xb
 2424 0296 3B       		.uleb128 0x3b
 2425 0297 0B       		.uleb128 0xb
 2426 0298 27       		.uleb128 0x27
 2427 0299 19       		.uleb128 0x19
 2428 029a 3C       		.uleb128 0x3c
 2429 029b 19       		.uleb128 0x19
 2430 029c 01       		.uleb128 0x1
 2431 029d 13       		.uleb128 0x13
 2432 029e 00       		.byte	0
 2433 029f 00       		.byte	0
 2434 02a0 32       		.uleb128 0x32
 2435 02a1 2E       		.uleb128 0x2e
 2436 02a2 00       		.byte	0
 2437 02a3 3F       		.uleb128 0x3f
 2438 02a4 19       		.uleb128 0x19
 2439 02a5 03       		.uleb128 0x3
 2440 02a6 0E       		.uleb128 0xe
 2441 02a7 3A       		.uleb128 0x3a
 2442 02a8 0B       		.uleb128 0xb
 2443 02a9 3B       		.uleb128 0x3b
 2444 02aa 0B       		.uleb128 0xb
 2445 02ab 27       		.uleb128 0x27
 2446 02ac 19       		.uleb128 0x19
 2447 02ad 3C       		.uleb128 0x3c
 2448 02ae 19       		.uleb128 0x19
 2449 02af 00       		.byte	0
 2450 02b0 00       		.byte	0
 2451 02b1 00       		.byte	0
ARM GAS  /tmp/ccKjFdwr.s 			page 44


 2452              		.section	.debug_loc,"",%progbits
 2453              	.Ldebug_loc0:
 2454              	.LLST0:
 2455 0000 00000000 		.4byte	.LVL0
 2456 0004 2E000000 		.4byte	.LVL5
 2457 0008 0100     		.2byte	0x1
 2458 000a 50       		.byte	0x50
 2459 000b 2E000000 		.4byte	.LVL5
 2460 000f 32000000 		.4byte	.LVL6
 2461 0013 0100     		.2byte	0x1
 2462 0015 56       		.byte	0x56
 2463 0016 32000000 		.4byte	.LVL6
 2464 001a 35000000 		.4byte	.LVL7-1
 2465 001e 0200     		.2byte	0x2
 2466 0020 72       		.byte	0x72
 2467 0021 00       		.sleb128 0
 2468 0022 35000000 		.4byte	.LVL7-1
 2469 0026 36000000 		.4byte	.LVL7
 2470 002a 0400     		.2byte	0x4
 2471 002c F3       		.byte	0xf3
 2472 002d 01       		.uleb128 0x1
 2473 002e 50       		.byte	0x50
 2474 002f 9F       		.byte	0x9f
 2475 0030 36000000 		.4byte	.LVL7
 2476 0034 38000000 		.4byte	.LVL8
 2477 0038 0100     		.2byte	0x1
 2478 003a 50       		.byte	0x50
 2479 003b 38000000 		.4byte	.LVL8
 2480 003f 70000000 		.4byte	.LVL16
 2481 0043 0100     		.2byte	0x1
 2482 0045 56       		.byte	0x56
 2483 0046 70000000 		.4byte	.LVL16
 2484 004a 78000000 		.4byte	.LFE247
 2485 004e 0400     		.2byte	0x4
 2486 0050 F3       		.byte	0xf3
 2487 0051 01       		.uleb128 0x1
 2488 0052 50       		.byte	0x50
 2489 0053 9F       		.byte	0x9f
 2490 0054 00000000 		.4byte	0
 2491 0058 00000000 		.4byte	0
 2492              	.LLST1:
 2493 005c 00000000 		.4byte	.LVL0
 2494 0060 14000000 		.4byte	.LVL3
 2495 0064 0100     		.2byte	0x1
 2496 0066 51       		.byte	0x51
 2497 0067 14000000 		.4byte	.LVL3
 2498 006b 35000000 		.4byte	.LVL7-1
 2499 006f 0100     		.2byte	0x1
 2500 0071 51       		.byte	0x51
 2501 0072 35000000 		.4byte	.LVL7-1
 2502 0076 36000000 		.4byte	.LVL7
 2503 007a 1700     		.2byte	0x17
 2504 007c F3       		.byte	0xf3
 2505 007d 01       		.uleb128 0x1
 2506 007e 51       		.byte	0x51
 2507 007f 32       		.byte	0x32
 2508 0080 F3       		.byte	0xf3
ARM GAS  /tmp/ccKjFdwr.s 			page 45


 2509 0081 01       		.uleb128 0x1
 2510 0082 51       		.byte	0x51
 2511 0083 40       		.byte	0x40
 2512 0084 4B       		.byte	0x4b
 2513 0085 24       		.byte	0x24
 2514 0086 22       		.byte	0x22
 2515 0087 0C       		.byte	0xc
 2516 0088 01000080 		.4byte	0x80000001
 2517 008c 2B       		.byte	0x2b
 2518 008d 28       		.byte	0x28
 2519 008e 0100     		.2byte	0x1
 2520 0090 16       		.byte	0x16
 2521 0091 13       		.byte	0x13
 2522 0092 9F       		.byte	0x9f
 2523 0093 36000000 		.4byte	.LVL7
 2524 0097 49000000 		.4byte	.LVL13-1
 2525 009b 0100     		.2byte	0x1
 2526 009d 51       		.byte	0x51
 2527 009e 49000000 		.4byte	.LVL13-1
 2528 00a2 78000000 		.4byte	.LFE247
 2529 00a6 1700     		.2byte	0x17
 2530 00a8 F3       		.byte	0xf3
 2531 00a9 01       		.uleb128 0x1
 2532 00aa 51       		.byte	0x51
 2533 00ab 32       		.byte	0x32
 2534 00ac F3       		.byte	0xf3
 2535 00ad 01       		.uleb128 0x1
 2536 00ae 51       		.byte	0x51
 2537 00af 40       		.byte	0x40
 2538 00b0 4B       		.byte	0x4b
 2539 00b1 24       		.byte	0x24
 2540 00b2 22       		.byte	0x22
 2541 00b3 0C       		.byte	0xc
 2542 00b4 01000080 		.4byte	0x80000001
 2543 00b8 2B       		.byte	0x2b
 2544 00b9 28       		.byte	0x28
 2545 00ba 0100     		.2byte	0x1
 2546 00bc 16       		.byte	0x16
 2547 00bd 13       		.byte	0x13
 2548 00be 9F       		.byte	0x9f
 2549 00bf 00000000 		.4byte	0
 2550 00c3 00000000 		.4byte	0
 2551              	.LLST2:
 2552 00c7 00000000 		.4byte	.LVL0
 2553 00cb 0E000000 		.4byte	.LVL2
 2554 00cf 0100     		.2byte	0x1
 2555 00d1 52       		.byte	0x52
 2556 00d2 0E000000 		.4byte	.LVL2
 2557 00d6 2E000000 		.4byte	.LVL5
 2558 00da 0200     		.2byte	0x2
 2559 00dc 70       		.byte	0x70
 2560 00dd 0C       		.sleb128 12
 2561 00de 2E000000 		.4byte	.LVL5
 2562 00e2 32000000 		.4byte	.LVL6
 2563 00e6 0200     		.2byte	0x2
 2564 00e8 76       		.byte	0x76
 2565 00e9 0C       		.sleb128 12
ARM GAS  /tmp/ccKjFdwr.s 			page 46


 2566 00ea 32000000 		.4byte	.LVL6
 2567 00ee 35000000 		.4byte	.LVL7-1
 2568 00f2 0500     		.2byte	0x5
 2569 00f4 72       		.byte	0x72
 2570 00f5 00       		.sleb128 0
 2571 00f6 06       		.byte	0x6
 2572 00f7 23       		.byte	0x23
 2573 00f8 0C       		.uleb128 0xc
 2574 00f9 35000000 		.4byte	.LVL7-1
 2575 00fd 36000000 		.4byte	.LVL7
 2576 0101 0400     		.2byte	0x4
 2577 0103 F3       		.byte	0xf3
 2578 0104 01       		.uleb128 0x1
 2579 0105 52       		.byte	0x52
 2580 0106 9F       		.byte	0x9f
 2581 0107 36000000 		.4byte	.LVL7
 2582 010b 38000000 		.4byte	.LVL8
 2583 010f 0200     		.2byte	0x2
 2584 0111 70       		.byte	0x70
 2585 0112 0C       		.sleb128 12
 2586 0113 38000000 		.4byte	.LVL8
 2587 0117 49000000 		.4byte	.LVL13-1
 2588 011b 0200     		.2byte	0x2
 2589 011d 76       		.byte	0x76
 2590 011e 0C       		.sleb128 12
 2591 011f 49000000 		.4byte	.LVL13-1
 2592 0123 78000000 		.4byte	.LFE247
 2593 0127 0400     		.2byte	0x4
 2594 0129 F3       		.byte	0xf3
 2595 012a 01       		.uleb128 0x1
 2596 012b 52       		.byte	0x52
 2597 012c 9F       		.byte	0x9f
 2598 012d 00000000 		.4byte	0
 2599 0131 00000000 		.4byte	0
 2600              	.LLST3:
 2601 0135 00000000 		.4byte	.LVL0
 2602 0139 06000000 		.4byte	.LVL1
 2603 013d 0100     		.2byte	0x1
 2604 013f 53       		.byte	0x53
 2605 0140 06000000 		.4byte	.LVL1
 2606 0144 2E000000 		.4byte	.LVL5
 2607 0148 0200     		.2byte	0x2
 2608 014a 70       		.byte	0x70
 2609 014b 10       		.sleb128 16
 2610 014c 2E000000 		.4byte	.LVL5
 2611 0150 32000000 		.4byte	.LVL6
 2612 0154 0200     		.2byte	0x2
 2613 0156 76       		.byte	0x76
 2614 0157 10       		.sleb128 16
 2615 0158 32000000 		.4byte	.LVL6
 2616 015c 35000000 		.4byte	.LVL7-1
 2617 0160 0500     		.2byte	0x5
 2618 0162 72       		.byte	0x72
 2619 0163 00       		.sleb128 0
 2620 0164 06       		.byte	0x6
 2621 0165 23       		.byte	0x23
 2622 0166 10       		.uleb128 0x10
ARM GAS  /tmp/ccKjFdwr.s 			page 47


 2623 0167 35000000 		.4byte	.LVL7-1
 2624 016b 36000000 		.4byte	.LVL7
 2625 016f 0400     		.2byte	0x4
 2626 0171 F3       		.byte	0xf3
 2627 0172 01       		.uleb128 0x1
 2628 0173 53       		.byte	0x53
 2629 0174 9F       		.byte	0x9f
 2630 0175 36000000 		.4byte	.LVL7
 2631 0179 38000000 		.4byte	.LVL8
 2632 017d 0200     		.2byte	0x2
 2633 017f 70       		.byte	0x70
 2634 0180 10       		.sleb128 16
 2635 0181 38000000 		.4byte	.LVL8
 2636 0185 49000000 		.4byte	.LVL13-1
 2637 0189 0200     		.2byte	0x2
 2638 018b 76       		.byte	0x76
 2639 018c 10       		.sleb128 16
 2640 018d 49000000 		.4byte	.LVL13-1
 2641 0191 78000000 		.4byte	.LFE247
 2642 0195 0400     		.2byte	0x4
 2643 0197 F3       		.byte	0xf3
 2644 0198 01       		.uleb128 0x1
 2645 0199 53       		.byte	0x53
 2646 019a 9F       		.byte	0x9f
 2647 019b 00000000 		.4byte	0
 2648 019f 00000000 		.4byte	0
 2649              	.LLST4:
 2650 01a3 36000000 		.4byte	.LVL7
 2651 01a7 4E000000 		.4byte	.LVL14
 2652 01ab 0100     		.2byte	0x1
 2653 01ad 55       		.byte	0x55
 2654 01ae 50000000 		.4byte	.LVL15
 2655 01b2 70000000 		.4byte	.LVL16
 2656 01b6 0100     		.2byte	0x1
 2657 01b8 55       		.byte	0x55
 2658 01b9 00000000 		.4byte	0
 2659 01bd 00000000 		.4byte	0
 2660              	.LLST5:
 2661 01c1 3C000000 		.4byte	.LVL9
 2662 01c5 3E000000 		.4byte	.LVL10
 2663 01c9 0600     		.2byte	0x6
 2664 01cb 71       		.byte	0x71
 2665 01cc 00       		.sleb128 0
 2666 01cd 74       		.byte	0x74
 2667 01ce 00       		.sleb128 0
 2668 01cf 22       		.byte	0x22
 2669 01d0 9F       		.byte	0x9f
 2670 01d1 3E000000 		.4byte	.LVL10
 2671 01d5 70000000 		.4byte	.LVL16
 2672 01d9 0100     		.2byte	0x1
 2673 01db 54       		.byte	0x54
 2674 01dc 00000000 		.4byte	0
 2675 01e0 00000000 		.4byte	0
 2676              	.LLST6:
 2677 01e4 2C000000 		.4byte	.LVL4
 2678 01e8 2E000000 		.4byte	.LVL5
 2679 01ec 0600     		.2byte	0x6
ARM GAS  /tmp/ccKjFdwr.s 			page 48


 2680 01ee 71       		.byte	0x71
 2681 01ef 00       		.sleb128 0
 2682 01f0 74       		.byte	0x74
 2683 01f1 00       		.sleb128 0
 2684 01f2 22       		.byte	0x22
 2685 01f3 9F       		.byte	0x9f
 2686 01f4 2E000000 		.4byte	.LVL5
 2687 01f8 35000000 		.4byte	.LVL7-1
 2688 01fc 0100     		.2byte	0x1
 2689 01fe 50       		.byte	0x50
 2690 01ff 00000000 		.4byte	0
 2691 0203 00000000 		.4byte	0
 2692              	.LLST7:
 2693 0207 44000000 		.4byte	.LVL11
 2694 020b 46000000 		.4byte	.LVL12
 2695 020f 0600     		.2byte	0x6
 2696 0211 74       		.byte	0x74
 2697 0212 00       		.sleb128 0
 2698 0213 70       		.byte	0x70
 2699 0214 00       		.sleb128 0
 2700 0215 22       		.byte	0x22
 2701 0216 9F       		.byte	0x9f
 2702 0217 46000000 		.4byte	.LVL12
 2703 021b 49000000 		.4byte	.LVL13-1
 2704 021f 0100     		.2byte	0x1
 2705 0221 50       		.byte	0x50
 2706 0222 00000000 		.4byte	0
 2707 0226 00000000 		.4byte	0
 2708              	.LLST8:
 2709 022a 00000000 		.4byte	.LVL17
 2710 022e 32000000 		.4byte	.LVL18
 2711 0232 0100     		.2byte	0x1
 2712 0234 50       		.byte	0x50
 2713 0235 32000000 		.4byte	.LVL18
 2714 0239 74000000 		.4byte	.LFE248
 2715 023d 0400     		.2byte	0x4
 2716 023f F3       		.byte	0xf3
 2717 0240 01       		.uleb128 0x1
 2718 0241 50       		.byte	0x50
 2719 0242 9F       		.byte	0x9f
 2720 0243 00000000 		.4byte	0
 2721 0247 00000000 		.4byte	0
 2722              	.LLST9:
 2723 024b 52000000 		.4byte	.LVL20
 2724 024f 58000000 		.4byte	.LVL21
 2725 0253 0100     		.2byte	0x1
 2726 0255 53       		.byte	0x53
 2727 0256 58000000 		.4byte	.LVL21
 2728 025a 60000000 		.4byte	.LVL23
 2729 025e 0700     		.2byte	0x7
 2730 0260 70       		.byte	0x70
 2731 0261 00       		.sleb128 0
 2732 0262 74       		.byte	0x74
 2733 0263 28       		.sleb128 40
 2734 0264 06       		.byte	0x6
 2735 0265 1C       		.byte	0x1c
 2736 0266 9F       		.byte	0x9f
ARM GAS  /tmp/ccKjFdwr.s 			page 49


 2737 0267 00000000 		.4byte	0
 2738 026b 00000000 		.4byte	0
 2739              	.LLST10:
 2740 026f 58000000 		.4byte	.LVL21
 2741 0273 67000000 		.4byte	.LVL24-1
 2742 0277 0100     		.2byte	0x1
 2743 0279 53       		.byte	0x53
 2744 027a 00000000 		.4byte	0
 2745 027e 00000000 		.4byte	0
 2746              	.LLST11:
 2747 0282 5E000000 		.4byte	.LVL22
 2748 0286 60000000 		.4byte	.LVL23
 2749 028a 0600     		.2byte	0x6
 2750 028c 73       		.byte	0x73
 2751 028d 00       		.sleb128 0
 2752 028e 70       		.byte	0x70
 2753 028f 00       		.sleb128 0
 2754 0290 22       		.byte	0x22
 2755 0291 9F       		.byte	0x9f
 2756 0292 60000000 		.4byte	.LVL23
 2757 0296 67000000 		.4byte	.LVL24-1
 2758 029a 0100     		.2byte	0x1
 2759 029c 50       		.byte	0x50
 2760 029d 00000000 		.4byte	0
 2761 02a1 00000000 		.4byte	0
 2762              		.section	.debug_aranges,"",%progbits
 2763 0000 2C000000 		.4byte	0x2c
 2764 0004 0200     		.2byte	0x2
 2765 0006 00000000 		.4byte	.Ldebug_info0
 2766 000a 04       		.byte	0x4
 2767 000b 00       		.byte	0
 2768 000c 0000     		.2byte	0
 2769 000e 0000     		.2byte	0
 2770 0010 00000000 		.4byte	.LFB246
 2771 0014 1C000000 		.4byte	.LFE246-.LFB246
 2772 0018 00000000 		.4byte	.LFB247
 2773 001c 78000000 		.4byte	.LFE247-.LFB247
 2774 0020 00000000 		.4byte	.LFB248
 2775 0024 74000000 		.4byte	.LFE248-.LFB248
 2776 0028 00000000 		.4byte	0
 2777 002c 00000000 		.4byte	0
 2778              		.section	.debug_ranges,"",%progbits
 2779              	.Ldebug_ranges0:
 2780 0000 04000000 		.4byte	.LBB27
 2781 0004 06000000 		.4byte	.LBE27
 2782 0008 08000000 		.4byte	.LBB42
 2783 000c 1A000000 		.4byte	.LBE42
 2784 0010 1E000000 		.4byte	.LBB43
 2785 0014 2E000000 		.4byte	.LBE43
 2786 0018 32000000 		.4byte	.LBB44
 2787 001c 4C000000 		.4byte	.LBE44
 2788 0020 00000000 		.4byte	0
 2789 0024 00000000 		.4byte	0
 2790 0028 04000000 		.4byte	.LBB28
 2791 002c 06000000 		.4byte	.LBE28
 2792 0030 08000000 		.4byte	.LBB35
 2793 0034 0A000000 		.4byte	.LBE35
ARM GAS  /tmp/ccKjFdwr.s 			page 50


 2794 0038 00000000 		.4byte	0
 2795 003c 00000000 		.4byte	0
 2796 0040 2C000000 		.4byte	.LBB36
 2797 0044 2E000000 		.4byte	.LBE36
 2798 0048 32000000 		.4byte	.LBB39
 2799 004c 36000000 		.4byte	.LBE39
 2800 0050 00000000 		.4byte	0
 2801 0054 00000000 		.4byte	0
 2802 0058 48000000 		.4byte	.LBB47
 2803 005c 4A000000 		.4byte	.LBE47
 2804 0060 4C000000 		.4byte	.LBB54
 2805 0064 4E000000 		.4byte	.LBE54
 2806 0068 00000000 		.4byte	0
 2807 006c 00000000 		.4byte	0
 2808 0070 5E000000 		.4byte	.LBB55
 2809 0074 60000000 		.4byte	.LBE55
 2810 0078 64000000 		.4byte	.LBB58
 2811 007c 74000000 		.4byte	.LBE58
 2812 0080 00000000 		.4byte	0
 2813 0084 00000000 		.4byte	0
 2814 0088 00000000 		.4byte	.LFB246
 2815 008c 1C000000 		.4byte	.LFE246
 2816 0090 00000000 		.4byte	.LFB247
 2817 0094 78000000 		.4byte	.LFE247
 2818 0098 00000000 		.4byte	.LFB248
 2819 009c 74000000 		.4byte	.LFE248
 2820 00a0 00000000 		.4byte	0
 2821 00a4 00000000 		.4byte	0
 2822              		.section	.debug_line,"",%progbits
 2823              	.Ldebug_line0:
 2824 0000 45030000 		.section	.debug_str,"MS",%progbits,1
 2824      02006F02 
 2824      00000201 
 2824      FB0E0D00 
 2824      01010101 
 2825              	.LASF53:
 2826 0000 72656164 		.ascii	"ready_list_t\000"
 2826      795F6C69 
 2826      73745F74 
 2826      00
 2827              	.LASF79:
 2828 000d 44494552 		.ascii	"DIER\000"
 2828      00
 2829              	.LASF103:
 2830 0012 77747472 		.ascii	"wttrp\000"
 2830      7000
 2831              	.LASF49:
 2832 0018 6E657874 		.ascii	"next\000"
 2832      00
 2833              	.LASF59:
 2834 001d 64656C74 		.ascii	"delta\000"
 2834      6100
 2835              	.LASF100:
 2836 0023 7264796D 		.ascii	"rdymsg\000"
 2836      736700
 2837              	.LASF16:
 2838 002a 75696E74 		.ascii	"uint64_t\000"
ARM GAS  /tmp/ccKjFdwr.s 			page 51


 2838      36345F74 
 2838      00
 2839              	.LASF72:
 2840 0033 6B65726E 		.ascii	"kernel_stats\000"
 2840      656C5F73 
 2840      74617473 
 2840      00
 2841              	.LASF24:
 2842 0040 6576656E 		.ascii	"eventmask_t\000"
 2842      746D6173 
 2842      6B5F7400 
 2843              	.LASF5:
 2844 004c 5F5F7569 		.ascii	"__uint8_t\000"
 2844      6E74385F 
 2844      7400
 2845              	.LASF23:
 2846 0056 6D73675F 		.ascii	"msg_t\000"
 2846      7400
 2847              	.LASF52:
 2848 005c 70726576 		.ascii	"prev\000"
 2848      00
 2849              	.LASF77:
 2850 0061 706F7274 		.ascii	"port_intctx\000"
 2850      5F696E74 
 2850      63747800 
 2851              	.LASF51:
 2852 006d 63685F74 		.ascii	"ch_threads_queue\000"
 2852      68726561 
 2852      64735F71 
 2852      75657565 
 2852      00
 2853              	.LASF64:
 2854 007e 73797374 		.ascii	"system_debug_t\000"
 2854      656D5F64 
 2854      65627567 
 2854      5F7400
 2855              	.LASF81:
 2856 008d 43434D52 		.ascii	"CCMR2\000"
 2856      3200
 2857              	.LASF91:
 2858 0093 776F7273 		.ascii	"worst\000"
 2858      7400
 2859              	.LASF94:
 2860 0099 74696D65 		.ascii	"time_measurement_t\000"
 2860      5F6D6561 
 2860      73757265 
 2860      6D656E74 
 2860      5F7400
 2861              	.LASF12:
 2862 00ac 6C6F6E67 		.ascii	"long long unsigned int\000"
 2862      206C6F6E 
 2862      6720756E 
 2862      7369676E 
 2862      65642069 
 2863              	.LASF123:
 2864 00c3 63685654 		.ascii	"chVTDoResetI\000"
 2864      446F5265 
ARM GAS  /tmp/ccKjFdwr.s 			page 52


 2864      73657449 
 2864      00
 2865              	.LASF101:
 2866 00d0 65786974 		.ascii	"exitcode\000"
 2866      636F6465 
 2866      00
 2867              	.LASF71:
 2868 00d9 6D61696E 		.ascii	"mainthread\000"
 2868      74687265 
 2868      616400
 2869              	.LASF104:
 2870 00e4 73656E74 		.ascii	"sentmsg\000"
 2870      6D736700 
 2871              	.LASF61:
 2872 00ec 76697274 		.ascii	"virtual_timers_list_t\000"
 2872      75616C5F 
 2872      74696D65 
 2872      72735F6C 
 2872      6973745F 
 2873              	.LASF126:
 2874 0102 49544D5F 		.ascii	"ITM_RxBuffer\000"
 2874      52784275 
 2874      66666572 
 2874      00
 2875              	.LASF83:
 2876 010f 42445452 		.ascii	"BDTR\000"
 2876      00
 2877              	.LASF18:
 2878 0114 72747469 		.ascii	"rttime_t\000"
 2878      6D655F74 
 2878      00
 2879              	.LASF80:
 2880 011d 43434D52 		.ascii	"CCMR1\000"
 2880      3100
 2881              	.LASF133:
 2882 0123 5F76745F 		.ascii	"_vt_init\000"
 2882      696E6974 
 2882      00
 2883              	.LASF85:
 2884 012c 43434D52 		.ascii	"CCMR3\000"
 2884      3300
 2885              	.LASF1:
 2886 0132 7369676E 		.ascii	"signed char\000"
 2886      65642063 
 2886      68617200 
 2887              	.LASF70:
 2888 013e 76746C69 		.ascii	"vtlist\000"
 2888      737400
 2889              	.LASF131:
 2890 0145 2F686F6D 		.ascii	"/home/kozinalexey/f4by/ardupilot/build/f4by-ch\000"
 2890      652F6B6F 
 2890      7A696E61 
 2890      6C657865 
 2890      792F6634 
 2891              	.LASF39:
 2892 0174 6D736771 		.ascii	"msgqueue\000"
 2892      75657565 
ARM GAS  /tmp/ccKjFdwr.s 			page 53


 2892      00
 2893              	.LASF35:
 2894 017d 73746174 		.ascii	"state\000"
 2894      6500
 2895              	.LASF7:
 2896 0183 6C6F6E67 		.ascii	"long int\000"
 2896      20696E74 
 2896      00
 2897              	.LASF20:
 2898 018c 74737461 		.ascii	"tstate_t\000"
 2898      74655F74 
 2898      00
 2899              	.LASF60:
 2900 0195 66756E63 		.ascii	"func\000"
 2900      00
 2901              	.LASF44:
 2902 019a 73746174 		.ascii	"stats\000"
 2902      7300
 2903              	.LASF8:
 2904 01a0 5F5F7569 		.ascii	"__uint32_t\000"
 2904      6E743332 
 2904      5F7400
 2905              	.LASF74:
 2906 01ab 72656761 		.ascii	"regarm_t\000"
 2906      726D5F74 
 2906      00
 2907              	.LASF65:
 2908 01b4 63685F73 		.ascii	"ch_system_debug\000"
 2908      79737465 
 2908      6D5F6465 
 2908      62756700 
 2909              	.LASF38:
 2910 01c4 77616974 		.ascii	"waiting\000"
 2910      696E6700 
 2911              	.LASF10:
 2912 01cc 6C6F6E67 		.ascii	"long long int\000"
 2912      206C6F6E 
 2912      6720696E 
 2912      7400
 2913              	.LASF25:
 2914 01da 636E745F 		.ascii	"cnt_t\000"
 2914      7400
 2915              	.LASF116:
 2916 01e0 63685654 		.ascii	"chVTGetSystemTimeX\000"
 2916      47657453 
 2916      79737465 
 2916      6D54696D 
 2916      655800
 2917              	.LASF125:
 2918 01f3 6E6F7764 		.ascii	"nowdelta\000"
 2918      656C7461 
 2918      00
 2919              	.LASF129:
 2920 01fc 474E5520 		.ascii	"GNU C 4.9.3 20150529 (prerelease) -mcpu=cortex-m4 -"
 2920      4320342E 
 2920      392E3320 
 2920      32303135 
ARM GAS  /tmp/ccKjFdwr.s 			page 54


 2920      30353239 
 2921 022f 6D666C6F 		.ascii	"mfloat-abi=hard -mfpu=fpv4-sp-d16 -mno-thumb-interw"
 2921      61742D61 
 2921      62693D68 
 2921      61726420 
 2921      2D6D6670 
 2922 0262 6F726B20 		.ascii	"ork -mthumb -g -Os -fomit-frame-pointer -falign-fun"
 2922      2D6D7468 
 2922      756D6220 
 2922      2D67202D 
 2922      4F73202D 
 2923 0295 6374696F 		.ascii	"ctions=16 -ffunction-sections -fdata-sections -fno-"
 2923      6E733D31 
 2923      36202D66 
 2923      66756E63 
 2923      74696F6E 
 2924 02c8 636F6D6D 		.ascii	"common -fsingle-precision-constant\000"
 2924      6F6E202D 
 2924      6673696E 
 2924      676C652D 
 2924      70726563 
 2925              	.LASF105:
 2926 02eb 77747365 		.ascii	"wtsemp\000"
 2926      6D7000
 2927              	.LASF95:
 2928 02f2 6E5F6972 		.ascii	"n_irq\000"
 2928      7100
 2929              	.LASF29:
 2930 02f8 71756575 		.ascii	"queue\000"
 2930      6500
 2931              	.LASF43:
 2932 02fe 6D706F6F 		.ascii	"mpool\000"
 2932      6C00
 2933              	.LASF90:
 2934 0304 62657374 		.ascii	"best\000"
 2934      00
 2935              	.LASF78:
 2936 0309 534D4352 		.ascii	"SMCR\000"
 2936      00
 2937              	.LASF99:
 2938 030e 6B65726E 		.ascii	"kernel_stats_t\000"
 2938      656C5F73 
 2938      74617473 
 2938      5F7400
 2939              	.LASF33:
 2940 031d 6E616D65 		.ascii	"name\000"
 2940      00
 2941              	.LASF47:
 2942 0322 63685F74 		.ascii	"ch_thread\000"
 2942      68726561 
 2942      6400
 2943              	.LASF117:
 2944 032c 706F7274 		.ascii	"port_timer_start_alarm\000"
 2944      5F74696D 
 2944      65725F73 
 2944      74617274 
 2944      5F616C61 
ARM GAS  /tmp/ccKjFdwr.s 			page 55


 2945              	.LASF92:
 2946 0343 6C617374 		.ascii	"last\000"
 2946      00
 2947              	.LASF26:
 2948 0348 75636E74 		.ascii	"ucnt_t\000"
 2948      5F7400
 2949              	.LASF40:
 2950 034f 6570656E 		.ascii	"epending\000"
 2950      64696E67 
 2950      00
 2951              	.LASF67:
 2952 0358 63685F73 		.ascii	"ch_system_t\000"
 2952      79737465 
 2952      6D5F7400 
 2953              	.LASF87:
 2954 0364 73746D33 		.ascii	"stm32_tim_t\000"
 2954      325F7469 
 2954      6D5F7400 
 2955              	.LASF98:
 2956 0370 6D5F6372 		.ascii	"m_crit_isr\000"
 2956      69745F69 
 2956      737200
 2957              	.LASF54:
 2958 037b 63685F72 		.ascii	"ch_ready_list\000"
 2958      65616479 
 2958      5F6C6973 
 2958      7400
 2959              	.LASF122:
 2960 0389 63685654 		.ascii	"chVTDoSetI\000"
 2960      446F5365 
 2960      744900
 2961              	.LASF6:
 2962 0394 5F5F696E 		.ascii	"__int32_t\000"
 2962      7433325F 
 2962      7400
 2963              	.LASF75:
 2964 039e 73746B61 		.ascii	"stkalign_t\000"
 2964      6C69676E 
 2964      5F7400
 2965              	.LASF31:
 2966 03a9 6E657765 		.ascii	"newer\000"
 2966      7200
 2967              	.LASF42:
 2968 03af 7265616C 		.ascii	"realprio\000"
 2968      7072696F 
 2968      00
 2969              	.LASF73:
 2970 03b8 73697A65 		.ascii	"sizetype\000"
 2970      74797065 
 2970      00
 2971              	.LASF45:
 2972 03c1 74687265 		.ascii	"thread_reference_t\000"
 2972      61645F72 
 2972      65666572 
 2972      656E6365 
 2972      5F7400
 2973              	.LASF62:
ARM GAS  /tmp/ccKjFdwr.s 			page 56


 2974 03d4 63685F76 		.ascii	"ch_virtual_timers_list\000"
 2974      69727475 
 2974      616C5F74 
 2974      696D6572 
 2974      735F6C69 
 2975              	.LASF76:
 2976 03eb 706F7274 		.ascii	"port_context\000"
 2976      5F636F6E 
 2976      74657874 
 2976      00
 2977              	.LASF89:
 2978 03f8 746D5F63 		.ascii	"tm_calibration_t\000"
 2978      616C6962 
 2978      72617469 
 2978      6F6E5F74 
 2978      00
 2979              	.LASF130:
 2980 0409 2E2E2F2E 		.ascii	"../../modules/ChibiOS/os/rt/src/chvt.c\000"
 2980      2E2F6D6F 
 2980      64756C65 
 2980      732F4368 
 2980      6962694F 
 2981              	.LASF119:
 2982 0430 74696D65 		.ascii	"time\000"
 2982      00
 2983              	.LASF30:
 2984 0435 7072696F 		.ascii	"prio\000"
 2984      00
 2985              	.LASF55:
 2986 043a 63757272 		.ascii	"current\000"
 2986      656E7400 
 2987              	.LASF11:
 2988 0442 5F5F7569 		.ascii	"__uint64_t\000"
 2988      6E743634 
 2988      5F7400
 2989              	.LASF93:
 2990 044d 63756D75 		.ascii	"cumulative\000"
 2990      6C617469 
 2990      766500
 2991              	.LASF21:
 2992 0458 74726566 		.ascii	"trefs_t\000"
 2992      735F7400 
 2993              	.LASF37:
 2994 0460 72656673 		.ascii	"refs\000"
 2994      00
 2995              	.LASF57:
 2996 0465 76697274 		.ascii	"virtual_timer_t\000"
 2996      75616C5F 
 2996      74696D65 
 2996      725F7400 
 2997              	.LASF22:
 2998 0475 74707269 		.ascii	"tprio_t\000"
 2998      6F5F7400 
 2999              	.LASF96:
 3000 047d 6E5F6374 		.ascii	"n_ctxswc\000"
 3000      78737763 
 3000      00
ARM GAS  /tmp/ccKjFdwr.s 			page 57


 3001              	.LASF113:
 3002 0486 5F426F6F 		.ascii	"_Bool\000"
 3002      6C00
 3003              	.LASF14:
 3004 048c 696E7433 		.ascii	"int32_t\000"
 3004      325F7400 
 3005              	.LASF2:
 3006 0494 756E7369 		.ascii	"unsigned char\000"
 3006      676E6564 
 3006      20636861 
 3006      7200
 3007              	.LASF120:
 3008 04a2 64656C61 		.ascii	"delay\000"
 3008      7900
 3009              	.LASF3:
 3010 04a8 73686F72 		.ascii	"short int\000"
 3010      7420696E 
 3010      7400
 3011              	.LASF63:
 3012 04b2 6C617374 		.ascii	"lasttime\000"
 3012      74696D65 
 3012      00
 3013              	.LASF107:
 3014 04bb 65776D61 		.ascii	"ewmask\000"
 3014      736B00
 3015              	.LASF68:
 3016 04c2 63685F73 		.ascii	"ch_system\000"
 3016      79737465 
 3016      6D00
 3017              	.LASF13:
 3018 04cc 75696E74 		.ascii	"uint8_t\000"
 3018      385F7400 
 3019              	.LASF124:
 3020 04d4 5F5F6675 		.ascii	"__func__\000"
 3020      6E635F5F 
 3020      00
 3021              	.LASF58:
 3022 04dd 63685F76 		.ascii	"ch_virtual_timer\000"
 3022      69727475 
 3022      616C5F74 
 3022      696D6572 
 3022      00
 3023              	.LASF108:
 3024 04ee 63685F73 		.ascii	"ch_semaphore\000"
 3024      656D6170 
 3024      686F7265 
 3024      00
 3025              	.LASF86:
 3026 04fb 43435852 		.ascii	"CCXR\000"
 3026      00
 3027              	.LASF114:
 3028 0500 73745F6C 		.ascii	"st_lld_get_counter\000"
 3028      6C645F67 
 3028      65745F63 
 3028      6F756E74 
 3028      657200
 3029              	.LASF15:
ARM GAS  /tmp/ccKjFdwr.s 			page 58


 3030 0513 75696E74 		.ascii	"uint32_t\000"
 3030      33325F74 
 3030      00
 3031              	.LASF106:
 3032 051c 77746D74 		.ascii	"wtmtxp\000"
 3032      787000
 3033              	.LASF48:
 3034 0523 63685F74 		.ascii	"ch_threads_list\000"
 3034      68726561 
 3034      64735F6C 
 3034      69737400 
 3035              	.LASF110:
 3036 0533 6F776E65 		.ascii	"owner\000"
 3036      7200
 3037              	.LASF9:
 3038 0539 6C6F6E67 		.ascii	"long unsigned int\000"
 3038      20756E73 
 3038      69676E65 
 3038      6420696E 
 3038      7400
 3039              	.LASF34:
 3040 054b 77616261 		.ascii	"wabase\000"
 3040      736500
 3041              	.LASF134:
 3042 0552 73745374 		.ascii	"stStopAlarm\000"
 3042      6F70416C 
 3042      61726D00 
 3043              	.LASF111:
 3044 055e 63686172 		.ascii	"char\000"
 3044      00
 3045              	.LASF32:
 3046 0563 6F6C6465 		.ascii	"older\000"
 3046      7200
 3047              	.LASF0:
 3048 0569 756E7369 		.ascii	"unsigned int\000"
 3048      676E6564 
 3048      20696E74 
 3048      00
 3049              	.LASF84:
 3050 0576 444D4152 		.ascii	"DMAR\000"
 3050      00
 3051              	.LASF28:
 3052 057b 74687265 		.ascii	"thread_t\000"
 3052      61645F74 
 3052      00
 3053              	.LASF82:
 3054 0584 43434552 		.ascii	"CCER\000"
 3054      00
 3055              	.LASF27:
 3056 0589 73797374 		.ascii	"systime_t\000"
 3056      696D655F 
 3056      7400
 3057              	.LASF56:
 3058 0593 76746675 		.ascii	"vtfunc_t\000"
 3058      6E635F74 
 3058      00
 3059              	.LASF66:
ARM GAS  /tmp/ccKjFdwr.s 			page 59


 3060 059c 70616E69 		.ascii	"panic_msg\000"
 3060      635F6D73 
 3060      6700
 3061              	.LASF88:
 3062 05a6 6F666673 		.ascii	"offset\000"
 3062      657400
 3063              	.LASF127:
 3064 05ad 73745374 		.ascii	"stStartAlarm\000"
 3064      61727441 
 3064      6C61726D 
 3064      00
 3065              	.LASF4:
 3066 05ba 73686F72 		.ascii	"short unsigned int\000"
 3066      7420756E 
 3066      7369676E 
 3066      65642069 
 3066      6E7400
 3067              	.LASF115:
 3068 05cd 706F7274 		.ascii	"port_timer_get_time\000"
 3068      5F74696D 
 3068      65725F67 
 3068      65745F74 
 3068      696D6500 
 3069              	.LASF17:
 3070 05e1 7274636E 		.ascii	"rtcnt_t\000"
 3070      745F7400 
 3071              	.LASF121:
 3072 05e9 76746675 		.ascii	"vtfunc\000"
 3072      6E6300
 3073              	.LASF50:
 3074 05f0 74687265 		.ascii	"threads_queue_t\000"
 3074      6164735F 
 3074      71756575 
 3074      655F7400 
 3075              	.LASF109:
 3076 0600 63685F6D 		.ascii	"ch_mutex\000"
 3076      75746578 
 3076      00
 3077              	.LASF69:
 3078 0609 726C6973 		.ascii	"rlist\000"
 3078      7400
 3079              	.LASF128:
 3080 060f 73745365 		.ascii	"stSetAlarm\000"
 3080      74416C61 
 3080      726D00
 3081              	.LASF36:
 3082 061a 666C6167 		.ascii	"flags\000"
 3082      7300
 3083              	.LASF132:
 3084 0620 706F7274 		.ascii	"port_timer_stop_alarm\000"
 3084      5F74696D 
 3084      65725F73 
 3084      746F705F 
 3084      616C6172 
 3085              	.LASF118:
 3086 0636 706F7274 		.ascii	"port_timer_set_alarm\000"
 3086      5F74696D 
ARM GAS  /tmp/ccKjFdwr.s 			page 60


 3086      65725F73 
 3086      65745F61 
 3086      6C61726D 
 3087              	.LASF102:
 3088 064b 77746F62 		.ascii	"wtobjp\000"
 3088      6A7000
 3089              	.LASF46:
 3090 0652 74687265 		.ascii	"threads_list_t\000"
 3090      6164735F 
 3090      6C697374 
 3090      5F7400
 3091              	.LASF19:
 3092 0661 746D6F64 		.ascii	"tmode_t\000"
 3092      655F7400 
 3093              	.LASF41:
 3094 0669 6D74786C 		.ascii	"mtxlist\000"
 3094      69737400 
 3095              	.LASF112:
 3096 0671 6D757465 		.ascii	"mutex_t\000"
 3096      785F7400 
 3097              	.LASF97:
 3098 0679 6D5F6372 		.ascii	"m_crit_thd\000"
 3098      69745F74 
 3098      686400
 3099              		.ident	"GCC: (15:4.9.3+svn231177-1) 4.9.3 20150529 (prerelease)"
ARM GAS  /tmp/ccKjFdwr.s 			page 61


DEFINED SYMBOLS
                            *ABS*:0000000000000000 chvt.c
     /tmp/ccKjFdwr.s:21     .text._vt_init:0000000000000000 $t
     /tmp/ccKjFdwr.s:26     .text._vt_init:0000000000000000 _vt_init
     /tmp/ccKjFdwr.s:50     .text._vt_init:0000000000000018 $d
     /tmp/ccKjFdwr.s:55     .text.chVTDoSetI:0000000000000000 $t
     /tmp/ccKjFdwr.s:60     .text.chVTDoSetI:0000000000000000 chVTDoSetI
     /tmp/ccKjFdwr.s:228    .text.chVTDoSetI:0000000000000070 $d
     /tmp/ccKjFdwr.s:234    .text.chVTDoResetI:0000000000000000 $t
     /tmp/ccKjFdwr.s:239    .text.chVTDoResetI:0000000000000000 chVTDoResetI
     /tmp/ccKjFdwr.s:371    .text.chVTDoResetI:000000000000006c $d
                     .debug_frame:0000000000000010 $d

UNDEFINED SYMBOLS
ch
stStartAlarm
stSetAlarm
stStopAlarm
