ARM GAS  /tmp/ccJRrHg6.s 			page 1


   1              		.syntax unified
   2              		.cpu cortex-m4
   3              		.eabi_attribute 27, 1
   4              		.eabi_attribute 28, 1
   5              		.fpu fpv4-sp-d16
   6              		.eabi_attribute 20, 1
   7              		.eabi_attribute 21, 1
   8              		.eabi_attribute 23, 3
   9              		.eabi_attribute 24, 1
  10              		.eabi_attribute 25, 1
  11              		.eabi_attribute 26, 1
  12              		.eabi_attribute 30, 4
  13              		.eabi_attribute 34, 1
  14              		.eabi_attribute 18, 4
  15              		.thumb
  16              		.file	"crt1.c"
  17              		.text
  18              	.Ltext0:
  19              		.cfi_sections	.debug_frame
  20              		.section	.text.__core_init,"ax",%progbits
  21              		.align	1
  22              		.weak	__core_init
  23              		.thumb
  24              		.thumb_func
  25              		.type	__core_init, %function
  26              	__core_init:
  27              	.LFB123:
  28              		.file 1 "../../modules/ChibiOS/os/common/startup/ARMCMx/compilers/GCC/crt1.c"
  29              		.loc 1 136 0
  30              		.cfi_startproc
  31              		@ args = 0, pretend = 0, frame = 0
  32              		@ frame_needed = 0, uses_anonymous_args = 0
  33              		@ link register save eliminated.
  34 0000 7047     		bx	lr
  35              		.cfi_endproc
  36              	.LFE123:
  37              		.size	__core_init, .-__core_init
  38              		.section	.text.__default_exit,"ax",%progbits
  39              		.align	1
  40              		.weak	__default_exit
  41              		.thumb
  42              		.thumb_func
  43              		.type	__default_exit, %function
  44              	__default_exit:
  45              	.LFB124:
  46              		.loc 1 186 0
  47              		.cfi_startproc
  48              		@ Volatile: function does not return.
  49              		@ args = 0, pretend = 0, frame = 0
  50              		@ frame_needed = 0, uses_anonymous_args = 0
  51              		@ link register save eliminated.
  52              	.L3:
  53              		.loc 1 190 0 discriminator 1
  54 0000 FEE7     		b	.L3
  55              		.cfi_endproc
  56              	.LFE124:
  57              		.size	__default_exit, .-__default_exit
ARM GAS  /tmp/ccJRrHg6.s 			page 2


  58              		.section	.text.__init_ram_areas,"ax",%progbits
  59              		.align	1
  60              		.global	__init_ram_areas
  61              		.thumb
  62              		.thumb_func
  63              		.type	__init_ram_areas, %function
  64              	__init_ram_areas:
  65              	.LFB125:
  66              		.loc 1 196 0
  67              		.cfi_startproc
  68              		@ args = 0, pretend = 0, frame = 0
  69              		@ frame_needed = 0, uses_anonymous_args = 0
  70              		@ link register save eliminated.
  71              	.LVL0:
  72 0000 084A     		ldr	r2, .L11
  73              	.LBB2:
  74              		.loc 1 202 0
  75 0002 094B     		ldr	r3, .L11+4
  76              	.LVL1:
  77              	.L5:
  78              		.loc 1 205 0
  79 0004 0949     		ldr	r1, .L11+8
  80 0006 8B42     		cmp	r3, r1
  81 0008 04D2     		bcs	.L7
  82              		.loc 1 206 0
  83 000a 52F8041F 		ldr	r1, [r2, #4]!
  84 000e 43F8041B 		str	r1, [r3], #4
  85              	.LVL2:
  86 0012 F7E7     		b	.L5
  87              	.LVL3:
  88              	.L7:
  89              		.loc 1 212 0
  90 0014 064A     		ldr	r2, .L11+12
  91 0016 9342     		cmp	r3, r2
  92 0018 03D2     		bcs	.L10
  93              		.loc 1 213 0
  94 001a 0022     		movs	r2, #0
  95 001c 43F8042B 		str	r2, [r3], #4
  96              	.LVL4:
  97 0020 F8E7     		b	.L7
  98              	.L10:
  99              	.LBE2:
 100              		.loc 1 220 0
 101 0022 7047     		bx	lr
 102              	.L12:
 103              		.align	2
 104              	.L11:
 105 0024 FCFFFFFF 		.word	__ram0_init_text__-4
 106 0028 00000000 		.word	__ram0_init__
 107 002c 00000000 		.word	__ram0_clear__
 108 0030 00000000 		.word	__ram0_noinit__
 109              		.cfi_endproc
 110              	.LFE125:
 111              		.size	__init_ram_areas, .-__init_ram_areas
 112              		.text
 113              	.Letext0:
 114              		.file 2 "/usr/include/newlib/machine/_default_types.h"
ARM GAS  /tmp/ccJRrHg6.s 			page 3


 115              		.file 3 "/usr/include/newlib/sys/_stdint.h"
 116              		.file 4 "../../modules/ChibiOS/os/common/ext/CMSIS/include/core_cm4.h"