ARM GAS  /tmp/ccJRrHg6.s 			page 1


   1              		.syntax unified
   2              		.cpu cortex-m4
   3              		.eabi_attribute 27, 1
   4              		.eabi_attribute 28, 1
   5              		.fpu fpv4-sp-d16
   6              		.eabi_attribute 20, 1
   7              		.eabi_attribute 21, 1
   8              		.eabi_attribute 23, 3
   9              		.eabi_attribute 24, 1
  10              		.eabi_attribute 25, 1
  11              		.eabi_attribute 26, 1
  12              		.eabi_attribute 30, 4
  13              		.eabi_attribute 34, 1
  14              		.eabi_attribute 18, 4
  15              		.thumb
  16              		.file	"crt1.c"
  17              		.text
  18              	.Ltext0:
  19              		.cfi_sections	.debug_frame
  20              		.section	.text.__core_init,"ax",%progbits
  21              		.align	1
  22              		.weak	__core_init
  23              		.thumb
  24              		.thumb_func
  25              		.type	__core_init, %function
  26              	__core_init:
  27              	.LFB123:
  28              		.file 1 "../../modules/ChibiOS/os/common/startup/ARMCMx/compilers/GCC/crt1.c"
  29              		.loc 1 136 0
  30              		.cfi_startproc
  31              		@ args = 0, pretend = 0, frame = 0
  32              		@ frame_needed = 0, uses_anonymous_args = 0
  33              		@ link register save eliminated.
  34 0000 7047     		bx	lr
  35              		.cfi_endproc
  36              	.LFE123:
  37              		.size	__core_init, .-__core_init
  38              		.section	.text.__default_exit,"ax",%progbits
  39              		.align	1
  40              		.weak	__default_exit
  41              		.thumb
  42              		.thumb_func
  43              		.type	__default_exit, %function
  44              	__default_exit:
  45              	.LFB124:
  46              		.loc 1 186 0
  47              		.cfi_startproc
  48              		@ Volatile: function does not return.
  49              		@ args = 0, pretend = 0, frame = 0
  50              		@ frame_needed = 0, uses_anonymous_args = 0
  51              		@ link register save eliminated.
  52              	.L3:
  53              		.loc 1 190 0 discriminator 1
  54 0000 FEE7     		b	.L3
  55              		.cfi_endproc
  56              	.LFE124:
  57              		.size	__default_exit, .-__default_exit
ARM GAS  /tmp/ccJRrHg6.s 			page 2


  58              		.section	.text.__init_ram_areas,"ax",%progbits
  59              		.align	1
  60              		.global	__init_ram_areas
  61              		.thumb
  62              		.thumb_func
  63              		.type	__init_ram_areas, %function
  64              	__init_ram_areas:
  65              	.LFB125:
  66              		.loc 1 196 0
  67              		.cfi_startproc
  68              		@ args = 0, pretend = 0, frame = 0
  69              		@ frame_needed = 0, uses_anonymous_args = 0
  70              		@ link register save eliminated.
  71              	.LVL0:
  72 0000 084A     		ldr	r2, .L11
  73              	.LBB2:
  74              		.loc 1 202 0
  75 0002 094B     		ldr	r3, .L11+4
  76              	.LVL1:
  77              	.L5:
  78              		.loc 1 205 0
  79 0004 0949     		ldr	r1, .L11+8
  80 0006 8B42     		cmp	r3, r1
  81 0008 04D2     		bcs	.L7
  82              		.loc 1 206 0
  83 000a 52F8041F 		ldr	r1, [r2, #4]!
  84 000e 43F8041B 		str	r1, [r3], #4
  85              	.LVL2:
  86 0012 F7E7     		b	.L5
  87              	.LVL3:
  88              	.L7:
  89              		.loc 1 212 0
  90 0014 064A     		ldr	r2, .L11+12
  91 0016 9342     		cmp	r3, r2
  92 0018 03D2     		bcs	.L10
  93              		.loc 1 213 0
  94 001a 0022     		movs	r2, #0
  95 001c 43F8042B 		str	r2, [r3], #4
  96              	.LVL4:
  97 0020 F8E7     		b	.L7
  98              	.L10:
  99              	.LBE2:
 100              		.loc 1 220 0
 101 0022 7047     		bx	lr
 102              	.L12:
 103              		.align	2
 104              	.L11:
 105 0024 FCFFFFFF 		.word	__ram0_init_text__-4
 106 0028 00000000 		.word	__ram0_init__
 107 002c 00000000 		.word	__ram0_clear__
 108 0030 00000000 		.word	__ram0_noinit__
 109              		.cfi_endproc
 110              	.LFE125:
 111              		.size	__init_ram_areas, .-__init_ram_areas
 112              		.text
 113              	.Letext0:
 114              		.file 2 "/usr/include/newlib/machine/_default_types.h"
ARM GAS  /tmp/ccJRrHg6.s 			page 3


 115              		.file 3 "/usr/include/newlib/sys/_stdint.h"
 116              		.file 4 "../../modules/ChibiOS/os/common/ext/CMSIS/include/core_cm4.h"
 117              		.section	.debug_info,"",%progbits
 118              	.Ldebug_info0:
 119 0000 B8010000 		.4byte	0x1b8
 120 0004 0400     		.2byte	0x4
 121 0006 00000000 		.4byte	.Ldebug_abbrev0
 122 000a 04       		.byte	0x4
 123 000b 01       		.uleb128 0x1
 124 000c 51010000 		.4byte	.LASF27
 125 0010 01       		.byte	0x1
 126 0011 0D010000 		.4byte	.LASF28
 127 0015 AA020000 		.4byte	.LASF29
 128 0019 00000000 		.4byte	.Ldebug_ranges0+0
 129 001d 00000000 		.4byte	0
 130 0021 00000000 		.4byte	.Ldebug_line0
 131 0025 02       		.uleb128 0x2
 132 0026 01       		.byte	0x1
 133 0027 06       		.byte	0x6
 134 0028 9E020000 		.4byte	.LASF0
 135 002c 02       		.uleb128 0x2
 136 002d 01       		.byte	0x1
 137 002e 08       		.byte	0x8
 138 002f B1000000 		.4byte	.LASF1
 139 0033 02       		.uleb128 0x2
 140 0034 02       		.byte	0x2
 141 0035 05       		.byte	0x5
 142 0036 64020000 		.4byte	.LASF2
 143 003a 02       		.uleb128 0x2
 144 003b 02       		.byte	0x2
 145 003c 07       		.byte	0x7
 146 003d 91000000 		.4byte	.LASF3
 147 0041 03       		.uleb128 0x3
 148 0042 2D000000 		.4byte	.LASF5
 149 0046 02       		.byte	0x2
 150 0047 3F       		.byte	0x3f
 151 0048 4C000000 		.4byte	0x4c
 152 004c 02       		.uleb128 0x2
 153 004d 04       		.byte	0x4
 154 004e 05       		.byte	0x5
 155 004f 95020000 		.4byte	.LASF4
 156 0053 03       		.uleb128 0x3
 157 0054 CE000000 		.4byte	.LASF6
 158 0058 02       		.byte	0x2
 159 0059 41       		.byte	0x41
 160 005a 5E000000 		.4byte	0x5e
 161 005e 02       		.uleb128 0x2
 162 005f 04       		.byte	0x4
 163 0060 07       		.byte	0x7
 164 0061 71000000 		.4byte	.LASF7
 165 0065 02       		.uleb128 0x2
 166 0066 08       		.byte	0x8
 167 0067 05       		.byte	0x5
 168 0068 56020000 		.4byte	.LASF8
 169 006c 02       		.uleb128 0x2
 170 006d 08       		.byte	0x8
 171 006e 07       		.byte	0x7
ARM GAS  /tmp/ccJRrHg6.s 			page 4


 172 006f F6000000 		.4byte	.LASF9
 173 0073 04       		.uleb128 0x4
 174 0074 04       		.byte	0x4
 175 0075 05       		.byte	0x5
 176 0076 696E7400 		.ascii	"int\000"
 177 007a 02       		.uleb128 0x2
 178 007b 04       		.byte	0x4
 179 007c 07       		.byte	0x7
 180 007d E9000000 		.4byte	.LASF10
 181 0081 03       		.uleb128 0x3
 182 0082 5E000000 		.4byte	.LASF11
 183 0086 03       		.byte	0x3
 184 0087 1F       		.byte	0x1f
 185 0088 41000000 		.4byte	0x41
 186 008c 03       		.uleb128 0x3
 187 008d 8C020000 		.4byte	.LASF12
 188 0091 03       		.byte	0x3
 189 0092 20       		.byte	0x20
 190 0093 53000000 		.4byte	0x53
 191 0097 02       		.uleb128 0x2
 192 0098 04       		.byte	0x4
 193 0099 07       		.byte	0x7
 194 009a 4D020000 		.4byte	.LASF13
 195 009e 05       		.uleb128 0x5
 196 009f 10       		.byte	0x10
 197 00a0 01       		.byte	0x1
 198 00a1 34       		.byte	0x34
 199 00a2 D7000000 		.4byte	0xd7
 200 00a6 06       		.uleb128 0x6
 201 00a7 6E020000 		.4byte	.LASF14
 202 00ab 01       		.byte	0x1
 203 00ac 35       		.byte	0x35
 204 00ad D7000000 		.4byte	0xd7
 205 00b1 00       		.byte	0
 206 00b2 06       		.uleb128 0x6
 207 00b3 37000000 		.4byte	.LASF15
 208 00b7 01       		.byte	0x1
 209 00b8 36       		.byte	0x36
 210 00b9 D7000000 		.4byte	0xd7
 211 00bd 04       		.byte	0x4
 212 00be 06       		.uleb128 0x6
 213 00bf 66000000 		.4byte	.LASF16
 214 00c3 01       		.byte	0x1
 215 00c4 37       		.byte	0x37
 216 00c5 D7000000 		.4byte	0xd7
 217 00c9 08       		.byte	0x8
 218 00ca 06       		.uleb128 0x6
 219 00cb 40020000 		.4byte	.LASF17
 220 00cf 01       		.byte	0x1
 221 00d0 38       		.byte	0x38
 222 00d1 D7000000 		.4byte	0xd7
 223 00d5 0C       		.byte	0xc
 224 00d6 00       		.byte	0
 225 00d7 07       		.uleb128 0x7
 226 00d8 04       		.byte	0x4
 227 00d9 8C000000 		.4byte	0x8c
 228 00dd 03       		.uleb128 0x3
ARM GAS  /tmp/ccJRrHg6.s 			page 5


 229 00de D9000000 		.4byte	.LASF18
 230 00e2 01       		.byte	0x1
 231 00e3 39       		.byte	0x39
 232 00e4 9E000000 		.4byte	0x9e
 233 00e8 08       		.uleb128 0x8
 234 00e9 21000000 		.4byte	.LASF19
 235 00ed 01       		.byte	0x1
 236 00ee 88       		.byte	0x88
 237 00ef 00000000 		.4byte	.LFB123
 238 00f3 02000000 		.4byte	.LFE123-.LFB123
 239 00f7 01       		.uleb128 0x1
 240 00f8 9C       		.byte	0x9c
 241 00f9 08       		.uleb128 0x8
 242 00fa BF000000 		.4byte	.LASF20
 243 00fe 01       		.byte	0x1
 244 00ff BA       		.byte	0xba
 245 0100 00000000 		.4byte	.LFB124
 246 0104 02000000 		.4byte	.LFE124-.LFB124
 247 0108 01       		.uleb128 0x1
 248 0109 9C       		.byte	0x9c
 249 010a 09       		.uleb128 0x9
 250 010b 00000000 		.4byte	.LASF30
 251 010f 01       		.byte	0x1
 252 0110 C4       		.byte	0xc4
 253 0111 00000000 		.4byte	.LFB125
 254 0115 34000000 		.4byte	.LFE125-.LFB125
 255 0119 01       		.uleb128 0x1
 256 011a 9C       		.byte	0x9c
 257 011b 53010000 		.4byte	0x153
 258 011f 0A       		.uleb128 0xa
 259 0120 72617000 		.ascii	"rap\000"
 260 0124 01       		.byte	0x1
 261 0125 C6       		.byte	0xc6
 262 0126 53010000 		.4byte	0x153
 263 012a 06       		.uleb128 0x6
 264 012b F2       		.byte	0xf2
 265 012c 6E010000 		.4byte	.Ldebug_info0+366
 266 0130 00       		.sleb128 0
 267 0131 0B       		.uleb128 0xb
 268 0132 02000000 		.4byte	.LBB2
 269 0136 20000000 		.4byte	.LBE2-.LBB2
 270 013a 0C       		.uleb128 0xc
 271 013b 747000   		.ascii	"tp\000"
 272 013e 01       		.byte	0x1
 273 013f C9       		.byte	0xc9
 274 0140 D7000000 		.4byte	0xd7
 275 0144 0D       		.uleb128 0xd
 276 0145 7000     		.ascii	"p\000"
 277 0147 01       		.byte	0x1
 278 0148 CA       		.byte	0xca
 279 0149 D7000000 		.4byte	0xd7
 280 014d 00000000 		.4byte	.LLST0
 281 0151 00       		.byte	0
 282 0152 00       		.byte	0
 283 0153 07       		.uleb128 0x7
 284 0154 04       		.byte	0x4
 285 0155 59010000 		.4byte	0x159
ARM GAS  /tmp/ccJRrHg6.s 			page 6


 286 0159 0E       		.uleb128 0xe
 287 015a DD000000 		.4byte	0xdd
 288 015e 0F       		.uleb128 0xf
 289 015f DD000000 		.4byte	0xdd
 290 0163 6E010000 		.4byte	0x16e
 291 0167 10       		.uleb128 0x10
 292 0168 97000000 		.4byte	0x97
 293 016c 00       		.byte	0
 294 016d 00       		.byte	0
 295 016e 11       		.uleb128 0x11
 296 016f 41000000 		.4byte	.LASF21
 297 0173 01       		.byte	0x1
 298 0174 5C       		.byte	0x5c
 299 0175 79010000 		.4byte	0x179
 300 0179 0E       		.uleb128 0xe
 301 017a 5E010000 		.4byte	0x15e
 302 017e 12       		.uleb128 0x12
 303 017f A4000000 		.4byte	.LASF22
 304 0183 04       		.byte	0x4
 305 0184 4407     		.2byte	0x744
 306 0186 8A010000 		.4byte	0x18a
 307 018a 13       		.uleb128 0x13
 308 018b 81000000 		.4byte	0x81
 309 018f 14       		.uleb128 0x14
 310 0190 4B000000 		.4byte	.LASF23
 311 0194 01       		.byte	0x1
 312 0195 40       		.byte	0x40
 313 0196 8C000000 		.4byte	0x8c
 314 019a 14       		.uleb128 0x14
 315 019b 83000000 		.4byte	.LASF24
 316 019f 01       		.byte	0x1
 317 01a0 40       		.byte	0x40
 318 01a1 8C000000 		.4byte	0x8c
 319 01a5 14       		.uleb128 0x14
 320 01a6 7D020000 		.4byte	.LASF25
 321 01aa 01       		.byte	0x1
 322 01ab 40       		.byte	0x40
 323 01ac 8C000000 		.4byte	0x8c
 324 01b0 14       		.uleb128 0x14
 325 01b1 11000000 		.4byte	.LASF26
 326 01b5 01       		.byte	0x1
 327 01b6 40       		.byte	0x40
 328 01b7 8C000000 		.4byte	0x8c
 329 01bb 00       		.byte	0
 330              		.section	.debug_abbrev,"",%progbits
 331              	.Ldebug_abbrev0:
 332 0000 01       		.uleb128 0x1
 333 0001 11       		.uleb128 0x11
 334 0002 01       		.byte	0x1
 335 0003 25       		.uleb128 0x25
 336 0004 0E       		.uleb128 0xe
 337 0005 13       		.uleb128 0x13
 338 0006 0B       		.uleb128 0xb
 339 0007 03       		.uleb128 0x3
 340 0008 0E       		.uleb128 0xe
 341 0009 1B       		.uleb128 0x1b
 342 000a 0E       		.uleb128 0xe
ARM GAS  /tmp/ccJRrHg6.s 			page 7


 343 000b 55       		.uleb128 0x55
 344 000c 17       		.uleb128 0x17
 345 000d 11       		.uleb128 0x11
 346 000e 01       		.uleb128 0x1
 347 000f 10       		.uleb128 0x10
 348 0010 17       		.uleb128 0x17
 349 0011 00       		.byte	0
 350 0012 00       		.byte	0
 351 0013 02       		.uleb128 0x2
 352 0014 24       		.uleb128 0x24
 353 0015 00       		.byte	0
 354 0016 0B       		.uleb128 0xb
 355 0017 0B       		.uleb128 0xb
 356 0018 3E       		.uleb128 0x3e
 357 0019 0B       		.uleb128 0xb
 358 001a 03       		.uleb128 0x3
 359 001b 0E       		.uleb128 0xe
 360 001c 00       		.byte	0
 361 001d 00       		.byte	0
 362 001e 03       		.uleb128 0x3
 363 001f 16       		.uleb128 0x16
 364 0020 00       		.byte	0
 365 0021 03       		.uleb128 0x3
 366 0022 0E       		.uleb128 0xe
 367 0023 3A       		.uleb128 0x3a
 368 0024 0B       		.uleb128 0xb
 369 0025 3B       		.uleb128 0x3b
 370 0026 0B       		.uleb128 0xb
 371 0027 49       		.uleb128 0x49
 372 0028 13       		.uleb128 0x13
 373 0029 00       		.byte	0
 374 002a 00       		.byte	0
 375 002b 04       		.uleb128 0x4
 376 002c 24       		.uleb128 0x24
 377 002d 00       		.byte	0
 378 002e 0B       		.uleb128 0xb
 379 002f 0B       		.uleb128 0xb
 380 0030 3E       		.uleb128 0x3e
 381 0031 0B       		.uleb128 0xb
 382 0032 03       		.uleb128 0x3
 383 0033 08       		.uleb128 0x8
 384 0034 00       		.byte	0
 385 0035 00       		.byte	0
 386 0036 05       		.uleb128 0x5
 387 0037 13       		.uleb128 0x13
 388 0038 01       		.byte	0x1
 389 0039 0B       		.uleb128 0xb
 390 003a 0B       		.uleb128 0xb
 391 003b 3A       		.uleb128 0x3a
 392 003c 0B       		.uleb128 0xb
 393 003d 3B       		.uleb128 0x3b
 394 003e 0B       		.uleb128 0xb
 395 003f 01       		.uleb128 0x1
 396 0040 13       		.uleb128 0x13
 397 0041 00       		.byte	0
 398 0042 00       		.byte	0
 399 0043 06       		.uleb128 0x6
ARM GAS  /tmp/ccJRrHg6.s 			page 8


 400 0044 0D       		.uleb128 0xd
 401 0045 00       		.byte	0
 402 0046 03       		.uleb128 0x3
 403 0047 0E       		.uleb128 0xe
 404 0048 3A       		.uleb128 0x3a
 405 0049 0B       		.uleb128 0xb
 406 004a 3B       		.uleb128 0x3b
 407 004b 0B       		.uleb128 0xb
 408 004c 49       		.uleb128 0x49
 409 004d 13       		.uleb128 0x13
 410 004e 38       		.uleb128 0x38
 411 004f 0B       		.uleb128 0xb
 412 0050 00       		.byte	0
 413 0051 00       		.byte	0
 414 0052 07       		.uleb128 0x7
 415 0053 0F       		.uleb128 0xf
 416 0054 00       		.byte	0
 417 0055 0B       		.uleb128 0xb
 418 0056 0B       		.uleb128 0xb
 419 0057 49       		.uleb128 0x49
 420 0058 13       		.uleb128 0x13
 421 0059 00       		.byte	0
 422 005a 00       		.byte	0
 423 005b 08       		.uleb128 0x8
 424 005c 2E       		.uleb128 0x2e
 425 005d 00       		.byte	0
 426 005e 3F       		.uleb128 0x3f
 427 005f 19       		.uleb128 0x19
 428 0060 03       		.uleb128 0x3
 429 0061 0E       		.uleb128 0xe
 430 0062 3A       		.uleb128 0x3a
 431 0063 0B       		.uleb128 0xb
 432 0064 3B       		.uleb128 0x3b
 433 0065 0B       		.uleb128 0xb
 434 0066 27       		.uleb128 0x27
 435 0067 19       		.uleb128 0x19
 436 0068 11       		.uleb128 0x11
 437 0069 01       		.uleb128 0x1
 438 006a 12       		.uleb128 0x12
 439 006b 06       		.uleb128 0x6
 440 006c 40       		.uleb128 0x40
 441 006d 18       		.uleb128 0x18
 442 006e 9742     		.uleb128 0x2117
 443 0070 19       		.uleb128 0x19
 444 0071 00       		.byte	0
 445 0072 00       		.byte	0
 446 0073 09       		.uleb128 0x9
 447 0074 2E       		.uleb128 0x2e
 448 0075 01       		.byte	0x1
 449 0076 3F       		.uleb128 0x3f
 450 0077 19       		.uleb128 0x19
 451 0078 03       		.uleb128 0x3
 452 0079 0E       		.uleb128 0xe
 453 007a 3A       		.uleb128 0x3a
 454 007b 0B       		.uleb128 0xb
 455 007c 3B       		.uleb128 0x3b
 456 007d 0B       		.uleb128 0xb
ARM GAS  /tmp/ccJRrHg6.s 			page 9


 457 007e 27       		.uleb128 0x27
 458 007f 19       		.uleb128 0x19
 459 0080 11       		.uleb128 0x11
 460 0081 01       		.uleb128 0x1
 461 0082 12       		.uleb128 0x12
 462 0083 06       		.uleb128 0x6
 463 0084 40       		.uleb128 0x40
 464 0085 18       		.uleb128 0x18
 465 0086 9742     		.uleb128 0x2117
 466 0088 19       		.uleb128 0x19
 467 0089 01       		.uleb128 0x1
 468 008a 13       		.uleb128 0x13
 469 008b 00       		.byte	0
 470 008c 00       		.byte	0
 471 008d 0A       		.uleb128 0xa
 472 008e 34       		.uleb128 0x34
 473 008f 00       		.byte	0
 474 0090 03       		.uleb128 0x3
 475 0091 08       		.uleb128 0x8
 476 0092 3A       		.uleb128 0x3a
 477 0093 0B       		.uleb128 0xb
 478 0094 3B       		.uleb128 0x3b
 479 0095 0B       		.uleb128 0xb
 480 0096 49       		.uleb128 0x49
 481 0097 13       		.uleb128 0x13
 482 0098 02       		.uleb128 0x2
 483 0099 18       		.uleb128 0x18
 484 009a 00       		.byte	0
 485 009b 00       		.byte	0
 486 009c 0B       		.uleb128 0xb
 487 009d 0B       		.uleb128 0xb
 488 009e 01       		.byte	0x1
 489 009f 11       		.uleb128 0x11
 490 00a0 01       		.uleb128 0x1
 491 00a1 12       		.uleb128 0x12
 492 00a2 06       		.uleb128 0x6
 493 00a3 00       		.byte	0
 494 00a4 00       		.byte	0
 495 00a5 0C       		.uleb128 0xc
 496 00a6 34       		.uleb128 0x34
 497 00a7 00       		.byte	0
 498 00a8 03       		.uleb128 0x3
 499 00a9 08       		.uleb128 0x8
 500 00aa 3A       		.uleb128 0x3a
 501 00ab 0B       		.uleb128 0xb
 502 00ac 3B       		.uleb128 0x3b
 503 00ad 0B       		.uleb128 0xb
 504 00ae 49       		.uleb128 0x49
 505 00af 13       		.uleb128 0x13
 506 00b0 00       		.byte	0
 507 00b1 00       		.byte	0
 508 00b2 0D       		.uleb128 0xd
 509 00b3 34       		.uleb128 0x34
 510 00b4 00       		.byte	0
 511 00b5 03       		.uleb128 0x3
 512 00b6 08       		.uleb128 0x8
 513 00b7 3A       		.uleb128 0x3a
ARM GAS  /tmp/ccJRrHg6.s 			page 10


 514 00b8 0B       		.uleb128 0xb
 515 00b9 3B       		.uleb128 0x3b
 516 00ba 0B       		.uleb128 0xb
 517 00bb 49       		.uleb128 0x49
 518 00bc 13       		.uleb128 0x13
 519 00bd 02       		.uleb128 0x2
 520 00be 17       		.uleb128 0x17
 521 00bf 00       		.byte	0
 522 00c0 00       		.byte	0
 523 00c1 0E       		.uleb128 0xe
 524 00c2 26       		.uleb128 0x26
 525 00c3 00       		.byte	0
 526 00c4 49       		.uleb128 0x49
 527 00c5 13       		.uleb128 0x13
 528 00c6 00       		.byte	0
 529 00c7 00       		.byte	0
 530 00c8 0F       		.uleb128 0xf
 531 00c9 01       		.uleb128 0x1
 532 00ca 01       		.byte	0x1
 533 00cb 49       		.uleb128 0x49
 534 00cc 13       		.uleb128 0x13
 535 00cd 01       		.uleb128 0x1
 536 00ce 13       		.uleb128 0x13
 537 00cf 00       		.byte	0
 538 00d0 00       		.byte	0
 539 00d1 10       		.uleb128 0x10
 540 00d2 21       		.uleb128 0x21
 541 00d3 00       		.byte	0
 542 00d4 49       		.uleb128 0x49
 543 00d5 13       		.uleb128 0x13
 544 00d6 2F       		.uleb128 0x2f
 545 00d7 0B       		.uleb128 0xb
 546 00d8 00       		.byte	0
 547 00d9 00       		.byte	0
 548 00da 11       		.uleb128 0x11
 549 00db 34       		.uleb128 0x34
 550 00dc 00       		.byte	0
 551 00dd 03       		.uleb128 0x3
 552 00de 0E       		.uleb128 0xe
 553 00df 3A       		.uleb128 0x3a
 554 00e0 0B       		.uleb128 0xb
 555 00e1 3B       		.uleb128 0x3b
 556 00e2 0B       		.uleb128 0xb
 557 00e3 49       		.uleb128 0x49
 558 00e4 13       		.uleb128 0x13
 559 00e5 00       		.byte	0
 560 00e6 00       		.byte	0
 561 00e7 12       		.uleb128 0x12
 562 00e8 34       		.uleb128 0x34
 563 00e9 00       		.byte	0
 564 00ea 03       		.uleb128 0x3
 565 00eb 0E       		.uleb128 0xe
 566 00ec 3A       		.uleb128 0x3a
 567 00ed 0B       		.uleb128 0xb
 568 00ee 3B       		.uleb128 0x3b
 569 00ef 05       		.uleb128 0x5
 570 00f0 49       		.uleb128 0x49
ARM GAS  /tmp/ccJRrHg6.s 			page 11


 571 00f1 13       		.uleb128 0x13
 572 00f2 3F       		.uleb128 0x3f
 573 00f3 19       		.uleb128 0x19
 574 00f4 3C       		.uleb128 0x3c
 575 00f5 19       		.uleb128 0x19
 576 00f6 00       		.byte	0
 577 00f7 00       		.byte	0
 578 00f8 13       		.uleb128 0x13
 579 00f9 35       		.uleb128 0x35
 580 00fa 00       		.byte	0
 581 00fb 49       		.uleb128 0x49
 582 00fc 13       		.uleb128 0x13
 583 00fd 00       		.byte	0
 584 00fe 00       		.byte	0
 585 00ff 14       		.uleb128 0x14
 586 0100 34       		.uleb128 0x34
 587 0101 00       		.byte	0
 588 0102 03       		.uleb128 0x3
 589 0103 0E       		.uleb128 0xe
 590 0104 3A       		.uleb128 0x3a
 591 0105 0B       		.uleb128 0xb
 592 0106 3B       		.uleb128 0x3b
 593 0107 0B       		.uleb128 0xb
 594 0108 49       		.uleb128 0x49
 595 0109 13       		.uleb128 0x13
 596 010a 3F       		.uleb128 0x3f
 597 010b 19       		.uleb128 0x19
 598 010c 3C       		.uleb128 0x3c
 599 010d 19       		.uleb128 0x19
 600 010e 00       		.byte	0
 601 010f 00       		.byte	0
 602 0110 00       		.byte	0
 603              		.section	.debug_loc,"",%progbits
 604              	.Ldebug_loc0:
 605              	.LLST0:
 606 0000 04000000 		.4byte	.LVL1
 607 0004 34000000 		.4byte	.LFE125
 608 0008 0100     		.2byte	0x1
 609 000a 53       		.byte	0x53
 610 000b 00000000 		.4byte	0
 611 000f 00000000 		.4byte	0
 612              		.section	.debug_aranges,"",%progbits
 613 0000 2C000000 		.4byte	0x2c
 614 0004 0200     		.2byte	0x2
 615 0006 00000000 		.4byte	.Ldebug_info0
 616 000a 04       		.byte	0x4
 617 000b 00       		.byte	0
 618 000c 0000     		.2byte	0
 619 000e 0000     		.2byte	0
 620 0010 00000000 		.4byte	.LFB123
 621 0014 02000000 		.4byte	.LFE123-.LFB123
 622 0018 00000000 		.4byte	.LFB124
 623 001c 02000000 		.4byte	.LFE124-.LFB124
 624 0020 00000000 		.4byte	.LFB125
 625 0024 34000000 		.4byte	.LFE125-.LFB125
 626 0028 00000000 		.4byte	0
 627 002c 00000000 		.4byte	0
ARM GAS  /tmp/ccJRrHg6.s 			page 12


 628              		.section	.debug_ranges,"",%progbits
 629              	.Ldebug_ranges0:
 630 0000 00000000 		.4byte	.LFB123
 631 0004 02000000 		.4byte	.LFE123
 632 0008 00000000 		.4byte	.LFB124
 633 000c 02000000 		.4byte	.LFE124
 634 0010 00000000 		.4byte	.LFB125
 635 0014 34000000 		.4byte	.LFE125
 636 0018 00000000 		.4byte	0
 637 001c 00000000 		.4byte	0
 638              		.section	.debug_line,"",%progbits
 639              	.Ldebug_line0:
 640 0000 30010000 		.section	.debug_str,"MS",%progbits,1
 640      0200EF00 
 640      00000201 
 640      FB0E0D00 
 640      01010101 
 641              	.LASF30:
 642 0000 5F5F696E 		.ascii	"__init_ram_areas\000"
 642      69745F72 
 642      616D5F61 
 642      72656173 
 642      00
 643              	.LASF26:
 644 0011 5F5F7261 		.ascii	"__ram0_noinit__\000"
 644      6D305F6E 
 644      6F696E69 
 644      745F5F00 
 645              	.LASF19:
 646 0021 5F5F636F 		.ascii	"__core_init\000"
 646      72655F69 
 646      6E697400 
 647              	.LASF5:
 648 002d 5F5F696E 		.ascii	"__int32_t\000"
 648      7433325F 
 648      7400
 649              	.LASF15:
 650 0037 696E6974 		.ascii	"init_area\000"
 650      5F617265 
 650      6100
 651              	.LASF21:
 652 0041 72616D5F 		.ascii	"ram_areas\000"
 652      61726561 
 652      7300
 653              	.LASF23:
 654 004b 5F5F7261 		.ascii	"__ram0_init_text__\000"
 654      6D305F69 
 654      6E69745F 
 654      74657874 
 654      5F5F00
 655              	.LASF11:
 656 005e 696E7433 		.ascii	"int32_t\000"
 656      325F7400 
 657              	.LASF16:
 658 0066 636C6561 		.ascii	"clear_area\000"
 658      725F6172 
 658      656100
ARM GAS  /tmp/ccJRrHg6.s 			page 13


 659              	.LASF7:
 660 0071 6C6F6E67 		.ascii	"long unsigned int\000"
 660      20756E73 
 660      69676E65 
 660      6420696E 
 660      7400
 661              	.LASF24:
 662 0083 5F5F7261 		.ascii	"__ram0_init__\000"
 662      6D305F69 
 662      6E69745F 
 662      5F00
 663              	.LASF3:
 664 0091 73686F72 		.ascii	"short unsigned int\000"
 664      7420756E 
 664      7369676E 
 664      65642069 
 664      6E7400
 665              	.LASF22:
 666 00a4 49544D5F 		.ascii	"ITM_RxBuffer\000"
 666      52784275 
 666      66666572 
 666      00
 667              	.LASF1:
 668 00b1 756E7369 		.ascii	"unsigned char\000"
 668      676E6564 
 668      20636861 
 668      7200
 669              	.LASF20:
 670 00bf 5F5F6465 		.ascii	"__default_exit\000"
 670      6661756C 
 670      745F6578 
 670      697400
 671              	.LASF6:
 672 00ce 5F5F7569 		.ascii	"__uint32_t\000"
 672      6E743332 
 672      5F7400
 673              	.LASF18:
 674 00d9 72616D5F 		.ascii	"ram_init_area_t\000"
 674      696E6974 
 674      5F617265 
 674      615F7400 
 675              	.LASF10:
 676 00e9 756E7369 		.ascii	"unsigned int\000"
 676      676E6564 
 676      20696E74 
 676      00
 677              	.LASF9:
 678 00f6 6C6F6E67 		.ascii	"long long unsigned int\000"
 678      206C6F6E 
 678      6720756E 
 678      7369676E 
 678      65642069 
 679              	.LASF28:
 680 010d 2E2E2F2E 		.ascii	"../../modules/ChibiOS/os/common/startup/ARMCMx/comp"
 680      2E2F6D6F 
 680      64756C65 
 680      732F4368 
ARM GAS  /tmp/ccJRrHg6.s 			page 14


 680      6962694F 
 681 0140 696C6572 		.ascii	"ilers/GCC/crt1.c\000"
 681      732F4743 
 681      432F6372 
 681      74312E63 
 681      00
 682              	.LASF27:
 683 0151 474E5520 		.ascii	"GNU C 4.9.3 20150529 (prerelease) -mcpu=cortex-m4 -"
 683      4320342E 
 683      392E3320 
 683      32303135 
 683      30353239 
 684 0184 6D666C6F 		.ascii	"mfloat-abi=hard -mfpu=fpv4-sp-d16 -mno-thumb-interw"
 684      61742D61 
 684      62693D68 
 684      61726420 
 684      2D6D6670 
 685 01b7 6F726B20 		.ascii	"ork -mthumb -g -Os -fomit-frame-pointer -falign-fun"
 685      2D6D7468 
 685      756D6220 
 685      2D67202D 
 685      4F73202D 
 686 01ea 6374696F 		.ascii	"ctions=16 -ffunction-sections -fdata-sections -fno-"
 686      6E733D31 
 686      36202D66 
 686      66756E63 
 686      74696F6E 
 687 021d 636F6D6D 		.ascii	"common -fsingle-precision-constant\000"
 687      6F6E202D 
 687      6673696E 
 687      676C652D 
 687      70726563 
 688              	.LASF17:
 689 0240 6E6F5F69 		.ascii	"no_init_area\000"
 689      6E69745F 
 689      61726561 
 689      00
 690              	.LASF13:
 691 024d 73697A65 		.ascii	"sizetype\000"
 691      74797065 
 691      00
 692              	.LASF8:
 693 0256 6C6F6E67 		.ascii	"long long int\000"
 693      206C6F6E 
 693      6720696E 
 693      7400
 694              	.LASF2:
 695 0264 73686F72 		.ascii	"short int\000"
 695      7420696E 
 695      7400
 696              	.LASF14:
 697 026e 696E6974 		.ascii	"init_text_area\000"
 697      5F746578 
 697      745F6172 
 697      656100
 698              	.LASF25:
 699 027d 5F5F7261 		.ascii	"__ram0_clear__\000"
ARM GAS  /tmp/ccJRrHg6.s 			page 15


 699      6D305F63 
 699      6C656172 
 699      5F5F00
 700              	.LASF12:
 701 028c 75696E74 		.ascii	"uint32_t\000"
 701      33325F74 
 701      00
 702              	.LASF4:
 703 0295 6C6F6E67 		.ascii	"long int\000"
 703      20696E74 
 703      00
 704              	.LASF0:
 705 029e 7369676E 		.ascii	"signed char\000"
 705      65642063 
 705      68617200 
 706              	.LASF29:
 707 02aa 2F686F6D 		.ascii	"/home/kozinalexey/f4by/ardupilot/build/f4by-ch\000"
 707      652F6B6F 
 707      7A696E61 
 707      6C657865 
 707      792F6634 
 708              		.ident	"GCC: (15:4.9.3+svn231177-1) 4.9.3 20150529 (prerelease)"
ARM GAS  /tmp/ccJRrHg6.s 			page 16


DEFINED SYMBOLS
                            *ABS*:0000000000000000 crt1.c
     /tmp/ccJRrHg6.s:21     .text.__core_init:0000000000000000 $t
     /tmp/ccJRrHg6.s:26     .text.__core_init:0000000000000000 __core_init
     /tmp/ccJRrHg6.s:39     .text.__default_exit:0000000000000000 $t
     /tmp/ccJRrHg6.s:44     .text.__default_exit:0000000000000000 __default_exit
     /tmp/ccJRrHg6.s:59     .text.__init_ram_areas:0000000000000000 $t
     /tmp/ccJRrHg6.s:64     .text.__init_ram_areas:0000000000000000 __init_ram_areas
     /tmp/ccJRrHg6.s:105    .text.__init_ram_areas:0000000000000024 $d
                     .debug_frame:0000000000000010 $d

UNDEFINED SYMBOLS
__ram0_init_text__
__ram0_init__
__ram0_clear__
__ram0_noinit__
