ARM GAS  /tmp/ccrmF3NI.s 			page 1


   1              		.syntax unified
   2              		.cpu cortex-m4
   3              		.eabi_attribute 27, 1
   4              		.eabi_attribute 28, 1
   5              		.fpu fpv4-sp-d16
   6              		.eabi_attribute 20, 1
   7              		.eabi_attribute 21, 1
   8              		.eabi_attribute 23, 3
   9              		.eabi_attribute 24, 1
  10              		.eabi_attribute 25, 1
  11              		.eabi_attribute 26, 1
  12              		.eabi_attribute 30, 4
  13              		.eabi_attribute 34, 1
  14              		.eabi_attribute 18, 4
  15              		.thumb
  16              		.file	"fatfs_syscall.c"
  17              		.text
  18              	.Ltext0:
  19              		.cfi_sections	.debug_frame
  20              		.section	.text.ff_cre_syncobj,"ax",%progbits
  21              		.align	1
  22              		.global	ff_cre_syncobj
  23              		.thumb
  24              		.thumb_func
  25              		.type	ff_cre_syncobj, %function
  26              	ff_cre_syncobj:
  27              	.LFB277:
  28              		.file 1 "../../modules/ChibiOS/os/various/fatfs_bindings/fatfs_syscall.c"
  29              		.loc 1 34 0
  30              		.cfi_startproc
  31              		@ args = 0, pretend = 0, frame = 0
  32              		@ frame_needed = 0, uses_anonymous_args = 0
  33              	.LVL0:
  34 0000 08B5     		push	{r3, lr}
  35              		.cfi_def_cfa_offset 8
  36              		.cfi_offset 3, -8
  37              		.cfi_offset 14, -4
  38              		.loc 1 36 0
  39 0002 054A     		ldr	r2, .L2
  40 0004 0C23     		movs	r3, #12
  41 0006 03FB0020 		mla	r0, r3, r0, r2
  42              	.LVL1:
  43 000a 0860     		str	r0, [r1]
  44              		.loc 1 37 0
  45 000c 0121     		movs	r1, #1
  46              	.LVL2:
  47 000e FFF7FEFF 		bl	chSemObjectInit
  48              	.LVL3:
  49              		.loc 1 39 0
  50 0012 0120     		movs	r0, #1
  51 0014 08BD     		pop	{r3, pc}
  52              	.L3:
  53 0016 00BF     		.align	2
  54              	.L2:
  55 0018 00000000 		.word	.LANCHOR0
  56              		.cfi_endproc
  57              	.LFE277:
ARM GAS  /tmp/ccrmF3NI.s 			page 2


  58              		.size	ff_cre_syncobj, .-ff_cre_syncobj
  59              		.section	.text.ff_del_syncobj,"ax",%progbits
  60              		.align	1
  61              		.global	ff_del_syncobj
  62              		.thumb
  63              		.thumb_func
  64              		.type	ff_del_syncobj, %function
  65              	ff_del_syncobj:
  66              	.LFB278:
  67              		.loc 1 44 0
  68              		.cfi_startproc
  69              		@ args = 0, pretend = 0, frame = 0
  70              		@ frame_needed = 0, uses_anonymous_args = 0
  71              	.LVL4:
  72 0000 08B5     		push	{r3, lr}
  73              		.cfi_def_cfa_offset 8
  74              		.cfi_offset 3, -8
  75              		.cfi_offset 14, -4
  76              		.loc 1 46 0
  77 0002 0021     		movs	r1, #0
  78 0004 FFF7FEFF 		bl	chSemReset
  79              	.LVL5:
  80              		.loc 1 48 0
  81 0008 0120     		movs	r0, #1
  82 000a 08BD     		pop	{r3, pc}
  83              		.cfi_endproc
  84              	.LFE278:
  85              		.size	ff_del_syncobj, .-ff_del_syncobj
  86              		.section	.text.ff_req_grant,"ax",%progbits
  87              		.align	1
  88              		.global	ff_req_grant
  89              		.thumb
  90              		.thumb_func
  91              		.type	ff_req_grant, %function
  92              	ff_req_grant:
  93              	.LFB279:
  94              		.loc 1 53 0
  95              		.cfi_startproc
  96              		@ args = 0, pretend = 0, frame = 0
  97              		@ frame_needed = 0, uses_anonymous_args = 0
  98              	.LVL6:
  99 0000 08B5     		push	{r3, lr}
 100              		.cfi_def_cfa_offset 8
 101              		.cfi_offset 3, -8
 102              		.cfi_offset 14, -4
 103              		.loc 1 55 0
 104 0002 0349     		ldr	r1, .L6
 105 0004 FFF7FEFF 		bl	chSemWaitTimeout
 106              	.LVL7:
 107              		.loc 1 57 0
 108 0008 B0FA80F0 		clz	r0, r0
 109              	.LVL8:
 110 000c 4009     		lsrs	r0, r0, #5
 111 000e 08BD     		pop	{r3, pc}
 112              	.L7:
 113              		.align	2
 114              	.L6:
ARM GAS  /tmp/ccrmF3NI.s 			page 3


 115 0010 40420F00 		.word	1000000
 116              		.cfi_endproc
 117              	.LFE279:
 118              		.size	ff_req_grant, .-ff_req_grant
 119              		.section	.text.ff_rel_grant,"ax",%progbits
 120              		.align	1
 121              		.global	ff_rel_grant
 122              		.thumb
 123              		.thumb_func
 124              		.type	ff_rel_grant, %function
 125              	ff_rel_grant:
 126              	.LFB280:
 127              		.loc 1 62 0
 128              		.cfi_startproc
 129              		@ args = 0, pretend = 0, frame = 0
 130              		@ frame_needed = 0, uses_anonymous_args = 0
 131              		@ link register save eliminated.
 132              	.LVL9:
 133              		.loc 1 64 0
 134 0000 FFF7FEBF 		b	chSemSignal
 135              	.LVL10:
 136              		.cfi_endproc
 137              	.LFE280:
 138              		.size	ff_rel_grant, .-ff_rel_grant
 139              		.section	.text.ff_memalloc,"ax",%progbits
 140              		.align	1
 141              		.global	ff_memalloc
 142              		.thumb
 143              		.thumb_func
 144              		.type	ff_memalloc, %function
 145              	ff_memalloc:
 146              	.LFB281:
 147              		.loc 1 72 0
 148              		.cfi_startproc
 149              		@ args = 0, pretend = 0, frame = 0
 150              		@ frame_needed = 0, uses_anonymous_args = 0
 151              		@ link register save eliminated.
 152              	.LVL11:
 153              		.loc 1 72 0
 154 0000 0146     		mov	r1, r0
 155              	.LVL12:
 156              	.LBB4:
 157              	.LBB5:
 158              		.file 2 "../../modules/ChibiOS/os/common/oslib/include/chheap.h"
 159              		.loc 2 157 0
 160 0002 0822     		movs	r2, #8
 161 0004 0020     		movs	r0, #0
 162              	.LVL13:
 163 0006 FFF7FEBF 		b	chHeapAllocAligned
 164              	.LVL14:
 165              	.LBE5:
 166              	.LBE4:
 167              		.cfi_endproc
 168              	.LFE281:
 169              		.size	ff_memalloc, .-ff_memalloc
 170              		.section	.text.ff_memfree,"ax",%progbits
 171              		.align	1
ARM GAS  /tmp/ccrmF3NI.s 			page 4


 172              		.global	ff_memfree
 173              		.thumb
 174              		.thumb_func
 175              		.type	ff_memfree, %function
 176              	ff_memfree:
 177              	.LFB282:
 178              		.loc 1 80 0
 179              		.cfi_startproc
 180              		@ args = 0, pretend = 0, frame = 0
 181              		@ frame_needed = 0, uses_anonymous_args = 0
 182              		@ link register save eliminated.
 183              	.LVL15:
 184              		.loc 1 82 0
 185 0000 FFF7FEBF 		b	chHeapFree
 186              	.LVL16:
 187              		.cfi_endproc
 188              	.LFE282:
 189              		.size	ff_memfree, .-ff_memfree
 190              		.section	.bss.ff_sem,"aw",%nobits
 191              		.align	2
 192              		.set	.LANCHOR0,. + 0
 193              		.type	ff_sem, %object
 194              		.size	ff_sem, 12
 195              	ff_sem:
 196 0000 00000000 		.space	12
 196      00000000 
 196      00000000 
 197              		.text
 198              	.Letext0:
 199              		.file 3 "/usr/lib/gcc/arm-none-eabi/4.9.3/include/stddef.h"
 200              		.file 4 "/usr/include/newlib/machine/_default_types.h"
 201              		.file 5 "/usr/include/newlib/sys/_stdint.h"
 202              		.file 6 "../../modules/ChibiOS/os/common/ports/ARMCMx/compilers/GCC/chtypes.h"
 203              		.file 7 "../../modules/ChibiOS/os/rt/include/chsystypes.h"
 204              		.file 8 "../../modules/ChibiOS/os/rt/include/chschd.h"
 205              		.file 9 "../../modules/ChibiOS/os/common/ports/ARMCMx/chcore.h"
 206              		.file 10 "../../modules/ChibiOS/os/common/ports/ARMCMx/chcore_v7m.h"
 207              		.file 11 "../../modules/ChibiOS/os/rt/include/chtm.h"
 208              		.file 12 "../../modules/ChibiOS/os/rt/include/chstats.h"
 209              		.file 13 "../../modules/ChibiOS/os/rt/include/chsem.h"
 210              		.file 14 "../../modules/ChibiOS/os/rt/include/chmtx.h"
 211              		.file 15 "../../modules/ChibiOS/os/common/oslib/include/chmemcore.h"
 212              		.file 16 "../../modules/ChibiOS/ext/fatfs/src/integer.h"
 213              		.file 17 "../../modules/ChibiOS/os/common/ext/CMSIS/include/core_cm4.h"