ARM GAS  /tmp/ccaovzWw.s 			page 1


   1              		.syntax unified
   2              		.cpu cortex-m4
   3              		.eabi_attribute 27, 1
   4              		.eabi_attribute 28, 1
   5              		.fpu fpv4-sp-d16
   6              		.eabi_attribute 20, 1
   7              		.eabi_attribute 21, 1
   8              		.eabi_attribute 23, 3
   9              		.eabi_attribute 24, 1
  10              		.eabi_attribute 25, 1
  11              		.eabi_attribute 26, 1
  12              		.eabi_attribute 30, 4
  13              		.eabi_attribute 34, 1
  14              		.eabi_attribute 18, 4
  15              		.thumb
  16              		.file	"fatfs_diskio.c"
  17              		.text
  18              	.Ltext0:
  19              		.cfi_sections	.debug_frame
  20              		.section	.text.disk_initialize,"ax",%progbits
  21              		.align	1
  22              		.global	disk_initialize
  23              		.thumb
  24              		.thumb_func
  25              		.type	disk_initialize, %function
  26              	disk_initialize:
  27              	.LFB277:
  28              		.file 1 "../../modules/ChibiOS/os/various/fatfs_bindings/fatfs_diskio.c"
  29              		.loc 1 42 0
  30              		.cfi_startproc
  31              		@ args = 0, pretend = 0, frame = 0
  32              		@ frame_needed = 0, uses_anonymous_args = 0
  33              	.LVL0:
  34 0000 10B5     		push	{r4, lr}
  35              		.cfi_def_cfa_offset 8
  36              		.cfi_offset 4, -8
  37              		.cfi_offset 14, -4
  38              		.loc 1 45 0
  39 0002 58B9     		cbnz	r0, .L8
  40              	.LVL1:
  41              		.loc 1 50 0
  42 0004 0748     		ldr	r0, .L10
  43              	.LVL2:
  44 0006 0479     		ldrb	r4, [r0, #4]	@ zero_extendqisi2
  45              		.loc 1 48 0
  46 0008 053C     		subs	r4, r4, #5
  47 000a 18BF     		it	ne
  48 000c 0124     		movne	r4, #1
  49              	.LVL3:
  50              		.loc 1 52 0
  51 000e FFF7FEFF 		bl	mmc_lld_is_write_protected
  52              	.LVL4:
  53 0012 20B1     		cbz	r0, .L2
  54              		.loc 1 53 0
  55 0014 44F00404 		orr	r4, r4, #4
  56              	.LVL5:
  57 0018 E4B2     		uxtb	r4, r4
ARM GAS  /tmp/ccaovzWw.s 			page 2


  58 001a 00E0     		b	.L2
  59              	.LVL6:
  60              	.L8:
  61              		.loc 1 66 0
  62 001c 0124     		movs	r4, #1
  63              	.LVL7:
  64              	.L2:
  65              		.loc 1 67 0
  66 001e 2046     		mov	r0, r4
  67 0020 10BD     		pop	{r4, pc}
  68              	.L11:
  69 0022 00BF     		.align	2
  70              	.L10:
  71 0024 00000000 		.word	MMCD1
  72              		.cfi_endproc
  73              	.LFE277:
  74              		.size	disk_initialize, .-disk_initialize
  75              		.section	.text.disk_status,"ax",%progbits
  76              		.align	1
  77              		.global	disk_status
  78              		.thumb
  79              		.thumb_func
  80              		.type	disk_status, %function
  81              	disk_status:
  82              	.LFB278:
  83              		.loc 1 77 0
  84              		.cfi_startproc
  85              		@ args = 0, pretend = 0, frame = 0
  86              		@ frame_needed = 0, uses_anonymous_args = 0
  87              	.LVL8:
  88 0000 10B5     		push	{r4, lr}
  89              		.cfi_def_cfa_offset 8
  90              		.cfi_offset 4, -8
  91              		.cfi_offset 14, -4
  92              		.loc 1 80 0
  93 0002 58B9     		cbnz	r0, .L19
  94              	.LVL9:
  95              		.loc 1 85 0
  96 0004 0748     		ldr	r0, .L20
  97              	.LVL10:
  98 0006 0479     		ldrb	r4, [r0, #4]	@ zero_extendqisi2
  99              		.loc 1 83 0
 100 0008 053C     		subs	r4, r4, #5
 101 000a 18BF     		it	ne
 102 000c 0124     		movne	r4, #1
 103              	.LVL11:
 104              		.loc 1 87 0
 105 000e FFF7FEFF 		bl	mmc_lld_is_write_protected
 106              	.LVL12:
 107 0012 20B1     		cbz	r0, .L13
 108              		.loc 1 88 0
 109 0014 44F00404 		orr	r4, r4, #4
 110              	.LVL13:
 111 0018 E4B2     		uxtb	r4, r4
 112 001a 00E0     		b	.L13
 113              	.LVL14:
 114              	.L19:
ARM GAS  /tmp/ccaovzWw.s 			page 3


 115              		.loc 1 101 0
 116 001c 0124     		movs	r4, #1
 117              	.LVL15:
 118              	.L13:
 119              		.loc 1 102 0
 120 001e 2046     		mov	r0, r4
 121 0020 10BD     		pop	{r4, pc}
 122              	.L21:
 123 0022 00BF     		.align	2
 124              	.L20:
 125 0024 00000000 		.word	MMCD1
 126              		.cfi_endproc
 127              	.LFE278:
 128              		.size	disk_status, .-disk_status
 129              		.section	.text.disk_read,"ax",%progbits
 130              		.align	1
 131              		.global	disk_read
 132              		.thumb
 133              		.thumb_func
 134              		.type	disk_read, %function
 135              	disk_read:
 136              	.LFB279:
 137              		.loc 1 115 0
 138              		.cfi_startproc
 139              		@ args = 0, pretend = 0, frame = 0
 140              		@ frame_needed = 0, uses_anonymous_args = 0
 141              	.LVL16:
 142 0000 38B5     		push	{r3, r4, r5, lr}
 143              		.cfi_def_cfa_offset 16
 144              		.cfi_offset 3, -16
 145              		.cfi_offset 4, -12
 146              		.cfi_offset 5, -8
 147              		.cfi_offset 14, -4
 148              		.loc 1 115 0
 149 0002 0D46     		mov	r5, r1
 150 0004 1C46     		mov	r4, r3
 151              		.loc 1 116 0
 152 0006 C0B9     		cbnz	r0, .L30
 153              		.loc 1 119 0
 154 0008 0E48     		ldr	r0, .L31
 155              	.LVL17:
 156 000a 0379     		ldrb	r3, [r0, #4]	@ zero_extendqisi2
 157              	.LVL18:
 158 000c 052B     		cmp	r3, #5
 159 000e 16D1     		bne	.L29
 160              		.loc 1 121 0
 161 0010 1146     		mov	r1, r2
 162              	.LVL19:
 163 0012 FFF7FEFF 		bl	mmcStartSequentialRead
 164              	.LVL20:
 165 0016 48B1     		cbz	r0, .L26
 166              	.L25:
 167              		.loc 1 122 0
 168 0018 0120     		movs	r0, #1
 169 001a 38BD     		pop	{r3, r4, r5, pc}
 170              	.LVL21:
 171              	.L27:
ARM GAS  /tmp/ccaovzWw.s 			page 4


 172              		.loc 1 124 0
 173 001c 2946     		mov	r1, r5
 174 001e FFF7FEFF 		bl	mmcSequentialRead
 175              	.LVL22:
 176 0022 0028     		cmp	r0, #0
 177 0024 F8D1     		bne	.L25
 178              		.loc 1 126 0
 179 0026 05F50075 		add	r5, r5, #512
 180              	.LVL23:
 181              		.loc 1 127 0
 182 002a 013C     		subs	r4, r4, #1
 183              	.LVL24:
 184              	.L26:
 185              		.loc 1 124 0
 186 002c 0548     		ldr	r0, .L31
 187              		.loc 1 123 0
 188 002e 002C     		cmp	r4, #0
 189 0030 F4D1     		bne	.L27
 190              		.loc 1 142 0
 191 0032 BDE83840 		pop	{r3, r4, r5, lr}
 192              		.cfi_remember_state
 193              		.cfi_restore 14
 194              		.cfi_restore 5
 195              		.cfi_restore 4
 196              		.cfi_restore 3
 197              		.cfi_def_cfa_offset 0
 198              	.LVL25:
 199              		.loc 1 129 0
 200 0036 FFF7FEBF 		b	mmcStopSequentialRead
 201              	.LVL26:
 202              	.L30:
 203              		.cfi_restore_state
 204              		.loc 1 141 0
 205 003a 0420     		movs	r0, #4
 206              	.LVL27:
 207 003c 38BD     		pop	{r3, r4, r5, pc}
 208              	.LVL28:
 209              	.L29:
 210              		.loc 1 120 0
 211 003e 0320     		movs	r0, #3
 212              		.loc 1 142 0
 213 0040 38BD     		pop	{r3, r4, r5, pc}
 214              	.LVL29:
 215              	.L32:
 216 0042 00BF     		.align	2
 217              	.L31:
 218 0044 00000000 		.word	MMCD1
 219              		.cfi_endproc
 220              	.LFE279:
 221              		.size	disk_read, .-disk_read
 222              		.section	.text.disk_write,"ax",%progbits
 223              		.align	1
 224              		.global	disk_write
 225              		.thumb
 226              		.thumb_func
 227              		.type	disk_write, %function
 228              	disk_write:
ARM GAS  /tmp/ccaovzWw.s 			page 5


 229              	.LFB280:
 230              		.loc 1 156 0
 231              		.cfi_startproc
 232              		@ args = 0, pretend = 0, frame = 0
 233              		@ frame_needed = 0, uses_anonymous_args = 0
 234              	.LVL30:
 235 0000 F8B5     		push	{r3, r4, r5, r6, r7, lr}
 236              		.cfi_def_cfa_offset 24
 237              		.cfi_offset 3, -24
 238              		.cfi_offset 4, -20
 239              		.cfi_offset 5, -16
 240              		.cfi_offset 6, -12
 241              		.cfi_offset 7, -8
 242              		.cfi_offset 14, -4
 243              		.loc 1 156 0
 244 0002 0D46     		mov	r5, r1
 245 0004 1746     		mov	r7, r2
 246 0006 1C46     		mov	r4, r3
 247              		.loc 1 157 0
 248 0008 E8B9     		cbnz	r0, .L42
 249              		.loc 1 160 0
 250 000a 124E     		ldr	r6, .L43
 251 000c 3379     		ldrb	r3, [r6, #4]	@ zero_extendqisi2
 252              	.LVL31:
 253 000e 052B     		cmp	r3, #5
 254 0010 1BD1     		bne	.L40
 255              		.loc 1 162 0
 256 0012 3046     		mov	r0, r6
 257              	.LVL32:
 258 0014 FFF7FEFF 		bl	mmc_lld_is_write_protected
 259              	.LVL33:
 260 0018 C8B9     		cbnz	r0, .L41
 261              		.loc 1 164 0
 262 001a 3046     		mov	r0, r6
 263 001c 3946     		mov	r1, r7
 264 001e FFF7FEFF 		bl	mmcStartSequentialWrite
 265              	.LVL34:
 266 0022 48B1     		cbz	r0, .L37
 267              	.L36:
 268              		.loc 1 165 0
 269 0024 0120     		movs	r0, #1
 270 0026 F8BD     		pop	{r3, r4, r5, r6, r7, pc}
 271              	.LVL35:
 272              	.L38:
 273              		.loc 1 167 0
 274 0028 2946     		mov	r1, r5
 275 002a FFF7FEFF 		bl	mmcSequentialWrite
 276              	.LVL36:
 277 002e 0028     		cmp	r0, #0
 278 0030 F8D1     		bne	.L36
 279              		.loc 1 169 0
 280 0032 05F50075 		add	r5, r5, #512
 281              	.LVL37:
 282              		.loc 1 170 0
 283 0036 013C     		subs	r4, r4, #1
 284              	.LVL38:
 285              	.L37:
ARM GAS  /tmp/ccaovzWw.s 			page 6


 286              		.loc 1 167 0
 287 0038 0648     		ldr	r0, .L43
 288              		.loc 1 166 0
 289 003a 002C     		cmp	r4, #0
 290 003c F4D1     		bne	.L38
 291              		.loc 1 185 0
 292 003e BDE8F840 		pop	{r3, r4, r5, r6, r7, lr}
 293              		.cfi_remember_state
 294              		.cfi_restore 14
 295              		.cfi_restore 7
 296              		.cfi_restore 6
 297              		.cfi_restore 5
 298              		.cfi_restore 4
 299              		.cfi_restore 3
 300              		.cfi_def_cfa_offset 0
 301              	.LVL39:
 302              		.loc 1 172 0
 303 0042 FFF7FEBF 		b	mmcStopSequentialWrite
 304              	.LVL40:
 305              	.L42:
 306              		.cfi_restore_state
 307              		.loc 1 184 0
 308 0046 0420     		movs	r0, #4
 309              	.LVL41:
 310 0048 F8BD     		pop	{r3, r4, r5, r6, r7, pc}
 311              	.LVL42:
 312              	.L40:
 313              		.loc 1 161 0
 314 004a 0320     		movs	r0, #3
 315              	.LVL43:
 316 004c F8BD     		pop	{r3, r4, r5, r6, r7, pc}
 317              	.LVL44:
 318              	.L41:
 319              		.loc 1 163 0
 320 004e 0220     		movs	r0, #2
 321              		.loc 1 185 0
 322 0050 F8BD     		pop	{r3, r4, r5, r6, r7, pc}
 323              	.LVL45:
 324              	.L44:
 325 0052 00BF     		.align	2
 326              	.L43:
 327 0054 00000000 		.word	MMCD1
 328              		.cfi_endproc
 329              	.LFE280:
 330              		.size	disk_write, .-disk_write
 331              		.section	.text.disk_ioctl,"ax",%progbits
 332              		.align	1
 333              		.global	disk_ioctl
 334              		.thumb
 335              		.thumb_func
 336              		.type	disk_ioctl, %function
 337              	disk_ioctl:
 338              	.LFB281:
 339              		.loc 1 198 0
 340              		.cfi_startproc
 341              		@ args = 0, pretend = 0, frame = 0
 342              		@ frame_needed = 0, uses_anonymous_args = 0
ARM GAS  /tmp/ccaovzWw.s 			page 7


 343              		@ link register save eliminated.
 344              	.LVL46:
 345              		.loc 1 201 0
 346 0000 20B9     		cbnz	r0, .L51
 347              		.loc 1 204 0
 348 0002 0029     		cmp	r1, #0
 349              		.loc 1 218 0
 350 0004 0CBF     		ite	eq
 351 0006 0020     		moveq	r0, #0
 352              	.LVL47:
 353 0008 0420     		movne	r0, #4
 354 000a 7047     		bx	lr
 355              	.LVL48:
 356              	.L51:
 357              		.loc 1 246 0
 358 000c 0420     		movs	r0, #4
 359              	.LVL49:
 360              		.loc 1 247 0
 361 000e 7047     		bx	lr
 362              		.cfi_endproc
 363              	.LFE281:
 364              		.size	disk_ioctl, .-disk_ioctl
 365              		.section	.text.get_fattime,"ax",%progbits
 366              		.align	1
 367              		.global	get_fattime
 368              		.thumb
 369              		.thumb_func
 370              		.type	get_fattime, %function
 371              	get_fattime:
 372              	.LFB282:
 373              		.loc 1 249 0
 374              		.cfi_startproc
 375              		@ args = 0, pretend = 0, frame = 0
 376              		@ frame_needed = 0, uses_anonymous_args = 0
 377              		@ link register save eliminated.
 378              		.loc 1 258 0
 379 0000 4FF40410 		mov	r0, #2162688
 380 0004 7047     		bx	lr
 381              		.cfi_endproc
 382              	.LFE282:
 383              		.size	get_fattime, .-get_fattime
 384              		.text
 385              	.Letext0:
 386              		.file 2 "/usr/include/newlib/machine/_default_types.h"
 387              		.file 3 "/usr/include/newlib/sys/_stdint.h"
 388              		.file 4 "../../modules/ChibiOS/os/common/ports/ARMCMx/compilers/GCC/chtypes.h"
 389              		.file 5 "../../modules/ChibiOS/os/rt/include/chsystypes.h"
 390              		.file 6 "../../modules/ChibiOS/os/rt/include/chschd.h"
 391              		.file 7 "../../modules/ChibiOS/os/common/ext/CMSIS/ST/STM32F4xx/stm32f407xx.h"
 392              		.file 8 "../../modules/ChibiOS/os/common/ports/ARMCMx/chcore.h"
 393              		.file 9 "../../modules/ChibiOS/os/common/ports/ARMCMx/chcore_v7m.h"
 394              		.file 10 "../../modules/ChibiOS/os/rt/include/chtm.h"
 395              		.file 11 "../../modules/ChibiOS/os/rt/include/chstats.h"
 396              		.file 12 "../../modules/ChibiOS/os/rt/include/chsem.h"
 397              		.file 13 "../../modules/ChibiOS/os/rt/include/chmtx.h"
 398              		.file 14 "../../modules/ChibiOS/os/hal/ports/STM32/LLD/DMAv2/stm32_dma.h"
 399              		.file 15 "../../modules/ChibiOS/os/hal/include/hal_ioblock.h"
ARM GAS  /tmp/ccaovzWw.s 			page 8


 400              		.file 16 "../../modules/ChibiOS/os/hal/ports/STM32/LLD/GPIOv2/hal_pal_lld.h"
 401              		.file 17 "../../modules/ChibiOS/os/hal/include/hal_spi.h"
 402              		.file 18 "../../modules/ChibiOS/os/hal/ports/STM32/LLD/SPIv1/hal_spi_lld.h"
 403              		.file 19 "../../modules/ChibiOS/os/hal/include/hal_mmc_spi.h"
 404              		.file 20 "../../modules/ChibiOS/ext/fatfs/src/integer.h"
 405              		.file 21 "../../modules/ChibiOS/ext/fatfs/src/diskio.h"
 406              		.file 22 "../../modules/ChibiOS/os/common/ext/CMSIS/include/core_cm4.h"