ARM GAS  /tmp/cc1dDrpm.s 			page 1


   1              		.syntax unified
   2              		.cpu cortex-m4
   3              		.eabi_attribute 27, 1
   4              		.eabi_attribute 28, 1
   5              		.fpu fpv4-sp-d16
   6              		.eabi_attribute 20, 1
   7              		.eabi_attribute 21, 1
   8              		.eabi_attribute 23, 3
   9              		.eabi_attribute 24, 1
  10              		.eabi_attribute 25, 1
  11              		.eabi_attribute 26, 1
  12              		.eabi_attribute 30, 4
  13              		.eabi_attribute 34, 1
  14              		.eabi_attribute 18, 4
  15              		.thumb
  16              		.file	"flash.c"
  17              		.text
  18              	.Ltext0:
  19              		.cfi_sections	.debug_frame
  20              		.section	.text.stm32_flash_wait_idle,"ax",%progbits
  21              		.align	1
  22              		.thumb
  23              		.thumb_func
  24              		.type	stm32_flash_wait_idle, %function
  25              	stm32_flash_wait_idle:
  26              	.LFB279:
  27              		.file 1 "../../libraries/AP_HAL_ChibiOS/hwdef/common/flash.c"
  28              		.loc 1 121 0
  29              		.cfi_startproc
  30              		@ args = 0, pretend = 0, frame = 0
  31              		@ frame_needed = 0, uses_anonymous_args = 0
  32              		@ link register save eliminated.
  33              	.L2:
  34              		.loc 1 122 0 discriminator 1
  35 0000 024B     		ldr	r3, .L5
  36 0002 DB68     		ldr	r3, [r3, #12]
  37 0004 DB03     		lsls	r3, r3, #15
  38 0006 FBD4     		bmi	.L2
  39              		.loc 1 125 0
  40 0008 7047     		bx	lr
  41              	.L6:
  42 000a 00BF     		.align	2
  43              	.L5:
  44 000c 003C0240 		.word	1073888256
  45              		.cfi_endproc
  46              	.LFE279:
  47              		.size	stm32_flash_wait_idle, .-stm32_flash_wait_idle
  48              		.section	.text.stm32_flash_unlock,"ax",%progbits
  49              		.align	1
  50              		.thumb
  51              		.thumb_func
  52              		.type	stm32_flash_unlock, %function
  53              	stm32_flash_unlock:
  54              	.LFB280:
  55              		.loc 1 128 0
  56              		.cfi_startproc
  57              		@ args = 0, pretend = 0, frame = 0
ARM GAS  /tmp/cc1dDrpm.s 			page 2


  58              		@ frame_needed = 0, uses_anonymous_args = 0
  59 0000 08B5     		push	{r3, lr}
  60              		.cfi_def_cfa_offset 8
  61              		.cfi_offset 3, -8
  62              		.cfi_offset 14, -4
  63              		.loc 1 129 0
  64 0002 FFF7FEFF 		bl	stm32_flash_wait_idle
  65              	.LVL0:
  66              		.loc 1 131 0
  67 0006 074B     		ldr	r3, .L9
  68 0008 1A69     		ldr	r2, [r3, #16]
  69 000a 002A     		cmp	r2, #0
  70              		.loc 1 133 0
  71 000c BFBF     		itttt	lt
  72 000e 064A     		ldrlt	r2, .L9+4
  73 0010 5A60     		strlt	r2, [r3, #4]
  74              		.loc 1 134 0
  75 0012 02F18832 		addlt	r2, r2, #-2004318072
  76 0016 5A60     		strlt	r2, [r3, #4]
  77              		.loc 1 138 0
  78 0018 1A68     		ldr	r2, [r3]
  79 001a 22F48062 		bic	r2, r2, #1024
  80 001e 1A60     		str	r2, [r3]
  81 0020 08BD     		pop	{r3, pc}
  82              	.L10:
  83 0022 00BF     		.align	2
  84              	.L9:
  85 0024 003C0240 		.word	1073888256
  86 0028 23016745 		.word	1164378403
  87              		.cfi_endproc
  88              	.LFE280:
  89              		.size	stm32_flash_unlock, .-stm32_flash_unlock
  90              		.section	.text.stm32_flash_lock,"ax",%progbits
  91              		.align	1
  92              		.global	stm32_flash_lock
  93              		.thumb
  94              		.thumb_func
  95              		.type	stm32_flash_lock, %function
  96              	stm32_flash_lock:
  97              	.LFB281:
  98              		.loc 1 142 0
  99              		.cfi_startproc
 100              		@ args = 0, pretend = 0, frame = 0
 101              		@ frame_needed = 0, uses_anonymous_args = 0
 102 0000 08B5     		push	{r3, lr}
 103              		.cfi_def_cfa_offset 8
 104              		.cfi_offset 3, -8
 105              		.cfi_offset 14, -4
 106              		.loc 1 143 0
 107 0002 FFF7FEFF 		bl	stm32_flash_wait_idle
 108              	.LVL1:
 109              		.loc 1 144 0
 110 0006 094B     		ldr	r3, .L12
 111 0008 1A69     		ldr	r2, [r3, #16]
 112 000a 42F00042 		orr	r2, r2, #-2147483648
 113 000e 1A61     		str	r2, [r3, #16]
 114              		.loc 1 147 0
ARM GAS  /tmp/cc1dDrpm.s 			page 3


 115 0010 1A68     		ldr	r2, [r3]
 116 0012 42F48052 		orr	r2, r2, #4096
 117 0016 1A60     		str	r2, [r3]
 118              		.loc 1 148 0
 119 0018 1A68     		ldr	r2, [r3]
 120 001a 22F48052 		bic	r2, r2, #4096
 121 001e 1A60     		str	r2, [r3]
 122              		.loc 1 149 0
 123 0020 1A68     		ldr	r2, [r3]
 124 0022 42F48062 		orr	r2, r2, #1024
 125 0026 1A60     		str	r2, [r3]
 126 0028 08BD     		pop	{r3, pc}
 127              	.L13:
 128 002a 00BF     		.align	2
 129              	.L12:
 130 002c 003C0240 		.word	1073888256
 131              		.cfi_endproc
 132              	.LFE281:
 133              		.size	stm32_flash_lock, .-stm32_flash_lock
 134              		.section	.text.stm32_flash_getpageaddr,"ax",%progbits
 135              		.align	1
 136              		.global	stm32_flash_getpageaddr
 137              		.thumb
 138              		.thumb_func
 139              		.type	stm32_flash_getpageaddr, %function
 140              	stm32_flash_getpageaddr:
 141              	.LFB282:
 142              		.loc 1 158 0
 143              		.cfi_startproc
 144              		@ args = 0, pretend = 0, frame = 0
 145              		@ frame_needed = 0, uses_anonymous_args = 0
 146              	.LVL2:
 147              		.loc 1 159 0
 148 0000 0B28     		cmp	r0, #11
 149              		.loc 1 158 0
 150 0002 30B5     		push	{r4, r5, lr}
 151              		.cfi_def_cfa_offset 12
 152              		.cfi_offset 4, -12
 153              		.cfi_offset 5, -8
 154              		.cfi_offset 14, -4
 155              		.loc 1 159 0
 156 0004 13D8     		bhi	.L18
 157              	.LVL3:
 158              	.LBB19:
 159              	.LBB20:
 160              		.loc 1 163 0
 161 0006 0B4A     		ldr	r2, .L20
 162 0008 0B4C     		ldr	r4, .L20+4
 163 000a 1378     		ldrb	r3, [r2]	@ zero_extendqisi2
 164 000c 63B9     		cbnz	r3, .L16
 165 000e 4FF00061 		mov	r1, #134217728
 166              	.L17:
 167              	.LVL4:
 168              	.LBB21:
 169              	.LBB22:
 170              	.LBB23:
 171              		.loc 1 182 0
ARM GAS  /tmp/cc1dDrpm.s 			page 4


 172 0012 0A4D     		ldr	r5, .L20+8
 173              	.LBE23:
 174              	.LBE22:
 175              		.loc 1 168 0
 176 0014 44F82310 		str	r1, [r4, r3, lsl #2]
 177              	.LVL5:
 178              		.loc 1 169 0
 179 0018 55F82350 		ldr	r5, [r5, r3, lsl #2]
 180 001c 0133     		adds	r3, r3, #1
 181              	.LVL6:
 182              		.loc 1 167 0
 183 001e 0C2B     		cmp	r3, #12
 184              		.loc 1 169 0
 185 0020 2944     		add	r1, r1, r5
 186              	.LVL7:
 187              		.loc 1 167 0
 188 0022 F6D1     		bne	.L17
 189              		.loc 1 171 0
 190 0024 0123     		movs	r3, #1
 191              	.LVL8:
 192 0026 1370     		strb	r3, [r2]
 193              	.LVL9:
 194              	.L16:
 195              	.LBE21:
 196              		.loc 1 174 0
 197 0028 54F82000 		ldr	r0, [r4, r0, lsl #2]
 198              	.LVL10:
 199 002c 30BD     		pop	{r4, r5, pc}
 200              	.LVL11:
 201              	.L18:
 202              	.LBE20:
 203              	.LBE19:
 204              		.loc 1 160 0
 205 002e 0020     		movs	r0, #0
 206              	.LVL12:
 207              		.loc 1 175 0
 208 0030 30BD     		pop	{r4, r5, pc}
 209              	.L21:
 210 0032 00BF     		.align	2
 211              	.L20:
 212 0034 00000000 		.word	.LANCHOR0
 213 0038 00000000 		.word	.LANCHOR1
 214 003c 00000000 		.word	.LANCHOR2
 215              		.cfi_endproc
 216              	.LFE282:
 217              		.size	stm32_flash_getpageaddr, .-stm32_flash_getpageaddr
 218              		.section	.text.stm32_flash_getpagesize,"ax",%progbits
 219              		.align	1
 220              		.global	stm32_flash_getpagesize
 221              		.thumb
 222              		.thumb_func
 223              		.type	stm32_flash_getpagesize, %function
 224              	stm32_flash_getpagesize:
 225              	.LFB283:
 226              		.loc 1 181 0
 227              		.cfi_startproc
 228              		@ args = 0, pretend = 0, frame = 0
ARM GAS  /tmp/cc1dDrpm.s 			page 5


 229              		@ frame_needed = 0, uses_anonymous_args = 0
 230              		@ link register save eliminated.
 231              	.LVL13:
 232              		.loc 1 183 0
 233 0000 014B     		ldr	r3, .L23
 234 0002 53F82000 		ldr	r0, [r3, r0, lsl #2]
 235              	.LVL14:
 236 0006 7047     		bx	lr
 237              	.L24:
 238              		.align	2
 239              	.L23:
 240 0008 00000000 		.word	.LANCHOR2
 241              		.cfi_endproc
 242              	.LFE283:
 243              		.size	stm32_flash_getpagesize, .-stm32_flash_getpagesize
 244              		.section	.text.stm32_flash_getnumpages,"ax",%progbits
 245              		.align	1
 246              		.global	stm32_flash_getnumpages
 247              		.thumb
 248              		.thumb_func
 249              		.type	stm32_flash_getnumpages, %function
 250              	stm32_flash_getnumpages:
 251              	.LFB284:
 252              		.loc 1 189 0
 253              		.cfi_startproc
 254              		@ args = 0, pretend = 0, frame = 0
 255              		@ frame_needed = 0, uses_anonymous_args = 0
 256              		@ link register save eliminated.
 257              		.loc 1 191 0
 258 0000 0C20     		movs	r0, #12
 259 0002 7047     		bx	lr
 260              		.cfi_endproc
 261              	.LFE284:
 262              		.size	stm32_flash_getnumpages, .-stm32_flash_getnumpages
 263              		.section	.text.stm32_flash_erasepage,"ax",%progbits
 264              		.align	1
 265              		.global	stm32_flash_erasepage
 266              		.thumb
 267              		.thumb_func
 268              		.type	stm32_flash_erasepage, %function
 269              	stm32_flash_erasepage:
 270              	.LFB286:
 271              		.loc 1 216 0
 272              		.cfi_startproc
 273              		@ args = 0, pretend = 0, frame = 0
 274              		@ frame_needed = 0, uses_anonymous_args = 0
 275              	.LVL15:
 276              		.loc 1 217 0
 277 0000 0B28     		cmp	r0, #11
 278              		.loc 1 216 0
 279 0002 70B5     		push	{r4, r5, r6, lr}
 280              		.cfi_def_cfa_offset 16
 281              		.cfi_offset 4, -16
 282              		.cfi_offset 5, -12
 283              		.cfi_offset 6, -8
 284              		.cfi_offset 14, -4
 285              		.loc 1 216 0
ARM GAS  /tmp/cc1dDrpm.s 			page 6


 286 0004 0546     		mov	r5, r0
 287              		.loc 1 217 0
 288 0006 1FD8     		bhi	.L33
 289              		.loc 1 228 0
 290 0008 194C     		ldr	r4, .L35
 291 000a F326     		movs	r6, #243
 292              		.loc 1 224 0
 293 000c FFF7FEFF 		bl	stm32_flash_wait_idle
 294              	.LVL16:
 295              		.loc 1 225 0
 296 0010 FFF7FEFF 		bl	stm32_flash_unlock
 297              	.LVL17:
 298              		.loc 1 228 0
 299 0014 E660     		str	r6, [r4, #12]
 300              		.loc 1 230 0
 301 0016 FFF7FEFF 		bl	stm32_flash_wait_idle
 302              	.LVL18:
 303              		.loc 1 233 0
 304 001a 0C22     		movs	r2, #12
 305 001c B5FBF2F3 		udiv	r3, r5, r2
 306 0020 02FB1353 		mls	r3, r2, r3, r5
 307 0024 DB00     		lsls	r3, r3, #3
 308              		.loc 1 235 0
 309 0026 DBB2     		uxtb	r3, r3
 310 0028 43F40073 		orr	r3, r3, #512
 311 002c 43F00203 		orr	r3, r3, #2
 312 0030 2361     		str	r3, [r4, #16]
 313              		.loc 1 236 0
 314 0032 2369     		ldr	r3, [r4, #16]
 315 0034 43F48033 		orr	r3, r3, #65536
 316 0038 2361     		str	r3, [r4, #16]
 317              		.loc 1 238 0
 318 003a FFF7FEFF 		bl	stm32_flash_wait_idle
 319              	.LVL19:
 320              		.loc 1 240 0
 321 003e E368     		ldr	r3, [r4, #12]
 322 0040 23B1     		cbz	r3, .L29
 323              		.loc 1 242 0
 324 0042 E660     		str	r6, [r4, #12]
 325              		.loc 1 243 0
 326 0044 FFF7FEFF 		bl	stm32_flash_lock
 327              	.LVL20:
 328              	.L33:
 329              		.loc 1 247 0
 330 0048 0020     		movs	r0, #0
 331 004a 70BD     		pop	{r4, r5, r6, pc}
 332              	.LVL21:
 333              	.L29:
 334              		.loc 1 250 0
 335 004c FFF7FEFF 		bl	stm32_flash_lock
 336              	.LVL22:
 337              	.LBB28:
 338              	.LBB29:
 339              		.loc 1 202 0
 340 0050 2846     		mov	r0, r5
 341 0052 FFF7FEFF 		bl	stm32_flash_getpageaddr
 342              	.LVL23:
ARM GAS  /tmp/cc1dDrpm.s 			page 7


 343              	.LBB30:
 344              	.LBB31:
 345              		.loc 1 182 0
 346 0056 074B     		ldr	r3, .L35+4
 347 0058 53F82530 		ldr	r3, [r3, r5, lsl #2]
 348 005c 0344     		add	r3, r3, r0
 349              	.L30:
 350              	.LVL24:
 351              	.LBE31:
 352              	.LBE30:
 353              		.loc 1 202 0
 354 005e 9842     		cmp	r0, r3
 355 0060 04D0     		beq	.L34
 356              		.loc 1 204 0
 357 0062 0278     		ldrb	r2, [r0]	@ zero_extendqisi2
 358 0064 FF2A     		cmp	r2, #255
 359 0066 EFD1     		bne	.L33
 360              	.LVL25:
 361              		.loc 1 203 0
 362 0068 0130     		adds	r0, r0, #1
 363              	.LVL26:
 364 006a F8E7     		b	.L30
 365              	.LVL27:
 366              	.L34:
 367              		.loc 1 209 0
 368 006c 0120     		movs	r0, #1
 369              	.LVL28:
 370              	.LBE29:
 371              	.LBE28:
 372              		.loc 1 256 0
 373 006e 70BD     		pop	{r4, r5, r6, pc}
 374              	.LVL29:
 375              	.L36:
 376              		.align	2
 377              	.L35:
 378 0070 003C0240 		.word	1073888256
 379 0074 00000000 		.word	.LANCHOR2
 380              		.cfi_endproc
 381              	.LFE286:
 382              		.size	stm32_flash_erasepage, .-stm32_flash_erasepage
 383              		.section	.text.stm32_flash_write,"ax",%progbits
 384              		.align	1
 385              		.global	stm32_flash_write
 386              		.thumb
 387              		.thumb_func
 388              		.type	stm32_flash_write, %function
 389              	stm32_flash_write:
 390              	.LFB287:
 391              		.loc 1 260 0
 392              		.cfi_startproc
 393              		@ args = 0, pretend = 0, frame = 0
 394              		@ frame_needed = 0, uses_anonymous_args = 0
 395              	.LVL30:
 396 0000 2DE9F047 		push	{r4, r5, r6, r7, r8, r9, r10, lr}
 397              		.cfi_def_cfa_offset 32
 398              		.cfi_offset 4, -32
 399              		.cfi_offset 5, -28
ARM GAS  /tmp/cc1dDrpm.s 			page 8


 400              		.cfi_offset 6, -24
 401              		.cfi_offset 7, -20
 402              		.cfi_offset 8, -16
 403              		.cfi_offset 9, -12
 404              		.cfi_offset 10, -8
 405              		.cfi_offset 14, -4
 406              		.loc 1 260 0
 407 0004 1446     		mov	r4, r2
 408              		.loc 1 265 0
 409 0006 E207     		lsls	r2, r4, #31
 410              	.LVL31:
 411              		.loc 1 260 0
 412 0008 8046     		mov	r8, r0
 413 000a 8946     		mov	r9, r1
 414              	.LVL32:
 415              		.loc 1 265 0
 416 000c 41D4     		bmi	.L45
 417              		.loc 1 269 0
 418 000e 2318     		adds	r3, r4, r0
 419 0010 B3F1016F 		cmp	r3, #135266304
 420 0014 3DD2     		bcs	.L45
 421              		.loc 1 275 0
 422 0016 214B     		ldr	r3, .L49
 423 0018 1B68     		ldr	r3, [r3]
 424 001a DB07     		lsls	r3, r3, #31
 425 001c 39D5     		bpl	.L45
 426              		.loc 1 283 0
 427 001e FFF7FEFF 		bl	stm32_flash_unlock
 428              	.LVL33:
 429              		.loc 1 286 0
 430 0022 1F4B     		ldr	r3, .L49+4
 431 0024 F322     		movs	r2, #243
 432 0026 DA60     		str	r2, [r3, #12]
 433              		.loc 1 289 0
 434 0028 1A69     		ldr	r2, [r3, #16]
 435 002a 22F44072 		bic	r2, r2, #768
 436 002e 1A61     		str	r2, [r3, #16]
 437              		.loc 1 290 0
 438 0030 1A69     		ldr	r2, [r3, #16]
 439 0032 42F48072 		orr	r2, r2, #256
 440 0036 42F00102 		orr	r2, r2, #1
 441 003a 1A61     		str	r2, [r3, #16]
 442              		.loc 1 292 0
 443 003c 4F46     		mov	r7, r9
 444              	.LVL34:
 445              	.L39:
 446 003e E31B     		subs	r3, r4, r7
 447 0040 C9EB0806 		rsb	r6, r9, r8
 448              		.loc 1 292 0 is_stmt 0 discriminator 1
 449 0044 19EB030F 		cmn	r9, r3
 450 0048 3E44     		add	r6, r6, r7
 451              	.LVL35:
 452 004a 154D     		ldr	r5, .L49+4
 453 004c 18D0     		beq	.L48
 454 004e BA46     		mov	r10, r7
 455              	.LVL36:
 456              	.LBB32:
ARM GAS  /tmp/cc1dDrpm.s 			page 9


 457              	.LBB33:
 458              		.loc 1 117 0 is_stmt 1
 459 0050 3B88     		ldrh	r3, [r7]
 460              	@ 117 "../../libraries/AP_HAL_ChibiOS/hwdef/common/flash.c" 1
 461 0052 3380     			strh r3, [r6]
 462              		
 463              	@ 0 "" 2
 464              		.thumb
 465              	.LBE33:
 466              	.LBE32:
 467              		.loc 1 297 0
 468 0054 FFF7FEFF 		bl	stm32_flash_wait_idle
 469              	.LVL37:
 470              		.loc 1 299 0
 471 0058 EB68     		ldr	r3, [r5, #12]
 472 005a 13B1     		cbz	r3, .L40
 473              		.loc 1 301 0
 474 005c F323     		movs	r3, #243
 475 005e EB60     		str	r3, [r5, #12]
 476 0060 07E0     		b	.L47
 477              	.L40:
 478              	.LVL38:
 479              	.LBB34:
 480              	.LBB35:
 481              		.loc 1 110 0
 482              	@ 110 "../../libraries/AP_HAL_ChibiOS/hwdef/common/flash.c" 1
 483 0062 3688     			ldrh r6, [r6]
 484              		
 485              	@ 0 "" 2
 486              	.LVL39:
 487              		.thumb
 488              	.LBE35:
 489              	.LBE34:
 490              		.loc 1 306 0
 491 0064 BAF80030 		ldrh	r3, [r10]
 492              	.LBB37:
 493              	.LBB36:
 494              		.loc 1 110 0
 495 0068 B6B2     		uxth	r6, r6
 496              	.LVL40:
 497              	.LBE36:
 498              	.LBE37:
 499              		.loc 1 306 0
 500 006a B342     		cmp	r3, r6
 501 006c 07F10207 		add	r7, r7, #2
 502              	.LVL41:
 503 0070 E5D0     		beq	.L39
 504              	.LVL42:
 505              	.L47:
 506              	.L41:
 507              		.loc 1 307 0
 508 0072 2B69     		ldr	r3, [r5, #16]
 509 0074 23F00103 		bic	r3, r3, #1
 510 0078 2B61     		str	r3, [r5, #16]
 511              		.loc 1 321 0
 512 007a FFF7FEFF 		bl	stm32_flash_lock
 513              	.LVL43:
ARM GAS  /tmp/cc1dDrpm.s 			page 10


 514 007e 08E0     		b	.L45
 515              	.LVL44:
 516              	.L48:
 517              		.loc 1 312 0
 518 0080 2B69     		ldr	r3, [r5, #16]
 519 0082 23F00103 		bic	r3, r3, #1
 520 0086 2B61     		str	r3, [r5, #16]
 521              		.loc 1 314 0
 522 0088 FFF7FEFF 		bl	stm32_flash_lock
 523              	.LVL45:
 524              		.loc 1 318 0
 525 008c 2046     		mov	r0, r4
 526 008e BDE8F087 		pop	{r4, r5, r6, r7, r8, r9, r10, pc}
 527              	.LVL46:
 528              	.L45:
 529              		.loc 1 266 0
 530 0092 4FF0FF30 		mov	r0, #-1
 531              		.loc 1 326 0
 532 0096 BDE8F087 		pop	{r4, r5, r6, r7, r8, r9, r10, pc}
 533              	.LVL47:
 534              	.L50:
 535 009a 00BF     		.align	2
 536              	.L49:
 537 009c 00380240 		.word	1073887232
 538 00a0 003C0240 		.word	1073888256
 539              		.cfi_endproc
 540              	.LFE287:
 541              		.size	stm32_flash_write, .-stm32_flash_write
 542              		.section	.bss.flash_pageaddr,"aw",%nobits
 543              		.align	2
 544              		.set	.LANCHOR1,. + 0
 545              		.type	flash_pageaddr, %object
 546              		.size	flash_pageaddr, 48
 547              	flash_pageaddr:
 548 0000 00000000 		.space	48
 548      00000000 
 548      00000000 
 548      00000000 
 548      00000000 
 549              		.section	.rodata.flash_memmap,"a",%progbits
 550              		.align	2
 551              		.set	.LANCHOR2,. + 0
 552              		.type	flash_memmap, %object
 553              		.size	flash_memmap, 48
 554              	flash_memmap:
 555 0000 00400000 		.word	16384
 556 0004 00400000 		.word	16384
 557 0008 00400000 		.word	16384
 558 000c 00400000 		.word	16384
 559 0010 00000100 		.word	65536
 560 0014 00000200 		.word	131072
 561 0018 00000200 		.word	131072
 562 001c 00000200 		.word	131072
 563 0020 00000200 		.word	131072
 564 0024 00000200 		.word	131072
 565 0028 00000200 		.word	131072
 566 002c 00000200 		.word	131072
ARM GAS  /tmp/cc1dDrpm.s 			page 11


 567              		.section	.bss.flash_pageaddr_initialised,"aw",%nobits
 568              		.set	.LANCHOR0,. + 0
 569              		.type	flash_pageaddr_initialised, %object
 570              		.size	flash_pageaddr_initialised, 1
 571              	flash_pageaddr_initialised:
 572 0000 00       		.space	1
 573              		.text
 574              	.Letext0:
 575              		.file 2 "/usr/lib/gcc/arm-none-eabi/4.9.3/include/stddef.h"
 576              		.file 3 "/usr/include/newlib/machine/_default_types.h"
 577              		.file 4 "/usr/include/newlib/sys/_stdint.h"
 578              		.file 5 "../../modules/ChibiOS/os/common/ports/ARMCMx/compilers/GCC/chtypes.h"
 579              		.file 6 "../../modules/ChibiOS/os/rt/include/chsystypes.h"
 580              		.file 7 "../../modules/ChibiOS/os/rt/include/chschd.h"
 581              		.file 8 "../../modules/ChibiOS/os/common/ext/CMSIS/ST/STM32F4xx/stm32f407xx.h"
 582              		.file 9 "../../modules/ChibiOS/os/common/ports/ARMCMx/chcore.h"
 583              		.file 10 "../../modules/ChibiOS/os/common/ports/ARMCMx/chcore_v7m.h"
 584              		.file 11 "../../modules/ChibiOS/os/rt/include/chtm.h"
 585              		.file 12 "../../modules/ChibiOS/os/rt/include/chstats.h"
 586              		.file 13 "../../modules/ChibiOS/os/rt/include/chsem.h"
 587              		.file 14 "../../modules/ChibiOS/os/rt/include/chmtx.h"
 588              		.file 15 "../../modules/ChibiOS/os/common/ext/CMSIS/include/core_cm4.h"