ARM GAS  /tmp/ccjFEXk2.s 			page 1


   1              		.syntax unified
   2              		.cpu cortex-m4
   3              		.eabi_attribute 27, 1
   4              		.eabi_attribute 28, 1
   5              		.fpu fpv4-sp-d16
   6              		.eabi_attribute 20, 1
   7              		.eabi_attribute 21, 1
   8              		.eabi_attribute 23, 3
   9              		.eabi_attribute 24, 1
  10              		.eabi_attribute 25, 1
  11              		.eabi_attribute 26, 1
  12              		.eabi_attribute 30, 4
  13              		.eabi_attribute 34, 1
  14              		.eabi_attribute 18, 4
  15              		.thumb
  16              		.file	"hal.c"
  17              		.text
  18              	.Ltext0:
  19              		.cfi_sections	.debug_frame
  20              		.section	.text.halInit,"ax",%progbits
  21              		.align	1
  22              		.global	halInit
  23              		.thumb
  24              		.thumb_func
  25              		.type	halInit, %function
  26              	halInit:
  27              	.LFB277:
  28              		.file 1 "../../modules/ChibiOS/os/hal/src/hal.c"
  29              		.loc 1 56 0
  30              		.cfi_startproc
  31              		@ args = 0, pretend = 0, frame = 0
  32              		@ frame_needed = 0, uses_anonymous_args = 0
  33 0000 08B5     		push	{r3, lr}
  34              		.cfi_def_cfa_offset 8
  35              		.cfi_offset 3, -8
  36              		.cfi_offset 14, -4
  37              		.loc 1 62 0
  38 0002 FFF7FEFF 		bl	hal_lld_init
  39              	.LVL0:
  40              		.loc 1 65 0
  41 0006 0E48     		ldr	r0, .L2
  42 0008 FFF7FEFF 		bl	_pal_lld_init
  43              	.LVL1:
  44              		.loc 1 68 0
  45 000c FFF7FEFF 		bl	adcInit
  46              	.LVL2:
  47              		.loc 1 77 0
  48 0010 FFF7FEFF 		bl	extInit
  49              	.LVL3:
  50              		.loc 1 83 0
  51 0014 FFF7FEFF 		bl	i2cInit
  52              	.LVL4:
  53              		.loc 1 89 0
  54 0018 FFF7FEFF 		bl	icuInit
  55              	.LVL5:
  56              		.loc 1 98 0
  57 001c FFF7FEFF 		bl	pwmInit
ARM GAS  /tmp/ccjFEXk2.s 			page 2


  58              	.LVL6:
  59              		.loc 1 104 0
  60 0020 FFF7FEFF 		bl	sdInit
  61              	.LVL7:
  62              		.loc 1 110 0
  63 0024 FFF7FEFF 		bl	spiInit
  64              	.LVL8:
  65              		.loc 1 116 0
  66 0028 FFF7FEFF 		bl	usbInit
  67              	.LVL9:
  68              		.loc 1 119 0
  69 002c FFF7FEFF 		bl	mmcInit
  70              	.LVL10:
  71              		.loc 1 122 0
  72 0030 FFF7FEFF 		bl	sduInit
  73              	.LVL11:
  74              		.loc 1 139 0
  75 0034 FFF7FEFF 		bl	boardInit
  76              	.LVL12:
  77              		.loc 1 148 0
  78 0038 BDE80840 		pop	{r3, lr}
  79              		.cfi_restore 14
  80              		.cfi_restore 3
  81              		.cfi_def_cfa_offset 0
  82              		.loc 1 146 0
  83 003c FFF7FEBF 		b	stInit
  84              	.LVL13:
  85              	.L3:
  86              		.align	2
  87              	.L2:
  88 0040 00000000 		.word	pal_default_config
  89              		.cfi_endproc
  90              	.LFE277:
  91              		.size	halInit, .-halInit
  92              		.text
  93              	.Letext0:
  94              		.file 2 "/usr/include/newlib/machine/_default_types.h"
  95              		.file 3 "/usr/include/newlib/sys/_stdint.h"
  96              		.file 4 "../../modules/ChibiOS/os/common/ports/ARMCMx/compilers/GCC/chtypes.h"
  97              		.file 5 "../../modules/ChibiOS/os/rt/include/chsystypes.h"
  98              		.file 6 "../../modules/ChibiOS/os/rt/include/chschd.h"
  99              		.file 7 "../../modules/ChibiOS/os/common/ports/ARMCMx/chcore.h"
 100              		.file 8 "../../modules/ChibiOS/os/common/ports/ARMCMx/chcore_v7m.h"
 101              		.file 9 "../../modules/ChibiOS/os/rt/include/chtm.h"
 102              		.file 10 "../../modules/ChibiOS/os/rt/include/chstats.h"
 103              		.file 11 "../../modules/ChibiOS/os/rt/include/chsem.h"
 104              		.file 12 "../../modules/ChibiOS/os/rt/include/chmtx.h"
 105              		.file 13 "../../modules/ChibiOS/os/hal/ports/STM32/LLD/GPIOv2/hal_pal_lld.h"
 106              		.file 14 "../../modules/ChibiOS/os/common/ext/CMSIS/include/core_cm4.h"
 107              		.file 15 "../../modules/ChibiOS/os/hal/ports/STM32/STM32F4xx/hal_lld.h"
 108              		.file 16 "../../modules/ChibiOS/os/hal/include/hal_adc.h"
 109              		.file 17 "../../modules/ChibiOS/os/hal/include/hal_ext.h"
 110              		.file 18 "../../modules/ChibiOS/os/hal/include/hal_i2c.h"
 111              		.file 19 "../../modules/ChibiOS/os/hal/include/hal_icu.h"
 112              		.file 20 "../../modules/ChibiOS/os/hal/include/hal_pwm.h"
 113              		.file 21 "../../modules/ChibiOS/os/hal/include/hal_serial.h"
 114              		.file 22 "../../modules/ChibiOS/os/hal/include/hal_spi.h"
ARM GAS  /tmp/ccjFEXk2.s 			page 3


 115              		.file 23 "../../modules/ChibiOS/os/hal/include/hal_usb.h"
 116              		.file 24 "../../modules/ChibiOS/os/hal/include/hal_mmc_spi.h"
 117              		.file 25 "../../modules/ChibiOS/os/hal/include/hal_serial_usb.h"
 118              		.file 26 "../../libraries/AP_HAL_ChibiOS/hwdef/common/board.h"
 119              		.file 27 "../../modules/ChibiOS/os/hal/include/hal_st.h"
 120              		.file 28 "../../modules/ChibiOS/os/hal/osal/rt/osal.h"