ARM GAS  /tmp/ccOKB5Xj.s 			page 1


   1              		.syntax unified
   2              		.cpu cortex-m4
   3              		.eabi_attribute 27, 1
   4              		.eabi_attribute 28, 1
   5              		.fpu fpv4-sp-d16
   6              		.eabi_attribute 20, 1
   7              		.eabi_attribute 21, 1
   8              		.eabi_attribute 23, 3
   9              		.eabi_attribute 24, 1
  10              		.eabi_attribute 25, 1
  11              		.eabi_attribute 26, 1
  12              		.eabi_attribute 30, 4
  13              		.eabi_attribute 34, 1
  14              		.eabi_attribute 18, 4
  15              		.thumb
  16              		.file	"hal_adc_lld.c"
  17              		.text
  18              	.Ltext0:
  19              		.cfi_sections	.debug_frame
  20              		.section	.text.adc_lld_init,"ax",%progbits
  21              		.align	1
  22              		.global	adc_lld_init
  23              		.thumb
  24              		.thumb_func
  25              		.type	adc_lld_init, %function
  26              	adc_lld_init:
  27              	.LFB279:
  28              		.file 1 "../../modules/ChibiOS/os/hal/ports/STM32/LLD/ADCv2/hal_adc_lld.c"
  29              		.loc 1 180 0
  30              		.cfi_startproc
  31              		@ args = 0, pretend = 0, frame = 0
  32              		@ frame_needed = 0, uses_anonymous_args = 0
  33 0000 10B5     		push	{r4, lr}
  34              		.cfi_def_cfa_offset 8
  35              		.cfi_offset 4, -8
  36              		.cfi_offset 14, -4
  37              		.loc 1 184 0
  38 0002 084C     		ldr	r4, .L2
  39 0004 2046     		mov	r0, r4
  40 0006 FFF7FEFF 		bl	adcObjectInit
  41              	.LVL0:
  42              		.loc 1 185 0
  43 000a 074B     		ldr	r3, .L2+4
  44 000c A362     		str	r3, [r4, #40]
  45              		.loc 1 186 0
  46 000e 074B     		ldr	r3, .L2+8
  47 0010 E362     		str	r3, [r4, #44]
  48              		.loc 1 187 0
  49 0012 074B     		ldr	r3, .L2+12
  50 0014 2363     		str	r3, [r4, #48]
  51              		.loc 1 223 0
  52 0016 1220     		movs	r0, #18
  53 0018 0621     		movs	r1, #6
  54              		.loc 1 224 0
  55 001a BDE81040 		pop	{r4, lr}
  56              		.cfi_restore 14
  57              		.cfi_restore 4
ARM GAS  /tmp/ccOKB5Xj.s 			page 2


  58              		.cfi_def_cfa_offset 0
  59              		.loc 1 223 0
  60 001e FFF7FEBF 		b	nvicEnableVector
  61              	.LVL1:
  62              	.L3:
  63 0022 00BF     		.align	2
  64              	.L2:
  65 0024 00000000 		.word	.LANCHOR0
  66 0028 00200140 		.word	1073815552
  67 002c 90000000 		.word	_stm32_dma_streams+144
  68 0030 162C0200 		.word	142358
  69              		.cfi_endproc
  70              	.LFE279:
  71              		.size	adc_lld_init, .-adc_lld_init
  72              		.section	.text.adc_lld_start,"ax",%progbits
  73              		.align	1
  74              		.global	adc_lld_start
  75              		.thumb
  76              		.thumb_func
  77              		.type	adc_lld_start, %function
  78              	adc_lld_start:
  79              	.LFB280:
  80              		.loc 1 233 0
  81              		.cfi_startproc
  82              		@ args = 0, pretend = 0, frame = 0
  83              		@ frame_needed = 0, uses_anonymous_args = 0
  84              	.LVL2:
  85              		.loc 1 236 0
  86 0000 0378     		ldrb	r3, [r0]	@ zero_extendqisi2
  87 0002 012B     		cmp	r3, #1
  88              		.loc 1 233 0
  89 0004 10B5     		push	{r4, lr}
  90              		.cfi_def_cfa_offset 8
  91              		.cfi_offset 4, -8
  92              		.cfi_offset 14, -4
  93              		.loc 1 233 0
  94 0006 0446     		mov	r4, r0
  95              		.loc 1 236 0
  96 0008 1ED1     		bne	.L4
  97              		.loc 1 238 0
  98 000a 104B     		ldr	r3, .L8
  99 000c 9842     		cmp	r0, r3
 100 000e 0ED1     		bne	.L6
 101              	.LBB43:
 102              		.loc 1 240 0
 103 0010 0F4A     		ldr	r2, .L8+4
 104 0012 C06A     		ldr	r0, [r0, #44]
 105              	.LVL3:
 106 0014 2346     		mov	r3, r4
 107 0016 0621     		movs	r1, #6
 108 0018 FFF7FEFF 		bl	dmaStreamAllocate
 109              	.LVL4:
 110              		.loc 1 245 0
 111 001c E36A     		ldr	r3, [r4, #44]
 112 001e 0D4A     		ldr	r2, .L8+8
 113 0020 1B68     		ldr	r3, [r3]
 114 0022 9A60     		str	r2, [r3, #8]
ARM GAS  /tmp/ccOKB5Xj.s 			page 3


 115              		.loc 1 246 0
 116 0024 0C4A     		ldr	r2, .L8+12
 117 0026 536C     		ldr	r3, [r2, #68]
 118 0028 43F48073 		orr	r3, r3, #256
 119 002c 5364     		str	r3, [r2, #68]
 120              	.L6:
 121              	.LBE43:
 122              		.loc 1 278 0
 123 002e 0B4A     		ldr	r2, .L8+16
 124 0030 5368     		ldr	r3, [r2, #4]
 125 0032 03F44003 		and	r3, r3, #12582912
 126 0036 43F48033 		orr	r3, r3, #65536
 127 003a 5360     		str	r3, [r2, #4]
 128              		.loc 1 283 0
 129 003c A36A     		ldr	r3, [r4, #40]
 130 003e 0022     		movs	r2, #0
 131 0040 5A60     		str	r2, [r3, #4]
 132              		.loc 1 284 0
 133 0042 9A60     		str	r2, [r3, #8]
 134              		.loc 1 285 0
 135 0044 0122     		movs	r2, #1
 136 0046 9A60     		str	r2, [r3, #8]
 137              	.L4:
 138 0048 10BD     		pop	{r4, pc}
 139              	.LVL5:
 140              	.L9:
 141 004a 00BF     		.align	2
 142              	.L8:
 143 004c 00000000 		.word	.LANCHOR0
 144 0050 00000000 		.word	adc_lld_serve_rx_interrupt
 145 0054 4C200140 		.word	1073815628
 146 0058 00380240 		.word	1073887232
 147 005c 00230140 		.word	1073816320
 148              		.cfi_endproc
 149              	.LFE280:
 150              		.size	adc_lld_start, .-adc_lld_start
 151              		.section	.text.adc_lld_stop,"ax",%progbits
 152              		.align	1
 153              		.global	adc_lld_stop
 154              		.thumb
 155              		.thumb_func
 156              		.type	adc_lld_stop, %function
 157              	adc_lld_stop:
 158              	.LFB281:
 159              		.loc 1 296 0
 160              		.cfi_startproc
 161              		@ args = 0, pretend = 0, frame = 0
 162              		@ frame_needed = 0, uses_anonymous_args = 0
 163              	.LVL6:
 164              		.loc 1 299 0
 165 0000 0378     		ldrb	r3, [r0]	@ zero_extendqisi2
 166 0002 022B     		cmp	r3, #2
 167              		.loc 1 296 0
 168 0004 10B5     		push	{r4, lr}
 169              		.cfi_def_cfa_offset 8
 170              		.cfi_offset 4, -8
 171              		.cfi_offset 14, -4
ARM GAS  /tmp/ccOKB5Xj.s 			page 4


 172              		.loc 1 296 0
 173 0006 0446     		mov	r4, r0
 174              		.loc 1 299 0
 175 0008 0ED1     		bne	.L10
 176              		.loc 1 300 0
 177 000a C06A     		ldr	r0, [r0, #44]
 178              	.LVL7:
 179 000c FFF7FEFF 		bl	dmaStreamRelease
 180              	.LVL8:
 181              		.loc 1 301 0
 182 0010 A36A     		ldr	r3, [r4, #40]
 183 0012 0022     		movs	r2, #0
 184 0014 5A60     		str	r2, [r3, #4]
 185              		.loc 1 302 0
 186 0016 9A60     		str	r2, [r3, #8]
 187              		.loc 1 305 0
 188 0018 044B     		ldr	r3, .L14
 189 001a 9C42     		cmp	r4, r3
 190              		.loc 1 306 0
 191 001c 01BF     		itttt	eq
 192 001e 044A     		ldreq	r2, .L14+4
 193 0020 536C     		ldreq	r3, [r2, #68]
 194 0022 23F48073 		biceq	r3, r3, #256
 195 0026 5364     		streq	r3, [r2, #68]
 196              	.L10:
 197 0028 10BD     		pop	{r4, pc}
 198              	.LVL9:
 199              	.L15:
 200 002a 00BF     		.align	2
 201              	.L14:
 202 002c 00000000 		.word	.LANCHOR0
 203 0030 00380240 		.word	1073887232
 204              		.cfi_endproc
 205              	.LFE281:
 206              		.size	adc_lld_stop, .-adc_lld_stop
 207              		.section	.text.adc_lld_start_conversion,"ax",%progbits
 208              		.align	1
 209              		.global	adc_lld_start_conversion
 210              		.thumb
 211              		.thumb_func
 212              		.type	adc_lld_start_conversion, %function
 213              	adc_lld_start_conversion:
 214              	.LFB282:
 215              		.loc 1 328 0
 216              		.cfi_startproc
 217              		@ args = 0, pretend = 0, frame = 0
 218              		@ frame_needed = 0, uses_anonymous_args = 0
 219              	.LVL10:
 220              		.loc 1 331 0
 221 0000 0369     		ldr	r3, [r0, #16]
 222              	.LVL11:
 223              		.loc 1 334 0
 224 0002 016B     		ldr	r1, [r0, #48]
 225              	.LVL12:
 226              		.loc 1 335 0
 227 0004 1A78     		ldrb	r2, [r3]	@ zero_extendqisi2
 228              		.loc 1 328 0
ARM GAS  /tmp/ccOKB5Xj.s 			page 5


 229 0006 30B5     		push	{r4, r5, lr}
 230              		.cfi_def_cfa_offset 12
 231              		.cfi_offset 4, -12
 232              		.cfi_offset 5, -8
 233              		.cfi_offset 14, -4
 234 0008 C568     		ldr	r5, [r0, #12]
 235              		.loc 1 335 0
 236 000a 2AB1     		cbz	r2, .L17
 237              	.LVL13:
 238              		.loc 1 337 0
 239 000c 012D     		cmp	r5, #1
 240              		.loc 1 336 0
 241 000e 94BF     		ite	ls
 242 0010 41F48071 		orrls	r1, r1, #256
 243              	.LVL14:
 244              		.loc 1 340 0
 245 0014 41F48471 		orrhi	r1, r1, #264
 246              	.LVL15:
 247              	.L17:
 248              		.loc 1 343 0
 249 0018 C26A     		ldr	r2, [r0, #44]
 250 001a 8468     		ldr	r4, [r0, #8]
 251 001c 1268     		ldr	r2, [r2]
 252 001e D460     		str	r4, [r2, #12]
 253              		.loc 1 344 0
 254 0020 5C88     		ldrh	r4, [r3, #2]
 255 0022 6543     		muls	r5, r4, r5
 256 0024 5560     		str	r5, [r2, #4]
 257              		.loc 1 346 0
 258 0026 1160     		str	r1, [r2]
 259              		.loc 1 347 0
 260 0028 1168     		ldr	r1, [r2]
 261              	.LVL16:
 262 002a 41F00101 		orr	r1, r1, #1
 263 002e 1160     		str	r1, [r2]
 264              	.LVL17:
 265              		.loc 1 350 0
 266 0030 826A     		ldr	r2, [r0, #40]
 267 0032 0021     		movs	r1, #0
 268 0034 1160     		str	r1, [r2]
 269              		.loc 1 351 0
 270 0036 5969     		ldr	r1, [r3, #20]
 271 0038 D160     		str	r1, [r2, #12]
 272              		.loc 1 352 0
 273 003a 9969     		ldr	r1, [r3, #24]
 274 003c 1161     		str	r1, [r2, #16]
 275              		.loc 1 353 0
 276 003e D969     		ldr	r1, [r3, #28]
 277 0040 013C     		subs	r4, r4, #1
 278 0042 41EA0454 		orr	r4, r1, r4, lsl #20
 279              		.loc 1 354 0
 280 0046 196A     		ldr	r1, [r3, #32]
 281              		.loc 1 353 0
 282 0048 D462     		str	r4, [r2, #44]
 283              		.loc 1 354 0
 284 004a 1163     		str	r1, [r2, #48]
 285              		.loc 1 355 0
ARM GAS  /tmp/ccOKB5Xj.s 			page 6


 286 004c 596A     		ldr	r1, [r3, #36]
 287 004e 5163     		str	r1, [r2, #52]
 288              		.loc 1 358 0
 289 0050 D968     		ldr	r1, [r3, #12]
 290              		.loc 1 361 0
 291 0052 1B69     		ldr	r3, [r3, #16]
 292              	.LVL18:
 293              		.loc 1 358 0
 294 0054 41F08061 		orr	r1, r1, #67108864
 295 0058 41F48071 		orr	r1, r1, #256
 296 005c 5160     		str	r1, [r2, #4]
 297              		.loc 1 365 0
 298 005e 5900     		lsls	r1, r3, #1
 299              		.loc 1 367 0
 300 0060 41BF     		itttt	mi
 301 0062 23F08041 		bicmi	r1, r3, #1073741824
 302 0066 21F00201 		bicmi	r1, r1, #2
 303 006a 41F44071 		orrmi	r1, r1, #768
 304              		.loc 1 370 0
 305 006e 43F44073 		orrmi	r3, r3, #768
 306              	.LVL19:
 307              		.loc 1 361 0
 308 0072 53BF     		iteet	pl
 309 0074 43F44073 		orrpl	r3, r3, #768
 310              		.loc 1 367 0
 311 0078 41F00301 		orrmi	r1, r1, #3
 312              		.loc 1 370 0
 313 007c 43F00303 		orrmi	r3, r3, #3
 314              		.loc 1 361 0
 315 0080 43F00103 		orrpl	r3, r3, #1
 316              		.loc 1 367 0
 317 0084 48BF     		it	mi
 318 0086 9160     		strmi	r1, [r2, #8]
 319              		.loc 1 373 0
 320 0088 9360     		str	r3, [r2, #8]
 321              	.LVL20:
 322 008a 30BD     		pop	{r4, r5, pc}
 323              		.cfi_endproc
 324              	.LFE282:
 325              		.size	adc_lld_start_conversion, .-adc_lld_start_conversion
 326              		.section	.text.adc_lld_stop_conversion,"ax",%progbits
 327              		.align	1
 328              		.global	adc_lld_stop_conversion
 329              		.thumb
 330              		.thumb_func
 331              		.type	adc_lld_stop_conversion, %function
 332              	adc_lld_stop_conversion:
 333              	.LFB283:
 334              		.loc 1 383 0
 335              		.cfi_startproc
 336              		@ args = 0, pretend = 0, frame = 0
 337              		@ frame_needed = 0, uses_anonymous_args = 0
 338              	.LVL21:
 339              		.loc 1 385 0
 340 0000 C26A     		ldr	r2, [r0, #44]
 341 0002 1168     		ldr	r1, [r2]
 342 0004 0B68     		ldr	r3, [r1]
ARM GAS  /tmp/ccOKB5Xj.s 			page 7


 343 0006 23F01F03 		bic	r3, r3, #31
 344              		.loc 1 383 0
 345 000a 10B5     		push	{r4, lr}
 346              		.cfi_def_cfa_offset 8
 347              		.cfi_offset 4, -8
 348              		.cfi_offset 14, -4
 349              		.loc 1 385 0
 350 000c 0B60     		str	r3, [r1]
 351              	.L26:
 352              		.loc 1 385 0 is_stmt 0 discriminator 2
 353 000e 0B68     		ldr	r3, [r1]
 354 0010 13F00103 		ands	r3, r3, #1
 355 0014 FBD1     		bne	.L26
 356              		.loc 1 385 0 discriminator 3
 357 0016 147A     		ldrb	r4, [r2, #8]	@ zero_extendqisi2
 358 0018 5168     		ldr	r1, [r2, #4]
 359 001a 3D22     		movs	r2, #61
 360 001c A240     		lsls	r2, r2, r4
 361 001e 0A60     		str	r2, [r1]
 362              		.loc 1 386 0 is_stmt 1 discriminator 3
 363 0020 826A     		ldr	r2, [r0, #40]
 364 0022 5360     		str	r3, [r2, #4]
 365              		.loc 1 387 0 discriminator 3
 366 0024 9360     		str	r3, [r2, #8]
 367              		.loc 1 388 0 discriminator 3
 368 0026 0123     		movs	r3, #1
 369 0028 9360     		str	r3, [r2, #8]
 370 002a 10BD     		pop	{r4, pc}
 371              		.cfi_endproc
 372              	.LFE283:
 373              		.size	adc_lld_stop_conversion, .-adc_lld_stop_conversion
 374              		.section	.text.Vector88,"ax",%progbits
 375              		.align	1
 376              		.global	Vector88
 377              		.thumb
 378              		.thumb_func
 379              		.type	Vector88, %function
 380              	Vector88:
 381              	.LFB278:
 382              		.loc 1 111 0
 383              		.cfi_startproc
 384              		@ args = 0, pretend = 0, frame = 0
 385              		@ frame_needed = 0, uses_anonymous_args = 0
 386 0000 38B5     		push	{r3, r4, r5, lr}
 387              		.cfi_def_cfa_offset 16
 388              		.cfi_offset 3, -16
 389              		.cfi_offset 4, -12
 390              		.cfi_offset 5, -8
 391              		.cfi_offset 14, -4
 392              		.loc 1 114 0
 393 0002 FFF7FEFF 		bl	_stats_increase_irq
 394              	.LVL22:
 395              		.loc 1 117 0
 396 0006 1B4B     		ldr	r3, .L42
 397 0008 1A68     		ldr	r2, [r3]
 398              	.LVL23:
 399              		.loc 1 118 0
ARM GAS  /tmp/ccOKB5Xj.s 			page 8


 400 000a 0021     		movs	r1, #0
 401 000c 1960     		str	r1, [r3]
 402              		.loc 1 121 0
 403 000e 9306     		lsls	r3, r2, #26
 404 0010 2BD5     		bpl	.L29
 405              		.loc 1 121 0 is_stmt 0 discriminator 1
 406 0012 194D     		ldr	r5, .L42+4
 407 0014 EB6A     		ldr	r3, [r5, #44]
 408 0016 1B68     		ldr	r3, [r3]
 409 0018 5B68     		ldr	r3, [r3, #4]
 410 001a 33B3     		cbz	r3, .L29
 411              		.loc 1 124 0 is_stmt 1
 412 001c 2B69     		ldr	r3, [r5, #16]
 413 001e 23B3     		cbz	r3, .L29
 414              		.loc 1 125 0
 415 0020 2846     		mov	r0, r5
 416 0022 FFF7FEFF 		bl	adc_lld_stop_conversion
 417              	.LVL24:
 418 0026 2B69     		ldr	r3, [r5, #16]
 419 0028 9B68     		ldr	r3, [r3, #8]
 420 002a 63B1     		cbz	r3, .L30
 421              		.loc 1 125 0 is_stmt 0 discriminator 1
 422 002c 0522     		movs	r2, #5
 423 002e 2A70     		strb	r2, [r5]
 424 0030 2846     		mov	r0, r5
 425 0032 0121     		movs	r1, #1
 426 0034 9847     		blx	r3
 427              	.LVL25:
 428 0036 2B78     		ldrb	r3, [r5]	@ zero_extendqisi2
 429 0038 052B     		cmp	r3, #5
 430 003a 04BF     		itt	eq
 431 003c 0223     		moveq	r3, #2
 432 003e 2B70     		strbeq	r3, [r5]
 433 0040 0023     		movs	r3, #0
 434 0042 2B61     		str	r3, [r5, #16]
 435 0044 02E0     		b	.L32
 436              	.L30:
 437              		.loc 1 125 0 discriminator 2
 438 0046 0222     		movs	r2, #2
 439 0048 2A70     		strb	r2, [r5]
 440 004a 2B61     		str	r3, [r5, #16]
 441              	.L32:
 442              	.LVL26:
 443              	.LBB62:
 444              	.LBB63:
 445              	.LBB64:
 446              	.LBB65:
 447              	.LBB66:
 448              	.LBB67:
 449              	.LBB68:
 450              		.file 2 "../../modules/ChibiOS/os/common/ext/CMSIS/include/cmsis_gcc.h"
 451              		.loc 2 264 0 is_stmt 1 discriminator 7
 452 004c 2023     		movs	r3, #32
 453              	@ 264 "../../modules/ChibiOS/os/common/ext/CMSIS/include/cmsis_gcc.h" 1
 454 004e 83F31188 		MSR basepri, r3
 455              	@ 0 "" 2
 456              		.thumb
ARM GAS  /tmp/ccOKB5Xj.s 			page 9


 457              	.LBE68:
 458              	.LBE67:
 459              	.LBE66:
 460              	.LBE65:
 461              		.file 3 "../../modules/ChibiOS/os/rt/include/chsys.h"
 462              		.loc 3 417 0 discriminator 7
 463 0052 FFF7FEFF 		bl	_stats_start_measure_crit_isr
 464              	.LVL27:
 465              	.LBE64:
 466              	.LBE63:
 467              	.LBE62:
 468              	.LBB69:
 469              	.LBB70:
 470              		.file 4 "../../modules/ChibiOS/os/hal/osal/rt/osal.h"
 471              		.loc 4 728 0 discriminator 7
 472 0056 0948     		ldr	r0, .L42+8
 473 0058 4FF0FF31 		mov	r1, #-1
 474 005c FFF7FEFF 		bl	chThdResumeI
 475              	.LVL28:
 476              	.LBE70:
 477              	.LBE69:
 478              	.LBB71:
 479              	.LBB72:
 480              	.LBB73:
 481              		.loc 3 437 0 discriminator 7
 482 0060 FFF7FEFF 		bl	_stats_stop_measure_crit_isr
 483              	.LVL29:
 484              	.LBB74:
 485              	.LBB75:
 486              	.LBB76:
 487              	.LBB77:
 488              		.loc 2 264 0 discriminator 7
 489 0064 0023     		movs	r3, #0
 490              	@ 264 "../../modules/ChibiOS/os/common/ext/CMSIS/include/cmsis_gcc.h" 1
 491 0066 83F31188 		MSR basepri, r3
 492              	@ 0 "" 2
 493              	.LVL30:
 494              		.thumb
 495              	.L29:
 496              	.LBE77:
 497              	.LBE76:
 498              	.LBE75:
 499              	.LBE74:
 500              	.LBE73:
 501              	.LBE72:
 502              	.LBE71:
 503              		.loc 1 168 0
 504 006a BDE83840 		pop	{r3, r4, r5, lr}
 505              		.cfi_restore 14
 506              		.cfi_restore 5
 507              		.cfi_restore 4
 508              		.cfi_restore 3
 509              		.cfi_def_cfa_offset 0
 510              		.loc 1 167 0
 511 006e FFF7FEBF 		b	_port_irq_epilogue
 512              	.LVL31:
 513              	.L43:
ARM GAS  /tmp/ccOKB5Xj.s 			page 10


 514 0072 00BF     		.align	2
 515              	.L42:
 516 0074 00200140 		.word	1073815552
 517 0078 00000000 		.word	.LANCHOR0
 518 007c 14000000 		.word	.LANCHOR0+20
 519              		.cfi_endproc
 520              	.LFE278:
 521              		.size	Vector88, .-Vector88
 522              		.section	.text.adc_lld_serve_rx_interrupt,"ax",%progbits
 523              		.align	1
 524              		.thumb
 525              		.thumb_func
 526              		.type	adc_lld_serve_rx_interrupt, %function
 527              	adc_lld_serve_rx_interrupt:
 528              	.LFB277:
 529              		.loc 1 75 0
 530              		.cfi_startproc
 531              		@ args = 0, pretend = 0, frame = 0
 532              		@ frame_needed = 0, uses_anonymous_args = 0
 533              	.LVL32:
 534              		.loc 1 78 0
 535 0000 11F00C0F 		tst	r1, #12
 536              		.loc 1 75 0
 537 0004 70B5     		push	{r4, r5, r6, lr}
 538              		.cfi_def_cfa_offset 16
 539              		.cfi_offset 4, -16
 540              		.cfi_offset 5, -12
 541              		.cfi_offset 6, -8
 542              		.cfi_offset 14, -4
 543              		.loc 1 75 0
 544 0006 0446     		mov	r4, r0
 545              		.loc 1 78 0
 546 0008 1DD0     		beq	.L45
 547              		.loc 1 81 0
 548 000a FFF7FEFF 		bl	adc_lld_stop_conversion
 549              	.LVL33:
 550 000e 2369     		ldr	r3, [r4, #16]
 551 0010 9B68     		ldr	r3, [r3, #8]
 552 0012 5BB1     		cbz	r3, .L46
 553              		.loc 1 81 0 is_stmt 0 discriminator 1
 554 0014 0522     		movs	r2, #5
 555 0016 2270     		strb	r2, [r4]
 556 0018 2046     		mov	r0, r4
 557 001a 0021     		movs	r1, #0
 558 001c 9847     		blx	r3
 559              	.LVL34:
 560 001e 2378     		ldrb	r3, [r4]	@ zero_extendqisi2
 561 0020 052B     		cmp	r3, #5
 562 0022 04BF     		itt	eq
 563 0024 0223     		moveq	r3, #2
 564 0026 2370     		strbeq	r3, [r4]
 565 0028 0023     		movs	r3, #0
 566 002a 01E0     		b	.L70
 567              	.L46:
 568              		.loc 1 81 0 discriminator 2
 569 002c 0222     		movs	r2, #2
 570 002e 2270     		strb	r2, [r4]
ARM GAS  /tmp/ccOKB5Xj.s 			page 11


 571              	.L70:
 572 0030 2361     		str	r3, [r4, #16]
 573              	.LVL35:
 574              	.LBB115:
 575              	.LBB116:
 576              	.LBB117:
 577              	.LBB118:
 578              	.LBB119:
 579              	.LBB120:
 580              	.LBB121:
 581              		.loc 2 264 0 is_stmt 1 discriminator 2
 582 0032 2023     		movs	r3, #32
 583              	@ 264 "../../modules/ChibiOS/os/common/ext/CMSIS/include/cmsis_gcc.h" 1
 584 0034 83F31188 		MSR basepri, r3
 585              	@ 0 "" 2
 586              		.thumb
 587              	.LBE121:
 588              	.LBE120:
 589              	.LBE119:
 590              	.LBE118:
 591              		.loc 3 417 0 discriminator 2
 592 0038 FFF7FEFF 		bl	_stats_start_measure_crit_isr
 593              	.LVL36:
 594              	.LBE117:
 595              	.LBE116:
 596              	.LBE115:
 597              	.LBB122:
 598              	.LBB123:
 599              		.loc 4 728 0 discriminator 2
 600 003c 04F11400 		add	r0, r4, #20
 601              	.LVL37:
 602 0040 4FF0FF31 		mov	r1, #-1
 603 0044 30E0     		b	.L72
 604              	.LVL38:
 605              	.L45:
 606              	.LBE123:
 607              	.LBE122:
 608              		.loc 1 86 0
 609 0046 0369     		ldr	r3, [r0, #16]
 610 0048 002B     		cmp	r3, #0
 611 004a 3FD0     		beq	.L44
 612              		.loc 1 88 0
 613 004c 8D06     		lsls	r5, r1, #26
 614 004e 33D5     		bpl	.L50
 615              		.loc 1 90 0
 616 0050 1A78     		ldrb	r2, [r3]	@ zero_extendqisi2
 617 0052 7AB1     		cbz	r2, .L51
 618              		.loc 1 90 0 is_stmt 0 discriminator 1
 619 0054 5D68     		ldr	r5, [r3, #4]
 620 0056 002D     		cmp	r5, #0
 621 0058 38D0     		beq	.L44
 622              		.loc 1 90 0 discriminator 3
 623 005a C268     		ldr	r2, [r0, #12]
 624 005c 012A     		cmp	r2, #1
 625              	.LBB124:
 626 005e 85BF     		ittet	hi
 627 0060 5B88     		ldrhhi	r3, [r3, #2]
ARM GAS  /tmp/ccOKB5Xj.s 			page 12


 628 0062 8168     		ldrhi	r1, [r0, #8]
 629              	.LVL39:
 630              	.LBE124:
 631 0064 8168     		ldrls	r1, [r0, #8]
 632              	.LBB125:
 633 0066 5208     		lsrhi	r2, r2, #1
 634              	.LVL40:
 635 0068 84BF     		itt	hi
 636 006a 5343     		mulhi	r3, r3, r2
 637 006c 01EB4301 		addhi	r1, r1, r3, lsl #1
 638              	.LBE125:
 639 0070 2B46     		mov	r3, r5
 640 0072 28E0     		b	.L71
 641              	.LVL41:
 642              	.L51:
 643              		.loc 1 90 0 discriminator 2
 644 0074 FFF7FEFF 		bl	adc_lld_stop_conversion
 645              	.LVL42:
 646 0078 2369     		ldr	r3, [r4, #16]
 647 007a 5B68     		ldr	r3, [r3, #4]
 648 007c 43B1     		cbz	r3, .L53
 649              		.loc 1 90 0 discriminator 6
 650 007e 0422     		movs	r2, #4
 651 0080 2270     		strb	r2, [r4]
 652 0082 2046     		mov	r0, r4
 653 0084 A168     		ldr	r1, [r4, #8]
 654 0086 E268     		ldr	r2, [r4, #12]
 655 0088 9847     		blx	r3
 656              	.LVL43:
 657 008a 2378     		ldrb	r3, [r4]	@ zero_extendqisi2
 658 008c 042B     		cmp	r3, #4
 659 008e 03D1     		bne	.L54
 660              	.L53:
 661              		.loc 1 90 0 discriminator 8
 662 0090 0223     		movs	r3, #2
 663 0092 2370     		strb	r3, [r4]
 664 0094 0023     		movs	r3, #0
 665 0096 2361     		str	r3, [r4, #16]
 666              	.L54:
 667              	.LVL44:
 668              	.LBB126:
 669              	.LBB127:
 670              	.LBB128:
 671              	.LBB129:
 672              	.LBB130:
 673              	.LBB131:
 674              	.LBB132:
 675              		.loc 2 264 0 is_stmt 1 discriminator 9
 676 0098 2023     		movs	r3, #32
 677              	@ 264 "../../modules/ChibiOS/os/common/ext/CMSIS/include/cmsis_gcc.h" 1
 678 009a 83F31188 		MSR basepri, r3
 679              	@ 0 "" 2
 680              		.thumb
 681              	.LBE132:
 682              	.LBE131:
 683              	.LBE130:
 684              	.LBE129:
ARM GAS  /tmp/ccOKB5Xj.s 			page 13


 685              		.loc 3 417 0 discriminator 9
 686 009e FFF7FEFF 		bl	_stats_start_measure_crit_isr
 687              	.LVL45:
 688              	.LBE128:
 689              	.LBE127:
 690              	.LBE126:
 691              	.LBB133:
 692              	.LBB134:
 693              		.loc 4 728 0 discriminator 9
 694 00a2 04F11400 		add	r0, r4, #20
 695              	.LVL46:
 696 00a6 0021     		movs	r1, #0
 697              	.LVL47:
 698              	.L72:
 699 00a8 FFF7FEFF 		bl	chThdResumeI
 700              	.LVL48:
 701              	.LBE134:
 702              	.LBE133:
 703              	.LBB135:
 704              	.LBB136:
 705              	.LBB137:
 706              		.loc 3 437 0 discriminator 9
 707 00ac FFF7FEFF 		bl	_stats_stop_measure_crit_isr
 708              	.LVL49:
 709              	.LBB138:
 710              	.LBB139:
 711              	.LBB140:
 712              	.LBB141:
 713              		.loc 2 264 0 discriminator 9
 714 00b0 0023     		movs	r3, #0
 715              	@ 264 "../../modules/ChibiOS/os/common/ext/CMSIS/include/cmsis_gcc.h" 1
 716 00b2 83F31188 		MSR basepri, r3
 717              	@ 0 "" 2
 718              		.thumb
 719 00b6 70BD     		pop	{r4, r5, r6, pc}
 720              	.LVL50:
 721              	.L50:
 722              	.LBE141:
 723              	.LBE140:
 724              	.LBE139:
 725              	.LBE138:
 726              	.LBE137:
 727              	.LBE136:
 728              	.LBE135:
 729              		.loc 1 92 0
 730 00b8 CA06     		lsls	r2, r1, #27
 731 00ba 07D5     		bpl	.L44
 732              		.loc 1 94 0
 733 00bc 5B68     		ldr	r3, [r3, #4]
 734 00be 2BB1     		cbz	r3, .L44
 735              		.loc 1 94 0 is_stmt 0 discriminator 1
 736 00c0 C268     		ldr	r2, [r0, #12]
 737 00c2 8168     		ldr	r1, [r0, #8]
 738              	.LVL51:
 739 00c4 5208     		lsrs	r2, r2, #1
 740              	.L71:
 741              		.loc 1 98 0 is_stmt 1 discriminator 1
ARM GAS  /tmp/ccOKB5Xj.s 			page 14


 742 00c6 BDE87040 		pop	{r4, r5, r6, lr}
 743              		.cfi_remember_state
 744              		.cfi_restore 14
 745              		.cfi_restore 6
 746              		.cfi_restore 5
 747              		.cfi_restore 4
 748              		.cfi_def_cfa_offset 0
 749              		.loc 1 94 0 discriminator 1
 750 00ca 1847     		bx	r3	@ indirect register sibling call
 751              	.LVL52:
 752              	.L44:
 753              		.cfi_restore_state
 754 00cc 70BD     		pop	{r4, r5, r6, pc}
 755              		.cfi_endproc
 756              	.LFE277:
 757              		.size	adc_lld_serve_rx_interrupt, .-adc_lld_serve_rx_interrupt
 758              		.section	.text.adcSTM32EnableTSVREFE,"ax",%progbits
 759              		.align	1
 760              		.global	adcSTM32EnableTSVREFE
 761              		.thumb
 762              		.thumb_func
 763              		.type	adcSTM32EnableTSVREFE, %function
 764              	adcSTM32EnableTSVREFE:
 765              	.LFB284:
 766              		.loc 1 397 0
 767              		.cfi_startproc
 768              		@ args = 0, pretend = 0, frame = 0
 769              		@ frame_needed = 0, uses_anonymous_args = 0
 770              		@ link register save eliminated.
 771              		.loc 1 399 0
 772 0000 024A     		ldr	r2, .L75
 773 0002 5368     		ldr	r3, [r2, #4]
 774 0004 43F40003 		orr	r3, r3, #8388608
 775 0008 5360     		str	r3, [r2, #4]
 776 000a 7047     		bx	lr
 777              	.L76:
 778              		.align	2
 779              	.L75:
 780 000c 00230140 		.word	1073816320
 781              		.cfi_endproc
 782              	.LFE284:
 783              		.size	adcSTM32EnableTSVREFE, .-adcSTM32EnableTSVREFE
 784              		.section	.text.adcSTM32DisableTSVREFE,"ax",%progbits
 785              		.align	1
 786              		.global	adcSTM32DisableTSVREFE
 787              		.thumb
 788              		.thumb_func
 789              		.type	adcSTM32DisableTSVREFE, %function
 790              	adcSTM32DisableTSVREFE:
 791              	.LFB285:
 792              		.loc 1 408 0
 793              		.cfi_startproc
 794              		@ args = 0, pretend = 0, frame = 0
 795              		@ frame_needed = 0, uses_anonymous_args = 0
 796              		@ link register save eliminated.
 797              		.loc 1 410 0
 798 0000 024A     		ldr	r2, .L78
ARM GAS  /tmp/ccOKB5Xj.s 			page 15


 799 0002 5368     		ldr	r3, [r2, #4]
 800 0004 23F40003 		bic	r3, r3, #8388608
 801 0008 5360     		str	r3, [r2, #4]
 802 000a 7047     		bx	lr
 803              	.L79:
 804              		.align	2
 805              	.L78:
 806 000c 00230140 		.word	1073816320
 807              		.cfi_endproc
 808              	.LFE285:
 809              		.size	adcSTM32DisableTSVREFE, .-adcSTM32DisableTSVREFE
 810              		.section	.text.adcSTM32EnableVBATE,"ax",%progbits
 811              		.align	1
 812              		.global	adcSTM32EnableVBATE
 813              		.thumb
 814              		.thumb_func
 815              		.type	adcSTM32EnableVBATE, %function
 816              	adcSTM32EnableVBATE:
 817              	.LFB286:
 818              		.loc 1 419 0
 819              		.cfi_startproc
 820              		@ args = 0, pretend = 0, frame = 0
 821              		@ frame_needed = 0, uses_anonymous_args = 0
 822              		@ link register save eliminated.
 823              		.loc 1 421 0
 824 0000 024A     		ldr	r2, .L81
 825 0002 5368     		ldr	r3, [r2, #4]
 826 0004 43F48003 		orr	r3, r3, #4194304
 827 0008 5360     		str	r3, [r2, #4]
 828 000a 7047     		bx	lr
 829              	.L82:
 830              		.align	2
 831              	.L81:
 832 000c 00230140 		.word	1073816320
 833              		.cfi_endproc
 834              	.LFE286:
 835              		.size	adcSTM32EnableVBATE, .-adcSTM32EnableVBATE
 836              		.section	.text.adcSTM32DisableVBATE,"ax",%progbits
 837              		.align	1
 838              		.global	adcSTM32DisableVBATE
 839              		.thumb
 840              		.thumb_func
 841              		.type	adcSTM32DisableVBATE, %function
 842              	adcSTM32DisableVBATE:
 843              	.LFB287:
 844              		.loc 1 430 0
 845              		.cfi_startproc
 846              		@ args = 0, pretend = 0, frame = 0
 847              		@ frame_needed = 0, uses_anonymous_args = 0
 848              		@ link register save eliminated.
 849              		.loc 1 432 0
 850 0000 024A     		ldr	r2, .L84
 851 0002 5368     		ldr	r3, [r2, #4]
 852 0004 23F48003 		bic	r3, r3, #4194304
 853 0008 5360     		str	r3, [r2, #4]
 854 000a 7047     		bx	lr
 855              	.L85:
ARM GAS  /tmp/ccOKB5Xj.s 			page 16


 856              		.align	2
 857              	.L84:
 858 000c 00230140 		.word	1073816320
 859              		.cfi_endproc
 860              	.LFE287:
 861              		.size	adcSTM32DisableVBATE, .-adcSTM32DisableVBATE
 862              		.global	ADCD1
 863              		.section	.bss.ADCD1,"aw",%nobits
 864              		.align	2
 865              		.set	.LANCHOR0,. + 0
 866              		.type	ADCD1, %object
 867              		.size	ADCD1, 52
 868              	ADCD1:
 869 0000 00000000 		.space	52
 869      00000000 
 869      00000000 
 869      00000000 
 869      00000000 
 870              		.text
 871              	.Letext0:
 872              		.file 5 "/usr/lib/gcc/arm-none-eabi/4.9.3/include/stddef.h"
 873              		.file 6 "/usr/include/newlib/machine/_default_types.h"
 874              		.file 7 "/usr/include/newlib/sys/_stdint.h"
 875              		.file 8 "../../modules/ChibiOS/os/common/ports/ARMCMx/compilers/GCC/chtypes.h"
 876              		.file 9 "../../modules/ChibiOS/os/rt/include/chsystypes.h"
 877              		.file 10 "../../modules/ChibiOS/os/rt/include/chschd.h"
 878              		.file 11 "../../modules/ChibiOS/os/common/ext/CMSIS/ST/STM32F4xx/stm32f407xx.h"
 879              		.file 12 "../../modules/ChibiOS/os/common/ports/ARMCMx/chcore.h"
 880              		.file 13 "../../modules/ChibiOS/os/common/ports/ARMCMx/chcore_v7m.h"
 881              		.file 14 "../../modules/ChibiOS/os/rt/include/chtm.h"
 882              		.file 15 "../../modules/ChibiOS/os/rt/include/chstats.h"
 883              		.file 16 "../../modules/ChibiOS/os/rt/include/chsem.h"
 884              		.file 17 "../../modules/ChibiOS/os/rt/include/chmtx.h"
 885              		.file 18 "../../modules/ChibiOS/os/hal/ports/STM32/LLD/DMAv2/stm32_dma.h"
 886              		.file 19 "../../modules/ChibiOS/os/hal/include/hal_adc.h"
 887              		.file 20 "../../modules/ChibiOS/os/hal/ports/STM32/LLD/ADCv2/hal_adc_lld.h"
 888              		.file 21 "../../modules/ChibiOS/os/common/ext/CMSIS/include/core_cm4.h"
 889              		.file 22 "../../modules/ChibiOS/os/hal/ports/common/ARMCMx/nvic.h"
 890              		.file 23 "../../modules/ChibiOS/os/rt/include/chthreads.h"