ARM GAS  /tmp/ccFUmwJK.s 			page 1


   1              		.syntax unified
   2              		.cpu cortex-m4
   3              		.eabi_attribute 27, 1
   4              		.eabi_attribute 28, 1
   5              		.fpu fpv4-sp-d16
   6              		.eabi_attribute 20, 1
   7              		.eabi_attribute 21, 1
   8              		.eabi_attribute 23, 3
   9              		.eabi_attribute 24, 1
  10              		.eabi_attribute 25, 1
  11              		.eabi_attribute 26, 1
  12              		.eabi_attribute 30, 4
  13              		.eabi_attribute 34, 1
  14              		.eabi_attribute 18, 4
  15              		.thumb
  16              		.file	"hal_pal_lld.c"
  17              		.text
  18              	.Ltext0:
  19              		.cfi_sections	.debug_frame
  20              		.section	.text.initgpio,"ax",%progbits
  21              		.align	1
  22              		.thumb
  23              		.thumb_func
  24              		.type	initgpio, %function
  25              	initgpio:
  26              	.LFB277:
  27              		.file 1 "../../modules/ChibiOS/os/hal/ports/STM32/LLD/GPIOv2/hal_pal_lld.c"
  28              		.loc 1 61 0
  29              		.cfi_startproc
  30              		@ args = 0, pretend = 0, frame = 0
  31              		@ frame_needed = 0, uses_anonymous_args = 0
  32              		@ link register save eliminated.
  33              	.LVL0:
  34              		.loc 1 63 0
  35 0000 4B68     		ldr	r3, [r1, #4]
  36 0002 4360     		str	r3, [r0, #4]
  37              		.loc 1 64 0
  38 0004 8B68     		ldr	r3, [r1, #8]
  39 0006 8360     		str	r3, [r0, #8]
  40              		.loc 1 65 0
  41 0008 CB68     		ldr	r3, [r1, #12]
  42 000a C360     		str	r3, [r0, #12]
  43              		.loc 1 66 0
  44 000c 0B69     		ldr	r3, [r1, #16]
  45 000e 4361     		str	r3, [r0, #20]
  46              		.loc 1 67 0
  47 0010 4B69     		ldr	r3, [r1, #20]
  48 0012 0362     		str	r3, [r0, #32]
  49              		.loc 1 68 0
  50 0014 8B69     		ldr	r3, [r1, #24]
  51 0016 4362     		str	r3, [r0, #36]
  52              		.loc 1 69 0
  53 0018 0B68     		ldr	r3, [r1]
  54 001a 0360     		str	r3, [r0]
  55 001c 7047     		bx	lr
  56              		.cfi_endproc
  57              	.LFE277:
ARM GAS  /tmp/ccFUmwJK.s 			page 2


  58              		.size	initgpio, .-initgpio
  59              		.section	.text._pal_lld_init,"ax",%progbits
  60              		.align	1
  61              		.global	_pal_lld_init
  62              		.thumb
  63              		.thumb_func
  64              		.type	_pal_lld_init, %function
  65              	_pal_lld_init:
  66              	.LFB278:
  67              		.loc 1 88 0
  68              		.cfi_startproc
  69              		@ args = 0, pretend = 0, frame = 0
  70              		@ frame_needed = 0, uses_anonymous_args = 0
  71              	.LVL1:
  72              		.loc 1 104 0
  73 0000 1C4B     		ldr	r3, .L3
  74 0002 196B     		ldr	r1, [r3, #48]
  75 0004 40F2FF12 		movw	r2, #511
  76 0008 1143     		orrs	r1, r1, r2
  77              		.loc 1 88 0
  78 000a 10B5     		push	{r4, lr}
  79              		.cfi_def_cfa_offset 8
  80              		.cfi_offset 4, -8
  81              		.cfi_offset 14, -4
  82              		.loc 1 104 0
  83 000c 1963     		str	r1, [r3, #48]
  84              		.loc 1 105 0
  85 000e 196D     		ldr	r1, [r3, #80]
  86              		.loc 1 88 0
  87 0010 0446     		mov	r4, r0
  88              		.loc 1 105 0
  89 0012 0A43     		orrs	r2, r2, r1
  90 0014 1A65     		str	r2, [r3, #80]
  91              		.loc 1 112 0
  92 0016 2146     		mov	r1, r4
  93 0018 1748     		ldr	r0, .L3+4
  94              	.LVL2:
  95 001a FFF7FEFF 		bl	initgpio
  96              	.LVL3:
  97              		.loc 1 115 0
  98 001e 04F11C01 		add	r1, r4, #28
  99 0022 1648     		ldr	r0, .L3+8
 100 0024 FFF7FEFF 		bl	initgpio
 101              	.LVL4:
 102              		.loc 1 118 0
 103 0028 04F13801 		add	r1, r4, #56
 104 002c 1448     		ldr	r0, .L3+12
 105 002e FFF7FEFF 		bl	initgpio
 106              	.LVL5:
 107              		.loc 1 121 0
 108 0032 04F15401 		add	r1, r4, #84
 109 0036 1348     		ldr	r0, .L3+16
 110 0038 FFF7FEFF 		bl	initgpio
 111              	.LVL6:
 112              		.loc 1 124 0
 113 003c 04F17001 		add	r1, r4, #112
 114 0040 1148     		ldr	r0, .L3+20
ARM GAS  /tmp/ccFUmwJK.s 			page 3


 115 0042 FFF7FEFF 		bl	initgpio
 116              	.LVL7:
 117              		.loc 1 127 0
 118 0046 04F18C01 		add	r1, r4, #140
 119 004a 1048     		ldr	r0, .L3+24
 120 004c FFF7FEFF 		bl	initgpio
 121              	.LVL8:
 122              		.loc 1 130 0
 123 0050 04F1A801 		add	r1, r4, #168
 124 0054 0E48     		ldr	r0, .L3+28
 125 0056 FFF7FEFF 		bl	initgpio
 126              	.LVL9:
 127              		.loc 1 133 0
 128 005a 04F1C401 		add	r1, r4, #196
 129 005e 0D48     		ldr	r0, .L3+32
 130 0060 FFF7FEFF 		bl	initgpio
 131              	.LVL10:
 132              		.loc 1 136 0
 133 0064 04F1E001 		add	r1, r4, #224
 134 0068 0B48     		ldr	r0, .L3+36
 135              		.loc 1 144 0
 136 006a BDE81040 		pop	{r4, lr}
 137              		.cfi_restore 14
 138              		.cfi_restore 4
 139              		.cfi_def_cfa_offset 0
 140              	.LVL11:
 141              		.loc 1 136 0
 142 006e FFF7FEBF 		b	initgpio
 143              	.LVL12:
 144              	.L4:
 145 0072 00BF     		.align	2
 146              	.L3:
 147 0074 00380240 		.word	1073887232
 148 0078 00000240 		.word	1073872896
 149 007c 00040240 		.word	1073873920
 150 0080 00080240 		.word	1073874944
 151 0084 000C0240 		.word	1073875968
 152 0088 00100240 		.word	1073876992
 153 008c 00140240 		.word	1073878016
 154 0090 00180240 		.word	1073879040
 155 0094 001C0240 		.word	1073880064
 156 0098 00200240 		.word	1073881088
 157              		.cfi_endproc
 158              	.LFE278:
 159              		.size	_pal_lld_init, .-_pal_lld_init
 160              		.section	.text._pal_lld_setgroupmode,"ax",%progbits
 161              		.align	1
 162              		.global	_pal_lld_setgroupmode
 163              		.thumb
 164              		.thumb_func
 165              		.type	_pal_lld_setgroupmode, %function
 166              	_pal_lld_setgroupmode:
 167              	.LFB279:
 168              		.loc 1 161 0
 169              		.cfi_startproc
 170              		@ args = 0, pretend = 0, frame = 0
 171              		@ frame_needed = 0, uses_anonymous_args = 0
ARM GAS  /tmp/ccFUmwJK.s 			page 4


 172              	.LVL13:
 173 0000 2DE9F04F 		push	{r4, r5, r6, r7, r8, r9, r10, fp, lr}
 174              		.cfi_def_cfa_offset 36
 175              		.cfi_offset 4, -36
 176              		.cfi_offset 5, -32
 177              		.cfi_offset 6, -28
 178              		.cfi_offset 7, -24
 179              		.cfi_offset 8, -20
 180              		.cfi_offset 9, -16
 181              		.cfi_offset 10, -12
 182              		.cfi_offset 11, -8
 183              		.cfi_offset 14, -4
 184              		.loc 1 163 0
 185 0004 02F00309 		and	r9, r2, #3
 186              	.LVL14:
 187              		.loc 1 164 0
 188 0008 C2F38008 		ubfx	r8, r2, #2, #1
 189              	.LVL15:
 190              		.loc 1 165 0
 191 000c C2F3C10C 		ubfx	ip, r2, #3, #2
 192              	.LVL16:
 193              		.loc 1 166 0
 194 0010 C2F3411E 		ubfx	lr, r2, #5, #2
 195              	.LVL17:
 196              		.loc 1 163 0
 197 0014 4F46     		mov	r7, r9
 198              		.loc 1 167 0
 199 0016 C2F3C312 		ubfx	r2, r2, #7, #4
 200              	.LVL18:
 201              		.loc 1 168 0
 202 001a 0025     		movs	r5, #0
 203              	.LVL19:
 204              	.L12:
 205              		.loc 1 170 0
 206 001c CB07     		lsls	r3, r1, #31
 207 001e 4AD5     		bpl	.L6
 208              	.LBB2:
 209              		.loc 1 173 0
 210 0020 05F00704 		and	r4, r5, #7
 211 0024 A400     		lsls	r4, r4, #2
 212              		.loc 1 176 0
 213 0026 0F23     		movs	r3, #15
 214 0028 03FA04FB 		lsl	fp, r3, r4
 215              		.loc 1 173 0
 216 002c 02FA04F6 		lsl	r6, r2, r4
 217              	.LVL20:
 218              		.loc 1 174 0
 219 0030 0123     		movs	r3, #1
 220              		.loc 1 177 0
 221 0032 4468     		ldr	r4, [r0, #4]
 222              		.loc 1 174 0
 223 0034 AB40     		lsls	r3, r3, r5
 224              	.LVL21:
 225              		.loc 1 177 0
 226 0036 24EA0303 		bic	r3, r4, r3
 227              	.LVL22:
 228 003a 43EA0803 		orr	r3, r3, r8
ARM GAS  /tmp/ccFUmwJK.s 			page 5


 229 003e 4360     		str	r3, [r0, #4]
 230 0040 4FEA450A 		lsl	r10, r5, #1
 231              		.loc 1 175 0
 232 0044 0324     		movs	r4, #3
 233              		.loc 1 178 0
 234 0046 8368     		ldr	r3, [r0, #8]
 235              		.loc 1 175 0
 236 0048 04FA0AF4 		lsl	r4, r4, r10
 237              	.LVL23:
 238              		.loc 1 178 0
 239 004c E443     		mvns	r4, r4
 240              	.LVL24:
 241 004e 2340     		ands	r3, r3, r4
 242 0050 43EA0C03 		orr	r3, r3, ip
 243 0054 8360     		str	r3, [r0, #8]
 244              		.loc 1 179 0
 245 0056 C368     		ldr	r3, [r0, #12]
 246 0058 04EA030A 		and	r10, r4, r3
 247 005c 4AEA0E03 		orr	r3, r10, lr
 248              		.loc 1 180 0
 249 0060 B9F1020F 		cmp	r9, #2
 250              		.loc 1 179 0
 251 0064 C360     		str	r3, [r0, #12]
 252 0066 6FEA0B03 		mvn	r3, fp
 253              		.loc 1 180 0
 254 006a 13D1     		bne	.L7
 255              		.loc 1 183 0
 256 006c 072D     		cmp	r5, #7
 257              		.loc 1 184 0
 258 006e 95BF     		itete	ls
 259 0070 D0F820A0 		ldrls	r10, [r0, #32]
 260              		.loc 1 186 0
 261 0074 D0F824A0 		ldrhi	r10, [r0, #36]
 262              		.loc 1 184 0
 263 0078 03EA0A03 		andls	r3, r3, r10
 264              		.loc 1 186 0
 265 007c 03EA0A03 		andhi	r3, r3, r10
 266              		.loc 1 184 0
 267 0080 95BF     		itete	ls
 268 0082 1E43     		orrls	r6, r6, r3
 269              	.LVL25:
 270              		.loc 1 186 0
 271 0084 1E43     		orrhi	r6, r6, r3
 272              		.loc 1 184 0
 273 0086 0662     		strls	r6, [r0, #32]
 274              		.loc 1 186 0
 275 0088 4662     		strhi	r6, [r0, #36]
 276              		.loc 1 187 0
 277 008a 0368     		ldr	r3, [r0]
 278 008c 1C40     		ands	r4, r4, r3
 279              	.LVL26:
 280 008e 3C43     		orrs	r4, r4, r7
 281 0090 0460     		str	r4, [r0]
 282 0092 10E0     		b	.L6
 283              	.LVL27:
 284              	.L7:
 285              		.loc 1 192 0
ARM GAS  /tmp/ccFUmwJK.s 			page 6


 286 0094 D0F800A0 		ldr	r10, [r0]
 287 0098 04EA0A04 		and	r4, r4, r10
 288 009c 3C43     		orrs	r4, r4, r7
 289              		.loc 1 193 0
 290 009e 072D     		cmp	r5, #7
 291              		.loc 1 192 0
 292 00a0 0460     		str	r4, [r0]
 293              		.loc 1 194 0
 294 00a2 95BF     		itete	ls
 295 00a4 046A     		ldrls	r4, [r0, #32]
 296              		.loc 1 196 0
 297 00a6 446A     		ldrhi	r4, [r0, #36]
 298              		.loc 1 194 0
 299 00a8 2340     		andls	r3, r3, r4
 300              		.loc 1 196 0
 301 00aa 2340     		andhi	r3, r3, r4
 302              		.loc 1 194 0
 303 00ac 95BF     		itete	ls
 304 00ae 1E43     		orrls	r6, r6, r3
 305              	.LVL28:
 306              		.loc 1 196 0
 307 00b0 1E43     		orrhi	r6, r6, r3
 308              		.loc 1 194 0
 309 00b2 0662     		strls	r6, [r0, #32]
 310              		.loc 1 196 0
 311 00b4 4662     		strhi	r6, [r0, #36]
 312              	.LVL29:
 313              	.L6:
 314              	.LBE2:
 315              		.loc 1 200 0
 316 00b6 4908     		lsrs	r1, r1, #1
 317              	.LVL30:
 318 00b8 08D0     		beq	.L5
 319              		.loc 1 202 0
 320 00ba 4FEA4808 		lsl	r8, r8, #1
 321              	.LVL31:
 322              		.loc 1 203 0
 323 00be 4FEA8C0C 		lsl	ip, ip, #2
 324              	.LVL32:
 325              		.loc 1 204 0
 326 00c2 4FEA8E0E 		lsl	lr, lr, #2
 327              	.LVL33:
 328              		.loc 1 205 0
 329 00c6 BF00     		lsls	r7, r7, #2
 330              	.LVL34:
 331              		.loc 1 206 0
 332 00c8 0135     		adds	r5, r5, #1
 333              	.LVL35:
 334              		.loc 1 207 0
 335 00ca A7E7     		b	.L12
 336              	.L5:
 337 00cc BDE8F08F 		pop	{r4, r5, r6, r7, r8, r9, r10, fp, pc}
 338              		.cfi_endproc
 339              	.LFE279:
 340              		.size	_pal_lld_setgroupmode, .-_pal_lld_setgroupmode
 341              		.text
 342              	.Letext0:
ARM GAS  /tmp/ccFUmwJK.s 			page 7


 343              		.file 2 "/usr/include/newlib/machine/_default_types.h"
 344              		.file 3 "/usr/include/newlib/sys/_stdint.h"
 345              		.file 4 "../../modules/ChibiOS/os/common/ports/ARMCMx/compilers/GCC/chtypes.h"
 346              		.file 5 "../../modules/ChibiOS/os/rt/include/chsystypes.h"
 347              		.file 6 "../../modules/ChibiOS/os/rt/include/chschd.h"
 348              		.file 7 "../../modules/ChibiOS/os/common/ext/CMSIS/ST/STM32F4xx/stm32f407xx.h"
 349              		.file 8 "../../modules/ChibiOS/os/common/ports/ARMCMx/chcore.h"
 350              		.file 9 "../../modules/ChibiOS/os/common/ports/ARMCMx/chcore_v7m.h"
 351              		.file 10 "../../modules/ChibiOS/os/rt/include/chtm.h"
 352              		.file 11 "../../modules/ChibiOS/os/rt/include/chstats.h"
 353              		.file 12 "../../modules/ChibiOS/os/rt/include/chsem.h"
 354              		.file 13 "../../modules/ChibiOS/os/rt/include/chmtx.h"
 355              		.file 14 "../../modules/ChibiOS/os/hal/ports/STM32/LLD/GPIOv2/hal_pal_lld.h"
 356              		.file 15 "../../modules/ChibiOS/os/common/ext/CMSIS/include/core_cm4.h"