ARM GAS  /tmp/ccRwnJ1a.s 			page 1


   1              		.syntax unified
   2              		.cpu cortex-m4
   3              		.eabi_attribute 27, 1
   4              		.eabi_attribute 28, 1
   5              		.fpu fpv4-sp-d16
   6              		.eabi_attribute 20, 1
   7              		.eabi_attribute 21, 1
   8              		.eabi_attribute 23, 3
   9              		.eabi_attribute 24, 1
  10              		.eabi_attribute 25, 1
  11              		.eabi_attribute 26, 1
  12              		.eabi_attribute 30, 4
  13              		.eabi_attribute 34, 1
  14              		.eabi_attribute 18, 4
  15              		.thumb
  16              		.file	"hal_adc.c"
  17              		.text
  18              	.Ltext0:
  19              		.cfi_sections	.debug_frame
  20              		.section	.text.adcInit,"ax",%progbits
  21              		.align	1
  22              		.global	adcInit
  23              		.thumb
  24              		.thumb_func
  25              		.type	adcInit, %function
  26              	adcInit:
  27              	.LFB277:
  28              		.file 1 "../../modules/ChibiOS/os/hal/src/hal_adc.c"
  29              		.loc 1 56 0
  30              		.cfi_startproc
  31              		@ args = 0, pretend = 0, frame = 0
  32              		@ frame_needed = 0, uses_anonymous_args = 0
  33              		@ link register save eliminated.
  34              		.loc 1 58 0
  35 0000 FFF7FEBF 		b	adc_lld_init
  36              	.LVL0:
  37              		.cfi_endproc
  38              	.LFE277:
  39              		.size	adcInit, .-adcInit
  40              		.section	.text.adcObjectInit,"ax",%progbits
  41              		.align	1
  42              		.global	adcObjectInit
  43              		.thumb
  44              		.thumb_func
  45              		.type	adcObjectInit, %function
  46              	adcObjectInit:
  47              	.LFB278:
  48              		.loc 1 68 0
  49              		.cfi_startproc
  50              		@ args = 0, pretend = 0, frame = 0
  51              		@ frame_needed = 0, uses_anonymous_args = 0
  52              		@ link register save eliminated.
  53              	.LVL1:
  54              		.loc 1 70 0
  55 0000 0123     		movs	r3, #1
  56 0002 0370     		strb	r3, [r0]
  57              		.loc 1 71 0
ARM GAS  /tmp/ccRwnJ1a.s 			page 2


  58 0004 0023     		movs	r3, #0
  59 0006 4360     		str	r3, [r0, #4]
  60              		.loc 1 72 0
  61 0008 8360     		str	r3, [r0, #8]
  62              		.loc 1 73 0
  63 000a C360     		str	r3, [r0, #12]
  64              		.loc 1 74 0
  65 000c 0361     		str	r3, [r0, #16]
  66              		.loc 1 76 0
  67 000e 4361     		str	r3, [r0, #20]
  68              	.LVL2:
  69              	.LBB50:
  70              	.LBB51:
  71              		.file 2 "../../modules/ChibiOS/os/hal/osal/rt/osal.h"
  72              		.loc 2 887 0
  73 0010 1830     		adds	r0, r0, #24
  74              	.LVL3:
  75 0012 FFF7FEBF 		b	chMtxObjectInit
  76              	.LVL4:
  77              	.LBE51:
  78              	.LBE50:
  79              		.cfi_endproc
  80              	.LFE278:
  81              		.size	adcObjectInit, .-adcObjectInit
  82              		.section	.text.adcStart,"ax",%progbits
  83              		.align	1
  84              		.global	adcStart
  85              		.thumb
  86              		.thumb_func
  87              		.type	adcStart, %function
  88              	adcStart:
  89              	.LFB279:
  90              		.loc 1 95 0
  91              		.cfi_startproc
  92              		@ args = 0, pretend = 0, frame = 0
  93              		@ frame_needed = 0, uses_anonymous_args = 0
  94              	.LVL5:
  95 0000 38B5     		push	{r3, r4, r5, lr}
  96              		.cfi_def_cfa_offset 16
  97              		.cfi_offset 3, -16
  98              		.cfi_offset 4, -12
  99              		.cfi_offset 5, -8
 100              		.cfi_offset 14, -4
 101              		.loc 1 95 0
 102 0002 0446     		mov	r4, r0
 103 0004 0D46     		mov	r5, r1
 104              	.LBB66:
 105              	.LBB67:
 106              	.LBB68:
 107              	.LBB69:
 108              	.LBB70:
 109              	.LBB71:
 110              		.file 3 "../../modules/ChibiOS/os/common/ext/CMSIS/include/cmsis_gcc.h"
 111              		.loc 3 264 0
 112 0006 2023     		movs	r3, #32
 113              	@ 264 "../../modules/ChibiOS/os/common/ext/CMSIS/include/cmsis_gcc.h" 1
 114 0008 83F31188 		MSR basepri, r3
ARM GAS  /tmp/ccRwnJ1a.s 			page 3


 115              	@ 0 "" 2
 116              		.thumb
 117              	.LBE71:
 118              	.LBE70:
 119              	.LBE69:
 120              		.file 4 "../../modules/ChibiOS/os/rt/include/chsys.h"
 121              		.loc 4 377 0
 122 000c FFF7FEFF 		bl	_stats_start_measure_crit_thd
 123              	.LVL6:
 124              	.LBE68:
 125              	.LBE67:
 126              	.LBE66:
 127              		.loc 1 103 0
 128 0010 2046     		mov	r0, r4
 129              		.loc 1 102 0
 130 0012 6560     		str	r5, [r4, #4]
 131              		.loc 1 103 0
 132 0014 FFF7FEFF 		bl	adc_lld_start
 133              	.LVL7:
 134              		.loc 1 104 0
 135 0018 0223     		movs	r3, #2
 136 001a 2370     		strb	r3, [r4]
 137              	.LBB72:
 138              	.LBB73:
 139              	.LBB74:
 140              		.loc 4 389 0
 141 001c FFF7FEFF 		bl	_stats_stop_measure_crit_thd
 142              	.LVL8:
 143              	.LBB75:
 144              	.LBB76:
 145              	.LBB77:
 146              		.loc 3 264 0
 147 0020 0023     		movs	r3, #0
 148              	@ 264 "../../modules/ChibiOS/os/common/ext/CMSIS/include/cmsis_gcc.h" 1
 149 0022 83F31188 		MSR basepri, r3
 150              	@ 0 "" 2
 151              		.thumb
 152 0026 38BD     		pop	{r3, r4, r5, pc}
 153              	.LBE77:
 154              	.LBE76:
 155              	.LBE75:
 156              	.LBE74:
 157              	.LBE73:
 158              	.LBE72:
 159              		.cfi_endproc
 160              	.LFE279:
 161              		.size	adcStart, .-adcStart
 162              		.section	.text.adcStop,"ax",%progbits
 163              		.align	1
 164              		.global	adcStop
 165              		.thumb
 166              		.thumb_func
 167              		.type	adcStop, %function
 168              	adcStop:
 169              	.LFB280:
 170              		.loc 1 115 0
 171              		.cfi_startproc
ARM GAS  /tmp/ccRwnJ1a.s 			page 4


 172              		@ args = 0, pretend = 0, frame = 0
 173              		@ frame_needed = 0, uses_anonymous_args = 0
 174              	.LVL9:
 175 0000 38B5     		push	{r3, r4, r5, lr}
 176              		.cfi_def_cfa_offset 16
 177              		.cfi_offset 3, -16
 178              		.cfi_offset 4, -12
 179              		.cfi_offset 5, -8
 180              		.cfi_offset 14, -4
 181              		.loc 1 115 0
 182 0002 0446     		mov	r4, r0
 183              	.LBB92:
 184              	.LBB93:
 185              	.LBB94:
 186              	.LBB95:
 187              	.LBB96:
 188              	.LBB97:
 189              		.loc 3 264 0
 190 0004 2023     		movs	r3, #32
 191              	@ 264 "../../modules/ChibiOS/os/common/ext/CMSIS/include/cmsis_gcc.h" 1
 192 0006 83F31188 		MSR basepri, r3
 193              	@ 0 "" 2
 194              		.thumb
 195              	.LBE97:
 196              	.LBE96:
 197              	.LBE95:
 198              		.loc 4 377 0
 199 000a FFF7FEFF 		bl	_stats_start_measure_crit_thd
 200              	.LVL10:
 201              	.LBE94:
 202              	.LBE93:
 203              	.LBE92:
 204              		.loc 1 124 0
 205 000e 2046     		mov	r0, r4
 206 0010 FFF7FEFF 		bl	adc_lld_stop
 207              	.LVL11:
 208              		.loc 1 125 0
 209 0014 0025     		movs	r5, #0
 210              		.loc 1 126 0
 211 0016 0123     		movs	r3, #1
 212              		.loc 1 125 0
 213 0018 6560     		str	r5, [r4, #4]
 214              		.loc 1 126 0
 215 001a 2370     		strb	r3, [r4]
 216              	.LBB98:
 217              	.LBB99:
 218              	.LBB100:
 219              		.loc 4 389 0
 220 001c FFF7FEFF 		bl	_stats_stop_measure_crit_thd
 221              	.LVL12:
 222              	.LBB101:
 223              	.LBB102:
 224              	.LBB103:
 225              		.loc 3 264 0
 226              	@ 264 "../../modules/ChibiOS/os/common/ext/CMSIS/include/cmsis_gcc.h" 1
 227 0020 85F31188 		MSR basepri, r5
 228              	@ 0 "" 2
ARM GAS  /tmp/ccRwnJ1a.s 			page 5


 229              		.thumb
 230 0024 38BD     		pop	{r3, r4, r5, pc}
 231              	.LBE103:
 232              	.LBE102:
 233              	.LBE101:
 234              	.LBE100:
 235              	.LBE99:
 236              	.LBE98:
 237              		.cfi_endproc
 238              	.LFE280:
 239              		.size	adcStop, .-adcStop
 240              		.section	.text.adcStartConversion,"ax",%progbits
 241              		.align	1
 242              		.global	adcStartConversion
 243              		.thumb
 244              		.thumb_func
 245              		.type	adcStartConversion, %function
 246              	adcStartConversion:
 247              	.LFB281:
 248              		.loc 1 150 0
 249              		.cfi_startproc
 250              		@ args = 0, pretend = 0, frame = 0
 251              		@ frame_needed = 0, uses_anonymous_args = 0
 252              	.LVL13:
 253 0000 F8B5     		push	{r3, r4, r5, r6, r7, lr}
 254              		.cfi_def_cfa_offset 24
 255              		.cfi_offset 3, -24
 256              		.cfi_offset 4, -20
 257              		.cfi_offset 5, -16
 258              		.cfi_offset 6, -12
 259              		.cfi_offset 7, -8
 260              		.cfi_offset 14, -4
 261              		.loc 1 150 0
 262 0002 1E46     		mov	r6, r3
 263 0004 0446     		mov	r4, r0
 264 0006 0D46     		mov	r5, r1
 265 0008 1746     		mov	r7, r2
 266              	.LBB120:
 267              	.LBB121:
 268              	.LBB122:
 269              	.LBB123:
 270              	.LBB124:
 271              	.LBB125:
 272              		.loc 3 264 0
 273 000a 2023     		movs	r3, #32
 274              	.LVL14:
 275              	@ 264 "../../modules/ChibiOS/os/common/ext/CMSIS/include/cmsis_gcc.h" 1
 276 000c 83F31188 		MSR basepri, r3
 277              	@ 0 "" 2
 278              		.thumb
 279              	.LBE125:
 280              	.LBE124:
 281              	.LBE123:
 282              		.loc 4 377 0
 283 0010 FFF7FEFF 		bl	_stats_start_measure_crit_thd
 284              	.LVL15:
 285              	.LBE122:
ARM GAS  /tmp/ccRwnJ1a.s 			page 6


 286              	.LBE121:
 287              	.LBE120:
 288              	.LBB126:
 289              	.LBB127:
 290              		.loc 1 191 0
 291 0014 0323     		movs	r3, #3
 292 0016 2370     		strb	r3, [r4]
 293              		.loc 1 192 0
 294 0018 2046     		mov	r0, r4
 295              		.loc 1 188 0
 296 001a A760     		str	r7, [r4, #8]
 297              		.loc 1 189 0
 298 001c E660     		str	r6, [r4, #12]
 299              		.loc 1 190 0
 300 001e 2561     		str	r5, [r4, #16]
 301              		.loc 1 192 0
 302 0020 FFF7FEFF 		bl	adc_lld_start_conversion
 303              	.LVL16:
 304              	.LBE127:
 305              	.LBE126:
 306              	.LBB128:
 307              	.LBB129:
 308              	.LBB130:
 309              		.loc 4 389 0
 310 0024 FFF7FEFF 		bl	_stats_stop_measure_crit_thd
 311              	.LVL17:
 312              	.LBB131:
 313              	.LBB132:
 314              	.LBB133:
 315              		.loc 3 264 0
 316 0028 0023     		movs	r3, #0
 317              	@ 264 "../../modules/ChibiOS/os/common/ext/CMSIS/include/cmsis_gcc.h" 1
 318 002a 83F31188 		MSR basepri, r3
 319              	@ 0 "" 2
 320              		.thumb
 321 002e F8BD     		pop	{r3, r4, r5, r6, r7, pc}
 322              	.LBE133:
 323              	.LBE132:
 324              	.LBE131:
 325              	.LBE130:
 326              	.LBE129:
 327              	.LBE128:
 328              		.cfi_endproc
 329              	.LFE281:
 330              		.size	adcStartConversion, .-adcStartConversion
 331              		.section	.text.adcStartConversionI,"ax",%progbits
 332              		.align	1
 333              		.global	adcStartConversionI
 334              		.thumb
 335              		.thumb_func
 336              		.type	adcStartConversionI, %function
 337              	adcStartConversionI:
 338              	.LFB282:
 339              		.loc 1 178 0
 340              		.cfi_startproc
 341              		@ args = 0, pretend = 0, frame = 0
 342              		@ frame_needed = 0, uses_anonymous_args = 0
ARM GAS  /tmp/ccRwnJ1a.s 			page 7


 343              	.LVL18:
 344 0000 10B5     		push	{r4, lr}
 345              		.cfi_def_cfa_offset 8
 346              		.cfi_offset 4, -8
 347              		.cfi_offset 14, -4
 348              		.loc 1 189 0
 349 0002 C360     		str	r3, [r0, #12]
 350              		.loc 1 191 0
 351 0004 0323     		movs	r3, #3
 352              	.LVL19:
 353              		.loc 1 188 0
 354 0006 8260     		str	r2, [r0, #8]
 355              		.loc 1 190 0
 356 0008 0161     		str	r1, [r0, #16]
 357              		.loc 1 191 0
 358 000a 0370     		strb	r3, [r0]
 359              		.loc 1 193 0
 360 000c BDE81040 		pop	{r4, lr}
 361              		.cfi_restore 14
 362              		.cfi_restore 4
 363              		.cfi_def_cfa_offset 0
 364              		.loc 1 192 0
 365 0010 FFF7FEBF 		b	adc_lld_start_conversion
 366              	.LVL20:
 367              		.cfi_endproc
 368              	.LFE282:
 369              		.size	adcStartConversionI, .-adcStartConversionI
 370              		.section	.text.adcStopConversion,"ax",%progbits
 371              		.align	1
 372              		.global	adcStopConversion
 373              		.thumb
 374              		.thumb_func
 375              		.type	adcStopConversion, %function
 376              	adcStopConversion:
 377              	.LFB283:
 378              		.loc 1 205 0
 379              		.cfi_startproc
 380              		@ args = 0, pretend = 0, frame = 0
 381              		@ frame_needed = 0, uses_anonymous_args = 0
 382              	.LVL21:
 383 0000 10B5     		push	{r4, lr}
 384              		.cfi_def_cfa_offset 8
 385              		.cfi_offset 4, -8
 386              		.cfi_offset 14, -4
 387              	.LBB150:
 388              	.LBB151:
 389              	.LBB152:
 390              	.LBB153:
 391              	.LBB154:
 392              	.LBB155:
 393              		.loc 3 264 0
 394 0002 2023     		movs	r3, #32
 395              	.LBE155:
 396              	.LBE154:
 397              	.LBE153:
 398              	.LBE152:
 399              	.LBE151:
ARM GAS  /tmp/ccRwnJ1a.s 			page 8


 400              	.LBE150:
 401              		.loc 1 205 0
 402 0004 0446     		mov	r4, r0
 403              	.LBB161:
 404              	.LBB160:
 405              	.LBB159:
 406              	.LBB158:
 407              	.LBB157:
 408              	.LBB156:
 409              		.loc 3 264 0
 410              	@ 264 "../../modules/ChibiOS/os/common/ext/CMSIS/include/cmsis_gcc.h" 1
 411 0006 83F31188 		MSR basepri, r3
 412              	@ 0 "" 2
 413              		.thumb
 414              	.LBE156:
 415              	.LBE157:
 416              	.LBE158:
 417              		.loc 4 377 0
 418 000a FFF7FEFF 		bl	_stats_start_measure_crit_thd
 419              	.LVL22:
 420              	.LBE159:
 421              	.LBE160:
 422              	.LBE161:
 423              		.loc 1 212 0
 424 000e 2378     		ldrb	r3, [r4]	@ zero_extendqisi2
 425 0010 022B     		cmp	r3, #2
 426 0012 0CD0     		beq	.L8
 427              		.loc 1 213 0
 428 0014 2046     		mov	r0, r4
 429 0016 FFF7FEFF 		bl	adc_lld_stop_conversion
 430              	.LVL23:
 431              		.loc 1 214 0
 432 001a 0023     		movs	r3, #0
 433              		.loc 1 215 0
 434 001c 2046     		mov	r0, r4
 435              		.loc 1 214 0
 436 001e 2361     		str	r3, [r4, #16]
 437              		.loc 1 215 0
 438 0020 0223     		movs	r3, #2
 439 0022 00F8143B 		strb	r3, [r0], #20
 440              	.LVL24:
 441              	.LBB162:
 442              	.LBB163:
 443              		.loc 2 743 0
 444 0026 6FF00101 		mvn	r1, #1
 445 002a FFF7FEFF 		bl	chThdResumeS
 446              	.LVL25:
 447              	.L8:
 448              	.LBE163:
 449              	.LBE162:
 450              	.LBB164:
 451              	.LBB165:
 452              	.LBB166:
 453              		.loc 4 389 0
 454 002e FFF7FEFF 		bl	_stats_stop_measure_crit_thd
 455              	.LVL26:
 456              	.LBB167:
ARM GAS  /tmp/ccRwnJ1a.s 			page 9


 457              	.LBB168:
 458              	.LBB169:
 459              		.loc 3 264 0
 460 0032 0023     		movs	r3, #0
 461              	@ 264 "../../modules/ChibiOS/os/common/ext/CMSIS/include/cmsis_gcc.h" 1
 462 0034 83F31188 		MSR basepri, r3
 463              	@ 0 "" 2
 464              		.thumb
 465 0038 10BD     		pop	{r4, pc}
 466              	.LBE169:
 467              	.LBE168:
 468              	.LBE167:
 469              	.LBE166:
 470              	.LBE165:
 471              	.LBE164:
 472              		.cfi_endproc
 473              	.LFE283:
 474              		.size	adcStopConversion, .-adcStopConversion
 475              		.section	.text.adcStopConversionI,"ax",%progbits
 476              		.align	1
 477              		.global	adcStopConversionI
 478              		.thumb
 479              		.thumb_func
 480              		.type	adcStopConversionI, %function
 481              	adcStopConversionI:
 482              	.LFB284:
 483              		.loc 1 231 0
 484              		.cfi_startproc
 485              		@ args = 0, pretend = 0, frame = 0
 486              		@ frame_needed = 0, uses_anonymous_args = 0
 487              	.LVL27:
 488              		.loc 1 240 0
 489 0000 0378     		ldrb	r3, [r0]	@ zero_extendqisi2
 490 0002 022B     		cmp	r3, #2
 491              		.loc 1 231 0
 492 0004 10B5     		push	{r4, lr}
 493              		.cfi_def_cfa_offset 8
 494              		.cfi_offset 4, -8
 495              		.cfi_offset 14, -4
 496              		.loc 1 231 0
 497 0006 0446     		mov	r4, r0
 498              		.loc 1 240 0
 499 0008 0DD0     		beq	.L13
 500              		.loc 1 241 0
 501 000a FFF7FEFF 		bl	adc_lld_stop_conversion
 502              	.LVL28:
 503              		.loc 1 242 0
 504 000e 0023     		movs	r3, #0
 505              		.loc 1 243 0
 506 0010 2046     		mov	r0, r4
 507              		.loc 1 242 0
 508 0012 2361     		str	r3, [r4, #16]
 509              		.loc 1 243 0
 510 0014 0223     		movs	r3, #2
 511 0016 00F8143B 		strb	r3, [r0], #20
 512              	.LVL29:
 513              	.LBB170:
ARM GAS  /tmp/ccRwnJ1a.s 			page 10


 514              	.LBB171:
 515              		.loc 2 728 0
 516 001a 6FF00101 		mvn	r1, #1
 517              	.LBE171:
 518              	.LBE170:
 519              		.loc 1 246 0
 520 001e BDE81040 		pop	{r4, lr}
 521              		.cfi_remember_state
 522              		.cfi_restore 14
 523              		.cfi_restore 4
 524              		.cfi_def_cfa_offset 0
 525              	.LVL30:
 526              	.LBB173:
 527              	.LBB172:
 528              		.loc 2 728 0
 529 0022 FFF7FEBF 		b	chThdResumeI
 530              	.LVL31:
 531              	.L13:
 532              		.cfi_restore_state
 533 0026 10BD     		pop	{r4, pc}
 534              	.LBE172:
 535              	.LBE173:
 536              		.cfi_endproc
 537              	.LFE284:
 538              		.size	adcStopConversionI, .-adcStopConversionI
 539              		.section	.text.adcConvert,"ax",%progbits
 540              		.align	1
 541              		.global	adcConvert
 542              		.thumb
 543              		.thumb_func
 544              		.type	adcConvert, %function
 545              	adcConvert:
 546              	.LFB285:
 547              		.loc 1 275 0
 548              		.cfi_startproc
 549              		@ args = 0, pretend = 0, frame = 0
 550              		@ frame_needed = 0, uses_anonymous_args = 0
 551              	.LVL32:
 552 0000 F8B5     		push	{r3, r4, r5, r6, r7, lr}
 553              		.cfi_def_cfa_offset 24
 554              		.cfi_offset 3, -24
 555              		.cfi_offset 4, -20
 556              		.cfi_offset 5, -16
 557              		.cfi_offset 6, -12
 558              		.cfi_offset 7, -8
 559              		.cfi_offset 14, -4
 560              		.loc 1 275 0
 561 0002 1E46     		mov	r6, r3
 562 0004 0446     		mov	r4, r0
 563 0006 0D46     		mov	r5, r1
 564 0008 1746     		mov	r7, r2
 565              	.LBB192:
 566              	.LBB193:
 567              	.LBB194:
 568              	.LBB195:
 569              	.LBB196:
 570              	.LBB197:
ARM GAS  /tmp/ccRwnJ1a.s 			page 11


 571              		.loc 3 264 0
 572 000a 2023     		movs	r3, #32
 573              	.LVL33:
 574              	@ 264 "../../modules/ChibiOS/os/common/ext/CMSIS/include/cmsis_gcc.h" 1
 575 000c 83F31188 		MSR basepri, r3
 576              	@ 0 "" 2
 577              		.thumb
 578              	.LBE197:
 579              	.LBE196:
 580              	.LBE195:
 581              		.loc 4 377 0
 582 0010 FFF7FEFF 		bl	_stats_start_measure_crit_thd
 583              	.LVL34:
 584              	.LBE194:
 585              	.LBE193:
 586              	.LBE192:
 587              	.LBB198:
 588              	.LBB199:
 589              		.loc 1 191 0
 590 0014 0323     		movs	r3, #3
 591 0016 2370     		strb	r3, [r4]
 592              		.loc 1 188 0
 593 0018 A760     		str	r7, [r4, #8]
 594              		.loc 1 189 0
 595 001a E660     		str	r6, [r4, #12]
 596              		.loc 1 190 0
 597 001c 2561     		str	r5, [r4, #16]
 598              		.loc 1 192 0
 599 001e 2046     		mov	r0, r4
 600 0020 FFF7FEFF 		bl	adc_lld_start_conversion
 601              	.LVL35:
 602              	.LBE199:
 603              	.LBE198:
 604              	.LBB200:
 605              	.LBB201:
 606              		.loc 2 688 0
 607 0024 04F11400 		add	r0, r4, #20
 608              	.LVL36:
 609 0028 FFF7FEFF 		bl	chThdSuspendS
 610              	.LVL37:
 611 002c 0446     		mov	r4, r0
 612              	.LVL38:
 613              	.LBE201:
 614              	.LBE200:
 615              	.LBB202:
 616              	.LBB203:
 617              	.LBB204:
 618              		.loc 4 389 0
 619 002e FFF7FEFF 		bl	_stats_stop_measure_crit_thd
 620              	.LVL39:
 621              	.LBB205:
 622              	.LBB206:
 623              	.LBB207:
 624              		.loc 3 264 0
 625 0032 0023     		movs	r3, #0
 626              	@ 264 "../../modules/ChibiOS/os/common/ext/CMSIS/include/cmsis_gcc.h" 1
 627 0034 83F31188 		MSR basepri, r3
ARM GAS  /tmp/ccRwnJ1a.s 			page 12


 628              	@ 0 "" 2
 629              		.thumb
 630              	.LBE207:
 631              	.LBE206:
 632              	.LBE205:
 633              	.LBE204:
 634              	.LBE203:
 635              	.LBE202:
 636              		.loc 1 284 0
 637 0038 2046     		mov	r0, r4
 638 003a F8BD     		pop	{r3, r4, r5, r6, r7, pc}
 639              		.cfi_endproc
 640              	.LFE285:
 641              		.size	adcConvert, .-adcConvert
 642              		.section	.text.adcAcquireBus,"ax",%progbits
 643              		.align	1
 644              		.global	adcAcquireBus
 645              		.thumb
 646              		.thumb_func
 647              		.type	adcAcquireBus, %function
 648              	adcAcquireBus:
 649              	.LFB286:
 650              		.loc 1 299 0
 651              		.cfi_startproc
 652              		@ args = 0, pretend = 0, frame = 0
 653              		@ frame_needed = 0, uses_anonymous_args = 0
 654              		@ link register save eliminated.
 655              	.LVL40:
 656              	.LBB208:
 657              	.LBB209:
 658              		.loc 2 907 0
 659 0000 1830     		adds	r0, r0, #24
 660              	.LVL41:
 661 0002 FFF7FEBF 		b	chMtxLock
 662              	.LVL42:
 663              	.LBE209:
 664              	.LBE208:
 665              		.cfi_endproc
 666              	.LFE286:
 667              		.size	adcAcquireBus, .-adcAcquireBus
 668              		.section	.text.adcReleaseBus,"ax",%progbits
 669              		.align	1
 670              		.global	adcReleaseBus
 671              		.thumb
 672              		.thumb_func
 673              		.type	adcReleaseBus, %function
 674              	adcReleaseBus:
 675              	.LFB287:
 676              		.loc 1 315 0
 677              		.cfi_startproc
 678              		@ args = 0, pretend = 0, frame = 0
 679              		@ frame_needed = 0, uses_anonymous_args = 0
 680              		@ link register save eliminated.
 681              	.LVL43:
 682              	.LBB210:
 683              	.LBB211:
 684              		.loc 2 931 0
ARM GAS  /tmp/ccRwnJ1a.s 			page 13


 685 0000 1830     		adds	r0, r0, #24
 686              	.LVL44:
 687 0002 FFF7FEBF 		b	chMtxUnlock
 688              	.LVL45:
 689              	.LBE211:
 690              	.LBE210:
 691              		.cfi_endproc
 692              	.LFE287:
 693              		.size	adcReleaseBus, .-adcReleaseBus
 694              		.text
 695              	.Letext0:
 696              		.file 5 "/usr/lib/gcc/arm-none-eabi/4.9.3/include/stddef.h"
 697              		.file 6 "/usr/include/newlib/machine/_default_types.h"
 698              		.file 7 "/usr/include/newlib/sys/_stdint.h"
 699              		.file 8 "../../modules/ChibiOS/os/common/ports/ARMCMx/compilers/GCC/chtypes.h"
 700              		.file 9 "../../modules/ChibiOS/os/rt/include/chsystypes.h"
 701              		.file 10 "../../modules/ChibiOS/os/rt/include/chschd.h"
 702              		.file 11 "../../modules/ChibiOS/os/common/ext/CMSIS/ST/STM32F4xx/stm32f407xx.h"
 703              		.file 12 "../../modules/ChibiOS/os/common/ports/ARMCMx/chcore.h"
 704              		.file 13 "../../modules/ChibiOS/os/common/ports/ARMCMx/chcore_v7m.h"
 705              		.file 14 "../../modules/ChibiOS/os/rt/include/chtm.h"
 706              		.file 15 "../../modules/ChibiOS/os/rt/include/chstats.h"
 707              		.file 16 "../../modules/ChibiOS/os/rt/include/chsem.h"
 708              		.file 17 "../../modules/ChibiOS/os/rt/include/chmtx.h"
 709              		.file 18 "../../modules/ChibiOS/os/hal/ports/STM32/LLD/DMAv2/stm32_dma.h"
 710              		.file 19 "../../modules/ChibiOS/os/hal/include/hal_adc.h"
 711              		.file 20 "../../modules/ChibiOS/os/hal/ports/STM32/LLD/ADCv2/hal_adc_lld.h"
 712              		.file 21 "../../modules/ChibiOS/os/rt/include/chthreads.h"
 713              		.file 22 "../../modules/ChibiOS/os/common/ext/CMSIS/include/core_cm4.h"