ARM GAS  /tmp/ccSQlRC5.s 			page 1


   1              		.syntax unified
   2              		.cpu cortex-m4
   3              		.eabi_attribute 27, 1
   4              		.eabi_attribute 28, 1
   5              		.fpu fpv4-sp-d16
   6              		.eabi_attribute 20, 1
   7              		.eabi_attribute 21, 1
   8              		.eabi_attribute 23, 3
   9              		.eabi_attribute 24, 1
  10              		.eabi_attribute 25, 1
  11              		.eabi_attribute 26, 1
  12              		.eabi_attribute 30, 4
  13              		.eabi_attribute 34, 1
  14              		.eabi_attribute 18, 4
  15              		.thumb
  16              		.file	"hal_icu.c"
  17              		.text
  18              	.Ltext0:
  19              		.cfi_sections	.debug_frame
  20              		.section	.text.chSysLock,"ax",%progbits
  21              		.align	1
  22              		.thumb
  23              		.thumb_func
  24              		.type	chSysLock, %function
  25              	chSysLock:
  26              	.LFB167:
  27              		.file 1 "../../modules/ChibiOS/os/rt/include/chsys.h"
  28              		.loc 1 374 0
  29              		.cfi_startproc
  30              		@ args = 0, pretend = 0, frame = 0
  31              		@ frame_needed = 0, uses_anonymous_args = 0
  32              		@ link register save eliminated.
  33              	.LVL0:
  34              	.LBB42:
  35              	.LBB43:
  36              	.LBB44:
  37              		.file 2 "../../modules/ChibiOS/os/common/ext/CMSIS/include/cmsis_gcc.h"
  38              		.loc 2 264 0
  39 0000 2023     		movs	r3, #32
  40              	@ 264 "../../modules/ChibiOS/os/common/ext/CMSIS/include/cmsis_gcc.h" 1
  41 0002 83F31188 		MSR basepri, r3
  42              	@ 0 "" 2
  43              		.thumb
  44              	.LBE44:
  45              	.LBE43:
  46              	.LBE42:
  47              		.loc 1 377 0
  48 0006 FFF7FEBF 		b	_stats_start_measure_crit_thd
  49              	.LVL1:
  50              		.cfi_endproc
  51              	.LFE167:
  52              		.size	chSysLock, .-chSysLock
  53              		.section	.text.chSysUnlock,"ax",%progbits
  54              		.align	1
  55              		.thumb
  56              		.thumb_func
  57              		.type	chSysUnlock, %function
ARM GAS  /tmp/ccSQlRC5.s 			page 2


  58              	chSysUnlock:
  59              	.LFB168:
  60              		.loc 1 386 0
  61              		.cfi_startproc
  62              		@ args = 0, pretend = 0, frame = 0
  63              		@ frame_needed = 0, uses_anonymous_args = 0
  64 0000 08B5     		push	{r3, lr}
  65              		.cfi_def_cfa_offset 8
  66              		.cfi_offset 3, -8
  67              		.cfi_offset 14, -4
  68              		.loc 1 389 0
  69 0002 FFF7FEFF 		bl	_stats_stop_measure_crit_thd
  70              	.LVL2:
  71              	.LBB45:
  72              	.LBB46:
  73              	.LBB47:
  74              		.loc 2 264 0
  75 0006 0023     		movs	r3, #0
  76              	@ 264 "../../modules/ChibiOS/os/common/ext/CMSIS/include/cmsis_gcc.h" 1
  77 0008 83F31188 		MSR basepri, r3
  78              	@ 0 "" 2
  79              		.thumb
  80 000c 08BD     		pop	{r3, pc}
  81              	.LBE47:
  82              	.LBE46:
  83              	.LBE45:
  84              		.cfi_endproc
  85              	.LFE168:
  86              		.size	chSysUnlock, .-chSysUnlock
  87              		.section	.text.icuInit,"ax",%progbits
  88              		.align	1
  89              		.global	icuInit
  90              		.thumb
  91              		.thumb_func
  92              		.type	icuInit, %function
  93              	icuInit:
  94              	.LFB277:
  95              		.file 3 "../../modules/ChibiOS/os/hal/src/hal_icu.c"
  96              		.loc 3 56 0
  97              		.cfi_startproc
  98              		@ args = 0, pretend = 0, frame = 0
  99              		@ frame_needed = 0, uses_anonymous_args = 0
 100              		@ link register save eliminated.
 101              		.loc 3 58 0
 102 0000 FFF7FEBF 		b	icu_lld_init
 103              	.LVL3:
 104              		.cfi_endproc
 105              	.LFE277:
 106              		.size	icuInit, .-icuInit
 107              		.section	.text.icuObjectInit,"ax",%progbits
 108              		.align	1
 109              		.global	icuObjectInit
 110              		.thumb
 111              		.thumb_func
 112              		.type	icuObjectInit, %function
 113              	icuObjectInit:
 114              	.LFB278:
ARM GAS  /tmp/ccSQlRC5.s 			page 3


 115              		.loc 3 68 0
 116              		.cfi_startproc
 117              		@ args = 0, pretend = 0, frame = 0
 118              		@ frame_needed = 0, uses_anonymous_args = 0
 119              		@ link register save eliminated.
 120              	.LVL4:
 121              		.loc 3 70 0
 122 0000 0123     		movs	r3, #1
 123 0002 0370     		strb	r3, [r0]
 124              		.loc 3 71 0
 125 0004 0023     		movs	r3, #0
 126 0006 4360     		str	r3, [r0, #4]
 127 0008 7047     		bx	lr
 128              		.cfi_endproc
 129              	.LFE278:
 130              		.size	icuObjectInit, .-icuObjectInit
 131              		.section	.text.icuStart,"ax",%progbits
 132              		.align	1
 133              		.global	icuStart
 134              		.thumb
 135              		.thumb_func
 136              		.type	icuStart, %function
 137              	icuStart:
 138              	.LFB279:
 139              		.loc 3 82 0
 140              		.cfi_startproc
 141              		@ args = 0, pretend = 0, frame = 0
 142              		@ frame_needed = 0, uses_anonymous_args = 0
 143              	.LVL5:
 144 0000 38B5     		push	{r3, r4, r5, lr}
 145              		.cfi_def_cfa_offset 16
 146              		.cfi_offset 3, -16
 147              		.cfi_offset 4, -12
 148              		.cfi_offset 5, -8
 149              		.cfi_offset 14, -4
 150              		.loc 3 82 0
 151 0002 0446     		mov	r4, r0
 152 0004 0D46     		mov	r5, r1
 153              	.LBB48:
 154              	.LBB49:
 155              		.file 4 "../../modules/ChibiOS/os/hal/osal/rt/osal.h"
 156              		.loc 4 493 0
 157 0006 FFF7FEFF 		bl	chSysLock
 158              	.LVL6:
 159              	.LBE49:
 160              	.LBE48:
 161              		.loc 3 89 0
 162 000a 6560     		str	r5, [r4, #4]
 163              		.loc 3 90 0
 164 000c 2046     		mov	r0, r4
 165 000e FFF7FEFF 		bl	icu_lld_start
 166              	.LVL7:
 167              		.loc 3 91 0
 168 0012 0223     		movs	r3, #2
 169 0014 2370     		strb	r3, [r4]
 170              		.loc 3 93 0
 171 0016 BDE83840 		pop	{r3, r4, r5, lr}
ARM GAS  /tmp/ccSQlRC5.s 			page 4


 172              		.cfi_restore 14
 173              		.cfi_restore 5
 174              		.cfi_restore 4
 175              		.cfi_restore 3
 176              		.cfi_def_cfa_offset 0
 177              	.LVL8:
 178              	.LBB50:
 179              	.LBB51:
 180              		.loc 4 504 0
 181 001a FFF7FEBF 		b	chSysUnlock
 182              	.LVL9:
 183              	.LBE51:
 184              	.LBE50:
 185              		.cfi_endproc
 186              	.LFE279:
 187              		.size	icuStart, .-icuStart
 188              		.section	.text.icuStop,"ax",%progbits
 189              		.align	1
 190              		.global	icuStop
 191              		.thumb
 192              		.thumb_func
 193              		.type	icuStop, %function
 194              	icuStop:
 195              	.LFB280:
 196              		.loc 3 102 0
 197              		.cfi_startproc
 198              		@ args = 0, pretend = 0, frame = 0
 199              		@ frame_needed = 0, uses_anonymous_args = 0
 200              	.LVL10:
 201 0000 10B5     		push	{r4, lr}
 202              		.cfi_def_cfa_offset 8
 203              		.cfi_offset 4, -8
 204              		.cfi_offset 14, -4
 205              		.loc 3 102 0
 206 0002 0446     		mov	r4, r0
 207              	.LBB52:
 208              	.LBB53:
 209              		.loc 4 493 0
 210 0004 FFF7FEFF 		bl	chSysLock
 211              	.LVL11:
 212              	.LBE53:
 213              	.LBE52:
 214              		.loc 3 111 0
 215 0008 2046     		mov	r0, r4
 216 000a FFF7FEFF 		bl	icu_lld_stop
 217              	.LVL12:
 218              		.loc 3 112 0
 219 000e 0023     		movs	r3, #0
 220 0010 6360     		str	r3, [r4, #4]
 221              		.loc 3 113 0
 222 0012 0123     		movs	r3, #1
 223 0014 2370     		strb	r3, [r4]
 224              		.loc 3 116 0
 225 0016 BDE81040 		pop	{r4, lr}
 226              		.cfi_restore 14
 227              		.cfi_restore 4
 228              		.cfi_def_cfa_offset 0
ARM GAS  /tmp/ccSQlRC5.s 			page 5


 229              	.LVL13:
 230              	.LBB54:
 231              	.LBB55:
 232              		.loc 4 504 0
 233 001a FFF7FEBF 		b	chSysUnlock
 234              	.LVL14:
 235              	.LBE55:
 236              	.LBE54:
 237              		.cfi_endproc
 238              	.LFE280:
 239              		.size	icuStop, .-icuStop
 240              		.section	.text.icuStartCapture,"ax",%progbits
 241              		.align	1
 242              		.global	icuStartCapture
 243              		.thumb
 244              		.thumb_func
 245              		.type	icuStartCapture, %function
 246              	icuStartCapture:
 247              	.LFB281:
 248              		.loc 3 125 0
 249              		.cfi_startproc
 250              		@ args = 0, pretend = 0, frame = 0
 251              		@ frame_needed = 0, uses_anonymous_args = 0
 252              	.LVL15:
 253 0000 10B5     		push	{r4, lr}
 254              		.cfi_def_cfa_offset 8
 255              		.cfi_offset 4, -8
 256              		.cfi_offset 14, -4
 257              		.loc 3 125 0
 258 0002 0446     		mov	r4, r0
 259              	.LBB56:
 260              	.LBB57:
 261              		.loc 4 493 0
 262 0004 FFF7FEFF 		bl	chSysLock
 263              	.LVL16:
 264              	.LBE57:
 265              	.LBE56:
 266              		.loc 3 131 0
 267 0008 2046     		mov	r0, r4
 268 000a FFF7FEFF 		bl	icu_lld_start_capture
 269              	.LVL17:
 270 000e 0323     		movs	r3, #3
 271 0010 2370     		strb	r3, [r4]
 272              		.loc 3 133 0
 273 0012 BDE81040 		pop	{r4, lr}
 274              		.cfi_restore 14
 275              		.cfi_restore 4
 276              		.cfi_def_cfa_offset 0
 277              	.LVL18:
 278              	.LBB58:
 279              	.LBB59:
 280              		.loc 4 504 0
 281 0016 FFF7FEBF 		b	chSysUnlock
 282              	.LVL19:
 283              	.LBE59:
 284              	.LBE58:
 285              		.cfi_endproc
ARM GAS  /tmp/ccSQlRC5.s 			page 6


 286              	.LFE281:
 287              		.size	icuStartCapture, .-icuStartCapture
 288              		.section	.text.icuWaitCapture,"ax",%progbits
 289              		.align	1
 290              		.global	icuWaitCapture
 291              		.thumb
 292              		.thumb_func
 293              		.type	icuWaitCapture, %function
 294              	icuWaitCapture:
 295              	.LFB282:
 296              		.loc 3 151 0
 297              		.cfi_startproc
 298              		@ args = 0, pretend = 0, frame = 0
 299              		@ frame_needed = 0, uses_anonymous_args = 0
 300              	.LVL20:
 301 0000 38B5     		push	{r3, r4, r5, lr}
 302              		.cfi_def_cfa_offset 16
 303              		.cfi_offset 3, -16
 304              		.cfi_offset 4, -12
 305              		.cfi_offset 5, -8
 306              		.cfi_offset 14, -4
 307              		.loc 3 151 0
 308 0002 0546     		mov	r5, r0
 309              	.LBB60:
 310              	.LBB61:
 311              		.loc 4 493 0
 312 0004 FFF7FEFF 		bl	chSysLock
 313              	.LVL21:
 314              	.LBE61:
 315              	.LBE60:
 316              		.loc 3 161 0
 317 0008 2846     		mov	r0, r5
 318 000a FFF7FEFF 		bl	icu_lld_wait_capture
 319              	.LVL22:
 320              		.loc 3 162 0
 321 000e 0028     		cmp	r0, #0
 322 0010 14BF     		ite	ne
 323 0012 0323     		movne	r3, #3
 324 0014 0423     		moveq	r3, #4
 325 0016 0446     		mov	r4, r0
 326 0018 2B70     		strb	r3, [r5]
 327              	.LBB62:
 328              	.LBB63:
 329              		.loc 4 504 0
 330 001a FFF7FEFF 		bl	chSysUnlock
 331              	.LVL23:
 332              	.LBE63:
 333              	.LBE62:
 334              		.loc 3 166 0
 335 001e 2046     		mov	r0, r4
 336 0020 38BD     		pop	{r3, r4, r5, pc}
 337              		.cfi_endproc
 338              	.LFE282:
 339              		.size	icuWaitCapture, .-icuWaitCapture
 340              		.section	.text.icuStopCapture,"ax",%progbits
 341              		.align	1
 342              		.global	icuStopCapture
ARM GAS  /tmp/ccSQlRC5.s 			page 7


 343              		.thumb
 344              		.thumb_func
 345              		.type	icuStopCapture, %function
 346              	icuStopCapture:
 347              	.LFB283:
 348              		.loc 3 175 0
 349              		.cfi_startproc
 350              		@ args = 0, pretend = 0, frame = 0
 351              		@ frame_needed = 0, uses_anonymous_args = 0
 352              	.LVL24:
 353 0000 10B5     		push	{r4, lr}
 354              		.cfi_def_cfa_offset 8
 355              		.cfi_offset 4, -8
 356              		.cfi_offset 14, -4
 357              		.loc 3 175 0
 358 0002 0446     		mov	r4, r0
 359              	.LBB64:
 360              	.LBB65:
 361              		.loc 4 493 0
 362 0004 FFF7FEFF 		bl	chSysLock
 363              	.LVL25:
 364              	.LBE65:
 365              	.LBE64:
 366              		.loc 3 183 0
 367 0008 2046     		mov	r0, r4
 368 000a FFF7FEFF 		bl	icu_lld_stop_capture
 369              	.LVL26:
 370 000e 0223     		movs	r3, #2
 371 0010 2370     		strb	r3, [r4]
 372              		.loc 3 185 0
 373 0012 BDE81040 		pop	{r4, lr}
 374              		.cfi_restore 14
 375              		.cfi_restore 4
 376              		.cfi_def_cfa_offset 0
 377              	.LVL27:
 378              	.LBB66:
 379              	.LBB67:
 380              		.loc 4 504 0
 381 0016 FFF7FEBF 		b	chSysUnlock
 382              	.LVL28:
 383              	.LBE67:
 384              	.LBE66:
 385              		.cfi_endproc
 386              	.LFE283:
 387              		.size	icuStopCapture, .-icuStopCapture
 388              		.section	.text.icuEnableNotifications,"ax",%progbits
 389              		.align	1
 390              		.global	icuEnableNotifications
 391              		.thumb
 392              		.thumb_func
 393              		.type	icuEnableNotifications, %function
 394              	icuEnableNotifications:
 395              	.LFB284:
 396              		.loc 3 196 0
 397              		.cfi_startproc
 398              		@ args = 0, pretend = 0, frame = 0
 399              		@ frame_needed = 0, uses_anonymous_args = 0
ARM GAS  /tmp/ccSQlRC5.s 			page 8


 400              	.LVL29:
 401 0000 10B5     		push	{r4, lr}
 402              		.cfi_def_cfa_offset 8
 403              		.cfi_offset 4, -8
 404              		.cfi_offset 14, -4
 405              		.loc 3 196 0
 406 0002 0446     		mov	r4, r0
 407              	.LBB68:
 408              	.LBB69:
 409              		.loc 4 493 0
 410 0004 FFF7FEFF 		bl	chSysLock
 411              	.LVL30:
 412              	.LBE69:
 413              	.LBE68:
 414              		.loc 3 203 0
 415 0008 2046     		mov	r0, r4
 416 000a FFF7FEFF 		bl	icu_lld_enable_notifications
 417              	.LVL31:
 418              		.loc 3 205 0
 419 000e BDE81040 		pop	{r4, lr}
 420              		.cfi_restore 14
 421              		.cfi_restore 4
 422              		.cfi_def_cfa_offset 0
 423              	.LVL32:
 424              	.LBB70:
 425              	.LBB71:
 426              		.loc 4 504 0
 427 0012 FFF7FEBF 		b	chSysUnlock
 428              	.LVL33:
 429              	.LBE71:
 430              	.LBE70:
 431              		.cfi_endproc
 432              	.LFE284:
 433              		.size	icuEnableNotifications, .-icuEnableNotifications
 434              		.section	.text.icuDisableNotifications,"ax",%progbits
 435              		.align	1
 436              		.global	icuDisableNotifications
 437              		.thumb
 438              		.thumb_func
 439              		.type	icuDisableNotifications, %function
 440              	icuDisableNotifications:
 441              	.LFB285:
 442              		.loc 3 216 0
 443              		.cfi_startproc
 444              		@ args = 0, pretend = 0, frame = 0
 445              		@ frame_needed = 0, uses_anonymous_args = 0
 446              	.LVL34:
 447 0000 10B5     		push	{r4, lr}
 448              		.cfi_def_cfa_offset 8
 449              		.cfi_offset 4, -8
 450              		.cfi_offset 14, -4
 451              		.loc 3 216 0
 452 0002 0446     		mov	r4, r0
 453              	.LBB72:
 454              	.LBB73:
 455              		.loc 4 493 0
 456 0004 FFF7FEFF 		bl	chSysLock
ARM GAS  /tmp/ccSQlRC5.s 			page 9


 457              	.LVL35:
 458              	.LBE73:
 459              	.LBE72:
 460              		.loc 3 223 0
 461 0008 2046     		mov	r0, r4
 462 000a FFF7FEFF 		bl	icu_lld_disable_notifications
 463              	.LVL36:
 464              		.loc 3 225 0
 465 000e BDE81040 		pop	{r4, lr}
 466              		.cfi_restore 14
 467              		.cfi_restore 4
 468              		.cfi_def_cfa_offset 0
 469              	.LVL37:
 470              	.LBB74:
 471              	.LBB75:
 472              		.loc 4 504 0
 473 0012 FFF7FEBF 		b	chSysUnlock
 474              	.LVL38:
 475              	.LBE75:
 476              	.LBE74:
 477              		.cfi_endproc
 478              	.LFE285:
 479              		.size	icuDisableNotifications, .-icuDisableNotifications
 480              		.text
 481              	.Letext0:
 482              		.file 5 "/usr/include/newlib/machine/_default_types.h"
 483              		.file 6 "/usr/include/newlib/sys/_stdint.h"
 484              		.file 7 "../../modules/ChibiOS/os/common/ports/ARMCMx/compilers/GCC/chtypes.h"
 485              		.file 8 "../../modules/ChibiOS/os/rt/include/chsystypes.h"
 486              		.file 9 "../../modules/ChibiOS/os/rt/include/chschd.h"
 487              		.file 10 "../../modules/ChibiOS/os/common/ports/ARMCMx/chcore.h"
 488              		.file 11 "../../modules/ChibiOS/os/common/ports/ARMCMx/chcore_v7m.h"
 489              		.file 12 "../../modules/ChibiOS/os/hal/ports/STM32/LLD/TIMv1/stm32_tim.h"
 490              		.file 13 "../../modules/ChibiOS/os/rt/include/chtm.h"
 491              		.file 14 "../../modules/ChibiOS/os/rt/include/chstats.h"
 492              		.file 15 "../../modules/ChibiOS/os/rt/include/chsem.h"
 493              		.file 16 "../../modules/ChibiOS/os/rt/include/chmtx.h"
 494              		.file 17 "../../modules/ChibiOS/os/hal/include/hal_icu.h"
 495              		.file 18 "../../modules/ChibiOS/os/hal/ports/STM32/LLD/TIMv1/hal_icu_lld.h"
 496              		.file 19 "../../modules/ChibiOS/os/common/ext/CMSIS/include/core_cm4.h"
 497              		.section	.debug_info,"",%progbits
 498              	.Ldebug_info0:
 499 0000 38100000 		.4byte	0x1038
 500 0004 0400     		.2byte	0x4
 501 0006 00000000 		.4byte	.Ldebug_abbrev0
 502 000a 04       		.byte	0x4
 503 000b 01       		.uleb128 0x1
 504 000c 6F020000 		.4byte	.LASF166
 505 0010 01       		.byte	0x1
 506 0011 8D070000 		.4byte	.LASF167
 507 0015 A0010000 		.4byte	.LASF168
 508 0019 00000000 		.4byte	.Ldebug_ranges0+0
 509 001d 00000000 		.4byte	0
 510 0021 00000000 		.4byte	.Ldebug_line0
 511 0025 02       		.uleb128 0x2
 512 0026 04       		.byte	0x4
 513 0027 05       		.byte	0x5
ARM GAS  /tmp/ccSQlRC5.s 			page 10


 514 0028 696E7400 		.ascii	"int\000"
 515 002c 03       		.uleb128 0x3
 516 002d 04       		.byte	0x4
 517 002e 07       		.byte	0x7
 518 002f 62020000 		.4byte	.LASF0
 519 0033 03       		.uleb128 0x3
 520 0034 01       		.byte	0x1
 521 0035 06       		.byte	0x6
 522 0036 7D010000 		.4byte	.LASF1
 523 003a 04       		.uleb128 0x4
 524 003b 83000000 		.4byte	.LASF5
 525 003f 05       		.byte	0x5
 526 0040 1D       		.byte	0x1d
 527 0041 45000000 		.4byte	0x45
 528 0045 03       		.uleb128 0x3
 529 0046 01       		.byte	0x1
 530 0047 08       		.byte	0x8
 531 0048 F7050000 		.4byte	.LASF2
 532 004c 03       		.uleb128 0x3
 533 004d 02       		.byte	0x2
 534 004e 05       		.byte	0x5
 535 004f 2A040000 		.4byte	.LASF3
 536 0053 03       		.uleb128 0x3
 537 0054 02       		.byte	0x2
 538 0055 07       		.byte	0x7
 539 0056 45010000 		.4byte	.LASF4
 540 005a 04       		.uleb128 0x4
 541 005b 34040000 		.4byte	.LASF6
 542 005f 05       		.byte	0x5
 543 0060 3F       		.byte	0x3f
 544 0061 65000000 		.4byte	0x65
 545 0065 03       		.uleb128 0x3
 546 0066 04       		.byte	0x4
 547 0067 05       		.byte	0x5
 548 0068 EA010000 		.4byte	.LASF7
 549 006c 04       		.uleb128 0x4
 550 006d 10020000 		.4byte	.LASF8
 551 0071 05       		.byte	0x5
 552 0072 41       		.byte	0x41
 553 0073 77000000 		.4byte	0x77
 554 0077 03       		.uleb128 0x3
 555 0078 04       		.byte	0x4
 556 0079 07       		.byte	0x7
 557 007a B5060000 		.4byte	.LASF9
 558 007e 03       		.uleb128 0x3
 559 007f 08       		.byte	0x8
 560 0080 05       		.byte	0x5
 561 0081 48020000 		.4byte	.LASF10
 562 0085 04       		.uleb128 0x4
 563 0086 7B050000 		.4byte	.LASF11
 564 008a 05       		.byte	0x5
 565 008b 5B       		.byte	0x5b
 566 008c 90000000 		.4byte	0x90
 567 0090 03       		.uleb128 0x3
 568 0091 08       		.byte	0x8
 569 0092 07       		.byte	0x7
 570 0093 E1000000 		.4byte	.LASF12
ARM GAS  /tmp/ccSQlRC5.s 			page 11


 571 0097 04       		.uleb128 0x4
 572 0098 F4070000 		.4byte	.LASF13
 573 009c 06       		.byte	0x6
 574 009d 14       		.byte	0x14
 575 009e 3A000000 		.4byte	0x3a
 576 00a2 04       		.uleb128 0x4
 577 00a3 EF050000 		.4byte	.LASF14
 578 00a7 06       		.byte	0x6
 579 00a8 1F       		.byte	0x1f
 580 00a9 5A000000 		.4byte	0x5a
 581 00ad 04       		.uleb128 0x4
 582 00ae 6B070000 		.4byte	.LASF15
 583 00b2 06       		.byte	0x6
 584 00b3 20       		.byte	0x20
 585 00b4 6C000000 		.4byte	0x6c
 586 00b8 04       		.uleb128 0x4
 587 00b9 56000000 		.4byte	.LASF16
 588 00bd 06       		.byte	0x6
 589 00be 26       		.byte	0x26
 590 00bf 85000000 		.4byte	0x85
 591 00c3 04       		.uleb128 0x4
 592 00c4 63070000 		.4byte	.LASF17
 593 00c8 07       		.byte	0x7
 594 00c9 39       		.byte	0x39
 595 00ca AD000000 		.4byte	0xad
 596 00ce 04       		.uleb128 0x4
 597 00cf 3C010000 		.4byte	.LASF18
 598 00d3 07       		.byte	0x7
 599 00d4 3A       		.byte	0x3a
 600 00d5 B8000000 		.4byte	0xb8
 601 00d9 04       		.uleb128 0x4
 602 00da 45080000 		.4byte	.LASF19
 603 00de 07       		.byte	0x7
 604 00df 3C       		.byte	0x3c
 605 00e0 97000000 		.4byte	0x97
 606 00e4 04       		.uleb128 0x4
 607 00e5 F3010000 		.4byte	.LASF20
 608 00e9 07       		.byte	0x7
 609 00ea 3D       		.byte	0x3d
 610 00eb 97000000 		.4byte	0x97
 611 00ef 04       		.uleb128 0x4
 612 00f0 A8050000 		.4byte	.LASF21
 613 00f4 07       		.byte	0x7
 614 00f5 3E       		.byte	0x3e
 615 00f6 97000000 		.4byte	0x97
 616 00fa 04       		.uleb128 0x4
 617 00fb D3050000 		.4byte	.LASF22
 618 00ff 07       		.byte	0x7
 619 0100 40       		.byte	0x40
 620 0101 AD000000 		.4byte	0xad
 621 0105 04       		.uleb128 0x4
 622 0106 BE030000 		.4byte	.LASF23
 623 010a 07       		.byte	0x7
 624 010b 41       		.byte	0x41
 625 010c A2000000 		.4byte	0xa2
 626 0110 04       		.uleb128 0x4
 627 0111 1E040000 		.4byte	.LASF24
ARM GAS  /tmp/ccSQlRC5.s 			page 12


 628 0115 07       		.byte	0x7
 629 0116 43       		.byte	0x43
 630 0117 AD000000 		.4byte	0xad
 631 011b 04       		.uleb128 0x4
 632 011c 5C020000 		.4byte	.LASF25
 633 0120 07       		.byte	0x7
 634 0121 45       		.byte	0x45
 635 0122 A2000000 		.4byte	0xa2
 636 0126 04       		.uleb128 0x4
 637 0127 D3030000 		.4byte	.LASF26
 638 012b 07       		.byte	0x7
 639 012c 46       		.byte	0x46
 640 012d AD000000 		.4byte	0xad
 641 0131 04       		.uleb128 0x4
 642 0132 FD060000 		.4byte	.LASF27
 643 0136 08       		.byte	0x8
 644 0137 33       		.byte	0x33
 645 0138 AD000000 		.4byte	0xad
 646 013c 04       		.uleb128 0x4
 647 013d EF060000 		.4byte	.LASF28
 648 0141 08       		.byte	0x8
 649 0142 3F       		.byte	0x3f
 650 0143 47010000 		.4byte	0x147
 651 0147 05       		.uleb128 0x5
 652 0148 73030000 		.4byte	.LASF47
 653 014c 60       		.byte	0x60
 654 014d 09       		.byte	0x9
 655 014e 9A       		.byte	0x9a
 656 014f 32020000 		.4byte	0x232
 657 0153 06       		.uleb128 0x6
 658 0154 8D030000 		.4byte	.LASF29
 659 0158 09       		.byte	0x9
 660 0159 9B       		.byte	0x9b
 661 015a 67020000 		.4byte	0x267
 662 015e 00       		.byte	0
 663 015f 06       		.uleb128 0x6
 664 0160 6E050000 		.4byte	.LASF30
 665 0164 09       		.byte	0x9
 666 0165 9C       		.byte	0x9c
 667 0166 FA000000 		.4byte	0xfa
 668 016a 08       		.byte	0x8
 669 016b 07       		.uleb128 0x7
 670 016c 63747800 		.ascii	"ctx\000"
 671 0170 09       		.byte	0x9
 672 0171 9D       		.byte	0x9d
 673 0172 91040000 		.4byte	0x491
 674 0176 0C       		.byte	0xc
 675 0177 06       		.uleb128 0x6
 676 0178 7A040000 		.4byte	.LASF31
 677 017c 09       		.byte	0x9
 678 017d 9F       		.byte	0x9f
 679 017e 3D020000 		.4byte	0x23d
 680 0182 10       		.byte	0x10
 681 0183 06       		.uleb128 0x6
 682 0184 D3060000 		.4byte	.LASF32
 683 0188 09       		.byte	0x9
 684 0189 A0       		.byte	0xa0
ARM GAS  /tmp/ccSQlRC5.s 			page 13


 685 018a 3D020000 		.4byte	0x23d
 686 018e 14       		.byte	0x14
 687 018f 06       		.uleb128 0x6
 688 0190 B9030000 		.4byte	.LASF33
 689 0194 09       		.byte	0x9
 690 0195 A7       		.byte	0xa7
 691 0196 9A080000 		.4byte	0x89a
 692 019a 18       		.byte	0x18
 693 019b 06       		.uleb128 0x6
 694 019c C7060000 		.4byte	.LASF34
 695 01a0 09       		.byte	0x9
 696 01a1 B0       		.byte	0xb0
 697 01a2 AC080000 		.4byte	0x8ac
 698 01a6 1C       		.byte	0x1c
 699 01a7 06       		.uleb128 0x6
 700 01a8 E4010000 		.4byte	.LASF35
 701 01ac 09       		.byte	0x9
 702 01ad B5       		.byte	0xb5
 703 01ae E4000000 		.4byte	0xe4
 704 01b2 20       		.byte	0x20
 705 01b3 06       		.uleb128 0x6
 706 01b4 FC070000 		.4byte	.LASF36
 707 01b8 09       		.byte	0x9
 708 01b9 B9       		.byte	0xb9
 709 01ba D9000000 		.4byte	0xd9
 710 01be 21       		.byte	0x21
 711 01bf 06       		.uleb128 0x6
 712 01c0 B6050000 		.4byte	.LASF37
 713 01c4 09       		.byte	0x9
 714 01c5 BE       		.byte	0xbe
 715 01c6 EF000000 		.4byte	0xef
 716 01ca 22       		.byte	0x22
 717 01cb 08       		.uleb128 0x8
 718 01cc 7500     		.ascii	"u\000"
 719 01ce 09       		.byte	0x9
 720 01cf 0F01     		.2byte	0x10f
 721 01d1 CF070000 		.4byte	0x7cf
 722 01d5 24       		.byte	0x24
 723 01d6 09       		.uleb128 0x9
 724 01d7 34020000 		.4byte	.LASF38
 725 01db 09       		.byte	0x9
 726 01dc 1401     		.2byte	0x114
 727 01de 43020000 		.4byte	0x243
 728 01e2 28       		.byte	0x28
 729 01e3 09       		.uleb128 0x9
 730 01e4 DB010000 		.4byte	.LASF39
 731 01e8 09       		.byte	0x9
 732 01e9 1A01     		.2byte	0x11a
 733 01eb 67020000 		.4byte	0x267
 734 01ef 2C       		.byte	0x2c
 735 01f0 09       		.uleb128 0x9
 736 01f1 DA030000 		.4byte	.LASF40
 737 01f5 09       		.byte	0x9
 738 01f6 2001     		.2byte	0x120
 739 01f8 10010000 		.4byte	0x110
 740 01fc 34       		.byte	0x34
 741 01fd 09       		.uleb128 0x9
ARM GAS  /tmp/ccSQlRC5.s 			page 14


 742 01fe CB050000 		.4byte	.LASF41
 743 0202 09       		.byte	0x9
 744 0203 2701     		.2byte	0x127
 745 0205 94080000 		.4byte	0x894
 746 0209 38       		.byte	0x38
 747 020a 09       		.uleb128 0x9
 748 020b 95040000 		.4byte	.LASF42
 749 020f 09       		.byte	0x9
 750 0210 2B01     		.2byte	0x12b
 751 0212 FA000000 		.4byte	0xfa
 752 0216 3C       		.byte	0x3c
 753 0217 09       		.uleb128 0x9
 754 0218 93030000 		.4byte	.LASF43
 755 021c 09       		.byte	0x9
 756 021d 3201     		.2byte	0x132
 757 021f 1A030000 		.4byte	0x31a
 758 0223 40       		.byte	0x40
 759 0224 09       		.uleb128 0x9
 760 0225 01020000 		.4byte	.LASF44
 761 0229 09       		.byte	0x9
 762 022a 3801     		.2byte	0x138
 763 022c 80070000 		.4byte	0x780
 764 0230 48       		.byte	0x48
 765 0231 00       		.byte	0
 766 0232 04       		.uleb128 0x4
 767 0233 DA040000 		.4byte	.LASF45
 768 0237 08       		.byte	0x8
 769 0238 44       		.byte	0x44
 770 0239 3D020000 		.4byte	0x23d
 771 023d 0A       		.uleb128 0xa
 772 023e 04       		.byte	0x4
 773 023f 3C010000 		.4byte	0x13c
 774 0243 04       		.uleb128 0x4
 775 0244 27080000 		.4byte	.LASF46
 776 0248 08       		.byte	0x8
 777 0249 49       		.byte	0x49
 778 024a 4E020000 		.4byte	0x24e
 779 024e 05       		.uleb128 0x5
 780 024f 9F060000 		.4byte	.LASF48
 781 0253 04       		.byte	0x4
 782 0254 09       		.byte	0x9
 783 0255 88       		.byte	0x88
 784 0256 67020000 		.4byte	0x267
 785 025a 06       		.uleb128 0x6
 786 025b 2E000000 		.4byte	.LASF49
 787 025f 09       		.byte	0x9
 788 0260 89       		.byte	0x89
 789 0261 3D020000 		.4byte	0x23d
 790 0265 00       		.byte	0
 791 0266 00       		.byte	0
 792 0267 04       		.uleb128 0x4
 793 0268 74070000 		.4byte	.LASF50
 794 026c 08       		.byte	0x8
 795 026d 50       		.byte	0x50
 796 026e 72020000 		.4byte	0x272
 797 0272 05       		.uleb128 0x5
 798 0273 9E000000 		.4byte	.LASF51
ARM GAS  /tmp/ccSQlRC5.s 			page 15


 799 0277 08       		.byte	0x8
 800 0278 09       		.byte	0x9
 801 0279 8F       		.byte	0x8f
 802 027a 97020000 		.4byte	0x297
 803 027e 06       		.uleb128 0x6
 804 027f 2E000000 		.4byte	.LASF49
 805 0283 09       		.byte	0x9
 806 0284 90       		.byte	0x90
 807 0285 3D020000 		.4byte	0x23d
 808 0289 00       		.byte	0
 809 028a 06       		.uleb128 0x6
 810 028b 8D000000 		.4byte	.LASF52
 811 028f 09       		.byte	0x9
 812 0290 91       		.byte	0x91
 813 0291 3D020000 		.4byte	0x23d
 814 0295 04       		.byte	0x4
 815 0296 00       		.byte	0
 816 0297 04       		.uleb128 0x4
 817 0298 16000000 		.4byte	.LASF53
 818 029c 08       		.byte	0x8
 819 029d 57       		.byte	0x57
 820 029e A2020000 		.4byte	0x2a2
 821 02a2 0B       		.uleb128 0xb
 822 02a3 10040000 		.4byte	.LASF54
 823 02a7 1C       		.byte	0x1c
 824 02a8 09       		.byte	0x9
 825 02a9 6A01     		.2byte	0x16a
 826 02ab FE020000 		.4byte	0x2fe
 827 02af 09       		.uleb128 0x9
 828 02b0 8D030000 		.4byte	.LASF29
 829 02b4 09       		.byte	0x9
 830 02b5 6B01     		.2byte	0x16b
 831 02b7 67020000 		.4byte	0x267
 832 02bb 00       		.byte	0
 833 02bc 09       		.uleb128 0x9
 834 02bd 6E050000 		.4byte	.LASF30
 835 02c1 09       		.byte	0x9
 836 02c2 6C01     		.2byte	0x16c
 837 02c4 FA000000 		.4byte	0xfa
 838 02c8 08       		.byte	0x8
 839 02c9 08       		.uleb128 0x8
 840 02ca 63747800 		.ascii	"ctx\000"
 841 02ce 09       		.byte	0x9
 842 02cf 6E01     		.2byte	0x16e
 843 02d1 91040000 		.4byte	0x491
 844 02d5 0C       		.byte	0xc
 845 02d6 09       		.uleb128 0x9
 846 02d7 7A040000 		.4byte	.LASF31
 847 02db 09       		.byte	0x9
 848 02dc 7101     		.2byte	0x171
 849 02de 3D020000 		.4byte	0x23d
 850 02e2 10       		.byte	0x10
 851 02e3 09       		.uleb128 0x9
 852 02e4 D3060000 		.4byte	.LASF32
 853 02e8 09       		.byte	0x9
 854 02e9 7201     		.2byte	0x172
 855 02eb 3D020000 		.4byte	0x23d
ARM GAS  /tmp/ccSQlRC5.s 			page 16


 856 02ef 14       		.byte	0x14
 857 02f0 09       		.uleb128 0x9
 858 02f1 73050000 		.4byte	.LASF55
 859 02f5 09       		.byte	0x9
 860 02f6 7501     		.2byte	0x175
 861 02f8 3D020000 		.4byte	0x23d
 862 02fc 18       		.byte	0x18
 863 02fd 00       		.byte	0
 864 02fe 04       		.uleb128 0x4
 865 02ff 07070000 		.4byte	.LASF56
 866 0303 08       		.byte	0x8
 867 0304 5C       		.byte	0x5c
 868 0305 09030000 		.4byte	0x309
 869 0309 0A       		.uleb128 0xa
 870 030a 04       		.byte	0x4
 871 030b 0F030000 		.4byte	0x30f
 872 030f 0C       		.uleb128 0xc
 873 0310 1A030000 		.4byte	0x31a
 874 0314 0D       		.uleb128 0xd
 875 0315 1A030000 		.4byte	0x31a
 876 0319 00       		.byte	0
 877 031a 0E       		.uleb128 0xe
 878 031b 04       		.byte	0x4
 879 031c 04       		.uleb128 0x4
 880 031d BB050000 		.4byte	.LASF57
 881 0321 08       		.byte	0x8
 882 0322 61       		.byte	0x61
 883 0323 27030000 		.4byte	0x327
 884 0327 0B       		.uleb128 0xb
 885 0328 67060000 		.4byte	.LASF58
 886 032c 14       		.byte	0x14
 887 032d 09       		.byte	0x9
 888 032e 4501     		.2byte	0x145
 889 0330 76030000 		.4byte	0x376
 890 0334 09       		.uleb128 0x9
 891 0335 2E000000 		.4byte	.LASF49
 892 0339 09       		.byte	0x9
 893 033a 4601     		.2byte	0x146
 894 033c B2080000 		.4byte	0x8b2
 895 0340 00       		.byte	0
 896 0341 09       		.uleb128 0x9
 897 0342 8D000000 		.4byte	.LASF52
 898 0346 09       		.byte	0x9
 899 0347 4701     		.2byte	0x147
 900 0349 B2080000 		.4byte	0x8b2
 901 034d 04       		.byte	0x4
 902 034e 09       		.uleb128 0x9
 903 034f 33000000 		.4byte	.LASF59
 904 0353 09       		.byte	0x9
 905 0354 4801     		.2byte	0x148
 906 0356 31010000 		.4byte	0x131
 907 035a 08       		.byte	0x8
 908 035b 09       		.uleb128 0x9
 909 035c FC010000 		.4byte	.LASF60
 910 0360 09       		.byte	0x9
 911 0361 4901     		.2byte	0x149
 912 0363 FE020000 		.4byte	0x2fe
ARM GAS  /tmp/ccSQlRC5.s 			page 17


 913 0367 0C       		.byte	0xc
 914 0368 08       		.uleb128 0x8
 915 0369 70617200 		.ascii	"par\000"
 916 036d 09       		.byte	0x9
 917 036e 4B01     		.2byte	0x14b
 918 0370 1A030000 		.4byte	0x31a
 919 0374 10       		.byte	0x10
 920 0375 00       		.byte	0
 921 0376 04       		.uleb128 0x4
 922 0377 14010000 		.4byte	.LASF61
 923 037b 08       		.byte	0x8
 924 037c 66       		.byte	0x66
 925 037d 81030000 		.4byte	0x381
 926 0381 0B       		.uleb128 0xb
 927 0382 ED040000 		.4byte	.LASF62
 928 0386 10       		.byte	0x10
 929 0387 09       		.byte	0x9
 930 0388 5501     		.2byte	0x155
 931 038a C3030000 		.4byte	0x3c3
 932 038e 09       		.uleb128 0x9
 933 038f 2E000000 		.4byte	.LASF49
 934 0393 09       		.byte	0x9
 935 0394 5601     		.2byte	0x156
 936 0396 B2080000 		.4byte	0x8b2
 937 039a 00       		.byte	0
 938 039b 09       		.uleb128 0x9
 939 039c 8D000000 		.4byte	.LASF52
 940 03a0 09       		.byte	0x9
 941 03a1 5801     		.2byte	0x158
 942 03a3 B2080000 		.4byte	0x8b2
 943 03a7 04       		.byte	0x4
 944 03a8 09       		.uleb128 0x9
 945 03a9 33000000 		.4byte	.LASF59
 946 03ad 09       		.byte	0x9
 947 03ae 5A01     		.2byte	0x15a
 948 03b0 31010000 		.4byte	0x131
 949 03b4 08       		.byte	0x8
 950 03b5 09       		.uleb128 0x9
 951 03b6 0F060000 		.4byte	.LASF63
 952 03ba 09       		.byte	0x9
 953 03bb 6201     		.2byte	0x162
 954 03bd 31010000 		.4byte	0x131
 955 03c1 0C       		.byte	0xc
 956 03c2 00       		.byte	0
 957 03c3 04       		.uleb128 0x4
 958 03c4 AF000000 		.4byte	.LASF64
 959 03c8 08       		.byte	0x8
 960 03c9 6B       		.byte	0x6b
 961 03ca CE030000 		.4byte	0x3ce
 962 03ce 0B       		.uleb128 0xb
 963 03cf 24020000 		.4byte	.LASF65
 964 03d3 04       		.byte	0x4
 965 03d4 09       		.byte	0x9
 966 03d5 7C01     		.2byte	0x17c
 967 03d7 E9030000 		.4byte	0x3e9
 968 03db 09       		.uleb128 0x9
 969 03dc 1E070000 		.4byte	.LASF66
ARM GAS  /tmp/ccSQlRC5.s 			page 18


 970 03e0 09       		.byte	0x9
 971 03e1 8401     		.2byte	0x184
 972 03e3 B8080000 		.4byte	0x8b8
 973 03e7 00       		.byte	0
 974 03e8 00       		.byte	0
 975 03e9 04       		.uleb128 0x4
 976 03ea E3030000 		.4byte	.LASF67
 977 03ee 08       		.byte	0x8
 978 03ef 70       		.byte	0x70
 979 03f0 F4030000 		.4byte	0x3f4
 980 03f4 0B       		.uleb128 0xb
 981 03f5 27060000 		.4byte	.LASF68
 982 03f9 D0       		.byte	0xd0
 983 03fa 09       		.byte	0x9
 984 03fb 9C01     		.2byte	0x19c
 985 03fd 4F040000 		.4byte	0x44f
 986 0401 09       		.uleb128 0x9
 987 0402 93010000 		.4byte	.LASF69
 988 0406 09       		.byte	0x9
 989 0407 A001     		.2byte	0x1a0
 990 0409 97020000 		.4byte	0x297
 991 040d 00       		.byte	0
 992 040e 09       		.uleb128 0x9
 993 040f 99010000 		.4byte	.LASF70
 994 0413 09       		.byte	0x9
 995 0414 A401     		.2byte	0x1a4
 996 0416 76030000 		.4byte	0x376
 997 041a 1C       		.byte	0x1c
 998 041b 08       		.uleb128 0x8
 999 041c 64626700 		.ascii	"dbg\000"
 1000 0420 09       		.byte	0x9
 1001 0421 A801     		.2byte	0x1a8
 1002 0423 C3030000 		.4byte	0x3c3
 1003 0427 2C       		.byte	0x2c
 1004 0428 09       		.uleb128 0x9
 1005 0429 01010000 		.4byte	.LASF71
 1006 042d 09       		.byte	0x9
 1007 042e AC01     		.2byte	0x1ac
 1008 0430 3C010000 		.4byte	0x13c
 1009 0434 30       		.byte	0x30
 1010 0435 08       		.uleb128 0x8
 1011 0436 746D00   		.ascii	"tm\000"
 1012 0439 09       		.byte	0x9
 1013 043a B101     		.2byte	0x1b1
 1014 043c 32070000 		.4byte	0x732
 1015 0440 90       		.byte	0x90
 1016 0441 09       		.uleb128 0x9
 1017 0442 5F000000 		.4byte	.LASF72
 1018 0446 09       		.byte	0x9
 1019 0447 B701     		.2byte	0x1b7
 1020 0449 C4070000 		.4byte	0x7c4
 1021 044d 98       		.byte	0x98
 1022 044e 00       		.byte	0
 1023 044f 03       		.uleb128 0x3
 1024 0450 04       		.byte	0x4
 1025 0451 07       		.byte	0x7
 1026 0452 D1040000 		.4byte	.LASF73
ARM GAS  /tmp/ccSQlRC5.s 			page 19


 1027 0456 0F       		.uleb128 0xf
 1028 0457 AD000000 		.4byte	0xad
 1029 045b 10       		.uleb128 0x10
 1030 045c AD000000 		.4byte	0xad
 1031 0460 6B040000 		.4byte	0x46b
 1032 0464 11       		.uleb128 0x11
 1033 0465 4F040000 		.4byte	0x44f
 1034 0469 01       		.byte	0x1
 1035 046a 00       		.byte	0
 1036 046b 10       		.uleb128 0x10
 1037 046c AD000000 		.4byte	0xad
 1038 0470 7B040000 		.4byte	0x47b
 1039 0474 11       		.uleb128 0x11
 1040 0475 4F040000 		.4byte	0x44f
 1041 0479 03       		.byte	0x3
 1042 047a 00       		.byte	0
 1043 047b 04       		.uleb128 0x4
 1044 047c 1B020000 		.4byte	.LASF74
 1045 0480 0A       		.byte	0xa
 1046 0481 65       		.byte	0x65
 1047 0482 1A030000 		.4byte	0x31a
 1048 0486 04       		.uleb128 0x4
 1049 0487 6F040000 		.4byte	.LASF75
 1050 048b 0A       		.byte	0xa
 1051 048c 6D       		.byte	0x6d
 1052 048d B8000000 		.4byte	0xb8
 1053 0491 05       		.uleb128 0x5
 1054 0492 32050000 		.4byte	.LASF76
 1055 0496 04       		.byte	0x4
 1056 0497 0A       		.byte	0xa
 1057 0498 89       		.byte	0x89
 1058 0499 A9040000 		.4byte	0x4a9
 1059 049d 07       		.uleb128 0x7
 1060 049e 737000   		.ascii	"sp\000"
 1061 04a1 0A       		.byte	0xa
 1062 04a2 8A       		.byte	0x8a
 1063 04a3 F5050000 		.4byte	0x5f5
 1064 04a7 00       		.byte	0
 1065 04a8 00       		.byte	0
 1066 04a9 0B       		.uleb128 0xb
 1067 04aa 92000000 		.4byte	.LASF77
 1068 04ae 64       		.byte	0x64
 1069 04af 0B       		.byte	0xb
 1070 04b0 5901     		.2byte	0x159
 1071 04b2 F5050000 		.4byte	0x5f5
 1072 04b6 08       		.uleb128 0x8
 1073 04b7 73313600 		.ascii	"s16\000"
 1074 04bb 0B       		.byte	0xb
 1075 04bc 5B01     		.2byte	0x15b
 1076 04be 7B040000 		.4byte	0x47b
 1077 04c2 00       		.byte	0
 1078 04c3 08       		.uleb128 0x8
 1079 04c4 73313700 		.ascii	"s17\000"
 1080 04c8 0B       		.byte	0xb
 1081 04c9 5C01     		.2byte	0x15c
 1082 04cb 7B040000 		.4byte	0x47b
 1083 04cf 04       		.byte	0x4
ARM GAS  /tmp/ccSQlRC5.s 			page 20


 1084 04d0 08       		.uleb128 0x8
 1085 04d1 73313800 		.ascii	"s18\000"
 1086 04d5 0B       		.byte	0xb
 1087 04d6 5D01     		.2byte	0x15d
 1088 04d8 7B040000 		.4byte	0x47b
 1089 04dc 08       		.byte	0x8
 1090 04dd 08       		.uleb128 0x8
 1091 04de 73313900 		.ascii	"s19\000"
 1092 04e2 0B       		.byte	0xb
 1093 04e3 5E01     		.2byte	0x15e
 1094 04e5 7B040000 		.4byte	0x47b
 1095 04e9 0C       		.byte	0xc
 1096 04ea 08       		.uleb128 0x8
 1097 04eb 73323000 		.ascii	"s20\000"
 1098 04ef 0B       		.byte	0xb
 1099 04f0 5F01     		.2byte	0x15f
 1100 04f2 7B040000 		.4byte	0x47b
 1101 04f6 10       		.byte	0x10
 1102 04f7 08       		.uleb128 0x8
 1103 04f8 73323100 		.ascii	"s21\000"
 1104 04fc 0B       		.byte	0xb
 1105 04fd 6001     		.2byte	0x160
 1106 04ff 7B040000 		.4byte	0x47b
 1107 0503 14       		.byte	0x14
 1108 0504 08       		.uleb128 0x8
 1109 0505 73323200 		.ascii	"s22\000"
 1110 0509 0B       		.byte	0xb
 1111 050a 6101     		.2byte	0x161
 1112 050c 7B040000 		.4byte	0x47b
 1113 0510 18       		.byte	0x18
 1114 0511 08       		.uleb128 0x8
 1115 0512 73323300 		.ascii	"s23\000"
 1116 0516 0B       		.byte	0xb
 1117 0517 6201     		.2byte	0x162
 1118 0519 7B040000 		.4byte	0x47b
 1119 051d 1C       		.byte	0x1c
 1120 051e 08       		.uleb128 0x8
 1121 051f 73323400 		.ascii	"s24\000"
 1122 0523 0B       		.byte	0xb
 1123 0524 6301     		.2byte	0x163
 1124 0526 7B040000 		.4byte	0x47b
 1125 052a 20       		.byte	0x20
 1126 052b 08       		.uleb128 0x8
 1127 052c 73323500 		.ascii	"s25\000"
 1128 0530 0B       		.byte	0xb
 1129 0531 6401     		.2byte	0x164
 1130 0533 7B040000 		.4byte	0x47b
 1131 0537 24       		.byte	0x24
 1132 0538 08       		.uleb128 0x8
 1133 0539 73323600 		.ascii	"s26\000"
 1134 053d 0B       		.byte	0xb
 1135 053e 6501     		.2byte	0x165
 1136 0540 7B040000 		.4byte	0x47b
 1137 0544 28       		.byte	0x28
 1138 0545 08       		.uleb128 0x8
 1139 0546 73323700 		.ascii	"s27\000"
 1140 054a 0B       		.byte	0xb
ARM GAS  /tmp/ccSQlRC5.s 			page 21


 1141 054b 6601     		.2byte	0x166
 1142 054d 7B040000 		.4byte	0x47b
 1143 0551 2C       		.byte	0x2c
 1144 0552 08       		.uleb128 0x8
 1145 0553 73323800 		.ascii	"s28\000"
 1146 0557 0B       		.byte	0xb
 1147 0558 6701     		.2byte	0x167
 1148 055a 7B040000 		.4byte	0x47b
 1149 055e 30       		.byte	0x30
 1150 055f 08       		.uleb128 0x8
 1151 0560 73323900 		.ascii	"s29\000"
 1152 0564 0B       		.byte	0xb
 1153 0565 6801     		.2byte	0x168
 1154 0567 7B040000 		.4byte	0x47b
 1155 056b 34       		.byte	0x34
 1156 056c 08       		.uleb128 0x8
 1157 056d 73333000 		.ascii	"s30\000"
 1158 0571 0B       		.byte	0xb
 1159 0572 6901     		.2byte	0x169
 1160 0574 7B040000 		.4byte	0x47b
 1161 0578 38       		.byte	0x38
 1162 0579 08       		.uleb128 0x8
 1163 057a 73333100 		.ascii	"s31\000"
 1164 057e 0B       		.byte	0xb
 1165 057f 6A01     		.2byte	0x16a
 1166 0581 7B040000 		.4byte	0x47b
 1167 0585 3C       		.byte	0x3c
 1168 0586 08       		.uleb128 0x8
 1169 0587 723400   		.ascii	"r4\000"
 1170 058a 0B       		.byte	0xb
 1171 058b 6C01     		.2byte	0x16c
 1172 058d 7B040000 		.4byte	0x47b
 1173 0591 40       		.byte	0x40
 1174 0592 08       		.uleb128 0x8
 1175 0593 723500   		.ascii	"r5\000"
 1176 0596 0B       		.byte	0xb
 1177 0597 6D01     		.2byte	0x16d
 1178 0599 7B040000 		.4byte	0x47b
 1179 059d 44       		.byte	0x44
 1180 059e 08       		.uleb128 0x8
 1181 059f 723600   		.ascii	"r6\000"
 1182 05a2 0B       		.byte	0xb
 1183 05a3 6E01     		.2byte	0x16e
 1184 05a5 7B040000 		.4byte	0x47b
 1185 05a9 48       		.byte	0x48
 1186 05aa 08       		.uleb128 0x8
 1187 05ab 723700   		.ascii	"r7\000"
 1188 05ae 0B       		.byte	0xb
 1189 05af 6F01     		.2byte	0x16f
 1190 05b1 7B040000 		.4byte	0x47b
 1191 05b5 4C       		.byte	0x4c
 1192 05b6 08       		.uleb128 0x8
 1193 05b7 723800   		.ascii	"r8\000"
 1194 05ba 0B       		.byte	0xb
 1195 05bb 7001     		.2byte	0x170
 1196 05bd 7B040000 		.4byte	0x47b
 1197 05c1 50       		.byte	0x50
ARM GAS  /tmp/ccSQlRC5.s 			page 22


 1198 05c2 08       		.uleb128 0x8
 1199 05c3 723900   		.ascii	"r9\000"
 1200 05c6 0B       		.byte	0xb
 1201 05c7 7101     		.2byte	0x171
 1202 05c9 7B040000 		.4byte	0x47b
 1203 05cd 54       		.byte	0x54
 1204 05ce 08       		.uleb128 0x8
 1205 05cf 72313000 		.ascii	"r10\000"
 1206 05d3 0B       		.byte	0xb
 1207 05d4 7201     		.2byte	0x172
 1208 05d6 7B040000 		.4byte	0x47b
 1209 05da 58       		.byte	0x58
 1210 05db 08       		.uleb128 0x8
 1211 05dc 72313100 		.ascii	"r11\000"
 1212 05e0 0B       		.byte	0xb
 1213 05e1 7301     		.2byte	0x173
 1214 05e3 7B040000 		.4byte	0x47b
 1215 05e7 5C       		.byte	0x5c
 1216 05e8 08       		.uleb128 0x8
 1217 05e9 6C7200   		.ascii	"lr\000"
 1218 05ec 0B       		.byte	0xb
 1219 05ed 7401     		.2byte	0x174
 1220 05ef 7B040000 		.4byte	0x47b
 1221 05f3 60       		.byte	0x60
 1222 05f4 00       		.byte	0
 1223 05f5 0A       		.uleb128 0xa
 1224 05f6 04       		.byte	0x4
 1225 05f7 A9040000 		.4byte	0x4a9
 1226 05fb 12       		.uleb128 0x12
 1227 05fc 60       		.byte	0x60
 1228 05fd 0C       		.byte	0xc
 1229 05fe A101     		.2byte	0x1a1
 1230 0600 07070000 		.4byte	0x707
 1231 0604 08       		.uleb128 0x8
 1232 0605 43523100 		.ascii	"CR1\000"
 1233 0609 0C       		.byte	0xc
 1234 060a A201     		.2byte	0x1a2
 1235 060c 56040000 		.4byte	0x456
 1236 0610 00       		.byte	0
 1237 0611 08       		.uleb128 0x8
 1238 0612 43523200 		.ascii	"CR2\000"
 1239 0616 0C       		.byte	0xc
 1240 0617 A301     		.2byte	0x1a3
 1241 0619 56040000 		.4byte	0x456
 1242 061d 04       		.byte	0x4
 1243 061e 09       		.uleb128 0x9
 1244 061f DE060000 		.4byte	.LASF78
 1245 0623 0C       		.byte	0xc
 1246 0624 A401     		.2byte	0x1a4
 1247 0626 56040000 		.4byte	0x456
 1248 062a 08       		.byte	0x8
 1249 062b 09       		.uleb128 0x9
 1250 062c 23000000 		.4byte	.LASF79
 1251 0630 0C       		.byte	0xc
 1252 0631 A501     		.2byte	0x1a5
 1253 0633 56040000 		.4byte	0x456
 1254 0637 0C       		.byte	0xc
ARM GAS  /tmp/ccSQlRC5.s 			page 23


 1255 0638 08       		.uleb128 0x8
 1256 0639 535200   		.ascii	"SR\000"
 1257 063c 0C       		.byte	0xc
 1258 063d A601     		.2byte	0x1a6
 1259 063f 56040000 		.4byte	0x456
 1260 0643 10       		.byte	0x10
 1261 0644 08       		.uleb128 0x8
 1262 0645 45475200 		.ascii	"EGR\000"
 1263 0649 0C       		.byte	0xc
 1264 064a A701     		.2byte	0x1a7
 1265 064c 56040000 		.4byte	0x456
 1266 0650 14       		.byte	0x14
 1267 0651 09       		.uleb128 0x9
 1268 0652 6B010000 		.4byte	.LASF80
 1269 0656 0C       		.byte	0xc
 1270 0657 A801     		.2byte	0x1a8
 1271 0659 56040000 		.4byte	0x456
 1272 065d 18       		.byte	0x18
 1273 065e 09       		.uleb128 0x9
 1274 065f 71010000 		.4byte	.LASF81
 1275 0663 0C       		.byte	0xc
 1276 0664 A901     		.2byte	0x1a9
 1277 0666 56040000 		.4byte	0x456
 1278 066a 1C       		.byte	0x1c
 1279 066b 09       		.uleb128 0x9
 1280 066c F8060000 		.4byte	.LASF82
 1281 0670 0C       		.byte	0xc
 1282 0671 AA01     		.2byte	0x1aa
 1283 0673 56040000 		.4byte	0x456
 1284 0677 20       		.byte	0x20
 1285 0678 08       		.uleb128 0x8
 1286 0679 434E5400 		.ascii	"CNT\000"
 1287 067d 0C       		.byte	0xc
 1288 067e AB01     		.2byte	0x1ab
 1289 0680 56040000 		.4byte	0x456
 1290 0684 24       		.byte	0x24
 1291 0685 08       		.uleb128 0x8
 1292 0686 50534300 		.ascii	"PSC\000"
 1293 068a 0C       		.byte	0xc
 1294 068b AC01     		.2byte	0x1ac
 1295 068d 56040000 		.4byte	0x456
 1296 0691 28       		.byte	0x28
 1297 0692 08       		.uleb128 0x8
 1298 0693 41525200 		.ascii	"ARR\000"
 1299 0697 0C       		.byte	0xc
 1300 0698 AD01     		.2byte	0x1ad
 1301 069a 56040000 		.4byte	0x456
 1302 069e 2C       		.byte	0x2c
 1303 069f 08       		.uleb128 0x8
 1304 06a0 52435200 		.ascii	"RCR\000"
 1305 06a4 0C       		.byte	0xc
 1306 06a5 AE01     		.2byte	0x1ae
 1307 06a7 56040000 		.4byte	0x456
 1308 06ab 30       		.byte	0x30
 1309 06ac 08       		.uleb128 0x8
 1310 06ad 43435200 		.ascii	"CCR\000"
 1311 06b1 0C       		.byte	0xc
ARM GAS  /tmp/ccSQlRC5.s 			page 24


 1312 06b2 AF01     		.2byte	0x1af
 1313 06b4 07070000 		.4byte	0x707
 1314 06b8 34       		.byte	0x34
 1315 06b9 09       		.uleb128 0x9
 1316 06ba 37010000 		.4byte	.LASF83
 1317 06be 0C       		.byte	0xc
 1318 06bf B001     		.2byte	0x1b0
 1319 06c1 56040000 		.4byte	0x456
 1320 06c5 44       		.byte	0x44
 1321 06c6 08       		.uleb128 0x8
 1322 06c7 44435200 		.ascii	"DCR\000"
 1323 06cb 0C       		.byte	0xc
 1324 06cc B101     		.2byte	0x1b1
 1325 06ce 56040000 		.4byte	0x456
 1326 06d2 48       		.byte	0x48
 1327 06d3 09       		.uleb128 0x9
 1328 06d4 EA060000 		.4byte	.LASF84
 1329 06d8 0C       		.byte	0xc
 1330 06d9 B201     		.2byte	0x1b2
 1331 06db 56040000 		.4byte	0x456
 1332 06df 4C       		.byte	0x4c
 1333 06e0 08       		.uleb128 0x8
 1334 06e1 4F5200   		.ascii	"OR\000"
 1335 06e4 0C       		.byte	0xc
 1336 06e5 B301     		.2byte	0x1b3
 1337 06e7 56040000 		.4byte	0x456
 1338 06eb 50       		.byte	0x50
 1339 06ec 09       		.uleb128 0x9
 1340 06ed 77010000 		.4byte	.LASF85
 1341 06f1 0C       		.byte	0xc
 1342 06f2 B401     		.2byte	0x1b4
 1343 06f4 56040000 		.4byte	0x456
 1344 06f8 54       		.byte	0x54
 1345 06f9 09       		.uleb128 0x9
 1346 06fa 85060000 		.4byte	.LASF86
 1347 06fe 0C       		.byte	0xc
 1348 06ff B501     		.2byte	0x1b5
 1349 0701 0C070000 		.4byte	0x70c
 1350 0705 58       		.byte	0x58
 1351 0706 00       		.byte	0
 1352 0707 0F       		.uleb128 0xf
 1353 0708 6B040000 		.4byte	0x46b
 1354 070c 0F       		.uleb128 0xf
 1355 070d 5B040000 		.4byte	0x45b
 1356 0711 13       		.uleb128 0x13
 1357 0712 F9030000 		.4byte	.LASF87
 1358 0716 0C       		.byte	0xc
 1359 0717 B601     		.2byte	0x1b6
 1360 0719 FB050000 		.4byte	0x5fb
 1361 071d 14       		.uleb128 0x14
 1362 071e 04       		.byte	0x4
 1363 071f 0D       		.byte	0xd
 1364 0720 38       		.byte	0x38
 1365 0721 32070000 		.4byte	0x732
 1366 0725 06       		.uleb128 0x6
 1367 0726 28070000 		.4byte	.LASF88
 1368 072a 0D       		.byte	0xd
ARM GAS  /tmp/ccSQlRC5.s 			page 25


 1369 072b 3C       		.byte	0x3c
 1370 072c C3000000 		.4byte	0xc3
 1371 0730 00       		.byte	0
 1372 0731 00       		.byte	0
 1373 0732 04       		.uleb128 0x4
 1374 0733 48050000 		.4byte	.LASF89
 1375 0737 0D       		.byte	0xd
 1376 0738 3D       		.byte	0x3d
 1377 0739 1D070000 		.4byte	0x71d
 1378 073d 14       		.uleb128 0x14
 1379 073e 18       		.byte	0x18
 1380 073f 0D       		.byte	0xd
 1381 0740 48       		.byte	0x48
 1382 0741 80070000 		.4byte	0x780
 1383 0745 06       		.uleb128 0x6
 1384 0746 99030000 		.4byte	.LASF90
 1385 074a 0D       		.byte	0xd
 1386 074b 49       		.byte	0x49
 1387 074c C3000000 		.4byte	0xc3
 1388 0750 00       		.byte	0
 1389 0751 06       		.uleb128 0x6
 1390 0752 D0000000 		.4byte	.LASF91
 1391 0756 0D       		.byte	0xd
 1392 0757 4A       		.byte	0x4a
 1393 0758 C3000000 		.4byte	0xc3
 1394 075c 04       		.byte	0x4
 1395 075d 06       		.uleb128 0x6
 1396 075e C4030000 		.4byte	.LASF92
 1397 0762 0D       		.byte	0xd
 1398 0763 4B       		.byte	0x4b
 1399 0764 C3000000 		.4byte	0xc3
 1400 0768 08       		.byte	0x8
 1401 0769 07       		.uleb128 0x7
 1402 076a 6E00     		.ascii	"n\000"
 1403 076c 0D       		.byte	0xd
 1404 076d 4C       		.byte	0x4c
 1405 076e 26010000 		.4byte	0x126
 1406 0772 0C       		.byte	0xc
 1407 0773 06       		.uleb128 0x6
 1408 0774 86050000 		.4byte	.LASF93
 1409 0778 0D       		.byte	0xd
 1410 0779 4D       		.byte	0x4d
 1411 077a CE000000 		.4byte	0xce
 1412 077e 10       		.byte	0x10
 1413 077f 00       		.byte	0
 1414 0780 04       		.uleb128 0x4
 1415 0781 58010000 		.4byte	.LASF94
 1416 0785 0D       		.byte	0xd
 1417 0786 4E       		.byte	0x4e
 1418 0787 3D070000 		.4byte	0x73d
 1419 078b 14       		.uleb128 0x14
 1420 078c 38       		.byte	0x38
 1421 078d 0E       		.byte	0xe
 1422 078e 38       		.byte	0x38
 1423 078f C4070000 		.4byte	0x7c4
 1424 0793 06       		.uleb128 0x6
 1425 0794 87030000 		.4byte	.LASF95
ARM GAS  /tmp/ccSQlRC5.s 			page 26


 1426 0798 0E       		.byte	0xe
 1427 0799 39       		.byte	0x39
 1428 079a 26010000 		.4byte	0x126
 1429 079e 00       		.byte	0
 1430 079f 06       		.uleb128 0x6
 1431 07a0 E0050000 		.4byte	.LASF96
 1432 07a4 0E       		.byte	0xe
 1433 07a5 3A       		.byte	0x3a
 1434 07a6 26010000 		.4byte	0x126
 1435 07aa 04       		.byte	0x4
 1436 07ab 06       		.uleb128 0x6
 1437 07ac 7B080000 		.4byte	.LASF97
 1438 07b0 0E       		.byte	0xe
 1439 07b1 3B       		.byte	0x3b
 1440 07b2 80070000 		.4byte	0x780
 1441 07b6 08       		.byte	0x8
 1442 07b7 06       		.uleb128 0x6
 1443 07b8 05040000 		.4byte	.LASF98
 1444 07bc 0E       		.byte	0xe
 1445 07bd 3D       		.byte	0x3d
 1446 07be 80070000 		.4byte	0x780
 1447 07c2 20       		.byte	0x20
 1448 07c3 00       		.byte	0
 1449 07c4 04       		.uleb128 0x4
 1450 07c5 AA030000 		.4byte	.LASF99
 1451 07c9 0E       		.byte	0xe
 1452 07ca 3F       		.byte	0x3f
 1453 07cb 8B070000 		.4byte	0x78b
 1454 07cf 15       		.uleb128 0x15
 1455 07d0 04       		.byte	0x4
 1456 07d1 09       		.byte	0x9
 1457 07d2 D2       		.byte	0xd2
 1458 07d3 32080000 		.4byte	0x832
 1459 07d7 16       		.uleb128 0x16
 1460 07d8 2B050000 		.4byte	.LASF100
 1461 07dc 09       		.byte	0x9
 1462 07dd D9       		.byte	0xd9
 1463 07de 05010000 		.4byte	0x105
 1464 07e2 16       		.uleb128 0x16
 1465 07e3 F8000000 		.4byte	.LASF101
 1466 07e7 09       		.byte	0x9
 1467 07e8 E0       		.byte	0xe0
 1468 07e9 05010000 		.4byte	0x105
 1469 07ed 16       		.uleb128 0x16
 1470 07ee 20080000 		.4byte	.LASF102
 1471 07f2 09       		.byte	0x9
 1472 07f3 E7       		.byte	0xe7
 1473 07f4 1A030000 		.4byte	0x31a
 1474 07f8 16       		.uleb128 0x16
 1475 07f9 28000000 		.4byte	.LASF103
 1476 07fd 09       		.byte	0x9
 1477 07fe EE       		.byte	0xee
 1478 07ff 32080000 		.4byte	0x832
 1479 0803 16       		.uleb128 0x16
 1480 0804 0C010000 		.4byte	.LASF104
 1481 0808 09       		.byte	0x9
 1482 0809 F3       		.byte	0xf3
ARM GAS  /tmp/ccSQlRC5.s 			page 27


 1483 080a 05010000 		.4byte	0x105
 1484 080e 16       		.uleb128 0x16
 1485 080f 5E030000 		.4byte	.LASF105
 1486 0813 09       		.byte	0x9
 1487 0814 FC       		.byte	0xfc
 1488 0815 5D080000 		.4byte	0x85d
 1489 0819 17       		.uleb128 0x17
 1490 081a 98060000 		.4byte	.LASF106
 1491 081e 09       		.byte	0x9
 1492 081f 0501     		.2byte	0x105
 1493 0821 94080000 		.4byte	0x894
 1494 0825 17       		.uleb128 0x17
 1495 0826 20060000 		.4byte	.LASF107
 1496 082a 09       		.byte	0x9
 1497 082b 0D01     		.2byte	0x10d
 1498 082d 10010000 		.4byte	0x110
 1499 0831 00       		.byte	0
 1500 0832 0A       		.uleb128 0xa
 1501 0833 04       		.byte	0x4
 1502 0834 32020000 		.4byte	0x232
 1503 0838 05       		.uleb128 0x5
 1504 0839 78060000 		.4byte	.LASF108
 1505 083d 0C       		.byte	0xc
 1506 083e 0F       		.byte	0xf
 1507 083f 34       		.byte	0x34
 1508 0840 5D080000 		.4byte	0x85d
 1509 0844 06       		.uleb128 0x6
 1510 0845 8D030000 		.4byte	.LASF29
 1511 0849 0F       		.byte	0xf
 1512 084a 35       		.byte	0x35
 1513 084b 67020000 		.4byte	0x267
 1514 084f 00       		.byte	0
 1515 0850 07       		.uleb128 0x7
 1516 0851 636E7400 		.ascii	"cnt\000"
 1517 0855 0F       		.byte	0xf
 1518 0856 37       		.byte	0x37
 1519 0857 1B010000 		.4byte	0x11b
 1520 085b 08       		.byte	0x8
 1521 085c 00       		.byte	0
 1522 085d 0A       		.uleb128 0xa
 1523 085e 04       		.byte	0x4
 1524 085f 38080000 		.4byte	0x838
 1525 0863 05       		.uleb128 0x5
 1526 0864 84070000 		.4byte	.LASF109
 1527 0868 10       		.byte	0x10
 1528 0869 10       		.byte	0x10
 1529 086a 39       		.byte	0x39
 1530 086b 94080000 		.4byte	0x894
 1531 086f 06       		.uleb128 0x6
 1532 0870 8D030000 		.4byte	.LASF29
 1533 0874 10       		.byte	0x10
 1534 0875 3A       		.byte	0x3a
 1535 0876 67020000 		.4byte	0x267
 1536 087a 00       		.byte	0
 1537 087b 06       		.uleb128 0x6
 1538 087c AF060000 		.4byte	.LASF110
 1539 0880 10       		.byte	0x10
ARM GAS  /tmp/ccSQlRC5.s 			page 28


 1540 0881 3C       		.byte	0x3c
 1541 0882 3D020000 		.4byte	0x23d
 1542 0886 08       		.byte	0x8
 1543 0887 06       		.uleb128 0x6
 1544 0888 2E000000 		.4byte	.LASF49
 1545 088c 10       		.byte	0x10
 1546 088d 3E       		.byte	0x3e
 1547 088e C8080000 		.4byte	0x8c8
 1548 0892 0C       		.byte	0xc
 1549 0893 00       		.byte	0
 1550 0894 0A       		.uleb128 0xa
 1551 0895 04       		.byte	0x4
 1552 0896 63080000 		.4byte	0x863
 1553 089a 0A       		.uleb128 0xa
 1554 089b 04       		.byte	0x4
 1555 089c A0080000 		.4byte	0x8a0
 1556 08a0 18       		.uleb128 0x18
 1557 08a1 A5080000 		.4byte	0x8a5
 1558 08a5 03       		.uleb128 0x3
 1559 08a6 01       		.byte	0x1
 1560 08a7 08       		.byte	0x8
 1561 08a8 CE060000 		.4byte	.LASF111
 1562 08ac 0A       		.uleb128 0xa
 1563 08ad 04       		.byte	0x4
 1564 08ae 86040000 		.4byte	0x486
 1565 08b2 0A       		.uleb128 0xa
 1566 08b3 04       		.byte	0x4
 1567 08b4 1C030000 		.4byte	0x31c
 1568 08b8 0F       		.uleb128 0xf
 1569 08b9 9A080000 		.4byte	0x89a
 1570 08bd 04       		.uleb128 0x4
 1571 08be 73080000 		.4byte	.LASF112
 1572 08c2 10       		.byte	0x10
 1573 08c3 34       		.byte	0x34
 1574 08c4 63080000 		.4byte	0x863
 1575 08c8 0A       		.uleb128 0xa
 1576 08c9 04       		.byte	0x4
 1577 08ca BD080000 		.4byte	0x8bd
 1578 08ce 03       		.uleb128 0x3
 1579 08cf 01       		.byte	0x1
 1580 08d0 02       		.byte	0x2
 1581 08d1 E9050000 		.4byte	.LASF113
 1582 08d5 0A       		.uleb128 0xa
 1583 08d6 04       		.byte	0x4
 1584 08d7 56040000 		.4byte	0x456
 1585 08db 19       		.uleb128 0x19
 1586 08dc 01       		.byte	0x1
 1587 08dd 11       		.byte	0x11
 1588 08de 31       		.byte	0x31
 1589 08df 02090000 		.4byte	0x902
 1590 08e3 1A       		.uleb128 0x1a
 1591 08e4 CD070000 		.4byte	.LASF114
 1592 08e8 00       		.sleb128 0
 1593 08e9 1A       		.uleb128 0x1a
 1594 08ea 3F050000 		.4byte	.LASF115
 1595 08ee 01       		.sleb128 1
 1596 08ef 1A       		.uleb128 0x1a
ARM GAS  /tmp/ccSQlRC5.s 			page 29


 1597 08f0 65040000 		.4byte	.LASF116
 1598 08f4 02       		.sleb128 2
 1599 08f5 1A       		.uleb128 0x1a
 1600 08f6 6C000000 		.4byte	.LASF117
 1601 08fa 03       		.sleb128 3
 1602 08fb 1A       		.uleb128 0x1a
 1603 08fc 78000000 		.4byte	.LASF118
 1604 0900 04       		.sleb128 4
 1605 0901 00       		.byte	0
 1606 0902 04       		.uleb128 0x4
 1607 0903 D6000000 		.4byte	.LASF119
 1608 0907 11       		.byte	0x11
 1609 0908 37       		.byte	0x37
 1610 0909 DB080000 		.4byte	0x8db
 1611 090d 04       		.uleb128 0x4
 1612 090e EF030000 		.4byte	.LASF120
 1613 0912 11       		.byte	0x11
 1614 0913 3C       		.byte	0x3c
 1615 0914 18090000 		.4byte	0x918
 1616 0918 0B       		.uleb128 0xb
 1617 0919 EF030000 		.4byte	.LASF120
 1618 091d 18       		.byte	0x18
 1619 091e 12       		.byte	0x12
 1620 091f 6B01     		.2byte	0x16b
 1621 0921 74090000 		.4byte	0x974
 1622 0925 09       		.uleb128 0x9
 1623 0926 E4010000 		.4byte	.LASF35
 1624 092a 12       		.byte	0x12
 1625 092b 6F01     		.2byte	0x16f
 1626 092d 02090000 		.4byte	0x902
 1627 0931 00       		.byte	0
 1628 0932 09       		.uleb128 0x9
 1629 0933 E3060000 		.4byte	.LASF121
 1630 0937 12       		.byte	0x12
 1631 0938 7301     		.2byte	0x173
 1632 093a 570A0000 		.4byte	0xa57
 1633 093e 04       		.byte	0x4
 1634 093f 09       		.uleb128 0x9
 1635 0940 67080000 		.4byte	.LASF122
 1636 0944 12       		.byte	0x12
 1637 0945 7B01     		.2byte	0x17b
 1638 0947 AD000000 		.4byte	0xad
 1639 094b 08       		.byte	0x8
 1640 094c 08       		.uleb128 0x8
 1641 094d 74696D00 		.ascii	"tim\000"
 1642 0951 12       		.byte	0x12
 1643 0952 7F01     		.2byte	0x17f
 1644 0954 620A0000 		.4byte	0xa62
 1645 0958 0C       		.byte	0xc
 1646 0959 09       		.uleb128 0x9
 1647 095a 6D080000 		.4byte	.LASF123
 1648 095e 12       		.byte	0x12
 1649 095f 8301     		.2byte	0x183
 1650 0961 D5080000 		.4byte	0x8d5
 1651 0965 10       		.byte	0x10
 1652 0966 09       		.uleb128 0x9
 1653 0967 B0050000 		.4byte	.LASF124
ARM GAS  /tmp/ccSQlRC5.s 			page 30


 1654 096b 12       		.byte	0x12
 1655 096c 8701     		.2byte	0x187
 1656 096e D5080000 		.4byte	0x8d5
 1657 0972 14       		.byte	0x14
 1658 0973 00       		.byte	0
 1659 0974 04       		.uleb128 0x4
 1660 0975 65030000 		.4byte	.LASF125
 1661 0979 11       		.byte	0x11
 1662 097a 43       		.byte	0x43
 1663 097b 7F090000 		.4byte	0x97f
 1664 097f 0A       		.uleb128 0xa
 1665 0980 04       		.byte	0x4
 1666 0981 85090000 		.4byte	0x985
 1667 0985 0C       		.uleb128 0xc
 1668 0986 90090000 		.4byte	0x990
 1669 098a 0D       		.uleb128 0xd
 1670 098b 90090000 		.4byte	0x990
 1671 098f 00       		.byte	0
 1672 0990 0A       		.uleb128 0xa
 1673 0991 04       		.byte	0x4
 1674 0992 0D090000 		.4byte	0x90d
 1675 0996 1B       		.uleb128 0x1b
 1676 0997 01       		.byte	0x1
 1677 0998 12       		.byte	0x12
 1678 0999 2801     		.2byte	0x128
 1679 099b AC090000 		.4byte	0x9ac
 1680 099f 1A       		.uleb128 0x1a
 1681 09a0 00000000 		.4byte	.LASF126
 1682 09a4 00       		.sleb128 0
 1683 09a5 1A       		.uleb128 0x1a
 1684 09a6 59050000 		.4byte	.LASF127
 1685 09aa 01       		.sleb128 1
 1686 09ab 00       		.byte	0
 1687 09ac 13       		.uleb128 0x13
 1688 09ad 05060000 		.4byte	.LASF128
 1689 09b1 12       		.byte	0x12
 1690 09b2 2B01     		.2byte	0x12b
 1691 09b4 96090000 		.4byte	0x996
 1692 09b8 13       		.uleb128 0x13
 1693 09b9 59070000 		.4byte	.LASF129
 1694 09bd 12       		.byte	0x12
 1695 09be 3001     		.2byte	0x130
 1696 09c0 AD000000 		.4byte	0xad
 1697 09c4 1B       		.uleb128 0x1b
 1698 09c5 01       		.byte	0x1
 1699 09c6 12       		.byte	0x12
 1700 09c7 3501     		.2byte	0x135
 1701 09c9 DA090000 		.4byte	0x9da
 1702 09cd 1A       		.uleb128 0x1a
 1703 09ce D8070000 		.4byte	.LASF130
 1704 09d2 00       		.sleb128 0
 1705 09d3 1A       		.uleb128 0x1a
 1706 09d4 E6070000 		.4byte	.LASF131
 1707 09d8 01       		.sleb128 1
 1708 09d9 00       		.byte	0
 1709 09da 13       		.uleb128 0x13
 1710 09db 52060000 		.4byte	.LASF132
ARM GAS  /tmp/ccSQlRC5.s 			page 31


 1711 09df 12       		.byte	0x12
 1712 09e0 3801     		.2byte	0x138
 1713 09e2 C4090000 		.4byte	0x9c4
 1714 09e6 12       		.uleb128 0x12
 1715 09e7 1C       		.byte	0x1c
 1716 09e8 12       		.byte	0x12
 1717 09e9 4301     		.2byte	0x143
 1718 09eb 4B0A0000 		.4byte	0xa4b
 1719 09ef 09       		.uleb128 0x9
 1720 09f0 D9060000 		.4byte	.LASF133
 1721 09f4 12       		.byte	0x12
 1722 09f5 4701     		.2byte	0x147
 1723 09f7 AC090000 		.4byte	0x9ac
 1724 09fb 00       		.byte	0
 1725 09fc 09       		.uleb128 0x9
 1726 09fd C9030000 		.4byte	.LASF134
 1727 0a01 12       		.byte	0x12
 1728 0a02 4D01     		.2byte	0x14d
 1729 0a04 B8090000 		.4byte	0x9b8
 1730 0a08 04       		.byte	0x4
 1731 0a09 09       		.uleb128 0x9
 1732 0a0a 22050000 		.4byte	.LASF135
 1733 0a0e 12       		.byte	0x12
 1734 0a0f 5101     		.2byte	0x151
 1735 0a11 74090000 		.4byte	0x974
 1736 0a15 08       		.byte	0x8
 1737 0a16 09       		.uleb128 0x9
 1738 0a17 7D030000 		.4byte	.LASF136
 1739 0a1b 12       		.byte	0x12
 1740 0a1c 5501     		.2byte	0x155
 1741 0a1e 74090000 		.4byte	0x974
 1742 0a22 0C       		.byte	0xc
 1743 0a23 09       		.uleb128 0x9
 1744 0a24 9E030000 		.4byte	.LASF137
 1745 0a28 12       		.byte	0x12
 1746 0a29 5901     		.2byte	0x159
 1747 0a2b 74090000 		.4byte	0x974
 1748 0a2f 10       		.byte	0x10
 1749 0a30 09       		.uleb128 0x9
 1750 0a31 5F060000 		.4byte	.LASF138
 1751 0a35 12       		.byte	0x12
 1752 0a36 5F01     		.2byte	0x15f
 1753 0a38 DA090000 		.4byte	0x9da
 1754 0a3c 14       		.byte	0x14
 1755 0a3d 09       		.uleb128 0x9
 1756 0a3e 8D080000 		.4byte	.LASF139
 1757 0a42 12       		.byte	0x12
 1758 0a43 6501     		.2byte	0x165
 1759 0a45 AD000000 		.4byte	0xad
 1760 0a49 18       		.byte	0x18
 1761 0a4a 00       		.byte	0
 1762 0a4b 13       		.uleb128 0x13
 1763 0a4c 89010000 		.4byte	.LASF140
 1764 0a50 12       		.byte	0x12
 1765 0a51 6601     		.2byte	0x166
 1766 0a53 E6090000 		.4byte	0x9e6
 1767 0a57 0A       		.uleb128 0xa
ARM GAS  /tmp/ccSQlRC5.s 			page 32


 1768 0a58 04       		.byte	0x4
 1769 0a59 5D0A0000 		.4byte	0xa5d
 1770 0a5d 18       		.uleb128 0x18
 1771 0a5e 4B0A0000 		.4byte	0xa4b
 1772 0a62 0A       		.uleb128 0xa
 1773 0a63 04       		.byte	0x4
 1774 0a64 11070000 		.4byte	0x711
 1775 0a68 1C       		.uleb128 0x1c
 1776 0a69 10070000 		.4byte	.LASF169
 1777 0a6d 02       		.byte	0x2
 1778 0a6e 0601     		.2byte	0x106
 1779 0a70 03       		.byte	0x3
 1780 0a71 820A0000 		.4byte	0xa82
 1781 0a75 1D       		.uleb128 0x1d
 1782 0a76 56020000 		.4byte	.LASF170
 1783 0a7a 02       		.byte	0x2
 1784 0a7b 0601     		.2byte	0x106
 1785 0a7d AD000000 		.4byte	0xad
 1786 0a81 00       		.byte	0
 1787 0a82 1E       		.uleb128 0x1e
 1788 0a83 C6000000 		.4byte	.LASF141
 1789 0a87 0B       		.byte	0xb
 1790 0a88 5202     		.2byte	0x252
 1791 0a8a 03       		.byte	0x3
 1792 0a8b 1E       		.uleb128 0x1e
 1793 0a8c CF010000 		.4byte	.LASF142
 1794 0a90 0B       		.byte	0xb
 1795 0a91 6A02     		.2byte	0x26a
 1796 0a93 03       		.byte	0x3
 1797 0a94 1E       		.uleb128 0x1e
 1798 0a95 3C020000 		.4byte	.LASF143
 1799 0a99 04       		.byte	0x4
 1800 0a9a EB01     		.2byte	0x1eb
 1801 0a9c 03       		.byte	0x3
 1802 0a9d 1E       		.uleb128 0x1e
 1803 0a9e 44060000 		.4byte	.LASF144
 1804 0aa2 04       		.byte	0x4
 1805 0aa3 F601     		.2byte	0x1f6
 1806 0aa5 03       		.byte	0x3
 1807 0aa6 1F       		.uleb128 0x1f
 1808 0aa7 3A060000 		.4byte	.LASF145
 1809 0aab 01       		.byte	0x1
 1810 0aac 7601     		.2byte	0x176
 1811 0aae 00000000 		.4byte	.LFB167
 1812 0ab2 0A000000 		.4byte	.LFE167-.LFB167
 1813 0ab6 01       		.uleb128 0x1
 1814 0ab7 9C       		.byte	0x9c
 1815 0ab8 F20A0000 		.4byte	0xaf2
 1816 0abc 20       		.uleb128 0x20
 1817 0abd 820A0000 		.4byte	0xa82
 1818 0ac1 00000000 		.4byte	.LBB42
 1819 0ac5 06000000 		.4byte	.LBE42-.LBB42
 1820 0ac9 01       		.byte	0x1
 1821 0aca 7801     		.2byte	0x178
 1822 0acc E80A0000 		.4byte	0xae8
 1823 0ad0 21       		.uleb128 0x21
 1824 0ad1 680A0000 		.4byte	0xa68
ARM GAS  /tmp/ccSQlRC5.s 			page 33


 1825 0ad5 00000000 		.4byte	.LBB43
 1826 0ad9 06000000 		.4byte	.LBE43-.LBB43
 1827 0add 0B       		.byte	0xb
 1828 0ade 5A02     		.2byte	0x25a
 1829 0ae0 22       		.uleb128 0x22
 1830 0ae1 750A0000 		.4byte	0xa75
 1831 0ae5 20       		.byte	0x20
 1832 0ae6 00       		.byte	0
 1833 0ae7 00       		.byte	0
 1834 0ae8 23       		.uleb128 0x23
 1835 0ae9 0A000000 		.4byte	.LVL1
 1836 0aed A70F0000 		.4byte	0xfa7
 1837 0af1 00       		.byte	0
 1838 0af2 1F       		.uleb128 0x1f
 1839 0af3 5B080000 		.4byte	.LASF146
 1840 0af7 01       		.byte	0x1
 1841 0af8 8201     		.2byte	0x182
 1842 0afa 00000000 		.4byte	.LFB168
 1843 0afe 0E000000 		.4byte	.LFE168-.LFB168
 1844 0b02 01       		.uleb128 0x1
 1845 0b03 9C       		.byte	0x9c
 1846 0b04 470B0000 		.4byte	0xb47
 1847 0b08 24       		.uleb128 0x24
 1848 0b09 31060000 		.4byte	.LASF151
 1849 0b0d 570B0000 		.4byte	0xb57
 1850 0b11 20       		.uleb128 0x20
 1851 0b12 8B0A0000 		.4byte	0xa8b
 1852 0b16 06000000 		.4byte	.LBB45
 1853 0b1a 08000000 		.4byte	.LBE45-.LBB45
 1854 0b1e 01       		.byte	0x1
 1855 0b1f 8F01     		.2byte	0x18f
 1856 0b21 3D0B0000 		.4byte	0xb3d
 1857 0b25 21       		.uleb128 0x21
 1858 0b26 680A0000 		.4byte	0xa68
 1859 0b2a 06000000 		.4byte	.LBB46
 1860 0b2e 08000000 		.4byte	.LBE46-.LBB46
 1861 0b32 0B       		.byte	0xb
 1862 0b33 6D02     		.2byte	0x26d
 1863 0b35 22       		.uleb128 0x22
 1864 0b36 750A0000 		.4byte	0xa75
 1865 0b3a 00       		.byte	0
 1866 0b3b 00       		.byte	0
 1867 0b3c 00       		.byte	0
 1868 0b3d 25       		.uleb128 0x25
 1869 0b3e 06000000 		.4byte	.LVL2
 1870 0b42 AE0F0000 		.4byte	0xfae
 1871 0b46 00       		.byte	0
 1872 0b47 10       		.uleb128 0x10
 1873 0b48 A5080000 		.4byte	0x8a5
 1874 0b4c 570B0000 		.4byte	0xb57
 1875 0b50 11       		.uleb128 0x11
 1876 0b51 4F040000 		.4byte	0x44f
 1877 0b55 0B       		.byte	0xb
 1878 0b56 00       		.byte	0
 1879 0b57 18       		.uleb128 0x18
 1880 0b58 470B0000 		.4byte	0xb47
 1881 0b5c 26       		.uleb128 0x26
ARM GAS  /tmp/ccSQlRC5.s 			page 34


 1882 0b5d BE000000 		.4byte	.LASF147
 1883 0b61 03       		.byte	0x3
 1884 0b62 38       		.byte	0x38
 1885 0b63 00000000 		.4byte	.LFB277
 1886 0b67 04000000 		.4byte	.LFE277-.LFB277
 1887 0b6b 01       		.uleb128 0x1
 1888 0b6c 9C       		.byte	0x9c
 1889 0b6d 7B0B0000 		.4byte	0xb7b
 1890 0b71 23       		.uleb128 0x23
 1891 0b72 04000000 		.4byte	.LVL3
 1892 0b76 B50F0000 		.4byte	0xfb5
 1893 0b7a 00       		.byte	0
 1894 0b7b 26       		.uleb128 0x26
 1895 0b7c 8A060000 		.4byte	.LASF148
 1896 0b80 03       		.byte	0x3
 1897 0b81 44       		.byte	0x44
 1898 0b82 00000000 		.4byte	.LFB278
 1899 0b86 0A000000 		.4byte	.LFE278-.LFB278
 1900 0b8a 01       		.uleb128 0x1
 1901 0b8b 9C       		.byte	0x9c
 1902 0b8c 9E0B0000 		.4byte	0xb9e
 1903 0b90 27       		.uleb128 0x27
 1904 0b91 DB050000 		.4byte	.LASF150
 1905 0b95 03       		.byte	0x3
 1906 0b96 44       		.byte	0x44
 1907 0b97 90090000 		.4byte	0x990
 1908 0b9b 01       		.uleb128 0x1
 1909 0b9c 50       		.byte	0x50
 1910 0b9d 00       		.byte	0
 1911 0b9e 26       		.uleb128 0x26
 1912 0b9f 07020000 		.4byte	.LASF149
 1913 0ba3 03       		.byte	0x3
 1914 0ba4 52       		.byte	0x52
 1915 0ba5 00000000 		.4byte	.LFB279
 1916 0ba9 1E000000 		.4byte	.LFE279-.LFB279
 1917 0bad 01       		.uleb128 0x1
 1918 0bae 9C       		.byte	0x9c
 1919 0baf 250C0000 		.4byte	0xc25
 1920 0bb3 28       		.uleb128 0x28
 1921 0bb4 DB050000 		.4byte	.LASF150
 1922 0bb8 03       		.byte	0x3
 1923 0bb9 52       		.byte	0x52
 1924 0bba 90090000 		.4byte	0x990
 1925 0bbe 00000000 		.4byte	.LLST0
 1926 0bc2 28       		.uleb128 0x28
 1927 0bc3 E3060000 		.4byte	.LASF121
 1928 0bc7 03       		.byte	0x3
 1929 0bc8 52       		.byte	0x52
 1930 0bc9 570A0000 		.4byte	0xa57
 1931 0bcd 2C000000 		.4byte	.LLST1
 1932 0bd1 24       		.uleb128 0x24
 1933 0bd2 31060000 		.4byte	.LASF151
 1934 0bd6 350C0000 		.4byte	0xc35
 1935 0bda 29       		.uleb128 0x29
 1936 0bdb 940A0000 		.4byte	0xa94
 1937 0bdf 06000000 		.4byte	.LBB48
 1938 0be3 04000000 		.4byte	.LBE48-.LBB48
ARM GAS  /tmp/ccSQlRC5.s 			page 35


 1939 0be7 03       		.byte	0x3
 1940 0be8 56       		.byte	0x56
 1941 0be9 F70B0000 		.4byte	0xbf7
 1942 0bed 25       		.uleb128 0x25
 1943 0bee 0A000000 		.4byte	.LVL6
 1944 0bf2 A60A0000 		.4byte	0xaa6
 1945 0bf6 00       		.byte	0
 1946 0bf7 29       		.uleb128 0x29
 1947 0bf8 9D0A0000 		.4byte	0xa9d
 1948 0bfc 1A000000 		.4byte	.LBB50
 1949 0c00 04000000 		.4byte	.LBE50-.LBB50
 1950 0c04 03       		.byte	0x3
 1951 0c05 5C       		.byte	0x5c
 1952 0c06 140C0000 		.4byte	0xc14
 1953 0c0a 23       		.uleb128 0x23
 1954 0c0b 1E000000 		.4byte	.LVL9
 1955 0c0f F20A0000 		.4byte	0xaf2
 1956 0c13 00       		.byte	0
 1957 0c14 2A       		.uleb128 0x2a
 1958 0c15 12000000 		.4byte	.LVL7
 1959 0c19 BD0F0000 		.4byte	0xfbd
 1960 0c1d 2B       		.uleb128 0x2b
 1961 0c1e 01       		.uleb128 0x1
 1962 0c1f 50       		.byte	0x50
 1963 0c20 02       		.uleb128 0x2
 1964 0c21 74       		.byte	0x74
 1965 0c22 00       		.sleb128 0
 1966 0c23 00       		.byte	0
 1967 0c24 00       		.byte	0
 1968 0c25 10       		.uleb128 0x10
 1969 0c26 A5080000 		.4byte	0x8a5
 1970 0c2a 350C0000 		.4byte	0xc35
 1971 0c2e 11       		.uleb128 0x11
 1972 0c2f 4F040000 		.4byte	0x44f
 1973 0c33 08       		.byte	0x8
 1974 0c34 00       		.byte	0
 1975 0c35 18       		.uleb128 0x18
 1976 0c36 250C0000 		.4byte	0xc25
 1977 0c3a 26       		.uleb128 0x26
 1978 0c3b 18060000 		.4byte	.LASF152
 1979 0c3f 03       		.byte	0x3
 1980 0c40 66       		.byte	0x66
 1981 0c41 00000000 		.4byte	.LFB280
 1982 0c45 1E000000 		.4byte	.LFE280-.LFB280
 1983 0c49 01       		.uleb128 0x1
 1984 0c4a 9C       		.byte	0x9c
 1985 0c4b B20C0000 		.4byte	0xcb2
 1986 0c4f 28       		.uleb128 0x28
 1987 0c50 DB050000 		.4byte	.LASF150
 1988 0c54 03       		.byte	0x3
 1989 0c55 66       		.byte	0x66
 1990 0c56 90090000 		.4byte	0x990
 1991 0c5a 58000000 		.4byte	.LLST2
 1992 0c5e 24       		.uleb128 0x24
 1993 0c5f 31060000 		.4byte	.LASF151
 1994 0c63 C20C0000 		.4byte	0xcc2
 1995 0c67 29       		.uleb128 0x29
ARM GAS  /tmp/ccSQlRC5.s 			page 36


 1996 0c68 940A0000 		.4byte	0xa94
 1997 0c6c 04000000 		.4byte	.LBB52
 1998 0c70 04000000 		.4byte	.LBE52-.LBB52
 1999 0c74 03       		.byte	0x3
 2000 0c75 6A       		.byte	0x6a
 2001 0c76 840C0000 		.4byte	0xc84
 2002 0c7a 25       		.uleb128 0x25
 2003 0c7b 08000000 		.4byte	.LVL11
 2004 0c7f A60A0000 		.4byte	0xaa6
 2005 0c83 00       		.byte	0
 2006 0c84 29       		.uleb128 0x29
 2007 0c85 9D0A0000 		.4byte	0xa9d
 2008 0c89 1A000000 		.4byte	.LBB54
 2009 0c8d 04000000 		.4byte	.LBE54-.LBB54
 2010 0c91 03       		.byte	0x3
 2011 0c92 73       		.byte	0x73
 2012 0c93 A10C0000 		.4byte	0xca1
 2013 0c97 23       		.uleb128 0x23
 2014 0c98 1E000000 		.4byte	.LVL14
 2015 0c9c F20A0000 		.4byte	0xaf2
 2016 0ca0 00       		.byte	0
 2017 0ca1 2A       		.uleb128 0x2a
 2018 0ca2 0E000000 		.4byte	.LVL12
 2019 0ca6 CF0F0000 		.4byte	0xfcf
 2020 0caa 2B       		.uleb128 0x2b
 2021 0cab 01       		.uleb128 0x1
 2022 0cac 50       		.byte	0x50
 2023 0cad 02       		.uleb128 0x2
 2024 0cae 74       		.byte	0x74
 2025 0caf 00       		.sleb128 0
 2026 0cb0 00       		.byte	0
 2027 0cb1 00       		.byte	0
 2028 0cb2 10       		.uleb128 0x10
 2029 0cb3 A5080000 		.4byte	0x8a5
 2030 0cb7 C20C0000 		.4byte	0xcc2
 2031 0cbb 11       		.uleb128 0x11
 2032 0cbc 4F040000 		.4byte	0x44f
 2033 0cc0 07       		.byte	0x7
 2034 0cc1 00       		.byte	0
 2035 0cc2 18       		.uleb128 0x18
 2036 0cc3 B20C0000 		.4byte	0xcb2
 2037 0cc7 26       		.uleb128 0x26
 2038 0cc8 2F070000 		.4byte	.LASF153
 2039 0ccc 03       		.byte	0x3
 2040 0ccd 7D       		.byte	0x7d
 2041 0cce 00000000 		.4byte	.LFB281
 2042 0cd2 1A000000 		.4byte	.LFE281-.LFB281
 2043 0cd6 01       		.uleb128 0x1
 2044 0cd7 9C       		.byte	0x9c
 2045 0cd8 3F0D0000 		.4byte	0xd3f
 2046 0cdc 28       		.uleb128 0x28
 2047 0cdd DB050000 		.4byte	.LASF150
 2048 0ce1 03       		.byte	0x3
 2049 0ce2 7D       		.byte	0x7d
 2050 0ce3 90090000 		.4byte	0x990
 2051 0ce7 84000000 		.4byte	.LLST3
 2052 0ceb 24       		.uleb128 0x24
ARM GAS  /tmp/ccSQlRC5.s 			page 37


 2053 0cec 31060000 		.4byte	.LASF151
 2054 0cf0 4F0D0000 		.4byte	0xd4f
 2055 0cf4 29       		.uleb128 0x29
 2056 0cf5 940A0000 		.4byte	0xa94
 2057 0cf9 04000000 		.4byte	.LBB56
 2058 0cfd 04000000 		.4byte	.LBE56-.LBB56
 2059 0d01 03       		.byte	0x3
 2060 0d02 81       		.byte	0x81
 2061 0d03 110D0000 		.4byte	0xd11
 2062 0d07 25       		.uleb128 0x25
 2063 0d08 08000000 		.4byte	.LVL16
 2064 0d0c A60A0000 		.4byte	0xaa6
 2065 0d10 00       		.byte	0
 2066 0d11 29       		.uleb128 0x29
 2067 0d12 9D0A0000 		.4byte	0xa9d
 2068 0d16 16000000 		.4byte	.LBB58
 2069 0d1a 04000000 		.4byte	.LBE58-.LBB58
 2070 0d1e 03       		.byte	0x3
 2071 0d1f 84       		.byte	0x84
 2072 0d20 2E0D0000 		.4byte	0xd2e
 2073 0d24 23       		.uleb128 0x23
 2074 0d25 1A000000 		.4byte	.LVL19
 2075 0d29 F20A0000 		.4byte	0xaf2
 2076 0d2d 00       		.byte	0
 2077 0d2e 2A       		.uleb128 0x2a
 2078 0d2f 0E000000 		.4byte	.LVL17
 2079 0d33 E10F0000 		.4byte	0xfe1
 2080 0d37 2B       		.uleb128 0x2b
 2081 0d38 01       		.uleb128 0x1
 2082 0d39 50       		.byte	0x50
 2083 0d3a 02       		.uleb128 0x2
 2084 0d3b 74       		.byte	0x74
 2085 0d3c 00       		.sleb128 0
 2086 0d3d 00       		.byte	0
 2087 0d3e 00       		.byte	0
 2088 0d3f 10       		.uleb128 0x10
 2089 0d40 A5080000 		.4byte	0x8a5
 2090 0d44 4F0D0000 		.4byte	0xd4f
 2091 0d48 11       		.uleb128 0x11
 2092 0d49 4F040000 		.4byte	0x44f
 2093 0d4d 0F       		.byte	0xf
 2094 0d4e 00       		.byte	0
 2095 0d4f 18       		.uleb128 0x18
 2096 0d50 3F0D0000 		.4byte	0xd3f
 2097 0d54 2C       		.uleb128 0x2c
 2098 0d55 56040000 		.4byte	.LASF171
 2099 0d59 03       		.byte	0x3
 2100 0d5a 97       		.byte	0x97
 2101 0d5b CE080000 		.4byte	0x8ce
 2102 0d5f 00000000 		.4byte	.LFB282
 2103 0d63 22000000 		.4byte	.LFE282-.LFB282
 2104 0d67 01       		.uleb128 0x1
 2105 0d68 9C       		.byte	0x9c
 2106 0d69 DF0D0000 		.4byte	0xddf
 2107 0d6d 28       		.uleb128 0x28
 2108 0d6e DB050000 		.4byte	.LASF150
 2109 0d72 03       		.byte	0x3
ARM GAS  /tmp/ccSQlRC5.s 			page 38


 2110 0d73 97       		.byte	0x97
 2111 0d74 90090000 		.4byte	0x990
 2112 0d78 B0000000 		.4byte	.LLST4
 2113 0d7c 2D       		.uleb128 0x2d
 2114 0d7d 86080000 		.4byte	.LASF172
 2115 0d81 03       		.byte	0x3
 2116 0d82 98       		.byte	0x98
 2117 0d83 CE080000 		.4byte	0x8ce
 2118 0d87 CE000000 		.4byte	.LLST5
 2119 0d8b 24       		.uleb128 0x24
 2120 0d8c 31060000 		.4byte	.LASF151
 2121 0d90 EF0D0000 		.4byte	0xdef
 2122 0d94 29       		.uleb128 0x29
 2123 0d95 940A0000 		.4byte	0xa94
 2124 0d99 04000000 		.4byte	.LBB60
 2125 0d9d 04000000 		.4byte	.LBE60-.LBB60
 2126 0da1 03       		.byte	0x3
 2127 0da2 9C       		.byte	0x9c
 2128 0da3 B10D0000 		.4byte	0xdb1
 2129 0da7 25       		.uleb128 0x25
 2130 0da8 08000000 		.4byte	.LVL21
 2131 0dac A60A0000 		.4byte	0xaa6
 2132 0db0 00       		.byte	0
 2133 0db1 29       		.uleb128 0x29
 2134 0db2 9D0A0000 		.4byte	0xa9d
 2135 0db6 1A000000 		.4byte	.LBB62
 2136 0dba 04000000 		.4byte	.LBE62-.LBB62
 2137 0dbe 03       		.byte	0x3
 2138 0dbf A3       		.byte	0xa3
 2139 0dc0 CE0D0000 		.4byte	0xdce
 2140 0dc4 25       		.uleb128 0x25
 2141 0dc5 1E000000 		.4byte	.LVL23
 2142 0dc9 F20A0000 		.4byte	0xaf2
 2143 0dcd 00       		.byte	0
 2144 0dce 2A       		.uleb128 0x2a
 2145 0dcf 0E000000 		.4byte	.LVL22
 2146 0dd3 F30F0000 		.4byte	0xff3
 2147 0dd7 2B       		.uleb128 0x2b
 2148 0dd8 01       		.uleb128 0x1
 2149 0dd9 50       		.byte	0x50
 2150 0dda 02       		.uleb128 0x2
 2151 0ddb 75       		.byte	0x75
 2152 0ddc 00       		.sleb128 0
 2153 0ddd 00       		.byte	0
 2154 0dde 00       		.byte	0
 2155 0ddf 10       		.uleb128 0x10
 2156 0de0 A5080000 		.4byte	0x8a5
 2157 0de4 EF0D0000 		.4byte	0xdef
 2158 0de8 11       		.uleb128 0x11
 2159 0de9 4F040000 		.4byte	0x44f
 2160 0ded 0E       		.byte	0xe
 2161 0dee 00       		.byte	0
 2162 0def 18       		.uleb128 0x18
 2163 0df0 DF0D0000 		.4byte	0xddf
 2164 0df4 26       		.uleb128 0x26
 2165 0df5 36080000 		.4byte	.LASF154
 2166 0df9 03       		.byte	0x3
ARM GAS  /tmp/ccSQlRC5.s 			page 39


 2167 0dfa AF       		.byte	0xaf
 2168 0dfb 00000000 		.4byte	.LFB283
 2169 0dff 1A000000 		.4byte	.LFE283-.LFB283
 2170 0e03 01       		.uleb128 0x1
 2171 0e04 9C       		.byte	0x9c
 2172 0e05 6C0E0000 		.4byte	0xe6c
 2173 0e09 28       		.uleb128 0x28
 2174 0e0a DB050000 		.4byte	.LASF150
 2175 0e0e 03       		.byte	0x3
 2176 0e0f AF       		.byte	0xaf
 2177 0e10 90090000 		.4byte	0x990
 2178 0e14 E1000000 		.4byte	.LLST6
 2179 0e18 24       		.uleb128 0x24
 2180 0e19 31060000 		.4byte	.LASF151
 2181 0e1d 6C0E0000 		.4byte	0xe6c
 2182 0e21 29       		.uleb128 0x29
 2183 0e22 940A0000 		.4byte	0xa94
 2184 0e26 04000000 		.4byte	.LBB64
 2185 0e2a 04000000 		.4byte	.LBE64-.LBB64
 2186 0e2e 03       		.byte	0x3
 2187 0e2f B3       		.byte	0xb3
 2188 0e30 3E0E0000 		.4byte	0xe3e
 2189 0e34 25       		.uleb128 0x25
 2190 0e35 08000000 		.4byte	.LVL25
 2191 0e39 A60A0000 		.4byte	0xaa6
 2192 0e3d 00       		.byte	0
 2193 0e3e 29       		.uleb128 0x29
 2194 0e3f 9D0A0000 		.4byte	0xa9d
 2195 0e43 16000000 		.4byte	.LBB66
 2196 0e47 04000000 		.4byte	.LBE66-.LBB66
 2197 0e4b 03       		.byte	0x3
 2198 0e4c B8       		.byte	0xb8
 2199 0e4d 5B0E0000 		.4byte	0xe5b
 2200 0e51 23       		.uleb128 0x23
 2201 0e52 1A000000 		.4byte	.LVL28
 2202 0e56 F20A0000 		.4byte	0xaf2
 2203 0e5a 00       		.byte	0
 2204 0e5b 2A       		.uleb128 0x2a
 2205 0e5c 0E000000 		.4byte	.LVL26
 2206 0e60 09100000 		.4byte	0x1009
 2207 0e64 2B       		.uleb128 0x2b
 2208 0e65 01       		.uleb128 0x1
 2209 0e66 50       		.byte	0x50
 2210 0e67 02       		.uleb128 0x2
 2211 0e68 74       		.byte	0x74
 2212 0e69 00       		.sleb128 0
 2213 0e6a 00       		.byte	0
 2214 0e6b 00       		.byte	0
 2215 0e6c 18       		.uleb128 0x18
 2216 0e6d DF0D0000 		.4byte	0xddf
 2217 0e71 26       		.uleb128 0x26
 2218 0e72 91050000 		.4byte	.LASF155
 2219 0e76 03       		.byte	0x3
 2220 0e77 C4       		.byte	0xc4
 2221 0e78 00000000 		.4byte	.LFB284
 2222 0e7c 16000000 		.4byte	.LFE284-.LFB284
 2223 0e80 01       		.uleb128 0x1
ARM GAS  /tmp/ccSQlRC5.s 			page 40


 2224 0e81 9C       		.byte	0x9c
 2225 0e82 E90E0000 		.4byte	0xee9
 2226 0e86 28       		.uleb128 0x28
 2227 0e87 DB050000 		.4byte	.LASF150
 2228 0e8b 03       		.byte	0x3
 2229 0e8c C4       		.byte	0xc4
 2230 0e8d 90090000 		.4byte	0x990
 2231 0e91 0D010000 		.4byte	.LLST7
 2232 0e95 24       		.uleb128 0x24
 2233 0e96 31060000 		.4byte	.LASF151
 2234 0e9a F90E0000 		.4byte	0xef9
 2235 0e9e 29       		.uleb128 0x29
 2236 0e9f 940A0000 		.4byte	0xa94
 2237 0ea3 04000000 		.4byte	.LBB68
 2238 0ea7 04000000 		.4byte	.LBE68-.LBB68
 2239 0eab 03       		.byte	0x3
 2240 0eac C8       		.byte	0xc8
 2241 0ead BB0E0000 		.4byte	0xebb
 2242 0eb1 25       		.uleb128 0x25
 2243 0eb2 08000000 		.4byte	.LVL30
 2244 0eb6 A60A0000 		.4byte	0xaa6
 2245 0eba 00       		.byte	0
 2246 0ebb 29       		.uleb128 0x29
 2247 0ebc 9D0A0000 		.4byte	0xa9d
 2248 0ec0 12000000 		.4byte	.LBB70
 2249 0ec4 04000000 		.4byte	.LBE70-.LBB70
 2250 0ec8 03       		.byte	0x3
 2251 0ec9 CC       		.byte	0xcc
 2252 0eca D80E0000 		.4byte	0xed8
 2253 0ece 23       		.uleb128 0x23
 2254 0ecf 16000000 		.4byte	.LVL33
 2255 0ed3 F20A0000 		.4byte	0xaf2
 2256 0ed7 00       		.byte	0
 2257 0ed8 2A       		.uleb128 0x2a
 2258 0ed9 0E000000 		.4byte	.LVL31
 2259 0edd 1B100000 		.4byte	0x101b
 2260 0ee1 2B       		.uleb128 0x2b
 2261 0ee2 01       		.uleb128 0x1
 2262 0ee3 50       		.byte	0x50
 2263 0ee4 02       		.uleb128 0x2
 2264 0ee5 74       		.byte	0x74
 2265 0ee6 00       		.sleb128 0
 2266 0ee7 00       		.byte	0
 2267 0ee8 00       		.byte	0
 2268 0ee9 10       		.uleb128 0x10
 2269 0eea A5080000 		.4byte	0x8a5
 2270 0eee F90E0000 		.4byte	0xef9
 2271 0ef2 11       		.uleb128 0x11
 2272 0ef3 4F040000 		.4byte	0x44f
 2273 0ef7 16       		.byte	0x16
 2274 0ef8 00       		.byte	0
 2275 0ef9 18       		.uleb128 0x18
 2276 0efa E90E0000 		.4byte	0xee9
 2277 0efe 26       		.uleb128 0x26
 2278 0eff 3E040000 		.4byte	.LASF156
 2279 0f03 03       		.byte	0x3
 2280 0f04 D8       		.byte	0xd8
ARM GAS  /tmp/ccSQlRC5.s 			page 41


 2281 0f05 00000000 		.4byte	.LFB285
 2282 0f09 16000000 		.4byte	.LFE285-.LFB285
 2283 0f0d 01       		.uleb128 0x1
 2284 0f0e 9C       		.byte	0x9c
 2285 0f0f 760F0000 		.4byte	0xf76
 2286 0f13 28       		.uleb128 0x28
 2287 0f14 DB050000 		.4byte	.LASF150
 2288 0f18 03       		.byte	0x3
 2289 0f19 D8       		.byte	0xd8
 2290 0f1a 90090000 		.4byte	0x990
 2291 0f1e 39010000 		.4byte	.LLST8
 2292 0f22 24       		.uleb128 0x24
 2293 0f23 31060000 		.4byte	.LASF151
 2294 0f27 860F0000 		.4byte	0xf86
 2295 0f2b 29       		.uleb128 0x29
 2296 0f2c 940A0000 		.4byte	0xa94
 2297 0f30 04000000 		.4byte	.LBB72
 2298 0f34 04000000 		.4byte	.LBE72-.LBB72
 2299 0f38 03       		.byte	0x3
 2300 0f39 DC       		.byte	0xdc
 2301 0f3a 480F0000 		.4byte	0xf48
 2302 0f3e 25       		.uleb128 0x25
 2303 0f3f 08000000 		.4byte	.LVL35
 2304 0f43 A60A0000 		.4byte	0xaa6
 2305 0f47 00       		.byte	0
 2306 0f48 29       		.uleb128 0x29
 2307 0f49 9D0A0000 		.4byte	0xa9d
 2308 0f4d 12000000 		.4byte	.LBB74
 2309 0f51 04000000 		.4byte	.LBE74-.LBB74
 2310 0f55 03       		.byte	0x3
 2311 0f56 E0       		.byte	0xe0
 2312 0f57 650F0000 		.4byte	0xf65
 2313 0f5b 23       		.uleb128 0x23
 2314 0f5c 16000000 		.4byte	.LVL38
 2315 0f60 F20A0000 		.4byte	0xaf2
 2316 0f64 00       		.byte	0
 2317 0f65 2A       		.uleb128 0x2a
 2318 0f66 0E000000 		.4byte	.LVL36
 2319 0f6a 2D100000 		.4byte	0x102d
 2320 0f6e 2B       		.uleb128 0x2b
 2321 0f6f 01       		.uleb128 0x1
 2322 0f70 50       		.byte	0x50
 2323 0f71 02       		.uleb128 0x2
 2324 0f72 74       		.byte	0x74
 2325 0f73 00       		.sleb128 0
 2326 0f74 00       		.byte	0
 2327 0f75 00       		.byte	0
 2328 0f76 10       		.uleb128 0x10
 2329 0f77 A5080000 		.4byte	0x8a5
 2330 0f7b 860F0000 		.4byte	0xf86
 2331 0f7f 11       		.uleb128 0x11
 2332 0f80 4F040000 		.4byte	0x44f
 2333 0f84 17       		.byte	0x17
 2334 0f85 00       		.byte	0
 2335 0f86 18       		.uleb128 0x18
 2336 0f87 760F0000 		.4byte	0xf76
 2337 0f8b 2E       		.uleb128 0x2e
ARM GAS  /tmp/ccSQlRC5.s 			page 42


 2338 0f8c 2A010000 		.4byte	.LASF157
 2339 0f90 13       		.byte	0x13
 2340 0f91 4407     		.2byte	0x744
 2341 0f93 970F0000 		.4byte	0xf97
 2342 0f97 0F       		.uleb128 0xf
 2343 0f98 A2000000 		.4byte	0xa2
 2344 0f9c 2F       		.uleb128 0x2f
 2345 0f9d 636800   		.ascii	"ch\000"
 2346 0fa0 09       		.byte	0x9
 2347 0fa1 D201     		.2byte	0x1d2
 2348 0fa3 E9030000 		.4byte	0x3e9
 2349 0fa7 30       		.uleb128 0x30
 2350 0fa8 02080000 		.4byte	.LASF158
 2351 0fac 0E       		.byte	0xe
 2352 0fad 4F       		.byte	0x4f
 2353 0fae 30       		.uleb128 0x30
 2354 0faf B4040000 		.4byte	.LASF159
 2355 0fb3 0E       		.byte	0xe
 2356 0fb4 50       		.byte	0x50
 2357 0fb5 31       		.uleb128 0x31
 2358 0fb6 4C070000 		.4byte	.LASF160
 2359 0fba 12       		.byte	0x12
 2360 0fbb D601     		.2byte	0x1d6
 2361 0fbd 32       		.uleb128 0x32
 2362 0fbe 4D080000 		.4byte	.LASF161
 2363 0fc2 12       		.byte	0x12
 2364 0fc3 D701     		.2byte	0x1d7
 2365 0fc5 CF0F0000 		.4byte	0xfcf
 2366 0fc9 0D       		.uleb128 0xd
 2367 0fca 90090000 		.4byte	0x990
 2368 0fce 00       		.byte	0
 2369 0fcf 32       		.uleb128 0x32
 2370 0fd0 3F070000 		.4byte	.LASF162
 2371 0fd4 12       		.byte	0x12
 2372 0fd5 D801     		.2byte	0x1d8
 2373 0fd7 E10F0000 		.4byte	0xfe1
 2374 0fdb 0D       		.uleb128 0xd
 2375 0fdc 90090000 		.4byte	0x990
 2376 0fe0 00       		.byte	0
 2377 0fe1 32       		.uleb128 0x32
 2378 0fe2 9E040000 		.4byte	.LASF163
 2379 0fe6 12       		.byte	0x12
 2380 0fe7 D901     		.2byte	0x1d9
 2381 0fe9 F30F0000 		.4byte	0xff3
 2382 0fed 0D       		.uleb128 0xd
 2383 0fee 90090000 		.4byte	0x990
 2384 0ff2 00       		.byte	0
 2385 0ff3 33       		.uleb128 0x33
 2386 0ff4 B8070000 		.4byte	.LASF173
 2387 0ff8 12       		.byte	0x12
 2388 0ff9 DA01     		.2byte	0x1da
 2389 0ffb CE080000 		.4byte	0x8ce
 2390 0fff 09100000 		.4byte	0x1009
 2391 1003 0D       		.uleb128 0xd
 2392 1004 90090000 		.4byte	0x990
 2393 1008 00       		.byte	0
 2394 1009 32       		.uleb128 0x32
ARM GAS  /tmp/ccSQlRC5.s 			page 43


 2395 100a 80040000 		.4byte	.LASF164
 2396 100e 12       		.byte	0x12
 2397 100f DB01     		.2byte	0x1db
 2398 1011 1B100000 		.4byte	0x101b
 2399 1015 0D       		.uleb128 0xd
 2400 1016 90090000 		.4byte	0x990
 2401 101a 00       		.byte	0
 2402 101b 32       		.uleb128 0x32
 2403 101c 39000000 		.4byte	.LASF165
 2404 1020 12       		.byte	0x12
 2405 1021 DC01     		.2byte	0x1dc
 2406 1023 2D100000 		.4byte	0x102d
 2407 1027 0D       		.uleb128 0xd
 2408 1028 90090000 		.4byte	0x990
 2409 102c 00       		.byte	0
 2410 102d 34       		.uleb128 0x34
 2411 102e 04050000 		.4byte	.LASF174
 2412 1032 12       		.byte	0x12
 2413 1033 DD01     		.2byte	0x1dd
 2414 1035 0D       		.uleb128 0xd
 2415 1036 90090000 		.4byte	0x990
 2416 103a 00       		.byte	0
 2417 103b 00       		.byte	0
 2418              		.section	.debug_abbrev,"",%progbits
 2419              	.Ldebug_abbrev0:
 2420 0000 01       		.uleb128 0x1
 2421 0001 11       		.uleb128 0x11
 2422 0002 01       		.byte	0x1
 2423 0003 25       		.uleb128 0x25
 2424 0004 0E       		.uleb128 0xe
 2425 0005 13       		.uleb128 0x13
 2426 0006 0B       		.uleb128 0xb
 2427 0007 03       		.uleb128 0x3
 2428 0008 0E       		.uleb128 0xe
 2429 0009 1B       		.uleb128 0x1b
 2430 000a 0E       		.uleb128 0xe
 2431 000b 55       		.uleb128 0x55
 2432 000c 17       		.uleb128 0x17
 2433 000d 11       		.uleb128 0x11
 2434 000e 01       		.uleb128 0x1
 2435 000f 10       		.uleb128 0x10
 2436 0010 17       		.uleb128 0x17
 2437 0011 00       		.byte	0
 2438 0012 00       		.byte	0
 2439 0013 02       		.uleb128 0x2
 2440 0014 24       		.uleb128 0x24
 2441 0015 00       		.byte	0
 2442 0016 0B       		.uleb128 0xb
 2443 0017 0B       		.uleb128 0xb
 2444 0018 3E       		.uleb128 0x3e
 2445 0019 0B       		.uleb128 0xb
 2446 001a 03       		.uleb128 0x3
 2447 001b 08       		.uleb128 0x8
 2448 001c 00       		.byte	0
 2449 001d 00       		.byte	0
 2450 001e 03       		.uleb128 0x3
 2451 001f 24       		.uleb128 0x24
ARM GAS  /tmp/ccSQlRC5.s 			page 44


 2452 0020 00       		.byte	0
 2453 0021 0B       		.uleb128 0xb
 2454 0022 0B       		.uleb128 0xb
 2455 0023 3E       		.uleb128 0x3e
 2456 0024 0B       		.uleb128 0xb
 2457 0025 03       		.uleb128 0x3
 2458 0026 0E       		.uleb128 0xe
 2459 0027 00       		.byte	0
 2460 0028 00       		.byte	0
 2461 0029 04       		.uleb128 0x4
 2462 002a 16       		.uleb128 0x16
 2463 002b 00       		.byte	0
 2464 002c 03       		.uleb128 0x3
 2465 002d 0E       		.uleb128 0xe
 2466 002e 3A       		.uleb128 0x3a
 2467 002f 0B       		.uleb128 0xb
 2468 0030 3B       		.uleb128 0x3b
 2469 0031 0B       		.uleb128 0xb
 2470 0032 49       		.uleb128 0x49
 2471 0033 13       		.uleb128 0x13
 2472 0034 00       		.byte	0
 2473 0035 00       		.byte	0
 2474 0036 05       		.uleb128 0x5
 2475 0037 13       		.uleb128 0x13
 2476 0038 01       		.byte	0x1
 2477 0039 03       		.uleb128 0x3
 2478 003a 0E       		.uleb128 0xe
 2479 003b 0B       		.uleb128 0xb
 2480 003c 0B       		.uleb128 0xb
 2481 003d 3A       		.uleb128 0x3a
 2482 003e 0B       		.uleb128 0xb
 2483 003f 3B       		.uleb128 0x3b
 2484 0040 0B       		.uleb128 0xb
 2485 0041 01       		.uleb128 0x1
 2486 0042 13       		.uleb128 0x13
 2487 0043 00       		.byte	0
 2488 0044 00       		.byte	0
 2489 0045 06       		.uleb128 0x6
 2490 0046 0D       		.uleb128 0xd
 2491 0047 00       		.byte	0
 2492 0048 03       		.uleb128 0x3
 2493 0049 0E       		.uleb128 0xe
 2494 004a 3A       		.uleb128 0x3a
 2495 004b 0B       		.uleb128 0xb
 2496 004c 3B       		.uleb128 0x3b
 2497 004d 0B       		.uleb128 0xb
 2498 004e 49       		.uleb128 0x49
 2499 004f 13       		.uleb128 0x13
 2500 0050 38       		.uleb128 0x38
 2501 0051 0B       		.uleb128 0xb
 2502 0052 00       		.byte	0
 2503 0053 00       		.byte	0
 2504 0054 07       		.uleb128 0x7
 2505 0055 0D       		.uleb128 0xd
 2506 0056 00       		.byte	0
 2507 0057 03       		.uleb128 0x3
 2508 0058 08       		.uleb128 0x8
ARM GAS  /tmp/ccSQlRC5.s 			page 45


 2509 0059 3A       		.uleb128 0x3a
 2510 005a 0B       		.uleb128 0xb
 2511 005b 3B       		.uleb128 0x3b
 2512 005c 0B       		.uleb128 0xb
 2513 005d 49       		.uleb128 0x49
 2514 005e 13       		.uleb128 0x13
 2515 005f 38       		.uleb128 0x38
 2516 0060 0B       		.uleb128 0xb
 2517 0061 00       		.byte	0
 2518 0062 00       		.byte	0
 2519 0063 08       		.uleb128 0x8
 2520 0064 0D       		.uleb128 0xd
 2521 0065 00       		.byte	0
 2522 0066 03       		.uleb128 0x3
 2523 0067 08       		.uleb128 0x8
 2524 0068 3A       		.uleb128 0x3a
 2525 0069 0B       		.uleb128 0xb
 2526 006a 3B       		.uleb128 0x3b
 2527 006b 05       		.uleb128 0x5
 2528 006c 49       		.uleb128 0x49
 2529 006d 13       		.uleb128 0x13
 2530 006e 38       		.uleb128 0x38
 2531 006f 0B       		.uleb128 0xb
 2532 0070 00       		.byte	0
 2533 0071 00       		.byte	0
 2534 0072 09       		.uleb128 0x9
 2535 0073 0D       		.uleb128 0xd
 2536 0074 00       		.byte	0
 2537 0075 03       		.uleb128 0x3
 2538 0076 0E       		.uleb128 0xe
 2539 0077 3A       		.uleb128 0x3a
 2540 0078 0B       		.uleb128 0xb
 2541 0079 3B       		.uleb128 0x3b
 2542 007a 05       		.uleb128 0x5
 2543 007b 49       		.uleb128 0x49
 2544 007c 13       		.uleb128 0x13
 2545 007d 38       		.uleb128 0x38
 2546 007e 0B       		.uleb128 0xb
 2547 007f 00       		.byte	0
 2548 0080 00       		.byte	0
 2549 0081 0A       		.uleb128 0xa
 2550 0082 0F       		.uleb128 0xf
 2551 0083 00       		.byte	0
 2552 0084 0B       		.uleb128 0xb
 2553 0085 0B       		.uleb128 0xb
 2554 0086 49       		.uleb128 0x49
 2555 0087 13       		.uleb128 0x13
 2556 0088 00       		.byte	0
 2557 0089 00       		.byte	0
 2558 008a 0B       		.uleb128 0xb
 2559 008b 13       		.uleb128 0x13
 2560 008c 01       		.byte	0x1
 2561 008d 03       		.uleb128 0x3
 2562 008e 0E       		.uleb128 0xe
 2563 008f 0B       		.uleb128 0xb
 2564 0090 0B       		.uleb128 0xb
 2565 0091 3A       		.uleb128 0x3a
ARM GAS  /tmp/ccSQlRC5.s 			page 46


 2566 0092 0B       		.uleb128 0xb
 2567 0093 3B       		.uleb128 0x3b
 2568 0094 05       		.uleb128 0x5
 2569 0095 01       		.uleb128 0x1
 2570 0096 13       		.uleb128 0x13
 2571 0097 00       		.byte	0
 2572 0098 00       		.byte	0
 2573 0099 0C       		.uleb128 0xc
 2574 009a 15       		.uleb128 0x15
 2575 009b 01       		.byte	0x1
 2576 009c 27       		.uleb128 0x27
 2577 009d 19       		.uleb128 0x19
 2578 009e 01       		.uleb128 0x1
 2579 009f 13       		.uleb128 0x13
 2580 00a0 00       		.byte	0
 2581 00a1 00       		.byte	0
 2582 00a2 0D       		.uleb128 0xd
 2583 00a3 05       		.uleb128 0x5
 2584 00a4 00       		.byte	0
 2585 00a5 49       		.uleb128 0x49
 2586 00a6 13       		.uleb128 0x13
 2587 00a7 00       		.byte	0
 2588 00a8 00       		.byte	0
 2589 00a9 0E       		.uleb128 0xe
 2590 00aa 0F       		.uleb128 0xf
 2591 00ab 00       		.byte	0
 2592 00ac 0B       		.uleb128 0xb
 2593 00ad 0B       		.uleb128 0xb
 2594 00ae 00       		.byte	0
 2595 00af 00       		.byte	0
 2596 00b0 0F       		.uleb128 0xf
 2597 00b1 35       		.uleb128 0x35
 2598 00b2 00       		.byte	0
 2599 00b3 49       		.uleb128 0x49
 2600 00b4 13       		.uleb128 0x13
 2601 00b5 00       		.byte	0
 2602 00b6 00       		.byte	0
 2603 00b7 10       		.uleb128 0x10
 2604 00b8 01       		.uleb128 0x1
 2605 00b9 01       		.byte	0x1
 2606 00ba 49       		.uleb128 0x49
 2607 00bb 13       		.uleb128 0x13
 2608 00bc 01       		.uleb128 0x1
 2609 00bd 13       		.uleb128 0x13
 2610 00be 00       		.byte	0
 2611 00bf 00       		.byte	0
 2612 00c0 11       		.uleb128 0x11
 2613 00c1 21       		.uleb128 0x21
 2614 00c2 00       		.byte	0
 2615 00c3 49       		.uleb128 0x49
 2616 00c4 13       		.uleb128 0x13
 2617 00c5 2F       		.uleb128 0x2f
 2618 00c6 0B       		.uleb128 0xb
 2619 00c7 00       		.byte	0
 2620 00c8 00       		.byte	0
 2621 00c9 12       		.uleb128 0x12
 2622 00ca 13       		.uleb128 0x13
ARM GAS  /tmp/ccSQlRC5.s 			page 47


 2623 00cb 01       		.byte	0x1
 2624 00cc 0B       		.uleb128 0xb
 2625 00cd 0B       		.uleb128 0xb
 2626 00ce 3A       		.uleb128 0x3a
 2627 00cf 0B       		.uleb128 0xb
 2628 00d0 3B       		.uleb128 0x3b
 2629 00d1 05       		.uleb128 0x5
 2630 00d2 01       		.uleb128 0x1
 2631 00d3 13       		.uleb128 0x13
 2632 00d4 00       		.byte	0
 2633 00d5 00       		.byte	0
 2634 00d6 13       		.uleb128 0x13
 2635 00d7 16       		.uleb128 0x16
 2636 00d8 00       		.byte	0
 2637 00d9 03       		.uleb128 0x3
 2638 00da 0E       		.uleb128 0xe
 2639 00db 3A       		.uleb128 0x3a
 2640 00dc 0B       		.uleb128 0xb
 2641 00dd 3B       		.uleb128 0x3b
 2642 00de 05       		.uleb128 0x5
 2643 00df 49       		.uleb128 0x49
 2644 00e0 13       		.uleb128 0x13
 2645 00e1 00       		.byte	0
 2646 00e2 00       		.byte	0
 2647 00e3 14       		.uleb128 0x14
 2648 00e4 13       		.uleb128 0x13
 2649 00e5 01       		.byte	0x1
 2650 00e6 0B       		.uleb128 0xb
 2651 00e7 0B       		.uleb128 0xb
 2652 00e8 3A       		.uleb128 0x3a
 2653 00e9 0B       		.uleb128 0xb
 2654 00ea 3B       		.uleb128 0x3b
 2655 00eb 0B       		.uleb128 0xb
 2656 00ec 01       		.uleb128 0x1
 2657 00ed 13       		.uleb128 0x13
 2658 00ee 00       		.byte	0
 2659 00ef 00       		.byte	0
 2660 00f0 15       		.uleb128 0x15
 2661 00f1 17       		.uleb128 0x17
 2662 00f2 01       		.byte	0x1
 2663 00f3 0B       		.uleb128 0xb
 2664 00f4 0B       		.uleb128 0xb
 2665 00f5 3A       		.uleb128 0x3a
 2666 00f6 0B       		.uleb128 0xb
 2667 00f7 3B       		.uleb128 0x3b
 2668 00f8 0B       		.uleb128 0xb
 2669 00f9 01       		.uleb128 0x1
 2670 00fa 13       		.uleb128 0x13
 2671 00fb 00       		.byte	0
 2672 00fc 00       		.byte	0
 2673 00fd 16       		.uleb128 0x16
 2674 00fe 0D       		.uleb128 0xd
 2675 00ff 00       		.byte	0
 2676 0100 03       		.uleb128 0x3
 2677 0101 0E       		.uleb128 0xe
 2678 0102 3A       		.uleb128 0x3a
 2679 0103 0B       		.uleb128 0xb
ARM GAS  /tmp/ccSQlRC5.s 			page 48


 2680 0104 3B       		.uleb128 0x3b
 2681 0105 0B       		.uleb128 0xb
 2682 0106 49       		.uleb128 0x49
 2683 0107 13       		.uleb128 0x13
 2684 0108 00       		.byte	0
 2685 0109 00       		.byte	0
 2686 010a 17       		.uleb128 0x17
 2687 010b 0D       		.uleb128 0xd
 2688 010c 00       		.byte	0
 2689 010d 03       		.uleb128 0x3
 2690 010e 0E       		.uleb128 0xe
 2691 010f 3A       		.uleb128 0x3a
 2692 0110 0B       		.uleb128 0xb
 2693 0111 3B       		.uleb128 0x3b
 2694 0112 05       		.uleb128 0x5
 2695 0113 49       		.uleb128 0x49
 2696 0114 13       		.uleb128 0x13
 2697 0115 00       		.byte	0
 2698 0116 00       		.byte	0
 2699 0117 18       		.uleb128 0x18
 2700 0118 26       		.uleb128 0x26
 2701 0119 00       		.byte	0
 2702 011a 49       		.uleb128 0x49
 2703 011b 13       		.uleb128 0x13
 2704 011c 00       		.byte	0
 2705 011d 00       		.byte	0
 2706 011e 19       		.uleb128 0x19
 2707 011f 04       		.uleb128 0x4
 2708 0120 01       		.byte	0x1
 2709 0121 0B       		.uleb128 0xb
 2710 0122 0B       		.uleb128 0xb
 2711 0123 3A       		.uleb128 0x3a
 2712 0124 0B       		.uleb128 0xb
 2713 0125 3B       		.uleb128 0x3b
 2714 0126 0B       		.uleb128 0xb
 2715 0127 01       		.uleb128 0x1
 2716 0128 13       		.uleb128 0x13
 2717 0129 00       		.byte	0
 2718 012a 00       		.byte	0
 2719 012b 1A       		.uleb128 0x1a
 2720 012c 28       		.uleb128 0x28
 2721 012d 00       		.byte	0
 2722 012e 03       		.uleb128 0x3
 2723 012f 0E       		.uleb128 0xe
 2724 0130 1C       		.uleb128 0x1c
 2725 0131 0D       		.uleb128 0xd
 2726 0132 00       		.byte	0
 2727 0133 00       		.byte	0
 2728 0134 1B       		.uleb128 0x1b
 2729 0135 04       		.uleb128 0x4
 2730 0136 01       		.byte	0x1
 2731 0137 0B       		.uleb128 0xb
 2732 0138 0B       		.uleb128 0xb
 2733 0139 3A       		.uleb128 0x3a
 2734 013a 0B       		.uleb128 0xb
 2735 013b 3B       		.uleb128 0x3b
 2736 013c 05       		.uleb128 0x5
ARM GAS  /tmp/ccSQlRC5.s 			page 49


 2737 013d 01       		.uleb128 0x1
 2738 013e 13       		.uleb128 0x13
 2739 013f 00       		.byte	0
 2740 0140 00       		.byte	0
 2741 0141 1C       		.uleb128 0x1c
 2742 0142 2E       		.uleb128 0x2e
 2743 0143 01       		.byte	0x1
 2744 0144 03       		.uleb128 0x3
 2745 0145 0E       		.uleb128 0xe
 2746 0146 3A       		.uleb128 0x3a
 2747 0147 0B       		.uleb128 0xb
 2748 0148 3B       		.uleb128 0x3b
 2749 0149 05       		.uleb128 0x5
 2750 014a 27       		.uleb128 0x27
 2751 014b 19       		.uleb128 0x19
 2752 014c 20       		.uleb128 0x20
 2753 014d 0B       		.uleb128 0xb
 2754 014e 01       		.uleb128 0x1
 2755 014f 13       		.uleb128 0x13
 2756 0150 00       		.byte	0
 2757 0151 00       		.byte	0
 2758 0152 1D       		.uleb128 0x1d
 2759 0153 05       		.uleb128 0x5
 2760 0154 00       		.byte	0
 2761 0155 03       		.uleb128 0x3
 2762 0156 0E       		.uleb128 0xe
 2763 0157 3A       		.uleb128 0x3a
 2764 0158 0B       		.uleb128 0xb
 2765 0159 3B       		.uleb128 0x3b
 2766 015a 05       		.uleb128 0x5
 2767 015b 49       		.uleb128 0x49
 2768 015c 13       		.uleb128 0x13
 2769 015d 00       		.byte	0
 2770 015e 00       		.byte	0
 2771 015f 1E       		.uleb128 0x1e
 2772 0160 2E       		.uleb128 0x2e
 2773 0161 00       		.byte	0
 2774 0162 03       		.uleb128 0x3
 2775 0163 0E       		.uleb128 0xe
 2776 0164 3A       		.uleb128 0x3a
 2777 0165 0B       		.uleb128 0xb
 2778 0166 3B       		.uleb128 0x3b
 2779 0167 05       		.uleb128 0x5
 2780 0168 27       		.uleb128 0x27
 2781 0169 19       		.uleb128 0x19
 2782 016a 20       		.uleb128 0x20
 2783 016b 0B       		.uleb128 0xb
 2784 016c 00       		.byte	0
 2785 016d 00       		.byte	0
 2786 016e 1F       		.uleb128 0x1f
 2787 016f 2E       		.uleb128 0x2e
 2788 0170 01       		.byte	0x1
 2789 0171 03       		.uleb128 0x3
 2790 0172 0E       		.uleb128 0xe
 2791 0173 3A       		.uleb128 0x3a
 2792 0174 0B       		.uleb128 0xb
 2793 0175 3B       		.uleb128 0x3b
ARM GAS  /tmp/ccSQlRC5.s 			page 50


 2794 0176 05       		.uleb128 0x5
 2795 0177 27       		.uleb128 0x27
 2796 0178 19       		.uleb128 0x19
 2797 0179 11       		.uleb128 0x11
 2798 017a 01       		.uleb128 0x1
 2799 017b 12       		.uleb128 0x12
 2800 017c 06       		.uleb128 0x6
 2801 017d 40       		.uleb128 0x40
 2802 017e 18       		.uleb128 0x18
 2803 017f 9742     		.uleb128 0x2117
 2804 0181 19       		.uleb128 0x19
 2805 0182 01       		.uleb128 0x1
 2806 0183 13       		.uleb128 0x13
 2807 0184 00       		.byte	0
 2808 0185 00       		.byte	0
 2809 0186 20       		.uleb128 0x20
 2810 0187 1D       		.uleb128 0x1d
 2811 0188 01       		.byte	0x1
 2812 0189 31       		.uleb128 0x31
 2813 018a 13       		.uleb128 0x13
 2814 018b 11       		.uleb128 0x11
 2815 018c 01       		.uleb128 0x1
 2816 018d 12       		.uleb128 0x12
 2817 018e 06       		.uleb128 0x6
 2818 018f 58       		.uleb128 0x58
 2819 0190 0B       		.uleb128 0xb
 2820 0191 59       		.uleb128 0x59
 2821 0192 05       		.uleb128 0x5
 2822 0193 01       		.uleb128 0x1
 2823 0194 13       		.uleb128 0x13
 2824 0195 00       		.byte	0
 2825 0196 00       		.byte	0
 2826 0197 21       		.uleb128 0x21
 2827 0198 1D       		.uleb128 0x1d
 2828 0199 01       		.byte	0x1
 2829 019a 31       		.uleb128 0x31
 2830 019b 13       		.uleb128 0x13
 2831 019c 11       		.uleb128 0x11
 2832 019d 01       		.uleb128 0x1
 2833 019e 12       		.uleb128 0x12
 2834 019f 06       		.uleb128 0x6
 2835 01a0 58       		.uleb128 0x58
 2836 01a1 0B       		.uleb128 0xb
 2837 01a2 59       		.uleb128 0x59
 2838 01a3 05       		.uleb128 0x5
 2839 01a4 00       		.byte	0
 2840 01a5 00       		.byte	0
 2841 01a6 22       		.uleb128 0x22
 2842 01a7 05       		.uleb128 0x5
 2843 01a8 00       		.byte	0
 2844 01a9 31       		.uleb128 0x31
 2845 01aa 13       		.uleb128 0x13
 2846 01ab 1C       		.uleb128 0x1c
 2847 01ac 0B       		.uleb128 0xb
 2848 01ad 00       		.byte	0
 2849 01ae 00       		.byte	0
 2850 01af 23       		.uleb128 0x23
ARM GAS  /tmp/ccSQlRC5.s 			page 51


 2851 01b0 898201   		.uleb128 0x4109
 2852 01b3 00       		.byte	0
 2853 01b4 11       		.uleb128 0x11
 2854 01b5 01       		.uleb128 0x1
 2855 01b6 9542     		.uleb128 0x2115
 2856 01b8 19       		.uleb128 0x19
 2857 01b9 31       		.uleb128 0x31
 2858 01ba 13       		.uleb128 0x13
 2859 01bb 00       		.byte	0
 2860 01bc 00       		.byte	0
 2861 01bd 24       		.uleb128 0x24
 2862 01be 34       		.uleb128 0x34
 2863 01bf 00       		.byte	0
 2864 01c0 03       		.uleb128 0x3
 2865 01c1 0E       		.uleb128 0xe
 2866 01c2 49       		.uleb128 0x49
 2867 01c3 13       		.uleb128 0x13
 2868 01c4 34       		.uleb128 0x34
 2869 01c5 19       		.uleb128 0x19
 2870 01c6 00       		.byte	0
 2871 01c7 00       		.byte	0
 2872 01c8 25       		.uleb128 0x25
 2873 01c9 898201   		.uleb128 0x4109
 2874 01cc 00       		.byte	0
 2875 01cd 11       		.uleb128 0x11
 2876 01ce 01       		.uleb128 0x1
 2877 01cf 31       		.uleb128 0x31
 2878 01d0 13       		.uleb128 0x13
 2879 01d1 00       		.byte	0
 2880 01d2 00       		.byte	0
 2881 01d3 26       		.uleb128 0x26
 2882 01d4 2E       		.uleb128 0x2e
 2883 01d5 01       		.byte	0x1
 2884 01d6 3F       		.uleb128 0x3f
 2885 01d7 19       		.uleb128 0x19
 2886 01d8 03       		.uleb128 0x3
 2887 01d9 0E       		.uleb128 0xe
 2888 01da 3A       		.uleb128 0x3a
 2889 01db 0B       		.uleb128 0xb
 2890 01dc 3B       		.uleb128 0x3b
 2891 01dd 0B       		.uleb128 0xb
 2892 01de 27       		.uleb128 0x27
 2893 01df 19       		.uleb128 0x19
 2894 01e0 11       		.uleb128 0x11
 2895 01e1 01       		.uleb128 0x1
 2896 01e2 12       		.uleb128 0x12
 2897 01e3 06       		.uleb128 0x6
 2898 01e4 40       		.uleb128 0x40
 2899 01e5 18       		.uleb128 0x18
 2900 01e6 9742     		.uleb128 0x2117
 2901 01e8 19       		.uleb128 0x19
 2902 01e9 01       		.uleb128 0x1
 2903 01ea 13       		.uleb128 0x13
 2904 01eb 00       		.byte	0
 2905 01ec 00       		.byte	0
 2906 01ed 27       		.uleb128 0x27
 2907 01ee 05       		.uleb128 0x5
ARM GAS  /tmp/ccSQlRC5.s 			page 52


 2908 01ef 00       		.byte	0
 2909 01f0 03       		.uleb128 0x3
 2910 01f1 0E       		.uleb128 0xe
 2911 01f2 3A       		.uleb128 0x3a
 2912 01f3 0B       		.uleb128 0xb
 2913 01f4 3B       		.uleb128 0x3b
 2914 01f5 0B       		.uleb128 0xb
 2915 01f6 49       		.uleb128 0x49
 2916 01f7 13       		.uleb128 0x13
 2917 01f8 02       		.uleb128 0x2
 2918 01f9 18       		.uleb128 0x18
 2919 01fa 00       		.byte	0
 2920 01fb 00       		.byte	0
 2921 01fc 28       		.uleb128 0x28
 2922 01fd 05       		.uleb128 0x5
 2923 01fe 00       		.byte	0
 2924 01ff 03       		.uleb128 0x3
 2925 0200 0E       		.uleb128 0xe
 2926 0201 3A       		.uleb128 0x3a
 2927 0202 0B       		.uleb128 0xb
 2928 0203 3B       		.uleb128 0x3b
 2929 0204 0B       		.uleb128 0xb
 2930 0205 49       		.uleb128 0x49
 2931 0206 13       		.uleb128 0x13
 2932 0207 02       		.uleb128 0x2
 2933 0208 17       		.uleb128 0x17
 2934 0209 00       		.byte	0
 2935 020a 00       		.byte	0
 2936 020b 29       		.uleb128 0x29
 2937 020c 1D       		.uleb128 0x1d
 2938 020d 01       		.byte	0x1
 2939 020e 31       		.uleb128 0x31
 2940 020f 13       		.uleb128 0x13
 2941 0210 11       		.uleb128 0x11
 2942 0211 01       		.uleb128 0x1
 2943 0212 12       		.uleb128 0x12
 2944 0213 06       		.uleb128 0x6
 2945 0214 58       		.uleb128 0x58
 2946 0215 0B       		.uleb128 0xb
 2947 0216 59       		.uleb128 0x59
 2948 0217 0B       		.uleb128 0xb
 2949 0218 01       		.uleb128 0x1
 2950 0219 13       		.uleb128 0x13
 2951 021a 00       		.byte	0
 2952 021b 00       		.byte	0
 2953 021c 2A       		.uleb128 0x2a
 2954 021d 898201   		.uleb128 0x4109
 2955 0220 01       		.byte	0x1
 2956 0221 11       		.uleb128 0x11
 2957 0222 01       		.uleb128 0x1
 2958 0223 31       		.uleb128 0x31
 2959 0224 13       		.uleb128 0x13
 2960 0225 00       		.byte	0
 2961 0226 00       		.byte	0
 2962 0227 2B       		.uleb128 0x2b
 2963 0228 8A8201   		.uleb128 0x410a
 2964 022b 00       		.byte	0
ARM GAS  /tmp/ccSQlRC5.s 			page 53


 2965 022c 02       		.uleb128 0x2
 2966 022d 18       		.uleb128 0x18
 2967 022e 9142     		.uleb128 0x2111
 2968 0230 18       		.uleb128 0x18
 2969 0231 00       		.byte	0
 2970 0232 00       		.byte	0
 2971 0233 2C       		.uleb128 0x2c
 2972 0234 2E       		.uleb128 0x2e
 2973 0235 01       		.byte	0x1
 2974 0236 3F       		.uleb128 0x3f
 2975 0237 19       		.uleb128 0x19
 2976 0238 03       		.uleb128 0x3
 2977 0239 0E       		.uleb128 0xe
 2978 023a 3A       		.uleb128 0x3a
 2979 023b 0B       		.uleb128 0xb
 2980 023c 3B       		.uleb128 0x3b
 2981 023d 0B       		.uleb128 0xb
 2982 023e 27       		.uleb128 0x27
 2983 023f 19       		.uleb128 0x19
 2984 0240 49       		.uleb128 0x49
 2985 0241 13       		.uleb128 0x13
 2986 0242 11       		.uleb128 0x11
 2987 0243 01       		.uleb128 0x1
 2988 0244 12       		.uleb128 0x12
 2989 0245 06       		.uleb128 0x6
 2990 0246 40       		.uleb128 0x40
 2991 0247 18       		.uleb128 0x18
 2992 0248 9742     		.uleb128 0x2117
 2993 024a 19       		.uleb128 0x19
 2994 024b 01       		.uleb128 0x1
 2995 024c 13       		.uleb128 0x13
 2996 024d 00       		.byte	0
 2997 024e 00       		.byte	0
 2998 024f 2D       		.uleb128 0x2d
 2999 0250 34       		.uleb128 0x34
 3000 0251 00       		.byte	0
 3001 0252 03       		.uleb128 0x3
 3002 0253 0E       		.uleb128 0xe
 3003 0254 3A       		.uleb128 0x3a
 3004 0255 0B       		.uleb128 0xb
 3005 0256 3B       		.uleb128 0x3b
 3006 0257 0B       		.uleb128 0xb
 3007 0258 49       		.uleb128 0x49
 3008 0259 13       		.uleb128 0x13
 3009 025a 02       		.uleb128 0x2
 3010 025b 17       		.uleb128 0x17
 3011 025c 00       		.byte	0
 3012 025d 00       		.byte	0
 3013 025e 2E       		.uleb128 0x2e
 3014 025f 34       		.uleb128 0x34
 3015 0260 00       		.byte	0
 3016 0261 03       		.uleb128 0x3
 3017 0262 0E       		.uleb128 0xe
 3018 0263 3A       		.uleb128 0x3a
 3019 0264 0B       		.uleb128 0xb
 3020 0265 3B       		.uleb128 0x3b
 3021 0266 05       		.uleb128 0x5
ARM GAS  /tmp/ccSQlRC5.s 			page 54


 3022 0267 49       		.uleb128 0x49
 3023 0268 13       		.uleb128 0x13
 3024 0269 3F       		.uleb128 0x3f
 3025 026a 19       		.uleb128 0x19
 3026 026b 3C       		.uleb128 0x3c
 3027 026c 19       		.uleb128 0x19
 3028 026d 00       		.byte	0
 3029 026e 00       		.byte	0
 3030 026f 2F       		.uleb128 0x2f
 3031 0270 34       		.uleb128 0x34
 3032 0271 00       		.byte	0
 3033 0272 03       		.uleb128 0x3
 3034 0273 08       		.uleb128 0x8
 3035 0274 3A       		.uleb128 0x3a
 3036 0275 0B       		.uleb128 0xb
 3037 0276 3B       		.uleb128 0x3b
 3038 0277 05       		.uleb128 0x5
 3039 0278 49       		.uleb128 0x49
 3040 0279 13       		.uleb128 0x13
 3041 027a 3F       		.uleb128 0x3f
 3042 027b 19       		.uleb128 0x19
 3043 027c 3C       		.uleb128 0x3c
 3044 027d 19       		.uleb128 0x19
 3045 027e 00       		.byte	0
 3046 027f 00       		.byte	0
 3047 0280 30       		.uleb128 0x30
 3048 0281 2E       		.uleb128 0x2e
 3049 0282 00       		.byte	0
 3050 0283 3F       		.uleb128 0x3f
 3051 0284 19       		.uleb128 0x19
 3052 0285 03       		.uleb128 0x3
 3053 0286 0E       		.uleb128 0xe
 3054 0287 3A       		.uleb128 0x3a
 3055 0288 0B       		.uleb128 0xb
 3056 0289 3B       		.uleb128 0x3b
 3057 028a 0B       		.uleb128 0xb
 3058 028b 27       		.uleb128 0x27
 3059 028c 19       		.uleb128 0x19
 3060 028d 3C       		.uleb128 0x3c
 3061 028e 19       		.uleb128 0x19
 3062 028f 00       		.byte	0
 3063 0290 00       		.byte	0
 3064 0291 31       		.uleb128 0x31
 3065 0292 2E       		.uleb128 0x2e
 3066 0293 00       		.byte	0
 3067 0294 3F       		.uleb128 0x3f
 3068 0295 19       		.uleb128 0x19
 3069 0296 03       		.uleb128 0x3
 3070 0297 0E       		.uleb128 0xe
 3071 0298 3A       		.uleb128 0x3a
 3072 0299 0B       		.uleb128 0xb
 3073 029a 3B       		.uleb128 0x3b
 3074 029b 05       		.uleb128 0x5
 3075 029c 27       		.uleb128 0x27
 3076 029d 19       		.uleb128 0x19
 3077 029e 3C       		.uleb128 0x3c
 3078 029f 19       		.uleb128 0x19
ARM GAS  /tmp/ccSQlRC5.s 			page 55


 3079 02a0 00       		.byte	0
 3080 02a1 00       		.byte	0
 3081 02a2 32       		.uleb128 0x32
 3082 02a3 2E       		.uleb128 0x2e
 3083 02a4 01       		.byte	0x1
 3084 02a5 3F       		.uleb128 0x3f
 3085 02a6 19       		.uleb128 0x19
 3086 02a7 03       		.uleb128 0x3
 3087 02a8 0E       		.uleb128 0xe
 3088 02a9 3A       		.uleb128 0x3a
 3089 02aa 0B       		.uleb128 0xb
 3090 02ab 3B       		.uleb128 0x3b
 3091 02ac 05       		.uleb128 0x5
 3092 02ad 27       		.uleb128 0x27
 3093 02ae 19       		.uleb128 0x19
 3094 02af 3C       		.uleb128 0x3c
 3095 02b0 19       		.uleb128 0x19
 3096 02b1 01       		.uleb128 0x1
 3097 02b2 13       		.uleb128 0x13
 3098 02b3 00       		.byte	0
 3099 02b4 00       		.byte	0
 3100 02b5 33       		.uleb128 0x33
 3101 02b6 2E       		.uleb128 0x2e
 3102 02b7 01       		.byte	0x1
 3103 02b8 3F       		.uleb128 0x3f
 3104 02b9 19       		.uleb128 0x19
 3105 02ba 03       		.uleb128 0x3
 3106 02bb 0E       		.uleb128 0xe
 3107 02bc 3A       		.uleb128 0x3a
 3108 02bd 0B       		.uleb128 0xb
 3109 02be 3B       		.uleb128 0x3b
 3110 02bf 05       		.uleb128 0x5
 3111 02c0 27       		.uleb128 0x27
 3112 02c1 19       		.uleb128 0x19
 3113 02c2 49       		.uleb128 0x49
 3114 02c3 13       		.uleb128 0x13
 3115 02c4 3C       		.uleb128 0x3c
 3116 02c5 19       		.uleb128 0x19
 3117 02c6 01       		.uleb128 0x1
 3118 02c7 13       		.uleb128 0x13
 3119 02c8 00       		.byte	0
 3120 02c9 00       		.byte	0
 3121 02ca 34       		.uleb128 0x34
 3122 02cb 2E       		.uleb128 0x2e
 3123 02cc 01       		.byte	0x1
 3124 02cd 3F       		.uleb128 0x3f
 3125 02ce 19       		.uleb128 0x19
 3126 02cf 03       		.uleb128 0x3
 3127 02d0 0E       		.uleb128 0xe
 3128 02d1 3A       		.uleb128 0x3a
 3129 02d2 0B       		.uleb128 0xb
 3130 02d3 3B       		.uleb128 0x3b
 3131 02d4 05       		.uleb128 0x5
 3132 02d5 27       		.uleb128 0x27
 3133 02d6 19       		.uleb128 0x19
 3134 02d7 3C       		.uleb128 0x3c
 3135 02d8 19       		.uleb128 0x19
ARM GAS  /tmp/ccSQlRC5.s 			page 56


 3136 02d9 00       		.byte	0
 3137 02da 00       		.byte	0
 3138 02db 00       		.byte	0
 3139              		.section	.debug_loc,"",%progbits
 3140              	.Ldebug_loc0:
 3141              	.LLST0:
 3142 0000 00000000 		.4byte	.LVL5
 3143 0004 09000000 		.4byte	.LVL6-1
 3144 0008 0100     		.2byte	0x1
 3145 000a 50       		.byte	0x50
 3146 000b 09000000 		.4byte	.LVL6-1
 3147 000f 1A000000 		.4byte	.LVL8
 3148 0013 0100     		.2byte	0x1
 3149 0015 54       		.byte	0x54
 3150 0016 1A000000 		.4byte	.LVL8
 3151 001a 1E000000 		.4byte	.LFE279
 3152 001e 0400     		.2byte	0x4
 3153 0020 F3       		.byte	0xf3
 3154 0021 01       		.uleb128 0x1
 3155 0022 50       		.byte	0x50
 3156 0023 9F       		.byte	0x9f
 3157 0024 00000000 		.4byte	0
 3158 0028 00000000 		.4byte	0
 3159              	.LLST1:
 3160 002c 00000000 		.4byte	.LVL5
 3161 0030 09000000 		.4byte	.LVL6-1
 3162 0034 0100     		.2byte	0x1
 3163 0036 51       		.byte	0x51
 3164 0037 09000000 		.4byte	.LVL6-1
 3165 003b 1A000000 		.4byte	.LVL8
 3166 003f 0100     		.2byte	0x1
 3167 0041 55       		.byte	0x55
 3168 0042 1A000000 		.4byte	.LVL8
 3169 0046 1E000000 		.4byte	.LFE279
 3170 004a 0400     		.2byte	0x4
 3171 004c F3       		.byte	0xf3
 3172 004d 01       		.uleb128 0x1
 3173 004e 51       		.byte	0x51
 3174 004f 9F       		.byte	0x9f
 3175 0050 00000000 		.4byte	0
 3176 0054 00000000 		.4byte	0
 3177              	.LLST2:
 3178 0058 00000000 		.4byte	.LVL10
 3179 005c 07000000 		.4byte	.LVL11-1
 3180 0060 0100     		.2byte	0x1
 3181 0062 50       		.byte	0x50
 3182 0063 07000000 		.4byte	.LVL11-1
 3183 0067 1A000000 		.4byte	.LVL13
 3184 006b 0100     		.2byte	0x1
 3185 006d 54       		.byte	0x54
 3186 006e 1A000000 		.4byte	.LVL13
 3187 0072 1E000000 		.4byte	.LFE280
 3188 0076 0400     		.2byte	0x4
 3189 0078 F3       		.byte	0xf3
 3190 0079 01       		.uleb128 0x1
 3191 007a 50       		.byte	0x50
 3192 007b 9F       		.byte	0x9f
ARM GAS  /tmp/ccSQlRC5.s 			page 57


 3193 007c 00000000 		.4byte	0
 3194 0080 00000000 		.4byte	0
 3195              	.LLST3:
 3196 0084 00000000 		.4byte	.LVL15
 3197 0088 07000000 		.4byte	.LVL16-1
 3198 008c 0100     		.2byte	0x1
 3199 008e 50       		.byte	0x50
 3200 008f 07000000 		.4byte	.LVL16-1
 3201 0093 16000000 		.4byte	.LVL18
 3202 0097 0100     		.2byte	0x1
 3203 0099 54       		.byte	0x54
 3204 009a 16000000 		.4byte	.LVL18
 3205 009e 1A000000 		.4byte	.LFE281
 3206 00a2 0400     		.2byte	0x4
 3207 00a4 F3       		.byte	0xf3
 3208 00a5 01       		.uleb128 0x1
 3209 00a6 50       		.byte	0x50
 3210 00a7 9F       		.byte	0x9f
 3211 00a8 00000000 		.4byte	0
 3212 00ac 00000000 		.4byte	0
 3213              	.LLST4:
 3214 00b0 00000000 		.4byte	.LVL20
 3215 00b4 07000000 		.4byte	.LVL21-1
 3216 00b8 0100     		.2byte	0x1
 3217 00ba 50       		.byte	0x50
 3218 00bb 07000000 		.4byte	.LVL21-1
 3219 00bf 22000000 		.4byte	.LFE282
 3220 00c3 0100     		.2byte	0x1
 3221 00c5 55       		.byte	0x55
 3222 00c6 00000000 		.4byte	0
 3223 00ca 00000000 		.4byte	0
 3224              	.LLST5:
 3225 00ce 0E000000 		.4byte	.LVL22
 3226 00d2 1D000000 		.4byte	.LVL23-1
 3227 00d6 0100     		.2byte	0x1
 3228 00d8 50       		.byte	0x50
 3229 00d9 00000000 		.4byte	0
 3230 00dd 00000000 		.4byte	0
 3231              	.LLST6:
 3232 00e1 00000000 		.4byte	.LVL24
 3233 00e5 07000000 		.4byte	.LVL25-1
 3234 00e9 0100     		.2byte	0x1
 3235 00eb 50       		.byte	0x50
 3236 00ec 07000000 		.4byte	.LVL25-1
 3237 00f0 16000000 		.4byte	.LVL27
 3238 00f4 0100     		.2byte	0x1
 3239 00f6 54       		.byte	0x54
 3240 00f7 16000000 		.4byte	.LVL27
 3241 00fb 1A000000 		.4byte	.LFE283
 3242 00ff 0400     		.2byte	0x4
 3243 0101 F3       		.byte	0xf3
 3244 0102 01       		.uleb128 0x1
 3245 0103 50       		.byte	0x50
 3246 0104 9F       		.byte	0x9f
 3247 0105 00000000 		.4byte	0
 3248 0109 00000000 		.4byte	0
 3249              	.LLST7:
ARM GAS  /tmp/ccSQlRC5.s 			page 58


 3250 010d 00000000 		.4byte	.LVL29
 3251 0111 07000000 		.4byte	.LVL30-1
 3252 0115 0100     		.2byte	0x1
 3253 0117 50       		.byte	0x50
 3254 0118 07000000 		.4byte	.LVL30-1
 3255 011c 12000000 		.4byte	.LVL32
 3256 0120 0100     		.2byte	0x1
 3257 0122 54       		.byte	0x54
 3258 0123 12000000 		.4byte	.LVL32
 3259 0127 16000000 		.4byte	.LFE284
 3260 012b 0400     		.2byte	0x4
 3261 012d F3       		.byte	0xf3
 3262 012e 01       		.uleb128 0x1
 3263 012f 50       		.byte	0x50
 3264 0130 9F       		.byte	0x9f
 3265 0131 00000000 		.4byte	0
 3266 0135 00000000 		.4byte	0
 3267              	.LLST8:
 3268 0139 00000000 		.4byte	.LVL34
 3269 013d 07000000 		.4byte	.LVL35-1
 3270 0141 0100     		.2byte	0x1
 3271 0143 50       		.byte	0x50
 3272 0144 07000000 		.4byte	.LVL35-1
 3273 0148 12000000 		.4byte	.LVL37
 3274 014c 0100     		.2byte	0x1
 3275 014e 54       		.byte	0x54
 3276 014f 12000000 		.4byte	.LVL37
 3277 0153 16000000 		.4byte	.LFE285
 3278 0157 0400     		.2byte	0x4
 3279 0159 F3       		.byte	0xf3
 3280 015a 01       		.uleb128 0x1
 3281 015b 50       		.byte	0x50
 3282 015c 9F       		.byte	0x9f
 3283 015d 00000000 		.4byte	0
 3284 0161 00000000 		.4byte	0
 3285              		.section	.debug_aranges,"",%progbits
 3286 0000 6C000000 		.4byte	0x6c
 3287 0004 0200     		.2byte	0x2
 3288 0006 00000000 		.4byte	.Ldebug_info0
 3289 000a 04       		.byte	0x4
 3290 000b 00       		.byte	0
 3291 000c 0000     		.2byte	0
 3292 000e 0000     		.2byte	0
 3293 0010 00000000 		.4byte	.LFB167
 3294 0014 0A000000 		.4byte	.LFE167-.LFB167
 3295 0018 00000000 		.4byte	.LFB168
 3296 001c 0E000000 		.4byte	.LFE168-.LFB168
 3297 0020 00000000 		.4byte	.LFB277
 3298 0024 04000000 		.4byte	.LFE277-.LFB277
 3299 0028 00000000 		.4byte	.LFB278
 3300 002c 0A000000 		.4byte	.LFE278-.LFB278
 3301 0030 00000000 		.4byte	.LFB279
 3302 0034 1E000000 		.4byte	.LFE279-.LFB279
 3303 0038 00000000 		.4byte	.LFB280
 3304 003c 1E000000 		.4byte	.LFE280-.LFB280
 3305 0040 00000000 		.4byte	.LFB281
 3306 0044 1A000000 		.4byte	.LFE281-.LFB281
ARM GAS  /tmp/ccSQlRC5.s 			page 59


 3307 0048 00000000 		.4byte	.LFB282
 3308 004c 22000000 		.4byte	.LFE282-.LFB282
 3309 0050 00000000 		.4byte	.LFB283
 3310 0054 1A000000 		.4byte	.LFE283-.LFB283
 3311 0058 00000000 		.4byte	.LFB284
 3312 005c 16000000 		.4byte	.LFE284-.LFB284
 3313 0060 00000000 		.4byte	.LFB285
 3314 0064 16000000 		.4byte	.LFE285-.LFB285
 3315 0068 00000000 		.4byte	0
 3316 006c 00000000 		.4byte	0
 3317              		.section	.debug_ranges,"",%progbits
 3318              	.Ldebug_ranges0:
 3319 0000 00000000 		.4byte	.LFB167
 3320 0004 0A000000 		.4byte	.LFE167
 3321 0008 00000000 		.4byte	.LFB168
 3322 000c 0E000000 		.4byte	.LFE168
 3323 0010 00000000 		.4byte	.LFB277
 3324 0014 04000000 		.4byte	.LFE277
 3325 0018 00000000 		.4byte	.LFB278
 3326 001c 0A000000 		.4byte	.LFE278
 3327 0020 00000000 		.4byte	.LFB279
 3328 0024 1E000000 		.4byte	.LFE279
 3329 0028 00000000 		.4byte	.LFB280
 3330 002c 1E000000 		.4byte	.LFE280
 3331 0030 00000000 		.4byte	.LFB281
 3332 0034 1A000000 		.4byte	.LFE281
 3333 0038 00000000 		.4byte	.LFB282
 3334 003c 22000000 		.4byte	.LFE282
 3335 0040 00000000 		.4byte	.LFB283
 3336 0044 1A000000 		.4byte	.LFE283
 3337 0048 00000000 		.4byte	.LFB284
 3338 004c 16000000 		.4byte	.LFE284
 3339 0050 00000000 		.4byte	.LFB285
 3340 0054 16000000 		.4byte	.LFE285
 3341 0058 00000000 		.4byte	0
 3342 005c 00000000 		.4byte	0
 3343              		.section	.debug_line,"",%progbits
 3344              	.Ldebug_line0:
 3345 0000 15040000 		.section	.debug_str,"MS",%progbits,1
 3345      0200A202 
 3345      00000201 
 3345      FB0E0D00 
 3345      01010101 
 3346              	.LASF126:
 3347 0000 4943555F 		.ascii	"ICU_INPUT_ACTIVE_HIGH\000"
 3347      494E5055 
 3347      545F4143 
 3347      54495645 
 3347      5F484947 
 3348              	.LASF53:
 3349 0016 72656164 		.ascii	"ready_list_t\000"
 3349      795F6C69 
 3349      73745F74 
 3349      00
 3350              	.LASF79:
 3351 0023 44494552 		.ascii	"DIER\000"
 3351      00
ARM GAS  /tmp/ccSQlRC5.s 			page 60


 3352              	.LASF103:
 3353 0028 77747472 		.ascii	"wttrp\000"
 3353      7000
 3354              	.LASF49:
 3355 002e 6E657874 		.ascii	"next\000"
 3355      00
 3356              	.LASF59:
 3357 0033 64656C74 		.ascii	"delta\000"
 3357      6100
 3358              	.LASF165:
 3359 0039 6963755F 		.ascii	"icu_lld_enable_notifications\000"
 3359      6C6C645F 
 3359      656E6162 
 3359      6C655F6E 
 3359      6F746966 
 3360              	.LASF16:
 3361 0056 75696E74 		.ascii	"uint64_t\000"
 3361      36345F74 
 3361      00
 3362              	.LASF72:
 3363 005f 6B65726E 		.ascii	"kernel_stats\000"
 3363      656C5F73 
 3363      74617473 
 3363      00
 3364              	.LASF117:
 3365 006c 4943555F 		.ascii	"ICU_WAITING\000"
 3365      57414954 
 3365      494E4700 
 3366              	.LASF118:
 3367 0078 4943555F 		.ascii	"ICU_ACTIVE\000"
 3367      41435449 
 3367      564500
 3368              	.LASF5:
 3369 0083 5F5F7569 		.ascii	"__uint8_t\000"
 3369      6E74385F 
 3369      7400
 3370              	.LASF52:
 3371 008d 70726576 		.ascii	"prev\000"
 3371      00
 3372              	.LASF77:
 3373 0092 706F7274 		.ascii	"port_intctx\000"
 3373      5F696E74 
 3373      63747800 
 3374              	.LASF51:
 3375 009e 63685F74 		.ascii	"ch_threads_queue\000"
 3375      68726561 
 3375      64735F71 
 3375      75657565 
 3375      00
 3376              	.LASF64:
 3377 00af 73797374 		.ascii	"system_debug_t\000"
 3377      656D5F64 
 3377      65627567 
 3377      5F7400
 3378              	.LASF147:
 3379 00be 69637549 		.ascii	"icuInit\000"
 3379      6E697400 
ARM GAS  /tmp/ccSQlRC5.s 			page 61


 3380              	.LASF141:
 3381 00c6 706F7274 		.ascii	"port_lock\000"
 3381      5F6C6F63 
 3381      6B00
 3382              	.LASF91:
 3383 00d0 776F7273 		.ascii	"worst\000"
 3383      7400
 3384              	.LASF119:
 3385 00d6 69637573 		.ascii	"icustate_t\000"
 3385      74617465 
 3385      5F7400
 3386              	.LASF12:
 3387 00e1 6C6F6E67 		.ascii	"long long unsigned int\000"
 3387      206C6F6E 
 3387      6720756E 
 3387      7369676E 
 3387      65642069 
 3388              	.LASF101:
 3389 00f8 65786974 		.ascii	"exitcode\000"
 3389      636F6465 
 3389      00
 3390              	.LASF71:
 3391 0101 6D61696E 		.ascii	"mainthread\000"
 3391      74687265 
 3391      616400
 3392              	.LASF104:
 3393 010c 73656E74 		.ascii	"sentmsg\000"
 3393      6D736700 
 3394              	.LASF61:
 3395 0114 76697274 		.ascii	"virtual_timers_list_t\000"
 3395      75616C5F 
 3395      74696D65 
 3395      72735F6C 
 3395      6973745F 
 3396              	.LASF157:
 3397 012a 49544D5F 		.ascii	"ITM_RxBuffer\000"
 3397      52784275 
 3397      66666572 
 3397      00
 3398              	.LASF83:
 3399 0137 42445452 		.ascii	"BDTR\000"
 3399      00
 3400              	.LASF18:
 3401 013c 72747469 		.ascii	"rttime_t\000"
 3401      6D655F74 
 3401      00
 3402              	.LASF4:
 3403 0145 73686F72 		.ascii	"short unsigned int\000"
 3403      7420756E 
 3403      7369676E 
 3403      65642069 
 3403      6E7400
 3404              	.LASF94:
 3405 0158 74696D65 		.ascii	"time_measurement_t\000"
 3405      5F6D6561 
 3405      73757265 
 3405      6D656E74 
ARM GAS  /tmp/ccSQlRC5.s 			page 62


 3405      5F7400
 3406              	.LASF80:
 3407 016b 43434D52 		.ascii	"CCMR1\000"
 3407      3100
 3408              	.LASF81:
 3409 0171 43434D52 		.ascii	"CCMR2\000"
 3409      3200
 3410              	.LASF85:
 3411 0177 43434D52 		.ascii	"CCMR3\000"
 3411      3300
 3412              	.LASF1:
 3413 017d 7369676E 		.ascii	"signed char\000"
 3413      65642063 
 3413      68617200 
 3414              	.LASF140:
 3415 0189 49435543 		.ascii	"ICUConfig\000"
 3415      6F6E6669 
 3415      6700
 3416              	.LASF69:
 3417 0193 726C6973 		.ascii	"rlist\000"
 3417      7400
 3418              	.LASF70:
 3419 0199 76746C69 		.ascii	"vtlist\000"
 3419      737400
 3420              	.LASF168:
 3421 01a0 2F686F6D 		.ascii	"/home/kozinalexey/f4by/ardupilot/build/f4by-ch\000"
 3421      652F6B6F 
 3421      7A696E61 
 3421      6C657865 
 3421      792F6634 
 3422              	.LASF142:
 3423 01cf 706F7274 		.ascii	"port_unlock\000"
 3423      5F756E6C 
 3423      6F636B00 
 3424              	.LASF39:
 3425 01db 6D736771 		.ascii	"msgqueue\000"
 3425      75657565 
 3425      00
 3426              	.LASF35:
 3427 01e4 73746174 		.ascii	"state\000"
 3427      6500
 3428              	.LASF7:
 3429 01ea 6C6F6E67 		.ascii	"long int\000"
 3429      20696E74 
 3429      00
 3430              	.LASF20:
 3431 01f3 74737461 		.ascii	"tstate_t\000"
 3431      74655F74 
 3431      00
 3432              	.LASF60:
 3433 01fc 66756E63 		.ascii	"func\000"
 3433      00
 3434              	.LASF44:
 3435 0201 73746174 		.ascii	"stats\000"
 3435      7300
 3436              	.LASF149:
 3437 0207 69637553 		.ascii	"icuStart\000"
ARM GAS  /tmp/ccSQlRC5.s 			page 63


 3437      74617274 
 3437      00
 3438              	.LASF8:
 3439 0210 5F5F7569 		.ascii	"__uint32_t\000"
 3439      6E743332 
 3439      5F7400
 3440              	.LASF74:
 3441 021b 72656761 		.ascii	"regarm_t\000"
 3441      726D5F74 
 3441      00
 3442              	.LASF65:
 3443 0224 63685F73 		.ascii	"ch_system_debug\000"
 3443      79737465 
 3443      6D5F6465 
 3443      62756700 
 3444              	.LASF38:
 3445 0234 77616974 		.ascii	"waiting\000"
 3445      696E6700 
 3446              	.LASF143:
 3447 023c 6F73616C 		.ascii	"osalSysLock\000"
 3447      5379734C 
 3447      6F636B00 
 3448              	.LASF10:
 3449 0248 6C6F6E67 		.ascii	"long long int\000"
 3449      206C6F6E 
 3449      6720696E 
 3449      7400
 3450              	.LASF170:
 3451 0256 76616C75 		.ascii	"value\000"
 3451      6500
 3452              	.LASF25:
 3453 025c 636E745F 		.ascii	"cnt_t\000"
 3453      7400
 3454              	.LASF0:
 3455 0262 756E7369 		.ascii	"unsigned int\000"
 3455      676E6564 
 3455      20696E74 
 3455      00
 3456              	.LASF166:
 3457 026f 474E5520 		.ascii	"GNU C 4.9.3 20150529 (prerelease) -mcpu=cortex-m4 -"
 3457      4320342E 
 3457      392E3320 
 3457      32303135 
 3457      30353239 
 3458 02a2 6D666C6F 		.ascii	"mfloat-abi=hard -mfpu=fpv4-sp-d16 -mno-thumb-interw"
 3458      61742D61 
 3458      62693D68 
 3458      61726420 
 3458      2D6D6670 
 3459 02d5 6F726B20 		.ascii	"ork -mthumb -g -Os -fomit-frame-pointer -falign-fun"
 3459      2D6D7468 
 3459      756D6220 
 3459      2D67202D 
 3459      4F73202D 
 3460 0308 6374696F 		.ascii	"ctions=16 -ffunction-sections -fdata-sections -fno-"
 3460      6E733D31 
 3460      36202D66 
ARM GAS  /tmp/ccSQlRC5.s 			page 64


 3460      66756E63 
 3460      74696F6E 
 3461 033b 636F6D6D 		.ascii	"common -fsingle-precision-constant\000"
 3461      6F6E202D 
 3461      6673696E 
 3461      676C652D 
 3461      70726563 
 3462              	.LASF105:
 3463 035e 77747365 		.ascii	"wtsemp\000"
 3463      6D7000
 3464              	.LASF125:
 3465 0365 69637563 		.ascii	"icucallback_t\000"
 3465      616C6C62 
 3465      61636B5F 
 3465      7400
 3466              	.LASF47:
 3467 0373 63685F74 		.ascii	"ch_thread\000"
 3467      68726561 
 3467      6400
 3468              	.LASF136:
 3469 037d 70657269 		.ascii	"period_cb\000"
 3469      6F645F63 
 3469      6200
 3470              	.LASF95:
 3471 0387 6E5F6972 		.ascii	"n_irq\000"
 3471      7100
 3472              	.LASF29:
 3473 038d 71756575 		.ascii	"queue\000"
 3473      6500
 3474              	.LASF43:
 3475 0393 6D706F6F 		.ascii	"mpool\000"
 3475      6C00
 3476              	.LASF90:
 3477 0399 62657374 		.ascii	"best\000"
 3477      00
 3478              	.LASF137:
 3479 039e 6F766572 		.ascii	"overflow_cb\000"
 3479      666C6F77 
 3479      5F636200 
 3480              	.LASF99:
 3481 03aa 6B65726E 		.ascii	"kernel_stats_t\000"
 3481      656C5F73 
 3481      74617473 
 3481      5F7400
 3482              	.LASF33:
 3483 03b9 6E616D65 		.ascii	"name\000"
 3483      00
 3484              	.LASF23:
 3485 03be 6D73675F 		.ascii	"msg_t\000"
 3485      7400
 3486              	.LASF92:
 3487 03c4 6C617374 		.ascii	"last\000"
 3487      00
 3488              	.LASF134:
 3489 03c9 66726571 		.ascii	"frequency\000"
 3489      75656E63 
 3489      7900
ARM GAS  /tmp/ccSQlRC5.s 			page 65


 3490              	.LASF26:
 3491 03d3 75636E74 		.ascii	"ucnt_t\000"
 3491      5F7400
 3492              	.LASF40:
 3493 03da 6570656E 		.ascii	"epending\000"
 3493      64696E67 
 3493      00
 3494              	.LASF67:
 3495 03e3 63685F73 		.ascii	"ch_system_t\000"
 3495      79737465 
 3495      6D5F7400 
 3496              	.LASF120:
 3497 03ef 49435544 		.ascii	"ICUDriver\000"
 3497      72697665 
 3497      7200
 3498              	.LASF87:
 3499 03f9 73746D33 		.ascii	"stm32_tim_t\000"
 3499      325F7469 
 3499      6D5F7400 
 3500              	.LASF98:
 3501 0405 6D5F6372 		.ascii	"m_crit_isr\000"
 3501      69745F69 
 3501      737200
 3502              	.LASF54:
 3503 0410 63685F72 		.ascii	"ch_ready_list\000"
 3503      65616479 
 3503      5F6C6973 
 3503      7400
 3504              	.LASF24:
 3505 041e 6576656E 		.ascii	"eventmask_t\000"
 3505      746D6173 
 3505      6B5F7400 
 3506              	.LASF3:
 3507 042a 73686F72 		.ascii	"short int\000"
 3507      7420696E 
 3507      7400
 3508              	.LASF6:
 3509 0434 5F5F696E 		.ascii	"__int32_t\000"
 3509      7433325F 
 3509      7400
 3510              	.LASF156:
 3511 043e 69637544 		.ascii	"icuDisableNotifications\000"
 3511      69736162 
 3511      6C654E6F 
 3511      74696669 
 3511      63617469 
 3512              	.LASF171:
 3513 0456 69637557 		.ascii	"icuWaitCapture\000"
 3513      61697443 
 3513      61707475 
 3513      726500
 3514              	.LASF116:
 3515 0465 4943555F 		.ascii	"ICU_READY\000"
 3515      52454144 
 3515      5900
 3516              	.LASF75:
 3517 046f 73746B61 		.ascii	"stkalign_t\000"
ARM GAS  /tmp/ccSQlRC5.s 			page 66


 3517      6C69676E 
 3517      5F7400
 3518              	.LASF31:
 3519 047a 6E657765 		.ascii	"newer\000"
 3519      7200
 3520              	.LASF164:
 3521 0480 6963755F 		.ascii	"icu_lld_stop_capture\000"
 3521      6C6C645F 
 3521      73746F70 
 3521      5F636170 
 3521      74757265 
 3522              	.LASF42:
 3523 0495 7265616C 		.ascii	"realprio\000"
 3523      7072696F 
 3523      00
 3524              	.LASF163:
 3525 049e 6963755F 		.ascii	"icu_lld_start_capture\000"
 3525      6C6C645F 
 3525      73746172 
 3525      745F6361 
 3525      70747572 
 3526              	.LASF159:
 3527 04b4 5F737461 		.ascii	"_stats_stop_measure_crit_thd\000"
 3527      74735F73 
 3527      746F705F 
 3527      6D656173 
 3527      7572655F 
 3528              	.LASF73:
 3529 04d1 73697A65 		.ascii	"sizetype\000"
 3529      74797065 
 3529      00
 3530              	.LASF45:
 3531 04da 74687265 		.ascii	"thread_reference_t\000"
 3531      61645F72 
 3531      65666572 
 3531      656E6365 
 3531      5F7400
 3532              	.LASF62:
 3533 04ed 63685F76 		.ascii	"ch_virtual_timers_list\000"
 3533      69727475 
 3533      616C5F74 
 3533      696D6572 
 3533      735F6C69 
 3534              	.LASF174:
 3535 0504 6963755F 		.ascii	"icu_lld_disable_notifications\000"
 3535      6C6C645F 
 3535      64697361 
 3535      626C655F 
 3535      6E6F7469 
 3536              	.LASF135:
 3537 0522 77696474 		.ascii	"width_cb\000"
 3537      685F6362 
 3537      00
 3538              	.LASF100:
 3539 052b 7264796D 		.ascii	"rdymsg\000"
 3539      736700
 3540              	.LASF76:
ARM GAS  /tmp/ccSQlRC5.s 			page 67


 3541 0532 706F7274 		.ascii	"port_context\000"
 3541      5F636F6E 
 3541      74657874 
 3541      00
 3542              	.LASF115:
 3543 053f 4943555F 		.ascii	"ICU_STOP\000"
 3543      53544F50 
 3543      00
 3544              	.LASF89:
 3545 0548 746D5F63 		.ascii	"tm_calibration_t\000"
 3545      616C6962 
 3545      72617469 
 3545      6F6E5F74 
 3545      00
 3546              	.LASF127:
 3547 0559 4943555F 		.ascii	"ICU_INPUT_ACTIVE_LOW\000"
 3547      494E5055 
 3547      545F4143 
 3547      54495645 
 3547      5F4C4F57 
 3548              	.LASF30:
 3549 056e 7072696F 		.ascii	"prio\000"
 3549      00
 3550              	.LASF55:
 3551 0573 63757272 		.ascii	"current\000"
 3551      656E7400 
 3552              	.LASF11:
 3553 057b 5F5F7569 		.ascii	"__uint64_t\000"
 3553      6E743634 
 3553      5F7400
 3554              	.LASF93:
 3555 0586 63756D75 		.ascii	"cumulative\000"
 3555      6C617469 
 3555      766500
 3556              	.LASF155:
 3557 0591 69637545 		.ascii	"icuEnableNotifications\000"
 3557      6E61626C 
 3557      654E6F74 
 3557      69666963 
 3557      6174696F 
 3558              	.LASF21:
 3559 05a8 74726566 		.ascii	"trefs_t\000"
 3559      735F7400 
 3560              	.LASF124:
 3561 05b0 70636372 		.ascii	"pccrp\000"
 3561      7000
 3562              	.LASF37:
 3563 05b6 72656673 		.ascii	"refs\000"
 3563      00
 3564              	.LASF57:
 3565 05bb 76697274 		.ascii	"virtual_timer_t\000"
 3565      75616C5F 
 3565      74696D65 
 3565      725F7400 
 3566              	.LASF41:
 3567 05cb 6D74786C 		.ascii	"mtxlist\000"
 3567      69737400 
ARM GAS  /tmp/ccSQlRC5.s 			page 68


 3568              	.LASF22:
 3569 05d3 74707269 		.ascii	"tprio_t\000"
 3569      6F5F7400 
 3570              	.LASF150:
 3571 05db 69637570 		.ascii	"icup\000"
 3571      00
 3572              	.LASF96:
 3573 05e0 6E5F6374 		.ascii	"n_ctxswc\000"
 3573      78737763 
 3573      00
 3574              	.LASF113:
 3575 05e9 5F426F6F 		.ascii	"_Bool\000"
 3575      6C00
 3576              	.LASF14:
 3577 05ef 696E7433 		.ascii	"int32_t\000"
 3577      325F7400 
 3578              	.LASF2:
 3579 05f7 756E7369 		.ascii	"unsigned char\000"
 3579      676E6564 
 3579      20636861 
 3579      7200
 3580              	.LASF128:
 3581 0605 6963756D 		.ascii	"icumode_t\000"
 3581      6F64655F 
 3581      7400
 3582              	.LASF63:
 3583 060f 6C617374 		.ascii	"lasttime\000"
 3583      74696D65 
 3583      00
 3584              	.LASF152:
 3585 0618 69637553 		.ascii	"icuStop\000"
 3585      746F7000 
 3586              	.LASF107:
 3587 0620 65776D61 		.ascii	"ewmask\000"
 3587      736B00
 3588              	.LASF68:
 3589 0627 63685F73 		.ascii	"ch_system\000"
 3589      79737465 
 3589      6D00
 3590              	.LASF151:
 3591 0631 5F5F6675 		.ascii	"__func__\000"
 3591      6E635F5F 
 3591      00
 3592              	.LASF145:
 3593 063a 63685379 		.ascii	"chSysLock\000"
 3593      734C6F63 
 3593      6B00
 3594              	.LASF144:
 3595 0644 6F73616C 		.ascii	"osalSysUnlock\000"
 3595      53797355 
 3595      6E6C6F63 
 3595      6B00
 3596              	.LASF132:
 3597 0652 69637563 		.ascii	"icuchannel_t\000"
 3597      68616E6E 
 3597      656C5F74 
 3597      00
ARM GAS  /tmp/ccSQlRC5.s 			page 69


 3598              	.LASF138:
 3599 065f 6368616E 		.ascii	"channel\000"
 3599      6E656C00 
 3600              	.LASF58:
 3601 0667 63685F76 		.ascii	"ch_virtual_timer\000"
 3601      69727475 
 3601      616C5F74 
 3601      696D6572 
 3601      00
 3602              	.LASF108:
 3603 0678 63685F73 		.ascii	"ch_semaphore\000"
 3603      656D6170 
 3603      686F7265 
 3603      00
 3604              	.LASF86:
 3605 0685 43435852 		.ascii	"CCXR\000"
 3605      00
 3606              	.LASF148:
 3607 068a 6963754F 		.ascii	"icuObjectInit\000"
 3607      626A6563 
 3607      74496E69 
 3607      7400
 3608              	.LASF106:
 3609 0698 77746D74 		.ascii	"wtmtxp\000"
 3609      787000
 3610              	.LASF48:
 3611 069f 63685F74 		.ascii	"ch_threads_list\000"
 3611      68726561 
 3611      64735F6C 
 3611      69737400 
 3612              	.LASF110:
 3613 06af 6F776E65 		.ascii	"owner\000"
 3613      7200
 3614              	.LASF9:
 3615 06b5 6C6F6E67 		.ascii	"long unsigned int\000"
 3615      20756E73 
 3615      69676E65 
 3615      6420696E 
 3615      7400
 3616              	.LASF34:
 3617 06c7 77616261 		.ascii	"wabase\000"
 3617      736500
 3618              	.LASF111:
 3619 06ce 63686172 		.ascii	"char\000"
 3619      00
 3620              	.LASF32:
 3621 06d3 6F6C6465 		.ascii	"older\000"
 3621      7200
 3622              	.LASF133:
 3623 06d9 6D6F6465 		.ascii	"mode\000"
 3623      00
 3624              	.LASF78:
 3625 06de 534D4352 		.ascii	"SMCR\000"
 3625      00
 3626              	.LASF121:
 3627 06e3 636F6E66 		.ascii	"config\000"
 3627      696700
ARM GAS  /tmp/ccSQlRC5.s 			page 70


 3628              	.LASF84:
 3629 06ea 444D4152 		.ascii	"DMAR\000"
 3629      00
 3630              	.LASF28:
 3631 06ef 74687265 		.ascii	"thread_t\000"
 3631      61645F74 
 3631      00
 3632              	.LASF82:
 3633 06f8 43434552 		.ascii	"CCER\000"
 3633      00
 3634              	.LASF27:
 3635 06fd 73797374 		.ascii	"systime_t\000"
 3635      696D655F 
 3635      7400
 3636              	.LASF56:
 3637 0707 76746675 		.ascii	"vtfunc_t\000"
 3637      6E635F74 
 3637      00
 3638              	.LASF169:
 3639 0710 5F5F7365 		.ascii	"__set_BASEPRI\000"
 3639      745F4241 
 3639      53455052 
 3639      4900
 3640              	.LASF66:
 3641 071e 70616E69 		.ascii	"panic_msg\000"
 3641      635F6D73 
 3641      6700
 3642              	.LASF88:
 3643 0728 6F666673 		.ascii	"offset\000"
 3643      657400
 3644              	.LASF153:
 3645 072f 69637553 		.ascii	"icuStartCapture\000"
 3645      74617274 
 3645      43617074 
 3645      75726500 
 3646              	.LASF162:
 3647 073f 6963755F 		.ascii	"icu_lld_stop\000"
 3647      6C6C645F 
 3647      73746F70 
 3647      00
 3648              	.LASF160:
 3649 074c 6963755F 		.ascii	"icu_lld_init\000"
 3649      6C6C645F 
 3649      696E6974 
 3649      00
 3650              	.LASF129:
 3651 0759 69637566 		.ascii	"icufreq_t\000"
 3651      7265715F 
 3651      7400
 3652              	.LASF17:
 3653 0763 7274636E 		.ascii	"rtcnt_t\000"
 3653      745F7400 
 3654              	.LASF15:
 3655 076b 75696E74 		.ascii	"uint32_t\000"
 3655      33325F74 
 3655      00
 3656              	.LASF50:
ARM GAS  /tmp/ccSQlRC5.s 			page 71


 3657 0774 74687265 		.ascii	"threads_queue_t\000"
 3657      6164735F 
 3657      71756575 
 3657      655F7400 
 3658              	.LASF109:
 3659 0784 63685F6D 		.ascii	"ch_mutex\000"
 3659      75746578 
 3659      00
 3660              	.LASF167:
 3661 078d 2E2E2F2E 		.ascii	"../../modules/ChibiOS/os/hal/src/hal_icu.c\000"
 3661      2E2F6D6F 
 3661      64756C65 
 3661      732F4368 
 3661      6962694F 
 3662              	.LASF173:
 3663 07b8 6963755F 		.ascii	"icu_lld_wait_capture\000"
 3663      6C6C645F 
 3663      77616974 
 3663      5F636170 
 3663      74757265 
 3664              	.LASF114:
 3665 07cd 4943555F 		.ascii	"ICU_UNINIT\000"
 3665      554E494E 
 3665      495400
 3666              	.LASF130:
 3667 07d8 4943555F 		.ascii	"ICU_CHANNEL_1\000"
 3667      4348414E 
 3667      4E454C5F 
 3667      3100
 3668              	.LASF131:
 3669 07e6 4943555F 		.ascii	"ICU_CHANNEL_2\000"
 3669      4348414E 
 3669      4E454C5F 
 3669      3200
 3670              	.LASF13:
 3671 07f4 75696E74 		.ascii	"uint8_t\000"
 3671      385F7400 
 3672              	.LASF36:
 3673 07fc 666C6167 		.ascii	"flags\000"
 3673      7300
 3674              	.LASF158:
 3675 0802 5F737461 		.ascii	"_stats_start_measure_crit_thd\000"
 3675      74735F73 
 3675      74617274 
 3675      5F6D6561 
 3675      73757265 
 3676              	.LASF102:
 3677 0820 77746F62 		.ascii	"wtobjp\000"
 3677      6A7000
 3678              	.LASF46:
 3679 0827 74687265 		.ascii	"threads_list_t\000"
 3679      6164735F 
 3679      6C697374 
 3679      5F7400
 3680              	.LASF154:
 3681 0836 69637553 		.ascii	"icuStopCapture\000"
 3681      746F7043 
ARM GAS  /tmp/ccSQlRC5.s 			page 72


 3681      61707475 
 3681      726500
 3682              	.LASF19:
 3683 0845 746D6F64 		.ascii	"tmode_t\000"
 3683      655F7400 
 3684              	.LASF161:
 3685 084d 6963755F 		.ascii	"icu_lld_start\000"
 3685      6C6C645F 
 3685      73746172 
 3685      7400
 3686              	.LASF146:
 3687 085b 63685379 		.ascii	"chSysUnlock\000"
 3687      73556E6C 
 3687      6F636B00 
 3688              	.LASF122:
 3689 0867 636C6F63 		.ascii	"clock\000"
 3689      6B00
 3690              	.LASF123:
 3691 086d 77636372 		.ascii	"wccrp\000"
 3691      7000
 3692              	.LASF112:
 3693 0873 6D757465 		.ascii	"mutex_t\000"
 3693      785F7400 
 3694              	.LASF97:
 3695 087b 6D5F6372 		.ascii	"m_crit_thd\000"
 3695      69745F74 
 3695      686400
 3696              	.LASF172:
 3697 0886 72657375 		.ascii	"result\000"
 3697      6C7400
 3698              	.LASF139:
 3699 088d 64696572 		.ascii	"dier\000"
 3699      00
 3700              		.ident	"GCC: (15:4.9.3+svn231177-1) 4.9.3 20150529 (prerelease)"
ARM GAS  /tmp/ccSQlRC5.s 			page 73


DEFINED SYMBOLS
                            *ABS*:0000000000000000 hal_icu.c
     /tmp/ccSQlRC5.s:21     .text.chSysLock:0000000000000000 $t
     /tmp/ccSQlRC5.s:25     .text.chSysLock:0000000000000000 chSysLock
     /tmp/ccSQlRC5.s:54     .text.chSysUnlock:0000000000000000 $t
     /tmp/ccSQlRC5.s:58     .text.chSysUnlock:0000000000000000 chSysUnlock
     /tmp/ccSQlRC5.s:88     .text.icuInit:0000000000000000 $t
     /tmp/ccSQlRC5.s:93     .text.icuInit:0000000000000000 icuInit
     /tmp/ccSQlRC5.s:108    .text.icuObjectInit:0000000000000000 $t
     /tmp/ccSQlRC5.s:113    .text.icuObjectInit:0000000000000000 icuObjectInit
     /tmp/ccSQlRC5.s:132    .text.icuStart:0000000000000000 $t
     /tmp/ccSQlRC5.s:137    .text.icuStart:0000000000000000 icuStart
     /tmp/ccSQlRC5.s:189    .text.icuStop:0000000000000000 $t
     /tmp/ccSQlRC5.s:194    .text.icuStop:0000000000000000 icuStop
     /tmp/ccSQlRC5.s:241    .text.icuStartCapture:0000000000000000 $t
     /tmp/ccSQlRC5.s:246    .text.icuStartCapture:0000000000000000 icuStartCapture
     /tmp/ccSQlRC5.s:289    .text.icuWaitCapture:0000000000000000 $t
     /tmp/ccSQlRC5.s:294    .text.icuWaitCapture:0000000000000000 icuWaitCapture
     /tmp/ccSQlRC5.s:341    .text.icuStopCapture:0000000000000000 $t
     /tmp/ccSQlRC5.s:346    .text.icuStopCapture:0000000000000000 icuStopCapture
     /tmp/ccSQlRC5.s:389    .text.icuEnableNotifications:0000000000000000 $t
     /tmp/ccSQlRC5.s:394    .text.icuEnableNotifications:0000000000000000 icuEnableNotifications
     /tmp/ccSQlRC5.s:435    .text.icuDisableNotifications:0000000000000000 $t
     /tmp/ccSQlRC5.s:440    .text.icuDisableNotifications:0000000000000000 icuDisableNotifications
                     .debug_frame:0000000000000010 $d

UNDEFINED SYMBOLS
_stats_start_measure_crit_thd
_stats_stop_measure_crit_thd
icu_lld_init
icu_lld_start
icu_lld_stop
icu_lld_start_capture
icu_lld_wait_capture
icu_lld_stop_capture
icu_lld_enable_notifications
icu_lld_disable_notifications
