ARM GAS  /tmp/ccwbRd47.s 			page 1


   1              		.syntax unified
   2              		.cpu cortex-m4
   3              		.eabi_attribute 27, 1
   4              		.eabi_attribute 28, 1
   5              		.fpu fpv4-sp-d16
   6              		.eabi_attribute 20, 1
   7              		.eabi_attribute 21, 1
   8              		.eabi_attribute 23, 3
   9              		.eabi_attribute 24, 1
  10              		.eabi_attribute 25, 1
  11              		.eabi_attribute 26, 1
  12              		.eabi_attribute 30, 4
  13              		.eabi_attribute 34, 1
  14              		.eabi_attribute 18, 4
  15              		.thumb
  16              		.file	"hal_buffers.c"
  17              		.text
  18              	.Ltext0:
  19              		.cfi_sections	.debug_frame
  20              		.section	.text.chSysLock,"ax",%progbits
  21              		.align	1
  22              		.thumb
  23              		.thumb_func
  24              		.type	chSysLock, %function
  25              	chSysLock:
  26              	.LFB167:
  27              		.file 1 "../../modules/ChibiOS/os/rt/include/chsys.h"
  28              		.loc 1 374 0
  29              		.cfi_startproc
  30              		@ args = 0, pretend = 0, frame = 0
  31              		@ frame_needed = 0, uses_anonymous_args = 0
  32              		@ link register save eliminated.
  33              	.LVL0:
  34              	.LBB144:
  35              	.LBB145:
  36              	.LBB146:
  37              		.file 2 "../../modules/ChibiOS/os/common/ext/CMSIS/include/cmsis_gcc.h"
  38              		.loc 2 264 0
  39 0000 2023     		movs	r3, #32
  40              	@ 264 "../../modules/ChibiOS/os/common/ext/CMSIS/include/cmsis_gcc.h" 1
  41 0002 83F31188 		MSR basepri, r3
  42              	@ 0 "" 2
  43              		.thumb
  44              	.LBE146:
  45              	.LBE145:
  46              	.LBE144:
  47              		.loc 1 377 0
  48 0006 FFF7FEBF 		b	_stats_start_measure_crit_thd
  49              	.LVL1:
  50              		.cfi_endproc
  51              	.LFE167:
  52              		.size	chSysLock, .-chSysLock
  53              		.section	.text.chSysUnlock,"ax",%progbits
  54              		.align	1
  55              		.thumb
  56              		.thumb_func
  57              		.type	chSysUnlock, %function
ARM GAS  /tmp/ccwbRd47.s 			page 2


  58              	chSysUnlock:
  59              	.LFB168:
  60              		.loc 1 386 0
  61              		.cfi_startproc
  62              		@ args = 0, pretend = 0, frame = 0
  63              		@ frame_needed = 0, uses_anonymous_args = 0
  64 0000 08B5     		push	{r3, lr}
  65              		.cfi_def_cfa_offset 8
  66              		.cfi_offset 3, -8
  67              		.cfi_offset 14, -4
  68              		.loc 1 389 0
  69 0002 FFF7FEFF 		bl	_stats_stop_measure_crit_thd
  70              	.LVL2:
  71              	.LBB147:
  72              	.LBB148:
  73              	.LBB149:
  74              		.loc 2 264 0
  75 0006 0023     		movs	r3, #0
  76              	@ 264 "../../modules/ChibiOS/os/common/ext/CMSIS/include/cmsis_gcc.h" 1
  77 0008 83F31188 		MSR basepri, r3
  78              	@ 0 "" 2
  79              		.thumb
  80 000c 08BD     		pop	{r3, pc}
  81              	.LBE149:
  82              	.LBE148:
  83              	.LBE147:
  84              		.cfi_endproc
  85              	.LFE168:
  86              		.size	chSysUnlock, .-chSysUnlock
  87              		.section	.text.ibqObjectInit,"ax",%progbits
  88              		.align	1
  89              		.global	ibqObjectInit
  90              		.thumb
  91              		.thumb_func
  92              		.type	ibqObjectInit, %function
  93              	ibqObjectInit:
  94              	.LFB277:
  95              		.file 3 "../../modules/ChibiOS/os/hal/src/hal_buffers.c"
  96              		.loc 3 77 0
  97              		.cfi_startproc
  98              		@ args = 12, pretend = 0, frame = 0
  99              		@ frame_needed = 0, uses_anonymous_args = 0
 100              	.LVL3:
 101 0000 30B5     		push	{r4, r5, lr}
 102              		.cfi_def_cfa_offset 12
 103              		.cfi_offset 4, -12
 104              		.cfi_offset 5, -8
 105              		.cfi_offset 14, -4
 106              		.loc 3 77 0
 107 0002 039C     		ldr	r4, [sp, #12]
 108              		.loc 3 82 0
 109 0004 0172     		strb	r1, [r0, #8]
 110              		.loc 3 86 0
 111 0006 0433     		adds	r3, r3, #4
 112              	.LVL4:
 113 0008 04FB0325 		mla	r5, r4, r3, r2
 114              		.loc 3 87 0
ARM GAS  /tmp/ccwbRd47.s 			page 3


 115 000c C361     		str	r3, [r0, #28]
 116              		.loc 3 92 0
 117 000e 049B     		ldr	r3, [sp, #16]
 118              	.LVL5:
 119 0010 0363     		str	r3, [r0, #48]
 120              		.loc 3 83 0
 121 0012 0021     		movs	r1, #0
 122              	.LVL6:
 123              		.loc 3 93 0
 124 0014 059B     		ldr	r3, [sp, #20]
 125              	.LBB150:
 126              	.LBB151:
 127              	.LBB152:
 128              	.LBB153:
 129              		.file 4 "../../modules/ChibiOS/os/rt/include/chschd.h"
 130              		.loc 4 550 0
 131 0016 0060     		str	r0, [r0]
 132              		.loc 4 551 0
 133 0018 4060     		str	r0, [r0, #4]
 134              	.LBE153:
 135              	.LBE152:
 136              	.LBE151:
 137              	.LBE150:
 138              		.loc 3 83 0
 139 001a C160     		str	r1, [r0, #12]
 140              		.loc 3 84 0
 141 001c 4261     		str	r2, [r0, #20]
 142              		.loc 3 85 0
 143 001e 0261     		str	r2, [r0, #16]
 144              		.loc 3 86 0
 145 0020 8561     		str	r5, [r0, #24]
 146              		.loc 3 88 0
 147 0022 0462     		str	r4, [r0, #32]
 148              		.loc 3 89 0
 149 0024 4262     		str	r2, [r0, #36]
 150              		.loc 3 90 0
 151 0026 8162     		str	r1, [r0, #40]
 152              		.loc 3 91 0
 153 0028 C162     		str	r1, [r0, #44]
 154              		.loc 3 93 0
 155 002a 4363     		str	r3, [r0, #52]
 156 002c 30BD     		pop	{r4, r5, pc}
 157              		.cfi_endproc
 158              	.LFE277:
 159              		.size	ibqObjectInit, .-ibqObjectInit
 160              		.section	.text.ibqResetI,"ax",%progbits
 161              		.align	1
 162              		.global	ibqResetI
 163              		.thumb
 164              		.thumb_func
 165              		.type	ibqResetI, %function
 166              	ibqResetI:
 167              	.LFB278:
 168              		.loc 3 107 0
 169              		.cfi_startproc
 170              		@ args = 0, pretend = 0, frame = 0
 171              		@ frame_needed = 0, uses_anonymous_args = 0
ARM GAS  /tmp/ccwbRd47.s 			page 4


 172              		@ link register save eliminated.
 173              	.LVL7:
 174              		.loc 3 111 0
 175 0000 0022     		movs	r2, #0
 176              		.loc 3 112 0
 177 0002 416A     		ldr	r1, [r0, #36]
 178 0004 4161     		str	r1, [r0, #20]
 179              		.loc 3 113 0
 180 0006 0161     		str	r1, [r0, #16]
 181              		.loc 3 111 0
 182 0008 C260     		str	r2, [r0, #12]
 183              		.loc 3 114 0
 184 000a 8262     		str	r2, [r0, #40]
 185              		.loc 3 115 0
 186 000c C262     		str	r2, [r0, #44]
 187              	.LVL8:
 188              	.LBB154:
 189              	.LBB155:
 190              		.file 5 "../../modules/ChibiOS/os/hal/osal/rt/osal.h"
 191              		.loc 5 810 0
 192 000e 6FF00101 		mvn	r1, #1
 193 0012 FFF7FEBF 		b	chThdDequeueAllI
 194              	.LVL9:
 195              	.LBE155:
 196              	.LBE154:
 197              		.cfi_endproc
 198              	.LFE278:
 199              		.size	ibqResetI, .-ibqResetI
 200              		.section	.text.ibqGetEmptyBufferI,"ax",%progbits
 201              		.align	1
 202              		.global	ibqGetEmptyBufferI
 203              		.thumb
 204              		.thumb_func
 205              		.type	ibqGetEmptyBufferI, %function
 206              	ibqGetEmptyBufferI:
 207              	.LFB279:
 208              		.loc 3 129 0
 209              		.cfi_startproc
 210              		@ args = 0, pretend = 0, frame = 0
 211              		@ frame_needed = 0, uses_anonymous_args = 0
 212              		@ link register save eliminated.
 213              	.LVL10:
 214              		.loc 3 133 0
 215 0000 0369     		ldr	r3, [r0, #16]
 216 0002 4269     		ldr	r2, [r0, #20]
 217 0004 9342     		cmp	r3, r2
 218 0006 03D1     		bne	.L6
 219              		.loc 3 133 0 is_stmt 0 discriminator 1
 220 0008 C268     		ldr	r2, [r0, #12]
 221 000a 0AB1     		cbz	r2, .L6
 222              		.loc 3 134 0 is_stmt 1
 223 000c 0020     		movs	r0, #0
 224              	.LVL11:
 225 000e 7047     		bx	lr
 226              	.LVL12:
 227              	.L6:
 228              		.loc 3 137 0
ARM GAS  /tmp/ccwbRd47.s 			page 5


 229 0010 181D     		adds	r0, r3, #4
 230              	.LVL13:
 231              		.loc 3 138 0
 232 0012 7047     		bx	lr
 233              		.cfi_endproc
 234              	.LFE279:
 235              		.size	ibqGetEmptyBufferI, .-ibqGetEmptyBufferI
 236              		.section	.text.ibqPostFullBufferI,"ax",%progbits
 237              		.align	1
 238              		.global	ibqPostFullBufferI
 239              		.thumb
 240              		.thumb_func
 241              		.type	ibqPostFullBufferI, %function
 242              	ibqPostFullBufferI:
 243              	.LFB280:
 244              		.loc 3 148 0
 245              		.cfi_startproc
 246              		@ args = 0, pretend = 0, frame = 0
 247              		@ frame_needed = 0, uses_anonymous_args = 0
 248              	.LVL14:
 249 0000 10B5     		push	{r4, lr}
 250              		.cfi_def_cfa_offset 8
 251              		.cfi_offset 4, -8
 252              		.cfi_offset 14, -4
 253              		.loc 3 156 0
 254 0002 0469     		ldr	r4, [r0, #16]
 255 0004 2160     		str	r1, [r4]
 256              		.loc 3 159 0
 257 0006 C268     		ldr	r2, [r0, #12]
 258              		.loc 3 160 0
 259 0008 C369     		ldr	r3, [r0, #28]
 260              		.loc 3 159 0
 261 000a 0132     		adds	r2, r2, #1
 262 000c C260     		str	r2, [r0, #12]
 263              		.loc 3 161 0
 264 000e 8269     		ldr	r2, [r0, #24]
 265              		.loc 3 160 0
 266 0010 2344     		add	r3, r3, r4
 267              		.loc 3 161 0
 268 0012 9342     		cmp	r3, r2
 269              		.loc 3 160 0
 270 0014 0361     		str	r3, [r0, #16]
 271              		.loc 3 162 0
 272 0016 24BF     		itt	cs
 273 0018 436A     		ldrcs	r3, [r0, #36]
 274 001a 0361     		strcs	r3, [r0, #16]
 275              	.LVL15:
 276              	.LBB156:
 277              	.LBB157:
 278              		.loc 5 797 0
 279 001c 0021     		movs	r1, #0
 280              	.LVL16:
 281              	.LBE157:
 282              	.LBE156:
 283              		.loc 3 167 0
 284 001e BDE81040 		pop	{r4, lr}
 285              		.cfi_restore 14
ARM GAS  /tmp/ccwbRd47.s 			page 6


 286              		.cfi_restore 4
 287              		.cfi_def_cfa_offset 0
 288              	.LBB159:
 289              	.LBB158:
 290              		.loc 5 797 0
 291 0022 FFF7FEBF 		b	chThdDequeueNextI
 292              	.LVL17:
 293              	.LBE158:
 294              	.LBE159:
 295              		.cfi_endproc
 296              	.LFE280:
 297              		.size	ibqPostFullBufferI, .-ibqPostFullBufferI
 298              		.section	.text.ibqGetFullBufferTimeoutS,"ax",%progbits
 299              		.align	1
 300              		.global	ibqGetFullBufferTimeoutS
 301              		.thumb
 302              		.thumb_func
 303              		.type	ibqGetFullBufferTimeoutS, %function
 304              	ibqGetFullBufferTimeoutS:
 305              	.LFB282:
 306              		.loc 3 223 0
 307              		.cfi_startproc
 308              		@ args = 0, pretend = 0, frame = 0
 309              		@ frame_needed = 0, uses_anonymous_args = 0
 310              	.LVL18:
 311 0000 38B5     		push	{r3, r4, r5, lr}
 312              		.cfi_def_cfa_offset 16
 313              		.cfi_offset 3, -16
 314              		.cfi_offset 4, -12
 315              		.cfi_offset 5, -8
 316              		.cfi_offset 14, -4
 317 0002 0446     		mov	r4, r0
 318 0004 0D46     		mov	r5, r1
 319              	.LVL19:
 320              	.L16:
 321              		.loc 3 227 0
 322 0006 E368     		ldr	r3, [r4, #12]
 323 0008 43B9     		cbnz	r3, .L21
 324              	.LBB168:
 325              		.loc 3 228 0
 326 000a 237A     		ldrb	r3, [r4, #8]	@ zero_extendqisi2
 327 000c 73B9     		cbnz	r3, .L19
 328              	.LVL20:
 329              	.LBB169:
 330              	.LBB170:
 331              		.loc 5 784 0
 332 000e 2046     		mov	r0, r4
 333 0010 2946     		mov	r1, r5
 334 0012 FFF7FEFF 		bl	chThdEnqueueTimeoutS
 335              	.LVL21:
 336              	.LBE170:
 337              	.LBE169:
 338              		.loc 3 232 0
 339 0016 0028     		cmp	r0, #0
 340 0018 F5DA     		bge	.L16
 341 001a 09E0     		b	.L17
 342              	.LVL22:
ARM GAS  /tmp/ccwbRd47.s 			page 7


 343              	.L21:
 344              	.LBE168:
 345              	.LBB171:
 346              	.LBB172:
 347              		.loc 3 240 0
 348 001c 6369     		ldr	r3, [r4, #20]
 349 001e 1A1D     		adds	r2, r3, #4
 350              		.loc 3 241 0
 351 0020 1B68     		ldr	r3, [r3]
 352              		.loc 3 240 0
 353 0022 A262     		str	r2, [r4, #40]
 354              		.loc 3 241 0
 355 0024 1344     		add	r3, r3, r2
 356 0026 E362     		str	r3, [r4, #44]
 357 0028 0020     		movs	r0, #0
 358 002a 38BD     		pop	{r3, r4, r5, pc}
 359              	.LVL23:
 360              	.L19:
 361              	.LBE172:
 362              	.LBE171:
 363              	.LBB173:
 364              		.loc 3 229 0
 365 002c 6FF00100 		mvn	r0, #1
 366              	.L17:
 367              	.LBE173:
 368              		.loc 3 244 0
 369 0030 38BD     		pop	{r3, r4, r5, pc}
 370              		.cfi_endproc
 371              	.LFE282:
 372              		.size	ibqGetFullBufferTimeoutS, .-ibqGetFullBufferTimeoutS
 373              		.section	.text.ibqGetFullBufferTimeout,"ax",%progbits
 374              		.align	1
 375              		.global	ibqGetFullBufferTimeout
 376              		.thumb
 377              		.thumb_func
 378              		.type	ibqGetFullBufferTimeout, %function
 379              	ibqGetFullBufferTimeout:
 380              	.LFB281:
 381              		.loc 3 191 0
 382              		.cfi_startproc
 383              		@ args = 0, pretend = 0, frame = 0
 384              		@ frame_needed = 0, uses_anonymous_args = 0
 385              	.LVL24:
 386 0000 38B5     		push	{r3, r4, r5, lr}
 387              		.cfi_def_cfa_offset 16
 388              		.cfi_offset 3, -16
 389              		.cfi_offset 4, -12
 390              		.cfi_offset 5, -8
 391              		.cfi_offset 14, -4
 392              		.loc 3 191 0
 393 0002 0546     		mov	r5, r0
 394 0004 0C46     		mov	r4, r1
 395              	.LBB174:
 396              	.LBB175:
 397              		.loc 5 493 0
 398 0006 FFF7FEFF 		bl	chSysLock
 399              	.LVL25:
ARM GAS  /tmp/ccwbRd47.s 			page 8


 400              	.LBE175:
 401              	.LBE174:
 402              		.loc 3 195 0
 403 000a 2146     		mov	r1, r4
 404 000c 2846     		mov	r0, r5
 405 000e FFF7FEFF 		bl	ibqGetFullBufferTimeoutS
 406              	.LVL26:
 407 0012 0446     		mov	r4, r0
 408              	.LVL27:
 409              	.LBB176:
 410              	.LBB177:
 411              		.loc 5 504 0
 412 0014 FFF7FEFF 		bl	chSysUnlock
 413              	.LVL28:
 414              	.LBE177:
 415              	.LBE176:
 416              		.loc 3 199 0
 417 0018 2046     		mov	r0, r4
 418 001a 38BD     		pop	{r3, r4, r5, pc}
 419              		.cfi_endproc
 420              	.LFE281:
 421              		.size	ibqGetFullBufferTimeout, .-ibqGetFullBufferTimeout
 422              		.section	.text.ibqReleaseEmptyBufferS,"ax",%progbits
 423              		.align	1
 424              		.global	ibqReleaseEmptyBufferS
 425              		.thumb
 426              		.thumb_func
 427              		.type	ibqReleaseEmptyBufferS, %function
 428              	ibqReleaseEmptyBufferS:
 429              	.LFB284:
 430              		.loc 3 269 0
 431              		.cfi_startproc
 432              		@ args = 0, pretend = 0, frame = 0
 433              		@ frame_needed = 0, uses_anonymous_args = 0
 434              		@ link register save eliminated.
 435              	.LVL29:
 436              		.loc 3 275 0
 437 0000 C368     		ldr	r3, [r0, #12]
 438              		.loc 3 276 0
 439 0002 4269     		ldr	r2, [r0, #20]
 440              		.loc 3 275 0
 441 0004 013B     		subs	r3, r3, #1
 442 0006 C360     		str	r3, [r0, #12]
 443              		.loc 3 276 0
 444 0008 C369     		ldr	r3, [r0, #28]
 445 000a 1344     		add	r3, r3, r2
 446              		.loc 3 277 0
 447 000c 8269     		ldr	r2, [r0, #24]
 448              		.loc 3 276 0
 449 000e 4361     		str	r3, [r0, #20]
 450              		.loc 3 277 0
 451 0010 9342     		cmp	r3, r2
 452              		.loc 3 278 0
 453 0012 24BF     		itt	cs
 454 0014 436A     		ldrcs	r3, [r0, #36]
 455 0016 4361     		strcs	r3, [r0, #20]
 456              		.loc 3 282 0
ARM GAS  /tmp/ccwbRd47.s 			page 9


 457 0018 0023     		movs	r3, #0
 458 001a 8362     		str	r3, [r0, #40]
 459              		.loc 3 285 0
 460 001c 036B     		ldr	r3, [r0, #48]
 461 001e 03B1     		cbz	r3, .L23
 462              		.loc 3 286 0
 463 0020 1847     		bx	r3	@ indirect register sibling call
 464              	.LVL30:
 465              	.L23:
 466 0022 7047     		bx	lr
 467              		.cfi_endproc
 468              	.LFE284:
 469              		.size	ibqReleaseEmptyBufferS, .-ibqReleaseEmptyBufferS
 470              		.section	.text.ibqReleaseEmptyBuffer,"ax",%progbits
 471              		.align	1
 472              		.global	ibqReleaseEmptyBuffer
 473              		.thumb
 474              		.thumb_func
 475              		.type	ibqReleaseEmptyBuffer, %function
 476              	ibqReleaseEmptyBuffer:
 477              	.LFB283:
 478              		.loc 3 254 0
 479              		.cfi_startproc
 480              		@ args = 0, pretend = 0, frame = 0
 481              		@ frame_needed = 0, uses_anonymous_args = 0
 482              	.LVL31:
 483 0000 10B5     		push	{r4, lr}
 484              		.cfi_def_cfa_offset 8
 485              		.cfi_offset 4, -8
 486              		.cfi_offset 14, -4
 487              		.loc 3 254 0
 488 0002 0446     		mov	r4, r0
 489              	.LBB178:
 490              	.LBB179:
 491              		.loc 5 493 0
 492 0004 FFF7FEFF 		bl	chSysLock
 493              	.LVL32:
 494              	.LBE179:
 495              	.LBE178:
 496              		.loc 3 257 0
 497 0008 2046     		mov	r0, r4
 498 000a FFF7FEFF 		bl	ibqReleaseEmptyBufferS
 499              	.LVL33:
 500              		.loc 3 259 0
 501 000e BDE81040 		pop	{r4, lr}
 502              		.cfi_restore 14
 503              		.cfi_restore 4
 504              		.cfi_def_cfa_offset 0
 505              	.LVL34:
 506              	.LBB180:
 507              	.LBB181:
 508              		.loc 5 504 0
 509 0012 FFF7FEBF 		b	chSysUnlock
 510              	.LVL35:
 511              	.LBE181:
 512              	.LBE180:
 513              		.cfi_endproc
ARM GAS  /tmp/ccwbRd47.s 			page 10


 514              	.LFE283:
 515              		.size	ibqReleaseEmptyBuffer, .-ibqReleaseEmptyBuffer
 516              		.section	.text.ibqGetTimeout,"ax",%progbits
 517              		.align	1
 518              		.global	ibqGetTimeout
 519              		.thumb
 520              		.thumb_func
 521              		.type	ibqGetTimeout, %function
 522              	ibqGetTimeout:
 523              	.LFB285:
 524              		.loc 3 309 0
 525              		.cfi_startproc
 526              		@ args = 0, pretend = 0, frame = 0
 527              		@ frame_needed = 0, uses_anonymous_args = 0
 528              	.LVL36:
 529 0000 38B5     		push	{r3, r4, r5, lr}
 530              		.cfi_def_cfa_offset 16
 531              		.cfi_offset 3, -16
 532              		.cfi_offset 4, -12
 533              		.cfi_offset 5, -8
 534              		.cfi_offset 14, -4
 535              		.loc 3 309 0
 536 0002 0546     		mov	r5, r0
 537 0004 0C46     		mov	r4, r1
 538              	.LBB182:
 539              	.LBB183:
 540              		.loc 5 493 0
 541 0006 FFF7FEFF 		bl	chSysLock
 542              	.LVL37:
 543              	.LBE183:
 544              	.LBE182:
 545              		.loc 3 315 0
 546 000a AB6A     		ldr	r3, [r5, #40]
 547 000c 2BB9     		cbnz	r3, .L28
 548              		.loc 3 316 0
 549 000e 2146     		mov	r1, r4
 550 0010 2846     		mov	r0, r5
 551 0012 FFF7FEFF 		bl	ibqGetFullBufferTimeoutS
 552              	.LVL38:
 553              		.loc 3 317 0
 554 0016 0446     		mov	r4, r0
 555              	.LVL39:
 556 0018 48B9     		cbnz	r0, .L30
 557              	.LVL40:
 558              	.L28:
 559              		.loc 3 324 0
 560 001a AB6A     		ldr	r3, [r5, #40]
 561              		.loc 3 329 0
 562 001c EA6A     		ldr	r2, [r5, #44]
 563              		.loc 3 324 0
 564 001e 13F8014B 		ldrb	r4, [r3], #1	@ zero_extendqisi2
 565              	.LVL41:
 566              		.loc 3 325 0
 567 0022 AB62     		str	r3, [r5, #40]
 568              		.loc 3 329 0
 569 0024 9342     		cmp	r3, r2
 570 0026 02D3     		bcc	.L30
ARM GAS  /tmp/ccwbRd47.s 			page 11


 571              		.loc 3 330 0
 572 0028 2846     		mov	r0, r5
 573 002a FFF7FEFF 		bl	ibqReleaseEmptyBufferS
 574              	.LVL42:
 575              	.L30:
 576              	.LBB184:
 577              	.LBB185:
 578              		.loc 5 504 0
 579 002e FFF7FEFF 		bl	chSysUnlock
 580              	.LVL43:
 581              	.LBE185:
 582              	.LBE184:
 583              		.loc 3 334 0
 584 0032 2046     		mov	r0, r4
 585              		.loc 3 335 0
 586 0034 38BD     		pop	{r3, r4, r5, pc}
 587              		.cfi_endproc
 588              	.LFE285:
 589              		.size	ibqGetTimeout, .-ibqGetTimeout
 590              		.section	.text.ibqReadTimeout,"ax",%progbits
 591              		.align	1
 592              		.global	ibqReadTimeout
 593              		.thumb
 594              		.thumb_func
 595              		.type	ibqReadTimeout, %function
 596              	ibqReadTimeout:
 597              	.LFB286:
 598              		.loc 3 359 0
 599              		.cfi_startproc
 600              		@ args = 0, pretend = 0, frame = 0
 601              		@ frame_needed = 0, uses_anonymous_args = 0
 602              	.LVL44:
 603 0000 2DE9F047 		push	{r4, r5, r6, r7, r8, r9, r10, lr}
 604              		.cfi_def_cfa_offset 32
 605              		.cfi_offset 4, -32
 606              		.cfi_offset 5, -28
 607              		.cfi_offset 6, -24
 608              		.cfi_offset 7, -20
 609              		.cfi_offset 8, -16
 610              		.cfi_offset 9, -12
 611              		.cfi_offset 10, -8
 612              		.cfi_offset 14, -4
 613              		.loc 3 359 0
 614 0004 9846     		mov	r8, r3
 615 0006 0446     		mov	r4, r0
 616 0008 0F46     		mov	r7, r1
 617 000a 9246     		mov	r10, r2
 618              	.LBB186:
 619              	.LBB187:
 620              		.loc 5 493 0
 621 000c FFF7FEFF 		bl	chSysLock
 622              	.LVL45:
 623              	.LBE187:
 624              	.LBE186:
 625              	.LBB188:
 626              	.LBB189:
 627              	.LBB190:
ARM GAS  /tmp/ccwbRd47.s 			page 12


 628              	.LBB191:
 629              	.LBB192:
 630              		.file 6 "../../modules/ChibiOS/os/hal/ports/STM32/LLD/TIMv1/hal_st_lld.h"
 631              		.loc 6 141 0
 632 0010 264B     		ldr	r3, .L51
 633 0012 5B6A     		ldr	r3, [r3, #36]
 634              	.LBE192:
 635              	.LBE191:
 636              	.LBE190:
 637              	.LBE189:
 638              	.LBE188:
 639              		.loc 3 360 0
 640 0014 0026     		movs	r6, #0
 641              		.loc 3 368 0
 642 0016 08EB0309 		add	r9, r8, r3
 643              	.LVL46:
 644              	.L44:
 645              	.LBB193:
 646              		.loc 3 374 0
 647 001a A36A     		ldr	r3, [r4, #40]
 648 001c 9BB9     		cbnz	r3, .L35
 649              	.LBB194:
 650              		.loc 3 379 0
 651 001e 08F1FF33 		add	r3, r8, #-1
 652 0022 0333     		adds	r3, r3, #3
 653 0024 02D9     		bls	.L36
 654              		.loc 3 380 0
 655 0026 2046     		mov	r0, r4
 656 0028 4146     		mov	r1, r8
 657 002a 06E0     		b	.L49
 658              	.L36:
 659              	.LBB195:
 660              	.LBB196:
 661              	.LBB197:
 662              	.LBB198:
 663              	.LBB199:
 664              	.LBB200:
 665              		.loc 6 141 0
 666 002c 1F4B     		ldr	r3, .L51
 667 002e 596A     		ldr	r1, [r3, #36]
 668              	.LBE200:
 669              	.LBE199:
 670              	.LBE198:
 671              	.LBE197:
 672              	.LBE196:
 673              		.loc 3 383 0
 674 0030 C1EB0901 		rsb	r1, r1, r9
 675              	.LVL47:
 676              		.loc 3 388 0
 677 0034 4145     		cmp	r1, r8
 678 0036 03D8     		bhi	.L50
 679              		.loc 3 392 0
 680 0038 2046     		mov	r0, r4
 681              	.LVL48:
 682              	.L49:
 683 003a FFF7FEFF 		bl	ibqGetFullBufferTimeoutS
 684              	.LVL49:
ARM GAS  /tmp/ccwbRd47.s 			page 13


 685              	.LBE195:
 686              		.loc 3 396 0
 687 003e 10B1     		cbz	r0, .L35
 688              	.LVL50:
 689              	.L50:
 690              	.LBB201:
 691              	.LBB202:
 692              		.loc 5 504 0
 693 0040 FFF7FEFF 		bl	chSysUnlock
 694              	.LVL51:
 695              	.LBE202:
 696              	.LBE201:
 697              		.loc 3 398 0
 698 0044 2FE0     		b	.L39
 699              	.L35:
 700              	.LBE194:
 701              		.loc 3 403 0
 702 0046 A16A     		ldr	r1, [r4, #40]
 703 0048 E56A     		ldr	r5, [r4, #44]
 704              		.loc 3 404 0
 705 004a C6EB0A03 		rsb	r3, r6, r10
 706              		.loc 3 403 0
 707 004e 6D1A     		subs	r5, r5, r1
 708              	.LVL52:
 709 0050 9D42     		cmp	r5, r3
 710 0052 28BF     		it	cs
 711 0054 1D46     		movcs	r5, r3
 712              	.LVL53:
 713              		.loc 3 410 0
 714 0056 402D     		cmp	r5, #64
 715 0058 0ED9     		bls	.L40
 716              		.loc 3 412 0
 717 005a 3B46     		mov	r3, r7
 718 005c 01F14002 		add	r2, r1, #64
 719              	.L41:
 720 0060 51F8040B 		ldr	r0, [r1], #4	@ unaligned
 721 0064 43F8040B 		str	r0, [r3], #4	@ unaligned
 722 0068 9142     		cmp	r1, r2
 723 006a F9D1     		bne	.L41
 724              		.loc 3 414 0
 725 006c A36A     		ldr	r3, [r4, #40]
 726 006e 4033     		adds	r3, r3, #64
 727              		.loc 3 413 0
 728 0070 4037     		adds	r7, r7, #64
 729              	.LVL54:
 730              		.loc 3 414 0
 731 0072 A362     		str	r3, [r4, #40]
 732              		.loc 3 415 0
 733 0074 4036     		adds	r6, r6, #64
 734              	.LVL55:
 735 0076 08E0     		b	.L42
 736              	.L40:
 737              		.loc 3 418 0
 738 0078 3846     		mov	r0, r7
 739 007a 2A46     		mov	r2, r5
 740 007c FFF7FEFF 		bl	memcpy
 741              	.LVL56:
ARM GAS  /tmp/ccwbRd47.s 			page 14


 742              		.loc 3 420 0
 743 0080 A36A     		ldr	r3, [r4, #40]
 744 0082 2B44     		add	r3, r3, r5
 745              		.loc 3 419 0
 746 0084 2F44     		add	r7, r7, r5
 747              	.LVL57:
 748              		.loc 3 420 0
 749 0086 A362     		str	r3, [r4, #40]
 750              		.loc 3 421 0
 751 0088 2E44     		add	r6, r6, r5
 752              	.LVL58:
 753              	.L42:
 754              		.loc 3 425 0
 755 008a A26A     		ldr	r2, [r4, #40]
 756 008c E36A     		ldr	r3, [r4, #44]
 757 008e 9A42     		cmp	r2, r3
 758 0090 02D3     		bcc	.L43
 759              		.loc 3 426 0
 760 0092 2046     		mov	r0, r4
 761 0094 FFF7FEFF 		bl	ibqReleaseEmptyBufferS
 762              	.LVL59:
 763              	.L43:
 764              	.LBB203:
 765              	.LBB204:
 766              		.loc 5 504 0
 767 0098 FFF7FEFF 		bl	chSysUnlock
 768              	.LVL60:
 769              	.LBE204:
 770              	.LBE203:
 771              		.loc 3 431 0
 772 009c 5645     		cmp	r6, r10
 773 009e 02D2     		bcs	.L39
 774              	.LBB205:
 775              	.LBB206:
 776              		.loc 5 493 0
 777 00a0 FFF7FEFF 		bl	chSysLock
 778              	.LVL61:
 779 00a4 B9E7     		b	.L44
 780              	.LVL62:
 781              	.L39:
 782              	.LBE206:
 783              	.LBE205:
 784              	.LBE193:
 785              		.loc 3 436 0
 786 00a6 3046     		mov	r0, r6
 787 00a8 BDE8F087 		pop	{r4, r5, r6, r7, r8, r9, r10, pc}
 788              	.LVL63:
 789              	.L52:
 790              		.align	2
 791              	.L51:
 792 00ac 000C0040 		.word	1073744896
 793              		.cfi_endproc
 794              	.LFE286:
 795              		.size	ibqReadTimeout, .-ibqReadTimeout
 796              		.section	.text.obqObjectInit,"ax",%progbits
 797              		.align	1
 798              		.global	obqObjectInit
ARM GAS  /tmp/ccwbRd47.s 			page 15


 799              		.thumb
 800              		.thumb_func
 801              		.type	obqObjectInit, %function
 802              	obqObjectInit:
 803              	.LFB287:
 804              		.loc 3 452 0
 805              		.cfi_startproc
 806              		@ args = 12, pretend = 0, frame = 0
 807              		@ frame_needed = 0, uses_anonymous_args = 0
 808              	.LVL64:
 809 0000 10B5     		push	{r4, lr}
 810              		.cfi_def_cfa_offset 8
 811              		.cfi_offset 4, -8
 812              		.cfi_offset 14, -4
 813              		.loc 3 452 0
 814 0002 029C     		ldr	r4, [sp, #8]
 815              		.loc 3 457 0
 816 0004 0172     		strb	r1, [r0, #8]
 817              		.loc 3 461 0
 818 0006 0433     		adds	r3, r3, #4
 819              	.LVL65:
 820 0008 03FB0421 		mla	r1, r3, r4, r2
 821              	.LVL66:
 822              		.loc 3 462 0
 823 000c C361     		str	r3, [r0, #28]
 824              		.loc 3 465 0
 825 000e 0023     		movs	r3, #0
 826              	.LVL67:
 827 0010 8362     		str	r3, [r0, #40]
 828              		.loc 3 466 0
 829 0012 C362     		str	r3, [r0, #44]
 830              		.loc 3 467 0
 831 0014 039B     		ldr	r3, [sp, #12]
 832 0016 0363     		str	r3, [r0, #48]
 833              		.loc 3 468 0
 834 0018 049B     		ldr	r3, [sp, #16]
 835              	.LBB207:
 836              	.LBB208:
 837              	.LBB209:
 838              	.LBB210:
 839              		.loc 4 550 0
 840 001a 0060     		str	r0, [r0]
 841              		.loc 4 551 0
 842 001c 4060     		str	r0, [r0, #4]
 843              	.LBE210:
 844              	.LBE209:
 845              	.LBE208:
 846              	.LBE207:
 847              		.loc 3 458 0
 848 001e C460     		str	r4, [r0, #12]
 849              		.loc 3 459 0
 850 0020 4261     		str	r2, [r0, #20]
 851              		.loc 3 460 0
 852 0022 0261     		str	r2, [r0, #16]
 853              		.loc 3 461 0
 854 0024 8161     		str	r1, [r0, #24]
 855              		.loc 3 463 0
ARM GAS  /tmp/ccwbRd47.s 			page 16


 856 0026 0462     		str	r4, [r0, #32]
 857              		.loc 3 464 0
 858 0028 4262     		str	r2, [r0, #36]
 859              		.loc 3 468 0
 860 002a 4363     		str	r3, [r0, #52]
 861 002c 10BD     		pop	{r4, pc}
 862              		.cfi_endproc
 863              	.LFE287:
 864              		.size	obqObjectInit, .-obqObjectInit
 865              		.section	.text.obqResetI,"ax",%progbits
 866              		.align	1
 867              		.global	obqResetI
 868              		.thumb
 869              		.thumb_func
 870              		.type	obqResetI, %function
 871              	obqResetI:
 872              	.LFB288:
 873              		.loc 3 482 0
 874              		.cfi_startproc
 875              		@ args = 0, pretend = 0, frame = 0
 876              		@ frame_needed = 0, uses_anonymous_args = 0
 877              		@ link register save eliminated.
 878              	.LVL68:
 879              		.loc 3 486 0
 880 0000 026A     		ldr	r2, [r0, #32]
 881 0002 C260     		str	r2, [r0, #12]
 882              		.loc 3 487 0
 883 0004 426A     		ldr	r2, [r0, #36]
 884 0006 4261     		str	r2, [r0, #20]
 885              		.loc 3 488 0
 886 0008 0261     		str	r2, [r0, #16]
 887              		.loc 3 489 0
 888 000a 0022     		movs	r2, #0
 889 000c 8262     		str	r2, [r0, #40]
 890              		.loc 3 490 0
 891 000e C262     		str	r2, [r0, #44]
 892              	.LVL69:
 893              	.LBB211:
 894              	.LBB212:
 895              		.loc 5 810 0
 896 0010 6FF00101 		mvn	r1, #1
 897 0014 FFF7FEBF 		b	chThdDequeueAllI
 898              	.LVL70:
 899              	.LBE212:
 900              	.LBE211:
 901              		.cfi_endproc
 902              	.LFE288:
 903              		.size	obqResetI, .-obqResetI
 904              		.section	.text.obqGetFullBufferI,"ax",%progbits
 905              		.align	1
 906              		.global	obqGetFullBufferI
 907              		.thumb
 908              		.thumb_func
 909              		.type	obqGetFullBufferI, %function
 910              	obqGetFullBufferI:
 911              	.LFB289:
 912              		.loc 3 506 0
ARM GAS  /tmp/ccwbRd47.s 			page 17


 913              		.cfi_startproc
 914              		@ args = 0, pretend = 0, frame = 0
 915              		@ frame_needed = 0, uses_anonymous_args = 0
 916              		@ link register save eliminated.
 917              	.LVL71:
 918              		.loc 3 510 0
 919 0000 4369     		ldr	r3, [r0, #20]
 920 0002 0269     		ldr	r2, [r0, #16]
 921 0004 9A42     		cmp	r2, r3
 922 0006 03D1     		bne	.L56
 923              		.loc 3 510 0 is_stmt 0 discriminator 1
 924 0008 C268     		ldr	r2, [r0, #12]
 925 000a 0AB1     		cbz	r2, .L56
 926              		.loc 3 511 0 is_stmt 1
 927 000c 0020     		movs	r0, #0
 928              	.LVL72:
 929 000e 7047     		bx	lr
 930              	.LVL73:
 931              	.L56:
 932              		.loc 3 515 0
 933 0010 1846     		mov	r0, r3
 934              	.LVL74:
 935 0012 50F8043B 		ldr	r3, [r0], #4
 936 0016 0B60     		str	r3, [r1]
 937              		.loc 3 518 0
 938 0018 7047     		bx	lr
 939              		.cfi_endproc
 940              	.LFE289:
 941              		.size	obqGetFullBufferI, .-obqGetFullBufferI
 942              		.section	.text.obqReleaseEmptyBufferI,"ax",%progbits
 943              		.align	1
 944              		.global	obqReleaseEmptyBufferI
 945              		.thumb
 946              		.thumb_func
 947              		.type	obqReleaseEmptyBufferI, %function
 948              	obqReleaseEmptyBufferI:
 949              	.LFB290:
 950              		.loc 3 527 0
 951              		.cfi_startproc
 952              		@ args = 0, pretend = 0, frame = 0
 953              		@ frame_needed = 0, uses_anonymous_args = 0
 954              		@ link register save eliminated.
 955              	.LVL75:
 956              		.loc 3 533 0
 957 0000 C368     		ldr	r3, [r0, #12]
 958              		.loc 3 534 0
 959 0002 4269     		ldr	r2, [r0, #20]
 960              		.loc 3 533 0
 961 0004 0133     		adds	r3, r3, #1
 962 0006 C360     		str	r3, [r0, #12]
 963              		.loc 3 534 0
 964 0008 C369     		ldr	r3, [r0, #28]
 965 000a 1344     		add	r3, r3, r2
 966              		.loc 3 535 0
 967 000c 8269     		ldr	r2, [r0, #24]
 968              		.loc 3 534 0
 969 000e 4361     		str	r3, [r0, #20]
ARM GAS  /tmp/ccwbRd47.s 			page 18


 970              		.loc 3 535 0
 971 0010 9342     		cmp	r3, r2
 972              		.loc 3 536 0
 973 0012 24BF     		itt	cs
 974 0014 436A     		ldrcs	r3, [r0, #36]
 975 0016 4361     		strcs	r3, [r0, #20]
 976              	.LVL76:
 977              	.LBB213:
 978              	.LBB214:
 979              		.loc 5 797 0
 980 0018 0021     		movs	r1, #0
 981 001a FFF7FEBF 		b	chThdDequeueNextI
 982              	.LVL77:
 983              	.LBE214:
 984              	.LBE213:
 985              		.cfi_endproc
 986              	.LFE290:
 987              		.size	obqReleaseEmptyBufferI, .-obqReleaseEmptyBufferI
 988              		.section	.text.obqGetEmptyBufferTimeoutS,"ax",%progbits
 989              		.align	1
 990              		.global	obqGetEmptyBufferTimeoutS
 991              		.thumb
 992              		.thumb_func
 993              		.type	obqGetEmptyBufferTimeoutS, %function
 994              	obqGetEmptyBufferTimeoutS:
 995              	.LFB292:
 996              		.loc 3 597 0
 997              		.cfi_startproc
 998              		@ args = 0, pretend = 0, frame = 0
 999              		@ frame_needed = 0, uses_anonymous_args = 0
 1000              	.LVL78:
 1001 0000 38B5     		push	{r3, r4, r5, lr}
 1002              		.cfi_def_cfa_offset 16
 1003              		.cfi_offset 3, -16
 1004              		.cfi_offset 4, -12
 1005              		.cfi_offset 5, -8
 1006              		.cfi_offset 14, -4
 1007 0002 0446     		mov	r4, r0
 1008 0004 0D46     		mov	r5, r1
 1009              	.LVL79:
 1010              	.L65:
 1011              		.loc 3 601 0
 1012 0006 E368     		ldr	r3, [r4, #12]
 1013 0008 43B9     		cbnz	r3, .L70
 1014              	.LBB223:
 1015              		.loc 3 602 0
 1016 000a 237A     		ldrb	r3, [r4, #8]	@ zero_extendqisi2
 1017 000c 73B9     		cbnz	r3, .L68
 1018              	.LVL80:
 1019              	.LBB224:
 1020              	.LBB225:
 1021              		.loc 5 784 0
 1022 000e 2046     		mov	r0, r4
 1023 0010 2946     		mov	r1, r5
 1024 0012 FFF7FEFF 		bl	chThdEnqueueTimeoutS
 1025              	.LVL81:
 1026              	.LBE225:
ARM GAS  /tmp/ccwbRd47.s 			page 19


 1027              	.LBE224:
 1028              		.loc 3 606 0
 1029 0016 0028     		cmp	r0, #0
 1030 0018 F5DA     		bge	.L65
 1031 001a 09E0     		b	.L66
 1032              	.LVL82:
 1033              	.L70:
 1034              	.LBE223:
 1035              	.LBB226:
 1036              	.LBB227:
 1037              		.loc 3 614 0
 1038 001c 2269     		ldr	r2, [r4, #16]
 1039 001e 131D     		adds	r3, r2, #4
 1040 0020 A362     		str	r3, [r4, #40]
 1041              		.loc 3 615 0
 1042 0022 E369     		ldr	r3, [r4, #28]
 1043 0024 1344     		add	r3, r3, r2
 1044 0026 E362     		str	r3, [r4, #44]
 1045 0028 0020     		movs	r0, #0
 1046 002a 38BD     		pop	{r3, r4, r5, pc}
 1047              	.LVL83:
 1048              	.L68:
 1049              	.LBE227:
 1050              	.LBE226:
 1051              	.LBB228:
 1052              		.loc 3 603 0
 1053 002c 6FF00100 		mvn	r0, #1
 1054              	.L66:
 1055              	.LBE228:
 1056              		.loc 3 618 0
 1057 0030 38BD     		pop	{r3, r4, r5, pc}
 1058              		.cfi_endproc
 1059              	.LFE292:
 1060              		.size	obqGetEmptyBufferTimeoutS, .-obqGetEmptyBufferTimeoutS
 1061              		.section	.text.obqGetEmptyBufferTimeout,"ax",%progbits
 1062              		.align	1
 1063              		.global	obqGetEmptyBufferTimeout
 1064              		.thumb
 1065              		.thumb_func
 1066              		.type	obqGetEmptyBufferTimeout, %function
 1067              	obqGetEmptyBufferTimeout:
 1068              	.LFB291:
 1069              		.loc 3 565 0
 1070              		.cfi_startproc
 1071              		@ args = 0, pretend = 0, frame = 0
 1072              		@ frame_needed = 0, uses_anonymous_args = 0
 1073              	.LVL84:
 1074 0000 38B5     		push	{r3, r4, r5, lr}
 1075              		.cfi_def_cfa_offset 16
 1076              		.cfi_offset 3, -16
 1077              		.cfi_offset 4, -12
 1078              		.cfi_offset 5, -8
 1079              		.cfi_offset 14, -4
 1080              		.loc 3 565 0
 1081 0002 0546     		mov	r5, r0
 1082 0004 0C46     		mov	r4, r1
 1083              	.LBB229:
ARM GAS  /tmp/ccwbRd47.s 			page 20


 1084              	.LBB230:
 1085              		.loc 5 493 0
 1086 0006 FFF7FEFF 		bl	chSysLock
 1087              	.LVL85:
 1088              	.LBE230:
 1089              	.LBE229:
 1090              		.loc 3 569 0
 1091 000a 2146     		mov	r1, r4
 1092 000c 2846     		mov	r0, r5
 1093 000e FFF7FEFF 		bl	obqGetEmptyBufferTimeoutS
 1094              	.LVL86:
 1095 0012 0446     		mov	r4, r0
 1096              	.LVL87:
 1097              	.LBB231:
 1098              	.LBB232:
 1099              		.loc 5 504 0
 1100 0014 FFF7FEFF 		bl	chSysUnlock
 1101              	.LVL88:
 1102              	.LBE232:
 1103              	.LBE231:
 1104              		.loc 3 573 0
 1105 0018 2046     		mov	r0, r4
 1106 001a 38BD     		pop	{r3, r4, r5, pc}
 1107              		.cfi_endproc
 1108              	.LFE291:
 1109              		.size	obqGetEmptyBufferTimeout, .-obqGetEmptyBufferTimeout
 1110              		.section	.text.obqPostFullBufferS,"ax",%progbits
 1111              		.align	1
 1112              		.global	obqPostFullBufferS
 1113              		.thumb
 1114              		.thumb_func
 1115              		.type	obqPostFullBufferS, %function
 1116              	obqPostFullBufferS:
 1117              	.LFB294:
 1118              		.loc 3 645 0
 1119              		.cfi_startproc
 1120              		@ args = 0, pretend = 0, frame = 0
 1121              		@ frame_needed = 0, uses_anonymous_args = 0
 1122              	.LVL89:
 1123 0000 10B5     		push	{r4, lr}
 1124              		.cfi_def_cfa_offset 8
 1125              		.cfi_offset 4, -8
 1126              		.cfi_offset 14, -4
 1127              		.loc 3 652 0
 1128 0002 0469     		ldr	r4, [r0, #16]
 1129 0004 2160     		str	r1, [r4]
 1130              		.loc 3 655 0
 1131 0006 C268     		ldr	r2, [r0, #12]
 1132              		.loc 3 656 0
 1133 0008 C369     		ldr	r3, [r0, #28]
 1134              		.loc 3 655 0
 1135 000a 013A     		subs	r2, r2, #1
 1136 000c C260     		str	r2, [r0, #12]
 1137              		.loc 3 657 0
 1138 000e 8269     		ldr	r2, [r0, #24]
 1139              		.loc 3 656 0
 1140 0010 2344     		add	r3, r3, r4
ARM GAS  /tmp/ccwbRd47.s 			page 21


 1141              		.loc 3 657 0
 1142 0012 9342     		cmp	r3, r2
 1143              		.loc 3 656 0
 1144 0014 0361     		str	r3, [r0, #16]
 1145              		.loc 3 658 0
 1146 0016 24BF     		itt	cs
 1147 0018 436A     		ldrcs	r3, [r0, #36]
 1148 001a 0361     		strcs	r3, [r0, #16]
 1149              		.loc 3 662 0
 1150 001c 0023     		movs	r3, #0
 1151 001e 8362     		str	r3, [r0, #40]
 1152              		.loc 3 665 0
 1153 0020 036B     		ldr	r3, [r0, #48]
 1154 0022 13B1     		cbz	r3, .L72
 1155              		.loc 3 668 0
 1156 0024 BDE81040 		pop	{r4, lr}
 1157              		.cfi_remember_state
 1158              		.cfi_restore 14
 1159              		.cfi_restore 4
 1160              		.cfi_def_cfa_offset 0
 1161              		.loc 3 666 0
 1162 0028 1847     		bx	r3	@ indirect register sibling call
 1163              	.LVL90:
 1164              	.L72:
 1165              		.cfi_restore_state
 1166 002a 10BD     		pop	{r4, pc}
 1167              		.cfi_endproc
 1168              	.LFE294:
 1169              		.size	obqPostFullBufferS, .-obqPostFullBufferS
 1170              		.section	.text.obqPostFullBuffer,"ax",%progbits
 1171              		.align	1
 1172              		.global	obqPostFullBuffer
 1173              		.thumb
 1174              		.thumb_func
 1175              		.type	obqPostFullBuffer, %function
 1176              	obqPostFullBuffer:
 1177              	.LFB293:
 1178              		.loc 3 629 0
 1179              		.cfi_startproc
 1180              		@ args = 0, pretend = 0, frame = 0
 1181              		@ frame_needed = 0, uses_anonymous_args = 0
 1182              	.LVL91:
 1183 0000 38B5     		push	{r3, r4, r5, lr}
 1184              		.cfi_def_cfa_offset 16
 1185              		.cfi_offset 3, -16
 1186              		.cfi_offset 4, -12
 1187              		.cfi_offset 5, -8
 1188              		.cfi_offset 14, -4
 1189              		.loc 3 629 0
 1190 0002 0546     		mov	r5, r0
 1191 0004 0C46     		mov	r4, r1
 1192              	.LBB233:
 1193              	.LBB234:
 1194              		.loc 5 493 0
 1195 0006 FFF7FEFF 		bl	chSysLock
 1196              	.LVL92:
 1197              	.LBE234:
ARM GAS  /tmp/ccwbRd47.s 			page 22


 1198              	.LBE233:
 1199              		.loc 3 632 0
 1200 000a 2846     		mov	r0, r5
 1201 000c 2146     		mov	r1, r4
 1202 000e FFF7FEFF 		bl	obqPostFullBufferS
 1203              	.LVL93:
 1204              		.loc 3 634 0
 1205 0012 BDE83840 		pop	{r3, r4, r5, lr}
 1206              		.cfi_restore 14
 1207              		.cfi_restore 5
 1208              		.cfi_restore 4
 1209              		.cfi_restore 3
 1210              		.cfi_def_cfa_offset 0
 1211              	.LVL94:
 1212              	.LBB235:
 1213              	.LBB236:
 1214              		.loc 5 504 0
 1215 0016 FFF7FEBF 		b	chSysUnlock
 1216              	.LVL95:
 1217              	.LBE236:
 1218              	.LBE235:
 1219              		.cfi_endproc
 1220              	.LFE293:
 1221              		.size	obqPostFullBuffer, .-obqPostFullBuffer
 1222              		.section	.text.obqPutTimeout,"ax",%progbits
 1223              		.align	1
 1224              		.global	obqPutTimeout
 1225              		.thumb
 1226              		.thumb_func
 1227              		.type	obqPutTimeout, %function
 1228              	obqPutTimeout:
 1229              	.LFB295:
 1230              		.loc 3 691 0
 1231              		.cfi_startproc
 1232              		@ args = 0, pretend = 0, frame = 0
 1233              		@ frame_needed = 0, uses_anonymous_args = 0
 1234              	.LVL96:
 1235 0000 70B5     		push	{r4, r5, r6, lr}
 1236              		.cfi_def_cfa_offset 16
 1237              		.cfi_offset 4, -16
 1238              		.cfi_offset 5, -12
 1239              		.cfi_offset 6, -8
 1240              		.cfi_offset 14, -4
 1241              		.loc 3 691 0
 1242 0002 0446     		mov	r4, r0
 1243 0004 0E46     		mov	r6, r1
 1244 0006 1546     		mov	r5, r2
 1245              	.LBB237:
 1246              	.LBB238:
 1247              		.loc 5 493 0
 1248 0008 FFF7FEFF 		bl	chSysLock
 1249              	.LVL97:
 1250              	.LBE238:
 1251              	.LBE237:
 1252              		.loc 3 697 0
 1253 000c A36A     		ldr	r3, [r4, #40]
 1254 000e 4BB9     		cbnz	r3, .L77
ARM GAS  /tmp/ccwbRd47.s 			page 23


 1255              		.loc 3 698 0
 1256 0010 2946     		mov	r1, r5
 1257 0012 2046     		mov	r0, r4
 1258 0014 FFF7FEFF 		bl	obqGetEmptyBufferTimeoutS
 1259              	.LVL98:
 1260              		.loc 3 699 0
 1261 0018 0546     		mov	r5, r0
 1262              	.LVL99:
 1263 001a 18B1     		cbz	r0, .L77
 1264              	.LBB239:
 1265              	.LBB240:
 1266              		.loc 5 504 0
 1267 001c FFF7FEFF 		bl	chSysUnlock
 1268              	.LVL100:
 1269              	.LBE240:
 1270              	.LBE239:
 1271              		.loc 3 701 0
 1272 0020 2846     		mov	r0, r5
 1273 0022 70BD     		pop	{r4, r5, r6, pc}
 1274              	.LVL101:
 1275              	.L77:
 1276              		.loc 3 706 0
 1277 0024 A36A     		ldr	r3, [r4, #40]
 1278 0026 1E70     		strb	r6, [r3]
 1279              		.loc 3 707 0
 1280 0028 A36A     		ldr	r3, [r4, #40]
 1281              		.loc 3 711 0
 1282 002a E26A     		ldr	r2, [r4, #44]
 1283              		.loc 3 707 0
 1284 002c 0133     		adds	r3, r3, #1
 1285              		.loc 3 711 0
 1286 002e 9342     		cmp	r3, r2
 1287              		.loc 3 707 0
 1288 0030 A362     		str	r3, [r4, #40]
 1289              		.loc 3 711 0
 1290 0032 04D3     		bcc	.L79
 1291              		.loc 3 712 0
 1292 0034 E169     		ldr	r1, [r4, #28]
 1293 0036 2046     		mov	r0, r4
 1294 0038 0439     		subs	r1, r1, #4
 1295 003a FFF7FEFF 		bl	obqPostFullBufferS
 1296              	.LVL102:
 1297              	.L79:
 1298              	.LBB241:
 1299              	.LBB242:
 1300              		.loc 5 504 0
 1301 003e FFF7FEFF 		bl	chSysUnlock
 1302              	.LVL103:
 1303              	.LBE242:
 1304              	.LBE241:
 1305              		.loc 3 716 0
 1306 0042 0020     		movs	r0, #0
 1307              		.loc 3 717 0
 1308 0044 70BD     		pop	{r4, r5, r6, pc}
 1309              		.cfi_endproc
 1310              	.LFE295:
 1311              		.size	obqPutTimeout, .-obqPutTimeout
ARM GAS  /tmp/ccwbRd47.s 			page 24


 1312              		.section	.text.obqWriteTimeout,"ax",%progbits
 1313              		.align	1
 1314              		.global	obqWriteTimeout
 1315              		.thumb
 1316              		.thumb_func
 1317              		.type	obqWriteTimeout, %function
 1318              	obqWriteTimeout:
 1319              	.LFB296:
 1320              		.loc 3 741 0
 1321              		.cfi_startproc
 1322              		@ args = 0, pretend = 0, frame = 0
 1323              		@ frame_needed = 0, uses_anonymous_args = 0
 1324              	.LVL104:
 1325 0000 2DE9F047 		push	{r4, r5, r6, r7, r8, r9, r10, lr}
 1326              		.cfi_def_cfa_offset 32
 1327              		.cfi_offset 4, -32
 1328              		.cfi_offset 5, -28
 1329              		.cfi_offset 6, -24
 1330              		.cfi_offset 7, -20
 1331              		.cfi_offset 8, -16
 1332              		.cfi_offset 9, -12
 1333              		.cfi_offset 10, -8
 1334              		.cfi_offset 14, -4
 1335              		.loc 3 741 0
 1336 0004 9846     		mov	r8, r3
 1337 0006 0446     		mov	r4, r0
 1338              	.LVL105:
 1339 0008 0D46     		mov	r5, r1
 1340 000a 9246     		mov	r10, r2
 1341              	.LBB243:
 1342              	.LBB244:
 1343              		.loc 5 493 0
 1344 000c FFF7FEFF 		bl	chSysLock
 1345              	.LVL106:
 1346              	.LBE244:
 1347              	.LBE243:
 1348              	.LBB245:
 1349              	.LBB246:
 1350              	.LBB247:
 1351              	.LBB248:
 1352              	.LBB249:
 1353              		.loc 6 141 0
 1354 0010 264B     		ldr	r3, .L100
 1355 0012 5B6A     		ldr	r3, [r3, #36]
 1356              	.LBE249:
 1357              	.LBE248:
 1358              	.LBE247:
 1359              	.LBE246:
 1360              	.LBE245:
 1361              		.loc 3 742 0
 1362 0014 0027     		movs	r7, #0
 1363              		.loc 3 750 0
 1364 0016 08EB0309 		add	r9, r8, r3
 1365              	.LVL107:
 1366              	.L93:
 1367              	.LBB250:
 1368              		.loc 3 756 0
ARM GAS  /tmp/ccwbRd47.s 			page 25


 1369 001a A36A     		ldr	r3, [r4, #40]
 1370 001c 9BB9     		cbnz	r3, .L84
 1371              	.LBB251:
 1372              		.loc 3 761 0
 1373 001e 08F1FF33 		add	r3, r8, #-1
 1374 0022 0333     		adds	r3, r3, #3
 1375 0024 02D9     		bls	.L85
 1376              		.loc 3 762 0
 1377 0026 2046     		mov	r0, r4
 1378 0028 4146     		mov	r1, r8
 1379 002a 06E0     		b	.L98
 1380              	.L85:
 1381              	.LBB252:
 1382              	.LBB253:
 1383              	.LBB254:
 1384              	.LBB255:
 1385              	.LBB256:
 1386              	.LBB257:
 1387              		.loc 6 141 0
 1388 002c 1F4B     		ldr	r3, .L100
 1389 002e 596A     		ldr	r1, [r3, #36]
 1390              	.LBE257:
 1391              	.LBE256:
 1392              	.LBE255:
 1393              	.LBE254:
 1394              	.LBE253:
 1395              		.loc 3 765 0
 1396 0030 C1EB0901 		rsb	r1, r1, r9
 1397              	.LVL108:
 1398              		.loc 3 770 0
 1399 0034 4145     		cmp	r1, r8
 1400 0036 03D8     		bhi	.L99
 1401              		.loc 3 774 0
 1402 0038 2046     		mov	r0, r4
 1403              	.LVL109:
 1404              	.L98:
 1405 003a FFF7FEFF 		bl	obqGetEmptyBufferTimeoutS
 1406              	.LVL110:
 1407              	.LBE252:
 1408              		.loc 3 778 0
 1409 003e 10B1     		cbz	r0, .L84
 1410              	.LVL111:
 1411              	.L99:
 1412              	.LBB258:
 1413              	.LBB259:
 1414              		.loc 5 504 0
 1415 0040 FFF7FEFF 		bl	chSysUnlock
 1416              	.LVL112:
 1417              	.LBE259:
 1418              	.LBE258:
 1419              		.loc 3 780 0
 1420 0044 2FE0     		b	.L88
 1421              	.L84:
 1422              	.LBE251:
 1423              		.loc 3 785 0
 1424 0046 A06A     		ldr	r0, [r4, #40]
 1425 0048 E66A     		ldr	r6, [r4, #44]
ARM GAS  /tmp/ccwbRd47.s 			page 26


 1426              		.loc 3 786 0
 1427 004a C7EB0A03 		rsb	r3, r7, r10
 1428              		.loc 3 785 0
 1429 004e 361A     		subs	r6, r6, r0
 1430              	.LVL113:
 1431 0050 9E42     		cmp	r6, r3
 1432 0052 28BF     		it	cs
 1433 0054 1E46     		movcs	r6, r3
 1434              	.LVL114:
 1435              		.loc 3 792 0
 1436 0056 402E     		cmp	r6, #64
 1437 0058 0CD9     		bls	.L89
 1438              		.loc 3 794 0
 1439 005a 05F14003 		add	r3, r5, #64
 1440              	.LVL115:
 1441              	.L90:
 1442 005e 55F8042B 		ldr	r2, [r5], #4	@ unaligned
 1443 0062 40F8042B 		str	r2, [r0], #4	@ unaligned
 1444 0066 9D42     		cmp	r5, r3
 1445 0068 F9D1     		bne	.L90
 1446              	.LVL116:
 1447              		.loc 3 796 0
 1448 006a A36A     		ldr	r3, [r4, #40]
 1449 006c 4033     		adds	r3, r3, #64
 1450 006e A362     		str	r3, [r4, #40]
 1451              		.loc 3 797 0
 1452 0070 4037     		adds	r7, r7, #64
 1453              	.LVL117:
 1454 0072 08E0     		b	.L91
 1455              	.LVL118:
 1456              	.L89:
 1457              		.loc 3 800 0
 1458 0074 2946     		mov	r1, r5
 1459 0076 3246     		mov	r2, r6
 1460 0078 FFF7FEFF 		bl	memcpy
 1461              	.LVL119:
 1462              		.loc 3 802 0
 1463 007c A36A     		ldr	r3, [r4, #40]
 1464 007e 3344     		add	r3, r3, r6
 1465              		.loc 3 801 0
 1466 0080 3544     		add	r5, r5, r6
 1467              	.LVL120:
 1468              		.loc 3 802 0
 1469 0082 A362     		str	r3, [r4, #40]
 1470              		.loc 3 803 0
 1471 0084 3744     		add	r7, r7, r6
 1472              	.LVL121:
 1473              	.L91:
 1474              		.loc 3 807 0
 1475 0086 A26A     		ldr	r2, [r4, #40]
 1476 0088 E36A     		ldr	r3, [r4, #44]
 1477 008a 9A42     		cmp	r2, r3
 1478 008c 04D3     		bcc	.L92
 1479              		.loc 3 808 0
 1480 008e E169     		ldr	r1, [r4, #28]
 1481 0090 2046     		mov	r0, r4
 1482 0092 0439     		subs	r1, r1, #4
ARM GAS  /tmp/ccwbRd47.s 			page 27


 1483 0094 FFF7FEFF 		bl	obqPostFullBufferS
 1484              	.LVL122:
 1485              	.L92:
 1486              	.LBB260:
 1487              	.LBB261:
 1488              		.loc 5 504 0
 1489 0098 FFF7FEFF 		bl	chSysUnlock
 1490              	.LVL123:
 1491              	.LBE261:
 1492              	.LBE260:
 1493              		.loc 3 813 0
 1494 009c 5745     		cmp	r7, r10
 1495 009e 02D2     		bcs	.L88
 1496              	.LBB262:
 1497              	.LBB263:
 1498              		.loc 5 493 0
 1499 00a0 FFF7FEFF 		bl	chSysLock
 1500              	.LVL124:
 1501 00a4 B9E7     		b	.L93
 1502              	.LVL125:
 1503              	.L88:
 1504              	.LBE263:
 1505              	.LBE262:
 1506              	.LBE250:
 1507              		.loc 3 818 0
 1508 00a6 3846     		mov	r0, r7
 1509 00a8 BDE8F087 		pop	{r4, r5, r6, r7, r8, r9, r10, pc}
 1510              	.LVL126:
 1511              	.L101:
 1512              		.align	2
 1513              	.L100:
 1514 00ac 000C0040 		.word	1073744896
 1515              		.cfi_endproc
 1516              	.LFE296:
 1517              		.size	obqWriteTimeout, .-obqWriteTimeout
 1518              		.section	.text.obqTryFlushI,"ax",%progbits
 1519              		.align	1
 1520              		.global	obqTryFlushI
 1521              		.thumb
 1522              		.thumb_func
 1523              		.type	obqTryFlushI, %function
 1524              	obqTryFlushI:
 1525              	.LFB297:
 1526              		.loc 3 833 0
 1527              		.cfi_startproc
 1528              		@ args = 0, pretend = 0, frame = 0
 1529              		@ frame_needed = 0, uses_anonymous_args = 0
 1530              		@ link register save eliminated.
 1531              	.LVL127:
 1532              		.loc 3 839 0
 1533 0000 0269     		ldr	r2, [r0, #16]
 1534 0002 4369     		ldr	r3, [r0, #20]
 1535 0004 9A42     		cmp	r2, r3
 1536 0006 03D1     		bne	.L107
 1537              		.loc 3 839 0 is_stmt 0 discriminator 1
 1538 0008 C368     		ldr	r3, [r0, #12]
 1539 000a 0BB1     		cbz	r3, .L107
ARM GAS  /tmp/ccwbRd47.s 			page 28


 1540              		.loc 3 839 0
 1541 000c 836A     		ldr	r3, [r0, #40]
 1542 000e 0BB9     		cbnz	r3, .L106
 1543              	.L107:
 1544              		.loc 3 860 0 is_stmt 1
 1545 0010 0020     		movs	r0, #0
 1546              	.LVL128:
 1547 0012 7047     		bx	lr
 1548              	.LVL129:
 1549              	.L106:
 1550 0014 043B     		subs	r3, r3, #4
 1551              	.LVL130:
 1552              	.LBB264:
 1553              		.loc 3 842 0
 1554 0016 9B1A     		subs	r3, r3, r2
 1555              	.LVL131:
 1556 0018 FAD0     		beq	.L107
 1557              		.loc 3 845 0
 1558 001a 1360     		str	r3, [r2]
 1559              		.loc 3 848 0
 1560 001c C368     		ldr	r3, [r0, #12]
 1561              	.LVL132:
 1562 001e 013B     		subs	r3, r3, #1
 1563 0020 C360     		str	r3, [r0, #12]
 1564              	.LVL133:
 1565              		.loc 3 849 0
 1566 0022 C369     		ldr	r3, [r0, #28]
 1567 0024 1A44     		add	r2, r2, r3
 1568              	.LVL134:
 1569              		.loc 3 850 0
 1570 0026 8369     		ldr	r3, [r0, #24]
 1571              		.loc 3 849 0
 1572 0028 0261     		str	r2, [r0, #16]
 1573              	.LVL135:
 1574              		.loc 3 850 0
 1575 002a 9A42     		cmp	r2, r3
 1576              		.loc 3 851 0
 1577 002c 24BF     		itt	cs
 1578 002e 436A     		ldrcs	r3, [r0, #36]
 1579 0030 0361     		strcs	r3, [r0, #16]
 1580              		.loc 3 855 0
 1581 0032 0023     		movs	r3, #0
 1582 0034 8362     		str	r3, [r0, #40]
 1583              		.loc 3 857 0
 1584 0036 0120     		movs	r0, #1
 1585              	.LVL136:
 1586 0038 7047     		bx	lr
 1587              	.LBE264:
 1588              		.cfi_endproc
 1589              	.LFE297:
 1590              		.size	obqTryFlushI, .-obqTryFlushI
 1591              		.section	.text.obqFlush,"ax",%progbits
 1592              		.align	1
 1593              		.global	obqFlush
 1594              		.thumb
 1595              		.thumb_func
 1596              		.type	obqFlush, %function
ARM GAS  /tmp/ccwbRd47.s 			page 29


 1597              	obqFlush:
 1598              	.LFB298:
 1599              		.loc 3 870 0
 1600              		.cfi_startproc
 1601              		@ args = 0, pretend = 0, frame = 0
 1602              		@ frame_needed = 0, uses_anonymous_args = 0
 1603              	.LVL137:
 1604 0000 10B5     		push	{r4, lr}
 1605              		.cfi_def_cfa_offset 8
 1606              		.cfi_offset 4, -8
 1607              		.cfi_offset 14, -4
 1608              		.loc 3 870 0
 1609 0002 0446     		mov	r4, r0
 1610              	.LBB265:
 1611              	.LBB266:
 1612              		.loc 5 493 0
 1613 0004 FFF7FEFF 		bl	chSysLock
 1614              	.LVL138:
 1615              	.LBE266:
 1616              	.LBE265:
 1617              		.loc 3 875 0
 1618 0008 A36A     		ldr	r3, [r4, #40]
 1619 000a 33B1     		cbz	r3, .L111
 1620              	.LBB267:
 1621              		.loc 3 876 0
 1622 000c 2169     		ldr	r1, [r4, #16]
 1623 000e 043B     		subs	r3, r3, #4
 1624              	.LVL139:
 1625              		.loc 3 878 0
 1626 0010 591A     		subs	r1, r3, r1
 1627              	.LVL140:
 1628 0012 02D0     		beq	.L111
 1629              		.loc 3 879 0
 1630 0014 2046     		mov	r0, r4
 1631 0016 FFF7FEFF 		bl	obqPostFullBufferS
 1632              	.LVL141:
 1633              	.L111:
 1634              	.LBE267:
 1635              		.loc 3 884 0
 1636 001a BDE81040 		pop	{r4, lr}
 1637              		.cfi_restore 14
 1638              		.cfi_restore 4
 1639              		.cfi_def_cfa_offset 0
 1640              	.LVL142:
 1641              	.LBB268:
 1642              	.LBB269:
 1643              		.loc 5 504 0
 1644 001e FFF7FEBF 		b	chSysUnlock
 1645              	.LVL143:
 1646              	.LBE269:
 1647              	.LBE268:
 1648              		.cfi_endproc
 1649              	.LFE298:
 1650              		.size	obqFlush, .-obqFlush
 1651              		.text
 1652              	.Letext0:
 1653              		.file 7 "/usr/lib/gcc/arm-none-eabi/4.9.3/include/stddef.h"
ARM GAS  /tmp/ccwbRd47.s 			page 30


 1654              		.file 8 "/usr/include/newlib/machine/_default_types.h"
 1655              		.file 9 "/usr/include/newlib/sys/_stdint.h"
 1656              		.file 10 "../../modules/ChibiOS/os/common/ports/ARMCMx/compilers/GCC/chtypes.h"
 1657              		.file 11 "../../modules/ChibiOS/os/rt/include/chsystypes.h"
 1658              		.file 12 "../../modules/ChibiOS/os/common/ports/ARMCMx/chcore.h"
 1659              		.file 13 "../../modules/ChibiOS/os/common/ports/ARMCMx/chcore_v7m.h"
 1660              		.file 14 "../../modules/ChibiOS/os/hal/ports/STM32/LLD/TIMv1/stm32_tim.h"
 1661              		.file 15 "../../modules/ChibiOS/os/rt/include/chtm.h"
 1662              		.file 16 "../../modules/ChibiOS/os/rt/include/chstats.h"
 1663              		.file 17 "../../modules/ChibiOS/os/rt/include/chsem.h"
 1664              		.file 18 "../../modules/ChibiOS/os/rt/include/chmtx.h"
 1665              		.file 19 "../../modules/ChibiOS/os/hal/include/hal_buffers.h"
 1666              		.file 20 "../../modules/ChibiOS/os/common/ports/ARMCMx/chcore_timer.h"
 1667              		.file 21 "../../modules/ChibiOS/os/rt/include/chvt.h"
 1668              		.file 22 "../../modules/ChibiOS/os/rt/include/chthreads.h"
 1669              		.file 23 "../../modules/ChibiOS/os/common/ext/CMSIS/include/core_cm4.h"