ARM GAS  /tmp/cct6skiR.s 			page 1


   1              		.syntax unified
   2              		.cpu cortex-m4
   3              		.eabi_attribute 27, 1
   4              		.eabi_attribute 28, 1
   5              		.fpu fpv4-sp-d16
   6              		.eabi_attribute 20, 1
   7              		.eabi_attribute 21, 1
   8              		.eabi_attribute 23, 3
   9              		.eabi_attribute 24, 1
  10              		.eabi_attribute 25, 1
  11              		.eabi_attribute 26, 1
  12              		.eabi_attribute 30, 4
  13              		.eabi_attribute 34, 1
  14              		.eabi_attribute 18, 4
  15              		.thumb
  16              		.file	"hal_spi_lld.c"
  17              		.text
  18              	.Ltext0:
  19              		.cfi_sections	.debug_frame
  20              		.section	.text.spi_lld_serve_tx_interrupt,"ax",%progbits
  21              		.align	1
  22              		.thumb
  23              		.thumb_func
  24              		.type	spi_lld_serve_tx_interrupt, %function
  25              	spi_lld_serve_tx_interrupt:
  26              	.LFB278:
  27              		.file 1 "../../modules/ChibiOS/os/hal/ports/STM32/LLD/SPIv1/hal_spi_lld.c"
  28              		.loc 1 158 0
  29              		.cfi_startproc
  30              		@ args = 0, pretend = 0, frame = 0
  31              		@ frame_needed = 0, uses_anonymous_args = 0
  32              		@ link register save eliminated.
  33              	.LVL0:
  34              		.loc 1 163 0
  35 0000 11F00C0F 		tst	r1, #12
  36 0004 02D0     		beq	.L1
  37              	.LVL1:
  38              	.LBB34:
  39              	.LBB35:
  40              		.file 2 "../../modules/ChibiOS/os/hal/osal/rt/osal.h"
  41              		.loc 2 462 0
  42 0006 0248     		ldr	r0, .L4
  43              	.LVL2:
  44 0008 FFF7FEBF 		b	chSysHalt
  45              	.LVL3:
  46              	.L1:
  47 000c 7047     		bx	lr
  48              	.L5:
  49 000e 00BF     		.align	2
  50              	.L4:
  51 0010 00000000 		.word	.LC0
  52              	.LBE35:
  53              	.LBE34:
  54              		.cfi_endproc
  55              	.LFE278:
  56              		.size	spi_lld_serve_tx_interrupt, .-spi_lld_serve_tx_interrupt
  57              		.section	.text.spi_lld_serve_rx_interrupt,"ax",%progbits
ARM GAS  /tmp/cct6skiR.s 			page 2


  58              		.align	1
  59              		.thumb
  60              		.thumb_func
  61              		.type	spi_lld_serve_rx_interrupt, %function
  62              	spi_lld_serve_rx_interrupt:
  63              	.LFB277:
  64              		.loc 1 132 0
  65              		.cfi_startproc
  66              		@ args = 0, pretend = 0, frame = 0
  67              		@ frame_needed = 0, uses_anonymous_args = 0
  68              	.LVL4:
  69              		.loc 1 136 0
  70 0000 11F00C0F 		tst	r1, #12
  71              		.loc 1 132 0
  72 0004 10B5     		push	{r4, lr}
  73              		.cfi_def_cfa_offset 8
  74              		.cfi_offset 4, -8
  75              		.cfi_offset 14, -4
  76              		.loc 1 132 0
  77 0006 0446     		mov	r4, r0
  78              		.loc 1 136 0
  79 0008 02D0     		beq	.L7
  80              	.LVL5:
  81              	.LBB56:
  82              	.LBB57:
  83              		.loc 2 462 0
  84 000a 1D48     		ldr	r0, .L20
  85              	.LVL6:
  86 000c FFF7FEFF 		bl	chSysHalt
  87              	.LVL7:
  88              	.L7:
  89              	.LBE57:
  90              	.LBE56:
  91              		.loc 1 144 0
  92 0010 636A     		ldr	r3, [r4, #36]
  93 0012 1A68     		ldr	r2, [r3]
  94 0014 1168     		ldr	r1, [r2]
  95 0016 21F01F01 		bic	r1, r1, #31
  96 001a 1160     		str	r1, [r2]
  97              	.L8:
  98              		.loc 1 144 0 is_stmt 0 discriminator 2
  99 001c 1168     		ldr	r1, [r2]
 100 001e C807     		lsls	r0, r1, #31
 101 0020 FCD4     		bmi	.L8
 102              		.loc 1 144 0 discriminator 3
 103 0022 197A     		ldrb	r1, [r3, #8]	@ zero_extendqisi2
 104 0024 5A68     		ldr	r2, [r3, #4]
 105 0026 3D23     		movs	r3, #61
 106 0028 8B40     		lsls	r3, r3, r1
 107 002a 1360     		str	r3, [r2]
 108              		.loc 1 145 0 is_stmt 1 discriminator 3
 109 002c 236A     		ldr	r3, [r4, #32]
 110 002e 1A68     		ldr	r2, [r3]
 111 0030 1168     		ldr	r1, [r2]
 112 0032 21F01F01 		bic	r1, r1, #31
 113 0036 1160     		str	r1, [r2]
 114              	.L9:
ARM GAS  /tmp/cct6skiR.s 			page 3


 115              		.loc 1 145 0 is_stmt 0 discriminator 2
 116 0038 1168     		ldr	r1, [r2]
 117 003a C907     		lsls	r1, r1, #31
 118 003c FCD4     		bmi	.L9
 119              		.loc 1 145 0 discriminator 3
 120 003e 197A     		ldrb	r1, [r3, #8]	@ zero_extendqisi2
 121 0040 5A68     		ldr	r2, [r3, #4]
 122 0042 3D23     		movs	r3, #61
 123 0044 8B40     		lsls	r3, r3, r1
 124 0046 1360     		str	r3, [r2]
 125              		.loc 1 149 0 is_stmt 1 discriminator 3
 126 0048 6368     		ldr	r3, [r4, #4]
 127 004a 1B68     		ldr	r3, [r3]
 128 004c 33B1     		cbz	r3, .L10
 129              		.loc 1 149 0 is_stmt 0 discriminator 1
 130 004e 0422     		movs	r2, #4
 131 0050 2270     		strb	r2, [r4]
 132 0052 2046     		mov	r0, r4
 133 0054 9847     		blx	r3
 134              	.LVL8:
 135 0056 2378     		ldrb	r3, [r4]	@ zero_extendqisi2
 136 0058 042B     		cmp	r3, #4
 137 005a 01D1     		bne	.L11
 138              	.L10:
 139              		.loc 1 149 0 discriminator 3
 140 005c 0223     		movs	r3, #2
 141 005e 2370     		strb	r3, [r4]
 142              	.L11:
 143              	.LVL9:
 144              	.LBB58:
 145              	.LBB59:
 146              	.LBB60:
 147              	.LBB61:
 148              	.LBB62:
 149              	.LBB63:
 150              	.LBB64:
 151              		.file 3 "../../modules/ChibiOS/os/common/ext/CMSIS/include/cmsis_gcc.h"
 152              		.loc 3 264 0 is_stmt 1 discriminator 4
 153 0060 2023     		movs	r3, #32
 154              	@ 264 "../../modules/ChibiOS/os/common/ext/CMSIS/include/cmsis_gcc.h" 1
 155 0062 83F31188 		MSR basepri, r3
 156              	@ 0 "" 2
 157              		.thumb
 158              	.LBE64:
 159              	.LBE63:
 160              	.LBE62:
 161              	.LBE61:
 162              		.file 4 "../../modules/ChibiOS/os/rt/include/chsys.h"
 163              		.loc 4 417 0 discriminator 4
 164 0066 FFF7FEFF 		bl	_stats_start_measure_crit_isr
 165              	.LVL10:
 166              	.LBE60:
 167              	.LBE59:
 168              	.LBE58:
 169              	.LBB65:
 170              	.LBB66:
 171              		.loc 2 728 0 discriminator 4
ARM GAS  /tmp/cct6skiR.s 			page 4


 172 006a 04F10800 		add	r0, r4, #8
 173              	.LVL11:
 174 006e 0021     		movs	r1, #0
 175 0070 FFF7FEFF 		bl	chThdResumeI
 176              	.LVL12:
 177              	.LBE66:
 178              	.LBE65:
 179              	.LBB67:
 180              	.LBB68:
 181              	.LBB69:
 182              		.loc 4 437 0 discriminator 4
 183 0074 FFF7FEFF 		bl	_stats_stop_measure_crit_isr
 184              	.LVL13:
 185              	.LBB70:
 186              	.LBB71:
 187              	.LBB72:
 188              	.LBB73:
 189              		.loc 3 264 0 discriminator 4
 190 0078 0023     		movs	r3, #0
 191              	@ 264 "../../modules/ChibiOS/os/common/ext/CMSIS/include/cmsis_gcc.h" 1
 192 007a 83F31188 		MSR basepri, r3
 193              	@ 0 "" 2
 194              		.thumb
 195 007e 10BD     		pop	{r4, pc}
 196              	.LVL14:
 197              	.L21:
 198              		.align	2
 199              	.L20:
 200 0080 00000000 		.word	.LC0
 201              	.LBE73:
 202              	.LBE72:
 203              	.LBE71:
 204              	.LBE70:
 205              	.LBE69:
 206              	.LBE68:
 207              	.LBE67:
 208              		.cfi_endproc
 209              	.LFE277:
 210              		.size	spi_lld_serve_rx_interrupt, .-spi_lld_serve_rx_interrupt
 211              		.section	.text.spi_lld_init,"ax",%progbits
 212              		.align	1
 213              		.global	spi_lld_init
 214              		.thumb
 215              		.thumb_func
 216              		.type	spi_lld_init, %function
 217              	spi_lld_init:
 218              	.LFB279:
 219              		.loc 1 185 0
 220              		.cfi_startproc
 221              		@ args = 0, pretend = 0, frame = 0
 222              		@ frame_needed = 0, uses_anonymous_args = 0
 223 0000 38B5     		push	{r3, r4, r5, lr}
 224              		.cfi_def_cfa_offset 16
 225              		.cfi_offset 3, -16
 226              		.cfi_offset 4, -12
 227              		.cfi_offset 5, -8
 228              		.cfi_offset 14, -4
ARM GAS  /tmp/cct6skiR.s 			page 5


 229              		.loc 1 188 0
 230 0002 0F4C     		ldr	r4, .L23
 231              		.loc 1 190 0
 232 0004 0F4D     		ldr	r5, .L23+4
 233              		.loc 1 188 0
 234 0006 2046     		mov	r0, r4
 235 0008 FFF7FEFF 		bl	spiObjectInit
 236              	.LVL15:
 237              		.loc 1 189 0
 238 000c 0E4B     		ldr	r3, .L23+8
 239 000e E361     		str	r3, [r4, #28]
 240              		.loc 1 191 0
 241 0010 05F12403 		add	r3, r5, #36
 242 0014 6362     		str	r3, [r4, #36]
 243              		.loc 1 192 0
 244 0016 0D4B     		ldr	r3, .L23+12
 245 0018 A362     		str	r3, [r4, #40]
 246              		.loc 1 198 0
 247 001a 3033     		adds	r3, r3, #48
 248              		.loc 1 190 0
 249 001c 2562     		str	r5, [r4, #32]
 250              		.loc 1 198 0
 251 001e E362     		str	r3, [r4, #44]
 252              		.loc 1 206 0
 253 0020 0B4C     		ldr	r4, .L23+16
 254 0022 2046     		mov	r0, r4
 255 0024 FFF7FEFF 		bl	spiObjectInit
 256              	.LVL16:
 257              		.loc 1 207 0
 258 0028 0A4B     		ldr	r3, .L23+20
 259 002a E361     		str	r3, [r4, #28]
 260              		.loc 1 208 0
 261 002c A5F13C03 		sub	r3, r5, #60
 262 0030 2362     		str	r3, [r4, #32]
 263              		.loc 1 210 0
 264 0032 094B     		ldr	r3, .L23+24
 265 0034 A362     		str	r3, [r4, #40]
 266              		.loc 1 209 0
 267 0036 303D     		subs	r5, r5, #48
 268              		.loc 1 216 0
 269 0038 3033     		adds	r3, r3, #48
 270              		.loc 1 209 0
 271 003a 6562     		str	r5, [r4, #36]
 272              		.loc 1 216 0
 273 003c E362     		str	r3, [r4, #44]
 274 003e 38BD     		pop	{r3, r4, r5, pc}
 275              	.L24:
 276              		.align	2
 277              	.L23:
 278 0040 00000000 		.word	.LANCHOR0
 279 0044 60000000 		.word	_stm32_dma_streams+96
 280 0048 00300140 		.word	1073819648
 281 004c 16000106 		.word	100728854
 282 0050 00000000 		.word	.LANCHOR1
 283 0054 00380040 		.word	1073756160
 284 0058 16000100 		.word	65558
 285              		.cfi_endproc
ARM GAS  /tmp/cct6skiR.s 			page 6


 286              	.LFE279:
 287              		.size	spi_lld_init, .-spi_lld_init
 288              		.section	.text.spi_lld_start,"ax",%progbits
 289              		.align	1
 290              		.global	spi_lld_start
 291              		.thumb
 292              		.thumb_func
 293              		.type	spi_lld_start, %function
 294              	spi_lld_start:
 295              	.LFB280:
 296              		.loc 1 303 0
 297              		.cfi_startproc
 298              		@ args = 0, pretend = 0, frame = 0
 299              		@ frame_needed = 0, uses_anonymous_args = 0
 300              	.LVL17:
 301              		.loc 1 306 0
 302 0000 0378     		ldrb	r3, [r0]	@ zero_extendqisi2
 303 0002 012B     		cmp	r3, #1
 304              		.loc 1 303 0
 305 0004 10B5     		push	{r4, lr}
 306              		.cfi_def_cfa_offset 8
 307              		.cfi_offset 4, -8
 308              		.cfi_offset 14, -4
 309              		.loc 1 303 0
 310 0006 0446     		mov	r4, r0
 311              		.loc 1 306 0
 312 0008 30D1     		bne	.L26
 313              		.loc 1 308 0
 314 000a 2C4B     		ldr	r3, .L32
 315 000c 9842     		cmp	r0, r3
 316 000e 11D1     		bne	.L27
 317              	.LBB74:
 318              		.loc 1 310 0
 319 0010 0A21     		movs	r1, #10
 320 0012 2B4A     		ldr	r2, .L32+4
 321 0014 006A     		ldr	r0, [r0, #32]
 322              	.LVL18:
 323 0016 2346     		mov	r3, r4
 324 0018 FFF7FEFF 		bl	dmaStreamAllocate
 325              	.LVL19:
 326              		.loc 1 315 0
 327 001c 294A     		ldr	r2, .L32+8
 328 001e 606A     		ldr	r0, [r4, #36]
 329 0020 2346     		mov	r3, r4
 330 0022 0A21     		movs	r1, #10
 331 0024 FFF7FEFF 		bl	dmaStreamAllocate
 332              	.LVL20:
 333              		.loc 1 320 0
 334 0028 274A     		ldr	r2, .L32+12
 335 002a 536C     		ldr	r3, [r2, #68]
 336 002c 43F48053 		orr	r3, r3, #4096
 337 0030 5364     		str	r3, [r2, #68]
 338 0032 13E0     		b	.L28
 339              	.LVL21:
 340              	.L27:
 341              	.LBE74:
 342              		.loc 1 324 0
ARM GAS  /tmp/cct6skiR.s 			page 7


 343 0034 254B     		ldr	r3, .L32+16
 344 0036 9842     		cmp	r0, r3
 345 0038 10D1     		bne	.L28
 346              	.LBB75:
 347              		.loc 1 326 0
 348 003a 0A21     		movs	r1, #10
 349 003c 204A     		ldr	r2, .L32+4
 350 003e 006A     		ldr	r0, [r0, #32]
 351              	.LVL22:
 352 0040 2346     		mov	r3, r4
 353 0042 FFF7FEFF 		bl	dmaStreamAllocate
 354              	.LVL23:
 355              		.loc 1 331 0
 356 0046 1F4A     		ldr	r2, .L32+8
 357 0048 606A     		ldr	r0, [r4, #36]
 358 004a 2346     		mov	r3, r4
 359 004c 0A21     		movs	r1, #10
 360 004e FFF7FEFF 		bl	dmaStreamAllocate
 361              	.LVL24:
 362              		.loc 1 336 0
 363 0052 1D4A     		ldr	r2, .L32+12
 364 0054 136C     		ldr	r3, [r2, #64]
 365 0056 43F48043 		orr	r3, r3, #16384
 366 005a 1364     		str	r3, [r2, #64]
 367              	.L28:
 368              	.LBE75:
 369              		.loc 1 405 0
 370 005c 236A     		ldr	r3, [r4, #32]
 371 005e 1A68     		ldr	r2, [r3]
 372 0060 E369     		ldr	r3, [r4, #28]
 373 0062 0C33     		adds	r3, r3, #12
 374 0064 9360     		str	r3, [r2, #8]
 375              		.loc 1 406 0
 376 0066 626A     		ldr	r2, [r4, #36]
 377 0068 1268     		ldr	r2, [r2]
 378 006a 9360     		str	r3, [r2, #8]
 379              	.L26:
 380              		.loc 1 410 0
 381 006c 6068     		ldr	r0, [r4, #4]
 382 006e E36A     		ldr	r3, [r4, #44]
 383 0070 4189     		ldrh	r1, [r0, #10]
 384 0072 A26A     		ldr	r2, [r4, #40]
 385 0074 11F4006F 		tst	r1, #2048
 386              		.loc 1 421 0
 387 0078 18BF     		it	ne
 388 007a 23F4F043 		bicne	r3, r3, #30720
 389              		.loc 1 413 0
 390 007e 22F4F042 		bic	r2, r2, #30720
 391              		.loc 1 415 0
 392 0082 0CBF     		ite	eq
 393 0084 23F4F043 		biceq	r3, r3, #30720
 394              		.loc 1 422 0
 395 0088 43F42053 		orrne	r3, r3, #10240
 396              		.loc 1 421 0
 397 008c E362     		str	r3, [r4, #44]
 398              		.loc 1 420 0
 399 008e 18BF     		it	ne
ARM GAS  /tmp/cct6skiR.s 			page 8


 400 0090 42F42052 		orrne	r2, r2, #10240
 401              		.loc 1 425 0
 402 0094 E369     		ldr	r3, [r4, #28]
 403              		.loc 1 412 0
 404 0096 0CBF     		ite	eq
 405 0098 A262     		streq	r2, [r4, #40]
 406              		.loc 1 419 0
 407 009a A262     		strne	r2, [r4, #40]
 408              		.loc 1 425 0
 409 009c 0022     		movs	r2, #0
 410 009e 1A60     		str	r2, [r3]
 411              		.loc 1 428 0
 412 00a0 8289     		ldrh	r2, [r0, #12]
 413 00a2 42F00702 		orr	r2, r2, #7
 414 00a6 92B2     		uxth	r2, r2
 415              		.loc 1 426 0
 416 00a8 41F44171 		orr	r1, r1, #772
 417 00ac 1960     		str	r1, [r3]
 418              		.loc 1 428 0
 419 00ae 5A60     		str	r2, [r3, #4]
 420              		.loc 1 430 0
 421 00b0 1A68     		ldr	r2, [r3]
 422 00b2 42F04002 		orr	r2, r2, #64
 423 00b6 1A60     		str	r2, [r3]
 424 00b8 10BD     		pop	{r4, pc}
 425              	.LVL25:
 426              	.L33:
 427 00ba 00BF     		.align	2
 428              	.L32:
 429 00bc 00000000 		.word	.LANCHOR0
 430 00c0 00000000 		.word	spi_lld_serve_rx_interrupt
 431 00c4 00000000 		.word	spi_lld_serve_tx_interrupt
 432 00c8 00380240 		.word	1073887232
 433 00cc 00000000 		.word	.LANCHOR1
 434              		.cfi_endproc
 435              	.LFE280:
 436              		.size	spi_lld_start, .-spi_lld_start
 437              		.section	.text.spi_lld_stop,"ax",%progbits
 438              		.align	1
 439              		.global	spi_lld_stop
 440              		.thumb
 441              		.thumb_func
 442              		.type	spi_lld_stop, %function
 443              	spi_lld_stop:
 444              	.LFB281:
 445              		.loc 1 440 0
 446              		.cfi_startproc
 447              		@ args = 0, pretend = 0, frame = 0
 448              		@ frame_needed = 0, uses_anonymous_args = 0
 449              	.LVL26:
 450              		.loc 1 443 0
 451 0000 0378     		ldrb	r3, [r0]	@ zero_extendqisi2
 452 0002 022B     		cmp	r3, #2
 453              		.loc 1 440 0
 454 0004 10B5     		push	{r4, lr}
 455              		.cfi_def_cfa_offset 8
 456              		.cfi_offset 4, -8
ARM GAS  /tmp/cct6skiR.s 			page 9


 457              		.cfi_offset 14, -4
 458              		.loc 1 440 0
 459 0006 0446     		mov	r4, r0
 460              		.loc 1 443 0
 461 0008 1AD1     		bne	.L34
 462              		.loc 1 446 0
 463 000a C369     		ldr	r3, [r0, #28]
 464              		.loc 1 448 0
 465 000c 006A     		ldr	r0, [r0, #32]
 466              	.LVL27:
 467              		.loc 1 446 0
 468 000e 0022     		movs	r2, #0
 469 0010 1A60     		str	r2, [r3]
 470              		.loc 1 447 0
 471 0012 5A60     		str	r2, [r3, #4]
 472              		.loc 1 448 0
 473 0014 FFF7FEFF 		bl	dmaStreamRelease
 474              	.LVL28:
 475              		.loc 1 449 0
 476 0018 606A     		ldr	r0, [r4, #36]
 477 001a FFF7FEFF 		bl	dmaStreamRelease
 478              	.LVL29:
 479              		.loc 1 452 0
 480 001e 094B     		ldr	r3, .L39
 481 0020 9C42     		cmp	r4, r3
 482 0022 05D1     		bne	.L37
 483              		.loc 1 453 0
 484 0024 084A     		ldr	r2, .L39+4
 485 0026 536C     		ldr	r3, [r2, #68]
 486 0028 23F48053 		bic	r3, r3, #4096
 487 002c 5364     		str	r3, [r2, #68]
 488 002e 10BD     		pop	{r4, pc}
 489              	.LVL30:
 490              	.L37:
 491              		.loc 1 456 0
 492 0030 064B     		ldr	r3, .L39+8
 493 0032 9C42     		cmp	r4, r3
 494              		.loc 1 457 0
 495 0034 01BF     		itttt	eq
 496 0036 044A     		ldreq	r2, .L39+4
 497 0038 136C     		ldreq	r3, [r2, #64]
 498 003a 23F48043 		biceq	r3, r3, #16384
 499 003e 1364     		streq	r3, [r2, #64]
 500              	.L34:
 501 0040 10BD     		pop	{r4, pc}
 502              	.LVL31:
 503              	.L40:
 504 0042 00BF     		.align	2
 505              	.L39:
 506 0044 00000000 		.word	.LANCHOR0
 507 0048 00380240 		.word	1073887232
 508 004c 00000000 		.word	.LANCHOR1
 509              		.cfi_endproc
 510              	.LFE281:
 511              		.size	spi_lld_stop, .-spi_lld_stop
 512              		.section	.text.spi_lld_select,"ax",%progbits
 513              		.align	1
ARM GAS  /tmp/cct6skiR.s 			page 10


 514              		.global	spi_lld_select
 515              		.thumb
 516              		.thumb_func
 517              		.type	spi_lld_select, %function
 518              	spi_lld_select:
 519              	.LFB282:
 520              		.loc 1 485 0
 521              		.cfi_startproc
 522              		@ args = 0, pretend = 0, frame = 0
 523              		@ frame_needed = 0, uses_anonymous_args = 0
 524              		@ link register save eliminated.
 525              	.LVL32:
 526              		.loc 1 487 0
 527 0000 4368     		ldr	r3, [r0, #4]
 528 0002 1989     		ldrh	r1, [r3, #8]
 529 0004 5A68     		ldr	r2, [r3, #4]
 530 0006 0123     		movs	r3, #1
 531 0008 8B40     		lsls	r3, r3, r1
 532 000a 9BB2     		uxth	r3, r3
 533 000c 5383     		strh	r3, [r2, #26]	@ movhi
 534 000e 7047     		bx	lr
 535              		.cfi_endproc
 536              	.LFE282:
 537              		.size	spi_lld_select, .-spi_lld_select
 538              		.section	.text.spi_lld_unselect,"ax",%progbits
 539              		.align	1
 540              		.global	spi_lld_unselect
 541              		.thumb
 542              		.thumb_func
 543              		.type	spi_lld_unselect, %function
 544              	spi_lld_unselect:
 545              	.LFB283:
 546              		.loc 1 498 0
 547              		.cfi_startproc
 548              		@ args = 0, pretend = 0, frame = 0
 549              		@ frame_needed = 0, uses_anonymous_args = 0
 550              		@ link register save eliminated.
 551              	.LVL33:
 552              		.loc 1 500 0
 553 0000 4368     		ldr	r3, [r0, #4]
 554 0002 1989     		ldrh	r1, [r3, #8]
 555 0004 5A68     		ldr	r2, [r3, #4]
 556 0006 0123     		movs	r3, #1
 557 0008 8B40     		lsls	r3, r3, r1
 558 000a 9BB2     		uxth	r3, r3
 559 000c 1383     		strh	r3, [r2, #24]	@ movhi
 560 000e 7047     		bx	lr
 561              		.cfi_endproc
 562              	.LFE283:
 563              		.size	spi_lld_unselect, .-spi_lld_unselect
 564              		.section	.text.spi_lld_ignore,"ax",%progbits
 565              		.align	1
 566              		.global	spi_lld_ignore
 567              		.thumb
 568              		.thumb_func
 569              		.type	spi_lld_ignore, %function
 570              	spi_lld_ignore:
ARM GAS  /tmp/cct6skiR.s 			page 11


 571              	.LFB284:
 572              		.loc 1 514 0
 573              		.cfi_startproc
 574              		@ args = 0, pretend = 0, frame = 0
 575              		@ frame_needed = 0, uses_anonymous_args = 0
 576              	.LVL34:
 577              		.loc 1 518 0
 578 0000 036A     		ldr	r3, [r0, #32]
 579 0002 1A68     		ldr	r2, [r3]
 580 0004 0A4B     		ldr	r3, .L44
 581              		.loc 1 514 0
 582 0006 10B5     		push	{r4, lr}
 583              		.cfi_def_cfa_offset 8
 584              		.cfi_offset 4, -8
 585              		.cfi_offset 14, -4
 586              		.loc 1 518 0
 587 0008 D360     		str	r3, [r2, #12]
 588              		.loc 1 520 0
 589 000a 836A     		ldr	r3, [r0, #40]
 590              		.loc 1 519 0
 591 000c 5160     		str	r1, [r2, #4]
 592              		.loc 1 520 0
 593 000e 1360     		str	r3, [r2]
 594              		.loc 1 522 0
 595 0010 436A     		ldr	r3, [r0, #36]
 596 0012 084C     		ldr	r4, .L44+4
 597 0014 1B68     		ldr	r3, [r3]
 598 0016 DC60     		str	r4, [r3, #12]
 599              		.loc 1 523 0
 600 0018 5960     		str	r1, [r3, #4]
 601              		.loc 1 524 0
 602 001a C16A     		ldr	r1, [r0, #44]
 603              	.LVL35:
 604 001c 1960     		str	r1, [r3]
 605              	.LVL36:
 606              		.loc 1 526 0
 607 001e 1168     		ldr	r1, [r2]
 608 0020 41F00101 		orr	r1, r1, #1
 609 0024 1160     		str	r1, [r2]
 610              		.loc 1 527 0
 611 0026 1A68     		ldr	r2, [r3]
 612 0028 42F00102 		orr	r2, r2, #1
 613 002c 1A60     		str	r2, [r3]
 614 002e 10BD     		pop	{r4, pc}
 615              	.L45:
 616              		.align	2
 617              	.L44:
 618 0030 00000000 		.word	.LANCHOR2
 619 0034 00000000 		.word	.LANCHOR3
 620              		.cfi_endproc
 621              	.LFE284:
 622              		.size	spi_lld_ignore, .-spi_lld_ignore
 623              		.section	.text.spi_lld_exchange,"ax",%progbits
 624              		.align	1
 625              		.global	spi_lld_exchange
 626              		.thumb
 627              		.thumb_func
ARM GAS  /tmp/cct6skiR.s 			page 12


 628              		.type	spi_lld_exchange, %function
 629              	spi_lld_exchange:
 630              	.LFB285:
 631              		.loc 1 546 0
 632              		.cfi_startproc
 633              		@ args = 0, pretend = 0, frame = 0
 634              		@ frame_needed = 0, uses_anonymous_args = 0
 635              	.LVL37:
 636 0000 10B5     		push	{r4, lr}
 637              		.cfi_def_cfa_offset 8
 638              		.cfi_offset 4, -8
 639              		.cfi_offset 14, -4
 640              		.loc 1 550 0
 641 0002 046A     		ldr	r4, [r0, #32]
 642 0004 2468     		ldr	r4, [r4]
 643 0006 E360     		str	r3, [r4, #12]
 644              		.loc 1 552 0
 645 0008 836A     		ldr	r3, [r0, #40]
 646              	.LVL38:
 647              		.loc 1 551 0
 648 000a 6160     		str	r1, [r4, #4]
 649              	.LVL39:
 650              		.loc 1 552 0
 651 000c 43F48063 		orr	r3, r3, #1024
 652 0010 2360     		str	r3, [r4]
 653              		.loc 1 554 0
 654 0012 436A     		ldr	r3, [r0, #36]
 655 0014 1B68     		ldr	r3, [r3]
 656 0016 DA60     		str	r2, [r3, #12]
 657              		.loc 1 556 0
 658 0018 C26A     		ldr	r2, [r0, #44]
 659              	.LVL40:
 660              		.loc 1 555 0
 661 001a 5960     		str	r1, [r3, #4]
 662              	.LVL41:
 663              		.loc 1 556 0
 664 001c 42F48062 		orr	r2, r2, #1024
 665 0020 1A60     		str	r2, [r3]
 666              		.loc 1 558 0
 667 0022 2268     		ldr	r2, [r4]
 668 0024 42F00102 		orr	r2, r2, #1
 669 0028 2260     		str	r2, [r4]
 670              		.loc 1 559 0
 671 002a 1A68     		ldr	r2, [r3]
 672 002c 42F00102 		orr	r2, r2, #1
 673 0030 1A60     		str	r2, [r3]
 674 0032 10BD     		pop	{r4, pc}
 675              		.cfi_endproc
 676              	.LFE285:
 677              		.size	spi_lld_exchange, .-spi_lld_exchange
 678              		.section	.text.spi_lld_send,"ax",%progbits
 679              		.align	1
 680              		.global	spi_lld_send
 681              		.thumb
 682              		.thumb_func
 683              		.type	spi_lld_send, %function
 684              	spi_lld_send:
ARM GAS  /tmp/cct6skiR.s 			page 13


 685              	.LFB286:
 686              		.loc 1 575 0
 687              		.cfi_startproc
 688              		@ args = 0, pretend = 0, frame = 0
 689              		@ frame_needed = 0, uses_anonymous_args = 0
 690              	.LVL42:
 691              		.loc 1 579 0
 692 0000 036A     		ldr	r3, [r0, #32]
 693              		.loc 1 575 0
 694 0002 10B5     		push	{r4, lr}
 695              		.cfi_def_cfa_offset 8
 696              		.cfi_offset 4, -8
 697              		.cfi_offset 14, -4
 698              		.loc 1 579 0
 699 0004 1C68     		ldr	r4, [r3]
 700 0006 0B4B     		ldr	r3, .L48
 701 0008 E360     		str	r3, [r4, #12]
 702              		.loc 1 581 0
 703 000a 836A     		ldr	r3, [r0, #40]
 704              		.loc 1 580 0
 705 000c 6160     		str	r1, [r4, #4]
 706              		.loc 1 581 0
 707 000e 2360     		str	r3, [r4]
 708              		.loc 1 583 0
 709 0010 436A     		ldr	r3, [r0, #36]
 710 0012 1B68     		ldr	r3, [r3]
 711 0014 DA60     		str	r2, [r3, #12]
 712              		.loc 1 585 0
 713 0016 C26A     		ldr	r2, [r0, #44]
 714              	.LVL43:
 715              		.loc 1 584 0
 716 0018 5960     		str	r1, [r3, #4]
 717              	.LVL44:
 718              		.loc 1 585 0
 719 001a 42F48062 		orr	r2, r2, #1024
 720 001e 1A60     		str	r2, [r3]
 721              		.loc 1 587 0
 722 0020 2268     		ldr	r2, [r4]
 723 0022 42F00102 		orr	r2, r2, #1
 724 0026 2260     		str	r2, [r4]
 725              		.loc 1 588 0
 726 0028 1A68     		ldr	r2, [r3]
 727 002a 42F00102 		orr	r2, r2, #1
 728 002e 1A60     		str	r2, [r3]
 729 0030 10BD     		pop	{r4, pc}
 730              	.L49:
 731 0032 00BF     		.align	2
 732              	.L48:
 733 0034 00000000 		.word	.LANCHOR2
 734              		.cfi_endproc
 735              	.LFE286:
 736              		.size	spi_lld_send, .-spi_lld_send
 737              		.section	.text.spi_lld_receive,"ax",%progbits
 738              		.align	1
 739              		.global	spi_lld_receive
 740              		.thumb
 741              		.thumb_func
ARM GAS  /tmp/cct6skiR.s 			page 14


 742              		.type	spi_lld_receive, %function
 743              	spi_lld_receive:
 744              	.LFB287:
 745              		.loc 1 604 0
 746              		.cfi_startproc
 747              		@ args = 0, pretend = 0, frame = 0
 748              		@ frame_needed = 0, uses_anonymous_args = 0
 749              	.LVL45:
 750              		.loc 1 608 0
 751 0000 036A     		ldr	r3, [r0, #32]
 752              		.loc 1 604 0
 753 0002 10B5     		push	{r4, lr}
 754              		.cfi_def_cfa_offset 8
 755              		.cfi_offset 4, -8
 756              		.cfi_offset 14, -4
 757              		.loc 1 608 0
 758 0004 1C68     		ldr	r4, [r3]
 759              		.loc 1 610 0
 760 0006 836A     		ldr	r3, [r0, #40]
 761              		.loc 1 608 0
 762 0008 E260     		str	r2, [r4, #12]
 763              		.loc 1 610 0
 764 000a 43F48063 		orr	r3, r3, #1024
 765              		.loc 1 609 0
 766 000e 6160     		str	r1, [r4, #4]
 767              		.loc 1 610 0
 768 0010 2360     		str	r3, [r4]
 769              		.loc 1 612 0
 770 0012 436A     		ldr	r3, [r0, #36]
 771 0014 074A     		ldr	r2, .L51
 772              	.LVL46:
 773 0016 1B68     		ldr	r3, [r3]
 774 0018 DA60     		str	r2, [r3, #12]
 775              		.loc 1 614 0
 776 001a C26A     		ldr	r2, [r0, #44]
 777              		.loc 1 613 0
 778 001c 5960     		str	r1, [r3, #4]
 779              		.loc 1 614 0
 780 001e 1A60     		str	r2, [r3]
 781              		.loc 1 616 0
 782 0020 2268     		ldr	r2, [r4]
 783 0022 42F00102 		orr	r2, r2, #1
 784 0026 2260     		str	r2, [r4]
 785              		.loc 1 617 0
 786 0028 1A68     		ldr	r2, [r3]
 787 002a 42F00102 		orr	r2, r2, #1
 788 002e 1A60     		str	r2, [r3]
 789 0030 10BD     		pop	{r4, pc}
 790              	.L52:
 791 0032 00BF     		.align	2
 792              	.L51:
 793 0034 00000000 		.word	.LANCHOR3
 794              		.cfi_endproc
 795              	.LFE287:
 796              		.size	spi_lld_receive, .-spi_lld_receive
 797              		.section	.text.spi_lld_polled_exchange,"ax",%progbits
 798              		.align	1
ARM GAS  /tmp/cct6skiR.s 			page 15


 799              		.global	spi_lld_polled_exchange
 800              		.thumb
 801              		.thumb_func
 802              		.type	spi_lld_polled_exchange, %function
 803              	spi_lld_polled_exchange:
 804              	.LFB288:
 805              		.loc 1 632 0
 806              		.cfi_startproc
 807              		@ args = 0, pretend = 0, frame = 0
 808              		@ frame_needed = 0, uses_anonymous_args = 0
 809              		@ link register save eliminated.
 810              	.LVL47:
 811              		.loc 1 634 0
 812 0000 C369     		ldr	r3, [r0, #28]
 813 0002 D960     		str	r1, [r3, #12]
 814              	.L54:
 815              		.loc 1 635 0 discriminator 1
 816 0004 9A68     		ldr	r2, [r3, #8]
 817 0006 D207     		lsls	r2, r2, #31
 818 0008 FCD5     		bpl	.L54
 819              		.loc 1 637 0
 820 000a D868     		ldr	r0, [r3, #12]
 821              	.LVL48:
 822              		.loc 1 638 0
 823 000c 80B2     		uxth	r0, r0
 824 000e 7047     		bx	lr
 825              		.cfi_endproc
 826              	.LFE288:
 827              		.size	spi_lld_polled_exchange, .-spi_lld_polled_exchange
 828              		.global	SPID2
 829              		.global	SPID1
 830              		.section	.bss.SPID1,"aw",%nobits
 831              		.align	2
 832              		.set	.LANCHOR0,. + 0
 833              		.type	SPID1, %object
 834              		.size	SPID1, 48
 835              	SPID1:
 836 0000 00000000 		.space	48
 836      00000000 
 836      00000000 
 836      00000000 
 836      00000000 
 837              		.section	.bss.SPID2,"aw",%nobits
 838              		.align	2
 839              		.set	.LANCHOR1,. + 0
 840              		.type	SPID2, %object
 841              		.size	SPID2, 48
 842              	SPID2:
 843 0000 00000000 		.space	48
 843      00000000 
 843      00000000 
 843      00000000 
 843      00000000 
 844              		.section	.rodata.str1.1,"aMS",%progbits,1
 845              	.LC0:
 846 0000 444D4120 		.ascii	"DMA failure\000"
 846      6661696C 
ARM GAS  /tmp/cct6skiR.s 			page 16


 846      75726500 
 847              		.section	.rodata.dummytx,"a",%progbits
 848              		.align	1
 849              		.set	.LANCHOR3,. + 0
 850              		.type	dummytx, %object
 851              		.size	dummytx, 2
 852              	dummytx:
 853 0000 FFFF     		.short	-1
 854              		.section	.bss.dummyrx,"aw",%nobits
 855              		.align	1
 856              		.set	.LANCHOR2,. + 0
 857              		.type	dummyrx, %object
 858              		.size	dummyrx, 2
 859              	dummyrx:
 860 0000 0000     		.space	2
 861              		.text
 862              	.Letext0:
 863              		.file 5 "/usr/lib/gcc/arm-none-eabi/4.9.3/include/stddef.h"
 864              		.file 6 "/usr/include/newlib/machine/_default_types.h"
 865              		.file 7 "/usr/include/newlib/sys/_stdint.h"
 866              		.file 8 "../../modules/ChibiOS/os/common/ports/ARMCMx/compilers/GCC/chtypes.h"
 867              		.file 9 "../../modules/ChibiOS/os/rt/include/chsystypes.h"
 868              		.file 10 "../../modules/ChibiOS/os/rt/include/chschd.h"
 869              		.file 11 "../../modules/ChibiOS/os/common/ext/CMSIS/ST/STM32F4xx/stm32f407xx.h"
 870              		.file 12 "../../modules/ChibiOS/os/common/ports/ARMCMx/chcore.h"
 871              		.file 13 "../../modules/ChibiOS/os/common/ports/ARMCMx/chcore_v7m.h"
 872              		.file 14 "../../modules/ChibiOS/os/rt/include/chtm.h"
 873              		.file 15 "../../modules/ChibiOS/os/rt/include/chstats.h"
 874              		.file 16 "../../modules/ChibiOS/os/rt/include/chsem.h"
 875              		.file 17 "../../modules/ChibiOS/os/rt/include/chmtx.h"
 876              		.file 18 "../../modules/ChibiOS/os/hal/ports/STM32/LLD/DMAv2/stm32_dma.h"
 877              		.file 19 "../../modules/ChibiOS/os/hal/ports/STM32/LLD/GPIOv2/hal_pal_lld.h"
 878              		.file 20 "../../modules/ChibiOS/os/hal/include/hal_spi.h"
 879              		.file 21 "../../modules/ChibiOS/os/hal/ports/STM32/LLD/SPIv1/hal_spi_lld.h"
 880              		.file 22 "../../modules/ChibiOS/os/common/ext/CMSIS/include/core_cm4.h"
 881              		.file 23 "../../modules/ChibiOS/os/rt/include/chthreads.h"