ARM GAS  /tmp/ccvD9LA4.s 			page 1


   1              		.syntax unified
   2              		.cpu cortex-m4
   3              		.eabi_attribute 27, 1
   4              		.eabi_attribute 28, 1
   5              		.fpu fpv4-sp-d16
   6              		.eabi_attribute 20, 1
   7              		.eabi_attribute 21, 1
   8              		.eabi_attribute 23, 3
   9              		.eabi_attribute 24, 1
  10              		.eabi_attribute 25, 1
  11              		.eabi_attribute 26, 1
  12              		.eabi_attribute 30, 4
  13              		.eabi_attribute 34, 1
  14              		.eabi_attribute 18, 4
  15              		.thumb
  16              		.file	"hal_i2c_lld.c"
  17              		.text
  18              	.Ltext0:
  19              		.cfi_sections	.debug_frame
  20              		.section	.text.i2c_lld_serve_tx_end_irq,"ax",%progbits
  21              		.align	1
  22              		.thumb
  23              		.thumb_func
  24              		.type	i2c_lld_serve_tx_end_irq, %function
  25              	i2c_lld_serve_tx_end_irq:
  26              	.LFB283:
  27              		.file 1 "../../modules/ChibiOS/os/hal/ports/STM32/LLD/I2Cv1/hal_i2c_lld.c"
  28              		.loc 1 519 0
  29              		.cfi_startproc
  30              		@ args = 0, pretend = 0, frame = 0
  31              		@ frame_needed = 0, uses_anonymous_args = 0
  32              	.LVL0:
  33              		.loc 1 524 0
  34 0000 11F00C0F 		tst	r1, #12
  35              		.loc 1 519 0
  36 0004 38B5     		push	{r3, r4, r5, lr}
  37              		.cfi_def_cfa_offset 16
  38              		.cfi_offset 3, -16
  39              		.cfi_offset 4, -12
  40              		.cfi_offset 5, -8
  41              		.cfi_offset 14, -4
  42              		.loc 1 519 0
  43 0006 0546     		mov	r5, r0
  44              		.loc 1 520 0
  45 0008 446B     		ldr	r4, [r0, #52]
  46              	.LVL1:
  47              		.loc 1 524 0
  48 000a 02D0     		beq	.L2
  49              	.LVL2:
  50              	.LBB70:
  51              	.LBB71:
  52              		.file 2 "../../modules/ChibiOS/os/hal/osal/rt/osal.h"
  53              		.loc 2 462 0
  54 000c 0A48     		ldr	r0, .L9
  55              	.LVL3:
  56 000e FFF7FEFF 		bl	chSysHalt
  57              	.LVL4:
ARM GAS  /tmp/ccvD9LA4.s 			page 2


  58              	.L2:
  59              	.LBE71:
  60              	.LBE70:
  61              		.loc 1 531 0
  62 0012 2B6B     		ldr	r3, [r5, #48]
  63 0014 1A68     		ldr	r2, [r3]
  64 0016 1168     		ldr	r1, [r2]
  65 0018 21F01F01 		bic	r1, r1, #31
  66 001c 1160     		str	r1, [r2]
  67              	.L3:
  68              		.loc 1 531 0 is_stmt 0 discriminator 2
  69 001e 1168     		ldr	r1, [r2]
  70 0020 C907     		lsls	r1, r1, #31
  71 0022 FCD4     		bmi	.L3
  72              		.loc 1 531 0 discriminator 3
  73 0024 197A     		ldrb	r1, [r3, #8]	@ zero_extendqisi2
  74 0026 5A68     		ldr	r2, [r3, #4]
  75 0028 3D23     		movs	r3, #61
  76 002a 8B40     		lsls	r3, r3, r1
  77 002c 1360     		str	r3, [r2]
  78              		.loc 1 535 0 is_stmt 1 discriminator 3
  79 002e 6368     		ldr	r3, [r4, #4]
  80 0030 43F40073 		orr	r3, r3, #512
  81 0034 6360     		str	r3, [r4, #4]
  82 0036 38BD     		pop	{r3, r4, r5, pc}
  83              	.LVL5:
  84              	.L10:
  85              		.align	2
  86              	.L9:
  87 0038 00000000 		.word	.LC0
  88              		.cfi_endproc
  89              	.LFE283:
  90              		.size	i2c_lld_serve_tx_end_irq, .-i2c_lld_serve_tx_end_irq
  91              		.section	.text.i2c_lld_serve_rx_end_irq,"ax",%progbits
  92              		.align	1
  93              		.thumb
  94              		.thumb_func
  95              		.type	i2c_lld_serve_rx_end_irq, %function
  96              	i2c_lld_serve_rx_end_irq:
  97              	.LFB282:
  98              		.loc 1 492 0
  99              		.cfi_startproc
 100              		@ args = 0, pretend = 0, frame = 0
 101              		@ frame_needed = 0, uses_anonymous_args = 0
 102              	.LVL6:
 103              		.loc 1 497 0
 104 0000 11F00C0F 		tst	r1, #12
 105              		.loc 1 492 0
 106 0004 70B5     		push	{r4, r5, r6, lr}
 107              		.cfi_def_cfa_offset 16
 108              		.cfi_offset 4, -16
 109              		.cfi_offset 5, -12
 110              		.cfi_offset 6, -8
 111              		.cfi_offset 14, -4
 112              		.loc 1 492 0
 113 0006 0646     		mov	r6, r0
 114              		.loc 1 493 0
ARM GAS  /tmp/ccvD9LA4.s 			page 3


 115 0008 446B     		ldr	r4, [r0, #52]
 116              	.LVL7:
 117              		.loc 1 497 0
 118 000a 02D0     		beq	.L12
 119              	.LVL8:
 120              	.LBB92:
 121              	.LBB93:
 122              		.loc 2 462 0
 123 000c 1648     		ldr	r0, .L18
 124              	.LVL9:
 125 000e FFF7FEFF 		bl	chSysHalt
 126              	.LVL10:
 127              	.L12:
 128              	.LBE93:
 129              	.LBE92:
 130              		.loc 1 504 0
 131 0012 F36A     		ldr	r3, [r6, #44]
 132 0014 1A68     		ldr	r2, [r3]
 133 0016 1168     		ldr	r1, [r2]
 134 0018 21F01F01 		bic	r1, r1, #31
 135 001c 1160     		str	r1, [r2]
 136              	.L13:
 137              		.loc 1 504 0 is_stmt 0 discriminator 2
 138 001e 1568     		ldr	r5, [r2]
 139 0020 15F00105 		ands	r5, r5, #1
 140 0024 FBD1     		bne	.L13
 141              		.loc 1 504 0 discriminator 3
 142 0026 197A     		ldrb	r1, [r3, #8]	@ zero_extendqisi2
 143 0028 5A68     		ldr	r2, [r3, #4]
 144 002a 3D23     		movs	r3, #61
 145 002c 8B40     		lsls	r3, r3, r1
 146 002e 1360     		str	r3, [r2]
 147              		.loc 1 506 0 is_stmt 1 discriminator 3
 148 0030 6368     		ldr	r3, [r4, #4]
 149 0032 23F48053 		bic	r3, r3, #4096
 150 0036 6360     		str	r3, [r4, #4]
 151              		.loc 1 507 0 discriminator 3
 152 0038 2368     		ldr	r3, [r4]
 153 003a 23F48063 		bic	r3, r3, #1024
 154 003e 2360     		str	r3, [r4]
 155              		.loc 1 508 0 discriminator 3
 156 0040 2368     		ldr	r3, [r4]
 157 0042 43F40073 		orr	r3, r3, #512
 158 0046 2360     		str	r3, [r4]
 159              	.LVL11:
 160              	.LBB94:
 161              	.LBB95:
 162              	.LBB96:
 163              	.LBB97:
 164              	.LBB98:
 165              	.LBB99:
 166              	.LBB100:
 167              		.file 3 "../../modules/ChibiOS/os/common/ext/CMSIS/include/cmsis_gcc.h"
 168              		.loc 3 264 0 discriminator 3
 169 0048 2023     		movs	r3, #32
 170              	@ 264 "../../modules/ChibiOS/os/common/ext/CMSIS/include/cmsis_gcc.h" 1
 171 004a 83F31188 		MSR basepri, r3
ARM GAS  /tmp/ccvD9LA4.s 			page 4


 172              	@ 0 "" 2
 173              		.thumb
 174              	.LBE100:
 175              	.LBE99:
 176              	.LBE98:
 177              	.LBE97:
 178              		.file 4 "../../modules/ChibiOS/os/rt/include/chsys.h"
 179              		.loc 4 417 0 discriminator 3
 180 004e FFF7FEFF 		bl	_stats_start_measure_crit_isr
 181              	.LVL12:
 182              	.LBE96:
 183              	.LBE95:
 184              	.LBE94:
 185              	.LBB101:
 186              	.LBB102:
 187              		.loc 2 728 0 discriminator 3
 188 0052 06F11C00 		add	r0, r6, #28
 189              	.LVL13:
 190 0056 2946     		mov	r1, r5
 191 0058 FFF7FEFF 		bl	chThdResumeI
 192              	.LVL14:
 193              	.LBE102:
 194              	.LBE101:
 195              	.LBB103:
 196              	.LBB104:
 197              	.LBB105:
 198              		.loc 4 437 0 discriminator 3
 199 005c FFF7FEFF 		bl	_stats_stop_measure_crit_isr
 200              	.LVL15:
 201              	.LBB106:
 202              	.LBB107:
 203              	.LBB108:
 204              	.LBB109:
 205              		.loc 3 264 0 discriminator 3
 206              	@ 264 "../../modules/ChibiOS/os/common/ext/CMSIS/include/cmsis_gcc.h" 1
 207 0060 85F31188 		MSR basepri, r5
 208              	@ 0 "" 2
 209              		.thumb
 210 0064 70BD     		pop	{r4, r5, r6, pc}
 211              	.LVL16:
 212              	.L19:
 213 0066 00BF     		.align	2
 214              	.L18:
 215 0068 00000000 		.word	.LC0
 216              	.LBE109:
 217              	.LBE108:
 218              	.LBE107:
 219              	.LBE106:
 220              	.LBE105:
 221              	.LBE104:
 222              	.LBE103:
 223              		.cfi_endproc
 224              	.LFE282:
 225              		.size	i2c_lld_serve_rx_end_irq, .-i2c_lld_serve_rx_end_irq
 226              		.section	.text.i2c_lld_serve_event_interrupt,"ax",%progbits
 227              		.align	1
 228              		.thumb
ARM GAS  /tmp/ccvD9LA4.s 			page 5


 229              		.thumb_func
 230              		.type	i2c_lld_serve_event_interrupt, %function
 231              	i2c_lld_serve_event_interrupt:
 232              	.LFB281:
 233              		.loc 1 299 0
 234              		.cfi_startproc
 235              		@ args = 0, pretend = 0, frame = 0
 236              		@ frame_needed = 0, uses_anonymous_args = 0
 237              	.LVL17:
 238 0000 F8B5     		push	{r3, r4, r5, r6, r7, lr}
 239              		.cfi_def_cfa_offset 24
 240              		.cfi_offset 3, -24
 241              		.cfi_offset 4, -20
 242              		.cfi_offset 5, -16
 243              		.cfi_offset 6, -12
 244              		.cfi_offset 7, -8
 245              		.cfi_offset 14, -4
 246              		.loc 1 300 0
 247 0002 446B     		ldr	r4, [r0, #52]
 248              	.LVL18:
 249              		.loc 1 308 0
 250 0004 3E4A     		ldr	r2, .L50
 251              		.loc 1 301 0
 252 0006 A369     		ldr	r3, [r4, #24]
 253              	.LVL19:
 254              		.loc 1 302 0
 255 0008 6669     		ldr	r6, [r4, #20]
 256              	.LVL20:
 257              		.loc 1 308 0
 258 000a 46EA0343 		orr	r3, r6, r3, lsl #16
 259              	.LVL21:
 260 000e 23F07F43 		bic	r3, r3, #-16777216
 261 0012 9342     		cmp	r3, r2
 262              		.loc 1 299 0
 263 0014 0546     		mov	r5, r0
 264              		.loc 1 308 0
 265 0016 19D0     		beq	.L22
 266 0018 06D8     		bhi	.L23
 267 001a 073A     		subs	r2, r2, #7
 268 001c 9342     		cmp	r3, r2
 269 001e 0AD0     		beq	.L24
 270 0020 0132     		adds	r2, r2, #1
 271 0022 9342     		cmp	r3, r2
 272 0024 17D0     		beq	.L25
 273 0026 5AE0     		b	.L21
 274              	.L23:
 275 0028 364A     		ldr	r2, .L50+4
 276 002a 9342     		cmp	r3, r2
 277 002c 28D0     		beq	.L26
 278 002e 0232     		adds	r2, r2, #2
 279 0030 9342     		cmp	r3, r2
 280 0032 30D0     		beq	.L27
 281 0034 53E0     		b	.L21
 282              	.L24:
 283              		.loc 1 310 0
 284 0036 038C     		ldrh	r3, [r0, #32]
 285 0038 1A0A     		lsrs	r2, r3, #8
ARM GAS  /tmp/ccvD9LA4.s 			page 6


 286 003a 0AD0     		beq	.L48
 287              		.loc 1 312 0
 288 003c 03F00103 		and	r3, r3, #1
 289 0040 43F0F003 		orr	r3, r3, #240
 290 0044 02F00602 		and	r2, r2, #6
 291 0048 1343     		orrs	r3, r3, r2
 292 004a 02E0     		b	.L48
 293              	.L22:
 294              		.loc 1 319 0
 295 004c 038C     		ldrh	r3, [r0, #32]
 296 004e C3F34703 		ubfx	r3, r3, #1, #8
 297              	.L48:
 298 0052 2361     		str	r3, [r4, #16]
 299              		.loc 1 320 0
 300 0054 4EE0     		b	.L29
 301              	.L25:
 302              		.loc 1 322 0
 303 0056 6368     		ldr	r3, [r4, #4]
 304 0058 23F40073 		bic	r3, r3, #512
 305 005c 6360     		str	r3, [r4, #4]
 306              		.loc 1 323 0
 307 005e C36A     		ldr	r3, [r0, #44]
 308 0060 1B68     		ldr	r3, [r3]
 309 0062 1A68     		ldr	r2, [r3]
 310 0064 42F00102 		orr	r2, r2, #1
 311 0068 1A60     		str	r2, [r3]
 312              		.loc 1 324 0
 313 006a 6268     		ldr	r2, [r4, #4]
 314 006c 42F48052 		orr	r2, r2, #4096
 315 0070 6260     		str	r2, [r4, #4]
 316              		.loc 1 325 0
 317 0072 5B68     		ldr	r3, [r3, #4]
 318 0074 012B     		cmp	r3, #1
 319 0076 3DD8     		bhi	.L29
 320              		.loc 1 326 0
 321 0078 2368     		ldr	r3, [r4]
 322 007a 23F48063 		bic	r3, r3, #1024
 323 007e 38E0     		b	.L49
 324              	.L26:
 325              		.loc 1 329 0
 326 0080 6368     		ldr	r3, [r4, #4]
 327 0082 23F40073 		bic	r3, r3, #512
 328 0086 6360     		str	r3, [r4, #4]
 329              		.loc 1 330 0
 330 0088 036B     		ldr	r3, [r0, #48]
 331 008a 1A68     		ldr	r2, [r3]
 332 008c 1368     		ldr	r3, [r2]
 333 008e 43F00103 		orr	r3, r3, #1
 334 0092 1360     		str	r3, [r2]
 335              		.loc 1 331 0
 336 0094 2EE0     		b	.L29
 337              	.L27:
 338              		.loc 1 334 0
 339 0096 C36A     		ldr	r3, [r0, #44]
 340 0098 1B68     		ldr	r3, [r3]
 341 009a 5F68     		ldr	r7, [r3, #4]
 342 009c 47B1     		cbz	r7, .L31
ARM GAS  /tmp/ccvD9LA4.s 			page 7


 343              		.loc 1 336 0
 344 009e 038C     		ldrh	r3, [r0, #32]
 345 00a0 43F00103 		orr	r3, r3, #1
 346 00a4 0384     		strh	r3, [r0, #32]	@ movhi
 347              		.loc 1 337 0
 348 00a6 2368     		ldr	r3, [r4]
 349 00a8 43F4A063 		orr	r3, r3, #1280
 350 00ac 2360     		str	r3, [r4]
 351              		.loc 1 338 0
 352 00ae F8BD     		pop	{r3, r4, r5, r6, r7, pc}
 353              	.LVL22:
 354              	.L31:
 355              		.loc 1 340 0
 356 00b0 6368     		ldr	r3, [r4, #4]
 357 00b2 23F40073 		bic	r3, r3, #512
 358 00b6 6360     		str	r3, [r4, #4]
 359              		.loc 1 341 0
 360 00b8 2368     		ldr	r3, [r4]
 361 00ba 43F40073 		orr	r3, r3, #512
 362 00be 2360     		str	r3, [r4]
 363              	.LVL23:
 364              	.LBB128:
 365              	.LBB129:
 366              	.LBB130:
 367              	.LBB131:
 368              	.LBB132:
 369              	.LBB133:
 370              	.LBB134:
 371              		.loc 3 264 0
 372 00c0 2023     		movs	r3, #32
 373              	@ 264 "../../modules/ChibiOS/os/common/ext/CMSIS/include/cmsis_gcc.h" 1
 374 00c2 83F31188 		MSR basepri, r3
 375              	@ 0 "" 2
 376              		.thumb
 377              	.LBE134:
 378              	.LBE133:
 379              	.LBE132:
 380              	.LBE131:
 381              		.loc 4 417 0
 382 00c6 FFF7FEFF 		bl	_stats_start_measure_crit_isr
 383              	.LVL24:
 384              	.LBE130:
 385              	.LBE129:
 386              	.LBE128:
 387              	.LBB135:
 388              	.LBB136:
 389              		.loc 2 728 0
 390 00ca 05F11C00 		add	r0, r5, #28
 391              	.LVL25:
 392 00ce 3946     		mov	r1, r7
 393 00d0 FFF7FEFF 		bl	chThdResumeI
 394              	.LVL26:
 395              	.LBE136:
 396              	.LBE135:
 397              	.LBB137:
 398              	.LBB138:
 399              	.LBB139:
ARM GAS  /tmp/ccvD9LA4.s 			page 8


 400              		.loc 4 437 0
 401 00d4 FFF7FEFF 		bl	_stats_stop_measure_crit_isr
 402              	.LVL27:
 403              	.LBB140:
 404              	.LBB141:
 405              	.LBB142:
 406              	.LBB143:
 407              		.loc 3 264 0
 408              	@ 264 "../../modules/ChibiOS/os/common/ext/CMSIS/include/cmsis_gcc.h" 1
 409 00d8 87F31188 		MSR basepri, r7
 410              	@ 0 "" 2
 411              		.thumb
 412 00dc 0AE0     		b	.L29
 413              	.LVL28:
 414              	.L21:
 415              	.LBE143:
 416              	.LBE142:
 417              	.LBE141:
 418              	.LBE140:
 419              	.LBE139:
 420              	.LBE138:
 421              	.LBE137:
 422              		.loc 1 345 0
 423 00de 3106     		lsls	r1, r6, #24
 424              		.loc 1 346 0
 425 00e0 44BF     		itt	mi
 426 00e2 0023     		movmi	r3, #0
 427 00e4 2361     		strmi	r3, [r4, #16]
 428              		.loc 1 347 0
 429 00e6 7207     		lsls	r2, r6, #29
 430              		.loc 1 348 0
 431 00e8 48BF     		it	mi
 432 00ea 2369     		ldrmi	r3, [r4, #16]
 433              		.loc 1 349 0
 434 00ec F306     		lsls	r3, r6, #27
 435 00ee 01D5     		bpl	.L29
 436              		.loc 1 350 0
 437 00f0 2368     		ldr	r3, [r4]
 438              	.L49:
 439 00f2 2360     		str	r3, [r4]
 440              	.LVL29:
 441              	.L29:
 442              		.loc 1 354 0
 443 00f4 16F00A0F 		tst	r6, #10
 444              		.loc 1 355 0
 445 00f8 18BF     		it	ne
 446 00fa A369     		ldrne	r3, [r4, #24]
 447 00fc F8BD     		pop	{r3, r4, r5, r6, r7, pc}
 448              	.LVL30:
 449              	.L51:
 450 00fe 00BF     		.align	2
 451              	.L50:
 452 0100 08000300 		.word	196616
 453 0104 82000700 		.word	458882
 454              		.cfi_endproc
 455              	.LFE281:
 456              		.size	i2c_lld_serve_event_interrupt, .-i2c_lld_serve_event_interrupt
ARM GAS  /tmp/ccvD9LA4.s 			page 9


 457              		.section	.text.i2c_lld_serve_error_interrupt,"ax",%progbits
 458              		.align	1
 459              		.thumb
 460              		.thumb_func
 461              		.type	i2c_lld_serve_error_interrupt, %function
 462              	i2c_lld_serve_error_interrupt:
 463              	.LFB284:
 464              		.loc 1 547 0
 465              		.cfi_startproc
 466              		@ args = 0, pretend = 0, frame = 0
 467              		@ frame_needed = 0, uses_anonymous_args = 0
 468              	.LVL31:
 469              		.loc 1 551 0
 470 0000 036B     		ldr	r3, [r0, #48]
 471 0002 1A68     		ldr	r2, [r3]
 472              		.loc 1 547 0
 473 0004 10B5     		push	{r4, lr}
 474              		.cfi_def_cfa_offset 8
 475              		.cfi_offset 4, -8
 476              		.cfi_offset 14, -4
 477              		.loc 1 547 0
 478 0006 0446     		mov	r4, r0
 479              		.loc 1 551 0
 480 0008 1068     		ldr	r0, [r2]
 481              	.LVL32:
 482 000a 20F01F00 		bic	r0, r0, #31
 483 000e 1060     		str	r0, [r2]
 484              	.L53:
 485              		.loc 1 551 0 is_stmt 0 discriminator 2
 486 0010 1068     		ldr	r0, [r2]
 487 0012 C007     		lsls	r0, r0, #31
 488 0014 FCD4     		bmi	.L53
 489              		.loc 1 551 0 discriminator 3
 490 0016 187A     		ldrb	r0, [r3, #8]	@ zero_extendqisi2
 491 0018 5A68     		ldr	r2, [r3, #4]
 492 001a 3D23     		movs	r3, #61
 493 001c 8340     		lsls	r3, r3, r0
 494 001e 1360     		str	r3, [r2]
 495              		.loc 1 552 0 is_stmt 1 discriminator 3
 496 0020 E36A     		ldr	r3, [r4, #44]
 497 0022 1A68     		ldr	r2, [r3]
 498 0024 1068     		ldr	r0, [r2]
 499 0026 20F01F00 		bic	r0, r0, #31
 500 002a 1060     		str	r0, [r2]
 501              	.L54:
 502              		.loc 1 552 0 is_stmt 0 discriminator 2
 503 002c 1068     		ldr	r0, [r2]
 504 002e C007     		lsls	r0, r0, #31
 505 0030 FCD4     		bmi	.L54
 506              		.loc 1 552 0 discriminator 3
 507 0032 187A     		ldrb	r0, [r3, #8]	@ zero_extendqisi2
 508 0034 5A68     		ldr	r2, [r3, #4]
 509 0036 3D23     		movs	r3, #61
 510 0038 8340     		lsls	r3, r3, r0
 511 003a 1360     		str	r3, [r2]
 512              		.loc 1 557 0 is_stmt 1 discriminator 3
 513 003c 01F48073 		and	r3, r1, #256
ARM GAS  /tmp/ccvD9LA4.s 			page 10


 514 0040 9BB2     		uxth	r3, r3
 515 0042 03B1     		cbz	r3, .L84
 516              		.loc 1 558 0
 517 0044 0123     		movs	r3, #1
 518              	.L84:
 519              		.loc 1 560 0
 520 0046 8805     		lsls	r0, r1, #22
 521              		.loc 1 558 0
 522 0048 A360     		str	r3, [r4, #8]
 523              		.loc 1 561 0
 524 004a 42BF     		ittt	mi
 525 004c A368     		ldrmi	r3, [r4, #8]
 526 004e 43F00203 		orrmi	r3, r3, #2
 527 0052 A360     		strmi	r3, [r4, #8]
 528              		.loc 1 563 0
 529 0054 4A05     		lsls	r2, r1, #21
 530 0056 0CD5     		bpl	.L58
 531              		.loc 1 564 0
 532 0058 636B     		ldr	r3, [r4, #52]
 533 005a 5A68     		ldr	r2, [r3, #4]
 534 005c 22F40072 		bic	r2, r2, #512
 535 0060 5A60     		str	r2, [r3, #4]
 536              		.loc 1 565 0
 537 0062 1A68     		ldr	r2, [r3]
 538 0064 42F40072 		orr	r2, r2, #512
 539 0068 1A60     		str	r2, [r3]
 540              		.loc 1 566 0
 541 006a A368     		ldr	r3, [r4, #8]
 542 006c 43F00403 		orr	r3, r3, #4
 543 0070 A360     		str	r3, [r4, #8]
 544              	.L58:
 545              		.loc 1 569 0
 546 0072 0B05     		lsls	r3, r1, #20
 547              		.loc 1 570 0
 548 0074 42BF     		ittt	mi
 549 0076 A368     		ldrmi	r3, [r4, #8]
 550 0078 43F00803 		orrmi	r3, r3, #8
 551 007c A360     		strmi	r3, [r4, #8]
 552              		.loc 1 572 0
 553 007e 4804     		lsls	r0, r1, #17
 554              		.loc 1 573 0
 555 0080 42BF     		ittt	mi
 556 0082 A368     		ldrmi	r3, [r4, #8]
 557 0084 43F02003 		orrmi	r3, r3, #32
 558 0088 A360     		strmi	r3, [r4, #8]
 559              		.loc 1 575 0
 560 008a CA04     		lsls	r2, r1, #19
 561              		.loc 1 576 0
 562 008c 42BF     		ittt	mi
 563 008e A368     		ldrmi	r3, [r4, #8]
 564 0090 43F01003 		orrmi	r3, r3, #16
 565 0094 A360     		strmi	r3, [r4, #8]
 566              		.loc 1 578 0
 567 0096 0B04     		lsls	r3, r1, #16
 568              		.loc 1 579 0
 569 0098 42BF     		ittt	mi
 570 009a A368     		ldrmi	r3, [r4, #8]
ARM GAS  /tmp/ccvD9LA4.s 			page 11


 571 009c 43F04003 		orrmi	r3, r3, #64
 572 00a0 A360     		strmi	r3, [r4, #8]
 573              		.loc 1 582 0
 574 00a2 A368     		ldr	r3, [r4, #8]
 575 00a4 7BB1     		cbz	r3, .L52
 576              	.LVL33:
 577              	.LBB162:
 578              	.LBB163:
 579              	.LBB164:
 580              	.LBB165:
 581              	.LBB166:
 582              	.LBB167:
 583              	.LBB168:
 584              		.loc 3 264 0
 585 00a6 2023     		movs	r3, #32
 586              	@ 264 "../../modules/ChibiOS/os/common/ext/CMSIS/include/cmsis_gcc.h" 1
 587 00a8 83F31188 		MSR basepri, r3
 588              	@ 0 "" 2
 589              		.thumb
 590              	.LBE168:
 591              	.LBE167:
 592              	.LBE166:
 593              	.LBE165:
 594              		.loc 4 417 0
 595 00ac FFF7FEFF 		bl	_stats_start_measure_crit_isr
 596              	.LVL34:
 597              	.LBE164:
 598              	.LBE163:
 599              	.LBE162:
 600              	.LBB169:
 601              	.LBB170:
 602              		.loc 2 728 0
 603 00b0 04F11C00 		add	r0, r4, #28
 604              	.LVL35:
 605 00b4 6FF00101 		mvn	r1, #1
 606 00b8 FFF7FEFF 		bl	chThdResumeI
 607              	.LVL36:
 608              	.LBE170:
 609              	.LBE169:
 610              	.LBB171:
 611              	.LBB172:
 612              	.LBB173:
 613              		.loc 4 437 0
 614 00bc FFF7FEFF 		bl	_stats_stop_measure_crit_isr
 615              	.LVL37:
 616              	.LBB174:
 617              	.LBB175:
 618              	.LBB176:
 619              	.LBB177:
 620              		.loc 3 264 0
 621 00c0 0023     		movs	r3, #0
 622              	@ 264 "../../modules/ChibiOS/os/common/ext/CMSIS/include/cmsis_gcc.h" 1
 623 00c2 83F31188 		MSR basepri, r3
 624              	@ 0 "" 2
 625              	.LVL38:
 626              		.thumb
 627              	.L52:
ARM GAS  /tmp/ccvD9LA4.s 			page 12


 628 00c6 10BD     		pop	{r4, pc}
 629              	.LBE177:
 630              	.LBE176:
 631              	.LBE175:
 632              	.LBE174:
 633              	.LBE173:
 634              	.LBE172:
 635              	.LBE171:
 636              		.cfi_endproc
 637              	.LFE284:
 638              		.size	i2c_lld_serve_error_interrupt, .-i2c_lld_serve_error_interrupt
 639              		.section	.text.VectorBC,"ax",%progbits
 640              		.align	1
 641              		.global	VectorBC
 642              		.thumb
 643              		.thumb_func
 644              		.type	VectorBC, %function
 645              	VectorBC:
 646              	.LFB285:
 647              		.loc 1 596 0
 648              		.cfi_startproc
 649              		@ args = 0, pretend = 0, frame = 0
 650              		@ frame_needed = 0, uses_anonymous_args = 0
 651 0000 08B5     		push	{r3, lr}
 652              		.cfi_def_cfa_offset 8
 653              		.cfi_offset 3, -8
 654              		.cfi_offset 14, -4
 655              		.loc 1 598 0
 656 0002 FFF7FEFF 		bl	_stats_increase_irq
 657              	.LVL39:
 658              		.loc 1 600 0
 659 0006 0348     		ldr	r0, .L86
 660 0008 FFF7FEFF 		bl	i2c_lld_serve_event_interrupt
 661              	.LVL40:
 662              		.loc 1 603 0
 663 000c BDE80840 		pop	{r3, lr}
 664              		.cfi_restore 14
 665              		.cfi_restore 3
 666              		.cfi_def_cfa_offset 0
 667              		.loc 1 602 0
 668 0010 FFF7FEBF 		b	_port_irq_epilogue
 669              	.LVL41:
 670              	.L87:
 671              		.align	2
 672              	.L86:
 673 0014 00000000 		.word	.LANCHOR0
 674              		.cfi_endproc
 675              	.LFE285:
 676              		.size	VectorBC, .-VectorBC
 677              		.section	.text.VectorC0,"ax",%progbits
 678              		.align	1
 679              		.global	VectorC0
 680              		.thumb
 681              		.thumb_func
 682              		.type	VectorC0, %function
 683              	VectorC0:
 684              	.LFB286:
ARM GAS  /tmp/ccvD9LA4.s 			page 13


 685              		.loc 1 608 0
 686              		.cfi_startproc
 687              		@ args = 0, pretend = 0, frame = 0
 688              		@ frame_needed = 0, uses_anonymous_args = 0
 689 0000 38B5     		push	{r3, r4, r5, lr}
 690              		.cfi_def_cfa_offset 16
 691              		.cfi_offset 3, -16
 692              		.cfi_offset 4, -12
 693              		.cfi_offset 5, -8
 694              		.cfi_offset 14, -4
 695              		.loc 1 609 0
 696 0002 094D     		ldr	r5, .L89
 697 0004 6B6B     		ldr	r3, [r5, #52]
 698 0006 5C69     		ldr	r4, [r3, #20]
 699              	.LVL42:
 700              		.loc 1 611 0
 701 0008 FFF7FEFF 		bl	_stats_increase_irq
 702              	.LVL43:
 703 000c A1B2     		uxth	r1, r4
 704              		.loc 1 613 0
 705 000e 6A6B     		ldr	r2, [r5, #52]
 706 0010 01F45F43 		and	r3, r1, #57088
 707 0014 DB43     		mvns	r3, r3
 708 0016 5361     		str	r3, [r2, #20]
 709              		.loc 1 614 0
 710 0018 2846     		mov	r0, r5
 711 001a FFF7FEFF 		bl	i2c_lld_serve_error_interrupt
 712              	.LVL44:
 713              		.loc 1 617 0
 714 001e BDE83840 		pop	{r3, r4, r5, lr}
 715              		.cfi_restore 14
 716              		.cfi_restore 5
 717              		.cfi_restore 4
 718              		.cfi_restore 3
 719              		.cfi_def_cfa_offset 0
 720              	.LVL45:
 721              		.loc 1 616 0
 722 0022 FFF7FEBF 		b	_port_irq_epilogue
 723              	.LVL46:
 724              	.L90:
 725 0026 00BF     		.align	2
 726              	.L89:
 727 0028 00000000 		.word	.LANCHOR0
 728              		.cfi_endproc
 729              	.LFE286:
 730              		.size	VectorC0, .-VectorC0
 731              		.section	.text.VectorC4,"ax",%progbits
 732              		.align	1
 733              		.global	VectorC4
 734              		.thumb
 735              		.thumb_func
 736              		.type	VectorC4, %function
 737              	VectorC4:
 738              	.LFB287:
 739              		.loc 1 626 0
 740              		.cfi_startproc
 741              		@ args = 0, pretend = 0, frame = 0
ARM GAS  /tmp/ccvD9LA4.s 			page 14


 742              		@ frame_needed = 0, uses_anonymous_args = 0
 743 0000 08B5     		push	{r3, lr}
 744              		.cfi_def_cfa_offset 8
 745              		.cfi_offset 3, -8
 746              		.cfi_offset 14, -4
 747              		.loc 1 628 0
 748 0002 FFF7FEFF 		bl	_stats_increase_irq
 749              	.LVL47:
 750              		.loc 1 630 0
 751 0006 0348     		ldr	r0, .L92
 752 0008 FFF7FEFF 		bl	i2c_lld_serve_event_interrupt
 753              	.LVL48:
 754              		.loc 1 633 0
 755 000c BDE80840 		pop	{r3, lr}
 756              		.cfi_restore 14
 757              		.cfi_restore 3
 758              		.cfi_def_cfa_offset 0
 759              		.loc 1 632 0
 760 0010 FFF7FEBF 		b	_port_irq_epilogue
 761              	.LVL49:
 762              	.L93:
 763              		.align	2
 764              	.L92:
 765 0014 00000000 		.word	.LANCHOR1
 766              		.cfi_endproc
 767              	.LFE287:
 768              		.size	VectorC4, .-VectorC4
 769              		.section	.text.VectorC8,"ax",%progbits
 770              		.align	1
 771              		.global	VectorC8
 772              		.thumb
 773              		.thumb_func
 774              		.type	VectorC8, %function
 775              	VectorC8:
 776              	.LFB288:
 777              		.loc 1 640 0
 778              		.cfi_startproc
 779              		@ args = 0, pretend = 0, frame = 0
 780              		@ frame_needed = 0, uses_anonymous_args = 0
 781 0000 38B5     		push	{r3, r4, r5, lr}
 782              		.cfi_def_cfa_offset 16
 783              		.cfi_offset 3, -16
 784              		.cfi_offset 4, -12
 785              		.cfi_offset 5, -8
 786              		.cfi_offset 14, -4
 787              		.loc 1 641 0
 788 0002 094D     		ldr	r5, .L95
 789 0004 6B6B     		ldr	r3, [r5, #52]
 790 0006 5C69     		ldr	r4, [r3, #20]
 791              	.LVL50:
 792              		.loc 1 643 0
 793 0008 FFF7FEFF 		bl	_stats_increase_irq
 794              	.LVL51:
 795 000c A1B2     		uxth	r1, r4
 796              		.loc 1 645 0
 797 000e 6A6B     		ldr	r2, [r5, #52]
 798 0010 01F45F43 		and	r3, r1, #57088
ARM GAS  /tmp/ccvD9LA4.s 			page 15


 799 0014 DB43     		mvns	r3, r3
 800 0016 5361     		str	r3, [r2, #20]
 801              		.loc 1 646 0
 802 0018 2846     		mov	r0, r5
 803 001a FFF7FEFF 		bl	i2c_lld_serve_error_interrupt
 804              	.LVL52:
 805              		.loc 1 649 0
 806 001e BDE83840 		pop	{r3, r4, r5, lr}
 807              		.cfi_restore 14
 808              		.cfi_restore 5
 809              		.cfi_restore 4
 810              		.cfi_restore 3
 811              		.cfi_def_cfa_offset 0
 812              	.LVL53:
 813              		.loc 1 648 0
 814 0022 FFF7FEBF 		b	_port_irq_epilogue
 815              	.LVL54:
 816              	.L96:
 817 0026 00BF     		.align	2
 818              	.L95:
 819 0028 00000000 		.word	.LANCHOR1
 820              		.cfi_endproc
 821              	.LFE288:
 822              		.size	VectorC8, .-VectorC8
 823              		.section	.text.i2c_lld_init,"ax",%progbits
 824              		.align	1
 825              		.global	i2c_lld_init
 826              		.thumb
 827              		.thumb_func
 828              		.type	i2c_lld_init, %function
 829              	i2c_lld_init:
 830              	.LFB289:
 831              		.loc 1 693 0
 832              		.cfi_startproc
 833              		@ args = 0, pretend = 0, frame = 0
 834              		@ frame_needed = 0, uses_anonymous_args = 0
 835 0000 F8B5     		push	{r3, r4, r5, r6, r7, lr}
 836              		.cfi_def_cfa_offset 24
 837              		.cfi_offset 3, -24
 838              		.cfi_offset 4, -20
 839              		.cfi_offset 5, -16
 840              		.cfi_offset 6, -12
 841              		.cfi_offset 7, -8
 842              		.cfi_offset 14, -4
 843              		.loc 1 696 0
 844 0002 0C4C     		ldr	r4, .L98
 845              		.loc 1 700 0
 846 0004 0C4D     		ldr	r5, .L98+4
 847              		.loc 1 696 0
 848 0006 2046     		mov	r0, r4
 849 0008 FFF7FEFF 		bl	i2cObjectInit
 850              	.LVL55:
 851              		.loc 1 701 0
 852 000c 05F15406 		add	r6, r5, #84
 853              		.loc 1 698 0
 854 0010 0A4B     		ldr	r3, .L98+8
 855 0012 6363     		str	r3, [r4, #52]
ARM GAS  /tmp/ccvD9LA4.s 			page 16


 856              		.loc 1 697 0
 857 0014 0027     		movs	r7, #0
 858              		.loc 1 700 0
 859 0016 E562     		str	r5, [r4, #44]
 860              		.loc 1 697 0
 861 0018 E761     		str	r7, [r4, #28]
 862              		.loc 1 701 0
 863 001a 2663     		str	r6, [r4, #48]
 864              		.loc 1 706 0
 865 001c 084C     		ldr	r4, .L98+12
 866 001e 2046     		mov	r0, r4
 867 0020 FFF7FEFF 		bl	i2cObjectInit
 868              	.LVL56:
 869              		.loc 1 710 0
 870 0024 2435     		adds	r5, r5, #36
 871              		.loc 1 708 0
 872 0026 074B     		ldr	r3, .L98+16
 873              		.loc 1 707 0
 874 0028 E761     		str	r7, [r4, #28]
 875              		.loc 1 708 0
 876 002a 6363     		str	r3, [r4, #52]
 877              		.loc 1 710 0
 878 002c E562     		str	r5, [r4, #44]
 879              		.loc 1 711 0
 880 002e 2663     		str	r6, [r4, #48]
 881 0030 F8BD     		pop	{r3, r4, r5, r6, r7, pc}
 882              	.L99:
 883 0032 00BF     		.align	2
 884              	.L98:
 885 0034 00000000 		.word	.LANCHOR0
 886 0038 00000000 		.word	_stm32_dma_streams
 887 003c 00540040 		.word	1073763328
 888 0040 00000000 		.word	.LANCHOR1
 889 0044 00580040 		.word	1073764352
 890              		.cfi_endproc
 891              	.LFE289:
 892              		.size	i2c_lld_init, .-i2c_lld_init
 893              		.section	.text.i2c_lld_start,"ax",%progbits
 894              		.align	1
 895              		.global	i2c_lld_start
 896              		.thumb
 897              		.thumb_func
 898              		.type	i2c_lld_start, %function
 899              	i2c_lld_start:
 900              	.LFB290:
 901              		.loc 1 733 0
 902              		.cfi_startproc
 903              		@ args = 0, pretend = 0, frame = 0
 904              		@ frame_needed = 0, uses_anonymous_args = 0
 905              	.LVL57:
 906 0000 F8B5     		push	{r3, r4, r5, r6, r7, lr}
 907              		.cfi_def_cfa_offset 24
 908              		.cfi_offset 3, -24
 909              		.cfi_offset 4, -20
 910              		.cfi_offset 5, -16
 911              		.cfi_offset 6, -12
 912              		.cfi_offset 7, -8
ARM GAS  /tmp/ccvD9LA4.s 			page 17


 913              		.cfi_offset 14, -4
 914              		.loc 1 737 0
 915 0002 0378     		ldrb	r3, [r0]	@ zero_extendqisi2
 916              		.loc 1 734 0
 917 0004 456B     		ldr	r5, [r0, #52]
 918              	.LVL58:
 919              		.loc 1 737 0
 920 0006 012B     		cmp	r3, #1
 921              		.loc 1 733 0
 922 0008 0446     		mov	r4, r0
 923              		.loc 1 737 0
 924 000a 5FD1     		bne	.L102
 925              		.loc 1 740 0
 926 000c 40F25643 		movw	r3, #1110
 927 0010 8362     		str	r3, [r0, #40]
 928              		.loc 1 744 0
 929 0012 40F21643 		movw	r3, #1046
 930 0016 4362     		str	r3, [r0, #36]
 931              		.loc 1 751 0
 932 0018 604B     		ldr	r3, .L117
 933 001a 9842     		cmp	r0, r3
 934 001c 28D1     		bne	.L103
 935              	.LBB186:
 936              		.loc 1 755 0
 937 001e 604E     		ldr	r6, .L117+4
 938              		.loc 1 756 0
 939 0020 604A     		ldr	r2, .L117+8
 940              		.loc 1 755 0
 941 0022 336A     		ldr	r3, [r6, #32]
 942              		.loc 1 756 0
 943 0024 C06A     		ldr	r0, [r0, #44]
 944              	.LVL59:
 945              		.loc 1 755 0
 946 0026 43F40013 		orr	r3, r3, #2097152
 947 002a 3362     		str	r3, [r6, #32]
 948 002c 0023     		movs	r3, #0
 949 002e 3362     		str	r3, [r6, #32]
 950              		.loc 1 756 0
 951 0030 0521     		movs	r1, #5
 952 0032 2346     		mov	r3, r4
 953 0034 FFF7FEFF 		bl	dmaStreamAllocate
 954              	.LVL60:
 955              		.loc 1 761 0
 956 0038 5B4A     		ldr	r2, .L117+12
 957 003a 206B     		ldr	r0, [r4, #48]
 958 003c 0521     		movs	r1, #5
 959 003e 2346     		mov	r3, r4
 960 0040 FFF7FEFF 		bl	dmaStreamAllocate
 961              	.LVL61:
 962              		.loc 1 767 0
 963 0044 336C     		ldr	r3, [r6, #64]
 964 0046 43F40013 		orr	r3, r3, #2097152
 965 004a 3364     		str	r3, [r6, #64]
 966              		.loc 1 768 0
 967 004c 1F20     		movs	r0, #31
 968 004e 0521     		movs	r1, #5
 969 0050 FFF7FEFF 		bl	nvicEnableVector
ARM GAS  /tmp/ccvD9LA4.s 			page 18


 970              	.LVL62:
 971              		.loc 1 769 0
 972 0054 2020     		movs	r0, #32
 973 0056 0521     		movs	r1, #5
 974 0058 FFF7FEFF 		bl	nvicEnableVector
 975              	.LVL63:
 976              		.loc 1 772 0
 977 005c 636A     		ldr	r3, [r4, #36]
 978 005e 43F00073 		orr	r3, r3, #33554432
 979 0062 43F44033 		orr	r3, r3, #196608
 980 0066 6362     		str	r3, [r4, #36]
 981              		.loc 1 774 0
 982 0068 A36A     		ldr	r3, [r4, #40]
 983 006a 43F00073 		orr	r3, r3, #33554432
 984 006e 2AE0     		b	.L115
 985              	.LVL64:
 986              	.L103:
 987              	.LBE186:
 988              		.loc 1 781 0
 989 0070 4E4B     		ldr	r3, .L117+16
 990 0072 9842     		cmp	r0, r3
 991 0074 2AD1     		bne	.L102
 992              	.LBB187:
 993              		.loc 1 785 0
 994 0076 4A4E     		ldr	r6, .L117+4
 995              		.loc 1 786 0
 996 0078 4A4A     		ldr	r2, .L117+8
 997              		.loc 1 785 0
 998 007a 336A     		ldr	r3, [r6, #32]
 999              		.loc 1 786 0
 1000 007c C06A     		ldr	r0, [r0, #44]
 1001              	.LVL65:
 1002              		.loc 1 785 0
 1003 007e 43F48003 		orr	r3, r3, #4194304
 1004 0082 3362     		str	r3, [r6, #32]
 1005 0084 0023     		movs	r3, #0
 1006 0086 3362     		str	r3, [r6, #32]
 1007              		.loc 1 786 0
 1008 0088 0521     		movs	r1, #5
 1009 008a 2346     		mov	r3, r4
 1010 008c FFF7FEFF 		bl	dmaStreamAllocate
 1011              	.LVL66:
 1012              		.loc 1 791 0
 1013 0090 454A     		ldr	r2, .L117+12
 1014 0092 206B     		ldr	r0, [r4, #48]
 1015 0094 0521     		movs	r1, #5
 1016 0096 2346     		mov	r3, r4
 1017 0098 FFF7FEFF 		bl	dmaStreamAllocate
 1018              	.LVL67:
 1019              		.loc 1 797 0
 1020 009c 336C     		ldr	r3, [r6, #64]
 1021 009e 43F48003 		orr	r3, r3, #4194304
 1022 00a2 3364     		str	r3, [r6, #64]
 1023              		.loc 1 798 0
 1024 00a4 2120     		movs	r0, #33
 1025 00a6 0521     		movs	r1, #5
 1026 00a8 FFF7FEFF 		bl	nvicEnableVector
ARM GAS  /tmp/ccvD9LA4.s 			page 19


 1027              	.LVL68:
 1028              		.loc 1 799 0
 1029 00ac 2220     		movs	r0, #34
 1030 00ae 0521     		movs	r1, #5
 1031 00b0 FFF7FEFF 		bl	nvicEnableVector
 1032              	.LVL69:
 1033              		.loc 1 802 0
 1034 00b4 636A     		ldr	r3, [r4, #36]
 1035 00b6 43F06063 		orr	r3, r3, #234881024
 1036 00ba 43F44033 		orr	r3, r3, #196608
 1037 00be 6362     		str	r3, [r4, #36]
 1038              		.loc 1 804 0
 1039 00c0 A36A     		ldr	r3, [r4, #40]
 1040 00c2 43F06063 		orr	r3, r3, #234881024
 1041              	.L115:
 1042 00c6 43F44033 		orr	r3, r3, #196608
 1043 00ca A362     		str	r3, [r4, #40]
 1044              	.L102:
 1045              	.LBE187:
 1046              		.loc 1 843 0
 1047 00cc E36A     		ldr	r3, [r4, #44]
 1048 00ce 1A68     		ldr	r2, [r3]
 1049 00d0 05F11003 		add	r3, r5, #16
 1050 00d4 9360     		str	r3, [r2, #8]
 1051              		.loc 1 844 0
 1052 00d6 226B     		ldr	r2, [r4, #48]
 1053 00d8 1268     		ldr	r2, [r2]
 1054 00da 9360     		str	r3, [r2, #8]
 1055              		.loc 1 848 0
 1056 00dc 4FF40043 		mov	r3, #32768
 1057 00e0 2B60     		str	r3, [r5]
 1058              		.loc 1 851 0
 1059 00e2 4FF41062 		mov	r2, #2304
 1060              		.loc 1 849 0
 1061 00e6 0023     		movs	r3, #0
 1062 00e8 2B60     		str	r3, [r5]
 1063              		.loc 1 851 0
 1064 00ea 6A60     		str	r2, [r5, #4]
 1065              	.LVL70:
 1066              	.LBB188:
 1067              	.LBB189:
 1068              		.loc 1 162 0
 1069 00ec 626B     		ldr	r2, [r4, #52]
 1070              	.LVL71:
 1071              		.loc 1 164 0
 1072 00ee 6468     		ldr	r4, [r4, #4]
 1073              	.LVL72:
 1074              		.loc 1 172 0
 1075 00f0 5768     		ldr	r7, [r2, #4]
 1076              		.loc 1 164 0
 1077 00f2 6168     		ldr	r1, [r4, #4]
 1078              	.LVL73:
 1079              		.loc 1 165 0
 1080 00f4 267A     		ldrb	r6, [r4, #8]	@ zero_extendqisi2
 1081              	.LVL74:
 1082              		.loc 1 172 0
 1083 00f6 4FF6C070 		movw	r0, #65472
ARM GAS  /tmp/ccvD9LA4.s 			page 20


 1084 00fa 3840     		ands	r0, r0, r7
 1085 00fc 5060     		str	r0, [r2, #4]
 1086              		.loc 1 173 0
 1087 00fe 5068     		ldr	r0, [r2, #4]
 1088 0100 40F02A00 		orr	r0, r0, #42
 1089 0104 5060     		str	r0, [r2, #4]
 1090              	.LVL75:
 1091              		.loc 1 179 0
 1092 0106 2A48     		ldr	r0, .L117+20
 1093 0108 8142     		cmp	r1, r0
 1094 010a 07DC     		bgt	.L105
 1095              	.LVL76:
 1096              		.loc 1 186 0
 1097 010c 4900     		lsls	r1, r1, #1
 1098              	.LVL77:
 1099 010e 294B     		ldr	r3, .L117+24
 1100 0110 B3FBF1F3 		udiv	r3, r3, r1
 1101              		.loc 1 193 0
 1102 0114 2B21     		movs	r1, #43
 1103              		.loc 1 190 0
 1104 0116 C3F30B03 		ubfx	r3, r3, #0, #12
 1105              	.LVL78:
 1106 011a 1FE0     		b	.L116
 1107              	.LVL79:
 1108              	.L105:
 1109              		.loc 1 195 0
 1110 011c 2648     		ldr	r0, .L117+28
 1111 011e 8142     		cmp	r1, r0
 1112 0120 1DDC     		bgt	.L106
 1113              		.loc 1 201 0
 1114 0122 022E     		cmp	r6, #2
 1115 0124 09D1     		bne	.L107
 1116              		.loc 1 205 0
 1117 0126 00F11E70 		add	r0, r0, #41418752
 1118 012a 01EB4101 		add	r1, r1, r1, lsl #1
 1119              	.LVL80:
 1120 012e 00F53130 		add	r0, r0, #181248
 1121 0132 B0FBF1F1 		udiv	r1, r0, r1
 1122 0136 89B2     		uxth	r1, r1
 1123              	.LVL81:
 1124 0138 0CE0     		b	.L108
 1125              	.LVL82:
 1126              	.L107:
 1127              		.loc 1 207 0
 1128 013a 032E     		cmp	r6, #3
 1129              		.loc 1 211 0
 1130 013c 01BF     		itttt	eq
 1131 013e 1923     		moveq	r3, #25
 1132 0140 5943     		muleq	r1, r3, r1
 1133              	.LVL83:
 1134 0142 1C48     		ldreq	r0, .L117+24
 1135 0144 B0FBF1F3 		udiveq	r3, r0, r1
 1136              		.loc 1 177 0
 1137 0148 12BF     		itee	ne
 1138 014a 40F6FF71 		movwne	r1, #4095
 1139              		.loc 1 211 0
 1140 014e 99B2     		uxtheq	r1, r3
ARM GAS  /tmp/ccvD9LA4.s 			page 21


 1141              	.LVL84:
 1142              		.loc 1 212 0
 1143 0150 4FF48043 		moveq	r3, #16384
 1144              	.LVL85:
 1145              	.L108:
 1146              		.loc 1 217 0
 1147 0154 0B43     		orrs	r3, r3, r1
 1148              	.LVL86:
 1149 0156 43F40043 		orr	r3, r3, #32768
 1150              	.LVL87:
 1151              		.loc 1 220 0
 1152 015a 0D21     		movs	r1, #13
 1153              	.LVL88:
 1154              	.L116:
 1155 015c 1162     		str	r1, [r2, #32]
 1156              	.LVL89:
 1157              	.L106:
 1158              		.loc 1 225 0
 1159 015e D361     		str	r3, [r2, #28]
 1160              	.LVL90:
 1161              	.LBE189:
 1162              	.LBE188:
 1163              	.LBB190:
 1164              	.LBB191:
 1165              		.loc 1 261 0
 1166 0160 1F23     		movs	r3, #31
 1167              	.LVL91:
 1168 0162 5362     		str	r3, [r2, #36]
 1169              	.LVL92:
 1170              	.LBE191:
 1171              	.LBE190:
 1172              	.LBB192:
 1173              	.LBB193:
 1174              		.loc 1 277 0
 1175 0164 2178     		ldrb	r1, [r4]	@ zero_extendqisi2
 1176              		.loc 1 276 0
 1177 0166 1368     		ldr	r3, [r2]
 1178              		.loc 1 277 0
 1179 0168 0229     		cmp	r1, #2
 1180              		.loc 1 276 0
 1181 016a 9BB2     		uxth	r3, r3
 1182              	.LVL93:
 1183              		.loc 1 277 0
 1184 016c 07D0     		beq	.L110
 1185 016e 0329     		cmp	r1, #3
 1186 0170 0BD0     		beq	.L111
 1187 0172 0129     		cmp	r1, #1
 1188 0174 0BD1     		bne	.L109
 1189              		.loc 1 279 0
 1190 0176 23F00A03 		bic	r3, r3, #10
 1191              	.LVL94:
 1192 017a 9BB2     		uxth	r3, r3
 1193              	.LVL95:
 1194 017c 07E0     		b	.L109
 1195              	.L110:
 1196              	.LVL96:
 1197              		.loc 1 283 0
ARM GAS  /tmp/ccvD9LA4.s 			page 22


 1198 017e 23F00803 		bic	r3, r3, #8
 1199              	.LVL97:
 1200 0182 9BB2     		uxth	r3, r3
 1201 0184 43F00203 		orr	r3, r3, #2
 1202              	.LVL98:
 1203 0188 01E0     		b	.L109
 1204              	.L111:
 1205              		.loc 1 286 0
 1206 018a 43F00A03 		orr	r3, r3, #10
 1207              	.LVL99:
 1208              	.L109:
 1209              		.loc 1 289 0
 1210 018e 1360     		str	r3, [r2]
 1211              	.LVL100:
 1212              	.LBE193:
 1213              	.LBE192:
 1214              		.loc 1 862 0
 1215 0190 2B68     		ldr	r3, [r5]
 1216              	.LVL101:
 1217 0192 43F00103 		orr	r3, r3, #1
 1218 0196 2B60     		str	r3, [r5]
 1219 0198 F8BD     		pop	{r3, r4, r5, r6, r7, pc}
 1220              	.LVL102:
 1221              	.L118:
 1222 019a 00BF     		.align	2
 1223              	.L117:
 1224 019c 00000000 		.word	.LANCHOR0
 1225 01a0 00380240 		.word	1073887232
 1226 01a4 00000000 		.word	i2c_lld_serve_rx_end_irq
 1227 01a8 00000000 		.word	i2c_lld_serve_tx_end_irq
 1228 01ac 00000000 		.word	.LANCHOR1
 1229 01b0 A0860100 		.word	100000
 1230 01b4 80DE8002 		.word	42000000
 1231 01b8 801A0600 		.word	400000
 1232              		.cfi_endproc
 1233              	.LFE290:
 1234              		.size	i2c_lld_start, .-i2c_lld_start
 1235              		.section	.text.i2c_lld_stop,"ax",%progbits
 1236              		.align	1
 1237              		.global	i2c_lld_stop
 1238              		.thumb
 1239              		.thumb_func
 1240              		.type	i2c_lld_stop, %function
 1241              	i2c_lld_stop:
 1242              	.LFB291:
 1243              		.loc 1 872 0
 1244              		.cfi_startproc
 1245              		@ args = 0, pretend = 0, frame = 0
 1246              		@ frame_needed = 0, uses_anonymous_args = 0
 1247              	.LVL103:
 1248              		.loc 1 875 0
 1249 0000 0378     		ldrb	r3, [r0]	@ zero_extendqisi2
 1250 0002 012B     		cmp	r3, #1
 1251              		.loc 1 872 0
 1252 0004 10B5     		push	{r4, lr}
 1253              		.cfi_def_cfa_offset 8
 1254              		.cfi_offset 4, -8
ARM GAS  /tmp/ccvD9LA4.s 			page 23


 1255              		.cfi_offset 14, -4
 1256              		.loc 1 872 0
 1257 0006 0446     		mov	r4, r0
 1258              		.loc 1 875 0
 1259 0008 44D0     		beq	.L119
 1260              	.LVL104:
 1261              	.LBB196:
 1262              	.LBB197:
 1263              		.loc 1 139 0
 1264 000a 436B     		ldr	r3, [r0, #52]
 1265              	.LVL105:
 1266              		.loc 1 149 0
 1267 000c 006B     		ldr	r0, [r0, #48]
 1268              	.LVL106:
 1269              		.loc 1 142 0
 1270 000e 4FF40042 		mov	r2, #32768
 1271 0012 1A60     		str	r2, [r3]
 1272              		.loc 1 143 0
 1273 0014 0022     		movs	r2, #0
 1274 0016 1A60     		str	r2, [r3]
 1275              		.loc 1 144 0
 1276 0018 5A60     		str	r2, [r3, #4]
 1277              		.loc 1 145 0
 1278 001a 5A61     		str	r2, [r3, #20]
 1279              		.loc 1 149 0
 1280 001c 0368     		ldr	r3, [r0]
 1281              	.LVL107:
 1282 001e 1A68     		ldr	r2, [r3]
 1283 0020 22F01F02 		bic	r2, r2, #31
 1284 0024 1A60     		str	r2, [r3]
 1285              	.L122:
 1286 0026 1A68     		ldr	r2, [r3]
 1287 0028 D207     		lsls	r2, r2, #31
 1288 002a FCD4     		bmi	.L122
 1289 002c 017A     		ldrb	r1, [r0, #8]	@ zero_extendqisi2
 1290 002e 4268     		ldr	r2, [r0, #4]
 1291 0030 3D23     		movs	r3, #61
 1292 0032 8B40     		lsls	r3, r3, r1
 1293 0034 1360     		str	r3, [r2]
 1294              		.loc 1 150 0
 1295 0036 E36A     		ldr	r3, [r4, #44]
 1296 0038 1A68     		ldr	r2, [r3]
 1297 003a 1168     		ldr	r1, [r2]
 1298 003c 21F01F01 		bic	r1, r1, #31
 1299 0040 1160     		str	r1, [r2]
 1300              	.L123:
 1301 0042 1168     		ldr	r1, [r2]
 1302 0044 C907     		lsls	r1, r1, #31
 1303 0046 FCD4     		bmi	.L123
 1304 0048 197A     		ldrb	r1, [r3, #8]	@ zero_extendqisi2
 1305 004a 5A68     		ldr	r2, [r3, #4]
 1306 004c 3D23     		movs	r3, #61
 1307 004e 8B40     		lsls	r3, r3, r1
 1308 0050 1360     		str	r3, [r2]
 1309              	.LBE197:
 1310              	.LBE196:
 1311              		.loc 1 880 0
ARM GAS  /tmp/ccvD9LA4.s 			page 24


 1312 0052 FFF7FEFF 		bl	dmaStreamRelease
 1313              	.LVL108:
 1314              		.loc 1 881 0
 1315 0056 E06A     		ldr	r0, [r4, #44]
 1316 0058 FFF7FEFF 		bl	dmaStreamRelease
 1317              	.LVL109:
 1318              		.loc 1 885 0
 1319 005c 0E4B     		ldr	r3, .L129
 1320 005e 9C42     		cmp	r4, r3
 1321 0060 0AD1     		bne	.L124
 1322              		.loc 1 886 0
 1323 0062 1F20     		movs	r0, #31
 1324 0064 FFF7FEFF 		bl	nvicDisableVector
 1325              	.LVL110:
 1326              		.loc 1 887 0
 1327 0068 2020     		movs	r0, #32
 1328 006a FFF7FEFF 		bl	nvicDisableVector
 1329              	.LVL111:
 1330              		.loc 1 888 0
 1331 006e 0B4A     		ldr	r2, .L129+4
 1332 0070 136C     		ldr	r3, [r2, #64]
 1333 0072 23F40013 		bic	r3, r3, #2097152
 1334 0076 0CE0     		b	.L128
 1335              	.L124:
 1336              		.loc 1 893 0
 1337 0078 094B     		ldr	r3, .L129+8
 1338 007a 9C42     		cmp	r4, r3
 1339 007c 0AD1     		bne	.L119
 1340              		.loc 1 894 0
 1341 007e 2120     		movs	r0, #33
 1342 0080 FFF7FEFF 		bl	nvicDisableVector
 1343              	.LVL112:
 1344              		.loc 1 895 0
 1345 0084 2220     		movs	r0, #34
 1346 0086 FFF7FEFF 		bl	nvicDisableVector
 1347              	.LVL113:
 1348              		.loc 1 896 0
 1349 008a 044A     		ldr	r2, .L129+4
 1350 008c 136C     		ldr	r3, [r2, #64]
 1351 008e 23F48003 		bic	r3, r3, #4194304
 1352              	.L128:
 1353 0092 1364     		str	r3, [r2, #64]
 1354              	.LVL114:
 1355              	.L119:
 1356 0094 10BD     		pop	{r4, pc}
 1357              	.LVL115:
 1358              	.L130:
 1359 0096 00BF     		.align	2
 1360              	.L129:
 1361 0098 00000000 		.word	.LANCHOR0
 1362 009c 00380240 		.word	1073887232
 1363 00a0 00000000 		.word	.LANCHOR1
 1364              		.cfi_endproc
 1365              	.LFE291:
 1366              		.size	i2c_lld_stop, .-i2c_lld_stop
 1367              		.section	.text.i2c_lld_master_receive_timeout,"ax",%progbits
 1368              		.align	1
ARM GAS  /tmp/ccvD9LA4.s 			page 25


 1369              		.global	i2c_lld_master_receive_timeout
 1370              		.thumb
 1371              		.thumb_func
 1372              		.type	i2c_lld_master_receive_timeout, %function
 1373              	i2c_lld_master_receive_timeout:
 1374              	.LFB292:
 1375              		.loc 1 935 0
 1376              		.cfi_startproc
 1377              		@ args = 4, pretend = 0, frame = 0
 1378              		@ frame_needed = 0, uses_anonymous_args = 0
 1379              	.LVL116:
 1380              		.loc 1 946 0
 1381 0000 4900     		lsls	r1, r1, #1
 1382              	.LVL117:
 1383              		.loc 1 935 0
 1384 0002 2DE9F843 		push	{r3, r4, r5, r6, r7, r8, r9, lr}
 1385              		.cfi_def_cfa_offset 32
 1386              		.cfi_offset 3, -32
 1387              		.cfi_offset 4, -28
 1388              		.cfi_offset 5, -24
 1389              		.cfi_offset 6, -20
 1390              		.cfi_offset 7, -16
 1391              		.cfi_offset 8, -12
 1392              		.cfi_offset 9, -8
 1393              		.cfi_offset 14, -4
 1394              		.loc 1 946 0
 1395 0006 41F00101 		orr	r1, r1, #1
 1396              		.loc 1 943 0
 1397 000a 0027     		movs	r7, #0
 1398 000c 8760     		str	r7, [r0, #8]
 1399              		.loc 1 946 0
 1400 000e 0184     		strh	r1, [r0, #32]	@ movhi
 1401              		.loc 1 935 0
 1402 0010 0446     		mov	r4, r0
 1403 0012 9146     		mov	r9, r2
 1404 0014 9846     		mov	r8, r3
 1405 0016 089E     		ldr	r6, [sp, #32]
 1406              		.loc 1 936 0
 1407 0018 456B     		ldr	r5, [r0, #52]
 1408              	.LVL118:
 1409              	.LBB214:
 1410              	.LBB215:
 1411              	.LBB216:
 1412              		.loc 4 389 0
 1413 001a FFF7FEFF 		bl	_stats_stop_measure_crit_thd
 1414              	.LVL119:
 1415              	.LBB217:
 1416              	.LBB218:
 1417              	.LBB219:
 1418              		.loc 3 264 0
 1419              	@ 264 "../../modules/ChibiOS/os/common/ext/CMSIS/include/cmsis_gcc.h" 1
 1420 001e 87F31188 		MSR basepri, r7
 1421              	@ 0 "" 2
 1422              		.thumb
 1423              	.LBE219:
 1424              	.LBE218:
 1425              	.LBE217:
ARM GAS  /tmp/ccvD9LA4.s 			page 26


 1426              	.LBE216:
 1427              	.LBE215:
 1428              	.LBE214:
 1429              		.loc 1 953 0
 1430 0022 E36A     		ldr	r3, [r4, #44]
 1431 0024 1968     		ldr	r1, [r3]
 1432 0026 636A     		ldr	r3, [r4, #36]
 1433 0028 0B60     		str	r3, [r1]
 1434              		.loc 1 954 0
 1435 002a C1F80C90 		str	r9, [r1, #12]
 1436              	.LBB220:
 1437              	.LBB221:
 1438              	.LBB222:
 1439              	.LBB223:
 1440              	.LBB224:
 1441              	.LBB225:
 1442              		.loc 3 264 0
 1443 002e 2023     		movs	r3, #32
 1444              	.LBE225:
 1445              	.LBE224:
 1446              	.LBE223:
 1447              	.LBE222:
 1448              	.LBE221:
 1449              	.LBE220:
 1450              		.loc 1 955 0
 1451 0030 C1F80480 		str	r8, [r1, #4]
 1452              	.LVL120:
 1453              	.LBB231:
 1454              	.LBB230:
 1455              	.LBB229:
 1456              	.LBB228:
 1457              	.LBB227:
 1458              	.LBB226:
 1459              		.loc 3 264 0
 1460              	@ 264 "../../modules/ChibiOS/os/common/ext/CMSIS/include/cmsis_gcc.h" 1
 1461 0034 83F31188 		MSR basepri, r3
 1462              	@ 0 "" 2
 1463              		.thumb
 1464              	.LBE226:
 1465              	.LBE227:
 1466              	.LBE228:
 1467              		.loc 4 377 0
 1468 0038 FFF7FEFF 		bl	_stats_start_measure_crit_thd
 1469              	.LVL121:
 1470              	.LBE229:
 1471              	.LBE230:
 1472              	.LBE231:
 1473              		.loc 1 966 0
 1474 003c AB69     		ldr	r3, [r5, #24]
 1475 003e 9A07     		lsls	r2, r3, #30
 1476 0040 11D4     		bmi	.L132
 1477              		.loc 1 966 0 is_stmt 0 discriminator 1
 1478 0042 2B68     		ldr	r3, [r5]
 1479 0044 9B05     		lsls	r3, r3, #22
 1480 0046 0ED4     		bmi	.L132
 1481              		.loc 1 971 0 is_stmt 1
 1482 0048 6B68     		ldr	r3, [r5, #4]
ARM GAS  /tmp/ccvD9LA4.s 			page 27


 1483 004a 43F40073 		orr	r3, r3, #512
 1484 004e 6B60     		str	r3, [r5, #4]
 1485              		.loc 1 972 0
 1486 0050 2B68     		ldr	r3, [r5]
 1487 0052 43F4A063 		orr	r3, r3, #1280
 1488 0056 2B60     		str	r3, [r5]
 1489              	.LVL122:
 1490              	.LBB232:
 1491              	.LBB233:
 1492              		.loc 2 713 0
 1493 0058 04F11C00 		add	r0, r4, #28
 1494              	.LVL123:
 1495 005c 3146     		mov	r1, r6
 1496              	.LBE233:
 1497              	.LBE232:
 1498              		.loc 1 976 0
 1499 005e BDE8F843 		pop	{r3, r4, r5, r6, r7, r8, r9, lr}
 1500              		.cfi_remember_state
 1501              		.cfi_restore 14
 1502              		.cfi_restore 9
 1503              		.cfi_restore 8
 1504              		.cfi_restore 7
 1505              		.cfi_restore 6
 1506              		.cfi_restore 5
 1507              		.cfi_restore 4
 1508              		.cfi_restore 3
 1509              		.cfi_def_cfa_offset 0
 1510              	.LVL124:
 1511              	.LBB235:
 1512              	.LBB234:
 1513              		.loc 2 713 0
 1514 0062 FFF7FEBF 		b	chThdSuspendTimeoutS
 1515              	.LVL125:
 1516              	.L132:
 1517              		.cfi_restore_state
 1518              	.LBE234:
 1519              	.LBE235:
 1520              		.loc 1 976 0
 1521 0066 4FF0FF30 		mov	r0, #-1
 1522 006a BDE8F883 		pop	{r3, r4, r5, r6, r7, r8, r9, pc}
 1523              		.cfi_endproc
 1524              	.LFE292:
 1525              		.size	i2c_lld_master_receive_timeout, .-i2c_lld_master_receive_timeout
 1526              		.section	.text.i2c_lld_master_transmit_timeout,"ax",%progbits
 1527              		.align	1
 1528              		.global	i2c_lld_master_transmit_timeout
 1529              		.thumb
 1530              		.thumb_func
 1531              		.type	i2c_lld_master_transmit_timeout, %function
 1532              	i2c_lld_master_transmit_timeout:
 1533              	.LFB293:
 1534              		.loc 1 1006 0
 1535              		.cfi_startproc
 1536              		@ args = 12, pretend = 0, frame = 0
 1537              		@ frame_needed = 0, uses_anonymous_args = 0
 1538              	.LVL126:
 1539 0000 2DE9F84F 		push	{r3, r4, r5, r6, r7, r8, r9, r10, fp, lr}
ARM GAS  /tmp/ccvD9LA4.s 			page 28


 1540              		.cfi_def_cfa_offset 40
 1541              		.cfi_offset 3, -40
 1542              		.cfi_offset 4, -36
 1543              		.cfi_offset 5, -32
 1544              		.cfi_offset 6, -28
 1545              		.cfi_offset 7, -24
 1546              		.cfi_offset 8, -20
 1547              		.cfi_offset 9, -16
 1548              		.cfi_offset 10, -12
 1549              		.cfi_offset 11, -8
 1550              		.cfi_offset 14, -4
 1551              		.loc 1 1017 0
 1552 0004 4900     		lsls	r1, r1, #1
 1553              	.LVL127:
 1554              		.loc 1 1014 0
 1555 0006 0026     		movs	r6, #0
 1556 0008 8660     		str	r6, [r0, #8]
 1557              		.loc 1 1017 0
 1558 000a 0184     		strh	r1, [r0, #32]	@ movhi
 1559              		.loc 1 1006 0
 1560 000c 0446     		mov	r4, r0
 1561 000e 9346     		mov	fp, r2
 1562 0010 9A46     		mov	r10, r3
 1563 0012 DDF82890 		ldr	r9, [sp, #40]
 1564 0016 DDF82C80 		ldr	r8, [sp, #44]
 1565 001a 0C9F     		ldr	r7, [sp, #48]
 1566              		.loc 1 1007 0
 1567 001c 456B     		ldr	r5, [r0, #52]
 1568              	.LVL128:
 1569              	.LBB252:
 1570              	.LBB253:
 1571              	.LBB254:
 1572              		.loc 4 389 0
 1573 001e FFF7FEFF 		bl	_stats_stop_measure_crit_thd
 1574              	.LVL129:
 1575              	.LBB255:
 1576              	.LBB256:
 1577              	.LBB257:
 1578              		.loc 3 264 0
 1579              	@ 264 "../../modules/ChibiOS/os/common/ext/CMSIS/include/cmsis_gcc.h" 1
 1580 0022 86F31188 		MSR basepri, r6
 1581              	@ 0 "" 2
 1582              		.thumb
 1583              	.LBE257:
 1584              	.LBE256:
 1585              	.LBE255:
 1586              	.LBE254:
 1587              	.LBE253:
 1588              	.LBE252:
 1589              		.loc 1 1024 0
 1590 0026 236B     		ldr	r3, [r4, #48]
 1591              		.loc 1 1029 0
 1592 0028 626A     		ldr	r2, [r4, #36]
 1593              		.loc 1 1024 0
 1594 002a 1968     		ldr	r1, [r3]
 1595 002c A36A     		ldr	r3, [r4, #40]
 1596 002e 0B60     		str	r3, [r1]
ARM GAS  /tmp/ccvD9LA4.s 			page 29


 1597              		.loc 1 1029 0
 1598 0030 E36A     		ldr	r3, [r4, #44]
 1599              		.loc 1 1025 0
 1600 0032 C1F80CB0 		str	fp, [r1, #12]
 1601              		.loc 1 1029 0
 1602 0036 1B68     		ldr	r3, [r3]
 1603              		.loc 1 1026 0
 1604 0038 C1F804A0 		str	r10, [r1, #4]
 1605              		.loc 1 1029 0
 1606 003c 1A60     		str	r2, [r3]
 1607              		.loc 1 1030 0
 1608 003e C3F80C90 		str	r9, [r3, #12]
 1609              		.loc 1 1031 0
 1610 0042 C3F80480 		str	r8, [r3, #4]
 1611              	.LVL130:
 1612              	.LBB258:
 1613              	.LBB259:
 1614              	.LBB260:
 1615              	.LBB261:
 1616              	.LBB262:
 1617              	.LBB263:
 1618              		.loc 3 264 0
 1619 0046 2023     		movs	r3, #32
 1620              	@ 264 "../../modules/ChibiOS/os/common/ext/CMSIS/include/cmsis_gcc.h" 1
 1621 0048 83F31188 		MSR basepri, r3
 1622              	@ 0 "" 2
 1623              		.thumb
 1624              	.LBE263:
 1625              	.LBE262:
 1626              	.LBE261:
 1627              		.loc 4 377 0
 1628 004c FFF7FEFF 		bl	_stats_start_measure_crit_thd
 1629              	.LVL131:
 1630              	.LBE260:
 1631              	.LBE259:
 1632              	.LBE258:
 1633              		.loc 1 1044 0
 1634 0050 AB69     		ldr	r3, [r5, #24]
 1635 0052 9A07     		lsls	r2, r3, #30
 1636 0054 11D4     		bmi	.L136
 1637              		.loc 1 1044 0 is_stmt 0 discriminator 1
 1638 0056 2B68     		ldr	r3, [r5]
 1639 0058 9B05     		lsls	r3, r3, #22
 1640 005a 0ED4     		bmi	.L136
 1641              		.loc 1 1049 0 is_stmt 1
 1642 005c 6B68     		ldr	r3, [r5, #4]
 1643 005e 43F40073 		orr	r3, r3, #512
 1644 0062 6B60     		str	r3, [r5, #4]
 1645              		.loc 1 1050 0
 1646 0064 2B68     		ldr	r3, [r5]
 1647 0066 43F48073 		orr	r3, r3, #256
 1648 006a 2B60     		str	r3, [r5]
 1649              	.LVL132:
 1650              	.LBB264:
 1651              	.LBB265:
 1652              		.loc 2 713 0
 1653 006c 04F11C00 		add	r0, r4, #28
ARM GAS  /tmp/ccvD9LA4.s 			page 30


 1654              	.LVL133:
 1655 0070 3946     		mov	r1, r7
 1656              	.LBE265:
 1657              	.LBE264:
 1658              		.loc 1 1054 0
 1659 0072 BDE8F84F 		pop	{r3, r4, r5, r6, r7, r8, r9, r10, fp, lr}
 1660              		.cfi_remember_state
 1661              		.cfi_restore 14
 1662              		.cfi_restore 11
 1663              		.cfi_restore 10
 1664              		.cfi_restore 9
 1665              		.cfi_restore 8
 1666              		.cfi_restore 7
 1667              		.cfi_restore 6
 1668              		.cfi_restore 5
 1669              		.cfi_restore 4
 1670              		.cfi_restore 3
 1671              		.cfi_def_cfa_offset 0
 1672              	.LVL134:
 1673              	.LBB267:
 1674              	.LBB266:
 1675              		.loc 2 713 0
 1676 0076 FFF7FEBF 		b	chThdSuspendTimeoutS
 1677              	.LVL135:
 1678              	.L136:
 1679              		.cfi_restore_state
 1680              	.LBE266:
 1681              	.LBE267:
 1682              		.loc 1 1054 0
 1683 007a 4FF0FF30 		mov	r0, #-1
 1684 007e BDE8F88F 		pop	{r3, r4, r5, r6, r7, r8, r9, r10, fp, pc}
 1685              		.cfi_endproc
 1686              	.LFE293:
 1687              		.size	i2c_lld_master_transmit_timeout, .-i2c_lld_master_transmit_timeout
 1688              		.global	I2CD2
 1689              		.global	I2CD1
 1690              		.section	.rodata.str1.1,"aMS",%progbits,1
 1691              	.LC0:
 1692 0000 444D4120 		.ascii	"DMA failure\000"
 1692      6661696C 
 1692      75726500 
 1693              		.section	.bss.I2CD1,"aw",%nobits
 1694              		.align	2
 1695              		.set	.LANCHOR0,. + 0
 1696              		.type	I2CD1, %object
 1697              		.size	I2CD1, 56
 1698              	I2CD1:
 1699 0000 00000000 		.space	56
 1699      00000000 
 1699      00000000 
 1699      00000000 
 1699      00000000 
 1700              		.section	.bss.I2CD2,"aw",%nobits
 1701              		.align	2
 1702              		.set	.LANCHOR1,. + 0
 1703              		.type	I2CD2, %object
 1704              		.size	I2CD2, 56
ARM GAS  /tmp/ccvD9LA4.s 			page 31


 1705              	I2CD2:
 1706 0000 00000000 		.space	56
 1706      00000000 
 1706      00000000 
 1706      00000000 
 1706      00000000 
 1707              		.text
 1708              	.Letext0:
 1709              		.file 5 "/usr/lib/gcc/arm-none-eabi/4.9.3/include/stddef.h"
 1710              		.file 6 "/usr/include/newlib/machine/_default_types.h"
 1711              		.file 7 "/usr/include/newlib/sys/_stdint.h"
 1712              		.file 8 "../../modules/ChibiOS/os/common/ports/ARMCMx/compilers/GCC/chtypes.h"
 1713              		.file 9 "../../modules/ChibiOS/os/rt/include/chsystypes.h"
 1714              		.file 10 "../../modules/ChibiOS/os/rt/include/chschd.h"
 1715              		.file 11 "../../modules/ChibiOS/os/common/ext/CMSIS/ST/STM32F4xx/stm32f407xx.h"
 1716              		.file 12 "../../modules/ChibiOS/os/common/ports/ARMCMx/chcore.h"
 1717              		.file 13 "../../modules/ChibiOS/os/common/ports/ARMCMx/chcore_v7m.h"
 1718              		.file 14 "../../modules/ChibiOS/os/rt/include/chtm.h"
 1719              		.file 15 "../../modules/ChibiOS/os/rt/include/chstats.h"
 1720              		.file 16 "../../modules/ChibiOS/os/rt/include/chsem.h"
 1721              		.file 17 "../../modules/ChibiOS/os/rt/include/chmtx.h"
 1722              		.file 18 "../../modules/ChibiOS/os/hal/ports/STM32/LLD/DMAv2/stm32_dma.h"
 1723              		.file 19 "../../modules/ChibiOS/os/hal/include/hal_i2c.h"
 1724              		.file 20 "../../modules/ChibiOS/os/hal/ports/STM32/LLD/I2Cv1/hal_i2c_lld.h"
 1725              		.file 21 "../../modules/ChibiOS/os/common/ext/CMSIS/include/core_cm4.h"
 1726              		.file 22 "../../modules/ChibiOS/os/rt/include/chthreads.h"
 1727              		.file 23 "../../modules/ChibiOS/os/hal/ports/common/ARMCMx/nvic.h"