ARM GAS  /tmp/ccTPXCdN.s 			page 1


   1              		.syntax unified
   2              		.cpu cortex-m4
   3              		.eabi_attribute 27, 1
   4              		.eabi_attribute 28, 1
   5              		.fpu fpv4-sp-d16
   6              		.eabi_attribute 20, 1
   7              		.eabi_attribute 21, 1
   8              		.eabi_attribute 23, 3
   9              		.eabi_attribute 24, 1
  10              		.eabi_attribute 25, 1
  11              		.eabi_attribute 26, 1
  12              		.eabi_attribute 30, 4
  13              		.eabi_attribute 34, 1
  14              		.eabi_attribute 18, 4
  15              		.thumb
  16              		.file	"hal_serial_lld.c"
  17              		.text
  18              	.Ltext0:
  19              		.cfi_sections	.debug_frame
  20              		.section	.text.notify1,"ax",%progbits
  21              		.align	1
  22              		.thumb
  23              		.thumb_func
  24              		.type	notify1, %function
  25              	notify1:
  26              	.LFB281:
  27              		.file 1 "../../modules/ChibiOS/os/hal/ports/STM32/LLD/USARTv1/hal_serial_lld.c"
  28              		.loc 1 230 0
  29              		.cfi_startproc
  30              		@ args = 0, pretend = 0, frame = 0
  31              		@ frame_needed = 0, uses_anonymous_args = 0
  32              		@ link register save eliminated.
  33              	.LVL0:
  34              		.loc 1 233 0
  35 0000 024A     		ldr	r2, .L2
  36 0002 D368     		ldr	r3, [r2, #12]
  37 0004 43F08003 		orr	r3, r3, #128
  38 0008 D360     		str	r3, [r2, #12]
  39 000a 7047     		bx	lr
  40              	.L3:
  41              		.align	2
  42              	.L2:
  43 000c 00100140 		.word	1073811456
  44              		.cfi_endproc
  45              	.LFE281:
  46              		.size	notify1, .-notify1
  47              		.section	.text.notify2,"ax",%progbits
  48              		.align	1
  49              		.thumb
  50              		.thumb_func
  51              		.type	notify2, %function
  52              	notify2:
  53              	.LFB282:
  54              		.loc 1 238 0
  55              		.cfi_startproc
  56              		@ args = 0, pretend = 0, frame = 0
  57              		@ frame_needed = 0, uses_anonymous_args = 0
ARM GAS  /tmp/ccTPXCdN.s 			page 2


  58              		@ link register save eliminated.
  59              	.LVL1:
  60              		.loc 1 241 0
  61 0000 024A     		ldr	r2, .L5
  62 0002 D368     		ldr	r3, [r2, #12]
  63 0004 43F08003 		orr	r3, r3, #128
  64 0008 D360     		str	r3, [r2, #12]
  65 000a 7047     		bx	lr
  66              	.L6:
  67              		.align	2
  68              	.L5:
  69 000c 00440040 		.word	1073759232
  70              		.cfi_endproc
  71              	.LFE282:
  72              		.size	notify2, .-notify2
  73              		.section	.text.notify3,"ax",%progbits
  74              		.align	1
  75              		.thumb
  76              		.thumb_func
  77              		.type	notify3, %function
  78              	notify3:
  79              	.LFB283:
  80              		.loc 1 246 0
  81              		.cfi_startproc
  82              		@ args = 0, pretend = 0, frame = 0
  83              		@ frame_needed = 0, uses_anonymous_args = 0
  84              		@ link register save eliminated.
  85              	.LVL2:
  86              		.loc 1 249 0
  87 0000 024A     		ldr	r2, .L8
  88 0002 D368     		ldr	r3, [r2, #12]
  89 0004 43F08003 		orr	r3, r3, #128
  90 0008 D360     		str	r3, [r2, #12]
  91 000a 7047     		bx	lr
  92              	.L9:
  93              		.align	2
  94              	.L8:
  95 000c 00480040 		.word	1073760256
  96              		.cfi_endproc
  97              	.LFE283:
  98              		.size	notify3, .-notify3
  99              		.section	.text.notify4,"ax",%progbits
 100              		.align	1
 101              		.thumb
 102              		.thumb_func
 103              		.type	notify4, %function
 104              	notify4:
 105              	.LFB284:
 106              		.loc 1 254 0
 107              		.cfi_startproc
 108              		@ args = 0, pretend = 0, frame = 0
 109              		@ frame_needed = 0, uses_anonymous_args = 0
 110              		@ link register save eliminated.
 111              	.LVL3:
 112              		.loc 1 257 0
 113 0000 024A     		ldr	r2, .L11
 114 0002 D368     		ldr	r3, [r2, #12]
ARM GAS  /tmp/ccTPXCdN.s 			page 3


 115 0004 43F08003 		orr	r3, r3, #128
 116 0008 D360     		str	r3, [r2, #12]
 117 000a 7047     		bx	lr
 118              	.L12:
 119              		.align	2
 120              	.L11:
 121 000c 004C0040 		.word	1073761280
 122              		.cfi_endproc
 123              	.LFE284:
 124              		.size	notify4, .-notify4
 125              		.section	.text.notify5,"ax",%progbits
 126              		.align	1
 127              		.thumb
 128              		.thumb_func
 129              		.type	notify5, %function
 130              	notify5:
 131              	.LFB285:
 132              		.loc 1 262 0
 133              		.cfi_startproc
 134              		@ args = 0, pretend = 0, frame = 0
 135              		@ frame_needed = 0, uses_anonymous_args = 0
 136              		@ link register save eliminated.
 137              	.LVL4:
 138              		.loc 1 265 0
 139 0000 024A     		ldr	r2, .L14
 140 0002 D368     		ldr	r3, [r2, #12]
 141 0004 43F08003 		orr	r3, r3, #128
 142 0008 D360     		str	r3, [r2, #12]
 143 000a 7047     		bx	lr
 144              	.L15:
 145              		.align	2
 146              	.L14:
 147 000c 00500040 		.word	1073762304
 148              		.cfi_endproc
 149              	.LFE285:
 150              		.size	notify5, .-notify5
 151              		.section	.text.serve_interrupt,"ax",%progbits
 152              		.align	1
 153              		.thumb
 154              		.thumb_func
 155              		.type	serve_interrupt, %function
 156              	serve_interrupt:
 157              	.LFB280:
 158              		.loc 1 174 0
 159              		.cfi_startproc
 160              		@ args = 0, pretend = 0, frame = 0
 161              		@ frame_needed = 0, uses_anonymous_args = 0
 162              	.LVL5:
 163 0000 2DE9F041 		push	{r4, r5, r6, r7, r8, lr}
 164              		.cfi_def_cfa_offset 24
 165              		.cfi_offset 4, -24
 166              		.cfi_offset 5, -20
 167              		.cfi_offset 6, -16
 168              		.cfi_offset 7, -12
 169              		.cfi_offset 8, -8
 170              		.cfi_offset 14, -4
 171              		.loc 1 175 0
ARM GAS  /tmp/ccTPXCdN.s 			page 4


 172 0004 D0F85468 		ldr	r6, [r0, #2132]
 173              	.LVL6:
 174              		.loc 1 176 0
 175 0008 F768     		ldr	r7, [r6, #12]
 176              	.LVL7:
 177              		.loc 1 177 0
 178 000a 3368     		ldr	r3, [r6]
 179              		.loc 1 180 0
 180 000c DA05     		lsls	r2, r3, #23
 181              		.loc 1 174 0
 182 000e 0546     		mov	r5, r0
 183              		.loc 1 177 0
 184 0010 9CB2     		uxth	r4, r3
 185              	.LVL8:
 186              		.loc 1 180 0
 187 0012 11D5     		bpl	.L17
 188              	.LVL9:
 189              	.LBB128:
 190              	.LBB129:
 191              	.LBB130:
 192              	.LBB131:
 193              	.LBB132:
 194              	.LBB133:
 195              	.LBB134:
 196              		.file 2 "../../modules/ChibiOS/os/common/ext/CMSIS/include/cmsis_gcc.h"
 197              		.loc 2 264 0
 198 0014 2023     		movs	r3, #32
 199              	@ 264 "../../modules/ChibiOS/os/common/ext/CMSIS/include/cmsis_gcc.h" 1
 200 0016 83F31188 		MSR basepri, r3
 201              	@ 0 "" 2
 202              		.thumb
 203              	.LBE134:
 204              	.LBE133:
 205              	.LBE132:
 206              	.LBE131:
 207              		.file 3 "../../modules/ChibiOS/os/rt/include/chsys.h"
 208              		.loc 3 417 0
 209 001a FFF7FEFF 		bl	_stats_start_measure_crit_isr
 210              	.LVL10:
 211              	.LBE130:
 212              	.LBE129:
 213              	.LBE128:
 214              	.LBB135:
 215              	.LBB136:
 216              		.file 4 "../../modules/ChibiOS/os/hal/osal/rt/osal.h"
 217              		.loc 4 844 0
 218 001e 281D     		adds	r0, r5, #4
 219              	.LVL11:
 220 0020 4FF40071 		mov	r1, #512
 221 0024 FFF7FEFF 		bl	chEvtBroadcastFlagsI
 222              	.LVL12:
 223              	.LBE136:
 224              	.LBE135:
 225              		.loc 1 183 0
 226 0028 6FF48073 		mvn	r3, #256
 227 002c 3360     		str	r3, [r6]
 228              	.LBB137:
ARM GAS  /tmp/ccTPXCdN.s 			page 5


 229              	.LBB138:
 230              	.LBB139:
 231              		.loc 3 437 0
 232 002e FFF7FEFF 		bl	_stats_stop_measure_crit_isr
 233              	.LVL13:
 234              	.LBB140:
 235              	.LBB141:
 236              	.LBB142:
 237              	.LBB143:
 238              		.loc 2 264 0
 239 0032 0023     		movs	r3, #0
 240              	@ 264 "../../modules/ChibiOS/os/common/ext/CMSIS/include/cmsis_gcc.h" 1
 241 0034 83F31188 		MSR basepri, r3
 242              	@ 0 "" 2
 243              	.LVL14:
 244              		.thumb
 245              	.L17:
 246              	.LBE143:
 247              	.LBE142:
 248              	.LBE141:
 249              	.LBE140:
 250              	.LBE139:
 251              	.LBE138:
 252              	.LBE137:
 253              	.LBB144:
 254              	.LBB145:
 255              	.LBB146:
 256              	.LBB147:
 257              	.LBB148:
 258              	.LBB149:
 259              	.LBB150:
 260 0038 2023     		movs	r3, #32
 261              	@ 264 "../../modules/ChibiOS/os/common/ext/CMSIS/include/cmsis_gcc.h" 1
 262 003a 83F31188 		MSR basepri, r3
 263              	@ 0 "" 2
 264              		.thumb
 265              	.LBE150:
 266              	.LBE149:
 267              	.LBE148:
 268              	.LBE147:
 269              		.loc 3 417 0
 270 003e FFF7FEFF 		bl	_stats_start_measure_crit_isr
 271              	.LVL15:
 272              	.L18:
 273              	.LBE146:
 274              	.LBE145:
 275              	.LBE144:
 276              		.loc 1 189 0
 277 0042 14F02F08 		ands	r8, r4, #47
 278 0046 21D0     		beq	.L62
 279              	.LBB151:
 280              		.loc 1 194 0
 281 0048 2307     		lsls	r3, r4, #28
 282 004a 13D0     		beq	.L19
 283              	.LVL16:
 284              	.LBB152:
 285              	.LBB153:
ARM GAS  /tmp/ccTPXCdN.s 			page 6


 286              		.loc 1 159 0
 287 004c 14F0080F 		tst	r4, #8
 288 0050 0CBF     		ite	eq
 289 0052 0021     		moveq	r1, #0
 290 0054 8021     		movne	r1, #128
 291              	.LVL17:
 292              		.loc 1 160 0
 293 0056 E007     		lsls	r0, r4, #31
 294              		.loc 1 161 0
 295 0058 48BF     		it	mi
 296 005a 41F02001 		orrmi	r1, r1, #32
 297              	.LVL18:
 298              		.loc 1 162 0
 299 005e A207     		lsls	r2, r4, #30
 300              		.loc 1 163 0
 301 0060 48BF     		it	mi
 302 0062 41F04001 		orrmi	r1, r1, #64
 303              	.LVL19:
 304              		.loc 1 164 0
 305 0066 6307     		lsls	r3, r4, #29
 306              		.loc 1 165 0
 307 0068 48BF     		it	mi
 308 006a 41F48071 		orrmi	r1, r1, #256
 309              	.LVL20:
 310              	.LBB154:
 311              	.LBB155:
 312              		.loc 4 844 0
 313 006e 281D     		adds	r0, r5, #4
 314              	.LVL21:
 315 0070 FFF7FEFF 		bl	chEvtBroadcastFlagsI
 316              	.LVL22:
 317              	.L19:
 318              	.LBE155:
 319              	.LBE154:
 320              	.LBE153:
 321              	.LBE152:
 322              		.loc 1 197 0
 323 0074 A006     		lsls	r0, r4, #26
 324              		.loc 1 196 0
 325 0076 7368     		ldr	r3, [r6, #4]
 326 0078 95F85818 		ldrb	r1, [r5, #2136]	@ zero_extendqisi2
 327              	.LVL23:
 328              		.loc 1 197 0
 329 007c 03D5     		bpl	.L24
 330              		.loc 1 198 0
 331 007e 2846     		mov	r0, r5
 332 0080 1940     		ands	r1, r1, r3
 333              	.LVL24:
 334 0082 FFF7FEFF 		bl	sdIncomingDataI
 335              	.LVL25:
 336              	.L24:
 337              		.loc 1 199 0
 338 0086 3468     		ldr	r4, [r6]
 339              	.LVL26:
 340 0088 A4B2     		uxth	r4, r4
 341              	.LVL27:
 342 008a DAE7     		b	.L18
ARM GAS  /tmp/ccTPXCdN.s 			page 7


 343              	.L62:
 344              	.LBE151:
 345              	.LBB156:
 346              	.LBB157:
 347              	.LBB158:
 348              		.loc 3 437 0
 349 008c FFF7FEFF 		bl	_stats_stop_measure_crit_isr
 350              	.LVL28:
 351              	.LBB159:
 352              	.LBB160:
 353              	.LBB161:
 354              	.LBB162:
 355              		.loc 2 264 0
 356              	@ 264 "../../modules/ChibiOS/os/common/ext/CMSIS/include/cmsis_gcc.h" 1
 357 0090 88F31188 		MSR basepri, r8
 358              	@ 0 "" 2
 359              		.thumb
 360              	.LBE162:
 361              	.LBE161:
 362              	.LBE160:
 363              	.LBE159:
 364              	.LBE158:
 365              	.LBE157:
 366              	.LBE156:
 367              		.loc 1 204 0
 368 0094 3906     		lsls	r1, r7, #24
 369 0096 1DD5     		bpl	.L26
 370              		.loc 1 204 0 is_stmt 0 discriminator 1
 371 0098 2206     		lsls	r2, r4, #24
 372 009a 1BD5     		bpl	.L26
 373              	.LVL29:
 374              	.LBB163:
 375              	.LBB164:
 376              	.LBB165:
 377              	.LBB166:
 378              	.LBB167:
 379              	.LBB168:
 380              	.LBB169:
 381              	.LBB170:
 382              		.loc 2 264 0 is_stmt 1
 383 009c 2023     		movs	r3, #32
 384              	@ 264 "../../modules/ChibiOS/os/common/ext/CMSIS/include/cmsis_gcc.h" 1
 385 009e 83F31188 		MSR basepri, r3
 386              	@ 0 "" 2
 387              		.thumb
 388              	.LBE170:
 389              	.LBE169:
 390              	.LBE168:
 391              	.LBE167:
 392              		.loc 3 417 0
 393 00a2 FFF7FEFF 		bl	_stats_start_measure_crit_isr
 394              	.LVL30:
 395              	.LBE166:
 396              	.LBE165:
 397              	.LBE164:
 398              		.loc 1 207 0
 399 00a6 05F13000 		add	r0, r5, #48
ARM GAS  /tmp/ccTPXCdN.s 			page 8


 400 00aa FFF7FEFF 		bl	oqGetI
 401              	.LVL31:
 402              		.loc 1 208 0
 403 00ae 0028     		cmp	r0, #0
 404 00b0 0ADA     		bge	.L27
 405              	.LVL32:
 406              	.LBB171:
 407              	.LBB172:
 408              		.loc 4 844 0
 409 00b2 281D     		adds	r0, r5, #4
 410              	.LVL33:
 411 00b4 0821     		movs	r1, #8
 412 00b6 FFF7FEFF 		bl	chEvtBroadcastFlagsI
 413              	.LVL34:
 414              	.LBE172:
 415              	.LBE171:
 416              		.loc 1 210 0
 417 00ba 4FF63F73 		movw	r3, #65343
 418 00be 3B40     		ands	r3, r3, r7
 419 00c0 43F04003 		orr	r3, r3, #64
 420 00c4 F360     		str	r3, [r6, #12]
 421 00c6 00E0     		b	.L28
 422              	.LVL35:
 423              	.L27:
 424              		.loc 1 213 0
 425 00c8 7060     		str	r0, [r6, #4]
 426              	.LVL36:
 427              	.L28:
 428              	.LBB173:
 429              	.LBB174:
 430              	.LBB175:
 431              		.loc 3 437 0
 432 00ca FFF7FEFF 		bl	_stats_stop_measure_crit_isr
 433              	.LVL37:
 434              	.LBB176:
 435              	.LBB177:
 436              	.LBB178:
 437              	.LBB179:
 438              		.loc 2 264 0
 439 00ce 0023     		movs	r3, #0
 440              	@ 264 "../../modules/ChibiOS/os/common/ext/CMSIS/include/cmsis_gcc.h" 1
 441 00d0 83F31188 		MSR basepri, r3
 442              	@ 0 "" 2
 443              	.LVL38:
 444              		.thumb
 445              	.L26:
 446              	.LBE179:
 447              	.LBE178:
 448              	.LBE177:
 449              	.LBE176:
 450              	.LBE175:
 451              	.LBE174:
 452              	.LBE173:
 453              	.LBE163:
 454              		.loc 1 218 0
 455 00d4 6306     		lsls	r3, r4, #25
 456 00d6 16D5     		bpl	.L29
ARM GAS  /tmp/ccTPXCdN.s 			page 9


 457              	.LVL39:
 458              	.LBB180:
 459              	.LBB181:
 460              	.LBB182:
 461              	.LBB183:
 462              	.LBB184:
 463              	.LBB185:
 464              	.LBB186:
 465              		.loc 2 264 0
 466 00d8 2023     		movs	r3, #32
 467              	@ 264 "../../modules/ChibiOS/os/common/ext/CMSIS/include/cmsis_gcc.h" 1
 468 00da 83F31188 		MSR basepri, r3
 469              	@ 0 "" 2
 470              		.thumb
 471              	.LBE186:
 472              	.LBE185:
 473              	.LBE184:
 474              	.LBE183:
 475              		.loc 3 417 0
 476 00de FFF7FEFF 		bl	_stats_start_measure_crit_isr
 477              	.LVL40:
 478              	.LBE182:
 479              	.LBE181:
 480              	.LBE180:
 481              		.loc 1 220 0
 482 00e2 6A6C     		ldr	r2, [r5, #68]
 483 00e4 AB6C     		ldr	r3, [r5, #72]
 484 00e6 9A42     		cmp	r2, r3
 485 00e8 01D1     		bne	.L30
 486              		.loc 1 220 0 is_stmt 0 discriminator 1
 487 00ea AB6B     		ldr	r3, [r5, #56]
 488 00ec 9BB9     		cbnz	r3, .L31
 489              	.L30:
 490              		.loc 1 222 0 is_stmt 1
 491 00ee 4FF6BF73 		movw	r3, #65471
 492 00f2 3B40     		ands	r3, r3, r7
 493 00f4 F360     		str	r3, [r6, #12]
 494              		.loc 1 223 0
 495 00f6 6FF04003 		mvn	r3, #64
 496 00fa 3360     		str	r3, [r6]
 497              	.LBB187:
 498              	.LBB188:
 499              	.LBB189:
 500              		.loc 3 437 0
 501 00fc FFF7FEFF 		bl	_stats_stop_measure_crit_isr
 502              	.LVL41:
 503              	.LBB190:
 504              	.LBB191:
 505              	.LBB192:
 506              	.LBB193:
 507              		.loc 2 264 0
 508 0100 0023     		movs	r3, #0
 509              	@ 264 "../../modules/ChibiOS/os/common/ext/CMSIS/include/cmsis_gcc.h" 1
 510 0102 83F31188 		MSR basepri, r3
 511              	@ 0 "" 2
 512              	.LVL42:
 513              		.thumb
ARM GAS  /tmp/ccTPXCdN.s 			page 10


 514              	.L29:
 515              	.LBE193:
 516              	.LBE192:
 517              	.LBE191:
 518              	.LBE190:
 519              	.LBE189:
 520              	.LBE188:
 521              	.LBE187:
 522              		.loc 1 226 0
 523 0106 D5F85C28 		ldr	r2, [r5, #2140]
 524 010a D368     		ldr	r3, [r2, #12]
 525 010c 43B1     		cbz	r3, .L16
 526              		.loc 1 226 0 is_stmt 0 discriminator 1
 527 010e 1069     		ldr	r0, [r2, #16]
 528              		.loc 1 227 0 is_stmt 1 discriminator 1
 529 0110 BDE8F041 		pop	{r4, r5, r6, r7, r8, lr}
 530              		.cfi_remember_state
 531              		.cfi_restore 14
 532              		.cfi_restore 8
 533              		.cfi_restore 7
 534              		.cfi_restore 6
 535              		.cfi_restore 5
 536              		.cfi_restore 4
 537              		.cfi_def_cfa_offset 0
 538              	.LVL43:
 539              		.loc 1 226 0 discriminator 1
 540 0114 1847     		bx	r3	@ indirect register sibling call
 541              	.LVL44:
 542              	.L31:
 543              		.cfi_restore_state
 544              	.LBB194:
 545              	.LBB195:
 546              		.loc 4 844 0
 547 0116 281D     		adds	r0, r5, #4
 548              	.LVL45:
 549 0118 1021     		movs	r1, #16
 550 011a FFF7FEFF 		bl	chEvtBroadcastFlagsI
 551              	.LVL46:
 552 011e E6E7     		b	.L30
 553              	.LVL47:
 554              	.L16:
 555 0120 BDE8F081 		pop	{r4, r5, r6, r7, r8, pc}
 556              	.LBE195:
 557              	.LBE194:
 558              		.cfi_endproc
 559              	.LFE280:
 560              		.size	serve_interrupt, .-serve_interrupt
 561              		.section	.text.VectorD4,"ax",%progbits
 562              		.align	1
 563              		.global	VectorD4
 564              		.thumb
 565              		.thumb_func
 566              		.type	VectorD4, %function
 567              	VectorD4:
 568              	.LFB286:
 569              		.loc 1 306 0
 570              		.cfi_startproc
ARM GAS  /tmp/ccTPXCdN.s 			page 11


 571              		@ args = 0, pretend = 0, frame = 0
 572              		@ frame_needed = 0, uses_anonymous_args = 0
 573 0000 08B5     		push	{r3, lr}
 574              		.cfi_def_cfa_offset 8
 575              		.cfi_offset 3, -8
 576              		.cfi_offset 14, -4
 577              		.loc 1 308 0
 578 0002 FFF7FEFF 		bl	_stats_increase_irq
 579              	.LVL48:
 580              		.loc 1 310 0
 581 0006 0348     		ldr	r0, .L64
 582 0008 FFF7FEFF 		bl	serve_interrupt
 583              	.LVL49:
 584              		.loc 1 313 0
 585 000c BDE80840 		pop	{r3, lr}
 586              		.cfi_restore 14
 587              		.cfi_restore 3
 588              		.cfi_def_cfa_offset 0
 589              		.loc 1 312 0
 590 0010 FFF7FEBF 		b	_port_irq_epilogue
 591              	.LVL50:
 592              	.L65:
 593              		.align	2
 594              	.L64:
 595 0014 00000000 		.word	.LANCHOR0
 596              		.cfi_endproc
 597              	.LFE286:
 598              		.size	VectorD4, .-VectorD4
 599              		.section	.text.VectorD8,"ax",%progbits
 600              		.align	1
 601              		.global	VectorD8
 602              		.thumb
 603              		.thumb_func
 604              		.type	VectorD8, %function
 605              	VectorD8:
 606              	.LFB287:
 607              		.loc 1 325 0
 608              		.cfi_startproc
 609              		@ args = 0, pretend = 0, frame = 0
 610              		@ frame_needed = 0, uses_anonymous_args = 0
 611 0000 08B5     		push	{r3, lr}
 612              		.cfi_def_cfa_offset 8
 613              		.cfi_offset 3, -8
 614              		.cfi_offset 14, -4
 615              		.loc 1 327 0
 616 0002 FFF7FEFF 		bl	_stats_increase_irq
 617              	.LVL51:
 618              		.loc 1 329 0
 619 0006 0348     		ldr	r0, .L67
 620 0008 FFF7FEFF 		bl	serve_interrupt
 621              	.LVL52:
 622              		.loc 1 332 0
 623 000c BDE80840 		pop	{r3, lr}
 624              		.cfi_restore 14
 625              		.cfi_restore 3
 626              		.cfi_def_cfa_offset 0
 627              		.loc 1 331 0
ARM GAS  /tmp/ccTPXCdN.s 			page 12


 628 0010 FFF7FEBF 		b	_port_irq_epilogue
 629              	.LVL53:
 630              	.L68:
 631              		.align	2
 632              	.L67:
 633 0014 00000000 		.word	.LANCHOR1
 634              		.cfi_endproc
 635              	.LFE287:
 636              		.size	VectorD8, .-VectorD8
 637              		.section	.text.VectorDC,"ax",%progbits
 638              		.align	1
 639              		.global	VectorDC
 640              		.thumb
 641              		.thumb_func
 642              		.type	VectorDC, %function
 643              	VectorDC:
 644              	.LFB288:
 645              		.loc 1 344 0
 646              		.cfi_startproc
 647              		@ args = 0, pretend = 0, frame = 0
 648              		@ frame_needed = 0, uses_anonymous_args = 0
 649 0000 08B5     		push	{r3, lr}
 650              		.cfi_def_cfa_offset 8
 651              		.cfi_offset 3, -8
 652              		.cfi_offset 14, -4
 653              		.loc 1 346 0
 654 0002 FFF7FEFF 		bl	_stats_increase_irq
 655              	.LVL54:
 656              		.loc 1 348 0
 657 0006 0348     		ldr	r0, .L70
 658 0008 FFF7FEFF 		bl	serve_interrupt
 659              	.LVL55:
 660              		.loc 1 351 0
 661 000c BDE80840 		pop	{r3, lr}
 662              		.cfi_restore 14
 663              		.cfi_restore 3
 664              		.cfi_def_cfa_offset 0
 665              		.loc 1 350 0
 666 0010 FFF7FEBF 		b	_port_irq_epilogue
 667              	.LVL56:
 668              	.L71:
 669              		.align	2
 670              	.L70:
 671 0014 00000000 		.word	.LANCHOR2
 672              		.cfi_endproc
 673              	.LFE288:
 674              		.size	VectorDC, .-VectorDC
 675              		.section	.text.Vector110,"ax",%progbits
 676              		.align	1
 677              		.global	Vector110
 678              		.thumb
 679              		.thumb_func
 680              		.type	Vector110, %function
 681              	Vector110:
 682              	.LFB289:
 683              		.loc 1 363 0
 684              		.cfi_startproc
ARM GAS  /tmp/ccTPXCdN.s 			page 13


 685              		@ args = 0, pretend = 0, frame = 0
 686              		@ frame_needed = 0, uses_anonymous_args = 0
 687 0000 08B5     		push	{r3, lr}
 688              		.cfi_def_cfa_offset 8
 689              		.cfi_offset 3, -8
 690              		.cfi_offset 14, -4
 691              		.loc 1 365 0
 692 0002 FFF7FEFF 		bl	_stats_increase_irq
 693              	.LVL57:
 694              		.loc 1 367 0
 695 0006 0348     		ldr	r0, .L73
 696 0008 FFF7FEFF 		bl	serve_interrupt
 697              	.LVL58:
 698              		.loc 1 370 0
 699 000c BDE80840 		pop	{r3, lr}
 700              		.cfi_restore 14
 701              		.cfi_restore 3
 702              		.cfi_def_cfa_offset 0
 703              		.loc 1 369 0
 704 0010 FFF7FEBF 		b	_port_irq_epilogue
 705              	.LVL59:
 706              	.L74:
 707              		.align	2
 708              	.L73:
 709 0014 00000000 		.word	.LANCHOR3
 710              		.cfi_endproc
 711              	.LFE289:
 712              		.size	Vector110, .-Vector110
 713              		.section	.text.Vector114,"ax",%progbits
 714              		.align	1
 715              		.global	Vector114
 716              		.thumb
 717              		.thumb_func
 718              		.type	Vector114, %function
 719              	Vector114:
 720              	.LFB290:
 721              		.loc 1 382 0
 722              		.cfi_startproc
 723              		@ args = 0, pretend = 0, frame = 0
 724              		@ frame_needed = 0, uses_anonymous_args = 0
 725 0000 08B5     		push	{r3, lr}
 726              		.cfi_def_cfa_offset 8
 727              		.cfi_offset 3, -8
 728              		.cfi_offset 14, -4
 729              		.loc 1 384 0
 730 0002 FFF7FEFF 		bl	_stats_increase_irq
 731              	.LVL60:
 732              		.loc 1 386 0
 733 0006 0348     		ldr	r0, .L76
 734 0008 FFF7FEFF 		bl	serve_interrupt
 735              	.LVL61:
 736              		.loc 1 389 0
 737 000c BDE80840 		pop	{r3, lr}
 738              		.cfi_restore 14
 739              		.cfi_restore 3
 740              		.cfi_def_cfa_offset 0
 741              		.loc 1 388 0
ARM GAS  /tmp/ccTPXCdN.s 			page 14


 742 0010 FFF7FEBF 		b	_port_irq_epilogue
 743              	.LVL62:
 744              	.L77:
 745              		.align	2
 746              	.L76:
 747 0014 00000000 		.word	.LANCHOR4
 748              		.cfi_endproc
 749              	.LFE290:
 750              		.size	Vector114, .-Vector114
 751              		.section	.text.sd_lld_init,"ax",%progbits
 752              		.align	1
 753              		.global	sd_lld_init
 754              		.thumb
 755              		.thumb_func
 756              		.type	sd_lld_init, %function
 757              	sd_lld_init:
 758              	.LFB291:
 759              		.loc 1 458 0
 760              		.cfi_startproc
 761              		@ args = 0, pretend = 0, frame = 0
 762              		@ frame_needed = 0, uses_anonymous_args = 0
 763 0000 10B5     		push	{r4, lr}
 764              		.cfi_def_cfa_offset 8
 765              		.cfi_offset 4, -8
 766              		.cfi_offset 14, -4
 767              		.loc 1 461 0
 768 0002 174C     		ldr	r4, .L79
 769 0004 174A     		ldr	r2, .L79+4
 770 0006 2046     		mov	r0, r4
 771 0008 0021     		movs	r1, #0
 772 000a FFF7FEFF 		bl	sdObjectInit
 773              	.LVL63:
 774              		.loc 1 462 0
 775 000e 164B     		ldr	r3, .L79+8
 776 0010 C4F85438 		str	r3, [r4, #2132]
 777              		.loc 1 466 0
 778 0014 154C     		ldr	r4, .L79+12
 779 0016 164A     		ldr	r2, .L79+16
 780 0018 2046     		mov	r0, r4
 781 001a 0021     		movs	r1, #0
 782 001c FFF7FEFF 		bl	sdObjectInit
 783              	.LVL64:
 784              		.loc 1 467 0
 785 0020 144B     		ldr	r3, .L79+20
 786 0022 C4F85438 		str	r3, [r4, #2132]
 787              		.loc 1 471 0
 788 0026 144C     		ldr	r4, .L79+24
 789 0028 144A     		ldr	r2, .L79+28
 790 002a 2046     		mov	r0, r4
 791 002c 0021     		movs	r1, #0
 792 002e FFF7FEFF 		bl	sdObjectInit
 793              	.LVL65:
 794              		.loc 1 472 0
 795 0032 134B     		ldr	r3, .L79+32
 796 0034 C4F85438 		str	r3, [r4, #2132]
 797              		.loc 1 476 0
 798 0038 124C     		ldr	r4, .L79+36
ARM GAS  /tmp/ccTPXCdN.s 			page 15


 799 003a 134A     		ldr	r2, .L79+40
 800 003c 2046     		mov	r0, r4
 801 003e 0021     		movs	r1, #0
 802 0040 FFF7FEFF 		bl	sdObjectInit
 803              	.LVL66:
 804              		.loc 1 477 0
 805 0044 114B     		ldr	r3, .L79+44
 806 0046 C4F85438 		str	r3, [r4, #2132]
 807              		.loc 1 481 0
 808 004a 114C     		ldr	r4, .L79+48
 809 004c 114A     		ldr	r2, .L79+52
 810 004e 2046     		mov	r0, r4
 811 0050 0021     		movs	r1, #0
 812 0052 FFF7FEFF 		bl	sdObjectInit
 813              	.LVL67:
 814              		.loc 1 482 0
 815 0056 104B     		ldr	r3, .L79+56
 816 0058 C4F85438 		str	r3, [r4, #2132]
 817 005c 10BD     		pop	{r4, pc}
 818              	.L80:
 819 005e 00BF     		.align	2
 820              	.L79:
 821 0060 00000000 		.word	.LANCHOR0
 822 0064 00000000 		.word	notify1
 823 0068 00100140 		.word	1073811456
 824 006c 00000000 		.word	.LANCHOR1
 825 0070 00000000 		.word	notify2
 826 0074 00440040 		.word	1073759232
 827 0078 00000000 		.word	.LANCHOR2
 828 007c 00000000 		.word	notify3
 829 0080 00480040 		.word	1073760256
 830 0084 00000000 		.word	.LANCHOR3
 831 0088 00000000 		.word	notify4
 832 008c 004C0040 		.word	1073761280
 833 0090 00000000 		.word	.LANCHOR4
 834 0094 00000000 		.word	notify5
 835 0098 00500040 		.word	1073762304
 836              		.cfi_endproc
 837              	.LFE291:
 838              		.size	sd_lld_init, .-sd_lld_init
 839              		.section	.text.sd_lld_start,"ax",%progbits
 840              		.align	1
 841              		.global	sd_lld_start
 842              		.thumb
 843              		.thumb_func
 844              		.type	sd_lld_start, %function
 845              	sd_lld_start:
 846              	.LFB292:
 847              		.loc 1 511 0
 848              		.cfi_startproc
 849              		@ args = 0, pretend = 0, frame = 0
 850              		@ frame_needed = 0, uses_anonymous_args = 0
 851              	.LVL68:
 852 0000 38B5     		push	{r3, r4, r5, lr}
 853              		.cfi_def_cfa_offset 16
 854              		.cfi_offset 3, -16
 855              		.cfi_offset 4, -12
ARM GAS  /tmp/ccTPXCdN.s 			page 16


 856              		.cfi_offset 5, -8
 857              		.cfi_offset 14, -4
 858              		.loc 1 514 0
 859 0002 374D     		ldr	r5, .L98
 860              		.loc 1 518 0
 861 0004 037A     		ldrb	r3, [r0, #8]	@ zero_extendqisi2
 862              		.loc 1 514 0
 863 0006 0029     		cmp	r1, #0
 864 0008 18BF     		it	ne
 865 000a 0D46     		movne	r5, r1
 866              	.LVL69:
 867              		.loc 1 518 0
 868 000c 012B     		cmp	r3, #1
 869              		.loc 1 511 0
 870 000e 0446     		mov	r4, r0
 871              		.loc 1 516 0
 872 0010 C0F85C58 		str	r5, [r0, #2140]
 873              		.loc 1 518 0
 874 0014 33D1     		bne	.L84
 875              		.loc 1 520 0
 876 0016 334B     		ldr	r3, .L98+4
 877 0018 9842     		cmp	r0, r3
 878 001a 06D1     		bne	.L85
 879              		.loc 1 521 0
 880 001c 324A     		ldr	r2, .L98+8
 881 001e 536C     		ldr	r3, [r2, #68]
 882 0020 43F01003 		orr	r3, r3, #16
 883 0024 5364     		str	r3, [r2, #68]
 884              		.loc 1 522 0
 885 0026 2520     		movs	r0, #37
 886              	.LVL70:
 887 0028 26E0     		b	.L95
 888              	.LVL71:
 889              	.L85:
 890              		.loc 1 526 0
 891 002a 304B     		ldr	r3, .L98+12
 892 002c 9842     		cmp	r0, r3
 893 002e 06D1     		bne	.L87
 894              		.loc 1 527 0
 895 0030 2D4A     		ldr	r2, .L98+8
 896 0032 136C     		ldr	r3, [r2, #64]
 897 0034 43F40033 		orr	r3, r3, #131072
 898 0038 1364     		str	r3, [r2, #64]
 899              		.loc 1 528 0
 900 003a 2620     		movs	r0, #38
 901              	.LVL72:
 902 003c 1CE0     		b	.L95
 903              	.LVL73:
 904              	.L87:
 905              		.loc 1 532 0
 906 003e 2C4B     		ldr	r3, .L98+16
 907 0040 9842     		cmp	r0, r3
 908 0042 06D1     		bne	.L88
 909              		.loc 1 533 0
 910 0044 284A     		ldr	r2, .L98+8
 911 0046 136C     		ldr	r3, [r2, #64]
 912 0048 43F48023 		orr	r3, r3, #262144
ARM GAS  /tmp/ccTPXCdN.s 			page 17


 913 004c 1364     		str	r3, [r2, #64]
 914              		.loc 1 534 0
 915 004e 2720     		movs	r0, #39
 916              	.LVL74:
 917 0050 12E0     		b	.L95
 918              	.LVL75:
 919              	.L88:
 920              		.loc 1 538 0
 921 0052 284B     		ldr	r3, .L98+20
 922 0054 9842     		cmp	r0, r3
 923 0056 06D1     		bne	.L89
 924              		.loc 1 539 0
 925 0058 234A     		ldr	r2, .L98+8
 926 005a 136C     		ldr	r3, [r2, #64]
 927 005c 43F40023 		orr	r3, r3, #524288
 928 0060 1364     		str	r3, [r2, #64]
 929              		.loc 1 540 0
 930 0062 3420     		movs	r0, #52
 931              	.LVL76:
 932 0064 08E0     		b	.L95
 933              	.LVL77:
 934              	.L89:
 935              		.loc 1 544 0
 936 0066 244B     		ldr	r3, .L98+24
 937 0068 9842     		cmp	r0, r3
 938 006a 08D1     		bne	.L84
 939              		.loc 1 545 0
 940 006c 1E4A     		ldr	r2, .L98+8
 941 006e 136C     		ldr	r3, [r2, #64]
 942 0070 43F48013 		orr	r3, r3, #1048576
 943 0074 1364     		str	r3, [r2, #64]
 944              		.loc 1 546 0
 945 0076 3520     		movs	r0, #53
 946              	.LVL78:
 947              	.L95:
 948 0078 0B21     		movs	r1, #11
 949 007a FFF7FEFF 		bl	nvicEnableVector
 950              	.LVL79:
 951              	.L84:
 952              	.LBB198:
 953              	.LBB199:
 954              		.loc 1 104 0
 955 007e D4F85438 		ldr	r3, [r4, #2132]
 956              	.LVL80:
 957              		.loc 1 108 0
 958 0082 1E4A     		ldr	r2, .L98+28
 959 0084 2868     		ldr	r0, [r5]
 960 0086 9342     		cmp	r3, r2
 961 0088 03D0     		beq	.L90
 962 008a 02F58062 		add	r2, r2, #1024
 963 008e 9342     		cmp	r3, r2
 964 0090 03D1     		bne	.L91
 965              	.L90:
 966              		.loc 1 112 0
 967 0092 1B49     		ldr	r1, .L98+32
 968 0094 B1FBF0F2 		udiv	r2, r1, r0
 969 0098 02E0     		b	.L96
ARM GAS  /tmp/ccTPXCdN.s 			page 18


 970              	.L91:
 971              		.loc 1 114 0
 972 009a 1A4A     		ldr	r2, .L98+36
 973 009c B2FBF0F2 		udiv	r2, r2, r0
 974              	.L96:
 975 00a0 9A60     		str	r2, [r3, #8]
 976              		.loc 1 117 0
 977 00a2 EA88     		ldrh	r2, [r5, #6]
 978 00a4 42F04002 		orr	r2, r2, #64
 979 00a8 92B2     		uxth	r2, r2
 980 00aa 1A61     		str	r2, [r3, #16]
 981              		.loc 1 118 0
 982 00ac 2A89     		ldrh	r2, [r5, #8]
 983 00ae 42F00102 		orr	r2, r2, #1
 984 00b2 92B2     		uxth	r2, r2
 985 00b4 5A61     		str	r2, [r3, #20]
 986              		.loc 1 119 0
 987 00b6 AA88     		ldrh	r2, [r5, #4]
 988 00b8 42F40451 		orr	r1, r2, #8448
 989 00bc 41F02C01 		orr	r1, r1, #44
 990 00c0 D960     		str	r1, [r3, #12]
 991              		.loc 1 128 0
 992 00c2 02F4A052 		and	r2, r2, #5120
 993              		.loc 1 122 0
 994 00c6 0021     		movs	r1, #0
 995 00c8 1960     		str	r1, [r3]
 996              		.loc 1 128 0
 997 00ca B2F5806F 		cmp	r2, #1024
 998              		.loc 1 123 0
 999 00ce 1968     		ldr	r1, [r3]
 1000              		.loc 1 124 0
 1001 00d0 5B68     		ldr	r3, [r3, #4]
 1002              	.LVL81:
 1003              		.loc 1 129 0
 1004 00d2 0CBF     		ite	eq
 1005 00d4 7F23     		moveq	r3, #127
 1006              		.loc 1 132 0
 1007 00d6 FF23     		movne	r3, #255
 1008 00d8 84F85838 		strb	r3, [r4, #2136]
 1009 00dc 38BD     		pop	{r3, r4, r5, pc}
 1010              	.LVL82:
 1011              	.L99:
 1012 00de 00BF     		.align	2
 1013              	.L98:
 1014 00e0 00000000 		.word	.LANCHOR5
 1015 00e4 00000000 		.word	.LANCHOR0
 1016 00e8 00380240 		.word	1073887232
 1017 00ec 00000000 		.word	.LANCHOR1
 1018 00f0 00000000 		.word	.LANCHOR2
 1019 00f4 00000000 		.word	.LANCHOR3
 1020 00f8 00000000 		.word	.LANCHOR4
 1021 00fc 00100140 		.word	1073811456
 1022 0100 00BD0105 		.word	84000000
 1023 0104 80DE8002 		.word	42000000
 1024              	.LBE199:
 1025              	.LBE198:
 1026              		.cfi_endproc
ARM GAS  /tmp/ccTPXCdN.s 			page 19


 1027              	.LFE292:
 1028              		.size	sd_lld_start, .-sd_lld_start
 1029              		.section	.text.sd_lld_stop,"ax",%progbits
 1030              		.align	1
 1031              		.global	sd_lld_stop
 1032              		.thumb
 1033              		.thumb_func
 1034              		.type	sd_lld_stop, %function
 1035              	sd_lld_stop:
 1036              	.LFB293:
 1037              		.loc 1 580 0
 1038              		.cfi_startproc
 1039              		@ args = 0, pretend = 0, frame = 0
 1040              		@ frame_needed = 0, uses_anonymous_args = 0
 1041              		@ link register save eliminated.
 1042              	.LVL83:
 1043              		.loc 1 582 0
 1044 0000 037A     		ldrb	r3, [r0, #8]	@ zero_extendqisi2
 1045 0002 022B     		cmp	r3, #2
 1046 0004 38D1     		bne	.L100
 1047              		.loc 1 583 0
 1048 0006 D0F85438 		ldr	r3, [r0, #2132]
 1049              	.LVL84:
 1050              	.LBB200:
 1051              	.LBB201:
 1052              		.loc 1 144 0
 1053 000a 0022     		movs	r2, #0
 1054 000c DA60     		str	r2, [r3, #12]
 1055              		.loc 1 145 0
 1056 000e 1A61     		str	r2, [r3, #16]
 1057              		.loc 1 146 0
 1058 0010 5A61     		str	r2, [r3, #20]
 1059              	.LBE201:
 1060              	.LBE200:
 1061              		.loc 1 585 0
 1062 0012 1A4B     		ldr	r3, .L109
 1063              	.LVL85:
 1064 0014 9842     		cmp	r0, r3
 1065 0016 06D1     		bne	.L103
 1066              		.loc 1 586 0
 1067 0018 194A     		ldr	r2, .L109+4
 1068 001a 536C     		ldr	r3, [r2, #68]
 1069 001c 23F01003 		bic	r3, r3, #16
 1070 0020 5364     		str	r3, [r2, #68]
 1071              		.loc 1 587 0
 1072 0022 2520     		movs	r0, #37
 1073              	.LVL86:
 1074 0024 26E0     		b	.L108
 1075              	.LVL87:
 1076              	.L103:
 1077              		.loc 1 592 0
 1078 0026 174B     		ldr	r3, .L109+8
 1079 0028 9842     		cmp	r0, r3
 1080 002a 06D1     		bne	.L104
 1081              		.loc 1 593 0
 1082 002c 144A     		ldr	r2, .L109+4
 1083 002e 136C     		ldr	r3, [r2, #64]
ARM GAS  /tmp/ccTPXCdN.s 			page 20


 1084 0030 23F40033 		bic	r3, r3, #131072
 1085 0034 1364     		str	r3, [r2, #64]
 1086              		.loc 1 594 0
 1087 0036 2620     		movs	r0, #38
 1088              	.LVL88:
 1089 0038 1CE0     		b	.L108
 1090              	.LVL89:
 1091              	.L104:
 1092              		.loc 1 599 0
 1093 003a 134B     		ldr	r3, .L109+12
 1094 003c 9842     		cmp	r0, r3
 1095 003e 06D1     		bne	.L105
 1096              		.loc 1 600 0
 1097 0040 0F4A     		ldr	r2, .L109+4
 1098 0042 136C     		ldr	r3, [r2, #64]
 1099 0044 23F48023 		bic	r3, r3, #262144
 1100 0048 1364     		str	r3, [r2, #64]
 1101              		.loc 1 601 0
 1102 004a 2720     		movs	r0, #39
 1103              	.LVL90:
 1104 004c 12E0     		b	.L108
 1105              	.LVL91:
 1106              	.L105:
 1107              		.loc 1 606 0
 1108 004e 0F4B     		ldr	r3, .L109+16
 1109 0050 9842     		cmp	r0, r3
 1110 0052 06D1     		bne	.L106
 1111              		.loc 1 607 0
 1112 0054 0A4A     		ldr	r2, .L109+4
 1113 0056 136C     		ldr	r3, [r2, #64]
 1114 0058 23F40023 		bic	r3, r3, #524288
 1115 005c 1364     		str	r3, [r2, #64]
 1116              		.loc 1 608 0
 1117 005e 3420     		movs	r0, #52
 1118              	.LVL92:
 1119 0060 08E0     		b	.L108
 1120              	.LVL93:
 1121              	.L106:
 1122              		.loc 1 613 0
 1123 0062 0B4B     		ldr	r3, .L109+20
 1124 0064 9842     		cmp	r0, r3
 1125 0066 07D1     		bne	.L100
 1126              		.loc 1 614 0
 1127 0068 054A     		ldr	r2, .L109+4
 1128 006a 136C     		ldr	r3, [r2, #64]
 1129 006c 23F48013 		bic	r3, r3, #1048576
 1130 0070 1364     		str	r3, [r2, #64]
 1131              		.loc 1 615 0
 1132 0072 3520     		movs	r0, #53
 1133              	.LVL94:
 1134              	.L108:
 1135 0074 FFF7FEBF 		b	nvicDisableVector
 1136              	.LVL95:
 1137              	.L100:
 1138 0078 7047     		bx	lr
 1139              	.L110:
 1140 007a 00BF     		.align	2
ARM GAS  /tmp/ccTPXCdN.s 			page 21


 1141              	.L109:
 1142 007c 00000000 		.word	.LANCHOR0
 1143 0080 00380240 		.word	1073887232
 1144 0084 00000000 		.word	.LANCHOR1
 1145 0088 00000000 		.word	.LANCHOR2
 1146 008c 00000000 		.word	.LANCHOR3
 1147 0090 00000000 		.word	.LANCHOR4
 1148              		.cfi_endproc
 1149              	.LFE293:
 1150              		.size	sd_lld_stop, .-sd_lld_stop
 1151              		.global	SD5
 1152              		.global	SD4
 1153              		.global	SD3
 1154              		.global	SD2
 1155              		.global	SD1
 1156              		.section	.rodata.default_config,"a",%progbits
 1157              		.align	2
 1158              		.set	.LANCHOR5,. + 0
 1159              		.type	default_config, %object
 1160              		.size	default_config, 20
 1161              	default_config:
 1162 0000 00960000 		.word	38400
 1163 0004 0000     		.short	0
 1164 0006 0000     		.short	0
 1165 0008 0000     		.short	0
 1166 000a 0000     		.space	2
 1167 000c 00000000 		.word	0
 1168 0010 00000000 		.word	0
 1169              		.section	.bss.SD1,"aw",%nobits
 1170              		.align	2
 1171              		.set	.LANCHOR0,. + 0
 1172              		.type	SD1, %object
 1173              		.size	SD1, 2144
 1174              	SD1:
 1175 0000 00000000 		.space	2144
 1175      00000000 
 1175      00000000 
 1175      00000000 
 1175      00000000 
 1176              		.section	.bss.SD2,"aw",%nobits
 1177              		.align	2
 1178              		.set	.LANCHOR1,. + 0
 1179              		.type	SD2, %object
 1180              		.size	SD2, 2144
 1181              	SD2:
 1182 0000 00000000 		.space	2144
 1182      00000000 
 1182      00000000 
 1182      00000000 
 1182      00000000 
 1183              		.section	.bss.SD3,"aw",%nobits
 1184              		.align	2
 1185              		.set	.LANCHOR2,. + 0
 1186              		.type	SD3, %object
 1187              		.size	SD3, 2144
 1188              	SD3:
 1189 0000 00000000 		.space	2144
ARM GAS  /tmp/ccTPXCdN.s 			page 22


 1189      00000000 
 1189      00000000 
 1189      00000000 
 1189      00000000 
 1190              		.section	.bss.SD4,"aw",%nobits
 1191              		.align	2
 1192              		.set	.LANCHOR3,. + 0
 1193              		.type	SD4, %object
 1194              		.size	SD4, 2144
 1195              	SD4:
 1196 0000 00000000 		.space	2144
 1196      00000000 
 1196      00000000 
 1196      00000000 
 1196      00000000 
 1197              		.section	.bss.SD5,"aw",%nobits
 1198              		.align	2
 1199              		.set	.LANCHOR4,. + 0
 1200              		.type	SD5, %object
 1201              		.size	SD5, 2144
 1202              	SD5:
 1203 0000 00000000 		.space	2144
 1203      00000000 
 1203      00000000 
 1203      00000000 
 1203      00000000 
 1204              		.text
 1205              	.Letext0:
 1206              		.file 5 "/usr/lib/gcc/arm-none-eabi/4.9.3/include/stddef.h"
 1207              		.file 6 "/usr/include/newlib/machine/_default_types.h"
 1208              		.file 7 "/usr/include/newlib/sys/_stdint.h"
 1209              		.file 8 "../../modules/ChibiOS/os/common/ports/ARMCMx/compilers/GCC/chtypes.h"
 1210              		.file 9 "../../modules/ChibiOS/os/rt/include/chsystypes.h"
 1211              		.file 10 "../../modules/ChibiOS/os/rt/include/chschd.h"
 1212              		.file 11 "../../modules/ChibiOS/os/common/ext/CMSIS/ST/STM32F4xx/stm32f407xx.h"
 1213              		.file 12 "../../modules/ChibiOS/os/common/ports/ARMCMx/chcore.h"
 1214              		.file 13 "../../modules/ChibiOS/os/common/ports/ARMCMx/chcore_v7m.h"
 1215              		.file 14 "../../modules/ChibiOS/os/rt/include/chtm.h"
 1216              		.file 15 "../../modules/ChibiOS/os/rt/include/chstats.h"
 1217              		.file 16 "../../modules/ChibiOS/os/rt/include/chsem.h"
 1218              		.file 17 "../../modules/ChibiOS/os/rt/include/chmtx.h"
 1219              		.file 18 "../../modules/ChibiOS/os/rt/include/chevents.h"
 1220              		.file 19 "../../modules/ChibiOS/os/hal/include/hal_queues.h"
 1221              		.file 20 "../../modules/ChibiOS/os/hal/include/hal_serial.h"
 1222              		.file 21 "../../modules/ChibiOS/os/hal/ports/STM32/LLD/USARTv1/hal_serial_lld.h"
 1223              		.file 22 "../../modules/ChibiOS/os/hal/ports/common/ARMCMx/nvic.h"
 1224              		.file 23 "../../modules/ChibiOS/os/common/ext/CMSIS/include/core_cm4.h"