ARM GAS  /tmp/ccVCdOAw.s 			page 1


   1              		.syntax unified
   2              		.cpu cortex-m4
   3              		.eabi_attribute 27, 1
   4              		.eabi_attribute 28, 1
   5              		.fpu fpv4-sp-d16
   6              		.eabi_attribute 20, 1
   7              		.eabi_attribute 21, 1
   8              		.eabi_attribute 23, 3
   9              		.eabi_attribute 24, 1
  10              		.eabi_attribute 25, 1
  11              		.eabi_attribute 26, 1
  12              		.eabi_attribute 30, 4
  13              		.eabi_attribute 34, 1
  14              		.eabi_attribute 18, 4
  15              		.thumb
  16              		.file	"hal_st_lld.c"
  17              		.text
  18              	.Ltext0:
  19              		.cfi_sections	.debug_frame
  20              		.section	.text.Vector108,"ax",%progbits
  21              		.align	1
  22              		.global	Vector108
  23              		.thumb
  24              		.thumb_func
  25              		.type	Vector108, %function
  26              	Vector108:
  27              	.LFB277:
  28              		.file 1 "../../modules/ChibiOS/os/hal/ports/STM32/LLD/TIMv1/hal_st_lld.c"
  29              		.loc 1 239 0
  30              		.cfi_startproc
  31              		@ args = 0, pretend = 0, frame = 0
  32              		@ frame_needed = 0, uses_anonymous_args = 0
  33 0000 10B5     		push	{r4, lr}
  34              		.cfi_def_cfa_offset 8
  35              		.cfi_offset 4, -8
  36              		.cfi_offset 14, -4
  37              		.loc 1 241 0
  38 0002 FFF7FEFF 		bl	_stats_increase_irq
  39              	.LVL0:
  40              		.loc 1 246 0
  41 0006 0A4B     		ldr	r3, .L7
  42 0008 1A69     		ldr	r2, [r3, #16]
  43 000a 9207     		lsls	r2, r2, #30
  44 000c 0CD5     		bpl	.L2
  45              		.loc 1 247 0
  46 000e 0024     		movs	r4, #0
  47 0010 1C61     		str	r4, [r3, #16]
  48              	.LVL1:
  49              	.LBB48:
  50              	.LBB49:
  51              	.LBB50:
  52              	.LBB51:
  53              	.LBB52:
  54              	.LBB53:
  55              	.LBB54:
  56              		.file 2 "../../modules/ChibiOS/os/common/ext/CMSIS/include/cmsis_gcc.h"
  57              		.loc 2 264 0
ARM GAS  /tmp/ccVCdOAw.s 			page 2


  58 0012 2023     		movs	r3, #32
  59              	@ 264 "../../modules/ChibiOS/os/common/ext/CMSIS/include/cmsis_gcc.h" 1
  60 0014 83F31188 		MSR basepri, r3
  61              	@ 0 "" 2
  62              		.thumb
  63              	.LBE54:
  64              	.LBE53:
  65              	.LBE52:
  66              	.LBE51:
  67              		.file 3 "../../modules/ChibiOS/os/rt/include/chsys.h"
  68              		.loc 3 417 0
  69 0018 FFF7FEFF 		bl	_stats_start_measure_crit_isr
  70              	.LVL2:
  71              	.LBE50:
  72              	.LBE49:
  73              	.LBE48:
  74              	.LBB55:
  75              	.LBB56:
  76              		.file 4 "../../modules/ChibiOS/os/hal/osal/rt/osal.h"
  77              		.loc 4 585 0
  78 001c FFF7FEFF 		bl	chSysTimerHandlerI
  79              	.LVL3:
  80              	.LBE56:
  81              	.LBE55:
  82              	.LBB57:
  83              	.LBB58:
  84              	.LBB59:
  85              		.loc 3 437 0
  86 0020 FFF7FEFF 		bl	_stats_stop_measure_crit_isr
  87              	.LVL4:
  88              	.LBB60:
  89              	.LBB61:
  90              	.LBB62:
  91              	.LBB63:
  92              		.loc 2 264 0
  93              	@ 264 "../../modules/ChibiOS/os/common/ext/CMSIS/include/cmsis_gcc.h" 1
  94 0024 84F31188 		MSR basepri, r4
  95              	@ 0 "" 2
  96              	.LVL5:
  97              		.thumb
  98              	.L2:
  99              	.LBE63:
 100              	.LBE62:
 101              	.LBE61:
 102              	.LBE60:
 103              	.LBE59:
 104              	.LBE58:
 105              	.LBE57:
 106              		.loc 1 255 0
 107 0028 BDE81040 		pop	{r4, lr}
 108              		.cfi_restore 14
 109              		.cfi_restore 4
 110              		.cfi_def_cfa_offset 0
 111              		.loc 1 254 0
 112 002c FFF7FEBF 		b	_port_irq_epilogue
 113              	.LVL6:
 114              	.L8:
ARM GAS  /tmp/ccVCdOAw.s 			page 3


 115              		.align	2
 116              	.L7:
 117 0030 000C0040 		.word	1073744896
 118              		.cfi_endproc
 119              	.LFE277:
 120              		.size	Vector108, .-Vector108
 121              		.section	.text.st_lld_init,"ax",%progbits
 122              		.align	1
 123              		.global	st_lld_init
 124              		.thumb
 125              		.thumb_func
 126              		.type	st_lld_init, %function
 127              	st_lld_init:
 128              	.LFB278:
 129              		.loc 1 267 0
 130              		.cfi_startproc
 131              		@ args = 0, pretend = 0, frame = 0
 132              		@ frame_needed = 0, uses_anonymous_args = 0
 133              		@ link register save eliminated.
 134              		.loc 1 273 0
 135 0000 0D4A     		ldr	r2, .L10
 136 0002 136C     		ldr	r3, [r2, #64]
 137 0004 43F00803 		orr	r3, r3, #8
 138 0008 1364     		str	r3, [r2, #64]
 139              		.loc 1 276 0
 140 000a 0C4A     		ldr	r2, .L10+4
 141 000c 9368     		ldr	r3, [r2, #8]
 142 000e 43F00803 		orr	r3, r3, #8
 143 0012 9360     		str	r3, [r2, #8]
 144              		.loc 1 279 0
 145 0014 0A4B     		ldr	r3, .L10+8
 146 0016 5322     		movs	r2, #83
 147 0018 9A62     		str	r2, [r3, #40]
 148              		.loc 1 280 0
 149 001a 4FF0FF32 		mov	r2, #-1
 150 001e DA62     		str	r2, [r3, #44]
 151              		.loc 1 281 0
 152 0020 0022     		movs	r2, #0
 153 0022 9A61     		str	r2, [r3, #24]
 154              		.loc 1 282 0
 155 0024 5A63     		str	r2, [r3, #52]
 156              		.loc 1 283 0
 157 0026 DA60     		str	r2, [r3, #12]
 158              		.loc 1 284 0
 159 0028 5A60     		str	r2, [r3, #4]
 160              		.loc 1 285 0
 161 002a 0122     		movs	r2, #1
 162 002c 5A61     		str	r2, [r3, #20]
 163              		.loc 1 289 0
 164 002e 3220     		movs	r0, #50
 165              		.loc 1 286 0
 166 0030 1A60     		str	r2, [r3]
 167              		.loc 1 289 0
 168 0032 0821     		movs	r1, #8
 169 0034 FFF7FEBF 		b	nvicEnableVector
 170              	.LVL7:
 171              	.L11:
ARM GAS  /tmp/ccVCdOAw.s 			page 4


 172              		.align	2
 173              	.L10:
 174 0038 00380240 		.word	1073887232
 175 003c 002004E0 		.word	-536600576
 176 0040 000C0040 		.word	1073744896
 177              		.cfi_endproc
 178              	.LFE278:
 179              		.size	st_lld_init, .-st_lld_init
 180              		.text
 181              	.Letext0:
 182              		.file 5 "/usr/include/newlib/machine/_default_types.h"
 183              		.file 6 "/usr/include/newlib/sys/_stdint.h"
 184              		.file 7 "../../modules/ChibiOS/os/common/ports/ARMCMx/compilers/GCC/chtypes.h"
 185              		.file 8 "../../modules/ChibiOS/os/rt/include/chsystypes.h"
 186              		.file 9 "../../modules/ChibiOS/os/rt/include/chschd.h"
 187              		.file 10 "../../modules/ChibiOS/os/common/ext/CMSIS/ST/STM32F4xx/stm32f407xx.h"
 188              		.file 11 "../../modules/ChibiOS/os/common/ports/ARMCMx/chcore.h"
 189              		.file 12 "../../modules/ChibiOS/os/common/ports/ARMCMx/chcore_v7m.h"
 190              		.file 13 "../../modules/ChibiOS/os/hal/ports/STM32/LLD/TIMv1/stm32_tim.h"
 191              		.file 14 "../../modules/ChibiOS/os/rt/include/chtm.h"
 192              		.file 15 "../../modules/ChibiOS/os/rt/include/chstats.h"
 193              		.file 16 "../../modules/ChibiOS/os/rt/include/chsem.h"
 194              		.file 17 "../../modules/ChibiOS/os/rt/include/chmtx.h"
 195              		.file 18 "../../modules/ChibiOS/os/common/ext/CMSIS/include/core_cm4.h"
 196              		.file 19 "../../modules/ChibiOS/os/hal/ports/common/ARMCMx/nvic.h"
 197              		.section	.debug_info,"",%progbits
 198              	.Ldebug_info0:
 199 0000 C10C0000 		.4byte	0xcc1
 200 0004 0400     		.2byte	0x4
 201 0006 00000000 		.4byte	.Ldebug_abbrev0
 202 000a 04       		.byte	0x4
 203 000b 01       		.uleb128 0x1
 204 000c 72020000 		.4byte	.LASF163
 205 0010 01       		.byte	0x1
 206 0011 F7030000 		.4byte	.LASF164
 207 0015 73010000 		.4byte	.LASF165
 208 0019 00000000 		.4byte	.Ldebug_ranges0+0
 209 001d 00000000 		.4byte	0
 210 0021 00000000 		.4byte	.Ldebug_line0
 211 0025 02       		.uleb128 0x2
 212 0026 04       		.byte	0x4
 213 0027 05       		.byte	0x5
 214 0028 696E7400 		.ascii	"int\000"
 215 002c 03       		.uleb128 0x3
 216 002d 04       		.byte	0x4
 217 002e 07       		.byte	0x7
 218 002f 65020000 		.4byte	.LASF0
 219 0033 03       		.uleb128 0x3
 220 0034 01       		.byte	0x1
 221 0035 06       		.byte	0x6
 222 0036 57010000 		.4byte	.LASF1
 223 003a 04       		.uleb128 0x4
 224 003b 4F000000 		.4byte	.LASF5
 225 003f 05       		.byte	0x5
 226 0040 1D       		.byte	0x1d
 227 0041 45000000 		.4byte	0x45
 228 0045 03       		.uleb128 0x3
ARM GAS  /tmp/ccVCdOAw.s 			page 5


 229 0046 01       		.byte	0x1
 230 0047 08       		.byte	0x8
 231 0048 E6050000 		.4byte	.LASF2
 232 004c 03       		.uleb128 0x3
 233 004d 02       		.byte	0x2
 234 004e 05       		.byte	0x5
 235 004f 08060000 		.4byte	.LASF3
 236 0053 03       		.uleb128 0x3
 237 0054 02       		.byte	0x2
 238 0055 07       		.byte	0x7
 239 0056 53070000 		.4byte	.LASF4
 240 005a 04       		.uleb128 0x4
 241 005b 77040000 		.4byte	.LASF6
 242 005f 05       		.byte	0x5
 243 0060 3F       		.byte	0x3f
 244 0061 65000000 		.4byte	0x65
 245 0065 03       		.uleb128 0x3
 246 0066 04       		.byte	0x4
 247 0067 05       		.byte	0x5
 248 0068 C7010000 		.4byte	.LASF7
 249 006c 04       		.uleb128 0x4
 250 006d FF010000 		.4byte	.LASF8
 251 0071 05       		.byte	0x5
 252 0072 41       		.byte	0x41
 253 0073 77000000 		.4byte	0x77
 254 0077 03       		.uleb128 0x3
 255 0078 04       		.byte	0x4
 256 0079 07       		.byte	0x7
 257 007a 99060000 		.4byte	.LASF9
 258 007e 03       		.uleb128 0x3
 259 007f 08       		.byte	0x8
 260 0080 05       		.byte	0x5
 261 0081 3E020000 		.4byte	.LASF10
 262 0085 04       		.uleb128 0x4
 263 0086 49050000 		.4byte	.LASF11
 264 008a 05       		.byte	0x5
 265 008b 5B       		.byte	0x5b
 266 008c 90000000 		.4byte	0x90
 267 0090 03       		.uleb128 0x3
 268 0091 08       		.byte	0x8
 269 0092 07       		.byte	0x7
 270 0093 AD000000 		.4byte	.LASF12
 271 0097 04       		.uleb128 0x4
 272 0098 BA070000 		.4byte	.LASF13
 273 009c 06       		.byte	0x6
 274 009d 14       		.byte	0x14
 275 009e 3A000000 		.4byte	0x3a
 276 00a2 04       		.uleb128 0x4
 277 00a3 DE050000 		.4byte	.LASF14
 278 00a7 06       		.byte	0x6
 279 00a8 1F       		.byte	0x1f
 280 00a9 5A000000 		.4byte	0x5a
 281 00ad 04       		.uleb128 0x4
 282 00ae 66060000 		.4byte	.LASF15
 283 00b2 06       		.byte	0x6
 284 00b3 20       		.byte	0x20
 285 00b4 6C000000 		.4byte	0x6c
ARM GAS  /tmp/ccVCdOAw.s 			page 6


 286 00b8 04       		.uleb128 0x4
 287 00b9 39000000 		.4byte	.LASF16
 288 00bd 06       		.byte	0x6
 289 00be 26       		.byte	0x26
 290 00bf 85000000 		.4byte	0x85
 291 00c3 04       		.uleb128 0x4
 292 00c4 72070000 		.4byte	.LASF17
 293 00c8 07       		.byte	0x7
 294 00c9 39       		.byte	0x39
 295 00ca AD000000 		.4byte	0xad
 296 00ce 04       		.uleb128 0x4
 297 00cf 1C010000 		.4byte	.LASF18
 298 00d3 07       		.byte	0x7
 299 00d4 3A       		.byte	0x3a
 300 00d5 B8000000 		.4byte	0xb8
 301 00d9 04       		.uleb128 0x4
 302 00da E6070000 		.4byte	.LASF19
 303 00de 07       		.byte	0x7
 304 00df 3C       		.byte	0x3c
 305 00e0 97000000 		.4byte	0x97
 306 00e4 04       		.uleb128 0x4
 307 00e5 E3010000 		.4byte	.LASF20
 308 00e9 07       		.byte	0x7
 309 00ea 3D       		.byte	0x3d
 310 00eb 97000000 		.4byte	0x97
 311 00ef 04       		.uleb128 0x4
 312 00f0 66050000 		.4byte	.LASF21
 313 00f4 07       		.byte	0x7
 314 00f5 3E       		.byte	0x3e
 315 00f6 97000000 		.4byte	0x97
 316 00fa 04       		.uleb128 0x4
 317 00fb B4050000 		.4byte	.LASF22
 318 00ff 07       		.byte	0x7
 319 0100 40       		.byte	0x40
 320 0101 AD000000 		.4byte	0xad
 321 0105 04       		.uleb128 0x4
 322 0106 BE030000 		.4byte	.LASF23
 323 010a 07       		.byte	0x7
 324 010b 41       		.byte	0x41
 325 010c A2000000 		.4byte	0xa2
 326 0110 04       		.uleb128 0x4
 327 0111 6B040000 		.4byte	.LASF24
 328 0115 07       		.byte	0x7
 329 0116 43       		.byte	0x43
 330 0117 AD000000 		.4byte	0xad
 331 011b 04       		.uleb128 0x4
 332 011c 5F020000 		.4byte	.LASF25
 333 0120 07       		.byte	0x7
 334 0121 45       		.byte	0x45
 335 0122 A2000000 		.4byte	0xa2
 336 0126 04       		.uleb128 0x4
 337 0127 CD030000 		.4byte	.LASF26
 338 012b 07       		.byte	0x7
 339 012c 46       		.byte	0x46
 340 012d AD000000 		.4byte	0xad
 341 0131 04       		.uleb128 0x4
 342 0132 F5060000 		.4byte	.LASF27
ARM GAS  /tmp/ccVCdOAw.s 			page 7


 343 0136 08       		.byte	0x8
 344 0137 33       		.byte	0x33
 345 0138 AD000000 		.4byte	0xad
 346 013c 04       		.uleb128 0x4
 347 013d E7060000 		.4byte	.LASF28
 348 0141 08       		.byte	0x8
 349 0142 3F       		.byte	0x3f
 350 0143 47010000 		.4byte	0x147
 351 0147 05       		.uleb128 0x5
 352 0148 A9030000 		.4byte	.LASF47
 353 014c 60       		.byte	0x60
 354 014d 09       		.byte	0x9
 355 014e 9A       		.byte	0x9a
 356 014f 32020000 		.4byte	0x232
 357 0153 06       		.uleb128 0x6
 358 0154 7F030000 		.4byte	.LASF29
 359 0158 09       		.byte	0x9
 360 0159 9B       		.byte	0x9b
 361 015a 67020000 		.4byte	0x267
 362 015e 00       		.byte	0
 363 015f 06       		.uleb128 0x6
 364 0160 33050000 		.4byte	.LASF30
 365 0164 09       		.byte	0x9
 366 0165 9C       		.byte	0x9c
 367 0166 FA000000 		.4byte	0xfa
 368 016a 08       		.byte	0x8
 369 016b 07       		.uleb128 0x7
 370 016c 63747800 		.ascii	"ctx\000"
 371 0170 09       		.byte	0x9
 372 0171 9D       		.byte	0x9d
 373 0172 75060000 		.4byte	0x675
 374 0176 0C       		.byte	0xc
 375 0177 06       		.uleb128 0x6
 376 0178 BE040000 		.4byte	.LASF31
 377 017c 09       		.byte	0x9
 378 017d 9F       		.byte	0x9f
 379 017e 3D020000 		.4byte	0x23d
 380 0182 10       		.byte	0x10
 381 0183 06       		.uleb128 0x6
 382 0184 B7060000 		.4byte	.LASF32
 383 0188 09       		.byte	0x9
 384 0189 A0       		.byte	0xa0
 385 018a 3D020000 		.4byte	0x23d
 386 018e 14       		.byte	0x14
 387 018f 06       		.uleb128 0x6
 388 0190 A4030000 		.4byte	.LASF33
 389 0194 09       		.byte	0x9
 390 0195 A7       		.byte	0xa7
 391 0196 7E0A0000 		.4byte	0xa7e
 392 019a 18       		.byte	0x18
 393 019b 06       		.uleb128 0x6
 394 019c AB060000 		.4byte	.LASF34
 395 01a0 09       		.byte	0x9
 396 01a1 B0       		.byte	0xb0
 397 01a2 900A0000 		.4byte	0xa90
 398 01a6 1C       		.byte	0x1c
 399 01a7 06       		.uleb128 0x6
ARM GAS  /tmp/ccVCdOAw.s 			page 8


 400 01a8 B7010000 		.4byte	.LASF35
 401 01ac 09       		.byte	0x9
 402 01ad B5       		.byte	0xb5
 403 01ae E4000000 		.4byte	0xe4
 404 01b2 20       		.byte	0x20
 405 01b3 06       		.uleb128 0x6
 406 01b4 C2070000 		.4byte	.LASF36
 407 01b8 09       		.byte	0x9
 408 01b9 B9       		.byte	0xb9
 409 01ba D9000000 		.4byte	0xd9
 410 01be 21       		.byte	0x21
 411 01bf 06       		.uleb128 0x6
 412 01c0 40010000 		.4byte	.LASF37
 413 01c4 09       		.byte	0x9
 414 01c5 BE       		.byte	0xbe
 415 01c6 EF000000 		.4byte	0xef
 416 01ca 22       		.byte	0x22
 417 01cb 08       		.uleb128 0x8
 418 01cc 7500     		.ascii	"u\000"
 419 01ce 09       		.byte	0x9
 420 01cf 0F01     		.2byte	0x10f
 421 01d1 B3090000 		.4byte	0x9b3
 422 01d5 24       		.byte	0x24
 423 01d6 09       		.uleb128 0x9
 424 01d7 36020000 		.4byte	.LASF38
 425 01db 09       		.byte	0x9
 426 01dc 1401     		.2byte	0x114
 427 01de 43020000 		.4byte	0x243
 428 01e2 28       		.byte	0x28
 429 01e3 09       		.uleb128 0x9
 430 01e4 AE010000 		.4byte	.LASF39
 431 01e8 09       		.byte	0x9
 432 01e9 1A01     		.2byte	0x11a
 433 01eb 67020000 		.4byte	0x267
 434 01ef 2C       		.byte	0x2c
 435 01f0 09       		.uleb128 0x9
 436 01f1 D4030000 		.4byte	.LASF40
 437 01f5 09       		.byte	0x9
 438 01f6 2001     		.2byte	0x120
 439 01f8 10010000 		.4byte	0x110
 440 01fc 34       		.byte	0x34
 441 01fd 09       		.uleb128 0x9
 442 01fe 0B080000 		.4byte	.LASF41
 443 0202 09       		.byte	0x9
 444 0203 2701     		.2byte	0x127
 445 0205 780A0000 		.4byte	0xa78
 446 0209 38       		.byte	0x38
 447 020a 09       		.uleb128 0x9
 448 020b D4040000 		.4byte	.LASF42
 449 020f 09       		.byte	0x9
 450 0210 2B01     		.2byte	0x12b
 451 0212 FA000000 		.4byte	0xfa
 452 0216 3C       		.byte	0x3c
 453 0217 09       		.uleb128 0x9
 454 0218 85030000 		.4byte	.LASF43
 455 021c 09       		.byte	0x9
 456 021d 3201     		.2byte	0x132
ARM GAS  /tmp/ccVCdOAw.s 			page 9


 457 021f 1A030000 		.4byte	0x31a
 458 0223 40       		.byte	0x40
 459 0224 09       		.uleb128 0x9
 460 0225 F1010000 		.4byte	.LASF44
 461 0229 09       		.byte	0x9
 462 022a 3801     		.2byte	0x138
 463 022c 64090000 		.4byte	0x964
 464 0230 48       		.byte	0x48
 465 0231 00       		.byte	0
 466 0232 04       		.uleb128 0x4
 467 0233 E6040000 		.4byte	.LASF45
 468 0237 08       		.byte	0x8
 469 0238 44       		.byte	0x44
 470 0239 3D020000 		.4byte	0x23d
 471 023d 0A       		.uleb128 0xa
 472 023e 04       		.byte	0x4
 473 023f 3C010000 		.4byte	0x13c
 474 0243 04       		.uleb128 0x4
 475 0244 00000000 		.4byte	.LASF46
 476 0248 08       		.byte	0x8
 477 0249 49       		.byte	0x49
 478 024a 4E020000 		.4byte	0x24e
 479 024e 05       		.uleb128 0x5
 480 024f 83060000 		.4byte	.LASF48
 481 0253 04       		.byte	0x4
 482 0254 09       		.byte	0x9
 483 0255 88       		.byte	0x88
 484 0256 67020000 		.4byte	0x267
 485 025a 06       		.uleb128 0x6
 486 025b 27000000 		.4byte	.LASF49
 487 025f 09       		.byte	0x9
 488 0260 89       		.byte	0x89
 489 0261 3D020000 		.4byte	0x23d
 490 0265 00       		.byte	0
 491 0266 00       		.byte	0
 492 0267 04       		.uleb128 0x4
 493 0268 93070000 		.4byte	.LASF50
 494 026c 08       		.byte	0x8
 495 026d 50       		.byte	0x50
 496 026e 72020000 		.4byte	0x272
 497 0272 05       		.uleb128 0x5
 498 0273 6A000000 		.4byte	.LASF51
 499 0277 08       		.byte	0x8
 500 0278 09       		.byte	0x9
 501 0279 8F       		.byte	0x8f
 502 027a 97020000 		.4byte	0x297
 503 027e 06       		.uleb128 0x6
 504 027f 27000000 		.4byte	.LASF49
 505 0283 09       		.byte	0x9
 506 0284 90       		.byte	0x90
 507 0285 3D020000 		.4byte	0x23d
 508 0289 00       		.byte	0
 509 028a 06       		.uleb128 0x6
 510 028b 59000000 		.4byte	.LASF52
 511 028f 09       		.byte	0x9
 512 0290 91       		.byte	0x91
 513 0291 3D020000 		.4byte	0x23d
ARM GAS  /tmp/ccVCdOAw.s 			page 10


 514 0295 04       		.byte	0x4
 515 0296 00       		.byte	0
 516 0297 04       		.uleb128 0x4
 517 0298 0F000000 		.4byte	.LASF53
 518 029c 08       		.byte	0x8
 519 029d 57       		.byte	0x57
 520 029e A2020000 		.4byte	0x2a2
 521 02a2 0B       		.uleb128 0xb
 522 02a3 5D040000 		.4byte	.LASF54
 523 02a7 1C       		.byte	0x1c
 524 02a8 09       		.byte	0x9
 525 02a9 6A01     		.2byte	0x16a
 526 02ab FE020000 		.4byte	0x2fe
 527 02af 09       		.uleb128 0x9
 528 02b0 7F030000 		.4byte	.LASF29
 529 02b4 09       		.byte	0x9
 530 02b5 6B01     		.2byte	0x16b
 531 02b7 67020000 		.4byte	0x267
 532 02bb 00       		.byte	0
 533 02bc 09       		.uleb128 0x9
 534 02bd 33050000 		.4byte	.LASF30
 535 02c1 09       		.byte	0x9
 536 02c2 6C01     		.2byte	0x16c
 537 02c4 FA000000 		.4byte	0xfa
 538 02c8 08       		.byte	0x8
 539 02c9 08       		.uleb128 0x8
 540 02ca 63747800 		.ascii	"ctx\000"
 541 02ce 09       		.byte	0x9
 542 02cf 6E01     		.2byte	0x16e
 543 02d1 75060000 		.4byte	0x675
 544 02d5 0C       		.byte	0xc
 545 02d6 09       		.uleb128 0x9
 546 02d7 BE040000 		.4byte	.LASF31
 547 02db 09       		.byte	0x9
 548 02dc 7101     		.2byte	0x171
 549 02de 3D020000 		.4byte	0x23d
 550 02e2 10       		.byte	0x10
 551 02e3 09       		.uleb128 0x9
 552 02e4 B7060000 		.4byte	.LASF32
 553 02e8 09       		.byte	0x9
 554 02e9 7201     		.2byte	0x172
 555 02eb 3D020000 		.4byte	0x23d
 556 02ef 14       		.byte	0x14
 557 02f0 09       		.uleb128 0x9
 558 02f1 41050000 		.4byte	.LASF55
 559 02f5 09       		.byte	0x9
 560 02f6 7501     		.2byte	0x175
 561 02f8 3D020000 		.4byte	0x23d
 562 02fc 18       		.byte	0x18
 563 02fd 00       		.byte	0
 564 02fe 04       		.uleb128 0x4
 565 02ff 12070000 		.4byte	.LASF56
 566 0303 08       		.byte	0x8
 567 0304 5C       		.byte	0x5c
 568 0305 09030000 		.4byte	0x309
 569 0309 0A       		.uleb128 0xa
 570 030a 04       		.byte	0x4
ARM GAS  /tmp/ccVCdOAw.s 			page 11


 571 030b 0F030000 		.4byte	0x30f
 572 030f 0C       		.uleb128 0xc
 573 0310 1A030000 		.4byte	0x31a
 574 0314 0D       		.uleb128 0xd
 575 0315 1A030000 		.4byte	0x31a
 576 0319 00       		.byte	0
 577 031a 0E       		.uleb128 0xe
 578 031b 04       		.byte	0x4
 579 031c 04       		.uleb128 0x4
 580 031d C4040000 		.4byte	.LASF57
 581 0321 08       		.byte	0x8
 582 0322 61       		.byte	0x61
 583 0323 27030000 		.4byte	0x327
 584 0327 0B       		.uleb128 0xb
 585 0328 34060000 		.4byte	.LASF58
 586 032c 14       		.byte	0x14
 587 032d 09       		.byte	0x9
 588 032e 4501     		.2byte	0x145
 589 0330 76030000 		.4byte	0x376
 590 0334 09       		.uleb128 0x9
 591 0335 27000000 		.4byte	.LASF49
 592 0339 09       		.byte	0x9
 593 033a 4601     		.2byte	0x146
 594 033c 960A0000 		.4byte	0xa96
 595 0340 00       		.byte	0
 596 0341 09       		.uleb128 0x9
 597 0342 59000000 		.4byte	.LASF52
 598 0346 09       		.byte	0x9
 599 0347 4701     		.2byte	0x147
 600 0349 960A0000 		.4byte	0xa96
 601 034d 04       		.byte	0x4
 602 034e 09       		.uleb128 0x9
 603 034f 2C000000 		.4byte	.LASF59
 604 0353 09       		.byte	0x9
 605 0354 4801     		.2byte	0x148
 606 0356 31010000 		.4byte	0x131
 607 035a 08       		.byte	0x8
 608 035b 09       		.uleb128 0x9
 609 035c EC010000 		.4byte	.LASF60
 610 0360 09       		.byte	0x9
 611 0361 4901     		.2byte	0x149
 612 0363 FE020000 		.4byte	0x2fe
 613 0367 0C       		.byte	0xc
 614 0368 08       		.uleb128 0x8
 615 0369 70617200 		.ascii	"par\000"
 616 036d 09       		.byte	0x9
 617 036e 4B01     		.2byte	0x14b
 618 0370 1A030000 		.4byte	0x31a
 619 0374 10       		.byte	0x10
 620 0375 00       		.byte	0
 621 0376 04       		.uleb128 0x4
 622 0377 E0000000 		.4byte	.LASF61
 623 037b 08       		.byte	0x8
 624 037c 66       		.byte	0x66
 625 037d 81030000 		.4byte	0x381
 626 0381 0B       		.uleb128 0xb
 627 0382 F9040000 		.4byte	.LASF62
ARM GAS  /tmp/ccVCdOAw.s 			page 12


 628 0386 10       		.byte	0x10
 629 0387 09       		.byte	0x9
 630 0388 5501     		.2byte	0x155
 631 038a C3030000 		.4byte	0x3c3
 632 038e 09       		.uleb128 0x9
 633 038f 27000000 		.4byte	.LASF49
 634 0393 09       		.byte	0x9
 635 0394 5601     		.2byte	0x156
 636 0396 960A0000 		.4byte	0xa96
 637 039a 00       		.byte	0
 638 039b 09       		.uleb128 0x9
 639 039c 59000000 		.4byte	.LASF52
 640 03a0 09       		.byte	0x9
 641 03a1 5801     		.2byte	0x158
 642 03a3 960A0000 		.4byte	0xa96
 643 03a7 04       		.byte	0x4
 644 03a8 09       		.uleb128 0x9
 645 03a9 2C000000 		.4byte	.LASF59
 646 03ad 09       		.byte	0x9
 647 03ae 5A01     		.2byte	0x15a
 648 03b0 31010000 		.4byte	0x131
 649 03b4 08       		.byte	0x8
 650 03b5 09       		.uleb128 0x9
 651 03b6 12060000 		.4byte	.LASF63
 652 03ba 09       		.byte	0x9
 653 03bb 6201     		.2byte	0x162
 654 03bd 31010000 		.4byte	0x131
 655 03c1 0C       		.byte	0xc
 656 03c2 00       		.byte	0
 657 03c3 04       		.uleb128 0x4
 658 03c4 7B000000 		.4byte	.LASF64
 659 03c8 08       		.byte	0x8
 660 03c9 6B       		.byte	0x6b
 661 03ca CE030000 		.4byte	0x3ce
 662 03ce 0B       		.uleb128 0xb
 663 03cf 26020000 		.4byte	.LASF65
 664 03d3 04       		.byte	0x4
 665 03d4 09       		.byte	0x9
 666 03d5 7C01     		.2byte	0x17c
 667 03d7 E9030000 		.4byte	0x3e9
 668 03db 09       		.uleb128 0x9
 669 03dc 29070000 		.4byte	.LASF66
 670 03e0 09       		.byte	0x9
 671 03e1 8401     		.2byte	0x184
 672 03e3 9C0A0000 		.4byte	0xa9c
 673 03e7 00       		.byte	0
 674 03e8 00       		.byte	0
 675 03e9 04       		.uleb128 0x4
 676 03ea 66070000 		.4byte	.LASF67
 677 03ee 08       		.byte	0x8
 678 03ef 70       		.byte	0x70
 679 03f0 F4030000 		.4byte	0x3f4
 680 03f4 0B       		.uleb128 0xb
 681 03f5 BD010000 		.4byte	.LASF68
 682 03f9 D0       		.byte	0xd0
 683 03fa 09       		.byte	0x9
 684 03fb 9C01     		.2byte	0x19c
ARM GAS  /tmp/ccVCdOAw.s 			page 13


 685 03fd 4F040000 		.4byte	0x44f
 686 0401 09       		.uleb128 0x9
 687 0402 B4070000 		.4byte	.LASF69
 688 0406 09       		.byte	0x9
 689 0407 A001     		.2byte	0x1a0
 690 0409 97020000 		.4byte	0x297
 691 040d 00       		.byte	0
 692 040e 09       		.uleb128 0x9
 693 040f 6C010000 		.4byte	.LASF70
 694 0413 09       		.byte	0x9
 695 0414 A401     		.2byte	0x1a4
 696 0416 76030000 		.4byte	0x376
 697 041a 1C       		.byte	0x1c
 698 041b 08       		.uleb128 0x8
 699 041c 64626700 		.ascii	"dbg\000"
 700 0420 09       		.byte	0x9
 701 0421 A801     		.2byte	0x1a8
 702 0423 C3030000 		.4byte	0x3c3
 703 0427 2C       		.byte	0x2c
 704 0428 09       		.uleb128 0x9
 705 0429 CD000000 		.4byte	.LASF71
 706 042d 09       		.byte	0x9
 707 042e AC01     		.2byte	0x1ac
 708 0430 3C010000 		.4byte	0x13c
 709 0434 30       		.byte	0x30
 710 0435 08       		.uleb128 0x8
 711 0436 746D00   		.ascii	"tm\000"
 712 0439 09       		.byte	0x9
 713 043a B101     		.2byte	0x1b1
 714 043c 16090000 		.4byte	0x916
 715 0440 90       		.byte	0x90
 716 0441 09       		.uleb128 0x9
 717 0442 42000000 		.4byte	.LASF72
 718 0446 09       		.byte	0x9
 719 0447 B701     		.2byte	0x1b7
 720 0449 A8090000 		.4byte	0x9a8
 721 044d 98       		.byte	0x98
 722 044e 00       		.byte	0
 723 044f 03       		.uleb128 0x3
 724 0450 04       		.byte	0x4
 725 0451 07       		.byte	0x7
 726 0452 DD040000 		.4byte	.LASF73
 727 0456 0F       		.uleb128 0xf
 728 0457 AD000000 		.4byte	0xad
 729 045b 10       		.uleb128 0x10
 730 045c AD000000 		.4byte	0xad
 731 0460 6B040000 		.4byte	0x46b
 732 0464 11       		.uleb128 0x11
 733 0465 4F040000 		.4byte	0x44f
 734 0469 01       		.byte	0x1
 735 046a 00       		.byte	0
 736 046b 10       		.uleb128 0x10
 737 046c AD000000 		.4byte	0xad
 738 0470 7B040000 		.4byte	0x47b
 739 0474 11       		.uleb128 0x11
 740 0475 4F040000 		.4byte	0x44f
 741 0479 03       		.byte	0x3
ARM GAS  /tmp/ccVCdOAw.s 			page 14


 742 047a 00       		.byte	0
 743 047b 12       		.uleb128 0x12
 744 047c 10       		.byte	0x10
 745 047d 0A       		.byte	0xa
 746 047e 4C01     		.2byte	0x14c
 747 0480 B8040000 		.4byte	0x4b8
 748 0484 09       		.uleb128 0x9
 749 0485 F4050000 		.4byte	.LASF74
 750 0489 0A       		.byte	0xa
 751 048a 4E01     		.2byte	0x14e
 752 048c 56040000 		.4byte	0x456
 753 0490 00       		.byte	0
 754 0491 08       		.uleb128 0x8
 755 0492 435200   		.ascii	"CR\000"
 756 0495 0A       		.byte	0xa
 757 0496 4F01     		.2byte	0x14f
 758 0498 56040000 		.4byte	0x456
 759 049c 04       		.byte	0x4
 760 049d 09       		.uleb128 0x9
 761 049e 5F050000 		.4byte	.LASF75
 762 04a2 0A       		.byte	0xa
 763 04a3 5001     		.2byte	0x150
 764 04a5 56040000 		.4byte	0x456
 765 04a9 08       		.byte	0x8
 766 04aa 09       		.uleb128 0x9
 767 04ab DD030000 		.4byte	.LASF76
 768 04af 0A       		.byte	0xa
 769 04b0 5101     		.2byte	0x151
 770 04b2 56040000 		.4byte	0x456
 771 04b6 0C       		.byte	0xc
 772 04b7 00       		.byte	0
 773 04b8 13       		.uleb128 0x13
 774 04b9 57060000 		.4byte	.LASF77
 775 04bd 0A       		.byte	0xa
 776 04be 5201     		.2byte	0x152
 777 04c0 7B040000 		.4byte	0x47b
 778 04c4 12       		.uleb128 0x12
 779 04c5 88       		.byte	0x88
 780 04c6 0A       		.byte	0xa
 781 04c7 6602     		.2byte	0x266
 782 04c9 53060000 		.4byte	0x653
 783 04cd 08       		.uleb128 0x8
 784 04ce 435200   		.ascii	"CR\000"
 785 04d1 0A       		.byte	0xa
 786 04d2 6802     		.2byte	0x268
 787 04d4 56040000 		.4byte	0x456
 788 04d8 00       		.byte	0
 789 04d9 09       		.uleb128 0x9
 790 04da F7010000 		.4byte	.LASF78
 791 04de 0A       		.byte	0xa
 792 04df 6902     		.2byte	0x269
 793 04e1 56040000 		.4byte	0x456
 794 04e5 04       		.byte	0x4
 795 04e6 09       		.uleb128 0x9
 796 04e7 E1070000 		.4byte	.LASF79
 797 04eb 0A       		.byte	0xa
 798 04ec 6A02     		.2byte	0x26a
ARM GAS  /tmp/ccVCdOAw.s 			page 15


 799 04ee 56040000 		.4byte	0x456
 800 04f2 08       		.byte	0x8
 801 04f3 08       		.uleb128 0x8
 802 04f4 43495200 		.ascii	"CIR\000"
 803 04f8 0A       		.byte	0xa
 804 04f9 6B02     		.2byte	0x26b
 805 04fb 56040000 		.4byte	0x456
 806 04ff 0C       		.byte	0xc
 807 0500 09       		.uleb128 0x9
 808 0501 63010000 		.4byte	.LASF80
 809 0505 0A       		.byte	0xa
 810 0506 6C02     		.2byte	0x26c
 811 0508 56040000 		.4byte	0x456
 812 050c 10       		.byte	0x10
 813 050d 09       		.uleb128 0x9
 814 050e C9060000 		.4byte	.LASF81
 815 0512 0A       		.byte	0xa
 816 0513 6D02     		.2byte	0x26d
 817 0515 56040000 		.4byte	0x456
 818 0519 14       		.byte	0x14
 819 051a 09       		.uleb128 0x9
 820 051b C4030000 		.4byte	.LASF82
 821 051f 0A       		.byte	0xa
 822 0520 6E02     		.2byte	0x26e
 823 0522 56040000 		.4byte	0x456
 824 0526 18       		.byte	0x18
 825 0527 09       		.uleb128 0x9
 826 0528 6E050000 		.4byte	.LASF83
 827 052c 0A       		.byte	0xa
 828 052d 6F02     		.2byte	0x26f
 829 052f AD000000 		.4byte	0xad
 830 0533 1C       		.byte	0x1c
 831 0534 09       		.uleb128 0x9
 832 0535 38050000 		.4byte	.LASF84
 833 0539 0A       		.byte	0xa
 834 053a 7002     		.2byte	0x270
 835 053c 56040000 		.4byte	0x456
 836 0540 20       		.byte	0x20
 837 0541 09       		.uleb128 0x9
 838 0542 D0010000 		.4byte	.LASF85
 839 0546 0A       		.byte	0xa
 840 0547 7102     		.2byte	0x271
 841 0549 56040000 		.4byte	0x456
 842 054d 24       		.byte	0x24
 843 054e 09       		.uleb128 0x9
 844 054f 78050000 		.4byte	.LASF86
 845 0553 0A       		.byte	0xa
 846 0554 7202     		.2byte	0x272
 847 0556 5B040000 		.4byte	0x45b
 848 055a 28       		.byte	0x28
 849 055b 09       		.uleb128 0x9
 850 055c D9070000 		.4byte	.LASF87
 851 0560 0A       		.byte	0xa
 852 0561 7302     		.2byte	0x273
 853 0563 56040000 		.4byte	0x456
 854 0567 30       		.byte	0x30
 855 0568 09       		.uleb128 0x9
ARM GAS  /tmp/ccVCdOAw.s 			page 16


 856 0569 4B070000 		.4byte	.LASF88
 857 056d 0A       		.byte	0xa
 858 056e 7402     		.2byte	0x274
 859 0570 56040000 		.4byte	0x456
 860 0574 34       		.byte	0x34
 861 0575 09       		.uleb128 0x9
 862 0576 10050000 		.4byte	.LASF89
 863 057a 0A       		.byte	0xa
 864 057b 7502     		.2byte	0x275
 865 057d 56040000 		.4byte	0x456
 866 0581 38       		.byte	0x38
 867 0582 09       		.uleb128 0x9
 868 0583 82050000 		.4byte	.LASF90
 869 0587 0A       		.byte	0xa
 870 0588 7602     		.2byte	0x276
 871 058a AD000000 		.4byte	0xad
 872 058e 3C       		.byte	0x3c
 873 058f 09       		.uleb128 0x9
 874 0590 3A070000 		.4byte	.LASF91
 875 0594 0A       		.byte	0xa
 876 0595 7702     		.2byte	0x277
 877 0597 56040000 		.4byte	0x456
 878 059b 40       		.byte	0x40
 879 059c 09       		.uleb128 0x9
 880 059d 2C060000 		.4byte	.LASF92
 881 05a1 0A       		.byte	0xa
 882 05a2 7802     		.2byte	0x278
 883 05a4 56040000 		.4byte	0x456
 884 05a8 44       		.byte	0x44
 885 05a9 09       		.uleb128 0x9
 886 05aa 8C050000 		.4byte	.LASF93
 887 05ae 0A       		.byte	0xa
 888 05af 7902     		.2byte	0x279
 889 05b1 5B040000 		.4byte	0x45b
 890 05b5 48       		.byte	0x48
 891 05b6 09       		.uleb128 0x9
 892 05b7 25010000 		.4byte	.LASF94
 893 05bb 0A       		.byte	0xa
 894 05bc 7A02     		.2byte	0x27a
 895 05be 56040000 		.4byte	0x456
 896 05c2 50       		.byte	0x50
 897 05c3 09       		.uleb128 0x9
 898 05c4 18050000 		.4byte	.LASF95
 899 05c8 0A       		.byte	0xa
 900 05c9 7B02     		.2byte	0x27b
 901 05cb 56040000 		.4byte	0x456
 902 05cf 54       		.byte	0x54
 903 05d0 09       		.uleb128 0x9
 904 05d1 1B060000 		.4byte	.LASF96
 905 05d5 0A       		.byte	0xa
 906 05d6 7C02     		.2byte	0x27c
 907 05d8 56040000 		.4byte	0x456
 908 05dc 58       		.byte	0x58
 909 05dd 09       		.uleb128 0x9
 910 05de 96050000 		.4byte	.LASF97
 911 05e2 0A       		.byte	0xa
 912 05e3 7D02     		.2byte	0x27d
ARM GAS  /tmp/ccVCdOAw.s 			page 17


 913 05e5 AD000000 		.4byte	0xad
 914 05e9 5C       		.byte	0x5c
 915 05ea 09       		.uleb128 0x9
 916 05eb D9010000 		.4byte	.LASF98
 917 05ef 0A       		.byte	0xa
 918 05f0 7E02     		.2byte	0x27e
 919 05f2 56040000 		.4byte	0x456
 920 05f6 60       		.byte	0x60
 921 05f7 09       		.uleb128 0x9
 922 05f8 48040000 		.4byte	.LASF99
 923 05fc 0A       		.byte	0xa
 924 05fd 7F02     		.2byte	0x27f
 925 05ff 56040000 		.4byte	0x456
 926 0603 64       		.byte	0x64
 927 0604 09       		.uleb128 0x9
 928 0605 A0050000 		.4byte	.LASF100
 929 0609 0A       		.byte	0xa
 930 060a 8002     		.2byte	0x280
 931 060c 5B040000 		.4byte	0x45b
 932 0610 68       		.byte	0x68
 933 0611 09       		.uleb128 0x9
 934 0612 AF070000 		.4byte	.LASF101
 935 0616 0A       		.byte	0xa
 936 0617 8102     		.2byte	0x281
 937 0619 56040000 		.4byte	0x456
 938 061d 70       		.byte	0x70
 939 061e 08       		.uleb128 0x8
 940 061f 43535200 		.ascii	"CSR\000"
 941 0623 0A       		.byte	0xa
 942 0624 8202     		.2byte	0x282
 943 0626 56040000 		.4byte	0x456
 944 062a 74       		.byte	0x74
 945 062b 09       		.uleb128 0x9
 946 062c AA050000 		.4byte	.LASF102
 947 0630 0A       		.byte	0xa
 948 0631 8302     		.2byte	0x283
 949 0633 5B040000 		.4byte	0x45b
 950 0637 78       		.byte	0x78
 951 0638 09       		.uleb128 0x9
 952 0639 8D070000 		.4byte	.LASF103
 953 063d 0A       		.byte	0xa
 954 063e 8402     		.2byte	0x284
 955 0640 56040000 		.4byte	0x456
 956 0644 80       		.byte	0x80
 957 0645 09       		.uleb128 0x9
 958 0646 B3030000 		.4byte	.LASF104
 959 064a 0A       		.byte	0xa
 960 064b 8502     		.2byte	0x285
 961 064d 56040000 		.4byte	0x456
 962 0651 84       		.byte	0x84
 963 0652 00       		.byte	0
 964 0653 13       		.uleb128 0x13
 965 0654 68030000 		.4byte	.LASF105
 966 0658 0A       		.byte	0xa
 967 0659 8702     		.2byte	0x287
 968 065b C4040000 		.4byte	0x4c4
 969 065f 04       		.uleb128 0x4
ARM GAS  /tmp/ccVCdOAw.s 			page 18


 970 0660 0A020000 		.4byte	.LASF106
 971 0664 0B       		.byte	0xb
 972 0665 65       		.byte	0x65
 973 0666 1A030000 		.4byte	0x31a
 974 066a 04       		.uleb128 0x4
 975 066b 9F040000 		.4byte	.LASF107
 976 066f 0B       		.byte	0xb
 977 0670 6D       		.byte	0x6d
 978 0671 B8000000 		.4byte	0xb8
 979 0675 05       		.uleb128 0x5
 980 0676 52020000 		.4byte	.LASF108
 981 067a 04       		.byte	0x4
 982 067b 0B       		.byte	0xb
 983 067c 89       		.byte	0x89
 984 067d 8D060000 		.4byte	0x68d
 985 0681 07       		.uleb128 0x7
 986 0682 737000   		.ascii	"sp\000"
 987 0685 0B       		.byte	0xb
 988 0686 8A       		.byte	0x8a
 989 0687 D9070000 		.4byte	0x7d9
 990 068b 00       		.byte	0
 991 068c 00       		.byte	0
 992 068d 0B       		.uleb128 0xb
 993 068e 5E000000 		.4byte	.LASF109
 994 0692 64       		.byte	0x64
 995 0693 0C       		.byte	0xc
 996 0694 5901     		.2byte	0x159
 997 0696 D9070000 		.4byte	0x7d9
 998 069a 08       		.uleb128 0x8
 999 069b 73313600 		.ascii	"s16\000"
 1000 069f 0C       		.byte	0xc
 1001 06a0 5B01     		.2byte	0x15b
 1002 06a2 5F060000 		.4byte	0x65f
 1003 06a6 00       		.byte	0
 1004 06a7 08       		.uleb128 0x8
 1005 06a8 73313700 		.ascii	"s17\000"
 1006 06ac 0C       		.byte	0xc
 1007 06ad 5C01     		.2byte	0x15c
 1008 06af 5F060000 		.4byte	0x65f
 1009 06b3 04       		.byte	0x4
 1010 06b4 08       		.uleb128 0x8
 1011 06b5 73313800 		.ascii	"s18\000"
 1012 06b9 0C       		.byte	0xc
 1013 06ba 5D01     		.2byte	0x15d
 1014 06bc 5F060000 		.4byte	0x65f
 1015 06c0 08       		.byte	0x8
 1016 06c1 08       		.uleb128 0x8
 1017 06c2 73313900 		.ascii	"s19\000"
 1018 06c6 0C       		.byte	0xc
 1019 06c7 5E01     		.2byte	0x15e
 1020 06c9 5F060000 		.4byte	0x65f
 1021 06cd 0C       		.byte	0xc
 1022 06ce 08       		.uleb128 0x8
 1023 06cf 73323000 		.ascii	"s20\000"
 1024 06d3 0C       		.byte	0xc
 1025 06d4 5F01     		.2byte	0x15f
 1026 06d6 5F060000 		.4byte	0x65f
ARM GAS  /tmp/ccVCdOAw.s 			page 19


 1027 06da 10       		.byte	0x10
 1028 06db 08       		.uleb128 0x8
 1029 06dc 73323100 		.ascii	"s21\000"
 1030 06e0 0C       		.byte	0xc
 1031 06e1 6001     		.2byte	0x160
 1032 06e3 5F060000 		.4byte	0x65f
 1033 06e7 14       		.byte	0x14
 1034 06e8 08       		.uleb128 0x8
 1035 06e9 73323200 		.ascii	"s22\000"
 1036 06ed 0C       		.byte	0xc
 1037 06ee 6101     		.2byte	0x161
 1038 06f0 5F060000 		.4byte	0x65f
 1039 06f4 18       		.byte	0x18
 1040 06f5 08       		.uleb128 0x8
 1041 06f6 73323300 		.ascii	"s23\000"
 1042 06fa 0C       		.byte	0xc
 1043 06fb 6201     		.2byte	0x162
 1044 06fd 5F060000 		.4byte	0x65f
 1045 0701 1C       		.byte	0x1c
 1046 0702 08       		.uleb128 0x8
 1047 0703 73323400 		.ascii	"s24\000"
 1048 0707 0C       		.byte	0xc
 1049 0708 6301     		.2byte	0x163
 1050 070a 5F060000 		.4byte	0x65f
 1051 070e 20       		.byte	0x20
 1052 070f 08       		.uleb128 0x8
 1053 0710 73323500 		.ascii	"s25\000"
 1054 0714 0C       		.byte	0xc
 1055 0715 6401     		.2byte	0x164
 1056 0717 5F060000 		.4byte	0x65f
 1057 071b 24       		.byte	0x24
 1058 071c 08       		.uleb128 0x8
 1059 071d 73323600 		.ascii	"s26\000"
 1060 0721 0C       		.byte	0xc
 1061 0722 6501     		.2byte	0x165
 1062 0724 5F060000 		.4byte	0x65f
 1063 0728 28       		.byte	0x28
 1064 0729 08       		.uleb128 0x8
 1065 072a 73323700 		.ascii	"s27\000"
 1066 072e 0C       		.byte	0xc
 1067 072f 6601     		.2byte	0x166
 1068 0731 5F060000 		.4byte	0x65f
 1069 0735 2C       		.byte	0x2c
 1070 0736 08       		.uleb128 0x8
 1071 0737 73323800 		.ascii	"s28\000"
 1072 073b 0C       		.byte	0xc
 1073 073c 6701     		.2byte	0x167
 1074 073e 5F060000 		.4byte	0x65f
 1075 0742 30       		.byte	0x30
 1076 0743 08       		.uleb128 0x8
 1077 0744 73323900 		.ascii	"s29\000"
 1078 0748 0C       		.byte	0xc
 1079 0749 6801     		.2byte	0x168
 1080 074b 5F060000 		.4byte	0x65f
 1081 074f 34       		.byte	0x34
 1082 0750 08       		.uleb128 0x8
 1083 0751 73333000 		.ascii	"s30\000"
ARM GAS  /tmp/ccVCdOAw.s 			page 20


 1084 0755 0C       		.byte	0xc
 1085 0756 6901     		.2byte	0x169
 1086 0758 5F060000 		.4byte	0x65f
 1087 075c 38       		.byte	0x38
 1088 075d 08       		.uleb128 0x8
 1089 075e 73333100 		.ascii	"s31\000"
 1090 0762 0C       		.byte	0xc
 1091 0763 6A01     		.2byte	0x16a
 1092 0765 5F060000 		.4byte	0x65f
 1093 0769 3C       		.byte	0x3c
 1094 076a 08       		.uleb128 0x8
 1095 076b 723400   		.ascii	"r4\000"
 1096 076e 0C       		.byte	0xc
 1097 076f 6C01     		.2byte	0x16c
 1098 0771 5F060000 		.4byte	0x65f
 1099 0775 40       		.byte	0x40
 1100 0776 08       		.uleb128 0x8
 1101 0777 723500   		.ascii	"r5\000"
 1102 077a 0C       		.byte	0xc
 1103 077b 6D01     		.2byte	0x16d
 1104 077d 5F060000 		.4byte	0x65f
 1105 0781 44       		.byte	0x44
 1106 0782 08       		.uleb128 0x8
 1107 0783 723600   		.ascii	"r6\000"
 1108 0786 0C       		.byte	0xc
 1109 0787 6E01     		.2byte	0x16e
 1110 0789 5F060000 		.4byte	0x65f
 1111 078d 48       		.byte	0x48
 1112 078e 08       		.uleb128 0x8
 1113 078f 723700   		.ascii	"r7\000"
 1114 0792 0C       		.byte	0xc
 1115 0793 6F01     		.2byte	0x16f
 1116 0795 5F060000 		.4byte	0x65f
 1117 0799 4C       		.byte	0x4c
 1118 079a 08       		.uleb128 0x8
 1119 079b 723800   		.ascii	"r8\000"
 1120 079e 0C       		.byte	0xc
 1121 079f 7001     		.2byte	0x170
 1122 07a1 5F060000 		.4byte	0x65f
 1123 07a5 50       		.byte	0x50
 1124 07a6 08       		.uleb128 0x8
 1125 07a7 723900   		.ascii	"r9\000"
 1126 07aa 0C       		.byte	0xc
 1127 07ab 7101     		.2byte	0x171
 1128 07ad 5F060000 		.4byte	0x65f
 1129 07b1 54       		.byte	0x54
 1130 07b2 08       		.uleb128 0x8
 1131 07b3 72313000 		.ascii	"r10\000"
 1132 07b7 0C       		.byte	0xc
 1133 07b8 7201     		.2byte	0x172
 1134 07ba 5F060000 		.4byte	0x65f
 1135 07be 58       		.byte	0x58
 1136 07bf 08       		.uleb128 0x8
 1137 07c0 72313100 		.ascii	"r11\000"
 1138 07c4 0C       		.byte	0xc
 1139 07c5 7301     		.2byte	0x173
 1140 07c7 5F060000 		.4byte	0x65f
ARM GAS  /tmp/ccVCdOAw.s 			page 21


 1141 07cb 5C       		.byte	0x5c
 1142 07cc 08       		.uleb128 0x8
 1143 07cd 6C7200   		.ascii	"lr\000"
 1144 07d0 0C       		.byte	0xc
 1145 07d1 7401     		.2byte	0x174
 1146 07d3 5F060000 		.4byte	0x65f
 1147 07d7 60       		.byte	0x60
 1148 07d8 00       		.byte	0
 1149 07d9 0A       		.uleb128 0xa
 1150 07da 04       		.byte	0x4
 1151 07db 8D060000 		.4byte	0x68d
 1152 07df 12       		.uleb128 0x12
 1153 07e0 60       		.byte	0x60
 1154 07e1 0D       		.byte	0xd
 1155 07e2 A101     		.2byte	0x1a1
 1156 07e4 EB080000 		.4byte	0x8eb
 1157 07e8 08       		.uleb128 0x8
 1158 07e9 43523100 		.ascii	"CR1\000"
 1159 07ed 0D       		.byte	0xd
 1160 07ee A201     		.2byte	0x1a2
 1161 07f0 56040000 		.4byte	0x456
 1162 07f4 00       		.byte	0
 1163 07f5 08       		.uleb128 0x8
 1164 07f6 43523200 		.ascii	"CR2\000"
 1165 07fa 0D       		.byte	0xd
 1166 07fb A301     		.2byte	0x1a3
 1167 07fd 56040000 		.4byte	0x456
 1168 0801 04       		.byte	0x4
 1169 0802 09       		.uleb128 0x9
 1170 0803 90030000 		.4byte	.LASF110
 1171 0807 0D       		.byte	0xd
 1172 0808 A401     		.2byte	0x1a4
 1173 080a 56040000 		.4byte	0x456
 1174 080e 08       		.byte	0x8
 1175 080f 09       		.uleb128 0x9
 1176 0810 1C000000 		.4byte	.LASF111
 1177 0814 0D       		.byte	0xd
 1178 0815 A501     		.2byte	0x1a5
 1179 0817 56040000 		.4byte	0x456
 1180 081b 0C       		.byte	0xc
 1181 081c 08       		.uleb128 0x8
 1182 081d 535200   		.ascii	"SR\000"
 1183 0820 0D       		.byte	0xd
 1184 0821 A601     		.2byte	0x1a6
 1185 0823 56040000 		.4byte	0x456
 1186 0827 10       		.byte	0x10
 1187 0828 08       		.uleb128 0x8
 1188 0829 45475200 		.ascii	"EGR\000"
 1189 082d 0D       		.byte	0xd
 1190 082e A701     		.2byte	0x1a7
 1191 0830 56040000 		.4byte	0x456
 1192 0834 14       		.byte	0x14
 1193 0835 09       		.uleb128 0x9
 1194 0836 45010000 		.4byte	.LASF112
 1195 083a 0D       		.byte	0xd
 1196 083b A801     		.2byte	0x1a8
 1197 083d 56040000 		.4byte	0x456
ARM GAS  /tmp/ccVCdOAw.s 			page 22


 1198 0841 18       		.byte	0x18
 1199 0842 09       		.uleb128 0x9
 1200 0843 4B010000 		.4byte	.LASF113
 1201 0847 0D       		.byte	0xd
 1202 0848 A901     		.2byte	0x1a9
 1203 084a 56040000 		.4byte	0x456
 1204 084e 1C       		.byte	0x1c
 1205 084f 09       		.uleb128 0x9
 1206 0850 F0060000 		.4byte	.LASF114
 1207 0854 0D       		.byte	0xd
 1208 0855 AA01     		.2byte	0x1aa
 1209 0857 56040000 		.4byte	0x456
 1210 085b 20       		.byte	0x20
 1211 085c 08       		.uleb128 0x8
 1212 085d 434E5400 		.ascii	"CNT\000"
 1213 0861 0D       		.byte	0xd
 1214 0862 AB01     		.2byte	0x1ab
 1215 0864 56040000 		.4byte	0x456
 1216 0868 24       		.byte	0x24
 1217 0869 08       		.uleb128 0x8
 1218 086a 50534300 		.ascii	"PSC\000"
 1219 086e 0D       		.byte	0xd
 1220 086f AC01     		.2byte	0x1ac
 1221 0871 56040000 		.4byte	0x456
 1222 0875 28       		.byte	0x28
 1223 0876 08       		.uleb128 0x8
 1224 0877 41525200 		.ascii	"ARR\000"
 1225 087b 0D       		.byte	0xd
 1226 087c AD01     		.2byte	0x1ad
 1227 087e 56040000 		.4byte	0x456
 1228 0882 2C       		.byte	0x2c
 1229 0883 08       		.uleb128 0x8
 1230 0884 52435200 		.ascii	"RCR\000"
 1231 0888 0D       		.byte	0xd
 1232 0889 AE01     		.2byte	0x1ae
 1233 088b 56040000 		.4byte	0x456
 1234 088f 30       		.byte	0x30
 1235 0890 08       		.uleb128 0x8
 1236 0891 43435200 		.ascii	"CCR\000"
 1237 0895 0D       		.byte	0xd
 1238 0896 AF01     		.2byte	0x1af
 1239 0898 EB080000 		.4byte	0x8eb
 1240 089c 34       		.byte	0x34
 1241 089d 09       		.uleb128 0x9
 1242 089e 17010000 		.4byte	.LASF115
 1243 08a2 0D       		.byte	0xd
 1244 08a3 B001     		.2byte	0x1b0
 1245 08a5 56040000 		.4byte	0x456
 1246 08a9 44       		.byte	0x44
 1247 08aa 08       		.uleb128 0x8
 1248 08ab 44435200 		.ascii	"DCR\000"
 1249 08af 0D       		.byte	0xd
 1250 08b0 B101     		.2byte	0x1b1
 1251 08b2 56040000 		.4byte	0x456
 1252 08b6 48       		.byte	0x48
 1253 08b7 09       		.uleb128 0x9
 1254 08b8 C4060000 		.4byte	.LASF116
ARM GAS  /tmp/ccVCdOAw.s 			page 23


 1255 08bc 0D       		.byte	0xd
 1256 08bd B201     		.2byte	0x1b2
 1257 08bf 56040000 		.4byte	0x456
 1258 08c3 4C       		.byte	0x4c
 1259 08c4 08       		.uleb128 0x8
 1260 08c5 4F5200   		.ascii	"OR\000"
 1261 08c8 0D       		.byte	0xd
 1262 08c9 B301     		.2byte	0x1b3
 1263 08cb 56040000 		.4byte	0x456
 1264 08cf 50       		.byte	0x50
 1265 08d0 09       		.uleb128 0x9
 1266 08d1 51010000 		.4byte	.LASF117
 1267 08d5 0D       		.byte	0xd
 1268 08d6 B401     		.2byte	0x1b4
 1269 08d8 56040000 		.4byte	0x456
 1270 08dc 54       		.byte	0x54
 1271 08dd 09       		.uleb128 0x9
 1272 08de 52060000 		.4byte	.LASF118
 1273 08e2 0D       		.byte	0xd
 1274 08e3 B501     		.2byte	0x1b5
 1275 08e5 F0080000 		.4byte	0x8f0
 1276 08e9 58       		.byte	0x58
 1277 08ea 00       		.byte	0
 1278 08eb 0F       		.uleb128 0xf
 1279 08ec 6B040000 		.4byte	0x46b
 1280 08f0 0F       		.uleb128 0xf
 1281 08f1 5B040000 		.4byte	0x45b
 1282 08f5 13       		.uleb128 0x13
 1283 08f6 A3070000 		.4byte	.LASF119
 1284 08fa 0D       		.byte	0xd
 1285 08fb B601     		.2byte	0x1b6
 1286 08fd DF070000 		.4byte	0x7df
 1287 0901 14       		.uleb128 0x14
 1288 0902 04       		.byte	0x4
 1289 0903 0E       		.byte	0xe
 1290 0904 38       		.byte	0x38
 1291 0905 16090000 		.4byte	0x916
 1292 0909 06       		.uleb128 0x6
 1293 090a 33070000 		.4byte	.LASF120
 1294 090e 0E       		.byte	0xe
 1295 090f 3C       		.byte	0x3c
 1296 0910 C3000000 		.4byte	0xc3
 1297 0914 00       		.byte	0
 1298 0915 00       		.byte	0
 1299 0916 04       		.uleb128 0x4
 1300 0917 22050000 		.4byte	.LASF121
 1301 091b 0E       		.byte	0xe
 1302 091c 3D       		.byte	0x3d
 1303 091d 01090000 		.4byte	0x901
 1304 0921 14       		.uleb128 0x14
 1305 0922 18       		.byte	0x18
 1306 0923 0E       		.byte	0xe
 1307 0924 48       		.byte	0x48
 1308 0925 64090000 		.4byte	0x964
 1309 0929 06       		.uleb128 0x6
 1310 092a 8B030000 		.4byte	.LASF122
 1311 092e 0E       		.byte	0xe
ARM GAS  /tmp/ccVCdOAw.s 			page 24


 1312 092f 49       		.byte	0x49
 1313 0930 C3000000 		.4byte	0xc3
 1314 0934 00       		.byte	0
 1315 0935 06       		.uleb128 0x6
 1316 0936 94000000 		.4byte	.LASF123
 1317 093a 0E       		.byte	0xe
 1318 093b 4A       		.byte	0x4a
 1319 093c C3000000 		.4byte	0xc3
 1320 0940 04       		.byte	0x4
 1321 0941 06       		.uleb128 0x6
 1322 0942 74030000 		.4byte	.LASF124
 1323 0946 0E       		.byte	0xe
 1324 0947 4B       		.byte	0x4b
 1325 0948 C3000000 		.4byte	0xc3
 1326 094c 08       		.byte	0x8
 1327 094d 07       		.uleb128 0x7
 1328 094e 6E00     		.ascii	"n\000"
 1329 0950 0E       		.byte	0xe
 1330 0951 4C       		.byte	0x4c
 1331 0952 26010000 		.4byte	0x126
 1332 0956 0C       		.byte	0xc
 1333 0957 06       		.uleb128 0x6
 1334 0958 54050000 		.4byte	.LASF125
 1335 095c 0E       		.byte	0xe
 1336 095d 4D       		.byte	0x4d
 1337 095e CE000000 		.4byte	0xce
 1338 0962 10       		.byte	0x10
 1339 0963 00       		.byte	0
 1340 0964 04       		.uleb128 0x4
 1341 0965 9A000000 		.4byte	.LASF126
 1342 0969 0E       		.byte	0xe
 1343 096a 4E       		.byte	0x4e
 1344 096b 21090000 		.4byte	0x921
 1345 096f 14       		.uleb128 0x14
 1346 0970 38       		.byte	0x38
 1347 0971 0F       		.byte	0xf
 1348 0972 38       		.byte	0x38
 1349 0973 A8090000 		.4byte	0x9a8
 1350 0977 06       		.uleb128 0x6
 1351 0978 79030000 		.4byte	.LASF127
 1352 097c 0F       		.byte	0xf
 1353 097d 39       		.byte	0x39
 1354 097e 26010000 		.4byte	0x126
 1355 0982 00       		.byte	0
 1356 0983 06       		.uleb128 0x6
 1357 0984 CF050000 		.4byte	.LASF128
 1358 0988 0F       		.byte	0xf
 1359 0989 3A       		.byte	0x3a
 1360 098a 26010000 		.4byte	0x126
 1361 098e 04       		.byte	0x4
 1362 098f 06       		.uleb128 0x6
 1363 0990 1B080000 		.4byte	.LASF129
 1364 0994 0F       		.byte	0xf
 1365 0995 3B       		.byte	0x3b
 1366 0996 64090000 		.4byte	0x964
 1367 099a 08       		.byte	0x8
 1368 099b 06       		.uleb128 0x6
ARM GAS  /tmp/ccVCdOAw.s 			page 25


 1369 099c 52040000 		.4byte	.LASF130
 1370 09a0 0F       		.byte	0xf
 1371 09a1 3D       		.byte	0x3d
 1372 09a2 64090000 		.4byte	0x964
 1373 09a6 20       		.byte	0x20
 1374 09a7 00       		.byte	0
 1375 09a8 04       		.uleb128 0x4
 1376 09a9 95030000 		.4byte	.LASF131
 1377 09ad 0F       		.byte	0xf
 1378 09ae 3F       		.byte	0x3f
 1379 09af 6F090000 		.4byte	0x96f
 1380 09b3 15       		.uleb128 0x15
 1381 09b4 04       		.byte	0x4
 1382 09b5 09       		.byte	0x9
 1383 09b6 D2       		.byte	0xd2
 1384 09b7 160A0000 		.4byte	0xa16
 1385 09bb 16       		.uleb128 0x16
 1386 09bc 32000000 		.4byte	.LASF132
 1387 09c0 09       		.byte	0x9
 1388 09c1 D9       		.byte	0xd9
 1389 09c2 05010000 		.4byte	0x105
 1390 09c6 16       		.uleb128 0x16
 1391 09c7 C4000000 		.4byte	.LASF133
 1392 09cb 09       		.byte	0x9
 1393 09cc E0       		.byte	0xe0
 1394 09cd 05010000 		.4byte	0x105
 1395 09d1 16       		.uleb128 0x16
 1396 09d2 41040000 		.4byte	.LASF134
 1397 09d6 09       		.byte	0x9
 1398 09d7 E7       		.byte	0xe7
 1399 09d8 1A030000 		.4byte	0x31a
 1400 09dc 16       		.uleb128 0x16
 1401 09dd 21000000 		.4byte	.LASF135
 1402 09e1 09       		.byte	0x9
 1403 09e2 EE       		.byte	0xee
 1404 09e3 160A0000 		.4byte	0xa16
 1405 09e7 16       		.uleb128 0x16
 1406 09e8 D8000000 		.4byte	.LASF136
 1407 09ec 09       		.byte	0x9
 1408 09ed F3       		.byte	0xf3
 1409 09ee 05010000 		.4byte	0x105
 1410 09f2 16       		.uleb128 0x16
 1411 09f3 61030000 		.4byte	.LASF137
 1412 09f7 09       		.byte	0x9
 1413 09f8 FC       		.byte	0xfc
 1414 09f9 410A0000 		.4byte	0xa41
 1415 09fd 17       		.uleb128 0x17
 1416 09fe BD060000 		.4byte	.LASF138
 1417 0a02 09       		.byte	0x9
 1418 0a03 0501     		.2byte	0x105
 1419 0a05 780A0000 		.4byte	0xa78
 1420 0a09 17       		.uleb128 0x17
 1421 0a0a 25060000 		.4byte	.LASF139
 1422 0a0e 09       		.byte	0x9
 1423 0a0f 0D01     		.2byte	0x10d
 1424 0a11 10010000 		.4byte	0x110
 1425 0a15 00       		.byte	0
ARM GAS  /tmp/ccVCdOAw.s 			page 26


 1426 0a16 0A       		.uleb128 0xa
 1427 0a17 04       		.byte	0x4
 1428 0a18 32020000 		.4byte	0x232
 1429 0a1c 05       		.uleb128 0x5
 1430 0a1d 45060000 		.4byte	.LASF140
 1431 0a21 0C       		.byte	0xc
 1432 0a22 10       		.byte	0x10
 1433 0a23 34       		.byte	0x34
 1434 0a24 410A0000 		.4byte	0xa41
 1435 0a28 06       		.uleb128 0x6
 1436 0a29 7F030000 		.4byte	.LASF29
 1437 0a2d 10       		.byte	0x10
 1438 0a2e 35       		.byte	0x35
 1439 0a2f 67020000 		.4byte	0x267
 1440 0a33 00       		.byte	0
 1441 0a34 07       		.uleb128 0x7
 1442 0a35 636E7400 		.ascii	"cnt\000"
 1443 0a39 10       		.byte	0x10
 1444 0a3a 37       		.byte	0x37
 1445 0a3b 1B010000 		.4byte	0x11b
 1446 0a3f 08       		.byte	0x8
 1447 0a40 00       		.byte	0
 1448 0a41 0A       		.uleb128 0xa
 1449 0a42 04       		.byte	0x4
 1450 0a43 1C0A0000 		.4byte	0xa1c
 1451 0a47 05       		.uleb128 0x5
 1452 0a48 42070000 		.4byte	.LASF141
 1453 0a4c 10       		.byte	0x10
 1454 0a4d 11       		.byte	0x11
 1455 0a4e 39       		.byte	0x39
 1456 0a4f 780A0000 		.4byte	0xa78
 1457 0a53 06       		.uleb128 0x6
 1458 0a54 7F030000 		.4byte	.LASF29
 1459 0a58 11       		.byte	0x11
 1460 0a59 3A       		.byte	0x3a
 1461 0a5a 67020000 		.4byte	0x267
 1462 0a5e 00       		.byte	0
 1463 0a5f 06       		.uleb128 0x6
 1464 0a60 93060000 		.4byte	.LASF142
 1465 0a64 11       		.byte	0x11
 1466 0a65 3C       		.byte	0x3c
 1467 0a66 3D020000 		.4byte	0x23d
 1468 0a6a 08       		.byte	0x8
 1469 0a6b 06       		.uleb128 0x6
 1470 0a6c 27000000 		.4byte	.LASF49
 1471 0a70 11       		.byte	0x11
 1472 0a71 3E       		.byte	0x3e
 1473 0a72 AC0A0000 		.4byte	0xaac
 1474 0a76 0C       		.byte	0xc
 1475 0a77 00       		.byte	0
 1476 0a78 0A       		.uleb128 0xa
 1477 0a79 04       		.byte	0x4
 1478 0a7a 470A0000 		.4byte	0xa47
 1479 0a7e 0A       		.uleb128 0xa
 1480 0a7f 04       		.byte	0x4
 1481 0a80 840A0000 		.4byte	0xa84
 1482 0a84 18       		.uleb128 0x18
ARM GAS  /tmp/ccVCdOAw.s 			page 27


 1483 0a85 890A0000 		.4byte	0xa89
 1484 0a89 03       		.uleb128 0x3
 1485 0a8a 01       		.byte	0x1
 1486 0a8b 08       		.byte	0x8
 1487 0a8c B2060000 		.4byte	.LASF143
 1488 0a90 0A       		.uleb128 0xa
 1489 0a91 04       		.byte	0x4
 1490 0a92 6A060000 		.4byte	0x66a
 1491 0a96 0A       		.uleb128 0xa
 1492 0a97 04       		.byte	0x4
 1493 0a98 1C030000 		.4byte	0x31c
 1494 0a9c 0F       		.uleb128 0xf
 1495 0a9d 7E0A0000 		.4byte	0xa7e
 1496 0aa1 04       		.uleb128 0x4
 1497 0aa2 13080000 		.4byte	.LASF144
 1498 0aa6 11       		.byte	0x11
 1499 0aa7 34       		.byte	0x34
 1500 0aa8 470A0000 		.4byte	0xa47
 1501 0aac 0A       		.uleb128 0xa
 1502 0aad 04       		.byte	0x4
 1503 0aae A10A0000 		.4byte	0xaa1
 1504 0ab2 03       		.uleb128 0x3
 1505 0ab3 01       		.byte	0x1
 1506 0ab4 02       		.byte	0x2
 1507 0ab5 D8050000 		.4byte	.LASF145
 1508 0ab9 19       		.uleb128 0x19
 1509 0aba 1B070000 		.4byte	.LASF166
 1510 0abe 02       		.byte	0x2
 1511 0abf 0601     		.2byte	0x106
 1512 0ac1 03       		.byte	0x3
 1513 0ac2 D30A0000 		.4byte	0xad3
 1514 0ac6 1A       		.uleb128 0x1a
 1515 0ac7 4C020000 		.4byte	.LASF167
 1516 0acb 02       		.byte	0x2
 1517 0acc 0601     		.2byte	0x106
 1518 0ace AD000000 		.4byte	0xad
 1519 0ad2 00       		.byte	0
 1520 0ad3 1B       		.uleb128 0x1b
 1521 0ad4 8A000000 		.4byte	.LASF146
 1522 0ad8 0C       		.byte	0xc
 1523 0ad9 5202     		.2byte	0x252
 1524 0adb 03       		.byte	0x3
 1525 0adc 1B       		.uleb128 0x1b
 1526 0add A2010000 		.4byte	.LASF147
 1527 0ae1 0C       		.byte	0xc
 1528 0ae2 6A02     		.2byte	0x26a
 1529 0ae4 03       		.byte	0x3
 1530 0ae5 1B       		.uleb128 0x1b
 1531 0ae6 7A070000 		.4byte	.LASF148
 1532 0aea 0C       		.byte	0xc
 1533 0aeb 7902     		.2byte	0x279
 1534 0aed 03       		.byte	0x3
 1535 0aee 1B       		.uleb128 0x1b
 1536 0aef D2060000 		.4byte	.LASF149
 1537 0af3 0C       		.byte	0xc
 1538 0af4 8402     		.2byte	0x284
 1539 0af6 03       		.byte	0x3
ARM GAS  /tmp/ccVCdOAw.s 			page 28


 1540 0af7 1B       		.uleb128 0x1b
 1541 0af8 13020000 		.4byte	.LASF150
 1542 0afc 04       		.byte	0x4
 1543 0afd 0102     		.2byte	0x201
 1544 0aff 03       		.byte	0x3
 1545 0b00 1B       		.uleb128 0x1b
 1546 0b01 AA040000 		.4byte	.LASF151
 1547 0b05 04       		.byte	0x4
 1548 0b06 4702     		.2byte	0x247
 1549 0b08 03       		.byte	0x3
 1550 0b09 1B       		.uleb128 0x1b
 1551 0b0a F6000000 		.4byte	.LASF152
 1552 0b0e 04       		.byte	0x4
 1553 0b0f 0C02     		.2byte	0x20c
 1554 0b11 03       		.byte	0x3
 1555 0b12 1B       		.uleb128 0x1b
 1556 0b13 C8070000 		.4byte	.LASF153
 1557 0b17 03       		.byte	0x3
 1558 0b18 9E01     		.2byte	0x19e
 1559 0b1a 03       		.byte	0x3
 1560 0b1b 1B       		.uleb128 0x1b
 1561 0b1c BC050000 		.4byte	.LASF154
 1562 0b20 03       		.byte	0x3
 1563 0b21 B201     		.2byte	0x1b2
 1564 0b23 03       		.byte	0x3
 1565 0b24 1C       		.uleb128 0x1c
 1566 0b25 37040000 		.4byte	.LASF155
 1567 0b29 01       		.byte	0x1
 1568 0b2a EF       		.byte	0xef
 1569 0b2b 00000000 		.4byte	.LFB277
 1570 0b2f 34000000 		.4byte	.LFE277-.LFB277
 1571 0b33 01       		.uleb128 0x1
 1572 0b34 9C       		.byte	0x9c
 1573 0b35 450C0000 		.4byte	0xc45
 1574 0b39 1D       		.uleb128 0x1d
 1575 0b3a F70A0000 		.4byte	0xaf7
 1576 0b3e 12000000 		.4byte	.LBB48
 1577 0b42 0A000000 		.4byte	.LBE48-.LBB48
 1578 0b46 01       		.byte	0x1
 1579 0b47 F9       		.byte	0xf9
 1580 0b48 A70B0000 		.4byte	0xba7
 1581 0b4c 1E       		.uleb128 0x1e
 1582 0b4d 120B0000 		.4byte	0xb12
 1583 0b51 12000000 		.4byte	.LBB49
 1584 0b55 0A000000 		.4byte	.LBE49-.LBB49
 1585 0b59 04       		.byte	0x4
 1586 0b5a 0302     		.2byte	0x203
 1587 0b5c 1F       		.uleb128 0x1f
 1588 0b5d E50A0000 		.4byte	0xae5
 1589 0b61 12000000 		.4byte	.LBB51
 1590 0b65 06000000 		.4byte	.LBE51-.LBB51
 1591 0b69 03       		.byte	0x3
 1592 0b6a A001     		.2byte	0x1a0
 1593 0b6c 9C0B0000 		.4byte	0xb9c
 1594 0b70 1E       		.uleb128 0x1e
 1595 0b71 D30A0000 		.4byte	0xad3
 1596 0b75 12000000 		.4byte	.LBB52
ARM GAS  /tmp/ccVCdOAw.s 			page 29


 1597 0b79 06000000 		.4byte	.LBE52-.LBB52
 1598 0b7d 0C       		.byte	0xc
 1599 0b7e 7B02     		.2byte	0x27b
 1600 0b80 1E       		.uleb128 0x1e
 1601 0b81 B90A0000 		.4byte	0xab9
 1602 0b85 12000000 		.4byte	.LBB53
 1603 0b89 06000000 		.4byte	.LBE53-.LBB53
 1604 0b8d 0C       		.byte	0xc
 1605 0b8e 5A02     		.2byte	0x25a
 1606 0b90 20       		.uleb128 0x20
 1607 0b91 C60A0000 		.4byte	0xac6
 1608 0b95 00000000 		.4byte	.LLST0
 1609 0b99 00       		.byte	0
 1610 0b9a 00       		.byte	0
 1611 0b9b 00       		.byte	0
 1612 0b9c 21       		.uleb128 0x21
 1613 0b9d 1C000000 		.4byte	.LVL2
 1614 0ba1 8D0C0000 		.4byte	0xc8d
 1615 0ba5 00       		.byte	0
 1616 0ba6 00       		.byte	0
 1617 0ba7 1D       		.uleb128 0x1d
 1618 0ba8 000B0000 		.4byte	0xb00
 1619 0bac 1C000000 		.4byte	.LBB55
 1620 0bb0 04000000 		.4byte	.LBE55-.LBB55
 1621 0bb4 01       		.byte	0x1
 1622 0bb5 FA       		.byte	0xfa
 1623 0bb6 C40B0000 		.4byte	0xbc4
 1624 0bba 21       		.uleb128 0x21
 1625 0bbb 20000000 		.4byte	.LVL3
 1626 0bbf 940C0000 		.4byte	0xc94
 1627 0bc3 00       		.byte	0
 1628 0bc4 1D       		.uleb128 0x1d
 1629 0bc5 090B0000 		.4byte	0xb09
 1630 0bc9 20000000 		.4byte	.LBB57
 1631 0bcd 08000000 		.4byte	.LBE57-.LBB57
 1632 0bd1 01       		.byte	0x1
 1633 0bd2 FB       		.byte	0xfb
 1634 0bd3 320C0000 		.4byte	0xc32
 1635 0bd7 1E       		.uleb128 0x1e
 1636 0bd8 1B0B0000 		.4byte	0xb1b
 1637 0bdc 20000000 		.4byte	.LBB58
 1638 0be0 08000000 		.4byte	.LBE58-.LBB58
 1639 0be4 04       		.byte	0x4
 1640 0be5 0E02     		.2byte	0x20e
 1641 0be7 1F       		.uleb128 0x1f
 1642 0be8 EE0A0000 		.4byte	0xaee
 1643 0bec 24000000 		.4byte	.LBB60
 1644 0bf0 04000000 		.4byte	.LBE60-.LBB60
 1645 0bf4 03       		.byte	0x3
 1646 0bf5 B601     		.2byte	0x1b6
 1647 0bf7 270C0000 		.4byte	0xc27
 1648 0bfb 1E       		.uleb128 0x1e
 1649 0bfc DC0A0000 		.4byte	0xadc
 1650 0c00 24000000 		.4byte	.LBB61
 1651 0c04 04000000 		.4byte	.LBE61-.LBB61
 1652 0c08 0C       		.byte	0xc
 1653 0c09 8602     		.2byte	0x286
ARM GAS  /tmp/ccVCdOAw.s 			page 30


 1654 0c0b 1E       		.uleb128 0x1e
 1655 0c0c B90A0000 		.4byte	0xab9
 1656 0c10 24000000 		.4byte	.LBB62
 1657 0c14 04000000 		.4byte	.LBE62-.LBB62
 1658 0c18 0C       		.byte	0xc
 1659 0c19 6D02     		.2byte	0x26d
 1660 0c1b 20       		.uleb128 0x20
 1661 0c1c C60A0000 		.4byte	0xac6
 1662 0c20 15000000 		.4byte	.LLST1
 1663 0c24 00       		.byte	0
 1664 0c25 00       		.byte	0
 1665 0c26 00       		.byte	0
 1666 0c27 21       		.uleb128 0x21
 1667 0c28 24000000 		.4byte	.LVL4
 1668 0c2c 9C0C0000 		.4byte	0xc9c
 1669 0c30 00       		.byte	0
 1670 0c31 00       		.byte	0
 1671 0c32 21       		.uleb128 0x21
 1672 0c33 06000000 		.4byte	.LVL0
 1673 0c37 A30C0000 		.4byte	0xca3
 1674 0c3b 22       		.uleb128 0x22
 1675 0c3c 30000000 		.4byte	.LVL6
 1676 0c40 AA0C0000 		.4byte	0xcaa
 1677 0c44 00       		.byte	0
 1678 0c45 23       		.uleb128 0x23
 1679 0c46 0B010000 		.4byte	.LASF156
 1680 0c4a 01       		.byte	0x1
 1681 0c4b 0B01     		.2byte	0x10b
 1682 0c4d 00000000 		.4byte	.LFB278
 1683 0c51 44000000 		.4byte	.LFE278-.LFB278
 1684 0c55 01       		.uleb128 0x1
 1685 0c56 9C       		.byte	0x9c
 1686 0c57 710C0000 		.4byte	0xc71
 1687 0c5b 24       		.uleb128 0x24
 1688 0c5c 38000000 		.4byte	.LVL7
 1689 0c60 B20C0000 		.4byte	0xcb2
 1690 0c64 25       		.uleb128 0x25
 1691 0c65 01       		.uleb128 0x1
 1692 0c66 51       		.byte	0x51
 1693 0c67 01       		.uleb128 0x1
 1694 0c68 38       		.byte	0x38
 1695 0c69 25       		.uleb128 0x25
 1696 0c6a 01       		.uleb128 0x1
 1697 0c6b 50       		.byte	0x50
 1698 0c6c 02       		.uleb128 0x2
 1699 0c6d 08       		.byte	0x8
 1700 0c6e 32       		.byte	0x32
 1701 0c6f 00       		.byte	0
 1702 0c70 00       		.byte	0
 1703 0c71 26       		.uleb128 0x26
 1704 0c72 FB050000 		.4byte	.LASF157
 1705 0c76 12       		.byte	0x12
 1706 0c77 4407     		.2byte	0x744
 1707 0c79 7D0C0000 		.4byte	0xc7d
 1708 0c7d 0F       		.uleb128 0xf
 1709 0c7e A2000000 		.4byte	0xa2
 1710 0c82 27       		.uleb128 0x27
ARM GAS  /tmp/ccVCdOAw.s 			page 31


 1711 0c83 636800   		.ascii	"ch\000"
 1712 0c86 09       		.byte	0x9
 1713 0c87 D201     		.2byte	0x1d2
 1714 0c89 E9030000 		.4byte	0x3e9
 1715 0c8d 28       		.uleb128 0x28
 1716 0c8e 81040000 		.4byte	.LASF158
 1717 0c92 0F       		.byte	0xf
 1718 0c93 51       		.byte	0x51
 1719 0c94 29       		.uleb128 0x29
 1720 0c95 FF060000 		.4byte	.LASF159
 1721 0c99 03       		.byte	0x3
 1722 0c9a 3401     		.2byte	0x134
 1723 0c9c 28       		.uleb128 0x28
 1724 0c9d EE070000 		.4byte	.LASF160
 1725 0ca1 0F       		.byte	0xf
 1726 0ca2 52       		.byte	0x52
 1727 0ca3 28       		.uleb128 0x28
 1728 0ca4 6F060000 		.4byte	.LASF161
 1729 0ca8 0F       		.byte	0xf
 1730 0ca9 4D       		.byte	0x4d
 1731 0caa 29       		.uleb128 0x29
 1732 0cab E4030000 		.4byte	.LASF162
 1733 0caf 0C       		.byte	0xc
 1734 0cb0 EA01     		.2byte	0x1ea
 1735 0cb2 2A       		.uleb128 0x2a
 1736 0cb3 2F010000 		.4byte	.LASF168
 1737 0cb7 13       		.byte	0x13
 1738 0cb8 4E       		.byte	0x4e
 1739 0cb9 0D       		.uleb128 0xd
 1740 0cba AD000000 		.4byte	0xad
 1741 0cbe 0D       		.uleb128 0xd
 1742 0cbf AD000000 		.4byte	0xad
 1743 0cc3 00       		.byte	0
 1744 0cc4 00       		.byte	0
 1745              		.section	.debug_abbrev,"",%progbits
 1746              	.Ldebug_abbrev0:
 1747 0000 01       		.uleb128 0x1
 1748 0001 11       		.uleb128 0x11
 1749 0002 01       		.byte	0x1
 1750 0003 25       		.uleb128 0x25
 1751 0004 0E       		.uleb128 0xe
 1752 0005 13       		.uleb128 0x13
 1753 0006 0B       		.uleb128 0xb
 1754 0007 03       		.uleb128 0x3
 1755 0008 0E       		.uleb128 0xe
 1756 0009 1B       		.uleb128 0x1b
 1757 000a 0E       		.uleb128 0xe
 1758 000b 55       		.uleb128 0x55
 1759 000c 17       		.uleb128 0x17
 1760 000d 11       		.uleb128 0x11
 1761 000e 01       		.uleb128 0x1
 1762 000f 10       		.uleb128 0x10
 1763 0010 17       		.uleb128 0x17
 1764 0011 00       		.byte	0
 1765 0012 00       		.byte	0
 1766 0013 02       		.uleb128 0x2
 1767 0014 24       		.uleb128 0x24
ARM GAS  /tmp/ccVCdOAw.s 			page 32


 1768 0015 00       		.byte	0
 1769 0016 0B       		.uleb128 0xb
 1770 0017 0B       		.uleb128 0xb
 1771 0018 3E       		.uleb128 0x3e
 1772 0019 0B       		.uleb128 0xb
 1773 001a 03       		.uleb128 0x3
 1774 001b 08       		.uleb128 0x8
 1775 001c 00       		.byte	0
 1776 001d 00       		.byte	0
 1777 001e 03       		.uleb128 0x3
 1778 001f 24       		.uleb128 0x24
 1779 0020 00       		.byte	0
 1780 0021 0B       		.uleb128 0xb
 1781 0022 0B       		.uleb128 0xb
 1782 0023 3E       		.uleb128 0x3e
 1783 0024 0B       		.uleb128 0xb
 1784 0025 03       		.uleb128 0x3
 1785 0026 0E       		.uleb128 0xe
 1786 0027 00       		.byte	0
 1787 0028 00       		.byte	0
 1788 0029 04       		.uleb128 0x4
 1789 002a 16       		.uleb128 0x16
 1790 002b 00       		.byte	0
 1791 002c 03       		.uleb128 0x3
 1792 002d 0E       		.uleb128 0xe
 1793 002e 3A       		.uleb128 0x3a
 1794 002f 0B       		.uleb128 0xb
 1795 0030 3B       		.uleb128 0x3b
 1796 0031 0B       		.uleb128 0xb
 1797 0032 49       		.uleb128 0x49
 1798 0033 13       		.uleb128 0x13
 1799 0034 00       		.byte	0
 1800 0035 00       		.byte	0
 1801 0036 05       		.uleb128 0x5
 1802 0037 13       		.uleb128 0x13
 1803 0038 01       		.byte	0x1
 1804 0039 03       		.uleb128 0x3
 1805 003a 0E       		.uleb128 0xe
 1806 003b 0B       		.uleb128 0xb
 1807 003c 0B       		.uleb128 0xb
 1808 003d 3A       		.uleb128 0x3a
 1809 003e 0B       		.uleb128 0xb
 1810 003f 3B       		.uleb128 0x3b
 1811 0040 0B       		.uleb128 0xb
 1812 0041 01       		.uleb128 0x1
 1813 0042 13       		.uleb128 0x13
 1814 0043 00       		.byte	0
 1815 0044 00       		.byte	0
 1816 0045 06       		.uleb128 0x6
 1817 0046 0D       		.uleb128 0xd
 1818 0047 00       		.byte	0
 1819 0048 03       		.uleb128 0x3
 1820 0049 0E       		.uleb128 0xe
 1821 004a 3A       		.uleb128 0x3a
 1822 004b 0B       		.uleb128 0xb
 1823 004c 3B       		.uleb128 0x3b
 1824 004d 0B       		.uleb128 0xb
ARM GAS  /tmp/ccVCdOAw.s 			page 33


 1825 004e 49       		.uleb128 0x49
 1826 004f 13       		.uleb128 0x13
 1827 0050 38       		.uleb128 0x38
 1828 0051 0B       		.uleb128 0xb
 1829 0052 00       		.byte	0
 1830 0053 00       		.byte	0
 1831 0054 07       		.uleb128 0x7
 1832 0055 0D       		.uleb128 0xd
 1833 0056 00       		.byte	0
 1834 0057 03       		.uleb128 0x3
 1835 0058 08       		.uleb128 0x8
 1836 0059 3A       		.uleb128 0x3a
 1837 005a 0B       		.uleb128 0xb
 1838 005b 3B       		.uleb128 0x3b
 1839 005c 0B       		.uleb128 0xb
 1840 005d 49       		.uleb128 0x49
 1841 005e 13       		.uleb128 0x13
 1842 005f 38       		.uleb128 0x38
 1843 0060 0B       		.uleb128 0xb
 1844 0061 00       		.byte	0
 1845 0062 00       		.byte	0
 1846 0063 08       		.uleb128 0x8
 1847 0064 0D       		.uleb128 0xd
 1848 0065 00       		.byte	0
 1849 0066 03       		.uleb128 0x3
 1850 0067 08       		.uleb128 0x8
 1851 0068 3A       		.uleb128 0x3a
 1852 0069 0B       		.uleb128 0xb
 1853 006a 3B       		.uleb128 0x3b
 1854 006b 05       		.uleb128 0x5
 1855 006c 49       		.uleb128 0x49
 1856 006d 13       		.uleb128 0x13
 1857 006e 38       		.uleb128 0x38
 1858 006f 0B       		.uleb128 0xb
 1859 0070 00       		.byte	0
 1860 0071 00       		.byte	0
 1861 0072 09       		.uleb128 0x9
 1862 0073 0D       		.uleb128 0xd
 1863 0074 00       		.byte	0
 1864 0075 03       		.uleb128 0x3
 1865 0076 0E       		.uleb128 0xe
 1866 0077 3A       		.uleb128 0x3a
 1867 0078 0B       		.uleb128 0xb
 1868 0079 3B       		.uleb128 0x3b
 1869 007a 05       		.uleb128 0x5
 1870 007b 49       		.uleb128 0x49
 1871 007c 13       		.uleb128 0x13
 1872 007d 38       		.uleb128 0x38
 1873 007e 0B       		.uleb128 0xb
 1874 007f 00       		.byte	0
 1875 0080 00       		.byte	0
 1876 0081 0A       		.uleb128 0xa
 1877 0082 0F       		.uleb128 0xf
 1878 0083 00       		.byte	0
 1879 0084 0B       		.uleb128 0xb
 1880 0085 0B       		.uleb128 0xb
 1881 0086 49       		.uleb128 0x49
ARM GAS  /tmp/ccVCdOAw.s 			page 34


 1882 0087 13       		.uleb128 0x13
 1883 0088 00       		.byte	0
 1884 0089 00       		.byte	0
 1885 008a 0B       		.uleb128 0xb
 1886 008b 13       		.uleb128 0x13
 1887 008c 01       		.byte	0x1
 1888 008d 03       		.uleb128 0x3
 1889 008e 0E       		.uleb128 0xe
 1890 008f 0B       		.uleb128 0xb
 1891 0090 0B       		.uleb128 0xb
 1892 0091 3A       		.uleb128 0x3a
 1893 0092 0B       		.uleb128 0xb
 1894 0093 3B       		.uleb128 0x3b
 1895 0094 05       		.uleb128 0x5
 1896 0095 01       		.uleb128 0x1
 1897 0096 13       		.uleb128 0x13
 1898 0097 00       		.byte	0
 1899 0098 00       		.byte	0
 1900 0099 0C       		.uleb128 0xc
 1901 009a 15       		.uleb128 0x15
 1902 009b 01       		.byte	0x1
 1903 009c 27       		.uleb128 0x27
 1904 009d 19       		.uleb128 0x19
 1905 009e 01       		.uleb128 0x1
 1906 009f 13       		.uleb128 0x13
 1907 00a0 00       		.byte	0
 1908 00a1 00       		.byte	0
 1909 00a2 0D       		.uleb128 0xd
 1910 00a3 05       		.uleb128 0x5
 1911 00a4 00       		.byte	0
 1912 00a5 49       		.uleb128 0x49
 1913 00a6 13       		.uleb128 0x13
 1914 00a7 00       		.byte	0
 1915 00a8 00       		.byte	0
 1916 00a9 0E       		.uleb128 0xe
 1917 00aa 0F       		.uleb128 0xf
 1918 00ab 00       		.byte	0
 1919 00ac 0B       		.uleb128 0xb
 1920 00ad 0B       		.uleb128 0xb
 1921 00ae 00       		.byte	0
 1922 00af 00       		.byte	0
 1923 00b0 0F       		.uleb128 0xf
 1924 00b1 35       		.uleb128 0x35
 1925 00b2 00       		.byte	0
 1926 00b3 49       		.uleb128 0x49
 1927 00b4 13       		.uleb128 0x13
 1928 00b5 00       		.byte	0
 1929 00b6 00       		.byte	0
 1930 00b7 10       		.uleb128 0x10
 1931 00b8 01       		.uleb128 0x1
 1932 00b9 01       		.byte	0x1
 1933 00ba 49       		.uleb128 0x49
 1934 00bb 13       		.uleb128 0x13
 1935 00bc 01       		.uleb128 0x1
 1936 00bd 13       		.uleb128 0x13
 1937 00be 00       		.byte	0
 1938 00bf 00       		.byte	0
ARM GAS  /tmp/ccVCdOAw.s 			page 35


 1939 00c0 11       		.uleb128 0x11
 1940 00c1 21       		.uleb128 0x21
 1941 00c2 00       		.byte	0
 1942 00c3 49       		.uleb128 0x49
 1943 00c4 13       		.uleb128 0x13
 1944 00c5 2F       		.uleb128 0x2f
 1945 00c6 0B       		.uleb128 0xb
 1946 00c7 00       		.byte	0
 1947 00c8 00       		.byte	0
 1948 00c9 12       		.uleb128 0x12
 1949 00ca 13       		.uleb128 0x13
 1950 00cb 01       		.byte	0x1
 1951 00cc 0B       		.uleb128 0xb
 1952 00cd 0B       		.uleb128 0xb
 1953 00ce 3A       		.uleb128 0x3a
 1954 00cf 0B       		.uleb128 0xb
 1955 00d0 3B       		.uleb128 0x3b
 1956 00d1 05       		.uleb128 0x5
 1957 00d2 01       		.uleb128 0x1
 1958 00d3 13       		.uleb128 0x13
 1959 00d4 00       		.byte	0
 1960 00d5 00       		.byte	0
 1961 00d6 13       		.uleb128 0x13
 1962 00d7 16       		.uleb128 0x16
 1963 00d8 00       		.byte	0
 1964 00d9 03       		.uleb128 0x3
 1965 00da 0E       		.uleb128 0xe
 1966 00db 3A       		.uleb128 0x3a
 1967 00dc 0B       		.uleb128 0xb
 1968 00dd 3B       		.uleb128 0x3b
 1969 00de 05       		.uleb128 0x5
 1970 00df 49       		.uleb128 0x49
 1971 00e0 13       		.uleb128 0x13
 1972 00e1 00       		.byte	0
 1973 00e2 00       		.byte	0
 1974 00e3 14       		.uleb128 0x14
 1975 00e4 13       		.uleb128 0x13
 1976 00e5 01       		.byte	0x1
 1977 00e6 0B       		.uleb128 0xb
 1978 00e7 0B       		.uleb128 0xb
 1979 00e8 3A       		.uleb128 0x3a
 1980 00e9 0B       		.uleb128 0xb
 1981 00ea 3B       		.uleb128 0x3b
 1982 00eb 0B       		.uleb128 0xb
 1983 00ec 01       		.uleb128 0x1
 1984 00ed 13       		.uleb128 0x13
 1985 00ee 00       		.byte	0
 1986 00ef 00       		.byte	0
 1987 00f0 15       		.uleb128 0x15
 1988 00f1 17       		.uleb128 0x17
 1989 00f2 01       		.byte	0x1
 1990 00f3 0B       		.uleb128 0xb
 1991 00f4 0B       		.uleb128 0xb
 1992 00f5 3A       		.uleb128 0x3a
 1993 00f6 0B       		.uleb128 0xb
 1994 00f7 3B       		.uleb128 0x3b
 1995 00f8 0B       		.uleb128 0xb
ARM GAS  /tmp/ccVCdOAw.s 			page 36


 1996 00f9 01       		.uleb128 0x1
 1997 00fa 13       		.uleb128 0x13
 1998 00fb 00       		.byte	0
 1999 00fc 00       		.byte	0
 2000 00fd 16       		.uleb128 0x16
 2001 00fe 0D       		.uleb128 0xd
 2002 00ff 00       		.byte	0
 2003 0100 03       		.uleb128 0x3
 2004 0101 0E       		.uleb128 0xe
 2005 0102 3A       		.uleb128 0x3a
 2006 0103 0B       		.uleb128 0xb
 2007 0104 3B       		.uleb128 0x3b
 2008 0105 0B       		.uleb128 0xb
 2009 0106 49       		.uleb128 0x49
 2010 0107 13       		.uleb128 0x13
 2011 0108 00       		.byte	0
 2012 0109 00       		.byte	0
 2013 010a 17       		.uleb128 0x17
 2014 010b 0D       		.uleb128 0xd
 2015 010c 00       		.byte	0
 2016 010d 03       		.uleb128 0x3
 2017 010e 0E       		.uleb128 0xe
 2018 010f 3A       		.uleb128 0x3a
 2019 0110 0B       		.uleb128 0xb
 2020 0111 3B       		.uleb128 0x3b
 2021 0112 05       		.uleb128 0x5
 2022 0113 49       		.uleb128 0x49
 2023 0114 13       		.uleb128 0x13
 2024 0115 00       		.byte	0
 2025 0116 00       		.byte	0
 2026 0117 18       		.uleb128 0x18
 2027 0118 26       		.uleb128 0x26
 2028 0119 00       		.byte	0
 2029 011a 49       		.uleb128 0x49
 2030 011b 13       		.uleb128 0x13
 2031 011c 00       		.byte	0
 2032 011d 00       		.byte	0
 2033 011e 19       		.uleb128 0x19
 2034 011f 2E       		.uleb128 0x2e
 2035 0120 01       		.byte	0x1
 2036 0121 03       		.uleb128 0x3
 2037 0122 0E       		.uleb128 0xe
 2038 0123 3A       		.uleb128 0x3a
 2039 0124 0B       		.uleb128 0xb
 2040 0125 3B       		.uleb128 0x3b
 2041 0126 05       		.uleb128 0x5
 2042 0127 27       		.uleb128 0x27
 2043 0128 19       		.uleb128 0x19
 2044 0129 20       		.uleb128 0x20
 2045 012a 0B       		.uleb128 0xb
 2046 012b 01       		.uleb128 0x1
 2047 012c 13       		.uleb128 0x13
 2048 012d 00       		.byte	0
 2049 012e 00       		.byte	0
 2050 012f 1A       		.uleb128 0x1a
 2051 0130 05       		.uleb128 0x5
 2052 0131 00       		.byte	0
ARM GAS  /tmp/ccVCdOAw.s 			page 37


 2053 0132 03       		.uleb128 0x3
 2054 0133 0E       		.uleb128 0xe
 2055 0134 3A       		.uleb128 0x3a
 2056 0135 0B       		.uleb128 0xb
 2057 0136 3B       		.uleb128 0x3b
 2058 0137 05       		.uleb128 0x5
 2059 0138 49       		.uleb128 0x49
 2060 0139 13       		.uleb128 0x13
 2061 013a 00       		.byte	0
 2062 013b 00       		.byte	0
 2063 013c 1B       		.uleb128 0x1b
 2064 013d 2E       		.uleb128 0x2e
 2065 013e 00       		.byte	0
 2066 013f 03       		.uleb128 0x3
 2067 0140 0E       		.uleb128 0xe
 2068 0141 3A       		.uleb128 0x3a
 2069 0142 0B       		.uleb128 0xb
 2070 0143 3B       		.uleb128 0x3b
 2071 0144 05       		.uleb128 0x5
 2072 0145 27       		.uleb128 0x27
 2073 0146 19       		.uleb128 0x19
 2074 0147 20       		.uleb128 0x20
 2075 0148 0B       		.uleb128 0xb
 2076 0149 00       		.byte	0
 2077 014a 00       		.byte	0
 2078 014b 1C       		.uleb128 0x1c
 2079 014c 2E       		.uleb128 0x2e
 2080 014d 01       		.byte	0x1
 2081 014e 3F       		.uleb128 0x3f
 2082 014f 19       		.uleb128 0x19
 2083 0150 03       		.uleb128 0x3
 2084 0151 0E       		.uleb128 0xe
 2085 0152 3A       		.uleb128 0x3a
 2086 0153 0B       		.uleb128 0xb
 2087 0154 3B       		.uleb128 0x3b
 2088 0155 0B       		.uleb128 0xb
 2089 0156 27       		.uleb128 0x27
 2090 0157 19       		.uleb128 0x19
 2091 0158 11       		.uleb128 0x11
 2092 0159 01       		.uleb128 0x1
 2093 015a 12       		.uleb128 0x12
 2094 015b 06       		.uleb128 0x6
 2095 015c 40       		.uleb128 0x40
 2096 015d 18       		.uleb128 0x18
 2097 015e 9742     		.uleb128 0x2117
 2098 0160 19       		.uleb128 0x19
 2099 0161 01       		.uleb128 0x1
 2100 0162 13       		.uleb128 0x13
 2101 0163 00       		.byte	0
 2102 0164 00       		.byte	0
 2103 0165 1D       		.uleb128 0x1d
 2104 0166 1D       		.uleb128 0x1d
 2105 0167 01       		.byte	0x1
 2106 0168 31       		.uleb128 0x31
 2107 0169 13       		.uleb128 0x13
 2108 016a 11       		.uleb128 0x11
 2109 016b 01       		.uleb128 0x1
ARM GAS  /tmp/ccVCdOAw.s 			page 38


 2110 016c 12       		.uleb128 0x12
 2111 016d 06       		.uleb128 0x6
 2112 016e 58       		.uleb128 0x58
 2113 016f 0B       		.uleb128 0xb
 2114 0170 59       		.uleb128 0x59
 2115 0171 0B       		.uleb128 0xb
 2116 0172 01       		.uleb128 0x1
 2117 0173 13       		.uleb128 0x13
 2118 0174 00       		.byte	0
 2119 0175 00       		.byte	0
 2120 0176 1E       		.uleb128 0x1e
 2121 0177 1D       		.uleb128 0x1d
 2122 0178 01       		.byte	0x1
 2123 0179 31       		.uleb128 0x31
 2124 017a 13       		.uleb128 0x13
 2125 017b 11       		.uleb128 0x11
 2126 017c 01       		.uleb128 0x1
 2127 017d 12       		.uleb128 0x12
 2128 017e 06       		.uleb128 0x6
 2129 017f 58       		.uleb128 0x58
 2130 0180 0B       		.uleb128 0xb
 2131 0181 59       		.uleb128 0x59
 2132 0182 05       		.uleb128 0x5
 2133 0183 00       		.byte	0
 2134 0184 00       		.byte	0
 2135 0185 1F       		.uleb128 0x1f
 2136 0186 1D       		.uleb128 0x1d
 2137 0187 01       		.byte	0x1
 2138 0188 31       		.uleb128 0x31
 2139 0189 13       		.uleb128 0x13
 2140 018a 11       		.uleb128 0x11
 2141 018b 01       		.uleb128 0x1
 2142 018c 12       		.uleb128 0x12
 2143 018d 06       		.uleb128 0x6
 2144 018e 58       		.uleb128 0x58
 2145 018f 0B       		.uleb128 0xb
 2146 0190 59       		.uleb128 0x59
 2147 0191 05       		.uleb128 0x5
 2148 0192 01       		.uleb128 0x1
 2149 0193 13       		.uleb128 0x13
 2150 0194 00       		.byte	0
 2151 0195 00       		.byte	0
 2152 0196 20       		.uleb128 0x20
 2153 0197 05       		.uleb128 0x5
 2154 0198 00       		.byte	0
 2155 0199 31       		.uleb128 0x31
 2156 019a 13       		.uleb128 0x13
 2157 019b 02       		.uleb128 0x2
 2158 019c 17       		.uleb128 0x17
 2159 019d 00       		.byte	0
 2160 019e 00       		.byte	0
 2161 019f 21       		.uleb128 0x21
 2162 01a0 898201   		.uleb128 0x4109
 2163 01a3 00       		.byte	0
 2164 01a4 11       		.uleb128 0x11
 2165 01a5 01       		.uleb128 0x1
 2166 01a6 31       		.uleb128 0x31
ARM GAS  /tmp/ccVCdOAw.s 			page 39


 2167 01a7 13       		.uleb128 0x13
 2168 01a8 00       		.byte	0
 2169 01a9 00       		.byte	0
 2170 01aa 22       		.uleb128 0x22
 2171 01ab 898201   		.uleb128 0x4109
 2172 01ae 00       		.byte	0
 2173 01af 11       		.uleb128 0x11
 2174 01b0 01       		.uleb128 0x1
 2175 01b1 9542     		.uleb128 0x2115
 2176 01b3 19       		.uleb128 0x19
 2177 01b4 31       		.uleb128 0x31
 2178 01b5 13       		.uleb128 0x13
 2179 01b6 00       		.byte	0
 2180 01b7 00       		.byte	0
 2181 01b8 23       		.uleb128 0x23
 2182 01b9 2E       		.uleb128 0x2e
 2183 01ba 01       		.byte	0x1
 2184 01bb 3F       		.uleb128 0x3f
 2185 01bc 19       		.uleb128 0x19
 2186 01bd 03       		.uleb128 0x3
 2187 01be 0E       		.uleb128 0xe
 2188 01bf 3A       		.uleb128 0x3a
 2189 01c0 0B       		.uleb128 0xb
 2190 01c1 3B       		.uleb128 0x3b
 2191 01c2 05       		.uleb128 0x5
 2192 01c3 27       		.uleb128 0x27
 2193 01c4 19       		.uleb128 0x19
 2194 01c5 11       		.uleb128 0x11
 2195 01c6 01       		.uleb128 0x1
 2196 01c7 12       		.uleb128 0x12
 2197 01c8 06       		.uleb128 0x6
 2198 01c9 40       		.uleb128 0x40
 2199 01ca 18       		.uleb128 0x18
 2200 01cb 9742     		.uleb128 0x2117
 2201 01cd 19       		.uleb128 0x19
 2202 01ce 01       		.uleb128 0x1
 2203 01cf 13       		.uleb128 0x13
 2204 01d0 00       		.byte	0
 2205 01d1 00       		.byte	0
 2206 01d2 24       		.uleb128 0x24
 2207 01d3 898201   		.uleb128 0x4109
 2208 01d6 01       		.byte	0x1
 2209 01d7 11       		.uleb128 0x11
 2210 01d8 01       		.uleb128 0x1
 2211 01d9 9542     		.uleb128 0x2115
 2212 01db 19       		.uleb128 0x19
 2213 01dc 31       		.uleb128 0x31
 2214 01dd 13       		.uleb128 0x13
 2215 01de 00       		.byte	0
 2216 01df 00       		.byte	0
 2217 01e0 25       		.uleb128 0x25
 2218 01e1 8A8201   		.uleb128 0x410a
 2219 01e4 00       		.byte	0
 2220 01e5 02       		.uleb128 0x2
 2221 01e6 18       		.uleb128 0x18
 2222 01e7 9142     		.uleb128 0x2111
 2223 01e9 18       		.uleb128 0x18
ARM GAS  /tmp/ccVCdOAw.s 			page 40


 2224 01ea 00       		.byte	0
 2225 01eb 00       		.byte	0
 2226 01ec 26       		.uleb128 0x26
 2227 01ed 34       		.uleb128 0x34
 2228 01ee 00       		.byte	0
 2229 01ef 03       		.uleb128 0x3
 2230 01f0 0E       		.uleb128 0xe
 2231 01f1 3A       		.uleb128 0x3a
 2232 01f2 0B       		.uleb128 0xb
 2233 01f3 3B       		.uleb128 0x3b
 2234 01f4 05       		.uleb128 0x5
 2235 01f5 49       		.uleb128 0x49
 2236 01f6 13       		.uleb128 0x13
 2237 01f7 3F       		.uleb128 0x3f
 2238 01f8 19       		.uleb128 0x19
 2239 01f9 3C       		.uleb128 0x3c
 2240 01fa 19       		.uleb128 0x19
 2241 01fb 00       		.byte	0
 2242 01fc 00       		.byte	0
 2243 01fd 27       		.uleb128 0x27
 2244 01fe 34       		.uleb128 0x34
 2245 01ff 00       		.byte	0
 2246 0200 03       		.uleb128 0x3
 2247 0201 08       		.uleb128 0x8
 2248 0202 3A       		.uleb128 0x3a
 2249 0203 0B       		.uleb128 0xb
 2250 0204 3B       		.uleb128 0x3b
 2251 0205 05       		.uleb128 0x5
 2252 0206 49       		.uleb128 0x49
 2253 0207 13       		.uleb128 0x13
 2254 0208 3F       		.uleb128 0x3f
 2255 0209 19       		.uleb128 0x19
 2256 020a 3C       		.uleb128 0x3c
 2257 020b 19       		.uleb128 0x19
 2258 020c 00       		.byte	0
 2259 020d 00       		.byte	0
 2260 020e 28       		.uleb128 0x28
 2261 020f 2E       		.uleb128 0x2e
 2262 0210 00       		.byte	0
 2263 0211 3F       		.uleb128 0x3f
 2264 0212 19       		.uleb128 0x19
 2265 0213 03       		.uleb128 0x3
 2266 0214 0E       		.uleb128 0xe
 2267 0215 3A       		.uleb128 0x3a
 2268 0216 0B       		.uleb128 0xb
 2269 0217 3B       		.uleb128 0x3b
 2270 0218 0B       		.uleb128 0xb
 2271 0219 27       		.uleb128 0x27
 2272 021a 19       		.uleb128 0x19
 2273 021b 3C       		.uleb128 0x3c
 2274 021c 19       		.uleb128 0x19
 2275 021d 00       		.byte	0
 2276 021e 00       		.byte	0
 2277 021f 29       		.uleb128 0x29
 2278 0220 2E       		.uleb128 0x2e
 2279 0221 00       		.byte	0
 2280 0222 3F       		.uleb128 0x3f
ARM GAS  /tmp/ccVCdOAw.s 			page 41


 2281 0223 19       		.uleb128 0x19
 2282 0224 03       		.uleb128 0x3
 2283 0225 0E       		.uleb128 0xe
 2284 0226 3A       		.uleb128 0x3a
 2285 0227 0B       		.uleb128 0xb
 2286 0228 3B       		.uleb128 0x3b
 2287 0229 05       		.uleb128 0x5
 2288 022a 27       		.uleb128 0x27
 2289 022b 19       		.uleb128 0x19
 2290 022c 3C       		.uleb128 0x3c
 2291 022d 19       		.uleb128 0x19
 2292 022e 00       		.byte	0
 2293 022f 00       		.byte	0
 2294 0230 2A       		.uleb128 0x2a
 2295 0231 2E       		.uleb128 0x2e
 2296 0232 01       		.byte	0x1
 2297 0233 3F       		.uleb128 0x3f
 2298 0234 19       		.uleb128 0x19
 2299 0235 03       		.uleb128 0x3
 2300 0236 0E       		.uleb128 0xe
 2301 0237 3A       		.uleb128 0x3a
 2302 0238 0B       		.uleb128 0xb
 2303 0239 3B       		.uleb128 0x3b
 2304 023a 0B       		.uleb128 0xb
 2305 023b 27       		.uleb128 0x27
 2306 023c 19       		.uleb128 0x19
 2307 023d 3C       		.uleb128 0x3c
 2308 023e 19       		.uleb128 0x19
 2309 023f 00       		.byte	0
 2310 0240 00       		.byte	0
 2311 0241 00       		.byte	0
 2312              		.section	.debug_loc,"",%progbits
 2313              	.Ldebug_loc0:
 2314              	.LLST0:
 2315 0000 12000000 		.4byte	.LVL1
 2316 0004 28000000 		.4byte	.LVL5
 2317 0008 0300     		.2byte	0x3
 2318 000a 08       		.byte	0x8
 2319 000b 20       		.byte	0x20
 2320 000c 9F       		.byte	0x9f
 2321 000d 00000000 		.4byte	0
 2322 0011 00000000 		.4byte	0
 2323              	.LLST1:
 2324 0015 24000000 		.4byte	.LVL4
 2325 0019 28000000 		.4byte	.LVL5
 2326 001d 0200     		.2byte	0x2
 2327 001f 30       		.byte	0x30
 2328 0020 9F       		.byte	0x9f
 2329 0021 00000000 		.4byte	0
 2330 0025 00000000 		.4byte	0
 2331              		.section	.debug_aranges,"",%progbits
 2332 0000 24000000 		.4byte	0x24
 2333 0004 0200     		.2byte	0x2
 2334 0006 00000000 		.4byte	.Ldebug_info0
 2335 000a 04       		.byte	0x4
 2336 000b 00       		.byte	0
 2337 000c 0000     		.2byte	0
ARM GAS  /tmp/ccVCdOAw.s 			page 42


 2338 000e 0000     		.2byte	0
 2339 0010 00000000 		.4byte	.LFB277
 2340 0014 34000000 		.4byte	.LFE277-.LFB277
 2341 0018 00000000 		.4byte	.LFB278
 2342 001c 44000000 		.4byte	.LFE278-.LFB278
 2343 0020 00000000 		.4byte	0
 2344 0024 00000000 		.4byte	0
 2345              		.section	.debug_ranges,"",%progbits
 2346              	.Ldebug_ranges0:
 2347 0000 00000000 		.4byte	.LFB277
 2348 0004 34000000 		.4byte	.LFE277
 2349 0008 00000000 		.4byte	.LFB278
 2350 000c 44000000 		.4byte	.LFE278
 2351 0010 00000000 		.4byte	0
 2352 0014 00000000 		.4byte	0
 2353              		.section	.debug_line,"",%progbits
 2354              	.Ldebug_line0:
 2355 0000 1C030000 		.section	.debug_str,"MS",%progbits,1
 2355      0200C402 
 2355      00000201 
 2355      FB0E0D00 
 2355      01010101 
 2356              	.LASF46:
 2357 0000 74687265 		.ascii	"threads_list_t\000"
 2357      6164735F 
 2357      6C697374 
 2357      5F7400
 2358              	.LASF53:
 2359 000f 72656164 		.ascii	"ready_list_t\000"
 2359      795F6C69 
 2359      73745F74 
 2359      00
 2360              	.LASF111:
 2361 001c 44494552 		.ascii	"DIER\000"
 2361      00
 2362              	.LASF135:
 2363 0021 77747472 		.ascii	"wttrp\000"
 2363      7000
 2364              	.LASF49:
 2365 0027 6E657874 		.ascii	"next\000"
 2365      00
 2366              	.LASF59:
 2367 002c 64656C74 		.ascii	"delta\000"
 2367      6100
 2368              	.LASF132:
 2369 0032 7264796D 		.ascii	"rdymsg\000"
 2369      736700
 2370              	.LASF16:
 2371 0039 75696E74 		.ascii	"uint64_t\000"
 2371      36345F74 
 2371      00
 2372              	.LASF72:
 2373 0042 6B65726E 		.ascii	"kernel_stats\000"
 2373      656C5F73 
 2373      74617473 
 2373      00
 2374              	.LASF5:
ARM GAS  /tmp/ccVCdOAw.s 			page 43


 2375 004f 5F5F7569 		.ascii	"__uint8_t\000"
 2375      6E74385F 
 2375      7400
 2376              	.LASF52:
 2377 0059 70726576 		.ascii	"prev\000"
 2377      00
 2378              	.LASF109:
 2379 005e 706F7274 		.ascii	"port_intctx\000"
 2379      5F696E74 
 2379      63747800 
 2380              	.LASF51:
 2381 006a 63685F74 		.ascii	"ch_threads_queue\000"
 2381      68726561 
 2381      64735F71 
 2381      75657565 
 2381      00
 2382              	.LASF64:
 2383 007b 73797374 		.ascii	"system_debug_t\000"
 2383      656D5F64 
 2383      65627567 
 2383      5F7400
 2384              	.LASF146:
 2385 008a 706F7274 		.ascii	"port_lock\000"
 2385      5F6C6F63 
 2385      6B00
 2386              	.LASF123:
 2387 0094 776F7273 		.ascii	"worst\000"
 2387      7400
 2388              	.LASF126:
 2389 009a 74696D65 		.ascii	"time_measurement_t\000"
 2389      5F6D6561 
 2389      73757265 
 2389      6D656E74 
 2389      5F7400
 2390              	.LASF12:
 2391 00ad 6C6F6E67 		.ascii	"long long unsigned int\000"
 2391      206C6F6E 
 2391      6720756E 
 2391      7369676E 
 2391      65642069 
 2392              	.LASF133:
 2393 00c4 65786974 		.ascii	"exitcode\000"
 2393      636F6465 
 2393      00
 2394              	.LASF71:
 2395 00cd 6D61696E 		.ascii	"mainthread\000"
 2395      74687265 
 2395      616400
 2396              	.LASF136:
 2397 00d8 73656E74 		.ascii	"sentmsg\000"
 2397      6D736700 
 2398              	.LASF61:
 2399 00e0 76697274 		.ascii	"virtual_timers_list_t\000"
 2399      75616C5F 
 2399      74696D65 
 2399      72735F6C 
 2399      6973745F 
ARM GAS  /tmp/ccVCdOAw.s 			page 44


 2400              	.LASF152:
 2401 00f6 6F73616C 		.ascii	"osalSysUnlockFromISR\000"
 2401      53797355 
 2401      6E6C6F63 
 2401      6B46726F 
 2401      6D495352 
 2402              	.LASF156:
 2403 010b 73745F6C 		.ascii	"st_lld_init\000"
 2403      6C645F69 
 2403      6E697400 
 2404              	.LASF115:
 2405 0117 42445452 		.ascii	"BDTR\000"
 2405      00
 2406              	.LASF18:
 2407 011c 72747469 		.ascii	"rttime_t\000"
 2407      6D655F74 
 2407      00
 2408              	.LASF94:
 2409 0125 41484231 		.ascii	"AHB1LPENR\000"
 2409      4C50454E 
 2409      5200
 2410              	.LASF168:
 2411 012f 6E766963 		.ascii	"nvicEnableVector\000"
 2411      456E6162 
 2411      6C655665 
 2411      63746F72 
 2411      00
 2412              	.LASF37:
 2413 0140 72656673 		.ascii	"refs\000"
 2413      00
 2414              	.LASF112:
 2415 0145 43434D52 		.ascii	"CCMR1\000"
 2415      3100
 2416              	.LASF113:
 2417 014b 43434D52 		.ascii	"CCMR2\000"
 2417      3200
 2418              	.LASF117:
 2419 0151 43434D52 		.ascii	"CCMR3\000"
 2419      3300
 2420              	.LASF1:
 2421 0157 7369676E 		.ascii	"signed char\000"
 2421      65642063 
 2421      68617200 
 2422              	.LASF80:
 2423 0163 41484231 		.ascii	"AHB1RSTR\000"
 2423      52535452 
 2423      00
 2424              	.LASF70:
 2425 016c 76746C69 		.ascii	"vtlist\000"
 2425      737400
 2426              	.LASF165:
 2427 0173 2F686F6D 		.ascii	"/home/kozinalexey/f4by/ardupilot/build/f4by-ch\000"
 2427      652F6B6F 
 2427      7A696E61 
 2427      6C657865 
 2427      792F6634 
 2428              	.LASF147:
ARM GAS  /tmp/ccVCdOAw.s 			page 45


 2429 01a2 706F7274 		.ascii	"port_unlock\000"
 2429      5F756E6C 
 2429      6F636B00 
 2430              	.LASF39:
 2431 01ae 6D736771 		.ascii	"msgqueue\000"
 2431      75657565 
 2431      00
 2432              	.LASF35:
 2433 01b7 73746174 		.ascii	"state\000"
 2433      6500
 2434              	.LASF68:
 2435 01bd 63685F73 		.ascii	"ch_system\000"
 2435      79737465 
 2435      6D00
 2436              	.LASF7:
 2437 01c7 6C6F6E67 		.ascii	"long int\000"
 2437      20696E74 
 2437      00
 2438              	.LASF85:
 2439 01d0 41504232 		.ascii	"APB2RSTR\000"
 2439      52535452 
 2439      00
 2440              	.LASF98:
 2441 01d9 41504231 		.ascii	"APB1LPENR\000"
 2441      4C50454E 
 2441      5200
 2442              	.LASF20:
 2443 01e3 74737461 		.ascii	"tstate_t\000"
 2443      74655F74 
 2443      00
 2444              	.LASF60:
 2445 01ec 66756E63 		.ascii	"func\000"
 2445      00
 2446              	.LASF44:
 2447 01f1 73746174 		.ascii	"stats\000"
 2447      7300
 2448              	.LASF78:
 2449 01f7 504C4C43 		.ascii	"PLLCFGR\000"
 2449      46475200 
 2450              	.LASF8:
 2451 01ff 5F5F7569 		.ascii	"__uint32_t\000"
 2451      6E743332 
 2451      5F7400
 2452              	.LASF106:
 2453 020a 72656761 		.ascii	"regarm_t\000"
 2453      726D5F74 
 2453      00
 2454              	.LASF150:
 2455 0213 6F73616C 		.ascii	"osalSysLockFromISR\000"
 2455      5379734C 
 2455      6F636B46 
 2455      726F6D49 
 2455      535200
 2456              	.LASF65:
 2457 0226 63685F73 		.ascii	"ch_system_debug\000"
 2457      79737465 
 2457      6D5F6465 
ARM GAS  /tmp/ccVCdOAw.s 			page 46


 2457      62756700 
 2458              	.LASF38:
 2459 0236 77616974 		.ascii	"waiting\000"
 2459      696E6700 
 2460              	.LASF10:
 2461 023e 6C6F6E67 		.ascii	"long long int\000"
 2461      206C6F6E 
 2461      6720696E 
 2461      7400
 2462              	.LASF167:
 2463 024c 76616C75 		.ascii	"value\000"
 2463      6500
 2464              	.LASF108:
 2465 0252 706F7274 		.ascii	"port_context\000"
 2465      5F636F6E 
 2465      74657874 
 2465      00
 2466              	.LASF25:
 2467 025f 636E745F 		.ascii	"cnt_t\000"
 2467      7400
 2468              	.LASF0:
 2469 0265 756E7369 		.ascii	"unsigned int\000"
 2469      676E6564 
 2469      20696E74 
 2469      00
 2470              	.LASF163:
 2471 0272 474E5520 		.ascii	"GNU C 4.9.3 20150529 (prerelease) -mcpu=cortex-m4 -"
 2471      4320342E 
 2471      392E3320 
 2471      32303135 
 2471      30353239 
 2472 02a5 6D666C6F 		.ascii	"mfloat-abi=hard -mfpu=fpv4-sp-d16 -mno-thumb-interw"
 2472      61742D61 
 2472      62693D68 
 2472      61726420 
 2472      2D6D6670 
 2473 02d8 6F726B20 		.ascii	"ork -mthumb -g -Os -fomit-frame-pointer -falign-fun"
 2473      2D6D7468 
 2473      756D6220 
 2473      2D67202D 
 2473      4F73202D 
 2474 030b 6374696F 		.ascii	"ctions=16 -ffunction-sections -fdata-sections -fno-"
 2474      6E733D31 
 2474      36202D66 
 2474      66756E63 
 2474      74696F6E 
 2475 033e 636F6D6D 		.ascii	"common -fsingle-precision-constant\000"
 2475      6F6E202D 
 2475      6673696E 
 2475      676C652D 
 2475      70726563 
 2476              	.LASF137:
 2477 0361 77747365 		.ascii	"wtsemp\000"
 2477      6D7000
 2478              	.LASF105:
 2479 0368 5243435F 		.ascii	"RCC_TypeDef\000"
 2479      54797065 
ARM GAS  /tmp/ccVCdOAw.s 			page 47


 2479      44656600 
 2480              	.LASF124:
 2481 0374 6C617374 		.ascii	"last\000"
 2481      00
 2482              	.LASF127:
 2483 0379 6E5F6972 		.ascii	"n_irq\000"
 2483      7100
 2484              	.LASF29:
 2485 037f 71756575 		.ascii	"queue\000"
 2485      6500
 2486              	.LASF43:
 2487 0385 6D706F6F 		.ascii	"mpool\000"
 2487      6C00
 2488              	.LASF122:
 2489 038b 62657374 		.ascii	"best\000"
 2489      00
 2490              	.LASF110:
 2491 0390 534D4352 		.ascii	"SMCR\000"
 2491      00
 2492              	.LASF131:
 2493 0395 6B65726E 		.ascii	"kernel_stats_t\000"
 2493      656C5F73 
 2493      74617473 
 2493      5F7400
 2494              	.LASF33:
 2495 03a4 6E616D65 		.ascii	"name\000"
 2495      00
 2496              	.LASF47:
 2497 03a9 63685F74 		.ascii	"ch_thread\000"
 2497      68726561 
 2497      6400
 2498              	.LASF104:
 2499 03b3 504C4C49 		.ascii	"PLLI2SCFGR\000"
 2499      32534346 
 2499      475200
 2500              	.LASF23:
 2501 03be 6D73675F 		.ascii	"msg_t\000"
 2501      7400
 2502              	.LASF82:
 2503 03c4 41484233 		.ascii	"AHB3RSTR\000"
 2503      52535452 
 2503      00
 2504              	.LASF26:
 2505 03cd 75636E74 		.ascii	"ucnt_t\000"
 2505      5F7400
 2506              	.LASF40:
 2507 03d4 6570656E 		.ascii	"epending\000"
 2507      64696E67 
 2507      00
 2508              	.LASF76:
 2509 03dd 41504232 		.ascii	"APB2FZ\000"
 2509      465A00
 2510              	.LASF162:
 2511 03e4 5F706F72 		.ascii	"_port_irq_epilogue\000"
 2511      745F6972 
 2511      715F6570 
 2511      696C6F67 
ARM GAS  /tmp/ccVCdOAw.s 			page 48


 2511      756500
 2512              	.LASF164:
 2513 03f7 2E2E2F2E 		.ascii	"../../modules/ChibiOS/os/hal/ports/STM32/LLD/TIMv1/"
 2513      2E2F6D6F 
 2513      64756C65 
 2513      732F4368 
 2513      6962694F 
 2514 042a 68616C5F 		.ascii	"hal_st_lld.c\000"
 2514      73745F6C 
 2514      6C642E63 
 2514      00
 2515              	.LASF155:
 2516 0437 56656374 		.ascii	"Vector108\000"
 2516      6F723130 
 2516      3800
 2517              	.LASF134:
 2518 0441 77746F62 		.ascii	"wtobjp\000"
 2518      6A7000
 2519              	.LASF99:
 2520 0448 41504232 		.ascii	"APB2LPENR\000"
 2520      4C50454E 
 2520      5200
 2521              	.LASF130:
 2522 0452 6D5F6372 		.ascii	"m_crit_isr\000"
 2522      69745F69 
 2522      737200
 2523              	.LASF54:
 2524 045d 63685F72 		.ascii	"ch_ready_list\000"
 2524      65616479 
 2524      5F6C6973 
 2524      7400
 2525              	.LASF24:
 2526 046b 6576656E 		.ascii	"eventmask_t\000"
 2526      746D6173 
 2526      6B5F7400 
 2527              	.LASF6:
 2528 0477 5F5F696E 		.ascii	"__int32_t\000"
 2528      7433325F 
 2528      7400
 2529              	.LASF158:
 2530 0481 5F737461 		.ascii	"_stats_start_measure_crit_isr\000"
 2530      74735F73 
 2530      74617274 
 2530      5F6D6561 
 2530      73757265 
 2531              	.LASF107:
 2532 049f 73746B61 		.ascii	"stkalign_t\000"
 2532      6C69676E 
 2532      5F7400
 2533              	.LASF151:
 2534 04aa 6F73616C 		.ascii	"osalOsTimerHandlerI\000"
 2534      4F735469 
 2534      6D657248 
 2534      616E646C 
 2534      65724900 
 2535              	.LASF31:
 2536 04be 6E657765 		.ascii	"newer\000"
ARM GAS  /tmp/ccVCdOAw.s 			page 49


 2536      7200
 2537              	.LASF57:
 2538 04c4 76697274 		.ascii	"virtual_timer_t\000"
 2538      75616C5F 
 2538      74696D65 
 2538      725F7400 
 2539              	.LASF42:
 2540 04d4 7265616C 		.ascii	"realprio\000"
 2540      7072696F 
 2540      00
 2541              	.LASF73:
 2542 04dd 73697A65 		.ascii	"sizetype\000"
 2542      74797065 
 2542      00
 2543              	.LASF45:
 2544 04e6 74687265 		.ascii	"thread_reference_t\000"
 2544      61645F72 
 2544      65666572 
 2544      656E6365 
 2544      5F7400
 2545              	.LASF62:
 2546 04f9 63685F76 		.ascii	"ch_virtual_timers_list\000"
 2546      69727475 
 2546      616C5F74 
 2546      696D6572 
 2546      735F6C69 
 2547              	.LASF89:
 2548 0510 41484233 		.ascii	"AHB3ENR\000"
 2548      454E5200 
 2549              	.LASF95:
 2550 0518 41484232 		.ascii	"AHB2LPENR\000"
 2550      4C50454E 
 2550      5200
 2551              	.LASF121:
 2552 0522 746D5F63 		.ascii	"tm_calibration_t\000"
 2552      616C6962 
 2552      72617469 
 2552      6F6E5F74 
 2552      00
 2553              	.LASF30:
 2554 0533 7072696F 		.ascii	"prio\000"
 2554      00
 2555              	.LASF84:
 2556 0538 41504231 		.ascii	"APB1RSTR\000"
 2556      52535452 
 2556      00
 2557              	.LASF55:
 2558 0541 63757272 		.ascii	"current\000"
 2558      656E7400 
 2559              	.LASF11:
 2560 0549 5F5F7569 		.ascii	"__uint64_t\000"
 2560      6E743634 
 2560      5F7400
 2561              	.LASF125:
 2562 0554 63756D75 		.ascii	"cumulative\000"
 2562      6C617469 
 2562      766500
ARM GAS  /tmp/ccVCdOAw.s 			page 50


 2563              	.LASF75:
 2564 055f 41504231 		.ascii	"APB1FZ\000"
 2564      465A00
 2565              	.LASF21:
 2566 0566 74726566 		.ascii	"trefs_t\000"
 2566      735F7400 
 2567              	.LASF83:
 2568 056e 52455345 		.ascii	"RESERVED0\000"
 2568      52564544 
 2568      3000
 2569              	.LASF86:
 2570 0578 52455345 		.ascii	"RESERVED1\000"
 2570      52564544 
 2570      3100
 2571              	.LASF90:
 2572 0582 52455345 		.ascii	"RESERVED2\000"
 2572      52564544 
 2572      3200
 2573              	.LASF93:
 2574 058c 52455345 		.ascii	"RESERVED3\000"
 2574      52564544 
 2574      3300
 2575              	.LASF97:
 2576 0596 52455345 		.ascii	"RESERVED4\000"
 2576      52564544 
 2576      3400
 2577              	.LASF100:
 2578 05a0 52455345 		.ascii	"RESERVED5\000"
 2578      52564544 
 2578      3500
 2579              	.LASF102:
 2580 05aa 52455345 		.ascii	"RESERVED6\000"
 2580      52564544 
 2580      3600
 2581              	.LASF22:
 2582 05b4 74707269 		.ascii	"tprio_t\000"
 2582      6F5F7400 
 2583              	.LASF154:
 2584 05bc 63685379 		.ascii	"chSysUnlockFromISR\000"
 2584      73556E6C 
 2584      6F636B46 
 2584      726F6D49 
 2584      535200
 2585              	.LASF128:
 2586 05cf 6E5F6374 		.ascii	"n_ctxswc\000"
 2586      78737763 
 2586      00
 2587              	.LASF145:
 2588 05d8 5F426F6F 		.ascii	"_Bool\000"
 2588      6C00
 2589              	.LASF14:
 2590 05de 696E7433 		.ascii	"int32_t\000"
 2590      325F7400 
 2591              	.LASF2:
 2592 05e6 756E7369 		.ascii	"unsigned char\000"
 2592      676E6564 
 2592      20636861 
ARM GAS  /tmp/ccVCdOAw.s 			page 51


 2592      7200
 2593              	.LASF74:
 2594 05f4 4944434F 		.ascii	"IDCODE\000"
 2594      444500
 2595              	.LASF157:
 2596 05fb 49544D5F 		.ascii	"ITM_RxBuffer\000"
 2596      52784275 
 2596      66666572 
 2596      00
 2597              	.LASF3:
 2598 0608 73686F72 		.ascii	"short int\000"
 2598      7420696E 
 2598      7400
 2599              	.LASF63:
 2600 0612 6C617374 		.ascii	"lasttime\000"
 2600      74696D65 
 2600      00
 2601              	.LASF96:
 2602 061b 41484233 		.ascii	"AHB3LPENR\000"
 2602      4C50454E 
 2602      5200
 2603              	.LASF139:
 2604 0625 65776D61 		.ascii	"ewmask\000"
 2604      736B00
 2605              	.LASF92:
 2606 062c 41504232 		.ascii	"APB2ENR\000"
 2606      454E5200 
 2607              	.LASF58:
 2608 0634 63685F76 		.ascii	"ch_virtual_timer\000"
 2608      69727475 
 2608      616C5F74 
 2608      696D6572 
 2608      00
 2609              	.LASF140:
 2610 0645 63685F73 		.ascii	"ch_semaphore\000"
 2610      656D6170 
 2610      686F7265 
 2610      00
 2611              	.LASF118:
 2612 0652 43435852 		.ascii	"CCXR\000"
 2612      00
 2613              	.LASF77:
 2614 0657 4442474D 		.ascii	"DBGMCU_TypeDef\000"
 2614      43555F54 
 2614      79706544 
 2614      656600
 2615              	.LASF15:
 2616 0666 75696E74 		.ascii	"uint32_t\000"
 2616      33325F74 
 2616      00
 2617              	.LASF161:
 2618 066f 5F737461 		.ascii	"_stats_increase_irq\000"
 2618      74735F69 
 2618      6E637265 
 2618      6173655F 
 2618      69727100 
 2619              	.LASF48:
ARM GAS  /tmp/ccVCdOAw.s 			page 52


 2620 0683 63685F74 		.ascii	"ch_threads_list\000"
 2620      68726561 
 2620      64735F6C 
 2620      69737400 
 2621              	.LASF142:
 2622 0693 6F776E65 		.ascii	"owner\000"
 2622      7200
 2623              	.LASF9:
 2624 0699 6C6F6E67 		.ascii	"long unsigned int\000"
 2624      20756E73 
 2624      69676E65 
 2624      6420696E 
 2624      7400
 2625              	.LASF34:
 2626 06ab 77616261 		.ascii	"wabase\000"
 2626      736500
 2627              	.LASF143:
 2628 06b2 63686172 		.ascii	"char\000"
 2628      00
 2629              	.LASF32:
 2630 06b7 6F6C6465 		.ascii	"older\000"
 2630      7200
 2631              	.LASF138:
 2632 06bd 77746D74 		.ascii	"wtmtxp\000"
 2632      787000
 2633              	.LASF116:
 2634 06c4 444D4152 		.ascii	"DMAR\000"
 2634      00
 2635              	.LASF81:
 2636 06c9 41484232 		.ascii	"AHB2RSTR\000"
 2636      52535452 
 2636      00
 2637              	.LASF149:
 2638 06d2 706F7274 		.ascii	"port_unlock_from_isr\000"
 2638      5F756E6C 
 2638      6F636B5F 
 2638      66726F6D 
 2638      5F697372 
 2639              	.LASF28:
 2640 06e7 74687265 		.ascii	"thread_t\000"
 2640      61645F74 
 2640      00
 2641              	.LASF114:
 2642 06f0 43434552 		.ascii	"CCER\000"
 2642      00
 2643              	.LASF27:
 2644 06f5 73797374 		.ascii	"systime_t\000"
 2644      696D655F 
 2644      7400
 2645              	.LASF159:
 2646 06ff 63685379 		.ascii	"chSysTimerHandlerI\000"
 2646      7354696D 
 2646      65724861 
 2646      6E646C65 
 2646      724900
 2647              	.LASF56:
 2648 0712 76746675 		.ascii	"vtfunc_t\000"
ARM GAS  /tmp/ccVCdOAw.s 			page 53


 2648      6E635F74 
 2648      00
 2649              	.LASF166:
 2650 071b 5F5F7365 		.ascii	"__set_BASEPRI\000"
 2650      745F4241 
 2650      53455052 
 2650      4900
 2651              	.LASF66:
 2652 0729 70616E69 		.ascii	"panic_msg\000"
 2652      635F6D73 
 2652      6700
 2653              	.LASF120:
 2654 0733 6F666673 		.ascii	"offset\000"
 2654      657400
 2655              	.LASF91:
 2656 073a 41504231 		.ascii	"APB1ENR\000"
 2656      454E5200 
 2657              	.LASF141:
 2658 0742 63685F6D 		.ascii	"ch_mutex\000"
 2658      75746578 
 2658      00
 2659              	.LASF88:
 2660 074b 41484232 		.ascii	"AHB2ENR\000"
 2660      454E5200 
 2661              	.LASF4:
 2662 0753 73686F72 		.ascii	"short unsigned int\000"
 2662      7420756E 
 2662      7369676E 
 2662      65642069 
 2662      6E7400
 2663              	.LASF67:
 2664 0766 63685F73 		.ascii	"ch_system_t\000"
 2664      79737465 
 2664      6D5F7400 
 2665              	.LASF17:
 2666 0772 7274636E 		.ascii	"rtcnt_t\000"
 2666      745F7400 
 2667              	.LASF148:
 2668 077a 706F7274 		.ascii	"port_lock_from_isr\000"
 2668      5F6C6F63 
 2668      6B5F6672 
 2668      6F6D5F69 
 2668      737200
 2669              	.LASF103:
 2670 078d 53534347 		.ascii	"SSCGR\000"
 2670      5200
 2671              	.LASF50:
 2672 0793 74687265 		.ascii	"threads_queue_t\000"
 2672      6164735F 
 2672      71756575 
 2672      655F7400 
 2673              	.LASF119:
 2674 07a3 73746D33 		.ascii	"stm32_tim_t\000"
 2674      325F7469 
 2674      6D5F7400 
 2675              	.LASF101:
 2676 07af 42444352 		.ascii	"BDCR\000"
ARM GAS  /tmp/ccVCdOAw.s 			page 54


 2676      00
 2677              	.LASF69:
 2678 07b4 726C6973 		.ascii	"rlist\000"
 2678      7400
 2679              	.LASF13:
 2680 07ba 75696E74 		.ascii	"uint8_t\000"
 2680      385F7400 
 2681              	.LASF36:
 2682 07c2 666C6167 		.ascii	"flags\000"
 2682      7300
 2683              	.LASF153:
 2684 07c8 63685379 		.ascii	"chSysLockFromISR\000"
 2684      734C6F63 
 2684      6B46726F 
 2684      6D495352 
 2684      00
 2685              	.LASF87:
 2686 07d9 41484231 		.ascii	"AHB1ENR\000"
 2686      454E5200 
 2687              	.LASF79:
 2688 07e1 43464752 		.ascii	"CFGR\000"
 2688      00
 2689              	.LASF19:
 2690 07e6 746D6F64 		.ascii	"tmode_t\000"
 2690      655F7400 
 2691              	.LASF160:
 2692 07ee 5F737461 		.ascii	"_stats_stop_measure_crit_isr\000"
 2692      74735F73 
 2692      746F705F 
 2692      6D656173 
 2692      7572655F 
 2693              	.LASF41:
 2694 080b 6D74786C 		.ascii	"mtxlist\000"
 2694      69737400 
 2695              	.LASF144:
 2696 0813 6D757465 		.ascii	"mutex_t\000"
 2696      785F7400 
 2697              	.LASF129:
 2698 081b 6D5F6372 		.ascii	"m_crit_thd\000"
 2698      69745F74 
 2698      686400
 2699              		.ident	"GCC: (15:4.9.3+svn231177-1) 4.9.3 20150529 (prerelease)"
ARM GAS  /tmp/ccVCdOAw.s 			page 55


DEFINED SYMBOLS
                            *ABS*:0000000000000000 hal_st_lld.c
     /tmp/ccVCdOAw.s:21     .text.Vector108:0000000000000000 $t
     /tmp/ccVCdOAw.s:26     .text.Vector108:0000000000000000 Vector108
     /tmp/ccVCdOAw.s:117    .text.Vector108:0000000000000030 $d
     /tmp/ccVCdOAw.s:122    .text.st_lld_init:0000000000000000 $t
     /tmp/ccVCdOAw.s:127    .text.st_lld_init:0000000000000000 st_lld_init
     /tmp/ccVCdOAw.s:174    .text.st_lld_init:0000000000000038 $d
                     .debug_frame:0000000000000010 $d

UNDEFINED SYMBOLS
_stats_increase_irq
_stats_start_measure_crit_isr
chSysTimerHandlerI
_stats_stop_measure_crit_isr
_port_irq_epilogue
nvicEnableVector
