ARM GAS  /tmp/ccM0SCbF.s 			page 1


   1              		.syntax unified
   2              		.cpu cortex-m4
   3              		.eabi_attribute 27, 1
   4              		.eabi_attribute 28, 1
   5              		.fpu fpv4-sp-d16
   6              		.eabi_attribute 20, 1
   7              		.eabi_attribute 21, 1
   8              		.eabi_attribute 23, 3
   9              		.eabi_attribute 24, 1
  10              		.eabi_attribute 25, 1
  11              		.eabi_attribute 26, 1
  12              		.eabi_attribute 30, 4
  13              		.eabi_attribute 34, 1
  14              		.eabi_attribute 18, 4
  15              		.thumb
  16              		.file	"hal_usb_lld.c"
  17              		.text
  18              	.Ltext0:
  19              		.cfi_sections	.debug_frame
  20              		.section	.text.otg_disable_ep,"ax",%progbits
  21              		.align	1
  22              		.thumb
  23              		.thumb_func
  24              		.type	otg_disable_ep, %function
  25              	otg_disable_ep:
  26              	.LFB278:
  27              		.file 1 "../../modules/ChibiOS/os/hal/ports/STM32/LLD/OTGv1/hal_usb_lld.c"
  28              		.loc 1 151 0
  29              		.cfi_startproc
  30              		@ args = 0, pretend = 0, frame = 0
  31              		@ frame_needed = 0, uses_anonymous_args = 0
  32              	.LVL0:
  33              		.loc 1 155 0
  34 0000 836D     		ldr	r3, [r0, #88]
  35              		.loc 1 151 0
  36 0002 30B5     		push	{r4, r5, lr}
  37              		.cfi_def_cfa_offset 12
  38              		.cfi_offset 4, -12
  39              		.cfi_offset 5, -8
  40              		.cfi_offset 14, -4
  41              		.loc 1 152 0
  42 0004 446D     		ldr	r4, [r0, #84]
  43              	.LVL1:
  44              		.loc 1 155 0
  45 0006 9D68     		ldr	r5, [r3, #8]
  46 0008 0022     		movs	r2, #0
  47              	.LVL2:
  48              	.L2:
  49 000a 04EB4213 		add	r3, r4, r2, lsl #5
  50              		.loc 1 155 0 is_stmt 0 discriminator 3
  51 000e 0132     		adds	r2, r2, #1
  52              	.LVL3:
  53              		.loc 1 156 0 is_stmt 1 discriminator 3
  54 0010 0021     		movs	r1, #0
  55              		.loc 1 158 0 discriminator 3
  56 0012 4FF0FF30 		mov	r0, #-1
  57              		.loc 1 155 0 discriminator 3
ARM GAS  /tmp/ccM0SCbF.s 			page 2


  58 0016 AA42     		cmp	r2, r5
  59              		.loc 1 156 0 discriminator 3
  60 0018 C3F80019 		str	r1, [r3, #2304]
  61              		.loc 1 157 0 discriminator 3
  62 001c C3F81019 		str	r1, [r3, #2320]
  63              		.loc 1 158 0 discriminator 3
  64 0020 C3F80809 		str	r0, [r3, #2312]
  65              		.loc 1 160 0 discriminator 3
  66 0024 C3F8001B 		str	r1, [r3, #2816]
  67              		.loc 1 161 0 discriminator 3
  68 0028 C3F8101B 		str	r1, [r3, #2832]
  69              		.loc 1 162 0 discriminator 3
  70 002c C3F8080B 		str	r0, [r3, #2824]
  71              		.loc 1 155 0 discriminator 3
  72 0030 EBD9     		bls	.L2
  73              		.loc 1 164 0
  74 0032 4FF00113 		mov	r3, #65537
  75 0036 C4F81C38 		str	r3, [r4, #2076]
  76 003a 30BD     		pop	{r4, r5, pc}
  77              		.cfi_endproc
  78              	.LFE278:
  79              		.size	otg_disable_ep, .-otg_disable_ep
  80              		.section	.text.otg_txfifo_flush.isra.1,"ax",%progbits
  81              		.align	1
  82              		.thumb
  83              		.thumb_func
  84              		.type	otg_txfifo_flush.isra.1, %function
  85              	otg_txfifo_flush.isra.1:
  86              	.LFB311:
  87              		.loc 1 177 0
  88              		.cfi_startproc
  89              		@ args = 0, pretend = 0, frame = 0
  90              		@ frame_needed = 0, uses_anonymous_args = 0
  91              		@ link register save eliminated.
  92              	.LVL4:
  93              		.loc 1 180 0
  94 0000 8901     		lsls	r1, r1, #6
  95              	.LVL5:
  96 0002 41F02001 		orr	r1, r1, #32
  97 0006 0161     		str	r1, [r0, #16]
  98              	.L6:
  99              		.loc 1 181 0
 100 0008 0369     		ldr	r3, [r0, #16]
 101 000a 9B06     		lsls	r3, r3, #26
 102 000c FCD4     		bmi	.L6
 103              	.LVL6:
 104              	.LBB128:
 105              	.LBB129:
 106              		.file 2 "../../modules/ChibiOS/os/hal/osal/rt/osal.h"
 107              		.loc 2 573 0
 108 000e 1220     		movs	r0, #18
 109              	.LVL7:
 110 0010 FFF7FEBF 		b	chSysPolledDelayX
 111              	.LVL8:
 112              	.LBE129:
 113              	.LBE128:
 114              		.cfi_endproc
ARM GAS  /tmp/ccM0SCbF.s 			page 3


 115              	.LFE311:
 116              		.size	otg_txfifo_flush.isra.1, .-otg_txfifo_flush.isra.1
 117              		.section	.text.usb_lld_pump,"ax",%progbits
 118              		.align	1
 119              		.global	usb_lld_pump
 120              		.thumb
 121              		.thumb_func
 122              		.type	usb_lld_pump, %function
 123              	usb_lld_pump:
 124              	.LFB309:
 125              		.loc 1 1320 0
 126              		.cfi_startproc
 127              		@ args = 0, pretend = 0, frame = 0
 128              		@ frame_needed = 0, uses_anonymous_args = 0
 129              	.LVL9:
 130 0000 2DE9F84F 		push	{r3, r4, r5, r6, r7, r8, r9, r10, fp, lr}
 131              		.cfi_def_cfa_offset 40
 132              		.cfi_offset 3, -40
 133              		.cfi_offset 4, -36
 134              		.cfi_offset 5, -32
 135              		.cfi_offset 6, -28
 136              		.cfi_offset 7, -24
 137              		.cfi_offset 8, -20
 138              		.cfi_offset 9, -16
 139              		.cfi_offset 10, -12
 140              		.cfi_offset 11, -8
 141              		.cfi_offset 14, -4
 142              		.loc 1 1322 0
 143 0004 456D     		ldr	r5, [r0, #84]
 144              		.loc 1 1320 0
 145 0006 0446     		mov	r4, r0
 146              	.LVL10:
 147              	.L42:
 148              	.LBB194:
 149              	.LBB195:
 150              	.LBB196:
 151              	.LBB197:
 152              	.LBB198:
 153              	.LBB199:
 154              		.file 3 "../../modules/ChibiOS/os/common/ext/CMSIS/include/cmsis_gcc.h"
 155              		.loc 3 264 0
 156 0008 2023     		movs	r3, #32
 157              	@ 264 "../../modules/ChibiOS/os/common/ext/CMSIS/include/cmsis_gcc.h" 1
 158 000a 83F31188 		MSR basepri, r3
 159              	@ 0 "" 2
 160              		.thumb
 161              	.LBE199:
 162              	.LBE198:
 163              	.LBE197:
 164              		.file 4 "../../modules/ChibiOS/os/rt/include/chsys.h"
 165              		.loc 4 377 0
 166 000e FFF7FEFF 		bl	_stats_start_measure_crit_thd
 167              	.LVL11:
 168              	.LBE196:
 169              	.LBE195:
 170              	.LBE194:
 171              	.LBB200:
ARM GAS  /tmp/ccM0SCbF.s 			page 4


 172              		.loc 1 1330 0
 173 0012 2378     		ldrb	r3, [r4]	@ zero_extendqisi2
 174 0014 012B     		cmp	r3, #1
 175 0016 04D0     		beq	.L9
 176              		.loc 1 1330 0 is_stmt 0 discriminator 1
 177 0018 236E     		ldr	r3, [r4, #96]
 178 001a 53B9     		cbnz	r3, .L10
 179              		.loc 1 1331 0 is_stmt 1
 180 001c 6B69     		ldr	r3, [r5, #20]
 181 001e DB06     		lsls	r3, r3, #27
 182 0020 07D4     		bmi	.L10
 183              	.L9:
 184              		.loc 1 1332 0
 185 0022 AB69     		ldr	r3, [r5, #24]
 186 0024 43F01003 		orr	r3, r3, #16
 187 0028 AB61     		str	r3, [r5, #24]
 188              	.LVL12:
 189              	.LBB201:
 190              	.LBB202:
 191              		.loc 2 688 0
 192 002a 04F16400 		add	r0, r4, #100
 193              	.LVL13:
 194 002e FFF7FEFF 		bl	chThdSuspendS
 195              	.LVL14:
 196              	.L10:
 197              	.LBE202:
 198              	.LBE201:
 199              	.LBB203:
 200              	.LBB204:
 201              	.LBB205:
 202              		.loc 4 389 0
 203 0032 FFF7FEFF 		bl	_stats_stop_measure_crit_thd
 204              	.LVL15:
 205              	.LBB206:
 206              	.LBB207:
 207              	.LBB208:
 208              		.loc 3 264 0
 209 0036 0026     		movs	r6, #0
 210              	@ 264 "../../modules/ChibiOS/os/common/ext/CMSIS/include/cmsis_gcc.h" 1
 211 0038 86F31188 		MSR basepri, r6
 212              	@ 0 "" 2
 213              		.thumb
 214              	.L11:
 215              	.LVL16:
 216              	.LBE208:
 217              	.LBE207:
 218              	.LBE206:
 219              	.LBE205:
 220              	.LBE204:
 221              	.LBE203:
 222              		.loc 1 1338 0 discriminator 1
 223 003c A36D     		ldr	r3, [r4, #88]
 224 003e 9B68     		ldr	r3, [r3, #8]
 225 0040 F7B2     		uxtb	r7, r6
 226              	.LVL17:
 227 0042 9F42     		cmp	r7, r3
 228 0044 E0D8     		bhi	.L42
ARM GAS  /tmp/ccM0SCbF.s 			page 5


 229              	.L12:
 230              		.loc 1 1341 0
 231 0046 6B69     		ldr	r3, [r5, #20]
 232 0048 13F01009 		ands	r9, r3, #16
 233 004c 50D0     		beq	.L43
 234              	.LVL18:
 235              	.LBB209:
 236              	.LBB210:
 237              		.loc 1 281 0
 238 004e 606D     		ldr	r0, [r4, #84]
 239 0050 036A     		ldr	r3, [r0, #32]
 240              	.LVL19:
 241              		.loc 1 282 0
 242 0052 03F4F012 		and	r2, r3, #1966080
 243 0056 B2F5802F 		cmp	r2, #262144
 244 005a 1DD0     		beq	.L13
 245 005c B2F5402F 		cmp	r2, #786432
 246 0060 F1D1     		bne	.L12
 247              		.loc 1 286 0
 248 0062 C3F30A1E 		ubfx	lr, r3, #4, #11
 249              	.LVL20:
 250              		.loc 1 287 0
 251 0066 03F00F03 		and	r3, r3, #15
 252              	.LVL21:
 253              		.loc 1 288 0
 254 006a 04EB8303 		add	r3, r4, r3, lsl #2
 255              	.LVL22:
 256 006e DB68     		ldr	r3, [r3, #12]
 257 0070 196A     		ldr	r1, [r3, #32]
 258              	.LVL23:
 259              	.LBB211:
 260              	.LBB212:
 261              		.loc 1 257 0
 262 0072 0023     		movs	r3, #0
 263              		.loc 1 256 0
 264 0074 1A46     		mov	r2, r3
 265              	.LVL24:
 266              	.L15:
 267              		.loc 1 259 0
 268 0076 7345     		cmp	r3, lr
 269 0078 E5D0     		beq	.L12
 270              		.loc 1 260 0
 271 007a 13F0030F 		tst	r3, #3
 272              		.loc 1 261 0
 273 007e 04BF     		itt	eq
 274 0080 00F58052 		addeq	r2, r0, #4096
 275              	.LVL25:
 276 0084 1268     		ldreq	r2, [r2]
 277              	.LVL26:
 278              		.loc 1 263 0
 279 0086 072B     		cmp	r3, #7
 280              		.loc 1 264 0
 281 0088 98BF     		it	ls
 282 008a 0A70     		strbls	r2, [r1]
 283              		.loc 1 267 0
 284 008c 03F10103 		add	r3, r3, #1
 285              	.LVL27:
ARM GAS  /tmp/ccM0SCbF.s 			page 6


 286              		.loc 1 265 0
 287 0090 9CBF     		itt	ls
 288 0092 120A     		lsrls	r2, r2, #8
 289              	.LVL28:
 290              		.loc 1 264 0
 291 0094 0131     		addls	r1, r1, #1
 292              	.LVL29:
 293 0096 EEE7     		b	.L15
 294              	.LVL30:
 295              	.L13:
 296              	.LBE212:
 297              	.LBE211:
 298              		.loc 1 292 0
 299 0098 C3F30A18 		ubfx	r8, r3, #4, #11
 300              	.LVL31:
 301              		.loc 1 293 0
 302 009c 03F00F03 		and	r3, r3, #15
 303              	.LVL32:
 304 00a0 04EB8303 		add	r3, r4, r3, lsl #2
 305              	.LVL33:
 306              		.loc 1 295 0
 307 00a4 DA68     		ldr	r2, [r3, #12]
 308 00a6 9169     		ldr	r1, [r2, #24]
 309              		.loc 1 294 0
 310 00a8 0A68     		ldr	r2, [r1]
 311 00aa D1F808C0 		ldr	ip, [r1, #8]
 312 00ae 4968     		ldr	r1, [r1, #4]
 313 00b0 C1EB020E 		rsb	lr, r1, r2
 314              	.LVL34:
 315              	.LBB213:
 316              	.LBB214:
 317              		.loc 1 257 0
 318 00b4 0022     		movs	r2, #0
 319              		.loc 1 256 0
 320 00b6 1146     		mov	r1, r2
 321              	.LVL35:
 322              	.L20:
 323              		.loc 1 259 0
 324 00b8 4245     		cmp	r2, r8
 325 00ba 10D0     		beq	.L44
 326              		.loc 1 260 0
 327 00bc 12F0030F 		tst	r2, #3
 328              		.loc 1 261 0
 329 00c0 04BF     		itt	eq
 330 00c2 00F58051 		addeq	r1, r0, #4096
 331              	.LVL36:
 332 00c6 0968     		ldreq	r1, [r1]
 333              	.LVL37:
 334              		.loc 1 263 0
 335 00c8 7245     		cmp	r2, lr
 336              		.loc 1 264 0
 337 00ca 38BF     		it	cc
 338 00cc 8CF80010 		strbcc	r1, [ip]
 339              		.loc 1 267 0
 340 00d0 02F10102 		add	r2, r2, #1
 341              	.LVL38:
 342              		.loc 1 265 0
ARM GAS  /tmp/ccM0SCbF.s 			page 7


 343 00d4 3CBF     		itt	cc
 344 00d6 090A     		lsrcc	r1, r1, #8
 345              	.LVL39:
 346              		.loc 1 264 0
 347 00d8 0CF1010C 		addcc	ip, ip, #1
 348              	.LVL40:
 349 00dc ECE7     		b	.L20
 350              	.L44:
 351              	.LBE214:
 352              	.LBE213:
 353              		.loc 1 299 0
 354 00de DB68     		ldr	r3, [r3, #12]
 355 00e0 9B69     		ldr	r3, [r3, #24]
 356 00e2 9968     		ldr	r1, [r3, #8]
 357              	.LVL41:
 358 00e4 1144     		add	r1, r1, r2
 359 00e6 9960     		str	r1, [r3, #8]
 360              		.loc 1 300 0
 361 00e8 5968     		ldr	r1, [r3, #4]
 362 00ea 0A44     		add	r2, r2, r1
 363              	.LVL42:
 364 00ec 5A60     		str	r2, [r3, #4]
 365 00ee AAE7     		b	.L12
 366              	.LVL43:
 367              	.L43:
 368              	.LBE210:
 369              	.LBE209:
 370              		.loc 1 1345 0
 371 00f0 4FF00108 		mov	r8, #1
 372              		.loc 1 1346 0
 373 00f4 236E     		ldr	r3, [r4, #96]
 374              		.loc 1 1345 0
 375 00f6 08FA07F8 		lsl	r8, r8, r7
 376              	.LVL44:
 377              		.loc 1 1346 0
 378 00fa 18EA030F 		tst	r8, r3
 379 00fe 5DD0     		beq	.L25
 380              	.LVL45:
 381              	.LBB215:
 382              	.LBB216:
 383              	.LBB217:
 384              	.LBB218:
 385              	.LBB219:
 386              	.LBB220:
 387              	.LBB221:
 388              		.loc 3 264 0
 389 0100 2023     		movs	r3, #32
 390              	@ 264 "../../modules/ChibiOS/os/common/ext/CMSIS/include/cmsis_gcc.h" 1
 391 0102 83F31188 		MSR basepri, r3
 392              	@ 0 "" 2
 393              		.thumb
 394              	.LBE221:
 395              	.LBE220:
 396              	.LBE219:
 397              		.loc 4 377 0
 398 0106 FFF7FEFF 		bl	_stats_start_measure_crit_thd
 399              	.LVL46:
ARM GAS  /tmp/ccM0SCbF.s 			page 8


 400              	.LBE218:
 401              	.LBE217:
 402              	.LBE216:
 403              		.loc 1 1357 0
 404 010a AB68     		ldr	r3, [r5, #8]
 405 010c 23F00103 		bic	r3, r3, #1
 406 0110 AB60     		str	r3, [r5, #8]
 407              		.loc 1 1358 0
 408 0112 236E     		ldr	r3, [r4, #96]
 409 0114 23EA0803 		bic	r3, r3, r8
 410 0118 2366     		str	r3, [r4, #96]
 411              	.LBB222:
 412              	.LBB223:
 413              	.LBB224:
 414              		.loc 4 389 0
 415 011a FFF7FEFF 		bl	_stats_stop_measure_crit_thd
 416              	.LVL47:
 417              	.LBB225:
 418              	.LBB226:
 419              	.LBB227:
 420              		.loc 3 264 0
 421              	@ 264 "../../modules/ChibiOS/os/common/ext/CMSIS/include/cmsis_gcc.h" 1
 422 011e 89F31188 		MSR basepri, r9
 423              	@ 0 "" 2
 424              		.thumb
 425              	.LBE227:
 426              	.LBE226:
 427              	.LBE225:
 428              	.LBE224:
 429              	.LBE223:
 430              	.LBE222:
 431              	.LBB228:
 432              	.LBB229:
 433              		.loc 1 324 0
 434 0122 04EB8703 		add	r3, r4, r7, lsl #2
 435 0126 D3F80CC0 		ldr	ip, [r3, #12]
 436 012a DCF81420 		ldr	r2, [ip, #20]
 437 012e D2F80090 		ldr	r9, [r2]
 438              	.L29:
 439 0132 5068     		ldr	r0, [r2, #4]
 440 0134 4845     		cmp	r0, r9
 441 0136 29D2     		bcs	.L33
 442              		.loc 1 329 0
 443 0138 BCF81010 		ldrh	r1, [ip, #16]
 444              		.loc 1 334 0
 445 013c D4F854E0 		ldr	lr, [r4, #84]
 446              		.loc 1 328 0
 447 0140 C0EB0903 		rsb	r3, r0, r9
 448 0144 8B42     		cmp	r3, r1
 449 0146 28BF     		it	cs
 450 0148 0B46     		movcs	r3, r1
 451              	.LVL48:
 452              		.loc 1 334 0
 453 014a 0EEB4711 		add	r1, lr, r7, lsl #5
 454 014e D1F81819 		ldr	r1, [r1, #2328]
 455 0152 89B2     		uxth	r1, r1
 456 0154 B3EB810F 		cmp	r3, r1, lsl #2
ARM GAS  /tmp/ccM0SCbF.s 			page 9


 457 0158 1AD8     		bhi	.L34
 458              		.loc 1 340 0
 459 015a 07F1010B 		add	fp, r7, #1
 460 015e 0EEB0B3B 		add	fp, lr, fp, lsl #12
 461 0162 D2F808E0 		ldr	lr, [r2, #8]
 462              	.LVL49:
 463 0166 F246     		mov	r10, lr
 464              	.LVL50:
 465              	.L28:
 466              	.LBB230:
 467              	.LBB231:
 468              		.loc 1 233 0
 469 0168 DAF80010 		ldr	r1, [r10]
 470 016c CBF80010 		str	r1, [fp]
 471 0170 CAEB0301 		rsb	r1, r10, r3
 472 0174 7144     		add	r1, r1, lr
 473              		.loc 1 234 0
 474 0176 0429     		cmp	r1, #4
 475 0178 02D9     		bls	.L27
 476              	.LVL51:
 477              		.loc 1 238 0
 478 017a 0AF1040A 		add	r10, r10, #4
 479              	.LVL52:
 480 017e F3E7     		b	.L28
 481              	.LVL53:
 482              	.L27:
 483              	.LBE231:
 484              	.LBE230:
 485              		.loc 1 343 0
 486 0180 0EEB0301 		add	r1, lr, r3
 487              		.loc 1 347 0
 488 0184 0344     		add	r3, r3, r0
 489              	.LVL54:
 490              		.loc 1 343 0
 491 0186 9160     		str	r1, [r2, #8]
 492              		.loc 1 347 0
 493 0188 5360     		str	r3, [r2, #4]
 494 018a D2E7     		b	.L29
 495              	.LVL55:
 496              	.L33:
 497              		.loc 1 325 0
 498 018c 0127     		movs	r7, #1
 499              	.LVL56:
 500 018e 00E0     		b	.L26
 501              	.LVL57:
 502              	.L34:
 503              		.loc 1 335 0
 504 0190 0027     		movs	r7, #0
 505              	.LVL58:
 506              	.L26:
 507              	.LBE229:
 508              	.LBE228:
 509              	.LBB232:
 510              	.LBB233:
 511              	.LBB234:
 512              	.LBB235:
 513              	.LBB236:
ARM GAS  /tmp/ccM0SCbF.s 			page 10


 514              	.LBB237:
 515              		.loc 3 264 0
 516 0192 2023     		movs	r3, #32
 517              	@ 264 "../../modules/ChibiOS/os/common/ext/CMSIS/include/cmsis_gcc.h" 1
 518 0194 83F31188 		MSR basepri, r3
 519              	@ 0 "" 2
 520              		.thumb
 521              	.LBE237:
 522              	.LBE236:
 523              	.LBE235:
 524              		.loc 4 377 0
 525 0198 FFF7FEFF 		bl	_stats_start_measure_crit_thd
 526              	.LVL59:
 527              	.LBE234:
 528              	.LBE233:
 529              	.LBE232:
 530              		.loc 1 1364 0
 531 019c AB68     		ldr	r3, [r5, #8]
 532 019e 43F00103 		orr	r3, r3, #1
 533 01a2 AB60     		str	r3, [r5, #8]
 534              		.loc 1 1365 0
 535 01a4 2FB9     		cbnz	r7, .L30
 536              		.loc 1 1366 0
 537 01a6 D5F83438 		ldr	r3, [r5, #2100]
 538 01aa 48EA0303 		orr	r3, r8, r3
 539 01ae C5F83438 		str	r3, [r5, #2100]
 540              	.L30:
 541              	.LBB238:
 542              	.LBB239:
 543              	.LBB240:
 544              		.loc 4 389 0
 545 01b2 FFF7FEFF 		bl	_stats_stop_measure_crit_thd
 546              	.LVL60:
 547              	.LBB241:
 548              	.LBB242:
 549              	.LBB243:
 550              		.loc 3 264 0
 551 01b6 0023     		movs	r3, #0
 552              	@ 264 "../../modules/ChibiOS/os/common/ext/CMSIS/include/cmsis_gcc.h" 1
 553 01b8 83F31188 		MSR basepri, r3
 554              	@ 0 "" 2
 555              	.LVL61:
 556              		.thumb
 557              	.L25:
 558 01bc 0136     		adds	r6, r6, #1
 559              	.LVL62:
 560 01be 3DE7     		b	.L11
 561              	.LBE243:
 562              	.LBE242:
 563              	.LBE241:
 564              	.LBE240:
 565              	.LBE239:
 566              	.LBE238:
 567              	.LBE215:
 568              	.LBE200:
 569              		.cfi_endproc
 570              	.LFE309:
ARM GAS  /tmp/ccM0SCbF.s 			page 11


 571              		.size	usb_lld_pump, .-usb_lld_pump
 572              		.section	.text.usb_lld_init,"ax",%progbits
 573              		.align	1
 574              		.global	usb_lld_init
 575              		.thumb
 576              		.thumb_func
 577              		.type	usb_lld_init, %function
 578              	usb_lld_init:
 579              	.LFB293:
 580              		.loc 1 711 0
 581              		.cfi_startproc
 582              		@ args = 0, pretend = 0, frame = 0
 583              		@ frame_needed = 0, uses_anonymous_args = 0
 584 0000 10B5     		push	{r4, lr}
 585              		.cfi_def_cfa_offset 8
 586              		.cfi_offset 4, -8
 587              		.cfi_offset 14, -4
 588              		.loc 1 715 0
 589 0002 0A4C     		ldr	r4, .L46
 590 0004 2046     		mov	r0, r4
 591 0006 FFF7FEFF 		bl	usbObjectInit
 592              	.LVL63:
 593              		.loc 1 717 0
 594 000a 4FF0A042 		mov	r2, #1342177280
 595              		.loc 1 716 0
 596 000e 0023     		movs	r3, #0
 597              		.loc 1 717 0
 598 0010 6265     		str	r2, [r4, #84]
 599              		.loc 1 718 0
 600 0012 074A     		ldr	r2, .L46+4
 601 0014 A265     		str	r2, [r4, #88]
 602              		.loc 1 716 0
 603 0016 6366     		str	r3, [r4, #100]
 604              		.loc 1 721 0
 605 0018 A366     		str	r3, [r4, #104]
 606              	.LVL64:
 607              	.LBB244:
 608              		.loc 1 727 0
 609 001a 04F17000 		add	r0, r4, #112
 610 001e 04F54871 		add	r1, r4, #800
 611 0022 5522     		movs	r2, #85
 612              	.LBE244:
 613              		.loc 1 755 0
 614 0024 BDE81040 		pop	{r4, lr}
 615              		.cfi_restore 14
 616              		.cfi_restore 4
 617              		.cfi_def_cfa_offset 0
 618              	.LBB245:
 619              		.loc 1 727 0
 620 0028 FFF7FEBF 		b	_thread_memfill
 621              	.LVL65:
 622              	.L47:
 623              		.align	2
 624              	.L46:
 625 002c 00000000 		.word	.LANCHOR0
 626 0030 00000000 		.word	.LANCHOR1
 627              	.LBE245:
ARM GAS  /tmp/ccM0SCbF.s 			page 12


 628              		.cfi_endproc
 629              	.LFE293:
 630              		.size	usb_lld_init, .-usb_lld_init
 631              		.section	.text.usb_lld_start,"ax",%progbits
 632              		.align	1
 633              		.global	usb_lld_start
 634              		.thumb
 635              		.thumb_func
 636              		.type	usb_lld_start, %function
 637              	usb_lld_start:
 638              	.LFB294:
 639              		.loc 1 767 0
 640              		.cfi_startproc
 641              		@ args = 0, pretend = 0, frame = 24
 642              		@ frame_needed = 0, uses_anonymous_args = 0
 643              	.LVL66:
 644 0000 70B5     		push	{r4, r5, r6, lr}
 645              		.cfi_def_cfa_offset 16
 646              		.cfi_offset 4, -16
 647              		.cfi_offset 5, -12
 648              		.cfi_offset 6, -8
 649              		.cfi_offset 14, -4
 650              		.loc 1 770 0
 651 0002 0378     		ldrb	r3, [r0]	@ zero_extendqisi2
 652              		.loc 1 768 0
 653 0004 446D     		ldr	r4, [r0, #84]
 654              	.LVL67:
 655              		.loc 1 770 0
 656 0006 012B     		cmp	r3, #1
 657              		.loc 1 767 0
 658 0008 86B0     		sub	sp, sp, #24
 659              		.cfi_def_cfa_offset 40
 660              		.loc 1 767 0
 661 000a 0546     		mov	r5, r0
 662              		.loc 1 770 0
 663 000c 5CD1     		bne	.L48
 664              		.loc 1 774 0
 665 000e 2F4B     		ldr	r3, .L59
 666 0010 9842     		cmp	r0, r3
 667 0012 13D1     		bne	.L50
 668              		.loc 1 776 0
 669 0014 2E4B     		ldr	r3, .L59+4
 670 0016 5A6B     		ldr	r2, [r3, #52]
 671 0018 42F08002 		orr	r2, r2, #128
 672 001c 5A63     		str	r2, [r3, #52]
 673              		.loc 1 777 0
 674 001e 5A69     		ldr	r2, [r3, #20]
 675 0020 42F08002 		orr	r2, r2, #128
 676 0024 5A61     		str	r2, [r3, #20]
 677 0026 0022     		movs	r2, #0
 678 0028 5A61     		str	r2, [r3, #20]
 679              		.loc 1 780 0
 680 002a 4320     		movs	r0, #67
 681              	.LVL68:
 682 002c 0E21     		movs	r1, #14
 683 002e FFF7FEFF 		bl	nvicEnableVector
 684              	.LVL69:
ARM GAS  /tmp/ccM0SCbF.s 			page 13


 685              		.loc 1 785 0
 686 0032 284B     		ldr	r3, .L59+8
 687 0034 E360     		str	r3, [r4, #12]
 688              		.loc 1 789 0
 689 0036 284B     		ldr	r3, .L59+12
 690 0038 C4F80038 		str	r3, [r4, #2048]
 691              	.L50:
 692              		.loc 1 839 0
 693 003c 0023     		movs	r3, #0
 694 003e 2B66     		str	r3, [r5, #96]
 695              		.loc 1 842 0
 696 0040 C4F8003E 		str	r3, [r4, #3584]
 697              		.loc 1 845 0
 698 0044 C023     		movs	r3, #192
 699 0046 2360     		str	r3, [r4]
 700              		.loc 1 860 0
 701 0048 4FF40413 		mov	r3, #2162688
 702 004c A363     		str	r3, [r4, #56]
 703 004e 6E6D     		ldr	r6, [r5, #84]
 704              	.LVL70:
 705              	.LBB253:
 706              	.LBB254:
 707              	.LBB255:
 708              	.LBB256:
 709              		.loc 2 573 0
 710 0050 2020     		movs	r0, #32
 711 0052 FFF7FEFF 		bl	chSysPolledDelayX
 712              	.LVL71:
 713              	.LBE256:
 714              	.LBE255:
 715              		.loc 1 140 0
 716 0056 0123     		movs	r3, #1
 717 0058 3361     		str	r3, [r6, #16]
 718              	.L51:
 719              		.loc 1 141 0
 720 005a 3369     		ldr	r3, [r6, #16]
 721 005c DB07     		lsls	r3, r3, #31
 722 005e FCD4     		bmi	.L51
 723              	.LVL72:
 724              	.LBB257:
 725              	.LBB258:
 726              		.loc 2 573 0
 727 0060 1220     		movs	r0, #18
 728 0062 FFF7FEFF 		bl	chSysPolledDelayX
 729              	.LVL73:
 730              	.L52:
 731              	.LBE258:
 732              	.LBE257:
 733              		.loc 1 147 0
 734 0066 3369     		ldr	r3, [r6, #16]
 735 0068 002B     		cmp	r3, #0
 736 006a FCDA     		bge	.L52
 737              	.LBE254:
 738              	.LBE253:
 739              		.loc 1 867 0
 740 006c 0026     		movs	r6, #0
 741              	.LVL74:
ARM GAS  /tmp/ccM0SCbF.s 			page 14


 742 006e A660     		str	r6, [r4, #8]
 743              		.loc 1 870 0
 744 0070 2846     		mov	r0, r5
 745 0072 FFF7FEFF 		bl	otg_disable_ep
 746              	.LVL75:
 747              		.loc 1 877 0
 748 0076 6B68     		ldr	r3, [r5, #4]
 749              		.loc 1 874 0
 750 0078 C4F81068 		str	r6, [r4, #2064]
 751              		.loc 1 877 0
 752 007c DB68     		ldr	r3, [r3, #12]
 753              		.loc 1 875 0
 754 007e C4F81468 		str	r6, [r4, #2068]
 755              		.loc 1 876 0
 756 0082 C4F81C68 		str	r6, [r4, #2076]
 757              		.loc 1 877 0
 758 0086 0BB9     		cbnz	r3, .L53
 759              		.loc 1 878 0
 760 0088 144B     		ldr	r3, .L59+16
 761 008a 00E0     		b	.L58
 762              	.L53:
 763              		.loc 1 882 0
 764 008c 144B     		ldr	r3, .L59+20
 765              	.L58:
 766 008e A361     		str	r3, [r4, #24]
 767              		.loc 1 888 0
 768 0090 4FF0FF33 		mov	r3, #-1
 769 0094 6361     		str	r3, [r4, #20]
 770              		.loc 1 892 0
 771 0096 AB6E     		ldr	r3, [r5, #104]
 772 0098 93B9     		cbnz	r3, .L55
 773              	.LBB259:
 774              		.loc 1 893 0
 775 009a 124B     		ldr	r3, .L59+24
 776 009c 0093     		str	r3, [sp]
 777              		.loc 1 895 0
 778 009e 05F17003 		add	r3, r5, #112
 779              		.loc 1 893 0
 780 00a2 0193     		str	r3, [sp, #4]
 781              		.loc 1 896 0
 782 00a4 05F54873 		add	r3, r5, #800
 783              		.loc 1 893 0
 784 00a8 0293     		str	r3, [sp, #8]
 785 00aa 0223     		movs	r3, #2
 786 00ac 0393     		str	r3, [sp, #12]
 787              		.loc 1 902 0
 788 00ae 6846     		mov	r0, sp
 789              		.loc 1 893 0
 790 00b0 0D4B     		ldr	r3, .L59+28
 791 00b2 0493     		str	r3, [sp, #16]
 792 00b4 0595     		str	r5, [sp, #20]
 793              		.loc 1 902 0
 794 00b6 FFF7FEFF 		bl	chThdCreateI
 795              	.LVL76:
 796 00ba A866     		str	r0, [r5, #104]
 797              		.loc 1 903 0
 798 00bc FFF7FEFF 		bl	chSchRescheduleS
ARM GAS  /tmp/ccM0SCbF.s 			page 15


 799              	.LVL77:
 800              	.L55:
 801              	.LBE259:
 802              		.loc 1 908 0
 803 00c0 A368     		ldr	r3, [r4, #8]
 804 00c2 43F00103 		orr	r3, r3, #1
 805 00c6 A360     		str	r3, [r4, #8]
 806              	.LVL78:
 807              	.L48:
 808              		.loc 1 910 0
 809 00c8 06B0     		add	sp, sp, #24
 810              		.cfi_def_cfa_offset 16
 811              		@ sp needed
 812 00ca 70BD     		pop	{r4, r5, r6, pc}
 813              	.LVL79:
 814              	.L60:
 815              		.align	2
 816              	.L59:
 817 00cc 00000000 		.word	.LANCHOR0
 818 00d0 00380240 		.word	1073887232
 819 00d4 40140040 		.word	1073747008
 820 00d8 03002002 		.word	35651587
 821 00dc 003C30C0 		.word	-1070580736
 822 00e0 083C30C0 		.word	-1070580728
 823 00e4 00000000 		.word	.LC0
 824 00e8 00000000 		.word	usb_lld_pump
 825              		.cfi_endproc
 826              	.LFE294:
 827              		.size	usb_lld_start, .-usb_lld_start
 828              		.section	.text.usb_lld_stop,"ax",%progbits
 829              		.align	1
 830              		.global	usb_lld_stop
 831              		.thumb
 832              		.thumb_func
 833              		.type	usb_lld_stop, %function
 834              	usb_lld_stop:
 835              	.LFB295:
 836              		.loc 1 919 0
 837              		.cfi_startproc
 838              		@ args = 0, pretend = 0, frame = 0
 839              		@ frame_needed = 0, uses_anonymous_args = 0
 840              	.LVL80:
 841 0000 38B5     		push	{r3, r4, r5, lr}
 842              		.cfi_def_cfa_offset 16
 843              		.cfi_offset 3, -16
 844              		.cfi_offset 4, -12
 845              		.cfi_offset 5, -8
 846              		.cfi_offset 14, -4
 847              		.loc 1 923 0
 848 0002 0378     		ldrb	r3, [r0]	@ zero_extendqisi2
 849              		.loc 1 920 0
 850 0004 456D     		ldr	r5, [r0, #84]
 851              	.LVL81:
 852              		.loc 1 923 0
 853 0006 012B     		cmp	r3, #1
 854              		.loc 1 919 0
 855 0008 0446     		mov	r4, r0
ARM GAS  /tmp/ccM0SCbF.s 			page 16


 856              		.loc 1 923 0
 857 000a 12D0     		beq	.L61
 858              		.loc 1 927 0
 859 000c FFF7FEFF 		bl	otg_disable_ep
 860              	.LVL82:
 861              		.loc 1 929 0
 862 0010 0023     		movs	r3, #0
 863 0012 2366     		str	r3, [r4, #96]
 864              		.loc 1 931 0
 865 0014 C5F81C38 		str	r3, [r5, #2076]
 866              		.loc 1 932 0
 867 0018 AB60     		str	r3, [r5, #8]
 868              		.loc 1 933 0
 869 001a AB63     		str	r3, [r5, #56]
 870              		.loc 1 936 0
 871 001c 054B     		ldr	r3, .L65
 872 001e 9C42     		cmp	r4, r3
 873 0020 07D1     		bne	.L61
 874              		.loc 1 937 0
 875 0022 4320     		movs	r0, #67
 876 0024 FFF7FEFF 		bl	nvicDisableVector
 877              	.LVL83:
 878              		.loc 1 938 0
 879 0028 034A     		ldr	r2, .L65+4
 880 002a 536B     		ldr	r3, [r2, #52]
 881 002c 23F08003 		bic	r3, r3, #128
 882 0030 5363     		str	r3, [r2, #52]
 883              	.L61:
 884 0032 38BD     		pop	{r3, r4, r5, pc}
 885              	.LVL84:
 886              	.L66:
 887              		.align	2
 888              	.L65:
 889 0034 00000000 		.word	.LANCHOR0
 890 0038 00380240 		.word	1073887232
 891              		.cfi_endproc
 892              	.LFE295:
 893              		.size	usb_lld_stop, .-usb_lld_stop
 894              		.section	.text.usb_lld_reset,"ax",%progbits
 895              		.align	1
 896              		.global	usb_lld_reset
 897              		.thumb
 898              		.thumb_func
 899              		.type	usb_lld_reset, %function
 900              	usb_lld_reset:
 901              	.LFB296:
 902              		.loc 1 961 0
 903              		.cfi_startproc
 904              		@ args = 0, pretend = 0, frame = 0
 905              		@ frame_needed = 0, uses_anonymous_args = 0
 906              	.LVL85:
 907 0000 70B5     		push	{r4, r5, r6, lr}
 908              		.cfi_def_cfa_offset 16
 909              		.cfi_offset 4, -16
 910              		.cfi_offset 5, -12
 911              		.cfi_offset 6, -8
 912              		.cfi_offset 14, -4
ARM GAS  /tmp/ccM0SCbF.s 			page 17


 913              		.loc 1 963 0
 914 0002 446D     		ldr	r4, [r0, #84]
 915              	.LVL86:
 916              		.loc 1 961 0
 917 0004 0546     		mov	r5, r0
 918              		.loc 1 966 0
 919 0006 0021     		movs	r1, #0
 920 0008 2046     		mov	r0, r4
 921              	.LVL87:
 922 000a FFF7FEFF 		bl	otg_txfifo_flush.isra.1
 923              	.LVL88:
 924              		.loc 1 973 0
 925 000e A96D     		ldr	r1, [r5, #88]
 926              		.loc 1 969 0
 927 0010 0023     		movs	r3, #0
 928              		.loc 1 970 0
 929 0012 4FF00112 		mov	r2, #65537
 930              		.loc 1 973 0
 931 0016 8E68     		ldr	r6, [r1, #8]
 932              		.loc 1 969 0
 933 0018 C4F83438 		str	r3, [r4, #2100]
 934              		.loc 1 970 0
 935 001c C4F81C28 		str	r2, [r4, #2076]
 936              	.LVL89:
 937              	.L68:
 938 0020 04EB4312 		add	r2, r4, r3, lsl #5
 939              		.loc 1 974 0 discriminator 3
 940 0024 4FF00060 		mov	r0, #134217728
 941              		.loc 1 973 0 discriminator 3
 942 0028 0133     		adds	r3, r3, #1
 943              	.LVL90:
 944              		.loc 1 974 0 discriminator 3
 945 002a C2F80009 		str	r0, [r2, #2304]
 946              		.loc 1 973 0 discriminator 3
 947 002e B342     		cmp	r3, r6
 948              		.loc 1 975 0 discriminator 3
 949 0030 C2F8000B 		str	r0, [r2, #2816]
 950              		.loc 1 976 0 discriminator 3
 951 0034 4FF0FF30 		mov	r0, #-1
 952 0038 C2F80809 		str	r0, [r2, #2312]
 953              		.loc 1 977 0 discriminator 3
 954 003c C2F8080B 		str	r0, [r2, #2824]
 955              		.loc 1 973 0 discriminator 3
 956 0040 EED9     		bls	.L68
 957              	.LVL91:
 958              	.LBB268:
 959              	.LBB269:
 960              		.loc 1 196 0
 961 0042 0B68     		ldr	r3, [r1]
 962              	.LVL92:
 963 0044 EB65     		str	r3, [r5, #92]
 964              	.LBE269:
 965              	.LBE268:
 966              		.loc 1 984 0
 967 0046 0B68     		ldr	r3, [r1]
 968 0048 6362     		str	r3, [r4, #36]
 969 004a 6B6D     		ldr	r3, [r5, #84]
ARM GAS  /tmp/ccM0SCbF.s 			page 18


 970              	.LVL93:
 971              	.LBB270:
 972              	.LBB271:
 973              		.loc 1 170 0
 974 004c 1022     		movs	r2, #16
 975 004e 1A61     		str	r2, [r3, #16]
 976              	.L69:
 977              		.loc 1 171 0
 978 0050 1E69     		ldr	r6, [r3, #16]
 979 0052 16F01006 		ands	r6, r6, #16
 980 0056 FBD1     		bne	.L69
 981              	.LVL94:
 982              	.LBB272:
 983              	.LBB273:
 984              		.loc 2 573 0
 985 0058 1220     		movs	r0, #18
 986 005a FFF7FEFF 		bl	chSysPolledDelayX
 987              	.LVL95:
 988              	.LBE273:
 989              	.LBE272:
 990              	.LBE271:
 991              	.LBE270:
 992              		.loc 1 988 0
 993 005e D4F80038 		ldr	r3, [r4, #2048]
 994 0062 23F4FE63 		bic	r3, r3, #2032
 995 0066 C4F80038 		str	r3, [r4, #2048]
 996              		.loc 1 991 0
 997 006a A369     		ldr	r3, [r4, #24]
 998 006c 43F44023 		orr	r3, r3, #786432
 999 0070 43F01003 		orr	r3, r3, #16
 1000 0074 A361     		str	r3, [r4, #24]
 1001              		.loc 1 992 0
 1002 0076 0923     		movs	r3, #9
 1003 0078 C4F81038 		str	r3, [r4, #2064]
 1004              		.loc 1 993 0
 1005 007c C4F81438 		str	r3, [r4, #2068]
 1006              		.loc 1 996 0
 1007 0080 094B     		ldr	r3, .L72
 1008 0082 EB60     		str	r3, [r5, #12]
 1009              		.loc 1 998 0
 1010 0084 094B     		ldr	r3, .L72+4
 1011              		.loc 1 997 0
 1012 0086 C4F8106B 		str	r6, [r4, #2832]
 1013              		.loc 1 998 0
 1014 008a C4F8003B 		str	r3, [r4, #2816]
 1015              		.loc 1 1000 0
 1016 008e C4F81069 		str	r6, [r4, #2320]
 1017              		.loc 1 1001 0
 1018 0092 C4F80039 		str	r3, [r4, #2304]
 1019              	.LVL96:
 1020              	.LBB274:
 1021              	.LBB275:
 1022              		.loc 1 210 0
 1023 0096 EB6D     		ldr	r3, [r5, #92]
 1024              	.LVL97:
 1025              		.loc 1 211 0
 1026 0098 03F11002 		add	r2, r3, #16
ARM GAS  /tmp/ccM0SCbF.s 			page 19


 1027              	.LBE275:
 1028              	.LBE274:
 1029              		.loc 1 1003 0
 1030 009c 43F48013 		orr	r3, r3, #1048576
 1031              	.LVL98:
 1032              	.LBB277:
 1033              	.LBB276:
 1034              		.loc 1 211 0
 1035 00a0 EA65     		str	r2, [r5, #92]
 1036              	.LVL99:
 1037              	.LBE276:
 1038              	.LBE277:
 1039              		.loc 1 1003 0
 1040 00a2 A362     		str	r3, [r4, #40]
 1041 00a4 70BD     		pop	{r4, r5, r6, pc}
 1042              	.LVL100:
 1043              	.L73:
 1044 00a6 00BF     		.align	2
 1045              	.L72:
 1046 00a8 00000000 		.word	.LANCHOR2
 1047 00ac 40800010 		.word	268468288
 1048              		.cfi_endproc
 1049              	.LFE296:
 1050              		.size	usb_lld_reset, .-usb_lld_reset
 1051              		.section	.text.usb_lld_set_address,"ax",%progbits
 1052              		.align	1
 1053              		.global	usb_lld_set_address
 1054              		.thumb
 1055              		.thumb_func
 1056              		.type	usb_lld_set_address, %function
 1057              	usb_lld_set_address:
 1058              	.LFB297:
 1059              		.loc 1 1015 0
 1060              		.cfi_startproc
 1061              		@ args = 0, pretend = 0, frame = 0
 1062              		@ frame_needed = 0, uses_anonymous_args = 0
 1063              		@ link register save eliminated.
 1064              	.LVL101:
 1065              		.loc 1 1016 0
 1066 0000 426D     		ldr	r2, [r0, #84]
 1067              	.LVL102:
 1068              		.loc 1 1018 0
 1069 0002 90F84E10 		ldrb	r1, [r0, #78]	@ zero_extendqisi2
 1070 0006 D2F80038 		ldr	r3, [r2, #2048]
 1071 000a 23F4FE63 		bic	r3, r3, #2032
 1072 000e 43EA0113 		orr	r3, r3, r1, lsl #4
 1073 0012 C2F80038 		str	r3, [r2, #2048]
 1074 0016 7047     		bx	lr
 1075              		.cfi_endproc
 1076              	.LFE297:
 1077              		.size	usb_lld_set_address, .-usb_lld_set_address
 1078              		.section	.text.usb_lld_init_endpoint,"ax",%progbits
 1079              		.align	1
 1080              		.global	usb_lld_init_endpoint
 1081              		.thumb
 1082              		.thumb_func
 1083              		.type	usb_lld_init_endpoint, %function
ARM GAS  /tmp/ccM0SCbF.s 			page 20


 1084              	usb_lld_init_endpoint:
 1085              	.LFB298:
 1086              		.loc 1 1029 0
 1087              		.cfi_startproc
 1088              		@ args = 0, pretend = 0, frame = 0
 1089              		@ frame_needed = 0, uses_anonymous_args = 0
 1090              	.LVL103:
 1091 0000 2DE9F041 		push	{r4, r5, r6, r7, r8, lr}
 1092              		.cfi_def_cfa_offset 24
 1093              		.cfi_offset 4, -24
 1094              		.cfi_offset 5, -20
 1095              		.cfi_offset 6, -16
 1096              		.cfi_offset 7, -12
 1097              		.cfi_offset 8, -8
 1098              		.cfi_offset 14, -4
 1099 0004 0FB2     		sxth	r7, r1
 1100 0006 00EB8708 		add	r8, r0, r7, lsl #2
 1101              		.loc 1 1029 0
 1102 000a 0D46     		mov	r5, r1
 1103              		.loc 1 1034 0
 1104 000c D8F80C10 		ldr	r1, [r8, #12]
 1105              	.LVL104:
 1106              		.loc 1 1031 0
 1107 0010 446D     		ldr	r4, [r0, #84]
 1108              	.LVL105:
 1109              		.loc 1 1034 0
 1110 0012 0E68     		ldr	r6, [r1]
 1111 0014 06F00303 		and	r3, r6, #3
 1112 0018 022B     		cmp	r3, #2
 1113 001a 07D0     		beq	.L77
 1114 001c 032B     		cmp	r3, #3
 1115 001e 07D0     		beq	.L78
 1116              		.loc 1 1036 0
 1117 0020 3D4A     		ldr	r2, .L88
 1118 0022 3E4E     		ldr	r6, .L88+4
 1119 0024 012B     		cmp	r3, #1
 1120 0026 18BF     		it	ne
 1121 0028 1646     		movne	r6, r2
 1122 002a 02E0     		b	.L76
 1123              	.L77:
 1124              	.LVL106:
 1125              		.loc 1 1042 0
 1126 002c 3C4E     		ldr	r6, .L88+8
 1127              		.loc 1 1043 0
 1128 002e 00E0     		b	.L76
 1129              	.LVL107:
 1130              	.L78:
 1131              		.loc 1 1045 0
 1132 0030 3C4E     		ldr	r6, .L88+12
 1133              	.LVL108:
 1134              	.L76:
 1135              		.loc 1 1052 0
 1136 0032 6A01     		lsls	r2, r5, #5
 1137 0034 A318     		adds	r3, r4, r2
 1138 0036 4FF0000E 		mov	lr, #0
 1139 003a C3F810EB 		str	lr, [r3, #2832]
 1140              		.loc 1 1053 0
ARM GAS  /tmp/ccM0SCbF.s 			page 21


 1141 003e 8B69     		ldr	r3, [r1, #24]
 1142 0040 05F1100C 		add	ip, r5, #16
 1143 0044 8BB1     		cbz	r3, .L80
 1144              		.loc 1 1054 0
 1145 0046 B1F812E0 		ldrh	lr, [r1, #18]
 1146 004a 05F15803 		add	r3, r5, #88
 1147 004e 5B01     		lsls	r3, r3, #5
 1148 0050 46EA0E0E 		orr	lr, r6, lr
 1149 0054 44F803E0 		str	lr, [r4, r3]
 1150              		.loc 1 1055 0
 1151 0058 4FF0010E 		mov	lr, #1
 1152 005c D4F81C38 		ldr	r3, [r4, #2076]
 1153 0060 0EFA0CFE 		lsl	lr, lr, ip
 1154 0064 4EEA0303 		orr	r3, lr, r3
 1155 0068 0FE0     		b	.L86
 1156              	.L80:
 1157 006a 04EB471E 		add	lr, r4, r7, lsl #5
 1158              		.loc 1 1058 0
 1159 006e DEF8003B 		ldr	r3, [lr, #2816]
 1160 0072 23F40043 		bic	r3, r3, #32768
 1161 0076 CEF8003B 		str	r3, [lr, #2816]
 1162              		.loc 1 1059 0
 1163 007a D4F81C38 		ldr	r3, [r4, #2076]
 1164 007e 4FF0010E 		mov	lr, #1
 1165 0082 0EFA0CFE 		lsl	lr, lr, ip
 1166 0086 23EA0E03 		bic	r3, r3, lr
 1167              	.L86:
 1168              		.loc 1 1063 0
 1169 008a 2244     		add	r2, r2, r4
 1170              		.loc 1 1059 0
 1171 008c C4F81C38 		str	r3, [r4, #2076]
 1172              		.loc 1 1063 0
 1173 0090 0023     		movs	r3, #0
 1174 0092 C2F81039 		str	r3, [r2, #2320]
 1175              		.loc 1 1064 0
 1176 0096 4B69     		ldr	r3, [r1, #20]
 1177 0098 05F13F02 		add	r2, r5, #63
 1178 009c 0BB3     		cbz	r3, .L82
 1179              		.loc 1 1066 0
 1180 009e 0B8A     		ldrh	r3, [r1, #16]
 1181              		.loc 1 1067 0
 1182 00a0 898B     		ldrh	r1, [r1, #28]
 1183              		.loc 1 1066 0
 1184 00a2 9B08     		lsrs	r3, r3, #2
 1185              	.LVL109:
 1186              		.loc 1 1067 0
 1187 00a4 0129     		cmp	r1, #1
 1188              		.loc 1 1068 0
 1189 00a6 88BF     		it	hi
 1190 00a8 4B43     		mulhi	r3, r1, r3
 1191              	.LVL110:
 1192              	.LBB278:
 1193              	.LBB279:
 1194              		.loc 1 210 0
 1195 00aa C16D     		ldr	r1, [r0, #92]
 1196              	.LVL111:
 1197              	.LBE279:
ARM GAS  /tmp/ccM0SCbF.s 			page 22


 1198              	.LBE278:
 1199              		.loc 1 1069 0
 1200 00ac 04EB8202 		add	r2, r4, r2, lsl #2
 1201              	.LBB282:
 1202              	.LBB280:
 1203              		.loc 1 211 0
 1204 00b0 5F18     		adds	r7, r3, r1
 1205              	.LBE280:
 1206              	.LBE282:
 1207              		.loc 1 1069 0
 1208 00b2 41EA0343 		orr	r3, r1, r3, lsl #16
 1209              	.LVL112:
 1210              	.LBB283:
 1211              	.LBB281:
 1212              		.loc 1 211 0
 1213 00b6 C765     		str	r7, [r0, #92]
 1214              	.LBE281:
 1215              	.LBE283:
 1216              		.loc 1 1071 0
 1217 00b8 2946     		mov	r1, r5
 1218              	.LVL113:
 1219              		.loc 1 1069 0
 1220 00ba 5360     		str	r3, [r2, #4]
 1221              		.loc 1 1071 0
 1222 00bc 2046     		mov	r0, r4
 1223              	.LVL114:
 1224 00be FFF7FEFF 		bl	otg_txfifo_flush.isra.1
 1225              	.LVL115:
 1226              		.loc 1 1075 0
 1227 00c2 D8F80C30 		ldr	r3, [r8, #12]
 1228              		.loc 1 1074 0
 1229 00c6 1B8A     		ldrh	r3, [r3, #16]
 1230 00c8 43EA8553 		orr	r3, r3, r5, lsl #22
 1231 00cc 1E43     		orrs	r6, r6, r3
 1232              	.LVL116:
 1233              		.loc 1 1073 0
 1234 00ce 05F14803 		add	r3, r5, #72
 1235 00d2 5B01     		lsls	r3, r3, #5
 1236 00d4 E650     		str	r6, [r4, r3]
 1237              		.loc 1 1076 0
 1238 00d6 0123     		movs	r3, #1
 1239 00d8 D4F81C28 		ldr	r2, [r4, #2076]
 1240 00dc AB40     		lsls	r3, r3, r5
 1241 00de 1343     		orrs	r3, r3, r2
 1242 00e0 15E0     		b	.L87
 1243              	.LVL117:
 1244              	.L82:
 1245              		.loc 1 1079 0
 1246 00e2 04EB8202 		add	r2, r4, r2, lsl #2
 1247 00e6 104B     		ldr	r3, .L88+16
 1248 00e8 5360     		str	r3, [r2, #4]
 1249              		.loc 1 1080 0
 1250 00ea 2046     		mov	r0, r4
 1251              	.LVL118:
 1252 00ec 2946     		mov	r1, r5
 1253 00ee FFF7FEFF 		bl	otg_txfifo_flush.isra.1
 1254              	.LVL119:
ARM GAS  /tmp/ccM0SCbF.s 			page 23


 1255 00f2 04EB4713 		add	r3, r4, r7, lsl #5
 1256              		.loc 1 1081 0
 1257 00f6 D3F80029 		ldr	r2, [r3, #2304]
 1258 00fa 22F40042 		bic	r2, r2, #32768
 1259 00fe C3F80029 		str	r2, [r3, #2304]
 1260              		.loc 1 1082 0
 1261 0102 D4F81C28 		ldr	r2, [r4, #2076]
 1262 0106 0123     		movs	r3, #1
 1263 0108 AB40     		lsls	r3, r3, r5
 1264 010a 22EA0303 		bic	r3, r2, r3
 1265              	.LVL120:
 1266              	.L87:
 1267 010e C4F81C38 		str	r3, [r4, #2076]
 1268 0112 BDE8F081 		pop	{r4, r5, r6, r7, r8, pc}
 1269              	.LVL121:
 1270              	.L89:
 1271 0116 00BF     		.align	2
 1272              	.L88:
 1273 0118 00800010 		.word	268468224
 1274 011c 00800410 		.word	268730368
 1275 0120 00800810 		.word	268992512
 1276 0124 00800C10 		.word	269254656
 1277 0128 00040002 		.word	33555456
 1278              		.cfi_endproc
 1279              	.LFE298:
 1280              		.size	usb_lld_init_endpoint, .-usb_lld_init_endpoint
 1281              		.section	.text.usb_lld_disable_endpoints,"ax",%progbits
 1282              		.align	1
 1283              		.global	usb_lld_disable_endpoints
 1284              		.thumb
 1285              		.thumb_func
 1286              		.type	usb_lld_disable_endpoints, %function
 1287              	usb_lld_disable_endpoints:
 1288              	.LFB299:
 1289              		.loc 1 1093 0
 1290              		.cfi_startproc
 1291              		@ args = 0, pretend = 0, frame = 0
 1292              		@ frame_needed = 0, uses_anonymous_args = 0
 1293              		@ link register save eliminated.
 1294              	.LVL122:
 1295              	.LBB284:
 1296              	.LBB285:
 1297              		.loc 1 196 0
 1298 0000 826D     		ldr	r2, [r0, #88]
 1299 0002 1268     		ldr	r2, [r2]
 1300 0004 C265     		str	r2, [r0, #92]
 1301              	.LBE285:
 1302              	.LBE284:
 1303              		.loc 1 1099 0
 1304 0006 FFF7FEBF 		b	otg_disable_ep
 1305              	.LVL123:
 1306              		.cfi_endproc
 1307              	.LFE299:
 1308              		.size	usb_lld_disable_endpoints, .-usb_lld_disable_endpoints
 1309              		.section	.text.usb_lld_get_status_out,"ax",%progbits
 1310              		.align	1
 1311              		.global	usb_lld_get_status_out
ARM GAS  /tmp/ccM0SCbF.s 			page 24


 1312              		.thumb
 1313              		.thumb_func
 1314              		.type	usb_lld_get_status_out, %function
 1315              	usb_lld_get_status_out:
 1316              	.LFB300:
 1317              		.loc 1 1114 0
 1318              		.cfi_startproc
 1319              		@ args = 0, pretend = 0, frame = 0
 1320              		@ frame_needed = 0, uses_anonymous_args = 0
 1321              		@ link register save eliminated.
 1322              	.LVL124:
 1323              		.loc 1 1119 0
 1324 0000 5831     		adds	r1, r1, #88
 1325              	.LVL125:
 1326 0002 436D     		ldr	r3, [r0, #84]
 1327 0004 4901     		lsls	r1, r1, #5
 1328 0006 5B58     		ldr	r3, [r3, r1]
 1329              	.LVL126:
 1330              		.loc 1 1120 0
 1331 0008 13F40040 		ands	r0, r3, #32768
 1332              	.LVL127:
 1333 000c 04D0     		beq	.L92
 1334              		.loc 1 1122 0
 1335 000e 13F4001F 		tst	r3, #2097152
 1336              		.loc 1 1124 0
 1337 0012 14BF     		ite	ne
 1338 0014 0120     		movne	r0, #1
 1339 0016 0220     		moveq	r0, #2
 1340              	.L92:
 1341              		.loc 1 1125 0
 1342 0018 7047     		bx	lr
 1343              		.cfi_endproc
 1344              	.LFE300:
 1345              		.size	usb_lld_get_status_out, .-usb_lld_get_status_out
 1346              		.section	.text.usb_lld_get_status_in,"ax",%progbits
 1347              		.align	1
 1348              		.global	usb_lld_get_status_in
 1349              		.thumb
 1350              		.thumb_func
 1351              		.type	usb_lld_get_status_in, %function
 1352              	usb_lld_get_status_in:
 1353              	.LFB301:
 1354              		.loc 1 1139 0
 1355              		.cfi_startproc
 1356              		@ args = 0, pretend = 0, frame = 0
 1357              		@ frame_needed = 0, uses_anonymous_args = 0
 1358              		@ link register save eliminated.
 1359              	.LVL128:
 1360              		.loc 1 1144 0
 1361 0000 4831     		adds	r1, r1, #72
 1362              	.LVL129:
 1363 0002 436D     		ldr	r3, [r0, #84]
 1364 0004 4901     		lsls	r1, r1, #5
 1365 0006 5B58     		ldr	r3, [r3, r1]
 1366              	.LVL130:
 1367              		.loc 1 1145 0
 1368 0008 13F40040 		ands	r0, r3, #32768
ARM GAS  /tmp/ccM0SCbF.s 			page 25


 1369              	.LVL131:
 1370 000c 04D0     		beq	.L96
 1371              		.loc 1 1147 0
 1372 000e 13F4001F 		tst	r3, #2097152
 1373              		.loc 1 1149 0
 1374 0012 14BF     		ite	ne
 1375 0014 0120     		movne	r0, #1
 1376 0016 0220     		moveq	r0, #2
 1377              	.L96:
 1378              		.loc 1 1150 0
 1379 0018 7047     		bx	lr
 1380              		.cfi_endproc
 1381              	.LFE301:
 1382              		.size	usb_lld_get_status_in, .-usb_lld_get_status_in
 1383              		.section	.text.usb_lld_read_setup,"ax",%progbits
 1384              		.align	1
 1385              		.global	usb_lld_read_setup
 1386              		.thumb
 1387              		.thumb_func
 1388              		.type	usb_lld_read_setup, %function
 1389              	usb_lld_read_setup:
 1390              	.LFB302:
 1391              		.loc 1 1166 0
 1392              		.cfi_startproc
 1393              		@ args = 0, pretend = 0, frame = 0
 1394              		@ frame_needed = 0, uses_anonymous_args = 0
 1395              		@ link register save eliminated.
 1396              	.LVL132:
 1397              		.loc 1 1168 0
 1398 0000 00EB8101 		add	r1, r0, r1, lsl #2
 1399              	.LVL133:
 1400 0004 CB68     		ldr	r3, [r1, #12]
 1401 0006 196A     		ldr	r1, [r3, #32]
 1402 0008 0B68     		ldr	r3, [r1]	@ unaligned
 1403 000a 1360     		str	r3, [r2]	@ unaligned
 1404 000c 4B68     		ldr	r3, [r1, #4]	@ unaligned
 1405 000e 5360     		str	r3, [r2, #4]	@ unaligned
 1406 0010 7047     		bx	lr
 1407              		.cfi_endproc
 1408              	.LFE302:
 1409              		.size	usb_lld_read_setup, .-usb_lld_read_setup
 1410              		.section	.text.usb_lld_start_out,"ax",%progbits
 1411              		.align	1
 1412              		.global	usb_lld_start_out
 1413              		.thumb
 1414              		.thumb_func
 1415              		.type	usb_lld_start_out, %function
 1416              	usb_lld_start_out:
 1417              	.LFB303:
 1418              		.loc 1 1179 0
 1419              		.cfi_startproc
 1420              		@ args = 0, pretend = 0, frame = 0
 1421              		@ frame_needed = 0, uses_anonymous_args = 0
 1422              	.LVL134:
 1423              		.loc 1 1181 0
 1424 0000 00EB8103 		add	r3, r0, r1, lsl #2
 1425              		.loc 1 1179 0
ARM GAS  /tmp/ccM0SCbF.s 			page 26


 1426 0004 30B5     		push	{r4, r5, lr}
 1427              		.cfi_def_cfa_offset 12
 1428              		.cfi_offset 4, -12
 1429              		.cfi_offset 5, -8
 1430              		.cfi_offset 14, -4
 1431              		.loc 1 1181 0
 1432 0006 DD68     		ldr	r5, [r3, #12]
 1433 0008 AA69     		ldr	r2, [r5, #24]
 1434              	.LVL135:
 1435              		.loc 1 1184 0
 1436 000a 1368     		ldr	r3, [r2]
 1437 000c D360     		str	r3, [r2, #12]
 1438              		.loc 1 1185 0
 1439 000e 19B9     		cbnz	r1, .L101
 1440              		.loc 1 1185 0 is_stmt 0 discriminator 1
 1441 0010 402B     		cmp	r3, #64
 1442              		.loc 1 1186 0 is_stmt 1 discriminator 1
 1443 0012 84BF     		itt	hi
 1444 0014 4023     		movhi	r3, #64
 1445 0016 1360     		strhi	r3, [r2]
 1446              	.L101:
 1447 0018 1468     		ldr	r4, [r2]
 1448              		.loc 1 1193 0
 1449 001a 6B8A     		ldrh	r3, [r5, #18]
 1450              		.loc 1 1198 0
 1451 001c 426D     		ldr	r2, [r0, #84]
 1452              	.LVL136:
 1453 001e 013C     		subs	r4, r4, #1
 1454              		.loc 1 1193 0
 1455 0020 1C44     		add	r4, r4, r3
 1456 0022 B4FBF3F4 		udiv	r4, r4, r3
 1457              	.LVL137:
 1458              		.loc 1 1195 0
 1459 0026 6343     		muls	r3, r4, r3
 1460              	.LVL138:
 1461              		.loc 1 1198 0
 1462 0028 E004     		lsls	r0, r4, #19
 1463              	.LVL139:
 1464              		.loc 1 1195 0
 1465 002a 0333     		adds	r3, r3, #3
 1466 002c 40F0C040 		orr	r0, r0, #1610612736
 1467 0030 23F00303 		bic	r3, r3, #3
 1468              	.LVL140:
 1469              		.loc 1 1198 0
 1470 0034 0343     		orrs	r3, r3, r0
 1471              	.LVL141:
 1472 0036 02EB4110 		add	r0, r2, r1, lsl #5
 1473 003a 09B2     		sxth	r1, r1
 1474              	.LVL142:
 1475 003c C0F8103B 		str	r3, [r0, #2832]
 1476              		.loc 1 1202 0
 1477 0040 2B68     		ldr	r3, [r5]
 1478 0042 03F00303 		and	r3, r3, #3
 1479 0046 012B     		cmp	r3, #1
 1480 0048 0ED1     		bne	.L102
 1481              		.loc 1 1204 0
 1482 004a D2F80838 		ldr	r3, [r2, #2056]
ARM GAS  /tmp/ccM0SCbF.s 			page 27


 1483 004e 02EB4110 		add	r0, r2, r1, lsl #5
 1484 0052 13F4807F 		tst	r3, #256
 1485              		.loc 1 1205 0
 1486 0056 D0F8003B 		ldr	r3, [r0, #2816]
 1487 005a 14BF     		ite	ne
 1488 005c 43F08053 		orrne	r3, r3, #268435456
 1489              		.loc 1 1207 0
 1490 0060 43F00053 		orreq	r3, r3, #536870912
 1491 0064 C0F8003B 		str	r3, [r0, #2816]
 1492              	.L102:
 1493 0068 02EB4112 		add	r2, r2, r1, lsl #5
 1494              		.loc 1 1211 0
 1495 006c D2F8003B 		ldr	r3, [r2, #2816]
 1496 0070 43F00443 		orr	r3, r3, #-2080374784
 1497 0074 C2F8003B 		str	r3, [r2, #2816]
 1498 0078 30BD     		pop	{r4, r5, pc}
 1499              		.cfi_endproc
 1500              	.LFE303:
 1501              		.size	usb_lld_start_out, .-usb_lld_start_out
 1502              		.section	.text.otg_epout_handler.constprop.7,"ax",%progbits
 1503              		.align	1
 1504              		.thumb
 1505              		.thumb_func
 1506              		.type	otg_epout_handler.constprop.7, %function
 1507              	otg_epout_handler.constprop.7:
 1508              	.LFB315:
 1509              		.loc 1 406 0
 1510              		.cfi_startproc
 1511              		@ args = 0, pretend = 0, frame = 0
 1512              		@ frame_needed = 0, uses_anonymous_args = 0
 1513              	.LVL143:
 1514 0000 2DE9F041 		push	{r4, r5, r6, r7, r8, lr}
 1515              		.cfi_def_cfa_offset 24
 1516              		.cfi_offset 4, -24
 1517              		.cfi_offset 5, -20
 1518              		.cfi_offset 6, -16
 1519              		.cfi_offset 7, -12
 1520              		.cfi_offset 8, -8
 1521              		.cfi_offset 14, -4
 1522              		.loc 1 407 0
 1523 0004 284D     		ldr	r5, .L127
 1524 0006 6E6D     		ldr	r6, [r5, #84]
 1525              	.LVL144:
 1526              		.loc 1 408 0
 1527 0008 06EB4013 		add	r3, r6, r0, lsl #5
 1528              		.loc 1 406 0
 1529 000c 0446     		mov	r4, r0
 1530              		.loc 1 408 0
 1531 000e D3F8087B 		ldr	r7, [r3, #2824]
 1532              	.LVL145:
 1533              		.loc 1 411 0
 1534 0012 C3F8087B 		str	r7, [r3, #2824]
 1535              		.loc 1 413 0
 1536 0016 3807     		lsls	r0, r7, #28
 1537              	.LVL146:
 1538 0018 0AD5     		bpl	.L106
 1539 001a D6F81438 		ldr	r3, [r6, #2068]
ARM GAS  /tmp/ccM0SCbF.s 			page 28


 1540 001e 1907     		lsls	r1, r3, #28
 1541 0020 06D5     		bpl	.L106
 1542              		.loc 1 416 0
 1543 0022 05EB8403 		add	r3, r5, r4, lsl #2
 1544 0026 2846     		mov	r0, r5
 1545 0028 DB68     		ldr	r3, [r3, #12]
 1546 002a 2146     		mov	r1, r4
 1547 002c 5B68     		ldr	r3, [r3, #4]
 1548 002e 9847     		blx	r3
 1549              	.LVL147:
 1550              	.L106:
 1551              		.loc 1 418 0
 1552 0030 FA07     		lsls	r2, r7, #31
 1553 0032 36D5     		bpl	.L105
 1554 0034 D6F81438 		ldr	r3, [r6, #2068]
 1555 0038 DB07     		lsls	r3, r3, #31
 1556 003a 32D5     		bpl	.L105
 1557              	.LBB303:
 1558              		.loc 1 423 0
 1559 003c 14B9     		cbnz	r4, .L110
 1560 003e 95F83430 		ldrb	r3, [r5, #52]	@ zero_extendqisi2
 1561 0042 73B3     		cbz	r3, .L105
 1562              	.L110:
 1563              		.loc 1 427 0
 1564 0044 05EB8403 		add	r3, r5, r4, lsl #2
 1565 0048 D968     		ldr	r1, [r3, #12]
 1566 004a 8B69     		ldr	r3, [r1, #24]
 1567              	.LVL148:
 1568              		.loc 1 430 0
 1569 004c E4B9     		cbnz	r4, .L111
 1570              		.loc 1 431 0
 1571 004e 4A8A     		ldrh	r2, [r1, #18]
 1572 0050 5E68     		ldr	r6, [r3, #4]
 1573              	.LVL149:
 1574 0052 B6FBF2F0 		udiv	r0, r6, r2
 1575 0056 02FB1062 		mls	r2, r2, r0, r6
 1576              		.loc 1 430 0
 1577 005a AAB9     		cbnz	r2, .L111
 1578              		.loc 1 432 0
 1579 005c 1868     		ldr	r0, [r3]
 1580 005e DA68     		ldr	r2, [r3, #12]
 1581              		.loc 1 431 0
 1582 0060 9042     		cmp	r0, r2
 1583 0062 11D2     		bcs	.L111
 1584              		.loc 1 436 0
 1585 0064 121A     		subs	r2, r2, r0
 1586              		.loc 1 437 0
 1587 0066 83E81400 		stmia	r3, {r2, r4}
 1588              	.LVL150:
 1589              	.LBB304:
 1590              	.LBB305:
 1591              	.LBB306:
 1592              	.LBB307:
 1593              	.LBB308:
 1594              	.LBB309:
 1595              	.LBB310:
 1596              		.loc 3 264 0
ARM GAS  /tmp/ccM0SCbF.s 			page 29


 1597 006a 2023     		movs	r3, #32
 1598              	.LVL151:
 1599              	@ 264 "../../modules/ChibiOS/os/common/ext/CMSIS/include/cmsis_gcc.h" 1
 1600 006c 83F31188 		MSR basepri, r3
 1601              	@ 0 "" 2
 1602              		.thumb
 1603              	.LBE310:
 1604              	.LBE309:
 1605              	.LBE308:
 1606              	.LBE307:
 1607              		.loc 4 417 0
 1608 0070 FFF7FEFF 		bl	_stats_start_measure_crit_isr
 1609              	.LVL152:
 1610              	.LBE306:
 1611              	.LBE305:
 1612              	.LBE304:
 1613              		.loc 1 439 0
 1614 0074 0C48     		ldr	r0, .L127
 1615 0076 2146     		mov	r1, r4
 1616 0078 FFF7FEFF 		bl	usb_lld_start_out
 1617              	.LVL153:
 1618              	.LBB311:
 1619              	.LBB312:
 1620              	.LBB313:
 1621              		.loc 4 437 0
 1622 007c FFF7FEFF 		bl	_stats_stop_measure_crit_isr
 1623              	.LVL154:
 1624              	.LBB314:
 1625              	.LBB315:
 1626              	.LBB316:
 1627              	.LBB317:
 1628              		.loc 3 264 0
 1629              	@ 264 "../../modules/ChibiOS/os/common/ext/CMSIS/include/cmsis_gcc.h" 1
 1630 0080 84F31188 		MSR basepri, r4
 1631              	@ 0 "" 2
 1632              		.thumb
 1633 0084 BDE8F081 		pop	{r4, r5, r6, r7, r8, pc}
 1634              	.LVL155:
 1635              	.L111:
 1636              	.LBE317:
 1637              	.LBE316:
 1638              	.LBE315:
 1639              	.LBE314:
 1640              	.LBE313:
 1641              	.LBE312:
 1642              	.LBE311:
 1643              		.loc 1 444 0
 1644 0088 6A89     		ldrh	r2, [r5, #10]
 1645 008a 0123     		movs	r3, #1
 1646              	.LVL156:
 1647 008c A340     		lsls	r3, r3, r4
 1648 008e 22EA0303 		bic	r3, r2, r3
 1649 0092 6B81     		strh	r3, [r5, #10]	@ movhi
 1650 0094 CB68     		ldr	r3, [r1, #12]
 1651 0096 23B1     		cbz	r3, .L105
 1652 0098 2146     		mov	r1, r4
 1653              	.LVL157:
ARM GAS  /tmp/ccM0SCbF.s 			page 30


 1654 009a 0348     		ldr	r0, .L127
 1655              	.LBE303:
 1656              		.loc 1 447 0
 1657 009c BDE8F041 		pop	{r4, r5, r6, r7, r8, lr}
 1658              		.cfi_remember_state
 1659              		.cfi_restore 14
 1660              		.cfi_restore 8
 1661              		.cfi_restore 7
 1662              		.cfi_restore 6
 1663              		.cfi_restore 5
 1664              		.cfi_restore 4
 1665              		.cfi_def_cfa_offset 0
 1666              	.LVL158:
 1667              	.LBB318:
 1668              		.loc 1 444 0
 1669 00a0 1847     		bx	r3	@ indirect register sibling call
 1670              	.LVL159:
 1671              	.L105:
 1672              		.cfi_restore_state
 1673 00a2 BDE8F081 		pop	{r4, r5, r6, r7, r8, pc}
 1674              	.LVL160:
 1675              	.L128:
 1676 00a6 00BF     		.align	2
 1677              	.L127:
 1678 00a8 00000000 		.word	.LANCHOR0
 1679              	.LBE318:
 1680              		.cfi_endproc
 1681              	.LFE315:
 1682              		.size	otg_epout_handler.constprop.7, .-otg_epout_handler.constprop.7
 1683              		.section	.text.usb_lld_start_in,"ax",%progbits
 1684              		.align	1
 1685              		.global	usb_lld_start_in
 1686              		.thumb
 1687              		.thumb_func
 1688              		.type	usb_lld_start_in, %function
 1689              	usb_lld_start_in:
 1690              	.LFB304:
 1691              		.loc 1 1222 0
 1692              		.cfi_startproc
 1693              		@ args = 0, pretend = 0, frame = 0
 1694              		@ frame_needed = 0, uses_anonymous_args = 0
 1695              	.LVL161:
 1696              		.loc 1 1223 0
 1697 0000 00EB8103 		add	r3, r0, r1, lsl #2
 1698              		.loc 1 1222 0
 1699 0004 F0B5     		push	{r4, r5, r6, r7, lr}
 1700              		.cfi_def_cfa_offset 20
 1701              		.cfi_offset 4, -20
 1702              		.cfi_offset 5, -16
 1703              		.cfi_offset 6, -12
 1704              		.cfi_offset 7, -8
 1705              		.cfi_offset 14, -4
 1706              		.loc 1 1223 0
 1707 0006 DD68     		ldr	r5, [r3, #12]
 1708 0008 436D     		ldr	r3, [r0, #84]
 1709 000a 6A69     		ldr	r2, [r5, #20]
 1710              	.LVL162:
ARM GAS  /tmp/ccM0SCbF.s 			page 31


 1711              		.loc 1 1226 0
 1712 000c 1668     		ldr	r6, [r2]
 1713 000e D660     		str	r6, [r2, #12]
 1714 0010 4C01     		lsls	r4, r1, #5
 1715              		.loc 1 1227 0
 1716 0012 1EB9     		cbnz	r6, .L130
 1717              		.loc 1 1229 0
 1718 0014 1C44     		add	r4, r4, r3
 1719 0016 4FF40022 		mov	r2, #524288
 1720              	.LVL163:
 1721 001a 0FE0     		b	.L135
 1722              	.LVL164:
 1723              	.L130:
 1724              	.LBB319:
 1725              		.loc 1 1232 0
 1726 001c 19B9     		cbnz	r1, .L132
 1727              		.loc 1 1232 0 is_stmt 0 discriminator 1
 1728 001e 402E     		cmp	r6, #64
 1729              		.loc 1 1233 0 is_stmt 1 discriminator 1
 1730 0020 84BF     		itt	hi
 1731 0022 4020     		movhi	r0, #64
 1732              	.LVL165:
 1733 0024 1060     		strhi	r0, [r2]
 1734              	.L132:
 1735              		.loc 1 1236 0
 1736 0026 1268     		ldr	r2, [r2]
 1737              	.LVL166:
 1738 0028 2F8A     		ldrh	r7, [r5, #16]
 1739              	.LVL167:
 1740 002a 42F00056 		orr	r6, r2, #536870912
 1741 002e 013A     		subs	r2, r2, #1
 1742              	.LVL168:
 1743 0030 D019     		adds	r0, r2, r7
 1744              		.loc 1 1239 0
 1745 0032 1C44     		add	r4, r4, r3
 1746              		.loc 1 1236 0
 1747 0034 B0FBF7F2 		udiv	r2, r0, r7
 1748              		.loc 1 1239 0
 1749 0038 46EAC242 		orr	r2, r6, r2, lsl #19
 1750              	.LVL169:
 1751              	.L135:
 1752 003c C4F81029 		str	r2, [r4, #2320]
 1753              	.LBE319:
 1754              		.loc 1 1244 0
 1755 0040 2A68     		ldr	r2, [r5]
 1756 0042 02F00302 		and	r2, r2, #3
 1757 0046 012A     		cmp	r2, #1
 1758 0048 0AB2     		sxth	r2, r1
 1759 004a 0ED1     		bne	.L133
 1760              		.loc 1 1246 0
 1761 004c D3F80808 		ldr	r0, [r3, #2056]
 1762 0050 03EB4214 		add	r4, r3, r2, lsl #5
 1763 0054 10F4807F 		tst	r0, #256
 1764              		.loc 1 1247 0
 1765 0058 D4F80009 		ldr	r0, [r4, #2304]
 1766 005c 14BF     		ite	ne
 1767 005e 40F08050 		orrne	r0, r0, #268435456
ARM GAS  /tmp/ccM0SCbF.s 			page 32


 1768              		.loc 1 1249 0
 1769 0062 40F00050 		orreq	r0, r0, #536870912
 1770 0066 C4F80009 		str	r0, [r4, #2304]
 1771              	.L133:
 1772 006a 03EB4212 		add	r2, r3, r2, lsl #5
 1773              		.loc 1 1253 0
 1774 006e D2F80009 		ldr	r0, [r2, #2304]
 1775 0072 40F00440 		orr	r0, r0, #-2080374784
 1776 0076 C2F80009 		str	r0, [r2, #2304]
 1777              		.loc 1 1254 0
 1778 007a D3F83408 		ldr	r0, [r3, #2100]
 1779 007e 0122     		movs	r2, #1
 1780 0080 8A40     		lsls	r2, r2, r1
 1781 0082 0243     		orrs	r2, r2, r0
 1782 0084 C3F83428 		str	r2, [r3, #2100]
 1783 0088 F0BD     		pop	{r4, r5, r6, r7, pc}
 1784              		.cfi_endproc
 1785              	.LFE304:
 1786              		.size	usb_lld_start_in, .-usb_lld_start_in
 1787              		.section	.text.otg_epin_handler.constprop.8,"ax",%progbits
 1788              		.align	1
 1789              		.thumb
 1790              		.thumb_func
 1791              		.type	otg_epin_handler.constprop.8, %function
 1792              	otg_epin_handler.constprop.8:
 1793              	.LFB314:
 1794              		.loc 1 359 0
 1795              		.cfi_startproc
 1796              		@ args = 0, pretend = 0, frame = 0
 1797              		@ frame_needed = 0, uses_anonymous_args = 0
 1798              	.LVL170:
 1799 0000 2DE9F041 		push	{r4, r5, r6, r7, r8, lr}
 1800              		.cfi_def_cfa_offset 24
 1801              		.cfi_offset 4, -24
 1802              		.cfi_offset 5, -20
 1803              		.cfi_offset 6, -16
 1804              		.cfi_offset 7, -12
 1805              		.cfi_offset 8, -8
 1806              		.cfi_offset 14, -4
 1807              		.loc 1 360 0
 1808 0004 2B4C     		ldr	r4, .L155
 1809 0006 666D     		ldr	r6, [r4, #84]
 1810              	.LVL171:
 1811              		.loc 1 361 0
 1812 0008 06EB4013 		add	r3, r6, r0, lsl #5
 1813              		.loc 1 359 0
 1814 000c 0546     		mov	r5, r0
 1815              		.loc 1 361 0
 1816 000e D3F80879 		ldr	r7, [r3, #2312]
 1817              	.LVL172:
 1818              		.loc 1 363 0
 1819 0012 C3F80879 		str	r7, [r3, #2312]
 1820              		.loc 1 368 0
 1821 0016 F907     		lsls	r1, r7, #31
 1822 0018 2AD5     		bpl	.L139
 1823 001a D6F81038 		ldr	r3, [r6, #2064]
 1824 001e DA07     		lsls	r2, r3, #31
ARM GAS  /tmp/ccM0SCbF.s 			page 33


 1825 0020 26D5     		bpl	.L139
 1826              	.LBB355:
 1827              		.loc 1 370 0
 1828 0022 04EB8003 		add	r3, r4, r0, lsl #2
 1829 0026 D968     		ldr	r1, [r3, #12]
 1830 0028 4B69     		ldr	r3, [r1, #20]
 1831              	.LVL173:
 1832              		.loc 1 372 0
 1833 002a 1868     		ldr	r0, [r3]
 1834              	.LVL174:
 1835 002c DA68     		ldr	r2, [r3, #12]
 1836 002e 9042     		cmp	r0, r2
 1837 0030 13D2     		bcs	.L141
 1838              		.loc 1 376 0
 1839 0032 121A     		subs	r2, r2, r0
 1840              		.loc 1 377 0
 1841 0034 4FF00008 		mov	r8, #0
 1842              		.loc 1 376 0
 1843 0038 1A60     		str	r2, [r3]
 1844              		.loc 1 377 0
 1845 003a C3F80480 		str	r8, [r3, #4]
 1846              	.LVL175:
 1847              	.LBB356:
 1848              	.LBB357:
 1849              	.LBB358:
 1850              	.LBB359:
 1851              	.LBB360:
 1852              	.LBB361:
 1853              	.LBB362:
 1854              		.loc 3 264 0
 1855 003e 2023     		movs	r3, #32
 1856              	.LVL176:
 1857              	@ 264 "../../modules/ChibiOS/os/common/ext/CMSIS/include/cmsis_gcc.h" 1
 1858 0040 83F31188 		MSR basepri, r3
 1859              	@ 0 "" 2
 1860              		.thumb
 1861              	.LBE362:
 1862              	.LBE361:
 1863              	.LBE360:
 1864              	.LBE359:
 1865              		.loc 4 417 0
 1866 0044 FFF7FEFF 		bl	_stats_start_measure_crit_isr
 1867              	.LVL177:
 1868              	.LBE358:
 1869              	.LBE357:
 1870              	.LBE356:
 1871              		.loc 1 379 0
 1872 0048 2046     		mov	r0, r4
 1873 004a 2946     		mov	r1, r5
 1874 004c FFF7FEFF 		bl	usb_lld_start_in
 1875              	.LVL178:
 1876              	.LBB363:
 1877              	.LBB364:
 1878              	.LBB365:
 1879              		.loc 4 437 0
 1880 0050 FFF7FEFF 		bl	_stats_stop_measure_crit_isr
 1881              	.LVL179:
ARM GAS  /tmp/ccM0SCbF.s 			page 34


 1882              	.LBB366:
 1883              	.LBB367:
 1884              	.LBB368:
 1885              	.LBB369:
 1886              		.loc 3 264 0
 1887              	@ 264 "../../modules/ChibiOS/os/common/ext/CMSIS/include/cmsis_gcc.h" 1
 1888 0054 88F31188 		MSR basepri, r8
 1889              	@ 0 "" 2
 1890              		.thumb
 1891 0058 0AE0     		b	.L139
 1892              	.LVL180:
 1893              	.L141:
 1894              	.LBE369:
 1895              	.LBE368:
 1896              	.LBE367:
 1897              	.LBE366:
 1898              	.LBE365:
 1899              	.LBE364:
 1900              	.LBE363:
 1901              		.loc 1 384 0
 1902 005a 2289     		ldrh	r2, [r4, #8]
 1903 005c 0123     		movs	r3, #1
 1904              	.LVL181:
 1905 005e AB40     		lsls	r3, r3, r5
 1906 0060 22EA0303 		bic	r3, r2, r3
 1907 0064 2381     		strh	r3, [r4, #8]	@ movhi
 1908 0066 8B68     		ldr	r3, [r1, #8]
 1909 0068 13B1     		cbz	r3, .L139
 1910 006a 2046     		mov	r0, r4
 1911 006c 2946     		mov	r1, r5
 1912              	.LVL182:
 1913 006e 9847     		blx	r3
 1914              	.LVL183:
 1915              	.L139:
 1916              	.LBE355:
 1917              		.loc 1 387 0
 1918 0070 3B06     		lsls	r3, r7, #24
 1919 0072 1DD5     		bpl	.L137
 1920              		.loc 1 388 0
 1921 0074 D6F83428 		ldr	r2, [r6, #2100]
 1922 0078 0123     		movs	r3, #1
 1923 007a 03FA05F5 		lsl	r5, r3, r5
 1924              		.loc 1 387 0
 1925 007e 1542     		tst	r5, r2
 1926 0080 16D0     		beq	.L137
 1927              	.LVL184:
 1928              	.LBB370:
 1929              	.LBB371:
 1930              	.LBB372:
 1931              	.LBB373:
 1932              	.LBB374:
 1933              	.LBB375:
 1934              	.LBB376:
 1935              		.loc 3 264 0
 1936 0082 2023     		movs	r3, #32
 1937              	@ 264 "../../modules/ChibiOS/os/common/ext/CMSIS/include/cmsis_gcc.h" 1
 1938 0084 83F31188 		MSR basepri, r3
ARM GAS  /tmp/ccM0SCbF.s 			page 35


 1939              	@ 0 "" 2
 1940              		.thumb
 1941              	.LBE376:
 1942              	.LBE375:
 1943              	.LBE374:
 1944              	.LBE373:
 1945              		.loc 4 417 0
 1946 0088 FFF7FEFF 		bl	_stats_start_measure_crit_isr
 1947              	.LVL185:
 1948              	.LBE372:
 1949              	.LBE371:
 1950              	.LBE370:
 1951              		.loc 1 391 0
 1952 008c 236E     		ldr	r3, [r4, #96]
 1953              	.LBB377:
 1954              	.LBB378:
 1955              		.loc 2 728 0
 1956 008e 0A48     		ldr	r0, .L155+4
 1957              	.LBE378:
 1958              	.LBE377:
 1959              		.loc 1 391 0
 1960 0090 2B43     		orrs	r3, r3, r5
 1961 0092 2366     		str	r3, [r4, #96]
 1962              		.loc 1 392 0
 1963 0094 D6F83438 		ldr	r3, [r6, #2100]
 1964 0098 23EA0505 		bic	r5, r3, r5
 1965              	.LBB381:
 1966              	.LBB379:
 1967              		.loc 2 728 0
 1968 009c 0021     		movs	r1, #0
 1969              	.LBE379:
 1970              	.LBE381:
 1971              		.loc 1 392 0
 1972 009e C6F83458 		str	r5, [r6, #2100]
 1973              	.LVL186:
 1974              	.LBB382:
 1975              	.LBB380:
 1976              		.loc 2 728 0
 1977 00a2 FFF7FEFF 		bl	chThdResumeI
 1978              	.LVL187:
 1979              	.LBE380:
 1980              	.LBE382:
 1981              	.LBB383:
 1982              	.LBB384:
 1983              	.LBB385:
 1984              		.loc 4 437 0
 1985 00a6 FFF7FEFF 		bl	_stats_stop_measure_crit_isr
 1986              	.LVL188:
 1987              	.LBB386:
 1988              	.LBB387:
 1989              	.LBB388:
 1990              	.LBB389:
 1991              		.loc 3 264 0
 1992 00aa 0023     		movs	r3, #0
 1993              	@ 264 "../../modules/ChibiOS/os/common/ext/CMSIS/include/cmsis_gcc.h" 1
 1994 00ac 83F31188 		MSR basepri, r3
 1995              	@ 0 "" 2
ARM GAS  /tmp/ccM0SCbF.s 			page 36


 1996              	.LVL189:
 1997              		.thumb
 1998              	.L137:
 1999 00b0 BDE8F081 		pop	{r4, r5, r6, r7, r8, pc}
 2000              	.LVL190:
 2001              	.L156:
 2002              		.align	2
 2003              	.L155:
 2004 00b4 00000000 		.word	.LANCHOR0
 2005 00b8 64000000 		.word	.LANCHOR0+100
 2006              	.LBE389:
 2007              	.LBE388:
 2008              	.LBE387:
 2009              	.LBE386:
 2010              	.LBE385:
 2011              	.LBE384:
 2012              	.LBE383:
 2013              		.cfi_endproc
 2014              	.LFE314:
 2015              		.size	otg_epin_handler.constprop.8, .-otg_epin_handler.constprop.8
 2016              		.section	.text.Vector14C,"ax",%progbits
 2017              		.align	1
 2018              		.global	Vector14C
 2019              		.thumb
 2020              		.thumb_func
 2021              		.type	Vector14C, %function
 2022              	Vector14C:
 2023              	.LFB292:
 2024              		.loc 1 676 0
 2025              		.cfi_startproc
 2026              		@ args = 0, pretend = 0, frame = 0
 2027              		@ frame_needed = 0, uses_anonymous_args = 0
 2028 0000 2DE9F84F 		push	{r3, r4, r5, r6, r7, r8, r9, r10, fp, lr}
 2029              		.cfi_def_cfa_offset 40
 2030              		.cfi_offset 3, -40
 2031              		.cfi_offset 4, -36
 2032              		.cfi_offset 5, -32
 2033              		.cfi_offset 6, -28
 2034              		.cfi_offset 7, -24
 2035              		.cfi_offset 8, -20
 2036              		.cfi_offset 9, -16
 2037              		.cfi_offset 10, -12
 2038              		.cfi_offset 11, -8
 2039              		.cfi_offset 14, -4
 2040              		.loc 1 678 0
 2041 0004 FFF7FEFF 		bl	_stats_increase_irq
 2042              	.LVL191:
 2043              	.LBB432:
 2044              	.LBB433:
 2045              		.loc 1 519 0
 2046 0008 8148     		ldr	r0, .L241
 2047 000a 446D     		ldr	r4, [r0, #84]
 2048              	.LVL192:
 2049              		.loc 1 522 0
 2050 000c 6369     		ldr	r3, [r4, #20]
 2051              	.LVL193:
 2052              		.loc 1 523 0
ARM GAS  /tmp/ccM0SCbF.s 			page 37


 2053 000e A569     		ldr	r5, [r4, #24]
 2054 0010 1D40     		ands	r5, r5, r3
 2055              	.LVL194:
 2056              		.loc 1 527 0
 2057 0012 15F4805F 		tst	r5, #4096
 2058              		.loc 1 524 0
 2059 0016 6561     		str	r5, [r4, #20]
 2060 0018 0646     		mov	r6, r0
 2061              		.loc 1 527 0
 2062 001a 04D0     		beq	.L158
 2063              		.loc 1 530 0
 2064 001c 0023     		movs	r3, #0
 2065 001e 0366     		str	r3, [r0, #96]
 2066              		.loc 1 533 0
 2067 0020 FFF7FEFF 		bl	_usb_reset
 2068              	.LVL195:
 2069 0024 EFE0     		b	.L159
 2070              	.L158:
 2071              		.loc 1 540 0
 2072 0026 002D     		cmp	r5, #0
 2073 0028 12DA     		bge	.L160
 2074              		.loc 1 543 0
 2075 002a D4F8003E 		ldr	r3, [r4, #3584]
 2076              		.loc 1 551 0
 2077 002e 7848     		ldr	r0, .L241
 2078              		.loc 1 543 0
 2079 0030 9F07     		lsls	r7, r3, #30
 2080              		.loc 1 545 0
 2081 0032 1EBF     		ittt	ne
 2082 0034 D4F8003E 		ldrne	r3, [r4, #3584]
 2083 0038 23F00303 		bicne	r3, r3, #3
 2084 003c C4F8003E 		strne	r3, [r4, #3584]
 2085              		.loc 1 549 0
 2086 0040 D4F80438 		ldr	r3, [r4, #2052]
 2087 0044 43F00103 		orr	r3, r3, #1
 2088 0048 C4F80438 		str	r3, [r4, #2052]
 2089              		.loc 1 551 0
 2090 004c FFF7FEFF 		bl	_usb_wakeup
 2091              	.LVL196:
 2092              	.L160:
 2093              		.loc 1 555 0
 2094 0050 2805     		lsls	r0, r5, #20
 2095 0052 04D5     		bpl	.L162
 2096              		.loc 1 558 0
 2097 0054 0023     		movs	r3, #0
 2098              		.loc 1 561 0
 2099 0056 6E48     		ldr	r0, .L241
 2100              		.loc 1 558 0
 2101 0058 3366     		str	r3, [r6, #96]
 2102              		.loc 1 561 0
 2103 005a FFF7FEFF 		bl	_usb_suspend
 2104              	.LVL197:
 2105              	.L162:
 2106              		.loc 1 565 0
 2107 005e A904     		lsls	r1, r5, #18
 2108 0060 0CD5     		bpl	.L163
 2109              		.loc 1 567 0
ARM GAS  /tmp/ccM0SCbF.s 			page 38


 2110 0062 D4F80838 		ldr	r3, [r4, #2056]
 2111 0066 13F0060F 		tst	r3, #6
 2112              		.loc 1 568 0
 2113 006a E368     		ldr	r3, [r4, #12]
 2114 006c 23F47053 		bic	r3, r3, #15360
 2115 0070 0CBF     		ite	eq
 2116 0072 43F41053 		orreq	r3, r3, #9216
 2117              		.loc 1 572 0
 2118 0076 43F4A053 		orrne	r3, r3, #5120
 2119 007a E360     		str	r3, [r4, #12]
 2120              	.L163:
 2121              		.loc 1 578 0
 2122 007c 2A07     		lsls	r2, r5, #28
 2123 007e 04D5     		bpl	.L165
 2124              		.loc 1 579 0
 2125 0080 7368     		ldr	r3, [r6, #4]
 2126 0082 DB68     		ldr	r3, [r3, #12]
 2127 0084 0BB1     		cbz	r3, .L165
 2128 0086 6248     		ldr	r0, .L241
 2129 0088 9847     		blx	r3
 2130              	.LVL198:
 2131              	.L165:
 2132              		.loc 1 583 0
 2133 008a EB02     		lsls	r3, r5, #11
 2134 008c 02D4     		bmi	.L166
 2135              	.L174:
 2136              		.loc 1 588 0
 2137 008e AF02     		lsls	r7, r5, #10
 2138 0090 5BD5     		bpl	.L168
 2139 0092 51E0     		b	.L240
 2140              	.L166:
 2141              	.LVL199:
 2142              	.LBB434:
 2143              	.LBB435:
 2144              		.loc 1 458 0
 2145 0094 D6F854A0 		ldr	r10, [r6, #84]
 2146              	.LVL200:
 2147 0098 4FF00009 		mov	r9, #0
 2148              	.LVL201:
 2149              	.L169:
 2150              		.loc 1 460 0
 2151 009c B36D     		ldr	r3, [r6, #88]
 2152 009e 9B68     		ldr	r3, [r3, #8]
 2153 00a0 5FFA89F7 		uxtb	r7, r9
 2154              	.LVL202:
 2155 00a4 9F42     		cmp	r7, r3
 2156 00a6 F2D8     		bhi	.L174
 2157 00a8 0AEB4713 		add	r3, r10, r7, lsl #5
 2158              		.loc 1 461 0
 2159 00ac D3F80029 		ldr	r2, [r3, #2304]
 2160 00b0 02F44022 		and	r2, r2, #786432
 2161 00b4 B2F5802F 		cmp	r2, #262144
 2162 00b8 3BD1     		bne	.L170
 2163              		.loc 1 462 0
 2164 00ba D3F80029 		ldr	r2, [r3, #2304]
 2165              		.loc 1 461 0
 2166 00be 002A     		cmp	r2, #0
ARM GAS  /tmp/ccM0SCbF.s 			page 39


 2167 00c0 37DA     		bge	.L170
 2168              		.loc 1 465 0
 2169 00c2 D3F80029 		ldr	r2, [r3, #2304]
 2170 00c6 42F09042 		orr	r2, r2, #1207959552
 2171 00ca C3F80029 		str	r2, [r3, #2304]
 2172              	.L171:
 2173              		.loc 1 466 0
 2174 00ce D3F80029 		ldr	r2, [r3, #2304]
 2175 00d2 002A     		cmp	r2, #0
 2176 00d4 FBDB     		blt	.L171
 2177              		.loc 1 470 0
 2178 00d6 706D     		ldr	r0, [r6, #84]
 2179 00d8 3946     		mov	r1, r7
 2180              		.loc 1 473 0
 2181 00da 4FF00108 		mov	r8, #1
 2182              		.loc 1 470 0
 2183 00de FFF7FEFF 		bl	otg_txfifo_flush.isra.1
 2184              	.LVL203:
 2185              		.loc 1 473 0
 2186 00e2 08FA07F8 		lsl	r8, r8, r7
 2187 00e6 3389     		ldrh	r3, [r6, #8]
 2188 00e8 6FEA080B 		mvn	fp, r8
 2189 00ec 0BEA0303 		and	r3, fp, r3
 2190 00f0 3381     		strh	r3, [r6, #8]	@ movhi
 2191 00f2 06EB8703 		add	r3, r6, r7, lsl #2
 2192 00f6 DB68     		ldr	r3, [r3, #12]
 2193 00f8 9B68     		ldr	r3, [r3, #8]
 2194 00fa 13B1     		cbz	r3, .L172
 2195 00fc 4448     		ldr	r0, .L241
 2196 00fe 3946     		mov	r1, r7
 2197 0100 9847     		blx	r3
 2198              	.LVL204:
 2199              	.L172:
 2200              	.LBB436:
 2201              	.LBB437:
 2202              	.LBB438:
 2203              	.LBB439:
 2204              	.LBB440:
 2205              	.LBB441:
 2206              	.LBB442:
 2207              		.loc 3 264 0
 2208 0102 2023     		movs	r3, #32
 2209              	@ 264 "../../modules/ChibiOS/os/common/ext/CMSIS/include/cmsis_gcc.h" 1
 2210 0104 83F31188 		MSR basepri, r3
 2211              	@ 0 "" 2
 2212              		.thumb
 2213              	.LBE442:
 2214              	.LBE441:
 2215              	.LBE440:
 2216              	.LBE439:
 2217              		.loc 4 417 0
 2218 0108 FFF7FEFF 		bl	_stats_start_measure_crit_isr
 2219              	.LVL205:
 2220              	.LBE438:
 2221              	.LBE437:
 2222              	.LBE436:
 2223              		.loc 1 477 0
ARM GAS  /tmp/ccM0SCbF.s 			page 40


 2224 010c DAF83438 		ldr	r3, [r10, #2100]
 2225              	.LBB443:
 2226              	.LBB444:
 2227              		.loc 2 728 0
 2228 0110 4048     		ldr	r0, .L241+4
 2229              	.LBE444:
 2230              	.LBE443:
 2231              		.loc 1 477 0
 2232 0112 0BEA0303 		and	r3, fp, r3
 2233 0116 CAF83438 		str	r3, [r10, #2100]
 2234              		.loc 1 478 0
 2235 011a 336E     		ldr	r3, [r6, #96]
 2236              	.LBB447:
 2237              	.LBB445:
 2238              		.loc 2 728 0
 2239 011c 0021     		movs	r1, #0
 2240              	.LBE445:
 2241              	.LBE447:
 2242              		.loc 1 478 0
 2243 011e 48EA0303 		orr	r3, r8, r3
 2244 0122 3366     		str	r3, [r6, #96]
 2245              	.LVL206:
 2246              	.LBB448:
 2247              	.LBB446:
 2248              		.loc 2 728 0
 2249 0124 FFF7FEFF 		bl	chThdResumeI
 2250              	.LVL207:
 2251              	.LBE446:
 2252              	.LBE448:
 2253              	.LBB449:
 2254              	.LBB450:
 2255              	.LBB451:
 2256              		.loc 4 437 0
 2257 0128 FFF7FEFF 		bl	_stats_stop_measure_crit_isr
 2258              	.LVL208:
 2259              	.LBB452:
 2260              	.LBB453:
 2261              	.LBB454:
 2262              	.LBB455:
 2263              		.loc 3 264 0
 2264 012c 0023     		movs	r3, #0
 2265              	@ 264 "../../modules/ChibiOS/os/common/ext/CMSIS/include/cmsis_gcc.h" 1
 2266 012e 83F31188 		MSR basepri, r3
 2267              	@ 0 "" 2
 2268              	.LVL209:
 2269              		.thumb
 2270              	.L170:
 2271 0132 09F10109 		add	r9, r9, #1
 2272              	.LVL210:
 2273 0136 B1E7     		b	.L169
 2274              	.LVL211:
 2275              	.L240:
 2276              	.LBE455:
 2277              	.LBE454:
 2278              	.LBE453:
 2279              	.LBE452:
 2280              	.LBE451:
ARM GAS  /tmp/ccM0SCbF.s 			page 41


 2281              	.LBE450:
 2282              	.LBE449:
 2283              	.LBE435:
 2284              	.LBE434:
 2285              	.LBB456:
 2286              	.LBB457:
 2287              		.loc 1 494 0
 2288 0138 D6F85480 		ldr	r8, [r6, #84]
 2289              	.LVL212:
 2290 013c 0027     		movs	r7, #0
 2291              	.LVL213:
 2292              	.L177:
 2293              		.loc 1 496 0
 2294 013e B36D     		ldr	r3, [r6, #88]
 2295 0140 3348     		ldr	r0, .L241
 2296 0142 9B68     		ldr	r3, [r3, #8]
 2297 0144 F9B2     		uxtb	r1, r7
 2298              	.LVL214:
 2299 0146 9942     		cmp	r1, r3
 2300 0148 14D9     		bls	.L181
 2301              	.LVL215:
 2302              	.L168:
 2303              	.LBE457:
 2304              	.LBE456:
 2305              		.loc 1 593 0
 2306 014a E806     		lsls	r0, r5, #27
 2307 014c 2DD5     		bpl	.L176
 2308              	.LVL216:
 2309              	.LBB459:
 2310              	.LBB460:
 2311              	.LBB461:
 2312              	.LBB462:
 2313              	.LBB463:
 2314              	.LBB464:
 2315              	.LBB465:
 2316              		.loc 3 264 0
 2317 014e 2023     		movs	r3, #32
 2318              	@ 264 "../../modules/ChibiOS/os/common/ext/CMSIS/include/cmsis_gcc.h" 1
 2319 0150 83F31188 		MSR basepri, r3
 2320              	@ 0 "" 2
 2321              		.thumb
 2322              	.LBE465:
 2323              	.LBE464:
 2324              	.LBE463:
 2325              	.LBE462:
 2326              		.loc 4 417 0
 2327 0154 FFF7FEFF 		bl	_stats_start_measure_crit_isr
 2328              	.LVL217:
 2329              	.LBE461:
 2330              	.LBE460:
 2331              	.LBE459:
 2332              		.loc 1 597 0
 2333 0158 A369     		ldr	r3, [r4, #24]
 2334              	.LBB466:
 2335              	.LBB467:
 2336              		.loc 2 728 0
 2337 015a 2E48     		ldr	r0, .L241+4
ARM GAS  /tmp/ccM0SCbF.s 			page 42


 2338              	.LBE467:
 2339              	.LBE466:
 2340              		.loc 1 597 0
 2341 015c 23F01003 		bic	r3, r3, #16
 2342 0160 A361     		str	r3, [r4, #24]
 2343              	.LVL218:
 2344              	.LBB469:
 2345              	.LBB468:
 2346              		.loc 2 728 0
 2347 0162 0021     		movs	r1, #0
 2348 0164 FFF7FEFF 		bl	chThdResumeI
 2349              	.LVL219:
 2350              	.LBE468:
 2351              	.LBE469:
 2352              	.LBB470:
 2353              	.LBB471:
 2354              	.LBB472:
 2355              		.loc 4 437 0
 2356 0168 FFF7FEFF 		bl	_stats_stop_measure_crit_isr
 2357              	.LVL220:
 2358              	.LBB473:
 2359              	.LBB474:
 2360              	.LBB475:
 2361              	.LBB476:
 2362              		.loc 3 264 0
 2363 016c 0023     		movs	r3, #0
 2364              	@ 264 "../../modules/ChibiOS/os/common/ext/CMSIS/include/cmsis_gcc.h" 1
 2365 016e 83F31188 		MSR basepri, r3
 2366              	@ 0 "" 2
 2367              		.thumb
 2368 0172 1AE0     		b	.L176
 2369              	.LVL221:
 2370              	.L181:
 2371 0174 08EB4112 		add	r2, r8, r1, lsl #5
 2372              	.LBE476:
 2373              	.LBE475:
 2374              	.LBE474:
 2375              	.LBE473:
 2376              	.LBE472:
 2377              	.LBE471:
 2378              	.LBE470:
 2379              	.LBB477:
 2380              	.LBB458:
 2381              		.loc 1 497 0
 2382 0178 D2F8003B 		ldr	r3, [r2, #2816]
 2383 017c 03F44023 		and	r3, r3, #786432
 2384 0180 B3F5802F 		cmp	r3, #262144
 2385 0184 0FD1     		bne	.L179
 2386              		.loc 1 498 0
 2387 0186 D2F8003B 		ldr	r3, [r2, #2816]
 2388              		.loc 1 497 0
 2389 018a 002B     		cmp	r3, #0
 2390 018c 0BDA     		bge	.L179
 2391              		.loc 1 506 0
 2392 018e 4289     		ldrh	r2, [r0, #10]
 2393 0190 0123     		movs	r3, #1
 2394 0192 8B40     		lsls	r3, r3, r1
ARM GAS  /tmp/ccM0SCbF.s 			page 43


 2395 0194 22EA0303 		bic	r3, r2, r3
 2396 0198 4381     		strh	r3, [r0, #10]	@ movhi
 2397 019a 00EB8103 		add	r3, r0, r1, lsl #2
 2398 019e DB68     		ldr	r3, [r3, #12]
 2399 01a0 DB68     		ldr	r3, [r3, #12]
 2400 01a2 03B1     		cbz	r3, .L179
 2401 01a4 9847     		blx	r3
 2402              	.LVL222:
 2403              	.L179:
 2404 01a6 0137     		adds	r7, r7, #1
 2405              	.LVL223:
 2406 01a8 C9E7     		b	.L177
 2407              	.LVL224:
 2408              	.L176:
 2409              	.LBE458:
 2410              	.LBE477:
 2411              		.loc 1 604 0
 2412 01aa 2903     		lsls	r1, r5, #12
 2413              		.loc 1 603 0
 2414 01ac D4F81848 		ldr	r4, [r4, #2072]
 2415              	.LVL225:
 2416              		.loc 1 604 0
 2417 01b0 13D5     		bpl	.L183
 2418              		.loc 1 605 0
 2419 01b2 E203     		lsls	r2, r4, #15
 2420 01b4 02D5     		bpl	.L184
 2421              		.loc 1 606 0
 2422 01b6 0020     		movs	r0, #0
 2423 01b8 FFF7FEFF 		bl	otg_epout_handler.constprop.7
 2424              	.LVL226:
 2425              	.L184:
 2426              		.loc 1 607 0
 2427 01bc A303     		lsls	r3, r4, #14
 2428 01be 02D5     		bpl	.L185
 2429              		.loc 1 608 0
 2430 01c0 0120     		movs	r0, #1
 2431 01c2 FFF7FEFF 		bl	otg_epout_handler.constprop.7
 2432              	.LVL227:
 2433              	.L185:
 2434              		.loc 1 609 0
 2435 01c6 6703     		lsls	r7, r4, #13
 2436 01c8 02D5     		bpl	.L186
 2437              		.loc 1 610 0
 2438 01ca 0220     		movs	r0, #2
 2439 01cc FFF7FEFF 		bl	otg_epout_handler.constprop.7
 2440              	.LVL228:
 2441              	.L186:
 2442              		.loc 1 611 0
 2443 01d0 2603     		lsls	r6, r4, #12
 2444 01d2 02D5     		bpl	.L183
 2445              		.loc 1 612 0
 2446 01d4 0320     		movs	r0, #3
 2447 01d6 FFF7FEFF 		bl	otg_epout_handler.constprop.7
 2448              	.LVL229:
 2449              	.L183:
 2450              		.loc 1 634 0
 2451 01da 6D03     		lsls	r5, r5, #13
ARM GAS  /tmp/ccM0SCbF.s 			page 44


 2452              	.LVL230:
 2453 01dc 13D5     		bpl	.L159
 2454              		.loc 1 635 0
 2455 01de E007     		lsls	r0, r4, #31
 2456 01e0 02D5     		bpl	.L189
 2457              		.loc 1 636 0
 2458 01e2 0020     		movs	r0, #0
 2459 01e4 FFF7FEFF 		bl	otg_epin_handler.constprop.8
 2460              	.LVL231:
 2461              	.L189:
 2462              		.loc 1 637 0
 2463 01e8 A107     		lsls	r1, r4, #30
 2464 01ea 02D5     		bpl	.L190
 2465              		.loc 1 638 0
 2466 01ec 0120     		movs	r0, #1
 2467 01ee FFF7FEFF 		bl	otg_epin_handler.constprop.8
 2468              	.LVL232:
 2469              	.L190:
 2470              		.loc 1 639 0
 2471 01f2 6207     		lsls	r2, r4, #29
 2472 01f4 02D5     		bpl	.L191
 2473              		.loc 1 640 0
 2474 01f6 0220     		movs	r0, #2
 2475 01f8 FFF7FEFF 		bl	otg_epin_handler.constprop.8
 2476              	.LVL233:
 2477              	.L191:
 2478              		.loc 1 641 0
 2479 01fc 2307     		lsls	r3, r4, #28
 2480 01fe 02D5     		bpl	.L159
 2481              		.loc 1 642 0
 2482 0200 0320     		movs	r0, #3
 2483 0202 FFF7FEFF 		bl	otg_epin_handler.constprop.8
 2484              	.LVL234:
 2485              	.L159:
 2486              	.LBE433:
 2487              	.LBE432:
 2488              		.loc 1 683 0
 2489 0206 BDE8F84F 		pop	{r3, r4, r5, r6, r7, r8, r9, r10, fp, lr}
 2490              		.cfi_restore 14
 2491              		.cfi_restore 11
 2492              		.cfi_restore 10
 2493              		.cfi_restore 9
 2494              		.cfi_restore 8
 2495              		.cfi_restore 7
 2496              		.cfi_restore 6
 2497              		.cfi_restore 5
 2498              		.cfi_restore 4
 2499              		.cfi_restore 3
 2500              		.cfi_def_cfa_offset 0
 2501              		.loc 1 682 0
 2502 020a FFF7FEBF 		b	_port_irq_epilogue
 2503              	.LVL235:
 2504              	.L242:
 2505 020e 00BF     		.align	2
 2506              	.L241:
 2507 0210 00000000 		.word	.LANCHOR0
 2508 0214 64000000 		.word	.LANCHOR0+100
ARM GAS  /tmp/ccM0SCbF.s 			page 45


 2509              		.cfi_endproc
 2510              	.LFE292:
 2511              		.size	Vector14C, .-Vector14C
 2512              		.section	.text.usb_lld_stall_out,"ax",%progbits
 2513              		.align	1
 2514              		.global	usb_lld_stall_out
 2515              		.thumb
 2516              		.thumb_func
 2517              		.type	usb_lld_stall_out, %function
 2518              	usb_lld_stall_out:
 2519              	.LFB305:
 2520              		.loc 1 1265 0
 2521              		.cfi_startproc
 2522              		@ args = 0, pretend = 0, frame = 0
 2523              		@ frame_needed = 0, uses_anonymous_args = 0
 2524              		@ link register save eliminated.
 2525              	.LVL236:
 2526 0000 436D     		ldr	r3, [r0, #84]
 2527 0002 03EB4111 		add	r1, r3, r1, lsl #5
 2528              	.LVL237:
 2529              		.loc 1 1267 0
 2530 0006 D1F8003B 		ldr	r3, [r1, #2816]
 2531 000a 43F40013 		orr	r3, r3, #2097152
 2532 000e C1F8003B 		str	r3, [r1, #2816]
 2533 0012 7047     		bx	lr
 2534              		.cfi_endproc
 2535              	.LFE305:
 2536              		.size	usb_lld_stall_out, .-usb_lld_stall_out
 2537              		.section	.text.usb_lld_stall_in,"ax",%progbits
 2538              		.align	1
 2539              		.global	usb_lld_stall_in
 2540              		.thumb
 2541              		.thumb_func
 2542              		.type	usb_lld_stall_in, %function
 2543              	usb_lld_stall_in:
 2544              	.LFB306:
 2545              		.loc 1 1278 0
 2546              		.cfi_startproc
 2547              		@ args = 0, pretend = 0, frame = 0
 2548              		@ frame_needed = 0, uses_anonymous_args = 0
 2549              		@ link register save eliminated.
 2550              	.LVL238:
 2551 0000 436D     		ldr	r3, [r0, #84]
 2552 0002 03EB4111 		add	r1, r3, r1, lsl #5
 2553              	.LVL239:
 2554              		.loc 1 1280 0
 2555 0006 D1F80039 		ldr	r3, [r1, #2304]
 2556 000a 43F40013 		orr	r3, r3, #2097152
 2557 000e C1F80039 		str	r3, [r1, #2304]
 2558 0012 7047     		bx	lr
 2559              		.cfi_endproc
 2560              	.LFE306:
 2561              		.size	usb_lld_stall_in, .-usb_lld_stall_in
 2562              		.section	.text.usb_lld_clear_out,"ax",%progbits
 2563              		.align	1
 2564              		.global	usb_lld_clear_out
 2565              		.thumb
ARM GAS  /tmp/ccM0SCbF.s 			page 46


 2566              		.thumb_func
 2567              		.type	usb_lld_clear_out, %function
 2568              	usb_lld_clear_out:
 2569              	.LFB307:
 2570              		.loc 1 1291 0
 2571              		.cfi_startproc
 2572              		@ args = 0, pretend = 0, frame = 0
 2573              		@ frame_needed = 0, uses_anonymous_args = 0
 2574              		@ link register save eliminated.
 2575              	.LVL240:
 2576 0000 436D     		ldr	r3, [r0, #84]
 2577 0002 03EB4111 		add	r1, r3, r1, lsl #5
 2578              	.LVL241:
 2579              		.loc 1 1293 0
 2580 0006 D1F8003B 		ldr	r3, [r1, #2816]
 2581 000a 23F40013 		bic	r3, r3, #2097152
 2582 000e C1F8003B 		str	r3, [r1, #2816]
 2583 0012 7047     		bx	lr
 2584              		.cfi_endproc
 2585              	.LFE307:
 2586              		.size	usb_lld_clear_out, .-usb_lld_clear_out
 2587              		.section	.text.usb_lld_clear_in,"ax",%progbits
 2588              		.align	1
 2589              		.global	usb_lld_clear_in
 2590              		.thumb
 2591              		.thumb_func
 2592              		.type	usb_lld_clear_in, %function
 2593              	usb_lld_clear_in:
 2594              	.LFB308:
 2595              		.loc 1 1304 0
 2596              		.cfi_startproc
 2597              		@ args = 0, pretend = 0, frame = 0
 2598              		@ frame_needed = 0, uses_anonymous_args = 0
 2599              		@ link register save eliminated.
 2600              	.LVL242:
 2601 0000 436D     		ldr	r3, [r0, #84]
 2602 0002 03EB4111 		add	r1, r3, r1, lsl #5
 2603              	.LVL243:
 2604              		.loc 1 1306 0
 2605 0006 D1F80039 		ldr	r3, [r1, #2304]
 2606 000a 23F40013 		bic	r3, r3, #2097152
 2607 000e C1F80039 		str	r3, [r1, #2304]
 2608 0012 7047     		bx	lr
 2609              		.cfi_endproc
 2610              	.LFE308:
 2611              		.size	usb_lld_clear_in, .-usb_lld_clear_in
 2612              		.global	USBD1
 2613              		.section	.rodata.fsparams,"a",%progbits
 2614              		.align	2
 2615              		.set	.LANCHOR1,. + 0
 2616              		.type	fsparams, %object
 2617              		.size	fsparams, 12
 2618              	fsparams:
 2619 0000 80000000 		.word	128
 2620 0004 40010000 		.word	320
 2621 0008 03000000 		.word	3
 2622              		.section	.bss.USBD1,"aw",%nobits
ARM GAS  /tmp/ccM0SCbF.s 			page 47


 2623              		.align	3
 2624              		.set	.LANCHOR0,. + 0
 2625              		.type	USBD1, %object
 2626              		.size	USBD1, 800
 2627              	USBD1:
 2628 0000 00000000 		.space	800
 2628      00000000 
 2628      00000000 
 2628      00000000 
 2628      00000000 
 2629              		.section	.rodata.str1.1,"aMS",%progbits,1
 2630              	.LC0:
 2631 0000 7573625F 		.ascii	"usb_pump\000"
 2631      70756D70 
 2631      00
 2632              		.section	.rodata.ep0config,"a",%progbits
 2633              		.align	2
 2634              		.set	.LANCHOR2,. + 0
 2635              		.type	ep0config, %object
 2636              		.size	ep0config, 36
 2637              	ep0config:
 2638 0000 00000000 		.word	0
 2639 0004 00000000 		.word	_usb_ep0setup
 2640 0008 00000000 		.word	_usb_ep0in
 2641 000c 00000000 		.word	_usb_ep0out
 2642 0010 4000     		.short	64
 2643 0012 4000     		.short	64
 2644 0014 00000000 		.word	ep0_state
 2645 0018 00000000 		.word	ep0_state
 2646 001c 0100     		.short	1
 2647 001e 0000     		.space	2
 2648 0020 00000000 		.word	ep0setup_buffer
 2649              		.section	.bss.ep0_state,"aw",%nobits
 2650              		.align	2
 2651              		.type	ep0_state, %object
 2652              		.size	ep0_state, 16
 2653              	ep0_state:
 2654 0000 00000000 		.space	16
 2654      00000000 
 2654      00000000 
 2654      00000000 
 2655              		.section	.bss.ep0setup_buffer,"aw",%nobits
 2656              		.type	ep0setup_buffer, %object
 2657              		.size	ep0setup_buffer, 8
 2658              	ep0setup_buffer:
 2659 0000 00000000 		.space	8
 2659      00000000 
 2660              		.text
 2661              	.Letext0:
 2662              		.file 5 "/usr/lib/gcc/arm-none-eabi/4.9.3/include/stddef.h"
 2663              		.file 6 "/usr/include/newlib/machine/_default_types.h"
 2664              		.file 7 "/usr/include/newlib/sys/_stdint.h"
 2665              		.file 8 "../../modules/ChibiOS/os/common/ports/ARMCMx/compilers/GCC/chtypes.h"
 2666              		.file 9 "../../modules/ChibiOS/os/rt/include/chsystypes.h"
 2667              		.file 10 "../../modules/ChibiOS/os/rt/include/chschd.h"
 2668              		.file 11 "../../modules/ChibiOS/os/common/ext/CMSIS/ST/STM32F4xx/stm32f407xx.h"
 2669              		.file 12 "../../modules/ChibiOS/os/common/ports/ARMCMx/chcore.h"
ARM GAS  /tmp/ccM0SCbF.s 			page 48


 2670              		.file 13 "../../modules/ChibiOS/os/common/ports/ARMCMx/chcore_v7m.h"
 2671              		.file 14 "../../modules/ChibiOS/os/rt/include/chtm.h"
 2672              		.file 15 "../../modules/ChibiOS/os/rt/include/chstats.h"
 2673              		.file 16 "../../modules/ChibiOS/os/rt/include/chsem.h"
 2674              		.file 17 "../../modules/ChibiOS/os/rt/include/chmtx.h"
 2675              		.file 18 "../../modules/ChibiOS/os/rt/include/chthreads.h"
 2676              		.file 19 "../../modules/ChibiOS/os/hal/include/hal_usb.h"
 2677              		.file 20 "../../modules/ChibiOS/os/hal/ports/STM32/LLD/OTGv1/hal_usb_lld.h"
 2678              		.file 21 "../../modules/ChibiOS/os/hal/ports/STM32/LLD/OTGv1/stm32_otg.h"
 2679              		.file 22 "../../modules/ChibiOS/os/common/ext/CMSIS/include/core_cm4.h"
 2680              		.file 23 "../../modules/ChibiOS/os/hal/ports/common/ARMCMx/nvic.h"