ARM GAS  /tmp/ccSQlRC5.s 			page 1


   1              		.syntax unified
   2              		.cpu cortex-m4
   3              		.eabi_attribute 27, 1
   4              		.eabi_attribute 28, 1
   5              		.fpu fpv4-sp-d16
   6              		.eabi_attribute 20, 1
   7              		.eabi_attribute 21, 1
   8              		.eabi_attribute 23, 3
   9              		.eabi_attribute 24, 1
  10              		.eabi_attribute 25, 1
  11              		.eabi_attribute 26, 1
  12              		.eabi_attribute 30, 4
  13              		.eabi_attribute 34, 1
  14              		.eabi_attribute 18, 4
  15              		.thumb
  16              		.file	"hal_icu.c"
  17              		.text
  18              	.Ltext0:
  19              		.cfi_sections	.debug_frame
  20              		.section	.text.chSysLock,"ax",%progbits
  21              		.align	1
  22              		.thumb
  23              		.thumb_func
  24              		.type	chSysLock, %function
  25              	chSysLock:
  26              	.LFB167:
  27              		.file 1 "../../modules/ChibiOS/os/rt/include/chsys.h"
  28              		.loc 1 374 0
  29              		.cfi_startproc
  30              		@ args = 0, pretend = 0, frame = 0
  31              		@ frame_needed = 0, uses_anonymous_args = 0
  32              		@ link register save eliminated.
  33              	.LVL0:
  34              	.LBB42:
  35              	.LBB43:
  36              	.LBB44:
  37              		.file 2 "../../modules/ChibiOS/os/common/ext/CMSIS/include/cmsis_gcc.h"
  38              		.loc 2 264 0
  39 0000 2023     		movs	r3, #32
  40              	@ 264 "../../modules/ChibiOS/os/common/ext/CMSIS/include/cmsis_gcc.h" 1
  41 0002 83F31188 		MSR basepri, r3
  42              	@ 0 "" 2
  43              		.thumb
  44              	.LBE44:
  45              	.LBE43:
  46              	.LBE42:
  47              		.loc 1 377 0
  48 0006 FFF7FEBF 		b	_stats_start_measure_crit_thd
  49              	.LVL1:
  50              		.cfi_endproc
  51              	.LFE167:
  52              		.size	chSysLock, .-chSysLock
  53              		.section	.text.chSysUnlock,"ax",%progbits
  54              		.align	1
  55              		.thumb
  56              		.thumb_func
  57              		.type	chSysUnlock, %function
ARM GAS  /tmp/ccSQlRC5.s 			page 2


  58              	chSysUnlock:
  59              	.LFB168:
  60              		.loc 1 386 0
  61              		.cfi_startproc
  62              		@ args = 0, pretend = 0, frame = 0
  63              		@ frame_needed = 0, uses_anonymous_args = 0
  64 0000 08B5     		push	{r3, lr}
  65              		.cfi_def_cfa_offset 8
  66              		.cfi_offset 3, -8
  67              		.cfi_offset 14, -4
  68              		.loc 1 389 0
  69 0002 FFF7FEFF 		bl	_stats_stop_measure_crit_thd
  70              	.LVL2:
  71              	.LBB45:
  72              	.LBB46:
  73              	.LBB47:
  74              		.loc 2 264 0
  75 0006 0023     		movs	r3, #0
  76              	@ 264 "../../modules/ChibiOS/os/common/ext/CMSIS/include/cmsis_gcc.h" 1
  77 0008 83F31188 		MSR basepri, r3
  78              	@ 0 "" 2
  79              		.thumb
  80 000c 08BD     		pop	{r3, pc}
  81              	.LBE47:
  82              	.LBE46:
  83              	.LBE45:
  84              		.cfi_endproc
  85              	.LFE168:
  86              		.size	chSysUnlock, .-chSysUnlock
  87              		.section	.text.icuInit,"ax",%progbits
  88              		.align	1
  89              		.global	icuInit
  90              		.thumb
  91              		.thumb_func
  92              		.type	icuInit, %function
  93              	icuInit:
  94              	.LFB277:
  95              		.file 3 "../../modules/ChibiOS/os/hal/src/hal_icu.c"
  96              		.loc 3 56 0
  97              		.cfi_startproc
  98              		@ args = 0, pretend = 0, frame = 0
  99              		@ frame_needed = 0, uses_anonymous_args = 0
 100              		@ link register save eliminated.
 101              		.loc 3 58 0
 102 0000 FFF7FEBF 		b	icu_lld_init
 103              	.LVL3:
 104              		.cfi_endproc
 105              	.LFE277:
 106              		.size	icuInit, .-icuInit
 107              		.section	.text.icuObjectInit,"ax",%progbits
 108              		.align	1
 109              		.global	icuObjectInit
 110              		.thumb
 111              		.thumb_func
 112              		.type	icuObjectInit, %function
 113              	icuObjectInit:
 114              	.LFB278:
ARM GAS  /tmp/ccSQlRC5.s 			page 3


 115              		.loc 3 68 0
 116              		.cfi_startproc
 117              		@ args = 0, pretend = 0, frame = 0
 118              		@ frame_needed = 0, uses_anonymous_args = 0
 119              		@ link register save eliminated.
 120              	.LVL4:
 121              		.loc 3 70 0
 122 0000 0123     		movs	r3, #1
 123 0002 0370     		strb	r3, [r0]
 124              		.loc 3 71 0
 125 0004 0023     		movs	r3, #0
 126 0006 4360     		str	r3, [r0, #4]
 127 0008 7047     		bx	lr
 128              		.cfi_endproc
 129              	.LFE278:
 130              		.size	icuObjectInit, .-icuObjectInit
 131              		.section	.text.icuStart,"ax",%progbits
 132              		.align	1
 133              		.global	icuStart
 134              		.thumb
 135              		.thumb_func
 136              		.type	icuStart, %function
 137              	icuStart:
 138              	.LFB279:
 139              		.loc 3 82 0
 140              		.cfi_startproc
 141              		@ args = 0, pretend = 0, frame = 0
 142              		@ frame_needed = 0, uses_anonymous_args = 0
 143              	.LVL5:
 144 0000 38B5     		push	{r3, r4, r5, lr}
 145              		.cfi_def_cfa_offset 16
 146              		.cfi_offset 3, -16
 147              		.cfi_offset 4, -12
 148              		.cfi_offset 5, -8
 149              		.cfi_offset 14, -4
 150              		.loc 3 82 0
 151 0002 0446     		mov	r4, r0
 152 0004 0D46     		mov	r5, r1
 153              	.LBB48:
 154              	.LBB49:
 155              		.file 4 "../../modules/ChibiOS/os/hal/osal/rt/osal.h"
 156              		.loc 4 493 0
 157 0006 FFF7FEFF 		bl	chSysLock
 158              	.LVL6:
 159              	.LBE49:
 160              	.LBE48:
 161              		.loc 3 89 0
 162 000a 6560     		str	r5, [r4, #4]
 163              		.loc 3 90 0
 164 000c 2046     		mov	r0, r4
 165 000e FFF7FEFF 		bl	icu_lld_start
 166              	.LVL7:
 167              		.loc 3 91 0
 168 0012 0223     		movs	r3, #2
 169 0014 2370     		strb	r3, [r4]
 170              		.loc 3 93 0
 171 0016 BDE83840 		pop	{r3, r4, r5, lr}
ARM GAS  /tmp/ccSQlRC5.s 			page 4


 172              		.cfi_restore 14
 173              		.cfi_restore 5
 174              		.cfi_restore 4
 175              		.cfi_restore 3
 176              		.cfi_def_cfa_offset 0
 177              	.LVL8:
 178              	.LBB50:
 179              	.LBB51:
 180              		.loc 4 504 0
 181 001a FFF7FEBF 		b	chSysUnlock
 182              	.LVL9:
 183              	.LBE51:
 184              	.LBE50:
 185              		.cfi_endproc
 186              	.LFE279:
 187              		.size	icuStart, .-icuStart
 188              		.section	.text.icuStop,"ax",%progbits
 189              		.align	1
 190              		.global	icuStop
 191              		.thumb
 192              		.thumb_func
 193              		.type	icuStop, %function
 194              	icuStop:
 195              	.LFB280:
 196              		.loc 3 102 0
 197              		.cfi_startproc
 198              		@ args = 0, pretend = 0, frame = 0
 199              		@ frame_needed = 0, uses_anonymous_args = 0
 200              	.LVL10:
 201 0000 10B5     		push	{r4, lr}
 202              		.cfi_def_cfa_offset 8
 203              		.cfi_offset 4, -8
 204              		.cfi_offset 14, -4
 205              		.loc 3 102 0
 206 0002 0446     		mov	r4, r0
 207              	.LBB52:
 208              	.LBB53:
 209              		.loc 4 493 0
 210 0004 FFF7FEFF 		bl	chSysLock
 211              	.LVL11:
 212              	.LBE53:
 213              	.LBE52:
 214              		.loc 3 111 0
 215 0008 2046     		mov	r0, r4
 216 000a FFF7FEFF 		bl	icu_lld_stop
 217              	.LVL12:
 218              		.loc 3 112 0
 219 000e 0023     		movs	r3, #0
 220 0010 6360     		str	r3, [r4, #4]
 221              		.loc 3 113 0
 222 0012 0123     		movs	r3, #1
 223 0014 2370     		strb	r3, [r4]
 224              		.loc 3 116 0
 225 0016 BDE81040 		pop	{r4, lr}
 226              		.cfi_restore 14
 227              		.cfi_restore 4
 228              		.cfi_def_cfa_offset 0
ARM GAS  /tmp/ccSQlRC5.s 			page 5


 229              	.LVL13:
 230              	.LBB54:
 231              	.LBB55:
 232              		.loc 4 504 0
 233 001a FFF7FEBF 		b	chSysUnlock
 234              	.LVL14:
 235              	.LBE55:
 236              	.LBE54:
 237              		.cfi_endproc
 238              	.LFE280:
 239              		.size	icuStop, .-icuStop
 240              		.section	.text.icuStartCapture,"ax",%progbits
 241              		.align	1
 242              		.global	icuStartCapture
 243              		.thumb
 244              		.thumb_func
 245              		.type	icuStartCapture, %function
 246              	icuStartCapture:
 247              	.LFB281:
 248              		.loc 3 125 0
 249              		.cfi_startproc
 250              		@ args = 0, pretend = 0, frame = 0
 251              		@ frame_needed = 0, uses_anonymous_args = 0
 252              	.LVL15:
 253 0000 10B5     		push	{r4, lr}
 254              		.cfi_def_cfa_offset 8
 255              		.cfi_offset 4, -8
 256              		.cfi_offset 14, -4
 257              		.loc 3 125 0
 258 0002 0446     		mov	r4, r0
 259              	.LBB56:
 260              	.LBB57:
 261              		.loc 4 493 0
 262 0004 FFF7FEFF 		bl	chSysLock
 263              	.LVL16:
 264              	.LBE57:
 265              	.LBE56:
 266              		.loc 3 131 0
 267 0008 2046     		mov	r0, r4
 268 000a FFF7FEFF 		bl	icu_lld_start_capture
 269              	.LVL17:
 270 000e 0323     		movs	r3, #3
 271 0010 2370     		strb	r3, [r4]
 272              		.loc 3 133 0
 273 0012 BDE81040 		pop	{r4, lr}
 274              		.cfi_restore 14
 275              		.cfi_restore 4
 276              		.cfi_def_cfa_offset 0
 277              	.LVL18:
 278              	.LBB58:
 279              	.LBB59:
 280              		.loc 4 504 0
 281 0016 FFF7FEBF 		b	chSysUnlock
 282              	.LVL19:
 283              	.LBE59:
 284              	.LBE58:
 285              		.cfi_endproc
ARM GAS  /tmp/ccSQlRC5.s 			page 6


 286              	.LFE281:
 287              		.size	icuStartCapture, .-icuStartCapture
 288              		.section	.text.icuWaitCapture,"ax",%progbits
 289              		.align	1
 290              		.global	icuWaitCapture
 291              		.thumb
 292              		.thumb_func
 293              		.type	icuWaitCapture, %function
 294              	icuWaitCapture:
 295              	.LFB282:
 296              		.loc 3 151 0
 297              		.cfi_startproc
 298              		@ args = 0, pretend = 0, frame = 0
 299              		@ frame_needed = 0, uses_anonymous_args = 0
 300              	.LVL20:
 301 0000 38B5     		push	{r3, r4, r5, lr}
 302              		.cfi_def_cfa_offset 16
 303              		.cfi_offset 3, -16
 304              		.cfi_offset 4, -12
 305              		.cfi_offset 5, -8
 306              		.cfi_offset 14, -4
 307              		.loc 3 151 0
 308 0002 0546     		mov	r5, r0
 309              	.LBB60:
 310              	.LBB61:
 311              		.loc 4 493 0
 312 0004 FFF7FEFF 		bl	chSysLock
 313              	.LVL21:
 314              	.LBE61:
 315              	.LBE60:
 316              		.loc 3 161 0
 317 0008 2846     		mov	r0, r5
 318 000a FFF7FEFF 		bl	icu_lld_wait_capture
 319              	.LVL22:
 320              		.loc 3 162 0
 321 000e 0028     		cmp	r0, #0
 322 0010 14BF     		ite	ne
 323 0012 0323     		movne	r3, #3
 324 0014 0423     		moveq	r3, #4
 325 0016 0446     		mov	r4, r0
 326 0018 2B70     		strb	r3, [r5]
 327              	.LBB62:
 328              	.LBB63:
 329              		.loc 4 504 0
 330 001a FFF7FEFF 		bl	chSysUnlock
 331              	.LVL23:
 332              	.LBE63:
 333              	.LBE62:
 334              		.loc 3 166 0
 335 001e 2046     		mov	r0, r4
 336 0020 38BD     		pop	{r3, r4, r5, pc}
 337              		.cfi_endproc
 338              	.LFE282:
 339              		.size	icuWaitCapture, .-icuWaitCapture
 340              		.section	.text.icuStopCapture,"ax",%progbits
 341              		.align	1
 342              		.global	icuStopCapture
ARM GAS  /tmp/ccSQlRC5.s 			page 7


 343              		.thumb
 344              		.thumb_func
 345              		.type	icuStopCapture, %function
 346              	icuStopCapture:
 347              	.LFB283:
 348              		.loc 3 175 0
 349              		.cfi_startproc
 350              		@ args = 0, pretend = 0, frame = 0
 351              		@ frame_needed = 0, uses_anonymous_args = 0
 352              	.LVL24:
 353 0000 10B5     		push	{r4, lr}
 354              		.cfi_def_cfa_offset 8
 355              		.cfi_offset 4, -8
 356              		.cfi_offset 14, -4
 357              		.loc 3 175 0
 358 0002 0446     		mov	r4, r0
 359              	.LBB64:
 360              	.LBB65:
 361              		.loc 4 493 0
 362 0004 FFF7FEFF 		bl	chSysLock
 363              	.LVL25:
 364              	.LBE65:
 365              	.LBE64:
 366              		.loc 3 183 0
 367 0008 2046     		mov	r0, r4
 368 000a FFF7FEFF 		bl	icu_lld_stop_capture
 369              	.LVL26:
 370 000e 0223     		movs	r3, #2
 371 0010 2370     		strb	r3, [r4]
 372              		.loc 3 185 0
 373 0012 BDE81040 		pop	{r4, lr}
 374              		.cfi_restore 14
 375              		.cfi_restore 4
 376              		.cfi_def_cfa_offset 0
 377              	.LVL27:
 378              	.LBB66:
 379              	.LBB67:
 380              		.loc 4 504 0
 381 0016 FFF7FEBF 		b	chSysUnlock
 382              	.LVL28:
 383              	.LBE67:
 384              	.LBE66:
 385              		.cfi_endproc
 386              	.LFE283:
 387              		.size	icuStopCapture, .-icuStopCapture
 388              		.section	.text.icuEnableNotifications,"ax",%progbits
 389              		.align	1
 390              		.global	icuEnableNotifications
 391              		.thumb
 392              		.thumb_func
 393              		.type	icuEnableNotifications, %function
 394              	icuEnableNotifications:
 395              	.LFB284:
 396              		.loc 3 196 0
 397              		.cfi_startproc
 398              		@ args = 0, pretend = 0, frame = 0
 399              		@ frame_needed = 0, uses_anonymous_args = 0
ARM GAS  /tmp/ccSQlRC5.s 			page 8


 400              	.LVL29:
 401 0000 10B5     		push	{r4, lr}
 402              		.cfi_def_cfa_offset 8
 403              		.cfi_offset 4, -8
 404              		.cfi_offset 14, -4
 405              		.loc 3 196 0
 406 0002 0446     		mov	r4, r0
 407              	.LBB68:
 408              	.LBB69:
 409              		.loc 4 493 0
 410 0004 FFF7FEFF 		bl	chSysLock
 411              	.LVL30:
 412              	.LBE69:
 413              	.LBE68:
 414              		.loc 3 203 0
 415 0008 2046     		mov	r0, r4
 416 000a FFF7FEFF 		bl	icu_lld_enable_notifications
 417              	.LVL31:
 418              		.loc 3 205 0
 419 000e BDE81040 		pop	{r4, lr}
 420              		.cfi_restore 14
 421              		.cfi_restore 4
 422              		.cfi_def_cfa_offset 0
 423              	.LVL32:
 424              	.LBB70:
 425              	.LBB71:
 426              		.loc 4 504 0
 427 0012 FFF7FEBF 		b	chSysUnlock
 428              	.LVL33:
 429              	.LBE71:
 430              	.LBE70:
 431              		.cfi_endproc
 432              	.LFE284:
 433              		.size	icuEnableNotifications, .-icuEnableNotifications
 434              		.section	.text.icuDisableNotifications,"ax",%progbits
 435              		.align	1
 436              		.global	icuDisableNotifications
 437              		.thumb
 438              		.thumb_func
 439              		.type	icuDisableNotifications, %function
 440              	icuDisableNotifications:
 441              	.LFB285:
 442              		.loc 3 216 0
 443              		.cfi_startproc
 444              		@ args = 0, pretend = 0, frame = 0
 445              		@ frame_needed = 0, uses_anonymous_args = 0
 446              	.LVL34:
 447 0000 10B5     		push	{r4, lr}
 448              		.cfi_def_cfa_offset 8
 449              		.cfi_offset 4, -8
 450              		.cfi_offset 14, -4
 451              		.loc 3 216 0
 452 0002 0446     		mov	r4, r0
 453              	.LBB72:
 454              	.LBB73:
 455              		.loc 4 493 0
 456 0004 FFF7FEFF 		bl	chSysLock
ARM GAS  /tmp/ccSQlRC5.s 			page 9


 457              	.LVL35:
 458              	.LBE73:
 459              	.LBE72:
 460              		.loc 3 223 0
 461 0008 2046     		mov	r0, r4
 462 000a FFF7FEFF 		bl	icu_lld_disable_notifications
 463              	.LVL36:
 464              		.loc 3 225 0
 465 000e BDE81040 		pop	{r4, lr}
 466              		.cfi_restore 14
 467              		.cfi_restore 4
 468              		.cfi_def_cfa_offset 0
 469              	.LVL37:
 470              	.LBB74:
 471              	.LBB75:
 472              		.loc 4 504 0
 473 0012 FFF7FEBF 		b	chSysUnlock
 474              	.LVL38:
 475              	.LBE75:
 476              	.LBE74:
 477              		.cfi_endproc
 478              	.LFE285:
 479              		.size	icuDisableNotifications, .-icuDisableNotifications
 480              		.text
 481              	.Letext0:
 482              		.file 5 "/usr/include/newlib/machine/_default_types.h"
 483              		.file 6 "/usr/include/newlib/sys/_stdint.h"
 484              		.file 7 "../../modules/ChibiOS/os/common/ports/ARMCMx/compilers/GCC/chtypes.h"
 485              		.file 8 "../../modules/ChibiOS/os/rt/include/chsystypes.h"
 486              		.file 9 "../../modules/ChibiOS/os/rt/include/chschd.h"
 487              		.file 10 "../../modules/ChibiOS/os/common/ports/ARMCMx/chcore.h"
 488              		.file 11 "../../modules/ChibiOS/os/common/ports/ARMCMx/chcore_v7m.h"
 489              		.file 12 "../../modules/ChibiOS/os/hal/ports/STM32/LLD/TIMv1/stm32_tim.h"
 490              		.file 13 "../../modules/ChibiOS/os/rt/include/chtm.h"
 491              		.file 14 "../../modules/ChibiOS/os/rt/include/chstats.h"
 492              		.file 15 "../../modules/ChibiOS/os/rt/include/chsem.h"
 493              		.file 16 "../../modules/ChibiOS/os/rt/include/chmtx.h"
 494              		.file 17 "../../modules/ChibiOS/os/hal/include/hal_icu.h"
 495              		.file 18 "../../modules/ChibiOS/os/hal/ports/STM32/LLD/TIMv1/hal_icu_lld.h"
 496              		.file 19 "../../modules/ChibiOS/os/common/ext/CMSIS/include/core_cm4.h"