ARM GAS  /tmp/ccFu9jx6.s 			page 1


   1              		.syntax unified
   2              		.cpu cortex-m4
   3              		.eabi_attribute 27, 1
   4              		.eabi_attribute 28, 1
   5              		.fpu fpv4-sp-d16
   6              		.eabi_attribute 20, 1
   7              		.eabi_attribute 21, 1
   8              		.eabi_attribute 23, 3
   9              		.eabi_attribute 24, 1
  10              		.eabi_attribute 25, 1
  11              		.eabi_attribute 26, 1
  12              		.eabi_attribute 30, 4
  13              		.eabi_attribute 34, 1
  14              		.eabi_attribute 18, 4
  15              		.thumb
  16              		.file	"hal_ext_lld_isr.c"
  17              		.text
  18              	.Ltext0:
  19              		.cfi_sections	.debug_frame
  20              		.section	.text.Vector58,"ax",%progbits
  21              		.align	1
  22              		.global	Vector58
  23              		.thumb
  24              		.thumb_func
  25              		.type	Vector58, %function
  26              	Vector58:
  27              	.LFB277:
  28              		.file 1 "../../modules/ChibiOS/os/hal/ports/STM32/STM32F4xx/hal_ext_lld_isr.c"
  29              		.loc 1 56 0
  30              		.cfi_startproc
  31              		@ args = 0, pretend = 0, frame = 0
  32              		@ frame_needed = 0, uses_anonymous_args = 0
  33 0000 08B5     		push	{r3, lr}
  34              		.cfi_def_cfa_offset 8
  35              		.cfi_offset 3, -8
  36              		.cfi_offset 14, -4
  37              		.loc 1 59 0
  38 0002 FFF7FEFF 		bl	_stats_increase_irq
  39              	.LVL0:
  40              		.loc 1 61 0
  41 0006 084A     		ldr	r2, .L7
  42 0008 5169     		ldr	r1, [r2, #20]
  43              	.LVL1:
  44              		.loc 1 62 0
  45 000a 1368     		ldr	r3, [r2]
  46 000c 0B40     		ands	r3, r3, r1
  47 000e 03F00103 		and	r3, r3, #1
  48              	.LVL2:
  49              		.loc 1 63 0
  50 0012 5361     		str	r3, [r2, #20]
  51              		.loc 1 64 0
  52 0014 23B1     		cbz	r3, .L2
  53              		.loc 1 65 0
  54 0016 0548     		ldr	r0, .L7+4
  55 0018 4368     		ldr	r3, [r0, #4]
  56              	.LVL3:
  57 001a 0021     		movs	r1, #0
ARM GAS  /tmp/ccFu9jx6.s 			page 2


  58 001c 5B68     		ldr	r3, [r3, #4]
  59 001e 9847     		blx	r3
  60              	.LVL4:
  61              	.L2:
  62              		.loc 1 68 0
  63 0020 BDE80840 		pop	{r3, lr}
  64              		.cfi_restore 14
  65              		.cfi_restore 3
  66              		.cfi_def_cfa_offset 0
  67              		.loc 1 67 0
  68 0024 FFF7FEBF 		b	_port_irq_epilogue
  69              	.LVL5:
  70              	.L8:
  71              		.align	2
  72              	.L7:
  73 0028 003C0140 		.word	1073822720
  74 002c 00000000 		.word	EXTD1
  75              		.cfi_endproc
  76              	.LFE277:
  77              		.size	Vector58, .-Vector58
  78              		.section	.text.Vector5C,"ax",%progbits
  79              		.align	1
  80              		.global	Vector5C
  81              		.thumb
  82              		.thumb_func
  83              		.type	Vector5C, %function
  84              	Vector5C:
  85              	.LFB278:
  86              		.loc 1 75 0
  87              		.cfi_startproc
  88              		@ args = 0, pretend = 0, frame = 0
  89              		@ frame_needed = 0, uses_anonymous_args = 0
  90 0000 08B5     		push	{r3, lr}
  91              		.cfi_def_cfa_offset 8
  92              		.cfi_offset 3, -8
  93              		.cfi_offset 14, -4
  94              		.loc 1 78 0
  95 0002 FFF7FEFF 		bl	_stats_increase_irq
  96              	.LVL6:
  97              		.loc 1 80 0
  98 0006 084A     		ldr	r2, .L14
  99 0008 5169     		ldr	r1, [r2, #20]
 100              	.LVL7:
 101              		.loc 1 81 0
 102 000a 1368     		ldr	r3, [r2]
 103 000c 0B40     		ands	r3, r3, r1
 104 000e 03F00203 		and	r3, r3, #2
 105              	.LVL8:
 106              		.loc 1 82 0
 107 0012 5361     		str	r3, [r2, #20]
 108              		.loc 1 83 0
 109 0014 23B1     		cbz	r3, .L10
 110              		.loc 1 84 0
 111 0016 0548     		ldr	r0, .L14+4
 112 0018 4368     		ldr	r3, [r0, #4]
 113              	.LVL9:
 114 001a 0121     		movs	r1, #1
ARM GAS  /tmp/ccFu9jx6.s 			page 3


 115 001c DB68     		ldr	r3, [r3, #12]
 116 001e 9847     		blx	r3
 117              	.LVL10:
 118              	.L10:
 119              		.loc 1 87 0
 120 0020 BDE80840 		pop	{r3, lr}
 121              		.cfi_restore 14
 122              		.cfi_restore 3
 123              		.cfi_def_cfa_offset 0
 124              		.loc 1 86 0
 125 0024 FFF7FEBF 		b	_port_irq_epilogue
 126              	.LVL11:
 127              	.L15:
 128              		.align	2
 129              	.L14:
 130 0028 003C0140 		.word	1073822720
 131 002c 00000000 		.word	EXTD1
 132              		.cfi_endproc
 133              	.LFE278:
 134              		.size	Vector5C, .-Vector5C
 135              		.section	.text.Vector60,"ax",%progbits
 136              		.align	1
 137              		.global	Vector60
 138              		.thumb
 139              		.thumb_func
 140              		.type	Vector60, %function
 141              	Vector60:
 142              	.LFB279:
 143              		.loc 1 94 0
 144              		.cfi_startproc
 145              		@ args = 0, pretend = 0, frame = 0
 146              		@ frame_needed = 0, uses_anonymous_args = 0
 147 0000 08B5     		push	{r3, lr}
 148              		.cfi_def_cfa_offset 8
 149              		.cfi_offset 3, -8
 150              		.cfi_offset 14, -4
 151              		.loc 1 97 0
 152 0002 FFF7FEFF 		bl	_stats_increase_irq
 153              	.LVL12:
 154              		.loc 1 99 0
 155 0006 084A     		ldr	r2, .L21
 156 0008 5169     		ldr	r1, [r2, #20]
 157              	.LVL13:
 158              		.loc 1 100 0
 159 000a 1368     		ldr	r3, [r2]
 160 000c 0B40     		ands	r3, r3, r1
 161 000e 03F00403 		and	r3, r3, #4
 162              	.LVL14:
 163              		.loc 1 101 0
 164 0012 5361     		str	r3, [r2, #20]
 165              		.loc 1 102 0
 166 0014 23B1     		cbz	r3, .L17
 167              		.loc 1 103 0
 168 0016 0548     		ldr	r0, .L21+4
 169 0018 4368     		ldr	r3, [r0, #4]
 170              	.LVL15:
 171 001a 0221     		movs	r1, #2
ARM GAS  /tmp/ccFu9jx6.s 			page 4


 172 001c 5B69     		ldr	r3, [r3, #20]
 173 001e 9847     		blx	r3
 174              	.LVL16:
 175              	.L17:
 176              		.loc 1 106 0
 177 0020 BDE80840 		pop	{r3, lr}
 178              		.cfi_restore 14
 179              		.cfi_restore 3
 180              		.cfi_def_cfa_offset 0
 181              		.loc 1 105 0
 182 0024 FFF7FEBF 		b	_port_irq_epilogue
 183              	.LVL17:
 184              	.L22:
 185              		.align	2
 186              	.L21:
 187 0028 003C0140 		.word	1073822720
 188 002c 00000000 		.word	EXTD1
 189              		.cfi_endproc
 190              	.LFE279:
 191              		.size	Vector60, .-Vector60
 192              		.section	.text.Vector64,"ax",%progbits
 193              		.align	1
 194              		.global	Vector64
 195              		.thumb
 196              		.thumb_func
 197              		.type	Vector64, %function
 198              	Vector64:
 199              	.LFB280:
 200              		.loc 1 113 0
 201              		.cfi_startproc
 202              		@ args = 0, pretend = 0, frame = 0
 203              		@ frame_needed = 0, uses_anonymous_args = 0
 204 0000 08B5     		push	{r3, lr}
 205              		.cfi_def_cfa_offset 8
 206              		.cfi_offset 3, -8
 207              		.cfi_offset 14, -4
 208              		.loc 1 116 0
 209 0002 FFF7FEFF 		bl	_stats_increase_irq
 210              	.LVL18:
 211              		.loc 1 118 0
 212 0006 084A     		ldr	r2, .L28
 213 0008 5169     		ldr	r1, [r2, #20]
 214              	.LVL19:
 215              		.loc 1 119 0
 216 000a 1368     		ldr	r3, [r2]
 217 000c 0B40     		ands	r3, r3, r1
 218 000e 03F00803 		and	r3, r3, #8
 219              	.LVL20:
 220              		.loc 1 120 0
 221 0012 5361     		str	r3, [r2, #20]
 222              		.loc 1 121 0
 223 0014 23B1     		cbz	r3, .L24
 224              		.loc 1 122 0
 225 0016 0548     		ldr	r0, .L28+4
 226 0018 4368     		ldr	r3, [r0, #4]
 227              	.LVL21:
 228 001a 0321     		movs	r1, #3
ARM GAS  /tmp/ccFu9jx6.s 			page 5


 229 001c DB69     		ldr	r3, [r3, #28]
 230 001e 9847     		blx	r3
 231              	.LVL22:
 232              	.L24:
 233              		.loc 1 125 0
 234 0020 BDE80840 		pop	{r3, lr}
 235              		.cfi_restore 14
 236              		.cfi_restore 3
 237              		.cfi_def_cfa_offset 0
 238              		.loc 1 124 0
 239 0024 FFF7FEBF 		b	_port_irq_epilogue
 240              	.LVL23:
 241              	.L29:
 242              		.align	2
 243              	.L28:
 244 0028 003C0140 		.word	1073822720
 245 002c 00000000 		.word	EXTD1
 246              		.cfi_endproc
 247              	.LFE280:
 248              		.size	Vector64, .-Vector64
 249              		.section	.text.Vector68,"ax",%progbits
 250              		.align	1
 251              		.global	Vector68
 252              		.thumb
 253              		.thumb_func
 254              		.type	Vector68, %function
 255              	Vector68:
 256              	.LFB281:
 257              		.loc 1 132 0
 258              		.cfi_startproc
 259              		@ args = 0, pretend = 0, frame = 0
 260              		@ frame_needed = 0, uses_anonymous_args = 0
 261 0000 08B5     		push	{r3, lr}
 262              		.cfi_def_cfa_offset 8
 263              		.cfi_offset 3, -8
 264              		.cfi_offset 14, -4
 265              		.loc 1 135 0
 266 0002 FFF7FEFF 		bl	_stats_increase_irq
 267              	.LVL24:
 268              		.loc 1 137 0
 269 0006 084A     		ldr	r2, .L35
 270 0008 5169     		ldr	r1, [r2, #20]
 271              	.LVL25:
 272              		.loc 1 138 0
 273 000a 1368     		ldr	r3, [r2]
 274 000c 0B40     		ands	r3, r3, r1
 275 000e 03F01003 		and	r3, r3, #16
 276              	.LVL26:
 277              		.loc 1 139 0
 278 0012 5361     		str	r3, [r2, #20]
 279              		.loc 1 140 0
 280 0014 23B1     		cbz	r3, .L31
 281              		.loc 1 141 0
 282 0016 0548     		ldr	r0, .L35+4
 283 0018 4368     		ldr	r3, [r0, #4]
 284              	.LVL27:
 285 001a 0421     		movs	r1, #4
ARM GAS  /tmp/ccFu9jx6.s 			page 6


 286 001c 5B6A     		ldr	r3, [r3, #36]
 287 001e 9847     		blx	r3
 288              	.LVL28:
 289              	.L31:
 290              		.loc 1 144 0
 291 0020 BDE80840 		pop	{r3, lr}
 292              		.cfi_restore 14
 293              		.cfi_restore 3
 294              		.cfi_def_cfa_offset 0
 295              		.loc 1 143 0
 296 0024 FFF7FEBF 		b	_port_irq_epilogue
 297              	.LVL29:
 298              	.L36:
 299              		.align	2
 300              	.L35:
 301 0028 003C0140 		.word	1073822720
 302 002c 00000000 		.word	EXTD1
 303              		.cfi_endproc
 304              	.LFE281:
 305              		.size	Vector68, .-Vector68
 306              		.section	.text.Vector9C,"ax",%progbits
 307              		.align	1
 308              		.global	Vector9C
 309              		.thumb
 310              		.thumb_func
 311              		.type	Vector9C, %function
 312              	Vector9C:
 313              	.LFB282:
 314              		.loc 1 151 0
 315              		.cfi_startproc
 316              		@ args = 0, pretend = 0, frame = 0
 317              		@ frame_needed = 0, uses_anonymous_args = 0
 318 0000 10B5     		push	{r4, lr}
 319              		.cfi_def_cfa_offset 8
 320              		.cfi_offset 4, -8
 321              		.cfi_offset 14, -4
 322              		.loc 1 154 0
 323 0002 FFF7FEFF 		bl	_stats_increase_irq
 324              	.LVL30:
 325              		.loc 1 156 0
 326 0006 174B     		ldr	r3, .L58
 327 0008 5A69     		ldr	r2, [r3, #20]
 328              	.LVL31:
 329              		.loc 1 157 0
 330 000a 1C68     		ldr	r4, [r3]
 331 000c 1440     		ands	r4, r4, r2
 332 000e 04F47872 		and	r2, r4, #992
 333              	.LVL32:
 334              		.loc 1 159 0
 335 0012 5A61     		str	r2, [r3, #20]
 336              		.loc 1 160 0
 337 0014 A306     		lsls	r3, r4, #26
 338 0016 04D5     		bpl	.L38
 339              		.loc 1 161 0
 340 0018 1348     		ldr	r0, .L58+4
 341 001a 4368     		ldr	r3, [r0, #4]
 342 001c 0521     		movs	r1, #5
ARM GAS  /tmp/ccFu9jx6.s 			page 7


 343 001e DB6A     		ldr	r3, [r3, #44]
 344 0020 9847     		blx	r3
 345              	.LVL33:
 346              	.L38:
 347              		.loc 1 162 0
 348 0022 6006     		lsls	r0, r4, #25
 349 0024 04D5     		bpl	.L39
 350              		.loc 1 163 0
 351 0026 1048     		ldr	r0, .L58+4
 352 0028 4368     		ldr	r3, [r0, #4]
 353 002a 0621     		movs	r1, #6
 354 002c 5B6B     		ldr	r3, [r3, #52]
 355 002e 9847     		blx	r3
 356              	.LVL34:
 357              	.L39:
 358              		.loc 1 164 0
 359 0030 2106     		lsls	r1, r4, #24
 360 0032 04D5     		bpl	.L40
 361              		.loc 1 165 0
 362 0034 0C48     		ldr	r0, .L58+4
 363 0036 4368     		ldr	r3, [r0, #4]
 364 0038 0721     		movs	r1, #7
 365 003a DB6B     		ldr	r3, [r3, #60]
 366 003c 9847     		blx	r3
 367              	.LVL35:
 368              	.L40:
 369              		.loc 1 166 0
 370 003e E205     		lsls	r2, r4, #23
 371 0040 04D5     		bpl	.L41
 372              		.loc 1 167 0
 373 0042 0948     		ldr	r0, .L58+4
 374 0044 4368     		ldr	r3, [r0, #4]
 375 0046 0821     		movs	r1, #8
 376 0048 5B6C     		ldr	r3, [r3, #68]
 377 004a 9847     		blx	r3
 378              	.LVL36:
 379              	.L41:
 380              		.loc 1 168 0
 381 004c A305     		lsls	r3, r4, #22
 382 004e 04D5     		bpl	.L42
 383              		.loc 1 169 0
 384 0050 0548     		ldr	r0, .L58+4
 385 0052 4368     		ldr	r3, [r0, #4]
 386 0054 0921     		movs	r1, #9
 387 0056 DB6C     		ldr	r3, [r3, #76]
 388 0058 9847     		blx	r3
 389              	.LVL37:
 390              	.L42:
 391              		.loc 1 172 0
 392 005a BDE81040 		pop	{r4, lr}
 393              		.cfi_restore 14
 394              		.cfi_restore 4
 395              		.cfi_def_cfa_offset 0
 396              	.LVL38:
 397              		.loc 1 171 0
 398 005e FFF7FEBF 		b	_port_irq_epilogue
 399              	.LVL39:
ARM GAS  /tmp/ccFu9jx6.s 			page 8


 400              	.L59:
 401 0062 00BF     		.align	2
 402              	.L58:
 403 0064 003C0140 		.word	1073822720
 404 0068 00000000 		.word	EXTD1
 405              		.cfi_endproc
 406              	.LFE282:
 407              		.size	Vector9C, .-Vector9C
 408              		.section	.text.VectorE0,"ax",%progbits
 409              		.align	1
 410              		.global	VectorE0
 411              		.thumb
 412              		.thumb_func
 413              		.type	VectorE0, %function
 414              	VectorE0:
 415              	.LFB283:
 416              		.loc 1 179 0
 417              		.cfi_startproc
 418              		@ args = 0, pretend = 0, frame = 0
 419              		@ frame_needed = 0, uses_anonymous_args = 0
 420 0000 10B5     		push	{r4, lr}
 421              		.cfi_def_cfa_offset 8
 422              		.cfi_offset 4, -8
 423              		.cfi_offset 14, -4
 424              		.loc 1 182 0
 425 0002 FFF7FEFF 		bl	_stats_increase_irq
 426              	.LVL40:
 427              		.loc 1 184 0
 428 0006 1A4B     		ldr	r3, .L85
 429 0008 5A69     		ldr	r2, [r3, #20]
 430              	.LVL41:
 431              		.loc 1 185 0
 432 000a 1C68     		ldr	r4, [r3]
 433 000c 1440     		ands	r4, r4, r2
 434 000e 04F47C42 		and	r2, r4, #64512
 435              	.LVL42:
 436              		.loc 1 187 0
 437 0012 5A61     		str	r2, [r3, #20]
 438              		.loc 1 188 0
 439 0014 6205     		lsls	r2, r4, #21
 440              	.LVL43:
 441 0016 04D5     		bpl	.L61
 442              		.loc 1 189 0
 443 0018 1648     		ldr	r0, .L85+4
 444 001a 4368     		ldr	r3, [r0, #4]
 445              	.LVL44:
 446 001c 0A21     		movs	r1, #10
 447 001e 5B6D     		ldr	r3, [r3, #84]
 448 0020 9847     		blx	r3
 449              	.LVL45:
 450              	.L61:
 451              		.loc 1 190 0
 452 0022 2305     		lsls	r3, r4, #20
 453 0024 04D5     		bpl	.L62
 454              		.loc 1 191 0
 455 0026 1348     		ldr	r0, .L85+4
 456 0028 4368     		ldr	r3, [r0, #4]
ARM GAS  /tmp/ccFu9jx6.s 			page 9


 457 002a 0B21     		movs	r1, #11
 458 002c DB6D     		ldr	r3, [r3, #92]
 459 002e 9847     		blx	r3
 460              	.LVL46:
 461              	.L62:
 462              		.loc 1 192 0
 463 0030 E004     		lsls	r0, r4, #19
 464 0032 04D5     		bpl	.L63
 465              		.loc 1 193 0
 466 0034 0F48     		ldr	r0, .L85+4
 467 0036 4368     		ldr	r3, [r0, #4]
 468 0038 0C21     		movs	r1, #12
 469 003a 5B6E     		ldr	r3, [r3, #100]
 470 003c 9847     		blx	r3
 471              	.LVL47:
 472              	.L63:
 473              		.loc 1 194 0
 474 003e A104     		lsls	r1, r4, #18
 475 0040 04D5     		bpl	.L64
 476              		.loc 1 195 0
 477 0042 0C48     		ldr	r0, .L85+4
 478 0044 4368     		ldr	r3, [r0, #4]
 479 0046 0D21     		movs	r1, #13
 480 0048 DB6E     		ldr	r3, [r3, #108]
 481 004a 9847     		blx	r3
 482              	.LVL48:
 483              	.L64:
 484              		.loc 1 196 0
 485 004c 6204     		lsls	r2, r4, #17
 486 004e 04D5     		bpl	.L65
 487              		.loc 1 197 0
 488 0050 0848     		ldr	r0, .L85+4
 489 0052 4368     		ldr	r3, [r0, #4]
 490 0054 0E21     		movs	r1, #14
 491 0056 5B6F     		ldr	r3, [r3, #116]
 492 0058 9847     		blx	r3
 493              	.LVL49:
 494              	.L65:
 495              		.loc 1 198 0
 496 005a 2304     		lsls	r3, r4, #16
 497 005c 04D5     		bpl	.L66
 498              		.loc 1 199 0
 499 005e 0548     		ldr	r0, .L85+4
 500 0060 4368     		ldr	r3, [r0, #4]
 501 0062 0F21     		movs	r1, #15
 502 0064 DB6F     		ldr	r3, [r3, #124]
 503 0066 9847     		blx	r3
 504              	.LVL50:
 505              	.L66:
 506              		.loc 1 202 0
 507 0068 BDE81040 		pop	{r4, lr}
 508              		.cfi_restore 14
 509              		.cfi_restore 4
 510              		.cfi_def_cfa_offset 0
 511              	.LVL51:
 512              		.loc 1 201 0
 513 006c FFF7FEBF 		b	_port_irq_epilogue
ARM GAS  /tmp/ccFu9jx6.s 			page 10


 514              	.LVL52:
 515              	.L86:
 516              		.align	2
 517              	.L85:
 518 0070 003C0140 		.word	1073822720
 519 0074 00000000 		.word	EXTD1
 520              		.cfi_endproc
 521              	.LFE283:
 522              		.size	VectorE0, .-VectorE0
 523              		.section	.text.Vector44,"ax",%progbits
 524              		.align	1
 525              		.global	Vector44
 526              		.thumb
 527              		.thumb_func
 528              		.type	Vector44, %function
 529              	Vector44:
 530              	.LFB284:
 531              		.loc 1 209 0
 532              		.cfi_startproc
 533              		@ args = 0, pretend = 0, frame = 0
 534              		@ frame_needed = 0, uses_anonymous_args = 0
 535 0000 08B5     		push	{r3, lr}
 536              		.cfi_def_cfa_offset 8
 537              		.cfi_offset 3, -8
 538              		.cfi_offset 14, -4
 539              		.loc 1 212 0
 540 0002 FFF7FEFF 		bl	_stats_increase_irq
 541              	.LVL53:
 542              		.loc 1 214 0
 543 0006 094A     		ldr	r2, .L92
 544 0008 5169     		ldr	r1, [r2, #20]
 545              	.LVL54:
 546              		.loc 1 215 0
 547 000a 1368     		ldr	r3, [r2]
 548 000c 0B40     		ands	r3, r3, r1
 549 000e 03F48033 		and	r3, r3, #65536
 550              	.LVL55:
 551              		.loc 1 216 0
 552 0012 5361     		str	r3, [r2, #20]
 553              		.loc 1 217 0
 554 0014 2BB1     		cbz	r3, .L88
 555              		.loc 1 218 0
 556 0016 0648     		ldr	r0, .L92+4
 557 0018 4368     		ldr	r3, [r0, #4]
 558              	.LVL56:
 559 001a 1021     		movs	r1, #16
 560 001c D3F88430 		ldr	r3, [r3, #132]
 561 0020 9847     		blx	r3
 562              	.LVL57:
 563              	.L88:
 564              		.loc 1 221 0
 565 0022 BDE80840 		pop	{r3, lr}
 566              		.cfi_restore 14
 567              		.cfi_restore 3
 568              		.cfi_def_cfa_offset 0
 569              		.loc 1 220 0
 570 0026 FFF7FEBF 		b	_port_irq_epilogue
ARM GAS  /tmp/ccFu9jx6.s 			page 11


 571              	.LVL58:
 572              	.L93:
 573 002a 00BF     		.align	2
 574              	.L92:
 575 002c 003C0140 		.word	1073822720
 576 0030 00000000 		.word	EXTD1
 577              		.cfi_endproc
 578              	.LFE284:
 579              		.size	Vector44, .-Vector44
 580              		.section	.text.VectorE4,"ax",%progbits
 581              		.align	1
 582              		.global	VectorE4
 583              		.thumb
 584              		.thumb_func
 585              		.type	VectorE4, %function
 586              	VectorE4:
 587              	.LFB285:
 588              		.loc 1 228 0
 589              		.cfi_startproc
 590              		@ args = 0, pretend = 0, frame = 0
 591              		@ frame_needed = 0, uses_anonymous_args = 0
 592 0000 08B5     		push	{r3, lr}
 593              		.cfi_def_cfa_offset 8
 594              		.cfi_offset 3, -8
 595              		.cfi_offset 14, -4
 596              		.loc 1 231 0
 597 0002 FFF7FEFF 		bl	_stats_increase_irq
 598              	.LVL59:
 599              		.loc 1 233 0
 600 0006 094A     		ldr	r2, .L99
 601 0008 5169     		ldr	r1, [r2, #20]
 602              	.LVL60:
 603              		.loc 1 234 0
 604 000a 1368     		ldr	r3, [r2]
 605 000c 0B40     		ands	r3, r3, r1
 606 000e 03F40033 		and	r3, r3, #131072
 607              	.LVL61:
 608              		.loc 1 235 0
 609 0012 5361     		str	r3, [r2, #20]
 610              		.loc 1 236 0
 611 0014 2BB1     		cbz	r3, .L95
 612              		.loc 1 237 0
 613 0016 0648     		ldr	r0, .L99+4
 614 0018 4368     		ldr	r3, [r0, #4]
 615              	.LVL62:
 616 001a 1121     		movs	r1, #17
 617 001c D3F88C30 		ldr	r3, [r3, #140]
 618 0020 9847     		blx	r3
 619              	.LVL63:
 620              	.L95:
 621              		.loc 1 240 0
 622 0022 BDE80840 		pop	{r3, lr}
 623              		.cfi_restore 14
 624              		.cfi_restore 3
 625              		.cfi_def_cfa_offset 0
 626              		.loc 1 239 0
 627 0026 FFF7FEBF 		b	_port_irq_epilogue
ARM GAS  /tmp/ccFu9jx6.s 			page 12


 628              	.LVL64:
 629              	.L100:
 630 002a 00BF     		.align	2
 631              	.L99:
 632 002c 003C0140 		.word	1073822720
 633 0030 00000000 		.word	EXTD1
 634              		.cfi_endproc
 635              	.LFE285:
 636              		.size	VectorE4, .-VectorE4
 637              		.section	.text.VectorE8,"ax",%progbits
 638              		.align	1
 639              		.global	VectorE8
 640              		.thumb
 641              		.thumb_func
 642              		.type	VectorE8, %function
 643              	VectorE8:
 644              	.LFB286:
 645              		.loc 1 247 0
 646              		.cfi_startproc
 647              		@ args = 0, pretend = 0, frame = 0
 648              		@ frame_needed = 0, uses_anonymous_args = 0
 649 0000 08B5     		push	{r3, lr}
 650              		.cfi_def_cfa_offset 8
 651              		.cfi_offset 3, -8
 652              		.cfi_offset 14, -4
 653              		.loc 1 250 0
 654 0002 FFF7FEFF 		bl	_stats_increase_irq
 655              	.LVL65:
 656              		.loc 1 252 0
 657 0006 094A     		ldr	r2, .L106
 658 0008 5169     		ldr	r1, [r2, #20]
 659              	.LVL66:
 660              		.loc 1 253 0
 661 000a 1368     		ldr	r3, [r2]
 662 000c 0B40     		ands	r3, r3, r1
 663 000e 03F48023 		and	r3, r3, #262144
 664              	.LVL67:
 665              		.loc 1 254 0
 666 0012 5361     		str	r3, [r2, #20]
 667              		.loc 1 255 0
 668 0014 2BB1     		cbz	r3, .L102
 669              		.loc 1 256 0
 670 0016 0648     		ldr	r0, .L106+4
 671 0018 4368     		ldr	r3, [r0, #4]
 672              	.LVL68:
 673 001a 1221     		movs	r1, #18
 674 001c D3F89430 		ldr	r3, [r3, #148]
 675 0020 9847     		blx	r3
 676              	.LVL69:
 677              	.L102:
 678              		.loc 1 259 0
 679 0022 BDE80840 		pop	{r3, lr}
 680              		.cfi_restore 14
 681              		.cfi_restore 3
 682              		.cfi_def_cfa_offset 0
 683              		.loc 1 258 0
 684 0026 FFF7FEBF 		b	_port_irq_epilogue
ARM GAS  /tmp/ccFu9jx6.s 			page 13


 685              	.LVL70:
 686              	.L107:
 687 002a 00BF     		.align	2
 688              	.L106:
 689 002c 003C0140 		.word	1073822720
 690 0030 00000000 		.word	EXTD1
 691              		.cfi_endproc
 692              	.LFE286:
 693              		.size	VectorE8, .-VectorE8
 694              		.section	.text.Vector138,"ax",%progbits
 695              		.align	1
 696              		.global	Vector138
 697              		.thumb
 698              		.thumb_func
 699              		.type	Vector138, %function
 700              	Vector138:
 701              	.LFB287:
 702              		.loc 1 267 0
 703              		.cfi_startproc
 704              		@ args = 0, pretend = 0, frame = 0
 705              		@ frame_needed = 0, uses_anonymous_args = 0
 706 0000 08B5     		push	{r3, lr}
 707              		.cfi_def_cfa_offset 8
 708              		.cfi_offset 3, -8
 709              		.cfi_offset 14, -4
 710              		.loc 1 270 0
 711 0002 FFF7FEFF 		bl	_stats_increase_irq
 712              	.LVL71:
 713              		.loc 1 272 0
 714 0006 094A     		ldr	r2, .L113
 715 0008 5169     		ldr	r1, [r2, #20]
 716              	.LVL72:
 717              		.loc 1 273 0
 718 000a 1368     		ldr	r3, [r2]
 719 000c 0B40     		ands	r3, r3, r1
 720 000e 03F40023 		and	r3, r3, #524288
 721              	.LVL73:
 722              		.loc 1 274 0
 723 0012 5361     		str	r3, [r2, #20]
 724              		.loc 1 275 0
 725 0014 2BB1     		cbz	r3, .L109
 726              		.loc 1 276 0
 727 0016 0648     		ldr	r0, .L113+4
 728 0018 4368     		ldr	r3, [r0, #4]
 729              	.LVL74:
 730 001a 1321     		movs	r1, #19
 731 001c D3F89C30 		ldr	r3, [r3, #156]
 732 0020 9847     		blx	r3
 733              	.LVL75:
 734              	.L109:
 735              		.loc 1 279 0
 736 0022 BDE80840 		pop	{r3, lr}
 737              		.cfi_restore 14
 738              		.cfi_restore 3
 739              		.cfi_def_cfa_offset 0
 740              		.loc 1 278 0
 741 0026 FFF7FEBF 		b	_port_irq_epilogue
ARM GAS  /tmp/ccFu9jx6.s 			page 14


 742              	.LVL76:
 743              	.L114:
 744 002a 00BF     		.align	2
 745              	.L113:
 746 002c 003C0140 		.word	1073822720
 747 0030 00000000 		.word	EXTD1
 748              		.cfi_endproc
 749              	.LFE287:
 750              		.size	Vector138, .-Vector138
 751              		.section	.text.Vector170,"ax",%progbits
 752              		.align	1
 753              		.global	Vector170
 754              		.thumb
 755              		.thumb_func
 756              		.type	Vector170, %function
 757              	Vector170:
 758              	.LFB288:
 759              		.loc 1 288 0
 760              		.cfi_startproc
 761              		@ args = 0, pretend = 0, frame = 0
 762              		@ frame_needed = 0, uses_anonymous_args = 0
 763 0000 08B5     		push	{r3, lr}
 764              		.cfi_def_cfa_offset 8
 765              		.cfi_offset 3, -8
 766              		.cfi_offset 14, -4
 767              		.loc 1 291 0
 768 0002 FFF7FEFF 		bl	_stats_increase_irq
 769              	.LVL77:
 770              		.loc 1 293 0
 771 0006 094A     		ldr	r2, .L120
 772 0008 5169     		ldr	r1, [r2, #20]
 773              	.LVL78:
 774              		.loc 1 294 0
 775 000a 1368     		ldr	r3, [r2]
 776 000c 0B40     		ands	r3, r3, r1
 777 000e 03F48013 		and	r3, r3, #1048576
 778              	.LVL79:
 779              		.loc 1 295 0
 780 0012 5361     		str	r3, [r2, #20]
 781              		.loc 1 296 0
 782 0014 2BB1     		cbz	r3, .L116
 783              		.loc 1 297 0
 784 0016 0648     		ldr	r0, .L120+4
 785 0018 4368     		ldr	r3, [r0, #4]
 786              	.LVL80:
 787 001a 1421     		movs	r1, #20
 788 001c D3F8A430 		ldr	r3, [r3, #164]
 789 0020 9847     		blx	r3
 790              	.LVL81:
 791              	.L116:
 792              		.loc 1 300 0
 793 0022 BDE80840 		pop	{r3, lr}
 794              		.cfi_restore 14
 795              		.cfi_restore 3
 796              		.cfi_def_cfa_offset 0
 797              		.loc 1 299 0
 798 0026 FFF7FEBF 		b	_port_irq_epilogue
ARM GAS  /tmp/ccFu9jx6.s 			page 15


 799              	.LVL82:
 800              	.L121:
 801 002a 00BF     		.align	2
 802              	.L120:
 803 002c 003C0140 		.word	1073822720
 804 0030 00000000 		.word	EXTD1
 805              		.cfi_endproc
 806              	.LFE288:
 807              		.size	Vector170, .-Vector170
 808              		.section	.text.Vector48,"ax",%progbits
 809              		.align	1
 810              		.global	Vector48
 811              		.thumb
 812              		.thumb_func
 813              		.type	Vector48, %function
 814              	Vector48:
 815              	.LFB289:
 816              		.loc 1 309 0
 817              		.cfi_startproc
 818              		@ args = 0, pretend = 0, frame = 0
 819              		@ frame_needed = 0, uses_anonymous_args = 0
 820 0000 08B5     		push	{r3, lr}
 821              		.cfi_def_cfa_offset 8
 822              		.cfi_offset 3, -8
 823              		.cfi_offset 14, -4
 824              		.loc 1 312 0
 825 0002 FFF7FEFF 		bl	_stats_increase_irq
 826              	.LVL83:
 827              		.loc 1 314 0
 828 0006 094A     		ldr	r2, .L127
 829 0008 5169     		ldr	r1, [r2, #20]
 830              	.LVL84:
 831              		.loc 1 315 0
 832 000a 1368     		ldr	r3, [r2]
 833 000c 0B40     		ands	r3, r3, r1
 834 000e 03F40013 		and	r3, r3, #2097152
 835              	.LVL85:
 836              		.loc 1 316 0
 837 0012 5361     		str	r3, [r2, #20]
 838              		.loc 1 317 0
 839 0014 2BB1     		cbz	r3, .L123
 840              		.loc 1 318 0
 841 0016 0648     		ldr	r0, .L127+4
 842 0018 4368     		ldr	r3, [r0, #4]
 843              	.LVL86:
 844 001a 1521     		movs	r1, #21
 845 001c D3F8AC30 		ldr	r3, [r3, #172]
 846 0020 9847     		blx	r3
 847              	.LVL87:
 848              	.L123:
 849              		.loc 1 321 0
 850 0022 BDE80840 		pop	{r3, lr}
 851              		.cfi_restore 14
 852              		.cfi_restore 3
 853              		.cfi_def_cfa_offset 0
 854              		.loc 1 320 0
 855 0026 FFF7FEBF 		b	_port_irq_epilogue
ARM GAS  /tmp/ccFu9jx6.s 			page 16


 856              	.LVL88:
 857              	.L128:
 858 002a 00BF     		.align	2
 859              	.L127:
 860 002c 003C0140 		.word	1073822720
 861 0030 00000000 		.word	EXTD1
 862              		.cfi_endproc
 863              	.LFE289:
 864              		.size	Vector48, .-Vector48
 865              		.section	.text.Vector4C,"ax",%progbits
 866              		.align	1
 867              		.global	Vector4C
 868              		.thumb
 869              		.thumb_func
 870              		.type	Vector4C, %function
 871              	Vector4C:
 872              	.LFB290:
 873              		.loc 1 329 0
 874              		.cfi_startproc
 875              		@ args = 0, pretend = 0, frame = 0
 876              		@ frame_needed = 0, uses_anonymous_args = 0
 877 0000 08B5     		push	{r3, lr}
 878              		.cfi_def_cfa_offset 8
 879              		.cfi_offset 3, -8
 880              		.cfi_offset 14, -4
 881              		.loc 1 332 0
 882 0002 FFF7FEFF 		bl	_stats_increase_irq
 883              	.LVL89:
 884              		.loc 1 334 0
 885 0006 094A     		ldr	r2, .L134
 886 0008 5169     		ldr	r1, [r2, #20]
 887              	.LVL90:
 888              		.loc 1 335 0
 889 000a 1368     		ldr	r3, [r2]
 890 000c 0B40     		ands	r3, r3, r1
 891 000e 03F48003 		and	r3, r3, #4194304
 892              	.LVL91:
 893              		.loc 1 336 0
 894 0012 5361     		str	r3, [r2, #20]
 895              		.loc 1 337 0
 896 0014 2BB1     		cbz	r3, .L130
 897              		.loc 1 338 0
 898 0016 0648     		ldr	r0, .L134+4
 899 0018 4368     		ldr	r3, [r0, #4]
 900              	.LVL92:
 901 001a 1621     		movs	r1, #22
 902 001c D3F8B430 		ldr	r3, [r3, #180]
 903 0020 9847     		blx	r3
 904              	.LVL93:
 905              	.L130:
 906              		.loc 1 341 0
 907 0022 BDE80840 		pop	{r3, lr}
 908              		.cfi_restore 14
 909              		.cfi_restore 3
 910              		.cfi_def_cfa_offset 0
 911              		.loc 1 340 0
 912 0026 FFF7FEBF 		b	_port_irq_epilogue
ARM GAS  /tmp/ccFu9jx6.s 			page 17


 913              	.LVL94:
 914              	.L135:
 915 002a 00BF     		.align	2
 916              	.L134:
 917 002c 003C0140 		.word	1073822720
 918 0030 00000000 		.word	EXTD1
 919              		.cfi_endproc
 920              	.LFE290:
 921              		.size	Vector4C, .-Vector4C
 922              		.section	.text.ext_lld_exti_irq_enable,"ax",%progbits
 923              		.align	1
 924              		.global	ext_lld_exti_irq_enable
 925              		.thumb
 926              		.thumb_func
 927              		.type	ext_lld_exti_irq_enable, %function
 928              	ext_lld_exti_irq_enable:
 929              	.LFB291:
 930              		.loc 1 352 0
 931              		.cfi_startproc
 932              		@ args = 0, pretend = 0, frame = 0
 933              		@ frame_needed = 0, uses_anonymous_args = 0
 934              		.loc 1 354 0
 935 0000 0620     		movs	r0, #6
 936              		.loc 1 352 0
 937 0002 08B5     		push	{r3, lr}
 938              		.cfi_def_cfa_offset 8
 939              		.cfi_offset 3, -8
 940              		.cfi_offset 14, -4
 941              		.loc 1 354 0
 942 0004 0146     		mov	r1, r0
 943 0006 FFF7FEFF 		bl	nvicEnableVector
 944              	.LVL95:
 945              		.loc 1 355 0
 946 000a 0720     		movs	r0, #7
 947 000c 0621     		movs	r1, #6
 948 000e FFF7FEFF 		bl	nvicEnableVector
 949              	.LVL96:
 950              		.loc 1 356 0
 951 0012 0820     		movs	r0, #8
 952 0014 0621     		movs	r1, #6
 953 0016 FFF7FEFF 		bl	nvicEnableVector
 954              	.LVL97:
 955              		.loc 1 357 0
 956 001a 0920     		movs	r0, #9
 957 001c 0621     		movs	r1, #6
 958 001e FFF7FEFF 		bl	nvicEnableVector
 959              	.LVL98:
 960              		.loc 1 358 0
 961 0022 0A20     		movs	r0, #10
 962 0024 0621     		movs	r1, #6
 963 0026 FFF7FEFF 		bl	nvicEnableVector
 964              	.LVL99:
 965              		.loc 1 359 0
 966 002a 1720     		movs	r0, #23
 967 002c 0621     		movs	r1, #6
 968 002e FFF7FEFF 		bl	nvicEnableVector
 969              	.LVL100:
ARM GAS  /tmp/ccFu9jx6.s 			page 18


 970              		.loc 1 360 0
 971 0032 2820     		movs	r0, #40
 972 0034 0621     		movs	r1, #6
 973 0036 FFF7FEFF 		bl	nvicEnableVector
 974              	.LVL101:
 975              		.loc 1 361 0
 976 003a 0120     		movs	r0, #1
 977 003c 0621     		movs	r1, #6
 978 003e FFF7FEFF 		bl	nvicEnableVector
 979              	.LVL102:
 980              		.loc 1 362 0
 981 0042 2920     		movs	r0, #41
 982 0044 0F21     		movs	r1, #15
 983 0046 FFF7FEFF 		bl	nvicEnableVector
 984              	.LVL103:
 985              		.loc 1 364 0
 986 004a 2A20     		movs	r0, #42
 987 004c 0621     		movs	r1, #6
 988 004e FFF7FEFF 		bl	nvicEnableVector
 989              	.LVL104:
 990              		.loc 1 367 0
 991 0052 3E20     		movs	r0, #62
 992 0054 0621     		movs	r1, #6
 993 0056 FFF7FEFF 		bl	nvicEnableVector
 994              	.LVL105:
 995              		.loc 1 370 0
 996 005a 4C20     		movs	r0, #76
 997 005c 0621     		movs	r1, #6
 998 005e FFF7FEFF 		bl	nvicEnableVector
 999              	.LVL106:
 1000              		.loc 1 373 0
 1001 0062 0220     		movs	r0, #2
 1002 0064 0F21     		movs	r1, #15
 1003 0066 FFF7FEFF 		bl	nvicEnableVector
 1004              	.LVL107:
 1005              		.loc 1 375 0
 1006 006a 0320     		movs	r0, #3
 1007 006c 0F21     		movs	r1, #15
 1008              		.loc 1 376 0
 1009 006e BDE80840 		pop	{r3, lr}
 1010              		.cfi_restore 14
 1011              		.cfi_restore 3
 1012              		.cfi_def_cfa_offset 0
 1013              		.loc 1 375 0
 1014 0072 FFF7FEBF 		b	nvicEnableVector
 1015              	.LVL108:
 1016              		.cfi_endproc
 1017              	.LFE291:
 1018              		.size	ext_lld_exti_irq_enable, .-ext_lld_exti_irq_enable
 1019              		.section	.text.ext_lld_exti_irq_disable,"ax",%progbits
 1020              		.align	1
 1021              		.global	ext_lld_exti_irq_disable
 1022              		.thumb
 1023              		.thumb_func
 1024              		.type	ext_lld_exti_irq_disable, %function
 1025              	ext_lld_exti_irq_disable:
 1026              	.LFB292:
ARM GAS  /tmp/ccFu9jx6.s 			page 19


 1027              		.loc 1 383 0
 1028              		.cfi_startproc
 1029              		@ args = 0, pretend = 0, frame = 0
 1030              		@ frame_needed = 0, uses_anonymous_args = 0
 1031 0000 08B5     		push	{r3, lr}
 1032              		.cfi_def_cfa_offset 8
 1033              		.cfi_offset 3, -8
 1034              		.cfi_offset 14, -4
 1035              		.loc 1 385 0
 1036 0002 0620     		movs	r0, #6
 1037 0004 FFF7FEFF 		bl	nvicDisableVector
 1038              	.LVL109:
 1039              		.loc 1 386 0
 1040 0008 0720     		movs	r0, #7
 1041 000a FFF7FEFF 		bl	nvicDisableVector
 1042              	.LVL110:
 1043              		.loc 1 387 0
 1044 000e 0820     		movs	r0, #8
 1045 0010 FFF7FEFF 		bl	nvicDisableVector
 1046              	.LVL111:
 1047              		.loc 1 388 0
 1048 0014 0920     		movs	r0, #9
 1049 0016 FFF7FEFF 		bl	nvicDisableVector
 1050              	.LVL112:
 1051              		.loc 1 389 0
 1052 001a 0A20     		movs	r0, #10
 1053 001c FFF7FEFF 		bl	nvicDisableVector
 1054              	.LVL113:
 1055              		.loc 1 390 0
 1056 0020 1720     		movs	r0, #23
 1057 0022 FFF7FEFF 		bl	nvicDisableVector
 1058              	.LVL114:
 1059              		.loc 1 391 0
 1060 0026 2820     		movs	r0, #40
 1061 0028 FFF7FEFF 		bl	nvicDisableVector
 1062              	.LVL115:
 1063              		.loc 1 392 0
 1064 002c 0120     		movs	r0, #1
 1065 002e FFF7FEFF 		bl	nvicDisableVector
 1066              	.LVL116:
 1067              		.loc 1 393 0
 1068 0032 2920     		movs	r0, #41
 1069 0034 FFF7FEFF 		bl	nvicDisableVector
 1070              	.LVL117:
 1071              		.loc 1 395 0
 1072 0038 2A20     		movs	r0, #42
 1073 003a FFF7FEFF 		bl	nvicDisableVector
 1074              	.LVL118:
 1075              		.loc 1 398 0
 1076 003e 3E20     		movs	r0, #62
 1077 0040 FFF7FEFF 		bl	nvicDisableVector
 1078              	.LVL119:
 1079              		.loc 1 401 0
 1080 0044 4C20     		movs	r0, #76
 1081 0046 FFF7FEFF 		bl	nvicDisableVector
 1082              	.LVL120:
 1083              		.loc 1 404 0
ARM GAS  /tmp/ccFu9jx6.s 			page 20


 1084 004a 0220     		movs	r0, #2
 1085 004c FFF7FEFF 		bl	nvicDisableVector
 1086              	.LVL121:
 1087              		.loc 1 406 0
 1088 0050 0320     		movs	r0, #3
 1089              		.loc 1 407 0
 1090 0052 BDE80840 		pop	{r3, lr}
 1091              		.cfi_restore 14
 1092              		.cfi_restore 3
 1093              		.cfi_def_cfa_offset 0
 1094              		.loc 1 406 0
 1095 0056 FFF7FEBF 		b	nvicDisableVector
 1096              	.LVL122:
 1097              		.cfi_endproc
 1098              	.LFE292:
 1099              		.size	ext_lld_exti_irq_disable, .-ext_lld_exti_irq_disable
 1100              		.text
 1101              	.Letext0:
 1102              		.file 2 "/usr/include/newlib/machine/_default_types.h"
 1103              		.file 3 "/usr/include/newlib/sys/_stdint.h"
 1104              		.file 4 "../../modules/ChibiOS/os/common/ports/ARMCMx/compilers/GCC/chtypes.h"
 1105              		.file 5 "../../modules/ChibiOS/os/rt/include/chsystypes.h"
 1106              		.file 6 "../../modules/ChibiOS/os/rt/include/chschd.h"
 1107              		.file 7 "../../modules/ChibiOS/os/common/ext/CMSIS/ST/STM32F4xx/stm32f407xx.h"
 1108              		.file 8 "../../modules/ChibiOS/os/common/ports/ARMCMx/chcore.h"
 1109              		.file 9 "../../modules/ChibiOS/os/common/ports/ARMCMx/chcore_v7m.h"
 1110              		.file 10 "../../modules/ChibiOS/os/rt/include/chtm.h"
 1111              		.file 11 "../../modules/ChibiOS/os/rt/include/chstats.h"
 1112              		.file 12 "../../modules/ChibiOS/os/rt/include/chsem.h"
 1113              		.file 13 "../../modules/ChibiOS/os/rt/include/chmtx.h"
 1114              		.file 14 "../../modules/ChibiOS/os/hal/include/hal_ext.h"
 1115              		.file 15 "../../modules/ChibiOS/os/hal/ports/STM32/LLD/EXTIv1/hal_ext_lld.h"
 1116              		.file 16 "../../modules/ChibiOS/os/common/ext/CMSIS/include/core_cm4.h"
 1117              		.file 17 "../../modules/ChibiOS/os/hal/ports/common/ARMCMx/nvic.h"