ARM GAS  /tmp/cc6cIjGY.s 			page 1


   1              		.syntax unified
   2              		.cpu cortex-m4
   3              		.eabi_attribute 27, 1
   4              		.eabi_attribute 28, 1
   5              		.fpu fpv4-sp-d16
   6              		.eabi_attribute 20, 1
   7              		.eabi_attribute 21, 1
   8              		.eabi_attribute 23, 3
   9              		.eabi_attribute 24, 1
  10              		.eabi_attribute 25, 1
  11              		.eabi_attribute 26, 1
  12              		.eabi_attribute 30, 4
  13              		.eabi_attribute 34, 1
  14              		.eabi_attribute 18, 4
  15              		.thumb
  16              		.file	"hal_icu_lld.c"
  17              		.text
  18              	.Ltext0:
  19              		.cfi_sections	.debug_frame
  20              		.section	.text.icu_lld_wait_edge,"ax",%progbits
  21              		.align	1
  22              		.thumb
  23              		.thumb_func
  24              		.type	icu_lld_wait_edge, %function
  25              	icu_lld_wait_edge:
  26              	.LFB277:
  27              		.file 1 "../../modules/ChibiOS/os/hal/ports/STM32/LLD/TIMv1/hal_icu_lld.c"
  28              		.loc 1 105 0
  29              		.cfi_startproc
  30              		@ args = 0, pretend = 0, frame = 0
  31              		@ frame_needed = 0, uses_anonymous_args = 0
  32              	.LVL0:
  33 0000 38B5     		push	{r3, r4, r5, lr}
  34              		.cfi_def_cfa_offset 16
  35              		.cfi_offset 3, -16
  36              		.cfi_offset 4, -12
  37              		.cfi_offset 5, -8
  38              		.cfi_offset 14, -4
  39              		.loc 1 105 0
  40 0002 0546     		mov	r5, r0
  41              	.LBB32:
  42              	.LBB33:
  43              	.LBB34:
  44              		.file 2 "../../modules/ChibiOS/os/rt/include/chsys.h"
  45              		.loc 2 389 0
  46 0004 FFF7FEFF 		bl	_stats_stop_measure_crit_thd
  47              	.LVL1:
  48              	.LBB35:
  49              	.LBB36:
  50              	.LBB37:
  51              		.file 3 "../../modules/ChibiOS/os/common/ext/CMSIS/include/cmsis_gcc.h"
  52              		.loc 3 264 0
  53 0008 0023     		movs	r3, #0
  54              	@ 264 "../../modules/ChibiOS/os/common/ext/CMSIS/include/cmsis_gcc.h" 1
  55 000a 83F31188 		MSR basepri, r3
  56              	@ 0 "" 2
  57              		.thumb
ARM GAS  /tmp/cc6cIjGY.s 			page 2


  58              	.LBE37:
  59              	.LBE36:
  60              	.LBE35:
  61              	.LBE34:
  62              	.LBE33:
  63              	.LBE32:
  64              		.loc 1 114 0
  65 000e 6B68     		ldr	r3, [r5, #4]
  66 0010 1A7D     		ldrb	r2, [r3, #20]	@ zero_extendqisi2
  67 0012 EB68     		ldr	r3, [r5, #12]
  68 0014 1AB9     		cbnz	r2, .L5
  69              	.L3:
  70              		.loc 1 116 0 discriminator 1
  71 0016 1C69     		ldr	r4, [r3, #16]
  72              	.LVL2:
  73 0018 A207     		lsls	r2, r4, #30
  74 001a FCD0     		beq	.L3
  75 001c 03E0     		b	.L4
  76              	.LVL3:
  77              	.L5:
  78              		.loc 1 122 0 discriminator 1
  79 001e 1C69     		ldr	r4, [r3, #16]
  80              	.LVL4:
  81 0020 14F0050F 		tst	r4, #5
  82 0024 FBD0     		beq	.L5
  83              	.L4:
  84              	.LVL5:
  85              	.LBB38:
  86              	.LBB39:
  87              	.LBB40:
  88              	.LBB41:
  89              	.LBB42:
  90              	.LBB43:
  91              		.loc 3 264 0
  92 0026 2023     		movs	r3, #32
  93              	@ 264 "../../modules/ChibiOS/os/common/ext/CMSIS/include/cmsis_gcc.h" 1
  94 0028 83F31188 		MSR basepri, r3
  95              	@ 0 "" 2
  96              		.thumb
  97              	.LBE43:
  98              	.LBE42:
  99              	.LBE41:
 100              		.loc 2 377 0
 101 002c FFF7FEFF 		bl	_stats_start_measure_crit_thd
 102              	.LVL6:
 103              	.LBE40:
 104              	.LBE39:
 105              	.LBE38:
 106              		.loc 1 134 0
 107 0030 EA68     		ldr	r2, [r5, #12]
 108 0032 1369     		ldr	r3, [r2, #16]
 109 0034 23F00703 		bic	r3, r3, #7
 110 0038 1361     		str	r3, [r2, #16]
 111              		.loc 1 139 0
 112 003a 04F00100 		and	r0, r4, #1
 113 003e 38BD     		pop	{r3, r4, r5, pc}
 114              		.cfi_endproc
ARM GAS  /tmp/cc6cIjGY.s 			page 3


 115              	.LFE277:
 116              		.size	icu_lld_wait_edge, .-icu_lld_wait_edge
 117              		.section	.text.icu_lld_init,"ax",%progbits
 118              		.align	1
 119              		.global	icu_lld_init
 120              		.thumb
 121              		.thumb_func
 122              		.type	icu_lld_init, %function
 123              	icu_lld_init:
 124              	.LFB280:
 125              		.loc 1 335 0
 126              		.cfi_startproc
 127              		@ args = 0, pretend = 0, frame = 0
 128              		@ frame_needed = 0, uses_anonymous_args = 0
 129 0000 10B5     		push	{r4, lr}
 130              		.cfi_def_cfa_offset 8
 131              		.cfi_offset 4, -8
 132              		.cfi_offset 14, -4
 133              		.loc 1 369 0
 134 0002 034C     		ldr	r4, .L12
 135 0004 2046     		mov	r0, r4
 136 0006 FFF7FEFF 		bl	icuObjectInit
 137              	.LVL7:
 138              		.loc 1 370 0
 139 000a 024B     		ldr	r3, .L12+4
 140 000c E360     		str	r3, [r4, #12]
 141 000e 10BD     		pop	{r4, pc}
 142              	.L13:
 143              		.align	2
 144              	.L12:
 145 0010 00000000 		.word	.LANCHOR0
 146 0014 00040140 		.word	1073808384
 147              		.cfi_endproc
 148              	.LFE280:
 149              		.size	icu_lld_init, .-icu_lld_init
 150              		.section	.text.icu_lld_start,"ax",%progbits
 151              		.align	1
 152              		.global	icu_lld_start
 153              		.thumb
 154              		.thumb_func
 155              		.type	icu_lld_start, %function
 156              	icu_lld_start:
 157              	.LFB281:
 158              		.loc 1 387 0
 159              		.cfi_startproc
 160              		@ args = 0, pretend = 0, frame = 0
 161              		@ frame_needed = 0, uses_anonymous_args = 0
 162              	.LVL8:
 163 0000 38B5     		push	{r3, r4, r5, lr}
 164              		.cfi_def_cfa_offset 16
 165              		.cfi_offset 3, -16
 166              		.cfi_offset 4, -12
 167              		.cfi_offset 5, -8
 168              		.cfi_offset 14, -4
 169              		.loc 1 394 0
 170 0002 0378     		ldrb	r3, [r0]	@ zero_extendqisi2
 171 0004 012B     		cmp	r3, #1
ARM GAS  /tmp/cc6cIjGY.s 			page 4


 172              		.loc 1 387 0
 173 0006 0446     		mov	r4, r0
 174              		.loc 1 394 0
 175 0008 18D1     		bne	.L15
 176              		.loc 1 473 0
 177 000a 284B     		ldr	r3, .L25
 178 000c 9842     		cmp	r0, r3
 179 000e 1BD1     		bne	.L16
 180              		.loc 1 474 0
 181 0010 274B     		ldr	r3, .L25+4
 182 0012 5A6C     		ldr	r2, [r3, #68]
 183 0014 42F00202 		orr	r2, r2, #2
 184 0018 5A64     		str	r2, [r3, #68]
 185              		.loc 1 475 0
 186 001a 5A6A     		ldr	r2, [r3, #36]
 187 001c 42F00202 		orr	r2, r2, #2
 188 0020 5A62     		str	r2, [r3, #36]
 189 0022 0022     		movs	r2, #0
 190 0024 5A62     		str	r2, [r3, #36]
 191              		.loc 1 477 0
 192 0026 2C20     		movs	r0, #44
 193              	.LVL9:
 194 0028 0721     		movs	r1, #7
 195 002a FFF7FEFF 		bl	nvicEnableVector
 196              	.LVL10:
 197              		.loc 1 478 0
 198 002e 2E20     		movs	r0, #46
 199 0030 0721     		movs	r1, #7
 200 0032 FFF7FEFF 		bl	nvicEnableVector
 201              	.LVL11:
 202              		.loc 1 483 0
 203 0036 1F4B     		ldr	r3, .L25+8
 204 0038 A360     		str	r3, [r4, #8]
 205 003a 05E0     		b	.L16
 206              	.LVL12:
 207              	.L15:
 208              		.loc 1 505 0
 209 003c C368     		ldr	r3, [r0, #12]
 210 003e 0022     		movs	r2, #0
 211 0040 1A60     		str	r2, [r3]
 212              		.loc 1 506 0
 213 0042 5A63     		str	r2, [r3, #52]
 214              		.loc 1 507 0
 215 0044 9A63     		str	r2, [r3, #56]
 216              		.loc 1 508 0
 217 0046 5A62     		str	r2, [r3, #36]
 218              	.LVL13:
 219              	.L16:
 220              		.loc 1 513 0
 221 0048 6168     		ldr	r1, [r4, #4]
 222              		.loc 1 512 0
 223 004a E368     		ldr	r3, [r4, #12]
 224              		.loc 1 515 0
 225 004c 4868     		ldr	r0, [r1, #4]
 226              		.loc 1 522 0
 227 004e 0D7D     		ldrb	r5, [r1, #20]	@ zero_extendqisi2
 228              		.loc 1 512 0
ARM GAS  /tmp/cc6cIjGY.s 			page 5


 229 0050 0022     		movs	r2, #0
 230 0052 1A61     		str	r2, [r3, #16]
 231              		.loc 1 513 0
 232 0054 8A69     		ldr	r2, [r1, #24]
 233 0056 22F0FF02 		bic	r2, r2, #255
 234 005a DA60     		str	r2, [r3, #12]
 235              		.loc 1 515 0
 236 005c A268     		ldr	r2, [r4, #8]
 237 005e B2FBF0F2 		udiv	r2, r2, r0
 238 0062 013A     		subs	r2, r2, #1
 239              	.LVL14:
 240              		.loc 1 519 0
 241 0064 9A62     		str	r2, [r3, #40]
 242              		.loc 1 520 0
 243 0066 4FF6FF72 		movw	r2, #65535
 244              	.LVL15:
 245 006a DA62     		str	r2, [r3, #44]
 246              	.LVL16:
 247 006c 0878     		ldrb	r0, [r1]	@ zero_extendqisi2
 248              	.LVL17:
 249 006e 03F13802 		add	r2, r3, #56
 250 0072 03F13401 		add	r1, r3, #52
 251              	.LVL18:
 252              		.loc 1 522 0
 253 0076 65B9     		cbnz	r5, .L17
 254              		.loc 1 526 0
 255 0078 40F20125 		movw	r5, #513
 256 007c 9D61     		str	r5, [r3, #24]
 257              		.loc 1 530 0
 258 007e 5425     		movs	r5, #84
 259 0080 9D60     		str	r5, [r3, #8]
 260              		.loc 1 535 0
 261 0082 08B9     		cbnz	r0, .L18
 262              		.loc 1 536 0
 263 0084 3120     		movs	r0, #49
 264 0086 00E0     		b	.L23
 265              	.L18:
 266              		.loc 1 539 0
 267 0088 1320     		movs	r0, #19
 268              	.L23:
 269 008a 1862     		str	r0, [r3, #32]
 270              	.LVL19:
 271              		.loc 1 544 0
 272 008c 2261     		str	r2, [r4, #16]
 273              		.loc 1 545 0
 274 008e 6161     		str	r1, [r4, #20]
 275 0090 38BD     		pop	{r3, r4, r5, pc}
 276              	.LVL20:
 277              	.L17:
 278              		.loc 1 551 0
 279 0092 4FF48175 		mov	r5, #258
 280 0096 9D61     		str	r5, [r3, #24]
 281              		.loc 1 555 0
 282 0098 6425     		movs	r5, #100
 283 009a 9D60     		str	r5, [r3, #8]
 284              		.loc 1 560 0
 285 009c 08B9     		cbnz	r0, .L21
ARM GAS  /tmp/cc6cIjGY.s 			page 6


 286              		.loc 1 561 0
 287 009e 1320     		movs	r0, #19
 288 00a0 00E0     		b	.L24
 289              	.L21:
 290              		.loc 1 564 0
 291 00a2 3120     		movs	r0, #49
 292              	.L24:
 293 00a4 1862     		str	r0, [r3, #32]
 294              	.LVL21:
 295              		.loc 1 569 0
 296 00a6 2161     		str	r1, [r4, #16]
 297              		.loc 1 570 0
 298 00a8 6261     		str	r2, [r4, #20]
 299 00aa 38BD     		pop	{r3, r4, r5, pc}
 300              	.LVL22:
 301              	.L26:
 302              		.align	2
 303              	.L25:
 304 00ac 00000000 		.word	.LANCHOR0
 305 00b0 00380240 		.word	1073887232
 306 00b4 007A030A 		.word	168000000
 307              		.cfi_endproc
 308              	.LFE281:
 309              		.size	icu_lld_start, .-icu_lld_start
 310              		.section	.text.icu_lld_stop,"ax",%progbits
 311              		.align	1
 312              		.global	icu_lld_stop
 313              		.thumb
 314              		.thumb_func
 315              		.type	icu_lld_stop, %function
 316              	icu_lld_stop:
 317              	.LFB282:
 318              		.loc 1 581 0
 319              		.cfi_startproc
 320              		@ args = 0, pretend = 0, frame = 0
 321              		@ frame_needed = 0, uses_anonymous_args = 0
 322              	.LVL23:
 323 0000 08B5     		push	{r3, lr}
 324              		.cfi_def_cfa_offset 8
 325              		.cfi_offset 3, -8
 326              		.cfi_offset 14, -4
 327              		.loc 1 583 0
 328 0002 0378     		ldrb	r3, [r0]	@ zero_extendqisi2
 329 0004 022B     		cmp	r3, #2
 330 0006 12D1     		bne	.L27
 331              		.loc 1 585 0
 332 0008 C368     		ldr	r3, [r0, #12]
 333 000a 0022     		movs	r2, #0
 334 000c 1A60     		str	r2, [r3]
 335              		.loc 1 586 0
 336 000e DA60     		str	r2, [r3, #12]
 337              		.loc 1 587 0
 338 0010 1A61     		str	r2, [r3, #16]
 339              		.loc 1 636 0
 340 0012 074B     		ldr	r3, .L31
 341 0014 9842     		cmp	r0, r3
 342 0016 0AD1     		bne	.L27
ARM GAS  /tmp/cc6cIjGY.s 			page 7


 343              		.loc 1 638 0
 344 0018 2C20     		movs	r0, #44
 345              	.LVL24:
 346 001a FFF7FEFF 		bl	nvicDisableVector
 347              	.LVL25:
 348              		.loc 1 639 0
 349 001e 2E20     		movs	r0, #46
 350 0020 FFF7FEFF 		bl	nvicDisableVector
 351              	.LVL26:
 352              		.loc 1 641 0
 353 0024 034A     		ldr	r2, .L31+4
 354 0026 536C     		ldr	r3, [r2, #68]
 355 0028 23F00203 		bic	r3, r3, #2
 356 002c 5364     		str	r3, [r2, #68]
 357              	.L27:
 358 002e 08BD     		pop	{r3, pc}
 359              	.L32:
 360              		.align	2
 361              	.L31:
 362 0030 00000000 		.word	.LANCHOR0
 363 0034 00380240 		.word	1073887232
 364              		.cfi_endproc
 365              	.LFE282:
 366              		.size	icu_lld_stop, .-icu_lld_stop
 367              		.section	.text.icu_lld_start_capture,"ax",%progbits
 368              		.align	1
 369              		.global	icu_lld_start_capture
 370              		.thumb
 371              		.thumb_func
 372              		.type	icu_lld_start_capture, %function
 373              	icu_lld_start_capture:
 374              	.LFB283:
 375              		.loc 1 663 0
 376              		.cfi_startproc
 377              		@ args = 0, pretend = 0, frame = 0
 378              		@ frame_needed = 0, uses_anonymous_args = 0
 379              		@ link register save eliminated.
 380              	.LVL27:
 381              		.loc 1 666 0
 382 0000 C368     		ldr	r3, [r0, #12]
 383 0002 5A69     		ldr	r2, [r3, #20]
 384 0004 42F00102 		orr	r2, r2, #1
 385 0008 5A61     		str	r2, [r3, #20]
 386              		.loc 1 667 0
 387 000a 0022     		movs	r2, #0
 388 000c 1A61     		str	r2, [r3, #16]
 389              		.loc 1 670 0
 390 000e 0522     		movs	r2, #5
 391 0010 1A60     		str	r2, [r3]
 392 0012 7047     		bx	lr
 393              		.cfi_endproc
 394              	.LFE283:
 395              		.size	icu_lld_start_capture, .-icu_lld_start_capture
 396              		.section	.text.icu_lld_wait_capture,"ax",%progbits
 397              		.align	1
 398              		.global	icu_lld_wait_capture
 399              		.thumb
ARM GAS  /tmp/cc6cIjGY.s 			page 8


 400              		.thumb_func
 401              		.type	icu_lld_wait_capture, %function
 402              	icu_lld_wait_capture:
 403              	.LFB284:
 404              		.loc 1 685 0
 405              		.cfi_startproc
 406              		@ args = 0, pretend = 0, frame = 0
 407              		@ frame_needed = 0, uses_anonymous_args = 0
 408              	.LVL28:
 409              		.loc 1 689 0
 410 0000 0378     		ldrb	r3, [r0]	@ zero_extendqisi2
 411 0002 032B     		cmp	r3, #3
 412              		.loc 1 685 0
 413 0004 10B5     		push	{r4, lr}
 414              		.cfi_def_cfa_offset 8
 415              		.cfi_offset 4, -8
 416              		.cfi_offset 14, -4
 417              		.loc 1 685 0
 418 0006 0446     		mov	r4, r0
 419              		.loc 1 689 0
 420 0008 04D0     		beq	.L35
 421              	.LVL29:
 422              	.L36:
 423              		.loc 1 694 0
 424 000a 2046     		mov	r0, r4
 425              		.loc 1 695 0
 426 000c BDE81040 		pop	{r4, lr}
 427              		.cfi_remember_state
 428              		.cfi_restore 14
 429              		.cfi_restore 4
 430              		.cfi_def_cfa_offset 0
 431              	.LVL30:
 432              		.loc 1 694 0
 433 0010 FFF7FEBF 		b	icu_lld_wait_edge
 434              	.LVL31:
 435              	.L35:
 436              		.cfi_restore_state
 437              		.loc 1 690 0
 438 0014 FFF7FEFF 		bl	icu_lld_wait_edge
 439              	.LVL32:
 440 0018 0028     		cmp	r0, #0
 441 001a F6D0     		beq	.L36
 442              		.loc 1 695 0
 443 001c 10BD     		pop	{r4, pc}
 444              		.cfi_endproc
 445              	.LFE284:
 446              		.size	icu_lld_wait_capture, .-icu_lld_wait_capture
 447              		.section	.text.icu_lld_stop_capture,"ax",%progbits
 448              		.align	1
 449              		.global	icu_lld_stop_capture
 450              		.thumb
 451              		.thumb_func
 452              		.type	icu_lld_stop_capture, %function
 453              	icu_lld_stop_capture:
 454              	.LFB285:
 455              		.loc 1 704 0
 456              		.cfi_startproc
ARM GAS  /tmp/cc6cIjGY.s 			page 9


 457              		@ args = 0, pretend = 0, frame = 0
 458              		@ frame_needed = 0, uses_anonymous_args = 0
 459              		@ link register save eliminated.
 460              	.LVL33:
 461              		.loc 1 707 0
 462 0000 C368     		ldr	r3, [r0, #12]
 463 0002 0022     		movs	r2, #0
 464 0004 1A60     		str	r2, [r3]
 465              		.loc 1 710 0
 466 0006 DA68     		ldr	r2, [r3, #12]
 467 0008 22F0FF02 		bic	r2, r2, #255
 468 000c DA60     		str	r2, [r3, #12]
 469 000e 7047     		bx	lr
 470              		.cfi_endproc
 471              	.LFE285:
 472              		.size	icu_lld_stop_capture, .-icu_lld_stop_capture
 473              		.section	.text.icu_lld_enable_notifications,"ax",%progbits
 474              		.align	1
 475              		.global	icu_lld_enable_notifications
 476              		.thumb
 477              		.thumb_func
 478              		.type	icu_lld_enable_notifications, %function
 479              	icu_lld_enable_notifications:
 480              	.LFB286:
 481              		.loc 1 722 0
 482              		.cfi_startproc
 483              		@ args = 0, pretend = 0, frame = 0
 484              		@ frame_needed = 0, uses_anonymous_args = 0
 485              	.LVL34:
 486              		.loc 1 723 0
 487 0000 C268     		ldr	r2, [r0, #12]
 488 0002 D368     		ldr	r3, [r2, #12]
 489              	.LVL35:
 490              		.loc 1 728 0
 491 0004 13F0FF01 		ands	r1, r3, #255
 492              		.loc 1 722 0
 493 0008 10B5     		push	{r4, lr}
 494              		.cfi_def_cfa_offset 8
 495              		.cfi_offset 4, -8
 496              		.cfi_offset 14, -4
 497              		.loc 1 728 0
 498 000a 13D1     		bne	.L41
 499              		.loc 1 730 0
 500 000c 1161     		str	r1, [r2, #16]
 501              		.loc 1 732 0
 502 000e 4168     		ldr	r1, [r0, #4]
 503 0010 0C7D     		ldrb	r4, [r1, #20]	@ zero_extendqisi2
 504 0012 8868     		ldr	r0, [r1, #8]
 505              	.LVL36:
 506 0014 1CB9     		cbnz	r4, .L43
 507              	.LVL37:
 508              		.loc 1 737 0
 509 0016 30B9     		cbnz	r0, .L46
 510              		.loc 1 734 0
 511 0018 43F00203 		orr	r3, r3, #2
 512              	.LVL38:
 513 001c 05E0     		b	.L45
ARM GAS  /tmp/cc6cIjGY.s 			page 10


 514              	.L43:
 515              	.LVL39:
 516              		.loc 1 745 0
 517 001e 10B9     		cbnz	r0, .L46
 518              		.loc 1 742 0
 519 0020 43F00403 		orr	r3, r3, #4
 520              	.LVL40:
 521 0024 01E0     		b	.L45
 522              	.LVL41:
 523              	.L46:
 524              		.loc 1 746 0
 525 0026 43F00603 		orr	r3, r3, #6
 526              	.LVL42:
 527              	.L45:
 528              		.loc 1 751 0
 529 002a 0969     		ldr	r1, [r1, #16]
 530 002c 09B1     		cbz	r1, .L47
 531              		.loc 1 752 0
 532 002e 43F00103 		orr	r3, r3, #1
 533              	.LVL43:
 534              	.L47:
 535              		.loc 1 755 0
 536 0032 D360     		str	r3, [r2, #12]
 537              	.L41:
 538 0034 10BD     		pop	{r4, pc}
 539              		.cfi_endproc
 540              	.LFE286:
 541              		.size	icu_lld_enable_notifications, .-icu_lld_enable_notifications
 542              		.section	.text.icu_lld_disable_notifications,"ax",%progbits
 543              		.align	1
 544              		.global	icu_lld_disable_notifications
 545              		.thumb
 546              		.thumb_func
 547              		.type	icu_lld_disable_notifications, %function
 548              	icu_lld_disable_notifications:
 549              	.LFB287:
 550              		.loc 1 768 0
 551              		.cfi_startproc
 552              		@ args = 0, pretend = 0, frame = 0
 553              		@ frame_needed = 0, uses_anonymous_args = 0
 554              		@ link register save eliminated.
 555              	.LVL44:
 556              		.loc 1 771 0
 557 0000 C268     		ldr	r2, [r0, #12]
 558 0002 D368     		ldr	r3, [r2, #12]
 559 0004 23F0FF03 		bic	r3, r3, #255
 560 0008 D360     		str	r3, [r2, #12]
 561 000a 7047     		bx	lr
 562              		.cfi_endproc
 563              	.LFE287:
 564              		.size	icu_lld_disable_notifications, .-icu_lld_disable_notifications
 565              		.section	.text.icu_lld_serve_interrupt,"ax",%progbits
 566              		.align	1
 567              		.global	icu_lld_serve_interrupt
 568              		.thumb
 569              		.thumb_func
 570              		.type	icu_lld_serve_interrupt, %function
ARM GAS  /tmp/cc6cIjGY.s 			page 11


 571              	icu_lld_serve_interrupt:
 572              	.LFB288:
 573              		.loc 1 781 0
 574              		.cfi_startproc
 575              		@ args = 0, pretend = 0, frame = 0
 576              		@ frame_needed = 0, uses_anonymous_args = 0
 577              	.LVL45:
 578 0000 F8B5     		push	{r3, r4, r5, r6, r7, lr}
 579              		.cfi_def_cfa_offset 24
 580              		.cfi_offset 3, -24
 581              		.cfi_offset 4, -20
 582              		.cfi_offset 5, -16
 583              		.cfi_offset 6, -12
 584              		.cfi_offset 7, -8
 585              		.cfi_offset 14, -4
 586              		.loc 1 784 0
 587 0002 C368     		ldr	r3, [r0, #12]
 588 0004 1A69     		ldr	r2, [r3, #16]
 589              	.LVL46:
 590              		.loc 1 785 0
 591 0006 DD68     		ldr	r5, [r3, #12]
 592 0008 1540     		ands	r5, r5, r2
 593              	.LVL47:
 594 000a EAB2     		uxtb	r2, r5
 595              		.loc 1 786 0
 596 000c D243     		mvns	r2, r2
 597 000e 1A61     		str	r2, [r3, #16]
 598              		.loc 1 787 0
 599 0010 4368     		ldr	r3, [r0, #4]
 600 0012 1A7D     		ldrb	r2, [r3, #20]	@ zero_extendqisi2
 601              		.loc 1 781 0
 602 0014 0446     		mov	r4, r0
 603 0016 05F00406 		and	r6, r5, #4
 604 001a 05F00207 		and	r7, r5, #2
 605              		.loc 1 787 0
 606 001e 92B9     		cbnz	r2, .L53
 607              		.loc 1 788 0
 608 0020 2EB1     		cbz	r6, .L54
 609              		.loc 1 789 0
 610 0022 0278     		ldrb	r2, [r0]	@ zero_extendqisi2
 611 0024 042A     		cmp	r2, #4
 612 0026 02D1     		bne	.L54
 613              		.loc 1 789 0 is_stmt 0 discriminator 1
 614 0028 9B68     		ldr	r3, [r3, #8]
 615 002a 03B1     		cbz	r3, .L54
 616              		.loc 1 789 0 discriminator 2
 617 002c 9847     		blx	r3
 618              	.LVL48:
 619              	.L54:
 620              		.loc 1 790 0 is_stmt 1
 621 002e 9FB1     		cbz	r7, .L56
 622              	.L91:
 623              		.loc 1 791 0
 624 0030 2378     		ldrb	r3, [r4]	@ zero_extendqisi2
 625 0032 042B     		cmp	r3, #4
 626 0034 04D1     		bne	.L58
 627              		.loc 1 791 0 is_stmt 0 discriminator 1
ARM GAS  /tmp/cc6cIjGY.s 			page 12


 628 0036 6368     		ldr	r3, [r4, #4]
 629 0038 DB68     		ldr	r3, [r3, #12]
 630 003a 0BB1     		cbz	r3, .L58
 631              		.loc 1 791 0 discriminator 3
 632 003c 2046     		mov	r0, r4
 633 003e 9847     		blx	r3
 634              	.LVL49:
 635              	.L58:
 636              		.loc 1 791 0 discriminator 5
 637 0040 0423     		movs	r3, #4
 638 0042 2370     		strb	r3, [r4]
 639 0044 08E0     		b	.L56
 640              	.LVL50:
 641              	.L53:
 642              		.loc 1 794 0 is_stmt 1
 643 0046 2FB1     		cbz	r7, .L60
 644              		.loc 1 795 0
 645 0048 0278     		ldrb	r2, [r0]	@ zero_extendqisi2
 646 004a 042A     		cmp	r2, #4
 647 004c 02D1     		bne	.L60
 648              		.loc 1 795 0 is_stmt 0 discriminator 1
 649 004e 9B68     		ldr	r3, [r3, #8]
 650 0050 03B1     		cbz	r3, .L60
 651              		.loc 1 795 0 discriminator 2
 652 0052 9847     		blx	r3
 653              	.LVL51:
 654              	.L60:
 655              		.loc 1 796 0 is_stmt 1
 656 0054 002E     		cmp	r6, #0
 657 0056 EBD1     		bne	.L91
 658              	.L56:
 659              		.loc 1 799 0
 660 0058 EB07     		lsls	r3, r5, #31
 661 005a 05D5     		bpl	.L52
 662              		.loc 1 800 0
 663 005c 6368     		ldr	r3, [r4, #4]
 664 005e 2046     		mov	r0, r4
 665 0060 1B69     		ldr	r3, [r3, #16]
 666 0062 9847     		blx	r3
 667              	.LVL52:
 668 0064 0323     		movs	r3, #3
 669 0066 2370     		strb	r3, [r4]
 670              	.L52:
 671 0068 F8BD     		pop	{r3, r4, r5, r6, r7, pc}
 672              		.cfi_endproc
 673              	.LFE288:
 674              		.size	icu_lld_serve_interrupt, .-icu_lld_serve_interrupt
 675              		.section	.text.VectorF0,"ax",%progbits
 676              		.align	1
 677              		.global	VectorF0
 678              		.thumb
 679              		.thumb_func
 680              		.type	VectorF0, %function
 681              	VectorF0:
 682              	.LFB278:
 683              		.loc 1 277 0
 684              		.cfi_startproc
ARM GAS  /tmp/cc6cIjGY.s 			page 13


 685              		@ args = 0, pretend = 0, frame = 0
 686              		@ frame_needed = 0, uses_anonymous_args = 0
 687 0000 08B5     		push	{r3, lr}
 688              		.cfi_def_cfa_offset 8
 689              		.cfi_offset 3, -8
 690              		.cfi_offset 14, -4
 691              		.loc 1 279 0
 692 0002 FFF7FEFF 		bl	_stats_increase_irq
 693              	.LVL53:
 694              		.loc 1 281 0
 695 0006 0348     		ldr	r0, .L93
 696 0008 FFF7FEFF 		bl	icu_lld_serve_interrupt
 697              	.LVL54:
 698              		.loc 1 284 0
 699 000c BDE80840 		pop	{r3, lr}
 700              		.cfi_restore 14
 701              		.cfi_restore 3
 702              		.cfi_def_cfa_offset 0
 703              		.loc 1 283 0
 704 0010 FFF7FEBF 		b	_port_irq_epilogue
 705              	.LVL55:
 706              	.L94:
 707              		.align	2
 708              	.L93:
 709 0014 00000000 		.word	.LANCHOR0
 710              		.cfi_endproc
 711              	.LFE278:
 712              		.size	VectorF0, .-VectorF0
 713              		.section	.text.VectorF8,"ax",%progbits
 714              		.align	1
 715              		.global	VectorF8
 716              		.thumb
 717              		.thumb_func
 718              		.type	VectorF8, %function
 719              	VectorF8:
 720              	.LFB279:
 721              		.loc 1 294 0
 722              		.cfi_startproc
 723              		@ args = 0, pretend = 0, frame = 0
 724              		@ frame_needed = 0, uses_anonymous_args = 0
 725 0000 08B5     		push	{r3, lr}
 726              		.cfi_def_cfa_offset 8
 727              		.cfi_offset 3, -8
 728              		.cfi_offset 14, -4
 729              		.loc 1 296 0
 730 0002 FFF7FEFF 		bl	_stats_increase_irq
 731              	.LVL56:
 732              		.loc 1 298 0
 733 0006 0348     		ldr	r0, .L96
 734 0008 FFF7FEFF 		bl	icu_lld_serve_interrupt
 735              	.LVL57:
 736              		.loc 1 301 0
 737 000c BDE80840 		pop	{r3, lr}
 738              		.cfi_restore 14
 739              		.cfi_restore 3
 740              		.cfi_def_cfa_offset 0
 741              		.loc 1 300 0
ARM GAS  /tmp/cc6cIjGY.s 			page 14


 742 0010 FFF7FEBF 		b	_port_irq_epilogue
 743              	.LVL58:
 744              	.L97:
 745              		.align	2
 746              	.L96:
 747 0014 00000000 		.word	.LANCHOR0
 748              		.cfi_endproc
 749              	.LFE279:
 750              		.size	VectorF8, .-VectorF8
 751              		.global	ICUD8
 752              		.section	.bss.ICUD8,"aw",%nobits
 753              		.align	2
 754              		.set	.LANCHOR0,. + 0
 755              		.type	ICUD8, %object
 756              		.size	ICUD8, 24
 757              	ICUD8:
 758 0000 00000000 		.space	24
 758      00000000 
 758      00000000 
 758      00000000 
 758      00000000 
 759              		.text
 760              	.Letext0:
 761              		.file 4 "/usr/lib/gcc/arm-none-eabi/4.9.3/include/stddef.h"
 762              		.file 5 "/usr/include/newlib/machine/_default_types.h"
 763              		.file 6 "/usr/include/newlib/sys/_stdint.h"
 764              		.file 7 "../../modules/ChibiOS/os/common/ports/ARMCMx/compilers/GCC/chtypes.h"
 765              		.file 8 "../../modules/ChibiOS/os/rt/include/chsystypes.h"
 766              		.file 9 "../../modules/ChibiOS/os/rt/include/chschd.h"
 767              		.file 10 "../../modules/ChibiOS/os/common/ext/CMSIS/ST/STM32F4xx/stm32f407xx.h"
 768              		.file 11 "../../modules/ChibiOS/os/common/ports/ARMCMx/chcore.h"
 769              		.file 12 "../../modules/ChibiOS/os/common/ports/ARMCMx/chcore_v7m.h"
 770              		.file 13 "../../modules/ChibiOS/os/hal/ports/STM32/LLD/TIMv1/stm32_tim.h"
 771              		.file 14 "../../modules/ChibiOS/os/rt/include/chtm.h"
 772              		.file 15 "../../modules/ChibiOS/os/rt/include/chstats.h"
 773              		.file 16 "../../modules/ChibiOS/os/rt/include/chsem.h"
 774              		.file 17 "../../modules/ChibiOS/os/rt/include/chmtx.h"
 775              		.file 18 "../../modules/ChibiOS/os/hal/include/hal_icu.h"
 776              		.file 19 "../../modules/ChibiOS/os/hal/ports/STM32/LLD/TIMv1/hal_icu_lld.h"
 777              		.file 20 "../../modules/ChibiOS/os/hal/osal/rt/osal.h"
 778              		.file 21 "../../modules/ChibiOS/os/common/ext/CMSIS/include/core_cm4.h"
 779              		.file 22 "../../modules/ChibiOS/os/hal/ports/common/ARMCMx/nvic.h"