ARM GAS  /tmp/ccd673kL.s 			page 1


   1              		.syntax unified
   2              		.cpu cortex-m4
   3              		.eabi_attribute 27, 1
   4              		.eabi_attribute 28, 1
   5              		.fpu fpv4-sp-d16
   6              		.eabi_attribute 20, 1
   7              		.eabi_attribute 21, 1
   8              		.eabi_attribute 23, 3
   9              		.eabi_attribute 24, 1
  10              		.eabi_attribute 25, 1
  11              		.eabi_attribute 26, 1
  12              		.eabi_attribute 30, 4
  13              		.eabi_attribute 34, 1
  14              		.eabi_attribute 18, 4
  15              		.thumb
  16              		.file	"hal_mmc_spi.c"
  17              		.text
  18              	.Ltext0:
  19              		.cfi_sections	.debug_frame
  20              		.section	.text.mmcGetInfo,"ax",%progbits
  21              		.align	1
  22              		.global	mmcGetInfo
  23              		.thumb
  24              		.thumb_func
  25              		.type	mmcGetInfo, %function
  26              	mmcGetInfo:
  27              	.LFB302:
  28              		.file 1 "../../modules/ChibiOS/os/hal/src/hal_mmc_spi.c"
  29              		.loc 1 884 0
  30              		.cfi_startproc
  31              		@ args = 0, pretend = 0, frame = 0
  32              		@ frame_needed = 0, uses_anonymous_args = 0
  33              		@ link register save eliminated.
  34              	.LVL0:
  35              		.loc 1 888 0
  36 0000 0379     		ldrb	r3, [r0, #4]	@ zero_extendqisi2
  37 0002 052B     		cmp	r3, #5
  38              		.loc 1 892 0
  39 0004 01BF     		itttt	eq
  40 0006 836A     		ldreq	r3, [r0, #40]
  41 0008 4B60     		streq	r3, [r1, #4]
  42              		.loc 1 893 0
  43 000a 4FF40073 		moveq	r3, #512
  44              		.loc 1 895 0
  45 000e 0020     		moveq	r0, #0
  46              	.LVL1:
  47              		.loc 1 893 0
  48 0010 0CBF     		ite	eq
  49 0012 0B60     		streq	r3, [r1]
  50              		.loc 1 889 0
  51 0014 0120     		movne	r0, #1
  52              		.loc 1 896 0
  53 0016 7047     		bx	lr
  54              		.cfi_endproc
  55              	.LFE302:
  56              		.size	mmcGetInfo, .-mmcGetInfo
  57              		.section	.text.recvr1.isra.0,"ax",%progbits
ARM GAS  /tmp/ccd673kL.s 			page 2


  58              		.align	1
  59              		.thumb
  60              		.thumb_func
  61              		.type	recvr1.isra.0, %function
  62              	recvr1.isra.0:
  63              	.LFB304:
  64              		.loc 1 266 0
  65              		.cfi_startproc
  66              		@ args = 0, pretend = 0, frame = 8
  67              		@ frame_needed = 0, uses_anonymous_args = 0
  68              	.LVL2:
  69 0000 37B5     		push	{r0, r1, r2, r4, r5, lr}
  70              		.cfi_def_cfa_offset 24
  71              		.cfi_offset 4, -12
  72              		.cfi_offset 5, -8
  73              		.cfi_offset 14, -4
  74              		.loc 1 266 0
  75 0002 0546     		mov	r5, r0
  76 0004 0924     		movs	r4, #9
  77              	.LVL3:
  78              	.L6:
  79              		.loc 1 271 0
  80 0006 2B68     		ldr	r3, [r5]
  81 0008 0121     		movs	r1, #1
  82 000a 1868     		ldr	r0, [r3]
  83 000c 01AA     		add	r2, sp, #4
  84 000e FFF7FEFF 		bl	spiReceiveHook
  85              	.LVL4:
  86              		.loc 1 272 0
  87 0012 9DF80400 		ldrb	r0, [sp, #4]	@ zero_extendqisi2
  88 0016 FF28     		cmp	r0, #255
  89 0018 01D1     		bne	.L5
  90              	.LVL5:
  91              		.loc 1 270 0
  92 001a 013C     		subs	r4, r4, #1
  93              	.LVL6:
  94 001c F3D1     		bne	.L6
  95              	.LVL7:
  96              	.L5:
  97              		.loc 1 277 0
  98 001e 03B0     		add	sp, sp, #12
  99              		.cfi_def_cfa_offset 12
 100              		@ sp needed
 101 0020 30BD     		pop	{r4, r5, pc}
 102              		.cfi_endproc
 103              	.LFE304:
 104              		.size	recvr1.isra.0, .-recvr1.isra.0
 105              		.section	.text.wait.isra.1,"ax",%progbits
 106              		.align	1
 107              		.thumb
 108              		.thumb_func
 109              		.type	wait.isra.1, %function
 110              	wait.isra.1:
 111              	.LFB305:
 112              		.loc 1 178 0
 113              		.cfi_startproc
 114              		@ args = 0, pretend = 0, frame = 8
ARM GAS  /tmp/ccd673kL.s 			page 3


 115              		@ frame_needed = 0, uses_anonymous_args = 0
 116              	.LVL8:
 117 0000 37B5     		push	{r0, r1, r2, r4, r5, lr}
 118              		.cfi_def_cfa_offset 24
 119              		.cfi_offset 4, -12
 120              		.cfi_offset 5, -8
 121              		.cfi_offset 14, -4
 122              		.loc 1 178 0
 123 0002 0546     		mov	r5, r0
 124 0004 1024     		movs	r4, #16
 125              	.LVL9:
 126              	.L11:
 127              		.loc 1 183 0
 128 0006 2B68     		ldr	r3, [r5]
 129 0008 0121     		movs	r1, #1
 130 000a 1868     		ldr	r0, [r3]
 131 000c 01AA     		add	r2, sp, #4
 132 000e FFF7FEFF 		bl	spiReceiveHook
 133              	.LVL10:
 134              		.loc 1 184 0
 135 0012 9DF80430 		ldrb	r3, [sp, #4]	@ zero_extendqisi2
 136 0016 FF2B     		cmp	r3, #255
 137 0018 13D0     		beq	.L9
 138              	.LVL11:
 139              		.loc 1 182 0
 140 001a 013C     		subs	r4, r4, #1
 141              	.LVL12:
 142 001c F3D1     		bne	.L11
 143 001e 4FF47A74 		mov	r4, #1000
 144              	.LVL13:
 145              	.L14:
 146              		.loc 1 190 0
 147 0022 2B68     		ldr	r3, [r5]
 148 0024 0121     		movs	r1, #1
 149 0026 1868     		ldr	r0, [r3]
 150 0028 01AA     		add	r2, sp, #4
 151 002a FFF7FEFF 		bl	spiReceiveHook
 152              	.LVL14:
 153              		.loc 1 191 0
 154 002e 9DF80430 		ldrb	r3, [sp, #4]	@ zero_extendqisi2
 155 0032 FF2B     		cmp	r3, #255
 156 0034 05D0     		beq	.L9
 157              	.LVL15:
 158              	.LBB36:
 159              	.LBB37:
 160              		.file 2 "../../modules/ChibiOS/os/hal/osal/rt/osal.h"
 161              		.loc 2 673 0
 162 0036 4FF47A70 		mov	r0, #1000
 163 003a FFF7FEFF 		bl	chThdSleep
 164              	.LVL16:
 165              	.LBE37:
 166              	.LBE36:
 167              		.loc 1 189 0
 168 003e 013C     		subs	r4, r4, #1
 169              	.LVL17:
 170 0040 EFD1     		bne	.L14
 171              	.LVL18:
ARM GAS  /tmp/ccd673kL.s 			page 4


 172              	.L9:
 173              		.loc 1 197 0
 174 0042 03B0     		add	sp, sp, #12
 175              		.cfi_def_cfa_offset 12
 176              		@ sp needed
 177 0044 30BD     		pop	{r4, r5, pc}
 178              		.cfi_endproc
 179              	.LFE305:
 180              		.size	wait.isra.1, .-wait.isra.1
 181              		.section	.text.sync,"ax",%progbits
 182              		.align	1
 183              		.thumb
 184              		.thumb_func
 185              		.type	sync, %function
 186              	sync:
 187              	.LFB288:
 188              		.loc 1 396 0
 189              		.cfi_startproc
 190              		@ args = 0, pretend = 0, frame = 0
 191              		@ frame_needed = 0, uses_anonymous_args = 0
 192              	.LVL19:
 193 0000 38B5     		push	{r3, r4, r5, lr}
 194              		.cfi_def_cfa_offset 16
 195              		.cfi_offset 3, -16
 196              		.cfi_offset 4, -12
 197              		.cfi_offset 5, -8
 198              		.cfi_offset 14, -4
 199              		.loc 1 397 0
 200 0002 0446     		mov	r4, r0
 201              		.loc 1 396 0
 202 0004 0546     		mov	r5, r0
 203              		.loc 1 397 0
 204 0006 54F82C3F 		ldr	r3, [r4, #44]!
 205 000a 1868     		ldr	r0, [r3]
 206              	.LVL20:
 207 000c FFF7FEFF 		bl	spiSelectHook
 208              	.LVL21:
 209              		.loc 1 398 0
 210 0010 2046     		mov	r0, r4
 211 0012 FFF7FEFF 		bl	wait.isra.1
 212              	.LVL22:
 213              		.loc 1 399 0
 214 0016 EB6A     		ldr	r3, [r5, #44]
 215 0018 1868     		ldr	r0, [r3]
 216              		.loc 1 400 0
 217 001a BDE83840 		pop	{r3, r4, r5, lr}
 218              		.cfi_restore 14
 219              		.cfi_restore 5
 220              		.cfi_restore 4
 221              		.cfi_restore 3
 222              		.cfi_def_cfa_offset 0
 223              	.LVL23:
 224              		.loc 1 399 0
 225 001e FFF7FEBF 		b	spiUnselectHook
 226              	.LVL24:
 227              		.cfi_endproc
 228              	.LFE288:
ARM GAS  /tmp/ccd673kL.s 			page 5


 229              		.size	sync, .-sync
 230              		.section	.text.mmcSync,"ax",%progbits
 231              		.align	1
 232              		.global	mmcSync
 233              		.thumb
 234              		.thumb_func
 235              		.type	mmcSync, %function
 236              	mmcSync:
 237              	.LFB301:
 238              		.loc 1 853 0
 239              		.cfi_startproc
 240              		@ args = 0, pretend = 0, frame = 0
 241              		@ frame_needed = 0, uses_anonymous_args = 0
 242              	.LVL25:
 243 0000 38B5     		push	{r3, r4, r5, lr}
 244              		.cfi_def_cfa_offset 16
 245              		.cfi_offset 3, -16
 246              		.cfi_offset 4, -12
 247              		.cfi_offset 5, -8
 248              		.cfi_offset 14, -4
 249              		.loc 1 857 0
 250 0002 0579     		ldrb	r5, [r0, #4]	@ zero_extendqisi2
 251 0004 052D     		cmp	r5, #5
 252              		.loc 1 853 0
 253 0006 0446     		mov	r4, r0
 254              		.loc 1 857 0
 255 0008 0CD1     		bne	.L24
 256              	.LVL26:
 257              	.LBB40:
 258              	.LBB41:
 259              		.loc 1 862 0
 260 000a 0823     		movs	r3, #8
 261 000c 0371     		strb	r3, [r0, #4]
 262              		.loc 1 864 0
 263 000e C36A     		ldr	r3, [r0, #44]
 264 0010 1868     		ldr	r0, [r3]
 265              	.LVL27:
 266 0012 9968     		ldr	r1, [r3, #8]
 267 0014 FFF7FEFF 		bl	spiStartHook
 268              	.LVL28:
 269              		.loc 1 865 0
 270 0018 2046     		mov	r0, r4
 271 001a FFF7FEFF 		bl	sync
 272              	.LVL29:
 273              		.loc 1 868 0
 274 001e 2571     		strb	r5, [r4, #4]
 275 0020 0020     		movs	r0, #0
 276 0022 38BD     		pop	{r3, r4, r5, pc}
 277              	.LVL30:
 278              	.L24:
 279              	.LBE41:
 280              	.LBE40:
 281              		.loc 1 858 0
 282 0024 0120     		movs	r0, #1
 283              	.LVL31:
 284              		.loc 1 870 0
 285 0026 38BD     		pop	{r3, r4, r5, pc}
ARM GAS  /tmp/ccd673kL.s 			page 6


 286              		.cfi_endproc
 287              	.LFE301:
 288              		.size	mmcSync, .-mmcSync
 289              		.section	.text.wait_nonidle.isra.3,"ax",%progbits
 290              		.align	1
 291              		.thumb
 292              		.thumb_func
 293              		.type	wait_nonidle.isra.3, %function
 294              	wait_nonidle.isra.3:
 295              	.LFB307:
 296              		.loc 1 207 0
 297              		.cfi_startproc
 298              		@ args = 0, pretend = 0, frame = 8
 299              		@ frame_needed = 0, uses_anonymous_args = 0
 300              	.LVL32:
 301 0000 73B5     		push	{r0, r1, r4, r5, r6, lr}
 302              		.cfi_def_cfa_offset 24
 303              		.cfi_offset 4, -16
 304              		.cfi_offset 5, -12
 305              		.cfi_offset 6, -8
 306              		.cfi_offset 14, -4
 307              		.loc 1 207 0
 308 0002 0646     		mov	r6, r0
 309 0004 1025     		movs	r5, #16
 310              	.LVL33:
 311              	.L27:
 312              		.loc 1 212 0
 313 0006 3368     		ldr	r3, [r6]
 314 0008 0121     		movs	r1, #1
 315 000a 1868     		ldr	r0, [r3]
 316 000c 01AA     		add	r2, sp, #4
 317 000e FFF7FEFF 		bl	spiReceiveHook
 318              	.LVL34:
 319              		.loc 1 213 0
 320 0012 9DF80440 		ldrb	r4, [sp, #4]	@ zero_extendqisi2
 321 0016 FF2C     		cmp	r4, #255
 322 0018 13D1     		bne	.L26
 323              	.LVL35:
 324              		.loc 1 211 0
 325 001a 013D     		subs	r5, r5, #1
 326              	.LVL36:
 327 001c F3D1     		bne	.L27
 328 001e 4FF47A75 		mov	r5, #1000
 329              	.LVL37:
 330              	.L28:
 331              		.loc 1 219 0
 332 0022 3368     		ldr	r3, [r6]
 333 0024 0121     		movs	r1, #1
 334 0026 1868     		ldr	r0, [r3]
 335 0028 01AA     		add	r2, sp, #4
 336 002a FFF7FEFF 		bl	spiReceiveHook
 337              	.LVL38:
 338              		.loc 1 220 0
 339 002e 9DF80440 		ldrb	r4, [sp, #4]	@ zero_extendqisi2
 340 0032 FF2C     		cmp	r4, #255
 341 0034 05D1     		bne	.L26
 342              	.LVL39:
ARM GAS  /tmp/ccd673kL.s 			page 7


 343              	.LBB42:
 344              	.LBB43:
 345              		.loc 2 673 0
 346 0036 4FF47A70 		mov	r0, #1000
 347 003a FFF7FEFF 		bl	chThdSleep
 348              	.LVL40:
 349              	.LBE43:
 350              	.LBE42:
 351              		.loc 1 218 0
 352 003e 013D     		subs	r5, r5, #1
 353              	.LVL41:
 354 0040 EFD1     		bne	.L28
 355              	.LVL42:
 356              	.L26:
 357              		.loc 1 227 0
 358 0042 2046     		mov	r0, r4
 359 0044 02B0     		add	sp, sp, #8
 360              		.cfi_def_cfa_offset 16
 361              		@ sp needed
 362 0046 70BD     		pop	{r4, r5, r6, pc}
 363              		.cfi_endproc
 364              	.LFE307:
 365              		.size	wait_nonidle.isra.3, .-wait_nonidle.isra.3
 366              		.section	.text.send_hdr,"ax",%progbits
 367              		.align	1
 368              		.thumb
 369              		.thumb_func
 370              		.type	send_hdr, %function
 371              	send_hdr:
 372              	.LFB282:
 373              		.loc 1 238 0
 374              		.cfi_startproc
 375              		@ args = 0, pretend = 0, frame = 8
 376              		@ frame_needed = 0, uses_anonymous_args = 0
 377              	.LVL43:
 378 0000 73B5     		push	{r0, r1, r4, r5, r6, lr}
 379              		.cfi_def_cfa_offset 24
 380              		.cfi_offset 4, -16
 381              		.cfi_offset 5, -12
 382              		.cfi_offset 6, -8
 383              		.cfi_offset 14, -4
 384              		.loc 1 238 0
 385 0002 0646     		mov	r6, r0
 386 0004 1446     		mov	r4, r2
 387              		.loc 1 242 0
 388 0006 0D46     		mov	r5, r1
 389 0008 11B1     		cbz	r1, .L32
 390              		.loc 1 243 0
 391 000a 2C30     		adds	r0, r0, #44
 392              	.LVL44:
 393 000c FFF7FEFF 		bl	wait.isra.1
 394              	.LVL45:
 395              	.L32:
 396              		.loc 1 247 0
 397 0010 230E     		lsrs	r3, r4, #24
 398 0012 8DF80130 		strb	r3, [sp, #1]
 399              		.loc 1 248 0
ARM GAS  /tmp/ccd673kL.s 			page 8


 400 0016 230C     		lsrs	r3, r4, #16
 401              		.loc 1 246 0
 402 0018 45F04005 		orr	r5, r5, #64
 403              		.loc 1 248 0
 404 001c 8DF80230 		strb	r3, [sp, #2]
 405              		.loc 1 250 0
 406 0020 0022     		movs	r2, #0
 407              		.loc 1 249 0
 408 0022 230A     		lsrs	r3, r4, #8
 409 0024 8DF80330 		strb	r3, [sp, #3]
 410              		.loc 1 246 0
 411 0028 8DF80050 		strb	r5, [sp]
 412              		.loc 1 250 0
 413 002c 8DF80440 		strb	r4, [sp, #4]
 414              	.LVL46:
 415 0030 1346     		mov	r3, r2
 416              	.LVL47:
 417              	.L33:
 418              	.LBB46:
 419              	.LBB47:
 420              		.loc 1 165 0
 421 0032 1DF80210 		ldrb	r1, [sp, r2]	@ zero_extendqisi2
 422 0036 0132     		adds	r2, r2, #1
 423              	.LVL48:
 424 0038 81EA4303 		eor	r3, r1, r3, lsl #1
 425              	.LVL49:
 426 003c 0849     		ldr	r1, .L38
 427              		.loc 1 164 0
 428 003e 052A     		cmp	r2, #5
 429              		.loc 1 165 0
 430 0040 CB5C     		ldrb	r3, [r1, r3]	@ zero_extendqisi2
 431              	.LVL50:
 432              		.loc 1 164 0
 433 0042 F6D1     		bne	.L33
 434              	.LBE47:
 435              	.LBE46:
 436              		.loc 1 252 0
 437 0044 5B00     		lsls	r3, r3, #1
 438              	.LVL51:
 439 0046 43F00103 		orr	r3, r3, #1
 440 004a 8DF80530 		strb	r3, [sp, #5]
 441              		.loc 1 254 0
 442 004e F36A     		ldr	r3, [r6, #44]
 443 0050 0621     		movs	r1, #6
 444 0052 1868     		ldr	r0, [r3]
 445 0054 6A46     		mov	r2, sp
 446              	.LVL52:
 447 0056 FFF7FEFF 		bl	spiSendHook
 448              	.LVL53:
 449              		.loc 1 255 0
 450 005a 02B0     		add	sp, sp, #8
 451              		.cfi_def_cfa_offset 16
 452              		@ sp needed
 453 005c 70BD     		pop	{r4, r5, r6, pc}
 454              	.LVL54:
 455              	.L39:
 456 005e 00BF     		.align	2
ARM GAS  /tmp/ccd673kL.s 			page 9


 457              	.L38:
 458 0060 00000000 		.word	.LANCHOR0
 459              		.cfi_endproc
 460              	.LFE282:
 461              		.size	send_hdr, .-send_hdr
 462              		.section	.text.send_command_R3,"ax",%progbits
 463              		.align	1
 464              		.thumb
 465              		.thumb_func
 466              		.type	send_command_R3, %function
 467              	send_command_R3:
 468              	.LFB286:
 469              		.loc 1 333 0
 470              		.cfi_startproc
 471              		@ args = 0, pretend = 0, frame = 0
 472              		@ frame_needed = 0, uses_anonymous_args = 0
 473              	.LVL55:
 474 0000 F8B5     		push	{r3, r4, r5, r6, r7, lr}
 475              		.cfi_def_cfa_offset 24
 476              		.cfi_offset 3, -24
 477              		.cfi_offset 4, -20
 478              		.cfi_offset 5, -16
 479              		.cfi_offset 6, -12
 480              		.cfi_offset 7, -8
 481              		.cfi_offset 14, -4
 482              		.loc 1 333 0
 483 0002 1E46     		mov	r6, r3
 484              		.loc 1 336 0
 485 0004 C36A     		ldr	r3, [r0, #44]
 486              	.LVL56:
 487              		.loc 1 333 0
 488 0006 0446     		mov	r4, r0
 489 0008 0F46     		mov	r7, r1
 490              		.loc 1 336 0
 491 000a 1868     		ldr	r0, [r3]
 492              	.LVL57:
 493              		.loc 1 333 0
 494 000c 1546     		mov	r5, r2
 495              		.loc 1 336 0
 496 000e FFF7FEFF 		bl	spiSelectHook
 497              	.LVL58:
 498              		.loc 1 337 0
 499 0012 3946     		mov	r1, r7
 500 0014 2A46     		mov	r2, r5
 501 0016 2046     		mov	r0, r4
 502 0018 FFF7FEFF 		bl	send_hdr
 503              	.LVL59:
 504              	.LBB50:
 505              	.LBB51:
 506              		.loc 1 292 0
 507 001c 04F12C00 		add	r0, r4, #44
 508 0020 FFF7FEFF 		bl	recvr1.isra.0
 509              	.LVL60:
 510              		.loc 1 293 0
 511 0024 E36A     		ldr	r3, [r4, #44]
 512              		.loc 1 292 0
 513 0026 0546     		mov	r5, r0
ARM GAS  /tmp/ccd673kL.s 			page 10


 514              	.LVL61:
 515              		.loc 1 293 0
 516 0028 0421     		movs	r1, #4
 517 002a 1868     		ldr	r0, [r3]
 518 002c 3246     		mov	r2, r6
 519 002e FFF7FEFF 		bl	spiReceiveHook
 520              	.LVL62:
 521              	.LBE51:
 522              	.LBE50:
 523              		.loc 1 339 0
 524 0032 E36A     		ldr	r3, [r4, #44]
 525 0034 1868     		ldr	r0, [r3]
 526 0036 FFF7FEFF 		bl	spiUnselectHook
 527              	.LVL63:
 528              		.loc 1 341 0
 529 003a 2846     		mov	r0, r5
 530 003c F8BD     		pop	{r3, r4, r5, r6, r7, pc}
 531              		.cfi_endproc
 532              	.LFE286:
 533              		.size	send_command_R3, .-send_command_R3
 534              		.section	.text.send_command_R1,"ax",%progbits
 535              		.align	1
 536              		.thumb
 537              		.thumb_func
 538              		.type	send_command_R1, %function
 539              	send_command_R1:
 540              	.LFB285:
 541              		.loc 1 309 0
 542              		.cfi_startproc
 543              		@ args = 0, pretend = 0, frame = 0
 544              		@ frame_needed = 0, uses_anonymous_args = 0
 545              	.LVL64:
 546              		.loc 1 312 0
 547 0000 C36A     		ldr	r3, [r0, #44]
 548              		.loc 1 309 0
 549 0002 70B5     		push	{r4, r5, r6, lr}
 550              		.cfi_def_cfa_offset 16
 551              		.cfi_offset 4, -16
 552              		.cfi_offset 5, -12
 553              		.cfi_offset 6, -8
 554              		.cfi_offset 14, -4
 555              		.loc 1 309 0
 556 0004 0446     		mov	r4, r0
 557 0006 0E46     		mov	r6, r1
 558              		.loc 1 312 0
 559 0008 1868     		ldr	r0, [r3]
 560              	.LVL65:
 561              		.loc 1 309 0
 562 000a 1546     		mov	r5, r2
 563              		.loc 1 312 0
 564 000c FFF7FEFF 		bl	spiSelectHook
 565              	.LVL66:
 566              		.loc 1 313 0
 567 0010 2A46     		mov	r2, r5
 568 0012 3146     		mov	r1, r6
 569 0014 2046     		mov	r0, r4
 570 0016 FFF7FEFF 		bl	send_hdr
ARM GAS  /tmp/ccd673kL.s 			page 11


 571              	.LVL67:
 572              		.loc 1 314 0
 573 001a 04F12C00 		add	r0, r4, #44
 574 001e FFF7FEFF 		bl	recvr1.isra.0
 575              	.LVL68:
 576              		.loc 1 315 0
 577 0022 E36A     		ldr	r3, [r4, #44]
 578              		.loc 1 314 0
 579 0024 0546     		mov	r5, r0
 580              	.LVL69:
 581              		.loc 1 315 0
 582 0026 1868     		ldr	r0, [r3]
 583 0028 FFF7FEFF 		bl	spiUnselectHook
 584              	.LVL70:
 585              		.loc 1 317 0
 586 002c 2846     		mov	r0, r5
 587 002e 70BD     		pop	{r4, r5, r6, pc}
 588              		.cfi_endproc
 589              	.LFE285:
 590              		.size	send_command_R1, .-send_command_R1
 591              		.section	.text.read_CxD,"ax",%progbits
 592              		.align	1
 593              		.thumb
 594              		.thumb_func
 595              		.type	read_CxD, %function
 596              	read_CxD:
 597              	.LFB287:
 598              		.loc 1 356 0
 599              		.cfi_startproc
 600              		@ args = 0, pretend = 0, frame = 16
 601              		@ frame_needed = 0, uses_anonymous_args = 0
 602              	.LVL71:
 603 0000 7FB5     		push	{r0, r1, r2, r3, r4, r5, r6, lr}
 604              		.cfi_def_cfa_offset 32
 605              		.cfi_offset 4, -16
 606              		.cfi_offset 5, -12
 607              		.cfi_offset 6, -8
 608              		.cfi_offset 14, -4
 609              		.loc 1 359 0
 610 0002 C36A     		ldr	r3, [r0, #44]
 611              		.loc 1 356 0
 612 0004 0446     		mov	r4, r0
 613 0006 0E46     		mov	r6, r1
 614              		.loc 1 359 0
 615 0008 1868     		ldr	r0, [r3]
 616              	.LVL72:
 617              		.loc 1 356 0
 618 000a 1546     		mov	r5, r2
 619              		.loc 1 359 0
 620 000c FFF7FEFF 		bl	spiSelectHook
 621              	.LVL73:
 622              		.loc 1 360 0
 623 0010 2046     		mov	r0, r4
 624 0012 3146     		mov	r1, r6
 625 0014 0022     		movs	r2, #0
 626 0016 04F12C06 		add	r6, r4, #44
 627 001a FFF7FEFF 		bl	send_hdr
ARM GAS  /tmp/ccd673kL.s 			page 12


 628              	.LVL74:
 629              		.loc 1 361 0
 630 001e 3046     		mov	r0, r6
 631 0020 FFF7FEFF 		bl	recvr1.isra.0
 632              	.LVL75:
 633 0024 10B1     		cbz	r0, .L43
 634              		.loc 1 362 0
 635 0026 E36A     		ldr	r3, [r4, #44]
 636 0028 1868     		ldr	r0, [r3]
 637 002a 2EE0     		b	.L45
 638              	.L43:
 639              		.loc 1 367 0
 640 002c 3046     		mov	r0, r6
 641 002e FFF7FEFF 		bl	wait_nonidle.isra.3
 642              	.LVL76:
 643 0032 E36A     		ldr	r3, [r4, #44]
 644 0034 FE28     		cmp	r0, #254
 645              	.LBB55:
 646              	.LBB56:
 647              	.LBB57:
 648              		.loc 1 370 0
 649 0036 1868     		ldr	r0, [r3]
 650              	.LBE57:
 651              	.LBE56:
 652              	.LBE55:
 653              		.loc 1 367 0
 654 0038 27D1     		bne	.L45
 655              	.LVL77:
 656              	.LBB60:
 657              	.LBB59:
 658              	.LBB58:
 659              		.loc 1 370 0
 660 003a 6A46     		mov	r2, sp
 661 003c 1021     		movs	r1, #16
 662 003e FFF7FEFF 		bl	spiReceiveHook
 663              	.LVL78:
 664              		.loc 1 372 0
 665 0042 05F10C02 		add	r2, r5, #12
 666              	.LVL79:
 667 0046 01AB     		add	r3, sp, #4
 668 0048 043D     		subs	r5, r5, #4
 669              	.LVL80:
 670              	.L46:
 671 004a AA42     		cmp	r2, r5
 672 004c 03F10403 		add	r3, r3, #4
 673              	.LVL81:
 674 0050 10D0     		beq	.L48
 675              		.loc 1 373 0
 676 0052 13F8071C 		ldrb	r1, [r3, #-7]	@ zero_extendqisi2
 677 0056 13F8080C 		ldrb	r0, [r3, #-8]	@ zero_extendqisi2
 678 005a 0904     		lsls	r1, r1, #16
 679 005c 41EA0061 		orr	r1, r1, r0, lsl #24
 680              		.loc 1 374 0
 681 0060 13F8050C 		ldrb	r0, [r3, #-5]	@ zero_extendqisi2
 682 0064 0143     		orrs	r1, r1, r0
 683 0066 13F8060C 		ldrb	r0, [r3, #-6]	@ zero_extendqisi2
 684 006a 41EA0021 		orr	r1, r1, r0, lsl #8
ARM GAS  /tmp/ccd673kL.s 			page 13


 685              		.loc 1 373 0
 686 006e 42F80419 		str	r1, [r2], #-4
 687              	.LVL82:
 688 0072 EAE7     		b	.L46
 689              	.LVL83:
 690              	.L48:
 691              		.loc 1 379 0
 692 0074 E36A     		ldr	r3, [r4, #44]
 693              	.LVL84:
 694 0076 0221     		movs	r1, #2
 695 0078 1868     		ldr	r0, [r3]
 696 007a FFF7FEFF 		bl	spiIgnoreHook
 697              	.LVL85:
 698              		.loc 1 380 0
 699 007e E36A     		ldr	r3, [r4, #44]
 700 0080 1868     		ldr	r0, [r3]
 701 0082 FFF7FEFF 		bl	spiUnselectHook
 702              	.LVL86:
 703              	.LBE58:
 704 0086 0020     		movs	r0, #0
 705 0088 02E0     		b	.L44
 706              	.LVL87:
 707              	.L45:
 708              	.LBE59:
 709              	.LBE60:
 710              		.loc 1 385 0
 711 008a FFF7FEFF 		bl	spiUnselectHook
 712              	.LVL88:
 713              		.loc 1 386 0
 714 008e 0120     		movs	r0, #1
 715              	.LVL89:
 716              	.L44:
 717              		.loc 1 387 0
 718 0090 04B0     		add	sp, sp, #16
 719              		.cfi_def_cfa_offset 16
 720              		@ sp needed
 721 0092 70BD     		pop	{r4, r5, r6, pc}
 722              		.cfi_endproc
 723              	.LFE287:
 724              		.size	read_CxD, .-read_CxD
 725              		.section	.text.mmcConnect,"ax",%progbits
 726              		.align	1
 727              		.global	mmcConnect
 728              		.thumb
 729              		.thumb_func
 730              		.type	mmcConnect, %function
 731              	mmcConnect:
 732              	.LFB293:
 733              		.loc 1 485 0
 734              		.cfi_startproc
 735              		@ args = 0, pretend = 0, frame = 8
 736              		@ frame_needed = 0, uses_anonymous_args = 0
 737              	.LVL90:
 738              		.loc 1 495 0
 739 0000 0323     		movs	r3, #3
 740              		.loc 1 485 0
 741 0002 73B5     		push	{r0, r1, r4, r5, r6, lr}
ARM GAS  /tmp/ccd673kL.s 			page 14


 742              		.cfi_def_cfa_offset 24
 743              		.cfi_offset 4, -16
 744              		.cfi_offset 5, -12
 745              		.cfi_offset 6, -8
 746              		.cfi_offset 14, -4
 747              		.loc 1 495 0
 748 0004 0371     		strb	r3, [r0, #4]
 749              		.loc 1 496 0
 750 0006 0023     		movs	r3, #0
 751 0008 80F83030 		strb	r3, [r0, #48]
 752              		.loc 1 499 0
 753 000c C36A     		ldr	r3, [r0, #44]
 754              		.loc 1 485 0
 755 000e 0446     		mov	r4, r0
 756              		.loc 1 499 0
 757 0010 93E80300 		ldmia	r3, {r0, r1}
 758              	.LVL91:
 759 0014 FFF7FEFF 		bl	spiStartHook
 760              	.LVL92:
 761              		.loc 1 500 0
 762 0018 E36A     		ldr	r3, [r4, #44]
 763 001a 1021     		movs	r1, #16
 764 001c 1868     		ldr	r0, [r3]
 765 001e FFF7FEFF 		bl	spiIgnoreHook
 766              	.LVL93:
 767 0022 0A25     		movs	r5, #10
 768              	.LVL94:
 769              	.L52:
 770              		.loc 1 505 0
 771 0024 0021     		movs	r1, #0
 772 0026 2046     		mov	r0, r4
 773 0028 0A46     		mov	r2, r1
 774 002a FFF7FEFF 		bl	send_command_R1
 775              	.LVL95:
 776 002e 0128     		cmp	r0, #1
 777 0030 06D0     		beq	.L50
 778              	.LVL96:
 779              		.loc 1 508 0
 780 0032 013D     		subs	r5, r5, #1
 781              	.LVL97:
 782 0034 64D0     		beq	.L51
 783              	.LVL98:
 784              	.LBB61:
 785              	.LBB62:
 786              		.loc 2 673 0
 787 0036 42F21070 		movw	r0, #10000
 788 003a FFF7FEFF 		bl	chThdSleep
 789              	.LVL99:
 790 003e F1E7     		b	.L52
 791              	.LVL100:
 792              	.L50:
 793              	.LBE62:
 794              	.LBE61:
 795              		.loc 1 518 0
 796 0040 2046     		mov	r0, r4
 797 0042 0821     		movs	r1, #8
 798 0044 4FF4D572 		mov	r2, #426
ARM GAS  /tmp/ccd673kL.s 			page 15


 799 0048 01AB     		add	r3, sp, #4
 800 004a FFF7FEFF 		bl	send_command_R3
 801              	.LVL101:
 802 004e 0528     		cmp	r0, #5
 803 0050 23D0     		beq	.L54
 804 0052 6425     		movs	r5, #100
 805              	.LVL102:
 806              	.L53:
 807              		.loc 1 525 0
 808 0054 2046     		mov	r0, r4
 809 0056 3721     		movs	r1, #55
 810 0058 0022     		movs	r2, #0
 811 005a FFF7FEFF 		bl	send_command_R1
 812              	.LVL103:
 813 005e 0128     		cmp	r0, #1
 814 0060 0646     		mov	r6, r0
 815 0062 06D0     		beq	.L55
 816              	.L58:
 817              	.LVL104:
 818              		.loc 1 531 0
 819 0064 013D     		subs	r5, r5, #1
 820              	.LVL105:
 821 0066 4BD0     		beq	.L51
 822              	.LVL106:
 823              	.LBB63:
 824              	.LBB64:
 825              		.loc 2 673 0
 826 0068 42F21070 		movw	r0, #10000
 827 006c FFF7FEFF 		bl	chThdSleep
 828              	.LVL107:
 829 0070 F0E7     		b	.L53
 830              	.LVL108:
 831              	.L55:
 832              	.LBE64:
 833              	.LBE63:
 834              		.loc 1 526 0 discriminator 1
 835 0072 284A     		ldr	r2, .L80
 836 0074 2046     		mov	r0, r4
 837 0076 2921     		movs	r1, #41
 838 0078 01AB     		add	r3, sp, #4
 839 007a FFF7FEFF 		bl	send_command_R3
 840              	.LVL109:
 841              		.loc 1 525 0 discriminator 1
 842 007e 0246     		mov	r2, r0
 843 0080 0028     		cmp	r0, #0
 844 0082 EFD1     		bne	.L58
 845              		.loc 1 538 0
 846 0084 01AB     		add	r3, sp, #4
 847 0086 2046     		mov	r0, r4
 848 0088 3A21     		movs	r1, #58
 849 008a FFF7FEFF 		bl	send_command_R3
 850              	.LVL110:
 851              		.loc 1 541 0
 852 008e 9DF80430 		ldrb	r3, [sp, #4]	@ zero_extendqisi2
 853 0092 5B06     		lsls	r3, r3, #25
 854              		.loc 1 542 0
 855 0094 48BF     		it	mi
ARM GAS  /tmp/ccd673kL.s 			page 16


 856 0096 84F83060 		strbmi	r6, [r4, #48]
 857              	.LVL111:
 858              	.L54:
 859 009a 6425     		movs	r5, #100
 860              	.L61:
 861              	.LVL112:
 862              	.LBB65:
 863              		.loc 1 549 0
 864 009c 2046     		mov	r0, r4
 865 009e 0121     		movs	r1, #1
 866 00a0 0022     		movs	r2, #0
 867 00a2 FFF7FEFF 		bl	send_command_R1
 868              	.LVL113:
 869              		.loc 1 550 0
 870 00a6 40B1     		cbz	r0, .L60
 871              		.loc 1 553 0
 872 00a8 0128     		cmp	r0, #1
 873 00aa 29D1     		bne	.L51
 874              	.LVL114:
 875              		.loc 1 556 0
 876 00ac 013D     		subs	r5, r5, #1
 877              	.LVL115:
 878 00ae 27D0     		beq	.L51
 879              	.LVL116:
 880              	.LBB66:
 881              	.LBB67:
 882              		.loc 2 673 0
 883 00b0 42F21070 		movw	r0, #10000
 884              	.LVL117:
 885 00b4 FFF7FEFF 		bl	chThdSleep
 886              	.LVL118:
 887 00b8 F0E7     		b	.L61
 888              	.LVL119:
 889              	.L60:
 890              	.LBE67:
 891              	.LBE66:
 892              	.LBE65:
 893              		.loc 1 563 0
 894 00ba E36A     		ldr	r3, [r4, #44]
 895 00bc 1868     		ldr	r0, [r3]
 896              	.LVL120:
 897 00be 9968     		ldr	r1, [r3, #8]
 898 00c0 FFF7FEFF 		bl	spiStartHook
 899              	.LVL121:
 900              		.loc 1 566 0
 901 00c4 2046     		mov	r0, r4
 902 00c6 1021     		movs	r1, #16
 903 00c8 4FF40072 		mov	r2, #512
 904 00cc FFF7FEFF 		bl	send_command_R1
 905              	.LVL122:
 906 00d0 B0B9     		cbnz	r0, .L51
 907              		.loc 1 572 0
 908 00d2 04F11805 		add	r5, r4, #24
 909              	.LVL123:
 910 00d6 2046     		mov	r0, r4
 911 00d8 0921     		movs	r1, #9
 912 00da 2A46     		mov	r2, r5
ARM GAS  /tmp/ccd673kL.s 			page 17


 913 00dc FFF7FEFF 		bl	read_CxD
 914              	.LVL124:
 915 00e0 70B9     		cbnz	r0, .L51
 916              		.loc 1 576 0
 917 00e2 2846     		mov	r0, r5
 918 00e4 FFF7FEFF 		bl	_mmcsd_get_capacity
 919              	.LVL125:
 920 00e8 A062     		str	r0, [r4, #40]
 921              		.loc 1 577 0
 922 00ea 48B1     		cbz	r0, .L51
 923              		.loc 1 581 0
 924 00ec 2046     		mov	r0, r4
 925 00ee 0A21     		movs	r1, #10
 926 00f0 04F10802 		add	r2, r4, #8
 927 00f4 FFF7FEFF 		bl	read_CxD
 928              	.LVL126:
 929 00f8 10B9     		cbnz	r0, .L51
 930              		.loc 1 585 0
 931 00fa 0523     		movs	r3, #5
 932 00fc 2371     		strb	r3, [r4, #4]
 933              		.loc 1 586 0
 934 00fe 06E0     		b	.L62
 935              	.L51:
 936              	.LDL1:
 937              		.loc 1 590 0
 938 0100 E36A     		ldr	r3, [r4, #44]
 939 0102 1868     		ldr	r0, [r3]
 940 0104 FFF7FEFF 		bl	spiStopHook
 941              	.LVL127:
 942              		.loc 1 591 0
 943 0108 0223     		movs	r3, #2
 944 010a 2371     		strb	r3, [r4, #4]
 945              		.loc 1 592 0
 946 010c 0120     		movs	r0, #1
 947              	.L62:
 948              		.loc 1 593 0
 949 010e 02B0     		add	sp, sp, #8
 950              		.cfi_def_cfa_offset 16
 951              		@ sp needed
 952 0110 70BD     		pop	{r4, r5, r6, pc}
 953              	.LVL128:
 954              	.L81:
 955 0112 00BF     		.align	2
 956              	.L80:
 957 0114 AA010040 		.word	1073742250
 958              		.cfi_endproc
 959              	.LFE293:
 960              		.size	mmcConnect, .-mmcConnect
 961              		.section	.text.mmcDisconnect,"ax",%progbits
 962              		.align	1
 963              		.global	mmcDisconnect
 964              		.thumb
 965              		.thumb_func
 966              		.type	mmcDisconnect, %function
 967              	mmcDisconnect:
 968              	.LFB294:
 969              		.loc 1 607 0
ARM GAS  /tmp/ccd673kL.s 			page 18


 970              		.cfi_startproc
 971              		@ args = 0, pretend = 0, frame = 0
 972              		@ frame_needed = 0, uses_anonymous_args = 0
 973              	.LVL129:
 974 0000 38B5     		push	{r3, r4, r5, lr}
 975              		.cfi_def_cfa_offset 16
 976              		.cfi_offset 3, -16
 977              		.cfi_offset 4, -12
 978              		.cfi_offset 5, -8
 979              		.cfi_offset 14, -4
 980              		.loc 1 607 0
 981 0002 0446     		mov	r4, r0
 982              	.LBB89:
 983              	.LBB90:
 984              	.LBB91:
 985              	.LBB92:
 986              	.LBB93:
 987              	.LBB94:
 988              		.file 3 "../../modules/ChibiOS/os/common/ext/CMSIS/include/cmsis_gcc.h"
 989              		.loc 3 264 0
 990 0004 2023     		movs	r3, #32
 991              	@ 264 "../../modules/ChibiOS/os/common/ext/CMSIS/include/cmsis_gcc.h" 1
 992 0006 83F31188 		MSR basepri, r3
 993              	@ 0 "" 2
 994              		.thumb
 995              	.LBE94:
 996              	.LBE93:
 997              	.LBE92:
 998              		.file 4 "../../modules/ChibiOS/os/rt/include/chsys.h"
 999              		.loc 4 377 0
 1000 000a FFF7FEFF 		bl	_stats_start_measure_crit_thd
 1001              	.LVL130:
 1002              	.LBE91:
 1003              	.LBE90:
 1004              	.LBE89:
 1005              		.loc 1 614 0
 1006 000e 2379     		ldrb	r3, [r4, #4]	@ zero_extendqisi2
 1007 0010 022B     		cmp	r3, #2
 1008 0012 4FF00005 		mov	r5, #0
 1009 0016 04D1     		bne	.L83
 1010              	.LBB95:
 1011              	.LBB96:
 1012              	.LBB97:
 1013              		.loc 4 389 0
 1014 0018 FFF7FEFF 		bl	_stats_stop_measure_crit_thd
 1015              	.LVL131:
 1016              	.LBB98:
 1017              	.LBB99:
 1018              	.LBB100:
 1019              		.loc 3 264 0
 1020              	@ 264 "../../modules/ChibiOS/os/common/ext/CMSIS/include/cmsis_gcc.h" 1
 1021 001c 85F31188 		MSR basepri, r5
 1022              	@ 0 "" 2
 1023              		.thumb
 1024 0020 13E0     		b	.L84
 1025              	.LVL132:
 1026              	.L83:
ARM GAS  /tmp/ccd673kL.s 			page 19


 1027              	.LBE100:
 1028              	.LBE99:
 1029              	.LBE98:
 1030              	.LBE97:
 1031              	.LBE96:
 1032              	.LBE95:
 1033              		.loc 1 618 0
 1034 0022 0423     		movs	r3, #4
 1035 0024 2371     		strb	r3, [r4, #4]
 1036              	.LBB101:
 1037              	.LBB102:
 1038              	.LBB103:
 1039              		.loc 4 389 0
 1040 0026 FFF7FEFF 		bl	_stats_stop_measure_crit_thd
 1041              	.LVL133:
 1042              	.LBB104:
 1043              	.LBB105:
 1044              	.LBB106:
 1045              		.loc 3 264 0
 1046              	@ 264 "../../modules/ChibiOS/os/common/ext/CMSIS/include/cmsis_gcc.h" 1
 1047 002a 85F31188 		MSR basepri, r5
 1048              	@ 0 "" 2
 1049              		.thumb
 1050              	.LBE106:
 1051              	.LBE105:
 1052              	.LBE104:
 1053              	.LBE103:
 1054              	.LBE102:
 1055              	.LBE101:
 1056              		.loc 1 622 0
 1057 002e E36A     		ldr	r3, [r4, #44]
 1058 0030 1868     		ldr	r0, [r3]
 1059 0032 9968     		ldr	r1, [r3, #8]
 1060 0034 FFF7FEFF 		bl	spiStartHook
 1061              	.LVL134:
 1062              		.loc 1 623 0
 1063 0038 2046     		mov	r0, r4
 1064 003a FFF7FEFF 		bl	sync
 1065              	.LVL135:
 1066              		.loc 1 625 0
 1067 003e E36A     		ldr	r3, [r4, #44]
 1068 0040 1868     		ldr	r0, [r3]
 1069 0042 FFF7FEFF 		bl	spiStopHook
 1070              	.LVL136:
 1071              		.loc 1 626 0
 1072 0046 0223     		movs	r3, #2
 1073 0048 2371     		strb	r3, [r4, #4]
 1074              	.LVL137:
 1075              	.L84:
 1076              		.loc 1 628 0
 1077 004a 0020     		movs	r0, #0
 1078 004c 38BD     		pop	{r3, r4, r5, pc}
 1079              		.cfi_endproc
 1080              	.LFE294:
 1081              		.size	mmcDisconnect, .-mmcDisconnect
 1082              		.section	.text.mmcInit,"ax",%progbits
 1083              		.align	1
ARM GAS  /tmp/ccd673kL.s 			page 20


 1084              		.global	mmcInit
 1085              		.thumb
 1086              		.thumb_func
 1087              		.type	mmcInit, %function
 1088              	mmcInit:
 1089              	.LFB289:
 1090              		.loc 1 413 0
 1091              		.cfi_startproc
 1092              		@ args = 0, pretend = 0, frame = 0
 1093              		@ frame_needed = 0, uses_anonymous_args = 0
 1094              		@ link register save eliminated.
 1095 0000 7047     		bx	lr
 1096              		.cfi_endproc
 1097              	.LFE289:
 1098              		.size	mmcInit, .-mmcInit
 1099              		.section	.text.mmcObjectInit,"ax",%progbits
 1100              		.align	1
 1101              		.global	mmcObjectInit
 1102              		.thumb
 1103              		.thumb_func
 1104              		.type	mmcObjectInit, %function
 1105              	mmcObjectInit:
 1106              	.LFB290:
 1107              		.loc 1 424 0
 1108              		.cfi_startproc
 1109              		@ args = 0, pretend = 0, frame = 0
 1110              		@ frame_needed = 0, uses_anonymous_args = 0
 1111              		@ link register save eliminated.
 1112              	.LVL138:
 1113              		.loc 1 426 0
 1114 0000 044B     		ldr	r3, .L87
 1115 0002 0360     		str	r3, [r0]
 1116              		.loc 1 427 0
 1117 0004 0123     		movs	r3, #1
 1118 0006 0371     		strb	r3, [r0, #4]
 1119              		.loc 1 428 0
 1120 0008 0023     		movs	r3, #0
 1121 000a C362     		str	r3, [r0, #44]
 1122              		.loc 1 429 0
 1123 000c 80F83030 		strb	r3, [r0, #48]
 1124 0010 7047     		bx	lr
 1125              	.L88:
 1126 0012 00BF     		.align	2
 1127              	.L87:
 1128 0014 00000000 		.word	.LANCHOR1
 1129              		.cfi_endproc
 1130              	.LFE290:
 1131              		.size	mmcObjectInit, .-mmcObjectInit
 1132              		.section	.text.mmcStart,"ax",%progbits
 1133              		.align	1
 1134              		.global	mmcStart
 1135              		.thumb
 1136              		.thumb_func
 1137              		.type	mmcStart, %function
 1138              	mmcStart:
 1139              	.LFB291:
 1140              		.loc 1 440 0
ARM GAS  /tmp/ccd673kL.s 			page 21


 1141              		.cfi_startproc
 1142              		@ args = 0, pretend = 0, frame = 0
 1143              		@ frame_needed = 0, uses_anonymous_args = 0
 1144              		@ link register save eliminated.
 1145              	.LVL139:
 1146              		.loc 1 447 0
 1147 0000 0223     		movs	r3, #2
 1148              		.loc 1 446 0
 1149 0002 C162     		str	r1, [r0, #44]
 1150              		.loc 1 447 0
 1151 0004 0371     		strb	r3, [r0, #4]
 1152 0006 7047     		bx	lr
 1153              		.cfi_endproc
 1154              	.LFE291:
 1155              		.size	mmcStart, .-mmcStart
 1156              		.section	.text.mmcStop,"ax",%progbits
 1157              		.align	1
 1158              		.global	mmcStop
 1159              		.thumb
 1160              		.thumb_func
 1161              		.type	mmcStop, %function
 1162              	mmcStop:
 1163              	.LFB292:
 1164              		.loc 1 457 0
 1165              		.cfi_startproc
 1166              		@ args = 0, pretend = 0, frame = 0
 1167              		@ frame_needed = 0, uses_anonymous_args = 0
 1168              	.LVL140:
 1169              		.loc 1 463 0
 1170 0000 C36A     		ldr	r3, [r0, #44]
 1171              		.loc 1 457 0
 1172 0002 10B5     		push	{r4, lr}
 1173              		.cfi_def_cfa_offset 8
 1174              		.cfi_offset 4, -8
 1175              		.cfi_offset 14, -4
 1176              		.loc 1 457 0
 1177 0004 0446     		mov	r4, r0
 1178              		.loc 1 463 0
 1179 0006 1868     		ldr	r0, [r3]
 1180              	.LVL141:
 1181 0008 FFF7FEFF 		bl	spiStopHook
 1182              	.LVL142:
 1183              		.loc 1 464 0
 1184 000c 0023     		movs	r3, #0
 1185 000e E362     		str	r3, [r4, #44]
 1186              		.loc 1 465 0
 1187 0010 0123     		movs	r3, #1
 1188 0012 2371     		strb	r3, [r4, #4]
 1189 0014 10BD     		pop	{r4, pc}
 1190              		.cfi_endproc
 1191              	.LFE292:
 1192              		.size	mmcStop, .-mmcStop
 1193              		.section	.text.mmcStartSequentialRead,"ax",%progbits
 1194              		.align	1
 1195              		.global	mmcStartSequentialRead
 1196              		.thumb
 1197              		.thumb_func
ARM GAS  /tmp/ccd673kL.s 			page 22


 1198              		.type	mmcStartSequentialRead, %function
 1199              	mmcStartSequentialRead:
 1200              	.LFB295:
 1201              		.loc 1 642 0
 1202              		.cfi_startproc
 1203              		@ args = 0, pretend = 0, frame = 0
 1204              		@ frame_needed = 0, uses_anonymous_args = 0
 1205              	.LVL143:
 1206 0000 38B5     		push	{r3, r4, r5, lr}
 1207              		.cfi_def_cfa_offset 16
 1208              		.cfi_offset 3, -16
 1209              		.cfi_offset 4, -12
 1210              		.cfi_offset 5, -8
 1211              		.cfi_offset 14, -4
 1212              		.loc 1 648 0
 1213 0002 0623     		movs	r3, #6
 1214 0004 0371     		strb	r3, [r0, #4]
 1215              		.loc 1 652 0
 1216 0006 C36A     		ldr	r3, [r0, #44]
 1217              		.loc 1 642 0
 1218 0008 0446     		mov	r4, r0
 1219 000a 0D46     		mov	r5, r1
 1220              		.loc 1 652 0
 1221 000c 1868     		ldr	r0, [r3]
 1222              	.LVL144:
 1223 000e 9968     		ldr	r1, [r3, #8]
 1224              	.LVL145:
 1225 0010 FFF7FEFF 		bl	spiStartHook
 1226              	.LVL146:
 1227              		.loc 1 653 0
 1228 0014 E36A     		ldr	r3, [r4, #44]
 1229 0016 1868     		ldr	r0, [r3]
 1230 0018 FFF7FEFF 		bl	spiSelectHook
 1231              	.LVL147:
 1232              		.loc 1 655 0
 1233 001c 94F83030 		ldrb	r3, [r4, #48]	@ zero_extendqisi2
 1234              		.loc 1 656 0
 1235 0020 2046     		mov	r0, r4
 1236 0022 1221     		movs	r1, #18
 1237              		.loc 1 655 0
 1238 0024 0BB1     		cbz	r3, .L92
 1239              		.loc 1 656 0
 1240 0026 2A46     		mov	r2, r5
 1241 0028 00E0     		b	.L96
 1242              	.L92:
 1243              		.loc 1 659 0
 1244 002a 6A02     		lsls	r2, r5, #9
 1245              	.L96:
 1246 002c FFF7FEFF 		bl	send_hdr
 1247              	.LVL148:
 1248              		.loc 1 662 0
 1249 0030 04F12C00 		add	r0, r4, #44
 1250 0034 FFF7FEFF 		bl	recvr1.isra.0
 1251              	.LVL149:
 1252 0038 50B1     		cbz	r0, .L94
 1253              	.LVL150:
 1254              	.LBB109:
ARM GAS  /tmp/ccd673kL.s 			page 23


 1255              	.LBB110:
 1256              		.loc 1 663 0
 1257 003a E36A     		ldr	r3, [r4, #44]
 1258 003c 1868     		ldr	r0, [r3]
 1259 003e FFF7FEFF 		bl	spiUnselectHook
 1260              	.LVL151:
 1261              		.loc 1 664 0
 1262 0042 E36A     		ldr	r3, [r4, #44]
 1263 0044 1868     		ldr	r0, [r3]
 1264 0046 FFF7FEFF 		bl	spiStopHook
 1265              	.LVL152:
 1266              		.loc 1 665 0
 1267 004a 0523     		movs	r3, #5
 1268 004c 2371     		strb	r3, [r4, #4]
 1269 004e 0120     		movs	r0, #1
 1270              	.LVL153:
 1271              	.L94:
 1272              	.LBE110:
 1273              	.LBE109:
 1274              		.loc 1 669 0
 1275 0050 38BD     		pop	{r3, r4, r5, pc}
 1276              		.cfi_endproc
 1277              	.LFE295:
 1278              		.size	mmcStartSequentialRead, .-mmcStartSequentialRead
 1279              		.section	.text.mmcSequentialRead,"ax",%progbits
 1280              		.align	1
 1281              		.global	mmcSequentialRead
 1282              		.thumb
 1283              		.thumb_func
 1284              		.type	mmcSequentialRead, %function
 1285              	mmcSequentialRead:
 1286              	.LFB296:
 1287              		.loc 1 683 0
 1288              		.cfi_startproc
 1289              		@ args = 0, pretend = 0, frame = 0
 1290              		@ frame_needed = 0, uses_anonymous_args = 0
 1291              	.LVL154:
 1292 0000 38B5     		push	{r3, r4, r5, lr}
 1293              		.cfi_def_cfa_offset 16
 1294              		.cfi_offset 3, -16
 1295              		.cfi_offset 4, -12
 1296              		.cfi_offset 5, -8
 1297              		.cfi_offset 14, -4
 1298              		.loc 1 687 0
 1299 0002 0379     		ldrb	r3, [r0, #4]	@ zero_extendqisi2
 1300 0004 062B     		cmp	r3, #6
 1301              		.loc 1 683 0
 1302 0006 0446     		mov	r4, r0
 1303 0008 0D46     		mov	r5, r1
 1304              		.loc 1 687 0
 1305 000a 1AD1     		bne	.L100
 1306              		.loc 1 691 0
 1307 000c 2C30     		adds	r0, r0, #44
 1308              	.LVL155:
 1309 000e FFF7FEFF 		bl	wait_nonidle.isra.3
 1310              	.LVL156:
 1311 0012 E36A     		ldr	r3, [r4, #44]
ARM GAS  /tmp/ccd673kL.s 			page 24


 1312 0014 FE28     		cmp	r0, #254
 1313              	.LBB113:
 1314              	.LBB114:
 1315              		.loc 1 692 0
 1316 0016 1868     		ldr	r0, [r3]
 1317              	.LBE114:
 1318              	.LBE113:
 1319              		.loc 1 691 0
 1320 0018 0BD1     		bne	.L99
 1321              	.LVL157:
 1322              	.LBB116:
 1323              	.LBB115:
 1324              		.loc 1 692 0
 1325 001a 2A46     		mov	r2, r5
 1326 001c 4FF40071 		mov	r1, #512
 1327 0020 FFF7FEFF 		bl	spiReceiveHook
 1328              	.LVL158:
 1329              		.loc 1 694 0
 1330 0024 E36A     		ldr	r3, [r4, #44]
 1331 0026 0221     		movs	r1, #2
 1332 0028 1868     		ldr	r0, [r3]
 1333 002a FFF7FEFF 		bl	spiIgnoreHook
 1334              	.LVL159:
 1335 002e 0020     		movs	r0, #0
 1336 0030 38BD     		pop	{r3, r4, r5, pc}
 1337              	.LVL160:
 1338              	.L99:
 1339              	.LBE115:
 1340              	.LBE116:
 1341              		.loc 1 698 0
 1342 0032 FFF7FEFF 		bl	spiUnselectHook
 1343              	.LVL161:
 1344              		.loc 1 699 0
 1345 0036 E36A     		ldr	r3, [r4, #44]
 1346 0038 1868     		ldr	r0, [r3]
 1347 003a FFF7FEFF 		bl	spiStopHook
 1348              	.LVL162:
 1349              		.loc 1 700 0
 1350 003e 0523     		movs	r3, #5
 1351 0040 2371     		strb	r3, [r4, #4]
 1352              	.L100:
 1353              		.loc 1 688 0
 1354 0042 0120     		movs	r0, #1
 1355              		.loc 1 702 0
 1356 0044 38BD     		pop	{r3, r4, r5, pc}
 1357              		.cfi_endproc
 1358              	.LFE296:
 1359              		.size	mmcSequentialRead, .-mmcSequentialRead
 1360              		.section	.text.mmcStopSequentialRead,"ax",%progbits
 1361              		.align	1
 1362              		.global	mmcStopSequentialRead
 1363              		.thumb
 1364              		.thumb_func
 1365              		.type	mmcStopSequentialRead, %function
 1366              	mmcStopSequentialRead:
 1367              	.LFB297:
 1368              		.loc 1 715 0
ARM GAS  /tmp/ccd673kL.s 			page 25


 1369              		.cfi_startproc
 1370              		@ args = 0, pretend = 0, frame = 0
 1371              		@ frame_needed = 0, uses_anonymous_args = 0
 1372              	.LVL163:
 1373 0000 38B5     		push	{r3, r4, r5, lr}
 1374              		.cfi_def_cfa_offset 16
 1375              		.cfi_offset 3, -16
 1376              		.cfi_offset 4, -12
 1377              		.cfi_offset 5, -8
 1378              		.cfi_offset 14, -4
 1379              		.loc 1 722 0
 1380 0002 0379     		ldrb	r3, [r0, #4]	@ zero_extendqisi2
 1381 0004 062B     		cmp	r3, #6
 1382              		.loc 1 715 0
 1383 0006 0446     		mov	r4, r0
 1384              		.loc 1 722 0
 1385 0008 12D1     		bne	.L103
 1386              	.LVL164:
 1387              	.LBB119:
 1388              	.LBB120:
 1389              		.loc 1 726 0
 1390 000a 0546     		mov	r5, r0
 1391 000c 0721     		movs	r1, #7
 1392 000e 55F82C3F 		ldr	r3, [r5, #44]!
 1393 0012 084A     		ldr	r2, .L104
 1394 0014 1868     		ldr	r0, [r3]
 1395              	.LVL165:
 1396 0016 FFF7FEFF 		bl	spiSendHook
 1397              	.LVL166:
 1398              		.loc 1 729 0
 1399 001a 2846     		mov	r0, r5
 1400 001c FFF7FEFF 		bl	recvr1.isra.0
 1401              	.LVL167:
 1402              		.loc 1 732 0
 1403 0020 E36A     		ldr	r3, [r4, #44]
 1404 0022 1868     		ldr	r0, [r3]
 1405 0024 FFF7FEFF 		bl	spiUnselectHook
 1406              	.LVL168:
 1407              		.loc 1 733 0
 1408 0028 0523     		movs	r3, #5
 1409 002a 2371     		strb	r3, [r4, #4]
 1410 002c 0020     		movs	r0, #0
 1411 002e 38BD     		pop	{r3, r4, r5, pc}
 1412              	.LVL169:
 1413              	.L103:
 1414              	.LBE120:
 1415              	.LBE119:
 1416              		.loc 1 723 0
 1417 0030 0120     		movs	r0, #1
 1418              	.LVL170:
 1419              		.loc 1 735 0
 1420 0032 38BD     		pop	{r3, r4, r5, pc}
 1421              	.LVL171:
 1422              	.L105:
 1423              		.align	2
 1424              	.L104:
 1425 0034 00000000 		.word	.LANCHOR2
ARM GAS  /tmp/ccd673kL.s 			page 26


 1426              		.cfi_endproc
 1427              	.LFE297:
 1428              		.size	mmcStopSequentialRead, .-mmcStopSequentialRead
 1429              		.section	.text.mmc_read,"ax",%progbits
 1430              		.align	1
 1431              		.thumb
 1432              		.thumb_func
 1433              		.type	mmc_read, %function
 1434              	mmc_read:
 1435              	.LFB277:
 1436              		.loc 1 113 0
 1437              		.cfi_startproc
 1438              		@ args = 0, pretend = 0, frame = 0
 1439              		@ frame_needed = 0, uses_anonymous_args = 0
 1440              	.LVL172:
 1441 0000 70B5     		push	{r4, r5, r6, lr}
 1442              		.cfi_def_cfa_offset 16
 1443              		.cfi_offset 4, -16
 1444              		.cfi_offset 5, -12
 1445              		.cfi_offset 6, -8
 1446              		.cfi_offset 14, -4
 1447              		.loc 1 113 0
 1448 0002 0646     		mov	r6, r0
 1449 0004 1546     		mov	r5, r2
 1450 0006 1C46     		mov	r4, r3
 1451              		.loc 1 115 0
 1452 0008 FFF7FEFF 		bl	mmcStartSequentialRead
 1453              	.LVL173:
 1454 000c 68B9     		cbnz	r0, .L109
 1455              	.LVL174:
 1456              	.L108:
 1457              		.loc 1 120 0
 1458 000e 3046     		mov	r0, r6
 1459              		.loc 1 119 0
 1460 0010 3CB1     		cbz	r4, .L111
 1461              	.LVL175:
 1462              		.loc 1 120 0
 1463 0012 2946     		mov	r1, r5
 1464 0014 FFF7FEFF 		bl	mmcSequentialRead
 1465              	.LVL176:
 1466 0018 38B9     		cbnz	r0, .L109
 1467              	.LVL177:
 1468              		.loc 1 123 0
 1469 001a 05F50075 		add	r5, r5, #512
 1470              	.LVL178:
 1471              		.loc 1 124 0
 1472 001e 013C     		subs	r4, r4, #1
 1473              	.LVL179:
 1474 0020 F5E7     		b	.L108
 1475              	.LVL180:
 1476              	.L111:
 1477              		.loc 1 131 0
 1478 0022 BDE87040 		pop	{r4, r5, r6, lr}
 1479              		.cfi_remember_state
 1480              		.cfi_restore 14
 1481              		.cfi_restore 6
 1482              		.cfi_restore 5
ARM GAS  /tmp/ccd673kL.s 			page 27


 1483              		.cfi_restore 4
 1484              		.cfi_def_cfa_offset 0
 1485              	.LVL181:
 1486              	.LBB123:
 1487              	.LBB124:
 1488              		.loc 1 127 0
 1489 0026 FFF7FEBF 		b	mmcStopSequentialRead
 1490              	.LVL182:
 1491              	.L109:
 1492              		.cfi_restore_state
 1493              	.LBE124:
 1494              	.LBE123:
 1495              		.loc 1 131 0
 1496 002a 0120     		movs	r0, #1
 1497 002c 70BD     		pop	{r4, r5, r6, pc}
 1498              		.cfi_endproc
 1499              	.LFE277:
 1500              		.size	mmc_read, .-mmc_read
 1501              		.section	.text.mmcStartSequentialWrite,"ax",%progbits
 1502              		.align	1
 1503              		.global	mmcStartSequentialWrite
 1504              		.thumb
 1505              		.thumb_func
 1506              		.type	mmcStartSequentialWrite, %function
 1507              	mmcStartSequentialWrite:
 1508              	.LFB298:
 1509              		.loc 1 749 0
 1510              		.cfi_startproc
 1511              		@ args = 0, pretend = 0, frame = 0
 1512              		@ frame_needed = 0, uses_anonymous_args = 0
 1513              	.LVL183:
 1514 0000 38B5     		push	{r3, r4, r5, lr}
 1515              		.cfi_def_cfa_offset 16
 1516              		.cfi_offset 3, -16
 1517              		.cfi_offset 4, -12
 1518              		.cfi_offset 5, -8
 1519              		.cfi_offset 14, -4
 1520              		.loc 1 755 0
 1521 0002 0723     		movs	r3, #7
 1522 0004 0371     		strb	r3, [r0, #4]
 1523              		.loc 1 757 0
 1524 0006 C36A     		ldr	r3, [r0, #44]
 1525              		.loc 1 749 0
 1526 0008 0446     		mov	r4, r0
 1527 000a 0D46     		mov	r5, r1
 1528              		.loc 1 757 0
 1529 000c 1868     		ldr	r0, [r3]
 1530              	.LVL184:
 1531 000e 9968     		ldr	r1, [r3, #8]
 1532              	.LVL185:
 1533 0010 FFF7FEFF 		bl	spiStartHook
 1534              	.LVL186:
 1535              		.loc 1 758 0
 1536 0014 E36A     		ldr	r3, [r4, #44]
 1537 0016 1868     		ldr	r0, [r3]
 1538 0018 FFF7FEFF 		bl	spiSelectHook
 1539              	.LVL187:
ARM GAS  /tmp/ccd673kL.s 			page 28


 1540              		.loc 1 759 0
 1541 001c 94F83030 		ldrb	r3, [r4, #48]	@ zero_extendqisi2
 1542              		.loc 1 760 0
 1543 0020 2046     		mov	r0, r4
 1544 0022 1921     		movs	r1, #25
 1545              		.loc 1 759 0
 1546 0024 0BB1     		cbz	r3, .L113
 1547              		.loc 1 760 0
 1548 0026 2A46     		mov	r2, r5
 1549 0028 00E0     		b	.L117
 1550              	.L113:
 1551              		.loc 1 763 0
 1552 002a 6A02     		lsls	r2, r5, #9
 1553              	.L117:
 1554 002c FFF7FEFF 		bl	send_hdr
 1555              	.LVL188:
 1556              		.loc 1 767 0
 1557 0030 04F12C00 		add	r0, r4, #44
 1558 0034 FFF7FEFF 		bl	recvr1.isra.0
 1559              	.LVL189:
 1560 0038 50B1     		cbz	r0, .L115
 1561              	.LVL190:
 1562              	.LBB127:
 1563              	.LBB128:
 1564              		.loc 1 768 0
 1565 003a E36A     		ldr	r3, [r4, #44]
 1566 003c 1868     		ldr	r0, [r3]
 1567 003e FFF7FEFF 		bl	spiUnselectHook
 1568              	.LVL191:
 1569              		.loc 1 769 0
 1570 0042 E36A     		ldr	r3, [r4, #44]
 1571 0044 1868     		ldr	r0, [r3]
 1572 0046 FFF7FEFF 		bl	spiStopHook
 1573              	.LVL192:
 1574              		.loc 1 770 0
 1575 004a 0523     		movs	r3, #5
 1576 004c 2371     		strb	r3, [r4, #4]
 1577 004e 0120     		movs	r0, #1
 1578              	.LVL193:
 1579              	.L115:
 1580              	.LBE128:
 1581              	.LBE127:
 1582              		.loc 1 774 0
 1583 0050 38BD     		pop	{r3, r4, r5, pc}
 1584              		.cfi_endproc
 1585              	.LFE298:
 1586              		.size	mmcStartSequentialWrite, .-mmcStartSequentialWrite
 1587              		.section	.text.mmcSequentialWrite,"ax",%progbits
 1588              		.align	1
 1589              		.global	mmcSequentialWrite
 1590              		.thumb
 1591              		.thumb_func
 1592              		.type	mmcSequentialWrite, %function
 1593              	mmcSequentialWrite:
 1594              	.LFB299:
 1595              		.loc 1 788 0
 1596              		.cfi_startproc
ARM GAS  /tmp/ccd673kL.s 			page 29


 1597              		@ args = 0, pretend = 0, frame = 8
 1598              		@ frame_needed = 0, uses_anonymous_args = 0
 1599              	.LVL194:
 1600              		.loc 1 794 0
 1601 0000 0379     		ldrb	r3, [r0, #4]	@ zero_extendqisi2
 1602 0002 072B     		cmp	r3, #7
 1603              		.loc 1 788 0
 1604 0004 37B5     		push	{r0, r1, r2, r4, r5, lr}
 1605              		.cfi_def_cfa_offset 24
 1606              		.cfi_offset 4, -12
 1607              		.cfi_offset 5, -8
 1608              		.cfi_offset 14, -4
 1609              		.loc 1 788 0
 1610 0006 0446     		mov	r4, r0
 1611 0008 0D46     		mov	r5, r1
 1612              		.loc 1 794 0
 1613 000a 2DD1     		bne	.L121
 1614              		.loc 1 798 0
 1615 000c C36A     		ldr	r3, [r0, #44]
 1616 000e 184A     		ldr	r2, .L122
 1617 0010 1868     		ldr	r0, [r3]
 1618              	.LVL195:
 1619 0012 0221     		movs	r1, #2
 1620              	.LVL196:
 1621 0014 FFF7FEFF 		bl	spiSendHook
 1622              	.LVL197:
 1623              		.loc 1 799 0
 1624 0018 E36A     		ldr	r3, [r4, #44]
 1625 001a 2A46     		mov	r2, r5
 1626 001c 1868     		ldr	r0, [r3]
 1627 001e 4FF40071 		mov	r1, #512
 1628 0022 FFF7FEFF 		bl	spiSendHook
 1629              	.LVL198:
 1630              		.loc 1 800 0
 1631 0026 E36A     		ldr	r3, [r4, #44]
 1632 0028 0221     		movs	r1, #2
 1633 002a 1868     		ldr	r0, [r3]
 1634 002c FFF7FEFF 		bl	spiIgnoreHook
 1635              	.LVL199:
 1636              		.loc 1 801 0
 1637 0030 E36A     		ldr	r3, [r4, #44]
 1638 0032 0121     		movs	r1, #1
 1639 0034 1868     		ldr	r0, [r3]
 1640 0036 01AA     		add	r2, sp, #4
 1641 0038 FFF7FEFF 		bl	spiReceiveHook
 1642              	.LVL200:
 1643              		.loc 1 802 0
 1644 003c 9DF80430 		ldrb	r3, [sp, #4]	@ zero_extendqisi2
 1645 0040 03F01F03 		and	r3, r3, #31
 1646 0044 052B     		cmp	r3, #5
 1647 0046 05D1     		bne	.L120
 1648              		.loc 1 803 0
 1649 0048 04F12C00 		add	r0, r4, #44
 1650 004c FFF7FEFF 		bl	wait.isra.1
 1651              	.LVL201:
 1652              		.loc 1 804 0
 1653 0050 0020     		movs	r0, #0
ARM GAS  /tmp/ccd673kL.s 			page 30


 1654 0052 0AE0     		b	.L119
 1655              	.L120:
 1656              	.LVL202:
 1657              	.LBB131:
 1658              	.LBB132:
 1659              		.loc 1 808 0
 1660 0054 E36A     		ldr	r3, [r4, #44]
 1661 0056 1868     		ldr	r0, [r3]
 1662 0058 FFF7FEFF 		bl	spiUnselectHook
 1663              	.LVL203:
 1664              		.loc 1 809 0
 1665 005c E36A     		ldr	r3, [r4, #44]
 1666 005e 1868     		ldr	r0, [r3]
 1667 0060 FFF7FEFF 		bl	spiStopHook
 1668              	.LVL204:
 1669              		.loc 1 810 0
 1670 0064 0523     		movs	r3, #5
 1671 0066 2371     		strb	r3, [r4, #4]
 1672              	.LVL205:
 1673              	.L121:
 1674              	.LBE132:
 1675              	.LBE131:
 1676              		.loc 1 795 0
 1677 0068 0120     		movs	r0, #1
 1678              	.L119:
 1679              		.loc 1 812 0
 1680 006a 03B0     		add	sp, sp, #12
 1681              		.cfi_def_cfa_offset 12
 1682              		@ sp needed
 1683 006c 30BD     		pop	{r4, r5, pc}
 1684              	.LVL206:
 1685              	.L123:
 1686 006e 00BF     		.align	2
 1687              	.L122:
 1688 0070 00000000 		.word	.LANCHOR3
 1689              		.cfi_endproc
 1690              	.LFE299:
 1691              		.size	mmcSequentialWrite, .-mmcSequentialWrite
 1692              		.section	.text.mmcStopSequentialWrite,"ax",%progbits
 1693              		.align	1
 1694              		.global	mmcStopSequentialWrite
 1695              		.thumb
 1696              		.thumb_func
 1697              		.type	mmcStopSequentialWrite, %function
 1698              	mmcStopSequentialWrite:
 1699              	.LFB300:
 1700              		.loc 1 825 0
 1701              		.cfi_startproc
 1702              		@ args = 0, pretend = 0, frame = 0
 1703              		@ frame_needed = 0, uses_anonymous_args = 0
 1704              	.LVL207:
 1705              		.loc 1 830 0
 1706 0000 0379     		ldrb	r3, [r0, #4]	@ zero_extendqisi2
 1707 0002 072B     		cmp	r3, #7
 1708              		.loc 1 825 0
 1709 0004 10B5     		push	{r4, lr}
 1710              		.cfi_def_cfa_offset 8
ARM GAS  /tmp/ccd673kL.s 			page 31


 1711              		.cfi_offset 4, -8
 1712              		.cfi_offset 14, -4
 1713              		.loc 1 825 0
 1714 0006 0446     		mov	r4, r0
 1715              		.loc 1 830 0
 1716 0008 0DD1     		bne	.L126
 1717              	.LVL208:
 1718              	.LBB135:
 1719              	.LBB136:
 1720              		.loc 1 834 0
 1721 000a C36A     		ldr	r3, [r0, #44]
 1722 000c 074A     		ldr	r2, .L127
 1723 000e 1868     		ldr	r0, [r3]
 1724              	.LVL209:
 1725 0010 0221     		movs	r1, #2
 1726 0012 FFF7FEFF 		bl	spiSendHook
 1727              	.LVL210:
 1728              		.loc 1 835 0
 1729 0016 E36A     		ldr	r3, [r4, #44]
 1730 0018 1868     		ldr	r0, [r3]
 1731 001a FFF7FEFF 		bl	spiUnselectHook
 1732              	.LVL211:
 1733              		.loc 1 838 0
 1734 001e 0523     		movs	r3, #5
 1735 0020 2371     		strb	r3, [r4, #4]
 1736 0022 0020     		movs	r0, #0
 1737 0024 10BD     		pop	{r4, pc}
 1738              	.LVL212:
 1739              	.L126:
 1740              	.LBE136:
 1741              	.LBE135:
 1742              		.loc 1 831 0
 1743 0026 0120     		movs	r0, #1
 1744              	.LVL213:
 1745              		.loc 1 840 0
 1746 0028 10BD     		pop	{r4, pc}
 1747              	.LVL214:
 1748              	.L128:
 1749 002a 00BF     		.align	2
 1750              	.L127:
 1751 002c 00000000 		.word	.LANCHOR4
 1752              		.cfi_endproc
 1753              	.LFE300:
 1754              		.size	mmcStopSequentialWrite, .-mmcStopSequentialWrite
 1755              		.section	.text.mmc_write,"ax",%progbits
 1756              		.align	1
 1757              		.thumb
 1758              		.thumb_func
 1759              		.type	mmc_write, %function
 1760              	mmc_write:
 1761              	.LFB278:
 1762              		.loc 1 134 0
 1763              		.cfi_startproc
 1764              		@ args = 0, pretend = 0, frame = 0
 1765              		@ frame_needed = 0, uses_anonymous_args = 0
 1766              	.LVL215:
 1767 0000 70B5     		push	{r4, r5, r6, lr}
ARM GAS  /tmp/ccd673kL.s 			page 32


 1768              		.cfi_def_cfa_offset 16
 1769              		.cfi_offset 4, -16
 1770              		.cfi_offset 5, -12
 1771              		.cfi_offset 6, -8
 1772              		.cfi_offset 14, -4
 1773              		.loc 1 134 0
 1774 0002 0646     		mov	r6, r0
 1775 0004 1546     		mov	r5, r2
 1776 0006 1C46     		mov	r4, r3
 1777              		.loc 1 136 0
 1778 0008 FFF7FEFF 		bl	mmcStartSequentialWrite
 1779              	.LVL216:
 1780 000c 68B9     		cbnz	r0, .L132
 1781              	.LVL217:
 1782              	.L131:
 1783              		.loc 1 141 0
 1784 000e 3046     		mov	r0, r6
 1785              		.loc 1 140 0
 1786 0010 3CB1     		cbz	r4, .L134
 1787              	.LVL218:
 1788              		.loc 1 141 0
 1789 0012 2946     		mov	r1, r5
 1790 0014 FFF7FEFF 		bl	mmcSequentialWrite
 1791              	.LVL219:
 1792 0018 38B9     		cbnz	r0, .L132
 1793              	.LVL220:
 1794              		.loc 1 144 0
 1795 001a 05F50075 		add	r5, r5, #512
 1796              	.LVL221:
 1797              		.loc 1 145 0
 1798 001e 013C     		subs	r4, r4, #1
 1799              	.LVL222:
 1800 0020 F5E7     		b	.L131
 1801              	.LVL223:
 1802              	.L134:
 1803              		.loc 1 152 0
 1804 0022 BDE87040 		pop	{r4, r5, r6, lr}
 1805              		.cfi_remember_state
 1806              		.cfi_restore 14
 1807              		.cfi_restore 6
 1808              		.cfi_restore 5
 1809              		.cfi_restore 4
 1810              		.cfi_def_cfa_offset 0
 1811              	.LVL224:
 1812              	.LBB139:
 1813              	.LBB140:
 1814              		.loc 1 148 0
 1815 0026 FFF7FEBF 		b	mmcStopSequentialWrite
 1816              	.LVL225:
 1817              	.L132:
 1818              		.cfi_restore_state
 1819              	.LBE140:
 1820              	.LBE139:
 1821              		.loc 1 152 0
 1822 002a 0120     		movs	r0, #1
 1823 002c 70BD     		pop	{r4, r5, r6, pc}
 1824              		.cfi_endproc
ARM GAS  /tmp/ccd673kL.s 			page 33


 1825              	.LFE278:
 1826              		.size	mmc_write, .-mmc_write
 1827              		.section	.text.mmcErase,"ax",%progbits
 1828              		.align	1
 1829              		.global	mmcErase
 1830              		.thumb
 1831              		.thumb_func
 1832              		.type	mmcErase, %function
 1833              	mmcErase:
 1834              	.LFB303:
 1835              		.loc 1 911 0
 1836              		.cfi_startproc
 1837              		@ args = 0, pretend = 0, frame = 0
 1838              		@ frame_needed = 0, uses_anonymous_args = 0
 1839              	.LVL226:
 1840 0000 38B5     		push	{r3, r4, r5, lr}
 1841              		.cfi_def_cfa_offset 16
 1842              		.cfi_offset 3, -16
 1843              		.cfi_offset 4, -12
 1844              		.cfi_offset 5, -8
 1845              		.cfi_offset 14, -4
 1846              		.loc 1 911 0
 1847 0002 1546     		mov	r5, r2
 1848              		.loc 1 916 0
 1849 0004 0722     		movs	r2, #7
 1850              	.LVL227:
 1851 0006 0271     		strb	r2, [r0, #4]
 1852              		.loc 1 919 0
 1853 0008 90F83020 		ldrb	r2, [r0, #48]	@ zero_extendqisi2
 1854              		.loc 1 911 0
 1855 000c 0446     		mov	r4, r0
 1856 000e 0B46     		mov	r3, r1
 1857              		.loc 1 919 0
 1858 0010 0AB9     		cbnz	r2, .L136
 1859              		.loc 1 920 0
 1860 0012 4B02     		lsls	r3, r1, #9
 1861              	.LVL228:
 1862              		.loc 1 921 0
 1863 0014 6D02     		lsls	r5, r5, #9
 1864              	.LVL229:
 1865              	.L136:
 1866              		.loc 1 924 0
 1867 0016 2046     		mov	r0, r4
 1868              	.LVL230:
 1869 0018 2021     		movs	r1, #32
 1870 001a 1A46     		mov	r2, r3
 1871 001c FFF7FEFF 		bl	send_command_R1
 1872              	.LVL231:
 1873 0020 70B9     		cbnz	r0, .L137
 1874              		.loc 1 928 0
 1875 0022 2A46     		mov	r2, r5
 1876 0024 2046     		mov	r0, r4
 1877 0026 2121     		movs	r1, #33
 1878 0028 FFF7FEFF 		bl	send_command_R1
 1879              	.LVL232:
 1880 002c 0246     		mov	r2, r0
 1881 002e 38B9     		cbnz	r0, .L137
ARM GAS  /tmp/ccd673kL.s 			page 34


 1882              		.loc 1 932 0
 1883 0030 2046     		mov	r0, r4
 1884 0032 2621     		movs	r1, #38
 1885 0034 FFF7FEFF 		bl	send_command_R1
 1886              	.LVL233:
 1887 0038 10B9     		cbnz	r0, .L137
 1888              		.loc 1 936 0
 1889 003a 0523     		movs	r3, #5
 1890 003c 2371     		strb	r3, [r4, #4]
 1891              		.loc 1 937 0
 1892 003e 38BD     		pop	{r3, r4, r5, pc}
 1893              	.LVL234:
 1894              	.L137:
 1895              	.LDL2:
 1896              		.loc 1 941 0
 1897 0040 E36A     		ldr	r3, [r4, #44]
 1898 0042 1868     		ldr	r0, [r3]
 1899 0044 FFF7FEFF 		bl	spiStopHook
 1900              	.LVL235:
 1901              		.loc 1 942 0
 1902 0048 0523     		movs	r3, #5
 1903 004a 2371     		strb	r3, [r4, #4]
 1904              		.loc 1 943 0
 1905 004c 0120     		movs	r0, #1
 1906              		.loc 1 944 0
 1907 004e 38BD     		pop	{r3, r4, r5, pc}
 1908              		.cfi_endproc
 1909              	.LFE303:
 1910              		.size	mmcErase, .-mmcErase
 1911              		.section	.rodata.stopcmd.8873,"a",%progbits
 1912              		.set	.LANCHOR2,. + 0
 1913              		.type	stopcmd.8873, %object
 1914              		.size	stopcmd.8873, 7
 1915              	stopcmd.8873:
 1916 0000 4C       		.byte	76
 1917 0001 00       		.byte	0
 1918 0002 00       		.byte	0
 1919 0003 00       		.byte	0
 1920 0004 00       		.byte	0
 1921 0005 01       		.byte	1
 1922 0006 FF       		.byte	-1
 1923              		.section	.rodata.crc7_lookup_table,"a",%progbits
 1924              		.set	.LANCHOR0,. + 0
 1925              		.type	crc7_lookup_table, %object
 1926              		.size	crc7_lookup_table, 256
 1927              	crc7_lookup_table:
 1928 0000 00       		.byte	0
 1929 0001 09       		.byte	9
 1930 0002 12       		.byte	18
 1931 0003 1B       		.byte	27
 1932 0004 24       		.byte	36
 1933 0005 2D       		.byte	45
 1934 0006 36       		.byte	54
 1935 0007 3F       		.byte	63
 1936 0008 48       		.byte	72
 1937 0009 41       		.byte	65
 1938 000a 5A       		.byte	90
ARM GAS  /tmp/ccd673kL.s 			page 35


 1939 000b 53       		.byte	83
 1940 000c 6C       		.byte	108
 1941 000d 65       		.byte	101
 1942 000e 7E       		.byte	126
 1943 000f 77       		.byte	119
 1944 0010 19       		.byte	25
 1945 0011 10       		.byte	16
 1946 0012 0B       		.byte	11
 1947 0013 02       		.byte	2
 1948 0014 3D       		.byte	61
 1949 0015 34       		.byte	52
 1950 0016 2F       		.byte	47
 1951 0017 26       		.byte	38
 1952 0018 51       		.byte	81
 1953 0019 58       		.byte	88
 1954 001a 43       		.byte	67
 1955 001b 4A       		.byte	74
 1956 001c 75       		.byte	117
 1957 001d 7C       		.byte	124
 1958 001e 67       		.byte	103
 1959 001f 6E       		.byte	110
 1960 0020 32       		.byte	50
 1961 0021 3B       		.byte	59
 1962 0022 20       		.byte	32
 1963 0023 29       		.byte	41
 1964 0024 16       		.byte	22
 1965 0025 1F       		.byte	31
 1966 0026 04       		.byte	4
 1967 0027 0D       		.byte	13
 1968 0028 7A       		.byte	122
 1969 0029 73       		.byte	115
 1970 002a 68       		.byte	104
 1971 002b 61       		.byte	97
 1972 002c 5E       		.byte	94
 1973 002d 57       		.byte	87
 1974 002e 4C       		.byte	76
 1975 002f 45       		.byte	69
 1976 0030 2B       		.byte	43
 1977 0031 22       		.byte	34
 1978 0032 39       		.byte	57
 1979 0033 30       		.byte	48
 1980 0034 0F       		.byte	15
 1981 0035 06       		.byte	6
 1982 0036 1D       		.byte	29
 1983 0037 14       		.byte	20
 1984 0038 63       		.byte	99
 1985 0039 6A       		.byte	106
 1986 003a 71       		.byte	113
 1987 003b 78       		.byte	120
 1988 003c 47       		.byte	71
 1989 003d 4E       		.byte	78
 1990 003e 55       		.byte	85
 1991 003f 5C       		.byte	92
 1992 0040 64       		.byte	100
 1993 0041 6D       		.byte	109
 1994 0042 76       		.byte	118
 1995 0043 7F       		.byte	127
ARM GAS  /tmp/ccd673kL.s 			page 36


 1996 0044 40       		.byte	64
 1997 0045 49       		.byte	73
 1998 0046 52       		.byte	82
 1999 0047 5B       		.byte	91
 2000 0048 2C       		.byte	44
 2001 0049 25       		.byte	37
 2002 004a 3E       		.byte	62
 2003 004b 37       		.byte	55
 2004 004c 08       		.byte	8
 2005 004d 01       		.byte	1
 2006 004e 1A       		.byte	26
 2007 004f 13       		.byte	19
 2008 0050 7D       		.byte	125
 2009 0051 74       		.byte	116
 2010 0052 6F       		.byte	111
 2011 0053 66       		.byte	102
 2012 0054 59       		.byte	89
 2013 0055 50       		.byte	80
 2014 0056 4B       		.byte	75
 2015 0057 42       		.byte	66
 2016 0058 35       		.byte	53
 2017 0059 3C       		.byte	60
 2018 005a 27       		.byte	39
 2019 005b 2E       		.byte	46
 2020 005c 11       		.byte	17
 2021 005d 18       		.byte	24
 2022 005e 03       		.byte	3
 2023 005f 0A       		.byte	10
 2024 0060 56       		.byte	86
 2025 0061 5F       		.byte	95
 2026 0062 44       		.byte	68
 2027 0063 4D       		.byte	77
 2028 0064 72       		.byte	114
 2029 0065 7B       		.byte	123
 2030 0066 60       		.byte	96
 2031 0067 69       		.byte	105
 2032 0068 1E       		.byte	30
 2033 0069 17       		.byte	23
 2034 006a 0C       		.byte	12
 2035 006b 05       		.byte	5
 2036 006c 3A       		.byte	58
 2037 006d 33       		.byte	51
 2038 006e 28       		.byte	40
 2039 006f 21       		.byte	33
 2040 0070 4F       		.byte	79
 2041 0071 46       		.byte	70
 2042 0072 5D       		.byte	93
 2043 0073 54       		.byte	84
 2044 0074 6B       		.byte	107
 2045 0075 62       		.byte	98
 2046 0076 79       		.byte	121
 2047 0077 70       		.byte	112
 2048 0078 07       		.byte	7
 2049 0079 0E       		.byte	14
 2050 007a 15       		.byte	21
 2051 007b 1C       		.byte	28
 2052 007c 23       		.byte	35
ARM GAS  /tmp/ccd673kL.s 			page 37


 2053 007d 2A       		.byte	42
 2054 007e 31       		.byte	49
 2055 007f 38       		.byte	56
 2056 0080 41       		.byte	65
 2057 0081 48       		.byte	72
 2058 0082 53       		.byte	83
 2059 0083 5A       		.byte	90
 2060 0084 65       		.byte	101
 2061 0085 6C       		.byte	108
 2062 0086 77       		.byte	119
 2063 0087 7E       		.byte	126
 2064 0088 09       		.byte	9
 2065 0089 00       		.byte	0
 2066 008a 1B       		.byte	27
 2067 008b 12       		.byte	18
 2068 008c 2D       		.byte	45
 2069 008d 24       		.byte	36
 2070 008e 3F       		.byte	63
 2071 008f 36       		.byte	54
 2072 0090 58       		.byte	88
 2073 0091 51       		.byte	81
 2074 0092 4A       		.byte	74
 2075 0093 43       		.byte	67
 2076 0094 7C       		.byte	124
 2077 0095 75       		.byte	117
 2078 0096 6E       		.byte	110
 2079 0097 67       		.byte	103
 2080 0098 10       		.byte	16
 2081 0099 19       		.byte	25
 2082 009a 02       		.byte	2
 2083 009b 0B       		.byte	11
 2084 009c 34       		.byte	52
 2085 009d 3D       		.byte	61
 2086 009e 26       		.byte	38
 2087 009f 2F       		.byte	47
 2088 00a0 73       		.byte	115
 2089 00a1 7A       		.byte	122
 2090 00a2 61       		.byte	97
 2091 00a3 68       		.byte	104
 2092 00a4 57       		.byte	87
 2093 00a5 5E       		.byte	94
 2094 00a6 45       		.byte	69
 2095 00a7 4C       		.byte	76
 2096 00a8 3B       		.byte	59
 2097 00a9 32       		.byte	50
 2098 00aa 29       		.byte	41
 2099 00ab 20       		.byte	32
 2100 00ac 1F       		.byte	31
 2101 00ad 16       		.byte	22
 2102 00ae 0D       		.byte	13
 2103 00af 04       		.byte	4
 2104 00b0 6A       		.byte	106
 2105 00b1 63       		.byte	99
 2106 00b2 78       		.byte	120
 2107 00b3 71       		.byte	113
 2108 00b4 4E       		.byte	78
 2109 00b5 47       		.byte	71
ARM GAS  /tmp/ccd673kL.s 			page 38


 2110 00b6 5C       		.byte	92
 2111 00b7 55       		.byte	85
 2112 00b8 22       		.byte	34
 2113 00b9 2B       		.byte	43
 2114 00ba 30       		.byte	48
 2115 00bb 39       		.byte	57
 2116 00bc 06       		.byte	6
 2117 00bd 0F       		.byte	15
 2118 00be 14       		.byte	20
 2119 00bf 1D       		.byte	29
 2120 00c0 25       		.byte	37
 2121 00c1 2C       		.byte	44
 2122 00c2 37       		.byte	55
 2123 00c3 3E       		.byte	62
 2124 00c4 01       		.byte	1
 2125 00c5 08       		.byte	8
 2126 00c6 13       		.byte	19
 2127 00c7 1A       		.byte	26
 2128 00c8 6D       		.byte	109
 2129 00c9 64       		.byte	100
 2130 00ca 7F       		.byte	127
 2131 00cb 76       		.byte	118
 2132 00cc 49       		.byte	73
 2133 00cd 40       		.byte	64
 2134 00ce 5B       		.byte	91
 2135 00cf 52       		.byte	82
 2136 00d0 3C       		.byte	60
 2137 00d1 35       		.byte	53
 2138 00d2 2E       		.byte	46
 2139 00d3 27       		.byte	39
 2140 00d4 18       		.byte	24
 2141 00d5 11       		.byte	17
 2142 00d6 0A       		.byte	10
 2143 00d7 03       		.byte	3
 2144 00d8 74       		.byte	116
 2145 00d9 7D       		.byte	125
 2146 00da 66       		.byte	102
 2147 00db 6F       		.byte	111
 2148 00dc 50       		.byte	80
 2149 00dd 59       		.byte	89
 2150 00de 42       		.byte	66
 2151 00df 4B       		.byte	75
 2152 00e0 17       		.byte	23
 2153 00e1 1E       		.byte	30
 2154 00e2 05       		.byte	5
 2155 00e3 0C       		.byte	12
 2156 00e4 33       		.byte	51
 2157 00e5 3A       		.byte	58
 2158 00e6 21       		.byte	33
 2159 00e7 28       		.byte	40
 2160 00e8 5F       		.byte	95
 2161 00e9 56       		.byte	86
 2162 00ea 4D       		.byte	77
 2163 00eb 44       		.byte	68
 2164 00ec 7B       		.byte	123
 2165 00ed 72       		.byte	114
 2166 00ee 69       		.byte	105
ARM GAS  /tmp/ccd673kL.s 			page 39


 2167 00ef 60       		.byte	96
 2168 00f0 0E       		.byte	14
 2169 00f1 07       		.byte	7
 2170 00f2 1C       		.byte	28
 2171 00f3 15       		.byte	21
 2172 00f4 2A       		.byte	42
 2173 00f5 23       		.byte	35
 2174 00f6 38       		.byte	56
 2175 00f7 31       		.byte	49
 2176 00f8 46       		.byte	70
 2177 00f9 4F       		.byte	79
 2178 00fa 54       		.byte	84
 2179 00fb 5D       		.byte	93
 2180 00fc 62       		.byte	98
 2181 00fd 6B       		.byte	107
 2182 00fe 70       		.byte	112
 2183 00ff 79       		.byte	121
 2184              		.section	.rodata.stop.8890,"a",%progbits
 2185              		.set	.LANCHOR4,. + 0
 2186              		.type	stop.8890, %object
 2187              		.size	stop.8890, 2
 2188              	stop.8890:
 2189 0000 FD       		.byte	-3
 2190 0001 FF       		.byte	-1
 2191              		.section	.rodata.mmc_vmt,"a",%progbits
 2192              		.align	2
 2193              		.set	.LANCHOR1,. + 0
 2194              		.type	mmc_vmt, %object
 2195              		.size	mmc_vmt, 32
 2196              	mmc_vmt:
 2197 0000 00000000 		.word	mmc_lld_is_card_inserted
 2198 0004 00000000 		.word	mmc_lld_is_write_protected
 2199 0008 00000000 		.word	mmcConnect
 2200 000c 00000000 		.word	mmcDisconnect
 2201 0010 00000000 		.word	mmc_read
 2202 0014 00000000 		.word	mmc_write
 2203 0018 00000000 		.word	mmcSync
 2204 001c 00000000 		.word	mmcGetInfo
 2205              		.section	.rodata.start.8884,"a",%progbits
 2206              		.set	.LANCHOR3,. + 0
 2207              		.type	start.8884, %object
 2208              		.size	start.8884, 2
 2209              	start.8884:
 2210 0000 FF       		.byte	-1
 2211 0001 FC       		.byte	-4
 2212              		.text
 2213              	.Letext0:
 2214              		.file 5 "/usr/lib/gcc/arm-none-eabi/4.9.3/include/stddef.h"
 2215              		.file 6 "/usr/include/newlib/machine/_default_types.h"
 2216              		.file 7 "/usr/include/newlib/sys/_stdint.h"
 2217              		.file 8 "../../modules/ChibiOS/os/common/ports/ARMCMx/compilers/GCC/chtypes.h"
 2218              		.file 9 "../../modules/ChibiOS/os/rt/include/chsystypes.h"
 2219              		.file 10 "../../modules/ChibiOS/os/rt/include/chschd.h"
 2220              		.file 11 "../../modules/ChibiOS/os/common/ext/CMSIS/ST/STM32F4xx/stm32f407xx.h"
 2221              		.file 12 "../../modules/ChibiOS/os/common/ports/ARMCMx/chcore.h"
 2222              		.file 13 "../../modules/ChibiOS/os/common/ports/ARMCMx/chcore_v7m.h"
 2223              		.file 14 "../../modules/ChibiOS/os/rt/include/chtm.h"
ARM GAS  /tmp/ccd673kL.s 			page 40


 2224              		.file 15 "../../modules/ChibiOS/os/rt/include/chstats.h"
 2225              		.file 16 "../../modules/ChibiOS/os/rt/include/chsem.h"
 2226              		.file 17 "../../modules/ChibiOS/os/rt/include/chmtx.h"
 2227              		.file 18 "../../modules/ChibiOS/os/hal/ports/STM32/LLD/DMAv2/stm32_dma.h"
 2228              		.file 19 "../../modules/ChibiOS/os/hal/include/hal_ioblock.h"
 2229              		.file 20 "../../modules/ChibiOS/os/hal/ports/STM32/LLD/GPIOv2/hal_pal_lld.h"
 2230              		.file 21 "../../modules/ChibiOS/os/hal/include/hal_spi.h"
 2231              		.file 22 "../../modules/ChibiOS/os/hal/ports/STM32/LLD/SPIv1/hal_spi_lld.h"
 2232              		.file 23 "../../modules/ChibiOS/os/hal/include/hal_mmc_spi.h"
 2233              		.file 24 "../../libraries/AP_HAL_ChibiOS/hwdef/common/spi_hook.h"
 2234              		.file 25 "../../modules/ChibiOS/os/rt/include/chthreads.h"
 2235              		.file 26 "../../modules/ChibiOS/os/hal/include/hal_mmcsd.h"
 2236              		.file 27 "../../modules/ChibiOS/os/common/ext/CMSIS/include/core_cm4.h"