ARM GAS  /tmp/cczp6DF1.s 			page 1


   1              		.syntax unified
   2              		.cpu cortex-m4
   3              		.eabi_attribute 27, 1
   4              		.eabi_attribute 28, 1
   5              		.fpu fpv4-sp-d16
   6              		.eabi_attribute 20, 1
   7              		.eabi_attribute 21, 1
   8              		.eabi_attribute 23, 3
   9              		.eabi_attribute 24, 1
  10              		.eabi_attribute 25, 1
  11              		.eabi_attribute 26, 1
  12              		.eabi_attribute 30, 4
  13              		.eabi_attribute 34, 1
  14              		.eabi_attribute 18, 4
  15              		.thumb
  16              		.file	"hal_ext.c"
  17              		.text
  18              	.Ltext0:
  19              		.cfi_sections	.debug_frame
  20              		.section	.text.extInit,"ax",%progbits
  21              		.align	1
  22              		.global	extInit
  23              		.thumb
  24              		.thumb_func
  25              		.type	extInit, %function
  26              	extInit:
  27              	.LFB277:
  28              		.file 1 "../../modules/ChibiOS/os/hal/src/hal_ext.c"
  29              		.loc 1 56 0
  30              		.cfi_startproc
  31              		@ args = 0, pretend = 0, frame = 0
  32              		@ frame_needed = 0, uses_anonymous_args = 0
  33              		@ link register save eliminated.
  34              		.loc 1 58 0
  35 0000 FFF7FEBF 		b	ext_lld_init
  36              	.LVL0:
  37              		.cfi_endproc
  38              	.LFE277:
  39              		.size	extInit, .-extInit
  40              		.section	.text.extObjectInit,"ax",%progbits
  41              		.align	1
  42              		.global	extObjectInit
  43              		.thumb
  44              		.thumb_func
  45              		.type	extObjectInit, %function
  46              	extObjectInit:
  47              	.LFB278:
  48              		.loc 1 68 0
  49              		.cfi_startproc
  50              		@ args = 0, pretend = 0, frame = 0
  51              		@ frame_needed = 0, uses_anonymous_args = 0
  52              		@ link register save eliminated.
  53              	.LVL1:
  54              		.loc 1 70 0
  55 0000 0123     		movs	r3, #1
  56 0002 0370     		strb	r3, [r0]
  57              		.loc 1 71 0
ARM GAS  /tmp/cczp6DF1.s 			page 2


  58 0004 0023     		movs	r3, #0
  59 0006 4360     		str	r3, [r0, #4]
  60 0008 7047     		bx	lr
  61              		.cfi_endproc
  62              	.LFE278:
  63              		.size	extObjectInit, .-extObjectInit
  64              		.section	.text.extStart,"ax",%progbits
  65              		.align	1
  66              		.global	extStart
  67              		.thumb
  68              		.thumb_func
  69              		.type	extStart, %function
  70              	extStart:
  71              	.LFB279:
  72              		.loc 1 84 0
  73              		.cfi_startproc
  74              		@ args = 0, pretend = 0, frame = 0
  75              		@ frame_needed = 0, uses_anonymous_args = 0
  76              	.LVL2:
  77 0000 38B5     		push	{r3, r4, r5, lr}
  78              		.cfi_def_cfa_offset 16
  79              		.cfi_offset 3, -16
  80              		.cfi_offset 4, -12
  81              		.cfi_offset 5, -8
  82              		.cfi_offset 14, -4
  83              		.loc 1 84 0
  84 0002 0446     		mov	r4, r0
  85 0004 0D46     		mov	r5, r1
  86              	.LBB44:
  87              	.LBB45:
  88              	.LBB46:
  89              	.LBB47:
  90              	.LBB48:
  91              	.LBB49:
  92              		.file 2 "../../modules/ChibiOS/os/common/ext/CMSIS/include/cmsis_gcc.h"
  93              		.loc 2 264 0
  94 0006 2023     		movs	r3, #32
  95              	@ 264 "../../modules/ChibiOS/os/common/ext/CMSIS/include/cmsis_gcc.h" 1
  96 0008 83F31188 		MSR basepri, r3
  97              	@ 0 "" 2
  98              		.thumb
  99              	.LBE49:
 100              	.LBE48:
 101              	.LBE47:
 102              		.file 3 "../../modules/ChibiOS/os/rt/include/chsys.h"
 103              		.loc 3 377 0
 104 000c FFF7FEFF 		bl	_stats_start_measure_crit_thd
 105              	.LVL3:
 106              	.LBE46:
 107              	.LBE45:
 108              	.LBE44:
 109              		.loc 1 92 0
 110 0010 2046     		mov	r0, r4
 111              		.loc 1 91 0
 112 0012 6560     		str	r5, [r4, #4]
 113              		.loc 1 92 0
 114 0014 FFF7FEFF 		bl	ext_lld_start
ARM GAS  /tmp/cczp6DF1.s 			page 3


 115              	.LVL4:
 116              		.loc 1 93 0
 117 0018 0223     		movs	r3, #2
 118 001a 2370     		strb	r3, [r4]
 119              	.LBB50:
 120              	.LBB51:
 121              	.LBB52:
 122              		.loc 3 389 0
 123 001c FFF7FEFF 		bl	_stats_stop_measure_crit_thd
 124              	.LVL5:
 125              	.LBB53:
 126              	.LBB54:
 127              	.LBB55:
 128              		.loc 2 264 0
 129 0020 0023     		movs	r3, #0
 130              	@ 264 "../../modules/ChibiOS/os/common/ext/CMSIS/include/cmsis_gcc.h" 1
 131 0022 83F31188 		MSR basepri, r3
 132              	@ 0 "" 2
 133              		.thumb
 134 0026 38BD     		pop	{r3, r4, r5, pc}
 135              	.LBE55:
 136              	.LBE54:
 137              	.LBE53:
 138              	.LBE52:
 139              	.LBE51:
 140              	.LBE50:
 141              		.cfi_endproc
 142              	.LFE279:
 143              		.size	extStart, .-extStart
 144              		.section	.text.extStop,"ax",%progbits
 145              		.align	1
 146              		.global	extStop
 147              		.thumb
 148              		.thumb_func
 149              		.type	extStop, %function
 150              	extStop:
 151              	.LFB280:
 152              		.loc 1 104 0
 153              		.cfi_startproc
 154              		@ args = 0, pretend = 0, frame = 0
 155              		@ frame_needed = 0, uses_anonymous_args = 0
 156              	.LVL6:
 157 0000 38B5     		push	{r3, r4, r5, lr}
 158              		.cfi_def_cfa_offset 16
 159              		.cfi_offset 3, -16
 160              		.cfi_offset 4, -12
 161              		.cfi_offset 5, -8
 162              		.cfi_offset 14, -4
 163              		.loc 1 104 0
 164 0002 0446     		mov	r4, r0
 165              	.LBB70:
 166              	.LBB71:
 167              	.LBB72:
 168              	.LBB73:
 169              	.LBB74:
 170              	.LBB75:
 171              		.loc 2 264 0
ARM GAS  /tmp/cczp6DF1.s 			page 4


 172 0004 2023     		movs	r3, #32
 173              	@ 264 "../../modules/ChibiOS/os/common/ext/CMSIS/include/cmsis_gcc.h" 1
 174 0006 83F31188 		MSR basepri, r3
 175              	@ 0 "" 2
 176              		.thumb
 177              	.LBE75:
 178              	.LBE74:
 179              	.LBE73:
 180              		.loc 3 377 0
 181 000a FFF7FEFF 		bl	_stats_start_measure_crit_thd
 182              	.LVL7:
 183              	.LBE72:
 184              	.LBE71:
 185              	.LBE70:
 186              		.loc 1 113 0
 187 000e 2046     		mov	r0, r4
 188 0010 FFF7FEFF 		bl	ext_lld_stop
 189              	.LVL8:
 190              		.loc 1 114 0
 191 0014 0025     		movs	r5, #0
 192              		.loc 1 115 0
 193 0016 0123     		movs	r3, #1
 194              		.loc 1 114 0
 195 0018 6560     		str	r5, [r4, #4]
 196              		.loc 1 115 0
 197 001a 2370     		strb	r3, [r4]
 198              	.LBB76:
 199              	.LBB77:
 200              	.LBB78:
 201              		.loc 3 389 0
 202 001c FFF7FEFF 		bl	_stats_stop_measure_crit_thd
 203              	.LVL9:
 204              	.LBB79:
 205              	.LBB80:
 206              	.LBB81:
 207              		.loc 2 264 0
 208              	@ 264 "../../modules/ChibiOS/os/common/ext/CMSIS/include/cmsis_gcc.h" 1
 209 0020 85F31188 		MSR basepri, r5
 210              	@ 0 "" 2
 211              		.thumb
 212 0024 38BD     		pop	{r3, r4, r5, pc}
 213              	.LBE81:
 214              	.LBE80:
 215              	.LBE79:
 216              	.LBE78:
 217              	.LBE77:
 218              	.LBE76:
 219              		.cfi_endproc
 220              	.LFE280:
 221              		.size	extStop, .-extStop
 222              		.section	.text.extChannelEnable,"ax",%progbits
 223              		.align	1
 224              		.global	extChannelEnable
 225              		.thumb
 226              		.thumb_func
 227              		.type	extChannelEnable, %function
 228              	extChannelEnable:
ARM GAS  /tmp/cczp6DF1.s 			page 5


 229              	.LFB281:
 230              		.loc 1 129 0
 231              		.cfi_startproc
 232              		@ args = 0, pretend = 0, frame = 0
 233              		@ frame_needed = 0, uses_anonymous_args = 0
 234              	.LVL10:
 235 0000 38B5     		push	{r3, r4, r5, lr}
 236              		.cfi_def_cfa_offset 16
 237              		.cfi_offset 3, -16
 238              		.cfi_offset 4, -12
 239              		.cfi_offset 5, -8
 240              		.cfi_offset 14, -4
 241              		.loc 1 129 0
 242 0002 0546     		mov	r5, r0
 243 0004 0C46     		mov	r4, r1
 244              	.LBB96:
 245              	.LBB97:
 246              	.LBB98:
 247              	.LBB99:
 248              	.LBB100:
 249              	.LBB101:
 250              		.loc 2 264 0
 251 0006 2023     		movs	r3, #32
 252              	@ 264 "../../modules/ChibiOS/os/common/ext/CMSIS/include/cmsis_gcc.h" 1
 253 0008 83F31188 		MSR basepri, r3
 254              	@ 0 "" 2
 255              		.thumb
 256              	.LBE101:
 257              	.LBE100:
 258              	.LBE99:
 259              		.loc 3 377 0
 260 000c FFF7FEFF 		bl	_stats_start_measure_crit_thd
 261              	.LVL11:
 262              	.LBE98:
 263              	.LBE97:
 264              	.LBE96:
 265              		.loc 1 138 0
 266 0010 2846     		mov	r0, r5
 267 0012 2146     		mov	r1, r4
 268 0014 FFF7FEFF 		bl	ext_lld_channel_enable
 269              	.LVL12:
 270              	.LBB102:
 271              	.LBB103:
 272              	.LBB104:
 273              		.loc 3 389 0
 274 0018 FFF7FEFF 		bl	_stats_stop_measure_crit_thd
 275              	.LVL13:
 276              	.LBB105:
 277              	.LBB106:
 278              	.LBB107:
 279              		.loc 2 264 0
 280 001c 0023     		movs	r3, #0
 281              	@ 264 "../../modules/ChibiOS/os/common/ext/CMSIS/include/cmsis_gcc.h" 1
 282 001e 83F31188 		MSR basepri, r3
 283              	@ 0 "" 2
 284              		.thumb
 285 0022 38BD     		pop	{r3, r4, r5, pc}
ARM GAS  /tmp/cczp6DF1.s 			page 6


 286              	.LBE107:
 287              	.LBE106:
 288              	.LBE105:
 289              	.LBE104:
 290              	.LBE103:
 291              	.LBE102:
 292              		.cfi_endproc
 293              	.LFE281:
 294              		.size	extChannelEnable, .-extChannelEnable
 295              		.section	.text.extChannelDisable,"ax",%progbits
 296              		.align	1
 297              		.global	extChannelDisable
 298              		.thumb
 299              		.thumb_func
 300              		.type	extChannelDisable, %function
 301              	extChannelDisable:
 302              	.LFB282:
 303              		.loc 1 151 0
 304              		.cfi_startproc
 305              		@ args = 0, pretend = 0, frame = 0
 306              		@ frame_needed = 0, uses_anonymous_args = 0
 307              	.LVL14:
 308 0000 38B5     		push	{r3, r4, r5, lr}
 309              		.cfi_def_cfa_offset 16
 310              		.cfi_offset 3, -16
 311              		.cfi_offset 4, -12
 312              		.cfi_offset 5, -8
 313              		.cfi_offset 14, -4
 314              		.loc 1 151 0
 315 0002 0546     		mov	r5, r0
 316 0004 0C46     		mov	r4, r1
 317              	.LBB122:
 318              	.LBB123:
 319              	.LBB124:
 320              	.LBB125:
 321              	.LBB126:
 322              	.LBB127:
 323              		.loc 2 264 0
 324 0006 2023     		movs	r3, #32
 325              	@ 264 "../../modules/ChibiOS/os/common/ext/CMSIS/include/cmsis_gcc.h" 1
 326 0008 83F31188 		MSR basepri, r3
 327              	@ 0 "" 2
 328              		.thumb
 329              	.LBE127:
 330              	.LBE126:
 331              	.LBE125:
 332              		.loc 3 377 0
 333 000c FFF7FEFF 		bl	_stats_start_measure_crit_thd
 334              	.LVL15:
 335              	.LBE124:
 336              	.LBE123:
 337              	.LBE122:
 338              		.loc 1 160 0
 339 0010 2846     		mov	r0, r5
 340 0012 2146     		mov	r1, r4
 341 0014 FFF7FEFF 		bl	ext_lld_channel_disable
 342              	.LVL16:
ARM GAS  /tmp/cczp6DF1.s 			page 7


 343              	.LBB128:
 344              	.LBB129:
 345              	.LBB130:
 346              		.loc 3 389 0
 347 0018 FFF7FEFF 		bl	_stats_stop_measure_crit_thd
 348              	.LVL17:
 349              	.LBB131:
 350              	.LBB132:
 351              	.LBB133:
 352              		.loc 2 264 0
 353 001c 0023     		movs	r3, #0
 354              	@ 264 "../../modules/ChibiOS/os/common/ext/CMSIS/include/cmsis_gcc.h" 1
 355 001e 83F31188 		MSR basepri, r3
 356              	@ 0 "" 2
 357              		.thumb
 358 0022 38BD     		pop	{r3, r4, r5, pc}
 359              	.LBE133:
 360              	.LBE132:
 361              	.LBE131:
 362              	.LBE130:
 363              	.LBE129:
 364              	.LBE128:
 365              		.cfi_endproc
 366              	.LFE282:
 367              		.size	extChannelDisable, .-extChannelDisable
 368              		.section	.text.extSetChannelModeI,"ax",%progbits
 369              		.align	1
 370              		.global	extSetChannelModeI
 371              		.thumb
 372              		.thumb_func
 373              		.type	extSetChannelModeI, %function
 374              	extSetChannelModeI:
 375              	.LFB283:
 376              		.loc 1 183 0
 377              		.cfi_startproc
 378              		@ args = 0, pretend = 0, frame = 0
 379              		@ frame_needed = 0, uses_anonymous_args = 0
 380              	.LVL18:
 381 0000 30B5     		push	{r4, r5, lr}
 382              		.cfi_def_cfa_offset 12
 383              		.cfi_offset 4, -12
 384              		.cfi_offset 5, -8
 385              		.cfi_offset 14, -4
 386              		.loc 1 200 0
 387 0002 4368     		ldr	r3, [r0, #4]
 388              		.loc 1 183 0
 389 0004 0546     		mov	r5, r0
 390 0006 0C46     		mov	r4, r1
 391              		.loc 1 200 0
 392 0008 03EBC103 		add	r3, r3, r1, lsl #3
 393 000c 92E80300 		ldmia	r2, {r0, r1}
 394              	.LVL19:
 395 0010 83E80300 		stmia	r3, {r0, r1}
 396              	.LVL20:
 397              		.loc 1 201 0
 398 0014 2846     		mov	r0, r5
 399 0016 2146     		mov	r1, r4
ARM GAS  /tmp/cczp6DF1.s 			page 8


 400              		.loc 1 202 0
 401 0018 BDE83040 		pop	{r4, r5, lr}
 402              		.cfi_restore 14
 403              		.cfi_restore 5
 404              		.cfi_restore 4
 405              		.cfi_def_cfa_offset 0
 406              	.LVL21:
 407              		.loc 1 201 0
 408 001c FFF7FEBF 		b	ext_lld_channel_enable
 409              	.LVL22:
 410              		.cfi_endproc
 411              	.LFE283:
 412              		.size	extSetChannelModeI, .-extSetChannelModeI
 413              		.text
 414              	.Letext0:
 415              		.file 4 "/usr/include/newlib/machine/_default_types.h"
 416              		.file 5 "/usr/include/newlib/sys/_stdint.h"
 417              		.file 6 "../../modules/ChibiOS/os/common/ports/ARMCMx/compilers/GCC/chtypes.h"
 418              		.file 7 "../../modules/ChibiOS/os/rt/include/chsystypes.h"
 419              		.file 8 "../../modules/ChibiOS/os/rt/include/chschd.h"
 420              		.file 9 "../../modules/ChibiOS/os/common/ports/ARMCMx/chcore.h"
 421              		.file 10 "../../modules/ChibiOS/os/common/ports/ARMCMx/chcore_v7m.h"
 422              		.file 11 "../../modules/ChibiOS/os/rt/include/chtm.h"
 423              		.file 12 "../../modules/ChibiOS/os/rt/include/chstats.h"
 424              		.file 13 "../../modules/ChibiOS/os/rt/include/chsem.h"
 425              		.file 14 "../../modules/ChibiOS/os/rt/include/chmtx.h"
 426              		.file 15 "../../modules/ChibiOS/os/hal/include/hal_ext.h"
 427              		.file 16 "../../modules/ChibiOS/os/hal/ports/STM32/LLD/EXTIv1/hal_ext_lld.h"
 428              		.file 17 "../../modules/ChibiOS/os/hal/osal/rt/osal.h"
 429              		.file 18 "../../modules/ChibiOS/os/common/ext/CMSIS/include/core_cm4.h"
 430              		.section	.debug_info,"",%progbits
 431              	.Ldebug_info0:
 432 0000 D70E0000 		.4byte	0xed7
 433 0004 0400     		.2byte	0x4
 434 0006 00000000 		.4byte	.Ldebug_abbrev0
 435 000a 04       		.byte	0x4
 436 000b 01       		.uleb128 0x1
 437 000c 93020000 		.4byte	.LASF141
 438 0010 01       		.byte	0x1
 439 0011 F1010000 		.4byte	.LASF142
 440 0015 6D010000 		.4byte	.LASF143
 441 0019 00000000 		.4byte	.Ldebug_ranges0+0
 442 001d 00000000 		.4byte	0
 443 0021 00000000 		.4byte	.Ldebug_line0
 444 0025 02       		.uleb128 0x2
 445 0026 04       		.byte	0x4
 446 0027 05       		.byte	0x5
 447 0028 696E7400 		.ascii	"int\000"
 448 002c 03       		.uleb128 0x3
 449 002d 04       		.byte	0x4
 450 002e 07       		.byte	0x7
 451 002f 86020000 		.4byte	.LASF0
 452 0033 03       		.uleb128 0x3
 453 0034 01       		.byte	0x1
 454 0035 06       		.byte	0x6
 455 0036 36000000 		.4byte	.LASF1
 456 003a 04       		.uleb128 0x4
ARM GAS  /tmp/cczp6DF1.s 			page 9


 457 003b 42000000 		.4byte	.LASF5
 458 003f 04       		.byte	0x4
 459 0040 1D       		.byte	0x1d
 460 0041 45000000 		.4byte	0x45
 461 0045 03       		.uleb128 0x3
 462 0046 01       		.byte	0x1
 463 0047 08       		.byte	0x8
 464 0048 6F050000 		.4byte	.LASF2
 465 004c 03       		.uleb128 0x3
 466 004d 02       		.byte	0x2
 467 004e 05       		.byte	0x5
 468 004f 85050000 		.4byte	.LASF3
 469 0053 03       		.uleb128 0x3
 470 0054 02       		.byte	0x2
 471 0055 07       		.byte	0x7
 472 0056 B1030000 		.4byte	.LASF4
 473 005a 04       		.uleb128 0x4
 474 005b 4D040000 		.4byte	.LASF6
 475 005f 04       		.byte	0x4
 476 0060 3F       		.byte	0x3f
 477 0061 65000000 		.4byte	0x65
 478 0065 03       		.uleb128 0x3
 479 0066 04       		.byte	0x4
 480 0067 05       		.byte	0x5
 481 0068 D4010000 		.4byte	.LASF7
 482 006c 04       		.uleb128 0x4
 483 006d 2D020000 		.4byte	.LASF8
 484 0071 04       		.byte	0x4
 485 0072 41       		.byte	0x41
 486 0073 77000000 		.4byte	0x77
 487 0077 03       		.uleb128 0x3
 488 0078 04       		.byte	0x4
 489 0079 07       		.byte	0x7
 490 007a 28060000 		.4byte	.LASF9
 491 007e 03       		.uleb128 0x3
 492 007f 08       		.byte	0x8
 493 0080 05       		.byte	0x5
 494 0081 45010000 		.4byte	.LASF10
 495 0085 04       		.uleb128 0x4
 496 0086 12050000 		.4byte	.LASF11
 497 008a 04       		.byte	0x4
 498 008b 5B       		.byte	0x5b
 499 008c 90000000 		.4byte	0x90
 500 0090 03       		.uleb128 0x3
 501 0091 08       		.byte	0x8
 502 0092 07       		.byte	0x7
 503 0093 C0000000 		.4byte	.LASF12
 504 0097 04       		.uleb128 0x4
 505 0098 EA060000 		.4byte	.LASF13
 506 009c 05       		.byte	0x5
 507 009d 14       		.byte	0x14
 508 009e 3A000000 		.4byte	0x3a
 509 00a2 04       		.uleb128 0x4
 510 00a3 67050000 		.4byte	.LASF14
 511 00a7 05       		.byte	0x5
 512 00a8 1F       		.byte	0x1f
 513 00a9 5A000000 		.4byte	0x5a
ARM GAS  /tmp/cczp6DF1.s 			page 10


 514 00ad 04       		.uleb128 0x4
 515 00ae 02060000 		.4byte	.LASF15
 516 00b2 05       		.byte	0x5
 517 00b3 20       		.byte	0x20
 518 00b4 6C000000 		.4byte	0x6c
 519 00b8 04       		.uleb128 0x4
 520 00b9 20000000 		.4byte	.LASF16
 521 00bd 05       		.byte	0x5
 522 00be 26       		.byte	0x26
 523 00bf 85000000 		.4byte	0x85
 524 00c3 04       		.uleb128 0x4
 525 00c4 A8060000 		.4byte	.LASF17
 526 00c8 06       		.byte	0x6
 527 00c9 39       		.byte	0x39
 528 00ca AD000000 		.4byte	0xad
 529 00ce 04       		.uleb128 0x4
 530 00cf 1B010000 		.4byte	.LASF18
 531 00d3 06       		.byte	0x6
 532 00d4 3A       		.byte	0x3a
 533 00d5 B8000000 		.4byte	0xb8
 534 00d9 04       		.uleb128 0x4
 535 00da 20040000 		.4byte	.LASF19
 536 00de 06       		.byte	0x6
 537 00df 3C       		.byte	0x3c
 538 00e0 97000000 		.4byte	0x97
 539 00e4 04       		.uleb128 0x4
 540 00e5 DD010000 		.4byte	.LASF20
 541 00e9 06       		.byte	0x6
 542 00ea 3D       		.byte	0x3d
 543 00eb 97000000 		.4byte	0x97
 544 00ef 04       		.uleb128 0x4
 545 00f0 28050000 		.4byte	.LASF21
 546 00f4 06       		.byte	0x6
 547 00f5 3E       		.byte	0x3e
 548 00f6 97000000 		.4byte	0x97
 549 00fa 04       		.uleb128 0x4
 550 00fb 45050000 		.4byte	.LASF22
 551 00ff 06       		.byte	0x6
 552 0100 40       		.byte	0x40
 553 0101 AD000000 		.4byte	0xad
 554 0105 04       		.uleb128 0x4
 555 0106 EC030000 		.4byte	.LASF23
 556 010a 06       		.byte	0x6
 557 010b 41       		.byte	0x41
 558 010c A2000000 		.4byte	0xa2
 559 0110 04       		.uleb128 0x4
 560 0111 41040000 		.4byte	.LASF24
 561 0115 06       		.byte	0x6
 562 0116 43       		.byte	0x43
 563 0117 AD000000 		.4byte	0xad
 564 011b 04       		.uleb128 0x4
 565 011c 80020000 		.4byte	.LASF25
 566 0120 06       		.byte	0x6
 567 0121 45       		.byte	0x45
 568 0122 A2000000 		.4byte	0xa2
 569 0126 04       		.uleb128 0x4
 570 0127 F7030000 		.4byte	.LASF26
ARM GAS  /tmp/cczp6DF1.s 			page 11


 571 012b 06       		.byte	0x6
 572 012c 46       		.byte	0x46
 573 012d AD000000 		.4byte	0xad
 574 0131 04       		.uleb128 0x4
 575 0132 76060000 		.4byte	.LASF27
 576 0136 07       		.byte	0x7
 577 0137 33       		.byte	0x33
 578 0138 AD000000 		.4byte	0xad
 579 013c 04       		.uleb128 0x4
 580 013d 68060000 		.4byte	.LASF28
 581 0141 07       		.byte	0x7
 582 0142 3F       		.byte	0x3f
 583 0143 47010000 		.4byte	0x147
 584 0147 05       		.uleb128 0x5
 585 0148 D8030000 		.4byte	.LASF47
 586 014c 60       		.byte	0x60
 587 014d 08       		.byte	0x8
 588 014e 9A       		.byte	0x9a
 589 014f 32020000 		.4byte	0x232
 590 0153 06       		.uleb128 0x6
 591 0154 A5030000 		.4byte	.LASF29
 592 0158 08       		.byte	0x8
 593 0159 9B       		.byte	0x9b
 594 015a 67020000 		.4byte	0x267
 595 015e 00       		.byte	0
 596 015f 06       		.uleb128 0x6
 597 0160 05050000 		.4byte	.LASF30
 598 0164 08       		.byte	0x8
 599 0165 9C       		.byte	0x9c
 600 0166 FA000000 		.4byte	0xfa
 601 016a 08       		.byte	0x8
 602 016b 07       		.uleb128 0x7
 603 016c 63747800 		.ascii	"ctx\000"
 604 0170 08       		.byte	0x8
 605 0171 9D       		.byte	0x9d
 606 0172 6C040000 		.4byte	0x46c
 607 0176 0C       		.byte	0xc
 608 0177 06       		.uleb128 0x6
 609 0178 62040000 		.4byte	.LASF31
 610 017c 08       		.byte	0x8
 611 017d 9F       		.byte	0x9f
 612 017e 3D020000 		.4byte	0x23d
 613 0182 10       		.byte	0x10
 614 0183 06       		.uleb128 0x6
 615 0184 48060000 		.4byte	.LASF32
 616 0188 08       		.byte	0x8
 617 0189 A0       		.byte	0xa0
 618 018a 3D020000 		.4byte	0x23d
 619 018e 14       		.byte	0x14
 620 018f 06       		.uleb128 0x6
 621 0190 D3030000 		.4byte	.LASF33
 622 0194 08       		.byte	0x8
 623 0195 A7       		.byte	0xa7
 624 0196 53070000 		.4byte	0x753
 625 019a 18       		.byte	0x18
 626 019b 06       		.uleb128 0x6
 627 019c BE010000 		.4byte	.LASF34
ARM GAS  /tmp/cczp6DF1.s 			page 12


 628 01a0 08       		.byte	0x8
 629 01a1 B0       		.byte	0xb0
 630 01a2 65070000 		.4byte	0x765
 631 01a6 1C       		.byte	0x1c
 632 01a7 06       		.uleb128 0x6
 633 01a8 C5010000 		.4byte	.LASF35
 634 01ac 08       		.byte	0x8
 635 01ad B5       		.byte	0xb5
 636 01ae E4000000 		.4byte	0xe4
 637 01b2 20       		.byte	0x20
 638 01b3 06       		.uleb128 0x6
 639 01b4 F2060000 		.4byte	.LASF36
 640 01b8 08       		.byte	0x8
 641 01b9 B9       		.byte	0xb9
 642 01ba D9000000 		.4byte	0xd9
 643 01be 21       		.byte	0x21
 644 01bf 06       		.uleb128 0x6
 645 01c0 30050000 		.4byte	.LASF37
 646 01c4 08       		.byte	0x8
 647 01c5 BE       		.byte	0xbe
 648 01c6 EF000000 		.4byte	0xef
 649 01ca 22       		.byte	0x22
 650 01cb 08       		.uleb128 0x8
 651 01cc 7500     		.ascii	"u\000"
 652 01ce 08       		.byte	0x8
 653 01cf 0F01     		.2byte	0x10f
 654 01d1 88060000 		.4byte	0x688
 655 01d5 24       		.byte	0x24
 656 01d6 09       		.uleb128 0x9
 657 01d7 51020000 		.4byte	.LASF38
 658 01db 08       		.byte	0x8
 659 01dc 1401     		.2byte	0x114
 660 01de 43020000 		.4byte	0x243
 661 01e2 28       		.byte	0x28
 662 01e3 09       		.uleb128 0x9
 663 01e4 A8010000 		.4byte	.LASF39
 664 01e8 08       		.byte	0x8
 665 01e9 1A01     		.2byte	0x11a
 666 01eb 67020000 		.4byte	0x267
 667 01ef 2C       		.byte	0x2c
 668 01f0 09       		.uleb128 0x9
 669 01f1 FE030000 		.4byte	.LASF40
 670 01f5 08       		.byte	0x8
 671 01f6 2001     		.2byte	0x120
 672 01f8 10010000 		.4byte	0x110
 673 01fc 34       		.byte	0x34
 674 01fd 09       		.uleb128 0x9
 675 01fe 38070000 		.4byte	.LASF41
 676 0202 08       		.byte	0x8
 677 0203 2701     		.2byte	0x127
 678 0205 4D070000 		.4byte	0x74d
 679 0209 38       		.byte	0x38
 680 020a 09       		.uleb128 0x9
 681 020b 68040000 		.4byte	.LASF42
 682 020f 08       		.byte	0x8
 683 0210 2B01     		.2byte	0x12b
 684 0212 FA000000 		.4byte	0xfa
ARM GAS  /tmp/cczp6DF1.s 			page 13


 685 0216 3C       		.byte	0x3c
 686 0217 09       		.uleb128 0x9
 687 0218 AB030000 		.4byte	.LASF43
 688 021c 08       		.byte	0x8
 689 021d 3201     		.2byte	0x132
 690 021f 1A030000 		.4byte	0x31a
 691 0223 40       		.byte	0x40
 692 0224 09       		.uleb128 0x9
 693 0225 EB010000 		.4byte	.LASF44
 694 0229 08       		.byte	0x8
 695 022a 3801     		.2byte	0x138
 696 022c 39060000 		.4byte	0x639
 697 0230 48       		.byte	0x48
 698 0231 00       		.byte	0
 699 0232 04       		.uleb128 0x4
 700 0233 9D040000 		.4byte	.LASF45
 701 0237 07       		.byte	0x7
 702 0238 44       		.byte	0x44
 703 0239 3D020000 		.4byte	0x23d
 704 023d 0A       		.uleb128 0xa
 705 023e 04       		.byte	0x4
 706 023f 3C010000 		.4byte	0x13c
 707 0243 04       		.uleb128 0x4
 708 0244 1D070000 		.4byte	.LASF46
 709 0248 07       		.byte	0x7
 710 0249 49       		.byte	0x49
 711 024a 4E020000 		.4byte	0x24e
 712 024e 05       		.uleb128 0x5
 713 024f 12060000 		.4byte	.LASF48
 714 0253 04       		.byte	0x4
 715 0254 08       		.byte	0x8
 716 0255 88       		.byte	0x88
 717 0256 67020000 		.4byte	0x267
 718 025a 06       		.uleb128 0x6
 719 025b 16010000 		.4byte	.LASF49
 720 025f 08       		.byte	0x8
 721 0260 89       		.byte	0x89
 722 0261 3D020000 		.4byte	0x23d
 723 0265 00       		.byte	0
 724 0266 00       		.byte	0
 725 0267 04       		.uleb128 0x4
 726 0268 CB060000 		.4byte	.LASF50
 727 026c 07       		.byte	0x7
 728 026d 50       		.byte	0x50
 729 026e 72020000 		.4byte	0x272
 730 0272 05       		.uleb128 0x5
 731 0273 6A000000 		.4byte	.LASF51
 732 0277 08       		.byte	0x8
 733 0278 08       		.byte	0x8
 734 0279 8F       		.byte	0x8f
 735 027a 97020000 		.4byte	0x297
 736 027e 06       		.uleb128 0x6
 737 027f 16010000 		.4byte	.LASF49
 738 0283 08       		.byte	0x8
 739 0284 90       		.byte	0x90
 740 0285 3D020000 		.4byte	0x23d
 741 0289 00       		.byte	0
ARM GAS  /tmp/cczp6DF1.s 			page 14


 742 028a 06       		.uleb128 0x6
 743 028b 59000000 		.4byte	.LASF52
 744 028f 08       		.byte	0x8
 745 0290 91       		.byte	0x91
 746 0291 3D020000 		.4byte	0x23d
 747 0295 04       		.byte	0x4
 748 0296 00       		.byte	0
 749 0297 04       		.uleb128 0x4
 750 0298 00000000 		.4byte	.LASF53
 751 029c 07       		.byte	0x7
 752 029d 57       		.byte	0x57
 753 029e A2020000 		.4byte	0x2a2
 754 02a2 0B       		.uleb128 0xb
 755 02a3 33040000 		.4byte	.LASF54
 756 02a7 1C       		.byte	0x1c
 757 02a8 08       		.byte	0x8
 758 02a9 6A01     		.2byte	0x16a
 759 02ab FE020000 		.4byte	0x2fe
 760 02af 09       		.uleb128 0x9
 761 02b0 A5030000 		.4byte	.LASF29
 762 02b4 08       		.byte	0x8
 763 02b5 6B01     		.2byte	0x16b
 764 02b7 67020000 		.4byte	0x267
 765 02bb 00       		.byte	0
 766 02bc 09       		.uleb128 0x9
 767 02bd 05050000 		.4byte	.LASF30
 768 02c1 08       		.byte	0x8
 769 02c2 6C01     		.2byte	0x16c
 770 02c4 FA000000 		.4byte	0xfa
 771 02c8 08       		.byte	0x8
 772 02c9 08       		.uleb128 0x8
 773 02ca 63747800 		.ascii	"ctx\000"
 774 02ce 08       		.byte	0x8
 775 02cf 6E01     		.2byte	0x16e
 776 02d1 6C040000 		.4byte	0x46c
 777 02d5 0C       		.byte	0xc
 778 02d6 09       		.uleb128 0x9
 779 02d7 62040000 		.4byte	.LASF31
 780 02db 08       		.byte	0x8
 781 02dc 7101     		.2byte	0x171
 782 02de 3D020000 		.4byte	0x23d
 783 02e2 10       		.byte	0x10
 784 02e3 09       		.uleb128 0x9
 785 02e4 48060000 		.4byte	.LASF32
 786 02e8 08       		.byte	0x8
 787 02e9 7201     		.2byte	0x172
 788 02eb 3D020000 		.4byte	0x23d
 789 02ef 14       		.byte	0x14
 790 02f0 09       		.uleb128 0x9
 791 02f1 0A050000 		.4byte	.LASF55
 792 02f5 08       		.byte	0x8
 793 02f6 7501     		.2byte	0x175
 794 02f8 3D020000 		.4byte	0x23d
 795 02fc 18       		.byte	0x18
 796 02fd 00       		.byte	0
 797 02fe 04       		.uleb128 0x4
 798 02ff 80060000 		.4byte	.LASF56
ARM GAS  /tmp/cczp6DF1.s 			page 15


 799 0303 07       		.byte	0x7
 800 0304 5C       		.byte	0x5c
 801 0305 09030000 		.4byte	0x309
 802 0309 0A       		.uleb128 0xa
 803 030a 04       		.byte	0x4
 804 030b 0F030000 		.4byte	0x30f
 805 030f 0C       		.uleb128 0xc
 806 0310 1A030000 		.4byte	0x31a
 807 0314 0D       		.uleb128 0xd
 808 0315 1A030000 		.4byte	0x31a
 809 0319 00       		.byte	0
 810 031a 0E       		.uleb128 0xe
 811 031b 04       		.byte	0x4
 812 031c 04       		.uleb128 0x4
 813 031d 35050000 		.4byte	.LASF57
 814 0321 07       		.byte	0x7
 815 0322 61       		.byte	0x61
 816 0323 27030000 		.4byte	0x327
 817 0327 0B       		.uleb128 0xb
 818 0328 D2050000 		.4byte	.LASF58
 819 032c 14       		.byte	0x14
 820 032d 08       		.byte	0x8
 821 032e 4501     		.2byte	0x145
 822 0330 76030000 		.4byte	0x376
 823 0334 09       		.uleb128 0x9
 824 0335 16010000 		.4byte	.LASF49
 825 0339 08       		.byte	0x8
 826 033a 4601     		.2byte	0x146
 827 033c 6B070000 		.4byte	0x76b
 828 0340 00       		.byte	0
 829 0341 09       		.uleb128 0x9
 830 0342 59000000 		.4byte	.LASF52
 831 0346 08       		.byte	0x8
 832 0347 4701     		.2byte	0x147
 833 0349 6B070000 		.4byte	0x76b
 834 034d 04       		.byte	0x4
 835 034e 09       		.uleb128 0x9
 836 034f 13000000 		.4byte	.LASF59
 837 0353 08       		.byte	0x8
 838 0354 4801     		.2byte	0x148
 839 0356 31010000 		.4byte	0x131
 840 035a 08       		.byte	0x8
 841 035b 09       		.uleb128 0x9
 842 035c E6010000 		.4byte	.LASF60
 843 0360 08       		.byte	0x8
 844 0361 4901     		.2byte	0x149
 845 0363 FE020000 		.4byte	0x2fe
 846 0367 0C       		.byte	0xc
 847 0368 08       		.uleb128 0x8
 848 0369 70617200 		.ascii	"par\000"
 849 036d 08       		.byte	0x8
 850 036e 4B01     		.2byte	0x14b
 851 0370 1A030000 		.4byte	0x31a
 852 0374 10       		.byte	0x10
 853 0375 00       		.byte	0
 854 0376 04       		.uleb128 0x4
 855 0377 F3000000 		.4byte	.LASF61
ARM GAS  /tmp/cczp6DF1.s 			page 16


 856 037b 07       		.byte	0x7
 857 037c 66       		.byte	0x66
 858 037d 81030000 		.4byte	0x381
 859 0381 0B       		.uleb128 0xb
 860 0382 BB040000 		.4byte	.LASF62
 861 0386 10       		.byte	0x10
 862 0387 08       		.byte	0x8
 863 0388 5501     		.2byte	0x155
 864 038a C3030000 		.4byte	0x3c3
 865 038e 09       		.uleb128 0x9
 866 038f 16010000 		.4byte	.LASF49
 867 0393 08       		.byte	0x8
 868 0394 5601     		.2byte	0x156
 869 0396 6B070000 		.4byte	0x76b
 870 039a 00       		.byte	0
 871 039b 09       		.uleb128 0x9
 872 039c 59000000 		.4byte	.LASF52
 873 03a0 08       		.byte	0x8
 874 03a1 5801     		.2byte	0x158
 875 03a3 6B070000 		.4byte	0x76b
 876 03a7 04       		.byte	0x4
 877 03a8 09       		.uleb128 0x9
 878 03a9 13000000 		.4byte	.LASF59
 879 03ad 08       		.byte	0x8
 880 03ae 5A01     		.2byte	0x15a
 881 03b0 31010000 		.4byte	0x131
 882 03b4 08       		.byte	0x8
 883 03b5 09       		.uleb128 0x9
 884 03b6 8F050000 		.4byte	.LASF63
 885 03ba 08       		.byte	0x8
 886 03bb 6201     		.2byte	0x162
 887 03bd 31010000 		.4byte	0x131
 888 03c1 0C       		.byte	0xc
 889 03c2 00       		.byte	0
 890 03c3 04       		.uleb128 0x4
 891 03c4 7B000000 		.4byte	.LASF64
 892 03c8 07       		.byte	0x7
 893 03c9 6B       		.byte	0x6b
 894 03ca CE030000 		.4byte	0x3ce
 895 03ce 0B       		.uleb128 0xb
 896 03cf 41020000 		.4byte	.LASF65
 897 03d3 04       		.byte	0x4
 898 03d4 08       		.byte	0x8
 899 03d5 7C01     		.2byte	0x17c
 900 03d7 E9030000 		.4byte	0x3e9
 901 03db 09       		.uleb128 0x9
 902 03dc 97060000 		.4byte	.LASF66
 903 03e0 08       		.byte	0x8
 904 03e1 8401     		.2byte	0x184
 905 03e3 71070000 		.4byte	0x771
 906 03e7 00       		.byte	0
 907 03e8 00       		.byte	0
 908 03e9 04       		.uleb128 0x4
 909 03ea 14040000 		.4byte	.LASF67
 910 03ee 07       		.byte	0x7
 911 03ef 70       		.byte	0x70
 912 03f0 F4030000 		.4byte	0x3f4
ARM GAS  /tmp/cczp6DF1.s 			page 17


 913 03f4 0B       		.uleb128 0xb
 914 03f5 9F050000 		.4byte	.LASF68
 915 03f9 D0       		.byte	0xd0
 916 03fa 08       		.byte	0x8
 917 03fb 9C01     		.2byte	0x19c
 918 03fd 4F040000 		.4byte	0x44f
 919 0401 09       		.uleb128 0x9
 920 0402 E4060000 		.4byte	.LASF69
 921 0406 08       		.byte	0x8
 922 0407 A001     		.2byte	0x1a0
 923 0409 97020000 		.4byte	0x297
 924 040d 00       		.byte	0
 925 040e 09       		.uleb128 0x9
 926 040f 66010000 		.4byte	.LASF70
 927 0413 08       		.byte	0x8
 928 0414 A401     		.2byte	0x1a4
 929 0416 76030000 		.4byte	0x376
 930 041a 1C       		.byte	0x1c
 931 041b 08       		.uleb128 0x8
 932 041c 64626700 		.ascii	"dbg\000"
 933 0420 08       		.byte	0x8
 934 0421 A801     		.2byte	0x1a8
 935 0423 C3030000 		.4byte	0x3c3
 936 0427 2C       		.byte	0x2c
 937 0428 09       		.uleb128 0x9
 938 0429 E0000000 		.4byte	.LASF71
 939 042d 08       		.byte	0x8
 940 042e AC01     		.2byte	0x1ac
 941 0430 3C010000 		.4byte	0x13c
 942 0434 30       		.byte	0x30
 943 0435 08       		.uleb128 0x8
 944 0436 746D00   		.ascii	"tm\000"
 945 0439 08       		.byte	0x8
 946 043a B101     		.2byte	0x1b1
 947 043c EB050000 		.4byte	0x5eb
 948 0440 90       		.byte	0x90
 949 0441 09       		.uleb128 0x9
 950 0442 29000000 		.4byte	.LASF72
 951 0446 08       		.byte	0x8
 952 0447 B701     		.2byte	0x1b7
 953 0449 7D060000 		.4byte	0x67d
 954 044d 98       		.byte	0x98
 955 044e 00       		.byte	0
 956 044f 03       		.uleb128 0x3
 957 0450 04       		.byte	0x4
 958 0451 07       		.byte	0x7
 959 0452 94040000 		.4byte	.LASF73
 960 0456 04       		.uleb128 0x4
 961 0457 38020000 		.4byte	.LASF74
 962 045b 09       		.byte	0x9
 963 045c 65       		.byte	0x65
 964 045d 1A030000 		.4byte	0x31a
 965 0461 04       		.uleb128 0x4
 966 0462 57040000 		.4byte	.LASF75
 967 0466 09       		.byte	0x9
 968 0467 6D       		.byte	0x6d
 969 0468 B8000000 		.4byte	0xb8
ARM GAS  /tmp/cczp6DF1.s 			page 18


 970 046c 05       		.uleb128 0x5
 971 046d 73020000 		.4byte	.LASF76
 972 0471 04       		.byte	0x4
 973 0472 09       		.byte	0x9
 974 0473 89       		.byte	0x89
 975 0474 84040000 		.4byte	0x484
 976 0478 07       		.uleb128 0x7
 977 0479 737000   		.ascii	"sp\000"
 978 047c 09       		.byte	0x9
 979 047d 8A       		.byte	0x8a
 980 047e D0050000 		.4byte	0x5d0
 981 0482 00       		.byte	0
 982 0483 00       		.byte	0
 983 0484 0B       		.uleb128 0xb
 984 0485 5E000000 		.4byte	.LASF77
 985 0489 64       		.byte	0x64
 986 048a 0A       		.byte	0xa
 987 048b 5901     		.2byte	0x159
 988 048d D0050000 		.4byte	0x5d0
 989 0491 08       		.uleb128 0x8
 990 0492 73313600 		.ascii	"s16\000"
 991 0496 0A       		.byte	0xa
 992 0497 5B01     		.2byte	0x15b
 993 0499 56040000 		.4byte	0x456
 994 049d 00       		.byte	0
 995 049e 08       		.uleb128 0x8
 996 049f 73313700 		.ascii	"s17\000"
 997 04a3 0A       		.byte	0xa
 998 04a4 5C01     		.2byte	0x15c
 999 04a6 56040000 		.4byte	0x456
 1000 04aa 04       		.byte	0x4
 1001 04ab 08       		.uleb128 0x8
 1002 04ac 73313800 		.ascii	"s18\000"
 1003 04b0 0A       		.byte	0xa
 1004 04b1 5D01     		.2byte	0x15d
 1005 04b3 56040000 		.4byte	0x456
 1006 04b7 08       		.byte	0x8
 1007 04b8 08       		.uleb128 0x8
 1008 04b9 73313900 		.ascii	"s19\000"
 1009 04bd 0A       		.byte	0xa
 1010 04be 5E01     		.2byte	0x15e
 1011 04c0 56040000 		.4byte	0x456
 1012 04c4 0C       		.byte	0xc
 1013 04c5 08       		.uleb128 0x8
 1014 04c6 73323000 		.ascii	"s20\000"
 1015 04ca 0A       		.byte	0xa
 1016 04cb 5F01     		.2byte	0x15f
 1017 04cd 56040000 		.4byte	0x456
 1018 04d1 10       		.byte	0x10
 1019 04d2 08       		.uleb128 0x8
 1020 04d3 73323100 		.ascii	"s21\000"
 1021 04d7 0A       		.byte	0xa
 1022 04d8 6001     		.2byte	0x160
 1023 04da 56040000 		.4byte	0x456
 1024 04de 14       		.byte	0x14
 1025 04df 08       		.uleb128 0x8
 1026 04e0 73323200 		.ascii	"s22\000"
ARM GAS  /tmp/cczp6DF1.s 			page 19


 1027 04e4 0A       		.byte	0xa
 1028 04e5 6101     		.2byte	0x161
 1029 04e7 56040000 		.4byte	0x456
 1030 04eb 18       		.byte	0x18
 1031 04ec 08       		.uleb128 0x8
 1032 04ed 73323300 		.ascii	"s23\000"
 1033 04f1 0A       		.byte	0xa
 1034 04f2 6201     		.2byte	0x162
 1035 04f4 56040000 		.4byte	0x456
 1036 04f8 1C       		.byte	0x1c
 1037 04f9 08       		.uleb128 0x8
 1038 04fa 73323400 		.ascii	"s24\000"
 1039 04fe 0A       		.byte	0xa
 1040 04ff 6301     		.2byte	0x163
 1041 0501 56040000 		.4byte	0x456
 1042 0505 20       		.byte	0x20
 1043 0506 08       		.uleb128 0x8
 1044 0507 73323500 		.ascii	"s25\000"
 1045 050b 0A       		.byte	0xa
 1046 050c 6401     		.2byte	0x164
 1047 050e 56040000 		.4byte	0x456
 1048 0512 24       		.byte	0x24
 1049 0513 08       		.uleb128 0x8
 1050 0514 73323600 		.ascii	"s26\000"
 1051 0518 0A       		.byte	0xa
 1052 0519 6501     		.2byte	0x165
 1053 051b 56040000 		.4byte	0x456
 1054 051f 28       		.byte	0x28
 1055 0520 08       		.uleb128 0x8
 1056 0521 73323700 		.ascii	"s27\000"
 1057 0525 0A       		.byte	0xa
 1058 0526 6601     		.2byte	0x166
 1059 0528 56040000 		.4byte	0x456
 1060 052c 2C       		.byte	0x2c
 1061 052d 08       		.uleb128 0x8
 1062 052e 73323800 		.ascii	"s28\000"
 1063 0532 0A       		.byte	0xa
 1064 0533 6701     		.2byte	0x167
 1065 0535 56040000 		.4byte	0x456
 1066 0539 30       		.byte	0x30
 1067 053a 08       		.uleb128 0x8
 1068 053b 73323900 		.ascii	"s29\000"
 1069 053f 0A       		.byte	0xa
 1070 0540 6801     		.2byte	0x168
 1071 0542 56040000 		.4byte	0x456
 1072 0546 34       		.byte	0x34
 1073 0547 08       		.uleb128 0x8
 1074 0548 73333000 		.ascii	"s30\000"
 1075 054c 0A       		.byte	0xa
 1076 054d 6901     		.2byte	0x169
 1077 054f 56040000 		.4byte	0x456
 1078 0553 38       		.byte	0x38
 1079 0554 08       		.uleb128 0x8
 1080 0555 73333100 		.ascii	"s31\000"
 1081 0559 0A       		.byte	0xa
 1082 055a 6A01     		.2byte	0x16a
 1083 055c 56040000 		.4byte	0x456
ARM GAS  /tmp/cczp6DF1.s 			page 20


 1084 0560 3C       		.byte	0x3c
 1085 0561 08       		.uleb128 0x8
 1086 0562 723400   		.ascii	"r4\000"
 1087 0565 0A       		.byte	0xa
 1088 0566 6C01     		.2byte	0x16c
 1089 0568 56040000 		.4byte	0x456
 1090 056c 40       		.byte	0x40
 1091 056d 08       		.uleb128 0x8
 1092 056e 723500   		.ascii	"r5\000"
 1093 0571 0A       		.byte	0xa
 1094 0572 6D01     		.2byte	0x16d
 1095 0574 56040000 		.4byte	0x456
 1096 0578 44       		.byte	0x44
 1097 0579 08       		.uleb128 0x8
 1098 057a 723600   		.ascii	"r6\000"
 1099 057d 0A       		.byte	0xa
 1100 057e 6E01     		.2byte	0x16e
 1101 0580 56040000 		.4byte	0x456
 1102 0584 48       		.byte	0x48
 1103 0585 08       		.uleb128 0x8
 1104 0586 723700   		.ascii	"r7\000"
 1105 0589 0A       		.byte	0xa
 1106 058a 6F01     		.2byte	0x16f
 1107 058c 56040000 		.4byte	0x456
 1108 0590 4C       		.byte	0x4c
 1109 0591 08       		.uleb128 0x8
 1110 0592 723800   		.ascii	"r8\000"
 1111 0595 0A       		.byte	0xa
 1112 0596 7001     		.2byte	0x170
 1113 0598 56040000 		.4byte	0x456
 1114 059c 50       		.byte	0x50
 1115 059d 08       		.uleb128 0x8
 1116 059e 723900   		.ascii	"r9\000"
 1117 05a1 0A       		.byte	0xa
 1118 05a2 7101     		.2byte	0x171
 1119 05a4 56040000 		.4byte	0x456
 1120 05a8 54       		.byte	0x54
 1121 05a9 08       		.uleb128 0x8
 1122 05aa 72313000 		.ascii	"r10\000"
 1123 05ae 0A       		.byte	0xa
 1124 05af 7201     		.2byte	0x172
 1125 05b1 56040000 		.4byte	0x456
 1126 05b5 58       		.byte	0x58
 1127 05b6 08       		.uleb128 0x8
 1128 05b7 72313100 		.ascii	"r11\000"
 1129 05bb 0A       		.byte	0xa
 1130 05bc 7301     		.2byte	0x173
 1131 05be 56040000 		.4byte	0x456
 1132 05c2 5C       		.byte	0x5c
 1133 05c3 08       		.uleb128 0x8
 1134 05c4 6C7200   		.ascii	"lr\000"
 1135 05c7 0A       		.byte	0xa
 1136 05c8 7401     		.2byte	0x174
 1137 05ca 56040000 		.4byte	0x456
 1138 05ce 60       		.byte	0x60
 1139 05cf 00       		.byte	0
 1140 05d0 0A       		.uleb128 0xa
ARM GAS  /tmp/cczp6DF1.s 			page 21


 1141 05d1 04       		.byte	0x4
 1142 05d2 84040000 		.4byte	0x484
 1143 05d6 0F       		.uleb128 0xf
 1144 05d7 04       		.byte	0x4
 1145 05d8 0B       		.byte	0xb
 1146 05d9 38       		.byte	0x38
 1147 05da EB050000 		.4byte	0x5eb
 1148 05de 06       		.uleb128 0x6
 1149 05df A1060000 		.4byte	.LASF78
 1150 05e3 0B       		.byte	0xb
 1151 05e4 3C       		.byte	0x3c
 1152 05e5 C3000000 		.4byte	0xc3
 1153 05e9 00       		.byte	0
 1154 05ea 00       		.byte	0
 1155 05eb 04       		.uleb128 0x4
 1156 05ec E9040000 		.4byte	.LASF79
 1157 05f0 0B       		.byte	0xb
 1158 05f1 3D       		.byte	0x3d
 1159 05f2 D6050000 		.4byte	0x5d6
 1160 05f6 0F       		.uleb128 0xf
 1161 05f7 18       		.byte	0x18
 1162 05f8 0B       		.byte	0xb
 1163 05f9 48       		.byte	0x48
 1164 05fa 39060000 		.4byte	0x639
 1165 05fe 06       		.uleb128 0x6
 1166 05ff 71060000 		.4byte	.LASF80
 1167 0603 0B       		.byte	0xb
 1168 0604 49       		.byte	0x49
 1169 0605 C3000000 		.4byte	0xc3
 1170 0609 00       		.byte	0
 1171 060a 06       		.uleb128 0x6
 1172 060b 94000000 		.4byte	.LASF81
 1173 060f 0B       		.byte	0xb
 1174 0610 4A       		.byte	0x4a
 1175 0611 C3000000 		.4byte	0xc3
 1176 0615 04       		.byte	0x4
 1177 0616 06       		.uleb128 0x6
 1178 0617 F2030000 		.4byte	.LASF82
 1179 061b 0B       		.byte	0xb
 1180 061c 4B       		.byte	0x4b
 1181 061d C3000000 		.4byte	0xc3
 1182 0621 08       		.byte	0x8
 1183 0622 07       		.uleb128 0x7
 1184 0623 6E00     		.ascii	"n\000"
 1185 0625 0B       		.byte	0xb
 1186 0626 4C       		.byte	0x4c
 1187 0627 26010000 		.4byte	0x126
 1188 062b 0C       		.byte	0xc
 1189 062c 06       		.uleb128 0x6
 1190 062d 1D050000 		.4byte	.LASF83
 1191 0631 0B       		.byte	0xb
 1192 0632 4D       		.byte	0x4d
 1193 0633 CE000000 		.4byte	0xce
 1194 0637 10       		.byte	0x10
 1195 0638 00       		.byte	0
 1196 0639 04       		.uleb128 0x4
 1197 063a 9A000000 		.4byte	.LASF84
ARM GAS  /tmp/cczp6DF1.s 			page 22


 1198 063e 0B       		.byte	0xb
 1199 063f 4E       		.byte	0x4e
 1200 0640 F6050000 		.4byte	0x5f6
 1201 0644 0F       		.uleb128 0xf
 1202 0645 38       		.byte	0x38
 1203 0646 0C       		.byte	0xc
 1204 0647 38       		.byte	0x38
 1205 0648 7D060000 		.4byte	0x67d
 1206 064c 06       		.uleb128 0x6
 1207 064d 91030000 		.4byte	.LASF85
 1208 0651 0C       		.byte	0xc
 1209 0652 39       		.byte	0x39
 1210 0653 26010000 		.4byte	0x126
 1211 0657 00       		.byte	0
 1212 0658 06       		.uleb128 0x6
 1213 0659 58050000 		.4byte	.LASF86
 1214 065d 0C       		.byte	0xc
 1215 065e 3A       		.byte	0x3a
 1216 065f 26010000 		.4byte	0x126
 1217 0663 04       		.byte	0x4
 1218 0664 06       		.uleb128 0x6
 1219 0665 40070000 		.4byte	.LASF87
 1220 0669 0C       		.byte	0xc
 1221 066a 3B       		.byte	0x3b
 1222 066b 39060000 		.4byte	0x639
 1223 066f 08       		.byte	0x8
 1224 0670 06       		.uleb128 0x6
 1225 0671 28040000 		.4byte	.LASF88
 1226 0675 0C       		.byte	0xc
 1227 0676 3D       		.byte	0x3d
 1228 0677 39060000 		.4byte	0x639
 1229 067b 20       		.byte	0x20
 1230 067c 00       		.byte	0
 1231 067d 04       		.uleb128 0x4
 1232 067e C4030000 		.4byte	.LASF89
 1233 0682 0C       		.byte	0xc
 1234 0683 3F       		.byte	0x3f
 1235 0684 44060000 		.4byte	0x644
 1236 0688 10       		.uleb128 0x10
 1237 0689 04       		.byte	0x4
 1238 068a 08       		.byte	0x8
 1239 068b D2       		.byte	0xd2
 1240 068c EB060000 		.4byte	0x6eb
 1241 0690 11       		.uleb128 0x11
 1242 0691 19000000 		.4byte	.LASF90
 1243 0695 08       		.byte	0x8
 1244 0696 D9       		.byte	0xd9
 1245 0697 05010000 		.4byte	0x105
 1246 069b 11       		.uleb128 0x11
 1247 069c D7000000 		.4byte	.LASF91
 1248 06a0 08       		.byte	0x8
 1249 06a1 E0       		.byte	0xe0
 1250 06a2 05010000 		.4byte	0x105
 1251 06a6 11       		.uleb128 0x11
 1252 06a7 16070000 		.4byte	.LASF92
 1253 06ab 08       		.byte	0x8
 1254 06ac E7       		.byte	0xe7
ARM GAS  /tmp/cczp6DF1.s 			page 23


 1255 06ad 1A030000 		.4byte	0x31a
 1256 06b1 11       		.uleb128 0x11
 1257 06b2 0D000000 		.4byte	.LASF93
 1258 06b6 08       		.byte	0x8
 1259 06b7 EE       		.byte	0xee
 1260 06b8 EB060000 		.4byte	0x6eb
 1261 06bc 11       		.uleb128 0x11
 1262 06bd EB000000 		.4byte	.LASF94
 1263 06c1 08       		.byte	0x8
 1264 06c2 F3       		.byte	0xf3
 1265 06c3 05010000 		.4byte	0x105
 1266 06c7 11       		.uleb128 0x11
 1267 06c8 82030000 		.4byte	.LASF95
 1268 06cc 08       		.byte	0x8
 1269 06cd FC       		.byte	0xfc
 1270 06ce 16070000 		.4byte	0x716
 1271 06d2 12       		.uleb128 0x12
 1272 06d3 0B060000 		.4byte	.LASF96
 1273 06d7 08       		.byte	0x8
 1274 06d8 0501     		.2byte	0x105
 1275 06da 4D070000 		.4byte	0x74d
 1276 06de 12       		.uleb128 0x12
 1277 06df 98050000 		.4byte	.LASF97
 1278 06e3 08       		.byte	0x8
 1279 06e4 0D01     		.2byte	0x10d
 1280 06e6 10010000 		.4byte	0x110
 1281 06ea 00       		.byte	0
 1282 06eb 0A       		.uleb128 0xa
 1283 06ec 04       		.byte	0x4
 1284 06ed 32020000 		.4byte	0x232
 1285 06f1 05       		.uleb128 0x5
 1286 06f2 E3050000 		.4byte	.LASF98
 1287 06f6 0C       		.byte	0xc
 1288 06f7 0D       		.byte	0xd
 1289 06f8 34       		.byte	0x34
 1290 06f9 16070000 		.4byte	0x716
 1291 06fd 06       		.uleb128 0x6
 1292 06fe A5030000 		.4byte	.LASF29
 1293 0702 0D       		.byte	0xd
 1294 0703 35       		.byte	0x35
 1295 0704 67020000 		.4byte	0x267
 1296 0708 00       		.byte	0
 1297 0709 07       		.uleb128 0x7
 1298 070a 636E7400 		.ascii	"cnt\000"
 1299 070e 0D       		.byte	0xd
 1300 070f 37       		.byte	0x37
 1301 0710 1B010000 		.4byte	0x11b
 1302 0714 08       		.byte	0x8
 1303 0715 00       		.byte	0
 1304 0716 0A       		.uleb128 0xa
 1305 0717 04       		.byte	0x4
 1306 0718 F1060000 		.4byte	0x6f1
 1307 071c 05       		.uleb128 0x5
 1308 071d DB060000 		.4byte	.LASF99
 1309 0721 10       		.byte	0x10
 1310 0722 0E       		.byte	0xe
 1311 0723 39       		.byte	0x39
ARM GAS  /tmp/cczp6DF1.s 			page 24


 1312 0724 4D070000 		.4byte	0x74d
 1313 0728 06       		.uleb128 0x6
 1314 0729 A5030000 		.4byte	.LASF29
 1315 072d 0E       		.byte	0xe
 1316 072e 3A       		.byte	0x3a
 1317 072f 67020000 		.4byte	0x267
 1318 0733 00       		.byte	0
 1319 0734 06       		.uleb128 0x6
 1320 0735 22060000 		.4byte	.LASF100
 1321 0739 0E       		.byte	0xe
 1322 073a 3C       		.byte	0x3c
 1323 073b 3D020000 		.4byte	0x23d
 1324 073f 08       		.byte	0x8
 1325 0740 06       		.uleb128 0x6
 1326 0741 16010000 		.4byte	.LASF49
 1327 0745 0E       		.byte	0xe
 1328 0746 3E       		.byte	0x3e
 1329 0747 81070000 		.4byte	0x781
 1330 074b 0C       		.byte	0xc
 1331 074c 00       		.byte	0
 1332 074d 0A       		.uleb128 0xa
 1333 074e 04       		.byte	0x4
 1334 074f 1C070000 		.4byte	0x71c
 1335 0753 0A       		.uleb128 0xa
 1336 0754 04       		.byte	0x4
 1337 0755 59070000 		.4byte	0x759
 1338 0759 13       		.uleb128 0x13
 1339 075a 5E070000 		.4byte	0x75e
 1340 075e 03       		.uleb128 0x3
 1341 075f 01       		.byte	0x1
 1342 0760 08       		.byte	0x8
 1343 0761 43060000 		.4byte	.LASF101
 1344 0765 0A       		.uleb128 0xa
 1345 0766 04       		.byte	0x4
 1346 0767 61040000 		.4byte	0x461
 1347 076b 0A       		.uleb128 0xa
 1348 076c 04       		.byte	0x4
 1349 076d 1C030000 		.4byte	0x31c
 1350 0771 14       		.uleb128 0x14
 1351 0772 53070000 		.4byte	0x753
 1352 0776 04       		.uleb128 0x4
 1353 0777 65020000 		.4byte	.LASF102
 1354 077b 0E       		.byte	0xe
 1355 077c 34       		.byte	0x34
 1356 077d 1C070000 		.4byte	0x71c
 1357 0781 0A       		.uleb128 0xa
 1358 0782 04       		.byte	0x4
 1359 0783 76070000 		.4byte	0x776
 1360 0787 03       		.uleb128 0x3
 1361 0788 01       		.byte	0x1
 1362 0789 02       		.byte	0x2
 1363 078a 61050000 		.4byte	.LASF103
 1364 078e 15       		.uleb128 0x15
 1365 078f 01       		.byte	0x1
 1366 0790 0F       		.byte	0xf
 1367 0791 40       		.byte	0x40
 1368 0792 A9070000 		.4byte	0x7a9
ARM GAS  /tmp/cczp6DF1.s 			page 25


 1369 0796 16       		.uleb128 0x16
 1370 0797 FA040000 		.4byte	.LASF104
 1371 079b 00       		.sleb128 0
 1372 079c 16       		.uleb128 0x16
 1373 079d 3A060000 		.4byte	.LASF105
 1374 07a1 01       		.sleb128 1
 1375 07a2 16       		.uleb128 0x16
 1376 07a3 4D050000 		.4byte	.LASF106
 1377 07a7 02       		.sleb128 2
 1378 07a8 00       		.byte	0
 1379 07a9 04       		.uleb128 0x4
 1380 07aa B0040000 		.4byte	.LASF107
 1381 07ae 0F       		.byte	0xf
 1382 07af 44       		.byte	0x44
 1383 07b0 8E070000 		.4byte	0x78e
 1384 07b4 04       		.uleb128 0x4
 1385 07b5 C1060000 		.4byte	.LASF108
 1386 07b9 0F       		.byte	0xf
 1387 07ba 49       		.byte	0x49
 1388 07bb BF070000 		.4byte	0x7bf
 1389 07bf 05       		.uleb128 0x5
 1390 07c0 C1060000 		.4byte	.LASF108
 1391 07c4 08       		.byte	0x8
 1392 07c5 10       		.byte	0x10
 1393 07c6 73       		.byte	0x73
 1394 07c7 E4070000 		.4byte	0x7e4
 1395 07cb 06       		.uleb128 0x6
 1396 07cc C5010000 		.4byte	.LASF35
 1397 07d0 10       		.byte	0x10
 1398 07d1 77       		.byte	0x77
 1399 07d2 A9070000 		.4byte	0x7a9
 1400 07d6 00       		.byte	0
 1401 07d7 06       		.uleb128 0x6
 1402 07d8 53060000 		.4byte	.LASF109
 1403 07dc 10       		.byte	0x10
 1404 07dd 7B       		.byte	0x7b
 1405 07de 71080000 		.4byte	0x871
 1406 07e2 04       		.byte	0x4
 1407 07e3 00       		.byte	0
 1408 07e4 04       		.uleb128 0x4
 1409 07e5 4C000000 		.4byte	.LASF110
 1410 07e9 10       		.byte	0x10
 1411 07ea 49       		.byte	0x49
 1412 07eb AD000000 		.4byte	0xad
 1413 07ef 04       		.uleb128 0x4
 1414 07f0 5A060000 		.4byte	.LASF111
 1415 07f4 10       		.byte	0x10
 1416 07f5 51       		.byte	0x51
 1417 07f6 FA070000 		.4byte	0x7fa
 1418 07fa 0A       		.uleb128 0xa
 1419 07fb 04       		.byte	0x4
 1420 07fc 00080000 		.4byte	0x800
 1421 0800 0C       		.uleb128 0xc
 1422 0801 10080000 		.4byte	0x810
 1423 0805 0D       		.uleb128 0xd
 1424 0806 10080000 		.4byte	0x810
 1425 080a 0D       		.uleb128 0xd
ARM GAS  /tmp/cczp6DF1.s 			page 26


 1426 080b E4070000 		.4byte	0x7e4
 1427 080f 00       		.byte	0
 1428 0810 0A       		.uleb128 0xa
 1429 0811 04       		.byte	0x4
 1430 0812 B4070000 		.4byte	0x7b4
 1431 0816 0F       		.uleb128 0xf
 1432 0817 08       		.byte	0x8
 1433 0818 10       		.byte	0x10
 1434 0819 56       		.byte	0x56
 1435 081a 36080000 		.4byte	0x836
 1436 081e 06       		.uleb128 0x6
 1437 081f 4E060000 		.4byte	.LASF112
 1438 0823 10       		.byte	0x10
 1439 0824 5A       		.byte	0x5a
 1440 0825 AD000000 		.4byte	0xad
 1441 0829 00       		.byte	0
 1442 082a 07       		.uleb128 0x7
 1443 082b 636200   		.ascii	"cb\000"
 1444 082e 10       		.byte	0x10
 1445 082f 61       		.byte	0x61
 1446 0830 EF070000 		.4byte	0x7ef
 1447 0834 04       		.byte	0x4
 1448 0835 00       		.byte	0
 1449 0836 04       		.uleb128 0x4
 1450 0837 1C020000 		.4byte	.LASF113
 1451 083b 10       		.byte	0x10
 1452 083c 62       		.byte	0x62
 1453 083d 16080000 		.4byte	0x816
 1454 0841 0F       		.uleb128 0xf
 1455 0842 B8       		.byte	0xb8
 1456 0843 10       		.byte	0x10
 1457 0844 68       		.byte	0x68
 1458 0845 56080000 		.4byte	0x856
 1459 0849 06       		.uleb128 0x6
 1460 084a CB010000 		.4byte	.LASF114
 1461 084e 10       		.byte	0x10
 1462 084f 6C       		.byte	0x6c
 1463 0850 56080000 		.4byte	0x856
 1464 0854 00       		.byte	0
 1465 0855 00       		.byte	0
 1466 0856 17       		.uleb128 0x17
 1467 0857 36080000 		.4byte	0x836
 1468 085b 66080000 		.4byte	0x866
 1469 085f 18       		.uleb128 0x18
 1470 0860 4F040000 		.4byte	0x44f
 1471 0864 16       		.byte	0x16
 1472 0865 00       		.byte	0
 1473 0866 04       		.uleb128 0x4
 1474 0867 E2030000 		.4byte	.LASF115
 1475 086b 10       		.byte	0x10
 1476 086c 6E       		.byte	0x6e
 1477 086d 41080000 		.4byte	0x841
 1478 0871 0A       		.uleb128 0xa
 1479 0872 04       		.byte	0x4
 1480 0873 77080000 		.4byte	0x877
 1481 0877 13       		.uleb128 0x13
 1482 0878 66080000 		.4byte	0x866
ARM GAS  /tmp/cczp6DF1.s 			page 27


 1483 087c 19       		.uleb128 0x19
 1484 087d 89060000 		.4byte	.LASF123
 1485 0881 02       		.byte	0x2
 1486 0882 0601     		.2byte	0x106
 1487 0884 03       		.byte	0x3
 1488 0885 96080000 		.4byte	0x896
 1489 0889 1A       		.uleb128 0x1a
 1490 088a 6D020000 		.4byte	.LASF144
 1491 088e 02       		.byte	0x2
 1492 088f 0601     		.2byte	0x106
 1493 0891 AD000000 		.4byte	0xad
 1494 0895 00       		.byte	0
 1495 0896 1B       		.uleb128 0x1b
 1496 0897 8A000000 		.4byte	.LASF116
 1497 089b 0A       		.byte	0xa
 1498 089c 5202     		.2byte	0x252
 1499 089e 03       		.byte	0x3
 1500 089f 1B       		.uleb128 0x1b
 1501 08a0 9C010000 		.4byte	.LASF117
 1502 08a4 0A       		.byte	0xa
 1503 08a5 6A02     		.2byte	0x26a
 1504 08a7 03       		.byte	0x3
 1505 08a8 1B       		.uleb128 0x1b
 1506 08a9 59020000 		.4byte	.LASF118
 1507 08ad 11       		.byte	0x11
 1508 08ae EB01     		.2byte	0x1eb
 1509 08b0 03       		.byte	0x3
 1510 08b1 1B       		.uleb128 0x1b
 1511 08b2 BC050000 		.4byte	.LASF119
 1512 08b6 11       		.byte	0x11
 1513 08b7 F601     		.2byte	0x1f6
 1514 08b9 03       		.byte	0x3
 1515 08ba 1C       		.uleb128 0x1c
 1516 08bb 7D050000 		.4byte	.LASF120
 1517 08bf 01       		.byte	0x1
 1518 08c0 38       		.byte	0x38
 1519 08c1 00000000 		.4byte	.LFB277
 1520 08c5 04000000 		.4byte	.LFE277-.LFB277
 1521 08c9 01       		.uleb128 0x1
 1522 08ca 9C       		.byte	0x9c
 1523 08cb D9080000 		.4byte	0x8d9
 1524 08cf 1D       		.uleb128 0x1d
 1525 08d0 04000000 		.4byte	.LVL0
 1526 08d4 7B0E0000 		.4byte	0xe7b
 1527 08d8 00       		.byte	0
 1528 08d9 1C       		.uleb128 0x1c
 1529 08da 58010000 		.4byte	.LASF121
 1530 08de 01       		.byte	0x1
 1531 08df 44       		.byte	0x44
 1532 08e0 00000000 		.4byte	.LFB278
 1533 08e4 0A000000 		.4byte	.LFE278-.LFB278
 1534 08e8 01       		.uleb128 0x1
 1535 08e9 9C       		.byte	0x9c
 1536 08ea FC080000 		.4byte	0x8fc
 1537 08ee 1E       		.uleb128 0x1e
 1538 08ef 53010000 		.4byte	.LASF126
 1539 08f3 01       		.byte	0x1
ARM GAS  /tmp/cczp6DF1.s 			page 28


 1540 08f4 44       		.byte	0x44
 1541 08f5 10080000 		.4byte	0x810
 1542 08f9 01       		.uleb128 0x1
 1543 08fa 50       		.byte	0x50
 1544 08fb 00       		.byte	0
 1545 08fc 1B       		.uleb128 0x1b
 1546 08fd B2050000 		.4byte	.LASF122
 1547 0901 03       		.byte	0x3
 1548 0902 7601     		.2byte	0x176
 1549 0904 03       		.byte	0x3
 1550 0905 19       		.uleb128 0x19
 1551 0906 2C070000 		.4byte	.LASF124
 1552 090a 03       		.byte	0x3
 1553 090b 8201     		.2byte	0x182
 1554 090d 03       		.byte	0x3
 1555 090e 20090000 		.4byte	0x920
 1556 0912 1F       		.uleb128 0x1f
 1557 0913 A9050000 		.4byte	.LASF128
 1558 0917 30090000 		.4byte	0x930
 1559 091b 2C070000 		.4byte	.LASF124
 1560 091f 00       		.byte	0
 1561 0920 17       		.uleb128 0x17
 1562 0921 5E070000 		.4byte	0x75e
 1563 0925 30090000 		.4byte	0x930
 1564 0929 18       		.uleb128 0x18
 1565 092a 4F040000 		.4byte	0x44f
 1566 092e 0B       		.byte	0xb
 1567 092f 00       		.byte	0
 1568 0930 13       		.uleb128 0x13
 1569 0931 20090000 		.4byte	0x920
 1570 0935 1C       		.uleb128 0x1c
 1571 0936 3C010000 		.4byte	.LASF125
 1572 093a 01       		.byte	0x1
 1573 093b 54       		.byte	0x54
 1574 093c 00000000 		.4byte	.LFB279
 1575 0940 28000000 		.4byte	.LFE279-.LFB279
 1576 0944 01       		.uleb128 0x1
 1577 0945 9C       		.byte	0x9c
 1578 0946 450A0000 		.4byte	0xa45
 1579 094a 20       		.uleb128 0x20
 1580 094b 53010000 		.4byte	.LASF126
 1581 094f 01       		.byte	0x1
 1582 0950 54       		.byte	0x54
 1583 0951 10080000 		.4byte	0x810
 1584 0955 00000000 		.4byte	.LLST0
 1585 0959 20       		.uleb128 0x20
 1586 095a 53060000 		.4byte	.LASF109
 1587 095e 01       		.byte	0x1
 1588 095f 54       		.byte	0x54
 1589 0960 71080000 		.4byte	0x871
 1590 0964 1E000000 		.4byte	.LLST1
 1591 0968 21       		.uleb128 0x21
 1592 0969 A9050000 		.4byte	.LASF128
 1593 096d 550A0000 		.4byte	0xa55
 1594 0971 22       		.uleb128 0x22
 1595 0972 A8080000 		.4byte	0x8a8
 1596 0976 06000000 		.4byte	.LBB44
ARM GAS  /tmp/cczp6DF1.s 			page 29


 1597 097a 0A000000 		.4byte	.LBE44-.LBB44
 1598 097e 01       		.byte	0x1
 1599 097f 58       		.byte	0x58
 1600 0980 CB090000 		.4byte	0x9cb
 1601 0984 23       		.uleb128 0x23
 1602 0985 FC080000 		.4byte	0x8fc
 1603 0989 06000000 		.4byte	.LBB45
 1604 098d 0A000000 		.4byte	.LBE45-.LBB45
 1605 0991 11       		.byte	0x11
 1606 0992 ED01     		.2byte	0x1ed
 1607 0994 24       		.uleb128 0x24
 1608 0995 96080000 		.4byte	0x896
 1609 0999 06000000 		.4byte	.LBB47
 1610 099d 06000000 		.4byte	.LBE47-.LBB47
 1611 09a1 03       		.byte	0x3
 1612 09a2 7801     		.2byte	0x178
 1613 09a4 C0090000 		.4byte	0x9c0
 1614 09a8 23       		.uleb128 0x23
 1615 09a9 7C080000 		.4byte	0x87c
 1616 09ad 06000000 		.4byte	.LBB48
 1617 09b1 06000000 		.4byte	.LBE48-.LBB48
 1618 09b5 0A       		.byte	0xa
 1619 09b6 5A02     		.2byte	0x25a
 1620 09b8 25       		.uleb128 0x25
 1621 09b9 89080000 		.4byte	0x889
 1622 09bd 20       		.byte	0x20
 1623 09be 00       		.byte	0
 1624 09bf 00       		.byte	0
 1625 09c0 26       		.uleb128 0x26
 1626 09c1 10000000 		.4byte	.LVL3
 1627 09c5 820E0000 		.4byte	0xe82
 1628 09c9 00       		.byte	0
 1629 09ca 00       		.byte	0
 1630 09cb 22       		.uleb128 0x22
 1631 09cc B1080000 		.4byte	0x8b1
 1632 09d0 1C000000 		.4byte	.LBB50
 1633 09d4 0C000000 		.4byte	.LBE50-.LBB50
 1634 09d8 01       		.byte	0x1
 1635 09d9 5E       		.byte	0x5e
 1636 09da 340A0000 		.4byte	0xa34
 1637 09de 23       		.uleb128 0x23
 1638 09df 05090000 		.4byte	0x905
 1639 09e3 1C000000 		.4byte	.LBB51
 1640 09e7 0C000000 		.4byte	.LBE51-.LBB51
 1641 09eb 11       		.byte	0x11
 1642 09ec F801     		.2byte	0x1f8
 1643 09ee 27       		.uleb128 0x27
 1644 09ef 1C000000 		.4byte	.LBB52
 1645 09f3 0C000000 		.4byte	.LBE52-.LBB52
 1646 09f7 28       		.uleb128 0x28
 1647 09f8 12090000 		.4byte	0x912
 1648 09fc 24       		.uleb128 0x24
 1649 09fd 9F080000 		.4byte	0x89f
 1650 0a01 20000000 		.4byte	.LBB53
 1651 0a05 08000000 		.4byte	.LBE53-.LBB53
 1652 0a09 03       		.byte	0x3
 1653 0a0a 8F01     		.2byte	0x18f
ARM GAS  /tmp/cczp6DF1.s 			page 30


 1654 0a0c 280A0000 		.4byte	0xa28
 1655 0a10 23       		.uleb128 0x23
 1656 0a11 7C080000 		.4byte	0x87c
 1657 0a15 20000000 		.4byte	.LBB54
 1658 0a19 08000000 		.4byte	.LBE54-.LBB54
 1659 0a1d 0A       		.byte	0xa
 1660 0a1e 6D02     		.2byte	0x26d
 1661 0a20 25       		.uleb128 0x25
 1662 0a21 89080000 		.4byte	0x889
 1663 0a25 00       		.byte	0
 1664 0a26 00       		.byte	0
 1665 0a27 00       		.byte	0
 1666 0a28 26       		.uleb128 0x26
 1667 0a29 20000000 		.4byte	.LVL5
 1668 0a2d 890E0000 		.4byte	0xe89
 1669 0a31 00       		.byte	0
 1670 0a32 00       		.byte	0
 1671 0a33 00       		.byte	0
 1672 0a34 29       		.uleb128 0x29
 1673 0a35 18000000 		.4byte	.LVL4
 1674 0a39 900E0000 		.4byte	0xe90
 1675 0a3d 2A       		.uleb128 0x2a
 1676 0a3e 01       		.uleb128 0x1
 1677 0a3f 50       		.byte	0x50
 1678 0a40 02       		.uleb128 0x2
 1679 0a41 74       		.byte	0x74
 1680 0a42 00       		.sleb128 0
 1681 0a43 00       		.byte	0
 1682 0a44 00       		.byte	0
 1683 0a45 17       		.uleb128 0x17
 1684 0a46 5E070000 		.4byte	0x75e
 1685 0a4a 550A0000 		.4byte	0xa55
 1686 0a4e 18       		.uleb128 0x18
 1687 0a4f 4F040000 		.4byte	0x44f
 1688 0a53 08       		.byte	0x8
 1689 0a54 00       		.byte	0
 1690 0a55 13       		.uleb128 0x13
 1691 0a56 450A0000 		.4byte	0xa45
 1692 0a5a 1C       		.uleb128 0x1c
 1693 0a5b 89030000 		.4byte	.LASF127
 1694 0a5f 01       		.byte	0x1
 1695 0a60 68       		.byte	0x68
 1696 0a61 00000000 		.4byte	.LFB280
 1697 0a65 26000000 		.4byte	.LFE280-.LFB280
 1698 0a69 01       		.uleb128 0x1
 1699 0a6a 9C       		.byte	0x9c
 1700 0a6b 5B0B0000 		.4byte	0xb5b
 1701 0a6f 20       		.uleb128 0x20
 1702 0a70 53010000 		.4byte	.LASF126
 1703 0a74 01       		.byte	0x1
 1704 0a75 68       		.byte	0x68
 1705 0a76 10080000 		.4byte	0x810
 1706 0a7a 3C000000 		.4byte	.LLST2
 1707 0a7e 21       		.uleb128 0x21
 1708 0a7f A9050000 		.4byte	.LASF128
 1709 0a83 6B0B0000 		.4byte	0xb6b
 1710 0a87 22       		.uleb128 0x22
ARM GAS  /tmp/cczp6DF1.s 			page 31


 1711 0a88 A8080000 		.4byte	0x8a8
 1712 0a8c 04000000 		.4byte	.LBB70
 1713 0a90 0A000000 		.4byte	.LBE70-.LBB70
 1714 0a94 01       		.byte	0x1
 1715 0a95 6C       		.byte	0x6c
 1716 0a96 E10A0000 		.4byte	0xae1
 1717 0a9a 23       		.uleb128 0x23
 1718 0a9b FC080000 		.4byte	0x8fc
 1719 0a9f 04000000 		.4byte	.LBB71
 1720 0aa3 0A000000 		.4byte	.LBE71-.LBB71
 1721 0aa7 11       		.byte	0x11
 1722 0aa8 ED01     		.2byte	0x1ed
 1723 0aaa 24       		.uleb128 0x24
 1724 0aab 96080000 		.4byte	0x896
 1725 0aaf 04000000 		.4byte	.LBB73
 1726 0ab3 06000000 		.4byte	.LBE73-.LBB73
 1727 0ab7 03       		.byte	0x3
 1728 0ab8 7801     		.2byte	0x178
 1729 0aba D60A0000 		.4byte	0xad6
 1730 0abe 23       		.uleb128 0x23
 1731 0abf 7C080000 		.4byte	0x87c
 1732 0ac3 04000000 		.4byte	.LBB74
 1733 0ac7 06000000 		.4byte	.LBE74-.LBB74
 1734 0acb 0A       		.byte	0xa
 1735 0acc 5A02     		.2byte	0x25a
 1736 0ace 25       		.uleb128 0x25
 1737 0acf 89080000 		.4byte	0x889
 1738 0ad3 20       		.byte	0x20
 1739 0ad4 00       		.byte	0
 1740 0ad5 00       		.byte	0
 1741 0ad6 26       		.uleb128 0x26
 1742 0ad7 0E000000 		.4byte	.LVL7
 1743 0adb 820E0000 		.4byte	0xe82
 1744 0adf 00       		.byte	0
 1745 0ae0 00       		.byte	0
 1746 0ae1 22       		.uleb128 0x22
 1747 0ae2 B1080000 		.4byte	0x8b1
 1748 0ae6 1C000000 		.4byte	.LBB76
 1749 0aea 0A000000 		.4byte	.LBE76-.LBB76
 1750 0aee 01       		.byte	0x1
 1751 0aef 75       		.byte	0x75
 1752 0af0 4A0B0000 		.4byte	0xb4a
 1753 0af4 23       		.uleb128 0x23
 1754 0af5 05090000 		.4byte	0x905
 1755 0af9 1C000000 		.4byte	.LBB77
 1756 0afd 0A000000 		.4byte	.LBE77-.LBB77
 1757 0b01 11       		.byte	0x11
 1758 0b02 F801     		.2byte	0x1f8
 1759 0b04 27       		.uleb128 0x27
 1760 0b05 1C000000 		.4byte	.LBB78
 1761 0b09 0A000000 		.4byte	.LBE78-.LBB78
 1762 0b0d 28       		.uleb128 0x28
 1763 0b0e 12090000 		.4byte	0x912
 1764 0b12 24       		.uleb128 0x24
 1765 0b13 9F080000 		.4byte	0x89f
 1766 0b17 20000000 		.4byte	.LBB79
 1767 0b1b 06000000 		.4byte	.LBE79-.LBB79
ARM GAS  /tmp/cczp6DF1.s 			page 32


 1768 0b1f 03       		.byte	0x3
 1769 0b20 8F01     		.2byte	0x18f
 1770 0b22 3E0B0000 		.4byte	0xb3e
 1771 0b26 23       		.uleb128 0x23
 1772 0b27 7C080000 		.4byte	0x87c
 1773 0b2b 20000000 		.4byte	.LBB80
 1774 0b2f 06000000 		.4byte	.LBE80-.LBB80
 1775 0b33 0A       		.byte	0xa
 1776 0b34 6D02     		.2byte	0x26d
 1777 0b36 25       		.uleb128 0x25
 1778 0b37 89080000 		.4byte	0x889
 1779 0b3b 00       		.byte	0
 1780 0b3c 00       		.byte	0
 1781 0b3d 00       		.byte	0
 1782 0b3e 26       		.uleb128 0x26
 1783 0b3f 20000000 		.4byte	.LVL9
 1784 0b43 890E0000 		.4byte	0xe89
 1785 0b47 00       		.byte	0
 1786 0b48 00       		.byte	0
 1787 0b49 00       		.byte	0
 1788 0b4a 29       		.uleb128 0x29
 1789 0b4b 14000000 		.4byte	.LVL8
 1790 0b4f A10E0000 		.4byte	0xea1
 1791 0b53 2A       		.uleb128 0x2a
 1792 0b54 01       		.uleb128 0x1
 1793 0b55 50       		.byte	0x50
 1794 0b56 02       		.uleb128 0x2
 1795 0b57 74       		.byte	0x74
 1796 0b58 00       		.sleb128 0
 1797 0b59 00       		.byte	0
 1798 0b5a 00       		.byte	0
 1799 0b5b 17       		.uleb128 0x17
 1800 0b5c 5E070000 		.4byte	0x75e
 1801 0b60 6B0B0000 		.4byte	0xb6b
 1802 0b64 18       		.uleb128 0x18
 1803 0b65 4F040000 		.4byte	0x44f
 1804 0b69 07       		.byte	0x7
 1805 0b6a 00       		.byte	0
 1806 0b6b 13       		.uleb128 0x13
 1807 0b6c 5B0B0000 		.4byte	0xb5b
 1808 0b70 1C       		.uleb128 0x1c
 1809 0b71 B0060000 		.4byte	.LASF129
 1810 0b75 01       		.byte	0x1
 1811 0b76 81       		.byte	0x81
 1812 0b77 00000000 		.4byte	.LFB281
 1813 0b7b 24000000 		.4byte	.LFE281-.LFB281
 1814 0b7f 01       		.uleb128 0x1
 1815 0b80 9C       		.byte	0x9c
 1816 0b81 860C0000 		.4byte	0xc86
 1817 0b85 20       		.uleb128 0x20
 1818 0b86 53010000 		.4byte	.LASF126
 1819 0b8a 01       		.byte	0x1
 1820 0b8b 81       		.byte	0x81
 1821 0b8c 10080000 		.4byte	0x810
 1822 0b90 5A000000 		.4byte	.LLST3
 1823 0b94 20       		.uleb128 0x20
 1824 0b95 CA050000 		.4byte	.LASF130
ARM GAS  /tmp/cczp6DF1.s 			page 33


 1825 0b99 01       		.byte	0x1
 1826 0b9a 81       		.byte	0x81
 1827 0b9b E4070000 		.4byte	0x7e4
 1828 0b9f 78000000 		.4byte	.LLST4
 1829 0ba3 21       		.uleb128 0x21
 1830 0ba4 A9050000 		.4byte	.LASF128
 1831 0ba8 960C0000 		.4byte	0xc96
 1832 0bac 22       		.uleb128 0x22
 1833 0bad A8080000 		.4byte	0x8a8
 1834 0bb1 06000000 		.4byte	.LBB96
 1835 0bb5 0A000000 		.4byte	.LBE96-.LBB96
 1836 0bb9 01       		.byte	0x1
 1837 0bba 85       		.byte	0x85
 1838 0bbb 060C0000 		.4byte	0xc06
 1839 0bbf 23       		.uleb128 0x23
 1840 0bc0 FC080000 		.4byte	0x8fc
 1841 0bc4 06000000 		.4byte	.LBB97
 1842 0bc8 0A000000 		.4byte	.LBE97-.LBB97
 1843 0bcc 11       		.byte	0x11
 1844 0bcd ED01     		.2byte	0x1ed
 1845 0bcf 24       		.uleb128 0x24
 1846 0bd0 96080000 		.4byte	0x896
 1847 0bd4 06000000 		.4byte	.LBB99
 1848 0bd8 06000000 		.4byte	.LBE99-.LBB99
 1849 0bdc 03       		.byte	0x3
 1850 0bdd 7801     		.2byte	0x178
 1851 0bdf FB0B0000 		.4byte	0xbfb
 1852 0be3 23       		.uleb128 0x23
 1853 0be4 7C080000 		.4byte	0x87c
 1854 0be8 06000000 		.4byte	.LBB100
 1855 0bec 06000000 		.4byte	.LBE100-.LBB100
 1856 0bf0 0A       		.byte	0xa
 1857 0bf1 5A02     		.2byte	0x25a
 1858 0bf3 25       		.uleb128 0x25
 1859 0bf4 89080000 		.4byte	0x889
 1860 0bf8 20       		.byte	0x20
 1861 0bf9 00       		.byte	0
 1862 0bfa 00       		.byte	0
 1863 0bfb 26       		.uleb128 0x26
 1864 0bfc 10000000 		.4byte	.LVL11
 1865 0c00 820E0000 		.4byte	0xe82
 1866 0c04 00       		.byte	0
 1867 0c05 00       		.byte	0
 1868 0c06 22       		.uleb128 0x22
 1869 0c07 B1080000 		.4byte	0x8b1
 1870 0c0b 18000000 		.4byte	.LBB102
 1871 0c0f 0C000000 		.4byte	.LBE102-.LBB102
 1872 0c13 01       		.byte	0x1
 1873 0c14 8B       		.byte	0x8b
 1874 0c15 6F0C0000 		.4byte	0xc6f
 1875 0c19 23       		.uleb128 0x23
 1876 0c1a 05090000 		.4byte	0x905
 1877 0c1e 18000000 		.4byte	.LBB103
 1878 0c22 0C000000 		.4byte	.LBE103-.LBB103
 1879 0c26 11       		.byte	0x11
 1880 0c27 F801     		.2byte	0x1f8
 1881 0c29 27       		.uleb128 0x27
ARM GAS  /tmp/cczp6DF1.s 			page 34


 1882 0c2a 18000000 		.4byte	.LBB104
 1883 0c2e 0C000000 		.4byte	.LBE104-.LBB104
 1884 0c32 28       		.uleb128 0x28
 1885 0c33 12090000 		.4byte	0x912
 1886 0c37 24       		.uleb128 0x24
 1887 0c38 9F080000 		.4byte	0x89f
 1888 0c3c 1C000000 		.4byte	.LBB105
 1889 0c40 08000000 		.4byte	.LBE105-.LBB105
 1890 0c44 03       		.byte	0x3
 1891 0c45 8F01     		.2byte	0x18f
 1892 0c47 630C0000 		.4byte	0xc63
 1893 0c4b 23       		.uleb128 0x23
 1894 0c4c 7C080000 		.4byte	0x87c
 1895 0c50 1C000000 		.4byte	.LBB106
 1896 0c54 08000000 		.4byte	.LBE106-.LBB106
 1897 0c58 0A       		.byte	0xa
 1898 0c59 6D02     		.2byte	0x26d
 1899 0c5b 25       		.uleb128 0x25
 1900 0c5c 89080000 		.4byte	0x889
 1901 0c60 00       		.byte	0
 1902 0c61 00       		.byte	0
 1903 0c62 00       		.byte	0
 1904 0c63 26       		.uleb128 0x26
 1905 0c64 1C000000 		.4byte	.LVL13
 1906 0c68 890E0000 		.4byte	0xe89
 1907 0c6c 00       		.byte	0
 1908 0c6d 00       		.byte	0
 1909 0c6e 00       		.byte	0
 1910 0c6f 29       		.uleb128 0x29
 1911 0c70 18000000 		.4byte	.LVL12
 1912 0c74 B20E0000 		.4byte	0xeb2
 1913 0c78 2A       		.uleb128 0x2a
 1914 0c79 01       		.uleb128 0x1
 1915 0c7a 51       		.byte	0x51
 1916 0c7b 02       		.uleb128 0x2
 1917 0c7c 74       		.byte	0x74
 1918 0c7d 00       		.sleb128 0
 1919 0c7e 2A       		.uleb128 0x2a
 1920 0c7f 01       		.uleb128 0x1
 1921 0c80 50       		.byte	0x50
 1922 0c81 02       		.uleb128 0x2
 1923 0c82 75       		.byte	0x75
 1924 0c83 00       		.sleb128 0
 1925 0c84 00       		.byte	0
 1926 0c85 00       		.byte	0
 1927 0c86 17       		.uleb128 0x17
 1928 0c87 5E070000 		.4byte	0x75e
 1929 0c8b 960C0000 		.4byte	0xc96
 1930 0c8f 18       		.uleb128 0x18
 1931 0c90 4F040000 		.4byte	0x44f
 1932 0c94 10       		.byte	0x10
 1933 0c95 00       		.byte	0
 1934 0c96 13       		.uleb128 0x13
 1935 0c97 860C0000 		.4byte	0xc86
 1936 0c9b 1C       		.uleb128 0x1c
 1937 0c9c F0050000 		.4byte	.LASF131
 1938 0ca0 01       		.byte	0x1
ARM GAS  /tmp/cczp6DF1.s 			page 35


 1939 0ca1 97       		.byte	0x97
 1940 0ca2 00000000 		.4byte	.LFB282
 1941 0ca6 24000000 		.4byte	.LFE282-.LFB282
 1942 0caa 01       		.uleb128 0x1
 1943 0cab 9C       		.byte	0x9c
 1944 0cac B10D0000 		.4byte	0xdb1
 1945 0cb0 20       		.uleb128 0x20
 1946 0cb1 53010000 		.4byte	.LASF126
 1947 0cb5 01       		.byte	0x1
 1948 0cb6 97       		.byte	0x97
 1949 0cb7 10080000 		.4byte	0x810
 1950 0cbb 96000000 		.4byte	.LLST5
 1951 0cbf 20       		.uleb128 0x20
 1952 0cc0 CA050000 		.4byte	.LASF130
 1953 0cc4 01       		.byte	0x1
 1954 0cc5 97       		.byte	0x97
 1955 0cc6 E4070000 		.4byte	0x7e4
 1956 0cca B4000000 		.4byte	.LLST6
 1957 0cce 21       		.uleb128 0x21
 1958 0ccf A9050000 		.4byte	.LASF128
 1959 0cd3 C10D0000 		.4byte	0xdc1
 1960 0cd7 22       		.uleb128 0x22
 1961 0cd8 A8080000 		.4byte	0x8a8
 1962 0cdc 06000000 		.4byte	.LBB122
 1963 0ce0 0A000000 		.4byte	.LBE122-.LBB122
 1964 0ce4 01       		.byte	0x1
 1965 0ce5 9B       		.byte	0x9b
 1966 0ce6 310D0000 		.4byte	0xd31
 1967 0cea 23       		.uleb128 0x23
 1968 0ceb FC080000 		.4byte	0x8fc
 1969 0cef 06000000 		.4byte	.LBB123
 1970 0cf3 0A000000 		.4byte	.LBE123-.LBB123
 1971 0cf7 11       		.byte	0x11
 1972 0cf8 ED01     		.2byte	0x1ed
 1973 0cfa 24       		.uleb128 0x24
 1974 0cfb 96080000 		.4byte	0x896
 1975 0cff 06000000 		.4byte	.LBB125
 1976 0d03 06000000 		.4byte	.LBE125-.LBB125
 1977 0d07 03       		.byte	0x3
 1978 0d08 7801     		.2byte	0x178
 1979 0d0a 260D0000 		.4byte	0xd26
 1980 0d0e 23       		.uleb128 0x23
 1981 0d0f 7C080000 		.4byte	0x87c
 1982 0d13 06000000 		.4byte	.LBB126
 1983 0d17 06000000 		.4byte	.LBE126-.LBB126
 1984 0d1b 0A       		.byte	0xa
 1985 0d1c 5A02     		.2byte	0x25a
 1986 0d1e 25       		.uleb128 0x25
 1987 0d1f 89080000 		.4byte	0x889
 1988 0d23 20       		.byte	0x20
 1989 0d24 00       		.byte	0
 1990 0d25 00       		.byte	0
 1991 0d26 26       		.uleb128 0x26
 1992 0d27 10000000 		.4byte	.LVL15
 1993 0d2b 820E0000 		.4byte	0xe82
 1994 0d2f 00       		.byte	0
 1995 0d30 00       		.byte	0
ARM GAS  /tmp/cczp6DF1.s 			page 36


 1996 0d31 22       		.uleb128 0x22
 1997 0d32 B1080000 		.4byte	0x8b1
 1998 0d36 18000000 		.4byte	.LBB128
 1999 0d3a 0C000000 		.4byte	.LBE128-.LBB128
 2000 0d3e 01       		.byte	0x1
 2001 0d3f A1       		.byte	0xa1
 2002 0d40 9A0D0000 		.4byte	0xd9a
 2003 0d44 23       		.uleb128 0x23
 2004 0d45 05090000 		.4byte	0x905
 2005 0d49 18000000 		.4byte	.LBB129
 2006 0d4d 0C000000 		.4byte	.LBE129-.LBB129
 2007 0d51 11       		.byte	0x11
 2008 0d52 F801     		.2byte	0x1f8
 2009 0d54 27       		.uleb128 0x27
 2010 0d55 18000000 		.4byte	.LBB130
 2011 0d59 0C000000 		.4byte	.LBE130-.LBB130
 2012 0d5d 28       		.uleb128 0x28
 2013 0d5e 12090000 		.4byte	0x912
 2014 0d62 24       		.uleb128 0x24
 2015 0d63 9F080000 		.4byte	0x89f
 2016 0d67 1C000000 		.4byte	.LBB131
 2017 0d6b 08000000 		.4byte	.LBE131-.LBB131
 2018 0d6f 03       		.byte	0x3
 2019 0d70 8F01     		.2byte	0x18f
 2020 0d72 8E0D0000 		.4byte	0xd8e
 2021 0d76 23       		.uleb128 0x23
 2022 0d77 7C080000 		.4byte	0x87c
 2023 0d7b 1C000000 		.4byte	.LBB132
 2024 0d7f 08000000 		.4byte	.LBE132-.LBB132
 2025 0d83 0A       		.byte	0xa
 2026 0d84 6D02     		.2byte	0x26d
 2027 0d86 25       		.uleb128 0x25
 2028 0d87 89080000 		.4byte	0x889
 2029 0d8b 00       		.byte	0
 2030 0d8c 00       		.byte	0
 2031 0d8d 00       		.byte	0
 2032 0d8e 26       		.uleb128 0x26
 2033 0d8f 1C000000 		.4byte	.LVL17
 2034 0d93 890E0000 		.4byte	0xe89
 2035 0d97 00       		.byte	0
 2036 0d98 00       		.byte	0
 2037 0d99 00       		.byte	0
 2038 0d9a 29       		.uleb128 0x29
 2039 0d9b 18000000 		.4byte	.LVL16
 2040 0d9f C80E0000 		.4byte	0xec8
 2041 0da3 2A       		.uleb128 0x2a
 2042 0da4 01       		.uleb128 0x1
 2043 0da5 51       		.byte	0x51
 2044 0da6 02       		.uleb128 0x2
 2045 0da7 74       		.byte	0x74
 2046 0da8 00       		.sleb128 0
 2047 0da9 2A       		.uleb128 0x2a
 2048 0daa 01       		.uleb128 0x1
 2049 0dab 50       		.byte	0x50
 2050 0dac 02       		.uleb128 0x2
 2051 0dad 75       		.byte	0x75
 2052 0dae 00       		.sleb128 0
ARM GAS  /tmp/cczp6DF1.s 			page 37


 2053 0daf 00       		.byte	0
 2054 0db0 00       		.byte	0
 2055 0db1 17       		.uleb128 0x17
 2056 0db2 5E070000 		.4byte	0x75e
 2057 0db6 C10D0000 		.4byte	0xdc1
 2058 0dba 18       		.uleb128 0x18
 2059 0dbb 4F040000 		.4byte	0x44f
 2060 0dbf 11       		.byte	0x11
 2061 0dc0 00       		.byte	0
 2062 0dc1 13       		.uleb128 0x13
 2063 0dc2 B10D0000 		.4byte	0xdb1
 2064 0dc6 1C       		.uleb128 0x1c
 2065 0dc7 AD000000 		.4byte	.LASF132
 2066 0dcb 01       		.byte	0x1
 2067 0dcc B5       		.byte	0xb5
 2068 0dcd 00000000 		.4byte	.LFB283
 2069 0dd1 20000000 		.4byte	.LFE283-.LFB283
 2070 0dd5 01       		.uleb128 0x1
 2071 0dd6 9C       		.byte	0x9c
 2072 0dd7 390E0000 		.4byte	0xe39
 2073 0ddb 20       		.uleb128 0x20
 2074 0ddc 53010000 		.4byte	.LASF126
 2075 0de0 01       		.byte	0x1
 2076 0de1 B5       		.byte	0xb5
 2077 0de2 10080000 		.4byte	0x810
 2078 0de6 D2000000 		.4byte	.LLST7
 2079 0dea 20       		.uleb128 0x20
 2080 0deb CA050000 		.4byte	.LASF130
 2081 0def 01       		.byte	0x1
 2082 0df0 B6       		.byte	0xb6
 2083 0df1 E4070000 		.4byte	0x7e4
 2084 0df5 09010000 		.4byte	.LLST8
 2085 0df9 20       		.uleb128 0x20
 2086 0dfa 4B070000 		.4byte	.LASF133
 2087 0dfe 01       		.byte	0x1
 2088 0dff B7       		.byte	0xb7
 2089 0e00 390E0000 		.4byte	0xe39
 2090 0e04 40010000 		.4byte	.LLST9
 2091 0e08 2B       		.uleb128 0x2b
 2092 0e09 71040000 		.4byte	.LASF145
 2093 0e0d 01       		.byte	0x1
 2094 0e0e B8       		.byte	0xb8
 2095 0e0f 440E0000 		.4byte	0xe44
 2096 0e13 61010000 		.4byte	.LLST10
 2097 0e17 21       		.uleb128 0x21
 2098 0e18 A9050000 		.4byte	.LASF128
 2099 0e1c 5A0E0000 		.4byte	0xe5a
 2100 0e20 2C       		.uleb128 0x2c
 2101 0e21 20000000 		.4byte	.LVL22
 2102 0e25 B20E0000 		.4byte	0xeb2
 2103 0e29 2A       		.uleb128 0x2a
 2104 0e2a 01       		.uleb128 0x1
 2105 0e2b 51       		.byte	0x51
 2106 0e2c 03       		.uleb128 0x3
 2107 0e2d F3       		.byte	0xf3
 2108 0e2e 01       		.uleb128 0x1
 2109 0e2f 51       		.byte	0x51
ARM GAS  /tmp/cczp6DF1.s 			page 38


 2110 0e30 2A       		.uleb128 0x2a
 2111 0e31 01       		.uleb128 0x1
 2112 0e32 50       		.byte	0x50
 2113 0e33 03       		.uleb128 0x3
 2114 0e34 F3       		.byte	0xf3
 2115 0e35 01       		.uleb128 0x1
 2116 0e36 50       		.byte	0x50
 2117 0e37 00       		.byte	0
 2118 0e38 00       		.byte	0
 2119 0e39 0A       		.uleb128 0xa
 2120 0e3a 04       		.byte	0x4
 2121 0e3b 3F0E0000 		.4byte	0xe3f
 2122 0e3f 13       		.uleb128 0x13
 2123 0e40 36080000 		.4byte	0x836
 2124 0e44 0A       		.uleb128 0xa
 2125 0e45 04       		.byte	0x4
 2126 0e46 36080000 		.4byte	0x836
 2127 0e4a 17       		.uleb128 0x17
 2128 0e4b 5E070000 		.4byte	0x75e
 2129 0e4f 5A0E0000 		.4byte	0xe5a
 2130 0e53 18       		.uleb128 0x18
 2131 0e54 4F040000 		.4byte	0x44f
 2132 0e58 12       		.byte	0x12
 2133 0e59 00       		.byte	0
 2134 0e5a 13       		.uleb128 0x13
 2135 0e5b 4A0E0000 		.4byte	0xe4a
 2136 0e5f 2D       		.uleb128 0x2d
 2137 0e60 09010000 		.4byte	.LASF134
 2138 0e64 12       		.byte	0x12
 2139 0e65 4407     		.2byte	0x744
 2140 0e67 6B0E0000 		.4byte	0xe6b
 2141 0e6b 14       		.uleb128 0x14
 2142 0e6c A2000000 		.4byte	0xa2
 2143 0e70 2E       		.uleb128 0x2e
 2144 0e71 636800   		.ascii	"ch\000"
 2145 0e74 08       		.byte	0x8
 2146 0e75 D201     		.2byte	0x1d2
 2147 0e77 E9030000 		.4byte	0x3e9
 2148 0e7b 2F       		.uleb128 0x2f
 2149 0e7c B1010000 		.4byte	.LASF135
 2150 0e80 10       		.byte	0x10
 2151 0e81 8E       		.byte	0x8e
 2152 0e82 2F       		.uleb128 0x2f
 2153 0e83 F8060000 		.4byte	.LASF136
 2154 0e87 0C       		.byte	0xc
 2155 0e88 4F       		.byte	0x4f
 2156 0e89 2F       		.uleb128 0x2f
 2157 0e8a 77040000 		.4byte	.LASF137
 2158 0e8e 0C       		.byte	0xc
 2159 0e8f 50       		.byte	0x50
 2160 0e90 30       		.uleb128 0x30
 2161 0e91 97030000 		.4byte	.LASF138
 2162 0e95 10       		.byte	0x10
 2163 0e96 8F       		.byte	0x8f
 2164 0e97 A10E0000 		.4byte	0xea1
 2165 0e9b 0D       		.uleb128 0xd
 2166 0e9c 10080000 		.4byte	0x810
ARM GAS  /tmp/cczp6DF1.s 			page 39


 2167 0ea0 00       		.byte	0
 2168 0ea1 30       		.uleb128 0x30
 2169 0ea2 07040000 		.4byte	.LASF139
 2170 0ea6 10       		.byte	0x10
 2171 0ea7 90       		.byte	0x90
 2172 0ea8 B20E0000 		.4byte	0xeb2
 2173 0eac 0D       		.uleb128 0xd
 2174 0ead 10080000 		.4byte	0x810
 2175 0eb1 00       		.byte	0
 2176 0eb2 30       		.uleb128 0x30
 2177 0eb3 D2040000 		.4byte	.LASF140
 2178 0eb7 10       		.byte	0x10
 2179 0eb8 91       		.byte	0x91
 2180 0eb9 C80E0000 		.4byte	0xec8
 2181 0ebd 0D       		.uleb128 0xd
 2182 0ebe 10080000 		.4byte	0x810
 2183 0ec2 0D       		.uleb128 0xd
 2184 0ec3 E4070000 		.4byte	0x7e4
 2185 0ec7 00       		.byte	0
 2186 0ec8 31       		.uleb128 0x31
 2187 0ec9 24010000 		.4byte	.LASF146
 2188 0ecd 10       		.byte	0x10
 2189 0ece 92       		.byte	0x92
 2190 0ecf 0D       		.uleb128 0xd
 2191 0ed0 10080000 		.4byte	0x810
 2192 0ed4 0D       		.uleb128 0xd
 2193 0ed5 E4070000 		.4byte	0x7e4
 2194 0ed9 00       		.byte	0
 2195 0eda 00       		.byte	0
 2196              		.section	.debug_abbrev,"",%progbits
 2197              	.Ldebug_abbrev0:
 2198 0000 01       		.uleb128 0x1
 2199 0001 11       		.uleb128 0x11
 2200 0002 01       		.byte	0x1
 2201 0003 25       		.uleb128 0x25
 2202 0004 0E       		.uleb128 0xe
 2203 0005 13       		.uleb128 0x13
 2204 0006 0B       		.uleb128 0xb
 2205 0007 03       		.uleb128 0x3
 2206 0008 0E       		.uleb128 0xe
 2207 0009 1B       		.uleb128 0x1b
 2208 000a 0E       		.uleb128 0xe
 2209 000b 55       		.uleb128 0x55
 2210 000c 17       		.uleb128 0x17
 2211 000d 11       		.uleb128 0x11
 2212 000e 01       		.uleb128 0x1
 2213 000f 10       		.uleb128 0x10
 2214 0010 17       		.uleb128 0x17
 2215 0011 00       		.byte	0
 2216 0012 00       		.byte	0
 2217 0013 02       		.uleb128 0x2
 2218 0014 24       		.uleb128 0x24
 2219 0015 00       		.byte	0
 2220 0016 0B       		.uleb128 0xb
 2221 0017 0B       		.uleb128 0xb
 2222 0018 3E       		.uleb128 0x3e
 2223 0019 0B       		.uleb128 0xb
ARM GAS  /tmp/cczp6DF1.s 			page 40


 2224 001a 03       		.uleb128 0x3
 2225 001b 08       		.uleb128 0x8
 2226 001c 00       		.byte	0
 2227 001d 00       		.byte	0
 2228 001e 03       		.uleb128 0x3
 2229 001f 24       		.uleb128 0x24
 2230 0020 00       		.byte	0
 2231 0021 0B       		.uleb128 0xb
 2232 0022 0B       		.uleb128 0xb
 2233 0023 3E       		.uleb128 0x3e
 2234 0024 0B       		.uleb128 0xb
 2235 0025 03       		.uleb128 0x3
 2236 0026 0E       		.uleb128 0xe
 2237 0027 00       		.byte	0
 2238 0028 00       		.byte	0
 2239 0029 04       		.uleb128 0x4
 2240 002a 16       		.uleb128 0x16
 2241 002b 00       		.byte	0
 2242 002c 03       		.uleb128 0x3
 2243 002d 0E       		.uleb128 0xe
 2244 002e 3A       		.uleb128 0x3a
 2245 002f 0B       		.uleb128 0xb
 2246 0030 3B       		.uleb128 0x3b
 2247 0031 0B       		.uleb128 0xb
 2248 0032 49       		.uleb128 0x49
 2249 0033 13       		.uleb128 0x13
 2250 0034 00       		.byte	0
 2251 0035 00       		.byte	0
 2252 0036 05       		.uleb128 0x5
 2253 0037 13       		.uleb128 0x13
 2254 0038 01       		.byte	0x1
 2255 0039 03       		.uleb128 0x3
 2256 003a 0E       		.uleb128 0xe
 2257 003b 0B       		.uleb128 0xb
 2258 003c 0B       		.uleb128 0xb
 2259 003d 3A       		.uleb128 0x3a
 2260 003e 0B       		.uleb128 0xb
 2261 003f 3B       		.uleb128 0x3b
 2262 0040 0B       		.uleb128 0xb
 2263 0041 01       		.uleb128 0x1
 2264 0042 13       		.uleb128 0x13
 2265 0043 00       		.byte	0
 2266 0044 00       		.byte	0
 2267 0045 06       		.uleb128 0x6
 2268 0046 0D       		.uleb128 0xd
 2269 0047 00       		.byte	0
 2270 0048 03       		.uleb128 0x3
 2271 0049 0E       		.uleb128 0xe
 2272 004a 3A       		.uleb128 0x3a
 2273 004b 0B       		.uleb128 0xb
 2274 004c 3B       		.uleb128 0x3b
 2275 004d 0B       		.uleb128 0xb
 2276 004e 49       		.uleb128 0x49
 2277 004f 13       		.uleb128 0x13
 2278 0050 38       		.uleb128 0x38
 2279 0051 0B       		.uleb128 0xb
 2280 0052 00       		.byte	0
ARM GAS  /tmp/cczp6DF1.s 			page 41


 2281 0053 00       		.byte	0
 2282 0054 07       		.uleb128 0x7
 2283 0055 0D       		.uleb128 0xd
 2284 0056 00       		.byte	0
 2285 0057 03       		.uleb128 0x3
 2286 0058 08       		.uleb128 0x8
 2287 0059 3A       		.uleb128 0x3a
 2288 005a 0B       		.uleb128 0xb
 2289 005b 3B       		.uleb128 0x3b
 2290 005c 0B       		.uleb128 0xb
 2291 005d 49       		.uleb128 0x49
 2292 005e 13       		.uleb128 0x13
 2293 005f 38       		.uleb128 0x38
 2294 0060 0B       		.uleb128 0xb
 2295 0061 00       		.byte	0
 2296 0062 00       		.byte	0
 2297 0063 08       		.uleb128 0x8
 2298 0064 0D       		.uleb128 0xd
 2299 0065 00       		.byte	0
 2300 0066 03       		.uleb128 0x3
 2301 0067 08       		.uleb128 0x8
 2302 0068 3A       		.uleb128 0x3a
 2303 0069 0B       		.uleb128 0xb
 2304 006a 3B       		.uleb128 0x3b
 2305 006b 05       		.uleb128 0x5
 2306 006c 49       		.uleb128 0x49
 2307 006d 13       		.uleb128 0x13
 2308 006e 38       		.uleb128 0x38
 2309 006f 0B       		.uleb128 0xb
 2310 0070 00       		.byte	0
 2311 0071 00       		.byte	0
 2312 0072 09       		.uleb128 0x9
 2313 0073 0D       		.uleb128 0xd
 2314 0074 00       		.byte	0
 2315 0075 03       		.uleb128 0x3
 2316 0076 0E       		.uleb128 0xe
 2317 0077 3A       		.uleb128 0x3a
 2318 0078 0B       		.uleb128 0xb
 2319 0079 3B       		.uleb128 0x3b
 2320 007a 05       		.uleb128 0x5
 2321 007b 49       		.uleb128 0x49
 2322 007c 13       		.uleb128 0x13
 2323 007d 38       		.uleb128 0x38
 2324 007e 0B       		.uleb128 0xb
 2325 007f 00       		.byte	0
 2326 0080 00       		.byte	0
 2327 0081 0A       		.uleb128 0xa
 2328 0082 0F       		.uleb128 0xf
 2329 0083 00       		.byte	0
 2330 0084 0B       		.uleb128 0xb
 2331 0085 0B       		.uleb128 0xb
 2332 0086 49       		.uleb128 0x49
 2333 0087 13       		.uleb128 0x13
 2334 0088 00       		.byte	0
 2335 0089 00       		.byte	0
 2336 008a 0B       		.uleb128 0xb
 2337 008b 13       		.uleb128 0x13
ARM GAS  /tmp/cczp6DF1.s 			page 42


 2338 008c 01       		.byte	0x1
 2339 008d 03       		.uleb128 0x3
 2340 008e 0E       		.uleb128 0xe
 2341 008f 0B       		.uleb128 0xb
 2342 0090 0B       		.uleb128 0xb
 2343 0091 3A       		.uleb128 0x3a
 2344 0092 0B       		.uleb128 0xb
 2345 0093 3B       		.uleb128 0x3b
 2346 0094 05       		.uleb128 0x5
 2347 0095 01       		.uleb128 0x1
 2348 0096 13       		.uleb128 0x13
 2349 0097 00       		.byte	0
 2350 0098 00       		.byte	0
 2351 0099 0C       		.uleb128 0xc
 2352 009a 15       		.uleb128 0x15
 2353 009b 01       		.byte	0x1
 2354 009c 27       		.uleb128 0x27
 2355 009d 19       		.uleb128 0x19
 2356 009e 01       		.uleb128 0x1
 2357 009f 13       		.uleb128 0x13
 2358 00a0 00       		.byte	0
 2359 00a1 00       		.byte	0
 2360 00a2 0D       		.uleb128 0xd
 2361 00a3 05       		.uleb128 0x5
 2362 00a4 00       		.byte	0
 2363 00a5 49       		.uleb128 0x49
 2364 00a6 13       		.uleb128 0x13
 2365 00a7 00       		.byte	0
 2366 00a8 00       		.byte	0
 2367 00a9 0E       		.uleb128 0xe
 2368 00aa 0F       		.uleb128 0xf
 2369 00ab 00       		.byte	0
 2370 00ac 0B       		.uleb128 0xb
 2371 00ad 0B       		.uleb128 0xb
 2372 00ae 00       		.byte	0
 2373 00af 00       		.byte	0
 2374 00b0 0F       		.uleb128 0xf
 2375 00b1 13       		.uleb128 0x13
 2376 00b2 01       		.byte	0x1
 2377 00b3 0B       		.uleb128 0xb
 2378 00b4 0B       		.uleb128 0xb
 2379 00b5 3A       		.uleb128 0x3a
 2380 00b6 0B       		.uleb128 0xb
 2381 00b7 3B       		.uleb128 0x3b
 2382 00b8 0B       		.uleb128 0xb
 2383 00b9 01       		.uleb128 0x1
 2384 00ba 13       		.uleb128 0x13
 2385 00bb 00       		.byte	0
 2386 00bc 00       		.byte	0
 2387 00bd 10       		.uleb128 0x10
 2388 00be 17       		.uleb128 0x17
 2389 00bf 01       		.byte	0x1
 2390 00c0 0B       		.uleb128 0xb
 2391 00c1 0B       		.uleb128 0xb
 2392 00c2 3A       		.uleb128 0x3a
 2393 00c3 0B       		.uleb128 0xb
 2394 00c4 3B       		.uleb128 0x3b
ARM GAS  /tmp/cczp6DF1.s 			page 43


 2395 00c5 0B       		.uleb128 0xb
 2396 00c6 01       		.uleb128 0x1
 2397 00c7 13       		.uleb128 0x13
 2398 00c8 00       		.byte	0
 2399 00c9 00       		.byte	0
 2400 00ca 11       		.uleb128 0x11
 2401 00cb 0D       		.uleb128 0xd
 2402 00cc 00       		.byte	0
 2403 00cd 03       		.uleb128 0x3
 2404 00ce 0E       		.uleb128 0xe
 2405 00cf 3A       		.uleb128 0x3a
 2406 00d0 0B       		.uleb128 0xb
 2407 00d1 3B       		.uleb128 0x3b
 2408 00d2 0B       		.uleb128 0xb
 2409 00d3 49       		.uleb128 0x49
 2410 00d4 13       		.uleb128 0x13
 2411 00d5 00       		.byte	0
 2412 00d6 00       		.byte	0
 2413 00d7 12       		.uleb128 0x12
 2414 00d8 0D       		.uleb128 0xd
 2415 00d9 00       		.byte	0
 2416 00da 03       		.uleb128 0x3
 2417 00db 0E       		.uleb128 0xe
 2418 00dc 3A       		.uleb128 0x3a
 2419 00dd 0B       		.uleb128 0xb
 2420 00de 3B       		.uleb128 0x3b
 2421 00df 05       		.uleb128 0x5
 2422 00e0 49       		.uleb128 0x49
 2423 00e1 13       		.uleb128 0x13
 2424 00e2 00       		.byte	0
 2425 00e3 00       		.byte	0
 2426 00e4 13       		.uleb128 0x13
 2427 00e5 26       		.uleb128 0x26
 2428 00e6 00       		.byte	0
 2429 00e7 49       		.uleb128 0x49
 2430 00e8 13       		.uleb128 0x13
 2431 00e9 00       		.byte	0
 2432 00ea 00       		.byte	0
 2433 00eb 14       		.uleb128 0x14
 2434 00ec 35       		.uleb128 0x35
 2435 00ed 00       		.byte	0
 2436 00ee 49       		.uleb128 0x49
 2437 00ef 13       		.uleb128 0x13
 2438 00f0 00       		.byte	0
 2439 00f1 00       		.byte	0
 2440 00f2 15       		.uleb128 0x15
 2441 00f3 04       		.uleb128 0x4
 2442 00f4 01       		.byte	0x1
 2443 00f5 0B       		.uleb128 0xb
 2444 00f6 0B       		.uleb128 0xb
 2445 00f7 3A       		.uleb128 0x3a
 2446 00f8 0B       		.uleb128 0xb
 2447 00f9 3B       		.uleb128 0x3b
 2448 00fa 0B       		.uleb128 0xb
 2449 00fb 01       		.uleb128 0x1
 2450 00fc 13       		.uleb128 0x13
 2451 00fd 00       		.byte	0
ARM GAS  /tmp/cczp6DF1.s 			page 44


 2452 00fe 00       		.byte	0
 2453 00ff 16       		.uleb128 0x16
 2454 0100 28       		.uleb128 0x28
 2455 0101 00       		.byte	0
 2456 0102 03       		.uleb128 0x3
 2457 0103 0E       		.uleb128 0xe
 2458 0104 1C       		.uleb128 0x1c
 2459 0105 0D       		.uleb128 0xd
 2460 0106 00       		.byte	0
 2461 0107 00       		.byte	0
 2462 0108 17       		.uleb128 0x17
 2463 0109 01       		.uleb128 0x1
 2464 010a 01       		.byte	0x1
 2465 010b 49       		.uleb128 0x49
 2466 010c 13       		.uleb128 0x13
 2467 010d 01       		.uleb128 0x1
 2468 010e 13       		.uleb128 0x13
 2469 010f 00       		.byte	0
 2470 0110 00       		.byte	0
 2471 0111 18       		.uleb128 0x18
 2472 0112 21       		.uleb128 0x21
 2473 0113 00       		.byte	0
 2474 0114 49       		.uleb128 0x49
 2475 0115 13       		.uleb128 0x13
 2476 0116 2F       		.uleb128 0x2f
 2477 0117 0B       		.uleb128 0xb
 2478 0118 00       		.byte	0
 2479 0119 00       		.byte	0
 2480 011a 19       		.uleb128 0x19
 2481 011b 2E       		.uleb128 0x2e
 2482 011c 01       		.byte	0x1
 2483 011d 03       		.uleb128 0x3
 2484 011e 0E       		.uleb128 0xe
 2485 011f 3A       		.uleb128 0x3a
 2486 0120 0B       		.uleb128 0xb
 2487 0121 3B       		.uleb128 0x3b
 2488 0122 05       		.uleb128 0x5
 2489 0123 27       		.uleb128 0x27
 2490 0124 19       		.uleb128 0x19
 2491 0125 20       		.uleb128 0x20
 2492 0126 0B       		.uleb128 0xb
 2493 0127 01       		.uleb128 0x1
 2494 0128 13       		.uleb128 0x13
 2495 0129 00       		.byte	0
 2496 012a 00       		.byte	0
 2497 012b 1A       		.uleb128 0x1a
 2498 012c 05       		.uleb128 0x5
 2499 012d 00       		.byte	0
 2500 012e 03       		.uleb128 0x3
 2501 012f 0E       		.uleb128 0xe
 2502 0130 3A       		.uleb128 0x3a
 2503 0131 0B       		.uleb128 0xb
 2504 0132 3B       		.uleb128 0x3b
 2505 0133 05       		.uleb128 0x5
 2506 0134 49       		.uleb128 0x49
 2507 0135 13       		.uleb128 0x13
 2508 0136 00       		.byte	0
ARM GAS  /tmp/cczp6DF1.s 			page 45


 2509 0137 00       		.byte	0
 2510 0138 1B       		.uleb128 0x1b
 2511 0139 2E       		.uleb128 0x2e
 2512 013a 00       		.byte	0
 2513 013b 03       		.uleb128 0x3
 2514 013c 0E       		.uleb128 0xe
 2515 013d 3A       		.uleb128 0x3a
 2516 013e 0B       		.uleb128 0xb
 2517 013f 3B       		.uleb128 0x3b
 2518 0140 05       		.uleb128 0x5
 2519 0141 27       		.uleb128 0x27
 2520 0142 19       		.uleb128 0x19
 2521 0143 20       		.uleb128 0x20
 2522 0144 0B       		.uleb128 0xb
 2523 0145 00       		.byte	0
 2524 0146 00       		.byte	0
 2525 0147 1C       		.uleb128 0x1c
 2526 0148 2E       		.uleb128 0x2e
 2527 0149 01       		.byte	0x1
 2528 014a 3F       		.uleb128 0x3f
 2529 014b 19       		.uleb128 0x19
 2530 014c 03       		.uleb128 0x3
 2531 014d 0E       		.uleb128 0xe
 2532 014e 3A       		.uleb128 0x3a
 2533 014f 0B       		.uleb128 0xb
 2534 0150 3B       		.uleb128 0x3b
 2535 0151 0B       		.uleb128 0xb
 2536 0152 27       		.uleb128 0x27
 2537 0153 19       		.uleb128 0x19
 2538 0154 11       		.uleb128 0x11
 2539 0155 01       		.uleb128 0x1
 2540 0156 12       		.uleb128 0x12
 2541 0157 06       		.uleb128 0x6
 2542 0158 40       		.uleb128 0x40
 2543 0159 18       		.uleb128 0x18
 2544 015a 9742     		.uleb128 0x2117
 2545 015c 19       		.uleb128 0x19
 2546 015d 01       		.uleb128 0x1
 2547 015e 13       		.uleb128 0x13
 2548 015f 00       		.byte	0
 2549 0160 00       		.byte	0
 2550 0161 1D       		.uleb128 0x1d
 2551 0162 898201   		.uleb128 0x4109
 2552 0165 00       		.byte	0
 2553 0166 11       		.uleb128 0x11
 2554 0167 01       		.uleb128 0x1
 2555 0168 9542     		.uleb128 0x2115
 2556 016a 19       		.uleb128 0x19
 2557 016b 31       		.uleb128 0x31
 2558 016c 13       		.uleb128 0x13
 2559 016d 00       		.byte	0
 2560 016e 00       		.byte	0
 2561 016f 1E       		.uleb128 0x1e
 2562 0170 05       		.uleb128 0x5
 2563 0171 00       		.byte	0
 2564 0172 03       		.uleb128 0x3
 2565 0173 0E       		.uleb128 0xe
ARM GAS  /tmp/cczp6DF1.s 			page 46


 2566 0174 3A       		.uleb128 0x3a
 2567 0175 0B       		.uleb128 0xb
 2568 0176 3B       		.uleb128 0x3b
 2569 0177 0B       		.uleb128 0xb
 2570 0178 49       		.uleb128 0x49
 2571 0179 13       		.uleb128 0x13
 2572 017a 02       		.uleb128 0x2
 2573 017b 18       		.uleb128 0x18
 2574 017c 00       		.byte	0
 2575 017d 00       		.byte	0
 2576 017e 1F       		.uleb128 0x1f
 2577 017f 34       		.uleb128 0x34
 2578 0180 00       		.byte	0
 2579 0181 03       		.uleb128 0x3
 2580 0182 0E       		.uleb128 0xe
 2581 0183 49       		.uleb128 0x49
 2582 0184 13       		.uleb128 0x13
 2583 0185 34       		.uleb128 0x34
 2584 0186 19       		.uleb128 0x19
 2585 0187 1C       		.uleb128 0x1c
 2586 0188 0E       		.uleb128 0xe
 2587 0189 00       		.byte	0
 2588 018a 00       		.byte	0
 2589 018b 20       		.uleb128 0x20
 2590 018c 05       		.uleb128 0x5
 2591 018d 00       		.byte	0
 2592 018e 03       		.uleb128 0x3
 2593 018f 0E       		.uleb128 0xe
 2594 0190 3A       		.uleb128 0x3a
 2595 0191 0B       		.uleb128 0xb
 2596 0192 3B       		.uleb128 0x3b
 2597 0193 0B       		.uleb128 0xb
 2598 0194 49       		.uleb128 0x49
 2599 0195 13       		.uleb128 0x13
 2600 0196 02       		.uleb128 0x2
 2601 0197 17       		.uleb128 0x17
 2602 0198 00       		.byte	0
 2603 0199 00       		.byte	0
 2604 019a 21       		.uleb128 0x21
 2605 019b 34       		.uleb128 0x34
 2606 019c 00       		.byte	0
 2607 019d 03       		.uleb128 0x3
 2608 019e 0E       		.uleb128 0xe
 2609 019f 49       		.uleb128 0x49
 2610 01a0 13       		.uleb128 0x13
 2611 01a1 34       		.uleb128 0x34
 2612 01a2 19       		.uleb128 0x19
 2613 01a3 00       		.byte	0
 2614 01a4 00       		.byte	0
 2615 01a5 22       		.uleb128 0x22
 2616 01a6 1D       		.uleb128 0x1d
 2617 01a7 01       		.byte	0x1
 2618 01a8 31       		.uleb128 0x31
 2619 01a9 13       		.uleb128 0x13
 2620 01aa 11       		.uleb128 0x11
 2621 01ab 01       		.uleb128 0x1
 2622 01ac 12       		.uleb128 0x12
ARM GAS  /tmp/cczp6DF1.s 			page 47


 2623 01ad 06       		.uleb128 0x6
 2624 01ae 58       		.uleb128 0x58
 2625 01af 0B       		.uleb128 0xb
 2626 01b0 59       		.uleb128 0x59
 2627 01b1 0B       		.uleb128 0xb
 2628 01b2 01       		.uleb128 0x1
 2629 01b3 13       		.uleb128 0x13
 2630 01b4 00       		.byte	0
 2631 01b5 00       		.byte	0
 2632 01b6 23       		.uleb128 0x23
 2633 01b7 1D       		.uleb128 0x1d
 2634 01b8 01       		.byte	0x1
 2635 01b9 31       		.uleb128 0x31
 2636 01ba 13       		.uleb128 0x13
 2637 01bb 11       		.uleb128 0x11
 2638 01bc 01       		.uleb128 0x1
 2639 01bd 12       		.uleb128 0x12
 2640 01be 06       		.uleb128 0x6
 2641 01bf 58       		.uleb128 0x58
 2642 01c0 0B       		.uleb128 0xb
 2643 01c1 59       		.uleb128 0x59
 2644 01c2 05       		.uleb128 0x5
 2645 01c3 00       		.byte	0
 2646 01c4 00       		.byte	0
 2647 01c5 24       		.uleb128 0x24
 2648 01c6 1D       		.uleb128 0x1d
 2649 01c7 01       		.byte	0x1
 2650 01c8 31       		.uleb128 0x31
 2651 01c9 13       		.uleb128 0x13
 2652 01ca 11       		.uleb128 0x11
 2653 01cb 01       		.uleb128 0x1
 2654 01cc 12       		.uleb128 0x12
 2655 01cd 06       		.uleb128 0x6
 2656 01ce 58       		.uleb128 0x58
 2657 01cf 0B       		.uleb128 0xb
 2658 01d0 59       		.uleb128 0x59
 2659 01d1 05       		.uleb128 0x5
 2660 01d2 01       		.uleb128 0x1
 2661 01d3 13       		.uleb128 0x13
 2662 01d4 00       		.byte	0
 2663 01d5 00       		.byte	0
 2664 01d6 25       		.uleb128 0x25
 2665 01d7 05       		.uleb128 0x5
 2666 01d8 00       		.byte	0
 2667 01d9 31       		.uleb128 0x31
 2668 01da 13       		.uleb128 0x13
 2669 01db 1C       		.uleb128 0x1c
 2670 01dc 0B       		.uleb128 0xb
 2671 01dd 00       		.byte	0
 2672 01de 00       		.byte	0
 2673 01df 26       		.uleb128 0x26
 2674 01e0 898201   		.uleb128 0x4109
 2675 01e3 00       		.byte	0
 2676 01e4 11       		.uleb128 0x11
 2677 01e5 01       		.uleb128 0x1
 2678 01e6 31       		.uleb128 0x31
 2679 01e7 13       		.uleb128 0x13
ARM GAS  /tmp/cczp6DF1.s 			page 48


 2680 01e8 00       		.byte	0
 2681 01e9 00       		.byte	0
 2682 01ea 27       		.uleb128 0x27
 2683 01eb 0B       		.uleb128 0xb
 2684 01ec 01       		.byte	0x1
 2685 01ed 11       		.uleb128 0x11
 2686 01ee 01       		.uleb128 0x1
 2687 01ef 12       		.uleb128 0x12
 2688 01f0 06       		.uleb128 0x6
 2689 01f1 00       		.byte	0
 2690 01f2 00       		.byte	0
 2691 01f3 28       		.uleb128 0x28
 2692 01f4 34       		.uleb128 0x34
 2693 01f5 00       		.byte	0
 2694 01f6 31       		.uleb128 0x31
 2695 01f7 13       		.uleb128 0x13
 2696 01f8 00       		.byte	0
 2697 01f9 00       		.byte	0
 2698 01fa 29       		.uleb128 0x29
 2699 01fb 898201   		.uleb128 0x4109
 2700 01fe 01       		.byte	0x1
 2701 01ff 11       		.uleb128 0x11
 2702 0200 01       		.uleb128 0x1
 2703 0201 31       		.uleb128 0x31
 2704 0202 13       		.uleb128 0x13
 2705 0203 00       		.byte	0
 2706 0204 00       		.byte	0
 2707 0205 2A       		.uleb128 0x2a
 2708 0206 8A8201   		.uleb128 0x410a
 2709 0209 00       		.byte	0
 2710 020a 02       		.uleb128 0x2
 2711 020b 18       		.uleb128 0x18
 2712 020c 9142     		.uleb128 0x2111
 2713 020e 18       		.uleb128 0x18
 2714 020f 00       		.byte	0
 2715 0210 00       		.byte	0
 2716 0211 2B       		.uleb128 0x2b
 2717 0212 34       		.uleb128 0x34
 2718 0213 00       		.byte	0
 2719 0214 03       		.uleb128 0x3
 2720 0215 0E       		.uleb128 0xe
 2721 0216 3A       		.uleb128 0x3a
 2722 0217 0B       		.uleb128 0xb
 2723 0218 3B       		.uleb128 0x3b
 2724 0219 0B       		.uleb128 0xb
 2725 021a 49       		.uleb128 0x49
 2726 021b 13       		.uleb128 0x13
 2727 021c 02       		.uleb128 0x2
 2728 021d 17       		.uleb128 0x17
 2729 021e 00       		.byte	0
 2730 021f 00       		.byte	0
 2731 0220 2C       		.uleb128 0x2c
 2732 0221 898201   		.uleb128 0x4109
 2733 0224 01       		.byte	0x1
 2734 0225 11       		.uleb128 0x11
 2735 0226 01       		.uleb128 0x1
 2736 0227 9542     		.uleb128 0x2115
ARM GAS  /tmp/cczp6DF1.s 			page 49


 2737 0229 19       		.uleb128 0x19
 2738 022a 31       		.uleb128 0x31
 2739 022b 13       		.uleb128 0x13
 2740 022c 00       		.byte	0
 2741 022d 00       		.byte	0
 2742 022e 2D       		.uleb128 0x2d
 2743 022f 34       		.uleb128 0x34
 2744 0230 00       		.byte	0
 2745 0231 03       		.uleb128 0x3
 2746 0232 0E       		.uleb128 0xe
 2747 0233 3A       		.uleb128 0x3a
 2748 0234 0B       		.uleb128 0xb
 2749 0235 3B       		.uleb128 0x3b
 2750 0236 05       		.uleb128 0x5
 2751 0237 49       		.uleb128 0x49
 2752 0238 13       		.uleb128 0x13
 2753 0239 3F       		.uleb128 0x3f
 2754 023a 19       		.uleb128 0x19
 2755 023b 3C       		.uleb128 0x3c
 2756 023c 19       		.uleb128 0x19
 2757 023d 00       		.byte	0
 2758 023e 00       		.byte	0
 2759 023f 2E       		.uleb128 0x2e
 2760 0240 34       		.uleb128 0x34
 2761 0241 00       		.byte	0
 2762 0242 03       		.uleb128 0x3
 2763 0243 08       		.uleb128 0x8
 2764 0244 3A       		.uleb128 0x3a
 2765 0245 0B       		.uleb128 0xb
 2766 0246 3B       		.uleb128 0x3b
 2767 0247 05       		.uleb128 0x5
 2768 0248 49       		.uleb128 0x49
 2769 0249 13       		.uleb128 0x13
 2770 024a 3F       		.uleb128 0x3f
 2771 024b 19       		.uleb128 0x19
 2772 024c 3C       		.uleb128 0x3c
 2773 024d 19       		.uleb128 0x19
 2774 024e 00       		.byte	0
 2775 024f 00       		.byte	0
 2776 0250 2F       		.uleb128 0x2f
 2777 0251 2E       		.uleb128 0x2e
 2778 0252 00       		.byte	0
 2779 0253 3F       		.uleb128 0x3f
 2780 0254 19       		.uleb128 0x19
 2781 0255 03       		.uleb128 0x3
 2782 0256 0E       		.uleb128 0xe
 2783 0257 3A       		.uleb128 0x3a
 2784 0258 0B       		.uleb128 0xb
 2785 0259 3B       		.uleb128 0x3b
 2786 025a 0B       		.uleb128 0xb
 2787 025b 27       		.uleb128 0x27
 2788 025c 19       		.uleb128 0x19
 2789 025d 3C       		.uleb128 0x3c
 2790 025e 19       		.uleb128 0x19
 2791 025f 00       		.byte	0
 2792 0260 00       		.byte	0
 2793 0261 30       		.uleb128 0x30
ARM GAS  /tmp/cczp6DF1.s 			page 50


 2794 0262 2E       		.uleb128 0x2e
 2795 0263 01       		.byte	0x1
 2796 0264 3F       		.uleb128 0x3f
 2797 0265 19       		.uleb128 0x19
 2798 0266 03       		.uleb128 0x3
 2799 0267 0E       		.uleb128 0xe
 2800 0268 3A       		.uleb128 0x3a
 2801 0269 0B       		.uleb128 0xb
 2802 026a 3B       		.uleb128 0x3b
 2803 026b 0B       		.uleb128 0xb
 2804 026c 27       		.uleb128 0x27
 2805 026d 19       		.uleb128 0x19
 2806 026e 3C       		.uleb128 0x3c
 2807 026f 19       		.uleb128 0x19
 2808 0270 01       		.uleb128 0x1
 2809 0271 13       		.uleb128 0x13
 2810 0272 00       		.byte	0
 2811 0273 00       		.byte	0
 2812 0274 31       		.uleb128 0x31
 2813 0275 2E       		.uleb128 0x2e
 2814 0276 01       		.byte	0x1
 2815 0277 3F       		.uleb128 0x3f
 2816 0278 19       		.uleb128 0x19
 2817 0279 03       		.uleb128 0x3
 2818 027a 0E       		.uleb128 0xe
 2819 027b 3A       		.uleb128 0x3a
 2820 027c 0B       		.uleb128 0xb
 2821 027d 3B       		.uleb128 0x3b
 2822 027e 0B       		.uleb128 0xb
 2823 027f 27       		.uleb128 0x27
 2824 0280 19       		.uleb128 0x19
 2825 0281 3C       		.uleb128 0x3c
 2826 0282 19       		.uleb128 0x19
 2827 0283 00       		.byte	0
 2828 0284 00       		.byte	0
 2829 0285 00       		.byte	0
 2830              		.section	.debug_loc,"",%progbits
 2831              	.Ldebug_loc0:
 2832              	.LLST0:
 2833 0000 00000000 		.4byte	.LVL2
 2834 0004 0F000000 		.4byte	.LVL3-1
 2835 0008 0100     		.2byte	0x1
 2836 000a 50       		.byte	0x50
 2837 000b 0F000000 		.4byte	.LVL3-1
 2838 000f 28000000 		.4byte	.LFE279
 2839 0013 0100     		.2byte	0x1
 2840 0015 54       		.byte	0x54
 2841 0016 00000000 		.4byte	0
 2842 001a 00000000 		.4byte	0
 2843              	.LLST1:
 2844 001e 00000000 		.4byte	.LVL2
 2845 0022 0F000000 		.4byte	.LVL3-1
 2846 0026 0100     		.2byte	0x1
 2847 0028 51       		.byte	0x51
 2848 0029 0F000000 		.4byte	.LVL3-1
 2849 002d 28000000 		.4byte	.LFE279
 2850 0031 0100     		.2byte	0x1
ARM GAS  /tmp/cczp6DF1.s 			page 51


 2851 0033 55       		.byte	0x55
 2852 0034 00000000 		.4byte	0
 2853 0038 00000000 		.4byte	0
 2854              	.LLST2:
 2855 003c 00000000 		.4byte	.LVL6
 2856 0040 0D000000 		.4byte	.LVL7-1
 2857 0044 0100     		.2byte	0x1
 2858 0046 50       		.byte	0x50
 2859 0047 0D000000 		.4byte	.LVL7-1
 2860 004b 26000000 		.4byte	.LFE280
 2861 004f 0100     		.2byte	0x1
 2862 0051 54       		.byte	0x54
 2863 0052 00000000 		.4byte	0
 2864 0056 00000000 		.4byte	0
 2865              	.LLST3:
 2866 005a 00000000 		.4byte	.LVL10
 2867 005e 0F000000 		.4byte	.LVL11-1
 2868 0062 0100     		.2byte	0x1
 2869 0064 50       		.byte	0x50
 2870 0065 0F000000 		.4byte	.LVL11-1
 2871 0069 24000000 		.4byte	.LFE281
 2872 006d 0100     		.2byte	0x1
 2873 006f 55       		.byte	0x55
 2874 0070 00000000 		.4byte	0
 2875 0074 00000000 		.4byte	0
 2876              	.LLST4:
 2877 0078 00000000 		.4byte	.LVL10
 2878 007c 0F000000 		.4byte	.LVL11-1
 2879 0080 0100     		.2byte	0x1
 2880 0082 51       		.byte	0x51
 2881 0083 0F000000 		.4byte	.LVL11-1
 2882 0087 24000000 		.4byte	.LFE281
 2883 008b 0100     		.2byte	0x1
 2884 008d 54       		.byte	0x54
 2885 008e 00000000 		.4byte	0
 2886 0092 00000000 		.4byte	0
 2887              	.LLST5:
 2888 0096 00000000 		.4byte	.LVL14
 2889 009a 0F000000 		.4byte	.LVL15-1
 2890 009e 0100     		.2byte	0x1
 2891 00a0 50       		.byte	0x50
 2892 00a1 0F000000 		.4byte	.LVL15-1
 2893 00a5 24000000 		.4byte	.LFE282
 2894 00a9 0100     		.2byte	0x1
 2895 00ab 55       		.byte	0x55
 2896 00ac 00000000 		.4byte	0
 2897 00b0 00000000 		.4byte	0
 2898              	.LLST6:
 2899 00b4 00000000 		.4byte	.LVL14
 2900 00b8 0F000000 		.4byte	.LVL15-1
 2901 00bc 0100     		.2byte	0x1
 2902 00be 51       		.byte	0x51
 2903 00bf 0F000000 		.4byte	.LVL15-1
 2904 00c3 24000000 		.4byte	.LFE282
 2905 00c7 0100     		.2byte	0x1
 2906 00c9 54       		.byte	0x54
 2907 00ca 00000000 		.4byte	0
ARM GAS  /tmp/cczp6DF1.s 			page 52


 2908 00ce 00000000 		.4byte	0
 2909              	.LLST7:
 2910 00d2 00000000 		.4byte	.LVL18
 2911 00d6 10000000 		.4byte	.LVL19
 2912 00da 0100     		.2byte	0x1
 2913 00dc 50       		.byte	0x50
 2914 00dd 10000000 		.4byte	.LVL19
 2915 00e1 1C000000 		.4byte	.LVL21
 2916 00e5 0100     		.2byte	0x1
 2917 00e7 55       		.byte	0x55
 2918 00e8 1C000000 		.4byte	.LVL21
 2919 00ec 1F000000 		.4byte	.LVL22-1
 2920 00f0 0100     		.2byte	0x1
 2921 00f2 50       		.byte	0x50
 2922 00f3 1F000000 		.4byte	.LVL22-1
 2923 00f7 20000000 		.4byte	.LFE283
 2924 00fb 0400     		.2byte	0x4
 2925 00fd F3       		.byte	0xf3
 2926 00fe 01       		.uleb128 0x1
 2927 00ff 50       		.byte	0x50
 2928 0100 9F       		.byte	0x9f
 2929 0101 00000000 		.4byte	0
 2930 0105 00000000 		.4byte	0
 2931              	.LLST8:
 2932 0109 00000000 		.4byte	.LVL18
 2933 010d 10000000 		.4byte	.LVL19
 2934 0111 0100     		.2byte	0x1
 2935 0113 51       		.byte	0x51
 2936 0114 10000000 		.4byte	.LVL19
 2937 0118 1C000000 		.4byte	.LVL21
 2938 011c 0100     		.2byte	0x1
 2939 011e 54       		.byte	0x54
 2940 011f 1C000000 		.4byte	.LVL21
 2941 0123 1F000000 		.4byte	.LVL22-1
 2942 0127 0100     		.2byte	0x1
 2943 0129 51       		.byte	0x51
 2944 012a 1F000000 		.4byte	.LVL22-1
 2945 012e 20000000 		.4byte	.LFE283
 2946 0132 0400     		.2byte	0x4
 2947 0134 F3       		.byte	0xf3
 2948 0135 01       		.uleb128 0x1
 2949 0136 51       		.byte	0x51
 2950 0137 9F       		.byte	0x9f
 2951 0138 00000000 		.4byte	0
 2952 013c 00000000 		.4byte	0
 2953              	.LLST9:
 2954 0140 00000000 		.4byte	.LVL18
 2955 0144 1F000000 		.4byte	.LVL22-1
 2956 0148 0100     		.2byte	0x1
 2957 014a 52       		.byte	0x52
 2958 014b 1F000000 		.4byte	.LVL22-1
 2959 014f 20000000 		.4byte	.LFE283
 2960 0153 0400     		.2byte	0x4
 2961 0155 F3       		.byte	0xf3
 2962 0156 01       		.uleb128 0x1
 2963 0157 52       		.byte	0x52
 2964 0158 9F       		.byte	0x9f
ARM GAS  /tmp/cczp6DF1.s 			page 53


 2965 0159 00000000 		.4byte	0
 2966 015d 00000000 		.4byte	0
 2967              	.LLST10:
 2968 0161 00000000 		.4byte	.LVL18
 2969 0165 10000000 		.4byte	.LVL19
 2970 0169 0900     		.2byte	0x9
 2971 016b 71       		.byte	0x71
 2972 016c 00       		.sleb128 0
 2973 016d 33       		.byte	0x33
 2974 016e 24       		.byte	0x24
 2975 016f 70       		.byte	0x70
 2976 0170 04       		.sleb128 4
 2977 0171 06       		.byte	0x6
 2978 0172 22       		.byte	0x22
 2979 0173 9F       		.byte	0x9f
 2980 0174 10000000 		.4byte	.LVL19
 2981 0178 14000000 		.4byte	.LVL20
 2982 017c 0900     		.2byte	0x9
 2983 017e 74       		.byte	0x74
 2984 017f 00       		.sleb128 0
 2985 0180 33       		.byte	0x33
 2986 0181 24       		.byte	0x24
 2987 0182 75       		.byte	0x75
 2988 0183 04       		.sleb128 4
 2989 0184 06       		.byte	0x6
 2990 0185 22       		.byte	0x22
 2991 0186 9F       		.byte	0x9f
 2992 0187 00000000 		.4byte	0
 2993 018b 00000000 		.4byte	0
 2994              		.section	.debug_aranges,"",%progbits
 2995 0000 4C000000 		.4byte	0x4c
 2996 0004 0200     		.2byte	0x2
 2997 0006 00000000 		.4byte	.Ldebug_info0
 2998 000a 04       		.byte	0x4
 2999 000b 00       		.byte	0
 3000 000c 0000     		.2byte	0
 3001 000e 0000     		.2byte	0
 3002 0010 00000000 		.4byte	.LFB277
 3003 0014 04000000 		.4byte	.LFE277-.LFB277
 3004 0018 00000000 		.4byte	.LFB278
 3005 001c 0A000000 		.4byte	.LFE278-.LFB278
 3006 0020 00000000 		.4byte	.LFB279
 3007 0024 28000000 		.4byte	.LFE279-.LFB279
 3008 0028 00000000 		.4byte	.LFB280
 3009 002c 26000000 		.4byte	.LFE280-.LFB280
 3010 0030 00000000 		.4byte	.LFB281
 3011 0034 24000000 		.4byte	.LFE281-.LFB281
 3012 0038 00000000 		.4byte	.LFB282
 3013 003c 24000000 		.4byte	.LFE282-.LFB282
 3014 0040 00000000 		.4byte	.LFB283
 3015 0044 20000000 		.4byte	.LFE283-.LFB283
 3016 0048 00000000 		.4byte	0
 3017 004c 00000000 		.4byte	0
 3018              		.section	.debug_ranges,"",%progbits
 3019              	.Ldebug_ranges0:
 3020 0000 00000000 		.4byte	.LFB277
 3021 0004 04000000 		.4byte	.LFE277
ARM GAS  /tmp/cczp6DF1.s 			page 54


 3022 0008 00000000 		.4byte	.LFB278
 3023 000c 0A000000 		.4byte	.LFE278
 3024 0010 00000000 		.4byte	.LFB279
 3025 0014 28000000 		.4byte	.LFE279
 3026 0018 00000000 		.4byte	.LFB280
 3027 001c 26000000 		.4byte	.LFE280
 3028 0020 00000000 		.4byte	.LFB281
 3029 0024 24000000 		.4byte	.LFE281
 3030 0028 00000000 		.4byte	.LFB282
 3031 002c 24000000 		.4byte	.LFE282
 3032 0030 00000000 		.4byte	.LFB283
 3033 0034 20000000 		.4byte	.LFE283
 3034 0038 00000000 		.4byte	0
 3035 003c 00000000 		.4byte	0
 3036              		.section	.debug_line,"",%progbits
 3037              	.Ldebug_line0:
 3038 0000 9B030000 		.section	.debug_str,"MS",%progbits,1
 3038      02009402 
 3038      00000201 
 3038      FB0E0D00 
 3038      01010101 
 3039              	.LASF53:
 3040 0000 72656164 		.ascii	"ready_list_t\000"
 3040      795F6C69 
 3040      73745F74 
 3040      00
 3041              	.LASF93:
 3042 000d 77747472 		.ascii	"wttrp\000"
 3042      7000
 3043              	.LASF59:
 3044 0013 64656C74 		.ascii	"delta\000"
 3044      6100
 3045              	.LASF90:
 3046 0019 7264796D 		.ascii	"rdymsg\000"
 3046      736700
 3047              	.LASF16:
 3048 0020 75696E74 		.ascii	"uint64_t\000"
 3048      36345F74 
 3048      00
 3049              	.LASF72:
 3050 0029 6B65726E 		.ascii	"kernel_stats\000"
 3050      656C5F73 
 3050      74617473 
 3050      00
 3051              	.LASF1:
 3052 0036 7369676E 		.ascii	"signed char\000"
 3052      65642063 
 3052      68617200 
 3053              	.LASF5:
 3054 0042 5F5F7569 		.ascii	"__uint8_t\000"
 3054      6E74385F 
 3054      7400
 3055              	.LASF110:
 3056 004c 65787063 		.ascii	"expchannel_t\000"
 3056      68616E6E 
 3056      656C5F74 
 3056      00
ARM GAS  /tmp/cczp6DF1.s 			page 55


 3057              	.LASF52:
 3058 0059 70726576 		.ascii	"prev\000"
 3058      00
 3059              	.LASF77:
 3060 005e 706F7274 		.ascii	"port_intctx\000"
 3060      5F696E74 
 3060      63747800 
 3061              	.LASF51:
 3062 006a 63685F74 		.ascii	"ch_threads_queue\000"
 3062      68726561 
 3062      64735F71 
 3062      75657565 
 3062      00
 3063              	.LASF64:
 3064 007b 73797374 		.ascii	"system_debug_t\000"
 3064      656D5F64 
 3064      65627567 
 3064      5F7400
 3065              	.LASF116:
 3066 008a 706F7274 		.ascii	"port_lock\000"
 3066      5F6C6F63 
 3066      6B00
 3067              	.LASF81:
 3068 0094 776F7273 		.ascii	"worst\000"
 3068      7400
 3069              	.LASF84:
 3070 009a 74696D65 		.ascii	"time_measurement_t\000"
 3070      5F6D6561 
 3070      73757265 
 3070      6D656E74 
 3070      5F7400
 3071              	.LASF132:
 3072 00ad 65787453 		.ascii	"extSetChannelModeI\000"
 3072      65744368 
 3072      616E6E65 
 3072      6C4D6F64 
 3072      654900
 3073              	.LASF12:
 3074 00c0 6C6F6E67 		.ascii	"long long unsigned int\000"
 3074      206C6F6E 
 3074      6720756E 
 3074      7369676E 
 3074      65642069 
 3075              	.LASF91:
 3076 00d7 65786974 		.ascii	"exitcode\000"
 3076      636F6465 
 3076      00
 3077              	.LASF71:
 3078 00e0 6D61696E 		.ascii	"mainthread\000"
 3078      74687265 
 3078      616400
 3079              	.LASF94:
 3080 00eb 73656E74 		.ascii	"sentmsg\000"
 3080      6D736700 
 3081              	.LASF61:
 3082 00f3 76697274 		.ascii	"virtual_timers_list_t\000"
 3082      75616C5F 
ARM GAS  /tmp/cczp6DF1.s 			page 56


 3082      74696D65 
 3082      72735F6C 
 3082      6973745F 
 3083              	.LASF134:
 3084 0109 49544D5F 		.ascii	"ITM_RxBuffer\000"
 3084      52784275 
 3084      66666572 
 3084      00
 3085              	.LASF49:
 3086 0116 6E657874 		.ascii	"next\000"
 3086      00
 3087              	.LASF18:
 3088 011b 72747469 		.ascii	"rttime_t\000"
 3088      6D655F74 
 3088      00
 3089              	.LASF146:
 3090 0124 6578745F 		.ascii	"ext_lld_channel_disable\000"
 3090      6C6C645F 
 3090      6368616E 
 3090      6E656C5F 
 3090      64697361 
 3091              	.LASF125:
 3092 013c 65787453 		.ascii	"extStart\000"
 3092      74617274 
 3092      00
 3093              	.LASF10:
 3094 0145 6C6F6E67 		.ascii	"long long int\000"
 3094      206C6F6E 
 3094      6720696E 
 3094      7400
 3095              	.LASF126:
 3096 0153 65787470 		.ascii	"extp\000"
 3096      00
 3097              	.LASF121:
 3098 0158 6578744F 		.ascii	"extObjectInit\000"
 3098      626A6563 
 3098      74496E69 
 3098      7400
 3099              	.LASF70:
 3100 0166 76746C69 		.ascii	"vtlist\000"
 3100      737400
 3101              	.LASF143:
 3102 016d 2F686F6D 		.ascii	"/home/kozinalexey/f4by/ardupilot/build/f4by-ch\000"
 3102      652F6B6F 
 3102      7A696E61 
 3102      6C657865 
 3102      792F6634 
 3103              	.LASF117:
 3104 019c 706F7274 		.ascii	"port_unlock\000"
 3104      5F756E6C 
 3104      6F636B00 
 3105              	.LASF39:
 3106 01a8 6D736771 		.ascii	"msgqueue\000"
 3106      75657565 
 3106      00
 3107              	.LASF135:
 3108 01b1 6578745F 		.ascii	"ext_lld_init\000"
ARM GAS  /tmp/cczp6DF1.s 			page 57


 3108      6C6C645F 
 3108      696E6974 
 3108      00
 3109              	.LASF34:
 3110 01be 77616261 		.ascii	"wabase\000"
 3110      736500
 3111              	.LASF35:
 3112 01c5 73746174 		.ascii	"state\000"
 3112      6500
 3113              	.LASF114:
 3114 01cb 6368616E 		.ascii	"channels\000"
 3114      6E656C73 
 3114      00
 3115              	.LASF7:
 3116 01d4 6C6F6E67 		.ascii	"long int\000"
 3116      20696E74 
 3116      00
 3117              	.LASF20:
 3118 01dd 74737461 		.ascii	"tstate_t\000"
 3118      74655F74 
 3118      00
 3119              	.LASF60:
 3120 01e6 66756E63 		.ascii	"func\000"
 3120      00
 3121              	.LASF44:
 3122 01eb 73746174 		.ascii	"stats\000"
 3122      7300
 3123              	.LASF142:
 3124 01f1 2E2E2F2E 		.ascii	"../../modules/ChibiOS/os/hal/src/hal_ext.c\000"
 3124      2E2F6D6F 
 3124      64756C65 
 3124      732F4368 
 3124      6962694F 
 3125              	.LASF113:
 3126 021c 45585443 		.ascii	"EXTChannelConfig\000"
 3126      68616E6E 
 3126      656C436F 
 3126      6E666967 
 3126      00
 3127              	.LASF8:
 3128 022d 5F5F7569 		.ascii	"__uint32_t\000"
 3128      6E743332 
 3128      5F7400
 3129              	.LASF74:
 3130 0238 72656761 		.ascii	"regarm_t\000"
 3130      726D5F74 
 3130      00
 3131              	.LASF65:
 3132 0241 63685F73 		.ascii	"ch_system_debug\000"
 3132      79737465 
 3132      6D5F6465 
 3132      62756700 
 3133              	.LASF38:
 3134 0251 77616974 		.ascii	"waiting\000"
 3134      696E6700 
 3135              	.LASF118:
 3136 0259 6F73616C 		.ascii	"osalSysLock\000"
ARM GAS  /tmp/cczp6DF1.s 			page 58


 3136      5379734C 
 3136      6F636B00 
 3137              	.LASF102:
 3138 0265 6D757465 		.ascii	"mutex_t\000"
 3138      785F7400 
 3139              	.LASF144:
 3140 026d 76616C75 		.ascii	"value\000"
 3140      6500
 3141              	.LASF76:
 3142 0273 706F7274 		.ascii	"port_context\000"
 3142      5F636F6E 
 3142      74657874 
 3142      00
 3143              	.LASF25:
 3144 0280 636E745F 		.ascii	"cnt_t\000"
 3144      7400
 3145              	.LASF0:
 3146 0286 756E7369 		.ascii	"unsigned int\000"
 3146      676E6564 
 3146      20696E74 
 3146      00
 3147              	.LASF141:
 3148 0293 474E5520 		.ascii	"GNU C 4.9.3 20150529 (prerelease) -mcpu=cortex-m4 -"
 3148      4320342E 
 3148      392E3320 
 3148      32303135 
 3148      30353239 
 3149 02c6 6D666C6F 		.ascii	"mfloat-abi=hard -mfpu=fpv4-sp-d16 -mno-thumb-interw"
 3149      61742D61 
 3149      62693D68 
 3149      61726420 
 3149      2D6D6670 
 3150 02f9 6F726B20 		.ascii	"ork -mthumb -g -Os -fomit-frame-pointer -falign-fun"
 3150      2D6D7468 
 3150      756D6220 
 3150      2D67202D 
 3150      4F73202D 
 3151 032c 6374696F 		.ascii	"ctions=16 -ffunction-sections -fdata-sections -fno-"
 3151      6E733D31 
 3151      36202D66 
 3151      66756E63 
 3151      74696F6E 
 3152 035f 636F6D6D 		.ascii	"common -fsingle-precision-constant\000"
 3152      6F6E202D 
 3152      6673696E 
 3152      676C652D 
 3152      70726563 
 3153              	.LASF95:
 3154 0382 77747365 		.ascii	"wtsemp\000"
 3154      6D7000
 3155              	.LASF127:
 3156 0389 65787453 		.ascii	"extStop\000"
 3156      746F7000 
 3157              	.LASF85:
 3158 0391 6E5F6972 		.ascii	"n_irq\000"
 3158      7100
 3159              	.LASF138:
ARM GAS  /tmp/cczp6DF1.s 			page 59


 3160 0397 6578745F 		.ascii	"ext_lld_start\000"
 3160      6C6C645F 
 3160      73746172 
 3160      7400
 3161              	.LASF29:
 3162 03a5 71756575 		.ascii	"queue\000"
 3162      6500
 3163              	.LASF43:
 3164 03ab 6D706F6F 		.ascii	"mpool\000"
 3164      6C00
 3165              	.LASF4:
 3166 03b1 73686F72 		.ascii	"short unsigned int\000"
 3166      7420756E 
 3166      7369676E 
 3166      65642069 
 3166      6E7400
 3167              	.LASF89:
 3168 03c4 6B65726E 		.ascii	"kernel_stats_t\000"
 3168      656C5F73 
 3168      74617473 
 3168      5F7400
 3169              	.LASF33:
 3170 03d3 6E616D65 		.ascii	"name\000"
 3170      00
 3171              	.LASF47:
 3172 03d8 63685F74 		.ascii	"ch_thread\000"
 3172      68726561 
 3172      6400
 3173              	.LASF115:
 3174 03e2 45585443 		.ascii	"EXTConfig\000"
 3174      6F6E6669 
 3174      6700
 3175              	.LASF23:
 3176 03ec 6D73675F 		.ascii	"msg_t\000"
 3176      7400
 3177              	.LASF82:
 3178 03f2 6C617374 		.ascii	"last\000"
 3178      00
 3179              	.LASF26:
 3180 03f7 75636E74 		.ascii	"ucnt_t\000"
 3180      5F7400
 3181              	.LASF40:
 3182 03fe 6570656E 		.ascii	"epending\000"
 3182      64696E67 
 3182      00
 3183              	.LASF139:
 3184 0407 6578745F 		.ascii	"ext_lld_stop\000"
 3184      6C6C645F 
 3184      73746F70 
 3184      00
 3185              	.LASF67:
 3186 0414 63685F73 		.ascii	"ch_system_t\000"
 3186      79737465 
 3186      6D5F7400 
 3187              	.LASF19:
 3188 0420 746D6F64 		.ascii	"tmode_t\000"
 3188      655F7400 
ARM GAS  /tmp/cczp6DF1.s 			page 60


 3189              	.LASF88:
 3190 0428 6D5F6372 		.ascii	"m_crit_isr\000"
 3190      69745F69 
 3190      737200
 3191              	.LASF54:
 3192 0433 63685F72 		.ascii	"ch_ready_list\000"
 3192      65616479 
 3192      5F6C6973 
 3192      7400
 3193              	.LASF24:
 3194 0441 6576656E 		.ascii	"eventmask_t\000"
 3194      746D6173 
 3194      6B5F7400 
 3195              	.LASF6:
 3196 044d 5F5F696E 		.ascii	"__int32_t\000"
 3196      7433325F 
 3196      7400
 3197              	.LASF75:
 3198 0457 73746B61 		.ascii	"stkalign_t\000"
 3198      6C69676E 
 3198      5F7400
 3199              	.LASF31:
 3200 0462 6E657765 		.ascii	"newer\000"
 3200      7200
 3201              	.LASF42:
 3202 0468 7265616C 		.ascii	"realprio\000"
 3202      7072696F 
 3202      00
 3203              	.LASF145:
 3204 0471 6F6C6463 		.ascii	"oldcp\000"
 3204      7000
 3205              	.LASF137:
 3206 0477 5F737461 		.ascii	"_stats_stop_measure_crit_thd\000"
 3206      74735F73 
 3206      746F705F 
 3206      6D656173 
 3206      7572655F 
 3207              	.LASF73:
 3208 0494 73697A65 		.ascii	"sizetype\000"
 3208      74797065 
 3208      00
 3209              	.LASF45:
 3210 049d 74687265 		.ascii	"thread_reference_t\000"
 3210      61645F72 
 3210      65666572 
 3210      656E6365 
 3210      5F7400
 3211              	.LASF107:
 3212 04b0 65787473 		.ascii	"extstate_t\000"
 3212      74617465 
 3212      5F7400
 3213              	.LASF62:
 3214 04bb 63685F76 		.ascii	"ch_virtual_timers_list\000"
 3214      69727475 
 3214      616C5F74 
 3214      696D6572 
 3214      735F6C69 
ARM GAS  /tmp/cczp6DF1.s 			page 61


 3215              	.LASF140:
 3216 04d2 6578745F 		.ascii	"ext_lld_channel_enable\000"
 3216      6C6C645F 
 3216      6368616E 
 3216      6E656C5F 
 3216      656E6162 
 3217              	.LASF79:
 3218 04e9 746D5F63 		.ascii	"tm_calibration_t\000"
 3218      616C6962 
 3218      72617469 
 3218      6F6E5F74 
 3218      00
 3219              	.LASF104:
 3220 04fa 4558545F 		.ascii	"EXT_UNINIT\000"
 3220      554E494E 
 3220      495400
 3221              	.LASF30:
 3222 0505 7072696F 		.ascii	"prio\000"
 3222      00
 3223              	.LASF55:
 3224 050a 63757272 		.ascii	"current\000"
 3224      656E7400 
 3225              	.LASF11:
 3226 0512 5F5F7569 		.ascii	"__uint64_t\000"
 3226      6E743634 
 3226      5F7400
 3227              	.LASF83:
 3228 051d 63756D75 		.ascii	"cumulative\000"
 3228      6C617469 
 3228      766500
 3229              	.LASF21:
 3230 0528 74726566 		.ascii	"trefs_t\000"
 3230      735F7400 
 3231              	.LASF37:
 3232 0530 72656673 		.ascii	"refs\000"
 3232      00
 3233              	.LASF57:
 3234 0535 76697274 		.ascii	"virtual_timer_t\000"
 3234      75616C5F 
 3234      74696D65 
 3234      725F7400 
 3235              	.LASF22:
 3236 0545 74707269 		.ascii	"tprio_t\000"
 3236      6F5F7400 
 3237              	.LASF106:
 3238 054d 4558545F 		.ascii	"EXT_ACTIVE\000"
 3238      41435449 
 3238      564500
 3239              	.LASF86:
 3240 0558 6E5F6374 		.ascii	"n_ctxswc\000"
 3240      78737763 
 3240      00
 3241              	.LASF103:
 3242 0561 5F426F6F 		.ascii	"_Bool\000"
 3242      6C00
 3243              	.LASF14:
 3244 0567 696E7433 		.ascii	"int32_t\000"
ARM GAS  /tmp/cczp6DF1.s 			page 62


 3244      325F7400 
 3245              	.LASF2:
 3246 056f 756E7369 		.ascii	"unsigned char\000"
 3246      676E6564 
 3246      20636861 
 3246      7200
 3247              	.LASF120:
 3248 057d 65787449 		.ascii	"extInit\000"
 3248      6E697400 
 3249              	.LASF3:
 3250 0585 73686F72 		.ascii	"short int\000"
 3250      7420696E 
 3250      7400
 3251              	.LASF63:
 3252 058f 6C617374 		.ascii	"lasttime\000"
 3252      74696D65 
 3252      00
 3253              	.LASF97:
 3254 0598 65776D61 		.ascii	"ewmask\000"
 3254      736B00
 3255              	.LASF68:
 3256 059f 63685F73 		.ascii	"ch_system\000"
 3256      79737465 
 3256      6D00
 3257              	.LASF128:
 3258 05a9 5F5F6675 		.ascii	"__func__\000"
 3258      6E635F5F 
 3258      00
 3259              	.LASF122:
 3260 05b2 63685379 		.ascii	"chSysLock\000"
 3260      734C6F63 
 3260      6B00
 3261              	.LASF119:
 3262 05bc 6F73616C 		.ascii	"osalSysUnlock\000"
 3262      53797355 
 3262      6E6C6F63 
 3262      6B00
 3263              	.LASF130:
 3264 05ca 6368616E 		.ascii	"channel\000"
 3264      6E656C00 
 3265              	.LASF58:
 3266 05d2 63685F76 		.ascii	"ch_virtual_timer\000"
 3266      69727475 
 3266      616C5F74 
 3266      696D6572 
 3266      00
 3267              	.LASF98:
 3268 05e3 63685F73 		.ascii	"ch_semaphore\000"
 3268      656D6170 
 3268      686F7265 
 3268      00
 3269              	.LASF131:
 3270 05f0 65787443 		.ascii	"extChannelDisable\000"
 3270      68616E6E 
 3270      656C4469 
 3270      7361626C 
 3270      6500
ARM GAS  /tmp/cczp6DF1.s 			page 63


 3271              	.LASF15:
 3272 0602 75696E74 		.ascii	"uint32_t\000"
 3272      33325F74 
 3272      00
 3273              	.LASF96:
 3274 060b 77746D74 		.ascii	"wtmtxp\000"
 3274      787000
 3275              	.LASF48:
 3276 0612 63685F74 		.ascii	"ch_threads_list\000"
 3276      68726561 
 3276      64735F6C 
 3276      69737400 
 3277              	.LASF100:
 3278 0622 6F776E65 		.ascii	"owner\000"
 3278      7200
 3279              	.LASF9:
 3280 0628 6C6F6E67 		.ascii	"long unsigned int\000"
 3280      20756E73 
 3280      69676E65 
 3280      6420696E 
 3280      7400
 3281              	.LASF105:
 3282 063a 4558545F 		.ascii	"EXT_STOP\000"
 3282      53544F50 
 3282      00
 3283              	.LASF101:
 3284 0643 63686172 		.ascii	"char\000"
 3284      00
 3285              	.LASF32:
 3286 0648 6F6C6465 		.ascii	"older\000"
 3286      7200
 3287              	.LASF112:
 3288 064e 6D6F6465 		.ascii	"mode\000"
 3288      00
 3289              	.LASF109:
 3290 0653 636F6E66 		.ascii	"config\000"
 3290      696700
 3291              	.LASF111:
 3292 065a 65787463 		.ascii	"extcallback_t\000"
 3292      616C6C62 
 3292      61636B5F 
 3292      7400
 3293              	.LASF28:
 3294 0668 74687265 		.ascii	"thread_t\000"
 3294      61645F74 
 3294      00
 3295              	.LASF80:
 3296 0671 62657374 		.ascii	"best\000"
 3296      00
 3297              	.LASF27:
 3298 0676 73797374 		.ascii	"systime_t\000"
 3298      696D655F 
 3298      7400
 3299              	.LASF56:
 3300 0680 76746675 		.ascii	"vtfunc_t\000"
 3300      6E635F74 
 3300      00
ARM GAS  /tmp/cczp6DF1.s 			page 64


 3301              	.LASF123:
 3302 0689 5F5F7365 		.ascii	"__set_BASEPRI\000"
 3302      745F4241 
 3302      53455052 
 3302      4900
 3303              	.LASF66:
 3304 0697 70616E69 		.ascii	"panic_msg\000"
 3304      635F6D73 
 3304      6700
 3305              	.LASF78:
 3306 06a1 6F666673 		.ascii	"offset\000"
 3306      657400
 3307              	.LASF17:
 3308 06a8 7274636E 		.ascii	"rtcnt_t\000"
 3308      745F7400 
 3309              	.LASF129:
 3310 06b0 65787443 		.ascii	"extChannelEnable\000"
 3310      68616E6E 
 3310      656C456E 
 3310      61626C65 
 3310      00
 3311              	.LASF108:
 3312 06c1 45585444 		.ascii	"EXTDriver\000"
 3312      72697665 
 3312      7200
 3313              	.LASF50:
 3314 06cb 74687265 		.ascii	"threads_queue_t\000"
 3314      6164735F 
 3314      71756575 
 3314      655F7400 
 3315              	.LASF99:
 3316 06db 63685F6D 		.ascii	"ch_mutex\000"
 3316      75746578 
 3316      00
 3317              	.LASF69:
 3318 06e4 726C6973 		.ascii	"rlist\000"
 3318      7400
 3319              	.LASF13:
 3320 06ea 75696E74 		.ascii	"uint8_t\000"
 3320      385F7400 
 3321              	.LASF36:
 3322 06f2 666C6167 		.ascii	"flags\000"
 3322      7300
 3323              	.LASF136:
 3324 06f8 5F737461 		.ascii	"_stats_start_measure_crit_thd\000"
 3324      74735F73 
 3324      74617274 
 3324      5F6D6561 
 3324      73757265 
 3325              	.LASF92:
 3326 0716 77746F62 		.ascii	"wtobjp\000"
 3326      6A7000
 3327              	.LASF46:
 3328 071d 74687265 		.ascii	"threads_list_t\000"
 3328      6164735F 
 3328      6C697374 
 3328      5F7400
ARM GAS  /tmp/cczp6DF1.s 			page 65


 3329              	.LASF124:
 3330 072c 63685379 		.ascii	"chSysUnlock\000"
 3330      73556E6C 
 3330      6F636B00 
 3331              	.LASF41:
 3332 0738 6D74786C 		.ascii	"mtxlist\000"
 3332      69737400 
 3333              	.LASF87:
 3334 0740 6D5F6372 		.ascii	"m_crit_thd\000"
 3334      69745F74 
 3334      686400
 3335              	.LASF133:
 3336 074b 65787463 		.ascii	"extcp\000"
 3336      7000
 3337              		.ident	"GCC: (15:4.9.3+svn231177-1) 4.9.3 20150529 (prerelease)"
ARM GAS  /tmp/cczp6DF1.s 			page 66


DEFINED SYMBOLS
                            *ABS*:0000000000000000 hal_ext.c
     /tmp/cczp6DF1.s:21     .text.extInit:0000000000000000 $t
     /tmp/cczp6DF1.s:26     .text.extInit:0000000000000000 extInit
     /tmp/cczp6DF1.s:41     .text.extObjectInit:0000000000000000 $t
     /tmp/cczp6DF1.s:46     .text.extObjectInit:0000000000000000 extObjectInit
     /tmp/cczp6DF1.s:65     .text.extStart:0000000000000000 $t
     /tmp/cczp6DF1.s:70     .text.extStart:0000000000000000 extStart
     /tmp/cczp6DF1.s:145    .text.extStop:0000000000000000 $t
     /tmp/cczp6DF1.s:150    .text.extStop:0000000000000000 extStop
     /tmp/cczp6DF1.s:223    .text.extChannelEnable:0000000000000000 $t
     /tmp/cczp6DF1.s:228    .text.extChannelEnable:0000000000000000 extChannelEnable
     /tmp/cczp6DF1.s:296    .text.extChannelDisable:0000000000000000 $t
     /tmp/cczp6DF1.s:301    .text.extChannelDisable:0000000000000000 extChannelDisable
     /tmp/cczp6DF1.s:369    .text.extSetChannelModeI:0000000000000000 $t
     /tmp/cczp6DF1.s:374    .text.extSetChannelModeI:0000000000000000 extSetChannelModeI
                     .debug_frame:0000000000000010 $d

UNDEFINED SYMBOLS
ext_lld_init
_stats_start_measure_crit_thd
ext_lld_start
_stats_stop_measure_crit_thd
ext_lld_stop
ext_lld_channel_enable
ext_lld_channel_disable
