ARM GAS  /tmp/ccuVlvbs.s 			page 1


   1              		.syntax unified
   2              		.cpu cortex-m4
   3              		.eabi_attribute 27, 1
   4              		.eabi_attribute 28, 1
   5              		.fpu fpv4-sp-d16
   6              		.eabi_attribute 20, 1
   7              		.eabi_attribute 21, 1
   8              		.eabi_attribute 23, 3
   9              		.eabi_attribute 24, 1
  10              		.eabi_attribute 25, 1
  11              		.eabi_attribute 26, 1
  12              		.eabi_attribute 30, 4
  13              		.eabi_attribute 34, 1
  14              		.eabi_attribute 18, 4
  15              		.thumb
  16              		.file	"hal_i2c.c"
  17              		.text
  18              	.Ltext0:
  19              		.cfi_sections	.debug_frame
  20              		.section	.text.i2cInit,"ax",%progbits
  21              		.align	1
  22              		.global	i2cInit
  23              		.thumb
  24              		.thumb_func
  25              		.type	i2cInit, %function
  26              	i2cInit:
  27              	.LFB277:
  28              		.file 1 "../../modules/ChibiOS/os/hal/src/hal_i2c.c"
  29              		.loc 1 59 0
  30              		.cfi_startproc
  31              		@ args = 0, pretend = 0, frame = 0
  32              		@ frame_needed = 0, uses_anonymous_args = 0
  33              		@ link register save eliminated.
  34              		.loc 1 61 0
  35 0000 FFF7FEBF 		b	i2c_lld_init
  36              	.LVL0:
  37              		.cfi_endproc
  38              	.LFE277:
  39              		.size	i2cInit, .-i2cInit
  40              		.section	.text.i2cObjectInit,"ax",%progbits
  41              		.align	1
  42              		.global	i2cObjectInit
  43              		.thumb
  44              		.thumb_func
  45              		.type	i2cObjectInit, %function
  46              	i2cObjectInit:
  47              	.LFB278:
  48              		.loc 1 71 0
  49              		.cfi_startproc
  50              		@ args = 0, pretend = 0, frame = 0
  51              		@ frame_needed = 0, uses_anonymous_args = 0
  52              		@ link register save eliminated.
  53              	.LVL1:
  54              		.loc 1 73 0
  55 0000 0123     		movs	r3, #1
  56 0002 0370     		strb	r3, [r0]
  57              		.loc 1 74 0
ARM GAS  /tmp/ccuVlvbs.s 			page 2


  58 0004 0023     		movs	r3, #0
  59 0006 4360     		str	r3, [r0, #4]
  60              	.LVL2:
  61              	.LBB36:
  62              	.LBB37:
  63              		.file 2 "../../modules/ChibiOS/os/hal/osal/rt/osal.h"
  64              		.loc 2 887 0
  65 0008 0C30     		adds	r0, r0, #12
  66              	.LVL3:
  67 000a FFF7FEBF 		b	chMtxObjectInit
  68              	.LVL4:
  69              	.LBE37:
  70              	.LBE36:
  71              		.cfi_endproc
  72              	.LFE278:
  73              		.size	i2cObjectInit, .-i2cObjectInit
  74              		.section	.text.i2cStart,"ax",%progbits
  75              		.align	1
  76              		.global	i2cStart
  77              		.thumb
  78              		.thumb_func
  79              		.type	i2cStart, %function
  80              	i2cStart:
  81              	.LFB279:
  82              		.loc 1 93 0
  83              		.cfi_startproc
  84              		@ args = 0, pretend = 0, frame = 0
  85              		@ frame_needed = 0, uses_anonymous_args = 0
  86              	.LVL5:
  87 0000 38B5     		push	{r3, r4, r5, lr}
  88              		.cfi_def_cfa_offset 16
  89              		.cfi_offset 3, -16
  90              		.cfi_offset 4, -12
  91              		.cfi_offset 5, -8
  92              		.cfi_offset 14, -4
  93              		.loc 1 93 0
  94 0002 0446     		mov	r4, r0
  95 0004 0D46     		mov	r5, r1
  96              	.LBB52:
  97              	.LBB53:
  98              	.LBB54:
  99              	.LBB55:
 100              	.LBB56:
 101              	.LBB57:
 102              		.file 3 "../../modules/ChibiOS/os/common/ext/CMSIS/include/cmsis_gcc.h"
 103              		.loc 3 264 0
 104 0006 2023     		movs	r3, #32
 105              	@ 264 "../../modules/ChibiOS/os/common/ext/CMSIS/include/cmsis_gcc.h" 1
 106 0008 83F31188 		MSR basepri, r3
 107              	@ 0 "" 2
 108              		.thumb
 109              	.LBE57:
 110              	.LBE56:
 111              	.LBE55:
 112              		.file 4 "../../modules/ChibiOS/os/rt/include/chsys.h"
 113              		.loc 4 377 0
 114 000c FFF7FEFF 		bl	_stats_start_measure_crit_thd
ARM GAS  /tmp/ccuVlvbs.s 			page 3


 115              	.LVL6:
 116              	.LBE54:
 117              	.LBE53:
 118              	.LBE52:
 119              		.loc 1 101 0
 120 0010 2046     		mov	r0, r4
 121              		.loc 1 100 0
 122 0012 6560     		str	r5, [r4, #4]
 123              		.loc 1 101 0
 124 0014 FFF7FEFF 		bl	i2c_lld_start
 125              	.LVL7:
 126              		.loc 1 102 0
 127 0018 0223     		movs	r3, #2
 128 001a 2370     		strb	r3, [r4]
 129              	.LBB58:
 130              	.LBB59:
 131              	.LBB60:
 132              		.loc 4 389 0
 133 001c FFF7FEFF 		bl	_stats_stop_measure_crit_thd
 134              	.LVL8:
 135              	.LBB61:
 136              	.LBB62:
 137              	.LBB63:
 138              		.loc 3 264 0
 139 0020 0023     		movs	r3, #0
 140              	@ 264 "../../modules/ChibiOS/os/common/ext/CMSIS/include/cmsis_gcc.h" 1
 141 0022 83F31188 		MSR basepri, r3
 142              	@ 0 "" 2
 143              		.thumb
 144 0026 38BD     		pop	{r3, r4, r5, pc}
 145              	.LBE63:
 146              	.LBE62:
 147              	.LBE61:
 148              	.LBE60:
 149              	.LBE59:
 150              	.LBE58:
 151              		.cfi_endproc
 152              	.LFE279:
 153              		.size	i2cStart, .-i2cStart
 154              		.section	.text.i2cStop,"ax",%progbits
 155              		.align	1
 156              		.global	i2cStop
 157              		.thumb
 158              		.thumb_func
 159              		.type	i2cStop, %function
 160              	i2cStop:
 161              	.LFB280:
 162              		.loc 1 113 0
 163              		.cfi_startproc
 164              		@ args = 0, pretend = 0, frame = 0
 165              		@ frame_needed = 0, uses_anonymous_args = 0
 166              	.LVL9:
 167 0000 38B5     		push	{r3, r4, r5, lr}
 168              		.cfi_def_cfa_offset 16
 169              		.cfi_offset 3, -16
 170              		.cfi_offset 4, -12
 171              		.cfi_offset 5, -8
ARM GAS  /tmp/ccuVlvbs.s 			page 4


 172              		.cfi_offset 14, -4
 173              		.loc 1 113 0
 174 0002 0446     		mov	r4, r0
 175              	.LBB78:
 176              	.LBB79:
 177              	.LBB80:
 178              	.LBB81:
 179              	.LBB82:
 180              	.LBB83:
 181              		.loc 3 264 0
 182 0004 2023     		movs	r3, #32
 183              	@ 264 "../../modules/ChibiOS/os/common/ext/CMSIS/include/cmsis_gcc.h" 1
 184 0006 83F31188 		MSR basepri, r3
 185              	@ 0 "" 2
 186              		.thumb
 187              	.LBE83:
 188              	.LBE82:
 189              	.LBE81:
 190              		.loc 4 377 0
 191 000a FFF7FEFF 		bl	_stats_start_measure_crit_thd
 192              	.LVL10:
 193              	.LBE80:
 194              	.LBE79:
 195              	.LBE78:
 196              		.loc 1 122 0
 197 000e 2046     		mov	r0, r4
 198 0010 FFF7FEFF 		bl	i2c_lld_stop
 199              	.LVL11:
 200              		.loc 1 123 0
 201 0014 0025     		movs	r5, #0
 202              		.loc 1 124 0
 203 0016 0123     		movs	r3, #1
 204              		.loc 1 123 0
 205 0018 6560     		str	r5, [r4, #4]
 206              		.loc 1 124 0
 207 001a 2370     		strb	r3, [r4]
 208              	.LBB84:
 209              	.LBB85:
 210              	.LBB86:
 211              		.loc 4 389 0
 212 001c FFF7FEFF 		bl	_stats_stop_measure_crit_thd
 213              	.LVL12:
 214              	.LBB87:
 215              	.LBB88:
 216              	.LBB89:
 217              		.loc 3 264 0
 218              	@ 264 "../../modules/ChibiOS/os/common/ext/CMSIS/include/cmsis_gcc.h" 1
 219 0020 85F31188 		MSR basepri, r5
 220              	@ 0 "" 2
 221              		.thumb
 222 0024 38BD     		pop	{r3, r4, r5, pc}
 223              	.LBE89:
 224              	.LBE88:
 225              	.LBE87:
 226              	.LBE86:
 227              	.LBE85:
 228              	.LBE84:
ARM GAS  /tmp/ccuVlvbs.s 			page 5


 229              		.cfi_endproc
 230              	.LFE280:
 231              		.size	i2cStop, .-i2cStop
 232              		.section	.text.i2cGetErrors,"ax",%progbits
 233              		.align	1
 234              		.global	i2cGetErrors
 235              		.thumb
 236              		.thumb_func
 237              		.type	i2cGetErrors, %function
 238              	i2cGetErrors:
 239              	.LFB281:
 240              		.loc 1 137 0
 241              		.cfi_startproc
 242              		@ args = 0, pretend = 0, frame = 0
 243              		@ frame_needed = 0, uses_anonymous_args = 0
 244              		@ link register save eliminated.
 245              	.LVL13:
 246              		.loc 1 142 0
 247 0000 8068     		ldr	r0, [r0, #8]
 248              	.LVL14:
 249 0002 7047     		bx	lr
 250              		.cfi_endproc
 251              	.LFE281:
 252              		.size	i2cGetErrors, .-i2cGetErrors
 253              		.section	.text.i2cMasterTransmitTimeout,"ax",%progbits
 254              		.align	1
 255              		.global	i2cMasterTransmitTimeout
 256              		.thumb
 257              		.thumb_func
 258              		.type	i2cMasterTransmitTimeout, %function
 259              	i2cMasterTransmitTimeout:
 260              	.LFB282:
 261              		.loc 1 176 0
 262              		.cfi_startproc
 263              		@ args = 12, pretend = 0, frame = 0
 264              		@ frame_needed = 0, uses_anonymous_args = 0
 265              	.LVL15:
 266 0000 2DE9FF41 		push	{r0, r1, r2, r3, r4, r5, r6, r7, r8, lr}
 267              		.cfi_def_cfa_offset 40
 268              		.cfi_offset 4, -24
 269              		.cfi_offset 5, -20
 270              		.cfi_offset 6, -16
 271              		.cfi_offset 7, -12
 272              		.cfi_offset 8, -8
 273              		.cfi_offset 14, -4
 274              		.loc 1 176 0
 275 0004 1E46     		mov	r6, r3
 276 0006 0446     		mov	r4, r0
 277 0008 8846     		mov	r8, r1
 278 000a 1746     		mov	r7, r2
 279              	.LBB104:
 280              	.LBB105:
 281              	.LBB106:
 282              	.LBB107:
 283              	.LBB108:
 284              	.LBB109:
 285              		.loc 3 264 0
ARM GAS  /tmp/ccuVlvbs.s 			page 6


 286 000c 2023     		movs	r3, #32
 287              	.LVL16:
 288              	@ 264 "../../modules/ChibiOS/os/common/ext/CMSIS/include/cmsis_gcc.h" 1
 289 000e 83F31188 		MSR basepri, r3
 290              	@ 0 "" 2
 291              		.thumb
 292              	.LBE109:
 293              	.LBE108:
 294              	.LBE107:
 295              		.loc 4 377 0
 296 0012 FFF7FEFF 		bl	_stats_start_measure_crit_thd
 297              	.LVL17:
 298              	.LBE106:
 299              	.LBE105:
 300              	.LBE104:
 301              		.loc 1 188 0
 302 0016 0323     		movs	r3, #3
 303 0018 2370     		strb	r3, [r4]
 304              		.loc 1 189 0
 305 001a 0A9B     		ldr	r3, [sp, #40]
 306 001c 0093     		str	r3, [sp]
 307 001e 0B9B     		ldr	r3, [sp, #44]
 308 0020 0193     		str	r3, [sp, #4]
 309              		.loc 1 187 0
 310 0022 0025     		movs	r5, #0
 311              		.loc 1 189 0
 312 0024 0C9B     		ldr	r3, [sp, #48]
 313 0026 0293     		str	r3, [sp, #8]
 314 0028 4146     		mov	r1, r8
 315 002a 3A46     		mov	r2, r7
 316 002c 3346     		mov	r3, r6
 317              		.loc 1 187 0
 318 002e A560     		str	r5, [r4, #8]
 319              		.loc 1 189 0
 320 0030 2046     		mov	r0, r4
 321 0032 FFF7FEFF 		bl	i2c_lld_master_transmit_timeout
 322              	.LVL18:
 323              		.loc 1 191 0
 324 0036 431C     		adds	r3, r0, #1
 325              		.loc 1 192 0
 326 0038 0CBF     		ite	eq
 327 003a 0523     		moveq	r3, #5
 328              		.loc 1 195 0
 329 003c 0223     		movne	r3, #2
 330 003e 2370     		strb	r3, [r4]
 331              		.loc 1 189 0
 332 0040 0646     		mov	r6, r0
 333              	.LVL19:
 334              	.LBB110:
 335              	.LBB111:
 336              	.LBB112:
 337              		.loc 4 389 0
 338 0042 FFF7FEFF 		bl	_stats_stop_measure_crit_thd
 339              	.LVL20:
 340              	.LBB113:
 341              	.LBB114:
 342              	.LBB115:
ARM GAS  /tmp/ccuVlvbs.s 			page 7


 343              		.loc 3 264 0
 344              	@ 264 "../../modules/ChibiOS/os/common/ext/CMSIS/include/cmsis_gcc.h" 1
 345 0046 85F31188 		MSR basepri, r5
 346              	@ 0 "" 2
 347              		.thumb
 348              	.LBE115:
 349              	.LBE114:
 350              	.LBE113:
 351              	.LBE112:
 352              	.LBE111:
 353              	.LBE110:
 354              		.loc 1 199 0
 355 004a 3046     		mov	r0, r6
 356 004c 04B0     		add	sp, sp, #16
 357              		.cfi_def_cfa_offset 24
 358              		@ sp needed
 359 004e BDE8F081 		pop	{r4, r5, r6, r7, r8, pc}
 360              		.cfi_endproc
 361              	.LFE282:
 362              		.size	i2cMasterTransmitTimeout, .-i2cMasterTransmitTimeout
 363              		.section	.text.i2cMasterReceiveTimeout,"ax",%progbits
 364              		.align	1
 365              		.global	i2cMasterReceiveTimeout
 366              		.thumb
 367              		.thumb_func
 368              		.type	i2cMasterReceiveTimeout, %function
 369              	i2cMasterReceiveTimeout:
 370              	.LFB283:
 371              		.loc 1 225 0
 372              		.cfi_startproc
 373              		@ args = 4, pretend = 0, frame = 0
 374              		@ frame_needed = 0, uses_anonymous_args = 0
 375              	.LVL21:
 376 0000 2DE9F341 		push	{r0, r1, r4, r5, r6, r7, r8, lr}
 377              		.cfi_def_cfa_offset 32
 378              		.cfi_offset 4, -24
 379              		.cfi_offset 5, -20
 380              		.cfi_offset 6, -16
 381              		.cfi_offset 7, -12
 382              		.cfi_offset 8, -8
 383              		.cfi_offset 14, -4
 384              		.loc 1 225 0
 385 0004 1E46     		mov	r6, r3
 386 0006 0446     		mov	r4, r0
 387 0008 8846     		mov	r8, r1
 388 000a 1746     		mov	r7, r2
 389              	.LBB130:
 390              	.LBB131:
 391              	.LBB132:
 392              	.LBB133:
 393              	.LBB134:
 394              	.LBB135:
 395              		.loc 3 264 0
 396 000c 2023     		movs	r3, #32
 397              	.LVL22:
 398              	@ 264 "../../modules/ChibiOS/os/common/ext/CMSIS/include/cmsis_gcc.h" 1
 399 000e 83F31188 		MSR basepri, r3
ARM GAS  /tmp/ccuVlvbs.s 			page 8


 400              	@ 0 "" 2
 401              		.thumb
 402              	.LBE135:
 403              	.LBE134:
 404              	.LBE133:
 405              		.loc 4 377 0
 406 0012 FFF7FEFF 		bl	_stats_start_measure_crit_thd
 407              	.LVL23:
 408              	.LBE132:
 409              	.LBE131:
 410              	.LBE130:
 411              		.loc 1 237 0
 412 0016 0423     		movs	r3, #4
 413 0018 2370     		strb	r3, [r4]
 414              		.loc 1 236 0
 415 001a 0025     		movs	r5, #0
 416              		.loc 1 238 0
 417 001c 089B     		ldr	r3, [sp, #32]
 418 001e 0093     		str	r3, [sp]
 419 0020 4146     		mov	r1, r8
 420 0022 3A46     		mov	r2, r7
 421 0024 3346     		mov	r3, r6
 422              		.loc 1 236 0
 423 0026 A560     		str	r5, [r4, #8]
 424              		.loc 1 238 0
 425 0028 2046     		mov	r0, r4
 426 002a FFF7FEFF 		bl	i2c_lld_master_receive_timeout
 427              	.LVL24:
 428              		.loc 1 239 0
 429 002e 431C     		adds	r3, r0, #1
 430              		.loc 1 240 0
 431 0030 0CBF     		ite	eq
 432 0032 0523     		moveq	r3, #5
 433              		.loc 1 243 0
 434 0034 0223     		movne	r3, #2
 435 0036 2370     		strb	r3, [r4]
 436              		.loc 1 238 0
 437 0038 0646     		mov	r6, r0
 438              	.LVL25:
 439              	.LBB136:
 440              	.LBB137:
 441              	.LBB138:
 442              		.loc 4 389 0
 443 003a FFF7FEFF 		bl	_stats_stop_measure_crit_thd
 444              	.LVL26:
 445              	.LBB139:
 446              	.LBB140:
 447              	.LBB141:
 448              		.loc 3 264 0
 449              	@ 264 "../../modules/ChibiOS/os/common/ext/CMSIS/include/cmsis_gcc.h" 1
 450 003e 85F31188 		MSR basepri, r5
 451              	@ 0 "" 2
 452              		.thumb
 453              	.LBE141:
 454              	.LBE140:
 455              	.LBE139:
 456              	.LBE138:
ARM GAS  /tmp/ccuVlvbs.s 			page 9


 457              	.LBE137:
 458              	.LBE136:
 459              		.loc 1 247 0
 460 0042 3046     		mov	r0, r6
 461 0044 02B0     		add	sp, sp, #8
 462              		.cfi_def_cfa_offset 24
 463              		@ sp needed
 464 0046 BDE8F081 		pop	{r4, r5, r6, r7, r8, pc}
 465              		.cfi_endproc
 466              	.LFE283:
 467              		.size	i2cMasterReceiveTimeout, .-i2cMasterReceiveTimeout
 468              		.section	.text.i2cAcquireBus,"ax",%progbits
 469              		.align	1
 470              		.global	i2cAcquireBus
 471              		.thumb
 472              		.thumb_func
 473              		.type	i2cAcquireBus, %function
 474              	i2cAcquireBus:
 475              	.LFB284:
 476              		.loc 1 261 0
 477              		.cfi_startproc
 478              		@ args = 0, pretend = 0, frame = 0
 479              		@ frame_needed = 0, uses_anonymous_args = 0
 480              		@ link register save eliminated.
 481              	.LVL27:
 482              	.LBB142:
 483              	.LBB143:
 484              		.loc 2 907 0
 485 0000 0C30     		adds	r0, r0, #12
 486              	.LVL28:
 487 0002 FFF7FEBF 		b	chMtxLock
 488              	.LVL29:
 489              	.LBE143:
 490              	.LBE142:
 491              		.cfi_endproc
 492              	.LFE284:
 493              		.size	i2cAcquireBus, .-i2cAcquireBus
 494              		.section	.text.i2cReleaseBus,"ax",%progbits
 495              		.align	1
 496              		.global	i2cReleaseBus
 497              		.thumb
 498              		.thumb_func
 499              		.type	i2cReleaseBus, %function
 500              	i2cReleaseBus:
 501              	.LFB285:
 502              		.loc 1 277 0
 503              		.cfi_startproc
 504              		@ args = 0, pretend = 0, frame = 0
 505              		@ frame_needed = 0, uses_anonymous_args = 0
 506              		@ link register save eliminated.
 507              	.LVL30:
 508              	.LBB144:
 509              	.LBB145:
 510              		.loc 2 931 0
 511 0000 0C30     		adds	r0, r0, #12
 512              	.LVL31:
 513 0002 FFF7FEBF 		b	chMtxUnlock
ARM GAS  /tmp/ccuVlvbs.s 			page 10


 514              	.LVL32:
 515              	.LBE145:
 516              	.LBE144:
 517              		.cfi_endproc
 518              	.LFE285:
 519              		.size	i2cReleaseBus, .-i2cReleaseBus
 520              		.text
 521              	.Letext0:
 522              		.file 5 "/usr/lib/gcc/arm-none-eabi/4.9.3/include/stddef.h"
 523              		.file 6 "/usr/include/newlib/machine/_default_types.h"
 524              		.file 7 "/usr/include/newlib/sys/_stdint.h"
 525              		.file 8 "../../modules/ChibiOS/os/common/ports/ARMCMx/compilers/GCC/chtypes.h"
 526              		.file 9 "../../modules/ChibiOS/os/rt/include/chsystypes.h"
 527              		.file 10 "../../modules/ChibiOS/os/rt/include/chschd.h"
 528              		.file 11 "../../modules/ChibiOS/os/common/ext/CMSIS/ST/STM32F4xx/stm32f407xx.h"
 529              		.file 12 "../../modules/ChibiOS/os/common/ports/ARMCMx/chcore.h"
 530              		.file 13 "../../modules/ChibiOS/os/common/ports/ARMCMx/chcore_v7m.h"
 531              		.file 14 "../../modules/ChibiOS/os/rt/include/chtm.h"
 532              		.file 15 "../../modules/ChibiOS/os/rt/include/chstats.h"
 533              		.file 16 "../../modules/ChibiOS/os/rt/include/chsem.h"
 534              		.file 17 "../../modules/ChibiOS/os/rt/include/chmtx.h"
 535              		.file 18 "../../modules/ChibiOS/os/hal/ports/STM32/LLD/DMAv2/stm32_dma.h"
 536              		.file 19 "../../modules/ChibiOS/os/hal/include/hal_i2c.h"
 537              		.file 20 "../../modules/ChibiOS/os/hal/ports/STM32/LLD/I2Cv1/hal_i2c_lld.h"
 538              		.file 21 "../../modules/ChibiOS/os/common/ext/CMSIS/include/core_cm4.h"