ARM GAS  /tmp/ccYa27rh.s 			page 1


   1              		.syntax unified
   2              		.cpu cortex-m4
   3              		.eabi_attribute 27, 1
   4              		.eabi_attribute 28, 1
   5              		.fpu fpv4-sp-d16
   6              		.eabi_attribute 20, 1
   7              		.eabi_attribute 21, 1
   8              		.eabi_attribute 23, 3
   9              		.eabi_attribute 24, 1
  10              		.eabi_attribute 25, 1
  11              		.eabi_attribute 26, 1
  12              		.eabi_attribute 30, 4
  13              		.eabi_attribute 34, 1
  14              		.eabi_attribute 18, 4
  15              		.thumb
  16              		.file	"hal_pwm_lld.c"
  17              		.text
  18              	.Ltext0:
  19              		.cfi_sections	.debug_frame
  20              		.section	.text.pwm_lld_init,"ax",%progbits
  21              		.align	1
  22              		.global	pwm_lld_init
  23              		.thumb
  24              		.thumb_func
  25              		.type	pwm_lld_init, %function
  26              	pwm_lld_init:
  27              	.LFB277:
  28              		.file 1 "../../modules/ChibiOS/os/hal/ports/STM32/LLD/TIMv1/hal_pwm_lld.c"
  29              		.loc 1 336 0
  30              		.cfi_startproc
  31              		@ args = 0, pretend = 0, frame = 0
  32              		@ frame_needed = 0, uses_anonymous_args = 0
  33 0000 38B5     		push	{r3, r4, r5, lr}
  34              		.cfi_def_cfa_offset 16
  35              		.cfi_offset 3, -16
  36              		.cfi_offset 4, -12
  37              		.cfi_offset 5, -8
  38              		.cfi_offset 14, -4
  39              		.loc 1 340 0
  40 0002 104C     		ldr	r4, .L2
  41 0004 2046     		mov	r0, r4
  42 0006 FFF7FEFF 		bl	pwmObjectInit
  43              	.LVL0:
  44              		.loc 1 341 0
  45 000a 0425     		movs	r5, #4
  46              		.loc 1 342 0
  47 000c 0E4B     		ldr	r3, .L2+4
  48 000e A361     		str	r3, [r4, #24]
  49              		.loc 1 341 0
  50 0010 2574     		strb	r5, [r4, #16]
  51              		.loc 1 347 0
  52 0012 0E4C     		ldr	r4, .L2+8
  53 0014 2046     		mov	r0, r4
  54 0016 FFF7FEFF 		bl	pwmObjectInit
  55              	.LVL1:
  56              		.loc 1 349 0
  57 001a 4FF08043 		mov	r3, #1073741824
ARM GAS  /tmp/ccYa27rh.s 			page 2


  58 001e A361     		str	r3, [r4, #24]
  59              		.loc 1 348 0
  60 0020 2574     		strb	r5, [r4, #16]
  61              		.loc 1 361 0
  62 0022 0B4C     		ldr	r4, .L2+12
  63 0024 2046     		mov	r0, r4
  64 0026 FFF7FEFF 		bl	pwmObjectInit
  65              	.LVL2:
  66              		.loc 1 363 0
  67 002a 0A4B     		ldr	r3, .L2+16
  68 002c A361     		str	r3, [r4, #24]
  69              		.loc 1 362 0
  70 002e 2574     		strb	r5, [r4, #16]
  71              		.loc 1 382 0
  72 0030 094C     		ldr	r4, .L2+20
  73 0032 2046     		mov	r0, r4
  74 0034 FFF7FEFF 		bl	pwmObjectInit
  75              	.LVL3:
  76              		.loc 1 383 0
  77 0038 0223     		movs	r3, #2
  78 003a 2374     		strb	r3, [r4, #16]
  79              		.loc 1 384 0
  80 003c 074B     		ldr	r3, .L2+24
  81 003e A361     		str	r3, [r4, #24]
  82 0040 38BD     		pop	{r3, r4, r5, pc}
  83              	.L3:
  84 0042 00BF     		.align	2
  85              	.L2:
  86 0044 00000000 		.word	.LANCHOR0
  87 0048 00000140 		.word	1073807360
  88 004c 00000000 		.word	.LANCHOR1
  89 0050 00000000 		.word	.LANCHOR2
  90 0054 00080040 		.word	1073743872
  91 0058 00000000 		.word	.LANCHOR3
  92 005c 00400140 		.word	1073823744
  93              		.cfi_endproc
  94              	.LFE277:
  95              		.size	pwm_lld_init, .-pwm_lld_init
  96              		.section	.text.pwm_lld_start,"ax",%progbits
  97              		.align	1
  98              		.global	pwm_lld_start
  99              		.thumb
 100              		.thumb_func
 101              		.type	pwm_lld_start, %function
 102              	pwm_lld_start:
 103              	.LFB278:
 104              		.loc 1 404 0
 105              		.cfi_startproc
 106              		@ args = 0, pretend = 0, frame = 0
 107              		@ frame_needed = 0, uses_anonymous_args = 0
 108              	.LVL4:
 109              		.loc 1 408 0
 110 0000 0378     		ldrb	r3, [r0]	@ zero_extendqisi2
 111 0002 8269     		ldr	r2, [r0, #24]
 112 0004 012B     		cmp	r3, #1
 113              		.loc 1 404 0
 114 0006 10B5     		push	{r4, lr}
ARM GAS  /tmp/ccYa27rh.s 			page 3


 115              		.cfi_def_cfa_offset 8
 116              		.cfi_offset 4, -8
 117              		.cfi_offset 14, -4
 118              		.loc 1 408 0
 119 0008 42D1     		bne	.L5
 120              		.loc 1 411 0
 121 000a 494B     		ldr	r3, .L39
 122 000c 9842     		cmp	r0, r3
 123 000e 08D1     		bne	.L6
 124              		.loc 1 412 0
 125 0010 484B     		ldr	r3, .L39+4
 126 0012 596C     		ldr	r1, [r3, #68]
 127 0014 41F00101 		orr	r1, r1, #1
 128 0018 5964     		str	r1, [r3, #68]
 129              		.loc 1 413 0
 130 001a 596A     		ldr	r1, [r3, #36]
 131 001c 41F00101 		orr	r1, r1, #1
 132 0020 29E0     		b	.L36
 133              	.L6:
 134              		.loc 1 427 0
 135 0022 454B     		ldr	r3, .L39+8
 136 0024 9842     		cmp	r0, r3
 137 0026 08D1     		bne	.L8
 138              		.loc 1 428 0
 139 0028 424B     		ldr	r3, .L39+4
 140 002a 196C     		ldr	r1, [r3, #64]
 141 002c 41F00101 		orr	r1, r1, #1
 142 0030 1964     		str	r1, [r3, #64]
 143              		.loc 1 429 0
 144 0032 196A     		ldr	r1, [r3, #32]
 145 0034 41F00101 		orr	r1, r1, #1
 146 0038 0AE0     		b	.L37
 147              	.L8:
 148              		.loc 1 457 0
 149 003a 404B     		ldr	r3, .L39+12
 150 003c 9842     		cmp	r0, r3
 151 003e 0FD1     		bne	.L9
 152              		.loc 1 458 0
 153 0040 3C4B     		ldr	r3, .L39+4
 154 0042 196C     		ldr	r1, [r3, #64]
 155 0044 41F00401 		orr	r1, r1, #4
 156 0048 1964     		str	r1, [r3, #64]
 157              		.loc 1 459 0
 158 004a 196A     		ldr	r1, [r3, #32]
 159 004c 41F00401 		orr	r1, r1, #4
 160              	.L37:
 161 0050 1962     		str	r1, [r3, #32]
 162 0052 0021     		movs	r1, #0
 163 0054 1962     		str	r1, [r3, #32]
 164              		.loc 1 466 0
 165 0056 03F14543 		add	r3, r3, #-989855744
 166 005a A3F5F643 		sub	r3, r3, #31488
 167 005e 11E0     		b	.L35
 168              	.L9:
 169              		.loc 1 503 0
 170 0060 374B     		ldr	r3, .L39+16
 171 0062 9842     		cmp	r0, r3
ARM GAS  /tmp/ccYa27rh.s 			page 4


 172 0064 0FD1     		bne	.L7
 173              		.loc 1 504 0
 174 0066 334B     		ldr	r3, .L39+4
 175 0068 596C     		ldr	r1, [r3, #68]
 176 006a 41F48031 		orr	r1, r1, #65536
 177 006e 5964     		str	r1, [r3, #68]
 178              		.loc 1 505 0
 179 0070 596A     		ldr	r1, [r3, #36]
 180 0072 41F48031 		orr	r1, r1, #65536
 181              	.L36:
 182 0076 5962     		str	r1, [r3, #36]
 183 0078 0021     		movs	r1, #0
 184 007a 5962     		str	r1, [r3, #36]
 185              		.loc 1 512 0
 186 007c 03F14A43 		add	r3, r3, #-905969664
 187 0080 03F5A133 		add	r3, r3, #82432
 188              	.L35:
 189 0084 4361     		str	r3, [r0, #20]
 190              	.L7:
 191              		.loc 1 534 0
 192 0086 46F66803 		movw	r3, #26728
 193 008a 9361     		str	r3, [r2, #24]
 194              		.loc 1 536 0
 195 008c D361     		str	r3, [r2, #28]
 196 008e 06E0     		b	.L10
 197              	.L5:
 198              		.loc 1 545 0
 199 0090 0023     		movs	r3, #0
 200 0092 1360     		str	r3, [r2]
 201              		.loc 1 546 0
 202 0094 5363     		str	r3, [r2, #52]
 203              		.loc 1 547 0
 204 0096 9363     		str	r3, [r2, #56]
 205              		.loc 1 548 0
 206 0098 D363     		str	r3, [r2, #60]
 207              		.loc 1 549 0
 208 009a 1364     		str	r3, [r2, #64]
 209              		.loc 1 556 0
 210 009c 5362     		str	r3, [r2, #36]
 211              	.L10:
 212              		.loc 1 560 0
 213 009e 4168     		ldr	r1, [r0, #4]
 214 00a0 4369     		ldr	r3, [r0, #20]
 215 00a2 0C68     		ldr	r4, [r1]
 216 00a4 B3FBF4F3 		udiv	r3, r3, r4
 217 00a8 013B     		subs	r3, r3, #1
 218              	.LVL5:
 219              		.loc 1 564 0
 220 00aa 9362     		str	r3, [r2, #40]
 221              		.loc 1 565 0
 222 00ac 8368     		ldr	r3, [r0, #8]
 223              	.LVL6:
 224 00ae 013B     		subs	r3, r3, #1
 225 00b0 D362     		str	r3, [r2, #44]
 226              	.LVL7:
 227              		.loc 1 566 0
 228 00b2 CB6A     		ldr	r3, [r1, #44]
ARM GAS  /tmp/ccYa27rh.s 			page 5


 229 00b4 5360     		str	r3, [r2, #4]
 230              	.LVL8:
 231              		.loc 1 570 0
 232 00b6 CB68     		ldr	r3, [r1, #12]
 233 00b8 03F00F03 		and	r3, r3, #15
 234 00bc 012B     		cmp	r3, #1
 235 00be 02D0     		beq	.L24
 236 00c0 022B     		cmp	r3, #2
 237 00c2 04D1     		bne	.L34
 238 00c4 00E0     		b	.L12
 239              	.L24:
 240              		.loc 1 569 0
 241 00c6 0023     		movs	r3, #0
 242              	.L12:
 243              	.LVL9:
 244              		.loc 1 574 0
 245 00c8 43F00103 		orr	r3, r3, #1
 246              	.LVL10:
 247 00cc 00E0     		b	.L11
 248              	.LVL11:
 249              	.L34:
 250              		.loc 1 569 0
 251 00ce 0023     		movs	r3, #0
 252              	.LVL12:
 253              	.L11:
 254              		.loc 1 578 0
 255 00d0 4869     		ldr	r0, [r1, #20]
 256              	.LVL13:
 257 00d2 00F00F00 		and	r0, r0, #15
 258 00d6 0128     		cmp	r0, #1
 259 00d8 03D0     		beq	.L15
 260 00da 0228     		cmp	r0, #2
 261 00dc 03D1     		bne	.L14
 262              		.loc 1 580 0
 263 00de 43F02003 		orr	r3, r3, #32
 264              	.LVL14:
 265              	.L15:
 266              		.loc 1 582 0
 267 00e2 43F01003 		orr	r3, r3, #16
 268              	.LVL15:
 269              	.L14:
 270              		.loc 1 586 0
 271 00e6 C869     		ldr	r0, [r1, #28]
 272 00e8 00F00F00 		and	r0, r0, #15
 273 00ec 0128     		cmp	r0, #1
 274 00ee 03D0     		beq	.L18
 275 00f0 0228     		cmp	r0, #2
 276 00f2 03D1     		bne	.L17
 277              		.loc 1 588 0
 278 00f4 43F40073 		orr	r3, r3, #512
 279              	.LVL16:
 280              	.L18:
 281              		.loc 1 590 0
 282 00f8 43F48073 		orr	r3, r3, #256
 283              	.LVL17:
 284              	.L17:
 285              		.loc 1 594 0
ARM GAS  /tmp/ccYa27rh.s 			page 6


 286 00fc 486A     		ldr	r0, [r1, #36]
 287 00fe 00F00F00 		and	r0, r0, #15
 288 0102 0128     		cmp	r0, #1
 289 0104 03D0     		beq	.L21
 290 0106 0228     		cmp	r0, #2
 291 0108 03D1     		bne	.L20
 292              		.loc 1 596 0
 293 010a 43F40053 		orr	r3, r3, #8192
 294              	.LVL18:
 295              	.L21:
 296              		.loc 1 598 0
 297 010e 43F48053 		orr	r3, r3, #4096
 298              	.LVL19:
 299              	.L20:
 300              		.loc 1 639 0
 301 0112 1362     		str	r3, [r2, #32]
 302              		.loc 1 640 0
 303 0114 0123     		movs	r3, #1
 304              	.LVL20:
 305 0116 5361     		str	r3, [r2, #20]
 306              	.LVL21:
 307              		.loc 1 641 0
 308 0118 0023     		movs	r3, #0
 309 011a 1361     		str	r3, [r2, #16]
 310              		.loc 1 642 0
 311 011c 0B6B     		ldr	r3, [r1, #48]
 312 011e 23F0FF03 		bic	r3, r3, #255
 313 0122 D360     		str	r3, [r2, #12]
 314              		.loc 1 648 0
 315 0124 4FF40043 		mov	r3, #32768
 316 0128 5364     		str	r3, [r2, #68]
 317              		.loc 1 652 0
 318 012a 8523     		movs	r3, #133
 319 012c 1360     		str	r3, [r2]
 320 012e 10BD     		pop	{r4, pc}
 321              	.LVL22:
 322              	.L40:
 323              		.align	2
 324              	.L39:
 325 0130 00000000 		.word	.LANCHOR0
 326 0134 00380240 		.word	1073887232
 327 0138 00000000 		.word	.LANCHOR1
 328 013c 00000000 		.word	.LANCHOR2
 329 0140 00000000 		.word	.LANCHOR3
 330              		.cfi_endproc
 331              	.LFE278:
 332              		.size	pwm_lld_start, .-pwm_lld_start
 333              		.section	.text.pwm_lld_stop,"ax",%progbits
 334              		.align	1
 335              		.global	pwm_lld_stop
 336              		.thumb
 337              		.thumb_func
 338              		.type	pwm_lld_stop, %function
 339              	pwm_lld_stop:
 340              	.LFB279:
 341              		.loc 1 663 0
 342              		.cfi_startproc
ARM GAS  /tmp/ccYa27rh.s 			page 7


 343              		@ args = 0, pretend = 0, frame = 0
 344              		@ frame_needed = 0, uses_anonymous_args = 0
 345              		@ link register save eliminated.
 346              	.LVL23:
 347              		.loc 1 666 0
 348 0000 0378     		ldrb	r3, [r0]	@ zero_extendqisi2
 349 0002 022B     		cmp	r3, #2
 350 0004 26D1     		bne	.L41
 351              		.loc 1 667 0
 352 0006 8369     		ldr	r3, [r0, #24]
 353 0008 0022     		movs	r2, #0
 354 000a 1A60     		str	r2, [r3]
 355              		.loc 1 668 0
 356 000c DA60     		str	r2, [r3, #12]
 357              		.loc 1 669 0
 358 000e 1A61     		str	r2, [r3, #16]
 359              		.loc 1 671 0
 360 0010 5A64     		str	r2, [r3, #68]
 361              		.loc 1 675 0
 362 0012 114B     		ldr	r3, .L50
 363 0014 9842     		cmp	r0, r3
 364 0016 04D1     		bne	.L44
 365              		.loc 1 680 0
 366 0018 104A     		ldr	r2, .L50+4
 367 001a 536C     		ldr	r3, [r2, #68]
 368 001c 23F00103 		bic	r3, r3, #1
 369 0020 17E0     		b	.L48
 370              	.L44:
 371              		.loc 1 685 0
 372 0022 0F4B     		ldr	r3, .L50+8
 373 0024 9842     		cmp	r0, r3
 374 0026 04D1     		bne	.L46
 375              		.loc 1 689 0
 376 0028 0C4A     		ldr	r2, .L50+4
 377 002a 136C     		ldr	r3, [r2, #64]
 378 002c 23F00103 		bic	r3, r3, #1
 379 0030 06E0     		b	.L49
 380              	.L46:
 381              		.loc 1 703 0
 382 0032 0C4B     		ldr	r3, .L50+12
 383 0034 9842     		cmp	r0, r3
 384 0036 05D1     		bne	.L47
 385              		.loc 1 707 0
 386 0038 084A     		ldr	r2, .L50+4
 387 003a 136C     		ldr	r3, [r2, #64]
 388 003c 23F00403 		bic	r3, r3, #4
 389              	.L49:
 390 0040 1364     		str	r3, [r2, #64]
 391 0042 7047     		bx	lr
 392              	.L47:
 393              		.loc 1 731 0
 394 0044 084B     		ldr	r3, .L50+16
 395 0046 9842     		cmp	r0, r3
 396 0048 04D1     		bne	.L41
 397              		.loc 1 735 0
 398 004a 044A     		ldr	r2, .L50+4
 399 004c 536C     		ldr	r3, [r2, #68]
ARM GAS  /tmp/ccYa27rh.s 			page 8


 400 004e 23F48033 		bic	r3, r3, #65536
 401              	.L48:
 402 0052 5364     		str	r3, [r2, #68]
 403              	.L41:
 404 0054 7047     		bx	lr
 405              	.L51:
 406 0056 00BF     		.align	2
 407              	.L50:
 408 0058 00000000 		.word	.LANCHOR0
 409 005c 00380240 		.word	1073887232
 410 0060 00000000 		.word	.LANCHOR1
 411 0064 00000000 		.word	.LANCHOR2
 412 0068 00000000 		.word	.LANCHOR3
 413              		.cfi_endproc
 414              	.LFE279:
 415              		.size	pwm_lld_stop, .-pwm_lld_stop
 416              		.section	.text.pwm_lld_enable_channel,"ax",%progbits
 417              		.align	1
 418              		.global	pwm_lld_enable_channel
 419              		.thumb
 420              		.thumb_func
 421              		.type	pwm_lld_enable_channel, %function
 422              	pwm_lld_enable_channel:
 423              	.LFB280:
 424              		.loc 1 765 0
 425              		.cfi_startproc
 426              		@ args = 0, pretend = 0, frame = 0
 427              		@ frame_needed = 0, uses_anonymous_args = 0
 428              		@ link register save eliminated.
 429              	.LVL24:
 430              		.loc 1 769 0
 431 0000 8369     		ldr	r3, [r0, #24]
 432 0002 0C31     		adds	r1, r1, #12
 433              	.LVL25:
 434 0004 03EB8103 		add	r3, r3, r1, lsl #2
 435 0008 5A60     		str	r2, [r3, #4]
 436 000a 7047     		bx	lr
 437              		.cfi_endproc
 438              	.LFE280:
 439              		.size	pwm_lld_enable_channel, .-pwm_lld_enable_channel
 440              		.section	.text.pwm_lld_disable_channel,"ax",%progbits
 441              		.align	1
 442              		.global	pwm_lld_disable_channel
 443              		.thumb
 444              		.thumb_func
 445              		.type	pwm_lld_disable_channel, %function
 446              	pwm_lld_disable_channel:
 447              	.LFB281:
 448              		.loc 1 790 0
 449              		.cfi_startproc
 450              		@ args = 0, pretend = 0, frame = 0
 451              		@ frame_needed = 0, uses_anonymous_args = 0
 452              		@ link register save eliminated.
 453              	.LVL26:
 454              		.loc 1 793 0
 455 0000 8369     		ldr	r3, [r0, #24]
 456 0002 01F10C02 		add	r2, r1, #12
ARM GAS  /tmp/ccYa27rh.s 			page 9


 457 0006 03EB8202 		add	r2, r3, r2, lsl #2
 458 000a 0020     		movs	r0, #0
 459              	.LVL27:
 460 000c 5060     		str	r0, [r2, #4]
 461              		.loc 1 794 0
 462 000e D868     		ldr	r0, [r3, #12]
 463 0010 0222     		movs	r2, #2
 464 0012 8A40     		lsls	r2, r2, r1
 465 0014 20EA0202 		bic	r2, r0, r2
 466 0018 DA60     		str	r2, [r3, #12]
 467 001a 7047     		bx	lr
 468              		.cfi_endproc
 469              	.LFE281:
 470              		.size	pwm_lld_disable_channel, .-pwm_lld_disable_channel
 471              		.section	.text.pwm_lld_enable_periodic_notification,"ax",%progbits
 472              		.align	1
 473              		.global	pwm_lld_enable_periodic_notification
 474              		.thumb
 475              		.thumb_func
 476              		.type	pwm_lld_enable_periodic_notification, %function
 477              	pwm_lld_enable_periodic_notification:
 478              	.LFB282:
 479              		.loc 1 814 0
 480              		.cfi_startproc
 481              		@ args = 0, pretend = 0, frame = 0
 482              		@ frame_needed = 0, uses_anonymous_args = 0
 483              		@ link register save eliminated.
 484              	.LVL28:
 485              		.loc 1 815 0
 486 0000 8369     		ldr	r3, [r0, #24]
 487 0002 DA68     		ldr	r2, [r3, #12]
 488              	.LVL29:
 489              		.loc 1 819 0
 490 0004 D107     		lsls	r1, r2, #31
 491              		.loc 1 820 0
 492 0006 5FBF     		itttt	pl
 493 0008 42F00102 		orrpl	r2, r2, #1
 494              	.LVL30:
 495 000c DA60     		strpl	r2, [r3, #12]
 496              		.loc 1 821 0
 497 000e 1A69     		ldrpl	r2, [r3, #16]
 498 0010 02F00102 		andpl	r2, r2, #1
 499 0014 58BF     		it	pl
 500 0016 1A61     		strpl	r2, [r3, #16]
 501 0018 7047     		bx	lr
 502              		.cfi_endproc
 503              	.LFE282:
 504              		.size	pwm_lld_enable_periodic_notification, .-pwm_lld_enable_periodic_notification
 505              		.section	.text.pwm_lld_disable_periodic_notification,"ax",%progbits
 506              		.align	1
 507              		.global	pwm_lld_disable_periodic_notification
 508              		.thumb
 509              		.thumb_func
 510              		.type	pwm_lld_disable_periodic_notification, %function
 511              	pwm_lld_disable_periodic_notification:
 512              	.LFB283:
 513              		.loc 1 834 0
ARM GAS  /tmp/ccYa27rh.s 			page 10


 514              		.cfi_startproc
 515              		@ args = 0, pretend = 0, frame = 0
 516              		@ frame_needed = 0, uses_anonymous_args = 0
 517              		@ link register save eliminated.
 518              	.LVL31:
 519              		.loc 1 836 0
 520 0000 8269     		ldr	r2, [r0, #24]
 521 0002 D368     		ldr	r3, [r2, #12]
 522 0004 23F00103 		bic	r3, r3, #1
 523 0008 D360     		str	r3, [r2, #12]
 524 000a 7047     		bx	lr
 525              		.cfi_endproc
 526              	.LFE283:
 527              		.size	pwm_lld_disable_periodic_notification, .-pwm_lld_disable_periodic_notification
 528              		.section	.text.pwm_lld_enable_channel_notification,"ax",%progbits
 529              		.align	1
 530              		.global	pwm_lld_enable_channel_notification
 531              		.thumb
 532              		.thumb_func
 533              		.type	pwm_lld_enable_channel_notification, %function
 534              	pwm_lld_enable_channel_notification:
 535              	.LFB284:
 536              		.loc 1 851 0
 537              		.cfi_startproc
 538              		@ args = 0, pretend = 0, frame = 0
 539              		@ frame_needed = 0, uses_anonymous_args = 0
 540              		@ link register save eliminated.
 541              	.LVL32:
 542              		.loc 1 852 0
 543 0000 8069     		ldr	r0, [r0, #24]
 544              	.LVL33:
 545              		.loc 1 861 0
 546 0002 0223     		movs	r3, #2
 547              		.loc 1 852 0
 548 0004 C268     		ldr	r2, [r0, #12]
 549              	.LVL34:
 550              		.loc 1 861 0
 551 0006 8B40     		lsls	r3, r3, r1
 552 0008 1342     		tst	r3, r2
 553              		.loc 1 862 0
 554 000a 01BF     		itttt	eq
 555 000c 1A43     		orreq	r2, r2, r3
 556              	.LVL35:
 557              		.loc 1 863 0
 558 000e DB43     		mvneq	r3, r3
 559              		.loc 1 862 0
 560 0010 C260     		streq	r2, [r0, #12]
 561              		.loc 1 863 0
 562 0012 0361     		streq	r3, [r0, #16]
 563 0014 7047     		bx	lr
 564              		.cfi_endproc
 565              	.LFE284:
 566              		.size	pwm_lld_enable_channel_notification, .-pwm_lld_enable_channel_notification
 567              		.section	.text.pwm_lld_disable_channel_notification,"ax",%progbits
 568              		.align	1
 569              		.global	pwm_lld_disable_channel_notification
 570              		.thumb
ARM GAS  /tmp/ccYa27rh.s 			page 11


 571              		.thumb_func
 572              		.type	pwm_lld_disable_channel_notification, %function
 573              	pwm_lld_disable_channel_notification:
 574              	.LFB285:
 575              		.loc 1 879 0
 576              		.cfi_startproc
 577              		@ args = 0, pretend = 0, frame = 0
 578              		@ frame_needed = 0, uses_anonymous_args = 0
 579              		@ link register save eliminated.
 580              	.LVL36:
 581              		.loc 1 881 0
 582 0000 8069     		ldr	r0, [r0, #24]
 583              	.LVL37:
 584 0002 0222     		movs	r2, #2
 585 0004 C368     		ldr	r3, [r0, #12]
 586 0006 8A40     		lsls	r2, r2, r1
 587 0008 23EA0203 		bic	r3, r3, r2
 588 000c C360     		str	r3, [r0, #12]
 589 000e 7047     		bx	lr
 590              		.cfi_endproc
 591              	.LFE285:
 592              		.size	pwm_lld_disable_channel_notification, .-pwm_lld_disable_channel_notification
 593              		.section	.text.pwm_lld_serve_interrupt,"ax",%progbits
 594              		.align	1
 595              		.global	pwm_lld_serve_interrupt
 596              		.thumb
 597              		.thumb_func
 598              		.type	pwm_lld_serve_interrupt, %function
 599              	pwm_lld_serve_interrupt:
 600              	.LFB286:
 601              		.loc 1 894 0
 602              		.cfi_startproc
 603              		@ args = 0, pretend = 0, frame = 0
 604              		@ frame_needed = 0, uses_anonymous_args = 0
 605              	.LVL38:
 606              		.loc 1 897 0
 607 0000 8369     		ldr	r3, [r0, #24]
 608              		.loc 1 894 0
 609 0002 70B5     		push	{r4, r5, r6, lr}
 610              		.cfi_def_cfa_offset 16
 611              		.cfi_offset 4, -16
 612              		.cfi_offset 5, -12
 613              		.cfi_offset 6, -8
 614              		.cfi_offset 14, -4
 615              		.loc 1 897 0
 616 0004 1A69     		ldr	r2, [r3, #16]
 617              	.LVL39:
 618              		.loc 1 898 0
 619 0006 DD68     		ldr	r5, [r3, #12]
 620 0008 1540     		ands	r5, r5, r2
 621              	.LVL40:
 622 000a EAB2     		uxtb	r2, r5
 623              		.loc 1 899 0
 624 000c D243     		mvns	r2, r2
 625              		.loc 1 900 0
 626 000e AE07     		lsls	r6, r5, #30
 627              		.loc 1 894 0
ARM GAS  /tmp/ccYa27rh.s 			page 12


 628 0010 0446     		mov	r4, r0
 629              		.loc 1 899 0
 630 0012 1A61     		str	r2, [r3, #16]
 631              		.loc 1 900 0
 632 0014 03D5     		bpl	.L61
 633              		.loc 1 901 0 discriminator 1
 634 0016 4368     		ldr	r3, [r0, #4]
 635 0018 1B69     		ldr	r3, [r3, #16]
 636              		.loc 1 900 0 discriminator 1
 637 001a 03B1     		cbz	r3, .L61
 638              		.loc 1 902 0
 639 001c 9847     		blx	r3
 640              	.LVL41:
 641              	.L61:
 642              		.loc 1 903 0
 643 001e 6807     		lsls	r0, r5, #29
 644 0020 04D5     		bpl	.L62
 645              		.loc 1 904 0 discriminator 1
 646 0022 6368     		ldr	r3, [r4, #4]
 647 0024 9B69     		ldr	r3, [r3, #24]
 648              		.loc 1 903 0 discriminator 1
 649 0026 0BB1     		cbz	r3, .L62
 650              		.loc 1 905 0
 651 0028 2046     		mov	r0, r4
 652 002a 9847     		blx	r3
 653              	.LVL42:
 654              	.L62:
 655              		.loc 1 906 0
 656 002c 2907     		lsls	r1, r5, #28
 657 002e 04D5     		bpl	.L63
 658              		.loc 1 907 0 discriminator 1
 659 0030 6368     		ldr	r3, [r4, #4]
 660 0032 1B6A     		ldr	r3, [r3, #32]
 661              		.loc 1 906 0 discriminator 1
 662 0034 0BB1     		cbz	r3, .L63
 663              		.loc 1 908 0
 664 0036 2046     		mov	r0, r4
 665 0038 9847     		blx	r3
 666              	.LVL43:
 667              	.L63:
 668              		.loc 1 909 0
 669 003a EA06     		lsls	r2, r5, #27
 670 003c 04D5     		bpl	.L64
 671              		.loc 1 910 0 discriminator 1
 672 003e 6368     		ldr	r3, [r4, #4]
 673 0040 9B6A     		ldr	r3, [r3, #40]
 674              		.loc 1 909 0 discriminator 1
 675 0042 0BB1     		cbz	r3, .L64
 676              		.loc 1 911 0
 677 0044 2046     		mov	r0, r4
 678 0046 9847     		blx	r3
 679              	.LVL44:
 680              	.L64:
 681              		.loc 1 912 0
 682 0048 EB07     		lsls	r3, r5, #31
 683 004a 06D5     		bpl	.L60
 684              		.loc 1 912 0 is_stmt 0 discriminator 1
ARM GAS  /tmp/ccYa27rh.s 			page 13


 685 004c 6368     		ldr	r3, [r4, #4]
 686 004e 9B68     		ldr	r3, [r3, #8]
 687 0050 1BB1     		cbz	r3, .L60
 688              		.loc 1 913 0 is_stmt 1
 689 0052 2046     		mov	r0, r4
 690              		.loc 1 914 0
 691 0054 BDE87040 		pop	{r4, r5, r6, lr}
 692              		.cfi_remember_state
 693              		.cfi_restore 14
 694              		.cfi_restore 6
 695              		.cfi_restore 5
 696              		.cfi_restore 4
 697              		.cfi_def_cfa_offset 0
 698              	.LVL45:
 699              		.loc 1 913 0
 700 0058 1847     		bx	r3	@ indirect register sibling call
 701              	.LVL46:
 702              	.L60:
 703              		.cfi_restore_state
 704 005a 70BD     		pop	{r4, r5, r6, pc}
 705              		.cfi_endproc
 706              	.LFE286:
 707              		.size	pwm_lld_serve_interrupt, .-pwm_lld_serve_interrupt
 708              		.global	PWMD9
 709              		.global	PWMD4
 710              		.global	PWMD2
 711              		.global	PWMD1
 712              		.section	.bss.PWMD1,"aw",%nobits
 713              		.align	2
 714              		.set	.LANCHOR0,. + 0
 715              		.type	PWMD1, %object
 716              		.size	PWMD1, 28
 717              	PWMD1:
 718 0000 00000000 		.space	28
 718      00000000 
 718      00000000 
 718      00000000 
 718      00000000 
 719              		.section	.bss.PWMD2,"aw",%nobits
 720              		.align	2
 721              		.set	.LANCHOR1,. + 0
 722              		.type	PWMD2, %object
 723              		.size	PWMD2, 28
 724              	PWMD2:
 725 0000 00000000 		.space	28
 725      00000000 
 725      00000000 
 725      00000000 
 725      00000000 
 726              		.section	.bss.PWMD4,"aw",%nobits
 727              		.align	2
 728              		.set	.LANCHOR2,. + 0
 729              		.type	PWMD4, %object
 730              		.size	PWMD4, 28
 731              	PWMD4:
 732 0000 00000000 		.space	28
 732      00000000 
ARM GAS  /tmp/ccYa27rh.s 			page 14


 732      00000000 
 732      00000000 
 732      00000000 
 733              		.section	.bss.PWMD9,"aw",%nobits
 734              		.align	2
 735              		.set	.LANCHOR3,. + 0
 736              		.type	PWMD9, %object
 737              		.size	PWMD9, 28
 738              	PWMD9:
 739 0000 00000000 		.space	28
 739      00000000 
 739      00000000 
 739      00000000 
 739      00000000 
 740              		.text
 741              	.Letext0:
 742              		.file 2 "/usr/lib/gcc/arm-none-eabi/4.9.3/include/stddef.h"
 743              		.file 3 "/usr/include/newlib/machine/_default_types.h"
 744              		.file 4 "/usr/include/newlib/sys/_stdint.h"
 745              		.file 5 "../../modules/ChibiOS/os/common/ports/ARMCMx/compilers/GCC/chtypes.h"
 746              		.file 6 "../../modules/ChibiOS/os/rt/include/chsystypes.h"
 747              		.file 7 "../../modules/ChibiOS/os/rt/include/chschd.h"
 748              		.file 8 "../../modules/ChibiOS/os/common/ext/CMSIS/ST/STM32F4xx/stm32f407xx.h"
 749              		.file 9 "../../modules/ChibiOS/os/common/ports/ARMCMx/chcore.h"
 750              		.file 10 "../../modules/ChibiOS/os/common/ports/ARMCMx/chcore_v7m.h"
 751              		.file 11 "../../modules/ChibiOS/os/hal/ports/STM32/LLD/TIMv1/stm32_tim.h"
 752              		.file 12 "../../modules/ChibiOS/os/rt/include/chtm.h"
 753              		.file 13 "../../modules/ChibiOS/os/rt/include/chstats.h"
 754              		.file 14 "../../modules/ChibiOS/os/rt/include/chsem.h"
 755              		.file 15 "../../modules/ChibiOS/os/rt/include/chmtx.h"
 756              		.file 16 "../../modules/ChibiOS/os/hal/include/hal_pwm.h"
 757              		.file 17 "../../modules/ChibiOS/os/hal/ports/STM32/LLD/TIMv1/hal_pwm_lld.h"
 758              		.file 18 "../../modules/ChibiOS/os/common/ext/CMSIS/include/core_cm4.h"
 759              		.section	.debug_info,"",%progbits
 760              	.Ldebug_info0:
 761 0000 430F0000 		.4byte	0xf43
 762 0004 0400     		.2byte	0x4
 763 0006 00000000 		.4byte	.Ldebug_abbrev0
 764 000a 04       		.byte	0x4
 765 000b 01       		.uleb128 0x1
 766 000c 2A030000 		.4byte	.LASF183
 767 0010 01       		.byte	0x1
 768 0011 EB000000 		.4byte	.LASF184
 769 0015 D8010000 		.4byte	.LASF185
 770 0019 00000000 		.4byte	.Ldebug_ranges0+0
 771 001d 00000000 		.4byte	0
 772 0021 00000000 		.4byte	.Ldebug_line0
 773 0025 02       		.uleb128 0x2
 774 0026 04       		.byte	0x4
 775 0027 07       		.byte	0x7
 776 0028 1D030000 		.4byte	.LASF0
 777 002c 03       		.uleb128 0x3
 778 002d 04       		.byte	0x4
 779 002e 05       		.byte	0x5
 780 002f 696E7400 		.ascii	"int\000"
 781 0033 04       		.uleb128 0x4
 782 0034 2E000000 		.4byte	.LASF2
ARM GAS  /tmp/ccYa27rh.s 			page 15


 783 0038 02       		.byte	0x2
 784 0039 D4       		.byte	0xd4
 785 003a 25000000 		.4byte	0x25
 786 003e 02       		.uleb128 0x2
 787 003f 01       		.byte	0x1
 788 0040 06       		.byte	0x6
 789 0041 B3010000 		.4byte	.LASF1
 790 0045 04       		.uleb128 0x4
 791 0046 70000000 		.4byte	.LASF3
 792 004a 03       		.byte	0x3
 793 004b 1D       		.byte	0x1d
 794 004c 50000000 		.4byte	0x50
 795 0050 02       		.uleb128 0x2
 796 0051 01       		.byte	0x1
 797 0052 08       		.byte	0x8
 798 0053 8B060000 		.4byte	.LASF4
 799 0057 02       		.uleb128 0x2
 800 0058 02       		.byte	0x2
 801 0059 05       		.byte	0x5
 802 005a A6060000 		.4byte	.LASF5
 803 005e 02       		.uleb128 0x2
 804 005f 02       		.byte	0x2
 805 0060 07       		.byte	0x7
 806 0061 DF070000 		.4byte	.LASF6
 807 0065 04       		.uleb128 0x4
 808 0066 26050000 		.4byte	.LASF7
 809 006a 03       		.byte	0x3
 810 006b 3F       		.byte	0x3f
 811 006c 70000000 		.4byte	0x70
 812 0070 02       		.uleb128 0x2
 813 0071 04       		.byte	0x4
 814 0072 05       		.byte	0x5
 815 0073 1F020000 		.4byte	.LASF8
 816 0077 04       		.uleb128 0x4
 817 0078 A3020000 		.4byte	.LASF9
 818 007c 03       		.byte	0x3
 819 007d 41       		.byte	0x41
 820 007e 82000000 		.4byte	0x82
 821 0082 02       		.uleb128 0x2
 822 0083 04       		.byte	0x4
 823 0084 07       		.byte	0x7
 824 0085 51070000 		.4byte	.LASF10
 825 0089 02       		.uleb128 0x2
 826 008a 08       		.byte	0x8
 827 008b 05       		.byte	0x5
 828 008c E4020000 		.4byte	.LASF11
 829 0090 04       		.uleb128 0x4
 830 0091 D8050000 		.4byte	.LASF12
 831 0095 03       		.byte	0x3
 832 0096 5B       		.byte	0x5b
 833 0097 9B000000 		.4byte	0x9b
 834 009b 02       		.uleb128 0x2
 835 009c 08       		.byte	0x8
 836 009d 07       		.byte	0x7
 837 009e CB000000 		.4byte	.LASF13
 838 00a2 04       		.uleb128 0x4
 839 00a3 4C080000 		.4byte	.LASF14
ARM GAS  /tmp/ccYa27rh.s 			page 16


 840 00a7 04       		.byte	0x4
 841 00a8 14       		.byte	0x14
 842 00a9 45000000 		.4byte	0x45
 843 00ad 04       		.uleb128 0x4
 844 00ae 83060000 		.4byte	.LASF15
 845 00b2 04       		.byte	0x4
 846 00b3 1F       		.byte	0x1f
 847 00b4 65000000 		.4byte	0x65
 848 00b8 04       		.uleb128 0x4
 849 00b9 33070000 		.4byte	.LASF16
 850 00bd 04       		.byte	0x4
 851 00be 20       		.byte	0x20
 852 00bf 77000000 		.4byte	0x77
 853 00c3 04       		.uleb128 0x4
 854 00c4 5A000000 		.4byte	.LASF17
 855 00c8 04       		.byte	0x4
 856 00c9 26       		.byte	0x26
 857 00ca 90000000 		.4byte	0x90
 858 00ce 04       		.uleb128 0x4
 859 00cf 03080000 		.4byte	.LASF18
 860 00d3 05       		.byte	0x5
 861 00d4 39       		.byte	0x39
 862 00d5 B8000000 		.4byte	0xb8
 863 00d9 04       		.uleb128 0x4
 864 00da 72010000 		.4byte	.LASF19
 865 00de 05       		.byte	0x5
 866 00df 3A       		.byte	0x3a
 867 00e0 C3000000 		.4byte	0xc3
 868 00e4 04       		.uleb128 0x4
 869 00e5 91080000 		.4byte	.LASF20
 870 00e9 05       		.byte	0x5
 871 00ea 3C       		.byte	0x3c
 872 00eb A2000000 		.4byte	0xa2
 873 00ef 04       		.uleb128 0x4
 874 00f0 6D020000 		.4byte	.LASF21
 875 00f4 05       		.byte	0x5
 876 00f5 3D       		.byte	0x3d
 877 00f6 A2000000 		.4byte	0xa2
 878 00fa 04       		.uleb128 0x4
 879 00fb 14060000 		.4byte	.LASF22
 880 00ff 05       		.byte	0x5
 881 0100 3E       		.byte	0x3e
 882 0101 A2000000 		.4byte	0xa2
 883 0105 04       		.uleb128 0x4
 884 0106 6C060000 		.4byte	.LASF23
 885 010a 05       		.byte	0x5
 886 010b 40       		.byte	0x40
 887 010c B8000000 		.4byte	0xb8
 888 0110 04       		.uleb128 0x4
 889 0111 7D040000 		.4byte	.LASF24
 890 0115 05       		.byte	0x5
 891 0116 41       		.byte	0x41
 892 0117 AD000000 		.4byte	0xad
 893 011b 04       		.uleb128 0x4
 894 011c F0040000 		.4byte	.LASF25
 895 0120 05       		.byte	0x5
 896 0121 43       		.byte	0x43
ARM GAS  /tmp/ccYa27rh.s 			page 17


 897 0122 B8000000 		.4byte	0xb8
 898 0126 04       		.uleb128 0x4
 899 0127 17030000 		.4byte	.LASF26
 900 012b 05       		.byte	0x5
 901 012c 45       		.byte	0x45
 902 012d AD000000 		.4byte	0xad
 903 0131 04       		.uleb128 0x4
 904 0132 9C040000 		.4byte	.LASF27
 905 0136 05       		.byte	0x5
 906 0137 46       		.byte	0x46
 907 0138 B8000000 		.4byte	0xb8
 908 013c 04       		.uleb128 0x4
 909 013d A6070000 		.4byte	.LASF28
 910 0141 06       		.byte	0x6
 911 0142 33       		.byte	0x33
 912 0143 B8000000 		.4byte	0xb8
 913 0147 04       		.uleb128 0x4
 914 0148 98070000 		.4byte	.LASF29
 915 014c 06       		.byte	0x6
 916 014d 3F       		.byte	0x3f
 917 014e 52010000 		.4byte	0x152
 918 0152 05       		.uleb128 0x5
 919 0153 32040000 		.4byte	.LASF48
 920 0157 60       		.byte	0x60
 921 0158 07       		.byte	0x7
 922 0159 9A       		.byte	0x9a
 923 015a 3D020000 		.4byte	0x23d
 924 015e 06       		.uleb128 0x6
 925 015f 42040000 		.4byte	.LASF30
 926 0163 07       		.byte	0x7
 927 0164 9B       		.byte	0x9b
 928 0165 72020000 		.4byte	0x272
 929 0169 00       		.byte	0
 930 016a 06       		.uleb128 0x6
 931 016b C2050000 		.4byte	.LASF31
 932 016f 07       		.byte	0x7
 933 0170 9C       		.byte	0x9c
 934 0171 05010000 		.4byte	0x105
 935 0175 08       		.byte	0x8
 936 0176 07       		.uleb128 0x7
 937 0177 63747800 		.ascii	"ctx\000"
 938 017b 07       		.byte	0x7
 939 017c 9D       		.byte	0x9d
 940 017d 37060000 		.4byte	0x637
 941 0181 0C       		.byte	0xc
 942 0182 06       		.uleb128 0x6
 943 0183 40050000 		.4byte	.LASF32
 944 0187 07       		.byte	0x7
 945 0188 9F       		.byte	0x9f
 946 0189 48020000 		.4byte	0x248
 947 018d 10       		.byte	0x10
 948 018e 06       		.uleb128 0x6
 949 018f 78070000 		.4byte	.LASF33
 950 0193 07       		.byte	0x7
 951 0194 A0       		.byte	0xa0
 952 0195 48020000 		.4byte	0x248
 953 0199 14       		.byte	0x14
ARM GAS  /tmp/ccYa27rh.s 			page 18


 954 019a 06       		.uleb128 0x6
 955 019b 6D040000 		.4byte	.LASF34
 956 019f 07       		.byte	0x7
 957 01a0 A7       		.byte	0xa7
 958 01a1 400A0000 		.4byte	0xa40
 959 01a5 18       		.byte	0x18
 960 01a6 06       		.uleb128 0x6
 961 01a7 63070000 		.4byte	.LASF35
 962 01ab 07       		.byte	0x7
 963 01ac B0       		.byte	0xb0
 964 01ad 520A0000 		.4byte	0xa52
 965 01b1 1C       		.byte	0x1c
 966 01b2 06       		.uleb128 0x6
 967 01b3 10020000 		.4byte	.LASF36
 968 01b7 07       		.byte	0x7
 969 01b8 B5       		.byte	0xb5
 970 01b9 EF000000 		.4byte	0xef
 971 01bd 20       		.byte	0x20
 972 01be 06       		.uleb128 0x6
 973 01bf 5E080000 		.4byte	.LASF37
 974 01c3 07       		.byte	0x7
 975 01c4 B9       		.byte	0xb9
 976 01c5 E4000000 		.4byte	0xe4
 977 01c9 21       		.byte	0x21
 978 01ca 06       		.uleb128 0x6
 979 01cb 9C010000 		.4byte	.LASF38
 980 01cf 07       		.byte	0x7
 981 01d0 BE       		.byte	0xbe
 982 01d1 FA000000 		.4byte	0xfa
 983 01d5 22       		.byte	0x22
 984 01d6 08       		.uleb128 0x8
 985 01d7 7500     		.ascii	"u\000"
 986 01d9 07       		.byte	0x7
 987 01da 0F01     		.2byte	0x10f
 988 01dc 75090000 		.4byte	0x975
 989 01e0 24       		.byte	0x24
 990 01e1 09       		.uleb128 0x9
 991 01e2 D4020000 		.4byte	.LASF39
 992 01e6 07       		.byte	0x7
 993 01e7 1401     		.2byte	0x114
 994 01e9 4E020000 		.4byte	0x24e
 995 01ed 28       		.byte	0x28
 996 01ee 09       		.uleb128 0x9
 997 01ef 07020000 		.4byte	.LASF40
 998 01f3 07       		.byte	0x7
 999 01f4 1A01     		.2byte	0x11a
 1000 01f6 72020000 		.4byte	0x272
 1001 01fa 2C       		.byte	0x2c
 1002 01fb 09       		.uleb128 0x9
 1003 01fc A3040000 		.4byte	.LASF41
 1004 0200 07       		.byte	0x7
 1005 0201 2001     		.2byte	0x120
 1006 0203 1B010000 		.4byte	0x11b
 1007 0207 34       		.byte	0x34
 1008 0208 09       		.uleb128 0x9
 1009 0209 9F080000 		.4byte	.LASF42
 1010 020d 07       		.byte	0x7
ARM GAS  /tmp/ccYa27rh.s 			page 19


 1011 020e 2701     		.2byte	0x127
 1012 0210 3A0A0000 		.4byte	0xa3a
 1013 0214 38       		.byte	0x38
 1014 0215 09       		.uleb128 0x9
 1015 0216 56050000 		.4byte	.LASF43
 1016 021a 07       		.byte	0x7
 1017 021b 2B01     		.2byte	0x12b
 1018 021d 05010000 		.4byte	0x105
 1019 0221 3C       		.byte	0x3c
 1020 0222 09       		.uleb128 0x9
 1021 0223 4E040000 		.4byte	.LASF44
 1022 0227 07       		.byte	0x7
 1023 0228 3201     		.2byte	0x132
 1024 022a 25030000 		.4byte	0x325
 1025 022e 40       		.byte	0x40
 1026 022f 09       		.uleb128 0x9
 1027 0230 7B020000 		.4byte	.LASF45
 1028 0234 07       		.byte	0x7
 1029 0235 3801     		.2byte	0x138
 1030 0237 26090000 		.4byte	0x926
 1031 023b 48       		.byte	0x48
 1032 023c 00       		.byte	0
 1033 023d 04       		.uleb128 0x4
 1034 023e 68050000 		.4byte	.LASF46
 1035 0242 06       		.byte	0x6
 1036 0243 44       		.byte	0x44
 1037 0244 48020000 		.4byte	0x248
 1038 0248 0A       		.uleb128 0xa
 1039 0249 04       		.byte	0x4
 1040 024a 47010000 		.4byte	0x147
 1041 024e 04       		.uleb128 0x4
 1042 024f 00000000 		.4byte	.LASF47
 1043 0253 06       		.byte	0x6
 1044 0254 49       		.byte	0x49
 1045 0255 59020000 		.4byte	0x259
 1046 0259 05       		.uleb128 0x5
 1047 025a 8C040000 		.4byte	.LASF49
 1048 025e 04       		.byte	0x4
 1049 025f 07       		.byte	0x7
 1050 0260 88       		.byte	0x88
 1051 0261 72020000 		.4byte	0x272
 1052 0265 06       		.uleb128 0x6
 1053 0266 87080000 		.4byte	.LASF50
 1054 026a 07       		.byte	0x7
 1055 026b 89       		.byte	0x89
 1056 026c 48020000 		.4byte	0x248
 1057 0270 00       		.byte	0
 1058 0271 00       		.byte	0
 1059 0272 04       		.uleb128 0x4
 1060 0273 28080000 		.4byte	.LASF51
 1061 0277 06       		.byte	0x6
 1062 0278 50       		.byte	0x50
 1063 0279 7D020000 		.4byte	0x27d
 1064 027d 05       		.uleb128 0x5
 1065 027e 8B000000 		.4byte	.LASF52
 1066 0282 08       		.byte	0x8
 1067 0283 07       		.byte	0x7
ARM GAS  /tmp/ccYa27rh.s 			page 20


 1068 0284 8F       		.byte	0x8f
 1069 0285 A2020000 		.4byte	0x2a2
 1070 0289 06       		.uleb128 0x6
 1071 028a 87080000 		.4byte	.LASF50
 1072 028e 07       		.byte	0x7
 1073 028f 90       		.byte	0x90
 1074 0290 48020000 		.4byte	0x248
 1075 0294 00       		.byte	0
 1076 0295 06       		.uleb128 0x6
 1077 0296 7A000000 		.4byte	.LASF53
 1078 029a 07       		.byte	0x7
 1079 029b 91       		.byte	0x91
 1080 029c 48020000 		.4byte	0x248
 1081 02a0 04       		.byte	0x4
 1082 02a1 00       		.byte	0
 1083 02a2 04       		.uleb128 0x4
 1084 02a3 1C000000 		.4byte	.LASF54
 1085 02a7 06       		.byte	0x6
 1086 02a8 57       		.byte	0x57
 1087 02a9 AD020000 		.4byte	0x2ad
 1088 02ad 0B       		.uleb128 0xb
 1089 02ae E2040000 		.4byte	.LASF55
 1090 02b2 1C       		.byte	0x1c
 1091 02b3 07       		.byte	0x7
 1092 02b4 6A01     		.2byte	0x16a
 1093 02b6 09030000 		.4byte	0x309
 1094 02ba 09       		.uleb128 0x9
 1095 02bb 42040000 		.4byte	.LASF30
 1096 02bf 07       		.byte	0x7
 1097 02c0 6B01     		.2byte	0x16b
 1098 02c2 72020000 		.4byte	0x272
 1099 02c6 00       		.byte	0
 1100 02c7 09       		.uleb128 0x9
 1101 02c8 C2050000 		.4byte	.LASF31
 1102 02cc 07       		.byte	0x7
 1103 02cd 6C01     		.2byte	0x16c
 1104 02cf 05010000 		.4byte	0x105
 1105 02d3 08       		.byte	0x8
 1106 02d4 08       		.uleb128 0x8
 1107 02d5 63747800 		.ascii	"ctx\000"
 1108 02d9 07       		.byte	0x7
 1109 02da 6E01     		.2byte	0x16e
 1110 02dc 37060000 		.4byte	0x637
 1111 02e0 0C       		.byte	0xc
 1112 02e1 09       		.uleb128 0x9
 1113 02e2 40050000 		.4byte	.LASF32
 1114 02e6 07       		.byte	0x7
 1115 02e7 7101     		.2byte	0x171
 1116 02e9 48020000 		.4byte	0x248
 1117 02ed 10       		.byte	0x10
 1118 02ee 09       		.uleb128 0x9
 1119 02ef 78070000 		.4byte	.LASF33
 1120 02f3 07       		.byte	0x7
 1121 02f4 7201     		.2byte	0x172
 1122 02f6 48020000 		.4byte	0x248
 1123 02fa 14       		.byte	0x14
 1124 02fb 09       		.uleb128 0x9
ARM GAS  /tmp/ccYa27rh.s 			page 21


 1125 02fc D0050000 		.4byte	.LASF56
 1126 0300 07       		.byte	0x7
 1127 0301 7501     		.2byte	0x175
 1128 0303 48020000 		.4byte	0x248
 1129 0307 18       		.byte	0x18
 1130 0308 00       		.byte	0
 1131 0309 04       		.uleb128 0x4
 1132 030a B0070000 		.4byte	.LASF57
 1133 030e 06       		.byte	0x6
 1134 030f 5C       		.byte	0x5c
 1135 0310 14030000 		.4byte	0x314
 1136 0314 0A       		.uleb128 0xa
 1137 0315 04       		.byte	0x4
 1138 0316 1A030000 		.4byte	0x31a
 1139 031a 0C       		.uleb128 0xc
 1140 031b 25030000 		.4byte	0x325
 1141 031f 0D       		.uleb128 0xd
 1142 0320 25030000 		.4byte	0x325
 1143 0324 00       		.byte	0
 1144 0325 0E       		.uleb128 0xe
 1145 0326 04       		.byte	0x4
 1146 0327 04       		.uleb128 0x4
 1147 0328 46050000 		.4byte	.LASF58
 1148 032c 06       		.byte	0x6
 1149 032d 61       		.byte	0x61
 1150 032e 32030000 		.4byte	0x332
 1151 0332 0B       		.uleb128 0xb
 1152 0333 03070000 		.4byte	.LASF59
 1153 0337 14       		.byte	0x14
 1154 0338 07       		.byte	0x7
 1155 0339 4501     		.2byte	0x145
 1156 033b 81030000 		.4byte	0x381
 1157 033f 09       		.uleb128 0x9
 1158 0340 87080000 		.4byte	.LASF50
 1159 0344 07       		.byte	0x7
 1160 0345 4601     		.2byte	0x146
 1161 0347 580A0000 		.4byte	0xa58
 1162 034b 00       		.byte	0
 1163 034c 09       		.uleb128 0x9
 1164 034d 7A000000 		.4byte	.LASF53
 1165 0351 07       		.byte	0x7
 1166 0352 4701     		.2byte	0x147
 1167 0354 580A0000 		.4byte	0xa58
 1168 0358 04       		.byte	0x4
 1169 0359 09       		.uleb128 0x9
 1170 035a 4D000000 		.4byte	.LASF60
 1171 035e 07       		.byte	0x7
 1172 035f 4801     		.2byte	0x148
 1173 0361 3C010000 		.4byte	0x13c
 1174 0365 08       		.byte	0x8
 1175 0366 09       		.uleb128 0x9
 1176 0367 76020000 		.4byte	.LASF61
 1177 036b 07       		.byte	0x7
 1178 036c 4901     		.2byte	0x149
 1179 036e 09030000 		.4byte	0x309
 1180 0372 0C       		.byte	0xc
 1181 0373 08       		.uleb128 0x8
ARM GAS  /tmp/ccYa27rh.s 			page 22


 1182 0374 70617200 		.ascii	"par\000"
 1183 0378 07       		.byte	0x7
 1184 0379 4B01     		.2byte	0x14b
 1185 037b 25030000 		.4byte	0x325
 1186 037f 10       		.byte	0x10
 1187 0380 00       		.byte	0
 1188 0381 04       		.uleb128 0x4
 1189 0382 3F010000 		.4byte	.LASF62
 1190 0386 06       		.byte	0x6
 1191 0387 66       		.byte	0x66
 1192 0388 8C030000 		.4byte	0x38c
 1193 038c 0B       		.uleb128 0xb
 1194 038d 7B050000 		.4byte	.LASF63
 1195 0391 10       		.byte	0x10
 1196 0392 07       		.byte	0x7
 1197 0393 5501     		.2byte	0x155
 1198 0395 CE030000 		.4byte	0x3ce
 1199 0399 09       		.uleb128 0x9
 1200 039a 87080000 		.4byte	.LASF50
 1201 039e 07       		.byte	0x7
 1202 039f 5601     		.2byte	0x156
 1203 03a1 580A0000 		.4byte	0xa58
 1204 03a5 00       		.byte	0
 1205 03a6 09       		.uleb128 0x9
 1206 03a7 7A000000 		.4byte	.LASF53
 1207 03ab 07       		.byte	0x7
 1208 03ac 5801     		.2byte	0x158
 1209 03ae 580A0000 		.4byte	0xa58
 1210 03b2 04       		.byte	0x4
 1211 03b3 09       		.uleb128 0x9
 1212 03b4 4D000000 		.4byte	.LASF60
 1213 03b8 07       		.byte	0x7
 1214 03b9 5A01     		.2byte	0x15a
 1215 03bb 3C010000 		.4byte	0x13c
 1216 03bf 08       		.byte	0x8
 1217 03c0 09       		.uleb128 0x9
 1218 03c1 B0060000 		.4byte	.LASF64
 1219 03c5 07       		.byte	0x7
 1220 03c6 6201     		.2byte	0x162
 1221 03c8 3C010000 		.4byte	0x13c
 1222 03cc 0C       		.byte	0xc
 1223 03cd 00       		.byte	0
 1224 03ce 04       		.uleb128 0x4
 1225 03cf 9C000000 		.4byte	.LASF65
 1226 03d3 06       		.byte	0x6
 1227 03d4 6B       		.byte	0x6b
 1228 03d5 D9030000 		.4byte	0x3d9
 1229 03d9 0B       		.uleb128 0xb
 1230 03da C4020000 		.4byte	.LASF66
 1231 03de 04       		.byte	0x4
 1232 03df 07       		.byte	0x7
 1233 03e0 7C01     		.2byte	0x17c
 1234 03e2 F4030000 		.4byte	0x3f4
 1235 03e6 09       		.uleb128 0x9
 1236 03e7 BE070000 		.4byte	.LASF67
 1237 03eb 07       		.byte	0x7
 1238 03ec 8401     		.2byte	0x184
ARM GAS  /tmp/ccYa27rh.s 			page 23


 1239 03ee 5E0A0000 		.4byte	0xa5e
 1240 03f2 00       		.byte	0
 1241 03f3 00       		.byte	0
 1242 03f4 04       		.uleb128 0x4
 1243 03f5 AC040000 		.4byte	.LASF68
 1244 03f9 06       		.byte	0x6
 1245 03fa 70       		.byte	0x70
 1246 03fb FF030000 		.4byte	0x3ff
 1247 03ff 0B       		.uleb128 0xb
 1248 0400 E9060000 		.4byte	.LASF69
 1249 0404 D0       		.byte	0xd0
 1250 0405 07       		.byte	0x7
 1251 0406 9C01     		.2byte	0x19c
 1252 0408 5A040000 		.4byte	0x45a
 1253 040c 09       		.uleb128 0x9
 1254 040d 46080000 		.4byte	.LASF70
 1255 0411 07       		.byte	0x7
 1256 0412 A001     		.2byte	0x1a0
 1257 0414 A2020000 		.4byte	0x2a2
 1258 0418 00       		.byte	0
 1259 0419 09       		.uleb128 0x9
 1260 041a BD020000 		.4byte	.LASF71
 1261 041e 07       		.byte	0x7
 1262 041f A401     		.2byte	0x1a4
 1263 0421 81030000 		.4byte	0x381
 1264 0425 1C       		.byte	0x1c
 1265 0426 08       		.uleb128 0x8
 1266 0427 64626700 		.ascii	"dbg\000"
 1267 042b 07       		.byte	0x7
 1268 042c A801     		.2byte	0x1a8
 1269 042e CE030000 		.4byte	0x3ce
 1270 0432 2C       		.byte	0x2c
 1271 0433 09       		.uleb128 0x9
 1272 0434 2C010000 		.4byte	.LASF72
 1273 0438 07       		.byte	0x7
 1274 0439 AC01     		.2byte	0x1ac
 1275 043b 47010000 		.4byte	0x147
 1276 043f 30       		.byte	0x30
 1277 0440 08       		.uleb128 0x8
 1278 0441 746D00   		.ascii	"tm\000"
 1279 0444 07       		.byte	0x7
 1280 0445 B101     		.2byte	0x1b1
 1281 0447 D8080000 		.4byte	0x8d8
 1282 044b 90       		.byte	0x90
 1283 044c 09       		.uleb128 0x9
 1284 044d 63000000 		.4byte	.LASF73
 1285 0451 07       		.byte	0x7
 1286 0452 B701     		.2byte	0x1b7
 1287 0454 6A090000 		.4byte	0x96a
 1288 0458 98       		.byte	0x98
 1289 0459 00       		.byte	0
 1290 045a 02       		.uleb128 0x2
 1291 045b 04       		.byte	0x4
 1292 045c 07       		.byte	0x7
 1293 045d 5F050000 		.4byte	.LASF74
 1294 0461 0F       		.uleb128 0xf
 1295 0462 B8000000 		.4byte	0xb8
ARM GAS  /tmp/ccYa27rh.s 			page 24


 1296 0466 10       		.uleb128 0x10
 1297 0467 B8000000 		.4byte	0xb8
 1298 046b 76040000 		.4byte	0x476
 1299 046f 11       		.uleb128 0x11
 1300 0470 5A040000 		.4byte	0x45a
 1301 0474 01       		.byte	0x1
 1302 0475 00       		.byte	0
 1303 0476 10       		.uleb128 0x10
 1304 0477 B8000000 		.4byte	0xb8
 1305 047b 86040000 		.4byte	0x486
 1306 047f 11       		.uleb128 0x11
 1307 0480 5A040000 		.4byte	0x45a
 1308 0484 03       		.byte	0x3
 1309 0485 00       		.byte	0
 1310 0486 12       		.uleb128 0x12
 1311 0487 88       		.byte	0x88
 1312 0488 08       		.byte	0x8
 1313 0489 6602     		.2byte	0x266
 1314 048b 15060000 		.4byte	0x615
 1315 048f 08       		.uleb128 0x8
 1316 0490 435200   		.ascii	"CR\000"
 1317 0493 08       		.byte	0x8
 1318 0494 6802     		.2byte	0x268
 1319 0496 61040000 		.4byte	0x461
 1320 049a 00       		.byte	0
 1321 049b 09       		.uleb128 0x9
 1322 049c 8F020000 		.4byte	.LASF75
 1323 04a0 08       		.byte	0x8
 1324 04a1 6902     		.2byte	0x269
 1325 04a3 61040000 		.4byte	0x461
 1326 04a7 04       		.byte	0x4
 1327 04a8 09       		.uleb128 0x9
 1328 04a9 8C080000 		.4byte	.LASF76
 1329 04ad 08       		.byte	0x8
 1330 04ae 6A02     		.2byte	0x26a
 1331 04b0 61040000 		.4byte	0x461
 1332 04b4 08       		.byte	0x8
 1333 04b5 08       		.uleb128 0x8
 1334 04b6 43495200 		.ascii	"CIR\000"
 1335 04ba 08       		.byte	0x8
 1336 04bb 6B02     		.2byte	0x26b
 1337 04bd 61040000 		.4byte	0x461
 1338 04c1 0C       		.byte	0xc
 1339 04c2 09       		.uleb128 0x9
 1340 04c3 BF010000 		.4byte	.LASF77
 1341 04c7 08       		.byte	0x8
 1342 04c8 6C02     		.2byte	0x26c
 1343 04ca 61040000 		.4byte	0x461
 1344 04ce 10       		.byte	0x10
 1345 04cf 09       		.uleb128 0x9
 1346 04d0 8F070000 		.4byte	.LASF78
 1347 04d4 08       		.byte	0x8
 1348 04d5 6D02     		.2byte	0x26d
 1349 04d7 61040000 		.4byte	0x461
 1350 04db 14       		.byte	0x14
 1351 04dc 09       		.uleb128 0x9
 1352 04dd 83040000 		.4byte	.LASF79
ARM GAS  /tmp/ccYa27rh.s 			page 25


 1353 04e1 08       		.byte	0x8
 1354 04e2 6E02     		.2byte	0x26e
 1355 04e4 61040000 		.4byte	0x461
 1356 04e8 18       		.byte	0x18
 1357 04e9 09       		.uleb128 0x9
 1358 04ea 1C060000 		.4byte	.LASF80
 1359 04ee 08       		.byte	0x8
 1360 04ef 6F02     		.2byte	0x26f
 1361 04f1 B8000000 		.4byte	0xb8
 1362 04f5 1C       		.byte	0x1c
 1363 04f6 09       		.uleb128 0x9
 1364 04f7 C7050000 		.4byte	.LASF81
 1365 04fb 08       		.byte	0x8
 1366 04fc 7002     		.2byte	0x270
 1367 04fe 61040000 		.4byte	0x461
 1368 0502 20       		.byte	0x20
 1369 0503 09       		.uleb128 0x9
 1370 0504 36020000 		.4byte	.LASF82
 1371 0508 08       		.byte	0x8
 1372 0509 7102     		.2byte	0x271
 1373 050b 61040000 		.4byte	0x461
 1374 050f 24       		.byte	0x24
 1375 0510 09       		.uleb128 0x9
 1376 0511 26060000 		.4byte	.LASF83
 1377 0515 08       		.byte	0x8
 1378 0516 7202     		.2byte	0x272
 1379 0518 66040000 		.4byte	0x466
 1380 051c 28       		.byte	0x28
 1381 051d 09       		.uleb128 0x9
 1382 051e 7F080000 		.4byte	.LASF84
 1383 0522 08       		.byte	0x8
 1384 0523 7302     		.2byte	0x273
 1385 0525 61040000 		.4byte	0x461
 1386 0529 30       		.byte	0x30
 1387 052a 09       		.uleb128 0x9
 1388 052b D7070000 		.4byte	.LASF85
 1389 052f 08       		.byte	0x8
 1390 0530 7402     		.2byte	0x274
 1391 0532 61040000 		.4byte	0x461
 1392 0536 34       		.byte	0x34
 1393 0537 09       		.uleb128 0x9
 1394 0538 92050000 		.4byte	.LASF86
 1395 053c 08       		.byte	0x8
 1396 053d 7502     		.2byte	0x275
 1397 053f 61040000 		.4byte	0x461
 1398 0543 38       		.byte	0x38
 1399 0544 09       		.uleb128 0x9
 1400 0545 30060000 		.4byte	.LASF87
 1401 0549 08       		.byte	0x8
 1402 054a 7602     		.2byte	0x276
 1403 054c B8000000 		.4byte	0xb8
 1404 0550 3C       		.byte	0x3c
 1405 0551 09       		.uleb128 0x9
 1406 0552 CF070000 		.4byte	.LASF88
 1407 0556 08       		.byte	0x8
 1408 0557 7702     		.2byte	0x277
 1409 0559 61040000 		.4byte	0x461
ARM GAS  /tmp/ccYa27rh.s 			page 26


 1410 055d 40       		.byte	0x40
 1411 055e 09       		.uleb128 0x9
 1412 055f F3060000 		.4byte	.LASF89
 1413 0563 08       		.byte	0x8
 1414 0564 7802     		.2byte	0x278
 1415 0566 61040000 		.4byte	0x461
 1416 056a 44       		.byte	0x44
 1417 056b 09       		.uleb128 0x9
 1418 056c 3A060000 		.4byte	.LASF90
 1419 0570 08       		.byte	0x8
 1420 0571 7902     		.2byte	0x279
 1421 0573 66040000 		.4byte	0x466
 1422 0577 48       		.byte	0x48
 1423 0578 09       		.uleb128 0x9
 1424 0579 7B010000 		.4byte	.LASF91
 1425 057d 08       		.byte	0x8
 1426 057e 7A02     		.2byte	0x27a
 1427 0580 61040000 		.4byte	0x461
 1428 0584 50       		.byte	0x50
 1429 0585 09       		.uleb128 0x9
 1430 0586 A7050000 		.4byte	.LASF92
 1431 058a 08       		.byte	0x8
 1432 058b 7B02     		.2byte	0x27b
 1433 058d 61040000 		.4byte	0x461
 1434 0591 54       		.byte	0x54
 1435 0592 09       		.uleb128 0x9
 1436 0593 B9060000 		.4byte	.LASF93
 1437 0597 08       		.byte	0x8
 1438 0598 7C02     		.2byte	0x27c
 1439 059a 61040000 		.4byte	0x461
 1440 059e 58       		.byte	0x58
 1441 059f 09       		.uleb128 0x9
 1442 05a0 44060000 		.4byte	.LASF94
 1443 05a4 08       		.byte	0x8
 1444 05a5 7D02     		.2byte	0x27d
 1445 05a7 B8000000 		.4byte	0xb8
 1446 05ab 5C       		.byte	0x5c
 1447 05ac 09       		.uleb128 0x9
 1448 05ad 63020000 		.4byte	.LASF95
 1449 05b1 08       		.byte	0x8
 1450 05b2 7E02     		.2byte	0x27e
 1451 05b4 61040000 		.4byte	0x461
 1452 05b8 60       		.byte	0x60
 1453 05b9 09       		.uleb128 0x9
 1454 05ba CD040000 		.4byte	.LASF96
 1455 05be 08       		.byte	0x8
 1456 05bf 7F02     		.2byte	0x27f
 1457 05c1 61040000 		.4byte	0x461
 1458 05c5 64       		.byte	0x64
 1459 05c6 09       		.uleb128 0x9
 1460 05c7 4E060000 		.4byte	.LASF97
 1461 05cb 08       		.byte	0x8
 1462 05cc 8002     		.2byte	0x280
 1463 05ce 66040000 		.4byte	0x466
 1464 05d2 68       		.byte	0x68
 1465 05d3 09       		.uleb128 0x9
 1466 05d4 41080000 		.4byte	.LASF98
ARM GAS  /tmp/ccYa27rh.s 			page 27


 1467 05d8 08       		.byte	0x8
 1468 05d9 8102     		.2byte	0x281
 1469 05db 61040000 		.4byte	0x461
 1470 05df 70       		.byte	0x70
 1471 05e0 08       		.uleb128 0x8
 1472 05e1 43535200 		.ascii	"CSR\000"
 1473 05e5 08       		.byte	0x8
 1474 05e6 8202     		.2byte	0x282
 1475 05e8 61040000 		.4byte	0x461
 1476 05ec 74       		.byte	0x74
 1477 05ed 09       		.uleb128 0x9
 1478 05ee 58060000 		.4byte	.LASF99
 1479 05f2 08       		.byte	0x8
 1480 05f3 8302     		.2byte	0x283
 1481 05f5 66040000 		.4byte	0x466
 1482 05f9 78       		.byte	0x78
 1483 05fa 09       		.uleb128 0x9
 1484 05fb 18080000 		.4byte	.LASF100
 1485 05ff 08       		.byte	0x8
 1486 0600 8402     		.2byte	0x284
 1487 0602 61040000 		.4byte	0x461
 1488 0606 80       		.byte	0x80
 1489 0607 09       		.uleb128 0x9
 1490 0608 72040000 		.4byte	.LASF101
 1491 060c 08       		.byte	0x8
 1492 060d 8502     		.2byte	0x285
 1493 060f 61040000 		.4byte	0x461
 1494 0613 84       		.byte	0x84
 1495 0614 00       		.byte	0
 1496 0615 13       		.uleb128 0x13
 1497 0616 26040000 		.4byte	.LASF102
 1498 061a 08       		.byte	0x8
 1499 061b 8702     		.2byte	0x287
 1500 061d 86040000 		.4byte	0x486
 1501 0621 04       		.uleb128 0x4
 1502 0622 AE020000 		.4byte	.LASF103
 1503 0626 09       		.byte	0x9
 1504 0627 65       		.byte	0x65
 1505 0628 25030000 		.4byte	0x325
 1506 062c 04       		.uleb128 0x4
 1507 062d 35050000 		.4byte	.LASF104
 1508 0631 09       		.byte	0x9
 1509 0632 6D       		.byte	0x6d
 1510 0633 C3000000 		.4byte	0xc3
 1511 0637 05       		.uleb128 0x5
 1512 0638 0B080000 		.4byte	.LASF105
 1513 063c 04       		.byte	0x4
 1514 063d 09       		.byte	0x9
 1515 063e 89       		.byte	0x89
 1516 063f 4F060000 		.4byte	0x64f
 1517 0643 07       		.uleb128 0x7
 1518 0644 737000   		.ascii	"sp\000"
 1519 0647 09       		.byte	0x9
 1520 0648 8A       		.byte	0x8a
 1521 0649 9B070000 		.4byte	0x79b
 1522 064d 00       		.byte	0
 1523 064e 00       		.byte	0
ARM GAS  /tmp/ccYa27rh.s 			page 28


 1524 064f 0B       		.uleb128 0xb
 1525 0650 7F000000 		.4byte	.LASF106
 1526 0654 64       		.byte	0x64
 1527 0655 0A       		.byte	0xa
 1528 0656 5901     		.2byte	0x159
 1529 0658 9B070000 		.4byte	0x79b
 1530 065c 08       		.uleb128 0x8
 1531 065d 73313600 		.ascii	"s16\000"
 1532 0661 0A       		.byte	0xa
 1533 0662 5B01     		.2byte	0x15b
 1534 0664 21060000 		.4byte	0x621
 1535 0668 00       		.byte	0
 1536 0669 08       		.uleb128 0x8
 1537 066a 73313700 		.ascii	"s17\000"
 1538 066e 0A       		.byte	0xa
 1539 066f 5C01     		.2byte	0x15c
 1540 0671 21060000 		.4byte	0x621
 1541 0675 04       		.byte	0x4
 1542 0676 08       		.uleb128 0x8
 1543 0677 73313800 		.ascii	"s18\000"
 1544 067b 0A       		.byte	0xa
 1545 067c 5D01     		.2byte	0x15d
 1546 067e 21060000 		.4byte	0x621
 1547 0682 08       		.byte	0x8
 1548 0683 08       		.uleb128 0x8
 1549 0684 73313900 		.ascii	"s19\000"
 1550 0688 0A       		.byte	0xa
 1551 0689 5E01     		.2byte	0x15e
 1552 068b 21060000 		.4byte	0x621
 1553 068f 0C       		.byte	0xc
 1554 0690 08       		.uleb128 0x8
 1555 0691 73323000 		.ascii	"s20\000"
 1556 0695 0A       		.byte	0xa
 1557 0696 5F01     		.2byte	0x15f
 1558 0698 21060000 		.4byte	0x621
 1559 069c 10       		.byte	0x10
 1560 069d 08       		.uleb128 0x8
 1561 069e 73323100 		.ascii	"s21\000"
 1562 06a2 0A       		.byte	0xa
 1563 06a3 6001     		.2byte	0x160
 1564 06a5 21060000 		.4byte	0x621
 1565 06a9 14       		.byte	0x14
 1566 06aa 08       		.uleb128 0x8
 1567 06ab 73323200 		.ascii	"s22\000"
 1568 06af 0A       		.byte	0xa
 1569 06b0 6101     		.2byte	0x161
 1570 06b2 21060000 		.4byte	0x621
 1571 06b6 18       		.byte	0x18
 1572 06b7 08       		.uleb128 0x8
 1573 06b8 73323300 		.ascii	"s23\000"
 1574 06bc 0A       		.byte	0xa
 1575 06bd 6201     		.2byte	0x162
 1576 06bf 21060000 		.4byte	0x621
 1577 06c3 1C       		.byte	0x1c
 1578 06c4 08       		.uleb128 0x8
 1579 06c5 73323400 		.ascii	"s24\000"
 1580 06c9 0A       		.byte	0xa
ARM GAS  /tmp/ccYa27rh.s 			page 29


 1581 06ca 6301     		.2byte	0x163
 1582 06cc 21060000 		.4byte	0x621
 1583 06d0 20       		.byte	0x20
 1584 06d1 08       		.uleb128 0x8
 1585 06d2 73323500 		.ascii	"s25\000"
 1586 06d6 0A       		.byte	0xa
 1587 06d7 6401     		.2byte	0x164
 1588 06d9 21060000 		.4byte	0x621
 1589 06dd 24       		.byte	0x24
 1590 06de 08       		.uleb128 0x8
 1591 06df 73323600 		.ascii	"s26\000"
 1592 06e3 0A       		.byte	0xa
 1593 06e4 6501     		.2byte	0x165
 1594 06e6 21060000 		.4byte	0x621
 1595 06ea 28       		.byte	0x28
 1596 06eb 08       		.uleb128 0x8
 1597 06ec 73323700 		.ascii	"s27\000"
 1598 06f0 0A       		.byte	0xa
 1599 06f1 6601     		.2byte	0x166
 1600 06f3 21060000 		.4byte	0x621
 1601 06f7 2C       		.byte	0x2c
 1602 06f8 08       		.uleb128 0x8
 1603 06f9 73323800 		.ascii	"s28\000"
 1604 06fd 0A       		.byte	0xa
 1605 06fe 6701     		.2byte	0x167
 1606 0700 21060000 		.4byte	0x621
 1607 0704 30       		.byte	0x30
 1608 0705 08       		.uleb128 0x8
 1609 0706 73323900 		.ascii	"s29\000"
 1610 070a 0A       		.byte	0xa
 1611 070b 6801     		.2byte	0x168
 1612 070d 21060000 		.4byte	0x621
 1613 0711 34       		.byte	0x34
 1614 0712 08       		.uleb128 0x8
 1615 0713 73333000 		.ascii	"s30\000"
 1616 0717 0A       		.byte	0xa
 1617 0718 6901     		.2byte	0x169
 1618 071a 21060000 		.4byte	0x621
 1619 071e 38       		.byte	0x38
 1620 071f 08       		.uleb128 0x8
 1621 0720 73333100 		.ascii	"s31\000"
 1622 0724 0A       		.byte	0xa
 1623 0725 6A01     		.2byte	0x16a
 1624 0727 21060000 		.4byte	0x621
 1625 072b 3C       		.byte	0x3c
 1626 072c 08       		.uleb128 0x8
 1627 072d 723400   		.ascii	"r4\000"
 1628 0730 0A       		.byte	0xa
 1629 0731 6C01     		.2byte	0x16c
 1630 0733 21060000 		.4byte	0x621
 1631 0737 40       		.byte	0x40
 1632 0738 08       		.uleb128 0x8
 1633 0739 723500   		.ascii	"r5\000"
 1634 073c 0A       		.byte	0xa
 1635 073d 6D01     		.2byte	0x16d
 1636 073f 21060000 		.4byte	0x621
 1637 0743 44       		.byte	0x44
ARM GAS  /tmp/ccYa27rh.s 			page 30


 1638 0744 08       		.uleb128 0x8
 1639 0745 723600   		.ascii	"r6\000"
 1640 0748 0A       		.byte	0xa
 1641 0749 6E01     		.2byte	0x16e
 1642 074b 21060000 		.4byte	0x621
 1643 074f 48       		.byte	0x48
 1644 0750 08       		.uleb128 0x8
 1645 0751 723700   		.ascii	"r7\000"
 1646 0754 0A       		.byte	0xa
 1647 0755 6F01     		.2byte	0x16f
 1648 0757 21060000 		.4byte	0x621
 1649 075b 4C       		.byte	0x4c
 1650 075c 08       		.uleb128 0x8
 1651 075d 723800   		.ascii	"r8\000"
 1652 0760 0A       		.byte	0xa
 1653 0761 7001     		.2byte	0x170
 1654 0763 21060000 		.4byte	0x621
 1655 0767 50       		.byte	0x50
 1656 0768 08       		.uleb128 0x8
 1657 0769 723900   		.ascii	"r9\000"
 1658 076c 0A       		.byte	0xa
 1659 076d 7101     		.2byte	0x171
 1660 076f 21060000 		.4byte	0x621
 1661 0773 54       		.byte	0x54
 1662 0774 08       		.uleb128 0x8
 1663 0775 72313000 		.ascii	"r10\000"
 1664 0779 0A       		.byte	0xa
 1665 077a 7201     		.2byte	0x172
 1666 077c 21060000 		.4byte	0x621
 1667 0780 58       		.byte	0x58
 1668 0781 08       		.uleb128 0x8
 1669 0782 72313100 		.ascii	"r11\000"
 1670 0786 0A       		.byte	0xa
 1671 0787 7301     		.2byte	0x173
 1672 0789 21060000 		.4byte	0x621
 1673 078d 5C       		.byte	0x5c
 1674 078e 08       		.uleb128 0x8
 1675 078f 6C7200   		.ascii	"lr\000"
 1676 0792 0A       		.byte	0xa
 1677 0793 7401     		.2byte	0x174
 1678 0795 21060000 		.4byte	0x621
 1679 0799 60       		.byte	0x60
 1680 079a 00       		.byte	0
 1681 079b 0A       		.uleb128 0xa
 1682 079c 04       		.byte	0x4
 1683 079d 4F060000 		.4byte	0x64f
 1684 07a1 12       		.uleb128 0x12
 1685 07a2 60       		.byte	0x60
 1686 07a3 0B       		.byte	0xb
 1687 07a4 A101     		.2byte	0x1a1
 1688 07a6 AD080000 		.4byte	0x8ad
 1689 07aa 08       		.uleb128 0x8
 1690 07ab 43523100 		.ascii	"CR1\000"
 1691 07af 0B       		.byte	0xb
 1692 07b0 A201     		.2byte	0x1a2
 1693 07b2 61040000 		.4byte	0x461
 1694 07b6 00       		.byte	0
ARM GAS  /tmp/ccYa27rh.s 			page 31


 1695 07b7 08       		.uleb128 0x8
 1696 07b8 43523200 		.ascii	"CR2\000"
 1697 07bc 0B       		.byte	0xb
 1698 07bd A301     		.2byte	0x1a3
 1699 07bf 61040000 		.4byte	0x461
 1700 07c3 04       		.byte	0x4
 1701 07c4 09       		.uleb128 0x9
 1702 07c5 59040000 		.4byte	.LASF107
 1703 07c9 0B       		.byte	0xb
 1704 07ca A401     		.2byte	0x1a4
 1705 07cc 61040000 		.4byte	0x461
 1706 07d0 08       		.byte	0x8
 1707 07d1 09       		.uleb128 0x9
 1708 07d2 29000000 		.4byte	.LASF108
 1709 07d6 0B       		.byte	0xb
 1710 07d7 A501     		.2byte	0x1a5
 1711 07d9 61040000 		.4byte	0x461
 1712 07dd 0C       		.byte	0xc
 1713 07de 08       		.uleb128 0x8
 1714 07df 535200   		.ascii	"SR\000"
 1715 07e2 0B       		.byte	0xb
 1716 07e3 A601     		.2byte	0x1a6
 1717 07e5 61040000 		.4byte	0x461
 1718 07e9 10       		.byte	0x10
 1719 07ea 08       		.uleb128 0x8
 1720 07eb 45475200 		.ascii	"EGR\000"
 1721 07ef 0B       		.byte	0xb
 1722 07f0 A701     		.2byte	0x1a7
 1723 07f2 61040000 		.4byte	0x461
 1724 07f6 14       		.byte	0x14
 1725 07f7 09       		.uleb128 0x9
 1726 07f8 A1010000 		.4byte	.LASF109
 1727 07fc 0B       		.byte	0xb
 1728 07fd A801     		.2byte	0x1a8
 1729 07ff 61040000 		.4byte	0x461
 1730 0803 18       		.byte	0x18
 1731 0804 09       		.uleb128 0x9
 1732 0805 A7010000 		.4byte	.LASF110
 1733 0809 0B       		.byte	0xb
 1734 080a A901     		.2byte	0x1a9
 1735 080c 61040000 		.4byte	0x461
 1736 0810 1C       		.byte	0x1c
 1737 0811 09       		.uleb128 0x9
 1738 0812 A1070000 		.4byte	.LASF111
 1739 0816 0B       		.byte	0xb
 1740 0817 AA01     		.2byte	0x1aa
 1741 0819 61040000 		.4byte	0x461
 1742 081d 20       		.byte	0x20
 1743 081e 08       		.uleb128 0x8
 1744 081f 434E5400 		.ascii	"CNT\000"
 1745 0823 0B       		.byte	0xb
 1746 0824 AB01     		.2byte	0x1ab
 1747 0826 61040000 		.4byte	0x461
 1748 082a 24       		.byte	0x24
 1749 082b 08       		.uleb128 0x8
 1750 082c 50534300 		.ascii	"PSC\000"
 1751 0830 0B       		.byte	0xb
ARM GAS  /tmp/ccYa27rh.s 			page 32


 1752 0831 AC01     		.2byte	0x1ac
 1753 0833 61040000 		.4byte	0x461
 1754 0837 28       		.byte	0x28
 1755 0838 08       		.uleb128 0x8
 1756 0839 41525200 		.ascii	"ARR\000"
 1757 083d 0B       		.byte	0xb
 1758 083e AD01     		.2byte	0x1ad
 1759 0840 61040000 		.4byte	0x461
 1760 0844 2C       		.byte	0x2c
 1761 0845 08       		.uleb128 0x8
 1762 0846 52435200 		.ascii	"RCR\000"
 1763 084a 0B       		.byte	0xb
 1764 084b AE01     		.2byte	0x1ae
 1765 084d 61040000 		.4byte	0x461
 1766 0851 30       		.byte	0x30
 1767 0852 08       		.uleb128 0x8
 1768 0853 43435200 		.ascii	"CCR\000"
 1769 0857 0B       		.byte	0xb
 1770 0858 AF01     		.2byte	0x1af
 1771 085a AD080000 		.4byte	0x8ad
 1772 085e 34       		.byte	0x34
 1773 085f 09       		.uleb128 0x9
 1774 0860 6D010000 		.4byte	.LASF112
 1775 0864 0B       		.byte	0xb
 1776 0865 B001     		.2byte	0x1b0
 1777 0867 61040000 		.4byte	0x461
 1778 086b 44       		.byte	0x44
 1779 086c 08       		.uleb128 0x8
 1780 086d 44435200 		.ascii	"DCR\000"
 1781 0871 0B       		.byte	0xb
 1782 0872 B101     		.2byte	0x1b1
 1783 0874 61040000 		.4byte	0x461
 1784 0878 48       		.byte	0x48
 1785 0879 09       		.uleb128 0x9
 1786 087a 8A070000 		.4byte	.LASF113
 1787 087e 0B       		.byte	0xb
 1788 087f B201     		.2byte	0x1b2
 1789 0881 61040000 		.4byte	0x461
 1790 0885 4C       		.byte	0x4c
 1791 0886 08       		.uleb128 0x8
 1792 0887 4F5200   		.ascii	"OR\000"
 1793 088a 0B       		.byte	0xb
 1794 088b B301     		.2byte	0x1b3
 1795 088d 61040000 		.4byte	0x461
 1796 0891 50       		.byte	0x50
 1797 0892 09       		.uleb128 0x9
 1798 0893 AD010000 		.4byte	.LASF114
 1799 0897 0B       		.byte	0xb
 1800 0898 B401     		.2byte	0x1b4
 1801 089a 61040000 		.4byte	0x461
 1802 089e 54       		.byte	0x54
 1803 089f 09       		.uleb128 0x9
 1804 08a0 21070000 		.4byte	.LASF115
 1805 08a4 0B       		.byte	0xb
 1806 08a5 B501     		.2byte	0x1b5
 1807 08a7 B2080000 		.4byte	0x8b2
 1808 08ab 58       		.byte	0x58
ARM GAS  /tmp/ccYa27rh.s 			page 33


 1809 08ac 00       		.byte	0
 1810 08ad 0F       		.uleb128 0xf
 1811 08ae 76040000 		.4byte	0x476
 1812 08b2 0F       		.uleb128 0xf
 1813 08b3 66040000 		.4byte	0x466
 1814 08b7 13       		.uleb128 0x13
 1815 08b8 C1040000 		.4byte	.LASF116
 1816 08bc 0B       		.byte	0xb
 1817 08bd B601     		.2byte	0x1b6
 1818 08bf A1070000 		.4byte	0x7a1
 1819 08c3 14       		.uleb128 0x14
 1820 08c4 04       		.byte	0x4
 1821 08c5 0C       		.byte	0xc
 1822 08c6 38       		.byte	0x38
 1823 08c7 D8080000 		.4byte	0x8d8
 1824 08cb 06       		.uleb128 0x6
 1825 08cc C8070000 		.4byte	.LASF117
 1826 08d0 0C       		.byte	0xc
 1827 08d1 3C       		.byte	0x3c
 1828 08d2 CE000000 		.4byte	0xce
 1829 08d6 00       		.byte	0
 1830 08d7 00       		.byte	0
 1831 08d8 04       		.uleb128 0x4
 1832 08d9 B1050000 		.4byte	.LASF118
 1833 08dd 0C       		.byte	0xc
 1834 08de 3D       		.byte	0x3d
 1835 08df C3080000 		.4byte	0x8c3
 1836 08e3 14       		.uleb128 0x14
 1837 08e4 18       		.byte	0x18
 1838 08e5 0C       		.byte	0xc
 1839 08e6 48       		.byte	0x48
 1840 08e7 26090000 		.4byte	0x926
 1841 08eb 06       		.uleb128 0x6
 1842 08ec 54040000 		.4byte	.LASF119
 1843 08f0 0C       		.byte	0xc
 1844 08f1 49       		.byte	0x49
 1845 08f2 CE000000 		.4byte	0xce
 1846 08f6 00       		.byte	0
 1847 08f7 06       		.uleb128 0x6
 1848 08f8 B2000000 		.4byte	.LASF120
 1849 08fc 0C       		.byte	0xc
 1850 08fd 4A       		.byte	0x4a
 1851 08fe CE000000 		.4byte	0xce
 1852 0902 04       		.byte	0x4
 1853 0903 06       		.uleb128 0x6
 1854 0904 B9070000 		.4byte	.LASF121
 1855 0908 0C       		.byte	0xc
 1856 0909 4B       		.byte	0x4b
 1857 090a CE000000 		.4byte	0xce
 1858 090e 08       		.byte	0x8
 1859 090f 07       		.uleb128 0x7
 1860 0910 6E00     		.ascii	"n\000"
 1861 0912 0C       		.byte	0xc
 1862 0913 4C       		.byte	0x4c
 1863 0914 31010000 		.4byte	0x131
 1864 0918 0C       		.byte	0xc
 1865 0919 06       		.uleb128 0x6
ARM GAS  /tmp/ccYa27rh.s 			page 34


 1866 091a E3050000 		.4byte	.LASF122
 1867 091e 0C       		.byte	0xc
 1868 091f 4D       		.byte	0x4d
 1869 0920 D9000000 		.4byte	0xd9
 1870 0924 10       		.byte	0x10
 1871 0925 00       		.byte	0
 1872 0926 04       		.uleb128 0x4
 1873 0927 B8000000 		.4byte	.LASF123
 1874 092b 0C       		.byte	0xc
 1875 092c 4E       		.byte	0x4e
 1876 092d E3080000 		.4byte	0x8e3
 1877 0931 14       		.uleb128 0x14
 1878 0932 38       		.byte	0x38
 1879 0933 0D       		.byte	0xd
 1880 0934 38       		.byte	0x38
 1881 0935 6A090000 		.4byte	0x96a
 1882 0939 06       		.uleb128 0x6
 1883 093a 3C040000 		.4byte	.LASF124
 1884 093e 0D       		.byte	0xd
 1885 093f 39       		.byte	0x39
 1886 0940 31010000 		.4byte	0x131
 1887 0944 00       		.byte	0
 1888 0945 06       		.uleb128 0x6
 1889 0946 74060000 		.4byte	.LASF125
 1890 094a 0D       		.byte	0xd
 1891 094b 3A       		.byte	0x3a
 1892 094c 31010000 		.4byte	0x131
 1893 0950 04       		.byte	0x4
 1894 0951 06       		.uleb128 0x6
 1895 0952 B2080000 		.4byte	.LASF126
 1896 0956 0D       		.byte	0xd
 1897 0957 3B       		.byte	0x3b
 1898 0958 26090000 		.4byte	0x926
 1899 095c 08       		.byte	0x8
 1900 095d 06       		.uleb128 0x6
 1901 095e D7040000 		.4byte	.LASF127
 1902 0962 0D       		.byte	0xd
 1903 0963 3D       		.byte	0x3d
 1904 0964 26090000 		.4byte	0x926
 1905 0968 20       		.byte	0x20
 1906 0969 00       		.byte	0
 1907 096a 04       		.uleb128 0x4
 1908 096b 5E040000 		.4byte	.LASF128
 1909 096f 0D       		.byte	0xd
 1910 0970 3F       		.byte	0x3f
 1911 0971 31090000 		.4byte	0x931
 1912 0975 15       		.uleb128 0x15
 1913 0976 04       		.byte	0x4
 1914 0977 07       		.byte	0x7
 1915 0978 D2       		.byte	0xd2
 1916 0979 D8090000 		.4byte	0x9d8
 1917 097d 16       		.uleb128 0x16
 1918 097e 53000000 		.4byte	.LASF129
 1919 0982 07       		.byte	0x7
 1920 0983 D9       		.byte	0xd9
 1921 0984 10010000 		.4byte	0x110
 1922 0988 16       		.uleb128 0x16
ARM GAS  /tmp/ccYa27rh.s 			page 35


 1923 0989 E2000000 		.4byte	.LASF130
 1924 098d 07       		.byte	0x7
 1925 098e E0       		.byte	0xe0
 1926 098f 10010000 		.4byte	0x110
 1927 0993 16       		.uleb128 0x16
 1928 0994 78080000 		.4byte	.LASF131
 1929 0998 07       		.byte	0x7
 1930 0999 E7       		.byte	0xe7
 1931 099a 25030000 		.4byte	0x325
 1932 099e 16       		.uleb128 0x16
 1933 099f 20040000 		.4byte	.LASF132
 1934 09a3 07       		.byte	0x7
 1935 09a4 EE       		.byte	0xee
 1936 09a5 D8090000 		.4byte	0x9d8
 1937 09a9 16       		.uleb128 0x16
 1938 09aa 37010000 		.4byte	.LASF133
 1939 09ae 07       		.byte	0x7
 1940 09af F3       		.byte	0xf3
 1941 09b0 10010000 		.4byte	0x110
 1942 09b4 16       		.uleb128 0x16
 1943 09b5 19040000 		.4byte	.LASF134
 1944 09b9 07       		.byte	0x7
 1945 09ba FC       		.byte	0xfc
 1946 09bb 030A0000 		.4byte	0xa03
 1947 09bf 17       		.uleb128 0x17
 1948 09c0 3C070000 		.4byte	.LASF135
 1949 09c4 07       		.byte	0x7
 1950 09c5 0501     		.2byte	0x105
 1951 09c7 3A0A0000 		.4byte	0xa3a
 1952 09cb 17       		.uleb128 0x17
 1953 09cc C3060000 		.4byte	.LASF136
 1954 09d0 07       		.byte	0x7
 1955 09d1 0D01     		.2byte	0x10d
 1956 09d3 1B010000 		.4byte	0x11b
 1957 09d7 00       		.byte	0
 1958 09d8 0A       		.uleb128 0xa
 1959 09d9 04       		.byte	0x4
 1960 09da 3D020000 		.4byte	0x23d
 1961 09de 05       		.uleb128 0x5
 1962 09df 14070000 		.4byte	.LASF137
 1963 09e3 0C       		.byte	0xc
 1964 09e4 0E       		.byte	0xe
 1965 09e5 34       		.byte	0x34
 1966 09e6 030A0000 		.4byte	0xa03
 1967 09ea 06       		.uleb128 0x6
 1968 09eb 42040000 		.4byte	.LASF30
 1969 09ef 0E       		.byte	0xe
 1970 09f0 35       		.byte	0x35
 1971 09f1 72020000 		.4byte	0x272
 1972 09f5 00       		.byte	0
 1973 09f6 07       		.uleb128 0x7
 1974 09f7 636E7400 		.ascii	"cnt\000"
 1975 09fb 0E       		.byte	0xe
 1976 09fc 37       		.byte	0x37
 1977 09fd 26010000 		.4byte	0x126
 1978 0a01 08       		.byte	0x8
 1979 0a02 00       		.byte	0
ARM GAS  /tmp/ccYa27rh.s 			page 36


 1980 0a03 0A       		.uleb128 0xa
 1981 0a04 04       		.byte	0x4
 1982 0a05 DE090000 		.4byte	0x9de
 1983 0a09 05       		.uleb128 0x5
 1984 0a0a 38080000 		.4byte	.LASF138
 1985 0a0e 10       		.byte	0x10
 1986 0a0f 0F       		.byte	0xf
 1987 0a10 39       		.byte	0x39
 1988 0a11 3A0A0000 		.4byte	0xa3a
 1989 0a15 06       		.uleb128 0x6
 1990 0a16 42040000 		.4byte	.LASF30
 1991 0a1a 0F       		.byte	0xf
 1992 0a1b 3A       		.byte	0x3a
 1993 0a1c 72020000 		.4byte	0x272
 1994 0a20 00       		.byte	0
 1995 0a21 06       		.uleb128 0x6
 1996 0a22 4B070000 		.4byte	.LASF139
 1997 0a26 0F       		.byte	0xf
 1998 0a27 3C       		.byte	0x3c
 1999 0a28 48020000 		.4byte	0x248
 2000 0a2c 08       		.byte	0x8
 2001 0a2d 06       		.uleb128 0x6
 2002 0a2e 87080000 		.4byte	.LASF50
 2003 0a32 0F       		.byte	0xf
 2004 0a33 3E       		.byte	0x3e
 2005 0a34 6E0A0000 		.4byte	0xa6e
 2006 0a38 0C       		.byte	0xc
 2007 0a39 00       		.byte	0
 2008 0a3a 0A       		.uleb128 0xa
 2009 0a3b 04       		.byte	0x4
 2010 0a3c 090A0000 		.4byte	0xa09
 2011 0a40 0A       		.uleb128 0xa
 2012 0a41 04       		.byte	0x4
 2013 0a42 460A0000 		.4byte	0xa46
 2014 0a46 18       		.uleb128 0x18
 2015 0a47 4B0A0000 		.4byte	0xa4b
 2016 0a4b 02       		.uleb128 0x2
 2017 0a4c 01       		.byte	0x1
 2018 0a4d 08       		.byte	0x8
 2019 0a4e 73070000 		.4byte	.LASF140
 2020 0a52 0A       		.uleb128 0xa
 2021 0a53 04       		.byte	0x4
 2022 0a54 2C060000 		.4byte	0x62c
 2023 0a58 0A       		.uleb128 0xa
 2024 0a59 04       		.byte	0x4
 2025 0a5a 27030000 		.4byte	0x327
 2026 0a5e 0F       		.uleb128 0xf
 2027 0a5f 400A0000 		.4byte	0xa40
 2028 0a63 04       		.uleb128 0x4
 2029 0a64 DC020000 		.4byte	.LASF141
 2030 0a68 0F       		.byte	0xf
 2031 0a69 34       		.byte	0x34
 2032 0a6a 090A0000 		.4byte	0xa09
 2033 0a6e 0A       		.uleb128 0xa
 2034 0a6f 04       		.byte	0x4
 2035 0a70 630A0000 		.4byte	0xa63
 2036 0a74 02       		.uleb128 0x2
ARM GAS  /tmp/ccYa27rh.s 			page 37


 2037 0a75 01       		.byte	0x1
 2038 0a76 02       		.byte	0x2
 2039 0a77 7D060000 		.4byte	.LASF142
 2040 0a7b 0A       		.uleb128 0xa
 2041 0a7c 04       		.byte	0x4
 2042 0a7d B7080000 		.4byte	0x8b7
 2043 0a81 19       		.uleb128 0x19
 2044 0a82 01       		.byte	0x1
 2045 0a83 10       		.byte	0x10
 2046 0a84 4A       		.byte	0x4a
 2047 0a85 9C0A0000 		.4byte	0xa9c
 2048 0a89 1A       		.uleb128 0x1a
 2049 0a8a A7080000 		.4byte	.LASF143
 2050 0a8e 00       		.sleb128 0
 2051 0a8f 1A       		.uleb128 0x1a
 2052 0a90 6A070000 		.4byte	.LASF144
 2053 0a94 01       		.sleb128 1
 2054 0a95 1A       		.uleb128 0x1a
 2055 0a96 62060000 		.4byte	.LASF145
 2056 0a9a 02       		.sleb128 2
 2057 0a9b 00       		.byte	0
 2058 0a9c 04       		.uleb128 0x4
 2059 0a9d 64080000 		.4byte	.LASF146
 2060 0aa1 10       		.byte	0x10
 2061 0aa2 4E       		.byte	0x4e
 2062 0aa3 810A0000 		.4byte	0xa81
 2063 0aa7 04       		.uleb128 0x4
 2064 0aa8 54080000 		.4byte	.LASF147
 2065 0aac 10       		.byte	0x10
 2066 0aad 53       		.byte	0x53
 2067 0aae B20A0000 		.4byte	0xab2
 2068 0ab2 0B       		.uleb128 0xb
 2069 0ab3 54080000 		.4byte	.LASF147
 2070 0ab7 1C       		.byte	0x1c
 2071 0ab8 11       		.byte	0x11
 2072 0ab9 C401     		.2byte	0x1c4
 2073 0abb 1B0B0000 		.4byte	0xb1b
 2074 0abf 09       		.uleb128 0x9
 2075 0ac0 10020000 		.4byte	.LASF36
 2076 0ac4 11       		.byte	0x11
 2077 0ac5 C801     		.2byte	0x1c8
 2078 0ac7 9C0A0000 		.4byte	0xa9c
 2079 0acb 00       		.byte	0
 2080 0acc 09       		.uleb128 0x9
 2081 0acd 83070000 		.4byte	.LASF148
 2082 0ad1 11       		.byte	0x11
 2083 0ad2 CC01     		.2byte	0x1cc
 2084 0ad4 110C0000 		.4byte	0xc11
 2085 0ad8 04       		.byte	0x4
 2086 0ad9 09       		.uleb128 0x9
 2087 0ada AB000000 		.4byte	.LASF149
 2088 0ade 11       		.byte	0x11
 2089 0adf D001     		.2byte	0x1d0
 2090 0ae1 610B0000 		.4byte	0xb61
 2091 0ae5 08       		.byte	0x8
 2092 0ae6 09       		.uleb128 0x9
 2093 0ae7 43070000 		.4byte	.LASF150
ARM GAS  /tmp/ccYa27rh.s 			page 38


 2094 0aeb 11       		.byte	0x11
 2095 0aec D401     		.2byte	0x1d4
 2096 0aee 550B0000 		.4byte	0xb55
 2097 0af2 0C       		.byte	0xc
 2098 0af3 09       		.uleb128 0x9
 2099 0af4 16020000 		.4byte	.LASF151
 2100 0af8 11       		.byte	0x11
 2101 0af9 D801     		.2byte	0x1d8
 2102 0afb 490B0000 		.4byte	0xb49
 2103 0aff 10       		.byte	0x10
 2104 0b00 09       		.uleb128 0x9
 2105 0b01 99080000 		.4byte	.LASF152
 2106 0b05 11       		.byte	0x11
 2107 0b06 E001     		.2byte	0x1e0
 2108 0b08 B8000000 		.4byte	0xb8
 2109 0b0c 14       		.byte	0x14
 2110 0b0d 08       		.uleb128 0x8
 2111 0b0e 74696D00 		.ascii	"tim\000"
 2112 0b12 11       		.byte	0x11
 2113 0b13 E401     		.2byte	0x1e4
 2114 0b15 7B0A0000 		.4byte	0xa7b
 2115 0b19 18       		.byte	0x18
 2116 0b1a 00       		.byte	0
 2117 0b1b 04       		.uleb128 0x4
 2118 0b1c 81020000 		.4byte	.LASF153
 2119 0b20 10       		.byte	0x10
 2120 0b21 5A       		.byte	0x5a
 2121 0b22 260B0000 		.4byte	0xb26
 2122 0b26 0A       		.uleb128 0xa
 2123 0b27 04       		.byte	0x4
 2124 0b28 2C0B0000 		.4byte	0xb2c
 2125 0b2c 0C       		.uleb128 0xc
 2126 0b2d 370B0000 		.4byte	0xb37
 2127 0b31 0D       		.uleb128 0xd
 2128 0b32 370B0000 		.4byte	0xb37
 2129 0b36 00       		.byte	0
 2130 0b37 0A       		.uleb128 0xa
 2131 0b38 04       		.byte	0x4
 2132 0b39 A70A0000 		.4byte	0xaa7
 2133 0b3d 13       		.uleb128 0x13
 2134 0b3e C8010000 		.4byte	.LASF154
 2135 0b42 11       		.byte	0x11
 2136 0b43 7001     		.2byte	0x170
 2137 0b45 B8000000 		.4byte	0xb8
 2138 0b49 13       		.uleb128 0x13
 2139 0b4a 0F000000 		.4byte	.LASF155
 2140 0b4e 11       		.byte	0x11
 2141 0b4f 7501     		.2byte	0x175
 2142 0b51 A2000000 		.4byte	0xa2
 2143 0b55 13       		.uleb128 0x13
 2144 0b56 CA060000 		.4byte	.LASF156
 2145 0b5a 11       		.byte	0x11
 2146 0b5b 7A01     		.2byte	0x17a
 2147 0b5d B8000000 		.4byte	0xb8
 2148 0b61 13       		.uleb128 0x13
 2149 0b62 6F080000 		.4byte	.LASF157
 2150 0b66 11       		.byte	0x11
ARM GAS  /tmp/ccYa27rh.s 			page 39


 2151 0b67 7F01     		.2byte	0x17f
 2152 0b69 B8000000 		.4byte	0xb8
 2153 0b6d 12       		.uleb128 0x12
 2154 0b6e 08       		.byte	0x8
 2155 0b6f 11       		.byte	0x11
 2156 0b70 8401     		.2byte	0x184
 2157 0b72 910B0000 		.4byte	0xb91
 2158 0b76 09       		.uleb128 0x9
 2159 0b77 7E070000 		.4byte	.LASF158
 2160 0b7b 11       		.byte	0x11
 2161 0b7c 8801     		.2byte	0x188
 2162 0b7e 3D0B0000 		.4byte	0xb3d
 2163 0b82 00       		.byte	0
 2164 0b83 09       		.uleb128 0x9
 2165 0b84 B8040000 		.4byte	.LASF159
 2166 0b88 11       		.byte	0x11
 2167 0b89 8E01     		.2byte	0x18e
 2168 0b8b 1B0B0000 		.4byte	0xb1b
 2169 0b8f 04       		.byte	0x4
 2170 0b90 00       		.byte	0
 2171 0b91 13       		.uleb128 0x13
 2172 0b92 F2070000 		.4byte	.LASF160
 2173 0b96 11       		.byte	0x11
 2174 0b97 9001     		.2byte	0x190
 2175 0b99 6D0B0000 		.4byte	0xb6d
 2176 0b9d 12       		.uleb128 0x12
 2177 0b9e 34       		.byte	0x34
 2178 0b9f 11       		.byte	0x11
 2179 0ba0 9501     		.2byte	0x195
 2180 0ba2 F50B0000 		.4byte	0xbf5
 2181 0ba6 09       		.uleb128 0x9
 2182 0ba7 DF060000 		.4byte	.LASF161
 2183 0bab 11       		.byte	0x11
 2184 0bac 9B01     		.2byte	0x19b
 2185 0bae B8000000 		.4byte	0xb8
 2186 0bb2 00       		.byte	0
 2187 0bb3 09       		.uleb128 0x9
 2188 0bb4 AB000000 		.4byte	.LASF149
 2189 0bb8 11       		.byte	0x11
 2190 0bb9 A101     		.2byte	0x1a1
 2191 0bbb 610B0000 		.4byte	0xb61
 2192 0bbf 04       		.byte	0x4
 2193 0bc0 09       		.uleb128 0x9
 2194 0bc1 B8040000 		.4byte	.LASF159
 2195 0bc5 11       		.byte	0x11
 2196 0bc6 A701     		.2byte	0x1a7
 2197 0bc8 1B0B0000 		.4byte	0xb1b
 2198 0bcc 08       		.byte	0x8
 2199 0bcd 09       		.uleb128 0x9
 2200 0bce 16020000 		.4byte	.LASF151
 2201 0bd2 11       		.byte	0x11
 2202 0bd3 AB01     		.2byte	0x1ab
 2203 0bd5 F50B0000 		.4byte	0xbf5
 2204 0bd9 0C       		.byte	0xc
 2205 0bda 08       		.uleb128 0x8
 2206 0bdb 63723200 		.ascii	"cr2\000"
 2207 0bdf 11       		.byte	0x11
ARM GAS  /tmp/ccYa27rh.s 			page 40


 2208 0be0 B101     		.2byte	0x1b1
 2209 0be2 B8000000 		.4byte	0xb8
 2210 0be6 2C       		.byte	0x2c
 2211 0be7 09       		.uleb128 0x9
 2212 0be8 CB080000 		.4byte	.LASF162
 2213 0bec 11       		.byte	0x11
 2214 0bed BE01     		.2byte	0x1be
 2215 0bef B8000000 		.4byte	0xb8
 2216 0bf3 30       		.byte	0x30
 2217 0bf4 00       		.byte	0
 2218 0bf5 10       		.uleb128 0x10
 2219 0bf6 910B0000 		.4byte	0xb91
 2220 0bfa 050C0000 		.4byte	0xc05
 2221 0bfe 11       		.uleb128 0x11
 2222 0bff 5A040000 		.4byte	0x45a
 2223 0c03 03       		.byte	0x3
 2224 0c04 00       		.byte	0
 2225 0c05 13       		.uleb128 0x13
 2226 0c06 1E080000 		.4byte	.LASF163
 2227 0c0a 11       		.byte	0x11
 2228 0c0b BF01     		.2byte	0x1bf
 2229 0c0d 9D0B0000 		.4byte	0xb9d
 2230 0c11 0A       		.uleb128 0xa
 2231 0c12 04       		.byte	0x4
 2232 0c13 170C0000 		.4byte	0xc17
 2233 0c17 18       		.uleb128 0x18
 2234 0c18 050C0000 		.4byte	0xc05
 2235 0c1c 1B       		.uleb128 0x1b
 2236 0c1d 9A050000 		.4byte	.LASF164
 2237 0c21 01       		.byte	0x1
 2238 0c22 5001     		.2byte	0x150
 2239 0c24 00000000 		.4byte	.LFB277
 2240 0c28 60000000 		.4byte	.LFE277-.LFB277
 2241 0c2c 01       		.uleb128 0x1
 2242 0c2d 9C       		.byte	0x9c
 2243 0c2e 7F0C0000 		.4byte	0xc7f
 2244 0c32 1C       		.uleb128 0x1c
 2245 0c33 0A000000 		.4byte	.LVL0
 2246 0c37 380F0000 		.4byte	0xf38
 2247 0c3b 460C0000 		.4byte	0xc46
 2248 0c3f 1D       		.uleb128 0x1d
 2249 0c40 01       		.uleb128 0x1
 2250 0c41 50       		.byte	0x50
 2251 0c42 02       		.uleb128 0x2
 2252 0c43 74       		.byte	0x74
 2253 0c44 00       		.sleb128 0
 2254 0c45 00       		.byte	0
 2255 0c46 1C       		.uleb128 0x1c
 2256 0c47 1A000000 		.4byte	.LVL1
 2257 0c4b 380F0000 		.4byte	0xf38
 2258 0c4f 5A0C0000 		.4byte	0xc5a
 2259 0c53 1D       		.uleb128 0x1d
 2260 0c54 01       		.uleb128 0x1
 2261 0c55 50       		.byte	0x50
 2262 0c56 02       		.uleb128 0x2
 2263 0c57 74       		.byte	0x74
 2264 0c58 00       		.sleb128 0
ARM GAS  /tmp/ccYa27rh.s 			page 41


 2265 0c59 00       		.byte	0
 2266 0c5a 1C       		.uleb128 0x1c
 2267 0c5b 2A000000 		.4byte	.LVL2
 2268 0c5f 380F0000 		.4byte	0xf38
 2269 0c63 6E0C0000 		.4byte	0xc6e
 2270 0c67 1D       		.uleb128 0x1d
 2271 0c68 01       		.uleb128 0x1
 2272 0c69 50       		.byte	0x50
 2273 0c6a 02       		.uleb128 0x2
 2274 0c6b 74       		.byte	0x74
 2275 0c6c 00       		.sleb128 0
 2276 0c6d 00       		.byte	0
 2277 0c6e 1E       		.uleb128 0x1e
 2278 0c6f 38000000 		.4byte	.LVL3
 2279 0c73 380F0000 		.4byte	0xf38
 2280 0c77 1D       		.uleb128 0x1d
 2281 0c78 01       		.uleb128 0x1
 2282 0c79 50       		.byte	0x50
 2283 0c7a 02       		.uleb128 0x2
 2284 0c7b 74       		.byte	0x74
 2285 0c7c 00       		.sleb128 0
 2286 0c7d 00       		.byte	0
 2287 0c7e 00       		.byte	0
 2288 0c7f 1B       		.uleb128 0x1b
 2289 0c80 28020000 		.4byte	.LASF165
 2290 0c84 01       		.byte	0x1
 2291 0c85 9401     		.2byte	0x194
 2292 0c87 00000000 		.4byte	.LFB278
 2293 0c8b 44010000 		.4byte	.LFE278-.LFB278
 2294 0c8f 01       		.uleb128 0x1
 2295 0c90 9C       		.byte	0x9c
 2296 0c91 CF0C0000 		.4byte	0xccf
 2297 0c95 1F       		.uleb128 0x1f
 2298 0c96 30050000 		.4byte	.LASF168
 2299 0c9a 01       		.byte	0x1
 2300 0c9b 9401     		.2byte	0x194
 2301 0c9d 370B0000 		.4byte	0xb37
 2302 0ca1 00000000 		.4byte	.LLST0
 2303 0ca5 20       		.uleb128 0x20
 2304 0ca6 70736300 		.ascii	"psc\000"
 2305 0caa 01       		.byte	0x1
 2306 0cab 9501     		.2byte	0x195
 2307 0cad B8000000 		.4byte	0xb8
 2308 0cb1 21000000 		.4byte	.LLST1
 2309 0cb5 21       		.uleb128 0x21
 2310 0cb6 21050000 		.4byte	.LASF166
 2311 0cba 01       		.byte	0x1
 2312 0cbb 9601     		.2byte	0x196
 2313 0cbd B8000000 		.4byte	0xb8
 2314 0cc1 92000000 		.4byte	.LLST2
 2315 0cc5 22       		.uleb128 0x22
 2316 0cc6 D6060000 		.4byte	.LASF186
 2317 0cca DF0C0000 		.4byte	0xcdf
 2318 0cce 00       		.byte	0
 2319 0ccf 10       		.uleb128 0x10
 2320 0cd0 4B0A0000 		.4byte	0xa4b
 2321 0cd4 DF0C0000 		.4byte	0xcdf
ARM GAS  /tmp/ccYa27rh.s 			page 42


 2322 0cd8 11       		.uleb128 0x11
 2323 0cd9 5A040000 		.4byte	0x45a
 2324 0cdd 0D       		.byte	0xd
 2325 0cde 00       		.byte	0
 2326 0cdf 18       		.uleb128 0x18
 2327 0ce0 CF0C0000 		.4byte	0xccf
 2328 0ce4 1B       		.uleb128 0x1b
 2329 0ce5 26070000 		.4byte	.LASF167
 2330 0ce9 01       		.byte	0x1
 2331 0cea 9702     		.2byte	0x297
 2332 0cec 00000000 		.4byte	.LFB279
 2333 0cf0 6C000000 		.4byte	.LFE279-.LFB279
 2334 0cf4 01       		.uleb128 0x1
 2335 0cf5 9C       		.byte	0x9c
 2336 0cf6 090D0000 		.4byte	0xd09
 2337 0cfa 23       		.uleb128 0x23
 2338 0cfb 30050000 		.4byte	.LASF168
 2339 0cff 01       		.byte	0x1
 2340 0d00 9702     		.2byte	0x297
 2341 0d02 370B0000 		.4byte	0xb37
 2342 0d06 01       		.uleb128 0x1
 2343 0d07 50       		.byte	0x50
 2344 0d08 00       		.byte	0
 2345 0d09 1B       		.uleb128 0x1b
 2346 0d0a 85010000 		.4byte	.LASF169
 2347 0d0e 01       		.byte	0x1
 2348 0d0f FB02     		.2byte	0x2fb
 2349 0d11 00000000 		.4byte	.LFB280
 2350 0d15 0C000000 		.4byte	.LFE280-.LFB280
 2351 0d19 01       		.uleb128 0x1
 2352 0d1a 9C       		.byte	0x9c
 2353 0d1b 4C0D0000 		.4byte	0xd4c
 2354 0d1f 23       		.uleb128 0x23
 2355 0d20 30050000 		.4byte	.LASF168
 2356 0d24 01       		.byte	0x1
 2357 0d25 FB02     		.2byte	0x2fb
 2358 0d27 370B0000 		.4byte	0xb37
 2359 0d2b 01       		.uleb128 0x1
 2360 0d2c 50       		.byte	0x50
 2361 0d2d 1F       		.uleb128 0x1f
 2362 0d2e FB060000 		.4byte	.LASF170
 2363 0d32 01       		.byte	0x1
 2364 0d33 FC02     		.2byte	0x2fc
 2365 0d35 490B0000 		.4byte	0xb49
 2366 0d39 D4000000 		.4byte	.LLST3
 2367 0d3d 23       		.uleb128 0x23
 2368 0d3e 48040000 		.4byte	.LASF171
 2369 0d42 01       		.byte	0x1
 2370 0d43 FD02     		.2byte	0x2fd
 2371 0d45 610B0000 		.4byte	0xb61
 2372 0d49 01       		.uleb128 0x1
 2373 0d4a 52       		.byte	0x52
 2374 0d4b 00       		.byte	0
 2375 0d4c 1B       		.uleb128 0x1b
 2376 0d4d 55010000 		.4byte	.LASF172
 2377 0d51 01       		.byte	0x1
 2378 0d52 1603     		.2byte	0x316
ARM GAS  /tmp/ccYa27rh.s 			page 43


 2379 0d54 00000000 		.4byte	.LFB281
 2380 0d58 1C000000 		.4byte	.LFE281-.LFB281
 2381 0d5c 01       		.uleb128 0x1
 2382 0d5d 9C       		.byte	0x9c
 2383 0d5e 810D0000 		.4byte	0xd81
 2384 0d62 1F       		.uleb128 0x1f
 2385 0d63 30050000 		.4byte	.LASF168
 2386 0d67 01       		.byte	0x1
 2387 0d68 1603     		.2byte	0x316
 2388 0d6a 370B0000 		.4byte	0xb37
 2389 0d6e F5000000 		.4byte	.LLST4
 2390 0d72 23       		.uleb128 0x23
 2391 0d73 FB060000 		.4byte	.LASF170
 2392 0d77 01       		.byte	0x1
 2393 0d78 1603     		.2byte	0x316
 2394 0d7a 490B0000 		.4byte	0xb49
 2395 0d7e 01       		.uleb128 0x1
 2396 0d7f 51       		.byte	0x51
 2397 0d80 00       		.byte	0
 2398 0d81 1B       		.uleb128 0x1b
 2399 0d82 F2020000 		.4byte	.LASF173
 2400 0d86 01       		.byte	0x1
 2401 0d87 2E03     		.2byte	0x32e
 2402 0d89 00000000 		.4byte	.LFB282
 2403 0d8d 1A000000 		.4byte	.LFE282-.LFB282
 2404 0d91 01       		.uleb128 0x1
 2405 0d92 9C       		.byte	0x9c
 2406 0d93 B60D0000 		.4byte	0xdb6
 2407 0d97 23       		.uleb128 0x23
 2408 0d98 30050000 		.4byte	.LASF168
 2409 0d9c 01       		.byte	0x1
 2410 0d9d 2E03     		.2byte	0x32e
 2411 0d9f 370B0000 		.4byte	0xb37
 2412 0da3 01       		.uleb128 0x1
 2413 0da4 50       		.byte	0x50
 2414 0da5 21       		.uleb128 0x21
 2415 0da6 CB080000 		.4byte	.LASF162
 2416 0daa 01       		.byte	0x1
 2417 0dab 2F03     		.2byte	0x32f
 2418 0dad B8000000 		.4byte	0xb8
 2419 0db1 16010000 		.4byte	.LLST5
 2420 0db5 00       		.byte	0
 2421 0db6 1B       		.uleb128 0x1b
 2422 0db7 EE050000 		.4byte	.LASF174
 2423 0dbb 01       		.byte	0x1
 2424 0dbc 4203     		.2byte	0x342
 2425 0dbe 00000000 		.4byte	.LFB283
 2426 0dc2 0C000000 		.4byte	.LFE283-.LFB283
 2427 0dc6 01       		.uleb128 0x1
 2428 0dc7 9C       		.byte	0x9c
 2429 0dc8 DB0D0000 		.4byte	0xddb
 2430 0dcc 23       		.uleb128 0x23
 2431 0dcd 30050000 		.4byte	.LASF168
 2432 0dd1 01       		.byte	0x1
 2433 0dd2 4203     		.2byte	0x342
 2434 0dd4 370B0000 		.4byte	0xb37
 2435 0dd8 01       		.uleb128 0x1
ARM GAS  /tmp/ccYa27rh.s 			page 44


 2436 0dd9 50       		.byte	0x50
 2437 0dda 00       		.byte	0
 2438 0ddb 1B       		.uleb128 0x1b
 2439 0ddc 3F020000 		.4byte	.LASF175
 2440 0de0 01       		.byte	0x1
 2441 0de1 5203     		.2byte	0x352
 2442 0de3 00000000 		.4byte	.LFB284
 2443 0de7 16000000 		.4byte	.LFE284-.LFB284
 2444 0deb 01       		.uleb128 0x1
 2445 0dec 9C       		.byte	0x9c
 2446 0ded 200E0000 		.4byte	0xe20
 2447 0df1 1F       		.uleb128 0x1f
 2448 0df2 30050000 		.4byte	.LASF168
 2449 0df6 01       		.byte	0x1
 2450 0df7 5203     		.2byte	0x352
 2451 0df9 370B0000 		.4byte	0xb37
 2452 0dfd 29010000 		.4byte	.LLST6
 2453 0e01 23       		.uleb128 0x23
 2454 0e02 FB060000 		.4byte	.LASF170
 2455 0e06 01       		.byte	0x1
 2456 0e07 5303     		.2byte	0x353
 2457 0e09 490B0000 		.4byte	0xb49
 2458 0e0d 01       		.uleb128 0x1
 2459 0e0e 51       		.byte	0x51
 2460 0e0f 21       		.uleb128 0x21
 2461 0e10 CB080000 		.4byte	.LASF162
 2462 0e14 01       		.byte	0x1
 2463 0e15 5403     		.2byte	0x354
 2464 0e17 B8000000 		.4byte	0xb8
 2465 0e1b 4A010000 		.4byte	.LLST7
 2466 0e1f 00       		.byte	0
 2467 0e20 1B       		.uleb128 0x1b
 2468 0e21 FC040000 		.4byte	.LASF176
 2469 0e25 01       		.byte	0x1
 2470 0e26 6E03     		.2byte	0x36e
 2471 0e28 00000000 		.4byte	.LFB285
 2472 0e2c 10000000 		.4byte	.LFE285-.LFB285
 2473 0e30 01       		.uleb128 0x1
 2474 0e31 9C       		.byte	0x9c
 2475 0e32 550E0000 		.4byte	0xe55
 2476 0e36 1F       		.uleb128 0x1f
 2477 0e37 30050000 		.4byte	.LASF168
 2478 0e3b 01       		.byte	0x1
 2479 0e3c 6E03     		.2byte	0x36e
 2480 0e3e 370B0000 		.4byte	0xb37
 2481 0e42 5D010000 		.4byte	.LLST8
 2482 0e46 23       		.uleb128 0x23
 2483 0e47 FB060000 		.4byte	.LASF170
 2484 0e4b 01       		.byte	0x1
 2485 0e4c 6F03     		.2byte	0x36f
 2486 0e4e 490B0000 		.4byte	0xb49
 2487 0e52 01       		.uleb128 0x1
 2488 0e53 51       		.byte	0x51
 2489 0e54 00       		.byte	0
 2490 0e55 1B       		.uleb128 0x1b
 2491 0e56 35000000 		.4byte	.LASF177
 2492 0e5a 01       		.byte	0x1
ARM GAS  /tmp/ccYa27rh.s 			page 45


 2493 0e5b 7E03     		.2byte	0x37e
 2494 0e5d 00000000 		.4byte	.LFB286
 2495 0e61 5C000000 		.4byte	.LFE286-.LFB286
 2496 0e65 01       		.uleb128 0x1
 2497 0e66 9C       		.byte	0x9c
 2498 0e67 D80E0000 		.4byte	0xed8
 2499 0e6b 1F       		.uleb128 0x1f
 2500 0e6c 30050000 		.4byte	.LASF168
 2501 0e70 01       		.byte	0x1
 2502 0e71 7E03     		.2byte	0x37e
 2503 0e73 370B0000 		.4byte	0xb37
 2504 0e77 7E010000 		.4byte	.LLST9
 2505 0e7b 20       		.uleb128 0x20
 2506 0e7c 737200   		.ascii	"sr\000"
 2507 0e7f 01       		.byte	0x1
 2508 0e80 7F03     		.2byte	0x37f
 2509 0e82 B8000000 		.4byte	0xb8
 2510 0e86 C0010000 		.4byte	.LLST10
 2511 0e8a 24       		.uleb128 0x24
 2512 0e8b 1E000000 		.4byte	.LVL41
 2513 0e8f 9A0E0000 		.4byte	0xe9a
 2514 0e93 1D       		.uleb128 0x1d
 2515 0e94 01       		.uleb128 0x1
 2516 0e95 50       		.byte	0x50
 2517 0e96 02       		.uleb128 0x2
 2518 0e97 74       		.byte	0x74
 2519 0e98 00       		.sleb128 0
 2520 0e99 00       		.byte	0
 2521 0e9a 24       		.uleb128 0x24
 2522 0e9b 2C000000 		.4byte	.LVL42
 2523 0e9f AA0E0000 		.4byte	0xeaa
 2524 0ea3 1D       		.uleb128 0x1d
 2525 0ea4 01       		.uleb128 0x1
 2526 0ea5 50       		.byte	0x50
 2527 0ea6 02       		.uleb128 0x2
 2528 0ea7 74       		.byte	0x74
 2529 0ea8 00       		.sleb128 0
 2530 0ea9 00       		.byte	0
 2531 0eaa 24       		.uleb128 0x24
 2532 0eab 3A000000 		.4byte	.LVL43
 2533 0eaf BA0E0000 		.4byte	0xeba
 2534 0eb3 1D       		.uleb128 0x1d
 2535 0eb4 01       		.uleb128 0x1
 2536 0eb5 50       		.byte	0x50
 2537 0eb6 02       		.uleb128 0x2
 2538 0eb7 74       		.byte	0x74
 2539 0eb8 00       		.sleb128 0
 2540 0eb9 00       		.byte	0
 2541 0eba 24       		.uleb128 0x24
 2542 0ebb 48000000 		.4byte	.LVL44
 2543 0ebf CA0E0000 		.4byte	0xeca
 2544 0ec3 1D       		.uleb128 0x1d
 2545 0ec4 01       		.uleb128 0x1
 2546 0ec5 50       		.byte	0x50
 2547 0ec6 02       		.uleb128 0x2
 2548 0ec7 74       		.byte	0x74
 2549 0ec8 00       		.sleb128 0
ARM GAS  /tmp/ccYa27rh.s 			page 46


 2550 0ec9 00       		.byte	0
 2551 0eca 25       		.uleb128 0x25
 2552 0ecb 5A000000 		.4byte	.LVL46
 2553 0ecf 1D       		.uleb128 0x1d
 2554 0ed0 01       		.uleb128 0x1
 2555 0ed1 50       		.byte	0x50
 2556 0ed2 03       		.uleb128 0x3
 2557 0ed3 F3       		.byte	0xf3
 2558 0ed4 01       		.uleb128 0x1
 2559 0ed5 50       		.byte	0x50
 2560 0ed6 00       		.byte	0
 2561 0ed7 00       		.byte	0
 2562 0ed8 26       		.uleb128 0x26
 2563 0ed9 99060000 		.4byte	.LASF178
 2564 0edd 12       		.byte	0x12
 2565 0ede 4407     		.2byte	0x744
 2566 0ee0 E40E0000 		.4byte	0xee4
 2567 0ee4 0F       		.uleb128 0xf
 2568 0ee5 AD000000 		.4byte	0xad
 2569 0ee9 27       		.uleb128 0x27
 2570 0eea 636800   		.ascii	"ch\000"
 2571 0eed 07       		.byte	0x7
 2572 0eee D201     		.2byte	0x1d2
 2573 0ef0 F4030000 		.4byte	0x3f4
 2574 0ef4 28       		.uleb128 0x28
 2575 0ef5 D2010000 		.4byte	.LASF179
 2576 0ef9 01       		.byte	0x1
 2577 0efa 2A       		.byte	0x2a
 2578 0efb A70A0000 		.4byte	0xaa7
 2579 0eff 05       		.uleb128 0x5
 2580 0f00 03       		.byte	0x3
 2581 0f01 00000000 		.4byte	PWMD1
 2582 0f05 28       		.uleb128 0x28
 2583 0f06 97020000 		.4byte	.LASF180
 2584 0f0a 01       		.byte	0x1
 2585 0f0b 32       		.byte	0x32
 2586 0f0c A70A0000 		.4byte	0xaa7
 2587 0f10 05       		.uleb128 0x5
 2588 0f11 03       		.byte	0x3
 2589 0f12 00000000 		.4byte	PWMD2
 2590 0f16 28       		.uleb128 0x28
 2591 0f17 9D020000 		.4byte	.LASF181
 2592 0f1b 01       		.byte	0x1
 2593 0f1c 42       		.byte	0x42
 2594 0f1d A70A0000 		.4byte	0xaa7
 2595 0f21 05       		.uleb128 0x5
 2596 0f22 03       		.byte	0x3
 2597 0f23 00000000 		.4byte	PWMD4
 2598 0f27 28       		.uleb128 0x28
 2599 0f28 B7020000 		.4byte	.LASF182
 2600 0f2c 01       		.byte	0x1
 2601 0f2d 5A       		.byte	0x5a
 2602 0f2e A70A0000 		.4byte	0xaa7
 2603 0f32 05       		.uleb128 0x5
 2604 0f33 03       		.byte	0x3
 2605 0f34 00000000 		.4byte	PWMD9
 2606 0f38 29       		.uleb128 0x29
ARM GAS  /tmp/ccYa27rh.s 			page 47


 2607 0f39 BD080000 		.4byte	.LASF187
 2608 0f3d 10       		.byte	0x10
 2609 0f3e 2001     		.2byte	0x120
 2610 0f40 0D       		.uleb128 0xd
 2611 0f41 370B0000 		.4byte	0xb37
 2612 0f45 00       		.byte	0
 2613 0f46 00       		.byte	0
 2614              		.section	.debug_abbrev,"",%progbits
 2615              	.Ldebug_abbrev0:
 2616 0000 01       		.uleb128 0x1
 2617 0001 11       		.uleb128 0x11
 2618 0002 01       		.byte	0x1
 2619 0003 25       		.uleb128 0x25
 2620 0004 0E       		.uleb128 0xe
 2621 0005 13       		.uleb128 0x13
 2622 0006 0B       		.uleb128 0xb
 2623 0007 03       		.uleb128 0x3
 2624 0008 0E       		.uleb128 0xe
 2625 0009 1B       		.uleb128 0x1b
 2626 000a 0E       		.uleb128 0xe
 2627 000b 55       		.uleb128 0x55
 2628 000c 17       		.uleb128 0x17
 2629 000d 11       		.uleb128 0x11
 2630 000e 01       		.uleb128 0x1
 2631 000f 10       		.uleb128 0x10
 2632 0010 17       		.uleb128 0x17
 2633 0011 00       		.byte	0
 2634 0012 00       		.byte	0
 2635 0013 02       		.uleb128 0x2
 2636 0014 24       		.uleb128 0x24
 2637 0015 00       		.byte	0
 2638 0016 0B       		.uleb128 0xb
 2639 0017 0B       		.uleb128 0xb
 2640 0018 3E       		.uleb128 0x3e
 2641 0019 0B       		.uleb128 0xb
 2642 001a 03       		.uleb128 0x3
 2643 001b 0E       		.uleb128 0xe
 2644 001c 00       		.byte	0
 2645 001d 00       		.byte	0
 2646 001e 03       		.uleb128 0x3
 2647 001f 24       		.uleb128 0x24
 2648 0020 00       		.byte	0
 2649 0021 0B       		.uleb128 0xb
 2650 0022 0B       		.uleb128 0xb
 2651 0023 3E       		.uleb128 0x3e
 2652 0024 0B       		.uleb128 0xb
 2653 0025 03       		.uleb128 0x3
 2654 0026 08       		.uleb128 0x8
 2655 0027 00       		.byte	0
 2656 0028 00       		.byte	0
 2657 0029 04       		.uleb128 0x4
 2658 002a 16       		.uleb128 0x16
 2659 002b 00       		.byte	0
 2660 002c 03       		.uleb128 0x3
 2661 002d 0E       		.uleb128 0xe
 2662 002e 3A       		.uleb128 0x3a
 2663 002f 0B       		.uleb128 0xb
ARM GAS  /tmp/ccYa27rh.s 			page 48


 2664 0030 3B       		.uleb128 0x3b
 2665 0031 0B       		.uleb128 0xb
 2666 0032 49       		.uleb128 0x49
 2667 0033 13       		.uleb128 0x13
 2668 0034 00       		.byte	0
 2669 0035 00       		.byte	0
 2670 0036 05       		.uleb128 0x5
 2671 0037 13       		.uleb128 0x13
 2672 0038 01       		.byte	0x1
 2673 0039 03       		.uleb128 0x3
 2674 003a 0E       		.uleb128 0xe
 2675 003b 0B       		.uleb128 0xb
 2676 003c 0B       		.uleb128 0xb
 2677 003d 3A       		.uleb128 0x3a
 2678 003e 0B       		.uleb128 0xb
 2679 003f 3B       		.uleb128 0x3b
 2680 0040 0B       		.uleb128 0xb
 2681 0041 01       		.uleb128 0x1
 2682 0042 13       		.uleb128 0x13
 2683 0043 00       		.byte	0
 2684 0044 00       		.byte	0
 2685 0045 06       		.uleb128 0x6
 2686 0046 0D       		.uleb128 0xd
 2687 0047 00       		.byte	0
 2688 0048 03       		.uleb128 0x3
 2689 0049 0E       		.uleb128 0xe
 2690 004a 3A       		.uleb128 0x3a
 2691 004b 0B       		.uleb128 0xb
 2692 004c 3B       		.uleb128 0x3b
 2693 004d 0B       		.uleb128 0xb
 2694 004e 49       		.uleb128 0x49
 2695 004f 13       		.uleb128 0x13
 2696 0050 38       		.uleb128 0x38
 2697 0051 0B       		.uleb128 0xb
 2698 0052 00       		.byte	0
 2699 0053 00       		.byte	0
 2700 0054 07       		.uleb128 0x7
 2701 0055 0D       		.uleb128 0xd
 2702 0056 00       		.byte	0
 2703 0057 03       		.uleb128 0x3
 2704 0058 08       		.uleb128 0x8
 2705 0059 3A       		.uleb128 0x3a
 2706 005a 0B       		.uleb128 0xb
 2707 005b 3B       		.uleb128 0x3b
 2708 005c 0B       		.uleb128 0xb
 2709 005d 49       		.uleb128 0x49
 2710 005e 13       		.uleb128 0x13
 2711 005f 38       		.uleb128 0x38
 2712 0060 0B       		.uleb128 0xb
 2713 0061 00       		.byte	0
 2714 0062 00       		.byte	0
 2715 0063 08       		.uleb128 0x8
 2716 0064 0D       		.uleb128 0xd
 2717 0065 00       		.byte	0
 2718 0066 03       		.uleb128 0x3
 2719 0067 08       		.uleb128 0x8
 2720 0068 3A       		.uleb128 0x3a
ARM GAS  /tmp/ccYa27rh.s 			page 49


 2721 0069 0B       		.uleb128 0xb
 2722 006a 3B       		.uleb128 0x3b
 2723 006b 05       		.uleb128 0x5
 2724 006c 49       		.uleb128 0x49
 2725 006d 13       		.uleb128 0x13
 2726 006e 38       		.uleb128 0x38
 2727 006f 0B       		.uleb128 0xb
 2728 0070 00       		.byte	0
 2729 0071 00       		.byte	0
 2730 0072 09       		.uleb128 0x9
 2731 0073 0D       		.uleb128 0xd
 2732 0074 00       		.byte	0
 2733 0075 03       		.uleb128 0x3
 2734 0076 0E       		.uleb128 0xe
 2735 0077 3A       		.uleb128 0x3a
 2736 0078 0B       		.uleb128 0xb
 2737 0079 3B       		.uleb128 0x3b
 2738 007a 05       		.uleb128 0x5
 2739 007b 49       		.uleb128 0x49
 2740 007c 13       		.uleb128 0x13
 2741 007d 38       		.uleb128 0x38
 2742 007e 0B       		.uleb128 0xb
 2743 007f 00       		.byte	0
 2744 0080 00       		.byte	0
 2745 0081 0A       		.uleb128 0xa
 2746 0082 0F       		.uleb128 0xf
 2747 0083 00       		.byte	0
 2748 0084 0B       		.uleb128 0xb
 2749 0085 0B       		.uleb128 0xb
 2750 0086 49       		.uleb128 0x49
 2751 0087 13       		.uleb128 0x13
 2752 0088 00       		.byte	0
 2753 0089 00       		.byte	0
 2754 008a 0B       		.uleb128 0xb
 2755 008b 13       		.uleb128 0x13
 2756 008c 01       		.byte	0x1
 2757 008d 03       		.uleb128 0x3
 2758 008e 0E       		.uleb128 0xe
 2759 008f 0B       		.uleb128 0xb
 2760 0090 0B       		.uleb128 0xb
 2761 0091 3A       		.uleb128 0x3a
 2762 0092 0B       		.uleb128 0xb
 2763 0093 3B       		.uleb128 0x3b
 2764 0094 05       		.uleb128 0x5
 2765 0095 01       		.uleb128 0x1
 2766 0096 13       		.uleb128 0x13
 2767 0097 00       		.byte	0
 2768 0098 00       		.byte	0
 2769 0099 0C       		.uleb128 0xc
 2770 009a 15       		.uleb128 0x15
 2771 009b 01       		.byte	0x1
 2772 009c 27       		.uleb128 0x27
 2773 009d 19       		.uleb128 0x19
 2774 009e 01       		.uleb128 0x1
 2775 009f 13       		.uleb128 0x13
 2776 00a0 00       		.byte	0
 2777 00a1 00       		.byte	0
ARM GAS  /tmp/ccYa27rh.s 			page 50


 2778 00a2 0D       		.uleb128 0xd
 2779 00a3 05       		.uleb128 0x5
 2780 00a4 00       		.byte	0
 2781 00a5 49       		.uleb128 0x49
 2782 00a6 13       		.uleb128 0x13
 2783 00a7 00       		.byte	0
 2784 00a8 00       		.byte	0
 2785 00a9 0E       		.uleb128 0xe
 2786 00aa 0F       		.uleb128 0xf
 2787 00ab 00       		.byte	0
 2788 00ac 0B       		.uleb128 0xb
 2789 00ad 0B       		.uleb128 0xb
 2790 00ae 00       		.byte	0
 2791 00af 00       		.byte	0
 2792 00b0 0F       		.uleb128 0xf
 2793 00b1 35       		.uleb128 0x35
 2794 00b2 00       		.byte	0
 2795 00b3 49       		.uleb128 0x49
 2796 00b4 13       		.uleb128 0x13
 2797 00b5 00       		.byte	0
 2798 00b6 00       		.byte	0
 2799 00b7 10       		.uleb128 0x10
 2800 00b8 01       		.uleb128 0x1
 2801 00b9 01       		.byte	0x1
 2802 00ba 49       		.uleb128 0x49
 2803 00bb 13       		.uleb128 0x13
 2804 00bc 01       		.uleb128 0x1
 2805 00bd 13       		.uleb128 0x13
 2806 00be 00       		.byte	0
 2807 00bf 00       		.byte	0
 2808 00c0 11       		.uleb128 0x11
 2809 00c1 21       		.uleb128 0x21
 2810 00c2 00       		.byte	0
 2811 00c3 49       		.uleb128 0x49
 2812 00c4 13       		.uleb128 0x13
 2813 00c5 2F       		.uleb128 0x2f
 2814 00c6 0B       		.uleb128 0xb
 2815 00c7 00       		.byte	0
 2816 00c8 00       		.byte	0
 2817 00c9 12       		.uleb128 0x12
 2818 00ca 13       		.uleb128 0x13
 2819 00cb 01       		.byte	0x1
 2820 00cc 0B       		.uleb128 0xb
 2821 00cd 0B       		.uleb128 0xb
 2822 00ce 3A       		.uleb128 0x3a
 2823 00cf 0B       		.uleb128 0xb
 2824 00d0 3B       		.uleb128 0x3b
 2825 00d1 05       		.uleb128 0x5
 2826 00d2 01       		.uleb128 0x1
 2827 00d3 13       		.uleb128 0x13
 2828 00d4 00       		.byte	0
 2829 00d5 00       		.byte	0
 2830 00d6 13       		.uleb128 0x13
 2831 00d7 16       		.uleb128 0x16
 2832 00d8 00       		.byte	0
 2833 00d9 03       		.uleb128 0x3
 2834 00da 0E       		.uleb128 0xe
ARM GAS  /tmp/ccYa27rh.s 			page 51


 2835 00db 3A       		.uleb128 0x3a
 2836 00dc 0B       		.uleb128 0xb
 2837 00dd 3B       		.uleb128 0x3b
 2838 00de 05       		.uleb128 0x5
 2839 00df 49       		.uleb128 0x49
 2840 00e0 13       		.uleb128 0x13
 2841 00e1 00       		.byte	0
 2842 00e2 00       		.byte	0
 2843 00e3 14       		.uleb128 0x14
 2844 00e4 13       		.uleb128 0x13
 2845 00e5 01       		.byte	0x1
 2846 00e6 0B       		.uleb128 0xb
 2847 00e7 0B       		.uleb128 0xb
 2848 00e8 3A       		.uleb128 0x3a
 2849 00e9 0B       		.uleb128 0xb
 2850 00ea 3B       		.uleb128 0x3b
 2851 00eb 0B       		.uleb128 0xb
 2852 00ec 01       		.uleb128 0x1
 2853 00ed 13       		.uleb128 0x13
 2854 00ee 00       		.byte	0
 2855 00ef 00       		.byte	0
 2856 00f0 15       		.uleb128 0x15
 2857 00f1 17       		.uleb128 0x17
 2858 00f2 01       		.byte	0x1
 2859 00f3 0B       		.uleb128 0xb
 2860 00f4 0B       		.uleb128 0xb
 2861 00f5 3A       		.uleb128 0x3a
 2862 00f6 0B       		.uleb128 0xb
 2863 00f7 3B       		.uleb128 0x3b
 2864 00f8 0B       		.uleb128 0xb
 2865 00f9 01       		.uleb128 0x1
 2866 00fa 13       		.uleb128 0x13
 2867 00fb 00       		.byte	0
 2868 00fc 00       		.byte	0
 2869 00fd 16       		.uleb128 0x16
 2870 00fe 0D       		.uleb128 0xd
 2871 00ff 00       		.byte	0
 2872 0100 03       		.uleb128 0x3
 2873 0101 0E       		.uleb128 0xe
 2874 0102 3A       		.uleb128 0x3a
 2875 0103 0B       		.uleb128 0xb
 2876 0104 3B       		.uleb128 0x3b
 2877 0105 0B       		.uleb128 0xb
 2878 0106 49       		.uleb128 0x49
 2879 0107 13       		.uleb128 0x13
 2880 0108 00       		.byte	0
 2881 0109 00       		.byte	0
 2882 010a 17       		.uleb128 0x17
 2883 010b 0D       		.uleb128 0xd
 2884 010c 00       		.byte	0
 2885 010d 03       		.uleb128 0x3
 2886 010e 0E       		.uleb128 0xe
 2887 010f 3A       		.uleb128 0x3a
 2888 0110 0B       		.uleb128 0xb
 2889 0111 3B       		.uleb128 0x3b
 2890 0112 05       		.uleb128 0x5
 2891 0113 49       		.uleb128 0x49
ARM GAS  /tmp/ccYa27rh.s 			page 52


 2892 0114 13       		.uleb128 0x13
 2893 0115 00       		.byte	0
 2894 0116 00       		.byte	0
 2895 0117 18       		.uleb128 0x18
 2896 0118 26       		.uleb128 0x26
 2897 0119 00       		.byte	0
 2898 011a 49       		.uleb128 0x49
 2899 011b 13       		.uleb128 0x13
 2900 011c 00       		.byte	0
 2901 011d 00       		.byte	0
 2902 011e 19       		.uleb128 0x19
 2903 011f 04       		.uleb128 0x4
 2904 0120 01       		.byte	0x1
 2905 0121 0B       		.uleb128 0xb
 2906 0122 0B       		.uleb128 0xb
 2907 0123 3A       		.uleb128 0x3a
 2908 0124 0B       		.uleb128 0xb
 2909 0125 3B       		.uleb128 0x3b
 2910 0126 0B       		.uleb128 0xb
 2911 0127 01       		.uleb128 0x1
 2912 0128 13       		.uleb128 0x13
 2913 0129 00       		.byte	0
 2914 012a 00       		.byte	0
 2915 012b 1A       		.uleb128 0x1a
 2916 012c 28       		.uleb128 0x28
 2917 012d 00       		.byte	0
 2918 012e 03       		.uleb128 0x3
 2919 012f 0E       		.uleb128 0xe
 2920 0130 1C       		.uleb128 0x1c
 2921 0131 0D       		.uleb128 0xd
 2922 0132 00       		.byte	0
 2923 0133 00       		.byte	0
 2924 0134 1B       		.uleb128 0x1b
 2925 0135 2E       		.uleb128 0x2e
 2926 0136 01       		.byte	0x1
 2927 0137 3F       		.uleb128 0x3f
 2928 0138 19       		.uleb128 0x19
 2929 0139 03       		.uleb128 0x3
 2930 013a 0E       		.uleb128 0xe
 2931 013b 3A       		.uleb128 0x3a
 2932 013c 0B       		.uleb128 0xb
 2933 013d 3B       		.uleb128 0x3b
 2934 013e 05       		.uleb128 0x5
 2935 013f 27       		.uleb128 0x27
 2936 0140 19       		.uleb128 0x19
 2937 0141 11       		.uleb128 0x11
 2938 0142 01       		.uleb128 0x1
 2939 0143 12       		.uleb128 0x12
 2940 0144 06       		.uleb128 0x6
 2941 0145 40       		.uleb128 0x40
 2942 0146 18       		.uleb128 0x18
 2943 0147 9742     		.uleb128 0x2117
 2944 0149 19       		.uleb128 0x19
 2945 014a 01       		.uleb128 0x1
 2946 014b 13       		.uleb128 0x13
 2947 014c 00       		.byte	0
 2948 014d 00       		.byte	0
ARM GAS  /tmp/ccYa27rh.s 			page 53


 2949 014e 1C       		.uleb128 0x1c
 2950 014f 898201   		.uleb128 0x4109
 2951 0152 01       		.byte	0x1
 2952 0153 11       		.uleb128 0x11
 2953 0154 01       		.uleb128 0x1
 2954 0155 31       		.uleb128 0x31
 2955 0156 13       		.uleb128 0x13
 2956 0157 01       		.uleb128 0x1
 2957 0158 13       		.uleb128 0x13
 2958 0159 00       		.byte	0
 2959 015a 00       		.byte	0
 2960 015b 1D       		.uleb128 0x1d
 2961 015c 8A8201   		.uleb128 0x410a
 2962 015f 00       		.byte	0
 2963 0160 02       		.uleb128 0x2
 2964 0161 18       		.uleb128 0x18
 2965 0162 9142     		.uleb128 0x2111
 2966 0164 18       		.uleb128 0x18
 2967 0165 00       		.byte	0
 2968 0166 00       		.byte	0
 2969 0167 1E       		.uleb128 0x1e
 2970 0168 898201   		.uleb128 0x4109
 2971 016b 01       		.byte	0x1
 2972 016c 11       		.uleb128 0x11
 2973 016d 01       		.uleb128 0x1
 2974 016e 31       		.uleb128 0x31
 2975 016f 13       		.uleb128 0x13
 2976 0170 00       		.byte	0
 2977 0171 00       		.byte	0
 2978 0172 1F       		.uleb128 0x1f
 2979 0173 05       		.uleb128 0x5
 2980 0174 00       		.byte	0
 2981 0175 03       		.uleb128 0x3
 2982 0176 0E       		.uleb128 0xe
 2983 0177 3A       		.uleb128 0x3a
 2984 0178 0B       		.uleb128 0xb
 2985 0179 3B       		.uleb128 0x3b
 2986 017a 05       		.uleb128 0x5
 2987 017b 49       		.uleb128 0x49
 2988 017c 13       		.uleb128 0x13
 2989 017d 02       		.uleb128 0x2
 2990 017e 17       		.uleb128 0x17
 2991 017f 00       		.byte	0
 2992 0180 00       		.byte	0
 2993 0181 20       		.uleb128 0x20
 2994 0182 34       		.uleb128 0x34
 2995 0183 00       		.byte	0
 2996 0184 03       		.uleb128 0x3
 2997 0185 08       		.uleb128 0x8
 2998 0186 3A       		.uleb128 0x3a
 2999 0187 0B       		.uleb128 0xb
 3000 0188 3B       		.uleb128 0x3b
 3001 0189 05       		.uleb128 0x5
 3002 018a 49       		.uleb128 0x49
 3003 018b 13       		.uleb128 0x13
 3004 018c 02       		.uleb128 0x2
 3005 018d 17       		.uleb128 0x17
ARM GAS  /tmp/ccYa27rh.s 			page 54


 3006 018e 00       		.byte	0
 3007 018f 00       		.byte	0
 3008 0190 21       		.uleb128 0x21
 3009 0191 34       		.uleb128 0x34
 3010 0192 00       		.byte	0
 3011 0193 03       		.uleb128 0x3
 3012 0194 0E       		.uleb128 0xe
 3013 0195 3A       		.uleb128 0x3a
 3014 0196 0B       		.uleb128 0xb
 3015 0197 3B       		.uleb128 0x3b
 3016 0198 05       		.uleb128 0x5
 3017 0199 49       		.uleb128 0x49
 3018 019a 13       		.uleb128 0x13
 3019 019b 02       		.uleb128 0x2
 3020 019c 17       		.uleb128 0x17
 3021 019d 00       		.byte	0
 3022 019e 00       		.byte	0
 3023 019f 22       		.uleb128 0x22
 3024 01a0 34       		.uleb128 0x34
 3025 01a1 00       		.byte	0
 3026 01a2 03       		.uleb128 0x3
 3027 01a3 0E       		.uleb128 0xe
 3028 01a4 49       		.uleb128 0x49
 3029 01a5 13       		.uleb128 0x13
 3030 01a6 34       		.uleb128 0x34
 3031 01a7 19       		.uleb128 0x19
 3032 01a8 00       		.byte	0
 3033 01a9 00       		.byte	0
 3034 01aa 23       		.uleb128 0x23
 3035 01ab 05       		.uleb128 0x5
 3036 01ac 00       		.byte	0
 3037 01ad 03       		.uleb128 0x3
 3038 01ae 0E       		.uleb128 0xe
 3039 01af 3A       		.uleb128 0x3a
 3040 01b0 0B       		.uleb128 0xb
 3041 01b1 3B       		.uleb128 0x3b
 3042 01b2 05       		.uleb128 0x5
 3043 01b3 49       		.uleb128 0x49
 3044 01b4 13       		.uleb128 0x13
 3045 01b5 02       		.uleb128 0x2
 3046 01b6 18       		.uleb128 0x18
 3047 01b7 00       		.byte	0
 3048 01b8 00       		.byte	0
 3049 01b9 24       		.uleb128 0x24
 3050 01ba 898201   		.uleb128 0x4109
 3051 01bd 01       		.byte	0x1
 3052 01be 11       		.uleb128 0x11
 3053 01bf 01       		.uleb128 0x1
 3054 01c0 01       		.uleb128 0x1
 3055 01c1 13       		.uleb128 0x13
 3056 01c2 00       		.byte	0
 3057 01c3 00       		.byte	0
 3058 01c4 25       		.uleb128 0x25
 3059 01c5 898201   		.uleb128 0x4109
 3060 01c8 01       		.byte	0x1
 3061 01c9 11       		.uleb128 0x11
 3062 01ca 01       		.uleb128 0x1
ARM GAS  /tmp/ccYa27rh.s 			page 55


 3063 01cb 9542     		.uleb128 0x2115
 3064 01cd 19       		.uleb128 0x19
 3065 01ce 00       		.byte	0
 3066 01cf 00       		.byte	0
 3067 01d0 26       		.uleb128 0x26
 3068 01d1 34       		.uleb128 0x34
 3069 01d2 00       		.byte	0
 3070 01d3 03       		.uleb128 0x3
 3071 01d4 0E       		.uleb128 0xe
 3072 01d5 3A       		.uleb128 0x3a
 3073 01d6 0B       		.uleb128 0xb
 3074 01d7 3B       		.uleb128 0x3b
 3075 01d8 05       		.uleb128 0x5
 3076 01d9 49       		.uleb128 0x49
 3077 01da 13       		.uleb128 0x13
 3078 01db 3F       		.uleb128 0x3f
 3079 01dc 19       		.uleb128 0x19
 3080 01dd 3C       		.uleb128 0x3c
 3081 01de 19       		.uleb128 0x19
 3082 01df 00       		.byte	0
 3083 01e0 00       		.byte	0
 3084 01e1 27       		.uleb128 0x27
 3085 01e2 34       		.uleb128 0x34
 3086 01e3 00       		.byte	0
 3087 01e4 03       		.uleb128 0x3
 3088 01e5 08       		.uleb128 0x8
 3089 01e6 3A       		.uleb128 0x3a
 3090 01e7 0B       		.uleb128 0xb
 3091 01e8 3B       		.uleb128 0x3b
 3092 01e9 05       		.uleb128 0x5
 3093 01ea 49       		.uleb128 0x49
 3094 01eb 13       		.uleb128 0x13
 3095 01ec 3F       		.uleb128 0x3f
 3096 01ed 19       		.uleb128 0x19
 3097 01ee 3C       		.uleb128 0x3c
 3098 01ef 19       		.uleb128 0x19
 3099 01f0 00       		.byte	0
 3100 01f1 00       		.byte	0
 3101 01f2 28       		.uleb128 0x28
 3102 01f3 34       		.uleb128 0x34
 3103 01f4 00       		.byte	0
 3104 01f5 03       		.uleb128 0x3
 3105 01f6 0E       		.uleb128 0xe
 3106 01f7 3A       		.uleb128 0x3a
 3107 01f8 0B       		.uleb128 0xb
 3108 01f9 3B       		.uleb128 0x3b
 3109 01fa 0B       		.uleb128 0xb
 3110 01fb 49       		.uleb128 0x49
 3111 01fc 13       		.uleb128 0x13
 3112 01fd 3F       		.uleb128 0x3f
 3113 01fe 19       		.uleb128 0x19
 3114 01ff 02       		.uleb128 0x2
 3115 0200 18       		.uleb128 0x18
 3116 0201 00       		.byte	0
 3117 0202 00       		.byte	0
 3118 0203 29       		.uleb128 0x29
 3119 0204 2E       		.uleb128 0x2e
ARM GAS  /tmp/ccYa27rh.s 			page 56


 3120 0205 01       		.byte	0x1
 3121 0206 3F       		.uleb128 0x3f
 3122 0207 19       		.uleb128 0x19
 3123 0208 03       		.uleb128 0x3
 3124 0209 0E       		.uleb128 0xe
 3125 020a 3A       		.uleb128 0x3a
 3126 020b 0B       		.uleb128 0xb
 3127 020c 3B       		.uleb128 0x3b
 3128 020d 05       		.uleb128 0x5
 3129 020e 27       		.uleb128 0x27
 3130 020f 19       		.uleb128 0x19
 3131 0210 3C       		.uleb128 0x3c
 3132 0211 19       		.uleb128 0x19
 3133 0212 00       		.byte	0
 3134 0213 00       		.byte	0
 3135 0214 00       		.byte	0
 3136              		.section	.debug_loc,"",%progbits
 3137              	.Ldebug_loc0:
 3138              	.LLST0:
 3139 0000 00000000 		.4byte	.LVL4
 3140 0004 D2000000 		.4byte	.LVL13
 3141 0008 0100     		.2byte	0x1
 3142 000a 50       		.byte	0x50
 3143 000b D2000000 		.4byte	.LVL13
 3144 000f 44010000 		.4byte	.LFE278
 3145 0013 0400     		.2byte	0x4
 3146 0015 F3       		.byte	0xf3
 3147 0016 01       		.uleb128 0x1
 3148 0017 50       		.byte	0x50
 3149 0018 9F       		.byte	0x9f
 3150 0019 00000000 		.4byte	0
 3151 001d 00000000 		.4byte	0
 3152              	.LLST1:
 3153 0021 AA000000 		.4byte	.LVL5
 3154 0025 AE000000 		.4byte	.LVL6
 3155 0029 0100     		.2byte	0x1
 3156 002b 53       		.byte	0x53
 3157 002c AE000000 		.4byte	.LVL6
 3158 0030 B2000000 		.4byte	.LVL7
 3159 0034 0200     		.2byte	0x2
 3160 0036 72       		.byte	0x72
 3161 0037 28       		.sleb128 40
 3162 0038 B2000000 		.4byte	.LVL7
 3163 003c D2000000 		.4byte	.LVL13
 3164 0040 0F00     		.2byte	0xf
 3165 0042 70       		.byte	0x70
 3166 0043 14       		.sleb128 20
 3167 0044 06       		.byte	0x6
 3168 0045 F7       		.byte	0xf7
 3169 0046 25       		.uleb128 0x25
 3170 0047 74       		.byte	0x74
 3171 0048 00       		.sleb128 0
 3172 0049 F7       		.byte	0xf7
 3173 004a 25       		.uleb128 0x25
 3174 004b 1B       		.byte	0x1b
 3175 004c F7       		.byte	0xf7
 3176 004d 00       		.uleb128 0
ARM GAS  /tmp/ccYa27rh.s 			page 57


 3177 004e 31       		.byte	0x31
 3178 004f 1C       		.byte	0x1c
 3179 0050 9F       		.byte	0x9f
 3180 0051 D2000000 		.4byte	.LVL13
 3181 0055 30010000 		.4byte	.LVL22
 3182 0059 1200     		.2byte	0x12
 3183 005b F3       		.byte	0xf3
 3184 005c 01       		.uleb128 0x1
 3185 005d 50       		.byte	0x50
 3186 005e 23       		.byte	0x23
 3187 005f 14       		.uleb128 0x14
 3188 0060 06       		.byte	0x6
 3189 0061 F7       		.byte	0xf7
 3190 0062 25       		.uleb128 0x25
 3191 0063 74       		.byte	0x74
 3192 0064 00       		.sleb128 0
 3193 0065 F7       		.byte	0xf7
 3194 0066 25       		.uleb128 0x25
 3195 0067 1B       		.byte	0x1b
 3196 0068 F7       		.byte	0xf7
 3197 0069 00       		.uleb128 0
 3198 006a 31       		.byte	0x31
 3199 006b 1C       		.byte	0x1c
 3200 006c 9F       		.byte	0x9f
 3201 006d 30010000 		.4byte	.LVL22
 3202 0071 44010000 		.4byte	.LFE278
 3203 0075 1300     		.2byte	0x13
 3204 0077 F3       		.byte	0xf3
 3205 0078 01       		.uleb128 0x1
 3206 0079 50       		.byte	0x50
 3207 007a 23       		.byte	0x23
 3208 007b 14       		.uleb128 0x14
 3209 007c 06       		.byte	0x6
 3210 007d F7       		.byte	0xf7
 3211 007e 25       		.uleb128 0x25
 3212 007f 71       		.byte	0x71
 3213 0080 00       		.sleb128 0
 3214 0081 06       		.byte	0x6
 3215 0082 F7       		.byte	0xf7
 3216 0083 25       		.uleb128 0x25
 3217 0084 1B       		.byte	0x1b
 3218 0085 F7       		.byte	0xf7
 3219 0086 00       		.uleb128 0
 3220 0087 31       		.byte	0x31
 3221 0088 1C       		.byte	0x1c
 3222 0089 9F       		.byte	0x9f
 3223 008a 00000000 		.4byte	0
 3224 008e 00000000 		.4byte	0
 3225              	.LLST2:
 3226 0092 B6000000 		.4byte	.LVL8
 3227 0096 C8000000 		.4byte	.LVL9
 3228 009a 0200     		.2byte	0x2
 3229 009c 30       		.byte	0x30
 3230 009d 9F       		.byte	0x9f
 3231 009e C8000000 		.4byte	.LVL9
 3232 00a2 CE000000 		.4byte	.LVL11
 3233 00a6 0100     		.2byte	0x1
ARM GAS  /tmp/ccYa27rh.s 			page 58


 3234 00a8 53       		.byte	0x53
 3235 00a9 CE000000 		.4byte	.LVL11
 3236 00ad D0000000 		.4byte	.LVL12
 3237 00b1 0200     		.2byte	0x2
 3238 00b3 30       		.byte	0x30
 3239 00b4 9F       		.byte	0x9f
 3240 00b5 D0000000 		.4byte	.LVL12
 3241 00b9 16010000 		.4byte	.LVL20
 3242 00bd 0100     		.2byte	0x1
 3243 00bf 53       		.byte	0x53
 3244 00c0 16010000 		.4byte	.LVL20
 3245 00c4 18010000 		.4byte	.LVL21
 3246 00c8 0200     		.2byte	0x2
 3247 00ca 72       		.byte	0x72
 3248 00cb 20       		.sleb128 32
 3249 00cc 00000000 		.4byte	0
 3250 00d0 00000000 		.4byte	0
 3251              	.LLST3:
 3252 00d4 00000000 		.4byte	.LVL24
 3253 00d8 04000000 		.4byte	.LVL25
 3254 00dc 0100     		.2byte	0x1
 3255 00de 51       		.byte	0x51
 3256 00df 04000000 		.4byte	.LVL25
 3257 00e3 0C000000 		.4byte	.LFE280
 3258 00e7 0400     		.2byte	0x4
 3259 00e9 F3       		.byte	0xf3
 3260 00ea 01       		.uleb128 0x1
 3261 00eb 51       		.byte	0x51
 3262 00ec 9F       		.byte	0x9f
 3263 00ed 00000000 		.4byte	0
 3264 00f1 00000000 		.4byte	0
 3265              	.LLST4:
 3266 00f5 00000000 		.4byte	.LVL26
 3267 00f9 0C000000 		.4byte	.LVL27
 3268 00fd 0100     		.2byte	0x1
 3269 00ff 50       		.byte	0x50
 3270 0100 0C000000 		.4byte	.LVL27
 3271 0104 1C000000 		.4byte	.LFE281
 3272 0108 0400     		.2byte	0x4
 3273 010a F3       		.byte	0xf3
 3274 010b 01       		.uleb128 0x1
 3275 010c 50       		.byte	0x50
 3276 010d 9F       		.byte	0x9f
 3277 010e 00000000 		.4byte	0
 3278 0112 00000000 		.4byte	0
 3279              	.LLST5:
 3280 0116 04000000 		.4byte	.LVL29
 3281 011a 0C000000 		.4byte	.LVL30
 3282 011e 0100     		.2byte	0x1
 3283 0120 52       		.byte	0x52
 3284 0121 00000000 		.4byte	0
 3285 0125 00000000 		.4byte	0
 3286              	.LLST6:
 3287 0129 00000000 		.4byte	.LVL32
 3288 012d 02000000 		.4byte	.LVL33
 3289 0131 0100     		.2byte	0x1
 3290 0133 50       		.byte	0x50
ARM GAS  /tmp/ccYa27rh.s 			page 59


 3291 0134 02000000 		.4byte	.LVL33
 3292 0138 16000000 		.4byte	.LFE284
 3293 013c 0400     		.2byte	0x4
 3294 013e F3       		.byte	0xf3
 3295 013f 01       		.uleb128 0x1
 3296 0140 50       		.byte	0x50
 3297 0141 9F       		.byte	0x9f
 3298 0142 00000000 		.4byte	0
 3299 0146 00000000 		.4byte	0
 3300              	.LLST7:
 3301 014a 06000000 		.4byte	.LVL34
 3302 014e 0E000000 		.4byte	.LVL35
 3303 0152 0100     		.2byte	0x1
 3304 0154 52       		.byte	0x52
 3305 0155 00000000 		.4byte	0
 3306 0159 00000000 		.4byte	0
 3307              	.LLST8:
 3308 015d 00000000 		.4byte	.LVL36
 3309 0161 02000000 		.4byte	.LVL37
 3310 0165 0100     		.2byte	0x1
 3311 0167 50       		.byte	0x50
 3312 0168 02000000 		.4byte	.LVL37
 3313 016c 10000000 		.4byte	.LFE285
 3314 0170 0400     		.2byte	0x4
 3315 0172 F3       		.byte	0xf3
 3316 0173 01       		.uleb128 0x1
 3317 0174 50       		.byte	0x50
 3318 0175 9F       		.byte	0x9f
 3319 0176 00000000 		.4byte	0
 3320 017a 00000000 		.4byte	0
 3321              	.LLST9:
 3322 017e 00000000 		.4byte	.LVL38
 3323 0182 1D000000 		.4byte	.LVL41-1
 3324 0186 0100     		.2byte	0x1
 3325 0188 50       		.byte	0x50
 3326 0189 1D000000 		.4byte	.LVL41-1
 3327 018d 58000000 		.4byte	.LVL45
 3328 0191 0100     		.2byte	0x1
 3329 0193 54       		.byte	0x54
 3330 0194 58000000 		.4byte	.LVL45
 3331 0198 59000000 		.4byte	.LVL46-1
 3332 019c 0100     		.2byte	0x1
 3333 019e 50       		.byte	0x50
 3334 019f 59000000 		.4byte	.LVL46-1
 3335 01a3 5A000000 		.4byte	.LVL46
 3336 01a7 0400     		.2byte	0x4
 3337 01a9 F3       		.byte	0xf3
 3338 01aa 01       		.uleb128 0x1
 3339 01ab 50       		.byte	0x50
 3340 01ac 9F       		.byte	0x9f
 3341 01ad 5A000000 		.4byte	.LVL46
 3342 01b1 5C000000 		.4byte	.LFE286
 3343 01b5 0100     		.2byte	0x1
 3344 01b7 54       		.byte	0x54
 3345 01b8 00000000 		.4byte	0
 3346 01bc 00000000 		.4byte	0
 3347              	.LLST10:
ARM GAS  /tmp/ccYa27rh.s 			page 60


 3348 01c0 06000000 		.4byte	.LVL39
 3349 01c4 0A000000 		.4byte	.LVL40
 3350 01c8 0100     		.2byte	0x1
 3351 01ca 52       		.byte	0x52
 3352 01cb 0A000000 		.4byte	.LVL40
 3353 01cf 58000000 		.4byte	.LVL45
 3354 01d3 0600     		.2byte	0x6
 3355 01d5 75       		.byte	0x75
 3356 01d6 00       		.sleb128 0
 3357 01d7 08       		.byte	0x8
 3358 01d8 FF       		.byte	0xff
 3359 01d9 1A       		.byte	0x1a
 3360 01da 9F       		.byte	0x9f
 3361 01db 5A000000 		.4byte	.LVL46
 3362 01df 5C000000 		.4byte	.LFE286
 3363 01e3 0600     		.2byte	0x6
 3364 01e5 75       		.byte	0x75
 3365 01e6 00       		.sleb128 0
 3366 01e7 08       		.byte	0x8
 3367 01e8 FF       		.byte	0xff
 3368 01e9 1A       		.byte	0x1a
 3369 01ea 9F       		.byte	0x9f
 3370 01eb 00000000 		.4byte	0
 3371 01ef 00000000 		.4byte	0
 3372              		.section	.debug_aranges,"",%progbits
 3373 0000 64000000 		.4byte	0x64
 3374 0004 0200     		.2byte	0x2
 3375 0006 00000000 		.4byte	.Ldebug_info0
 3376 000a 04       		.byte	0x4
 3377 000b 00       		.byte	0
 3378 000c 0000     		.2byte	0
 3379 000e 0000     		.2byte	0
 3380 0010 00000000 		.4byte	.LFB277
 3381 0014 60000000 		.4byte	.LFE277-.LFB277
 3382 0018 00000000 		.4byte	.LFB278
 3383 001c 44010000 		.4byte	.LFE278-.LFB278
 3384 0020 00000000 		.4byte	.LFB279
 3385 0024 6C000000 		.4byte	.LFE279-.LFB279
 3386 0028 00000000 		.4byte	.LFB280
 3387 002c 0C000000 		.4byte	.LFE280-.LFB280
 3388 0030 00000000 		.4byte	.LFB281
 3389 0034 1C000000 		.4byte	.LFE281-.LFB281
 3390 0038 00000000 		.4byte	.LFB282
 3391 003c 1A000000 		.4byte	.LFE282-.LFB282
 3392 0040 00000000 		.4byte	.LFB283
 3393 0044 0C000000 		.4byte	.LFE283-.LFB283
 3394 0048 00000000 		.4byte	.LFB284
 3395 004c 16000000 		.4byte	.LFE284-.LFB284
 3396 0050 00000000 		.4byte	.LFB285
 3397 0054 10000000 		.4byte	.LFE285-.LFB285
 3398 0058 00000000 		.4byte	.LFB286
 3399 005c 5C000000 		.4byte	.LFE286-.LFB286
 3400 0060 00000000 		.4byte	0
 3401 0064 00000000 		.4byte	0
 3402              		.section	.debug_ranges,"",%progbits
 3403              	.Ldebug_ranges0:
 3404 0000 00000000 		.4byte	.LFB277
ARM GAS  /tmp/ccYa27rh.s 			page 61


 3405 0004 60000000 		.4byte	.LFE277
 3406 0008 00000000 		.4byte	.LFB278
 3407 000c 44010000 		.4byte	.LFE278
 3408 0010 00000000 		.4byte	.LFB279
 3409 0014 6C000000 		.4byte	.LFE279
 3410 0018 00000000 		.4byte	.LFB280
 3411 001c 0C000000 		.4byte	.LFE280
 3412 0020 00000000 		.4byte	.LFB281
 3413 0024 1C000000 		.4byte	.LFE281
 3414 0028 00000000 		.4byte	.LFB282
 3415 002c 1A000000 		.4byte	.LFE282
 3416 0030 00000000 		.4byte	.LFB283
 3417 0034 0C000000 		.4byte	.LFE283
 3418 0038 00000000 		.4byte	.LFB284
 3419 003c 16000000 		.4byte	.LFE284
 3420 0040 00000000 		.4byte	.LFB285
 3421 0044 10000000 		.4byte	.LFE285
 3422 0048 00000000 		.4byte	.LFB286
 3423 004c 5C000000 		.4byte	.LFE286
 3424 0050 00000000 		.4byte	0
 3425 0054 00000000 		.4byte	0
 3426              		.section	.debug_line,"",%progbits
 3427              	.Ldebug_line0:
 3428 0000 1A040000 		.section	.debug_str,"MS",%progbits,1
 3428      0200B902 
 3428      00000201 
 3428      FB0E0D00 
 3428      01010101 
 3429              	.LASF47:
 3430 0000 74687265 		.ascii	"threads_list_t\000"
 3430      6164735F 
 3430      6C697374 
 3430      5F7400
 3431              	.LASF155:
 3432 000f 70776D63 		.ascii	"pwmchannel_t\000"
 3432      68616E6E 
 3432      656C5F74 
 3432      00
 3433              	.LASF54:
 3434 001c 72656164 		.ascii	"ready_list_t\000"
 3434      795F6C69 
 3434      73745F74 
 3434      00
 3435              	.LASF108:
 3436 0029 44494552 		.ascii	"DIER\000"
 3436      00
 3437              	.LASF2:
 3438 002e 73697A65 		.ascii	"size_t\000"
 3438      5F7400
 3439              	.LASF177:
 3440 0035 70776D5F 		.ascii	"pwm_lld_serve_interrupt\000"
 3440      6C6C645F 
 3440      73657276 
 3440      655F696E 
 3440      74657272 
 3441              	.LASF60:
 3442 004d 64656C74 		.ascii	"delta\000"
ARM GAS  /tmp/ccYa27rh.s 			page 62


 3442      6100
 3443              	.LASF129:
 3444 0053 7264796D 		.ascii	"rdymsg\000"
 3444      736700
 3445              	.LASF17:
 3446 005a 75696E74 		.ascii	"uint64_t\000"
 3446      36345F74 
 3446      00
 3447              	.LASF73:
 3448 0063 6B65726E 		.ascii	"kernel_stats\000"
 3448      656C5F73 
 3448      74617473 
 3448      00
 3449              	.LASF3:
 3450 0070 5F5F7569 		.ascii	"__uint8_t\000"
 3450      6E74385F 
 3450      7400
 3451              	.LASF53:
 3452 007a 70726576 		.ascii	"prev\000"
 3452      00
 3453              	.LASF106:
 3454 007f 706F7274 		.ascii	"port_intctx\000"
 3454      5F696E74 
 3454      63747800 
 3455              	.LASF52:
 3456 008b 63685F74 		.ascii	"ch_threads_queue\000"
 3456      68726561 
 3456      64735F71 
 3456      75657565 
 3456      00
 3457              	.LASF65:
 3458 009c 73797374 		.ascii	"system_debug_t\000"
 3458      656D5F64 
 3458      65627567 
 3458      5F7400
 3459              	.LASF149:
 3460 00ab 70657269 		.ascii	"period\000"
 3460      6F6400
 3461              	.LASF120:
 3462 00b2 776F7273 		.ascii	"worst\000"
 3462      7400
 3463              	.LASF123:
 3464 00b8 74696D65 		.ascii	"time_measurement_t\000"
 3464      5F6D6561 
 3464      73757265 
 3464      6D656E74 
 3464      5F7400
 3465              	.LASF13:
 3466 00cb 6C6F6E67 		.ascii	"long long unsigned int\000"
 3466      206C6F6E 
 3466      6720756E 
 3466      7369676E 
 3466      65642069 
 3467              	.LASF130:
 3468 00e2 65786974 		.ascii	"exitcode\000"
 3468      636F6465 
 3468      00
ARM GAS  /tmp/ccYa27rh.s 			page 63


 3469              	.LASF184:
 3470 00eb 2E2E2F2E 		.ascii	"../../modules/ChibiOS/os/hal/ports/STM32/LLD/TIMv1/"
 3470      2E2F6D6F 
 3470      64756C65 
 3470      732F4368 
 3470      6962694F 
 3471 011e 68616C5F 		.ascii	"hal_pwm_lld.c\000"
 3471      70776D5F 
 3471      6C6C642E 
 3471      6300
 3472              	.LASF72:
 3473 012c 6D61696E 		.ascii	"mainthread\000"
 3473      74687265 
 3473      616400
 3474              	.LASF133:
 3475 0137 73656E74 		.ascii	"sentmsg\000"
 3475      6D736700 
 3476              	.LASF62:
 3477 013f 76697274 		.ascii	"virtual_timers_list_t\000"
 3477      75616C5F 
 3477      74696D65 
 3477      72735F6C 
 3477      6973745F 
 3478              	.LASF172:
 3479 0155 70776D5F 		.ascii	"pwm_lld_disable_channel\000"
 3479      6C6C645F 
 3479      64697361 
 3479      626C655F 
 3479      6368616E 
 3480              	.LASF112:
 3481 016d 42445452 		.ascii	"BDTR\000"
 3481      00
 3482              	.LASF19:
 3483 0172 72747469 		.ascii	"rttime_t\000"
 3483      6D655F74 
 3483      00
 3484              	.LASF91:
 3485 017b 41484231 		.ascii	"AHB1LPENR\000"
 3485      4C50454E 
 3485      5200
 3486              	.LASF169:
 3487 0185 70776D5F 		.ascii	"pwm_lld_enable_channel\000"
 3487      6C6C645F 
 3487      656E6162 
 3487      6C655F63 
 3487      68616E6E 
 3488              	.LASF38:
 3489 019c 72656673 		.ascii	"refs\000"
 3489      00
 3490              	.LASF109:
 3491 01a1 43434D52 		.ascii	"CCMR1\000"
 3491      3100
 3492              	.LASF110:
 3493 01a7 43434D52 		.ascii	"CCMR2\000"
 3493      3200
 3494              	.LASF114:
 3495 01ad 43434D52 		.ascii	"CCMR3\000"
ARM GAS  /tmp/ccYa27rh.s 			page 64


 3495      3300
 3496              	.LASF1:
 3497 01b3 7369676E 		.ascii	"signed char\000"
 3497      65642063 
 3497      68617200 
 3498              	.LASF77:
 3499 01bf 41484231 		.ascii	"AHB1RSTR\000"
 3499      52535452 
 3499      00
 3500              	.LASF154:
 3501 01c8 70776D6D 		.ascii	"pwmmode_t\000"
 3501      6F64655F 
 3501      7400
 3502              	.LASF179:
 3503 01d2 50574D44 		.ascii	"PWMD1\000"
 3503      3100
 3504              	.LASF185:
 3505 01d8 2F686F6D 		.ascii	"/home/kozinalexey/f4by/ardupilot/build/f4by-ch\000"
 3505      652F6B6F 
 3505      7A696E61 
 3505      6C657865 
 3505      792F6634 
 3506              	.LASF40:
 3507 0207 6D736771 		.ascii	"msgqueue\000"
 3507      75657565 
 3507      00
 3508              	.LASF36:
 3509 0210 73746174 		.ascii	"state\000"
 3509      6500
 3510              	.LASF151:
 3511 0216 6368616E 		.ascii	"channels\000"
 3511      6E656C73 
 3511      00
 3512              	.LASF8:
 3513 021f 6C6F6E67 		.ascii	"long int\000"
 3513      20696E74 
 3513      00
 3514              	.LASF165:
 3515 0228 70776D5F 		.ascii	"pwm_lld_start\000"
 3515      6C6C645F 
 3515      73746172 
 3515      7400
 3516              	.LASF82:
 3517 0236 41504232 		.ascii	"APB2RSTR\000"
 3517      52535452 
 3517      00
 3518              	.LASF175:
 3519 023f 70776D5F 		.ascii	"pwm_lld_enable_channel_notification\000"
 3519      6C6C645F 
 3519      656E6162 
 3519      6C655F63 
 3519      68616E6E 
 3520              	.LASF95:
 3521 0263 41504231 		.ascii	"APB1LPENR\000"
 3521      4C50454E 
 3521      5200
 3522              	.LASF21:
ARM GAS  /tmp/ccYa27rh.s 			page 65


 3523 026d 74737461 		.ascii	"tstate_t\000"
 3523      74655F74 
 3523      00
 3524              	.LASF61:
 3525 0276 66756E63 		.ascii	"func\000"
 3525      00
 3526              	.LASF45:
 3527 027b 73746174 		.ascii	"stats\000"
 3527      7300
 3528              	.LASF153:
 3529 0281 70776D63 		.ascii	"pwmcallback_t\000"
 3529      616C6C62 
 3529      61636B5F 
 3529      7400
 3530              	.LASF75:
 3531 028f 504C4C43 		.ascii	"PLLCFGR\000"
 3531      46475200 
 3532              	.LASF180:
 3533 0297 50574D44 		.ascii	"PWMD2\000"
 3533      3200
 3534              	.LASF181:
 3535 029d 50574D44 		.ascii	"PWMD4\000"
 3535      3400
 3536              	.LASF9:
 3537 02a3 5F5F7569 		.ascii	"__uint32_t\000"
 3537      6E743332 
 3537      5F7400
 3538              	.LASF103:
 3539 02ae 72656761 		.ascii	"regarm_t\000"
 3539      726D5F74 
 3539      00
 3540              	.LASF182:
 3541 02b7 50574D44 		.ascii	"PWMD9\000"
 3541      3900
 3542              	.LASF71:
 3543 02bd 76746C69 		.ascii	"vtlist\000"
 3543      737400
 3544              	.LASF66:
 3545 02c4 63685F73 		.ascii	"ch_system_debug\000"
 3545      79737465 
 3545      6D5F6465 
 3545      62756700 
 3546              	.LASF39:
 3547 02d4 77616974 		.ascii	"waiting\000"
 3547      696E6700 
 3548              	.LASF141:
 3549 02dc 6D757465 		.ascii	"mutex_t\000"
 3549      785F7400 
 3550              	.LASF11:
 3551 02e4 6C6F6E67 		.ascii	"long long int\000"
 3551      206C6F6E 
 3551      6720696E 
 3551      7400
 3552              	.LASF173:
 3553 02f2 70776D5F 		.ascii	"pwm_lld_enable_periodic_notification\000"
 3553      6C6C645F 
 3553      656E6162 
ARM GAS  /tmp/ccYa27rh.s 			page 66


 3553      6C655F70 
 3553      6572696F 
 3554              	.LASF26:
 3555 0317 636E745F 		.ascii	"cnt_t\000"
 3555      7400
 3556              	.LASF0:
 3557 031d 756E7369 		.ascii	"unsigned int\000"
 3557      676E6564 
 3557      20696E74 
 3557      00
 3558              	.LASF183:
 3559 032a 474E5520 		.ascii	"GNU C 4.9.3 20150529 (prerelease) -mcpu=cortex-m4 -"
 3559      4320342E 
 3559      392E3320 
 3559      32303135 
 3559      30353239 
 3560 035d 6D666C6F 		.ascii	"mfloat-abi=hard -mfpu=fpv4-sp-d16 -mno-thumb-interw"
 3560      61742D61 
 3560      62693D68 
 3560      61726420 
 3560      2D6D6670 
 3561 0390 6F726B20 		.ascii	"ork -mthumb -g -Os -fomit-frame-pointer -falign-fun"
 3561      2D6D7468 
 3561      756D6220 
 3561      2D67202D 
 3561      4F73202D 
 3562 03c3 6374696F 		.ascii	"ctions=16 -ffunction-sections -fdata-sections -fno-"
 3562      6E733D31 
 3562      36202D66 
 3562      66756E63 
 3562      74696F6E 
 3563 03f6 636F6D6D 		.ascii	"common -fsingle-precision-constant\000"
 3563      6F6E202D 
 3563      6673696E 
 3563      676C652D 
 3563      70726563 
 3564              	.LASF134:
 3565 0419 77747365 		.ascii	"wtsemp\000"
 3565      6D7000
 3566              	.LASF132:
 3567 0420 77747472 		.ascii	"wttrp\000"
 3567      7000
 3568              	.LASF102:
 3569 0426 5243435F 		.ascii	"RCC_TypeDef\000"
 3569      54797065 
 3569      44656600 
 3570              	.LASF48:
 3571 0432 63685F74 		.ascii	"ch_thread\000"
 3571      68726561 
 3571      6400
 3572              	.LASF124:
 3573 043c 6E5F6972 		.ascii	"n_irq\000"
 3573      7100
 3574              	.LASF30:
 3575 0442 71756575 		.ascii	"queue\000"
 3575      6500
 3576              	.LASF171:
ARM GAS  /tmp/ccYa27rh.s 			page 67


 3577 0448 77696474 		.ascii	"width\000"
 3577      6800
 3578              	.LASF44:
 3579 044e 6D706F6F 		.ascii	"mpool\000"
 3579      6C00
 3580              	.LASF119:
 3581 0454 62657374 		.ascii	"best\000"
 3581      00
 3582              	.LASF107:
 3583 0459 534D4352 		.ascii	"SMCR\000"
 3583      00
 3584              	.LASF128:
 3585 045e 6B65726E 		.ascii	"kernel_stats_t\000"
 3585      656C5F73 
 3585      74617473 
 3585      5F7400
 3586              	.LASF34:
 3587 046d 6E616D65 		.ascii	"name\000"
 3587      00
 3588              	.LASF101:
 3589 0472 504C4C49 		.ascii	"PLLI2SCFGR\000"
 3589      32534346 
 3589      475200
 3590              	.LASF24:
 3591 047d 6D73675F 		.ascii	"msg_t\000"
 3591      7400
 3592              	.LASF79:
 3593 0483 41484233 		.ascii	"AHB3RSTR\000"
 3593      52535452 
 3593      00
 3594              	.LASF49:
 3595 048c 63685F74 		.ascii	"ch_threads_list\000"
 3595      68726561 
 3595      64735F6C 
 3595      69737400 
 3596              	.LASF27:
 3597 049c 75636E74 		.ascii	"ucnt_t\000"
 3597      5F7400
 3598              	.LASF41:
 3599 04a3 6570656E 		.ascii	"epending\000"
 3599      64696E67 
 3599      00
 3600              	.LASF68:
 3601 04ac 63685F73 		.ascii	"ch_system_t\000"
 3601      79737465 
 3601      6D5F7400 
 3602              	.LASF159:
 3603 04b8 63616C6C 		.ascii	"callback\000"
 3603      6261636B 
 3603      00
 3604              	.LASF116:
 3605 04c1 73746D33 		.ascii	"stm32_tim_t\000"
 3605      325F7469 
 3605      6D5F7400 
 3606              	.LASF96:
 3607 04cd 41504232 		.ascii	"APB2LPENR\000"
 3607      4C50454E 
ARM GAS  /tmp/ccYa27rh.s 			page 68


 3607      5200
 3608              	.LASF127:
 3609 04d7 6D5F6372 		.ascii	"m_crit_isr\000"
 3609      69745F69 
 3609      737200
 3610              	.LASF55:
 3611 04e2 63685F72 		.ascii	"ch_ready_list\000"
 3611      65616479 
 3611      5F6C6973 
 3611      7400
 3612              	.LASF25:
 3613 04f0 6576656E 		.ascii	"eventmask_t\000"
 3613      746D6173 
 3613      6B5F7400 
 3614              	.LASF176:
 3615 04fc 70776D5F 		.ascii	"pwm_lld_disable_channel_notification\000"
 3615      6C6C645F 
 3615      64697361 
 3615      626C655F 
 3615      6368616E 
 3616              	.LASF166:
 3617 0521 63636572 		.ascii	"ccer\000"
 3617      00
 3618              	.LASF7:
 3619 0526 5F5F696E 		.ascii	"__int32_t\000"
 3619      7433325F 
 3619      7400
 3620              	.LASF168:
 3621 0530 70776D70 		.ascii	"pwmp\000"
 3621      00
 3622              	.LASF104:
 3623 0535 73746B61 		.ascii	"stkalign_t\000"
 3623      6C69676E 
 3623      5F7400
 3624              	.LASF32:
 3625 0540 6E657765 		.ascii	"newer\000"
 3625      7200
 3626              	.LASF58:
 3627 0546 76697274 		.ascii	"virtual_timer_t\000"
 3627      75616C5F 
 3627      74696D65 
 3627      725F7400 
 3628              	.LASF43:
 3629 0556 7265616C 		.ascii	"realprio\000"
 3629      7072696F 
 3629      00
 3630              	.LASF74:
 3631 055f 73697A65 		.ascii	"sizetype\000"
 3631      74797065 
 3631      00
 3632              	.LASF46:
 3633 0568 74687265 		.ascii	"thread_reference_t\000"
 3633      61645F72 
 3633      65666572 
 3633      656E6365 
 3633      5F7400
 3634              	.LASF63:
ARM GAS  /tmp/ccYa27rh.s 			page 69


 3635 057b 63685F76 		.ascii	"ch_virtual_timers_list\000"
 3635      69727475 
 3635      616C5F74 
 3635      696D6572 
 3635      735F6C69 
 3636              	.LASF86:
 3637 0592 41484233 		.ascii	"AHB3ENR\000"
 3637      454E5200 
 3638              	.LASF164:
 3639 059a 70776D5F 		.ascii	"pwm_lld_init\000"
 3639      6C6C645F 
 3639      696E6974 
 3639      00
 3640              	.LASF92:
 3641 05a7 41484232 		.ascii	"AHB2LPENR\000"
 3641      4C50454E 
 3641      5200
 3642              	.LASF118:
 3643 05b1 746D5F63 		.ascii	"tm_calibration_t\000"
 3643      616C6962 
 3643      72617469 
 3643      6F6E5F74 
 3643      00
 3644              	.LASF31:
 3645 05c2 7072696F 		.ascii	"prio\000"
 3645      00
 3646              	.LASF81:
 3647 05c7 41504231 		.ascii	"APB1RSTR\000"
 3647      52535452 
 3647      00
 3648              	.LASF56:
 3649 05d0 63757272 		.ascii	"current\000"
 3649      656E7400 
 3650              	.LASF12:
 3651 05d8 5F5F7569 		.ascii	"__uint64_t\000"
 3651      6E743634 
 3651      5F7400
 3652              	.LASF122:
 3653 05e3 63756D75 		.ascii	"cumulative\000"
 3653      6C617469 
 3653      766500
 3654              	.LASF174:
 3655 05ee 70776D5F 		.ascii	"pwm_lld_disable_periodic_notification\000"
 3655      6C6C645F 
 3655      64697361 
 3655      626C655F 
 3655      70657269 
 3656              	.LASF22:
 3657 0614 74726566 		.ascii	"trefs_t\000"
 3657      735F7400 
 3658              	.LASF80:
 3659 061c 52455345 		.ascii	"RESERVED0\000"
 3659      52564544 
 3659      3000
 3660              	.LASF83:
 3661 0626 52455345 		.ascii	"RESERVED1\000"
 3661      52564544 
ARM GAS  /tmp/ccYa27rh.s 			page 70


 3661      3100
 3662              	.LASF87:
 3663 0630 52455345 		.ascii	"RESERVED2\000"
 3663      52564544 
 3663      3200
 3664              	.LASF90:
 3665 063a 52455345 		.ascii	"RESERVED3\000"
 3665      52564544 
 3665      3300
 3666              	.LASF94:
 3667 0644 52455345 		.ascii	"RESERVED4\000"
 3667      52564544 
 3667      3400
 3668              	.LASF97:
 3669 064e 52455345 		.ascii	"RESERVED5\000"
 3669      52564544 
 3669      3500
 3670              	.LASF99:
 3671 0658 52455345 		.ascii	"RESERVED6\000"
 3671      52564544 
 3671      3600
 3672              	.LASF145:
 3673 0662 50574D5F 		.ascii	"PWM_READY\000"
 3673      52454144 
 3673      5900
 3674              	.LASF23:
 3675 066c 74707269 		.ascii	"tprio_t\000"
 3675      6F5F7400 
 3676              	.LASF125:
 3677 0674 6E5F6374 		.ascii	"n_ctxswc\000"
 3677      78737763 
 3677      00
 3678              	.LASF142:
 3679 067d 5F426F6F 		.ascii	"_Bool\000"
 3679      6C00
 3680              	.LASF15:
 3681 0683 696E7433 		.ascii	"int32_t\000"
 3681      325F7400 
 3682              	.LASF4:
 3683 068b 756E7369 		.ascii	"unsigned char\000"
 3683      676E6564 
 3683      20636861 
 3683      7200
 3684              	.LASF178:
 3685 0699 49544D5F 		.ascii	"ITM_RxBuffer\000"
 3685      52784275 
 3685      66666572 
 3685      00
 3686              	.LASF5:
 3687 06a6 73686F72 		.ascii	"short int\000"
 3687      7420696E 
 3687      7400
 3688              	.LASF64:
 3689 06b0 6C617374 		.ascii	"lasttime\000"
 3689      74696D65 
 3689      00
 3690              	.LASF93:
ARM GAS  /tmp/ccYa27rh.s 			page 71


 3691 06b9 41484233 		.ascii	"AHB3LPENR\000"
 3691      4C50454E 
 3691      5200
 3692              	.LASF136:
 3693 06c3 65776D61 		.ascii	"ewmask\000"
 3693      736B00
 3694              	.LASF156:
 3695 06ca 70776D63 		.ascii	"pwmchnmsk_t\000"
 3695      686E6D73 
 3695      6B5F7400 
 3696              	.LASF186:
 3697 06d6 5F5F6675 		.ascii	"__func__\000"
 3697      6E635F5F 
 3697      00
 3698              	.LASF161:
 3699 06df 66726571 		.ascii	"frequency\000"
 3699      75656E63 
 3699      7900
 3700              	.LASF69:
 3701 06e9 63685F73 		.ascii	"ch_system\000"
 3701      79737465 
 3701      6D00
 3702              	.LASF89:
 3703 06f3 41504232 		.ascii	"APB2ENR\000"
 3703      454E5200 
 3704              	.LASF170:
 3705 06fb 6368616E 		.ascii	"channel\000"
 3705      6E656C00 
 3706              	.LASF59:
 3707 0703 63685F76 		.ascii	"ch_virtual_timer\000"
 3707      69727475 
 3707      616C5F74 
 3707      696D6572 
 3707      00
 3708              	.LASF137:
 3709 0714 63685F73 		.ascii	"ch_semaphore\000"
 3709      656D6170 
 3709      686F7265 
 3709      00
 3710              	.LASF115:
 3711 0721 43435852 		.ascii	"CCXR\000"
 3711      00
 3712              	.LASF167:
 3713 0726 70776D5F 		.ascii	"pwm_lld_stop\000"
 3713      6C6C645F 
 3713      73746F70 
 3713      00
 3714              	.LASF16:
 3715 0733 75696E74 		.ascii	"uint32_t\000"
 3715      33325F74 
 3715      00
 3716              	.LASF135:
 3717 073c 77746D74 		.ascii	"wtmtxp\000"
 3717      787000
 3718              	.LASF150:
 3719 0743 656E6162 		.ascii	"enabled\000"
 3719      6C656400 
ARM GAS  /tmp/ccYa27rh.s 			page 72


 3720              	.LASF139:
 3721 074b 6F776E65 		.ascii	"owner\000"
 3721      7200
 3722              	.LASF10:
 3723 0751 6C6F6E67 		.ascii	"long unsigned int\000"
 3723      20756E73 
 3723      69676E65 
 3723      6420696E 
 3723      7400
 3724              	.LASF35:
 3725 0763 77616261 		.ascii	"wabase\000"
 3725      736500
 3726              	.LASF144:
 3727 076a 50574D5F 		.ascii	"PWM_STOP\000"
 3727      53544F50 
 3727      00
 3728              	.LASF140:
 3729 0773 63686172 		.ascii	"char\000"
 3729      00
 3730              	.LASF33:
 3731 0778 6F6C6465 		.ascii	"older\000"
 3731      7200
 3732              	.LASF158:
 3733 077e 6D6F6465 		.ascii	"mode\000"
 3733      00
 3734              	.LASF148:
 3735 0783 636F6E66 		.ascii	"config\000"
 3735      696700
 3736              	.LASF113:
 3737 078a 444D4152 		.ascii	"DMAR\000"
 3737      00
 3738              	.LASF78:
 3739 078f 41484232 		.ascii	"AHB2RSTR\000"
 3739      52535452 
 3739      00
 3740              	.LASF29:
 3741 0798 74687265 		.ascii	"thread_t\000"
 3741      61645F74 
 3741      00
 3742              	.LASF111:
 3743 07a1 43434552 		.ascii	"CCER\000"
 3743      00
 3744              	.LASF28:
 3745 07a6 73797374 		.ascii	"systime_t\000"
 3745      696D655F 
 3745      7400
 3746              	.LASF57:
 3747 07b0 76746675 		.ascii	"vtfunc_t\000"
 3747      6E635F74 
 3747      00
 3748              	.LASF121:
 3749 07b9 6C617374 		.ascii	"last\000"
 3749      00
 3750              	.LASF67:
 3751 07be 70616E69 		.ascii	"panic_msg\000"
 3751      635F6D73 
 3751      6700
ARM GAS  /tmp/ccYa27rh.s 			page 73


 3752              	.LASF117:
 3753 07c8 6F666673 		.ascii	"offset\000"
 3753      657400
 3754              	.LASF88:
 3755 07cf 41504231 		.ascii	"APB1ENR\000"
 3755      454E5200 
 3756              	.LASF85:
 3757 07d7 41484232 		.ascii	"AHB2ENR\000"
 3757      454E5200 
 3758              	.LASF6:
 3759 07df 73686F72 		.ascii	"short unsigned int\000"
 3759      7420756E 
 3759      7369676E 
 3759      65642069 
 3759      6E7400
 3760              	.LASF160:
 3761 07f2 50574D43 		.ascii	"PWMChannelConfig\000"
 3761      68616E6E 
 3761      656C436F 
 3761      6E666967 
 3761      00
 3762              	.LASF18:
 3763 0803 7274636E 		.ascii	"rtcnt_t\000"
 3763      745F7400 
 3764              	.LASF105:
 3765 080b 706F7274 		.ascii	"port_context\000"
 3765      5F636F6E 
 3765      74657874 
 3765      00
 3766              	.LASF100:
 3767 0818 53534347 		.ascii	"SSCGR\000"
 3767      5200
 3768              	.LASF163:
 3769 081e 50574D43 		.ascii	"PWMConfig\000"
 3769      6F6E6669 
 3769      6700
 3770              	.LASF51:
 3771 0828 74687265 		.ascii	"threads_queue_t\000"
 3771      6164735F 
 3771      71756575 
 3771      655F7400 
 3772              	.LASF138:
 3773 0838 63685F6D 		.ascii	"ch_mutex\000"
 3773      75746578 
 3773      00
 3774              	.LASF98:
 3775 0841 42444352 		.ascii	"BDCR\000"
 3775      00
 3776              	.LASF70:
 3777 0846 726C6973 		.ascii	"rlist\000"
 3777      7400
 3778              	.LASF14:
 3779 084c 75696E74 		.ascii	"uint8_t\000"
 3779      385F7400 
 3780              	.LASF147:
 3781 0854 50574D44 		.ascii	"PWMDriver\000"
 3781      72697665 
ARM GAS  /tmp/ccYa27rh.s 			page 74


 3781      7200
 3782              	.LASF37:
 3783 085e 666C6167 		.ascii	"flags\000"
 3783      7300
 3784              	.LASF146:
 3785 0864 70776D73 		.ascii	"pwmstate_t\000"
 3785      74617465 
 3785      5F7400
 3786              	.LASF157:
 3787 086f 70776D63 		.ascii	"pwmcnt_t\000"
 3787      6E745F74 
 3787      00
 3788              	.LASF131:
 3789 0878 77746F62 		.ascii	"wtobjp\000"
 3789      6A7000
 3790              	.LASF84:
 3791 087f 41484231 		.ascii	"AHB1ENR\000"
 3791      454E5200 
 3792              	.LASF50:
 3793 0887 6E657874 		.ascii	"next\000"
 3793      00
 3794              	.LASF76:
 3795 088c 43464752 		.ascii	"CFGR\000"
 3795      00
 3796              	.LASF20:
 3797 0891 746D6F64 		.ascii	"tmode_t\000"
 3797      655F7400 
 3798              	.LASF152:
 3799 0899 636C6F63 		.ascii	"clock\000"
 3799      6B00
 3800              	.LASF42:
 3801 089f 6D74786C 		.ascii	"mtxlist\000"
 3801      69737400 
 3802              	.LASF143:
 3803 08a7 50574D5F 		.ascii	"PWM_UNINIT\000"
 3803      554E494E 
 3803      495400
 3804              	.LASF126:
 3805 08b2 6D5F6372 		.ascii	"m_crit_thd\000"
 3805      69745F74 
 3805      686400
 3806              	.LASF187:
 3807 08bd 70776D4F 		.ascii	"pwmObjectInit\000"
 3807      626A6563 
 3807      74496E69 
 3807      7400
 3808              	.LASF162:
 3809 08cb 64696572 		.ascii	"dier\000"
 3809      00
 3810              		.ident	"GCC: (15:4.9.3+svn231177-1) 4.9.3 20150529 (prerelease)"
ARM GAS  /tmp/ccYa27rh.s 			page 75


DEFINED SYMBOLS
                            *ABS*:0000000000000000 hal_pwm_lld.c
     /tmp/ccYa27rh.s:21     .text.pwm_lld_init:0000000000000000 $t
     /tmp/ccYa27rh.s:26     .text.pwm_lld_init:0000000000000000 pwm_lld_init
     /tmp/ccYa27rh.s:86     .text.pwm_lld_init:0000000000000044 $d
     /tmp/ccYa27rh.s:97     .text.pwm_lld_start:0000000000000000 $t
     /tmp/ccYa27rh.s:102    .text.pwm_lld_start:0000000000000000 pwm_lld_start
     /tmp/ccYa27rh.s:325    .text.pwm_lld_start:0000000000000130 $d
     /tmp/ccYa27rh.s:334    .text.pwm_lld_stop:0000000000000000 $t
     /tmp/ccYa27rh.s:339    .text.pwm_lld_stop:0000000000000000 pwm_lld_stop
     /tmp/ccYa27rh.s:408    .text.pwm_lld_stop:0000000000000058 $d
     /tmp/ccYa27rh.s:417    .text.pwm_lld_enable_channel:0000000000000000 $t
     /tmp/ccYa27rh.s:422    .text.pwm_lld_enable_channel:0000000000000000 pwm_lld_enable_channel
     /tmp/ccYa27rh.s:441    .text.pwm_lld_disable_channel:0000000000000000 $t
     /tmp/ccYa27rh.s:446    .text.pwm_lld_disable_channel:0000000000000000 pwm_lld_disable_channel
     /tmp/ccYa27rh.s:472    .text.pwm_lld_enable_periodic_notification:0000000000000000 $t
     /tmp/ccYa27rh.s:477    .text.pwm_lld_enable_periodic_notification:0000000000000000 pwm_lld_enable_periodic_notification
     /tmp/ccYa27rh.s:506    .text.pwm_lld_disable_periodic_notification:0000000000000000 $t
     /tmp/ccYa27rh.s:511    .text.pwm_lld_disable_periodic_notification:0000000000000000 pwm_lld_disable_periodic_notification
     /tmp/ccYa27rh.s:529    .text.pwm_lld_enable_channel_notification:0000000000000000 $t
     /tmp/ccYa27rh.s:534    .text.pwm_lld_enable_channel_notification:0000000000000000 pwm_lld_enable_channel_notification
     /tmp/ccYa27rh.s:568    .text.pwm_lld_disable_channel_notification:0000000000000000 $t
     /tmp/ccYa27rh.s:573    .text.pwm_lld_disable_channel_notification:0000000000000000 pwm_lld_disable_channel_notification
     /tmp/ccYa27rh.s:594    .text.pwm_lld_serve_interrupt:0000000000000000 $t
     /tmp/ccYa27rh.s:599    .text.pwm_lld_serve_interrupt:0000000000000000 pwm_lld_serve_interrupt
     /tmp/ccYa27rh.s:738    .bss.PWMD9:0000000000000000 PWMD9
     /tmp/ccYa27rh.s:731    .bss.PWMD4:0000000000000000 PWMD4
     /tmp/ccYa27rh.s:724    .bss.PWMD2:0000000000000000 PWMD2
     /tmp/ccYa27rh.s:717    .bss.PWMD1:0000000000000000 PWMD1
     /tmp/ccYa27rh.s:713    .bss.PWMD1:0000000000000000 $d
     /tmp/ccYa27rh.s:720    .bss.PWMD2:0000000000000000 $d
     /tmp/ccYa27rh.s:727    .bss.PWMD4:0000000000000000 $d
     /tmp/ccYa27rh.s:734    .bss.PWMD9:0000000000000000 $d
                     .debug_frame:0000000000000010 $d

UNDEFINED SYMBOLS
pwmObjectInit
