ARM GAS  /tmp/ccnukN9d.s 			page 1


   1              		.syntax unified
   2              		.cpu cortex-m4
   3              		.eabi_attribute 27, 1
   4              		.eabi_attribute 28, 1
   5              		.fpu fpv4-sp-d16
   6              		.eabi_attribute 20, 1
   7              		.eabi_attribute 21, 1
   8              		.eabi_attribute 23, 3
   9              		.eabi_attribute 24, 1
  10              		.eabi_attribute 25, 1
  11              		.eabi_attribute 26, 1
  12              		.eabi_attribute 30, 4
  13              		.eabi_attribute 34, 1
  14              		.eabi_attribute 18, 4
  15              		.thumb
  16              		.file	"hal_pal.c"
  17              		.text
  18              	.Ltext0:
  19              		.cfi_sections	.debug_frame
  20              		.section	.text.palReadBus,"ax",%progbits
  21              		.align	1
  22              		.global	palReadBus
  23              		.thumb
  24              		.thumb_func
  25              		.type	palReadBus, %function
  26              	palReadBus:
  27              	.LFB277:
  28              		.file 1 "../../modules/ChibiOS/os/hal/src/hal_pal.c"
  29              		.loc 1 65 0
  30              		.cfi_startproc
  31              		@ args = 0, pretend = 0, frame = 0
  32              		@ frame_needed = 0, uses_anonymous_args = 0
  33              		@ link register save eliminated.
  34              	.LVL0:
  35              		.loc 1 69 0
  36 0000 0368     		ldr	r3, [r0]
  37 0002 8268     		ldr	r2, [r0, #8]
  38 0004 1B69     		ldr	r3, [r3, #16]
  39 0006 4068     		ldr	r0, [r0, #4]
  40              	.LVL1:
  41 0008 D340     		lsrs	r3, r3, r2
  42              		.loc 1 70 0
  43 000a 1840     		ands	r0, r0, r3
  44 000c 7047     		bx	lr
  45              		.cfi_endproc
  46              	.LFE277:
  47              		.size	palReadBus, .-palReadBus
  48              		.section	.text.palWriteBus,"ax",%progbits
  49              		.align	1
  50              		.global	palWriteBus
  51              		.thumb
  52              		.thumb_func
  53              		.type	palWriteBus, %function
  54              	palWriteBus:
  55              	.LFB278:
  56              		.loc 1 90 0
  57              		.cfi_startproc
ARM GAS  /tmp/ccnukN9d.s 			page 2


  58              		@ args = 0, pretend = 0, frame = 0
  59              		@ frame_needed = 0, uses_anonymous_args = 0
  60              	.LVL2:
  61              		.loc 1 94 0
  62 0000 4368     		ldr	r3, [r0, #4]
  63              		.loc 1 90 0
  64 0002 30B5     		push	{r4, r5, lr}
  65              		.cfi_def_cfa_offset 12
  66              		.cfi_offset 4, -12
  67              		.cfi_offset 5, -8
  68              		.cfi_offset 14, -4
  69              		.loc 1 94 0
  70 0004 0468     		ldr	r4, [r0]
  71 0006 8068     		ldr	r0, [r0, #8]
  72              	.LVL3:
  73 0008 23EA0102 		bic	r2, r3, r1
  74 000c 00F11005 		add	r5, r0, #16
  75 0010 0B40     		ands	r3, r3, r1
  76 0012 AA40     		lsls	r2, r2, r5
  77 0014 8340     		lsls	r3, r3, r0
  78 0016 1343     		orrs	r3, r3, r2
  79 0018 A361     		str	r3, [r4, #24]
  80 001a 30BD     		pop	{r4, r5, pc}
  81              		.cfi_endproc
  82              	.LFE278:
  83              		.size	palWriteBus, .-palWriteBus
  84              		.section	.text.palSetBusMode,"ax",%progbits
  85              		.align	1
  86              		.global	palSetBusMode
  87              		.thumb
  88              		.thumb_func
  89              		.type	palSetBusMode, %function
  90              	palSetBusMode:
  91              	.LFB279:
  92              		.loc 1 113 0
  93              		.cfi_startproc
  94              		@ args = 0, pretend = 0, frame = 0
  95              		@ frame_needed = 0, uses_anonymous_args = 0
  96              		@ link register save eliminated.
  97              	.LVL4:
  98              		.loc 1 113 0
  99 0000 0A46     		mov	r2, r1
 100              		.loc 1 117 0
 101 0002 0BC8     		ldmia	r0, {r0, r1, r3}
 102              	.LVL5:
 103 0004 9940     		lsls	r1, r1, r3
 104 0006 FFF7FEBF 		b	_pal_lld_setgroupmode
 105              	.LVL6:
 106              		.cfi_endproc
 107              	.LFE279:
 108              		.size	palSetBusMode, .-palSetBusMode
 109              		.text
 110              	.Letext0:
 111              		.file 2 "/usr/include/newlib/machine/_default_types.h"
 112              		.file 3 "/usr/include/newlib/sys/_stdint.h"
 113              		.file 4 "/usr/include/newlib/stdint.h"
 114              		.file 5 "../../modules/ChibiOS/os/common/ports/ARMCMx/compilers/GCC/chtypes.h"
ARM GAS  /tmp/ccnukN9d.s 			page 3


 115              		.file 6 "../../modules/ChibiOS/os/rt/include/chsystypes.h"
 116              		.file 7 "../../modules/ChibiOS/os/rt/include/chschd.h"
 117              		.file 8 "../../modules/ChibiOS/os/common/ports/ARMCMx/chcore.h"
 118              		.file 9 "../../modules/ChibiOS/os/common/ports/ARMCMx/chcore_v7m.h"
 119              		.file 10 "../../modules/ChibiOS/os/rt/include/chtm.h"
 120              		.file 11 "../../modules/ChibiOS/os/rt/include/chstats.h"
 121              		.file 12 "../../modules/ChibiOS/os/rt/include/chsem.h"
 122              		.file 13 "../../modules/ChibiOS/os/rt/include/chmtx.h"
 123              		.file 14 "../../modules/ChibiOS/os/hal/ports/STM32/LLD/GPIOv2/hal_pal_lld.h"
 124              		.file 15 "../../modules/ChibiOS/os/hal/include/hal_pal.h"
 125              		.file 16 "../../modules/ChibiOS/os/common/ext/CMSIS/include/core_cm4.h"