ARM GAS  /tmp/cczk2hoJ.s 			page 1


   1              		.syntax unified
   2              		.cpu cortex-m4
   3              		.eabi_attribute 27, 1
   4              		.eabi_attribute 28, 1
   5              		.fpu fpv4-sp-d16
   6              		.eabi_attribute 20, 1
   7              		.eabi_attribute 21, 1
   8              		.eabi_attribute 23, 3
   9              		.eabi_attribute 24, 1
  10              		.eabi_attribute 25, 1
  11              		.eabi_attribute 26, 1
  12              		.eabi_attribute 30, 4
  13              		.eabi_attribute 34, 1
  14              		.eabi_attribute 18, 4
  15              		.thumb
  16              		.file	"hal_serial_usb.c"
  17              		.text
  18              	.Ltext0:
  19              		.cfi_sections	.debug_frame
  20              		.section	.text.obnotify,"ax",%progbits
  21              		.align	1
  22              		.thumb
  23              		.thumb_func
  24              		.type	obnotify, %function
  25              	obnotify:
  26              	.LFB287:
  27              		.file 1 "../../modules/ChibiOS/os/hal/src/hal_serial_usb.c"
  28              		.loc 1 147 0
  29              		.cfi_startproc
  30              		@ args = 0, pretend = 0, frame = 8
  31              		@ frame_needed = 0, uses_anonymous_args = 0
  32              	.LVL0:
  33 0000 13B5     		push	{r0, r1, r4, lr}
  34              		.cfi_def_cfa_offset 16
  35              		.cfi_offset 4, -8
  36              		.cfi_offset 14, -4
  37              		.loc 1 149 0
  38 0002 446B     		ldr	r4, [r0, #52]
  39              	.LVL1:
  40              		.loc 1 153 0
  41 0004 D4F88C34 		ldr	r3, [r4, #1164]
  42 0008 1A68     		ldr	r2, [r3]
  43 000a 1178     		ldrb	r1, [r2]	@ zero_extendqisi2
  44 000c 0429     		cmp	r1, #4
  45 000e 16D1     		bne	.L1
  46              		.loc 1 153 0 is_stmt 0 discriminator 1
  47 0010 217A     		ldrb	r1, [r4, #8]	@ zero_extendqisi2
  48 0012 0229     		cmp	r1, #2
  49 0014 13D1     		bne	.L1
  50              		.loc 1 159 0 is_stmt 1
  51 0016 1979     		ldrb	r1, [r3, #4]	@ zero_extendqisi2
  52 0018 1289     		ldrh	r2, [r2, #8]
  53 001a 0123     		movs	r3, #1
  54 001c 8B40     		lsls	r3, r3, r1
  55 001e 1342     		tst	r3, r2
  56 0020 0DD1     		bne	.L1
  57              	.LBB72:
ARM GAS  /tmp/cczk2hoJ.s 			page 2


  58              		.loc 1 161 0
  59 0022 04F14400 		add	r0, r4, #68
  60              	.LVL2:
  61 0026 01A9     		add	r1, sp, #4
  62 0028 FFF7FEFF 		bl	obqGetFullBufferI
  63              	.LVL3:
  64              		.loc 1 162 0
  65 002c 0246     		mov	r2, r0
  66 002e 30B1     		cbz	r0, .L1
  67              		.loc 1 164 0
  68 0030 D4F88C34 		ldr	r3, [r4, #1164]
  69 0034 1868     		ldr	r0, [r3]
  70              	.LVL4:
  71 0036 1979     		ldrb	r1, [r3, #4]	@ zero_extendqisi2
  72 0038 019B     		ldr	r3, [sp, #4]
  73 003a FFF7FEFF 		bl	usbStartTransmitI
  74              	.LVL5:
  75              	.L1:
  76              	.LBE72:
  77              		.loc 1 167 0
  78 003e 02B0     		add	sp, sp, #8
  79              		.cfi_def_cfa_offset 8
  80              		@ sp needed
  81 0040 10BD     		pop	{r4, pc}
  82              		.cfi_endproc
  83              	.LFE287:
  84              		.size	obnotify, .-obnotify
  85              		.section	.text._readt,"ax",%progbits
  86              		.align	1
  87              		.thumb
  88              		.thumb_func
  89              		.type	_readt, %function
  90              	_readt:
  91              	.LFB285:
  92              		.loc 1 122 0
  93              		.cfi_startproc
  94              		@ args = 0, pretend = 0, frame = 0
  95              		@ frame_needed = 0, uses_anonymous_args = 0
  96              		@ link register save eliminated.
  97              	.LVL6:
  98              		.loc 1 124 0
  99 0000 0C30     		adds	r0, r0, #12
 100              	.LVL7:
 101 0002 FFF7FEBF 		b	ibqReadTimeout
 102              	.LVL8:
 103              		.cfi_endproc
 104              	.LFE285:
 105              		.size	_readt, .-_readt
 106              		.section	.text._read,"ax",%progbits
 107              		.align	1
 108              		.thumb
 109              		.thumb_func
 110              		.type	_read, %function
 111              	_read:
 112              	.LFB279:
 113              		.loc 1 91 0
 114              		.cfi_startproc
ARM GAS  /tmp/cczk2hoJ.s 			page 3


 115              		@ args = 0, pretend = 0, frame = 0
 116              		@ frame_needed = 0, uses_anonymous_args = 0
 117              		@ link register save eliminated.
 118              	.LVL9:
 119              		.loc 1 93 0
 120 0000 0C30     		adds	r0, r0, #12
 121              	.LVL10:
 122 0002 4FF0FF33 		mov	r3, #-1
 123 0006 FFF7FEBF 		b	ibqReadTimeout
 124              	.LVL11:
 125              		.cfi_endproc
 126              	.LFE279:
 127              		.size	_read, .-_read
 128              		.section	.text._writet,"ax",%progbits
 129              		.align	1
 130              		.thumb
 131              		.thumb_func
 132              		.type	_writet, %function
 133              	_writet:
 134              	.LFB284:
 135              		.loc 1 117 0
 136              		.cfi_startproc
 137              		@ args = 0, pretend = 0, frame = 0
 138              		@ frame_needed = 0, uses_anonymous_args = 0
 139              		@ link register save eliminated.
 140              	.LVL12:
 141              		.loc 1 119 0
 142 0000 4430     		adds	r0, r0, #68
 143              	.LVL13:
 144 0002 FFF7FEBF 		b	obqWriteTimeout
 145              	.LVL14:
 146              		.cfi_endproc
 147              	.LFE284:
 148              		.size	_writet, .-_writet
 149              		.section	.text._write,"ax",%progbits
 150              		.align	1
 151              		.thumb
 152              		.thumb_func
 153              		.type	_write, %function
 154              	_write:
 155              	.LFB278:
 156              		.loc 1 85 0
 157              		.cfi_startproc
 158              		@ args = 0, pretend = 0, frame = 0
 159              		@ frame_needed = 0, uses_anonymous_args = 0
 160              		@ link register save eliminated.
 161              	.LVL15:
 162              		.loc 1 87 0
 163 0000 4430     		adds	r0, r0, #68
 164              	.LVL16:
 165 0002 4FF0FF33 		mov	r3, #-1
 166 0006 FFF7FEBF 		b	obqWriteTimeout
 167              	.LVL17:
 168              		.cfi_endproc
 169              	.LFE278:
 170              		.size	_write, .-_write
 171              		.section	.text._gett,"ax",%progbits
ARM GAS  /tmp/cczk2hoJ.s 			page 4


 172              		.align	1
 173              		.thumb
 174              		.thumb_func
 175              		.type	_gett, %function
 176              	_gett:
 177              	.LFB283:
 178              		.loc 1 112 0
 179              		.cfi_startproc
 180              		@ args = 0, pretend = 0, frame = 0
 181              		@ frame_needed = 0, uses_anonymous_args = 0
 182              		@ link register save eliminated.
 183              	.LVL18:
 184              		.loc 1 114 0
 185 0000 0C30     		adds	r0, r0, #12
 186              	.LVL19:
 187 0002 FFF7FEBF 		b	ibqGetTimeout
 188              	.LVL20:
 189              		.cfi_endproc
 190              	.LFE283:
 191              		.size	_gett, .-_gett
 192              		.section	.text._get,"ax",%progbits
 193              		.align	1
 194              		.thumb
 195              		.thumb_func
 196              		.type	_get, %function
 197              	_get:
 198              	.LFB281:
 199              		.loc 1 102 0
 200              		.cfi_startproc
 201              		@ args = 0, pretend = 0, frame = 0
 202              		@ frame_needed = 0, uses_anonymous_args = 0
 203              		@ link register save eliminated.
 204              	.LVL21:
 205              		.loc 1 104 0
 206 0000 0C30     		adds	r0, r0, #12
 207              	.LVL22:
 208 0002 4FF0FF31 		mov	r1, #-1
 209 0006 FFF7FEBF 		b	ibqGetTimeout
 210              	.LVL23:
 211              		.cfi_endproc
 212              	.LFE281:
 213              		.size	_get, .-_get
 214              		.section	.text._putt,"ax",%progbits
 215              		.align	1
 216              		.thumb
 217              		.thumb_func
 218              		.type	_putt, %function
 219              	_putt:
 220              	.LFB282:
 221              		.loc 1 107 0
 222              		.cfi_startproc
 223              		@ args = 0, pretend = 0, frame = 0
 224              		@ frame_needed = 0, uses_anonymous_args = 0
 225              		@ link register save eliminated.
 226              	.LVL24:
 227              		.loc 1 109 0
 228 0000 4430     		adds	r0, r0, #68
ARM GAS  /tmp/cczk2hoJ.s 			page 5


 229              	.LVL25:
 230 0002 FFF7FEBF 		b	obqPutTimeout
 231              	.LVL26:
 232              		.cfi_endproc
 233              	.LFE282:
 234              		.size	_putt, .-_putt
 235              		.section	.text._put,"ax",%progbits
 236              		.align	1
 237              		.thumb
 238              		.thumb_func
 239              		.type	_put, %function
 240              	_put:
 241              	.LFB280:
 242              		.loc 1 97 0
 243              		.cfi_startproc
 244              		@ args = 0, pretend = 0, frame = 0
 245              		@ frame_needed = 0, uses_anonymous_args = 0
 246              		@ link register save eliminated.
 247              	.LVL27:
 248              		.loc 1 99 0
 249 0000 4430     		adds	r0, r0, #68
 250              	.LVL28:
 251 0002 4FF0FF32 		mov	r2, #-1
 252 0006 FFF7FEBF 		b	obqPutTimeout
 253              	.LVL29:
 254              		.cfi_endproc
 255              	.LFE280:
 256              		.size	_put, .-_put
 257              		.section	.text.sdu_start_receive,"ax",%progbits
 258              		.align	1
 259              		.thumb
 260              		.thumb_func
 261              		.type	sdu_start_receive, %function
 262              	sdu_start_receive:
 263              	.LFB277:
 264              		.loc 1 53 0
 265              		.cfi_startproc
 266              		@ args = 0, pretend = 0, frame = 0
 267              		@ frame_needed = 0, uses_anonymous_args = 0
 268              	.LVL30:
 269              		.loc 1 58 0
 270 0000 D0F88C24 		ldr	r2, [r0, #1164]
 271              		.loc 1 53 0
 272 0004 38B5     		push	{r3, r4, r5, lr}
 273              		.cfi_def_cfa_offset 16
 274              		.cfi_offset 3, -16
 275              		.cfi_offset 4, -12
 276              		.cfi_offset 5, -8
 277              		.cfi_offset 14, -4
 278              		.loc 1 58 0
 279 0006 1368     		ldr	r3, [r2]
 280 0008 1978     		ldrb	r1, [r3]	@ zero_extendqisi2
 281 000a 0429     		cmp	r1, #4
 282              		.loc 1 53 0
 283 000c 0546     		mov	r5, r0
 284              		.loc 1 58 0
 285 000e 01D0     		beq	.L20
ARM GAS  /tmp/cczk2hoJ.s 			page 6


 286              	.LVL31:
 287              	.L22:
 288              		.loc 1 60 0
 289 0010 0120     		movs	r0, #1
 290 0012 38BD     		pop	{r3, r4, r5, pc}
 291              	.LVL32:
 292              	.L20:
 293              		.loc 1 58 0 discriminator 1
 294 0014 017A     		ldrb	r1, [r0, #8]	@ zero_extendqisi2
 295 0016 0229     		cmp	r1, #2
 296 0018 FAD1     		bne	.L22
 297              		.loc 1 64 0
 298 001a 1279     		ldrb	r2, [r2, #4]	@ zero_extendqisi2
 299 001c 5C89     		ldrh	r4, [r3, #10]
 300 001e 0120     		movs	r0, #1
 301              	.LVL33:
 302 0020 9040     		lsls	r0, r0, r2
 303 0022 0440     		ands	r4, r0, r4
 304 0024 F4D1     		bne	.L22
 305              	.LVL34:
 306              	.LBB75:
 307              	.LBB76:
 308              		.loc 1 69 0
 309 0026 05F10C00 		add	r0, r5, #12
 310 002a FFF7FEFF 		bl	ibqGetEmptyBufferI
 311              	.LVL35:
 312              		.loc 1 70 0
 313 002e 0246     		mov	r2, r0
 314 0030 0028     		cmp	r0, #0
 315 0032 EDD0     		beq	.L22
 316              		.loc 1 75 0
 317 0034 D5F88C34 		ldr	r3, [r5, #1164]
 318 0038 1868     		ldr	r0, [r3]
 319              	.LVL36:
 320 003a 5979     		ldrb	r1, [r3, #5]	@ zero_extendqisi2
 321 003c 4FF48073 		mov	r3, #256
 322 0040 FFF7FEFF 		bl	usbStartReceiveI
 323              	.LVL37:
 324              		.loc 1 78 0
 325 0044 2046     		mov	r0, r4
 326              	.LBE76:
 327              	.LBE75:
 328              		.loc 1 79 0
 329 0046 38BD     		pop	{r3, r4, r5, pc}
 330              		.cfi_endproc
 331              	.LFE277:
 332              		.size	sdu_start_receive, .-sdu_start_receive
 333              		.section	.text.ibnotify,"ax",%progbits
 334              		.align	1
 335              		.thumb
 336              		.thumb_func
 337              		.type	ibnotify, %function
 338              	ibnotify:
 339              	.LFB286:
 340              		.loc 1 137 0
 341              		.cfi_startproc
 342              		@ args = 0, pretend = 0, frame = 0
ARM GAS  /tmp/cczk2hoJ.s 			page 7


 343              		@ frame_needed = 0, uses_anonymous_args = 0
 344              		@ link register save eliminated.
 345              	.LVL38:
 346              		.loc 1 139 0
 347 0000 406B     		ldr	r0, [r0, #52]
 348              	.LVL39:
 349 0002 FFF7FEBF 		b	sdu_start_receive
 350              	.LVL40:
 351              		.cfi_endproc
 352              	.LFE286:
 353              		.size	ibnotify, .-ibnotify
 354              		.section	.text.sduInit,"ax",%progbits
 355              		.align	1
 356              		.global	sduInit
 357              		.thumb
 358              		.thumb_func
 359              		.type	sduInit, %function
 360              	sduInit:
 361              	.LFB288:
 362              		.loc 1 180 0
 363              		.cfi_startproc
 364              		@ args = 0, pretend = 0, frame = 0
 365              		@ frame_needed = 0, uses_anonymous_args = 0
 366              		@ link register save eliminated.
 367 0000 7047     		bx	lr
 368              		.cfi_endproc
 369              	.LFE288:
 370              		.size	sduInit, .-sduInit
 371              		.section	.text.sduObjectInit,"ax",%progbits
 372              		.align	1
 373              		.global	sduObjectInit
 374              		.thumb
 375              		.thumb_func
 376              		.type	sduObjectInit, %function
 377              	sduObjectInit:
 378              	.LFB289:
 379              		.loc 1 192 0
 380              		.cfi_startproc
 381              		@ args = 0, pretend = 0, frame = 0
 382              		@ frame_needed = 0, uses_anonymous_args = 0
 383              	.LVL41:
 384              		.loc 1 192 0
 385 0000 7FB5     		push	{r0, r1, r2, r3, r4, r5, r6, lr}
 386              		.cfi_def_cfa_offset 32
 387              		.cfi_offset 4, -16
 388              		.cfi_offset 5, -12
 389              		.cfi_offset 6, -8
 390              		.cfi_offset 14, -4
 391              		.loc 1 194 0
 392 0002 0346     		mov	r3, r0
 393 0004 114A     		ldr	r2, .L29
 394 0006 43F8042B 		str	r2, [r3], #4
 395              	.LVL42:
 396              		.loc 1 192 0
 397 000a 0446     		mov	r4, r0
 398              	.LBB77:
 399              	.LBB78:
ARM GAS  /tmp/cczk2hoJ.s 			page 8


 400              	.LBB79:
 401              		.file 2 "../../modules/ChibiOS/os/rt/include/chevents.h"
 402              		.loc 2 172 0
 403 000c 4360     		str	r3, [r0, #4]
 404              	.LBE79:
 405              	.LBE78:
 406              	.LBE77:
 407              		.loc 1 196 0
 408 000e 0125     		movs	r5, #1
 409              		.loc 1 197 0
 410 0010 0226     		movs	r6, #2
 411 0012 0F4B     		ldr	r3, .L29+4
 412              	.LVL43:
 413              		.loc 1 196 0
 414 0014 0572     		strb	r5, [r0, #8]
 415              		.loc 1 197 0
 416 0016 2946     		mov	r1, r5
 417 0018 0193     		str	r3, [sp, #4]
 418 001a 0290     		str	r0, [sp, #8]
 419 001c 04F17C02 		add	r2, r4, #124
 420 0020 0096     		str	r6, [sp]
 421 0022 0C30     		adds	r0, r0, #12
 422              	.LVL44:
 423 0024 4FF48073 		mov	r3, #256
 424 0028 FFF7FEFF 		bl	ibqObjectInit
 425              	.LVL45:
 426              		.loc 1 200 0
 427 002c 094B     		ldr	r3, .L29+8
 428 002e 0193     		str	r3, [sp, #4]
 429 0030 0096     		str	r6, [sp]
 430 0032 0294     		str	r4, [sp, #8]
 431 0034 04F14400 		add	r0, r4, #68
 432 0038 2946     		mov	r1, r5
 433 003a 04F52172 		add	r2, r4, #644
 434 003e 4FF48073 		mov	r3, #256
 435 0042 FFF7FEFF 		bl	obqObjectInit
 436              	.LVL46:
 437              		.loc 1 203 0
 438 0046 04B0     		add	sp, sp, #16
 439              		.cfi_def_cfa_offset 16
 440              		@ sp needed
 441 0048 70BD     		pop	{r4, r5, r6, pc}
 442              	.LVL47:
 443              	.L30:
 444 004a 00BF     		.align	2
 445              	.L29:
 446 004c 00000000 		.word	.LANCHOR0
 447 0050 00000000 		.word	ibnotify
 448 0054 00000000 		.word	obnotify
 449              		.cfi_endproc
 450              	.LFE289:
 451              		.size	sduObjectInit, .-sduObjectInit
 452              		.section	.text.sduStart,"ax",%progbits
 453              		.align	1
 454              		.global	sduStart
 455              		.thumb
 456              		.thumb_func
ARM GAS  /tmp/cczk2hoJ.s 			page 9


 457              		.type	sduStart, %function
 458              	sduStart:
 459              	.LFB290:
 460              		.loc 1 213 0
 461              		.cfi_startproc
 462              		@ args = 0, pretend = 0, frame = 0
 463              		@ frame_needed = 0, uses_anonymous_args = 0
 464              	.LVL48:
 465 0000 70B5     		push	{r4, r5, r6, lr}
 466              		.cfi_def_cfa_offset 16
 467              		.cfi_offset 4, -16
 468              		.cfi_offset 5, -12
 469              		.cfi_offset 6, -8
 470              		.cfi_offset 14, -4
 471              	.LBB94:
 472              	.LBB95:
 473              	.LBB96:
 474              	.LBB97:
 475              	.LBB98:
 476              	.LBB99:
 477              		.file 3 "../../modules/ChibiOS/os/common/ext/CMSIS/include/cmsis_gcc.h"
 478              		.loc 3 264 0
 479 0002 2023     		movs	r3, #32
 480              	.LBE99:
 481              	.LBE98:
 482              	.LBE97:
 483              	.LBE96:
 484              	.LBE95:
 485              	.LBE94:
 486              		.loc 1 213 0
 487 0004 0446     		mov	r4, r0
 488 0006 0D46     		mov	r5, r1
 489              		.loc 1 214 0
 490 0008 0E68     		ldr	r6, [r1]
 491              	.LVL49:
 492              	.LBB105:
 493              	.LBB104:
 494              	.LBB103:
 495              	.LBB102:
 496              	.LBB101:
 497              	.LBB100:
 498              		.loc 3 264 0
 499              	@ 264 "../../modules/ChibiOS/os/common/ext/CMSIS/include/cmsis_gcc.h" 1
 500 000a 83F31188 		MSR basepri, r3
 501              	@ 0 "" 2
 502              		.thumb
 503              	.LBE100:
 504              	.LBE101:
 505              	.LBE102:
 506              		.file 4 "../../modules/ChibiOS/os/rt/include/chsys.h"
 507              		.loc 4 377 0
 508 000e FFF7FEFF 		bl	_stats_start_measure_crit_thd
 509              	.LVL50:
 510              	.LBE103:
 511              	.LBE104:
 512              	.LBE105:
 513              		.loc 1 221 0
ARM GAS  /tmp/cczk2hoJ.s 			page 10


 514 0012 2B79     		ldrb	r3, [r5, #4]	@ zero_extendqisi2
 515 0014 06EB8303 		add	r3, r6, r3, lsl #2
 516 0018 9C61     		str	r4, [r3, #24]
 517              		.loc 1 222 0
 518 001a 6B79     		ldrb	r3, [r5, #5]	@ zero_extendqisi2
 519 001c 0933     		adds	r3, r3, #9
 520 001e 46F82340 		str	r4, [r6, r3, lsl #2]
 521              		.loc 1 223 0
 522 0022 AB79     		ldrb	r3, [r5, #6]	@ zero_extendqisi2
 523 0024 13B1     		cbz	r3, .L32
 524              		.loc 1 224 0
 525 0026 06EB8306 		add	r6, r6, r3, lsl #2
 526              	.LVL51:
 527 002a B461     		str	r4, [r6, #24]
 528              	.L32:
 529              		.loc 1 227 0
 530 002c 0223     		movs	r3, #2
 531 002e 2372     		strb	r3, [r4, #8]
 532              		.loc 1 226 0
 533 0030 C4F88C54 		str	r5, [r4, #1164]
 534              	.LBB106:
 535              	.LBB107:
 536              	.LBB108:
 537              		.loc 4 389 0
 538 0034 FFF7FEFF 		bl	_stats_stop_measure_crit_thd
 539              	.LVL52:
 540              	.LBB109:
 541              	.LBB110:
 542              	.LBB111:
 543              		.loc 3 264 0
 544 0038 0023     		movs	r3, #0
 545              	@ 264 "../../modules/ChibiOS/os/common/ext/CMSIS/include/cmsis_gcc.h" 1
 546 003a 83F31188 		MSR basepri, r3
 547              	@ 0 "" 2
 548              		.thumb
 549 003e 70BD     		pop	{r4, r5, r6, pc}
 550              	.LBE111:
 551              	.LBE110:
 552              	.LBE109:
 553              	.LBE108:
 554              	.LBE107:
 555              	.LBE106:
 556              		.cfi_endproc
 557              	.LFE290:
 558              		.size	sduStart, .-sduStart
 559              		.section	.text.sduStop,"ax",%progbits
 560              		.align	1
 561              		.global	sduStop
 562              		.thumb
 563              		.thumb_func
 564              		.type	sduStop, %function
 565              	sduStop:
 566              	.LFB291:
 567              		.loc 1 240 0
 568              		.cfi_startproc
 569              		@ args = 0, pretend = 0, frame = 0
 570              		@ frame_needed = 0, uses_anonymous_args = 0
ARM GAS  /tmp/cczk2hoJ.s 			page 11


 571              	.LVL53:
 572 0000 38B5     		push	{r3, r4, r5, lr}
 573              		.cfi_def_cfa_offset 16
 574              		.cfi_offset 3, -16
 575              		.cfi_offset 4, -12
 576              		.cfi_offset 5, -8
 577              		.cfi_offset 14, -4
 578              		.loc 1 241 0
 579 0002 D0F88C34 		ldr	r3, [r0, #1164]
 580              		.loc 1 240 0
 581 0006 0446     		mov	r4, r0
 582              		.loc 1 241 0
 583 0008 1D68     		ldr	r5, [r3]
 584              	.LVL54:
 585              	.LBB130:
 586              	.LBB131:
 587              	.LBB132:
 588              	.LBB133:
 589              	.LBB134:
 590              	.LBB135:
 591              		.loc 3 264 0
 592 000a 2023     		movs	r3, #32
 593              	@ 264 "../../modules/ChibiOS/os/common/ext/CMSIS/include/cmsis_gcc.h" 1
 594 000c 83F31188 		MSR basepri, r3
 595              	@ 0 "" 2
 596              		.thumb
 597              	.LBE135:
 598              	.LBE134:
 599              	.LBE133:
 600              		.loc 4 377 0
 601 0010 FFF7FEFF 		bl	_stats_start_measure_crit_thd
 602              	.LVL55:
 603              	.LBE132:
 604              	.LBE131:
 605              	.LBE130:
 606              		.loc 1 251 0
 607 0014 D4F88C14 		ldr	r1, [r4, #1164]
 608 0018 0B79     		ldrb	r3, [r1, #4]	@ zero_extendqisi2
 609 001a 0533     		adds	r3, r3, #5
 610 001c 05EB8303 		add	r3, r5, r3, lsl #2
 611 0020 0022     		movs	r2, #0
 612 0022 5A60     		str	r2, [r3, #4]
 613              		.loc 1 252 0
 614 0024 4B79     		ldrb	r3, [r1, #5]	@ zero_extendqisi2
 615 0026 0933     		adds	r3, r3, #9
 616 0028 45F82320 		str	r2, [r5, r3, lsl #2]
 617              		.loc 1 253 0
 618 002c 8B79     		ldrb	r3, [r1, #6]	@ zero_extendqisi2
 619 002e 1BB1     		cbz	r3, .L37
 620              		.loc 1 254 0
 621 0030 0533     		adds	r3, r3, #5
 622 0032 05EB8305 		add	r5, r5, r3, lsl #2
 623              	.LVL56:
 624 0036 6A60     		str	r2, [r5, #4]
 625              	.L37:
 626              		.loc 1 257 0
 627 0038 0123     		movs	r3, #1
ARM GAS  /tmp/cczk2hoJ.s 			page 12


 628              		.loc 1 256 0
 629 003a 0025     		movs	r5, #0
 630              		.loc 1 257 0
 631 003c 2372     		strb	r3, [r4, #8]
 632              	.LVL57:
 633              	.LBB136:
 634              	.LBB137:
 635              		.file 5 "../../modules/ChibiOS/os/hal/osal/rt/osal.h"
 636              		.loc 5 844 0
 637 003e 0221     		movs	r1, #2
 638 0040 201D     		adds	r0, r4, #4
 639              	.LVL58:
 640              	.LBE137:
 641              	.LBE136:
 642              		.loc 1 256 0
 643 0042 C4F88C54 		str	r5, [r4, #1164]
 644              	.LBB139:
 645              	.LBB138:
 646              		.loc 5 844 0
 647 0046 FFF7FEFF 		bl	chEvtBroadcastFlagsI
 648              	.LVL59:
 649              	.LBE138:
 650              	.LBE139:
 651              		.loc 1 261 0
 652 004a 04F10C00 		add	r0, r4, #12
 653 004e FFF7FEFF 		bl	ibqResetI
 654              	.LVL60:
 655              		.loc 1 262 0
 656 0052 04F14400 		add	r0, r4, #68
 657 0056 FFF7FEFF 		bl	obqResetI
 658              	.LVL61:
 659              	.LBB140:
 660              	.LBB141:
 661              		.loc 5 600 0
 662 005a FFF7FEFF 		bl	chSchRescheduleS
 663              	.LVL62:
 664              	.LBE141:
 665              	.LBE140:
 666              	.LBB142:
 667              	.LBB143:
 668              	.LBB144:
 669              		.loc 4 389 0
 670 005e FFF7FEFF 		bl	_stats_stop_measure_crit_thd
 671              	.LVL63:
 672              	.LBB145:
 673              	.LBB146:
 674              	.LBB147:
 675              		.loc 3 264 0
 676              	@ 264 "../../modules/ChibiOS/os/common/ext/CMSIS/include/cmsis_gcc.h" 1
 677 0062 85F31188 		MSR basepri, r5
 678              	@ 0 "" 2
 679              		.thumb
 680 0066 38BD     		pop	{r3, r4, r5, pc}
 681              	.LBE147:
 682              	.LBE146:
 683              	.LBE145:
 684              	.LBE144:
ARM GAS  /tmp/cczk2hoJ.s 			page 13


 685              	.LBE143:
 686              	.LBE142:
 687              		.cfi_endproc
 688              	.LFE291:
 689              		.size	sduStop, .-sduStop
 690              		.section	.text.sduSuspendHookI,"ax",%progbits
 691              		.align	1
 692              		.global	sduSuspendHookI
 693              		.thumb
 694              		.thumb_func
 695              		.type	sduSuspendHookI, %function
 696              	sduSuspendHookI:
 697              	.LFB292:
 698              		.loc 1 280 0
 699              		.cfi_startproc
 700              		@ args = 0, pretend = 0, frame = 0
 701              		@ frame_needed = 0, uses_anonymous_args = 0
 702              	.LVL64:
 703 0000 38B5     		push	{r3, r4, r5, lr}
 704              		.cfi_def_cfa_offset 16
 705              		.cfi_offset 3, -16
 706              		.cfi_offset 4, -12
 707              		.cfi_offset 5, -8
 708              		.cfi_offset 14, -4
 709              		.loc 1 280 0
 710 0002 0446     		mov	r4, r0
 711              		.loc 1 283 0
 712 0004 0125     		movs	r5, #1
 713              	.LBB148:
 714              	.LBB149:
 715              		.loc 5 844 0
 716 0006 0430     		adds	r0, r0, #4
 717              	.LVL65:
 718 0008 0221     		movs	r1, #2
 719 000a FFF7FEFF 		bl	chEvtBroadcastFlagsI
 720              	.LVL66:
 721              	.LBE149:
 722              	.LBE148:
 723              	.LBB150:
 724              	.LBB151:
 725              		.loc 5 810 0
 726 000e 04F10C00 		add	r0, r4, #12
 727              	.LBE151:
 728              	.LBE150:
 729              		.loc 1 283 0
 730 0012 2575     		strb	r5, [r4, #20]
 731              	.LVL67:
 732              	.LBB153:
 733              	.LBB152:
 734              		.loc 5 810 0
 735 0014 6FF00101 		mvn	r1, #1
 736 0018 FFF7FEFF 		bl	chThdDequeueAllI
 737              	.LVL68:
 738              	.LBE152:
 739              	.LBE153:
 740              		.loc 1 284 0
 741 001c 84F84C50 		strb	r5, [r4, #76]
ARM GAS  /tmp/cczk2hoJ.s 			page 14


 742              	.LVL69:
 743              	.LBB154:
 744              	.LBB155:
 745              		.loc 5 810 0
 746 0020 04F14400 		add	r0, r4, #68
 747              	.LVL70:
 748 0024 6FF00101 		mvn	r1, #1
 749              	.LBE155:
 750              	.LBE154:
 751              		.loc 1 285 0
 752 0028 BDE83840 		pop	{r3, r4, r5, lr}
 753              		.cfi_restore 14
 754              		.cfi_restore 5
 755              		.cfi_restore 4
 756              		.cfi_restore 3
 757              		.cfi_def_cfa_offset 0
 758              	.LVL71:
 759              	.LBB157:
 760              	.LBB156:
 761              		.loc 5 810 0
 762 002c FFF7FEBF 		b	chThdDequeueAllI
 763              	.LVL72:
 764              	.LBE156:
 765              	.LBE157:
 766              		.cfi_endproc
 767              	.LFE292:
 768              		.size	sduSuspendHookI, .-sduSuspendHookI
 769              		.section	.text.sduWakeupHookI,"ax",%progbits
 770              		.align	1
 771              		.global	sduWakeupHookI
 772              		.thumb
 773              		.thumb_func
 774              		.type	sduWakeupHookI, %function
 775              	sduWakeupHookI:
 776              	.LFB293:
 777              		.loc 1 299 0
 778              		.cfi_startproc
 779              		@ args = 0, pretend = 0, frame = 0
 780              		@ frame_needed = 0, uses_anonymous_args = 0
 781              	.LVL73:
 782 0000 10B5     		push	{r4, lr}
 783              		.cfi_def_cfa_offset 8
 784              		.cfi_offset 4, -8
 785              		.cfi_offset 14, -4
 786              	.LBB158:
 787              	.LBB159:
 788              		.loc 5 844 0
 789 0002 0121     		movs	r1, #1
 790              	.LBE159:
 791              	.LBE158:
 792              		.loc 1 299 0
 793 0004 0446     		mov	r4, r0
 794              	.LBB161:
 795              	.LBB160:
 796              		.loc 5 844 0
 797 0006 0430     		adds	r0, r0, #4
 798              	.LVL74:
ARM GAS  /tmp/cczk2hoJ.s 			page 15


 799 0008 FFF7FEFF 		bl	chEvtBroadcastFlagsI
 800              	.LVL75:
 801              	.LBE160:
 802              	.LBE161:
 803              		.loc 1 302 0
 804 000c 0023     		movs	r3, #0
 805 000e 2375     		strb	r3, [r4, #20]
 806              		.loc 1 303 0
 807 0010 84F84C30 		strb	r3, [r4, #76]
 808 0014 10BD     		pop	{r4, pc}
 809              		.cfi_endproc
 810              	.LFE293:
 811              		.size	sduWakeupHookI, .-sduWakeupHookI
 812              		.section	.text.sduConfigureHookI,"ax",%progbits
 813              		.align	1
 814              		.global	sduConfigureHookI
 815              		.thumb
 816              		.thumb_func
 817              		.type	sduConfigureHookI, %function
 818              	sduConfigureHookI:
 819              	.LFB294:
 820              		.loc 1 313 0
 821              		.cfi_startproc
 822              		@ args = 0, pretend = 0, frame = 0
 823              		@ frame_needed = 0, uses_anonymous_args = 0
 824              	.LVL76:
 825 0000 38B5     		push	{r3, r4, r5, lr}
 826              		.cfi_def_cfa_offset 16
 827              		.cfi_offset 3, -16
 828              		.cfi_offset 4, -12
 829              		.cfi_offset 5, -8
 830              		.cfi_offset 14, -4
 831              		.loc 1 313 0
 832 0002 0446     		mov	r4, r0
 833              		.loc 1 316 0
 834 0004 0025     		movs	r5, #0
 835              		.loc 1 315 0
 836 0006 0C30     		adds	r0, r0, #12
 837              	.LVL77:
 838 0008 FFF7FEFF 		bl	ibqResetI
 839              	.LVL78:
 840              		.loc 1 317 0
 841 000c 04F14400 		add	r0, r4, #68
 842              		.loc 1 316 0
 843 0010 2575     		strb	r5, [r4, #20]
 844              		.loc 1 317 0
 845 0012 FFF7FEFF 		bl	obqResetI
 846              	.LVL79:
 847              	.LBB162:
 848              	.LBB163:
 849              		.loc 5 844 0
 850 0016 201D     		adds	r0, r4, #4
 851              	.LBE163:
 852              	.LBE162:
 853              		.loc 1 318 0
 854 0018 84F84C50 		strb	r5, [r4, #76]
 855              	.LVL80:
ARM GAS  /tmp/cczk2hoJ.s 			page 16


 856              	.LBB165:
 857              	.LBB164:
 858              		.loc 5 844 0
 859 001c 0121     		movs	r1, #1
 860 001e FFF7FEFF 		bl	chEvtBroadcastFlagsI
 861              	.LVL81:
 862              	.LBE164:
 863              	.LBE165:
 864              		.loc 1 320 0
 865 0022 2046     		mov	r0, r4
 866              		.loc 1 321 0
 867 0024 BDE83840 		pop	{r3, r4, r5, lr}
 868              		.cfi_restore 14
 869              		.cfi_restore 5
 870              		.cfi_restore 4
 871              		.cfi_restore 3
 872              		.cfi_def_cfa_offset 0
 873              	.LVL82:
 874              		.loc 1 320 0
 875 0028 FFF7FEBF 		b	sdu_start_receive
 876              	.LVL83:
 877              		.cfi_endproc
 878              	.LFE294:
 879              		.size	sduConfigureHookI, .-sduConfigureHookI
 880              		.section	.text.sduRequestsHook,"ax",%progbits
 881              		.align	1
 882              		.global	sduRequestsHook
 883              		.thumb
 884              		.thumb_func
 885              		.type	sduRequestsHook, %function
 886              	sduRequestsHook:
 887              	.LFB295:
 888              		.loc 1 338 0
 889              		.cfi_startproc
 890              		@ args = 0, pretend = 0, frame = 0
 891              		@ frame_needed = 0, uses_anonymous_args = 0
 892              		@ link register save eliminated.
 893              	.LVL84:
 894              		.loc 1 340 0
 895 0000 90F84430 		ldrb	r3, [r0, #68]	@ zero_extendqisi2
 896 0004 03F06003 		and	r3, r3, #96
 897 0008 202B     		cmp	r3, #32
 898 000a 19D1     		bne	.L49
 899              		.loc 1 341 0
 900 000c 90F84520 		ldrb	r2, [r0, #69]	@ zero_extendqisi2
 901 0010 212A     		cmp	r2, #33
 902 0012 0AD0     		beq	.L46
 903 0014 222A     		cmp	r2, #34
 904 0016 4FF00003 		mov	r3, #0
 905 001a 0CD0     		beq	.L47
 906 001c 202A     		cmp	r2, #32
 907 001e 0FD1     		bne	.L49
 908              		.loc 1 346 0
 909 0020 084A     		ldr	r2, .L53
 910 0022 8263     		str	r2, [r0, #56]
 911 0024 0722     		movs	r2, #7
 912 0026 C263     		str	r2, [r0, #60]
ARM GAS  /tmp/cczk2hoJ.s 			page 17


 913 0028 07E0     		b	.L52
 914              	.L46:
 915              		.loc 1 343 0
 916 002a 064B     		ldr	r3, .L53
 917 002c 8363     		str	r3, [r0, #56]
 918 002e 0723     		movs	r3, #7
 919 0030 C363     		str	r3, [r0, #60]
 920 0032 0023     		movs	r3, #0
 921 0034 01E0     		b	.L52
 922              	.L47:
 923              		.loc 1 350 0
 924 0036 8363     		str	r3, [r0, #56]
 925 0038 C363     		str	r3, [r0, #60]
 926              	.L52:
 927 003a 0364     		str	r3, [r0, #64]
 928              		.loc 1 351 0
 929 003c 0120     		movs	r0, #1
 930              	.LVL85:
 931 003e 7047     		bx	lr
 932              	.LVL86:
 933              	.L49:
 934              		.loc 1 356 0
 935 0040 0020     		movs	r0, #0
 936              	.LVL87:
 937 0042 7047     		bx	lr
 938              	.L54:
 939              		.align	2
 940              	.L53:
 941 0044 00000000 		.word	.LANCHOR1
 942              		.cfi_endproc
 943              	.LFE295:
 944              		.size	sduRequestsHook, .-sduRequestsHook
 945              		.section	.text.sduSOFHookI,"ax",%progbits
 946              		.align	1
 947              		.global	sduSOFHookI
 948              		.thumb
 949              		.thumb_func
 950              		.type	sduSOFHookI, %function
 951              	sduSOFHookI:
 952              	.LFB296:
 953              		.loc 1 368 0
 954              		.cfi_startproc
 955              		@ args = 0, pretend = 0, frame = 8
 956              		@ frame_needed = 0, uses_anonymous_args = 0
 957              	.LVL88:
 958              		.loc 1 372 0
 959 0000 D0F88C34 		ldr	r3, [r0, #1164]
 960              		.loc 1 368 0
 961 0004 37B5     		push	{r0, r1, r2, r4, r5, lr}
 962              		.cfi_def_cfa_offset 24
 963              		.cfi_offset 4, -12
 964              		.cfi_offset 5, -8
 965              		.cfi_offset 14, -4
 966              		.loc 1 372 0
 967 0006 1A68     		ldr	r2, [r3]
 968 0008 1178     		ldrb	r1, [r2]	@ zero_extendqisi2
 969 000a 0429     		cmp	r1, #4
ARM GAS  /tmp/cczk2hoJ.s 			page 18


 970              		.loc 1 368 0
 971 000c 0446     		mov	r4, r0
 972              		.loc 1 372 0
 973 000e 1AD1     		bne	.L55
 974              		.loc 1 372 0 is_stmt 0 discriminator 1
 975 0010 017A     		ldrb	r1, [r0, #8]	@ zero_extendqisi2
 976 0012 0229     		cmp	r1, #2
 977 0014 17D1     		bne	.L55
 978              		.loc 1 379 0 is_stmt 1
 979 0016 1979     		ldrb	r1, [r3, #4]	@ zero_extendqisi2
 980 0018 1289     		ldrh	r2, [r2, #8]
 981 001a 0123     		movs	r3, #1
 982 001c 8B40     		lsls	r3, r3, r1
 983 001e 1342     		tst	r3, r2
 984 0020 11D1     		bne	.L55
 985              		.loc 1 385 0
 986 0022 00F14405 		add	r5, r0, #68
 987 0026 2846     		mov	r0, r5
 988              	.LVL89:
 989 0028 FFF7FEFF 		bl	obqTryFlushI
 990              	.LVL90:
 991 002c 58B1     		cbz	r0, .L55
 992              	.LBB166:
 993              		.loc 1 387 0
 994 002e 01A9     		add	r1, sp, #4
 995 0030 2846     		mov	r0, r5
 996 0032 FFF7FEFF 		bl	obqGetFullBufferI
 997              	.LVL91:
 998              		.loc 1 391 0
 999 0036 D4F88C34 		ldr	r3, [r4, #1164]
 1000              		.loc 1 387 0
 1001 003a 0246     		mov	r2, r0
 1002              	.LVL92:
 1003              		.loc 1 391 0
 1004 003c 1979     		ldrb	r1, [r3, #4]	@ zero_extendqisi2
 1005 003e 1868     		ldr	r0, [r3]
 1006              	.LVL93:
 1007 0040 019B     		ldr	r3, [sp, #4]
 1008 0042 FFF7FEFF 		bl	usbStartTransmitI
 1009              	.LVL94:
 1010              	.L55:
 1011              	.LBE166:
 1012              		.loc 1 393 0
 1013 0046 03B0     		add	sp, sp, #12
 1014              		.cfi_def_cfa_offset 12
 1015              		@ sp needed
 1016 0048 30BD     		pop	{r4, r5, pc}
 1017              		.cfi_endproc
 1018              	.LFE296:
 1019              		.size	sduSOFHookI, .-sduSOFHookI
 1020              		.section	.text.sduDataTransmitted,"ax",%progbits
 1021              		.align	1
 1022              		.global	sduDataTransmitted
 1023              		.thumb
 1024              		.thumb_func
 1025              		.type	sduDataTransmitted, %function
 1026              	sduDataTransmitted:
ARM GAS  /tmp/cczk2hoJ.s 			page 19


 1027              	.LFB297:
 1028              		.loc 1 403 0
 1029              		.cfi_startproc
 1030              		@ args = 0, pretend = 0, frame = 8
 1031              		@ frame_needed = 0, uses_anonymous_args = 0
 1032              	.LVL95:
 1033              		.loc 1 406 0
 1034 0000 00EB8103 		add	r3, r0, r1, lsl #2
 1035              		.loc 1 403 0
 1036 0004 F7B5     		push	{r0, r1, r2, r4, r5, r6, r7, lr}
 1037              		.cfi_def_cfa_offset 32
 1038              		.cfi_offset 4, -20
 1039              		.cfi_offset 5, -16
 1040              		.cfi_offset 6, -12
 1041              		.cfi_offset 7, -8
 1042              		.cfi_offset 14, -4
 1043              		.loc 1 406 0
 1044 0006 9C69     		ldr	r4, [r3, #24]
 1045              	.LVL96:
 1046              		.loc 1 403 0
 1047 0008 0646     		mov	r6, r0
 1048 000a 0D46     		mov	r5, r1
 1049              		.loc 1 408 0
 1050 000c 7CB3     		cbz	r4, .L62
 1051              	.LVL97:
 1052              	.LBB185:
 1053              	.LBB186:
 1054              	.LBB187:
 1055              	.LBB188:
 1056              	.LBB189:
 1057              	.LBB190:
 1058              	.LBB191:
 1059              		.loc 3 264 0
 1060 000e 2023     		movs	r3, #32
 1061              	@ 264 "../../modules/ChibiOS/os/common/ext/CMSIS/include/cmsis_gcc.h" 1
 1062 0010 83F31188 		MSR basepri, r3
 1063              	@ 0 "" 2
 1064              		.thumb
 1065 0014 06EB8507 		add	r7, r6, r5, lsl #2
 1066              	.LBE191:
 1067              	.LBE190:
 1068              	.LBE189:
 1069              	.LBE188:
 1070              		.loc 4 417 0
 1071 0018 FFF7FEFF 		bl	_stats_start_measure_crit_isr
 1072              	.LVL98:
 1073              	.LBE187:
 1074              	.LBE186:
 1075              	.LBE185:
 1076              	.LBB192:
 1077              	.LBB193:
 1078              		.loc 5 844 0
 1079 001c 201D     		adds	r0, r4, #4
 1080              	.LVL99:
 1081 001e 0821     		movs	r1, #8
 1082 0020 FFF7FEFF 		bl	chEvtBroadcastFlagsI
 1083              	.LVL100:
ARM GAS  /tmp/cczk2hoJ.s 			page 20


 1084              	.LBE193:
 1085              	.LBE192:
 1086              		.loc 1 418 0
 1087 0024 FB68     		ldr	r3, [r7, #12]
 1088 0026 5B69     		ldr	r3, [r3, #20]
 1089 0028 1B68     		ldr	r3, [r3]
 1090 002a 4434     		adds	r4, r4, #68
 1091              	.LVL101:
 1092 002c 13B1     		cbz	r3, .L64
 1093              		.loc 1 419 0
 1094 002e 2046     		mov	r0, r4
 1095 0030 FFF7FEFF 		bl	obqReleaseEmptyBufferI
 1096              	.LVL102:
 1097              	.L64:
 1098              		.loc 1 423 0
 1099 0034 2046     		mov	r0, r4
 1100 0036 01A9     		add	r1, sp, #4
 1101 0038 FFF7FEFF 		bl	obqGetFullBufferI
 1102              	.LVL103:
 1103              		.loc 1 425 0
 1104 003c 0246     		mov	r2, r0
 1105 003e 18B1     		cbz	r0, .L65
 1106              		.loc 1 428 0
 1107 0040 3046     		mov	r0, r6
 1108              	.LVL104:
 1109 0042 2946     		mov	r1, r5
 1110 0044 019B     		ldr	r3, [sp, #4]
 1111 0046 0BE0     		b	.L77
 1112              	.LVL105:
 1113              	.L65:
 1114              		.loc 1 430 0
 1115 0048 FB68     		ldr	r3, [r7, #12]
 1116 004a 5A69     		ldr	r2, [r3, #20]
 1117 004c 1168     		ldr	r1, [r2]
 1118 004e 49B1     		cbz	r1, .L66
 1119              		.loc 1 432 0 discriminator 1
 1120 0050 1A8A     		ldrh	r2, [r3, #16]
 1121 0052 531E     		subs	r3, r2, #1
 1122              		.loc 1 430 0 discriminator 1
 1123 0054 0B40     		ands	r3, r3, r1
 1124 0056 05D1     		bne	.L66
 1125              		.loc 1 437 0
 1126 0058 3046     		mov	r0, r6
 1127              	.LVL106:
 1128 005a 2946     		mov	r1, r5
 1129 005c 06F14402 		add	r2, r6, #68
 1130              	.LVL107:
 1131              	.L77:
 1132 0060 FFF7FEFF 		bl	usbStartTransmitI
 1133              	.LVL108:
 1134              	.L66:
 1135              	.LBB194:
 1136              	.LBB195:
 1137              	.LBB196:
 1138              		.loc 4 437 0
 1139 0064 FFF7FEFF 		bl	_stats_stop_measure_crit_isr
 1140              	.LVL109:
ARM GAS  /tmp/cczk2hoJ.s 			page 21


 1141              	.LBB197:
 1142              	.LBB198:
 1143              	.LBB199:
 1144              	.LBB200:
 1145              		.loc 3 264 0
 1146 0068 0023     		movs	r3, #0
 1147              	@ 264 "../../modules/ChibiOS/os/common/ext/CMSIS/include/cmsis_gcc.h" 1
 1148 006a 83F31188 		MSR basepri, r3
 1149              	@ 0 "" 2
 1150              	.LVL110:
 1151              		.thumb
 1152              	.L62:
 1153              	.LBE200:
 1154              	.LBE199:
 1155              	.LBE198:
 1156              	.LBE197:
 1157              	.LBE196:
 1158              	.LBE195:
 1159              	.LBE194:
 1160              		.loc 1 445 0
 1161 006e 03B0     		add	sp, sp, #12
 1162              		.cfi_def_cfa_offset 20
 1163              		@ sp needed
 1164 0070 F0BD     		pop	{r4, r5, r6, r7, pc}
 1165              		.cfi_endproc
 1166              	.LFE297:
 1167              		.size	sduDataTransmitted, .-sduDataTransmitted
 1168              		.section	.text.sduDataReceived,"ax",%progbits
 1169              		.align	1
 1170              		.global	sduDataReceived
 1171              		.thumb
 1172              		.thumb_func
 1173              		.type	sduDataReceived, %function
 1174              	sduDataReceived:
 1175              	.LFB298:
 1176              		.loc 1 455 0
 1177              		.cfi_startproc
 1178              		@ args = 0, pretend = 0, frame = 0
 1179              		@ frame_needed = 0, uses_anonymous_args = 0
 1180              	.LVL111:
 1181              		.loc 1 456 0
 1182 0000 0931     		adds	r1, r1, #9
 1183              	.LVL112:
 1184              		.loc 1 455 0
 1185 0002 10B5     		push	{r4, lr}
 1186              		.cfi_def_cfa_offset 8
 1187              		.cfi_offset 4, -8
 1188              		.cfi_offset 14, -4
 1189              		.loc 1 456 0
 1190 0004 50F82140 		ldr	r4, [r0, r1, lsl #2]
 1191              	.LVL113:
 1192              		.loc 1 457 0
 1193 0008 ECB1     		cbz	r4, .L78
 1194              	.LVL114:
 1195              	.LBB219:
 1196              	.LBB220:
 1197              	.LBB221:
ARM GAS  /tmp/cczk2hoJ.s 			page 22


 1198              	.LBB222:
 1199              	.LBB223:
 1200              	.LBB224:
 1201              	.LBB225:
 1202              		.loc 3 264 0
 1203 000a 2023     		movs	r3, #32
 1204              	@ 264 "../../modules/ChibiOS/os/common/ext/CMSIS/include/cmsis_gcc.h" 1
 1205 000c 83F31188 		MSR basepri, r3
 1206              	@ 0 "" 2
 1207              		.thumb
 1208              	.LBE225:
 1209              	.LBE224:
 1210              	.LBE223:
 1211              	.LBE222:
 1212              		.loc 4 417 0
 1213 0010 FFF7FEFF 		bl	_stats_start_measure_crit_isr
 1214              	.LVL115:
 1215              	.LBE221:
 1216              	.LBE220:
 1217              	.LBE219:
 1218              	.LBB226:
 1219              	.LBB227:
 1220              		.loc 5 844 0
 1221 0014 201D     		adds	r0, r4, #4
 1222              	.LVL116:
 1223 0016 0421     		movs	r1, #4
 1224 0018 FFF7FEFF 		bl	chEvtBroadcastFlagsI
 1225              	.LVL117:
 1226              	.LBE227:
 1227              	.LBE226:
 1228              		.loc 1 468 0
 1229 001c D4F88C24 		ldr	r2, [r4, #1164]
 1230 0020 1368     		ldr	r3, [r2]
 1231 0022 5279     		ldrb	r2, [r2, #5]	@ zero_extendqisi2
 1232 0024 03EB8203 		add	r3, r3, r2, lsl #2
 1233              		.loc 1 467 0
 1234 0028 04F10C00 		add	r0, r4, #12
 1235              		.loc 1 468 0
 1236 002c DB68     		ldr	r3, [r3, #12]
 1237              		.loc 1 467 0
 1238 002e 9B69     		ldr	r3, [r3, #24]
 1239 0030 5968     		ldr	r1, [r3, #4]
 1240 0032 FFF7FEFF 		bl	ibqPostFullBufferI
 1241              	.LVL118:
 1242              		.loc 1 474 0
 1243 0036 2046     		mov	r0, r4
 1244 0038 FFF7FEFF 		bl	sdu_start_receive
 1245              	.LVL119:
 1246              	.LBB228:
 1247              	.LBB229:
 1248              	.LBB230:
 1249              		.loc 4 437 0
 1250 003c FFF7FEFF 		bl	_stats_stop_measure_crit_isr
 1251              	.LVL120:
 1252              	.LBB231:
 1253              	.LBB232:
 1254              	.LBB233:
ARM GAS  /tmp/cczk2hoJ.s 			page 23


 1255              	.LBB234:
 1256              		.loc 3 264 0
 1257 0040 0023     		movs	r3, #0
 1258              	@ 264 "../../modules/ChibiOS/os/common/ext/CMSIS/include/cmsis_gcc.h" 1
 1259 0042 83F31188 		MSR basepri, r3
 1260              	@ 0 "" 2
 1261              	.LVL121:
 1262              		.thumb
 1263              	.L78:
 1264 0046 10BD     		pop	{r4, pc}
 1265              	.LBE234:
 1266              	.LBE233:
 1267              	.LBE232:
 1268              	.LBE231:
 1269              	.LBE230:
 1270              	.LBE229:
 1271              	.LBE228:
 1272              		.cfi_endproc
 1273              	.LFE298:
 1274              		.size	sduDataReceived, .-sduDataReceived
 1275              		.section	.text.sduInterruptTransmitted,"ax",%progbits
 1276              		.align	1
 1277              		.global	sduInterruptTransmitted
 1278              		.thumb
 1279              		.thumb_func
 1280              		.type	sduInterruptTransmitted, %function
 1281              	sduInterruptTransmitted:
 1282              	.LFB299:
 1283              		.loc 1 487 0
 1284              		.cfi_startproc
 1285              		@ args = 0, pretend = 0, frame = 0
 1286              		@ frame_needed = 0, uses_anonymous_args = 0
 1287              		@ link register save eliminated.
 1288              	.LVL122:
 1289 0000 7047     		bx	lr
 1290              		.cfi_endproc
 1291              	.LFE299:
 1292              		.size	sduInterruptTransmitted, .-sduInterruptTransmitted
 1293              		.section	.rodata.vmt,"a",%progbits
 1294              		.align	2
 1295              		.set	.LANCHOR0,. + 0
 1296              		.type	vmt, %object
 1297              		.size	vmt, 32
 1298              	vmt:
 1299 0000 00000000 		.word	_write
 1300 0004 00000000 		.word	_read
 1301 0008 00000000 		.word	_put
 1302 000c 00000000 		.word	_get
 1303 0010 00000000 		.word	_putt
 1304 0014 00000000 		.word	_gett
 1305 0018 00000000 		.word	_writet
 1306 001c 00000000 		.word	_readt
 1307              		.section	.data.linecoding,"aw",%progbits
 1308              		.set	.LANCHOR1,. + 0
 1309              		.type	linecoding, %object
 1310              		.size	linecoding, 7
 1311              	linecoding:
ARM GAS  /tmp/cczk2hoJ.s 			page 24


 1312 0000 00       		.byte	0
 1313 0001 96       		.byte	-106
 1314 0002 00       		.byte	0
 1315 0003 00       		.byte	0
 1316 0004 00       		.byte	0
 1317 0005 00       		.byte	0
 1318 0006 08       		.byte	8
 1319              		.text
 1320              	.Letext0:
 1321              		.file 6 "/usr/lib/gcc/arm-none-eabi/4.9.3/include/stddef.h"
 1322              		.file 7 "/usr/include/newlib/machine/_default_types.h"
 1323              		.file 8 "/usr/include/newlib/sys/_stdint.h"
 1324              		.file 9 "../../modules/ChibiOS/os/common/ports/ARMCMx/compilers/GCC/chtypes.h"
 1325              		.file 10 "../../modules/ChibiOS/os/rt/include/chsystypes.h"
 1326              		.file 11 "../../modules/ChibiOS/os/rt/include/chschd.h"
 1327              		.file 12 "../../modules/ChibiOS/os/common/ports/ARMCMx/chcore.h"
 1328              		.file 13 "../../modules/ChibiOS/os/common/ports/ARMCMx/chcore_v7m.h"
 1329              		.file 14 "../../modules/ChibiOS/os/rt/include/chtm.h"
 1330              		.file 15 "../../modules/ChibiOS/os/rt/include/chstats.h"
 1331              		.file 16 "../../modules/ChibiOS/os/rt/include/chsem.h"
 1332              		.file 17 "../../modules/ChibiOS/os/rt/include/chmtx.h"
 1333              		.file 18 "../../modules/ChibiOS/os/hal/include/hal_buffers.h"
 1334              		.file 19 "../../modules/ChibiOS/os/hal/include/hal_usb.h"
 1335              		.file 20 "../../modules/ChibiOS/os/hal/ports/STM32/LLD/OTGv1/hal_usb_lld.h"
 1336              		.file 21 "../../modules/ChibiOS/os/hal/ports/STM32/LLD/OTGv1/stm32_otg.h"
 1337              		.file 22 "../../modules/ChibiOS/os/hal/include/hal_usb_cdc.h"
 1338              		.file 23 "../../modules/ChibiOS/os/hal/include/hal_serial_usb.h"
 1339              		.file 24 "../../modules/ChibiOS/os/rt/include/chthreads.h"
 1340              		.file 25 "../../modules/ChibiOS/os/common/ext/CMSIS/include/core_cm4.h"