ARM GAS  /tmp/cc6cIjGY.s 			page 1


   1              		.syntax unified
   2              		.cpu cortex-m4
   3              		.eabi_attribute 27, 1
   4              		.eabi_attribute 28, 1
   5              		.fpu fpv4-sp-d16
   6              		.eabi_attribute 20, 1
   7              		.eabi_attribute 21, 1
   8              		.eabi_attribute 23, 3
   9              		.eabi_attribute 24, 1
  10              		.eabi_attribute 25, 1
  11              		.eabi_attribute 26, 1
  12              		.eabi_attribute 30, 4
  13              		.eabi_attribute 34, 1
  14              		.eabi_attribute 18, 4
  15              		.thumb
  16              		.file	"hal_icu_lld.c"
  17              		.text
  18              	.Ltext0:
  19              		.cfi_sections	.debug_frame
  20              		.section	.text.icu_lld_wait_edge,"ax",%progbits
  21              		.align	1
  22              		.thumb
  23              		.thumb_func
  24              		.type	icu_lld_wait_edge, %function
  25              	icu_lld_wait_edge:
  26              	.LFB277:
  27              		.file 1 "../../modules/ChibiOS/os/hal/ports/STM32/LLD/TIMv1/hal_icu_lld.c"
  28              		.loc 1 105 0
  29              		.cfi_startproc
  30              		@ args = 0, pretend = 0, frame = 0
  31              		@ frame_needed = 0, uses_anonymous_args = 0
  32              	.LVL0:
  33 0000 38B5     		push	{r3, r4, r5, lr}
  34              		.cfi_def_cfa_offset 16
  35              		.cfi_offset 3, -16
  36              		.cfi_offset 4, -12
  37              		.cfi_offset 5, -8
  38              		.cfi_offset 14, -4
  39              		.loc 1 105 0
  40 0002 0546     		mov	r5, r0
  41              	.LBB32:
  42              	.LBB33:
  43              	.LBB34:
  44              		.file 2 "../../modules/ChibiOS/os/rt/include/chsys.h"
  45              		.loc 2 389 0
  46 0004 FFF7FEFF 		bl	_stats_stop_measure_crit_thd
  47              	.LVL1:
  48              	.LBB35:
  49              	.LBB36:
  50              	.LBB37:
  51              		.file 3 "../../modules/ChibiOS/os/common/ext/CMSIS/include/cmsis_gcc.h"
  52              		.loc 3 264 0
  53 0008 0023     		movs	r3, #0
  54              	@ 264 "../../modules/ChibiOS/os/common/ext/CMSIS/include/cmsis_gcc.h" 1
  55 000a 83F31188 		MSR basepri, r3
  56              	@ 0 "" 2
  57              		.thumb
ARM GAS  /tmp/cc6cIjGY.s 			page 2


  58              	.LBE37:
  59              	.LBE36:
  60              	.LBE35:
  61              	.LBE34:
  62              	.LBE33:
  63              	.LBE32:
  64              		.loc 1 114 0
  65 000e 6B68     		ldr	r3, [r5, #4]
  66 0010 1A7D     		ldrb	r2, [r3, #20]	@ zero_extendqisi2
  67 0012 EB68     		ldr	r3, [r5, #12]
  68 0014 1AB9     		cbnz	r2, .L5
  69              	.L3:
  70              		.loc 1 116 0 discriminator 1
  71 0016 1C69     		ldr	r4, [r3, #16]
  72              	.LVL2:
  73 0018 A207     		lsls	r2, r4, #30
  74 001a FCD0     		beq	.L3
  75 001c 03E0     		b	.L4
  76              	.LVL3:
  77              	.L5:
  78              		.loc 1 122 0 discriminator 1
  79 001e 1C69     		ldr	r4, [r3, #16]
  80              	.LVL4:
  81 0020 14F0050F 		tst	r4, #5
  82 0024 FBD0     		beq	.L5
  83              	.L4:
  84              	.LVL5:
  85              	.LBB38:
  86              	.LBB39:
  87              	.LBB40:
  88              	.LBB41:
  89              	.LBB42:
  90              	.LBB43:
  91              		.loc 3 264 0
  92 0026 2023     		movs	r3, #32
  93              	@ 264 "../../modules/ChibiOS/os/common/ext/CMSIS/include/cmsis_gcc.h" 1
  94 0028 83F31188 		MSR basepri, r3
  95              	@ 0 "" 2
  96              		.thumb
  97              	.LBE43:
  98              	.LBE42:
  99              	.LBE41:
 100              		.loc 2 377 0
 101 002c FFF7FEFF 		bl	_stats_start_measure_crit_thd
 102              	.LVL6:
 103              	.LBE40:
 104              	.LBE39:
 105              	.LBE38:
 106              		.loc 1 134 0
 107 0030 EA68     		ldr	r2, [r5, #12]
 108 0032 1369     		ldr	r3, [r2, #16]
 109 0034 23F00703 		bic	r3, r3, #7
 110 0038 1361     		str	r3, [r2, #16]
 111              		.loc 1 139 0
 112 003a 04F00100 		and	r0, r4, #1
 113 003e 38BD     		pop	{r3, r4, r5, pc}
 114              		.cfi_endproc
ARM GAS  /tmp/cc6cIjGY.s 			page 3


 115              	.LFE277:
 116              		.size	icu_lld_wait_edge, .-icu_lld_wait_edge
 117              		.section	.text.icu_lld_init,"ax",%progbits
 118              		.align	1
 119              		.global	icu_lld_init
 120              		.thumb
 121              		.thumb_func
 122              		.type	icu_lld_init, %function
 123              	icu_lld_init:
 124              	.LFB280:
 125              		.loc 1 335 0
 126              		.cfi_startproc
 127              		@ args = 0, pretend = 0, frame = 0
 128              		@ frame_needed = 0, uses_anonymous_args = 0
 129 0000 10B5     		push	{r4, lr}
 130              		.cfi_def_cfa_offset 8
 131              		.cfi_offset 4, -8
 132              		.cfi_offset 14, -4
 133              		.loc 1 369 0
 134 0002 034C     		ldr	r4, .L12
 135 0004 2046     		mov	r0, r4
 136 0006 FFF7FEFF 		bl	icuObjectInit
 137              	.LVL7:
 138              		.loc 1 370 0
 139 000a 024B     		ldr	r3, .L12+4
 140 000c E360     		str	r3, [r4, #12]
 141 000e 10BD     		pop	{r4, pc}
 142              	.L13:
 143              		.align	2
 144              	.L12:
 145 0010 00000000 		.word	.LANCHOR0
 146 0014 00040140 		.word	1073808384
 147              		.cfi_endproc
 148              	.LFE280:
 149              		.size	icu_lld_init, .-icu_lld_init
 150              		.section	.text.icu_lld_start,"ax",%progbits
 151              		.align	1
 152              		.global	icu_lld_start
 153              		.thumb
 154              		.thumb_func
 155              		.type	icu_lld_start, %function
 156              	icu_lld_start:
 157              	.LFB281:
 158              		.loc 1 387 0
 159              		.cfi_startproc
 160              		@ args = 0, pretend = 0, frame = 0
 161              		@ frame_needed = 0, uses_anonymous_args = 0
 162              	.LVL8:
 163 0000 38B5     		push	{r3, r4, r5, lr}
 164              		.cfi_def_cfa_offset 16
 165              		.cfi_offset 3, -16
 166              		.cfi_offset 4, -12
 167              		.cfi_offset 5, -8
 168              		.cfi_offset 14, -4
 169              		.loc 1 394 0
 170 0002 0378     		ldrb	r3, [r0]	@ zero_extendqisi2
 171 0004 012B     		cmp	r3, #1
ARM GAS  /tmp/cc6cIjGY.s 			page 4


 172              		.loc 1 387 0
 173 0006 0446     		mov	r4, r0
 174              		.loc 1 394 0
 175 0008 18D1     		bne	.L15
 176              		.loc 1 473 0
 177 000a 284B     		ldr	r3, .L25
 178 000c 9842     		cmp	r0, r3
 179 000e 1BD1     		bne	.L16
 180              		.loc 1 474 0
 181 0010 274B     		ldr	r3, .L25+4
 182 0012 5A6C     		ldr	r2, [r3, #68]
 183 0014 42F00202 		orr	r2, r2, #2
 184 0018 5A64     		str	r2, [r3, #68]
 185              		.loc 1 475 0
 186 001a 5A6A     		ldr	r2, [r3, #36]
 187 001c 42F00202 		orr	r2, r2, #2
 188 0020 5A62     		str	r2, [r3, #36]
 189 0022 0022     		movs	r2, #0
 190 0024 5A62     		str	r2, [r3, #36]
 191              		.loc 1 477 0
 192 0026 2C20     		movs	r0, #44
 193              	.LVL9:
 194 0028 0721     		movs	r1, #7
 195 002a FFF7FEFF 		bl	nvicEnableVector
 196              	.LVL10:
 197              		.loc 1 478 0
 198 002e 2E20     		movs	r0, #46
 199 0030 0721     		movs	r1, #7
 200 0032 FFF7FEFF 		bl	nvicEnableVector
 201              	.LVL11:
 202              		.loc 1 483 0
 203 0036 1F4B     		ldr	r3, .L25+8
 204 0038 A360     		str	r3, [r4, #8]
 205 003a 05E0     		b	.L16
 206              	.LVL12:
 207              	.L15:
 208              		.loc 1 505 0
 209 003c C368     		ldr	r3, [r0, #12]
 210 003e 0022     		movs	r2, #0
 211 0040 1A60     		str	r2, [r3]
 212              		.loc 1 506 0
 213 0042 5A63     		str	r2, [r3, #52]
 214              		.loc 1 507 0
 215 0044 9A63     		str	r2, [r3, #56]
 216              		.loc 1 508 0
 217 0046 5A62     		str	r2, [r3, #36]
 218              	.LVL13:
 219              	.L16:
 220              		.loc 1 513 0
 221 0048 6168     		ldr	r1, [r4, #4]
 222              		.loc 1 512 0
 223 004a E368     		ldr	r3, [r4, #12]
 224              		.loc 1 515 0
 225 004c 4868     		ldr	r0, [r1, #4]
 226              		.loc 1 522 0
 227 004e 0D7D     		ldrb	r5, [r1, #20]	@ zero_extendqisi2
 228              		.loc 1 512 0
ARM GAS  /tmp/cc6cIjGY.s 			page 5


 229 0050 0022     		movs	r2, #0
 230 0052 1A61     		str	r2, [r3, #16]
 231              		.loc 1 513 0
 232 0054 8A69     		ldr	r2, [r1, #24]
 233 0056 22F0FF02 		bic	r2, r2, #255
 234 005a DA60     		str	r2, [r3, #12]
 235              		.loc 1 515 0
 236 005c A268     		ldr	r2, [r4, #8]
 237 005e B2FBF0F2 		udiv	r2, r2, r0
 238 0062 013A     		subs	r2, r2, #1
 239              	.LVL14:
 240              		.loc 1 519 0
 241 0064 9A62     		str	r2, [r3, #40]
 242              		.loc 1 520 0
 243 0066 4FF6FF72 		movw	r2, #65535
 244              	.LVL15:
 245 006a DA62     		str	r2, [r3, #44]
 246              	.LVL16:
 247 006c 0878     		ldrb	r0, [r1]	@ zero_extendqisi2
 248              	.LVL17:
 249 006e 03F13802 		add	r2, r3, #56
 250 0072 03F13401 		add	r1, r3, #52
 251              	.LVL18:
 252              		.loc 1 522 0
 253 0076 65B9     		cbnz	r5, .L17
 254              		.loc 1 526 0
 255 0078 40F20125 		movw	r5, #513
 256 007c 9D61     		str	r5, [r3, #24]
 257              		.loc 1 530 0
 258 007e 5425     		movs	r5, #84
 259 0080 9D60     		str	r5, [r3, #8]
 260              		.loc 1 535 0
 261 0082 08B9     		cbnz	r0, .L18
 262              		.loc 1 536 0
 263 0084 3120     		movs	r0, #49
 264 0086 00E0     		b	.L23
 265              	.L18:
 266              		.loc 1 539 0
 267 0088 1320     		movs	r0, #19
 268              	.L23:
 269 008a 1862     		str	r0, [r3, #32]
 270              	.LVL19:
 271              		.loc 1 544 0
 272 008c 2261     		str	r2, [r4, #16]
 273              		.loc 1 545 0
 274 008e 6161     		str	r1, [r4, #20]
 275 0090 38BD     		pop	{r3, r4, r5, pc}
 276              	.LVL20:
 277              	.L17:
 278              		.loc 1 551 0
 279 0092 4FF48175 		mov	r5, #258
 280 0096 9D61     		str	r5, [r3, #24]
 281              		.loc 1 555 0
 282 0098 6425     		movs	r5, #100
 283 009a 9D60     		str	r5, [r3, #8]
 284              		.loc 1 560 0
 285 009c 08B9     		cbnz	r0, .L21
ARM GAS  /tmp/cc6cIjGY.s 			page 6


 286              		.loc 1 561 0
 287 009e 1320     		movs	r0, #19
 288 00a0 00E0     		b	.L24
 289              	.L21:
 290              		.loc 1 564 0
 291 00a2 3120     		movs	r0, #49
 292              	.L24:
 293 00a4 1862     		str	r0, [r3, #32]
 294              	.LVL21:
 295              		.loc 1 569 0
 296 00a6 2161     		str	r1, [r4, #16]
 297              		.loc 1 570 0
 298 00a8 6261     		str	r2, [r4, #20]
 299 00aa 38BD     		pop	{r3, r4, r5, pc}
 300              	.LVL22:
 301              	.L26:
 302              		.align	2
 303              	.L25:
 304 00ac 00000000 		.word	.LANCHOR0
 305 00b0 00380240 		.word	1073887232
 306 00b4 007A030A 		.word	168000000
 307              		.cfi_endproc
 308              	.LFE281:
 309              		.size	icu_lld_start, .-icu_lld_start
 310              		.section	.text.icu_lld_stop,"ax",%progbits
 311              		.align	1
 312              		.global	icu_lld_stop
 313              		.thumb
 314              		.thumb_func
 315              		.type	icu_lld_stop, %function
 316              	icu_lld_stop:
 317              	.LFB282:
 318              		.loc 1 581 0
 319              		.cfi_startproc
 320              		@ args = 0, pretend = 0, frame = 0
 321              		@ frame_needed = 0, uses_anonymous_args = 0
 322              	.LVL23:
 323 0000 08B5     		push	{r3, lr}
 324              		.cfi_def_cfa_offset 8
 325              		.cfi_offset 3, -8
 326              		.cfi_offset 14, -4
 327              		.loc 1 583 0
 328 0002 0378     		ldrb	r3, [r0]	@ zero_extendqisi2
 329 0004 022B     		cmp	r3, #2
 330 0006 12D1     		bne	.L27
 331              		.loc 1 585 0
 332 0008 C368     		ldr	r3, [r0, #12]
 333 000a 0022     		movs	r2, #0
 334 000c 1A60     		str	r2, [r3]
 335              		.loc 1 586 0
 336 000e DA60     		str	r2, [r3, #12]
 337              		.loc 1 587 0
 338 0010 1A61     		str	r2, [r3, #16]
 339              		.loc 1 636 0
 340 0012 074B     		ldr	r3, .L31
 341 0014 9842     		cmp	r0, r3
 342 0016 0AD1     		bne	.L27
ARM GAS  /tmp/cc6cIjGY.s 			page 7


 343              		.loc 1 638 0
 344 0018 2C20     		movs	r0, #44
 345              	.LVL24:
 346 001a FFF7FEFF 		bl	nvicDisableVector
 347              	.LVL25:
 348              		.loc 1 639 0
 349 001e 2E20     		movs	r0, #46
 350 0020 FFF7FEFF 		bl	nvicDisableVector
 351              	.LVL26:
 352              		.loc 1 641 0
 353 0024 034A     		ldr	r2, .L31+4
 354 0026 536C     		ldr	r3, [r2, #68]
 355 0028 23F00203 		bic	r3, r3, #2
 356 002c 5364     		str	r3, [r2, #68]
 357              	.L27:
 358 002e 08BD     		pop	{r3, pc}
 359              	.L32:
 360              		.align	2
 361              	.L31:
 362 0030 00000000 		.word	.LANCHOR0
 363 0034 00380240 		.word	1073887232
 364              		.cfi_endproc
 365              	.LFE282:
 366              		.size	icu_lld_stop, .-icu_lld_stop
 367              		.section	.text.icu_lld_start_capture,"ax",%progbits
 368              		.align	1
 369              		.global	icu_lld_start_capture
 370              		.thumb
 371              		.thumb_func
 372              		.type	icu_lld_start_capture, %function
 373              	icu_lld_start_capture:
 374              	.LFB283:
 375              		.loc 1 663 0
 376              		.cfi_startproc
 377              		@ args = 0, pretend = 0, frame = 0
 378              		@ frame_needed = 0, uses_anonymous_args = 0
 379              		@ link register save eliminated.
 380              	.LVL27:
 381              		.loc 1 666 0
 382 0000 C368     		ldr	r3, [r0, #12]
 383 0002 5A69     		ldr	r2, [r3, #20]
 384 0004 42F00102 		orr	r2, r2, #1
 385 0008 5A61     		str	r2, [r3, #20]
 386              		.loc 1 667 0
 387 000a 0022     		movs	r2, #0
 388 000c 1A61     		str	r2, [r3, #16]
 389              		.loc 1 670 0
 390 000e 0522     		movs	r2, #5
 391 0010 1A60     		str	r2, [r3]
 392 0012 7047     		bx	lr
 393              		.cfi_endproc
 394              	.LFE283:
 395              		.size	icu_lld_start_capture, .-icu_lld_start_capture
 396              		.section	.text.icu_lld_wait_capture,"ax",%progbits
 397              		.align	1
 398              		.global	icu_lld_wait_capture
 399              		.thumb
ARM GAS  /tmp/cc6cIjGY.s 			page 8


 400              		.thumb_func
 401              		.type	icu_lld_wait_capture, %function
 402              	icu_lld_wait_capture:
 403              	.LFB284:
 404              		.loc 1 685 0
 405              		.cfi_startproc
 406              		@ args = 0, pretend = 0, frame = 0
 407              		@ frame_needed = 0, uses_anonymous_args = 0
 408              	.LVL28:
 409              		.loc 1 689 0
 410 0000 0378     		ldrb	r3, [r0]	@ zero_extendqisi2
 411 0002 032B     		cmp	r3, #3
 412              		.loc 1 685 0
 413 0004 10B5     		push	{r4, lr}
 414              		.cfi_def_cfa_offset 8
 415              		.cfi_offset 4, -8
 416              		.cfi_offset 14, -4
 417              		.loc 1 685 0
 418 0006 0446     		mov	r4, r0
 419              		.loc 1 689 0
 420 0008 04D0     		beq	.L35
 421              	.LVL29:
 422              	.L36:
 423              		.loc 1 694 0
 424 000a 2046     		mov	r0, r4
 425              		.loc 1 695 0
 426 000c BDE81040 		pop	{r4, lr}
 427              		.cfi_remember_state
 428              		.cfi_restore 14
 429              		.cfi_restore 4
 430              		.cfi_def_cfa_offset 0
 431              	.LVL30:
 432              		.loc 1 694 0
 433 0010 FFF7FEBF 		b	icu_lld_wait_edge
 434              	.LVL31:
 435              	.L35:
 436              		.cfi_restore_state
 437              		.loc 1 690 0
 438 0014 FFF7FEFF 		bl	icu_lld_wait_edge
 439              	.LVL32:
 440 0018 0028     		cmp	r0, #0
 441 001a F6D0     		beq	.L36
 442              		.loc 1 695 0
 443 001c 10BD     		pop	{r4, pc}
 444              		.cfi_endproc
 445              	.LFE284:
 446              		.size	icu_lld_wait_capture, .-icu_lld_wait_capture
 447              		.section	.text.icu_lld_stop_capture,"ax",%progbits
 448              		.align	1
 449              		.global	icu_lld_stop_capture
 450              		.thumb
 451              		.thumb_func
 452              		.type	icu_lld_stop_capture, %function
 453              	icu_lld_stop_capture:
 454              	.LFB285:
 455              		.loc 1 704 0
 456              		.cfi_startproc
ARM GAS  /tmp/cc6cIjGY.s 			page 9


 457              		@ args = 0, pretend = 0, frame = 0
 458              		@ frame_needed = 0, uses_anonymous_args = 0
 459              		@ link register save eliminated.
 460              	.LVL33:
 461              		.loc 1 707 0
 462 0000 C368     		ldr	r3, [r0, #12]
 463 0002 0022     		movs	r2, #0
 464 0004 1A60     		str	r2, [r3]
 465              		.loc 1 710 0
 466 0006 DA68     		ldr	r2, [r3, #12]
 467 0008 22F0FF02 		bic	r2, r2, #255
 468 000c DA60     		str	r2, [r3, #12]
 469 000e 7047     		bx	lr
 470              		.cfi_endproc
 471              	.LFE285:
 472              		.size	icu_lld_stop_capture, .-icu_lld_stop_capture
 473              		.section	.text.icu_lld_enable_notifications,"ax",%progbits
 474              		.align	1
 475              		.global	icu_lld_enable_notifications
 476              		.thumb
 477              		.thumb_func
 478              		.type	icu_lld_enable_notifications, %function
 479              	icu_lld_enable_notifications:
 480              	.LFB286:
 481              		.loc 1 722 0
 482              		.cfi_startproc
 483              		@ args = 0, pretend = 0, frame = 0
 484              		@ frame_needed = 0, uses_anonymous_args = 0
 485              	.LVL34:
 486              		.loc 1 723 0
 487 0000 C268     		ldr	r2, [r0, #12]
 488 0002 D368     		ldr	r3, [r2, #12]
 489              	.LVL35:
 490              		.loc 1 728 0
 491 0004 13F0FF01 		ands	r1, r3, #255
 492              		.loc 1 722 0
 493 0008 10B5     		push	{r4, lr}
 494              		.cfi_def_cfa_offset 8
 495              		.cfi_offset 4, -8
 496              		.cfi_offset 14, -4
 497              		.loc 1 728 0
 498 000a 13D1     		bne	.L41
 499              		.loc 1 730 0
 500 000c 1161     		str	r1, [r2, #16]
 501              		.loc 1 732 0
 502 000e 4168     		ldr	r1, [r0, #4]
 503 0010 0C7D     		ldrb	r4, [r1, #20]	@ zero_extendqisi2
 504 0012 8868     		ldr	r0, [r1, #8]
 505              	.LVL36:
 506 0014 1CB9     		cbnz	r4, .L43
 507              	.LVL37:
 508              		.loc 1 737 0
 509 0016 30B9     		cbnz	r0, .L46
 510              		.loc 1 734 0
 511 0018 43F00203 		orr	r3, r3, #2
 512              	.LVL38:
 513 001c 05E0     		b	.L45
ARM GAS  /tmp/cc6cIjGY.s 			page 10


 514              	.L43:
 515              	.LVL39:
 516              		.loc 1 745 0
 517 001e 10B9     		cbnz	r0, .L46
 518              		.loc 1 742 0
 519 0020 43F00403 		orr	r3, r3, #4
 520              	.LVL40:
 521 0024 01E0     		b	.L45
 522              	.LVL41:
 523              	.L46:
 524              		.loc 1 746 0
 525 0026 43F00603 		orr	r3, r3, #6
 526              	.LVL42:
 527              	.L45:
 528              		.loc 1 751 0
 529 002a 0969     		ldr	r1, [r1, #16]
 530 002c 09B1     		cbz	r1, .L47
 531              		.loc 1 752 0
 532 002e 43F00103 		orr	r3, r3, #1
 533              	.LVL43:
 534              	.L47:
 535              		.loc 1 755 0
 536 0032 D360     		str	r3, [r2, #12]
 537              	.L41:
 538 0034 10BD     		pop	{r4, pc}
 539              		.cfi_endproc
 540              	.LFE286:
 541              		.size	icu_lld_enable_notifications, .-icu_lld_enable_notifications
 542              		.section	.text.icu_lld_disable_notifications,"ax",%progbits
 543              		.align	1
 544              		.global	icu_lld_disable_notifications
 545              		.thumb
 546              		.thumb_func
 547              		.type	icu_lld_disable_notifications, %function
 548              	icu_lld_disable_notifications:
 549              	.LFB287:
 550              		.loc 1 768 0
 551              		.cfi_startproc
 552              		@ args = 0, pretend = 0, frame = 0
 553              		@ frame_needed = 0, uses_anonymous_args = 0
 554              		@ link register save eliminated.
 555              	.LVL44:
 556              		.loc 1 771 0
 557 0000 C268     		ldr	r2, [r0, #12]
 558 0002 D368     		ldr	r3, [r2, #12]
 559 0004 23F0FF03 		bic	r3, r3, #255
 560 0008 D360     		str	r3, [r2, #12]
 561 000a 7047     		bx	lr
 562              		.cfi_endproc
 563              	.LFE287:
 564              		.size	icu_lld_disable_notifications, .-icu_lld_disable_notifications
 565              		.section	.text.icu_lld_serve_interrupt,"ax",%progbits
 566              		.align	1
 567              		.global	icu_lld_serve_interrupt
 568              		.thumb
 569              		.thumb_func
 570              		.type	icu_lld_serve_interrupt, %function
ARM GAS  /tmp/cc6cIjGY.s 			page 11


 571              	icu_lld_serve_interrupt:
 572              	.LFB288:
 573              		.loc 1 781 0
 574              		.cfi_startproc
 575              		@ args = 0, pretend = 0, frame = 0
 576              		@ frame_needed = 0, uses_anonymous_args = 0
 577              	.LVL45:
 578 0000 F8B5     		push	{r3, r4, r5, r6, r7, lr}
 579              		.cfi_def_cfa_offset 24
 580              		.cfi_offset 3, -24
 581              		.cfi_offset 4, -20
 582              		.cfi_offset 5, -16
 583              		.cfi_offset 6, -12
 584              		.cfi_offset 7, -8
 585              		.cfi_offset 14, -4
 586              		.loc 1 784 0
 587 0002 C368     		ldr	r3, [r0, #12]
 588 0004 1A69     		ldr	r2, [r3, #16]
 589              	.LVL46:
 590              		.loc 1 785 0
 591 0006 DD68     		ldr	r5, [r3, #12]
 592 0008 1540     		ands	r5, r5, r2
 593              	.LVL47:
 594 000a EAB2     		uxtb	r2, r5
 595              		.loc 1 786 0
 596 000c D243     		mvns	r2, r2
 597 000e 1A61     		str	r2, [r3, #16]
 598              		.loc 1 787 0
 599 0010 4368     		ldr	r3, [r0, #4]
 600 0012 1A7D     		ldrb	r2, [r3, #20]	@ zero_extendqisi2
 601              		.loc 1 781 0
 602 0014 0446     		mov	r4, r0
 603 0016 05F00406 		and	r6, r5, #4
 604 001a 05F00207 		and	r7, r5, #2
 605              		.loc 1 787 0
 606 001e 92B9     		cbnz	r2, .L53
 607              		.loc 1 788 0
 608 0020 2EB1     		cbz	r6, .L54
 609              		.loc 1 789 0
 610 0022 0278     		ldrb	r2, [r0]	@ zero_extendqisi2
 611 0024 042A     		cmp	r2, #4
 612 0026 02D1     		bne	.L54
 613              		.loc 1 789 0 is_stmt 0 discriminator 1
 614 0028 9B68     		ldr	r3, [r3, #8]
 615 002a 03B1     		cbz	r3, .L54
 616              		.loc 1 789 0 discriminator 2
 617 002c 9847     		blx	r3
 618              	.LVL48:
 619              	.L54:
 620              		.loc 1 790 0 is_stmt 1
 621 002e 9FB1     		cbz	r7, .L56
 622              	.L91:
 623              		.loc 1 791 0
 624 0030 2378     		ldrb	r3, [r4]	@ zero_extendqisi2
 625 0032 042B     		cmp	r3, #4
 626 0034 04D1     		bne	.L58
 627              		.loc 1 791 0 is_stmt 0 discriminator 1
ARM GAS  /tmp/cc6cIjGY.s 			page 12


 628 0036 6368     		ldr	r3, [r4, #4]
 629 0038 DB68     		ldr	r3, [r3, #12]
 630 003a 0BB1     		cbz	r3, .L58
 631              		.loc 1 791 0 discriminator 3
 632 003c 2046     		mov	r0, r4
 633 003e 9847     		blx	r3
 634              	.LVL49:
 635              	.L58:
 636              		.loc 1 791 0 discriminator 5
 637 0040 0423     		movs	r3, #4
 638 0042 2370     		strb	r3, [r4]
 639 0044 08E0     		b	.L56
 640              	.LVL50:
 641              	.L53:
 642              		.loc 1 794 0 is_stmt 1
 643 0046 2FB1     		cbz	r7, .L60
 644              		.loc 1 795 0
 645 0048 0278     		ldrb	r2, [r0]	@ zero_extendqisi2
 646 004a 042A     		cmp	r2, #4
 647 004c 02D1     		bne	.L60
 648              		.loc 1 795 0 is_stmt 0 discriminator 1
 649 004e 9B68     		ldr	r3, [r3, #8]
 650 0050 03B1     		cbz	r3, .L60
 651              		.loc 1 795 0 discriminator 2
 652 0052 9847     		blx	r3
 653              	.LVL51:
 654              	.L60:
 655              		.loc 1 796 0 is_stmt 1
 656 0054 002E     		cmp	r6, #0
 657 0056 EBD1     		bne	.L91
 658              	.L56:
 659              		.loc 1 799 0
 660 0058 EB07     		lsls	r3, r5, #31
 661 005a 05D5     		bpl	.L52
 662              		.loc 1 800 0
 663 005c 6368     		ldr	r3, [r4, #4]
 664 005e 2046     		mov	r0, r4
 665 0060 1B69     		ldr	r3, [r3, #16]
 666 0062 9847     		blx	r3
 667              	.LVL52:
 668 0064 0323     		movs	r3, #3
 669 0066 2370     		strb	r3, [r4]
 670              	.L52:
 671 0068 F8BD     		pop	{r3, r4, r5, r6, r7, pc}
 672              		.cfi_endproc
 673              	.LFE288:
 674              		.size	icu_lld_serve_interrupt, .-icu_lld_serve_interrupt
 675              		.section	.text.VectorF0,"ax",%progbits
 676              		.align	1
 677              		.global	VectorF0
 678              		.thumb
 679              		.thumb_func
 680              		.type	VectorF0, %function
 681              	VectorF0:
 682              	.LFB278:
 683              		.loc 1 277 0
 684              		.cfi_startproc
ARM GAS  /tmp/cc6cIjGY.s 			page 13


 685              		@ args = 0, pretend = 0, frame = 0
 686              		@ frame_needed = 0, uses_anonymous_args = 0
 687 0000 08B5     		push	{r3, lr}
 688              		.cfi_def_cfa_offset 8
 689              		.cfi_offset 3, -8
 690              		.cfi_offset 14, -4
 691              		.loc 1 279 0
 692 0002 FFF7FEFF 		bl	_stats_increase_irq
 693              	.LVL53:
 694              		.loc 1 281 0
 695 0006 0348     		ldr	r0, .L93
 696 0008 FFF7FEFF 		bl	icu_lld_serve_interrupt
 697              	.LVL54:
 698              		.loc 1 284 0
 699 000c BDE80840 		pop	{r3, lr}
 700              		.cfi_restore 14
 701              		.cfi_restore 3
 702              		.cfi_def_cfa_offset 0
 703              		.loc 1 283 0
 704 0010 FFF7FEBF 		b	_port_irq_epilogue
 705              	.LVL55:
 706              	.L94:
 707              		.align	2
 708              	.L93:
 709 0014 00000000 		.word	.LANCHOR0
 710              		.cfi_endproc
 711              	.LFE278:
 712              		.size	VectorF0, .-VectorF0
 713              		.section	.text.VectorF8,"ax",%progbits
 714              		.align	1
 715              		.global	VectorF8
 716              		.thumb
 717              		.thumb_func
 718              		.type	VectorF8, %function
 719              	VectorF8:
 720              	.LFB279:
 721              		.loc 1 294 0
 722              		.cfi_startproc
 723              		@ args = 0, pretend = 0, frame = 0
 724              		@ frame_needed = 0, uses_anonymous_args = 0
 725 0000 08B5     		push	{r3, lr}
 726              		.cfi_def_cfa_offset 8
 727              		.cfi_offset 3, -8
 728              		.cfi_offset 14, -4
 729              		.loc 1 296 0
 730 0002 FFF7FEFF 		bl	_stats_increase_irq
 731              	.LVL56:
 732              		.loc 1 298 0
 733 0006 0348     		ldr	r0, .L96
 734 0008 FFF7FEFF 		bl	icu_lld_serve_interrupt
 735              	.LVL57:
 736              		.loc 1 301 0
 737 000c BDE80840 		pop	{r3, lr}
 738              		.cfi_restore 14
 739              		.cfi_restore 3
 740              		.cfi_def_cfa_offset 0
 741              		.loc 1 300 0
ARM GAS  /tmp/cc6cIjGY.s 			page 14


 742 0010 FFF7FEBF 		b	_port_irq_epilogue
 743              	.LVL58:
 744              	.L97:
 745              		.align	2
 746              	.L96:
 747 0014 00000000 		.word	.LANCHOR0
 748              		.cfi_endproc
 749              	.LFE279:
 750              		.size	VectorF8, .-VectorF8
 751              		.global	ICUD8
 752              		.section	.bss.ICUD8,"aw",%nobits
 753              		.align	2
 754              		.set	.LANCHOR0,. + 0
 755              		.type	ICUD8, %object
 756              		.size	ICUD8, 24
 757              	ICUD8:
 758 0000 00000000 		.space	24
 758      00000000 
 758      00000000 
 758      00000000 
 758      00000000 
 759              		.text
 760              	.Letext0:
 761              		.file 4 "/usr/lib/gcc/arm-none-eabi/4.9.3/include/stddef.h"
 762              		.file 5 "/usr/include/newlib/machine/_default_types.h"
 763              		.file 6 "/usr/include/newlib/sys/_stdint.h"
 764              		.file 7 "../../modules/ChibiOS/os/common/ports/ARMCMx/compilers/GCC/chtypes.h"
 765              		.file 8 "../../modules/ChibiOS/os/rt/include/chsystypes.h"
 766              		.file 9 "../../modules/ChibiOS/os/rt/include/chschd.h"
 767              		.file 10 "../../modules/ChibiOS/os/common/ext/CMSIS/ST/STM32F4xx/stm32f407xx.h"
 768              		.file 11 "../../modules/ChibiOS/os/common/ports/ARMCMx/chcore.h"
 769              		.file 12 "../../modules/ChibiOS/os/common/ports/ARMCMx/chcore_v7m.h"
 770              		.file 13 "../../modules/ChibiOS/os/hal/ports/STM32/LLD/TIMv1/stm32_tim.h"
 771              		.file 14 "../../modules/ChibiOS/os/rt/include/chtm.h"
 772              		.file 15 "../../modules/ChibiOS/os/rt/include/chstats.h"
 773              		.file 16 "../../modules/ChibiOS/os/rt/include/chsem.h"
 774              		.file 17 "../../modules/ChibiOS/os/rt/include/chmtx.h"
 775              		.file 18 "../../modules/ChibiOS/os/hal/include/hal_icu.h"
 776              		.file 19 "../../modules/ChibiOS/os/hal/ports/STM32/LLD/TIMv1/hal_icu_lld.h"
 777              		.file 20 "../../modules/ChibiOS/os/hal/osal/rt/osal.h"
 778              		.file 21 "../../modules/ChibiOS/os/common/ext/CMSIS/include/core_cm4.h"
 779              		.file 22 "../../modules/ChibiOS/os/hal/ports/common/ARMCMx/nvic.h"
 780              		.section	.debug_info,"",%progbits
 781              	.Ldebug_info0:
 782 0000 DD100000 		.4byte	0x10dd
 783 0004 0400     		.2byte	0x4
 784 0006 00000000 		.4byte	.Ldebug_abbrev0
 785 000a 04       		.byte	0x4
 786 000b 01       		.uleb128 0x1
 787 000c 64060000 		.4byte	.LASF198
 788 0010 01       		.byte	0x1
 789 0011 73080000 		.4byte	.LASF199
 790 0015 95050000 		.4byte	.LASF200
 791 0019 00000000 		.4byte	.Ldebug_ranges0+0
 792 001d 00000000 		.4byte	0
 793 0021 00000000 		.4byte	.Ldebug_line0
 794 0025 02       		.uleb128 0x2
ARM GAS  /tmp/cc6cIjGY.s 			page 15


 795 0026 04       		.byte	0x4
 796 0027 07       		.byte	0x7
 797 0028 0B050000 		.4byte	.LASF0
 798 002c 03       		.uleb128 0x3
 799 002d 04       		.byte	0x4
 800 002e 05       		.byte	0x5
 801 002f 696E7400 		.ascii	"int\000"
 802 0033 04       		.uleb128 0x4
 803 0034 0B000000 		.4byte	.LASF2
 804 0038 04       		.byte	0x4
 805 0039 D4       		.byte	0xd4
 806 003a 25000000 		.4byte	0x25
 807 003e 02       		.uleb128 0x2
 808 003f 01       		.byte	0x1
 809 0040 06       		.byte	0x6
 810 0041 FF010000 		.4byte	.LASF1
 811 0045 04       		.uleb128 0x4
 812 0046 11010000 		.4byte	.LASF3
 813 004a 05       		.byte	0x5
 814 004b 1D       		.byte	0x1d
 815 004c 50000000 		.4byte	0x50
 816 0050 02       		.uleb128 0x2
 817 0051 01       		.byte	0x1
 818 0052 08       		.byte	0x8
 819 0053 46020000 		.4byte	.LASF4
 820 0057 02       		.uleb128 0x2
 821 0058 02       		.byte	0x2
 822 0059 05       		.byte	0x5
 823 005a 34080000 		.4byte	.LASF5
 824 005e 02       		.uleb128 0x2
 825 005f 02       		.byte	0x2
 826 0060 07       		.byte	0x7
 827 0061 4E090000 		.4byte	.LASF6
 828 0065 04       		.uleb128 0x4
 829 0066 90090000 		.4byte	.LASF7
 830 006a 05       		.byte	0x5
 831 006b 3F       		.byte	0x3f
 832 006c 70000000 		.4byte	0x70
 833 0070 02       		.uleb128 0x2
 834 0071 04       		.byte	0x4
 835 0072 05       		.byte	0x5
 836 0073 41010000 		.4byte	.LASF8
 837 0077 04       		.uleb128 0x4
 838 0078 9C040000 		.4byte	.LASF9
 839 007c 05       		.byte	0x5
 840 007d 41       		.byte	0x41
 841 007e 82000000 		.4byte	0x82
 842 0082 02       		.uleb128 0x2
 843 0083 04       		.byte	0x4
 844 0084 07       		.byte	0x7
 845 0085 B8030000 		.4byte	.LASF10
 846 0089 02       		.uleb128 0x2
 847 008a 08       		.byte	0x8
 848 008b 05       		.byte	0x5
 849 008c AF040000 		.4byte	.LASF11
 850 0090 04       		.uleb128 0x4
 851 0091 A1030000 		.4byte	.LASF12
ARM GAS  /tmp/cc6cIjGY.s 			page 16


 852 0095 05       		.byte	0x5
 853 0096 5B       		.byte	0x5b
 854 0097 9B000000 		.4byte	0x9b
 855 009b 02       		.uleb128 0x2
 856 009c 08       		.byte	0x8
 857 009d 07       		.byte	0x7
 858 009e 4D060000 		.4byte	.LASF13
 859 00a2 04       		.uleb128 0x4
 860 00a3 12020000 		.4byte	.LASF14
 861 00a7 06       		.byte	0x6
 862 00a8 14       		.byte	0x14
 863 00a9 45000000 		.4byte	0x45
 864 00ad 04       		.uleb128 0x4
 865 00ae 4E000000 		.4byte	.LASF15
 866 00b2 06       		.byte	0x6
 867 00b3 1F       		.byte	0x1f
 868 00b4 65000000 		.4byte	0x65
 869 00b8 04       		.uleb128 0x4
 870 00b9 3E090000 		.4byte	.LASF16
 871 00bd 06       		.byte	0x6
 872 00be 20       		.byte	0x20
 873 00bf 77000000 		.4byte	0x77
 874 00c3 04       		.uleb128 0x4
 875 00c4 3E080000 		.4byte	.LASF17
 876 00c8 06       		.byte	0x6
 877 00c9 26       		.byte	0x26
 878 00ca 90000000 		.4byte	0x90
 879 00ce 04       		.uleb128 0x4
 880 00cf 18050000 		.4byte	.LASF18
 881 00d3 07       		.byte	0x7
 882 00d4 39       		.byte	0x39
 883 00d5 B8000000 		.4byte	0xb8
 884 00d9 04       		.uleb128 0x4
 885 00da 81010000 		.4byte	.LASF19
 886 00de 07       		.byte	0x7
 887 00df 3A       		.byte	0x3a
 888 00e0 C3000000 		.4byte	0xc3
 889 00e4 04       		.uleb128 0x4
 890 00e5 E7070000 		.4byte	.LASF20
 891 00e9 07       		.byte	0x7
 892 00ea 3C       		.byte	0x3c
 893 00eb A2000000 		.4byte	0xa2
 894 00ef 04       		.uleb128 0x4
 895 00f0 78010000 		.4byte	.LASF21
 896 00f4 07       		.byte	0x7
 897 00f5 3D       		.byte	0x3d
 898 00f6 A2000000 		.4byte	0xa2
 899 00fa 04       		.uleb128 0x4
 900 00fb F4080000 		.4byte	.LASF22
 901 00ff 07       		.byte	0x7
 902 0100 3E       		.byte	0x3e
 903 0101 A2000000 		.4byte	0xa2
 904 0105 04       		.uleb128 0x4
 905 0106 46000000 		.4byte	.LASF23
 906 010a 07       		.byte	0x7
 907 010b 40       		.byte	0x40
 908 010c B8000000 		.4byte	0xb8
ARM GAS  /tmp/cc6cIjGY.s 			page 17


 909 0110 04       		.uleb128 0x4
 910 0111 53070000 		.4byte	.LASF24
 911 0115 07       		.byte	0x7
 912 0116 41       		.byte	0x41
 913 0117 AD000000 		.4byte	0xad
 914 011b 04       		.uleb128 0x4
 915 011c 20020000 		.4byte	.LASF25
 916 0120 07       		.byte	0x7
 917 0121 43       		.byte	0x43
 918 0122 B8000000 		.4byte	0xb8
 919 0126 04       		.uleb128 0x4
 920 0127 5E030000 		.4byte	.LASF26
 921 012b 07       		.byte	0x7
 922 012c 45       		.byte	0x45
 923 012d AD000000 		.4byte	0xad
 924 0131 04       		.uleb128 0x4
 925 0132 52040000 		.4byte	.LASF27
 926 0136 07       		.byte	0x7
 927 0137 46       		.byte	0x46
 928 0138 B8000000 		.4byte	0xb8
 929 013c 04       		.uleb128 0x4
 930 013d 2B000000 		.4byte	.LASF28
 931 0141 08       		.byte	0x8
 932 0142 33       		.byte	0x33
 933 0143 B8000000 		.4byte	0xb8
 934 0147 04       		.uleb128 0x4
 935 0148 C4050000 		.4byte	.LASF29
 936 014c 08       		.byte	0x8
 937 014d 3F       		.byte	0x3f
 938 014e 52010000 		.4byte	0x152
 939 0152 05       		.uleb128 0x5
 940 0153 EE030000 		.4byte	.LASF48
 941 0157 60       		.byte	0x60
 942 0158 09       		.byte	0x9
 943 0159 9A       		.byte	0x9a
 944 015a 3D020000 		.4byte	0x23d
 945 015e 06       		.uleb128 0x6
 946 015f 80070000 		.4byte	.LASF30
 947 0163 09       		.byte	0x9
 948 0164 9B       		.byte	0x9b
 949 0165 72020000 		.4byte	0x272
 950 0169 00       		.byte	0
 951 016a 06       		.uleb128 0x6
 952 016b E8000000 		.4byte	.LASF31
 953 016f 09       		.byte	0x9
 954 0170 9C       		.byte	0x9c
 955 0171 05010000 		.4byte	0x105
 956 0175 08       		.byte	0x8
 957 0176 07       		.uleb128 0x7
 958 0177 63747800 		.ascii	"ctx\000"
 959 017b 09       		.byte	0x9
 960 017c 9D       		.byte	0x9d
 961 017d 37060000 		.4byte	0x637
 962 0181 0C       		.byte	0xc
 963 0182 06       		.uleb128 0x6
 964 0183 22090000 		.4byte	.LASF32
 965 0187 09       		.byte	0x9
ARM GAS  /tmp/cc6cIjGY.s 			page 18


 966 0188 9F       		.byte	0x9f
 967 0189 48020000 		.4byte	0x248
 968 018d 10       		.byte	0x10
 969 018e 06       		.uleb128 0x6
 970 018f 37040000 		.4byte	.LASF33
 971 0193 09       		.byte	0x9
 972 0194 A0       		.byte	0xa0
 973 0195 48020000 		.4byte	0x248
 974 0199 14       		.byte	0x14
 975 019a 06       		.uleb128 0x6
 976 019b 19080000 		.4byte	.LASF34
 977 019f 09       		.byte	0x9
 978 01a0 A7       		.byte	0xa7
 979 01a1 400A0000 		.4byte	0xa40
 980 01a5 18       		.byte	0x18
 981 01a6 06       		.uleb128 0x6
 982 01a7 DA070000 		.4byte	.LASF35
 983 01ab 09       		.byte	0x9
 984 01ac B0       		.byte	0xb0
 985 01ad 520A0000 		.4byte	0xa52
 986 01b1 1C       		.byte	0x1c
 987 01b2 06       		.uleb128 0x6
 988 01b3 A4000000 		.4byte	.LASF36
 989 01b7 09       		.byte	0x9
 990 01b8 B5       		.byte	0xb5
 991 01b9 EF000000 		.4byte	0xef
 992 01bd 20       		.byte	0x20
 993 01be 06       		.uleb128 0x6
 994 01bf EE020000 		.4byte	.LASF37
 995 01c3 09       		.byte	0x9
 996 01c4 B9       		.byte	0xb9
 997 01c5 E4000000 		.4byte	0xe4
 998 01c9 21       		.byte	0x21
 999 01ca 06       		.uleb128 0x6
 1000 01cb 7B070000 		.4byte	.LASF38
 1001 01cf 09       		.byte	0x9
 1002 01d0 BE       		.byte	0xbe
 1003 01d1 FA000000 		.4byte	0xfa
 1004 01d5 22       		.byte	0x22
 1005 01d6 08       		.uleb128 0x8
 1006 01d7 7500     		.ascii	"u\000"
 1007 01d9 09       		.byte	0x9
 1008 01da 0F01     		.2byte	0x10f
 1009 01dc 75090000 		.4byte	0x975
 1010 01e0 24       		.byte	0x24
 1011 01e1 09       		.uleb128 0x9
 1012 01e2 C7080000 		.4byte	.LASF39
 1013 01e6 09       		.byte	0x9
 1014 01e7 1401     		.2byte	0x114
 1015 01e9 4E020000 		.4byte	0x24e
 1016 01ed 28       		.byte	0x28
 1017 01ee 09       		.uleb128 0x9
 1018 01ef 5A080000 		.4byte	.LASF40
 1019 01f3 09       		.byte	0x9
 1020 01f4 1A01     		.2byte	0x11a
 1021 01f6 72020000 		.4byte	0x272
 1022 01fa 2C       		.byte	0x2c
ARM GAS  /tmp/cc6cIjGY.s 			page 19


 1023 01fb 09       		.uleb128 0x9
 1024 01fc 86070000 		.4byte	.LASF41
 1025 0200 09       		.byte	0x9
 1026 0201 2001     		.2byte	0x120
 1027 0203 1B010000 		.4byte	0x11b
 1028 0207 34       		.byte	0x34
 1029 0208 09       		.uleb128 0x9
 1030 0209 A7040000 		.4byte	.LASF42
 1031 020d 09       		.byte	0x9
 1032 020e 2701     		.2byte	0x127
 1033 0210 3A0A0000 		.4byte	0xa3a
 1034 0214 38       		.byte	0x38
 1035 0215 09       		.uleb128 0x9
 1036 0216 3D040000 		.4byte	.LASF43
 1037 021a 09       		.byte	0x9
 1038 021b 2B01     		.2byte	0x12b
 1039 021d 05010000 		.4byte	0x105
 1040 0221 3C       		.byte	0x3c
 1041 0222 09       		.uleb128 0x9
 1042 0223 FF020000 		.4byte	.LASF44
 1043 0227 09       		.byte	0x9
 1044 0228 3201     		.2byte	0x132
 1045 022a 25030000 		.4byte	0x325
 1046 022e 40       		.byte	0x40
 1047 022f 09       		.uleb128 0x9
 1048 0230 B4000000 		.4byte	.LASF45
 1049 0234 09       		.byte	0x9
 1050 0235 3801     		.2byte	0x138
 1051 0237 26090000 		.4byte	0x926
 1052 023b 48       		.byte	0x48
 1053 023c 00       		.byte	0
 1054 023d 04       		.uleb128 0x4
 1055 023e DF050000 		.4byte	.LASF46
 1056 0242 08       		.byte	0x8
 1057 0243 44       		.byte	0x44
 1058 0244 48020000 		.4byte	0x248
 1059 0248 0A       		.uleb128 0xa
 1060 0249 04       		.byte	0x4
 1061 024a 47010000 		.4byte	0x147
 1062 024e 04       		.uleb128 0x4
 1063 024f 09090000 		.4byte	.LASF47
 1064 0253 08       		.byte	0x8
 1065 0254 49       		.byte	0x49
 1066 0255 59020000 		.4byte	0x259
 1067 0259 05       		.uleb128 0x5
 1068 025a 5F040000 		.4byte	.LASF49
 1069 025e 04       		.byte	0x4
 1070 025f 09       		.byte	0x9
 1071 0260 88       		.byte	0x88
 1072 0261 72020000 		.4byte	0x272
 1073 0265 06       		.uleb128 0x6
 1074 0266 B2090000 		.4byte	.LASF50
 1075 026a 09       		.byte	0x9
 1076 026b 89       		.byte	0x89
 1077 026c 48020000 		.4byte	0x248
 1078 0270 00       		.byte	0
 1079 0271 00       		.byte	0
ARM GAS  /tmp/cc6cIjGY.s 			page 20


 1080 0272 04       		.uleb128 0x4
 1081 0273 93010000 		.4byte	.LASF51
 1082 0277 08       		.byte	0x8
 1083 0278 50       		.byte	0x50
 1084 0279 7D020000 		.4byte	0x27d
 1085 027d 05       		.uleb128 0x5
 1086 027e 59070000 		.4byte	.LASF52
 1087 0282 08       		.byte	0x8
 1088 0283 09       		.byte	0x9
 1089 0284 8F       		.byte	0x8f
 1090 0285 A2020000 		.4byte	0x2a2
 1091 0289 06       		.uleb128 0x6
 1092 028a B2090000 		.4byte	.LASF50
 1093 028e 09       		.byte	0x9
 1094 028f 90       		.byte	0x90
 1095 0290 48020000 		.4byte	0x248
 1096 0294 00       		.byte	0
 1097 0295 06       		.uleb128 0x6
 1098 0296 B7090000 		.4byte	.LASF53
 1099 029a 09       		.byte	0x9
 1100 029b 91       		.byte	0x91
 1101 029c 48020000 		.4byte	0x248
 1102 02a0 04       		.byte	0x4
 1103 02a1 00       		.byte	0
 1104 02a2 04       		.uleb128 0x4
 1105 02a3 2A040000 		.4byte	.LASF54
 1106 02a7 08       		.byte	0x8
 1107 02a8 57       		.byte	0x57
 1108 02a9 AD020000 		.4byte	0x2ad
 1109 02ad 0B       		.uleb128 0xb
 1110 02ae 75030000 		.4byte	.LASF55
 1111 02b2 1C       		.byte	0x1c
 1112 02b3 09       		.byte	0x9
 1113 02b4 6A01     		.2byte	0x16a
 1114 02b6 09030000 		.4byte	0x309
 1115 02ba 09       		.uleb128 0x9
 1116 02bb 80070000 		.4byte	.LASF30
 1117 02bf 09       		.byte	0x9
 1118 02c0 6B01     		.2byte	0x16b
 1119 02c2 72020000 		.4byte	0x272
 1120 02c6 00       		.byte	0
 1121 02c7 09       		.uleb128 0x9
 1122 02c8 E8000000 		.4byte	.LASF31
 1123 02cc 09       		.byte	0x9
 1124 02cd 6C01     		.2byte	0x16c
 1125 02cf 05010000 		.4byte	0x105
 1126 02d3 08       		.byte	0x8
 1127 02d4 08       		.uleb128 0x8
 1128 02d5 63747800 		.ascii	"ctx\000"
 1129 02d9 09       		.byte	0x9
 1130 02da 6E01     		.2byte	0x16e
 1131 02dc 37060000 		.4byte	0x637
 1132 02e0 0C       		.byte	0xc
 1133 02e1 09       		.uleb128 0x9
 1134 02e2 22090000 		.4byte	.LASF32
 1135 02e6 09       		.byte	0x9
 1136 02e7 7101     		.2byte	0x171
ARM GAS  /tmp/cc6cIjGY.s 			page 21


 1137 02e9 48020000 		.4byte	0x248
 1138 02ed 10       		.byte	0x10
 1139 02ee 09       		.uleb128 0x9
 1140 02ef 37040000 		.4byte	.LASF33
 1141 02f3 09       		.byte	0x9
 1142 02f4 7201     		.2byte	0x172
 1143 02f6 48020000 		.4byte	0x248
 1144 02fa 14       		.byte	0x14
 1145 02fb 09       		.uleb128 0x9
 1146 02fc 5E050000 		.4byte	.LASF56
 1147 0300 09       		.byte	0x9
 1148 0301 7501     		.2byte	0x175
 1149 0303 48020000 		.4byte	0x248
 1150 0307 18       		.byte	0x18
 1151 0308 00       		.byte	0
 1152 0309 04       		.uleb128 0x4
 1153 030a 6B000000 		.4byte	.LASF57
 1154 030e 08       		.byte	0x8
 1155 030f 5C       		.byte	0x5c
 1156 0310 14030000 		.4byte	0x314
 1157 0314 0A       		.uleb128 0xa
 1158 0315 04       		.byte	0x4
 1159 0316 1A030000 		.4byte	0x31a
 1160 031a 0C       		.uleb128 0xc
 1161 031b 25030000 		.4byte	0x325
 1162 031f 0D       		.uleb128 0xd
 1163 0320 25030000 		.4byte	0x325
 1164 0324 00       		.byte	0
 1165 0325 0E       		.uleb128 0xe
 1166 0326 04       		.byte	0x4
 1167 0327 04       		.uleb128 0x4
 1168 0328 1A040000 		.4byte	.LASF58
 1169 032c 08       		.byte	0x8
 1170 032d 61       		.byte	0x61
 1171 032e 32030000 		.4byte	0x332
 1172 0332 0B       		.uleb128 0xb
 1173 0333 1C060000 		.4byte	.LASF59
 1174 0337 14       		.byte	0x14
 1175 0338 09       		.byte	0x9
 1176 0339 4501     		.2byte	0x145
 1177 033b 81030000 		.4byte	0x381
 1178 033f 09       		.uleb128 0x9
 1179 0340 B2090000 		.4byte	.LASF50
 1180 0344 09       		.byte	0x9
 1181 0345 4601     		.2byte	0x146
 1182 0347 580A0000 		.4byte	0xa58
 1183 034b 00       		.byte	0
 1184 034c 09       		.uleb128 0x9
 1185 034d B7090000 		.4byte	.LASF53
 1186 0351 09       		.byte	0x9
 1187 0352 4701     		.2byte	0x147
 1188 0354 580A0000 		.4byte	0xa58
 1189 0358 04       		.byte	0x4
 1190 0359 09       		.uleb128 0x9
 1191 035a 75070000 		.4byte	.LASF60
 1192 035e 09       		.byte	0x9
 1193 035f 4801     		.2byte	0x148
ARM GAS  /tmp/cc6cIjGY.s 			page 22


 1194 0361 3C010000 		.4byte	0x13c
 1195 0365 08       		.byte	0x8
 1196 0366 09       		.uleb128 0x9
 1197 0367 4C080000 		.4byte	.LASF61
 1198 036b 09       		.byte	0x9
 1199 036c 4901     		.2byte	0x149
 1200 036e 09030000 		.4byte	0x309
 1201 0372 0C       		.byte	0xc
 1202 0373 08       		.uleb128 0x8
 1203 0374 70617200 		.ascii	"par\000"
 1204 0378 09       		.byte	0x9
 1205 0379 4B01     		.2byte	0x14b
 1206 037b 25030000 		.4byte	0x325
 1207 037f 10       		.byte	0x10
 1208 0380 00       		.byte	0
 1209 0381 04       		.uleb128 0x4
 1210 0382 F8030000 		.4byte	.LASF62
 1211 0386 08       		.byte	0x8
 1212 0387 66       		.byte	0x66
 1213 0388 8C030000 		.4byte	0x38c
 1214 038c 0B       		.uleb128 0xb
 1215 038d 74000000 		.4byte	.LASF63
 1216 0391 10       		.byte	0x10
 1217 0392 09       		.byte	0x9
 1218 0393 5501     		.2byte	0x155
 1219 0395 CE030000 		.4byte	0x3ce
 1220 0399 09       		.uleb128 0x9
 1221 039a B2090000 		.4byte	.LASF50
 1222 039e 09       		.byte	0x9
 1223 039f 5601     		.2byte	0x156
 1224 03a1 580A0000 		.4byte	0xa58
 1225 03a5 00       		.byte	0
 1226 03a6 09       		.uleb128 0x9
 1227 03a7 B7090000 		.4byte	.LASF53
 1228 03ab 09       		.byte	0x9
 1229 03ac 5801     		.2byte	0x158
 1230 03ae 580A0000 		.4byte	0xa58
 1231 03b2 04       		.byte	0x4
 1232 03b3 09       		.uleb128 0x9
 1233 03b4 75070000 		.4byte	.LASF60
 1234 03b8 09       		.byte	0x9
 1235 03b9 5A01     		.2byte	0x15a
 1236 03bb 3C010000 		.4byte	0x13c
 1237 03bf 08       		.byte	0x8
 1238 03c0 09       		.uleb128 0x9
 1239 03c1 72020000 		.4byte	.LASF64
 1240 03c5 09       		.byte	0x9
 1241 03c6 6201     		.2byte	0x162
 1242 03c8 3C010000 		.4byte	0x13c
 1243 03cc 0C       		.byte	0xc
 1244 03cd 00       		.byte	0
 1245 03ce 04       		.uleb128 0x4
 1246 03cf 93020000 		.4byte	.LASF65
 1247 03d3 08       		.byte	0x8
 1248 03d4 6B       		.byte	0x6b
 1249 03d5 D9030000 		.4byte	0x3d9
 1250 03d9 0B       		.uleb128 0xb
ARM GAS  /tmp/cc6cIjGY.s 			page 23


 1251 03da 63080000 		.4byte	.LASF66
 1252 03de 04       		.byte	0x4
 1253 03df 09       		.byte	0x9
 1254 03e0 7C01     		.2byte	0x17c
 1255 03e2 F4030000 		.4byte	0x3f4
 1256 03e6 09       		.uleb128 0x9
 1257 03e7 7B020000 		.4byte	.LASF67
 1258 03eb 09       		.byte	0x9
 1259 03ec 8401     		.2byte	0x184
 1260 03ee 5E0A0000 		.4byte	0xa5e
 1261 03f2 00       		.byte	0
 1262 03f3 00       		.byte	0
 1263 03f4 04       		.uleb128 0x4
 1264 03f5 61090000 		.4byte	.LASF68
 1265 03f9 08       		.byte	0x8
 1266 03fa 70       		.byte	0x70
 1267 03fb FF030000 		.4byte	0x3ff
 1268 03ff 0B       		.uleb128 0xb
 1269 0400 18090000 		.4byte	.LASF69
 1270 0404 D0       		.byte	0xd0
 1271 0405 09       		.byte	0x9
 1272 0406 9C01     		.2byte	0x19c
 1273 0408 5A040000 		.4byte	0x45a
 1274 040c 09       		.uleb128 0x9
 1275 040d E1070000 		.4byte	.LASF70
 1276 0411 09       		.byte	0x9
 1277 0412 A001     		.2byte	0x1a0
 1278 0414 A2020000 		.4byte	0x2a2
 1279 0418 00       		.byte	0
 1280 0419 09       		.uleb128 0x9
 1281 041a C0080000 		.4byte	.LASF71
 1282 041e 09       		.byte	0x9
 1283 041f A401     		.2byte	0x1a4
 1284 0421 81030000 		.4byte	0x381
 1285 0425 1C       		.byte	0x1c
 1286 0426 08       		.uleb128 0x8
 1287 0427 64626700 		.ascii	"dbg\000"
 1288 042b 09       		.byte	0x9
 1289 042c A801     		.2byte	0x1a8
 1290 042e CE030000 		.4byte	0x3ce
 1291 0432 2C       		.byte	0x2c
 1292 0433 09       		.uleb128 0x9
 1293 0434 AD070000 		.4byte	.LASF72
 1294 0438 09       		.byte	0x9
 1295 0439 AC01     		.2byte	0x1ac
 1296 043b 47010000 		.4byte	0x147
 1297 043f 30       		.byte	0x30
 1298 0440 08       		.uleb128 0x8
 1299 0441 746D00   		.ascii	"tm\000"
 1300 0444 09       		.byte	0x9
 1301 0445 B101     		.2byte	0x1b1
 1302 0447 D8080000 		.4byte	0x8d8
 1303 044b 90       		.byte	0x90
 1304 044c 09       		.uleb128 0x9
 1305 044d 40060000 		.4byte	.LASF73
 1306 0451 09       		.byte	0x9
 1307 0452 B701     		.2byte	0x1b7
ARM GAS  /tmp/cc6cIjGY.s 			page 24


 1308 0454 6A090000 		.4byte	0x96a
 1309 0458 98       		.byte	0x98
 1310 0459 00       		.byte	0
 1311 045a 02       		.uleb128 0x2
 1312 045b 04       		.byte	0x4
 1313 045c 07       		.byte	0x7
 1314 045d 12000000 		.4byte	.LASF74
 1315 0461 0F       		.uleb128 0xf
 1316 0462 B8000000 		.4byte	0xb8
 1317 0466 10       		.uleb128 0x10
 1318 0467 B8000000 		.4byte	0xb8
 1319 046b 76040000 		.4byte	0x476
 1320 046f 11       		.uleb128 0x11
 1321 0470 5A040000 		.4byte	0x45a
 1322 0474 01       		.byte	0x1
 1323 0475 00       		.byte	0
 1324 0476 10       		.uleb128 0x10
 1325 0477 B8000000 		.4byte	0xb8
 1326 047b 86040000 		.4byte	0x486
 1327 047f 11       		.uleb128 0x11
 1328 0480 5A040000 		.4byte	0x45a
 1329 0484 03       		.byte	0x3
 1330 0485 00       		.byte	0
 1331 0486 12       		.uleb128 0x12
 1332 0487 88       		.byte	0x88
 1333 0488 0A       		.byte	0xa
 1334 0489 6602     		.2byte	0x266
 1335 048b 15060000 		.4byte	0x615
 1336 048f 08       		.uleb128 0x8
 1337 0490 435200   		.ascii	"CR\000"
 1338 0493 0A       		.byte	0xa
 1339 0494 6802     		.2byte	0x268
 1340 0496 61040000 		.4byte	0x461
 1341 049a 00       		.byte	0
 1342 049b 09       		.uleb128 0x9
 1343 049c 80040000 		.4byte	.LASF75
 1344 04a0 0A       		.byte	0xa
 1345 04a1 6902     		.2byte	0x269
 1346 04a3 61040000 		.4byte	0x461
 1347 04a7 04       		.byte	0x4
 1348 04a8 09       		.uleb128 0x9
 1349 04a9 83030000 		.4byte	.LASF76
 1350 04ad 0A       		.byte	0xa
 1351 04ae 6A02     		.2byte	0x26a
 1352 04b0 61040000 		.4byte	0x461
 1353 04b4 08       		.byte	0x8
 1354 04b5 08       		.uleb128 0x8
 1355 04b6 43495200 		.ascii	"CIR\000"
 1356 04ba 0A       		.byte	0xa
 1357 04bb 6B02     		.2byte	0x26b
 1358 04bd 61040000 		.4byte	0x461
 1359 04c1 0C       		.byte	0xc
 1360 04c2 09       		.uleb128 0x9
 1361 04c3 CD020000 		.4byte	.LASF77
 1362 04c7 0A       		.byte	0xa
 1363 04c8 6C02     		.2byte	0x26c
 1364 04ca 61040000 		.4byte	0x461
ARM GAS  /tmp/cc6cIjGY.s 			page 25


 1365 04ce 10       		.byte	0x10
 1366 04cf 09       		.uleb128 0x9
 1367 04d0 10080000 		.4byte	.LASF78
 1368 04d4 0A       		.byte	0xa
 1369 04d5 6D02     		.2byte	0x26d
 1370 04d7 61040000 		.4byte	0x461
 1371 04db 14       		.byte	0x14
 1372 04dc 09       		.uleb128 0x9
 1373 04dd 94000000 		.4byte	.LASF79
 1374 04e1 0A       		.byte	0xa
 1375 04e2 6E02     		.2byte	0x26e
 1376 04e4 61040000 		.4byte	0x461
 1377 04e8 18       		.byte	0x18
 1378 04e9 09       		.uleb128 0x9
 1379 04ea 32020000 		.4byte	.LASF80
 1380 04ee 0A       		.byte	0xa
 1381 04ef 6F02     		.2byte	0x26f
 1382 04f1 B8000000 		.4byte	0xb8
 1383 04f5 1C       		.byte	0x1c
 1384 04f6 09       		.uleb128 0x9
 1385 04f7 13060000 		.4byte	.LASF81
 1386 04fb 0A       		.byte	0xa
 1387 04fc 7002     		.2byte	0x270
 1388 04fe 61040000 		.4byte	0x461
 1389 0502 20       		.byte	0x20
 1390 0503 09       		.uleb128 0x9
 1391 0504 C3040000 		.4byte	.LASF82
 1392 0508 0A       		.byte	0xa
 1393 0509 7102     		.2byte	0x271
 1394 050b 61040000 		.4byte	0x461
 1395 050f 24       		.byte	0x24
 1396 0510 09       		.uleb128 0x9
 1397 0511 3C020000 		.4byte	.LASF83
 1398 0515 0A       		.byte	0xa
 1399 0516 7202     		.2byte	0x272
 1400 0518 66040000 		.4byte	0x466
 1401 051c 28       		.byte	0x28
 1402 051d 09       		.uleb128 0x9
 1403 051e EF070000 		.4byte	.LASF84
 1404 0522 0A       		.byte	0xa
 1405 0523 7302     		.2byte	0x273
 1406 0525 61040000 		.4byte	0x461
 1407 0529 30       		.byte	0x30
 1408 052a 09       		.uleb128 0x9
 1409 052b D6020000 		.4byte	.LASF85
 1410 052f 0A       		.byte	0xa
 1411 0530 7402     		.2byte	0x274
 1412 0532 61040000 		.4byte	0x461
 1413 0536 34       		.byte	0x34
 1414 0537 09       		.uleb128 0x9
 1415 0538 F7070000 		.4byte	.LASF86
 1416 053c 0A       		.byte	0xa
 1417 053d 7502     		.2byte	0x275
 1418 053f 61040000 		.4byte	0x461
 1419 0543 38       		.byte	0x38
 1420 0544 09       		.uleb128 0x9
 1421 0545 A8020000 		.4byte	.LASF87
ARM GAS  /tmp/cc6cIjGY.s 			page 26


 1422 0549 0A       		.byte	0xa
 1423 054a 7602     		.2byte	0x276
 1424 054c B8000000 		.4byte	0xb8
 1425 0550 3C       		.byte	0x3c
 1426 0551 09       		.uleb128 0x9
 1427 0552 2D060000 		.4byte	.LASF88
 1428 0556 0A       		.byte	0xa
 1429 0557 7702     		.2byte	0x277
 1430 0559 61040000 		.4byte	0x461
 1431 055d 40       		.byte	0x40
 1432 055e 09       		.uleb128 0x9
 1433 055f B9010000 		.4byte	.LASF89
 1434 0563 0A       		.byte	0xa
 1435 0564 7802     		.2byte	0x278
 1436 0566 61040000 		.4byte	0x461
 1437 056a 44       		.byte	0x44
 1438 056b 09       		.uleb128 0x9
 1439 056c 54020000 		.4byte	.LASF90
 1440 0570 0A       		.byte	0xa
 1441 0571 7902     		.2byte	0x279
 1442 0573 66040000 		.4byte	0x466
 1443 0577 48       		.byte	0x48
 1444 0578 09       		.uleb128 0x9
 1445 0579 C1010000 		.4byte	.LASF91
 1446 057d 0A       		.byte	0xa
 1447 057e 7A02     		.2byte	0x27a
 1448 0580 61040000 		.4byte	0x461
 1449 0584 50       		.byte	0x50
 1450 0585 09       		.uleb128 0x9
 1451 0586 1B010000 		.4byte	.LASF92
 1452 058a 0A       		.byte	0xa
 1453 058b 7B02     		.2byte	0x27b
 1454 058d 61040000 		.4byte	0x461
 1455 0591 54       		.byte	0x54
 1456 0592 09       		.uleb128 0x9
 1457 0593 BD070000 		.4byte	.LASF93
 1458 0597 0A       		.byte	0xa
 1459 0598 7C02     		.2byte	0x27c
 1460 059a 61040000 		.4byte	0x461
 1461 059e 58       		.byte	0x58
 1462 059f 09       		.uleb128 0x9
 1463 05a0 5E020000 		.4byte	.LASF94
 1464 05a4 0A       		.byte	0xa
 1465 05a5 7D02     		.2byte	0x27d
 1466 05a7 B8000000 		.4byte	0xb8
 1467 05ab 5C       		.byte	0x5c
 1468 05ac 09       		.uleb128 0x9
 1469 05ad 6D050000 		.4byte	.LASF95
 1470 05b1 0A       		.byte	0xa
 1471 05b2 7E02     		.2byte	0x27e
 1472 05b4 61040000 		.4byte	0x461
 1473 05b8 60       		.byte	0x60
 1474 05b9 09       		.uleb128 0x9
 1475 05ba E3040000 		.4byte	.LASF96
 1476 05be 0A       		.byte	0xa
 1477 05bf 7F02     		.2byte	0x27f
 1478 05c1 61040000 		.4byte	0x461
ARM GAS  /tmp/cc6cIjGY.s 			page 27


 1479 05c5 64       		.byte	0x64
 1480 05c6 09       		.uleb128 0x9
 1481 05c7 68020000 		.4byte	.LASF97
 1482 05cb 0A       		.byte	0xa
 1483 05cc 8002     		.2byte	0x280
 1484 05ce 66040000 		.4byte	0x466
 1485 05d2 68       		.byte	0x68
 1486 05d3 09       		.uleb128 0x9
 1487 05d4 47030000 		.4byte	.LASF98
 1488 05d8 0A       		.byte	0xa
 1489 05d9 8102     		.2byte	0x281
 1490 05db 61040000 		.4byte	0x461
 1491 05df 70       		.byte	0x70
 1492 05e0 08       		.uleb128 0x8
 1493 05e1 43535200 		.ascii	"CSR\000"
 1494 05e5 0A       		.byte	0xa
 1495 05e6 8202     		.2byte	0x282
 1496 05e8 61040000 		.4byte	0x461
 1497 05ec 74       		.byte	0x74
 1498 05ed 09       		.uleb128 0x9
 1499 05ee B2020000 		.4byte	.LASF99
 1500 05f2 0A       		.byte	0xa
 1501 05f3 8302     		.2byte	0x283
 1502 05f5 66040000 		.4byte	0x466
 1503 05f9 78       		.byte	0x78
 1504 05fa 09       		.uleb128 0x9
 1505 05fb BD040000 		.4byte	.LASF100
 1506 05ff 0A       		.byte	0xa
 1507 0600 8402     		.2byte	0x284
 1508 0602 61040000 		.4byte	0x461
 1509 0606 80       		.byte	0x80
 1510 0607 09       		.uleb128 0x9
 1511 0608 35000000 		.4byte	.LASF101
 1512 060c 0A       		.byte	0xa
 1513 060d 8502     		.2byte	0x285
 1514 060f 61040000 		.4byte	0x461
 1515 0613 84       		.byte	0x84
 1516 0614 00       		.byte	0
 1517 0615 13       		.uleb128 0x13
 1518 0616 28080000 		.4byte	.LASF102
 1519 061a 0A       		.byte	0xa
 1520 061b 8702     		.2byte	0x287
 1521 061d 86040000 		.4byte	0x486
 1522 0621 04       		.uleb128 0x4
 1523 0622 A3010000 		.4byte	.LASF103
 1524 0626 0B       		.byte	0xb
 1525 0627 65       		.byte	0x65
 1526 0628 25030000 		.4byte	0x325
 1527 062c 04       		.uleb128 0x4
 1528 062d F4020000 		.4byte	.LASF104
 1529 0631 0B       		.byte	0xb
 1530 0632 6D       		.byte	0x6d
 1531 0633 C3000000 		.4byte	0xc3
 1532 0637 05       		.uleb128 0x5
 1533 0638 FC080000 		.4byte	.LASF105
 1534 063c 04       		.byte	0x4
 1535 063d 0B       		.byte	0xb
ARM GAS  /tmp/cc6cIjGY.s 			page 28


 1536 063e 89       		.byte	0x89
 1537 063f 4F060000 		.4byte	0x64f
 1538 0643 07       		.uleb128 0x7
 1539 0644 737000   		.ascii	"sp\000"
 1540 0647 0B       		.byte	0xb
 1541 0648 8A       		.byte	0x8a
 1542 0649 9B070000 		.4byte	0x79b
 1543 064d 00       		.byte	0
 1544 064e 00       		.byte	0
 1545 064f 0B       		.uleb128 0xb
 1546 0650 FA050000 		.4byte	.LASF106
 1547 0654 64       		.byte	0x64
 1548 0655 0C       		.byte	0xc
 1549 0656 5901     		.2byte	0x159
 1550 0658 9B070000 		.4byte	0x79b
 1551 065c 08       		.uleb128 0x8
 1552 065d 73313600 		.ascii	"s16\000"
 1553 0661 0C       		.byte	0xc
 1554 0662 5B01     		.2byte	0x15b
 1555 0664 21060000 		.4byte	0x621
 1556 0668 00       		.byte	0
 1557 0669 08       		.uleb128 0x8
 1558 066a 73313700 		.ascii	"s17\000"
 1559 066e 0C       		.byte	0xc
 1560 066f 5C01     		.2byte	0x15c
 1561 0671 21060000 		.4byte	0x621
 1562 0675 04       		.byte	0x4
 1563 0676 08       		.uleb128 0x8
 1564 0677 73313800 		.ascii	"s18\000"
 1565 067b 0C       		.byte	0xc
 1566 067c 5D01     		.2byte	0x15d
 1567 067e 21060000 		.4byte	0x621
 1568 0682 08       		.byte	0x8
 1569 0683 08       		.uleb128 0x8
 1570 0684 73313900 		.ascii	"s19\000"
 1571 0688 0C       		.byte	0xc
 1572 0689 5E01     		.2byte	0x15e
 1573 068b 21060000 		.4byte	0x621
 1574 068f 0C       		.byte	0xc
 1575 0690 08       		.uleb128 0x8
 1576 0691 73323000 		.ascii	"s20\000"
 1577 0695 0C       		.byte	0xc
 1578 0696 5F01     		.2byte	0x15f
 1579 0698 21060000 		.4byte	0x621
 1580 069c 10       		.byte	0x10
 1581 069d 08       		.uleb128 0x8
 1582 069e 73323100 		.ascii	"s21\000"
 1583 06a2 0C       		.byte	0xc
 1584 06a3 6001     		.2byte	0x160
 1585 06a5 21060000 		.4byte	0x621
 1586 06a9 14       		.byte	0x14
 1587 06aa 08       		.uleb128 0x8
 1588 06ab 73323200 		.ascii	"s22\000"
 1589 06af 0C       		.byte	0xc
 1590 06b0 6101     		.2byte	0x161
 1591 06b2 21060000 		.4byte	0x621
 1592 06b6 18       		.byte	0x18
ARM GAS  /tmp/cc6cIjGY.s 			page 29


 1593 06b7 08       		.uleb128 0x8
 1594 06b8 73323300 		.ascii	"s23\000"
 1595 06bc 0C       		.byte	0xc
 1596 06bd 6201     		.2byte	0x162
 1597 06bf 21060000 		.4byte	0x621
 1598 06c3 1C       		.byte	0x1c
 1599 06c4 08       		.uleb128 0x8
 1600 06c5 73323400 		.ascii	"s24\000"
 1601 06c9 0C       		.byte	0xc
 1602 06ca 6301     		.2byte	0x163
 1603 06cc 21060000 		.4byte	0x621
 1604 06d0 20       		.byte	0x20
 1605 06d1 08       		.uleb128 0x8
 1606 06d2 73323500 		.ascii	"s25\000"
 1607 06d6 0C       		.byte	0xc
 1608 06d7 6401     		.2byte	0x164
 1609 06d9 21060000 		.4byte	0x621
 1610 06dd 24       		.byte	0x24
 1611 06de 08       		.uleb128 0x8
 1612 06df 73323600 		.ascii	"s26\000"
 1613 06e3 0C       		.byte	0xc
 1614 06e4 6501     		.2byte	0x165
 1615 06e6 21060000 		.4byte	0x621
 1616 06ea 28       		.byte	0x28
 1617 06eb 08       		.uleb128 0x8
 1618 06ec 73323700 		.ascii	"s27\000"
 1619 06f0 0C       		.byte	0xc
 1620 06f1 6601     		.2byte	0x166
 1621 06f3 21060000 		.4byte	0x621
 1622 06f7 2C       		.byte	0x2c
 1623 06f8 08       		.uleb128 0x8
 1624 06f9 73323800 		.ascii	"s28\000"
 1625 06fd 0C       		.byte	0xc
 1626 06fe 6701     		.2byte	0x167
 1627 0700 21060000 		.4byte	0x621
 1628 0704 30       		.byte	0x30
 1629 0705 08       		.uleb128 0x8
 1630 0706 73323900 		.ascii	"s29\000"
 1631 070a 0C       		.byte	0xc
 1632 070b 6801     		.2byte	0x168
 1633 070d 21060000 		.4byte	0x621
 1634 0711 34       		.byte	0x34
 1635 0712 08       		.uleb128 0x8
 1636 0713 73333000 		.ascii	"s30\000"
 1637 0717 0C       		.byte	0xc
 1638 0718 6901     		.2byte	0x169
 1639 071a 21060000 		.4byte	0x621
 1640 071e 38       		.byte	0x38
 1641 071f 08       		.uleb128 0x8
 1642 0720 73333100 		.ascii	"s31\000"
 1643 0724 0C       		.byte	0xc
 1644 0725 6A01     		.2byte	0x16a
 1645 0727 21060000 		.4byte	0x621
 1646 072b 3C       		.byte	0x3c
 1647 072c 08       		.uleb128 0x8
 1648 072d 723400   		.ascii	"r4\000"
 1649 0730 0C       		.byte	0xc
ARM GAS  /tmp/cc6cIjGY.s 			page 30


 1650 0731 6C01     		.2byte	0x16c
 1651 0733 21060000 		.4byte	0x621
 1652 0737 40       		.byte	0x40
 1653 0738 08       		.uleb128 0x8
 1654 0739 723500   		.ascii	"r5\000"
 1655 073c 0C       		.byte	0xc
 1656 073d 6D01     		.2byte	0x16d
 1657 073f 21060000 		.4byte	0x621
 1658 0743 44       		.byte	0x44
 1659 0744 08       		.uleb128 0x8
 1660 0745 723600   		.ascii	"r6\000"
 1661 0748 0C       		.byte	0xc
 1662 0749 6E01     		.2byte	0x16e
 1663 074b 21060000 		.4byte	0x621
 1664 074f 48       		.byte	0x48
 1665 0750 08       		.uleb128 0x8
 1666 0751 723700   		.ascii	"r7\000"
 1667 0754 0C       		.byte	0xc
 1668 0755 6F01     		.2byte	0x16f
 1669 0757 21060000 		.4byte	0x621
 1670 075b 4C       		.byte	0x4c
 1671 075c 08       		.uleb128 0x8
 1672 075d 723800   		.ascii	"r8\000"
 1673 0760 0C       		.byte	0xc
 1674 0761 7001     		.2byte	0x170
 1675 0763 21060000 		.4byte	0x621
 1676 0767 50       		.byte	0x50
 1677 0768 08       		.uleb128 0x8
 1678 0769 723900   		.ascii	"r9\000"
 1679 076c 0C       		.byte	0xc
 1680 076d 7101     		.2byte	0x171
 1681 076f 21060000 		.4byte	0x621
 1682 0773 54       		.byte	0x54
 1683 0774 08       		.uleb128 0x8
 1684 0775 72313000 		.ascii	"r10\000"
 1685 0779 0C       		.byte	0xc
 1686 077a 7201     		.2byte	0x172
 1687 077c 21060000 		.4byte	0x621
 1688 0780 58       		.byte	0x58
 1689 0781 08       		.uleb128 0x8
 1690 0782 72313100 		.ascii	"r11\000"
 1691 0786 0C       		.byte	0xc
 1692 0787 7301     		.2byte	0x173
 1693 0789 21060000 		.4byte	0x621
 1694 078d 5C       		.byte	0x5c
 1695 078e 08       		.uleb128 0x8
 1696 078f 6C7200   		.ascii	"lr\000"
 1697 0792 0C       		.byte	0xc
 1698 0793 7401     		.2byte	0x174
 1699 0795 21060000 		.4byte	0x621
 1700 0799 60       		.byte	0x60
 1701 079a 00       		.byte	0
 1702 079b 0A       		.uleb128 0xa
 1703 079c 04       		.byte	0x4
 1704 079d 4F060000 		.4byte	0x64f
 1705 07a1 12       		.uleb128 0x12
 1706 07a2 60       		.byte	0x60
ARM GAS  /tmp/cc6cIjGY.s 			page 31


 1707 07a3 0D       		.byte	0xd
 1708 07a4 A101     		.2byte	0x1a1
 1709 07a6 AD080000 		.4byte	0x8ad
 1710 07aa 08       		.uleb128 0x8
 1711 07ab 43523100 		.ascii	"CR1\000"
 1712 07af 0D       		.byte	0xd
 1713 07b0 A201     		.2byte	0x1a2
 1714 07b2 61040000 		.4byte	0x461
 1715 07b6 00       		.byte	0
 1716 07b7 08       		.uleb128 0x8
 1717 07b8 43523200 		.ascii	"CR2\000"
 1718 07bc 0D       		.byte	0xd
 1719 07bd A301     		.2byte	0x1a3
 1720 07bf 61040000 		.4byte	0x461
 1721 07c3 04       		.byte	0x4
 1722 07c4 09       		.uleb128 0x9
 1723 07c5 B8070000 		.4byte	.LASF107
 1724 07c9 0D       		.byte	0xd
 1725 07ca A401     		.2byte	0x1a4
 1726 07cc 61040000 		.4byte	0x461
 1727 07d0 08       		.byte	0x8
 1728 07d1 09       		.uleb128 0x9
 1729 07d2 D4030000 		.4byte	.LASF108
 1730 07d6 0D       		.byte	0xd
 1731 07d7 A501     		.2byte	0x1a5
 1732 07d9 61040000 		.4byte	0x461
 1733 07dd 0C       		.byte	0xc
 1734 07de 08       		.uleb128 0x8
 1735 07df 535200   		.ascii	"SR\000"
 1736 07e2 0D       		.byte	0xd
 1737 07e3 A601     		.2byte	0x1a6
 1738 07e5 61040000 		.4byte	0x461
 1739 07e9 10       		.byte	0x10
 1740 07ea 08       		.uleb128 0x8
 1741 07eb 45475200 		.ascii	"EGR\000"
 1742 07ef 0D       		.byte	0xd
 1743 07f0 A701     		.2byte	0x1a7
 1744 07f2 61040000 		.4byte	0x461
 1745 07f6 14       		.byte	0x14
 1746 07f7 09       		.uleb128 0x9
 1747 07f8 20050000 		.4byte	.LASF109
 1748 07fc 0D       		.byte	0xd
 1749 07fd A801     		.2byte	0x1a8
 1750 07ff 61040000 		.4byte	0x461
 1751 0803 18       		.byte	0x18
 1752 0804 09       		.uleb128 0x9
 1753 0805 BC020000 		.4byte	.LASF110
 1754 0809 0D       		.byte	0xd
 1755 080a A901     		.2byte	0x1a9
 1756 080c 61040000 		.4byte	0x461
 1757 0810 1C       		.byte	0x1c
 1758 0811 09       		.uleb128 0x9
 1759 0812 6A070000 		.4byte	.LASF111
 1760 0816 0D       		.byte	0xd
 1761 0817 AA01     		.2byte	0x1aa
 1762 0819 61040000 		.4byte	0x461
 1763 081d 20       		.byte	0x20
ARM GAS  /tmp/cc6cIjGY.s 			page 32


 1764 081e 08       		.uleb128 0x8
 1765 081f 434E5400 		.ascii	"CNT\000"
 1766 0823 0D       		.byte	0xd
 1767 0824 AB01     		.2byte	0x1ab
 1768 0826 61040000 		.4byte	0x461
 1769 082a 24       		.byte	0x24
 1770 082b 08       		.uleb128 0x8
 1771 082c 50534300 		.ascii	"PSC\000"
 1772 0830 0D       		.byte	0xd
 1773 0831 AC01     		.2byte	0x1ac
 1774 0833 61040000 		.4byte	0x461
 1775 0837 28       		.byte	0x28
 1776 0838 08       		.uleb128 0x8
 1777 0839 41525200 		.ascii	"ARR\000"
 1778 083d 0D       		.byte	0xd
 1779 083e AD01     		.2byte	0x1ad
 1780 0840 61040000 		.4byte	0x461
 1781 0844 2C       		.byte	0x2c
 1782 0845 08       		.uleb128 0x8
 1783 0846 52435200 		.ascii	"RCR\000"
 1784 084a 0D       		.byte	0xd
 1785 084b AE01     		.2byte	0x1ae
 1786 084d 61040000 		.4byte	0x461
 1787 0851 30       		.byte	0x30
 1788 0852 08       		.uleb128 0x8
 1789 0853 43435200 		.ascii	"CCR\000"
 1790 0857 0D       		.byte	0xd
 1791 0858 AF01     		.2byte	0x1af
 1792 085a AD080000 		.4byte	0x8ad
 1793 085e 34       		.byte	0x34
 1794 085f 09       		.uleb128 0x9
 1795 0860 28090000 		.4byte	.LASF112
 1796 0864 0D       		.byte	0xd
 1797 0865 B001     		.2byte	0x1b0
 1798 0867 61040000 		.4byte	0x461
 1799 086b 44       		.byte	0x44
 1800 086c 08       		.uleb128 0x8
 1801 086d 44435200 		.ascii	"DCR\000"
 1802 0871 0D       		.byte	0xd
 1803 0872 B101     		.2byte	0x1b1
 1804 0874 61040000 		.4byte	0x461
 1805 0878 48       		.byte	0x48
 1806 0879 09       		.uleb128 0x9
 1807 087a DE000000 		.4byte	.LASF113
 1808 087e 0D       		.byte	0xd
 1809 087f B201     		.2byte	0x1b2
 1810 0881 61040000 		.4byte	0x461
 1811 0885 4C       		.byte	0x4c
 1812 0886 08       		.uleb128 0x8
 1813 0887 4F5200   		.ascii	"OR\000"
 1814 088a 0D       		.byte	0xd
 1815 088b B301     		.2byte	0x1b3
 1816 088d 61040000 		.4byte	0x461
 1817 0891 50       		.byte	0x50
 1818 0892 09       		.uleb128 0x9
 1819 0893 C2020000 		.4byte	.LASF114
 1820 0897 0D       		.byte	0xd
ARM GAS  /tmp/cc6cIjGY.s 			page 33


 1821 0898 B401     		.2byte	0x1b4
 1822 089a 61040000 		.4byte	0x461
 1823 089e 54       		.byte	0x54
 1824 089f 09       		.uleb128 0x9
 1825 08a0 42030000 		.4byte	.LASF115
 1826 08a4 0D       		.byte	0xd
 1827 08a5 B501     		.2byte	0x1b5
 1828 08a7 B2080000 		.4byte	0x8b2
 1829 08ab 58       		.byte	0x58
 1830 08ac 00       		.byte	0
 1831 08ad 0F       		.uleb128 0xf
 1832 08ae 76040000 		.4byte	0x476
 1833 08b2 0F       		.uleb128 0xf
 1834 08b3 66040000 		.4byte	0x466
 1835 08b7 13       		.uleb128 0x13
 1836 08b8 46040000 		.4byte	.LASF116
 1837 08bc 0D       		.byte	0xd
 1838 08bd B601     		.2byte	0x1b6
 1839 08bf A1070000 		.4byte	0x7a1
 1840 08c3 14       		.uleb128 0x14
 1841 08c4 04       		.byte	0x4
 1842 08c5 0E       		.byte	0xe
 1843 08c6 38       		.byte	0x38
 1844 08c7 D8080000 		.4byte	0x8d8
 1845 08cb 06       		.uleb128 0x6
 1846 08cc 66050000 		.4byte	.LASF117
 1847 08d0 0E       		.byte	0xe
 1848 08d1 3C       		.byte	0x3c
 1849 08d2 CE000000 		.4byte	0xce
 1850 08d6 00       		.byte	0
 1851 08d7 00       		.byte	0
 1852 08d8 04       		.uleb128 0x4
 1853 08d9 FF070000 		.4byte	.LASF118
 1854 08dd 0E       		.byte	0xe
 1855 08de 3D       		.byte	0x3d
 1856 08df C3080000 		.4byte	0x8c3
 1857 08e3 14       		.uleb128 0x14
 1858 08e4 18       		.byte	0x18
 1859 08e5 0E       		.byte	0xe
 1860 08e6 48       		.byte	0x48
 1861 08e7 26090000 		.4byte	0x926
 1862 08eb 06       		.uleb128 0x6
 1863 08ec D5070000 		.4byte	.LASF119
 1864 08f0 0E       		.byte	0xe
 1865 08f1 49       		.byte	0x49
 1866 08f2 CE000000 		.4byte	0xce
 1867 08f6 00       		.byte	0
 1868 08f7 06       		.uleb128 0x6
 1869 08f8 24030000 		.4byte	.LASF120
 1870 08fc 0E       		.byte	0xe
 1871 08fd 4A       		.byte	0x4a
 1872 08fe CE000000 		.4byte	0xce
 1873 0902 04       		.byte	0x4
 1874 0903 06       		.uleb128 0x6
 1875 0904 BC090000 		.4byte	.LASF121
 1876 0908 0E       		.byte	0xe
 1877 0909 4B       		.byte	0x4b
ARM GAS  /tmp/cc6cIjGY.s 			page 34


 1878 090a CE000000 		.4byte	0xce
 1879 090e 08       		.byte	0x8
 1880 090f 07       		.uleb128 0x7
 1881 0910 6E00     		.ascii	"n\000"
 1882 0912 0E       		.byte	0xe
 1883 0913 4C       		.byte	0x4c
 1884 0914 31010000 		.4byte	0x131
 1885 0918 0C       		.byte	0xc
 1886 0919 06       		.uleb128 0x6
 1887 091a F4010000 		.4byte	.LASF122
 1888 091e 0E       		.byte	0xe
 1889 091f 4D       		.byte	0x4d
 1890 0920 D9000000 		.4byte	0xd9
 1891 0924 10       		.byte	0x10
 1892 0925 00       		.byte	0
 1893 0926 04       		.uleb128 0x4
 1894 0927 ED040000 		.4byte	.LASF123
 1895 092b 0E       		.byte	0xe
 1896 092c 4E       		.byte	0x4e
 1897 092d E3080000 		.4byte	0x8e3
 1898 0931 14       		.uleb128 0x14
 1899 0932 38       		.byte	0x38
 1900 0933 0F       		.byte	0xf
 1901 0934 38       		.byte	0x38
 1902 0935 6A090000 		.4byte	0x96a
 1903 0939 06       		.uleb128 0x6
 1904 093a 6F040000 		.4byte	.LASF124
 1905 093e 0F       		.byte	0xf
 1906 093f 39       		.byte	0x39
 1907 0940 31010000 		.4byte	0x131
 1908 0944 00       		.byte	0
 1909 0945 06       		.uleb128 0x6
 1910 0946 E5020000 		.4byte	.LASF125
 1911 094a 0F       		.byte	0xf
 1912 094b 3A       		.byte	0x3a
 1913 094c 31010000 		.4byte	0x131
 1914 0950 04       		.byte	0x4
 1915 0951 06       		.uleb128 0x6
 1916 0952 96030000 		.4byte	.LASF126
 1917 0956 0F       		.byte	0xf
 1918 0957 3B       		.byte	0x3b
 1919 0958 26090000 		.4byte	0x926
 1920 095c 08       		.byte	0x8
 1921 095d 06       		.uleb128 0x6
 1922 095e 00050000 		.4byte	.LASF127
 1923 0962 0F       		.byte	0xf
 1924 0963 3D       		.byte	0x3d
 1925 0964 26090000 		.4byte	0x926
 1926 0968 20       		.byte	0x20
 1927 0969 00       		.byte	0
 1928 096a 04       		.uleb128 0x4
 1929 096b 26050000 		.4byte	.LASF128
 1930 096f 0F       		.byte	0xf
 1931 0970 3F       		.byte	0x3f
 1932 0971 31090000 		.4byte	0x931
 1933 0975 15       		.uleb128 0x15
 1934 0976 04       		.byte	0x4
ARM GAS  /tmp/cc6cIjGY.s 			page 35


 1935 0977 09       		.byte	0x9
 1936 0978 D2       		.byte	0xd2
 1937 0979 D8090000 		.4byte	0x9d8
 1938 097d 16       		.uleb128 0x16
 1939 097e 47090000 		.4byte	.LASF129
 1940 0982 09       		.byte	0x9
 1941 0983 D9       		.byte	0xd9
 1942 0984 10010000 		.4byte	0x110
 1943 0988 16       		.uleb128 0x16
 1944 0989 08010000 		.4byte	.LASF130
 1945 098d 09       		.byte	0x9
 1946 098e E0       		.byte	0xe0
 1947 098f 10010000 		.4byte	0x110
 1948 0993 16       		.uleb128 0x16
 1949 0994 DE020000 		.4byte	.LASF131
 1950 0998 09       		.byte	0x9
 1951 0999 E7       		.byte	0xe7
 1952 099a 25030000 		.4byte	0x325
 1953 099e 16       		.uleb128 0x16
 1954 099f 2C020000 		.4byte	.LASF132
 1955 09a3 09       		.byte	0x9
 1956 09a4 EE       		.byte	0xee
 1957 09a5 D8090000 		.4byte	0x9d8
 1958 09a9 16       		.uleb128 0x16
 1959 09aa F2050000 		.4byte	.LASF133
 1960 09ae 09       		.byte	0x9
 1961 09af F3       		.byte	0xf3
 1962 09b0 10010000 		.4byte	0x110
 1963 09b4 16       		.uleb128 0x16
 1964 09b5 24000000 		.4byte	.LASF134
 1965 09b9 09       		.byte	0x9
 1966 09ba FC       		.byte	0xfc
 1967 09bb 030A0000 		.4byte	0xa03
 1968 09bf 17       		.uleb128 0x17
 1969 09c0 6E030000 		.4byte	.LASF135
 1970 09c4 09       		.byte	0x9
 1971 09c5 0501     		.2byte	0x105
 1972 09c7 3A0A0000 		.4byte	0xa3a
 1973 09cb 17       		.uleb128 0x17
 1974 09cc 0B020000 		.4byte	.LASF136
 1975 09d0 09       		.byte	0x9
 1976 09d1 0D01     		.2byte	0x10d
 1977 09d3 1B010000 		.4byte	0x11b
 1978 09d7 00       		.byte	0
 1979 09d8 0A       		.uleb128 0xa
 1980 09d9 04       		.byte	0x4
 1981 09da 3D020000 		.4byte	0x23d
 1982 09de 05       		.uleb128 0x5
 1983 09df D9030000 		.4byte	.LASF137
 1984 09e3 0C       		.byte	0xc
 1985 09e4 10       		.byte	0x10
 1986 09e5 34       		.byte	0x34
 1987 09e6 030A0000 		.4byte	0xa03
 1988 09ea 06       		.uleb128 0x6
 1989 09eb 80070000 		.4byte	.LASF30
 1990 09ef 10       		.byte	0x10
 1991 09f0 35       		.byte	0x35
ARM GAS  /tmp/cc6cIjGY.s 			page 36


 1992 09f1 72020000 		.4byte	0x272
 1993 09f5 00       		.byte	0
 1994 09f6 07       		.uleb128 0x7
 1995 09f7 636E7400 		.ascii	"cnt\000"
 1996 09fb 10       		.byte	0x10
 1997 09fc 37       		.byte	0x37
 1998 09fd 26010000 		.4byte	0x126
 1999 0a01 08       		.byte	0x8
 2000 0a02 00       		.byte	0
 2001 0a03 0A       		.uleb128 0xa
 2002 0a04 04       		.byte	0x4
 2003 0a05 DE090000 		.4byte	0x9de
 2004 0a09 05       		.uleb128 0x5
 2005 0a0a 51080000 		.4byte	.LASF138
 2006 0a0e 10       		.byte	0x10
 2007 0a0f 11       		.byte	0x11
 2008 0a10 39       		.byte	0x39
 2009 0a11 3A0A0000 		.4byte	0xa3a
 2010 0a15 06       		.uleb128 0x6
 2011 0a16 80070000 		.4byte	.LASF30
 2012 0a1a 11       		.byte	0x11
 2013 0a1b 3A       		.byte	0x3a
 2014 0a1c 72020000 		.4byte	0x272
 2015 0a20 00       		.byte	0
 2016 0a21 06       		.uleb128 0x6
 2017 0a22 40000000 		.4byte	.LASF139
 2018 0a26 11       		.byte	0x11
 2019 0a27 3C       		.byte	0x3c
 2020 0a28 48020000 		.4byte	0x248
 2021 0a2c 08       		.byte	0x8
 2022 0a2d 06       		.uleb128 0x6
 2023 0a2e B2090000 		.4byte	.LASF50
 2024 0a32 11       		.byte	0x11
 2025 0a33 3E       		.byte	0x3e
 2026 0a34 6E0A0000 		.4byte	0xa6e
 2027 0a38 0C       		.byte	0xc
 2028 0a39 00       		.byte	0
 2029 0a3a 0A       		.uleb128 0xa
 2030 0a3b 04       		.byte	0x4
 2031 0a3c 090A0000 		.4byte	0xa09
 2032 0a40 0A       		.uleb128 0xa
 2033 0a41 04       		.byte	0x4
 2034 0a42 460A0000 		.4byte	0xa46
 2035 0a46 18       		.uleb128 0x18
 2036 0a47 4B0A0000 		.4byte	0xa4b
 2037 0a4b 02       		.uleb128 0x2
 2038 0a4c 01       		.byte	0x1
 2039 0a4d 08       		.byte	0x8
 2040 0a4e C8020000 		.4byte	.LASF140
 2041 0a52 0A       		.uleb128 0xa
 2042 0a53 04       		.byte	0x4
 2043 0a54 2C060000 		.4byte	0x62c
 2044 0a58 0A       		.uleb128 0xa
 2045 0a59 04       		.byte	0x4
 2046 0a5a 27030000 		.4byte	0x327
 2047 0a5e 0F       		.uleb128 0xf
 2048 0a5f 400A0000 		.4byte	0xa40
ARM GAS  /tmp/cc6cIjGY.s 			page 37


 2049 0a63 04       		.uleb128 0x4
 2050 0a64 EC080000 		.4byte	.LASF141
 2051 0a68 11       		.byte	0x11
 2052 0a69 34       		.byte	0x34
 2053 0a6a 090A0000 		.4byte	0xa09
 2054 0a6e 0A       		.uleb128 0xa
 2055 0a6f 04       		.byte	0x4
 2056 0a70 630A0000 		.4byte	0xa63
 2057 0a74 02       		.uleb128 0x2
 2058 0a75 01       		.byte	0x1
 2059 0a76 02       		.byte	0x2
 2060 0a77 A2020000 		.4byte	.LASF142
 2061 0a7b 0A       		.uleb128 0xa
 2062 0a7c 04       		.byte	0x4
 2063 0a7d 61040000 		.4byte	0x461
 2064 0a81 19       		.uleb128 0x19
 2065 0a82 01       		.byte	0x1
 2066 0a83 12       		.byte	0x12
 2067 0a84 31       		.byte	0x31
 2068 0a85 A80A0000 		.4byte	0xaa8
 2069 0a89 1A       		.uleb128 0x1a
 2070 0a8a 35060000 		.4byte	.LASF143
 2071 0a8e 00       		.sleb128 0
 2072 0a8f 1A       		.uleb128 0x1a
 2073 0a90 8A010000 		.4byte	.LASF144
 2074 0a94 01       		.sleb128 1
 2075 0a95 1A       		.uleb128 0x1a
 2076 0a96 77050000 		.4byte	.LASF145
 2077 0a9a 02       		.sleb128 2
 2078 0a9b 1A       		.uleb128 0x1a
 2079 0a9c B4080000 		.4byte	.LASF146
 2080 0aa0 03       		.sleb128 3
 2081 0aa1 1A       		.uleb128 0x1a
 2082 0aa2 00000000 		.4byte	.LASF147
 2083 0aa6 04       		.sleb128 4
 2084 0aa7 00       		.byte	0
 2085 0aa8 04       		.uleb128 0x4
 2086 0aa9 75040000 		.4byte	.LASF148
 2087 0aad 12       		.byte	0x12
 2088 0aae 37       		.byte	0x37
 2089 0aaf 810A0000 		.4byte	0xa81
 2090 0ab3 04       		.uleb128 0x4
 2091 0ab4 AA000000 		.4byte	.LASF149
 2092 0ab8 12       		.byte	0x12
 2093 0ab9 3C       		.byte	0x3c
 2094 0aba BE0A0000 		.4byte	0xabe
 2095 0abe 0B       		.uleb128 0xb
 2096 0abf AA000000 		.4byte	.LASF149
 2097 0ac3 18       		.byte	0x18
 2098 0ac4 13       		.byte	0x13
 2099 0ac5 6B01     		.2byte	0x16b
 2100 0ac7 1A0B0000 		.4byte	0xb1a
 2101 0acb 09       		.uleb128 0x9
 2102 0acc A4000000 		.4byte	.LASF36
 2103 0ad0 13       		.byte	0x13
 2104 0ad1 6F01     		.2byte	0x16f
 2105 0ad3 A80A0000 		.4byte	0xaa8
ARM GAS  /tmp/cc6cIjGY.s 			page 38


 2106 0ad7 00       		.byte	0
 2107 0ad8 09       		.uleb128 0x9
 2108 0ad9 9D000000 		.4byte	.LASF150
 2109 0add 13       		.byte	0x13
 2110 0ade 7301     		.2byte	0x173
 2111 0ae0 FD0B0000 		.4byte	0xbfd
 2112 0ae4 04       		.byte	0x4
 2113 0ae5 09       		.uleb128 0x9
 2114 0ae6 59040000 		.4byte	.LASF151
 2115 0aea 13       		.byte	0x13
 2116 0aeb 7B01     		.2byte	0x17b
 2117 0aed B8000000 		.4byte	0xb8
 2118 0af1 08       		.byte	0x8
 2119 0af2 08       		.uleb128 0x8
 2120 0af3 74696D00 		.ascii	"tim\000"
 2121 0af7 13       		.byte	0x13
 2122 0af8 7F01     		.2byte	0x17f
 2123 0afa 080C0000 		.4byte	0xc08
 2124 0afe 0C       		.byte	0xc
 2125 0aff 09       		.uleb128 0x9
 2126 0b00 1A020000 		.4byte	.LASF152
 2127 0b04 13       		.byte	0x13
 2128 0b05 8301     		.2byte	0x183
 2129 0b07 7B0A0000 		.4byte	0xa7b
 2130 0b0b 10       		.byte	0x10
 2131 0b0c 09       		.uleb128 0x9
 2132 0b0d A3090000 		.4byte	.LASF153
 2133 0b11 13       		.byte	0x13
 2134 0b12 8701     		.2byte	0x187
 2135 0b14 7B0A0000 		.4byte	0xa7b
 2136 0b18 14       		.byte	0x14
 2137 0b19 00       		.byte	0
 2138 0b1a 04       		.uleb128 0x4
 2139 0b1b 6A010000 		.4byte	.LASF154
 2140 0b1f 12       		.byte	0x12
 2141 0b20 43       		.byte	0x43
 2142 0b21 250B0000 		.4byte	0xb25
 2143 0b25 0A       		.uleb128 0xa
 2144 0b26 04       		.byte	0x4
 2145 0b27 2B0B0000 		.4byte	0xb2b
 2146 0b2b 0C       		.uleb128 0xc
 2147 0b2c 360B0000 		.4byte	0xb36
 2148 0b30 0D       		.uleb128 0xd
 2149 0b31 360B0000 		.4byte	0xb36
 2150 0b35 00       		.byte	0
 2151 0b36 0A       		.uleb128 0xa
 2152 0b37 04       		.byte	0x4
 2153 0b38 B30A0000 		.4byte	0xab3
 2154 0b3c 1B       		.uleb128 0x1b
 2155 0b3d 01       		.byte	0x1
 2156 0b3e 13       		.byte	0x13
 2157 0b3f 2801     		.2byte	0x128
 2158 0b41 520B0000 		.4byte	0xb52
 2159 0b45 1A       		.uleb128 0x1a
 2160 0b46 BA000000 		.4byte	.LASF155
 2161 0b4a 00       		.sleb128 0
 2162 0b4b 1A       		.uleb128 0x1a
ARM GAS  /tmp/cc6cIjGY.s 			page 39


 2163 0b4c 56000000 		.4byte	.LASF156
 2164 0b50 01       		.sleb128 1
 2165 0b51 00       		.byte	0
 2166 0b52 13       		.uleb128 0x13
 2167 0b53 8B050000 		.4byte	.LASF157
 2168 0b57 13       		.byte	0x13
 2169 0b58 2B01     		.2byte	0x12b
 2170 0b5a 3C0B0000 		.4byte	0xb3c
 2171 0b5e 13       		.uleb128 0x13
 2172 0b5f 05030000 		.4byte	.LASF158
 2173 0b63 13       		.byte	0x13
 2174 0b64 3001     		.2byte	0x130
 2175 0b66 B8000000 		.4byte	0xb8
 2176 0b6a 1B       		.uleb128 0x1b
 2177 0b6b 01       		.byte	0x1
 2178 0b6c 13       		.byte	0x13
 2179 0b6d 3501     		.2byte	0x135
 2180 0b6f 800B0000 		.4byte	0xb80
 2181 0b73 1A       		.uleb128 0x1a
 2182 0b74 D0000000 		.4byte	.LASF159
 2183 0b78 00       		.sleb128 0
 2184 0b79 1A       		.uleb128 0x1a
 2185 0b7a 85020000 		.4byte	.LASF160
 2186 0b7e 01       		.sleb128 1
 2187 0b7f 00       		.byte	0
 2188 0b80 13       		.uleb128 0x13
 2189 0b81 AC010000 		.4byte	.LASF161
 2190 0b85 13       		.byte	0x13
 2191 0b86 3801     		.2byte	0x138
 2192 0b88 6A0B0000 		.4byte	0xb6a
 2193 0b8c 12       		.uleb128 0x12
 2194 0b8d 1C       		.byte	0x1c
 2195 0b8e 13       		.byte	0x13
 2196 0b8f 4301     		.2byte	0x143
 2197 0b91 F10B0000 		.4byte	0xbf1
 2198 0b95 09       		.uleb128 0x9
 2199 0b96 47080000 		.4byte	.LASF162
 2200 0b9a 13       		.byte	0x13
 2201 0b9b 4701     		.2byte	0x147
 2202 0b9d 520B0000 		.4byte	0xb52
 2203 0ba1 00       		.byte	0
 2204 0ba2 09       		.uleb128 0x9
 2205 0ba3 D9040000 		.4byte	.LASF163
 2206 0ba7 13       		.byte	0x13
 2207 0ba8 4D01     		.2byte	0x14d
 2208 0baa 5E0B0000 		.4byte	0xb5e
 2209 0bae 04       		.byte	0x4
 2210 0baf 09       		.uleb128 0x9
 2211 0bb0 1B000000 		.4byte	.LASF164
 2212 0bb4 13       		.byte	0x13
 2213 0bb5 5101     		.2byte	0x151
 2214 0bb7 1A0B0000 		.4byte	0xb1a
 2215 0bbb 08       		.byte	0x8
 2216 0bbc 09       		.uleb128 0x9
 2217 0bbd 81050000 		.4byte	.LASF165
 2218 0bc1 13       		.byte	0x13
 2219 0bc2 5501     		.2byte	0x155
ARM GAS  /tmp/cc6cIjGY.s 			page 40


 2220 0bc4 1A0B0000 		.4byte	0xb1a
 2221 0bc8 0C       		.byte	0xc
 2222 0bc9 09       		.uleb128 0x9
 2223 0bca 0E040000 		.4byte	.LASF166
 2224 0bce 13       		.byte	0x13
 2225 0bcf 5901     		.2byte	0x159
 2226 0bd1 1A0B0000 		.4byte	0xb1a
 2227 0bd5 10       		.byte	0x10
 2228 0bd6 09       		.uleb128 0x9
 2229 0bd7 E6030000 		.4byte	.LASF167
 2230 0bdb 13       		.byte	0x13
 2231 0bdc 5F01     		.2byte	0x15f
 2232 0bde 800B0000 		.4byte	0xb80
 2233 0be2 14       		.byte	0x14
 2234 0be3 09       		.uleb128 0x9
 2235 0be4 E3000000 		.4byte	.LASF168
 2236 0be8 13       		.byte	0x13
 2237 0be9 6501     		.2byte	0x165
 2238 0beb B8000000 		.4byte	0xb8
 2239 0bef 18       		.byte	0x18
 2240 0bf0 00       		.byte	0
 2241 0bf1 13       		.uleb128 0x13
 2242 0bf2 64030000 		.4byte	.LASF169
 2243 0bf6 13       		.byte	0x13
 2244 0bf7 6601     		.2byte	0x166
 2245 0bf9 8C0B0000 		.4byte	0xb8c
 2246 0bfd 0A       		.uleb128 0xa
 2247 0bfe 04       		.byte	0x4
 2248 0bff 030C0000 		.4byte	0xc03
 2249 0c03 18       		.uleb128 0x18
 2250 0c04 F10B0000 		.4byte	0xbf1
 2251 0c08 0A       		.uleb128 0xa
 2252 0c09 04       		.byte	0x4
 2253 0c0a B7080000 		.4byte	0x8b7
 2254 0c0e 1C       		.uleb128 0x1c
 2255 0c0f C7070000 		.4byte	.LASF174
 2256 0c13 03       		.byte	0x3
 2257 0c14 0601     		.2byte	0x106
 2258 0c16 03       		.byte	0x3
 2259 0c17 280C0000 		.4byte	0xc28
 2260 0c1b 1D       		.uleb128 0x1d
 2261 0c1c 6F070000 		.4byte	.LASF201
 2262 0c20 03       		.byte	0x3
 2263 0c21 0601     		.2byte	0x106
 2264 0c23 B8000000 		.4byte	0xb8
 2265 0c27 00       		.byte	0
 2266 0c28 1E       		.uleb128 0x1e
 2267 0c29 5E010000 		.4byte	.LASF170
 2268 0c2d 0C       		.byte	0xc
 2269 0c2e 6A02     		.2byte	0x26a
 2270 0c30 03       		.byte	0x3
 2271 0c31 1E       		.uleb128 0x1e
 2272 0c32 1E080000 		.4byte	.LASF171
 2273 0c36 0C       		.byte	0xc
 2274 0c37 5202     		.2byte	0x252
 2275 0c39 03       		.byte	0x3
 2276 0c3a 1E       		.uleb128 0x1e
ARM GAS  /tmp/cc6cIjGY.s 			page 41


 2277 0c3b ED000000 		.4byte	.LASF172
 2278 0c3f 14       		.byte	0x14
 2279 0c40 F601     		.2byte	0x1f6
 2280 0c42 03       		.byte	0x3
 2281 0c43 1E       		.uleb128 0x1e
 2282 0c44 E8010000 		.4byte	.LASF173
 2283 0c48 14       		.byte	0x14
 2284 0c49 EB01     		.2byte	0x1eb
 2285 0c4b 03       		.byte	0x3
 2286 0c4c 1C       		.uleb128 0x1c
 2287 0c4d AC030000 		.4byte	.LASF175
 2288 0c51 02       		.byte	0x2
 2289 0c52 8201     		.2byte	0x182
 2290 0c54 03       		.byte	0x3
 2291 0c55 670C0000 		.4byte	0xc67
 2292 0c59 1F       		.uleb128 0x1f
 2293 0c5a 8B000000 		.4byte	.LASF202
 2294 0c5e 770C0000 		.4byte	0xc77
 2295 0c62 AC030000 		.4byte	.LASF175
 2296 0c66 00       		.byte	0
 2297 0c67 10       		.uleb128 0x10
 2298 0c68 4B0A0000 		.4byte	0xa4b
 2299 0c6c 770C0000 		.4byte	0xc77
 2300 0c70 11       		.uleb128 0x11
 2301 0c71 5A040000 		.4byte	0x45a
 2302 0c75 0B       		.byte	0xb
 2303 0c76 00       		.byte	0
 2304 0c77 18       		.uleb128 0x18
 2305 0c78 670C0000 		.4byte	0xc67
 2306 0c7c 1E       		.uleb128 0x1e
 2307 0c7d CA030000 		.4byte	.LASF176
 2308 0c81 02       		.byte	0x2
 2309 0c82 7601     		.2byte	0x176
 2310 0c84 03       		.byte	0x3
 2311 0c85 20       		.uleb128 0x20
 2312 0c86 4C030000 		.4byte	.LASF203
 2313 0c8a 01       		.byte	0x1
 2314 0c8b 69       		.byte	0x69
 2315 0c8c 740A0000 		.4byte	0xa74
 2316 0c90 00000000 		.4byte	.LFB277
 2317 0c94 40000000 		.4byte	.LFE277-.LFB277
 2318 0c98 01       		.uleb128 0x1
 2319 0c99 9C       		.byte	0x9c
 2320 0c9a 880D0000 		.4byte	0xd88
 2321 0c9e 21       		.uleb128 0x21
 2322 0c9f 8B090000 		.4byte	.LASF180
 2323 0ca3 01       		.byte	0x1
 2324 0ca4 69       		.byte	0x69
 2325 0ca5 360B0000 		.4byte	0xb36
 2326 0ca9 00000000 		.4byte	.LLST0
 2327 0cad 22       		.uleb128 0x22
 2328 0cae 737200   		.ascii	"sr\000"
 2329 0cb1 01       		.byte	0x1
 2330 0cb2 6A       		.byte	0x6a
 2331 0cb3 B8000000 		.4byte	0xb8
 2332 0cb7 1E000000 		.4byte	.LLST1
 2333 0cbb 23       		.uleb128 0x23
ARM GAS  /tmp/cc6cIjGY.s 			page 42


 2334 0cbc 25010000 		.4byte	.LASF177
 2335 0cc0 01       		.byte	0x1
 2336 0cc1 6B       		.byte	0x6b
 2337 0cc2 740A0000 		.4byte	0xa74
 2338 0cc6 01       		.uleb128 0x1
 2339 0cc7 54       		.byte	0x54
 2340 0cc8 24       		.uleb128 0x24
 2341 0cc9 3A0C0000 		.4byte	0xc3a
 2342 0ccd 04000000 		.4byte	.LBB32
 2343 0cd1 0A000000 		.4byte	.LBE32-.LBB32
 2344 0cd5 01       		.byte	0x1
 2345 0cd6 6F       		.byte	0x6f
 2346 0cd7 310D0000 		.4byte	0xd31
 2347 0cdb 25       		.uleb128 0x25
 2348 0cdc 4C0C0000 		.4byte	0xc4c
 2349 0ce0 04000000 		.4byte	.LBB33
 2350 0ce4 0A000000 		.4byte	.LBE33-.LBB33
 2351 0ce8 14       		.byte	0x14
 2352 0ce9 F801     		.2byte	0x1f8
 2353 0ceb 26       		.uleb128 0x26
 2354 0cec 04000000 		.4byte	.LBB34
 2355 0cf0 0A000000 		.4byte	.LBE34-.LBB34
 2356 0cf4 27       		.uleb128 0x27
 2357 0cf5 590C0000 		.4byte	0xc59
 2358 0cf9 28       		.uleb128 0x28
 2359 0cfa 280C0000 		.4byte	0xc28
 2360 0cfe 08000000 		.4byte	.LBB35
 2361 0d02 06000000 		.4byte	.LBE35-.LBB35
 2362 0d06 02       		.byte	0x2
 2363 0d07 8F01     		.2byte	0x18f
 2364 0d09 250D0000 		.4byte	0xd25
 2365 0d0d 25       		.uleb128 0x25
 2366 0d0e 0E0C0000 		.4byte	0xc0e
 2367 0d12 08000000 		.4byte	.LBB36
 2368 0d16 06000000 		.4byte	.LBE36-.LBB36
 2369 0d1a 0C       		.byte	0xc
 2370 0d1b 6D02     		.2byte	0x26d
 2371 0d1d 29       		.uleb128 0x29
 2372 0d1e 1B0C0000 		.4byte	0xc1b
 2373 0d22 00       		.byte	0
 2374 0d23 00       		.byte	0
 2375 0d24 00       		.byte	0
 2376 0d25 2A       		.uleb128 0x2a
 2377 0d26 08000000 		.4byte	.LVL1
 2378 0d2a 8B100000 		.4byte	0x108b
 2379 0d2e 00       		.byte	0
 2380 0d2f 00       		.byte	0
 2381 0d30 00       		.byte	0
 2382 0d31 2B       		.uleb128 0x2b
 2383 0d32 430C0000 		.4byte	0xc43
 2384 0d36 26000000 		.4byte	.LBB38
 2385 0d3a 0A000000 		.4byte	.LBE38-.LBB38
 2386 0d3e 01       		.byte	0x1
 2387 0d3f 83       		.byte	0x83
 2388 0d40 25       		.uleb128 0x25
 2389 0d41 7C0C0000 		.4byte	0xc7c
 2390 0d45 26000000 		.4byte	.LBB39
ARM GAS  /tmp/cc6cIjGY.s 			page 43


 2391 0d49 0A000000 		.4byte	.LBE39-.LBB39
 2392 0d4d 14       		.byte	0x14
 2393 0d4e ED01     		.2byte	0x1ed
 2394 0d50 28       		.uleb128 0x28
 2395 0d51 310C0000 		.4byte	0xc31
 2396 0d55 26000000 		.4byte	.LBB41
 2397 0d59 06000000 		.4byte	.LBE41-.LBB41
 2398 0d5d 02       		.byte	0x2
 2399 0d5e 7801     		.2byte	0x178
 2400 0d60 7C0D0000 		.4byte	0xd7c
 2401 0d64 25       		.uleb128 0x25
 2402 0d65 0E0C0000 		.4byte	0xc0e
 2403 0d69 26000000 		.4byte	.LBB42
 2404 0d6d 06000000 		.4byte	.LBE42-.LBB42
 2405 0d71 0C       		.byte	0xc
 2406 0d72 5A02     		.2byte	0x25a
 2407 0d74 29       		.uleb128 0x29
 2408 0d75 1B0C0000 		.4byte	0xc1b
 2409 0d79 20       		.byte	0x20
 2410 0d7a 00       		.byte	0
 2411 0d7b 00       		.byte	0
 2412 0d7c 2A       		.uleb128 0x2a
 2413 0d7d 30000000 		.4byte	.LVL6
 2414 0d81 92100000 		.4byte	0x1092
 2415 0d85 00       		.byte	0
 2416 0d86 00       		.byte	0
 2417 0d87 00       		.byte	0
 2418 0d88 2C       		.uleb128 0x2c
 2419 0d89 06060000 		.4byte	.LASF178
 2420 0d8d 01       		.byte	0x1
 2421 0d8e 4F01     		.2byte	0x14f
 2422 0d90 00000000 		.4byte	.LFB280
 2423 0d94 18000000 		.4byte	.LFE280-.LFB280
 2424 0d98 01       		.uleb128 0x1
 2425 0d99 9C       		.byte	0x9c
 2426 0d9a AF0D0000 		.4byte	0xdaf
 2427 0d9e 2D       		.uleb128 0x2d
 2428 0d9f 0A000000 		.4byte	.LVL7
 2429 0da3 99100000 		.4byte	0x1099
 2430 0da7 2E       		.uleb128 0x2e
 2431 0da8 01       		.uleb128 0x1
 2432 0da9 50       		.byte	0x50
 2433 0daa 02       		.uleb128 0x2
 2434 0dab 74       		.byte	0x74
 2435 0dac 00       		.sleb128 0
 2436 0dad 00       		.byte	0
 2437 0dae 00       		.byte	0
 2438 0daf 2C       		.uleb128 0x2c
 2439 0db0 88030000 		.4byte	.LASF179
 2440 0db4 01       		.byte	0x1
 2441 0db5 8301     		.2byte	0x183
 2442 0db7 00000000 		.4byte	.LFB281
 2443 0dbb B8000000 		.4byte	.LFE281-.LFB281
 2444 0dbf 01       		.uleb128 0x1
 2445 0dc0 9C       		.byte	0x9c
 2446 0dc1 1D0E0000 		.4byte	0xe1d
 2447 0dc5 2F       		.uleb128 0x2f
ARM GAS  /tmp/cc6cIjGY.s 			page 44


 2448 0dc6 8B090000 		.4byte	.LASF180
 2449 0dca 01       		.byte	0x1
 2450 0dcb 8301     		.2byte	0x183
 2451 0dcd 360B0000 		.4byte	0xb36
 2452 0dd1 3C000000 		.4byte	.LLST2
 2453 0dd5 30       		.uleb128 0x30
 2454 0dd6 70736300 		.ascii	"psc\000"
 2455 0dda 01       		.byte	0x1
 2456 0ddb 8401     		.2byte	0x184
 2457 0ddd B8000000 		.4byte	0xb8
 2458 0de1 7E000000 		.4byte	.LLST3
 2459 0de5 31       		.uleb128 0x31
 2460 0de6 8B000000 		.4byte	.LASF202
 2461 0dea 2D0E0000 		.4byte	0xe2d
 2462 0dee 32       		.uleb128 0x32
 2463 0def 2E000000 		.4byte	.LVL10
 2464 0df3 AA100000 		.4byte	0x10aa
 2465 0df7 070E0000 		.4byte	0xe07
 2466 0dfb 2E       		.uleb128 0x2e
 2467 0dfc 01       		.uleb128 0x1
 2468 0dfd 51       		.byte	0x51
 2469 0dfe 01       		.uleb128 0x1
 2470 0dff 37       		.byte	0x37
 2471 0e00 2E       		.uleb128 0x2e
 2472 0e01 01       		.uleb128 0x1
 2473 0e02 50       		.byte	0x50
 2474 0e03 02       		.uleb128 0x2
 2475 0e04 08       		.byte	0x8
 2476 0e05 2C       		.byte	0x2c
 2477 0e06 00       		.byte	0
 2478 0e07 2D       		.uleb128 0x2d
 2479 0e08 36000000 		.4byte	.LVL11
 2480 0e0c AA100000 		.4byte	0x10aa
 2481 0e10 2E       		.uleb128 0x2e
 2482 0e11 01       		.uleb128 0x1
 2483 0e12 51       		.byte	0x51
 2484 0e13 01       		.uleb128 0x1
 2485 0e14 37       		.byte	0x37
 2486 0e15 2E       		.uleb128 0x2e
 2487 0e16 01       		.uleb128 0x1
 2488 0e17 50       		.byte	0x50
 2489 0e18 02       		.uleb128 0x2
 2490 0e19 08       		.byte	0x8
 2491 0e1a 2E       		.byte	0x2e
 2492 0e1b 00       		.byte	0
 2493 0e1c 00       		.byte	0
 2494 0e1d 10       		.uleb128 0x10
 2495 0e1e 4B0A0000 		.4byte	0xa4b
 2496 0e22 2D0E0000 		.4byte	0xe2d
 2497 0e26 11       		.uleb128 0x11
 2498 0e27 5A040000 		.4byte	0x45a
 2499 0e2b 0D       		.byte	0xd
 2500 0e2c 00       		.byte	0
 2501 0e2d 18       		.uleb128 0x18
 2502 0e2e 1D0E0000 		.4byte	0xe1d
 2503 0e32 2C       		.uleb128 0x2c
 2504 0e33 FB000000 		.4byte	.LASF181
ARM GAS  /tmp/cc6cIjGY.s 			page 45


 2505 0e37 01       		.byte	0x1
 2506 0e38 4502     		.2byte	0x245
 2507 0e3a 00000000 		.4byte	.LFB282
 2508 0e3e 38000000 		.4byte	.LFE282-.LFB282
 2509 0e42 01       		.uleb128 0x1
 2510 0e43 9C       		.byte	0x9c
 2511 0e44 7D0E0000 		.4byte	0xe7d
 2512 0e48 2F       		.uleb128 0x2f
 2513 0e49 8B090000 		.4byte	.LASF180
 2514 0e4d 01       		.byte	0x1
 2515 0e4e 4502     		.2byte	0x245
 2516 0e50 360B0000 		.4byte	0xb36
 2517 0e54 0A010000 		.4byte	.LLST4
 2518 0e58 32       		.uleb128 0x32
 2519 0e59 1E000000 		.4byte	.LVL25
 2520 0e5d C0100000 		.4byte	0x10c0
 2521 0e61 6C0E0000 		.4byte	0xe6c
 2522 0e65 2E       		.uleb128 0x2e
 2523 0e66 01       		.uleb128 0x1
 2524 0e67 50       		.byte	0x50
 2525 0e68 02       		.uleb128 0x2
 2526 0e69 08       		.byte	0x8
 2527 0e6a 2C       		.byte	0x2c
 2528 0e6b 00       		.byte	0
 2529 0e6c 2D       		.uleb128 0x2d
 2530 0e6d 24000000 		.4byte	.LVL26
 2531 0e71 C0100000 		.4byte	0x10c0
 2532 0e75 2E       		.uleb128 0x2e
 2533 0e76 01       		.uleb128 0x1
 2534 0e77 50       		.byte	0x50
 2535 0e78 02       		.uleb128 0x2
 2536 0e79 08       		.byte	0x8
 2537 0e7a 2E       		.byte	0x2e
 2538 0e7b 00       		.byte	0
 2539 0e7c 00       		.byte	0
 2540 0e7d 2C       		.uleb128 0x2c
 2541 0e7e 48050000 		.4byte	.LASF182
 2542 0e82 01       		.byte	0x1
 2543 0e83 9702     		.2byte	0x297
 2544 0e85 00000000 		.4byte	.LFB283
 2545 0e89 14000000 		.4byte	.LFE283-.LFB283
 2546 0e8d 01       		.uleb128 0x1
 2547 0e8e 9C       		.byte	0x9c
 2548 0e8f A20E0000 		.4byte	0xea2
 2549 0e93 33       		.uleb128 0x33
 2550 0e94 8B090000 		.4byte	.LASF180
 2551 0e98 01       		.byte	0x1
 2552 0e99 9702     		.2byte	0x297
 2553 0e9b 360B0000 		.4byte	0xb36
 2554 0e9f 01       		.uleb128 0x1
 2555 0ea0 50       		.byte	0x50
 2556 0ea1 00       		.byte	0
 2557 0ea2 34       		.uleb128 0x34
 2558 0ea3 2C010000 		.4byte	.LASF204
 2559 0ea7 01       		.byte	0x1
 2560 0ea8 AD02     		.2byte	0x2ad
 2561 0eaa 740A0000 		.4byte	0xa74
ARM GAS  /tmp/cc6cIjGY.s 			page 46


 2562 0eae 00000000 		.4byte	.LFB284
 2563 0eb2 1E000000 		.4byte	.LFE284-.LFB284
 2564 0eb6 01       		.uleb128 0x1
 2565 0eb7 9C       		.byte	0x9c
 2566 0eb8 EB0E0000 		.4byte	0xeeb
 2567 0ebc 2F       		.uleb128 0x2f
 2568 0ebd 8B090000 		.4byte	.LASF180
 2569 0ec1 01       		.byte	0x1
 2570 0ec2 AD02     		.2byte	0x2ad
 2571 0ec4 360B0000 		.4byte	0xb36
 2572 0ec8 2B010000 		.4byte	.LLST5
 2573 0ecc 35       		.uleb128 0x35
 2574 0ecd 14000000 		.4byte	.LVL31
 2575 0ed1 850C0000 		.4byte	0xc85
 2576 0ed5 E10E0000 		.4byte	0xee1
 2577 0ed9 2E       		.uleb128 0x2e
 2578 0eda 01       		.uleb128 0x1
 2579 0edb 50       		.byte	0x50
 2580 0edc 03       		.uleb128 0x3
 2581 0edd F3       		.byte	0xf3
 2582 0ede 01       		.uleb128 0x1
 2583 0edf 50       		.byte	0x50
 2584 0ee0 00       		.byte	0
 2585 0ee1 2A       		.uleb128 0x2a
 2586 0ee2 18000000 		.4byte	.LVL32
 2587 0ee6 850C0000 		.4byte	0xc85
 2588 0eea 00       		.byte	0
 2589 0eeb 2C       		.uleb128 0x2c
 2590 0eec 0F030000 		.4byte	.LASF183
 2591 0ef0 01       		.byte	0x1
 2592 0ef1 C002     		.2byte	0x2c0
 2593 0ef3 00000000 		.4byte	.LFB285
 2594 0ef7 10000000 		.4byte	.LFE285-.LFB285
 2595 0efb 01       		.uleb128 0x1
 2596 0efc 9C       		.byte	0x9c
 2597 0efd 100F0000 		.4byte	0xf10
 2598 0f01 33       		.uleb128 0x33
 2599 0f02 8B090000 		.4byte	.LASF180
 2600 0f06 01       		.byte	0x1
 2601 0f07 C002     		.2byte	0x2c0
 2602 0f09 360B0000 		.4byte	0xb36
 2603 0f0d 01       		.uleb128 0x1
 2604 0f0e 50       		.byte	0x50
 2605 0f0f 00       		.byte	0
 2606 0f10 2C       		.uleb128 0x2c
 2607 0f11 CF080000 		.4byte	.LASF184
 2608 0f15 01       		.byte	0x1
 2609 0f16 D202     		.2byte	0x2d2
 2610 0f18 00000000 		.4byte	.LFB286
 2611 0f1c 36000000 		.4byte	.LFE286-.LFB286
 2612 0f20 01       		.uleb128 0x1
 2613 0f21 9C       		.byte	0x9c
 2614 0f22 470F0000 		.4byte	0xf47
 2615 0f26 2F       		.uleb128 0x2f
 2616 0f27 8B090000 		.4byte	.LASF180
 2617 0f2b 01       		.byte	0x1
 2618 0f2c D202     		.2byte	0x2d2
ARM GAS  /tmp/cc6cIjGY.s 			page 47


 2619 0f2e 360B0000 		.4byte	0xb36
 2620 0f32 78010000 		.4byte	.LLST6
 2621 0f36 36       		.uleb128 0x36
 2622 0f37 E3000000 		.4byte	.LASF168
 2623 0f3b 01       		.byte	0x1
 2624 0f3c D302     		.2byte	0x2d3
 2625 0f3e B8000000 		.4byte	0xb8
 2626 0f42 99010000 		.4byte	.LLST7
 2627 0f46 00       		.byte	0
 2628 0f47 2C       		.uleb128 0x2c
 2629 0f48 6D090000 		.4byte	.LASF185
 2630 0f4c 01       		.byte	0x1
 2631 0f4d 0003     		.2byte	0x300
 2632 0f4f 00000000 		.4byte	.LFB287
 2633 0f53 0C000000 		.4byte	.LFE287-.LFB287
 2634 0f57 01       		.uleb128 0x1
 2635 0f58 9C       		.byte	0x9c
 2636 0f59 6C0F0000 		.4byte	0xf6c
 2637 0f5d 33       		.uleb128 0x33
 2638 0f5e 8B090000 		.4byte	.LASF180
 2639 0f62 01       		.byte	0x1
 2640 0f63 0003     		.2byte	0x300
 2641 0f65 360B0000 		.4byte	0xb36
 2642 0f69 01       		.uleb128 0x1
 2643 0f6a 50       		.byte	0x50
 2644 0f6b 00       		.byte	0
 2645 0f6c 2C       		.uleb128 0x2c
 2646 0f6d 2A030000 		.4byte	.LASF186
 2647 0f71 01       		.byte	0x1
 2648 0f72 0D03     		.2byte	0x30d
 2649 0f74 00000000 		.4byte	.LFB288
 2650 0f78 6A000000 		.4byte	.LFE288-.LFB288
 2651 0f7c 01       		.uleb128 0x1
 2652 0f7d 9C       		.byte	0x9c
 2653 0f7e DE0F0000 		.4byte	0xfde
 2654 0f82 2F       		.uleb128 0x2f
 2655 0f83 8B090000 		.4byte	.LASF180
 2656 0f87 01       		.byte	0x1
 2657 0f88 0D03     		.2byte	0x30d
 2658 0f8a 360B0000 		.4byte	0xb36
 2659 0f8e EB010000 		.4byte	.LLST8
 2660 0f92 30       		.uleb128 0x30
 2661 0f93 737200   		.ascii	"sr\000"
 2662 0f96 01       		.byte	0x1
 2663 0f97 0E03     		.2byte	0x30e
 2664 0f99 B8000000 		.4byte	0xb8
 2665 0f9d 1F020000 		.4byte	.LLST9
 2666 0fa1 37       		.uleb128 0x37
 2667 0fa2 2E000000 		.4byte	.LVL48
 2668 0fa6 B10F0000 		.4byte	0xfb1
 2669 0faa 2E       		.uleb128 0x2e
 2670 0fab 01       		.uleb128 0x1
 2671 0fac 50       		.byte	0x50
 2672 0fad 02       		.uleb128 0x2
 2673 0fae 74       		.byte	0x74
 2674 0faf 00       		.sleb128 0
 2675 0fb0 00       		.byte	0
ARM GAS  /tmp/cc6cIjGY.s 			page 48


 2676 0fb1 37       		.uleb128 0x37
 2677 0fb2 40000000 		.4byte	.LVL49
 2678 0fb6 C10F0000 		.4byte	0xfc1
 2679 0fba 2E       		.uleb128 0x2e
 2680 0fbb 01       		.uleb128 0x1
 2681 0fbc 50       		.byte	0x50
 2682 0fbd 02       		.uleb128 0x2
 2683 0fbe 74       		.byte	0x74
 2684 0fbf 00       		.sleb128 0
 2685 0fc0 00       		.byte	0
 2686 0fc1 37       		.uleb128 0x37
 2687 0fc2 54000000 		.4byte	.LVL51
 2688 0fc6 D10F0000 		.4byte	0xfd1
 2689 0fca 2E       		.uleb128 0x2e
 2690 0fcb 01       		.uleb128 0x1
 2691 0fcc 50       		.byte	0x50
 2692 0fcd 02       		.uleb128 0x2
 2693 0fce 74       		.byte	0x74
 2694 0fcf 00       		.sleb128 0
 2695 0fd0 00       		.byte	0
 2696 0fd1 38       		.uleb128 0x38
 2697 0fd2 64000000 		.4byte	.LVL52
 2698 0fd6 2E       		.uleb128 0x2e
 2699 0fd7 01       		.uleb128 0x1
 2700 0fd8 50       		.byte	0x50
 2701 0fd9 02       		.uleb128 0x2
 2702 0fda 74       		.byte	0x74
 2703 0fdb 00       		.sleb128 0
 2704 0fdc 00       		.byte	0
 2705 0fdd 00       		.byte	0
 2706 0fde 2C       		.uleb128 0x2c
 2707 0fdf 9A090000 		.4byte	.LASF187
 2708 0fe3 01       		.byte	0x1
 2709 0fe4 1501     		.2byte	0x115
 2710 0fe6 00000000 		.4byte	.LFB278
 2711 0fea 18000000 		.4byte	.LFE278-.LFB278
 2712 0fee 01       		.uleb128 0x1
 2713 0fef 9C       		.byte	0x9c
 2714 0ff0 1E100000 		.4byte	0x101e
 2715 0ff4 2A       		.uleb128 0x2a
 2716 0ff5 06000000 		.4byte	.LVL53
 2717 0ff9 D1100000 		.4byte	0x10d1
 2718 0ffd 32       		.uleb128 0x32
 2719 0ffe 0C000000 		.4byte	.LVL54
 2720 1002 6C0F0000 		.4byte	0xf6c
 2721 1006 14100000 		.4byte	0x1014
 2722 100a 2E       		.uleb128 0x2e
 2723 100b 01       		.uleb128 0x1
 2724 100c 50       		.byte	0x50
 2725 100d 05       		.uleb128 0x5
 2726 100e 03       		.byte	0x3
 2727 100f 00000000 		.4byte	.LANCHOR0
 2728 1013 00       		.byte	0
 2729 1014 39       		.uleb128 0x39
 2730 1015 14000000 		.4byte	.LVL55
 2731 1019 D8100000 		.4byte	0x10d8
 2732 101d 00       		.byte	0
ARM GAS  /tmp/cc6cIjGY.s 			page 49


 2733 101e 2C       		.uleb128 0x2c
 2734 101f A9090000 		.4byte	.LASF188
 2735 1023 01       		.byte	0x1
 2736 1024 2601     		.2byte	0x126
 2737 1026 00000000 		.4byte	.LFB279
 2738 102a 18000000 		.4byte	.LFE279-.LFB279
 2739 102e 01       		.uleb128 0x1
 2740 102f 9C       		.byte	0x9c
 2741 1030 5E100000 		.4byte	0x105e
 2742 1034 2A       		.uleb128 0x2a
 2743 1035 06000000 		.4byte	.LVL56
 2744 1039 D1100000 		.4byte	0x10d1
 2745 103d 32       		.uleb128 0x32
 2746 103e 0C000000 		.4byte	.LVL57
 2747 1042 6C0F0000 		.4byte	0xf6c
 2748 1046 54100000 		.4byte	0x1054
 2749 104a 2E       		.uleb128 0x2e
 2750 104b 01       		.uleb128 0x1
 2751 104c 50       		.byte	0x50
 2752 104d 05       		.uleb128 0x5
 2753 104e 03       		.byte	0x3
 2754 104f 00000000 		.4byte	.LANCHOR0
 2755 1053 00       		.byte	0
 2756 1054 39       		.uleb128 0x39
 2757 1055 14000000 		.4byte	.LVL58
 2758 1059 D8100000 		.4byte	0x10d8
 2759 105d 00       		.byte	0
 2760 105e 3A       		.uleb128 0x3a
 2761 105f CC040000 		.4byte	.LASF189
 2762 1063 15       		.byte	0x15
 2763 1064 4407     		.2byte	0x744
 2764 1066 6A100000 		.4byte	0x106a
 2765 106a 0F       		.uleb128 0xf
 2766 106b AD000000 		.4byte	0xad
 2767 106f 3B       		.uleb128 0x3b
 2768 1070 636800   		.ascii	"ch\000"
 2769 1073 09       		.byte	0x9
 2770 1074 D201     		.2byte	0x1d2
 2771 1076 F4030000 		.4byte	0x3f4
 2772 107a 3C       		.uleb128 0x3c
 2773 107b 96040000 		.4byte	.LASF190
 2774 107f 01       		.byte	0x1
 2775 1080 56       		.byte	0x56
 2776 1081 B30A0000 		.4byte	0xab3
 2777 1085 05       		.uleb128 0x5
 2778 1086 03       		.byte	0x3
 2779 1087 00000000 		.4byte	ICUD8
 2780 108b 3D       		.uleb128 0x3d
 2781 108c CB010000 		.4byte	.LASF191
 2782 1090 0F       		.byte	0xf
 2783 1091 50       		.byte	0x50
 2784 1092 3D       		.uleb128 0x3d
 2785 1093 8F070000 		.4byte	.LASF192
 2786 1097 0F       		.byte	0xf
 2787 1098 4F       		.byte	0x4f
 2788 1099 3E       		.uleb128 0x3e
 2789 109a 88040000 		.4byte	.LASF193
ARM GAS  /tmp/cc6cIjGY.s 			page 50


 2790 109e 12       		.byte	0x12
 2791 109f DE       		.byte	0xde
 2792 10a0 AA100000 		.4byte	0x10aa
 2793 10a4 0D       		.uleb128 0xd
 2794 10a5 360B0000 		.4byte	0xb36
 2795 10a9 00       		.byte	0
 2796 10aa 3E       		.uleb128 0x3e
 2797 10ab 2D090000 		.4byte	.LASF194
 2798 10af 16       		.byte	0x16
 2799 10b0 4E       		.byte	0x4e
 2800 10b1 C0100000 		.4byte	0x10c0
 2801 10b5 0D       		.uleb128 0xd
 2802 10b6 B8000000 		.4byte	0xb8
 2803 10ba 0D       		.uleb128 0xd
 2804 10bb B8000000 		.4byte	0xb8
 2805 10bf 00       		.byte	0
 2806 10c0 3E       		.uleb128 0x3e
 2807 10c1 CD050000 		.4byte	.LASF195
 2808 10c5 16       		.byte	0x16
 2809 10c6 4F       		.byte	0x4f
 2810 10c7 D1100000 		.4byte	0x10d1
 2811 10cb 0D       		.uleb128 0xd
 2812 10cc B8000000 		.4byte	0xb8
 2813 10d0 00       		.byte	0
 2814 10d1 3D       		.uleb128 0x3d
 2815 10d2 4A010000 		.4byte	.LASF196
 2816 10d6 0F       		.byte	0xf
 2817 10d7 4D       		.byte	0x4d
 2818 10d8 3F       		.uleb128 0x3f
 2819 10d9 35050000 		.4byte	.LASF197
 2820 10dd 0C       		.byte	0xc
 2821 10de EA01     		.2byte	0x1ea
 2822 10e0 00       		.byte	0
 2823              		.section	.debug_abbrev,"",%progbits
 2824              	.Ldebug_abbrev0:
 2825 0000 01       		.uleb128 0x1
 2826 0001 11       		.uleb128 0x11
 2827 0002 01       		.byte	0x1
 2828 0003 25       		.uleb128 0x25
 2829 0004 0E       		.uleb128 0xe
 2830 0005 13       		.uleb128 0x13
 2831 0006 0B       		.uleb128 0xb
 2832 0007 03       		.uleb128 0x3
 2833 0008 0E       		.uleb128 0xe
 2834 0009 1B       		.uleb128 0x1b
 2835 000a 0E       		.uleb128 0xe
 2836 000b 55       		.uleb128 0x55
 2837 000c 17       		.uleb128 0x17
 2838 000d 11       		.uleb128 0x11
 2839 000e 01       		.uleb128 0x1
 2840 000f 10       		.uleb128 0x10
 2841 0010 17       		.uleb128 0x17
 2842 0011 00       		.byte	0
 2843 0012 00       		.byte	0
 2844 0013 02       		.uleb128 0x2
 2845 0014 24       		.uleb128 0x24
 2846 0015 00       		.byte	0
ARM GAS  /tmp/cc6cIjGY.s 			page 51


 2847 0016 0B       		.uleb128 0xb
 2848 0017 0B       		.uleb128 0xb
 2849 0018 3E       		.uleb128 0x3e
 2850 0019 0B       		.uleb128 0xb
 2851 001a 03       		.uleb128 0x3
 2852 001b 0E       		.uleb128 0xe
 2853 001c 00       		.byte	0
 2854 001d 00       		.byte	0
 2855 001e 03       		.uleb128 0x3
 2856 001f 24       		.uleb128 0x24
 2857 0020 00       		.byte	0
 2858 0021 0B       		.uleb128 0xb
 2859 0022 0B       		.uleb128 0xb
 2860 0023 3E       		.uleb128 0x3e
 2861 0024 0B       		.uleb128 0xb
 2862 0025 03       		.uleb128 0x3
 2863 0026 08       		.uleb128 0x8
 2864 0027 00       		.byte	0
 2865 0028 00       		.byte	0
 2866 0029 04       		.uleb128 0x4
 2867 002a 16       		.uleb128 0x16
 2868 002b 00       		.byte	0
 2869 002c 03       		.uleb128 0x3
 2870 002d 0E       		.uleb128 0xe
 2871 002e 3A       		.uleb128 0x3a
 2872 002f 0B       		.uleb128 0xb
 2873 0030 3B       		.uleb128 0x3b
 2874 0031 0B       		.uleb128 0xb
 2875 0032 49       		.uleb128 0x49
 2876 0033 13       		.uleb128 0x13
 2877 0034 00       		.byte	0
 2878 0035 00       		.byte	0
 2879 0036 05       		.uleb128 0x5
 2880 0037 13       		.uleb128 0x13
 2881 0038 01       		.byte	0x1
 2882 0039 03       		.uleb128 0x3
 2883 003a 0E       		.uleb128 0xe
 2884 003b 0B       		.uleb128 0xb
 2885 003c 0B       		.uleb128 0xb
 2886 003d 3A       		.uleb128 0x3a
 2887 003e 0B       		.uleb128 0xb
 2888 003f 3B       		.uleb128 0x3b
 2889 0040 0B       		.uleb128 0xb
 2890 0041 01       		.uleb128 0x1
 2891 0042 13       		.uleb128 0x13
 2892 0043 00       		.byte	0
 2893 0044 00       		.byte	0
 2894 0045 06       		.uleb128 0x6
 2895 0046 0D       		.uleb128 0xd
 2896 0047 00       		.byte	0
 2897 0048 03       		.uleb128 0x3
 2898 0049 0E       		.uleb128 0xe
 2899 004a 3A       		.uleb128 0x3a
 2900 004b 0B       		.uleb128 0xb
 2901 004c 3B       		.uleb128 0x3b
 2902 004d 0B       		.uleb128 0xb
 2903 004e 49       		.uleb128 0x49
ARM GAS  /tmp/cc6cIjGY.s 			page 52


 2904 004f 13       		.uleb128 0x13
 2905 0050 38       		.uleb128 0x38
 2906 0051 0B       		.uleb128 0xb
 2907 0052 00       		.byte	0
 2908 0053 00       		.byte	0
 2909 0054 07       		.uleb128 0x7
 2910 0055 0D       		.uleb128 0xd
 2911 0056 00       		.byte	0
 2912 0057 03       		.uleb128 0x3
 2913 0058 08       		.uleb128 0x8
 2914 0059 3A       		.uleb128 0x3a
 2915 005a 0B       		.uleb128 0xb
 2916 005b 3B       		.uleb128 0x3b
 2917 005c 0B       		.uleb128 0xb
 2918 005d 49       		.uleb128 0x49
 2919 005e 13       		.uleb128 0x13
 2920 005f 38       		.uleb128 0x38
 2921 0060 0B       		.uleb128 0xb
 2922 0061 00       		.byte	0
 2923 0062 00       		.byte	0
 2924 0063 08       		.uleb128 0x8
 2925 0064 0D       		.uleb128 0xd
 2926 0065 00       		.byte	0
 2927 0066 03       		.uleb128 0x3
 2928 0067 08       		.uleb128 0x8
 2929 0068 3A       		.uleb128 0x3a
 2930 0069 0B       		.uleb128 0xb
 2931 006a 3B       		.uleb128 0x3b
 2932 006b 05       		.uleb128 0x5
 2933 006c 49       		.uleb128 0x49
 2934 006d 13       		.uleb128 0x13
 2935 006e 38       		.uleb128 0x38
 2936 006f 0B       		.uleb128 0xb
 2937 0070 00       		.byte	0
 2938 0071 00       		.byte	0
 2939 0072 09       		.uleb128 0x9
 2940 0073 0D       		.uleb128 0xd
 2941 0074 00       		.byte	0
 2942 0075 03       		.uleb128 0x3
 2943 0076 0E       		.uleb128 0xe
 2944 0077 3A       		.uleb128 0x3a
 2945 0078 0B       		.uleb128 0xb
 2946 0079 3B       		.uleb128 0x3b
 2947 007a 05       		.uleb128 0x5
 2948 007b 49       		.uleb128 0x49
 2949 007c 13       		.uleb128 0x13
 2950 007d 38       		.uleb128 0x38
 2951 007e 0B       		.uleb128 0xb
 2952 007f 00       		.byte	0
 2953 0080 00       		.byte	0
 2954 0081 0A       		.uleb128 0xa
 2955 0082 0F       		.uleb128 0xf
 2956 0083 00       		.byte	0
 2957 0084 0B       		.uleb128 0xb
 2958 0085 0B       		.uleb128 0xb
 2959 0086 49       		.uleb128 0x49
 2960 0087 13       		.uleb128 0x13
ARM GAS  /tmp/cc6cIjGY.s 			page 53


 2961 0088 00       		.byte	0
 2962 0089 00       		.byte	0
 2963 008a 0B       		.uleb128 0xb
 2964 008b 13       		.uleb128 0x13
 2965 008c 01       		.byte	0x1
 2966 008d 03       		.uleb128 0x3
 2967 008e 0E       		.uleb128 0xe
 2968 008f 0B       		.uleb128 0xb
 2969 0090 0B       		.uleb128 0xb
 2970 0091 3A       		.uleb128 0x3a
 2971 0092 0B       		.uleb128 0xb
 2972 0093 3B       		.uleb128 0x3b
 2973 0094 05       		.uleb128 0x5
 2974 0095 01       		.uleb128 0x1
 2975 0096 13       		.uleb128 0x13
 2976 0097 00       		.byte	0
 2977 0098 00       		.byte	0
 2978 0099 0C       		.uleb128 0xc
 2979 009a 15       		.uleb128 0x15
 2980 009b 01       		.byte	0x1
 2981 009c 27       		.uleb128 0x27
 2982 009d 19       		.uleb128 0x19
 2983 009e 01       		.uleb128 0x1
 2984 009f 13       		.uleb128 0x13
 2985 00a0 00       		.byte	0
 2986 00a1 00       		.byte	0
 2987 00a2 0D       		.uleb128 0xd
 2988 00a3 05       		.uleb128 0x5
 2989 00a4 00       		.byte	0
 2990 00a5 49       		.uleb128 0x49
 2991 00a6 13       		.uleb128 0x13
 2992 00a7 00       		.byte	0
 2993 00a8 00       		.byte	0
 2994 00a9 0E       		.uleb128 0xe
 2995 00aa 0F       		.uleb128 0xf
 2996 00ab 00       		.byte	0
 2997 00ac 0B       		.uleb128 0xb
 2998 00ad 0B       		.uleb128 0xb
 2999 00ae 00       		.byte	0
 3000 00af 00       		.byte	0
 3001 00b0 0F       		.uleb128 0xf
 3002 00b1 35       		.uleb128 0x35
 3003 00b2 00       		.byte	0
 3004 00b3 49       		.uleb128 0x49
 3005 00b4 13       		.uleb128 0x13
 3006 00b5 00       		.byte	0
 3007 00b6 00       		.byte	0
 3008 00b7 10       		.uleb128 0x10
 3009 00b8 01       		.uleb128 0x1
 3010 00b9 01       		.byte	0x1
 3011 00ba 49       		.uleb128 0x49
 3012 00bb 13       		.uleb128 0x13
 3013 00bc 01       		.uleb128 0x1
 3014 00bd 13       		.uleb128 0x13
 3015 00be 00       		.byte	0
 3016 00bf 00       		.byte	0
 3017 00c0 11       		.uleb128 0x11
ARM GAS  /tmp/cc6cIjGY.s 			page 54


 3018 00c1 21       		.uleb128 0x21
 3019 00c2 00       		.byte	0
 3020 00c3 49       		.uleb128 0x49
 3021 00c4 13       		.uleb128 0x13
 3022 00c5 2F       		.uleb128 0x2f
 3023 00c6 0B       		.uleb128 0xb
 3024 00c7 00       		.byte	0
 3025 00c8 00       		.byte	0
 3026 00c9 12       		.uleb128 0x12
 3027 00ca 13       		.uleb128 0x13
 3028 00cb 01       		.byte	0x1
 3029 00cc 0B       		.uleb128 0xb
 3030 00cd 0B       		.uleb128 0xb
 3031 00ce 3A       		.uleb128 0x3a
 3032 00cf 0B       		.uleb128 0xb
 3033 00d0 3B       		.uleb128 0x3b
 3034 00d1 05       		.uleb128 0x5
 3035 00d2 01       		.uleb128 0x1
 3036 00d3 13       		.uleb128 0x13
 3037 00d4 00       		.byte	0
 3038 00d5 00       		.byte	0
 3039 00d6 13       		.uleb128 0x13
 3040 00d7 16       		.uleb128 0x16
 3041 00d8 00       		.byte	0
 3042 00d9 03       		.uleb128 0x3
 3043 00da 0E       		.uleb128 0xe
 3044 00db 3A       		.uleb128 0x3a
 3045 00dc 0B       		.uleb128 0xb
 3046 00dd 3B       		.uleb128 0x3b
 3047 00de 05       		.uleb128 0x5
 3048 00df 49       		.uleb128 0x49
 3049 00e0 13       		.uleb128 0x13
 3050 00e1 00       		.byte	0
 3051 00e2 00       		.byte	0
 3052 00e3 14       		.uleb128 0x14
 3053 00e4 13       		.uleb128 0x13
 3054 00e5 01       		.byte	0x1
 3055 00e6 0B       		.uleb128 0xb
 3056 00e7 0B       		.uleb128 0xb
 3057 00e8 3A       		.uleb128 0x3a
 3058 00e9 0B       		.uleb128 0xb
 3059 00ea 3B       		.uleb128 0x3b
 3060 00eb 0B       		.uleb128 0xb
 3061 00ec 01       		.uleb128 0x1
 3062 00ed 13       		.uleb128 0x13
 3063 00ee 00       		.byte	0
 3064 00ef 00       		.byte	0
 3065 00f0 15       		.uleb128 0x15
 3066 00f1 17       		.uleb128 0x17
 3067 00f2 01       		.byte	0x1
 3068 00f3 0B       		.uleb128 0xb
 3069 00f4 0B       		.uleb128 0xb
 3070 00f5 3A       		.uleb128 0x3a
 3071 00f6 0B       		.uleb128 0xb
 3072 00f7 3B       		.uleb128 0x3b
 3073 00f8 0B       		.uleb128 0xb
 3074 00f9 01       		.uleb128 0x1
ARM GAS  /tmp/cc6cIjGY.s 			page 55


 3075 00fa 13       		.uleb128 0x13
 3076 00fb 00       		.byte	0
 3077 00fc 00       		.byte	0
 3078 00fd 16       		.uleb128 0x16
 3079 00fe 0D       		.uleb128 0xd
 3080 00ff 00       		.byte	0
 3081 0100 03       		.uleb128 0x3
 3082 0101 0E       		.uleb128 0xe
 3083 0102 3A       		.uleb128 0x3a
 3084 0103 0B       		.uleb128 0xb
 3085 0104 3B       		.uleb128 0x3b
 3086 0105 0B       		.uleb128 0xb
 3087 0106 49       		.uleb128 0x49
 3088 0107 13       		.uleb128 0x13
 3089 0108 00       		.byte	0
 3090 0109 00       		.byte	0
 3091 010a 17       		.uleb128 0x17
 3092 010b 0D       		.uleb128 0xd
 3093 010c 00       		.byte	0
 3094 010d 03       		.uleb128 0x3
 3095 010e 0E       		.uleb128 0xe
 3096 010f 3A       		.uleb128 0x3a
 3097 0110 0B       		.uleb128 0xb
 3098 0111 3B       		.uleb128 0x3b
 3099 0112 05       		.uleb128 0x5
 3100 0113 49       		.uleb128 0x49
 3101 0114 13       		.uleb128 0x13
 3102 0115 00       		.byte	0
 3103 0116 00       		.byte	0
 3104 0117 18       		.uleb128 0x18
 3105 0118 26       		.uleb128 0x26
 3106 0119 00       		.byte	0
 3107 011a 49       		.uleb128 0x49
 3108 011b 13       		.uleb128 0x13
 3109 011c 00       		.byte	0
 3110 011d 00       		.byte	0
 3111 011e 19       		.uleb128 0x19
 3112 011f 04       		.uleb128 0x4
 3113 0120 01       		.byte	0x1
 3114 0121 0B       		.uleb128 0xb
 3115 0122 0B       		.uleb128 0xb
 3116 0123 3A       		.uleb128 0x3a
 3117 0124 0B       		.uleb128 0xb
 3118 0125 3B       		.uleb128 0x3b
 3119 0126 0B       		.uleb128 0xb
 3120 0127 01       		.uleb128 0x1
 3121 0128 13       		.uleb128 0x13
 3122 0129 00       		.byte	0
 3123 012a 00       		.byte	0
 3124 012b 1A       		.uleb128 0x1a
 3125 012c 28       		.uleb128 0x28
 3126 012d 00       		.byte	0
 3127 012e 03       		.uleb128 0x3
 3128 012f 0E       		.uleb128 0xe
 3129 0130 1C       		.uleb128 0x1c
 3130 0131 0D       		.uleb128 0xd
 3131 0132 00       		.byte	0
ARM GAS  /tmp/cc6cIjGY.s 			page 56


 3132 0133 00       		.byte	0
 3133 0134 1B       		.uleb128 0x1b
 3134 0135 04       		.uleb128 0x4
 3135 0136 01       		.byte	0x1
 3136 0137 0B       		.uleb128 0xb
 3137 0138 0B       		.uleb128 0xb
 3138 0139 3A       		.uleb128 0x3a
 3139 013a 0B       		.uleb128 0xb
 3140 013b 3B       		.uleb128 0x3b
 3141 013c 05       		.uleb128 0x5
 3142 013d 01       		.uleb128 0x1
 3143 013e 13       		.uleb128 0x13
 3144 013f 00       		.byte	0
 3145 0140 00       		.byte	0
 3146 0141 1C       		.uleb128 0x1c
 3147 0142 2E       		.uleb128 0x2e
 3148 0143 01       		.byte	0x1
 3149 0144 03       		.uleb128 0x3
 3150 0145 0E       		.uleb128 0xe
 3151 0146 3A       		.uleb128 0x3a
 3152 0147 0B       		.uleb128 0xb
 3153 0148 3B       		.uleb128 0x3b
 3154 0149 05       		.uleb128 0x5
 3155 014a 27       		.uleb128 0x27
 3156 014b 19       		.uleb128 0x19
 3157 014c 20       		.uleb128 0x20
 3158 014d 0B       		.uleb128 0xb
 3159 014e 01       		.uleb128 0x1
 3160 014f 13       		.uleb128 0x13
 3161 0150 00       		.byte	0
 3162 0151 00       		.byte	0
 3163 0152 1D       		.uleb128 0x1d
 3164 0153 05       		.uleb128 0x5
 3165 0154 00       		.byte	0
 3166 0155 03       		.uleb128 0x3
 3167 0156 0E       		.uleb128 0xe
 3168 0157 3A       		.uleb128 0x3a
 3169 0158 0B       		.uleb128 0xb
 3170 0159 3B       		.uleb128 0x3b
 3171 015a 05       		.uleb128 0x5
 3172 015b 49       		.uleb128 0x49
 3173 015c 13       		.uleb128 0x13
 3174 015d 00       		.byte	0
 3175 015e 00       		.byte	0
 3176 015f 1E       		.uleb128 0x1e
 3177 0160 2E       		.uleb128 0x2e
 3178 0161 00       		.byte	0
 3179 0162 03       		.uleb128 0x3
 3180 0163 0E       		.uleb128 0xe
 3181 0164 3A       		.uleb128 0x3a
 3182 0165 0B       		.uleb128 0xb
 3183 0166 3B       		.uleb128 0x3b
 3184 0167 05       		.uleb128 0x5
 3185 0168 27       		.uleb128 0x27
 3186 0169 19       		.uleb128 0x19
 3187 016a 20       		.uleb128 0x20
 3188 016b 0B       		.uleb128 0xb
ARM GAS  /tmp/cc6cIjGY.s 			page 57


 3189 016c 00       		.byte	0
 3190 016d 00       		.byte	0
 3191 016e 1F       		.uleb128 0x1f
 3192 016f 34       		.uleb128 0x34
 3193 0170 00       		.byte	0
 3194 0171 03       		.uleb128 0x3
 3195 0172 0E       		.uleb128 0xe
 3196 0173 49       		.uleb128 0x49
 3197 0174 13       		.uleb128 0x13
 3198 0175 34       		.uleb128 0x34
 3199 0176 19       		.uleb128 0x19
 3200 0177 1C       		.uleb128 0x1c
 3201 0178 0E       		.uleb128 0xe
 3202 0179 00       		.byte	0
 3203 017a 00       		.byte	0
 3204 017b 20       		.uleb128 0x20
 3205 017c 2E       		.uleb128 0x2e
 3206 017d 01       		.byte	0x1
 3207 017e 03       		.uleb128 0x3
 3208 017f 0E       		.uleb128 0xe
 3209 0180 3A       		.uleb128 0x3a
 3210 0181 0B       		.uleb128 0xb
 3211 0182 3B       		.uleb128 0x3b
 3212 0183 0B       		.uleb128 0xb
 3213 0184 27       		.uleb128 0x27
 3214 0185 19       		.uleb128 0x19
 3215 0186 49       		.uleb128 0x49
 3216 0187 13       		.uleb128 0x13
 3217 0188 11       		.uleb128 0x11
 3218 0189 01       		.uleb128 0x1
 3219 018a 12       		.uleb128 0x12
 3220 018b 06       		.uleb128 0x6
 3221 018c 40       		.uleb128 0x40
 3222 018d 18       		.uleb128 0x18
 3223 018e 9742     		.uleb128 0x2117
 3224 0190 19       		.uleb128 0x19
 3225 0191 01       		.uleb128 0x1
 3226 0192 13       		.uleb128 0x13
 3227 0193 00       		.byte	0
 3228 0194 00       		.byte	0
 3229 0195 21       		.uleb128 0x21
 3230 0196 05       		.uleb128 0x5
 3231 0197 00       		.byte	0
 3232 0198 03       		.uleb128 0x3
 3233 0199 0E       		.uleb128 0xe
 3234 019a 3A       		.uleb128 0x3a
 3235 019b 0B       		.uleb128 0xb
 3236 019c 3B       		.uleb128 0x3b
 3237 019d 0B       		.uleb128 0xb
 3238 019e 49       		.uleb128 0x49
 3239 019f 13       		.uleb128 0x13
 3240 01a0 02       		.uleb128 0x2
 3241 01a1 17       		.uleb128 0x17
 3242 01a2 00       		.byte	0
 3243 01a3 00       		.byte	0
 3244 01a4 22       		.uleb128 0x22
 3245 01a5 34       		.uleb128 0x34
ARM GAS  /tmp/cc6cIjGY.s 			page 58


 3246 01a6 00       		.byte	0
 3247 01a7 03       		.uleb128 0x3
 3248 01a8 08       		.uleb128 0x8
 3249 01a9 3A       		.uleb128 0x3a
 3250 01aa 0B       		.uleb128 0xb
 3251 01ab 3B       		.uleb128 0x3b
 3252 01ac 0B       		.uleb128 0xb
 3253 01ad 49       		.uleb128 0x49
 3254 01ae 13       		.uleb128 0x13
 3255 01af 02       		.uleb128 0x2
 3256 01b0 17       		.uleb128 0x17
 3257 01b1 00       		.byte	0
 3258 01b2 00       		.byte	0
 3259 01b3 23       		.uleb128 0x23
 3260 01b4 34       		.uleb128 0x34
 3261 01b5 00       		.byte	0
 3262 01b6 03       		.uleb128 0x3
 3263 01b7 0E       		.uleb128 0xe
 3264 01b8 3A       		.uleb128 0x3a
 3265 01b9 0B       		.uleb128 0xb
 3266 01ba 3B       		.uleb128 0x3b
 3267 01bb 0B       		.uleb128 0xb
 3268 01bc 49       		.uleb128 0x49
 3269 01bd 13       		.uleb128 0x13
 3270 01be 02       		.uleb128 0x2
 3271 01bf 18       		.uleb128 0x18
 3272 01c0 00       		.byte	0
 3273 01c1 00       		.byte	0
 3274 01c2 24       		.uleb128 0x24
 3275 01c3 1D       		.uleb128 0x1d
 3276 01c4 01       		.byte	0x1
 3277 01c5 31       		.uleb128 0x31
 3278 01c6 13       		.uleb128 0x13
 3279 01c7 11       		.uleb128 0x11
 3280 01c8 01       		.uleb128 0x1
 3281 01c9 12       		.uleb128 0x12
 3282 01ca 06       		.uleb128 0x6
 3283 01cb 58       		.uleb128 0x58
 3284 01cc 0B       		.uleb128 0xb
 3285 01cd 59       		.uleb128 0x59
 3286 01ce 0B       		.uleb128 0xb
 3287 01cf 01       		.uleb128 0x1
 3288 01d0 13       		.uleb128 0x13
 3289 01d1 00       		.byte	0
 3290 01d2 00       		.byte	0
 3291 01d3 25       		.uleb128 0x25
 3292 01d4 1D       		.uleb128 0x1d
 3293 01d5 01       		.byte	0x1
 3294 01d6 31       		.uleb128 0x31
 3295 01d7 13       		.uleb128 0x13
 3296 01d8 11       		.uleb128 0x11
 3297 01d9 01       		.uleb128 0x1
 3298 01da 12       		.uleb128 0x12
 3299 01db 06       		.uleb128 0x6
 3300 01dc 58       		.uleb128 0x58
 3301 01dd 0B       		.uleb128 0xb
 3302 01de 59       		.uleb128 0x59
ARM GAS  /tmp/cc6cIjGY.s 			page 59


 3303 01df 05       		.uleb128 0x5
 3304 01e0 00       		.byte	0
 3305 01e1 00       		.byte	0
 3306 01e2 26       		.uleb128 0x26
 3307 01e3 0B       		.uleb128 0xb
 3308 01e4 01       		.byte	0x1
 3309 01e5 11       		.uleb128 0x11
 3310 01e6 01       		.uleb128 0x1
 3311 01e7 12       		.uleb128 0x12
 3312 01e8 06       		.uleb128 0x6
 3313 01e9 00       		.byte	0
 3314 01ea 00       		.byte	0
 3315 01eb 27       		.uleb128 0x27
 3316 01ec 34       		.uleb128 0x34
 3317 01ed 00       		.byte	0
 3318 01ee 31       		.uleb128 0x31
 3319 01ef 13       		.uleb128 0x13
 3320 01f0 00       		.byte	0
 3321 01f1 00       		.byte	0
 3322 01f2 28       		.uleb128 0x28
 3323 01f3 1D       		.uleb128 0x1d
 3324 01f4 01       		.byte	0x1
 3325 01f5 31       		.uleb128 0x31
 3326 01f6 13       		.uleb128 0x13
 3327 01f7 11       		.uleb128 0x11
 3328 01f8 01       		.uleb128 0x1
 3329 01f9 12       		.uleb128 0x12
 3330 01fa 06       		.uleb128 0x6
 3331 01fb 58       		.uleb128 0x58
 3332 01fc 0B       		.uleb128 0xb
 3333 01fd 59       		.uleb128 0x59
 3334 01fe 05       		.uleb128 0x5
 3335 01ff 01       		.uleb128 0x1
 3336 0200 13       		.uleb128 0x13
 3337 0201 00       		.byte	0
 3338 0202 00       		.byte	0
 3339 0203 29       		.uleb128 0x29
 3340 0204 05       		.uleb128 0x5
 3341 0205 00       		.byte	0
 3342 0206 31       		.uleb128 0x31
 3343 0207 13       		.uleb128 0x13
 3344 0208 1C       		.uleb128 0x1c
 3345 0209 0B       		.uleb128 0xb
 3346 020a 00       		.byte	0
 3347 020b 00       		.byte	0
 3348 020c 2A       		.uleb128 0x2a
 3349 020d 898201   		.uleb128 0x4109
 3350 0210 00       		.byte	0
 3351 0211 11       		.uleb128 0x11
 3352 0212 01       		.uleb128 0x1
 3353 0213 31       		.uleb128 0x31
 3354 0214 13       		.uleb128 0x13
 3355 0215 00       		.byte	0
 3356 0216 00       		.byte	0
 3357 0217 2B       		.uleb128 0x2b
 3358 0218 1D       		.uleb128 0x1d
 3359 0219 01       		.byte	0x1
ARM GAS  /tmp/cc6cIjGY.s 			page 60


 3360 021a 31       		.uleb128 0x31
 3361 021b 13       		.uleb128 0x13
 3362 021c 11       		.uleb128 0x11
 3363 021d 01       		.uleb128 0x1
 3364 021e 12       		.uleb128 0x12
 3365 021f 06       		.uleb128 0x6
 3366 0220 58       		.uleb128 0x58
 3367 0221 0B       		.uleb128 0xb
 3368 0222 59       		.uleb128 0x59
 3369 0223 0B       		.uleb128 0xb
 3370 0224 00       		.byte	0
 3371 0225 00       		.byte	0
 3372 0226 2C       		.uleb128 0x2c
 3373 0227 2E       		.uleb128 0x2e
 3374 0228 01       		.byte	0x1
 3375 0229 3F       		.uleb128 0x3f
 3376 022a 19       		.uleb128 0x19
 3377 022b 03       		.uleb128 0x3
 3378 022c 0E       		.uleb128 0xe
 3379 022d 3A       		.uleb128 0x3a
 3380 022e 0B       		.uleb128 0xb
 3381 022f 3B       		.uleb128 0x3b
 3382 0230 05       		.uleb128 0x5
 3383 0231 27       		.uleb128 0x27
 3384 0232 19       		.uleb128 0x19
 3385 0233 11       		.uleb128 0x11
 3386 0234 01       		.uleb128 0x1
 3387 0235 12       		.uleb128 0x12
 3388 0236 06       		.uleb128 0x6
 3389 0237 40       		.uleb128 0x40
 3390 0238 18       		.uleb128 0x18
 3391 0239 9742     		.uleb128 0x2117
 3392 023b 19       		.uleb128 0x19
 3393 023c 01       		.uleb128 0x1
 3394 023d 13       		.uleb128 0x13
 3395 023e 00       		.byte	0
 3396 023f 00       		.byte	0
 3397 0240 2D       		.uleb128 0x2d
 3398 0241 898201   		.uleb128 0x4109
 3399 0244 01       		.byte	0x1
 3400 0245 11       		.uleb128 0x11
 3401 0246 01       		.uleb128 0x1
 3402 0247 31       		.uleb128 0x31
 3403 0248 13       		.uleb128 0x13
 3404 0249 00       		.byte	0
 3405 024a 00       		.byte	0
 3406 024b 2E       		.uleb128 0x2e
 3407 024c 8A8201   		.uleb128 0x410a
 3408 024f 00       		.byte	0
 3409 0250 02       		.uleb128 0x2
 3410 0251 18       		.uleb128 0x18
 3411 0252 9142     		.uleb128 0x2111
 3412 0254 18       		.uleb128 0x18
 3413 0255 00       		.byte	0
 3414 0256 00       		.byte	0
 3415 0257 2F       		.uleb128 0x2f
 3416 0258 05       		.uleb128 0x5
ARM GAS  /tmp/cc6cIjGY.s 			page 61


 3417 0259 00       		.byte	0
 3418 025a 03       		.uleb128 0x3
 3419 025b 0E       		.uleb128 0xe
 3420 025c 3A       		.uleb128 0x3a
 3421 025d 0B       		.uleb128 0xb
 3422 025e 3B       		.uleb128 0x3b
 3423 025f 05       		.uleb128 0x5
 3424 0260 49       		.uleb128 0x49
 3425 0261 13       		.uleb128 0x13
 3426 0262 02       		.uleb128 0x2
 3427 0263 17       		.uleb128 0x17
 3428 0264 00       		.byte	0
 3429 0265 00       		.byte	0
 3430 0266 30       		.uleb128 0x30
 3431 0267 34       		.uleb128 0x34
 3432 0268 00       		.byte	0
 3433 0269 03       		.uleb128 0x3
 3434 026a 08       		.uleb128 0x8
 3435 026b 3A       		.uleb128 0x3a
 3436 026c 0B       		.uleb128 0xb
 3437 026d 3B       		.uleb128 0x3b
 3438 026e 05       		.uleb128 0x5
 3439 026f 49       		.uleb128 0x49
 3440 0270 13       		.uleb128 0x13
 3441 0271 02       		.uleb128 0x2
 3442 0272 17       		.uleb128 0x17
 3443 0273 00       		.byte	0
 3444 0274 00       		.byte	0
 3445 0275 31       		.uleb128 0x31
 3446 0276 34       		.uleb128 0x34
 3447 0277 00       		.byte	0
 3448 0278 03       		.uleb128 0x3
 3449 0279 0E       		.uleb128 0xe
 3450 027a 49       		.uleb128 0x49
 3451 027b 13       		.uleb128 0x13
 3452 027c 34       		.uleb128 0x34
 3453 027d 19       		.uleb128 0x19
 3454 027e 00       		.byte	0
 3455 027f 00       		.byte	0
 3456 0280 32       		.uleb128 0x32
 3457 0281 898201   		.uleb128 0x4109
 3458 0284 01       		.byte	0x1
 3459 0285 11       		.uleb128 0x11
 3460 0286 01       		.uleb128 0x1
 3461 0287 31       		.uleb128 0x31
 3462 0288 13       		.uleb128 0x13
 3463 0289 01       		.uleb128 0x1
 3464 028a 13       		.uleb128 0x13
 3465 028b 00       		.byte	0
 3466 028c 00       		.byte	0
 3467 028d 33       		.uleb128 0x33
 3468 028e 05       		.uleb128 0x5
 3469 028f 00       		.byte	0
 3470 0290 03       		.uleb128 0x3
 3471 0291 0E       		.uleb128 0xe
 3472 0292 3A       		.uleb128 0x3a
 3473 0293 0B       		.uleb128 0xb
ARM GAS  /tmp/cc6cIjGY.s 			page 62


 3474 0294 3B       		.uleb128 0x3b
 3475 0295 05       		.uleb128 0x5
 3476 0296 49       		.uleb128 0x49
 3477 0297 13       		.uleb128 0x13
 3478 0298 02       		.uleb128 0x2
 3479 0299 18       		.uleb128 0x18
 3480 029a 00       		.byte	0
 3481 029b 00       		.byte	0
 3482 029c 34       		.uleb128 0x34
 3483 029d 2E       		.uleb128 0x2e
 3484 029e 01       		.byte	0x1
 3485 029f 3F       		.uleb128 0x3f
 3486 02a0 19       		.uleb128 0x19
 3487 02a1 03       		.uleb128 0x3
 3488 02a2 0E       		.uleb128 0xe
 3489 02a3 3A       		.uleb128 0x3a
 3490 02a4 0B       		.uleb128 0xb
 3491 02a5 3B       		.uleb128 0x3b
 3492 02a6 05       		.uleb128 0x5
 3493 02a7 27       		.uleb128 0x27
 3494 02a8 19       		.uleb128 0x19
 3495 02a9 49       		.uleb128 0x49
 3496 02aa 13       		.uleb128 0x13
 3497 02ab 11       		.uleb128 0x11
 3498 02ac 01       		.uleb128 0x1
 3499 02ad 12       		.uleb128 0x12
 3500 02ae 06       		.uleb128 0x6
 3501 02af 40       		.uleb128 0x40
 3502 02b0 18       		.uleb128 0x18
 3503 02b1 9742     		.uleb128 0x2117
 3504 02b3 19       		.uleb128 0x19
 3505 02b4 01       		.uleb128 0x1
 3506 02b5 13       		.uleb128 0x13
 3507 02b6 00       		.byte	0
 3508 02b7 00       		.byte	0
 3509 02b8 35       		.uleb128 0x35
 3510 02b9 898201   		.uleb128 0x4109
 3511 02bc 01       		.byte	0x1
 3512 02bd 11       		.uleb128 0x11
 3513 02be 01       		.uleb128 0x1
 3514 02bf 9542     		.uleb128 0x2115
 3515 02c1 19       		.uleb128 0x19
 3516 02c2 31       		.uleb128 0x31
 3517 02c3 13       		.uleb128 0x13
 3518 02c4 01       		.uleb128 0x1
 3519 02c5 13       		.uleb128 0x13
 3520 02c6 00       		.byte	0
 3521 02c7 00       		.byte	0
 3522 02c8 36       		.uleb128 0x36
 3523 02c9 34       		.uleb128 0x34
 3524 02ca 00       		.byte	0
 3525 02cb 03       		.uleb128 0x3
 3526 02cc 0E       		.uleb128 0xe
 3527 02cd 3A       		.uleb128 0x3a
 3528 02ce 0B       		.uleb128 0xb
 3529 02cf 3B       		.uleb128 0x3b
 3530 02d0 05       		.uleb128 0x5
ARM GAS  /tmp/cc6cIjGY.s 			page 63


 3531 02d1 49       		.uleb128 0x49
 3532 02d2 13       		.uleb128 0x13
 3533 02d3 02       		.uleb128 0x2
 3534 02d4 17       		.uleb128 0x17
 3535 02d5 00       		.byte	0
 3536 02d6 00       		.byte	0
 3537 02d7 37       		.uleb128 0x37
 3538 02d8 898201   		.uleb128 0x4109
 3539 02db 01       		.byte	0x1
 3540 02dc 11       		.uleb128 0x11
 3541 02dd 01       		.uleb128 0x1
 3542 02de 01       		.uleb128 0x1
 3543 02df 13       		.uleb128 0x13
 3544 02e0 00       		.byte	0
 3545 02e1 00       		.byte	0
 3546 02e2 38       		.uleb128 0x38
 3547 02e3 898201   		.uleb128 0x4109
 3548 02e6 01       		.byte	0x1
 3549 02e7 11       		.uleb128 0x11
 3550 02e8 01       		.uleb128 0x1
 3551 02e9 00       		.byte	0
 3552 02ea 00       		.byte	0
 3553 02eb 39       		.uleb128 0x39
 3554 02ec 898201   		.uleb128 0x4109
 3555 02ef 00       		.byte	0
 3556 02f0 11       		.uleb128 0x11
 3557 02f1 01       		.uleb128 0x1
 3558 02f2 9542     		.uleb128 0x2115
 3559 02f4 19       		.uleb128 0x19
 3560 02f5 31       		.uleb128 0x31
 3561 02f6 13       		.uleb128 0x13
 3562 02f7 00       		.byte	0
 3563 02f8 00       		.byte	0
 3564 02f9 3A       		.uleb128 0x3a
 3565 02fa 34       		.uleb128 0x34
 3566 02fb 00       		.byte	0
 3567 02fc 03       		.uleb128 0x3
 3568 02fd 0E       		.uleb128 0xe
 3569 02fe 3A       		.uleb128 0x3a
 3570 02ff 0B       		.uleb128 0xb
 3571 0300 3B       		.uleb128 0x3b
 3572 0301 05       		.uleb128 0x5
 3573 0302 49       		.uleb128 0x49
 3574 0303 13       		.uleb128 0x13
 3575 0304 3F       		.uleb128 0x3f
 3576 0305 19       		.uleb128 0x19
 3577 0306 3C       		.uleb128 0x3c
 3578 0307 19       		.uleb128 0x19
 3579 0308 00       		.byte	0
 3580 0309 00       		.byte	0
 3581 030a 3B       		.uleb128 0x3b
 3582 030b 34       		.uleb128 0x34
 3583 030c 00       		.byte	0
 3584 030d 03       		.uleb128 0x3
 3585 030e 08       		.uleb128 0x8
 3586 030f 3A       		.uleb128 0x3a
 3587 0310 0B       		.uleb128 0xb
ARM GAS  /tmp/cc6cIjGY.s 			page 64


 3588 0311 3B       		.uleb128 0x3b
 3589 0312 05       		.uleb128 0x5
 3590 0313 49       		.uleb128 0x49
 3591 0314 13       		.uleb128 0x13
 3592 0315 3F       		.uleb128 0x3f
 3593 0316 19       		.uleb128 0x19
 3594 0317 3C       		.uleb128 0x3c
 3595 0318 19       		.uleb128 0x19
 3596 0319 00       		.byte	0
 3597 031a 00       		.byte	0
 3598 031b 3C       		.uleb128 0x3c
 3599 031c 34       		.uleb128 0x34
 3600 031d 00       		.byte	0
 3601 031e 03       		.uleb128 0x3
 3602 031f 0E       		.uleb128 0xe
 3603 0320 3A       		.uleb128 0x3a
 3604 0321 0B       		.uleb128 0xb
 3605 0322 3B       		.uleb128 0x3b
 3606 0323 0B       		.uleb128 0xb
 3607 0324 49       		.uleb128 0x49
 3608 0325 13       		.uleb128 0x13
 3609 0326 3F       		.uleb128 0x3f
 3610 0327 19       		.uleb128 0x19
 3611 0328 02       		.uleb128 0x2
 3612 0329 18       		.uleb128 0x18
 3613 032a 00       		.byte	0
 3614 032b 00       		.byte	0
 3615 032c 3D       		.uleb128 0x3d
 3616 032d 2E       		.uleb128 0x2e
 3617 032e 00       		.byte	0
 3618 032f 3F       		.uleb128 0x3f
 3619 0330 19       		.uleb128 0x19
 3620 0331 03       		.uleb128 0x3
 3621 0332 0E       		.uleb128 0xe
 3622 0333 3A       		.uleb128 0x3a
 3623 0334 0B       		.uleb128 0xb
 3624 0335 3B       		.uleb128 0x3b
 3625 0336 0B       		.uleb128 0xb
 3626 0337 27       		.uleb128 0x27
 3627 0338 19       		.uleb128 0x19
 3628 0339 3C       		.uleb128 0x3c
 3629 033a 19       		.uleb128 0x19
 3630 033b 00       		.byte	0
 3631 033c 00       		.byte	0
 3632 033d 3E       		.uleb128 0x3e
 3633 033e 2E       		.uleb128 0x2e
 3634 033f 01       		.byte	0x1
 3635 0340 3F       		.uleb128 0x3f
 3636 0341 19       		.uleb128 0x19
 3637 0342 03       		.uleb128 0x3
 3638 0343 0E       		.uleb128 0xe
 3639 0344 3A       		.uleb128 0x3a
 3640 0345 0B       		.uleb128 0xb
 3641 0346 3B       		.uleb128 0x3b
 3642 0347 0B       		.uleb128 0xb
 3643 0348 27       		.uleb128 0x27
 3644 0349 19       		.uleb128 0x19
ARM GAS  /tmp/cc6cIjGY.s 			page 65


 3645 034a 3C       		.uleb128 0x3c
 3646 034b 19       		.uleb128 0x19
 3647 034c 01       		.uleb128 0x1
 3648 034d 13       		.uleb128 0x13
 3649 034e 00       		.byte	0
 3650 034f 00       		.byte	0
 3651 0350 3F       		.uleb128 0x3f
 3652 0351 2E       		.uleb128 0x2e
 3653 0352 00       		.byte	0
 3654 0353 3F       		.uleb128 0x3f
 3655 0354 19       		.uleb128 0x19
 3656 0355 03       		.uleb128 0x3
 3657 0356 0E       		.uleb128 0xe
 3658 0357 3A       		.uleb128 0x3a
 3659 0358 0B       		.uleb128 0xb
 3660 0359 3B       		.uleb128 0x3b
 3661 035a 05       		.uleb128 0x5
 3662 035b 27       		.uleb128 0x27
 3663 035c 19       		.uleb128 0x19
 3664 035d 3C       		.uleb128 0x3c
 3665 035e 19       		.uleb128 0x19
 3666 035f 00       		.byte	0
 3667 0360 00       		.byte	0
 3668 0361 00       		.byte	0
 3669              		.section	.debug_loc,"",%progbits
 3670              	.Ldebug_loc0:
 3671              	.LLST0:
 3672 0000 00000000 		.4byte	.LVL0
 3673 0004 07000000 		.4byte	.LVL1-1
 3674 0008 0100     		.2byte	0x1
 3675 000a 50       		.byte	0x50
 3676 000b 07000000 		.4byte	.LVL1-1
 3677 000f 40000000 		.4byte	.LFE277
 3678 0013 0100     		.2byte	0x1
 3679 0015 55       		.byte	0x55
 3680 0016 00000000 		.4byte	0
 3681 001a 00000000 		.4byte	0
 3682              	.LLST1:
 3683 001e 18000000 		.4byte	.LVL2
 3684 0022 1E000000 		.4byte	.LVL3
 3685 0026 0100     		.2byte	0x1
 3686 0028 54       		.byte	0x54
 3687 0029 20000000 		.4byte	.LVL4
 3688 002d 40000000 		.4byte	.LFE277
 3689 0031 0100     		.2byte	0x1
 3690 0033 54       		.byte	0x54
 3691 0034 00000000 		.4byte	0
 3692 0038 00000000 		.4byte	0
 3693              	.LLST2:
 3694 003c 00000000 		.4byte	.LVL8
 3695 0040 28000000 		.4byte	.LVL9
 3696 0044 0100     		.2byte	0x1
 3697 0046 50       		.byte	0x50
 3698 0047 28000000 		.4byte	.LVL9
 3699 004b 3C000000 		.4byte	.LVL12
 3700 004f 0100     		.2byte	0x1
 3701 0051 54       		.byte	0x54
ARM GAS  /tmp/cc6cIjGY.s 			page 66


 3702 0052 3C000000 		.4byte	.LVL12
 3703 0056 48000000 		.4byte	.LVL13
 3704 005a 0100     		.2byte	0x1
 3705 005c 50       		.byte	0x50
 3706 005d 48000000 		.4byte	.LVL13
 3707 0061 AC000000 		.4byte	.LVL22
 3708 0065 0100     		.2byte	0x1
 3709 0067 54       		.byte	0x54
 3710 0068 AC000000 		.4byte	.LVL22
 3711 006c B8000000 		.4byte	.LFE281
 3712 0070 0400     		.2byte	0x4
 3713 0072 F3       		.byte	0xf3
 3714 0073 01       		.uleb128 0x1
 3715 0074 50       		.byte	0x50
 3716 0075 9F       		.byte	0x9f
 3717 0076 00000000 		.4byte	0
 3718 007a 00000000 		.4byte	0
 3719              	.LLST3:
 3720 007e 64000000 		.4byte	.LVL14
 3721 0082 6A000000 		.4byte	.LVL15
 3722 0086 0100     		.2byte	0x1
 3723 0088 52       		.byte	0x52
 3724 0089 6A000000 		.4byte	.LVL15
 3725 008d 6C000000 		.4byte	.LVL16
 3726 0091 0200     		.2byte	0x2
 3727 0093 73       		.byte	0x73
 3728 0094 28       		.sleb128 40
 3729 0095 6C000000 		.4byte	.LVL16
 3730 0099 6E000000 		.4byte	.LVL17
 3731 009d 0F00     		.2byte	0xf
 3732 009f 74       		.byte	0x74
 3733 00a0 08       		.sleb128 8
 3734 00a1 06       		.byte	0x6
 3735 00a2 F7       		.byte	0xf7
 3736 00a3 25       		.uleb128 0x25
 3737 00a4 70       		.byte	0x70
 3738 00a5 00       		.sleb128 0
 3739 00a6 F7       		.byte	0xf7
 3740 00a7 25       		.uleb128 0x25
 3741 00a8 1B       		.byte	0x1b
 3742 00a9 F7       		.byte	0xf7
 3743 00aa 00       		.uleb128 0
 3744 00ab 31       		.byte	0x31
 3745 00ac 1C       		.byte	0x1c
 3746 00ad 9F       		.byte	0x9f
 3747 00ae 6E000000 		.4byte	.LVL17
 3748 00b2 76000000 		.4byte	.LVL18
 3749 00b6 1000     		.2byte	0x10
 3750 00b8 74       		.byte	0x74
 3751 00b9 08       		.sleb128 8
 3752 00ba 06       		.byte	0x6
 3753 00bb F7       		.byte	0xf7
 3754 00bc 25       		.uleb128 0x25
 3755 00bd 71       		.byte	0x71
 3756 00be 04       		.sleb128 4
 3757 00bf 06       		.byte	0x6
 3758 00c0 F7       		.byte	0xf7
ARM GAS  /tmp/cc6cIjGY.s 			page 67


 3759 00c1 25       		.uleb128 0x25
 3760 00c2 1B       		.byte	0x1b
 3761 00c3 F7       		.byte	0xf7
 3762 00c4 00       		.uleb128 0
 3763 00c5 31       		.byte	0x31
 3764 00c6 1C       		.byte	0x1c
 3765 00c7 9F       		.byte	0x9f
 3766 00c8 76000000 		.4byte	.LVL18
 3767 00cc 8C000000 		.4byte	.LVL19
 3768 00d0 1300     		.2byte	0x13
 3769 00d2 74       		.byte	0x74
 3770 00d3 08       		.sleb128 8
 3771 00d4 06       		.byte	0x6
 3772 00d5 F7       		.byte	0xf7
 3773 00d6 25       		.uleb128 0x25
 3774 00d7 74       		.byte	0x74
 3775 00d8 04       		.sleb128 4
 3776 00d9 06       		.byte	0x6
 3777 00da 23       		.byte	0x23
 3778 00db 04       		.uleb128 0x4
 3779 00dc 06       		.byte	0x6
 3780 00dd F7       		.byte	0xf7
 3781 00de 25       		.uleb128 0x25
 3782 00df 1B       		.byte	0x1b
 3783 00e0 F7       		.byte	0xf7
 3784 00e1 00       		.uleb128 0
 3785 00e2 31       		.byte	0x31
 3786 00e3 1C       		.byte	0x1c
 3787 00e4 9F       		.byte	0x9f
 3788 00e5 92000000 		.4byte	.LVL20
 3789 00e9 A6000000 		.4byte	.LVL21
 3790 00ed 1300     		.2byte	0x13
 3791 00ef 74       		.byte	0x74
 3792 00f0 08       		.sleb128 8
 3793 00f1 06       		.byte	0x6
 3794 00f2 F7       		.byte	0xf7
 3795 00f3 25       		.uleb128 0x25
 3796 00f4 74       		.byte	0x74
 3797 00f5 04       		.sleb128 4
 3798 00f6 06       		.byte	0x6
 3799 00f7 23       		.byte	0x23
 3800 00f8 04       		.uleb128 0x4
 3801 00f9 06       		.byte	0x6
 3802 00fa F7       		.byte	0xf7
 3803 00fb 25       		.uleb128 0x25
 3804 00fc 1B       		.byte	0x1b
 3805 00fd F7       		.byte	0xf7
 3806 00fe 00       		.uleb128 0
 3807 00ff 31       		.byte	0x31
 3808 0100 1C       		.byte	0x1c
 3809 0101 9F       		.byte	0x9f
 3810 0102 00000000 		.4byte	0
 3811 0106 00000000 		.4byte	0
 3812              	.LLST4:
 3813 010a 00000000 		.4byte	.LVL23
 3814 010e 1A000000 		.4byte	.LVL24
 3815 0112 0100     		.2byte	0x1
ARM GAS  /tmp/cc6cIjGY.s 			page 68


 3816 0114 50       		.byte	0x50
 3817 0115 1A000000 		.4byte	.LVL24
 3818 0119 38000000 		.4byte	.LFE282
 3819 011d 0400     		.2byte	0x4
 3820 011f F3       		.byte	0xf3
 3821 0120 01       		.uleb128 0x1
 3822 0121 50       		.byte	0x50
 3823 0122 9F       		.byte	0x9f
 3824 0123 00000000 		.4byte	0
 3825 0127 00000000 		.4byte	0
 3826              	.LLST5:
 3827 012b 00000000 		.4byte	.LVL28
 3828 012f 0A000000 		.4byte	.LVL29
 3829 0133 0100     		.2byte	0x1
 3830 0135 50       		.byte	0x50
 3831 0136 0A000000 		.4byte	.LVL29
 3832 013a 10000000 		.4byte	.LVL30
 3833 013e 0100     		.2byte	0x1
 3834 0140 54       		.byte	0x54
 3835 0141 10000000 		.4byte	.LVL30
 3836 0145 13000000 		.4byte	.LVL31-1
 3837 0149 0100     		.2byte	0x1
 3838 014b 50       		.byte	0x50
 3839 014c 13000000 		.4byte	.LVL31-1
 3840 0150 14000000 		.4byte	.LVL31
 3841 0154 0400     		.2byte	0x4
 3842 0156 F3       		.byte	0xf3
 3843 0157 01       		.uleb128 0x1
 3844 0158 50       		.byte	0x50
 3845 0159 9F       		.byte	0x9f
 3846 015a 14000000 		.4byte	.LVL31
 3847 015e 17000000 		.4byte	.LVL32-1
 3848 0162 0100     		.2byte	0x1
 3849 0164 50       		.byte	0x50
 3850 0165 17000000 		.4byte	.LVL32-1
 3851 0169 1E000000 		.4byte	.LFE284
 3852 016d 0100     		.2byte	0x1
 3853 016f 54       		.byte	0x54
 3854 0170 00000000 		.4byte	0
 3855 0174 00000000 		.4byte	0
 3856              	.LLST6:
 3857 0178 00000000 		.4byte	.LVL34
 3858 017c 14000000 		.4byte	.LVL36
 3859 0180 0100     		.2byte	0x1
 3860 0182 50       		.byte	0x50
 3861 0183 14000000 		.4byte	.LVL36
 3862 0187 36000000 		.4byte	.LFE286
 3863 018b 0400     		.2byte	0x4
 3864 018d F3       		.byte	0xf3
 3865 018e 01       		.uleb128 0x1
 3866 018f 50       		.byte	0x50
 3867 0190 9F       		.byte	0x9f
 3868 0191 00000000 		.4byte	0
 3869 0195 00000000 		.4byte	0
 3870              	.LLST7:
 3871 0199 04000000 		.4byte	.LVL35
 3872 019d 16000000 		.4byte	.LVL37
ARM GAS  /tmp/cc6cIjGY.s 			page 69


 3873 01a1 0100     		.2byte	0x1
 3874 01a3 53       		.byte	0x53
 3875 01a4 16000000 		.4byte	.LVL37
 3876 01a8 1C000000 		.4byte	.LVL38
 3877 01ac 0500     		.2byte	0x5
 3878 01ae 73       		.byte	0x73
 3879 01af 00       		.sleb128 0
 3880 01b0 32       		.byte	0x32
 3881 01b1 21       		.byte	0x21
 3882 01b2 9F       		.byte	0x9f
 3883 01b3 1C000000 		.4byte	.LVL38
 3884 01b7 1E000000 		.4byte	.LVL39
 3885 01bb 0100     		.2byte	0x1
 3886 01bd 53       		.byte	0x53
 3887 01be 1E000000 		.4byte	.LVL39
 3888 01c2 24000000 		.4byte	.LVL40
 3889 01c6 0500     		.2byte	0x5
 3890 01c8 73       		.byte	0x73
 3891 01c9 00       		.sleb128 0
 3892 01ca 34       		.byte	0x34
 3893 01cb 21       		.byte	0x21
 3894 01cc 9F       		.byte	0x9f
 3895 01cd 24000000 		.4byte	.LVL40
 3896 01d1 26000000 		.4byte	.LVL41
 3897 01d5 0100     		.2byte	0x1
 3898 01d7 53       		.byte	0x53
 3899 01d8 2A000000 		.4byte	.LVL42
 3900 01dc 36000000 		.4byte	.LFE286
 3901 01e0 0100     		.2byte	0x1
 3902 01e2 53       		.byte	0x53
 3903 01e3 00000000 		.4byte	0
 3904 01e7 00000000 		.4byte	0
 3905              	.LLST8:
 3906 01eb 00000000 		.4byte	.LVL45
 3907 01ef 2D000000 		.4byte	.LVL48-1
 3908 01f3 0100     		.2byte	0x1
 3909 01f5 50       		.byte	0x50
 3910 01f6 2D000000 		.4byte	.LVL48-1
 3911 01fa 46000000 		.4byte	.LVL50
 3912 01fe 0100     		.2byte	0x1
 3913 0200 54       		.byte	0x54
 3914 0201 46000000 		.4byte	.LVL50
 3915 0205 53000000 		.4byte	.LVL51-1
 3916 0209 0100     		.2byte	0x1
 3917 020b 50       		.byte	0x50
 3918 020c 53000000 		.4byte	.LVL51-1
 3919 0210 6A000000 		.4byte	.LFE288
 3920 0214 0100     		.2byte	0x1
 3921 0216 54       		.byte	0x54
 3922 0217 00000000 		.4byte	0
 3923 021b 00000000 		.4byte	0
 3924              	.LLST9:
 3925 021f 06000000 		.4byte	.LVL46
 3926 0223 0A000000 		.4byte	.LVL47
 3927 0227 0100     		.2byte	0x1
 3928 0229 52       		.byte	0x52
 3929 022a 0A000000 		.4byte	.LVL47
ARM GAS  /tmp/cc6cIjGY.s 			page 70


 3930 022e 6A000000 		.4byte	.LFE288
 3931 0232 0600     		.2byte	0x6
 3932 0234 75       		.byte	0x75
 3933 0235 00       		.sleb128 0
 3934 0236 08       		.byte	0x8
 3935 0237 FF       		.byte	0xff
 3936 0238 1A       		.byte	0x1a
 3937 0239 9F       		.byte	0x9f
 3938 023a 00000000 		.4byte	0
 3939 023e 00000000 		.4byte	0
 3940              		.section	.debug_aranges,"",%progbits
 3941 0000 74000000 		.4byte	0x74
 3942 0004 0200     		.2byte	0x2
 3943 0006 00000000 		.4byte	.Ldebug_info0
 3944 000a 04       		.byte	0x4
 3945 000b 00       		.byte	0
 3946 000c 0000     		.2byte	0
 3947 000e 0000     		.2byte	0
 3948 0010 00000000 		.4byte	.LFB277
 3949 0014 40000000 		.4byte	.LFE277-.LFB277
 3950 0018 00000000 		.4byte	.LFB280
 3951 001c 18000000 		.4byte	.LFE280-.LFB280
 3952 0020 00000000 		.4byte	.LFB281
 3953 0024 B8000000 		.4byte	.LFE281-.LFB281
 3954 0028 00000000 		.4byte	.LFB282
 3955 002c 38000000 		.4byte	.LFE282-.LFB282
 3956 0030 00000000 		.4byte	.LFB283
 3957 0034 14000000 		.4byte	.LFE283-.LFB283
 3958 0038 00000000 		.4byte	.LFB284
 3959 003c 1E000000 		.4byte	.LFE284-.LFB284
 3960 0040 00000000 		.4byte	.LFB285
 3961 0044 10000000 		.4byte	.LFE285-.LFB285
 3962 0048 00000000 		.4byte	.LFB286
 3963 004c 36000000 		.4byte	.LFE286-.LFB286
 3964 0050 00000000 		.4byte	.LFB287
 3965 0054 0C000000 		.4byte	.LFE287-.LFB287
 3966 0058 00000000 		.4byte	.LFB288
 3967 005c 6A000000 		.4byte	.LFE288-.LFB288
 3968 0060 00000000 		.4byte	.LFB278
 3969 0064 18000000 		.4byte	.LFE278-.LFB278
 3970 0068 00000000 		.4byte	.LFB279
 3971 006c 18000000 		.4byte	.LFE279-.LFB279
 3972 0070 00000000 		.4byte	0
 3973 0074 00000000 		.4byte	0
 3974              		.section	.debug_ranges,"",%progbits
 3975              	.Ldebug_ranges0:
 3976 0000 00000000 		.4byte	.LFB277
 3977 0004 40000000 		.4byte	.LFE277
 3978 0008 00000000 		.4byte	.LFB280
 3979 000c 18000000 		.4byte	.LFE280
 3980 0010 00000000 		.4byte	.LFB281
 3981 0014 B8000000 		.4byte	.LFE281
 3982 0018 00000000 		.4byte	.LFB282
 3983 001c 38000000 		.4byte	.LFE282
 3984 0020 00000000 		.4byte	.LFB283
 3985 0024 14000000 		.4byte	.LFE283
 3986 0028 00000000 		.4byte	.LFB284
ARM GAS  /tmp/cc6cIjGY.s 			page 71


 3987 002c 1E000000 		.4byte	.LFE284
 3988 0030 00000000 		.4byte	.LFB285
 3989 0034 10000000 		.4byte	.LFE285
 3990 0038 00000000 		.4byte	.LFB286
 3991 003c 36000000 		.4byte	.LFE286
 3992 0040 00000000 		.4byte	.LFB287
 3993 0044 0C000000 		.4byte	.LFE287
 3994 0048 00000000 		.4byte	.LFB288
 3995 004c 6A000000 		.4byte	.LFE288
 3996 0050 00000000 		.4byte	.LFB278
 3997 0054 18000000 		.4byte	.LFE278
 3998 0058 00000000 		.4byte	.LFB279
 3999 005c 18000000 		.4byte	.LFE279
 4000 0060 00000000 		.4byte	0
 4001 0064 00000000 		.4byte	0
 4002              		.section	.debug_line,"",%progbits
 4003              	.Ldebug_line0:
 4004 0000 D2040000 		.section	.debug_str,"MS",%progbits,1
 4004      02003D03 
 4004      00000201 
 4004      FB0E0D00 
 4004      01010101 
 4005              	.LASF147:
 4006 0000 4943555F 		.ascii	"ICU_ACTIVE\000"
 4006      41435449 
 4006      564500
 4007              	.LASF2:
 4008 000b 73697A65 		.ascii	"size_t\000"
 4008      5F7400
 4009              	.LASF74:
 4010 0012 73697A65 		.ascii	"sizetype\000"
 4010      74797065 
 4010      00
 4011              	.LASF164:
 4012 001b 77696474 		.ascii	"width_cb\000"
 4012      685F6362 
 4012      00
 4013              	.LASF134:
 4014 0024 77747365 		.ascii	"wtsemp\000"
 4014      6D7000
 4015              	.LASF28:
 4016 002b 73797374 		.ascii	"systime_t\000"
 4016      696D655F 
 4016      7400
 4017              	.LASF101:
 4018 0035 504C4C49 		.ascii	"PLLI2SCFGR\000"
 4018      32534346 
 4018      475200
 4019              	.LASF139:
 4020 0040 6F776E65 		.ascii	"owner\000"
 4020      7200
 4021              	.LASF23:
 4022 0046 74707269 		.ascii	"tprio_t\000"
 4022      6F5F7400 
 4023              	.LASF15:
 4024 004e 696E7433 		.ascii	"int32_t\000"
 4024      325F7400 
ARM GAS  /tmp/cc6cIjGY.s 			page 72


 4025              	.LASF156:
 4026 0056 4943555F 		.ascii	"ICU_INPUT_ACTIVE_LOW\000"
 4026      494E5055 
 4026      545F4143 
 4026      54495645 
 4026      5F4C4F57 
 4027              	.LASF57:
 4028 006b 76746675 		.ascii	"vtfunc_t\000"
 4028      6E635F74 
 4028      00
 4029              	.LASF63:
 4030 0074 63685F76 		.ascii	"ch_virtual_timers_list\000"
 4030      69727475 
 4030      616C5F74 
 4030      696D6572 
 4030      735F6C69 
 4031              	.LASF202:
 4032 008b 5F5F6675 		.ascii	"__func__\000"
 4032      6E635F5F 
 4032      00
 4033              	.LASF79:
 4034 0094 41484233 		.ascii	"AHB3RSTR\000"
 4034      52535452 
 4034      00
 4035              	.LASF150:
 4036 009d 636F6E66 		.ascii	"config\000"
 4036      696700
 4037              	.LASF36:
 4038 00a4 73746174 		.ascii	"state\000"
 4038      6500
 4039              	.LASF149:
 4040 00aa 49435544 		.ascii	"ICUDriver\000"
 4040      72697665 
 4040      7200
 4041              	.LASF45:
 4042 00b4 73746174 		.ascii	"stats\000"
 4042      7300
 4043              	.LASF155:
 4044 00ba 4943555F 		.ascii	"ICU_INPUT_ACTIVE_HIGH\000"
 4044      494E5055 
 4044      545F4143 
 4044      54495645 
 4044      5F484947 
 4045              	.LASF159:
 4046 00d0 4943555F 		.ascii	"ICU_CHANNEL_1\000"
 4046      4348414E 
 4046      4E454C5F 
 4046      3100
 4047              	.LASF113:
 4048 00de 444D4152 		.ascii	"DMAR\000"
 4048      00
 4049              	.LASF168:
 4050 00e3 64696572 		.ascii	"dier\000"
 4050      00
 4051              	.LASF31:
 4052 00e8 7072696F 		.ascii	"prio\000"
 4052      00
ARM GAS  /tmp/cc6cIjGY.s 			page 73


 4053              	.LASF172:
 4054 00ed 6F73616C 		.ascii	"osalSysUnlock\000"
 4054      53797355 
 4054      6E6C6F63 
 4054      6B00
 4055              	.LASF181:
 4056 00fb 6963755F 		.ascii	"icu_lld_stop\000"
 4056      6C6C645F 
 4056      73746F70 
 4056      00
 4057              	.LASF130:
 4058 0108 65786974 		.ascii	"exitcode\000"
 4058      636F6465 
 4058      00
 4059              	.LASF3:
 4060 0111 5F5F7569 		.ascii	"__uint8_t\000"
 4060      6E74385F 
 4060      7400
 4061              	.LASF92:
 4062 011b 41484232 		.ascii	"AHB2LPENR\000"
 4062      4C50454E 
 4062      5200
 4063              	.LASF177:
 4064 0125 72657375 		.ascii	"result\000"
 4064      6C7400
 4065              	.LASF204:
 4066 012c 6963755F 		.ascii	"icu_lld_wait_capture\000"
 4066      6C6C645F 
 4066      77616974 
 4066      5F636170 
 4066      74757265 
 4067              	.LASF8:
 4068 0141 6C6F6E67 		.ascii	"long int\000"
 4068      20696E74 
 4068      00
 4069              	.LASF196:
 4070 014a 5F737461 		.ascii	"_stats_increase_irq\000"
 4070      74735F69 
 4070      6E637265 
 4070      6173655F 
 4070      69727100 
 4071              	.LASF170:
 4072 015e 706F7274 		.ascii	"port_unlock\000"
 4072      5F756E6C 
 4072      6F636B00 
 4073              	.LASF154:
 4074 016a 69637563 		.ascii	"icucallback_t\000"
 4074      616C6C62 
 4074      61636B5F 
 4074      7400
 4075              	.LASF21:
 4076 0178 74737461 		.ascii	"tstate_t\000"
 4076      74655F74 
 4076      00
 4077              	.LASF19:
 4078 0181 72747469 		.ascii	"rttime_t\000"
 4078      6D655F74 
ARM GAS  /tmp/cc6cIjGY.s 			page 74


 4078      00
 4079              	.LASF144:
 4080 018a 4943555F 		.ascii	"ICU_STOP\000"
 4080      53544F50 
 4080      00
 4081              	.LASF51:
 4082 0193 74687265 		.ascii	"threads_queue_t\000"
 4082      6164735F 
 4082      71756575 
 4082      655F7400 
 4083              	.LASF103:
 4084 01a3 72656761 		.ascii	"regarm_t\000"
 4084      726D5F74 
 4084      00
 4085              	.LASF161:
 4086 01ac 69637563 		.ascii	"icuchannel_t\000"
 4086      68616E6E 
 4086      656C5F74 
 4086      00
 4087              	.LASF89:
 4088 01b9 41504232 		.ascii	"APB2ENR\000"
 4088      454E5200 
 4089              	.LASF91:
 4090 01c1 41484231 		.ascii	"AHB1LPENR\000"
 4090      4C50454E 
 4090      5200
 4091              	.LASF191:
 4092 01cb 5F737461 		.ascii	"_stats_stop_measure_crit_thd\000"
 4092      74735F73 
 4092      746F705F 
 4092      6D656173 
 4092      7572655F 
 4093              	.LASF173:
 4094 01e8 6F73616C 		.ascii	"osalSysLock\000"
 4094      5379734C 
 4094      6F636B00 
 4095              	.LASF122:
 4096 01f4 63756D75 		.ascii	"cumulative\000"
 4096      6C617469 
 4096      766500
 4097              	.LASF1:
 4098 01ff 7369676E 		.ascii	"signed char\000"
 4098      65642063 
 4098      68617200 
 4099              	.LASF136:
 4100 020b 65776D61 		.ascii	"ewmask\000"
 4100      736B00
 4101              	.LASF14:
 4102 0212 75696E74 		.ascii	"uint8_t\000"
 4102      385F7400 
 4103              	.LASF152:
 4104 021a 77636372 		.ascii	"wccrp\000"
 4104      7000
 4105              	.LASF25:
 4106 0220 6576656E 		.ascii	"eventmask_t\000"
 4106      746D6173 
 4106      6B5F7400 
ARM GAS  /tmp/cc6cIjGY.s 			page 75


 4107              	.LASF132:
 4108 022c 77747472 		.ascii	"wttrp\000"
 4108      7000
 4109              	.LASF80:
 4110 0232 52455345 		.ascii	"RESERVED0\000"
 4110      52564544 
 4110      3000
 4111              	.LASF83:
 4112 023c 52455345 		.ascii	"RESERVED1\000"
 4112      52564544 
 4112      3100
 4113              	.LASF4:
 4114 0246 756E7369 		.ascii	"unsigned char\000"
 4114      676E6564 
 4114      20636861 
 4114      7200
 4115              	.LASF90:
 4116 0254 52455345 		.ascii	"RESERVED3\000"
 4116      52564544 
 4116      3300
 4117              	.LASF94:
 4118 025e 52455345 		.ascii	"RESERVED4\000"
 4118      52564544 
 4118      3400
 4119              	.LASF97:
 4120 0268 52455345 		.ascii	"RESERVED5\000"
 4120      52564544 
 4120      3500
 4121              	.LASF64:
 4122 0272 6C617374 		.ascii	"lasttime\000"
 4122      74696D65 
 4122      00
 4123              	.LASF67:
 4124 027b 70616E69 		.ascii	"panic_msg\000"
 4124      635F6D73 
 4124      6700
 4125              	.LASF160:
 4126 0285 4943555F 		.ascii	"ICU_CHANNEL_2\000"
 4126      4348414E 
 4126      4E454C5F 
 4126      3200
 4127              	.LASF65:
 4128 0293 73797374 		.ascii	"system_debug_t\000"
 4128      656D5F64 
 4128      65627567 
 4128      5F7400
 4129              	.LASF142:
 4130 02a2 5F426F6F 		.ascii	"_Bool\000"
 4130      6C00
 4131              	.LASF87:
 4132 02a8 52455345 		.ascii	"RESERVED2\000"
 4132      52564544 
 4132      3200
 4133              	.LASF99:
 4134 02b2 52455345 		.ascii	"RESERVED6\000"
 4134      52564544 
 4134      3600
ARM GAS  /tmp/cc6cIjGY.s 			page 76


 4135              	.LASF110:
 4136 02bc 43434D52 		.ascii	"CCMR2\000"
 4136      3200
 4137              	.LASF114:
 4138 02c2 43434D52 		.ascii	"CCMR3\000"
 4138      3300
 4139              	.LASF140:
 4140 02c8 63686172 		.ascii	"char\000"
 4140      00
 4141              	.LASF77:
 4142 02cd 41484231 		.ascii	"AHB1RSTR\000"
 4142      52535452 
 4142      00
 4143              	.LASF85:
 4144 02d6 41484232 		.ascii	"AHB2ENR\000"
 4144      454E5200 
 4145              	.LASF131:
 4146 02de 77746F62 		.ascii	"wtobjp\000"
 4146      6A7000
 4147              	.LASF125:
 4148 02e5 6E5F6374 		.ascii	"n_ctxswc\000"
 4148      78737763 
 4148      00
 4149              	.LASF37:
 4150 02ee 666C6167 		.ascii	"flags\000"
 4150      7300
 4151              	.LASF104:
 4152 02f4 73746B61 		.ascii	"stkalign_t\000"
 4152      6C69676E 
 4152      5F7400
 4153              	.LASF44:
 4154 02ff 6D706F6F 		.ascii	"mpool\000"
 4154      6C00
 4155              	.LASF158:
 4156 0305 69637566 		.ascii	"icufreq_t\000"
 4156      7265715F 
 4156      7400
 4157              	.LASF183:
 4158 030f 6963755F 		.ascii	"icu_lld_stop_capture\000"
 4158      6C6C645F 
 4158      73746F70 
 4158      5F636170 
 4158      74757265 
 4159              	.LASF120:
 4160 0324 776F7273 		.ascii	"worst\000"
 4160      7400
 4161              	.LASF186:
 4162 032a 6963755F 		.ascii	"icu_lld_serve_interrupt\000"
 4162      6C6C645F 
 4162      73657276 
 4162      655F696E 
 4162      74657272 
 4163              	.LASF115:
 4164 0342 43435852 		.ascii	"CCXR\000"
 4164      00
 4165              	.LASF98:
 4166 0347 42444352 		.ascii	"BDCR\000"
ARM GAS  /tmp/cc6cIjGY.s 			page 77


 4166      00
 4167              	.LASF203:
 4168 034c 6963755F 		.ascii	"icu_lld_wait_edge\000"
 4168      6C6C645F 
 4168      77616974 
 4168      5F656467 
 4168      6500
 4169              	.LASF26:
 4170 035e 636E745F 		.ascii	"cnt_t\000"
 4170      7400
 4171              	.LASF169:
 4172 0364 49435543 		.ascii	"ICUConfig\000"
 4172      6F6E6669 
 4172      6700
 4173              	.LASF135:
 4174 036e 77746D74 		.ascii	"wtmtxp\000"
 4174      787000
 4175              	.LASF55:
 4176 0375 63685F72 		.ascii	"ch_ready_list\000"
 4176      65616479 
 4176      5F6C6973 
 4176      7400
 4177              	.LASF76:
 4178 0383 43464752 		.ascii	"CFGR\000"
 4178      00
 4179              	.LASF179:
 4180 0388 6963755F 		.ascii	"icu_lld_start\000"
 4180      6C6C645F 
 4180      73746172 
 4180      7400
 4181              	.LASF126:
 4182 0396 6D5F6372 		.ascii	"m_crit_thd\000"
 4182      69745F74 
 4182      686400
 4183              	.LASF12:
 4184 03a1 5F5F7569 		.ascii	"__uint64_t\000"
 4184      6E743634 
 4184      5F7400
 4185              	.LASF175:
 4186 03ac 63685379 		.ascii	"chSysUnlock\000"
 4186      73556E6C 
 4186      6F636B00 
 4187              	.LASF10:
 4188 03b8 6C6F6E67 		.ascii	"long unsigned int\000"
 4188      20756E73 
 4188      69676E65 
 4188      6420696E 
 4188      7400
 4189              	.LASF176:
 4190 03ca 63685379 		.ascii	"chSysLock\000"
 4190      734C6F63 
 4190      6B00
 4191              	.LASF108:
 4192 03d4 44494552 		.ascii	"DIER\000"
 4192      00
 4193              	.LASF137:
 4194 03d9 63685F73 		.ascii	"ch_semaphore\000"
ARM GAS  /tmp/cc6cIjGY.s 			page 78


 4194      656D6170 
 4194      686F7265 
 4194      00
 4195              	.LASF167:
 4196 03e6 6368616E 		.ascii	"channel\000"
 4196      6E656C00 
 4197              	.LASF48:
 4198 03ee 63685F74 		.ascii	"ch_thread\000"
 4198      68726561 
 4198      6400
 4199              	.LASF62:
 4200 03f8 76697274 		.ascii	"virtual_timers_list_t\000"
 4200      75616C5F 
 4200      74696D65 
 4200      72735F6C 
 4200      6973745F 
 4201              	.LASF166:
 4202 040e 6F766572 		.ascii	"overflow_cb\000"
 4202      666C6F77 
 4202      5F636200 
 4203              	.LASF58:
 4204 041a 76697274 		.ascii	"virtual_timer_t\000"
 4204      75616C5F 
 4204      74696D65 
 4204      725F7400 
 4205              	.LASF54:
 4206 042a 72656164 		.ascii	"ready_list_t\000"
 4206      795F6C69 
 4206      73745F74 
 4206      00
 4207              	.LASF33:
 4208 0437 6F6C6465 		.ascii	"older\000"
 4208      7200
 4209              	.LASF43:
 4210 043d 7265616C 		.ascii	"realprio\000"
 4210      7072696F 
 4210      00
 4211              	.LASF116:
 4212 0446 73746D33 		.ascii	"stm32_tim_t\000"
 4212      325F7469 
 4212      6D5F7400 
 4213              	.LASF27:
 4214 0452 75636E74 		.ascii	"ucnt_t\000"
 4214      5F7400
 4215              	.LASF151:
 4216 0459 636C6F63 		.ascii	"clock\000"
 4216      6B00
 4217              	.LASF49:
 4218 045f 63685F74 		.ascii	"ch_threads_list\000"
 4218      68726561 
 4218      64735F6C 
 4218      69737400 
 4219              	.LASF124:
 4220 046f 6E5F6972 		.ascii	"n_irq\000"
 4220      7100
 4221              	.LASF148:
 4222 0475 69637573 		.ascii	"icustate_t\000"
ARM GAS  /tmp/cc6cIjGY.s 			page 79


 4222      74617465 
 4222      5F7400
 4223              	.LASF75:
 4224 0480 504C4C43 		.ascii	"PLLCFGR\000"
 4224      46475200 
 4225              	.LASF193:
 4226 0488 6963754F 		.ascii	"icuObjectInit\000"
 4226      626A6563 
 4226      74496E69 
 4226      7400
 4227              	.LASF190:
 4228 0496 49435544 		.ascii	"ICUD8\000"
 4228      3800
 4229              	.LASF9:
 4230 049c 5F5F7569 		.ascii	"__uint32_t\000"
 4230      6E743332 
 4230      5F7400
 4231              	.LASF42:
 4232 04a7 6D74786C 		.ascii	"mtxlist\000"
 4232      69737400 
 4233              	.LASF11:
 4234 04af 6C6F6E67 		.ascii	"long long int\000"
 4234      206C6F6E 
 4234      6720696E 
 4234      7400
 4235              	.LASF100:
 4236 04bd 53534347 		.ascii	"SSCGR\000"
 4236      5200
 4237              	.LASF82:
 4238 04c3 41504232 		.ascii	"APB2RSTR\000"
 4238      52535452 
 4238      00
 4239              	.LASF189:
 4240 04cc 49544D5F 		.ascii	"ITM_RxBuffer\000"
 4240      52784275 
 4240      66666572 
 4240      00
 4241              	.LASF163:
 4242 04d9 66726571 		.ascii	"frequency\000"
 4242      75656E63 
 4242      7900
 4243              	.LASF96:
 4244 04e3 41504232 		.ascii	"APB2LPENR\000"
 4244      4C50454E 
 4244      5200
 4245              	.LASF123:
 4246 04ed 74696D65 		.ascii	"time_measurement_t\000"
 4246      5F6D6561 
 4246      73757265 
 4246      6D656E74 
 4246      5F7400
 4247              	.LASF127:
 4248 0500 6D5F6372 		.ascii	"m_crit_isr\000"
 4248      69745F69 
 4248      737200
 4249              	.LASF0:
 4250 050b 756E7369 		.ascii	"unsigned int\000"
ARM GAS  /tmp/cc6cIjGY.s 			page 80


 4250      676E6564 
 4250      20696E74 
 4250      00
 4251              	.LASF18:
 4252 0518 7274636E 		.ascii	"rtcnt_t\000"
 4252      745F7400 
 4253              	.LASF109:
 4254 0520 43434D52 		.ascii	"CCMR1\000"
 4254      3100
 4255              	.LASF128:
 4256 0526 6B65726E 		.ascii	"kernel_stats_t\000"
 4256      656C5F73 
 4256      74617473 
 4256      5F7400
 4257              	.LASF197:
 4258 0535 5F706F72 		.ascii	"_port_irq_epilogue\000"
 4258      745F6972 
 4258      715F6570 
 4258      696C6F67 
 4258      756500
 4259              	.LASF182:
 4260 0548 6963755F 		.ascii	"icu_lld_start_capture\000"
 4260      6C6C645F 
 4260      73746172 
 4260      745F6361 
 4260      70747572 
 4261              	.LASF56:
 4262 055e 63757272 		.ascii	"current\000"
 4262      656E7400 
 4263              	.LASF117:
 4264 0566 6F666673 		.ascii	"offset\000"
 4264      657400
 4265              	.LASF95:
 4266 056d 41504231 		.ascii	"APB1LPENR\000"
 4266      4C50454E 
 4266      5200
 4267              	.LASF145:
 4268 0577 4943555F 		.ascii	"ICU_READY\000"
 4268      52454144 
 4268      5900
 4269              	.LASF165:
 4270 0581 70657269 		.ascii	"period_cb\000"
 4270      6F645F63 
 4270      6200
 4271              	.LASF157:
 4272 058b 6963756D 		.ascii	"icumode_t\000"
 4272      6F64655F 
 4272      7400
 4273              	.LASF200:
 4274 0595 2F686F6D 		.ascii	"/home/kozinalexey/f4by/ardupilot/build/f4by-ch\000"
 4274      652F6B6F 
 4274      7A696E61 
 4274      6C657865 
 4274      792F6634 
 4275              	.LASF29:
 4276 05c4 74687265 		.ascii	"thread_t\000"
 4276      61645F74 
ARM GAS  /tmp/cc6cIjGY.s 			page 81


 4276      00
 4277              	.LASF195:
 4278 05cd 6E766963 		.ascii	"nvicDisableVector\000"
 4278      44697361 
 4278      626C6556 
 4278      6563746F 
 4278      7200
 4279              	.LASF46:
 4280 05df 74687265 		.ascii	"thread_reference_t\000"
 4280      61645F72 
 4280      65666572 
 4280      656E6365 
 4280      5F7400
 4281              	.LASF133:
 4282 05f2 73656E74 		.ascii	"sentmsg\000"
 4282      6D736700 
 4283              	.LASF106:
 4284 05fa 706F7274 		.ascii	"port_intctx\000"
 4284      5F696E74 
 4284      63747800 
 4285              	.LASF178:
 4286 0606 6963755F 		.ascii	"icu_lld_init\000"
 4286      6C6C645F 
 4286      696E6974 
 4286      00
 4287              	.LASF81:
 4288 0613 41504231 		.ascii	"APB1RSTR\000"
 4288      52535452 
 4288      00
 4289              	.LASF59:
 4290 061c 63685F76 		.ascii	"ch_virtual_timer\000"
 4290      69727475 
 4290      616C5F74 
 4290      696D6572 
 4290      00
 4291              	.LASF88:
 4292 062d 41504231 		.ascii	"APB1ENR\000"
 4292      454E5200 
 4293              	.LASF143:
 4294 0635 4943555F 		.ascii	"ICU_UNINIT\000"
 4294      554E494E 
 4294      495400
 4295              	.LASF73:
 4296 0640 6B65726E 		.ascii	"kernel_stats\000"
 4296      656C5F73 
 4296      74617473 
 4296      00
 4297              	.LASF13:
 4298 064d 6C6F6E67 		.ascii	"long long unsigned int\000"
 4298      206C6F6E 
 4298      6720756E 
 4298      7369676E 
 4298      65642069 
 4299              	.LASF198:
 4300 0664 474E5520 		.ascii	"GNU C 4.9.3 20150529 (prerelease) -mcpu=cortex-m4 -"
 4300      4320342E 
 4300      392E3320 
ARM GAS  /tmp/cc6cIjGY.s 			page 82


 4300      32303135 
 4300      30353239 
 4301 0697 6D666C6F 		.ascii	"mfloat-abi=hard -mfpu=fpv4-sp-d16 -mno-thumb-interw"
 4301      61742D61 
 4301      62693D68 
 4301      61726420 
 4301      2D6D6670 
 4302 06ca 6F726B20 		.ascii	"ork -mthumb -g -Os -fomit-frame-pointer -falign-fun"
 4302      2D6D7468 
 4302      756D6220 
 4302      2D67202D 
 4302      4F73202D 
 4303 06fd 6374696F 		.ascii	"ctions=16 -ffunction-sections -fdata-sections -fno-"
 4303      6E733D31 
 4303      36202D66 
 4303      66756E63 
 4303      74696F6E 
 4304 0730 636F6D6D 		.ascii	"common -fsingle-precision-constant\000"
 4304      6F6E202D 
 4304      6673696E 
 4304      676C652D 
 4304      70726563 
 4305              	.LASF24:
 4306 0753 6D73675F 		.ascii	"msg_t\000"
 4306      7400
 4307              	.LASF52:
 4308 0759 63685F74 		.ascii	"ch_threads_queue\000"
 4308      68726561 
 4308      64735F71 
 4308      75657565 
 4308      00
 4309              	.LASF111:
 4310 076a 43434552 		.ascii	"CCER\000"
 4310      00
 4311              	.LASF201:
 4312 076f 76616C75 		.ascii	"value\000"
 4312      6500
 4313              	.LASF60:
 4314 0775 64656C74 		.ascii	"delta\000"
 4314      6100
 4315              	.LASF38:
 4316 077b 72656673 		.ascii	"refs\000"
 4316      00
 4317              	.LASF30:
 4318 0780 71756575 		.ascii	"queue\000"
 4318      6500
 4319              	.LASF41:
 4320 0786 6570656E 		.ascii	"epending\000"
 4320      64696E67 
 4320      00
 4321              	.LASF192:
 4322 078f 5F737461 		.ascii	"_stats_start_measure_crit_thd\000"
 4322      74735F73 
 4322      74617274 
 4322      5F6D6561 
 4322      73757265 
 4323              	.LASF72:
ARM GAS  /tmp/cc6cIjGY.s 			page 83


 4324 07ad 6D61696E 		.ascii	"mainthread\000"
 4324      74687265 
 4324      616400
 4325              	.LASF107:
 4326 07b8 534D4352 		.ascii	"SMCR\000"
 4326      00
 4327              	.LASF93:
 4328 07bd 41484233 		.ascii	"AHB3LPENR\000"
 4328      4C50454E 
 4328      5200
 4329              	.LASF174:
 4330 07c7 5F5F7365 		.ascii	"__set_BASEPRI\000"
 4330      745F4241 
 4330      53455052 
 4330      4900
 4331              	.LASF119:
 4332 07d5 62657374 		.ascii	"best\000"
 4332      00
 4333              	.LASF35:
 4334 07da 77616261 		.ascii	"wabase\000"
 4334      736500
 4335              	.LASF70:
 4336 07e1 726C6973 		.ascii	"rlist\000"
 4336      7400
 4337              	.LASF20:
 4338 07e7 746D6F64 		.ascii	"tmode_t\000"
 4338      655F7400 
 4339              	.LASF84:
 4340 07ef 41484231 		.ascii	"AHB1ENR\000"
 4340      454E5200 
 4341              	.LASF86:
 4342 07f7 41484233 		.ascii	"AHB3ENR\000"
 4342      454E5200 
 4343              	.LASF118:
 4344 07ff 746D5F63 		.ascii	"tm_calibration_t\000"
 4344      616C6962 
 4344      72617469 
 4344      6F6E5F74 
 4344      00
 4345              	.LASF78:
 4346 0810 41484232 		.ascii	"AHB2RSTR\000"
 4346      52535452 
 4346      00
 4347              	.LASF34:
 4348 0819 6E616D65 		.ascii	"name\000"
 4348      00
 4349              	.LASF171:
 4350 081e 706F7274 		.ascii	"port_lock\000"
 4350      5F6C6F63 
 4350      6B00
 4351              	.LASF102:
 4352 0828 5243435F 		.ascii	"RCC_TypeDef\000"
 4352      54797065 
 4352      44656600 
 4353              	.LASF5:
 4354 0834 73686F72 		.ascii	"short int\000"
 4354      7420696E 
ARM GAS  /tmp/cc6cIjGY.s 			page 84


 4354      7400
 4355              	.LASF17:
 4356 083e 75696E74 		.ascii	"uint64_t\000"
 4356      36345F74 
 4356      00
 4357              	.LASF162:
 4358 0847 6D6F6465 		.ascii	"mode\000"
 4358      00
 4359              	.LASF61:
 4360 084c 66756E63 		.ascii	"func\000"
 4360      00
 4361              	.LASF138:
 4362 0851 63685F6D 		.ascii	"ch_mutex\000"
 4362      75746578 
 4362      00
 4363              	.LASF40:
 4364 085a 6D736771 		.ascii	"msgqueue\000"
 4364      75657565 
 4364      00
 4365              	.LASF66:
 4366 0863 63685F73 		.ascii	"ch_system_debug\000"
 4366      79737465 
 4366      6D5F6465 
 4366      62756700 
 4367              	.LASF199:
 4368 0873 2E2E2F2E 		.ascii	"../../modules/ChibiOS/os/hal/ports/STM32/LLD/TIMv1/"
 4368      2E2F6D6F 
 4368      64756C65 
 4368      732F4368 
 4368      6962694F 
 4369 08a6 68616C5F 		.ascii	"hal_icu_lld.c\000"
 4369      6963755F 
 4369      6C6C642E 
 4369      6300
 4370              	.LASF146:
 4371 08b4 4943555F 		.ascii	"ICU_WAITING\000"
 4371      57414954 
 4371      494E4700 
 4372              	.LASF71:
 4373 08c0 76746C69 		.ascii	"vtlist\000"
 4373      737400
 4374              	.LASF39:
 4375 08c7 77616974 		.ascii	"waiting\000"
 4375      696E6700 
 4376              	.LASF184:
 4377 08cf 6963755F 		.ascii	"icu_lld_enable_notifications\000"
 4377      6C6C645F 
 4377      656E6162 
 4377      6C655F6E 
 4377      6F746966 
 4378              	.LASF141:
 4379 08ec 6D757465 		.ascii	"mutex_t\000"
 4379      785F7400 
 4380              	.LASF22:
 4381 08f4 74726566 		.ascii	"trefs_t\000"
 4381      735F7400 
 4382              	.LASF105:
ARM GAS  /tmp/cc6cIjGY.s 			page 85


 4383 08fc 706F7274 		.ascii	"port_context\000"
 4383      5F636F6E 
 4383      74657874 
 4383      00
 4384              	.LASF47:
 4385 0909 74687265 		.ascii	"threads_list_t\000"
 4385      6164735F 
 4385      6C697374 
 4385      5F7400
 4386              	.LASF69:
 4387 0918 63685F73 		.ascii	"ch_system\000"
 4387      79737465 
 4387      6D00
 4388              	.LASF32:
 4389 0922 6E657765 		.ascii	"newer\000"
 4389      7200
 4390              	.LASF112:
 4391 0928 42445452 		.ascii	"BDTR\000"
 4391      00
 4392              	.LASF194:
 4393 092d 6E766963 		.ascii	"nvicEnableVector\000"
 4393      456E6162 
 4393      6C655665 
 4393      63746F72 
 4393      00
 4394              	.LASF16:
 4395 093e 75696E74 		.ascii	"uint32_t\000"
 4395      33325F74 
 4395      00
 4396              	.LASF129:
 4397 0947 7264796D 		.ascii	"rdymsg\000"
 4397      736700
 4398              	.LASF6:
 4399 094e 73686F72 		.ascii	"short unsigned int\000"
 4399      7420756E 
 4399      7369676E 
 4399      65642069 
 4399      6E7400
 4400              	.LASF68:
 4401 0961 63685F73 		.ascii	"ch_system_t\000"
 4401      79737465 
 4401      6D5F7400 
 4402              	.LASF185:
 4403 096d 6963755F 		.ascii	"icu_lld_disable_notifications\000"
 4403      6C6C645F 
 4403      64697361 
 4403      626C655F 
 4403      6E6F7469 
 4404              	.LASF180:
 4405 098b 69637570 		.ascii	"icup\000"
 4405      00
 4406              	.LASF7:
 4407 0990 5F5F696E 		.ascii	"__int32_t\000"
 4407      7433325F 
 4407      7400
 4408              	.LASF187:
 4409 099a 56656374 		.ascii	"VectorF0\000"
ARM GAS  /tmp/cc6cIjGY.s 			page 86


 4409      6F724630 
 4409      00
 4410              	.LASF153:
 4411 09a3 70636372 		.ascii	"pccrp\000"
 4411      7000
 4412              	.LASF188:
 4413 09a9 56656374 		.ascii	"VectorF8\000"
 4413      6F724638 
 4413      00
 4414              	.LASF50:
 4415 09b2 6E657874 		.ascii	"next\000"
 4415      00
 4416              	.LASF53:
 4417 09b7 70726576 		.ascii	"prev\000"
 4417      00
 4418              	.LASF121:
 4419 09bc 6C617374 		.ascii	"last\000"
 4419      00
 4420              		.ident	"GCC: (15:4.9.3+svn231177-1) 4.9.3 20150529 (prerelease)"
ARM GAS  /tmp/cc6cIjGY.s 			page 87


DEFINED SYMBOLS
                            *ABS*:0000000000000000 hal_icu_lld.c
     /tmp/cc6cIjGY.s:21     .text.icu_lld_wait_edge:0000000000000000 $t
     /tmp/cc6cIjGY.s:25     .text.icu_lld_wait_edge:0000000000000000 icu_lld_wait_edge
     /tmp/cc6cIjGY.s:118    .text.icu_lld_init:0000000000000000 $t
     /tmp/cc6cIjGY.s:123    .text.icu_lld_init:0000000000000000 icu_lld_init
     /tmp/cc6cIjGY.s:145    .text.icu_lld_init:0000000000000010 $d
     /tmp/cc6cIjGY.s:151    .text.icu_lld_start:0000000000000000 $t
     /tmp/cc6cIjGY.s:156    .text.icu_lld_start:0000000000000000 icu_lld_start
     /tmp/cc6cIjGY.s:304    .text.icu_lld_start:00000000000000ac $d
     /tmp/cc6cIjGY.s:311    .text.icu_lld_stop:0000000000000000 $t
     /tmp/cc6cIjGY.s:316    .text.icu_lld_stop:0000000000000000 icu_lld_stop
     /tmp/cc6cIjGY.s:362    .text.icu_lld_stop:0000000000000030 $d
     /tmp/cc6cIjGY.s:368    .text.icu_lld_start_capture:0000000000000000 $t
     /tmp/cc6cIjGY.s:373    .text.icu_lld_start_capture:0000000000000000 icu_lld_start_capture
     /tmp/cc6cIjGY.s:397    .text.icu_lld_wait_capture:0000000000000000 $t
     /tmp/cc6cIjGY.s:402    .text.icu_lld_wait_capture:0000000000000000 icu_lld_wait_capture
     /tmp/cc6cIjGY.s:448    .text.icu_lld_stop_capture:0000000000000000 $t
     /tmp/cc6cIjGY.s:453    .text.icu_lld_stop_capture:0000000000000000 icu_lld_stop_capture
     /tmp/cc6cIjGY.s:474    .text.icu_lld_enable_notifications:0000000000000000 $t
     /tmp/cc6cIjGY.s:479    .text.icu_lld_enable_notifications:0000000000000000 icu_lld_enable_notifications
     /tmp/cc6cIjGY.s:543    .text.icu_lld_disable_notifications:0000000000000000 $t
     /tmp/cc6cIjGY.s:548    .text.icu_lld_disable_notifications:0000000000000000 icu_lld_disable_notifications
     /tmp/cc6cIjGY.s:566    .text.icu_lld_serve_interrupt:0000000000000000 $t
     /tmp/cc6cIjGY.s:571    .text.icu_lld_serve_interrupt:0000000000000000 icu_lld_serve_interrupt
     /tmp/cc6cIjGY.s:676    .text.VectorF0:0000000000000000 $t
     /tmp/cc6cIjGY.s:681    .text.VectorF0:0000000000000000 VectorF0
     /tmp/cc6cIjGY.s:709    .text.VectorF0:0000000000000014 $d
     /tmp/cc6cIjGY.s:714    .text.VectorF8:0000000000000000 $t
     /tmp/cc6cIjGY.s:719    .text.VectorF8:0000000000000000 VectorF8
     /tmp/cc6cIjGY.s:747    .text.VectorF8:0000000000000014 $d
     /tmp/cc6cIjGY.s:757    .bss.ICUD8:0000000000000000 ICUD8
     /tmp/cc6cIjGY.s:753    .bss.ICUD8:0000000000000000 $d
                     .debug_frame:0000000000000010 $d

UNDEFINED SYMBOLS
_stats_stop_measure_crit_thd
_stats_start_measure_crit_thd
icuObjectInit
nvicEnableVector
nvicDisableVector
_stats_increase_irq
_port_irq_epilogue
