ARM GAS  /tmp/ccYa27rh.s 			page 1


   1              		.syntax unified
   2              		.cpu cortex-m4
   3              		.eabi_attribute 27, 1
   4              		.eabi_attribute 28, 1
   5              		.fpu fpv4-sp-d16
   6              		.eabi_attribute 20, 1
   7              		.eabi_attribute 21, 1
   8              		.eabi_attribute 23, 3
   9              		.eabi_attribute 24, 1
  10              		.eabi_attribute 25, 1
  11              		.eabi_attribute 26, 1
  12              		.eabi_attribute 30, 4
  13              		.eabi_attribute 34, 1
  14              		.eabi_attribute 18, 4
  15              		.thumb
  16              		.file	"hal_pwm_lld.c"
  17              		.text
  18              	.Ltext0:
  19              		.cfi_sections	.debug_frame
  20              		.section	.text.pwm_lld_init,"ax",%progbits
  21              		.align	1
  22              		.global	pwm_lld_init
  23              		.thumb
  24              		.thumb_func
  25              		.type	pwm_lld_init, %function
  26              	pwm_lld_init:
  27              	.LFB277:
  28              		.file 1 "../../modules/ChibiOS/os/hal/ports/STM32/LLD/TIMv1/hal_pwm_lld.c"
  29              		.loc 1 336 0
  30              		.cfi_startproc
  31              		@ args = 0, pretend = 0, frame = 0
  32              		@ frame_needed = 0, uses_anonymous_args = 0
  33 0000 38B5     		push	{r3, r4, r5, lr}
  34              		.cfi_def_cfa_offset 16
  35              		.cfi_offset 3, -16
  36              		.cfi_offset 4, -12
  37              		.cfi_offset 5, -8
  38              		.cfi_offset 14, -4
  39              		.loc 1 340 0
  40 0002 104C     		ldr	r4, .L2
  41 0004 2046     		mov	r0, r4
  42 0006 FFF7FEFF 		bl	pwmObjectInit
  43              	.LVL0:
  44              		.loc 1 341 0
  45 000a 0425     		movs	r5, #4
  46              		.loc 1 342 0
  47 000c 0E4B     		ldr	r3, .L2+4
  48 000e A361     		str	r3, [r4, #24]
  49              		.loc 1 341 0
  50 0010 2574     		strb	r5, [r4, #16]
  51              		.loc 1 347 0
  52 0012 0E4C     		ldr	r4, .L2+8
  53 0014 2046     		mov	r0, r4
  54 0016 FFF7FEFF 		bl	pwmObjectInit
  55              	.LVL1:
  56              		.loc 1 349 0
  57 001a 4FF08043 		mov	r3, #1073741824
ARM GAS  /tmp/ccYa27rh.s 			page 2


  58 001e A361     		str	r3, [r4, #24]
  59              		.loc 1 348 0
  60 0020 2574     		strb	r5, [r4, #16]
  61              		.loc 1 361 0
  62 0022 0B4C     		ldr	r4, .L2+12
  63 0024 2046     		mov	r0, r4
  64 0026 FFF7FEFF 		bl	pwmObjectInit
  65              	.LVL2:
  66              		.loc 1 363 0
  67 002a 0A4B     		ldr	r3, .L2+16
  68 002c A361     		str	r3, [r4, #24]
  69              		.loc 1 362 0
  70 002e 2574     		strb	r5, [r4, #16]
  71              		.loc 1 382 0
  72 0030 094C     		ldr	r4, .L2+20
  73 0032 2046     		mov	r0, r4
  74 0034 FFF7FEFF 		bl	pwmObjectInit
  75              	.LVL3:
  76              		.loc 1 383 0
  77 0038 0223     		movs	r3, #2
  78 003a 2374     		strb	r3, [r4, #16]
  79              		.loc 1 384 0
  80 003c 074B     		ldr	r3, .L2+24
  81 003e A361     		str	r3, [r4, #24]
  82 0040 38BD     		pop	{r3, r4, r5, pc}
  83              	.L3:
  84 0042 00BF     		.align	2
  85              	.L2:
  86 0044 00000000 		.word	.LANCHOR0
  87 0048 00000140 		.word	1073807360
  88 004c 00000000 		.word	.LANCHOR1
  89 0050 00000000 		.word	.LANCHOR2
  90 0054 00080040 		.word	1073743872
  91 0058 00000000 		.word	.LANCHOR3
  92 005c 00400140 		.word	1073823744
  93              		.cfi_endproc
  94              	.LFE277:
  95              		.size	pwm_lld_init, .-pwm_lld_init
  96              		.section	.text.pwm_lld_start,"ax",%progbits
  97              		.align	1
  98              		.global	pwm_lld_start
  99              		.thumb
 100              		.thumb_func
 101              		.type	pwm_lld_start, %function
 102              	pwm_lld_start:
 103              	.LFB278:
 104              		.loc 1 404 0
 105              		.cfi_startproc
 106              		@ args = 0, pretend = 0, frame = 0
 107              		@ frame_needed = 0, uses_anonymous_args = 0
 108              	.LVL4:
 109              		.loc 1 408 0
 110 0000 0378     		ldrb	r3, [r0]	@ zero_extendqisi2
 111 0002 8269     		ldr	r2, [r0, #24]
 112 0004 012B     		cmp	r3, #1
 113              		.loc 1 404 0
 114 0006 10B5     		push	{r4, lr}
ARM GAS  /tmp/ccYa27rh.s 			page 3


 115              		.cfi_def_cfa_offset 8
 116              		.cfi_offset 4, -8
 117              		.cfi_offset 14, -4
 118              		.loc 1 408 0
 119 0008 42D1     		bne	.L5
 120              		.loc 1 411 0
 121 000a 494B     		ldr	r3, .L39
 122 000c 9842     		cmp	r0, r3
 123 000e 08D1     		bne	.L6
 124              		.loc 1 412 0
 125 0010 484B     		ldr	r3, .L39+4
 126 0012 596C     		ldr	r1, [r3, #68]
 127 0014 41F00101 		orr	r1, r1, #1
 128 0018 5964     		str	r1, [r3, #68]
 129              		.loc 1 413 0
 130 001a 596A     		ldr	r1, [r3, #36]
 131 001c 41F00101 		orr	r1, r1, #1
 132 0020 29E0     		b	.L36
 133              	.L6:
 134              		.loc 1 427 0
 135 0022 454B     		ldr	r3, .L39+8
 136 0024 9842     		cmp	r0, r3
 137 0026 08D1     		bne	.L8
 138              		.loc 1 428 0
 139 0028 424B     		ldr	r3, .L39+4
 140 002a 196C     		ldr	r1, [r3, #64]
 141 002c 41F00101 		orr	r1, r1, #1
 142 0030 1964     		str	r1, [r3, #64]
 143              		.loc 1 429 0
 144 0032 196A     		ldr	r1, [r3, #32]
 145 0034 41F00101 		orr	r1, r1, #1
 146 0038 0AE0     		b	.L37
 147              	.L8:
 148              		.loc 1 457 0
 149 003a 404B     		ldr	r3, .L39+12
 150 003c 9842     		cmp	r0, r3
 151 003e 0FD1     		bne	.L9
 152              		.loc 1 458 0
 153 0040 3C4B     		ldr	r3, .L39+4
 154 0042 196C     		ldr	r1, [r3, #64]
 155 0044 41F00401 		orr	r1, r1, #4
 156 0048 1964     		str	r1, [r3, #64]
 157              		.loc 1 459 0
 158 004a 196A     		ldr	r1, [r3, #32]
 159 004c 41F00401 		orr	r1, r1, #4
 160              	.L37:
 161 0050 1962     		str	r1, [r3, #32]
 162 0052 0021     		movs	r1, #0
 163 0054 1962     		str	r1, [r3, #32]
 164              		.loc 1 466 0
 165 0056 03F14543 		add	r3, r3, #-989855744
 166 005a A3F5F643 		sub	r3, r3, #31488
 167 005e 11E0     		b	.L35
 168              	.L9:
 169              		.loc 1 503 0
 170 0060 374B     		ldr	r3, .L39+16
 171 0062 9842     		cmp	r0, r3
ARM GAS  /tmp/ccYa27rh.s 			page 4


 172 0064 0FD1     		bne	.L7
 173              		.loc 1 504 0
 174 0066 334B     		ldr	r3, .L39+4
 175 0068 596C     		ldr	r1, [r3, #68]
 176 006a 41F48031 		orr	r1, r1, #65536
 177 006e 5964     		str	r1, [r3, #68]
 178              		.loc 1 505 0
 179 0070 596A     		ldr	r1, [r3, #36]
 180 0072 41F48031 		orr	r1, r1, #65536
 181              	.L36:
 182 0076 5962     		str	r1, [r3, #36]
 183 0078 0021     		movs	r1, #0
 184 007a 5962     		str	r1, [r3, #36]
 185              		.loc 1 512 0
 186 007c 03F14A43 		add	r3, r3, #-905969664
 187 0080 03F5A133 		add	r3, r3, #82432
 188              	.L35:
 189 0084 4361     		str	r3, [r0, #20]
 190              	.L7:
 191              		.loc 1 534 0
 192 0086 46F66803 		movw	r3, #26728
 193 008a 9361     		str	r3, [r2, #24]
 194              		.loc 1 536 0
 195 008c D361     		str	r3, [r2, #28]
 196 008e 06E0     		b	.L10
 197              	.L5:
 198              		.loc 1 545 0
 199 0090 0023     		movs	r3, #0
 200 0092 1360     		str	r3, [r2]
 201              		.loc 1 546 0
 202 0094 5363     		str	r3, [r2, #52]
 203              		.loc 1 547 0
 204 0096 9363     		str	r3, [r2, #56]
 205              		.loc 1 548 0
 206 0098 D363     		str	r3, [r2, #60]
 207              		.loc 1 549 0
 208 009a 1364     		str	r3, [r2, #64]
 209              		.loc 1 556 0
 210 009c 5362     		str	r3, [r2, #36]
 211              	.L10:
 212              		.loc 1 560 0
 213 009e 4168     		ldr	r1, [r0, #4]
 214 00a0 4369     		ldr	r3, [r0, #20]
 215 00a2 0C68     		ldr	r4, [r1]
 216 00a4 B3FBF4F3 		udiv	r3, r3, r4
 217 00a8 013B     		subs	r3, r3, #1
 218              	.LVL5:
 219              		.loc 1 564 0
 220 00aa 9362     		str	r3, [r2, #40]
 221              		.loc 1 565 0
 222 00ac 8368     		ldr	r3, [r0, #8]
 223              	.LVL6:
 224 00ae 013B     		subs	r3, r3, #1
 225 00b0 D362     		str	r3, [r2, #44]
 226              	.LVL7:
 227              		.loc 1 566 0
 228 00b2 CB6A     		ldr	r3, [r1, #44]
ARM GAS  /tmp/ccYa27rh.s 			page 5


 229 00b4 5360     		str	r3, [r2, #4]
 230              	.LVL8:
 231              		.loc 1 570 0
 232 00b6 CB68     		ldr	r3, [r1, #12]
 233 00b8 03F00F03 		and	r3, r3, #15
 234 00bc 012B     		cmp	r3, #1
 235 00be 02D0     		beq	.L24
 236 00c0 022B     		cmp	r3, #2
 237 00c2 04D1     		bne	.L34
 238 00c4 00E0     		b	.L12
 239              	.L24:
 240              		.loc 1 569 0
 241 00c6 0023     		movs	r3, #0
 242              	.L12:
 243              	.LVL9:
 244              		.loc 1 574 0
 245 00c8 43F00103 		orr	r3, r3, #1
 246              	.LVL10:
 247 00cc 00E0     		b	.L11
 248              	.LVL11:
 249              	.L34:
 250              		.loc 1 569 0
 251 00ce 0023     		movs	r3, #0
 252              	.LVL12:
 253              	.L11:
 254              		.loc 1 578 0
 255 00d0 4869     		ldr	r0, [r1, #20]
 256              	.LVL13:
 257 00d2 00F00F00 		and	r0, r0, #15
 258 00d6 0128     		cmp	r0, #1
 259 00d8 03D0     		beq	.L15
 260 00da 0228     		cmp	r0, #2
 261 00dc 03D1     		bne	.L14
 262              		.loc 1 580 0
 263 00de 43F02003 		orr	r3, r3, #32
 264              	.LVL14:
 265              	.L15:
 266              		.loc 1 582 0
 267 00e2 43F01003 		orr	r3, r3, #16
 268              	.LVL15:
 269              	.L14:
 270              		.loc 1 586 0
 271 00e6 C869     		ldr	r0, [r1, #28]
 272 00e8 00F00F00 		and	r0, r0, #15
 273 00ec 0128     		cmp	r0, #1
 274 00ee 03D0     		beq	.L18
 275 00f0 0228     		cmp	r0, #2
 276 00f2 03D1     		bne	.L17
 277              		.loc 1 588 0
 278 00f4 43F40073 		orr	r3, r3, #512
 279              	.LVL16:
 280              	.L18:
 281              		.loc 1 590 0
 282 00f8 43F48073 		orr	r3, r3, #256
 283              	.LVL17:
 284              	.L17:
 285              		.loc 1 594 0
ARM GAS  /tmp/ccYa27rh.s 			page 6


 286 00fc 486A     		ldr	r0, [r1, #36]
 287 00fe 00F00F00 		and	r0, r0, #15
 288 0102 0128     		cmp	r0, #1
 289 0104 03D0     		beq	.L21
 290 0106 0228     		cmp	r0, #2
 291 0108 03D1     		bne	.L20
 292              		.loc 1 596 0
 293 010a 43F40053 		orr	r3, r3, #8192
 294              	.LVL18:
 295              	.L21:
 296              		.loc 1 598 0
 297 010e 43F48053 		orr	r3, r3, #4096
 298              	.LVL19:
 299              	.L20:
 300              		.loc 1 639 0
 301 0112 1362     		str	r3, [r2, #32]
 302              		.loc 1 640 0
 303 0114 0123     		movs	r3, #1
 304              	.LVL20:
 305 0116 5361     		str	r3, [r2, #20]
 306              	.LVL21:
 307              		.loc 1 641 0
 308 0118 0023     		movs	r3, #0
 309 011a 1361     		str	r3, [r2, #16]
 310              		.loc 1 642 0
 311 011c 0B6B     		ldr	r3, [r1, #48]
 312 011e 23F0FF03 		bic	r3, r3, #255
 313 0122 D360     		str	r3, [r2, #12]
 314              		.loc 1 648 0
 315 0124 4FF40043 		mov	r3, #32768
 316 0128 5364     		str	r3, [r2, #68]
 317              		.loc 1 652 0
 318 012a 8523     		movs	r3, #133
 319 012c 1360     		str	r3, [r2]
 320 012e 10BD     		pop	{r4, pc}
 321              	.LVL22:
 322              	.L40:
 323              		.align	2
 324              	.L39:
 325 0130 00000000 		.word	.LANCHOR0
 326 0134 00380240 		.word	1073887232
 327 0138 00000000 		.word	.LANCHOR1
 328 013c 00000000 		.word	.LANCHOR2
 329 0140 00000000 		.word	.LANCHOR3
 330              		.cfi_endproc
 331              	.LFE278:
 332              		.size	pwm_lld_start, .-pwm_lld_start
 333              		.section	.text.pwm_lld_stop,"ax",%progbits
 334              		.align	1
 335              		.global	pwm_lld_stop
 336              		.thumb
 337              		.thumb_func
 338              		.type	pwm_lld_stop, %function
 339              	pwm_lld_stop:
 340              	.LFB279:
 341              		.loc 1 663 0
 342              		.cfi_startproc
ARM GAS  /tmp/ccYa27rh.s 			page 7


 343              		@ args = 0, pretend = 0, frame = 0
 344              		@ frame_needed = 0, uses_anonymous_args = 0
 345              		@ link register save eliminated.
 346              	.LVL23:
 347              		.loc 1 666 0
 348 0000 0378     		ldrb	r3, [r0]	@ zero_extendqisi2
 349 0002 022B     		cmp	r3, #2
 350 0004 26D1     		bne	.L41
 351              		.loc 1 667 0
 352 0006 8369     		ldr	r3, [r0, #24]
 353 0008 0022     		movs	r2, #0
 354 000a 1A60     		str	r2, [r3]
 355              		.loc 1 668 0
 356 000c DA60     		str	r2, [r3, #12]
 357              		.loc 1 669 0
 358 000e 1A61     		str	r2, [r3, #16]
 359              		.loc 1 671 0
 360 0010 5A64     		str	r2, [r3, #68]
 361              		.loc 1 675 0
 362 0012 114B     		ldr	r3, .L50
 363 0014 9842     		cmp	r0, r3
 364 0016 04D1     		bne	.L44
 365              		.loc 1 680 0
 366 0018 104A     		ldr	r2, .L50+4
 367 001a 536C     		ldr	r3, [r2, #68]
 368 001c 23F00103 		bic	r3, r3, #1
 369 0020 17E0     		b	.L48
 370              	.L44:
 371              		.loc 1 685 0
 372 0022 0F4B     		ldr	r3, .L50+8
 373 0024 9842     		cmp	r0, r3
 374 0026 04D1     		bne	.L46
 375              		.loc 1 689 0
 376 0028 0C4A     		ldr	r2, .L50+4
 377 002a 136C     		ldr	r3, [r2, #64]
 378 002c 23F00103 		bic	r3, r3, #1
 379 0030 06E0     		b	.L49
 380              	.L46:
 381              		.loc 1 703 0
 382 0032 0C4B     		ldr	r3, .L50+12
 383 0034 9842     		cmp	r0, r3
 384 0036 05D1     		bne	.L47
 385              		.loc 1 707 0
 386 0038 084A     		ldr	r2, .L50+4
 387 003a 136C     		ldr	r3, [r2, #64]
 388 003c 23F00403 		bic	r3, r3, #4
 389              	.L49:
 390 0040 1364     		str	r3, [r2, #64]
 391 0042 7047     		bx	lr
 392              	.L47:
 393              		.loc 1 731 0
 394 0044 084B     		ldr	r3, .L50+16
 395 0046 9842     		cmp	r0, r3
 396 0048 04D1     		bne	.L41
 397              		.loc 1 735 0
 398 004a 044A     		ldr	r2, .L50+4
 399 004c 536C     		ldr	r3, [r2, #68]
ARM GAS  /tmp/ccYa27rh.s 			page 8


 400 004e 23F48033 		bic	r3, r3, #65536
 401              	.L48:
 402 0052 5364     		str	r3, [r2, #68]
 403              	.L41:
 404 0054 7047     		bx	lr
 405              	.L51:
 406 0056 00BF     		.align	2
 407              	.L50:
 408 0058 00000000 		.word	.LANCHOR0
 409 005c 00380240 		.word	1073887232
 410 0060 00000000 		.word	.LANCHOR1
 411 0064 00000000 		.word	.LANCHOR2
 412 0068 00000000 		.word	.LANCHOR3
 413              		.cfi_endproc
 414              	.LFE279:
 415              		.size	pwm_lld_stop, .-pwm_lld_stop
 416              		.section	.text.pwm_lld_enable_channel,"ax",%progbits
 417              		.align	1
 418              		.global	pwm_lld_enable_channel
 419              		.thumb
 420              		.thumb_func
 421              		.type	pwm_lld_enable_channel, %function
 422              	pwm_lld_enable_channel:
 423              	.LFB280:
 424              		.loc 1 765 0
 425              		.cfi_startproc
 426              		@ args = 0, pretend = 0, frame = 0
 427              		@ frame_needed = 0, uses_anonymous_args = 0
 428              		@ link register save eliminated.
 429              	.LVL24:
 430              		.loc 1 769 0
 431 0000 8369     		ldr	r3, [r0, #24]
 432 0002 0C31     		adds	r1, r1, #12
 433              	.LVL25:
 434 0004 03EB8103 		add	r3, r3, r1, lsl #2
 435 0008 5A60     		str	r2, [r3, #4]
 436 000a 7047     		bx	lr
 437              		.cfi_endproc
 438              	.LFE280:
 439              		.size	pwm_lld_enable_channel, .-pwm_lld_enable_channel
 440              		.section	.text.pwm_lld_disable_channel,"ax",%progbits
 441              		.align	1
 442              		.global	pwm_lld_disable_channel
 443              		.thumb
 444              		.thumb_func
 445              		.type	pwm_lld_disable_channel, %function
 446              	pwm_lld_disable_channel:
 447              	.LFB281:
 448              		.loc 1 790 0
 449              		.cfi_startproc
 450              		@ args = 0, pretend = 0, frame = 0
 451              		@ frame_needed = 0, uses_anonymous_args = 0
 452              		@ link register save eliminated.
 453              	.LVL26:
 454              		.loc 1 793 0
 455 0000 8369     		ldr	r3, [r0, #24]
 456 0002 01F10C02 		add	r2, r1, #12
ARM GAS  /tmp/ccYa27rh.s 			page 9


 457 0006 03EB8202 		add	r2, r3, r2, lsl #2
 458 000a 0020     		movs	r0, #0
 459              	.LVL27:
 460 000c 5060     		str	r0, [r2, #4]
 461              		.loc 1 794 0
 462 000e D868     		ldr	r0, [r3, #12]
 463 0010 0222     		movs	r2, #2
 464 0012 8A40     		lsls	r2, r2, r1
 465 0014 20EA0202 		bic	r2, r0, r2
 466 0018 DA60     		str	r2, [r3, #12]
 467 001a 7047     		bx	lr
 468              		.cfi_endproc
 469              	.LFE281:
 470              		.size	pwm_lld_disable_channel, .-pwm_lld_disable_channel
 471              		.section	.text.pwm_lld_enable_periodic_notification,"ax",%progbits
 472              		.align	1
 473              		.global	pwm_lld_enable_periodic_notification
 474              		.thumb
 475              		.thumb_func
 476              		.type	pwm_lld_enable_periodic_notification, %function
 477              	pwm_lld_enable_periodic_notification:
 478              	.LFB282:
 479              		.loc 1 814 0
 480              		.cfi_startproc
 481              		@ args = 0, pretend = 0, frame = 0
 482              		@ frame_needed = 0, uses_anonymous_args = 0
 483              		@ link register save eliminated.
 484              	.LVL28:
 485              		.loc 1 815 0
 486 0000 8369     		ldr	r3, [r0, #24]
 487 0002 DA68     		ldr	r2, [r3, #12]
 488              	.LVL29:
 489              		.loc 1 819 0
 490 0004 D107     		lsls	r1, r2, #31
 491              		.loc 1 820 0
 492 0006 5FBF     		itttt	pl
 493 0008 42F00102 		orrpl	r2, r2, #1
 494              	.LVL30:
 495 000c DA60     		strpl	r2, [r3, #12]
 496              		.loc 1 821 0
 497 000e 1A69     		ldrpl	r2, [r3, #16]
 498 0010 02F00102 		andpl	r2, r2, #1
 499 0014 58BF     		it	pl
 500 0016 1A61     		strpl	r2, [r3, #16]
 501 0018 7047     		bx	lr
 502              		.cfi_endproc
 503              	.LFE282:
 504              		.size	pwm_lld_enable_periodic_notification, .-pwm_lld_enable_periodic_notification
 505              		.section	.text.pwm_lld_disable_periodic_notification,"ax",%progbits
 506              		.align	1
 507              		.global	pwm_lld_disable_periodic_notification
 508              		.thumb
 509              		.thumb_func
 510              		.type	pwm_lld_disable_periodic_notification, %function
 511              	pwm_lld_disable_periodic_notification:
 512              	.LFB283:
 513              		.loc 1 834 0
ARM GAS  /tmp/ccYa27rh.s 			page 10


 514              		.cfi_startproc
 515              		@ args = 0, pretend = 0, frame = 0
 516              		@ frame_needed = 0, uses_anonymous_args = 0
 517              		@ link register save eliminated.
 518              	.LVL31:
 519              		.loc 1 836 0
 520 0000 8269     		ldr	r2, [r0, #24]
 521 0002 D368     		ldr	r3, [r2, #12]
 522 0004 23F00103 		bic	r3, r3, #1
 523 0008 D360     		str	r3, [r2, #12]
 524 000a 7047     		bx	lr
 525              		.cfi_endproc
 526              	.LFE283:
 527              		.size	pwm_lld_disable_periodic_notification, .-pwm_lld_disable_periodic_notification
 528              		.section	.text.pwm_lld_enable_channel_notification,"ax",%progbits
 529              		.align	1
 530              		.global	pwm_lld_enable_channel_notification
 531              		.thumb
 532              		.thumb_func
 533              		.type	pwm_lld_enable_channel_notification, %function
 534              	pwm_lld_enable_channel_notification:
 535              	.LFB284:
 536              		.loc 1 851 0
 537              		.cfi_startproc
 538              		@ args = 0, pretend = 0, frame = 0
 539              		@ frame_needed = 0, uses_anonymous_args = 0
 540              		@ link register save eliminated.
 541              	.LVL32:
 542              		.loc 1 852 0
 543 0000 8069     		ldr	r0, [r0, #24]
 544              	.LVL33:
 545              		.loc 1 861 0
 546 0002 0223     		movs	r3, #2
 547              		.loc 1 852 0
 548 0004 C268     		ldr	r2, [r0, #12]
 549              	.LVL34:
 550              		.loc 1 861 0
 551 0006 8B40     		lsls	r3, r3, r1
 552 0008 1342     		tst	r3, r2
 553              		.loc 1 862 0
 554 000a 01BF     		itttt	eq
 555 000c 1A43     		orreq	r2, r2, r3
 556              	.LVL35:
 557              		.loc 1 863 0
 558 000e DB43     		mvneq	r3, r3
 559              		.loc 1 862 0
 560 0010 C260     		streq	r2, [r0, #12]
 561              		.loc 1 863 0
 562 0012 0361     		streq	r3, [r0, #16]
 563 0014 7047     		bx	lr
 564              		.cfi_endproc
 565              	.LFE284:
 566              		.size	pwm_lld_enable_channel_notification, .-pwm_lld_enable_channel_notification
 567              		.section	.text.pwm_lld_disable_channel_notification,"ax",%progbits
 568              		.align	1
 569              		.global	pwm_lld_disable_channel_notification
 570              		.thumb
ARM GAS  /tmp/ccYa27rh.s 			page 11


 571              		.thumb_func
 572              		.type	pwm_lld_disable_channel_notification, %function
 573              	pwm_lld_disable_channel_notification:
 574              	.LFB285:
 575              		.loc 1 879 0
 576              		.cfi_startproc
 577              		@ args = 0, pretend = 0, frame = 0
 578              		@ frame_needed = 0, uses_anonymous_args = 0
 579              		@ link register save eliminated.
 580              	.LVL36:
 581              		.loc 1 881 0
 582 0000 8069     		ldr	r0, [r0, #24]
 583              	.LVL37:
 584 0002 0222     		movs	r2, #2
 585 0004 C368     		ldr	r3, [r0, #12]
 586 0006 8A40     		lsls	r2, r2, r1
 587 0008 23EA0203 		bic	r3, r3, r2
 588 000c C360     		str	r3, [r0, #12]
 589 000e 7047     		bx	lr
 590              		.cfi_endproc
 591              	.LFE285:
 592              		.size	pwm_lld_disable_channel_notification, .-pwm_lld_disable_channel_notification
 593              		.section	.text.pwm_lld_serve_interrupt,"ax",%progbits
 594              		.align	1
 595              		.global	pwm_lld_serve_interrupt
 596              		.thumb
 597              		.thumb_func
 598              		.type	pwm_lld_serve_interrupt, %function
 599              	pwm_lld_serve_interrupt:
 600              	.LFB286:
 601              		.loc 1 894 0
 602              		.cfi_startproc
 603              		@ args = 0, pretend = 0, frame = 0
 604              		@ frame_needed = 0, uses_anonymous_args = 0
 605              	.LVL38:
 606              		.loc 1 897 0
 607 0000 8369     		ldr	r3, [r0, #24]
 608              		.loc 1 894 0
 609 0002 70B5     		push	{r4, r5, r6, lr}
 610              		.cfi_def_cfa_offset 16
 611              		.cfi_offset 4, -16
 612              		.cfi_offset 5, -12
 613              		.cfi_offset 6, -8
 614              		.cfi_offset 14, -4
 615              		.loc 1 897 0
 616 0004 1A69     		ldr	r2, [r3, #16]
 617              	.LVL39:
 618              		.loc 1 898 0
 619 0006 DD68     		ldr	r5, [r3, #12]
 620 0008 1540     		ands	r5, r5, r2
 621              	.LVL40:
 622 000a EAB2     		uxtb	r2, r5
 623              		.loc 1 899 0
 624 000c D243     		mvns	r2, r2
 625              		.loc 1 900 0
 626 000e AE07     		lsls	r6, r5, #30
 627              		.loc 1 894 0
ARM GAS  /tmp/ccYa27rh.s 			page 12


 628 0010 0446     		mov	r4, r0
 629              		.loc 1 899 0
 630 0012 1A61     		str	r2, [r3, #16]
 631              		.loc 1 900 0
 632 0014 03D5     		bpl	.L61
 633              		.loc 1 901 0 discriminator 1
 634 0016 4368     		ldr	r3, [r0, #4]
 635 0018 1B69     		ldr	r3, [r3, #16]
 636              		.loc 1 900 0 discriminator 1
 637 001a 03B1     		cbz	r3, .L61
 638              		.loc 1 902 0
 639 001c 9847     		blx	r3
 640              	.LVL41:
 641              	.L61:
 642              		.loc 1 903 0
 643 001e 6807     		lsls	r0, r5, #29
 644 0020 04D5     		bpl	.L62
 645              		.loc 1 904 0 discriminator 1
 646 0022 6368     		ldr	r3, [r4, #4]
 647 0024 9B69     		ldr	r3, [r3, #24]
 648              		.loc 1 903 0 discriminator 1
 649 0026 0BB1     		cbz	r3, .L62
 650              		.loc 1 905 0
 651 0028 2046     		mov	r0, r4
 652 002a 9847     		blx	r3
 653              	.LVL42:
 654              	.L62:
 655              		.loc 1 906 0
 656 002c 2907     		lsls	r1, r5, #28
 657 002e 04D5     		bpl	.L63
 658              		.loc 1 907 0 discriminator 1
 659 0030 6368     		ldr	r3, [r4, #4]
 660 0032 1B6A     		ldr	r3, [r3, #32]
 661              		.loc 1 906 0 discriminator 1
 662 0034 0BB1     		cbz	r3, .L63
 663              		.loc 1 908 0
 664 0036 2046     		mov	r0, r4
 665 0038 9847     		blx	r3
 666              	.LVL43:
 667              	.L63:
 668              		.loc 1 909 0
 669 003a EA06     		lsls	r2, r5, #27
 670 003c 04D5     		bpl	.L64
 671              		.loc 1 910 0 discriminator 1
 672 003e 6368     		ldr	r3, [r4, #4]
 673 0040 9B6A     		ldr	r3, [r3, #40]
 674              		.loc 1 909 0 discriminator 1
 675 0042 0BB1     		cbz	r3, .L64
 676              		.loc 1 911 0
 677 0044 2046     		mov	r0, r4
 678 0046 9847     		blx	r3
 679              	.LVL44:
 680              	.L64:
 681              		.loc 1 912 0
 682 0048 EB07     		lsls	r3, r5, #31
 683 004a 06D5     		bpl	.L60
 684              		.loc 1 912 0 is_stmt 0 discriminator 1
ARM GAS  /tmp/ccYa27rh.s 			page 13


 685 004c 6368     		ldr	r3, [r4, #4]
 686 004e 9B68     		ldr	r3, [r3, #8]
 687 0050 1BB1     		cbz	r3, .L60
 688              		.loc 1 913 0 is_stmt 1
 689 0052 2046     		mov	r0, r4
 690              		.loc 1 914 0
 691 0054 BDE87040 		pop	{r4, r5, r6, lr}
 692              		.cfi_remember_state
 693              		.cfi_restore 14
 694              		.cfi_restore 6
 695              		.cfi_restore 5
 696              		.cfi_restore 4
 697              		.cfi_def_cfa_offset 0
 698              	.LVL45:
 699              		.loc 1 913 0
 700 0058 1847     		bx	r3	@ indirect register sibling call
 701              	.LVL46:
 702              	.L60:
 703              		.cfi_restore_state
 704 005a 70BD     		pop	{r4, r5, r6, pc}
 705              		.cfi_endproc
 706              	.LFE286:
 707              		.size	pwm_lld_serve_interrupt, .-pwm_lld_serve_interrupt
 708              		.global	PWMD9
 709              		.global	PWMD4
 710              		.global	PWMD2
 711              		.global	PWMD1
 712              		.section	.bss.PWMD1,"aw",%nobits
 713              		.align	2
 714              		.set	.LANCHOR0,. + 0
 715              		.type	PWMD1, %object
 716              		.size	PWMD1, 28
 717              	PWMD1:
 718 0000 00000000 		.space	28
 718      00000000 
 718      00000000 
 718      00000000 
 718      00000000 
 719              		.section	.bss.PWMD2,"aw",%nobits
 720              		.align	2
 721              		.set	.LANCHOR1,. + 0
 722              		.type	PWMD2, %object
 723              		.size	PWMD2, 28
 724              	PWMD2:
 725 0000 00000000 		.space	28
 725      00000000 
 725      00000000 
 725      00000000 
 725      00000000 
 726              		.section	.bss.PWMD4,"aw",%nobits
 727              		.align	2
 728              		.set	.LANCHOR2,. + 0
 729              		.type	PWMD4, %object
 730              		.size	PWMD4, 28
 731              	PWMD4:
 732 0000 00000000 		.space	28
 732      00000000 
ARM GAS  /tmp/ccYa27rh.s 			page 14


 732      00000000 
 732      00000000 
 732      00000000 
 733              		.section	.bss.PWMD9,"aw",%nobits
 734              		.align	2
 735              		.set	.LANCHOR3,. + 0
 736              		.type	PWMD9, %object
 737              		.size	PWMD9, 28
 738              	PWMD9:
 739 0000 00000000 		.space	28
 739      00000000 
 739      00000000 
 739      00000000 
 739      00000000 
 740              		.text
 741              	.Letext0:
 742              		.file 2 "/usr/lib/gcc/arm-none-eabi/4.9.3/include/stddef.h"
 743              		.file 3 "/usr/include/newlib/machine/_default_types.h"
 744              		.file 4 "/usr/include/newlib/sys/_stdint.h"
 745              		.file 5 "../../modules/ChibiOS/os/common/ports/ARMCMx/compilers/GCC/chtypes.h"
 746              		.file 6 "../../modules/ChibiOS/os/rt/include/chsystypes.h"
 747              		.file 7 "../../modules/ChibiOS/os/rt/include/chschd.h"
 748              		.file 8 "../../modules/ChibiOS/os/common/ext/CMSIS/ST/STM32F4xx/stm32f407xx.h"
 749              		.file 9 "../../modules/ChibiOS/os/common/ports/ARMCMx/chcore.h"
 750              		.file 10 "../../modules/ChibiOS/os/common/ports/ARMCMx/chcore_v7m.h"
 751              		.file 11 "../../modules/ChibiOS/os/hal/ports/STM32/LLD/TIMv1/stm32_tim.h"
 752              		.file 12 "../../modules/ChibiOS/os/rt/include/chtm.h"
 753              		.file 13 "../../modules/ChibiOS/os/rt/include/chstats.h"
 754              		.file 14 "../../modules/ChibiOS/os/rt/include/chsem.h"
 755              		.file 15 "../../modules/ChibiOS/os/rt/include/chmtx.h"
 756              		.file 16 "../../modules/ChibiOS/os/hal/include/hal_pwm.h"
 757              		.file 17 "../../modules/ChibiOS/os/hal/ports/STM32/LLD/TIMv1/hal_pwm_lld.h"
 758              		.file 18 "../../modules/ChibiOS/os/common/ext/CMSIS/include/core_cm4.h"