ARM GAS  /tmp/ccOKB5Xj.s 			page 1


   1              		.syntax unified
   2              		.cpu cortex-m4
   3              		.eabi_attribute 27, 1
   4              		.eabi_attribute 28, 1
   5              		.fpu fpv4-sp-d16
   6              		.eabi_attribute 20, 1
   7              		.eabi_attribute 21, 1
   8              		.eabi_attribute 23, 3
   9              		.eabi_attribute 24, 1
  10              		.eabi_attribute 25, 1
  11              		.eabi_attribute 26, 1
  12              		.eabi_attribute 30, 4
  13              		.eabi_attribute 34, 1
  14              		.eabi_attribute 18, 4
  15              		.thumb
  16              		.file	"hal_adc_lld.c"
  17              		.text
  18              	.Ltext0:
  19              		.cfi_sections	.debug_frame
  20              		.section	.text.adc_lld_init,"ax",%progbits
  21              		.align	1
  22              		.global	adc_lld_init
  23              		.thumb
  24              		.thumb_func
  25              		.type	adc_lld_init, %function
  26              	adc_lld_init:
  27              	.LFB279:
  28              		.file 1 "../../modules/ChibiOS/os/hal/ports/STM32/LLD/ADCv2/hal_adc_lld.c"
  29              		.loc 1 180 0
  30              		.cfi_startproc
  31              		@ args = 0, pretend = 0, frame = 0
  32              		@ frame_needed = 0, uses_anonymous_args = 0
  33 0000 10B5     		push	{r4, lr}
  34              		.cfi_def_cfa_offset 8
  35              		.cfi_offset 4, -8
  36              		.cfi_offset 14, -4
  37              		.loc 1 184 0
  38 0002 084C     		ldr	r4, .L2
  39 0004 2046     		mov	r0, r4
  40 0006 FFF7FEFF 		bl	adcObjectInit
  41              	.LVL0:
  42              		.loc 1 185 0
  43 000a 074B     		ldr	r3, .L2+4
  44 000c A362     		str	r3, [r4, #40]
  45              		.loc 1 186 0
  46 000e 074B     		ldr	r3, .L2+8
  47 0010 E362     		str	r3, [r4, #44]
  48              		.loc 1 187 0
  49 0012 074B     		ldr	r3, .L2+12
  50 0014 2363     		str	r3, [r4, #48]
  51              		.loc 1 223 0
  52 0016 1220     		movs	r0, #18
  53 0018 0621     		movs	r1, #6
  54              		.loc 1 224 0
  55 001a BDE81040 		pop	{r4, lr}
  56              		.cfi_restore 14
  57              		.cfi_restore 4
ARM GAS  /tmp/ccOKB5Xj.s 			page 2


  58              		.cfi_def_cfa_offset 0
  59              		.loc 1 223 0
  60 001e FFF7FEBF 		b	nvicEnableVector
  61              	.LVL1:
  62              	.L3:
  63 0022 00BF     		.align	2
  64              	.L2:
  65 0024 00000000 		.word	.LANCHOR0
  66 0028 00200140 		.word	1073815552
  67 002c 90000000 		.word	_stm32_dma_streams+144
  68 0030 162C0200 		.word	142358
  69              		.cfi_endproc
  70              	.LFE279:
  71              		.size	adc_lld_init, .-adc_lld_init
  72              		.section	.text.adc_lld_start,"ax",%progbits
  73              		.align	1
  74              		.global	adc_lld_start
  75              		.thumb
  76              		.thumb_func
  77              		.type	adc_lld_start, %function
  78              	adc_lld_start:
  79              	.LFB280:
  80              		.loc 1 233 0
  81              		.cfi_startproc
  82              		@ args = 0, pretend = 0, frame = 0
  83              		@ frame_needed = 0, uses_anonymous_args = 0
  84              	.LVL2:
  85              		.loc 1 236 0
  86 0000 0378     		ldrb	r3, [r0]	@ zero_extendqisi2
  87 0002 012B     		cmp	r3, #1
  88              		.loc 1 233 0
  89 0004 10B5     		push	{r4, lr}
  90              		.cfi_def_cfa_offset 8
  91              		.cfi_offset 4, -8
  92              		.cfi_offset 14, -4
  93              		.loc 1 233 0
  94 0006 0446     		mov	r4, r0
  95              		.loc 1 236 0
  96 0008 1ED1     		bne	.L4
  97              		.loc 1 238 0
  98 000a 104B     		ldr	r3, .L8
  99 000c 9842     		cmp	r0, r3
 100 000e 0ED1     		bne	.L6
 101              	.LBB43:
 102              		.loc 1 240 0
 103 0010 0F4A     		ldr	r2, .L8+4
 104 0012 C06A     		ldr	r0, [r0, #44]
 105              	.LVL3:
 106 0014 2346     		mov	r3, r4
 107 0016 0621     		movs	r1, #6
 108 0018 FFF7FEFF 		bl	dmaStreamAllocate
 109              	.LVL4:
 110              		.loc 1 245 0
 111 001c E36A     		ldr	r3, [r4, #44]
 112 001e 0D4A     		ldr	r2, .L8+8
 113 0020 1B68     		ldr	r3, [r3]
 114 0022 9A60     		str	r2, [r3, #8]
ARM GAS  /tmp/ccOKB5Xj.s 			page 3


 115              		.loc 1 246 0
 116 0024 0C4A     		ldr	r2, .L8+12
 117 0026 536C     		ldr	r3, [r2, #68]
 118 0028 43F48073 		orr	r3, r3, #256
 119 002c 5364     		str	r3, [r2, #68]
 120              	.L6:
 121              	.LBE43:
 122              		.loc 1 278 0
 123 002e 0B4A     		ldr	r2, .L8+16
 124 0030 5368     		ldr	r3, [r2, #4]
 125 0032 03F44003 		and	r3, r3, #12582912
 126 0036 43F48033 		orr	r3, r3, #65536
 127 003a 5360     		str	r3, [r2, #4]
 128              		.loc 1 283 0
 129 003c A36A     		ldr	r3, [r4, #40]
 130 003e 0022     		movs	r2, #0
 131 0040 5A60     		str	r2, [r3, #4]
 132              		.loc 1 284 0
 133 0042 9A60     		str	r2, [r3, #8]
 134              		.loc 1 285 0
 135 0044 0122     		movs	r2, #1
 136 0046 9A60     		str	r2, [r3, #8]
 137              	.L4:
 138 0048 10BD     		pop	{r4, pc}
 139              	.LVL5:
 140              	.L9:
 141 004a 00BF     		.align	2
 142              	.L8:
 143 004c 00000000 		.word	.LANCHOR0
 144 0050 00000000 		.word	adc_lld_serve_rx_interrupt
 145 0054 4C200140 		.word	1073815628
 146 0058 00380240 		.word	1073887232
 147 005c 00230140 		.word	1073816320
 148              		.cfi_endproc
 149              	.LFE280:
 150              		.size	adc_lld_start, .-adc_lld_start
 151              		.section	.text.adc_lld_stop,"ax",%progbits
 152              		.align	1
 153              		.global	adc_lld_stop
 154              		.thumb
 155              		.thumb_func
 156              		.type	adc_lld_stop, %function
 157              	adc_lld_stop:
 158              	.LFB281:
 159              		.loc 1 296 0
 160              		.cfi_startproc
 161              		@ args = 0, pretend = 0, frame = 0
 162              		@ frame_needed = 0, uses_anonymous_args = 0
 163              	.LVL6:
 164              		.loc 1 299 0
 165 0000 0378     		ldrb	r3, [r0]	@ zero_extendqisi2
 166 0002 022B     		cmp	r3, #2
 167              		.loc 1 296 0
 168 0004 10B5     		push	{r4, lr}
 169              		.cfi_def_cfa_offset 8
 170              		.cfi_offset 4, -8
 171              		.cfi_offset 14, -4
ARM GAS  /tmp/ccOKB5Xj.s 			page 4


 172              		.loc 1 296 0
 173 0006 0446     		mov	r4, r0
 174              		.loc 1 299 0
 175 0008 0ED1     		bne	.L10
 176              		.loc 1 300 0
 177 000a C06A     		ldr	r0, [r0, #44]
 178              	.LVL7:
 179 000c FFF7FEFF 		bl	dmaStreamRelease
 180              	.LVL8:
 181              		.loc 1 301 0
 182 0010 A36A     		ldr	r3, [r4, #40]
 183 0012 0022     		movs	r2, #0
 184 0014 5A60     		str	r2, [r3, #4]
 185              		.loc 1 302 0
 186 0016 9A60     		str	r2, [r3, #8]
 187              		.loc 1 305 0
 188 0018 044B     		ldr	r3, .L14
 189 001a 9C42     		cmp	r4, r3
 190              		.loc 1 306 0
 191 001c 01BF     		itttt	eq
 192 001e 044A     		ldreq	r2, .L14+4
 193 0020 536C     		ldreq	r3, [r2, #68]
 194 0022 23F48073 		biceq	r3, r3, #256
 195 0026 5364     		streq	r3, [r2, #68]
 196              	.L10:
 197 0028 10BD     		pop	{r4, pc}
 198              	.LVL9:
 199              	.L15:
 200 002a 00BF     		.align	2
 201              	.L14:
 202 002c 00000000 		.word	.LANCHOR0
 203 0030 00380240 		.word	1073887232
 204              		.cfi_endproc
 205              	.LFE281:
 206              		.size	adc_lld_stop, .-adc_lld_stop
 207              		.section	.text.adc_lld_start_conversion,"ax",%progbits
 208              		.align	1
 209              		.global	adc_lld_start_conversion
 210              		.thumb
 211              		.thumb_func
 212              		.type	adc_lld_start_conversion, %function
 213              	adc_lld_start_conversion:
 214              	.LFB282:
 215              		.loc 1 328 0
 216              		.cfi_startproc
 217              		@ args = 0, pretend = 0, frame = 0
 218              		@ frame_needed = 0, uses_anonymous_args = 0
 219              	.LVL10:
 220              		.loc 1 331 0
 221 0000 0369     		ldr	r3, [r0, #16]
 222              	.LVL11:
 223              		.loc 1 334 0
 224 0002 016B     		ldr	r1, [r0, #48]
 225              	.LVL12:
 226              		.loc 1 335 0
 227 0004 1A78     		ldrb	r2, [r3]	@ zero_extendqisi2
 228              		.loc 1 328 0
ARM GAS  /tmp/ccOKB5Xj.s 			page 5


 229 0006 30B5     		push	{r4, r5, lr}
 230              		.cfi_def_cfa_offset 12
 231              		.cfi_offset 4, -12
 232              		.cfi_offset 5, -8
 233              		.cfi_offset 14, -4
 234 0008 C568     		ldr	r5, [r0, #12]
 235              		.loc 1 335 0
 236 000a 2AB1     		cbz	r2, .L17
 237              	.LVL13:
 238              		.loc 1 337 0
 239 000c 012D     		cmp	r5, #1
 240              		.loc 1 336 0
 241 000e 94BF     		ite	ls
 242 0010 41F48071 		orrls	r1, r1, #256
 243              	.LVL14:
 244              		.loc 1 340 0
 245 0014 41F48471 		orrhi	r1, r1, #264
 246              	.LVL15:
 247              	.L17:
 248              		.loc 1 343 0
 249 0018 C26A     		ldr	r2, [r0, #44]
 250 001a 8468     		ldr	r4, [r0, #8]
 251 001c 1268     		ldr	r2, [r2]
 252 001e D460     		str	r4, [r2, #12]
 253              		.loc 1 344 0
 254 0020 5C88     		ldrh	r4, [r3, #2]
 255 0022 6543     		muls	r5, r4, r5
 256 0024 5560     		str	r5, [r2, #4]
 257              		.loc 1 346 0
 258 0026 1160     		str	r1, [r2]
 259              		.loc 1 347 0
 260 0028 1168     		ldr	r1, [r2]
 261              	.LVL16:
 262 002a 41F00101 		orr	r1, r1, #1
 263 002e 1160     		str	r1, [r2]
 264              	.LVL17:
 265              		.loc 1 350 0
 266 0030 826A     		ldr	r2, [r0, #40]
 267 0032 0021     		movs	r1, #0
 268 0034 1160     		str	r1, [r2]
 269              		.loc 1 351 0
 270 0036 5969     		ldr	r1, [r3, #20]
 271 0038 D160     		str	r1, [r2, #12]
 272              		.loc 1 352 0
 273 003a 9969     		ldr	r1, [r3, #24]
 274 003c 1161     		str	r1, [r2, #16]
 275              		.loc 1 353 0
 276 003e D969     		ldr	r1, [r3, #28]
 277 0040 013C     		subs	r4, r4, #1
 278 0042 41EA0454 		orr	r4, r1, r4, lsl #20
 279              		.loc 1 354 0
 280 0046 196A     		ldr	r1, [r3, #32]
 281              		.loc 1 353 0
 282 0048 D462     		str	r4, [r2, #44]
 283              		.loc 1 354 0
 284 004a 1163     		str	r1, [r2, #48]
 285              		.loc 1 355 0
ARM GAS  /tmp/ccOKB5Xj.s 			page 6


 286 004c 596A     		ldr	r1, [r3, #36]
 287 004e 5163     		str	r1, [r2, #52]
 288              		.loc 1 358 0
 289 0050 D968     		ldr	r1, [r3, #12]
 290              		.loc 1 361 0
 291 0052 1B69     		ldr	r3, [r3, #16]
 292              	.LVL18:
 293              		.loc 1 358 0
 294 0054 41F08061 		orr	r1, r1, #67108864
 295 0058 41F48071 		orr	r1, r1, #256
 296 005c 5160     		str	r1, [r2, #4]
 297              		.loc 1 365 0
 298 005e 5900     		lsls	r1, r3, #1
 299              		.loc 1 367 0
 300 0060 41BF     		itttt	mi
 301 0062 23F08041 		bicmi	r1, r3, #1073741824
 302 0066 21F00201 		bicmi	r1, r1, #2
 303 006a 41F44071 		orrmi	r1, r1, #768
 304              		.loc 1 370 0
 305 006e 43F44073 		orrmi	r3, r3, #768
 306              	.LVL19:
 307              		.loc 1 361 0
 308 0072 53BF     		iteet	pl
 309 0074 43F44073 		orrpl	r3, r3, #768
 310              		.loc 1 367 0
 311 0078 41F00301 		orrmi	r1, r1, #3
 312              		.loc 1 370 0
 313 007c 43F00303 		orrmi	r3, r3, #3
 314              		.loc 1 361 0
 315 0080 43F00103 		orrpl	r3, r3, #1
 316              		.loc 1 367 0
 317 0084 48BF     		it	mi
 318 0086 9160     		strmi	r1, [r2, #8]
 319              		.loc 1 373 0
 320 0088 9360     		str	r3, [r2, #8]
 321              	.LVL20:
 322 008a 30BD     		pop	{r4, r5, pc}
 323              		.cfi_endproc
 324              	.LFE282:
 325              		.size	adc_lld_start_conversion, .-adc_lld_start_conversion
 326              		.section	.text.adc_lld_stop_conversion,"ax",%progbits
 327              		.align	1
 328              		.global	adc_lld_stop_conversion
 329              		.thumb
 330              		.thumb_func
 331              		.type	adc_lld_stop_conversion, %function
 332              	adc_lld_stop_conversion:
 333              	.LFB283:
 334              		.loc 1 383 0
 335              		.cfi_startproc
 336              		@ args = 0, pretend = 0, frame = 0
 337              		@ frame_needed = 0, uses_anonymous_args = 0
 338              	.LVL21:
 339              		.loc 1 385 0
 340 0000 C26A     		ldr	r2, [r0, #44]
 341 0002 1168     		ldr	r1, [r2]
 342 0004 0B68     		ldr	r3, [r1]
ARM GAS  /tmp/ccOKB5Xj.s 			page 7


 343 0006 23F01F03 		bic	r3, r3, #31
 344              		.loc 1 383 0
 345 000a 10B5     		push	{r4, lr}
 346              		.cfi_def_cfa_offset 8
 347              		.cfi_offset 4, -8
 348              		.cfi_offset 14, -4
 349              		.loc 1 385 0
 350 000c 0B60     		str	r3, [r1]
 351              	.L26:
 352              		.loc 1 385 0 is_stmt 0 discriminator 2
 353 000e 0B68     		ldr	r3, [r1]
 354 0010 13F00103 		ands	r3, r3, #1
 355 0014 FBD1     		bne	.L26
 356              		.loc 1 385 0 discriminator 3
 357 0016 147A     		ldrb	r4, [r2, #8]	@ zero_extendqisi2
 358 0018 5168     		ldr	r1, [r2, #4]
 359 001a 3D22     		movs	r2, #61
 360 001c A240     		lsls	r2, r2, r4
 361 001e 0A60     		str	r2, [r1]
 362              		.loc 1 386 0 is_stmt 1 discriminator 3
 363 0020 826A     		ldr	r2, [r0, #40]
 364 0022 5360     		str	r3, [r2, #4]
 365              		.loc 1 387 0 discriminator 3
 366 0024 9360     		str	r3, [r2, #8]
 367              		.loc 1 388 0 discriminator 3
 368 0026 0123     		movs	r3, #1
 369 0028 9360     		str	r3, [r2, #8]
 370 002a 10BD     		pop	{r4, pc}
 371              		.cfi_endproc
 372              	.LFE283:
 373              		.size	adc_lld_stop_conversion, .-adc_lld_stop_conversion
 374              		.section	.text.Vector88,"ax",%progbits
 375              		.align	1
 376              		.global	Vector88
 377              		.thumb
 378              		.thumb_func
 379              		.type	Vector88, %function
 380              	Vector88:
 381              	.LFB278:
 382              		.loc 1 111 0
 383              		.cfi_startproc
 384              		@ args = 0, pretend = 0, frame = 0
 385              		@ frame_needed = 0, uses_anonymous_args = 0
 386 0000 38B5     		push	{r3, r4, r5, lr}
 387              		.cfi_def_cfa_offset 16
 388              		.cfi_offset 3, -16
 389              		.cfi_offset 4, -12
 390              		.cfi_offset 5, -8
 391              		.cfi_offset 14, -4
 392              		.loc 1 114 0
 393 0002 FFF7FEFF 		bl	_stats_increase_irq
 394              	.LVL22:
 395              		.loc 1 117 0
 396 0006 1B4B     		ldr	r3, .L42
 397 0008 1A68     		ldr	r2, [r3]
 398              	.LVL23:
 399              		.loc 1 118 0
ARM GAS  /tmp/ccOKB5Xj.s 			page 8


 400 000a 0021     		movs	r1, #0
 401 000c 1960     		str	r1, [r3]
 402              		.loc 1 121 0
 403 000e 9306     		lsls	r3, r2, #26
 404 0010 2BD5     		bpl	.L29
 405              		.loc 1 121 0 is_stmt 0 discriminator 1
 406 0012 194D     		ldr	r5, .L42+4
 407 0014 EB6A     		ldr	r3, [r5, #44]
 408 0016 1B68     		ldr	r3, [r3]
 409 0018 5B68     		ldr	r3, [r3, #4]
 410 001a 33B3     		cbz	r3, .L29
 411              		.loc 1 124 0 is_stmt 1
 412 001c 2B69     		ldr	r3, [r5, #16]
 413 001e 23B3     		cbz	r3, .L29
 414              		.loc 1 125 0
 415 0020 2846     		mov	r0, r5
 416 0022 FFF7FEFF 		bl	adc_lld_stop_conversion
 417              	.LVL24:
 418 0026 2B69     		ldr	r3, [r5, #16]
 419 0028 9B68     		ldr	r3, [r3, #8]
 420 002a 63B1     		cbz	r3, .L30
 421              		.loc 1 125 0 is_stmt 0 discriminator 1
 422 002c 0522     		movs	r2, #5
 423 002e 2A70     		strb	r2, [r5]
 424 0030 2846     		mov	r0, r5
 425 0032 0121     		movs	r1, #1
 426 0034 9847     		blx	r3
 427              	.LVL25:
 428 0036 2B78     		ldrb	r3, [r5]	@ zero_extendqisi2
 429 0038 052B     		cmp	r3, #5
 430 003a 04BF     		itt	eq
 431 003c 0223     		moveq	r3, #2
 432 003e 2B70     		strbeq	r3, [r5]
 433 0040 0023     		movs	r3, #0
 434 0042 2B61     		str	r3, [r5, #16]
 435 0044 02E0     		b	.L32
 436              	.L30:
 437              		.loc 1 125 0 discriminator 2
 438 0046 0222     		movs	r2, #2
 439 0048 2A70     		strb	r2, [r5]
 440 004a 2B61     		str	r3, [r5, #16]
 441              	.L32:
 442              	.LVL26:
 443              	.LBB62:
 444              	.LBB63:
 445              	.LBB64:
 446              	.LBB65:
 447              	.LBB66:
 448              	.LBB67:
 449              	.LBB68:
 450              		.file 2 "../../modules/ChibiOS/os/common/ext/CMSIS/include/cmsis_gcc.h"
 451              		.loc 2 264 0 is_stmt 1 discriminator 7
 452 004c 2023     		movs	r3, #32
 453              	@ 264 "../../modules/ChibiOS/os/common/ext/CMSIS/include/cmsis_gcc.h" 1
 454 004e 83F31188 		MSR basepri, r3
 455              	@ 0 "" 2
 456              		.thumb
ARM GAS  /tmp/ccOKB5Xj.s 			page 9


 457              	.LBE68:
 458              	.LBE67:
 459              	.LBE66:
 460              	.LBE65:
 461              		.file 3 "../../modules/ChibiOS/os/rt/include/chsys.h"
 462              		.loc 3 417 0 discriminator 7
 463 0052 FFF7FEFF 		bl	_stats_start_measure_crit_isr
 464              	.LVL27:
 465              	.LBE64:
 466              	.LBE63:
 467              	.LBE62:
 468              	.LBB69:
 469              	.LBB70:
 470              		.file 4 "../../modules/ChibiOS/os/hal/osal/rt/osal.h"
 471              		.loc 4 728 0 discriminator 7
 472 0056 0948     		ldr	r0, .L42+8
 473 0058 4FF0FF31 		mov	r1, #-1
 474 005c FFF7FEFF 		bl	chThdResumeI
 475              	.LVL28:
 476              	.LBE70:
 477              	.LBE69:
 478              	.LBB71:
 479              	.LBB72:
 480              	.LBB73:
 481              		.loc 3 437 0 discriminator 7
 482 0060 FFF7FEFF 		bl	_stats_stop_measure_crit_isr
 483              	.LVL29:
 484              	.LBB74:
 485              	.LBB75:
 486              	.LBB76:
 487              	.LBB77:
 488              		.loc 2 264 0 discriminator 7
 489 0064 0023     		movs	r3, #0
 490              	@ 264 "../../modules/ChibiOS/os/common/ext/CMSIS/include/cmsis_gcc.h" 1
 491 0066 83F31188 		MSR basepri, r3
 492              	@ 0 "" 2
 493              	.LVL30:
 494              		.thumb
 495              	.L29:
 496              	.LBE77:
 497              	.LBE76:
 498              	.LBE75:
 499              	.LBE74:
 500              	.LBE73:
 501              	.LBE72:
 502              	.LBE71:
 503              		.loc 1 168 0
 504 006a BDE83840 		pop	{r3, r4, r5, lr}
 505              		.cfi_restore 14
 506              		.cfi_restore 5
 507              		.cfi_restore 4
 508              		.cfi_restore 3
 509              		.cfi_def_cfa_offset 0
 510              		.loc 1 167 0
 511 006e FFF7FEBF 		b	_port_irq_epilogue
 512              	.LVL31:
 513              	.L43:
ARM GAS  /tmp/ccOKB5Xj.s 			page 10


 514 0072 00BF     		.align	2
 515              	.L42:
 516 0074 00200140 		.word	1073815552
 517 0078 00000000 		.word	.LANCHOR0
 518 007c 14000000 		.word	.LANCHOR0+20
 519              		.cfi_endproc
 520              	.LFE278:
 521              		.size	Vector88, .-Vector88
 522              		.section	.text.adc_lld_serve_rx_interrupt,"ax",%progbits
 523              		.align	1
 524              		.thumb
 525              		.thumb_func
 526              		.type	adc_lld_serve_rx_interrupt, %function
 527              	adc_lld_serve_rx_interrupt:
 528              	.LFB277:
 529              		.loc 1 75 0
 530              		.cfi_startproc
 531              		@ args = 0, pretend = 0, frame = 0
 532              		@ frame_needed = 0, uses_anonymous_args = 0
 533              	.LVL32:
 534              		.loc 1 78 0
 535 0000 11F00C0F 		tst	r1, #12
 536              		.loc 1 75 0
 537 0004 70B5     		push	{r4, r5, r6, lr}
 538              		.cfi_def_cfa_offset 16
 539              		.cfi_offset 4, -16
 540              		.cfi_offset 5, -12
 541              		.cfi_offset 6, -8
 542              		.cfi_offset 14, -4
 543              		.loc 1 75 0
 544 0006 0446     		mov	r4, r0
 545              		.loc 1 78 0
 546 0008 1DD0     		beq	.L45
 547              		.loc 1 81 0
 548 000a FFF7FEFF 		bl	adc_lld_stop_conversion
 549              	.LVL33:
 550 000e 2369     		ldr	r3, [r4, #16]
 551 0010 9B68     		ldr	r3, [r3, #8]
 552 0012 5BB1     		cbz	r3, .L46
 553              		.loc 1 81 0 is_stmt 0 discriminator 1
 554 0014 0522     		movs	r2, #5
 555 0016 2270     		strb	r2, [r4]
 556 0018 2046     		mov	r0, r4
 557 001a 0021     		movs	r1, #0
 558 001c 9847     		blx	r3
 559              	.LVL34:
 560 001e 2378     		ldrb	r3, [r4]	@ zero_extendqisi2
 561 0020 052B     		cmp	r3, #5
 562 0022 04BF     		itt	eq
 563 0024 0223     		moveq	r3, #2
 564 0026 2370     		strbeq	r3, [r4]
 565 0028 0023     		movs	r3, #0
 566 002a 01E0     		b	.L70
 567              	.L46:
 568              		.loc 1 81 0 discriminator 2
 569 002c 0222     		movs	r2, #2
 570 002e 2270     		strb	r2, [r4]
ARM GAS  /tmp/ccOKB5Xj.s 			page 11


 571              	.L70:
 572 0030 2361     		str	r3, [r4, #16]
 573              	.LVL35:
 574              	.LBB115:
 575              	.LBB116:
 576              	.LBB117:
 577              	.LBB118:
 578              	.LBB119:
 579              	.LBB120:
 580              	.LBB121:
 581              		.loc 2 264 0 is_stmt 1 discriminator 2
 582 0032 2023     		movs	r3, #32
 583              	@ 264 "../../modules/ChibiOS/os/common/ext/CMSIS/include/cmsis_gcc.h" 1
 584 0034 83F31188 		MSR basepri, r3
 585              	@ 0 "" 2
 586              		.thumb
 587              	.LBE121:
 588              	.LBE120:
 589              	.LBE119:
 590              	.LBE118:
 591              		.loc 3 417 0 discriminator 2
 592 0038 FFF7FEFF 		bl	_stats_start_measure_crit_isr
 593              	.LVL36:
 594              	.LBE117:
 595              	.LBE116:
 596              	.LBE115:
 597              	.LBB122:
 598              	.LBB123:
 599              		.loc 4 728 0 discriminator 2
 600 003c 04F11400 		add	r0, r4, #20
 601              	.LVL37:
 602 0040 4FF0FF31 		mov	r1, #-1
 603 0044 30E0     		b	.L72
 604              	.LVL38:
 605              	.L45:
 606              	.LBE123:
 607              	.LBE122:
 608              		.loc 1 86 0
 609 0046 0369     		ldr	r3, [r0, #16]
 610 0048 002B     		cmp	r3, #0
 611 004a 3FD0     		beq	.L44
 612              		.loc 1 88 0
 613 004c 8D06     		lsls	r5, r1, #26
 614 004e 33D5     		bpl	.L50
 615              		.loc 1 90 0
 616 0050 1A78     		ldrb	r2, [r3]	@ zero_extendqisi2
 617 0052 7AB1     		cbz	r2, .L51
 618              		.loc 1 90 0 is_stmt 0 discriminator 1
 619 0054 5D68     		ldr	r5, [r3, #4]
 620 0056 002D     		cmp	r5, #0
 621 0058 38D0     		beq	.L44
 622              		.loc 1 90 0 discriminator 3
 623 005a C268     		ldr	r2, [r0, #12]
 624 005c 012A     		cmp	r2, #1
 625              	.LBB124:
 626 005e 85BF     		ittet	hi
 627 0060 5B88     		ldrhhi	r3, [r3, #2]
ARM GAS  /tmp/ccOKB5Xj.s 			page 12


 628 0062 8168     		ldrhi	r1, [r0, #8]
 629              	.LVL39:
 630              	.LBE124:
 631 0064 8168     		ldrls	r1, [r0, #8]
 632              	.LBB125:
 633 0066 5208     		lsrhi	r2, r2, #1
 634              	.LVL40:
 635 0068 84BF     		itt	hi
 636 006a 5343     		mulhi	r3, r3, r2
 637 006c 01EB4301 		addhi	r1, r1, r3, lsl #1
 638              	.LBE125:
 639 0070 2B46     		mov	r3, r5
 640 0072 28E0     		b	.L71
 641              	.LVL41:
 642              	.L51:
 643              		.loc 1 90 0 discriminator 2
 644 0074 FFF7FEFF 		bl	adc_lld_stop_conversion
 645              	.LVL42:
 646 0078 2369     		ldr	r3, [r4, #16]
 647 007a 5B68     		ldr	r3, [r3, #4]
 648 007c 43B1     		cbz	r3, .L53
 649              		.loc 1 90 0 discriminator 6
 650 007e 0422     		movs	r2, #4
 651 0080 2270     		strb	r2, [r4]
 652 0082 2046     		mov	r0, r4
 653 0084 A168     		ldr	r1, [r4, #8]
 654 0086 E268     		ldr	r2, [r4, #12]
 655 0088 9847     		blx	r3
 656              	.LVL43:
 657 008a 2378     		ldrb	r3, [r4]	@ zero_extendqisi2
 658 008c 042B     		cmp	r3, #4
 659 008e 03D1     		bne	.L54
 660              	.L53:
 661              		.loc 1 90 0 discriminator 8
 662 0090 0223     		movs	r3, #2
 663 0092 2370     		strb	r3, [r4]
 664 0094 0023     		movs	r3, #0
 665 0096 2361     		str	r3, [r4, #16]
 666              	.L54:
 667              	.LVL44:
 668              	.LBB126:
 669              	.LBB127:
 670              	.LBB128:
 671              	.LBB129:
 672              	.LBB130:
 673              	.LBB131:
 674              	.LBB132:
 675              		.loc 2 264 0 is_stmt 1 discriminator 9
 676 0098 2023     		movs	r3, #32
 677              	@ 264 "../../modules/ChibiOS/os/common/ext/CMSIS/include/cmsis_gcc.h" 1
 678 009a 83F31188 		MSR basepri, r3
 679              	@ 0 "" 2
 680              		.thumb
 681              	.LBE132:
 682              	.LBE131:
 683              	.LBE130:
 684              	.LBE129:
ARM GAS  /tmp/ccOKB5Xj.s 			page 13


 685              		.loc 3 417 0 discriminator 9
 686 009e FFF7FEFF 		bl	_stats_start_measure_crit_isr
 687              	.LVL45:
 688              	.LBE128:
 689              	.LBE127:
 690              	.LBE126:
 691              	.LBB133:
 692              	.LBB134:
 693              		.loc 4 728 0 discriminator 9
 694 00a2 04F11400 		add	r0, r4, #20
 695              	.LVL46:
 696 00a6 0021     		movs	r1, #0
 697              	.LVL47:
 698              	.L72:
 699 00a8 FFF7FEFF 		bl	chThdResumeI
 700              	.LVL48:
 701              	.LBE134:
 702              	.LBE133:
 703              	.LBB135:
 704              	.LBB136:
 705              	.LBB137:
 706              		.loc 3 437 0 discriminator 9
 707 00ac FFF7FEFF 		bl	_stats_stop_measure_crit_isr
 708              	.LVL49:
 709              	.LBB138:
 710              	.LBB139:
 711              	.LBB140:
 712              	.LBB141:
 713              		.loc 2 264 0 discriminator 9
 714 00b0 0023     		movs	r3, #0
 715              	@ 264 "../../modules/ChibiOS/os/common/ext/CMSIS/include/cmsis_gcc.h" 1
 716 00b2 83F31188 		MSR basepri, r3
 717              	@ 0 "" 2
 718              		.thumb
 719 00b6 70BD     		pop	{r4, r5, r6, pc}
 720              	.LVL50:
 721              	.L50:
 722              	.LBE141:
 723              	.LBE140:
 724              	.LBE139:
 725              	.LBE138:
 726              	.LBE137:
 727              	.LBE136:
 728              	.LBE135:
 729              		.loc 1 92 0
 730 00b8 CA06     		lsls	r2, r1, #27
 731 00ba 07D5     		bpl	.L44
 732              		.loc 1 94 0
 733 00bc 5B68     		ldr	r3, [r3, #4]
 734 00be 2BB1     		cbz	r3, .L44
 735              		.loc 1 94 0 is_stmt 0 discriminator 1
 736 00c0 C268     		ldr	r2, [r0, #12]
 737 00c2 8168     		ldr	r1, [r0, #8]
 738              	.LVL51:
 739 00c4 5208     		lsrs	r2, r2, #1
 740              	.L71:
 741              		.loc 1 98 0 is_stmt 1 discriminator 1
ARM GAS  /tmp/ccOKB5Xj.s 			page 14


 742 00c6 BDE87040 		pop	{r4, r5, r6, lr}
 743              		.cfi_remember_state
 744              		.cfi_restore 14
 745              		.cfi_restore 6
 746              		.cfi_restore 5
 747              		.cfi_restore 4
 748              		.cfi_def_cfa_offset 0
 749              		.loc 1 94 0 discriminator 1
 750 00ca 1847     		bx	r3	@ indirect register sibling call
 751              	.LVL52:
 752              	.L44:
 753              		.cfi_restore_state
 754 00cc 70BD     		pop	{r4, r5, r6, pc}
 755              		.cfi_endproc
 756              	.LFE277:
 757              		.size	adc_lld_serve_rx_interrupt, .-adc_lld_serve_rx_interrupt
 758              		.section	.text.adcSTM32EnableTSVREFE,"ax",%progbits
 759              		.align	1
 760              		.global	adcSTM32EnableTSVREFE
 761              		.thumb
 762              		.thumb_func
 763              		.type	adcSTM32EnableTSVREFE, %function
 764              	adcSTM32EnableTSVREFE:
 765              	.LFB284:
 766              		.loc 1 397 0
 767              		.cfi_startproc
 768              		@ args = 0, pretend = 0, frame = 0
 769              		@ frame_needed = 0, uses_anonymous_args = 0
 770              		@ link register save eliminated.
 771              		.loc 1 399 0
 772 0000 024A     		ldr	r2, .L75
 773 0002 5368     		ldr	r3, [r2, #4]
 774 0004 43F40003 		orr	r3, r3, #8388608
 775 0008 5360     		str	r3, [r2, #4]
 776 000a 7047     		bx	lr
 777              	.L76:
 778              		.align	2
 779              	.L75:
 780 000c 00230140 		.word	1073816320
 781              		.cfi_endproc
 782              	.LFE284:
 783              		.size	adcSTM32EnableTSVREFE, .-adcSTM32EnableTSVREFE
 784              		.section	.text.adcSTM32DisableTSVREFE,"ax",%progbits
 785              		.align	1
 786              		.global	adcSTM32DisableTSVREFE
 787              		.thumb
 788              		.thumb_func
 789              		.type	adcSTM32DisableTSVREFE, %function
 790              	adcSTM32DisableTSVREFE:
 791              	.LFB285:
 792              		.loc 1 408 0
 793              		.cfi_startproc
 794              		@ args = 0, pretend = 0, frame = 0
 795              		@ frame_needed = 0, uses_anonymous_args = 0
 796              		@ link register save eliminated.
 797              		.loc 1 410 0
 798 0000 024A     		ldr	r2, .L78
ARM GAS  /tmp/ccOKB5Xj.s 			page 15


 799 0002 5368     		ldr	r3, [r2, #4]
 800 0004 23F40003 		bic	r3, r3, #8388608
 801 0008 5360     		str	r3, [r2, #4]
 802 000a 7047     		bx	lr
 803              	.L79:
 804              		.align	2
 805              	.L78:
 806 000c 00230140 		.word	1073816320
 807              		.cfi_endproc
 808              	.LFE285:
 809              		.size	adcSTM32DisableTSVREFE, .-adcSTM32DisableTSVREFE
 810              		.section	.text.adcSTM32EnableVBATE,"ax",%progbits
 811              		.align	1
 812              		.global	adcSTM32EnableVBATE
 813              		.thumb
 814              		.thumb_func
 815              		.type	adcSTM32EnableVBATE, %function
 816              	adcSTM32EnableVBATE:
 817              	.LFB286:
 818              		.loc 1 419 0
 819              		.cfi_startproc
 820              		@ args = 0, pretend = 0, frame = 0
 821              		@ frame_needed = 0, uses_anonymous_args = 0
 822              		@ link register save eliminated.
 823              		.loc 1 421 0
 824 0000 024A     		ldr	r2, .L81
 825 0002 5368     		ldr	r3, [r2, #4]
 826 0004 43F48003 		orr	r3, r3, #4194304
 827 0008 5360     		str	r3, [r2, #4]
 828 000a 7047     		bx	lr
 829              	.L82:
 830              		.align	2
 831              	.L81:
 832 000c 00230140 		.word	1073816320
 833              		.cfi_endproc
 834              	.LFE286:
 835              		.size	adcSTM32EnableVBATE, .-adcSTM32EnableVBATE
 836              		.section	.text.adcSTM32DisableVBATE,"ax",%progbits
 837              		.align	1
 838              		.global	adcSTM32DisableVBATE
 839              		.thumb
 840              		.thumb_func
 841              		.type	adcSTM32DisableVBATE, %function
 842              	adcSTM32DisableVBATE:
 843              	.LFB287:
 844              		.loc 1 430 0
 845              		.cfi_startproc
 846              		@ args = 0, pretend = 0, frame = 0
 847              		@ frame_needed = 0, uses_anonymous_args = 0
 848              		@ link register save eliminated.
 849              		.loc 1 432 0
 850 0000 024A     		ldr	r2, .L84
 851 0002 5368     		ldr	r3, [r2, #4]
 852 0004 23F48003 		bic	r3, r3, #4194304
 853 0008 5360     		str	r3, [r2, #4]
 854 000a 7047     		bx	lr
 855              	.L85:
ARM GAS  /tmp/ccOKB5Xj.s 			page 16


 856              		.align	2
 857              	.L84:
 858 000c 00230140 		.word	1073816320
 859              		.cfi_endproc
 860              	.LFE287:
 861              		.size	adcSTM32DisableVBATE, .-adcSTM32DisableVBATE
 862              		.global	ADCD1
 863              		.section	.bss.ADCD1,"aw",%nobits
 864              		.align	2
 865              		.set	.LANCHOR0,. + 0
 866              		.type	ADCD1, %object
 867              		.size	ADCD1, 52
 868              	ADCD1:
 869 0000 00000000 		.space	52
 869      00000000 
 869      00000000 
 869      00000000 
 869      00000000 
 870              		.text
 871              	.Letext0:
 872              		.file 5 "/usr/lib/gcc/arm-none-eabi/4.9.3/include/stddef.h"
 873              		.file 6 "/usr/include/newlib/machine/_default_types.h"
 874              		.file 7 "/usr/include/newlib/sys/_stdint.h"
 875              		.file 8 "../../modules/ChibiOS/os/common/ports/ARMCMx/compilers/GCC/chtypes.h"
 876              		.file 9 "../../modules/ChibiOS/os/rt/include/chsystypes.h"
 877              		.file 10 "../../modules/ChibiOS/os/rt/include/chschd.h"
 878              		.file 11 "../../modules/ChibiOS/os/common/ext/CMSIS/ST/STM32F4xx/stm32f407xx.h"
 879              		.file 12 "../../modules/ChibiOS/os/common/ports/ARMCMx/chcore.h"
 880              		.file 13 "../../modules/ChibiOS/os/common/ports/ARMCMx/chcore_v7m.h"
 881              		.file 14 "../../modules/ChibiOS/os/rt/include/chtm.h"
 882              		.file 15 "../../modules/ChibiOS/os/rt/include/chstats.h"
 883              		.file 16 "../../modules/ChibiOS/os/rt/include/chsem.h"
 884              		.file 17 "../../modules/ChibiOS/os/rt/include/chmtx.h"
 885              		.file 18 "../../modules/ChibiOS/os/hal/ports/STM32/LLD/DMAv2/stm32_dma.h"
 886              		.file 19 "../../modules/ChibiOS/os/hal/include/hal_adc.h"
 887              		.file 20 "../../modules/ChibiOS/os/hal/ports/STM32/LLD/ADCv2/hal_adc_lld.h"
 888              		.file 21 "../../modules/ChibiOS/os/common/ext/CMSIS/include/core_cm4.h"
 889              		.file 22 "../../modules/ChibiOS/os/hal/ports/common/ARMCMx/nvic.h"
 890              		.file 23 "../../modules/ChibiOS/os/rt/include/chthreads.h"
 891              		.section	.debug_info,"",%progbits
 892              	.Ldebug_info0:
 893 0000 8B140000 		.4byte	0x148b
 894 0004 0400     		.2byte	0x4
 895 0006 00000000 		.4byte	.Ldebug_abbrev0
 896 000a 04       		.byte	0x4
 897 000b 01       		.uleb128 0x1
 898 000c 9E070000 		.4byte	.LASF233
 899 0010 01       		.byte	0x1
 900 0011 8D060000 		.4byte	.LASF234
 901 0015 CE060000 		.4byte	.LASF235
 902 0019 18000000 		.4byte	.Ldebug_ranges0+0x18
 903 001d 00000000 		.4byte	0
 904 0021 00000000 		.4byte	.Ldebug_line0
 905 0025 02       		.uleb128 0x2
 906 0026 04       		.byte	0x4
 907 0027 05       		.byte	0x5
 908 0028 696E7400 		.ascii	"int\000"
ARM GAS  /tmp/ccOKB5Xj.s 			page 17


 909 002c 03       		.uleb128 0x3
 910 002d 18000000 		.4byte	.LASF2
 911 0031 05       		.byte	0x5
 912 0032 D4       		.byte	0xd4
 913 0033 37000000 		.4byte	0x37
 914 0037 04       		.uleb128 0x4
 915 0038 04       		.byte	0x4
 916 0039 07       		.byte	0x7
 917 003a F0050000 		.4byte	.LASF0
 918 003e 04       		.uleb128 0x4
 919 003f 01       		.byte	0x1
 920 0040 06       		.byte	0x6
 921 0041 36020000 		.4byte	.LASF1
 922 0045 03       		.uleb128 0x3
 923 0046 6C010000 		.4byte	.LASF3
 924 004a 06       		.byte	0x6
 925 004b 1D       		.byte	0x1d
 926 004c 50000000 		.4byte	0x50
 927 0050 04       		.uleb128 0x4
 928 0051 01       		.byte	0x1
 929 0052 08       		.byte	0x8
 930 0053 8A020000 		.4byte	.LASF4
 931 0057 04       		.uleb128 0x4
 932 0058 02       		.byte	0x2
 933 0059 05       		.byte	0x5
 934 005a B9090000 		.4byte	.LASF5
 935 005e 03       		.uleb128 0x3
 936 005f 33030000 		.4byte	.LASF6
 937 0063 06       		.byte	0x6
 938 0064 2B       		.byte	0x2b
 939 0065 69000000 		.4byte	0x69
 940 0069 04       		.uleb128 0x4
 941 006a 02       		.byte	0x2
 942 006b 07       		.byte	0x7
 943 006c DB0A0000 		.4byte	.LASF7
 944 0070 03       		.uleb128 0x3
 945 0071 FA0A0000 		.4byte	.LASF8
 946 0075 06       		.byte	0x6
 947 0076 3F       		.byte	0x3f
 948 0077 7B000000 		.4byte	0x7b
 949 007b 04       		.uleb128 0x4
 950 007c 04       		.byte	0x4
 951 007d 05       		.byte	0x5
 952 007e 96010000 		.4byte	.LASF9
 953 0082 03       		.uleb128 0x3
 954 0083 54050000 		.4byte	.LASF10
 955 0087 06       		.byte	0x6
 956 0088 41       		.byte	0x41
 957 0089 8D000000 		.4byte	0x8d
 958 008d 04       		.uleb128 0x4
 959 008e 04       		.byte	0x4
 960 008f 07       		.byte	0x7
 961 0090 51040000 		.4byte	.LASF11
 962 0094 04       		.uleb128 0x4
 963 0095 08       		.byte	0x8
 964 0096 05       		.byte	0x5
 965 0097 67050000 		.4byte	.LASF12
ARM GAS  /tmp/ccOKB5Xj.s 			page 18


 966 009b 03       		.uleb128 0x3
 967 009c 46040000 		.4byte	.LASF13
 968 00a0 06       		.byte	0x6
 969 00a1 5B       		.byte	0x5b
 970 00a2 A6000000 		.4byte	0xa6
 971 00a6 04       		.uleb128 0x4
 972 00a7 08       		.byte	0x8
 973 00a8 07       		.byte	0x7
 974 00a9 7E070000 		.4byte	.LASF14
 975 00ad 03       		.uleb128 0x3
 976 00ae 49020000 		.4byte	.LASF15
 977 00b2 07       		.byte	0x7
 978 00b3 14       		.byte	0x14
 979 00b4 45000000 		.4byte	0x45
 980 00b8 03       		.uleb128 0x3
 981 00b9 95070000 		.4byte	.LASF16
 982 00bd 07       		.byte	0x7
 983 00be 1A       		.byte	0x1a
 984 00bf 5E000000 		.4byte	0x5e
 985 00c3 03       		.uleb128 0x3
 986 00c4 87000000 		.4byte	.LASF17
 987 00c8 07       		.byte	0x7
 988 00c9 1F       		.byte	0x1f
 989 00ca 70000000 		.4byte	0x70
 990 00ce 03       		.uleb128 0x3
 991 00cf B00A0000 		.4byte	.LASF18
 992 00d3 07       		.byte	0x7
 993 00d4 20       		.byte	0x20
 994 00d5 82000000 		.4byte	0x82
 995 00d9 03       		.uleb128 0x3
 996 00da C3090000 		.4byte	.LASF19
 997 00de 07       		.byte	0x7
 998 00df 26       		.byte	0x26
 999 00e0 9B000000 		.4byte	0x9b
 1000 00e4 03       		.uleb128 0x3
 1001 00e5 FD050000 		.4byte	.LASF20
 1002 00e9 08       		.byte	0x8
 1003 00ea 39       		.byte	0x39
 1004 00eb CE000000 		.4byte	0xce
 1005 00ef 03       		.uleb128 0x3
 1006 00f0 E1010000 		.4byte	.LASF21
 1007 00f4 08       		.byte	0x8
 1008 00f5 3A       		.byte	0x3a
 1009 00f6 D9000000 		.4byte	0xd9
 1010 00fa 03       		.uleb128 0x3
 1011 00fb 4C090000 		.4byte	.LASF22
 1012 00ff 08       		.byte	0x8
 1013 0100 3C       		.byte	0x3c
 1014 0101 AD000000 		.4byte	0xad
 1015 0105 03       		.uleb128 0x3
 1016 0106 D8010000 		.4byte	.LASF23
 1017 010a 08       		.byte	0x8
 1018 010b 3D       		.byte	0x3d
 1019 010c AD000000 		.4byte	0xad
 1020 0110 03       		.uleb128 0x3
 1021 0111 660A0000 		.4byte	.LASF24
 1022 0115 08       		.byte	0x8
ARM GAS  /tmp/ccOKB5Xj.s 			page 19


 1023 0116 3E       		.byte	0x3e
 1024 0117 AD000000 		.4byte	0xad
 1025 011b 03       		.uleb128 0x3
 1026 011c 62000000 		.4byte	.LASF25
 1027 0120 08       		.byte	0x8
 1028 0121 40       		.byte	0x40
 1029 0122 CE000000 		.4byte	0xce
 1030 0126 03       		.uleb128 0x3
 1031 0127 8D080000 		.4byte	.LASF26
 1032 012b 08       		.byte	0x8
 1033 012c 41       		.byte	0x41
 1034 012d C3000000 		.4byte	0xc3
 1035 0131 03       		.uleb128 0x3
 1036 0132 51020000 		.4byte	.LASF27
 1037 0136 08       		.byte	0x8
 1038 0137 43       		.byte	0x43
 1039 0138 CE000000 		.4byte	0xce
 1040 013c 03       		.uleb128 0x3
 1041 013d E1030000 		.4byte	.LASF28
 1042 0141 08       		.byte	0x8
 1043 0142 45       		.byte	0x45
 1044 0143 C3000000 		.4byte	0xc3
 1045 0147 03       		.uleb128 0x3
 1046 0148 EA040000 		.4byte	.LASF29
 1047 014c 08       		.byte	0x8
 1048 014d 46       		.byte	0x46
 1049 014e CE000000 		.4byte	0xce
 1050 0152 03       		.uleb128 0x3
 1051 0153 47000000 		.4byte	.LASF30
 1052 0157 09       		.byte	0x9
 1053 0158 33       		.byte	0x33
 1054 0159 CE000000 		.4byte	0xce
 1055 015d 03       		.uleb128 0x3
 1056 015e FD060000 		.4byte	.LASF31
 1057 0162 09       		.byte	0x9
 1058 0163 3F       		.byte	0x3f
 1059 0164 68010000 		.4byte	0x168
 1060 0168 05       		.uleb128 0x5
 1061 0169 7F040000 		.4byte	.LASF50
 1062 016d 60       		.byte	0x60
 1063 016e 0A       		.byte	0xa
 1064 016f 9A       		.byte	0x9a
 1065 0170 53020000 		.4byte	0x253
 1066 0174 06       		.uleb128 0x6
 1067 0175 D7080000 		.4byte	.LASF32
 1068 0179 0A       		.byte	0xa
 1069 017a 9B       		.byte	0x9b
 1070 017b 88020000 		.4byte	0x288
 1071 017f 00       		.byte	0
 1072 0180 06       		.uleb128 0x6
 1073 0181 45010000 		.4byte	.LASF33
 1074 0185 0A       		.byte	0xa
 1075 0186 9C       		.byte	0x9c
 1076 0187 1B010000 		.4byte	0x11b
 1077 018b 08       		.byte	0x8
 1078 018c 07       		.uleb128 0x7
 1079 018d 63747800 		.ascii	"ctx\000"
ARM GAS  /tmp/ccOKB5Xj.s 			page 20


 1080 0191 0A       		.byte	0xa
 1081 0192 9D       		.byte	0x9d
 1082 0193 DA070000 		.4byte	0x7da
 1083 0197 0C       		.byte	0xc
 1084 0198 06       		.uleb128 0x6
 1085 0199 940A0000 		.4byte	.LASF34
 1086 019d 0A       		.byte	0xa
 1087 019e 9F       		.byte	0x9f
 1088 019f 5E020000 		.4byte	0x25e
 1089 01a3 10       		.byte	0x10
 1090 01a4 06       		.uleb128 0x6
 1091 01a5 DB040000 		.4byte	.LASF35
 1092 01a9 0A       		.byte	0xa
 1093 01aa A0       		.byte	0xa0
 1094 01ab 5E020000 		.4byte	0x25e
 1095 01af 14       		.byte	0x14
 1096 01b0 06       		.uleb128 0x6
 1097 01b1 9E090000 		.4byte	.LASF36
 1098 01b5 0A       		.byte	0xa
 1099 01b6 A7       		.byte	0xa7
 1100 01b7 C10A0000 		.4byte	0xac1
 1101 01bb 18       		.byte	0x18
 1102 01bc 06       		.uleb128 0x6
 1103 01bd 3F090000 		.4byte	.LASF37
 1104 01c1 0A       		.byte	0xa
 1105 01c2 B0       		.byte	0xb0
 1106 01c3 D30A0000 		.4byte	0xad3
 1107 01c7 1C       		.byte	0x1c
 1108 01c8 06       		.uleb128 0x6
 1109 01c9 08010000 		.4byte	.LASF38
 1110 01cd 0A       		.byte	0xa
 1111 01ce B5       		.byte	0xb5
 1112 01cf 05010000 		.4byte	0x105
 1113 01d3 20       		.byte	0x20
 1114 01d4 06       		.uleb128 0x6
 1115 01d5 60030000 		.4byte	.LASF39
 1116 01d9 0A       		.byte	0xa
 1117 01da B9       		.byte	0xb9
 1118 01db FA000000 		.4byte	0xfa
 1119 01df 21       		.byte	0x21
 1120 01e0 06       		.uleb128 0x6
 1121 01e1 D2080000 		.4byte	.LASF40
 1122 01e5 0A       		.byte	0xa
 1123 01e6 BE       		.byte	0xbe
 1124 01e7 10010000 		.4byte	0x110
 1125 01eb 22       		.byte	0x22
 1126 01ec 08       		.uleb128 0x8
 1127 01ed 7500     		.ascii	"u\000"
 1128 01ef 0A       		.byte	0xa
 1129 01f0 0F01     		.2byte	0x10f
 1130 01f2 F6090000 		.4byte	0x9f6
 1131 01f6 24       		.byte	0x24
 1132 01f7 09       		.uleb128 0x9
 1133 01f8 380A0000 		.4byte	.LASF41
 1134 01fc 0A       		.byte	0xa
 1135 01fd 1401     		.2byte	0x114
 1136 01ff 64020000 		.4byte	0x264
ARM GAS  /tmp/ccOKB5Xj.s 			page 21


 1137 0203 28       		.byte	0x28
 1138 0204 09       		.uleb128 0x9
 1139 0205 EB090000 		.4byte	.LASF42
 1140 0209 0A       		.byte	0xa
 1141 020a 1A01     		.2byte	0x11a
 1142 020c 88020000 		.4byte	0x288
 1143 0210 2C       		.byte	0x2c
 1144 0211 09       		.uleb128 0x9
 1145 0212 DD080000 		.4byte	.LASF43
 1146 0216 0A       		.byte	0xa
 1147 0217 2001     		.2byte	0x120
 1148 0219 31010000 		.4byte	0x131
 1149 021d 34       		.byte	0x34
 1150 021e 09       		.uleb128 0x9
 1151 021f 5F050000 		.4byte	.LASF44
 1152 0223 0A       		.byte	0xa
 1153 0224 2701     		.2byte	0x127
 1154 0226 BB0A0000 		.4byte	0xabb
 1155 022a 38       		.byte	0x38
 1156 022b 09       		.uleb128 0x9
 1157 022c E1040000 		.4byte	.LASF45
 1158 0230 0A       		.byte	0xa
 1159 0231 2B01     		.2byte	0x12b
 1160 0233 1B010000 		.4byte	0x11b
 1161 0237 3C       		.byte	0x3c
 1162 0238 09       		.uleb128 0x9
 1163 0239 7F030000 		.4byte	.LASF46
 1164 023d 0A       		.byte	0xa
 1165 023e 3201     		.2byte	0x132
 1166 0240 3B030000 		.4byte	0x33b
 1167 0244 40       		.byte	0x40
 1168 0245 09       		.uleb128 0x9
 1169 0246 0E010000 		.4byte	.LASF47
 1170 024a 0A       		.byte	0xa
 1171 024b 3801     		.2byte	0x138
 1172 024d A7090000 		.4byte	0x9a7
 1173 0251 48       		.byte	0x48
 1174 0252 00       		.byte	0
 1175 0253 03       		.uleb128 0x3
 1176 0254 06070000 		.4byte	.LASF48
 1177 0258 09       		.byte	0x9
 1178 0259 44       		.byte	0x44
 1179 025a 5E020000 		.4byte	0x25e
 1180 025e 0A       		.uleb128 0xa
 1181 025f 04       		.byte	0x4
 1182 0260 5D010000 		.4byte	0x15d
 1183 0264 03       		.uleb128 0x3
 1184 0265 7B0A0000 		.4byte	.LASF49
 1185 0269 09       		.byte	0x9
 1186 026a 49       		.byte	0x49
 1187 026b 6F020000 		.4byte	0x26f
 1188 026f 05       		.uleb128 0x5
 1189 0270 11050000 		.4byte	.LASF51
 1190 0274 04       		.byte	0x4
 1191 0275 0A       		.byte	0xa
 1192 0276 88       		.byte	0x88
 1193 0277 88020000 		.4byte	0x288
ARM GAS  /tmp/ccOKB5Xj.s 			page 22


 1194 027b 06       		.uleb128 0x6
 1195 027c 1C0B0000 		.4byte	.LASF52
 1196 0280 0A       		.byte	0xa
 1197 0281 89       		.byte	0x89
 1198 0282 5E020000 		.4byte	0x25e
 1199 0286 00       		.byte	0
 1200 0287 00       		.byte	0
 1201 0288 03       		.uleb128 0x3
 1202 0289 EA010000 		.4byte	.LASF53
 1203 028d 09       		.byte	0x9
 1204 028e 50       		.byte	0x50
 1205 028f 93020000 		.4byte	0x293
 1206 0293 05       		.uleb128 0x5
 1207 0294 93080000 		.4byte	.LASF54
 1208 0298 08       		.byte	0x8
 1209 0299 0A       		.byte	0xa
 1210 029a 8F       		.byte	0x8f
 1211 029b B8020000 		.4byte	0x2b8
 1212 029f 06       		.uleb128 0x6
 1213 02a0 1C0B0000 		.4byte	.LASF52
 1214 02a4 0A       		.byte	0xa
 1215 02a5 90       		.byte	0x90
 1216 02a6 5E020000 		.4byte	0x25e
 1217 02aa 00       		.byte	0
 1218 02ab 06       		.uleb128 0x6
 1219 02ac 210B0000 		.4byte	.LASF55
 1220 02b0 0A       		.byte	0xa
 1221 02b1 91       		.byte	0x91
 1222 02b2 5E020000 		.4byte	0x25e
 1223 02b6 04       		.byte	0x4
 1224 02b7 00       		.byte	0
 1225 02b8 03       		.uleb128 0x3
 1226 02b9 CE040000 		.4byte	.LASF56
 1227 02bd 09       		.byte	0x9
 1228 02be 57       		.byte	0x57
 1229 02bf C3020000 		.4byte	0x2c3
 1230 02c3 0B       		.uleb128 0xb
 1231 02c4 00040000 		.4byte	.LASF57
 1232 02c8 1C       		.byte	0x1c
 1233 02c9 0A       		.byte	0xa
 1234 02ca 6A01     		.2byte	0x16a
 1235 02cc 1F030000 		.4byte	0x31f
 1236 02d0 09       		.uleb128 0x9
 1237 02d1 D7080000 		.4byte	.LASF32
 1238 02d5 0A       		.byte	0xa
 1239 02d6 6B01     		.2byte	0x16b
 1240 02d8 88020000 		.4byte	0x288
 1241 02dc 00       		.byte	0
 1242 02dd 09       		.uleb128 0x9
 1243 02de 45010000 		.4byte	.LASF33
 1244 02e2 0A       		.byte	0xa
 1245 02e3 6C01     		.2byte	0x16c
 1246 02e5 1B010000 		.4byte	0x11b
 1247 02e9 08       		.byte	0x8
 1248 02ea 08       		.uleb128 0x8
 1249 02eb 63747800 		.ascii	"ctx\000"
 1250 02ef 0A       		.byte	0xa
ARM GAS  /tmp/ccOKB5Xj.s 			page 23


 1251 02f0 6E01     		.2byte	0x16e
 1252 02f2 DA070000 		.4byte	0x7da
 1253 02f6 0C       		.byte	0xc
 1254 02f7 09       		.uleb128 0x9
 1255 02f8 940A0000 		.4byte	.LASF34
 1256 02fc 0A       		.byte	0xa
 1257 02fd 7101     		.2byte	0x171
 1258 02ff 5E020000 		.4byte	0x25e
 1259 0303 10       		.byte	0x10
 1260 0304 09       		.uleb128 0x9
 1261 0305 DB040000 		.4byte	.LASF35
 1262 0309 0A       		.byte	0xa
 1263 030a 7201     		.2byte	0x172
 1264 030c 5E020000 		.4byte	0x25e
 1265 0310 14       		.byte	0x14
 1266 0311 09       		.uleb128 0x9
 1267 0312 43060000 		.4byte	.LASF58
 1268 0316 0A       		.byte	0xa
 1269 0317 7501     		.2byte	0x175
 1270 0319 5E020000 		.4byte	0x25e
 1271 031d 18       		.byte	0x18
 1272 031e 00       		.byte	0
 1273 031f 03       		.uleb128 0x3
 1274 0320 A7000000 		.4byte	.LASF59
 1275 0324 09       		.byte	0x9
 1276 0325 5C       		.byte	0x5c
 1277 0326 2A030000 		.4byte	0x32a
 1278 032a 0A       		.uleb128 0xa
 1279 032b 04       		.byte	0x4
 1280 032c 30030000 		.4byte	0x330
 1281 0330 0C       		.uleb128 0xc
 1282 0331 3B030000 		.4byte	0x33b
 1283 0335 0D       		.uleb128 0xd
 1284 0336 3B030000 		.4byte	0x33b
 1285 033a 00       		.byte	0
 1286 033b 0E       		.uleb128 0xe
 1287 033c 04       		.byte	0x4
 1288 033d 03       		.uleb128 0x3
 1289 033e BE040000 		.4byte	.LASF60
 1290 0342 09       		.byte	0x9
 1291 0343 61       		.byte	0x61
 1292 0344 48030000 		.4byte	0x348
 1293 0348 0B       		.uleb128 0xb
 1294 0349 56070000 		.4byte	.LASF61
 1295 034d 14       		.byte	0x14
 1296 034e 0A       		.byte	0xa
 1297 034f 4501     		.2byte	0x145
 1298 0351 97030000 		.4byte	0x397
 1299 0355 09       		.uleb128 0x9
 1300 0356 1C0B0000 		.4byte	.LASF52
 1301 035a 0A       		.byte	0xa
 1302 035b 4601     		.2byte	0x146
 1303 035d D90A0000 		.4byte	0xad9
 1304 0361 00       		.byte	0
 1305 0362 09       		.uleb128 0x9
 1306 0363 210B0000 		.4byte	.LASF55
 1307 0367 0A       		.byte	0xa
ARM GAS  /tmp/ccOKB5Xj.s 			page 24


 1308 0368 4701     		.2byte	0x147
 1309 036a D90A0000 		.4byte	0xad9
 1310 036e 04       		.byte	0x4
 1311 036f 09       		.uleb128 0x9
 1312 0370 AA080000 		.4byte	.LASF62
 1313 0374 0A       		.byte	0xa
 1314 0375 4801     		.2byte	0x148
 1315 0377 52010000 		.4byte	0x152
 1316 037b 08       		.byte	0x8
 1317 037c 09       		.uleb128 0x9
 1318 037d D1090000 		.4byte	.LASF63
 1319 0381 0A       		.byte	0xa
 1320 0382 4901     		.2byte	0x149
 1321 0384 1F030000 		.4byte	0x31f
 1322 0388 0C       		.byte	0xc
 1323 0389 08       		.uleb128 0x8
 1324 038a 70617200 		.ascii	"par\000"
 1325 038e 0A       		.byte	0xa
 1326 038f 4B01     		.2byte	0x14b
 1327 0391 3B030000 		.4byte	0x33b
 1328 0395 10       		.byte	0x10
 1329 0396 00       		.byte	0
 1330 0397 03       		.uleb128 0x3
 1331 0398 89040000 		.4byte	.LASF64
 1332 039c 09       		.byte	0x9
 1333 039d 66       		.byte	0x66
 1334 039e A2030000 		.4byte	0x3a2
 1335 03a2 0B       		.uleb128 0xb
 1336 03a3 C1000000 		.4byte	.LASF65
 1337 03a7 10       		.byte	0x10
 1338 03a8 0A       		.byte	0xa
 1339 03a9 5501     		.2byte	0x155
 1340 03ab E4030000 		.4byte	0x3e4
 1341 03af 09       		.uleb128 0x9
 1342 03b0 1C0B0000 		.4byte	.LASF52
 1343 03b4 0A       		.byte	0xa
 1344 03b5 5601     		.2byte	0x156
 1345 03b7 D90A0000 		.4byte	0xad9
 1346 03bb 00       		.byte	0
 1347 03bc 09       		.uleb128 0x9
 1348 03bd 210B0000 		.4byte	.LASF55
 1349 03c1 0A       		.byte	0xa
 1350 03c2 5801     		.2byte	0x158
 1351 03c4 D90A0000 		.4byte	0xad9
 1352 03c8 04       		.byte	0x4
 1353 03c9 09       		.uleb128 0x9
 1354 03ca AA080000 		.4byte	.LASF62
 1355 03ce 0A       		.byte	0xa
 1356 03cf 5A01     		.2byte	0x15a
 1357 03d1 52010000 		.4byte	0x152
 1358 03d5 08       		.byte	0x8
 1359 03d6 09       		.uleb128 0x9
 1360 03d7 B6020000 		.4byte	.LASF66
 1361 03db 0A       		.byte	0xa
 1362 03dc 6201     		.2byte	0x162
 1363 03de 52010000 		.4byte	0x152
 1364 03e2 0C       		.byte	0xc
ARM GAS  /tmp/ccOKB5Xj.s 			page 25


 1365 03e3 00       		.byte	0
 1366 03e4 03       		.uleb128 0x3
 1367 03e5 DF020000 		.4byte	.LASF67
 1368 03e9 09       		.byte	0x9
 1369 03ea 6B       		.byte	0x6b
 1370 03eb EF030000 		.4byte	0x3ef
 1371 03ef 0B       		.uleb128 0xb
 1372 03f0 FA090000 		.4byte	.LASF68
 1373 03f4 04       		.byte	0x4
 1374 03f5 0A       		.byte	0xa
 1375 03f6 7C01     		.2byte	0x17c
 1376 03f8 0A040000 		.4byte	0x40a
 1377 03fc 09       		.uleb128 0x9
 1378 03fd BF020000 		.4byte	.LASF69
 1379 0401 0A       		.byte	0xa
 1380 0402 8401     		.2byte	0x184
 1381 0404 DF0A0000 		.4byte	0xadf
 1382 0408 00       		.byte	0
 1383 0409 00       		.byte	0
 1384 040a 03       		.uleb128 0x3
 1385 040b EE0A0000 		.4byte	.LASF70
 1386 040f 09       		.byte	0x9
 1387 0410 70       		.byte	0x70
 1388 0411 15040000 		.4byte	0x415
 1389 0415 0B       		.uleb128 0xb
 1390 0416 8A0A0000 		.4byte	.LASF71
 1391 041a D0       		.byte	0xd0
 1392 041b 0A       		.byte	0xa
 1393 041c 9C01     		.2byte	0x19c
 1394 041e 70040000 		.4byte	0x470
 1395 0422 09       		.uleb128 0x9
 1396 0423 46090000 		.4byte	.LASF72
 1397 0427 0A       		.byte	0xa
 1398 0428 A001     		.2byte	0x1a0
 1399 042a B8020000 		.4byte	0x2b8
 1400 042e 00       		.byte	0
 1401 042f 09       		.uleb128 0x9
 1402 0430 310A0000 		.4byte	.LASF73
 1403 0434 0A       		.byte	0xa
 1404 0435 A401     		.2byte	0x1a4
 1405 0437 97030000 		.4byte	0x397
 1406 043b 1C       		.byte	0x1c
 1407 043c 08       		.uleb128 0x8
 1408 043d 64626700 		.ascii	"dbg\000"
 1409 0441 0A       		.byte	0xa
 1410 0442 A801     		.2byte	0x1a8
 1411 0444 E4030000 		.4byte	0x3e4
 1412 0448 2C       		.byte	0x2c
 1413 0449 09       		.uleb128 0x9
 1414 044a 03090000 		.4byte	.LASF74
 1415 044e 0A       		.byte	0xa
 1416 044f AC01     		.2byte	0x1ac
 1417 0451 5D010000 		.4byte	0x15d
 1418 0455 30       		.byte	0x30
 1419 0456 08       		.uleb128 0x8
 1420 0457 746D00   		.ascii	"tm\000"
 1421 045a 0A       		.byte	0xa
ARM GAS  /tmp/ccOKB5Xj.s 			page 26


 1422 045b B101     		.2byte	0x1b1
 1423 045d 59090000 		.4byte	0x959
 1424 0461 90       		.byte	0x90
 1425 0462 09       		.uleb128 0x9
 1426 0463 67070000 		.4byte	.LASF75
 1427 0467 0A       		.byte	0xa
 1428 0468 B701     		.2byte	0x1b7
 1429 046a EB090000 		.4byte	0x9eb
 1430 046e 98       		.byte	0x98
 1431 046f 00       		.byte	0
 1432 0470 04       		.uleb128 0x4
 1433 0471 04       		.byte	0x4
 1434 0472 07       		.byte	0x7
 1435 0473 29000000 		.4byte	.LASF76
 1436 0477 0F       		.uleb128 0xf
 1437 0478 CE000000 		.4byte	0xce
 1438 047c 10       		.uleb128 0x10
 1439 047d CE000000 		.4byte	0xce
 1440 0481 8C040000 		.4byte	0x48c
 1441 0485 11       		.uleb128 0x11
 1442 0486 70040000 		.4byte	0x470
 1443 048a 01       		.byte	0x1
 1444 048b 00       		.byte	0
 1445 048c 12       		.uleb128 0x12
 1446 048d 50       		.byte	0x50
 1447 048e 0B       		.byte	0xb
 1448 048f C4       		.byte	0xc4
 1449 0490 83050000 		.4byte	0x583
 1450 0494 07       		.uleb128 0x7
 1451 0495 535200   		.ascii	"SR\000"
 1452 0498 0B       		.byte	0xb
 1453 0499 C6       		.byte	0xc6
 1454 049a 77040000 		.4byte	0x477
 1455 049e 00       		.byte	0
 1456 049f 07       		.uleb128 0x7
 1457 04a0 43523100 		.ascii	"CR1\000"
 1458 04a4 0B       		.byte	0xb
 1459 04a5 C7       		.byte	0xc7
 1460 04a6 77040000 		.4byte	0x477
 1461 04aa 04       		.byte	0x4
 1462 04ab 07       		.uleb128 0x7
 1463 04ac 43523200 		.ascii	"CR2\000"
 1464 04b0 0B       		.byte	0xb
 1465 04b1 C8       		.byte	0xc8
 1466 04b2 77040000 		.4byte	0x477
 1467 04b6 08       		.byte	0x8
 1468 04b7 06       		.uleb128 0x6
 1469 04b8 B2040000 		.4byte	.LASF77
 1470 04bc 0B       		.byte	0xb
 1471 04bd C9       		.byte	0xc9
 1472 04be 77040000 		.4byte	0x477
 1473 04c2 0C       		.byte	0xc
 1474 04c3 06       		.uleb128 0x6
 1475 04c4 B8040000 		.4byte	.LASF78
 1476 04c8 0B       		.byte	0xb
 1477 04c9 CA       		.byte	0xca
 1478 04ca 77040000 		.4byte	0x477
ARM GAS  /tmp/ccOKB5Xj.s 			page 27


 1479 04ce 10       		.byte	0x10
 1480 04cf 06       		.uleb128 0x6
 1481 04d0 DF090000 		.4byte	.LASF79
 1482 04d4 0B       		.byte	0xb
 1483 04d5 CB       		.byte	0xcb
 1484 04d6 77040000 		.4byte	0x477
 1485 04da 14       		.byte	0x14
 1486 04db 06       		.uleb128 0x6
 1487 04dc E5090000 		.4byte	.LASF80
 1488 04e0 0B       		.byte	0xb
 1489 04e1 CC       		.byte	0xcc
 1490 04e2 77040000 		.4byte	0x477
 1491 04e6 18       		.byte	0x18
 1492 04e7 06       		.uleb128 0x6
 1493 04e8 F3030000 		.4byte	.LASF81
 1494 04ec 0B       		.byte	0xb
 1495 04ed CD       		.byte	0xcd
 1496 04ee 77040000 		.4byte	0x477
 1497 04f2 1C       		.byte	0x1c
 1498 04f3 06       		.uleb128 0x6
 1499 04f4 F4090000 		.4byte	.LASF82
 1500 04f8 0B       		.byte	0xb
 1501 04f9 CE       		.byte	0xce
 1502 04fa 77040000 		.4byte	0x477
 1503 04fe 20       		.byte	0x20
 1504 04ff 07       		.uleb128 0x7
 1505 0500 48545200 		.ascii	"HTR\000"
 1506 0504 0B       		.byte	0xb
 1507 0505 CF       		.byte	0xcf
 1508 0506 77040000 		.4byte	0x477
 1509 050a 24       		.byte	0x24
 1510 050b 07       		.uleb128 0x7
 1511 050c 4C545200 		.ascii	"LTR\000"
 1512 0510 0B       		.byte	0xb
 1513 0511 D0       		.byte	0xd0
 1514 0512 77040000 		.4byte	0x477
 1515 0516 28       		.byte	0x28
 1516 0517 06       		.uleb128 0x6
 1517 0518 78000000 		.4byte	.LASF83
 1518 051c 0B       		.byte	0xb
 1519 051d D1       		.byte	0xd1
 1520 051e 77040000 		.4byte	0x477
 1521 0522 2C       		.byte	0x2c
 1522 0523 06       		.uleb128 0x6
 1523 0524 7D000000 		.4byte	.LASF84
 1524 0528 0B       		.byte	0xb
 1525 0529 D2       		.byte	0xd2
 1526 052a 77040000 		.4byte	0x477
 1527 052e 30       		.byte	0x30
 1528 052f 06       		.uleb128 0x6
 1529 0530 82000000 		.4byte	.LASF85
 1530 0534 0B       		.byte	0xb
 1531 0535 D3       		.byte	0xd3
 1532 0536 77040000 		.4byte	0x477
 1533 053a 34       		.byte	0x34
 1534 053b 06       		.uleb128 0x6
 1535 053c 2C0A0000 		.4byte	.LASF86
ARM GAS  /tmp/ccOKB5Xj.s 			page 28


 1536 0540 0B       		.byte	0xb
 1537 0541 D4       		.byte	0xd4
 1538 0542 77040000 		.4byte	0x477
 1539 0546 38       		.byte	0x38
 1540 0547 06       		.uleb128 0x6
 1541 0548 180A0000 		.4byte	.LASF87
 1542 054c 0B       		.byte	0xb
 1543 054d D5       		.byte	0xd5
 1544 054e 77040000 		.4byte	0x477
 1545 0552 3C       		.byte	0x3c
 1546 0553 06       		.uleb128 0x6
 1547 0554 1D0A0000 		.4byte	.LASF88
 1548 0558 0B       		.byte	0xb
 1549 0559 D6       		.byte	0xd6
 1550 055a 77040000 		.4byte	0x477
 1551 055e 40       		.byte	0x40
 1552 055f 06       		.uleb128 0x6
 1553 0560 220A0000 		.4byte	.LASF89
 1554 0564 0B       		.byte	0xb
 1555 0565 D7       		.byte	0xd7
 1556 0566 77040000 		.4byte	0x477
 1557 056a 44       		.byte	0x44
 1558 056b 06       		.uleb128 0x6
 1559 056c 270A0000 		.4byte	.LASF90
 1560 0570 0B       		.byte	0xb
 1561 0571 D8       		.byte	0xd8
 1562 0572 77040000 		.4byte	0x477
 1563 0576 48       		.byte	0x48
 1564 0577 07       		.uleb128 0x7
 1565 0578 445200   		.ascii	"DR\000"
 1566 057b 0B       		.byte	0xb
 1567 057c D9       		.byte	0xd9
 1568 057d 77040000 		.4byte	0x477
 1569 0581 4C       		.byte	0x4c
 1570 0582 00       		.byte	0
 1571 0583 03       		.uleb128 0x3
 1572 0584 E7030000 		.4byte	.LASF91
 1573 0588 0B       		.byte	0xb
 1574 0589 DA       		.byte	0xda
 1575 058a 8C040000 		.4byte	0x48c
 1576 058e 12       		.uleb128 0x12
 1577 058f 0C       		.byte	0xc
 1578 0590 0B       		.byte	0xb
 1579 0591 DC       		.byte	0xdc
 1580 0592 BB050000 		.4byte	0x5bb
 1581 0596 07       		.uleb128 0x7
 1582 0597 43535200 		.ascii	"CSR\000"
 1583 059b 0B       		.byte	0xb
 1584 059c DE       		.byte	0xde
 1585 059d 77040000 		.4byte	0x477
 1586 05a1 00       		.byte	0
 1587 05a2 07       		.uleb128 0x7
 1588 05a3 43435200 		.ascii	"CCR\000"
 1589 05a7 0B       		.byte	0xb
 1590 05a8 DF       		.byte	0xdf
 1591 05a9 77040000 		.4byte	0x477
 1592 05ad 04       		.byte	0x4
ARM GAS  /tmp/ccOKB5Xj.s 			page 29


 1593 05ae 07       		.uleb128 0x7
 1594 05af 43445200 		.ascii	"CDR\000"
 1595 05b3 0B       		.byte	0xb
 1596 05b4 E0       		.byte	0xe0
 1597 05b5 77040000 		.4byte	0x477
 1598 05b9 08       		.byte	0x8
 1599 05ba 00       		.byte	0
 1600 05bb 03       		.uleb128 0x3
 1601 05bc 040B0000 		.4byte	.LASF92
 1602 05c0 0B       		.byte	0xb
 1603 05c1 E2       		.byte	0xe2
 1604 05c2 8E050000 		.4byte	0x58e
 1605 05c6 13       		.uleb128 0x13
 1606 05c7 18       		.byte	0x18
 1607 05c8 0B       		.byte	0xb
 1608 05c9 6B01     		.2byte	0x16b
 1609 05cb 1D060000 		.4byte	0x61d
 1610 05cf 08       		.uleb128 0x8
 1611 05d0 435200   		.ascii	"CR\000"
 1612 05d3 0B       		.byte	0xb
 1613 05d4 6D01     		.2byte	0x16d
 1614 05d6 77040000 		.4byte	0x477
 1615 05da 00       		.byte	0
 1616 05db 09       		.uleb128 0x9
 1617 05dc 9A0A0000 		.4byte	.LASF93
 1618 05e0 0B       		.byte	0xb
 1619 05e1 6E01     		.2byte	0x16e
 1620 05e3 77040000 		.4byte	0x477
 1621 05e7 04       		.byte	0x4
 1622 05e8 08       		.uleb128 0x8
 1623 05e9 50415200 		.ascii	"PAR\000"
 1624 05ed 0B       		.byte	0xb
 1625 05ee 6F01     		.2byte	0x16f
 1626 05f0 77040000 		.4byte	0x477
 1627 05f4 08       		.byte	0x8
 1628 05f5 09       		.uleb128 0x9
 1629 05f6 99090000 		.4byte	.LASF94
 1630 05fa 0B       		.byte	0xb
 1631 05fb 7001     		.2byte	0x170
 1632 05fd 77040000 		.4byte	0x477
 1633 0601 0C       		.byte	0xc
 1634 0602 09       		.uleb128 0x9
 1635 0603 00000000 		.4byte	.LASF95
 1636 0607 0B       		.byte	0xb
 1637 0608 7101     		.2byte	0x171
 1638 060a 77040000 		.4byte	0x477
 1639 060e 10       		.byte	0x10
 1640 060f 08       		.uleb128 0x8
 1641 0610 46435200 		.ascii	"FCR\000"
 1642 0614 0B       		.byte	0xb
 1643 0615 7201     		.2byte	0x172
 1644 0617 77040000 		.4byte	0x477
 1645 061b 14       		.byte	0x14
 1646 061c 00       		.byte	0
 1647 061d 14       		.uleb128 0x14
 1648 061e 7A060000 		.4byte	.LASF96
 1649 0622 0B       		.byte	0xb
ARM GAS  /tmp/ccOKB5Xj.s 			page 30


 1650 0623 7301     		.2byte	0x173
 1651 0625 C6050000 		.4byte	0x5c6
 1652 0629 13       		.uleb128 0x13
 1653 062a 88       		.byte	0x88
 1654 062b 0B       		.byte	0xb
 1655 062c 6602     		.2byte	0x266
 1656 062e B8070000 		.4byte	0x7b8
 1657 0632 08       		.uleb128 0x8
 1658 0633 435200   		.ascii	"CR\000"
 1659 0636 0B       		.byte	0xb
 1660 0637 6802     		.2byte	0x268
 1661 0639 77040000 		.4byte	0x477
 1662 063d 00       		.byte	0
 1663 063e 09       		.uleb128 0x9
 1664 063f 4C050000 		.4byte	.LASF97
 1665 0643 0B       		.byte	0xb
 1666 0644 6902     		.2byte	0x269
 1667 0646 77040000 		.4byte	0x477
 1668 064a 04       		.byte	0x4
 1669 064b 09       		.uleb128 0x9
 1670 064c 0E040000 		.4byte	.LASF98
 1671 0650 0B       		.byte	0xb
 1672 0651 6A02     		.2byte	0x26a
 1673 0653 77040000 		.4byte	0x477
 1674 0657 08       		.byte	0x8
 1675 0658 08       		.uleb128 0x8
 1676 0659 43495200 		.ascii	"CIR\000"
 1677 065d 0B       		.byte	0xb
 1678 065e 6B02     		.2byte	0x26b
 1679 0660 77040000 		.4byte	0x477
 1680 0664 0C       		.byte	0xc
 1681 0665 09       		.uleb128 0x9
 1682 0666 2A030000 		.4byte	.LASF99
 1683 066a 0B       		.byte	0xb
 1684 066b 6C02     		.2byte	0x26c
 1685 066d 77040000 		.4byte	0x477
 1686 0671 10       		.byte	0x10
 1687 0672 09       		.uleb128 0x9
 1688 0673 89090000 		.4byte	.LASF100
 1689 0677 0B       		.byte	0xb
 1690 0678 6D02     		.2byte	0x26d
 1691 067a 77040000 		.4byte	0x477
 1692 067e 14       		.byte	0x14
 1693 067f 09       		.uleb128 0x9
 1694 0680 F8000000 		.4byte	.LASF101
 1695 0684 0B       		.byte	0xb
 1696 0685 6E02     		.2byte	0x26e
 1697 0687 77040000 		.4byte	0x477
 1698 068b 18       		.byte	0x18
 1699 068c 09       		.uleb128 0x9
 1700 068d 76020000 		.4byte	.LASF102
 1701 0691 0B       		.byte	0xb
 1702 0692 6F02     		.2byte	0x26f
 1703 0694 CE000000 		.4byte	0xce
 1704 0698 1C       		.byte	0x1c
 1705 0699 09       		.uleb128 0x9
 1706 069a 4D070000 		.4byte	.LASF103
ARM GAS  /tmp/ccOKB5Xj.s 			page 31


 1707 069e 0B       		.byte	0xb
 1708 069f 7002     		.2byte	0x270
 1709 06a1 77040000 		.4byte	0x477
 1710 06a5 20       		.byte	0x20
 1711 06a6 09       		.uleb128 0x9
 1712 06a7 A6050000 		.4byte	.LASF104
 1713 06ab 0B       		.byte	0xb
 1714 06ac 7102     		.2byte	0x271
 1715 06ae 77040000 		.4byte	0x477
 1716 06b2 24       		.byte	0x24
 1717 06b3 09       		.uleb128 0x9
 1718 06b4 80020000 		.4byte	.LASF105
 1719 06b8 0B       		.byte	0xb
 1720 06b9 7202     		.2byte	0x272
 1721 06bb 7C040000 		.4byte	0x47c
 1722 06bf 28       		.byte	0x28
 1723 06c0 09       		.uleb128 0x9
 1724 06c1 63090000 		.4byte	.LASF106
 1725 06c5 0B       		.byte	0xb
 1726 06c6 7302     		.2byte	0x273
 1727 06c8 77040000 		.4byte	0x477
 1728 06cc 30       		.byte	0x30
 1729 06cd 09       		.uleb128 0x9
 1730 06ce 3E030000 		.4byte	.LASF107
 1731 06d2 0B       		.byte	0xb
 1732 06d3 7402     		.2byte	0x274
 1733 06d5 77040000 		.4byte	0x477
 1734 06d9 34       		.byte	0x34
 1735 06da 09       		.uleb128 0x9
 1736 06db 6B090000 		.4byte	.LASF108
 1737 06df 0B       		.byte	0xb
 1738 06e0 7502     		.2byte	0x275
 1739 06e2 77040000 		.4byte	0x477
 1740 06e6 38       		.byte	0x38
 1741 06e7 09       		.uleb128 0x9
 1742 06e8 FE020000 		.4byte	.LASF109
 1743 06ec 0B       		.byte	0xb
 1744 06ed 7602     		.2byte	0x276
 1745 06ef CE000000 		.4byte	0xce
 1746 06f3 3C       		.byte	0x3c
 1747 06f4 09       		.uleb128 0x9
 1748 06f5 63040000 		.4byte	.LASF110
 1749 06f9 0B       		.byte	0xb
 1750 06fa 7702     		.2byte	0x277
 1751 06fc 77040000 		.4byte	0x477
 1752 0700 40       		.byte	0x40
 1753 0701 09       		.uleb128 0x9
 1754 0702 19020000 		.4byte	.LASF111
 1755 0706 0B       		.byte	0xb
 1756 0707 7802     		.2byte	0x278
 1757 0709 77040000 		.4byte	0x477
 1758 070d 44       		.byte	0x44
 1759 070e 09       		.uleb128 0x9
 1760 070f 98020000 		.4byte	.LASF112
 1761 0713 0B       		.byte	0xb
 1762 0714 7902     		.2byte	0x279
 1763 0716 7C040000 		.4byte	0x47c
ARM GAS  /tmp/ccOKB5Xj.s 			page 32


 1764 071a 48       		.byte	0x48
 1765 071b 09       		.uleb128 0x9
 1766 071c 21020000 		.4byte	.LASF113
 1767 0720 0B       		.byte	0xb
 1768 0721 7A02     		.2byte	0x27a
 1769 0723 77040000 		.4byte	0x477
 1770 0727 50       		.byte	0x50
 1771 0728 09       		.uleb128 0x9
 1772 0729 76010000 		.4byte	.LASF114
 1773 072d 0B       		.byte	0xb
 1774 072e 7B02     		.2byte	0x27b
 1775 0730 77040000 		.4byte	0x477
 1776 0734 54       		.byte	0x54
 1777 0735 09       		.uleb128 0x9
 1778 0736 0E090000 		.4byte	.LASF115
 1779 073a 0B       		.byte	0xb
 1780 073b 7C02     		.2byte	0x27c
 1781 073d 77040000 		.4byte	0x477
 1782 0741 58       		.byte	0x58
 1783 0742 09       		.uleb128 0x9
 1784 0743 A2020000 		.4byte	.LASF116
 1785 0747 0B       		.byte	0xb
 1786 0748 7D02     		.2byte	0x27d
 1787 074a CE000000 		.4byte	0xce
 1788 074e 5C       		.byte	0x5c
 1789 074f 09       		.uleb128 0x9
 1790 0750 58060000 		.4byte	.LASF117
 1791 0754 0B       		.byte	0xb
 1792 0755 7E02     		.2byte	0x27e
 1793 0757 77040000 		.4byte	0x477
 1794 075b 60       		.byte	0x60
 1795 075c 09       		.uleb128 0x9
 1796 075d C8050000 		.4byte	.LASF118
 1797 0761 0B       		.byte	0xb
 1798 0762 7F02     		.2byte	0x27f
 1799 0764 77040000 		.4byte	0x477
 1800 0768 64       		.byte	0x64
 1801 0769 09       		.uleb128 0x9
 1802 076a AC020000 		.4byte	.LASF119
 1803 076e 0B       		.byte	0xb
 1804 076f 8002     		.2byte	0x280
 1805 0771 7C040000 		.4byte	0x47c
 1806 0775 68       		.byte	0x68
 1807 0776 09       		.uleb128 0x9
 1808 0777 B7030000 		.4byte	.LASF120
 1809 077b 0B       		.byte	0xb
 1810 077c 8102     		.2byte	0x281
 1811 077e 77040000 		.4byte	0x477
 1812 0782 70       		.byte	0x70
 1813 0783 08       		.uleb128 0x8
 1814 0784 43535200 		.ascii	"CSR\000"
 1815 0788 0B       		.byte	0xb
 1816 0789 8202     		.2byte	0x282
 1817 078b 77040000 		.4byte	0x477
 1818 078f 74       		.byte	0x74
 1819 0790 09       		.uleb128 0x9
 1820 0791 14030000 		.4byte	.LASF121
ARM GAS  /tmp/ccOKB5Xj.s 			page 33


 1821 0795 0B       		.byte	0xb
 1822 0796 8302     		.2byte	0x283
 1823 0798 7C040000 		.4byte	0x47c
 1824 079c 78       		.byte	0x78
 1825 079d 09       		.uleb128 0x9
 1826 079e 88050000 		.4byte	.LASF122
 1827 07a2 0B       		.byte	0xb
 1828 07a3 8402     		.2byte	0x284
 1829 07a5 77040000 		.4byte	0x477
 1830 07a9 80       		.byte	0x80
 1831 07aa 09       		.uleb128 0x9
 1832 07ab 51000000 		.4byte	.LASF123
 1833 07af 0B       		.byte	0xb
 1834 07b0 8502     		.2byte	0x285
 1835 07b2 77040000 		.4byte	0x477
 1836 07b6 84       		.byte	0x84
 1837 07b7 00       		.byte	0
 1838 07b8 14       		.uleb128 0x14
 1839 07b9 AD090000 		.4byte	.LASF124
 1840 07bd 0B       		.byte	0xb
 1841 07be 8702     		.2byte	0x287
 1842 07c0 29060000 		.4byte	0x629
 1843 07c4 03       		.uleb128 0x3
 1844 07c5 03020000 		.4byte	.LASF125
 1845 07c9 0C       		.byte	0xc
 1846 07ca 65       		.byte	0x65
 1847 07cb 3B030000 		.4byte	0x33b
 1848 07cf 03       		.uleb128 0x3
 1849 07d0 66030000 		.4byte	.LASF126
 1850 07d4 0C       		.byte	0xc
 1851 07d5 6D       		.byte	0x6d
 1852 07d6 D9000000 		.4byte	0xd9
 1853 07da 05       		.uleb128 0x5
 1854 07db 6E0A0000 		.4byte	.LASF127
 1855 07df 04       		.byte	0x4
 1856 07e0 0C       		.byte	0xc
 1857 07e1 89       		.byte	0x89
 1858 07e2 F2070000 		.4byte	0x7f2
 1859 07e6 07       		.uleb128 0x7
 1860 07e7 737000   		.ascii	"sp\000"
 1861 07ea 0C       		.byte	0xc
 1862 07eb 8A       		.byte	0x8a
 1863 07ec 3E090000 		.4byte	0x93e
 1864 07f0 00       		.byte	0
 1865 07f1 00       		.byte	0
 1866 07f2 0B       		.uleb128 0xb
 1867 07f3 21070000 		.4byte	.LASF128
 1868 07f7 64       		.byte	0x64
 1869 07f8 0D       		.byte	0xd
 1870 07f9 5901     		.2byte	0x159
 1871 07fb 3E090000 		.4byte	0x93e
 1872 07ff 08       		.uleb128 0x8
 1873 0800 73313600 		.ascii	"s16\000"
 1874 0804 0D       		.byte	0xd
 1875 0805 5B01     		.2byte	0x15b
 1876 0807 C4070000 		.4byte	0x7c4
 1877 080b 00       		.byte	0
ARM GAS  /tmp/ccOKB5Xj.s 			page 34


 1878 080c 08       		.uleb128 0x8
 1879 080d 73313700 		.ascii	"s17\000"
 1880 0811 0D       		.byte	0xd
 1881 0812 5C01     		.2byte	0x15c
 1882 0814 C4070000 		.4byte	0x7c4
 1883 0818 04       		.byte	0x4
 1884 0819 08       		.uleb128 0x8
 1885 081a 73313800 		.ascii	"s18\000"
 1886 081e 0D       		.byte	0xd
 1887 081f 5D01     		.2byte	0x15d
 1888 0821 C4070000 		.4byte	0x7c4
 1889 0825 08       		.byte	0x8
 1890 0826 08       		.uleb128 0x8
 1891 0827 73313900 		.ascii	"s19\000"
 1892 082b 0D       		.byte	0xd
 1893 082c 5E01     		.2byte	0x15e
 1894 082e C4070000 		.4byte	0x7c4
 1895 0832 0C       		.byte	0xc
 1896 0833 08       		.uleb128 0x8
 1897 0834 73323000 		.ascii	"s20\000"
 1898 0838 0D       		.byte	0xd
 1899 0839 5F01     		.2byte	0x15f
 1900 083b C4070000 		.4byte	0x7c4
 1901 083f 10       		.byte	0x10
 1902 0840 08       		.uleb128 0x8
 1903 0841 73323100 		.ascii	"s21\000"
 1904 0845 0D       		.byte	0xd
 1905 0846 6001     		.2byte	0x160
 1906 0848 C4070000 		.4byte	0x7c4
 1907 084c 14       		.byte	0x14
 1908 084d 08       		.uleb128 0x8
 1909 084e 73323200 		.ascii	"s22\000"
 1910 0852 0D       		.byte	0xd
 1911 0853 6101     		.2byte	0x161
 1912 0855 C4070000 		.4byte	0x7c4
 1913 0859 18       		.byte	0x18
 1914 085a 08       		.uleb128 0x8
 1915 085b 73323300 		.ascii	"s23\000"
 1916 085f 0D       		.byte	0xd
 1917 0860 6201     		.2byte	0x162
 1918 0862 C4070000 		.4byte	0x7c4
 1919 0866 1C       		.byte	0x1c
 1920 0867 08       		.uleb128 0x8
 1921 0868 73323400 		.ascii	"s24\000"
 1922 086c 0D       		.byte	0xd
 1923 086d 6301     		.2byte	0x163
 1924 086f C4070000 		.4byte	0x7c4
 1925 0873 20       		.byte	0x20
 1926 0874 08       		.uleb128 0x8
 1927 0875 73323500 		.ascii	"s25\000"
 1928 0879 0D       		.byte	0xd
 1929 087a 6401     		.2byte	0x164
 1930 087c C4070000 		.4byte	0x7c4
 1931 0880 24       		.byte	0x24
 1932 0881 08       		.uleb128 0x8
 1933 0882 73323600 		.ascii	"s26\000"
 1934 0886 0D       		.byte	0xd
ARM GAS  /tmp/ccOKB5Xj.s 			page 35


 1935 0887 6501     		.2byte	0x165
 1936 0889 C4070000 		.4byte	0x7c4
 1937 088d 28       		.byte	0x28
 1938 088e 08       		.uleb128 0x8
 1939 088f 73323700 		.ascii	"s27\000"
 1940 0893 0D       		.byte	0xd
 1941 0894 6601     		.2byte	0x166
 1942 0896 C4070000 		.4byte	0x7c4
 1943 089a 2C       		.byte	0x2c
 1944 089b 08       		.uleb128 0x8
 1945 089c 73323800 		.ascii	"s28\000"
 1946 08a0 0D       		.byte	0xd
 1947 08a1 6701     		.2byte	0x167
 1948 08a3 C4070000 		.4byte	0x7c4
 1949 08a7 30       		.byte	0x30
 1950 08a8 08       		.uleb128 0x8
 1951 08a9 73323900 		.ascii	"s29\000"
 1952 08ad 0D       		.byte	0xd
 1953 08ae 6801     		.2byte	0x168
 1954 08b0 C4070000 		.4byte	0x7c4
 1955 08b4 34       		.byte	0x34
 1956 08b5 08       		.uleb128 0x8
 1957 08b6 73333000 		.ascii	"s30\000"
 1958 08ba 0D       		.byte	0xd
 1959 08bb 6901     		.2byte	0x169
 1960 08bd C4070000 		.4byte	0x7c4
 1961 08c1 38       		.byte	0x38
 1962 08c2 08       		.uleb128 0x8
 1963 08c3 73333100 		.ascii	"s31\000"
 1964 08c7 0D       		.byte	0xd
 1965 08c8 6A01     		.2byte	0x16a
 1966 08ca C4070000 		.4byte	0x7c4
 1967 08ce 3C       		.byte	0x3c
 1968 08cf 08       		.uleb128 0x8
 1969 08d0 723400   		.ascii	"r4\000"
 1970 08d3 0D       		.byte	0xd
 1971 08d4 6C01     		.2byte	0x16c
 1972 08d6 C4070000 		.4byte	0x7c4
 1973 08da 40       		.byte	0x40
 1974 08db 08       		.uleb128 0x8
 1975 08dc 723500   		.ascii	"r5\000"
 1976 08df 0D       		.byte	0xd
 1977 08e0 6D01     		.2byte	0x16d
 1978 08e2 C4070000 		.4byte	0x7c4
 1979 08e6 44       		.byte	0x44
 1980 08e7 08       		.uleb128 0x8
 1981 08e8 723600   		.ascii	"r6\000"
 1982 08eb 0D       		.byte	0xd
 1983 08ec 6E01     		.2byte	0x16e
 1984 08ee C4070000 		.4byte	0x7c4
 1985 08f2 48       		.byte	0x48
 1986 08f3 08       		.uleb128 0x8
 1987 08f4 723700   		.ascii	"r7\000"
 1988 08f7 0D       		.byte	0xd
 1989 08f8 6F01     		.2byte	0x16f
 1990 08fa C4070000 		.4byte	0x7c4
 1991 08fe 4C       		.byte	0x4c
ARM GAS  /tmp/ccOKB5Xj.s 			page 36


 1992 08ff 08       		.uleb128 0x8
 1993 0900 723800   		.ascii	"r8\000"
 1994 0903 0D       		.byte	0xd
 1995 0904 7001     		.2byte	0x170
 1996 0906 C4070000 		.4byte	0x7c4
 1997 090a 50       		.byte	0x50
 1998 090b 08       		.uleb128 0x8
 1999 090c 723900   		.ascii	"r9\000"
 2000 090f 0D       		.byte	0xd
 2001 0910 7101     		.2byte	0x171
 2002 0912 C4070000 		.4byte	0x7c4
 2003 0916 54       		.byte	0x54
 2004 0917 08       		.uleb128 0x8
 2005 0918 72313000 		.ascii	"r10\000"
 2006 091c 0D       		.byte	0xd
 2007 091d 7201     		.2byte	0x172
 2008 091f C4070000 		.4byte	0x7c4
 2009 0923 58       		.byte	0x58
 2010 0924 08       		.uleb128 0x8
 2011 0925 72313100 		.ascii	"r11\000"
 2012 0929 0D       		.byte	0xd
 2013 092a 7301     		.2byte	0x173
 2014 092c C4070000 		.4byte	0x7c4
 2015 0930 5C       		.byte	0x5c
 2016 0931 08       		.uleb128 0x8
 2017 0932 6C7200   		.ascii	"lr\000"
 2018 0935 0D       		.byte	0xd
 2019 0936 7401     		.2byte	0x174
 2020 0938 C4070000 		.4byte	0x7c4
 2021 093c 60       		.byte	0x60
 2022 093d 00       		.byte	0
 2023 093e 0A       		.uleb128 0xa
 2024 093f 04       		.byte	0x4
 2025 0940 F2070000 		.4byte	0x7f2
 2026 0944 12       		.uleb128 0x12
 2027 0945 04       		.byte	0x4
 2028 0946 0E       		.byte	0xe
 2029 0947 38       		.byte	0x38
 2030 0948 59090000 		.4byte	0x959
 2031 094c 06       		.uleb128 0x6
 2032 094d 51060000 		.4byte	.LASF129
 2033 0951 0E       		.byte	0xe
 2034 0952 3C       		.byte	0x3c
 2035 0953 E4000000 		.4byte	0xe4
 2036 0957 00       		.byte	0
 2037 0958 00       		.byte	0
 2038 0959 03       		.uleb128 0x3
 2039 095a 78090000 		.4byte	.LASF130
 2040 095e 0E       		.byte	0xe
 2041 095f 3D       		.byte	0x3d
 2042 0960 44090000 		.4byte	0x944
 2043 0964 12       		.uleb128 0x12
 2044 0965 18       		.byte	0x18
 2045 0966 0E       		.byte	0xe
 2046 0967 48       		.byte	0x48
 2047 0968 A7090000 		.4byte	0x9a7
 2048 096c 06       		.uleb128 0x6
ARM GAS  /tmp/ccOKB5Xj.s 			page 37


 2049 096d 26090000 		.4byte	.LASF131
 2050 0971 0E       		.byte	0xe
 2051 0972 49       		.byte	0x49
 2052 0973 E4000000 		.4byte	0xe4
 2053 0977 00       		.byte	0
 2054 0978 06       		.uleb128 0x6
 2055 0979 9F030000 		.4byte	.LASF132
 2056 097d 0E       		.byte	0xe
 2057 097e 4A       		.byte	0x4a
 2058 097f E4000000 		.4byte	0xe4
 2059 0983 04       		.byte	0x4
 2060 0984 06       		.uleb128 0x6
 2061 0985 260B0000 		.4byte	.LASF133
 2062 0989 0E       		.byte	0xe
 2063 098a 4B       		.byte	0x4b
 2064 098b E4000000 		.4byte	0xe4
 2065 098f 08       		.byte	0x8
 2066 0990 07       		.uleb128 0x7
 2067 0991 6E00     		.ascii	"n\000"
 2068 0993 0E       		.byte	0xe
 2069 0994 4C       		.byte	0x4c
 2070 0995 47010000 		.4byte	0x147
 2071 0999 0C       		.byte	0xc
 2072 099a 06       		.uleb128 0x6
 2073 099b 2B020000 		.4byte	.LASF134
 2074 099f 0E       		.byte	0xe
 2075 09a0 4D       		.byte	0x4d
 2076 09a1 EF000000 		.4byte	0xef
 2077 09a5 10       		.byte	0x10
 2078 09a6 00       		.byte	0
 2079 09a7 03       		.uleb128 0x3
 2080 09a8 D2050000 		.4byte	.LASF135
 2081 09ac 0E       		.byte	0xe
 2082 09ad 4E       		.byte	0x4e
 2083 09ae 64090000 		.4byte	0x964
 2084 09b2 12       		.uleb128 0x12
 2085 09b3 38       		.byte	0x38
 2086 09b4 0F       		.byte	0xf
 2087 09b5 38       		.byte	0x38
 2088 09b6 EB090000 		.4byte	0x9eb
 2089 09ba 06       		.uleb128 0x6
 2090 09bb 2D050000 		.4byte	.LASF136
 2091 09bf 0F       		.byte	0xf
 2092 09c0 39       		.byte	0x39
 2093 09c1 47010000 		.4byte	0x147
 2094 09c5 00       		.byte	0
 2095 09c6 06       		.uleb128 0x6
 2096 09c7 4D030000 		.4byte	.LASF137
 2097 09cb 0F       		.byte	0xf
 2098 09cc 3A       		.byte	0x3a
 2099 09cd 47010000 		.4byte	0x147
 2100 09d1 04       		.byte	0x4
 2101 09d2 06       		.uleb128 0x6
 2102 09d3 3B040000 		.4byte	.LASF138
 2103 09d7 0F       		.byte	0xf
 2104 09d8 3B       		.byte	0x3b
 2105 09d9 A7090000 		.4byte	0x9a7
ARM GAS  /tmp/ccOKB5Xj.s 			page 38


 2106 09dd 08       		.byte	0x8
 2107 09de 06       		.uleb128 0x6
 2108 09df E5050000 		.4byte	.LASF139
 2109 09e3 0F       		.byte	0xf
 2110 09e4 3D       		.byte	0x3d
 2111 09e5 A7090000 		.4byte	0x9a7
 2112 09e9 20       		.byte	0x20
 2113 09ea 00       		.byte	0
 2114 09eb 03       		.uleb128 0x3
 2115 09ec 21060000 		.4byte	.LASF140
 2116 09f0 0F       		.byte	0xf
 2117 09f1 3F       		.byte	0x3f
 2118 09f2 B2090000 		.4byte	0x9b2
 2119 09f6 15       		.uleb128 0x15
 2120 09f7 04       		.byte	0x4
 2121 09f8 0A       		.byte	0xa
 2122 09f9 D2       		.byte	0xd2
 2123 09fa 590A0000 		.4byte	0xa59
 2124 09fe 16       		.uleb128 0x16
 2125 09ff D40A0000 		.4byte	.LASF141
 2126 0a03 0A       		.byte	0xa
 2127 0a04 D9       		.byte	0xd9
 2128 0a05 26010000 		.4byte	0x126
 2129 0a09 16       		.uleb128 0x16
 2130 0a0a 63010000 		.4byte	.LASF142
 2131 0a0e 0A       		.byte	0xa
 2132 0a0f E0       		.byte	0xe0
 2133 0a10 26010000 		.4byte	0x126
 2134 0a14 16       		.uleb128 0x16
 2135 0a15 46030000 		.4byte	.LASF143
 2136 0a19 0A       		.byte	0xa
 2137 0a1a E7       		.byte	0xe7
 2138 0a1b 3B030000 		.4byte	0x33b
 2139 0a1f 16       		.uleb128 0x16
 2140 0a20 5D020000 		.4byte	.LASF144
 2141 0a24 0A       		.byte	0xa
 2142 0a25 EE       		.byte	0xee
 2143 0a26 590A0000 		.4byte	0xa59
 2144 0a2a 16       		.uleb128 0x16
 2145 0a2b 19070000 		.4byte	.LASF145
 2146 0a2f 0A       		.byte	0xa
 2147 0a30 F3       		.byte	0xf3
 2148 0a31 26010000 		.4byte	0x126
 2149 0a35 16       		.uleb128 0x16
 2150 0a36 40000000 		.4byte	.LASF146
 2151 0a3a 0A       		.byte	0xa
 2152 0a3b FC       		.byte	0xfc
 2153 0a3c 840A0000 		.4byte	0xa84
 2154 0a40 17       		.uleb128 0x17
 2155 0a41 F9030000 		.4byte	.LASF147
 2156 0a45 0A       		.byte	0xa
 2157 0a46 0501     		.2byte	0x105
 2158 0a48 BB0A0000 		.4byte	0xabb
 2159 0a4c 17       		.uleb128 0x17
 2160 0a4d 42020000 		.4byte	.LASF148
 2161 0a51 0A       		.byte	0xa
 2162 0a52 0D01     		.2byte	0x10d
ARM GAS  /tmp/ccOKB5Xj.s 			page 39


 2163 0a54 31010000 		.4byte	0x131
 2164 0a58 00       		.byte	0
 2165 0a59 0A       		.uleb128 0xa
 2166 0a5a 04       		.byte	0x4
 2167 0a5b 53020000 		.4byte	0x253
 2168 0a5f 05       		.uleb128 0x5
 2169 0a60 72040000 		.4byte	.LASF149
 2170 0a64 0C       		.byte	0xc
 2171 0a65 10       		.byte	0x10
 2172 0a66 34       		.byte	0x34
 2173 0a67 840A0000 		.4byte	0xa84
 2174 0a6b 06       		.uleb128 0x6
 2175 0a6c D7080000 		.4byte	.LASF32
 2176 0a70 10       		.byte	0x10
 2177 0a71 35       		.byte	0x35
 2178 0a72 88020000 		.4byte	0x288
 2179 0a76 00       		.byte	0
 2180 0a77 07       		.uleb128 0x7
 2181 0a78 636E7400 		.ascii	"cnt\000"
 2182 0a7c 10       		.byte	0x10
 2183 0a7d 37       		.byte	0x37
 2184 0a7e 3C010000 		.4byte	0x13c
 2185 0a82 08       		.byte	0x8
 2186 0a83 00       		.byte	0
 2187 0a84 0A       		.uleb128 0xa
 2188 0a85 04       		.byte	0x4
 2189 0a86 5F0A0000 		.4byte	0xa5f
 2190 0a8a 05       		.uleb128 0x5
 2191 0a8b D6090000 		.4byte	.LASF150
 2192 0a8f 10       		.byte	0x10
 2193 0a90 11       		.byte	0x11
 2194 0a91 39       		.byte	0x39
 2195 0a92 BB0A0000 		.4byte	0xabb
 2196 0a96 06       		.uleb128 0x6
 2197 0a97 D7080000 		.4byte	.LASF32
 2198 0a9b 11       		.byte	0x11
 2199 0a9c 3A       		.byte	0x3a
 2200 0a9d 88020000 		.4byte	0x288
 2201 0aa1 00       		.byte	0
 2202 0aa2 06       		.uleb128 0x6
 2203 0aa3 5C000000 		.4byte	.LASF151
 2204 0aa7 11       		.byte	0x11
 2205 0aa8 3C       		.byte	0x3c
 2206 0aa9 5E020000 		.4byte	0x25e
 2207 0aad 08       		.byte	0x8
 2208 0aae 06       		.uleb128 0x6
 2209 0aaf 1C0B0000 		.4byte	.LASF52
 2210 0ab3 11       		.byte	0x11
 2211 0ab4 3E       		.byte	0x3e
 2212 0ab5 EF0A0000 		.4byte	0xaef
 2213 0ab9 0C       		.byte	0xc
 2214 0aba 00       		.byte	0
 2215 0abb 0A       		.uleb128 0xa
 2216 0abc 04       		.byte	0x4
 2217 0abd 8A0A0000 		.4byte	0xa8a
 2218 0ac1 0A       		.uleb128 0xa
 2219 0ac2 04       		.byte	0x4
ARM GAS  /tmp/ccOKB5Xj.s 			page 40


 2220 0ac3 C70A0000 		.4byte	0xac7
 2221 0ac7 18       		.uleb128 0x18
 2222 0ac8 CC0A0000 		.4byte	0xacc
 2223 0acc 04       		.uleb128 0x4
 2224 0acd 01       		.byte	0x1
 2225 0ace 08       		.byte	0x8
 2226 0acf 1E030000 		.4byte	.LASF152
 2227 0ad3 0A       		.uleb128 0xa
 2228 0ad4 04       		.byte	0x4
 2229 0ad5 CF070000 		.4byte	0x7cf
 2230 0ad9 0A       		.uleb128 0xa
 2231 0ada 04       		.byte	0x4
 2232 0adb 3D030000 		.4byte	0x33d
 2233 0adf 0F       		.uleb128 0xf
 2234 0ae0 C10A0000 		.4byte	0xac1
 2235 0ae4 03       		.uleb128 0x3
 2236 0ae5 5E0A0000 		.4byte	.LASF153
 2237 0ae9 11       		.byte	0x11
 2238 0aea 34       		.byte	0x34
 2239 0aeb 8A0A0000 		.4byte	0xa8a
 2240 0aef 0A       		.uleb128 0xa
 2241 0af0 04       		.byte	0x4
 2242 0af1 E40A0000 		.4byte	0xae4
 2243 0af5 04       		.uleb128 0x4
 2244 0af6 01       		.byte	0x1
 2245 0af7 02       		.byte	0x2
 2246 0af8 F8020000 		.4byte	.LASF154
 2247 0afc 13       		.uleb128 0x13
 2248 0afd 0C       		.byte	0xc
 2249 0afe 12       		.byte	0x12
 2250 0aff 6D01     		.2byte	0x16d
 2251 0b01 470B0000 		.4byte	0xb47
 2252 0b05 09       		.uleb128 0x9
 2253 0b06 98030000 		.4byte	.LASF155
 2254 0b0a 12       		.byte	0x12
 2255 0b0b 6E01     		.2byte	0x16e
 2256 0b0d 470B0000 		.4byte	0xb47
 2257 0b11 00       		.byte	0
 2258 0b12 09       		.uleb128 0x9
 2259 0b13 170B0000 		.4byte	.LASF156
 2260 0b17 12       		.byte	0x12
 2261 0b18 6F01     		.2byte	0x16f
 2262 0b1a 4D0B0000 		.4byte	0xb4d
 2263 0b1e 04       		.byte	0x4
 2264 0b1f 09       		.uleb128 0x9
 2265 0b20 23030000 		.4byte	.LASF157
 2266 0b24 12       		.byte	0x12
 2267 0b25 7001     		.2byte	0x170
 2268 0b27 AD000000 		.4byte	0xad
 2269 0b2b 08       		.byte	0x8
 2270 0b2c 09       		.uleb128 0x9
 2271 0b2d 74070000 		.4byte	.LASF158
 2272 0b31 12       		.byte	0x12
 2273 0b32 7201     		.2byte	0x172
 2274 0b34 AD000000 		.4byte	0xad
 2275 0b38 09       		.byte	0x9
 2276 0b39 09       		.uleb128 0x9
ARM GAS  /tmp/ccOKB5Xj.s 			page 41


 2277 0b3a E6080000 		.4byte	.LASF159
 2278 0b3e 12       		.byte	0x12
 2279 0b3f 7301     		.2byte	0x173
 2280 0b41 AD000000 		.4byte	0xad
 2281 0b45 0A       		.byte	0xa
 2282 0b46 00       		.byte	0
 2283 0b47 0A       		.uleb128 0xa
 2284 0b48 04       		.byte	0x4
 2285 0b49 1D060000 		.4byte	0x61d
 2286 0b4d 0A       		.uleb128 0xa
 2287 0b4e 04       		.byte	0x4
 2288 0b4f 77040000 		.4byte	0x477
 2289 0b53 14       		.uleb128 0x14
 2290 0b54 05000000 		.4byte	.LASF160
 2291 0b58 12       		.byte	0x12
 2292 0b59 7401     		.2byte	0x174
 2293 0b5b FC0A0000 		.4byte	0xafc
 2294 0b5f 14       		.uleb128 0x14
 2295 0b60 05060000 		.4byte	.LASF161
 2296 0b64 12       		.byte	0x12
 2297 0b65 7D01     		.2byte	0x17d
 2298 0b67 6B0B0000 		.4byte	0xb6b
 2299 0b6b 0A       		.uleb128 0xa
 2300 0b6c 04       		.byte	0x4
 2301 0b6d 710B0000 		.4byte	0xb71
 2302 0b71 0C       		.uleb128 0xc
 2303 0b72 810B0000 		.4byte	0xb81
 2304 0b76 0D       		.uleb128 0xd
 2305 0b77 3B030000 		.4byte	0x33b
 2306 0b7b 0D       		.uleb128 0xd
 2307 0b7c CE000000 		.4byte	0xce
 2308 0b80 00       		.byte	0
 2309 0b81 19       		.uleb128 0x19
 2310 0b82 01       		.byte	0x1
 2311 0b83 13       		.byte	0x13
 2312 0b84 46       		.byte	0x46
 2313 0b85 AE0B0000 		.4byte	0xbae
 2314 0b89 1A       		.uleb128 0x1a
 2315 0b8a D4020000 		.4byte	.LASF162
 2316 0b8e 00       		.sleb128 0
 2317 0b8f 1A       		.uleb128 0x1a
 2318 0b90 5A090000 		.4byte	.LASF163
 2319 0b94 01       		.sleb128 1
 2320 0b95 1A       		.uleb128 0x1a
 2321 0b96 EE020000 		.4byte	.LASF164
 2322 0b9a 02       		.sleb128 2
 2323 0b9b 1A       		.uleb128 0x1a
 2324 0b9c 2D070000 		.4byte	.LASF165
 2325 0ba0 03       		.sleb128 3
 2326 0ba1 1A       		.uleb128 0x1a
 2327 0ba2 04050000 		.4byte	.LASF166
 2328 0ba6 04       		.sleb128 4
 2329 0ba7 1A       		.uleb128 0x1a
 2330 0ba8 56030000 		.4byte	.LASF167
 2331 0bac 05       		.sleb128 5
 2332 0bad 00       		.byte	0
 2333 0bae 03       		.uleb128 0x3
ARM GAS  /tmp/ccOKB5Xj.s 			page 42


 2334 0baf 8F000000 		.4byte	.LASF168
 2335 0bb3 13       		.byte	0x13
 2336 0bb4 4D       		.byte	0x4d
 2337 0bb5 810B0000 		.4byte	0xb81
 2338 0bb9 14       		.uleb128 0x14
 2339 0bba 08030000 		.4byte	.LASF169
 2340 0bbe 14       		.byte	0x14
 2341 0bbf 2E01     		.2byte	0x12e
 2342 0bc1 B8000000 		.4byte	0xb8
 2343 0bc5 14       		.uleb128 0x14
 2344 0bc6 13040000 		.4byte	.LASF170
 2345 0bca 14       		.byte	0x14
 2346 0bcb 3301     		.2byte	0x133
 2347 0bcd B8000000 		.4byte	0xb8
 2348 0bd1 1B       		.uleb128 0x1b
 2349 0bd2 01       		.byte	0x1
 2350 0bd3 14       		.byte	0x14
 2351 0bd4 3A01     		.2byte	0x13a
 2352 0bd6 E70B0000 		.4byte	0xbe7
 2353 0bda 1A       		.uleb128 0x1a
 2354 0bdb 85030000 		.4byte	.LASF171
 2355 0bdf 00       		.sleb128 0
 2356 0be0 1A       		.uleb128 0x1a
 2357 0be1 ED080000 		.4byte	.LASF172
 2358 0be5 01       		.sleb128 1
 2359 0be6 00       		.byte	0
 2360 0be7 14       		.uleb128 0x14
 2361 0be8 C9020000 		.4byte	.LASF173
 2362 0bec 14       		.byte	0x14
 2363 0bed 3D01     		.2byte	0x13d
 2364 0bef D10B0000 		.4byte	0xbd1
 2365 0bf3 14       		.uleb128 0x14
 2366 0bf4 BB080000 		.4byte	.LASF174
 2367 0bf8 14       		.byte	0x14
 2368 0bf9 4201     		.2byte	0x142
 2369 0bfb FF0B0000 		.4byte	0xbff
 2370 0bff 0B       		.uleb128 0xb
 2371 0c00 BB080000 		.4byte	.LASF174
 2372 0c04 34       		.byte	0x34
 2373 0c05 14       		.byte	0x14
 2374 0c06 A601     		.2byte	0x1a6
 2375 0c08 8F0C0000 		.4byte	0xc8f
 2376 0c0c 09       		.uleb128 0x9
 2377 0c0d 08010000 		.4byte	.LASF38
 2378 0c11 14       		.byte	0x14
 2379 0c12 AA01     		.2byte	0x1aa
 2380 0c14 AE0B0000 		.4byte	0xbae
 2381 0c18 00       		.byte	0
 2382 0c19 09       		.uleb128 0x9
 2383 0c1a 01010000 		.4byte	.LASF175
 2384 0c1e 14       		.byte	0x14
 2385 0c1f AE01     		.2byte	0x1ae
 2386 0c21 AC0D0000 		.4byte	0xdac
 2387 0c25 04       		.byte	0x4
 2388 0c26 09       		.uleb128 0x9
 2389 0c27 D9030000 		.4byte	.LASF176
 2390 0c2b 14       		.byte	0x14
ARM GAS  /tmp/ccOKB5Xj.s 			page 43


 2391 0c2c B201     		.2byte	0x1b2
 2392 0c2e BC0C0000 		.4byte	0xcbc
 2393 0c32 08       		.byte	0x8
 2394 0c33 09       		.uleb128 0x9
 2395 0c34 AF050000 		.4byte	.LASF177
 2396 0c38 14       		.byte	0x14
 2397 0c39 B601     		.2byte	0x1b6
 2398 0c3b 2C000000 		.4byte	0x2c
 2399 0c3f 0C       		.byte	0xc
 2400 0c40 09       		.uleb128 0x9
 2401 0c41 73090000 		.4byte	.LASF178
 2402 0c45 14       		.byte	0x14
 2403 0c46 BA01     		.2byte	0x1ba
 2404 0c48 B70D0000 		.4byte	0xdb7
 2405 0c4c 10       		.byte	0x10
 2406 0c4d 09       		.uleb128 0x9
 2407 0c4e 92090000 		.4byte	.LASF179
 2408 0c52 14       		.byte	0x14
 2409 0c53 BF01     		.2byte	0x1bf
 2410 0c55 53020000 		.4byte	0x253
 2411 0c59 14       		.byte	0x14
 2412 0c5a 09       		.uleb128 0x9
 2413 0c5b B5050000 		.4byte	.LASF180
 2414 0c5f 14       		.byte	0x14
 2415 0c60 C501     		.2byte	0x1c5
 2416 0c62 E40A0000 		.4byte	0xae4
 2417 0c66 18       		.byte	0x18
 2418 0c67 08       		.uleb128 0x8
 2419 0c68 61646300 		.ascii	"adc\000"
 2420 0c6c 14       		.byte	0x14
 2421 0c6d CE01     		.2byte	0x1ce
 2422 0c6f C20D0000 		.4byte	0xdc2
 2423 0c73 28       		.byte	0x28
 2424 0c74 09       		.uleb128 0x9
 2425 0c75 6B040000 		.4byte	.LASF181
 2426 0c79 14       		.byte	0x14
 2427 0c7a D201     		.2byte	0x1d2
 2428 0c7c C80D0000 		.4byte	0xdc8
 2429 0c80 2C       		.byte	0x2c
 2430 0c81 09       		.uleb128 0x9
 2431 0c82 D0010000 		.4byte	.LASF182
 2432 0c86 14       		.byte	0x14
 2433 0c87 D601     		.2byte	0x1d6
 2434 0c89 CE000000 		.4byte	0xce
 2435 0c8d 30       		.byte	0x30
 2436 0c8e 00       		.byte	0
 2437 0c8f 14       		.uleb128 0x14
 2438 0c90 6A000000 		.4byte	.LASF183
 2439 0c94 14       		.byte	0x14
 2440 0c95 4C01     		.2byte	0x14c
 2441 0c97 9B0C0000 		.4byte	0xc9b
 2442 0c9b 0A       		.uleb128 0xa
 2443 0c9c 04       		.byte	0x4
 2444 0c9d A10C0000 		.4byte	0xca1
 2445 0ca1 0C       		.uleb128 0xc
 2446 0ca2 B60C0000 		.4byte	0xcb6
 2447 0ca6 0D       		.uleb128 0xd
ARM GAS  /tmp/ccOKB5Xj.s 			page 44


 2448 0ca7 B60C0000 		.4byte	0xcb6
 2449 0cab 0D       		.uleb128 0xd
 2450 0cac BC0C0000 		.4byte	0xcbc
 2451 0cb0 0D       		.uleb128 0xd
 2452 0cb1 2C000000 		.4byte	0x2c
 2453 0cb5 00       		.byte	0
 2454 0cb6 0A       		.uleb128 0xa
 2455 0cb7 04       		.byte	0x4
 2456 0cb8 F30B0000 		.4byte	0xbf3
 2457 0cbc 0A       		.uleb128 0xa
 2458 0cbd 04       		.byte	0x4
 2459 0cbe B90B0000 		.4byte	0xbb9
 2460 0cc2 14       		.uleb128 0x14
 2461 0cc3 93050000 		.4byte	.LASF184
 2462 0cc7 14       		.byte	0x14
 2463 0cc8 5501     		.2byte	0x155
 2464 0cca CE0C0000 		.4byte	0xcce
 2465 0cce 0A       		.uleb128 0xa
 2466 0ccf 04       		.byte	0x4
 2467 0cd0 D40C0000 		.4byte	0xcd4
 2468 0cd4 0C       		.uleb128 0xc
 2469 0cd5 E40C0000 		.4byte	0xce4
 2470 0cd9 0D       		.uleb128 0xd
 2471 0cda B60C0000 		.4byte	0xcb6
 2472 0cde 0D       		.uleb128 0xd
 2473 0cdf E70B0000 		.4byte	0xbe7
 2474 0ce3 00       		.byte	0
 2475 0ce4 13       		.uleb128 0x13
 2476 0ce5 28       		.byte	0x28
 2477 0ce6 14       		.byte	0x14
 2478 0ce7 5F01     		.2byte	0x15f
 2479 0ce9 7D0D0000 		.4byte	0xd7d
 2480 0ced 09       		.uleb128 0x9
 2481 0cee 76030000 		.4byte	.LASF185
 2482 0cf2 14       		.byte	0x14
 2483 0cf3 6301     		.2byte	0x163
 2484 0cf5 F50A0000 		.4byte	0xaf5
 2485 0cf9 00       		.byte	0
 2486 0cfa 09       		.uleb128 0x9
 2487 0cfb 14060000 		.4byte	.LASF186
 2488 0cff 14       		.byte	0x14
 2489 0d00 6701     		.2byte	0x167
 2490 0d02 C50B0000 		.4byte	0xbc5
 2491 0d06 02       		.byte	0x2
 2492 0d07 09       		.uleb128 0x9
 2493 0d08 5C010000 		.4byte	.LASF187
 2494 0d0c 14       		.byte	0x14
 2495 0d0d 6B01     		.2byte	0x16b
 2496 0d0f 8F0C0000 		.4byte	0xc8f
 2497 0d13 04       		.byte	0x4
 2498 0d14 09       		.uleb128 0x9
 2499 0d15 29010000 		.4byte	.LASF188
 2500 0d19 14       		.byte	0x14
 2501 0d1a 6F01     		.2byte	0x16f
 2502 0d1c C20C0000 		.4byte	0xcc2
 2503 0d20 08       		.byte	0x8
 2504 0d21 08       		.uleb128 0x8
ARM GAS  /tmp/ccOKB5Xj.s 			page 45


 2505 0d22 63723100 		.ascii	"cr1\000"
 2506 0d26 14       		.byte	0x14
 2507 0d27 7601     		.2byte	0x176
 2508 0d29 CE000000 		.4byte	0xce
 2509 0d2d 0C       		.byte	0xc
 2510 0d2e 08       		.uleb128 0x8
 2511 0d2f 63723200 		.ascii	"cr2\000"
 2512 0d33 14       		.byte	0x14
 2513 0d34 7D01     		.2byte	0x17d
 2514 0d36 CE000000 		.4byte	0xce
 2515 0d3a 10       		.byte	0x10
 2516 0d3b 09       		.uleb128 0x9
 2517 0d3c 21050000 		.4byte	.LASF189
 2518 0d40 14       		.byte	0x14
 2519 0d41 8301     		.2byte	0x183
 2520 0d43 CE000000 		.4byte	0xce
 2521 0d47 14       		.byte	0x14
 2522 0d48 09       		.uleb128 0x9
 2523 0d49 27050000 		.4byte	.LASF190
 2524 0d4d 14       		.byte	0x14
 2525 0d4e 8901     		.2byte	0x189
 2526 0d50 CE000000 		.4byte	0xce
 2527 0d54 18       		.byte	0x18
 2528 0d55 09       		.uleb128 0x9
 2529 0d56 1F000000 		.4byte	.LASF191
 2530 0d5a 14       		.byte	0x14
 2531 0d5b 8E01     		.2byte	0x18e
 2532 0d5d CE000000 		.4byte	0xce
 2533 0d61 1C       		.byte	0x1c
 2534 0d62 09       		.uleb128 0x9
 2535 0d63 24000000 		.4byte	.LASF192
 2536 0d67 14       		.byte	0x14
 2537 0d68 9301     		.2byte	0x193
 2538 0d6a CE000000 		.4byte	0xce
 2539 0d6e 20       		.byte	0x20
 2540 0d6f 09       		.uleb128 0x9
 2541 0d70 71030000 		.4byte	.LASF193
 2542 0d74 14       		.byte	0x14
 2543 0d75 9801     		.2byte	0x198
 2544 0d77 CE000000 		.4byte	0xce
 2545 0d7b 24       		.byte	0x24
 2546 0d7c 00       		.byte	0
 2547 0d7d 14       		.uleb128 0x14
 2548 0d7e F1040000 		.4byte	.LASF194
 2549 0d82 14       		.byte	0x14
 2550 0d83 9901     		.2byte	0x199
 2551 0d85 E40C0000 		.4byte	0xce4
 2552 0d89 13       		.uleb128 0x13
 2553 0d8a 04       		.byte	0x4
 2554 0d8b 14       		.byte	0x14
 2555 0d8c 9F01     		.2byte	0x19f
 2556 0d8e A00D0000 		.4byte	0xda0
 2557 0d92 09       		.uleb128 0x9
 2558 0d93 54090000 		.4byte	.LASF195
 2559 0d97 14       		.byte	0x14
 2560 0d98 A001     		.2byte	0x1a0
 2561 0d9a CE000000 		.4byte	0xce
ARM GAS  /tmp/ccOKB5Xj.s 			page 46


 2562 0d9e 00       		.byte	0
 2563 0d9f 00       		.byte	0
 2564 0da0 14       		.uleb128 0x14
 2565 0da1 2B0B0000 		.4byte	.LASF196
 2566 0da5 14       		.byte	0x14
 2567 0da6 A101     		.2byte	0x1a1
 2568 0da8 890D0000 		.4byte	0xd89
 2569 0dac 0A       		.uleb128 0xa
 2570 0dad 04       		.byte	0x4
 2571 0dae B20D0000 		.4byte	0xdb2
 2572 0db2 18       		.uleb128 0x18
 2573 0db3 A00D0000 		.4byte	0xda0
 2574 0db7 0A       		.uleb128 0xa
 2575 0db8 04       		.byte	0x4
 2576 0db9 BD0D0000 		.4byte	0xdbd
 2577 0dbd 18       		.uleb128 0x18
 2578 0dbe 7D0D0000 		.4byte	0xd7d
 2579 0dc2 0A       		.uleb128 0xa
 2580 0dc3 04       		.byte	0x4
 2581 0dc4 83050000 		.4byte	0x583
 2582 0dc8 0A       		.uleb128 0xa
 2583 0dc9 04       		.byte	0x4
 2584 0dca CE0D0000 		.4byte	0xdce
 2585 0dce 18       		.uleb128 0x18
 2586 0dcf 530B0000 		.4byte	0xb53
 2587 0dd3 1C       		.uleb128 0x1c
 2588 0dd4 18090000 		.4byte	.LASF202
 2589 0dd8 02       		.byte	0x2
 2590 0dd9 0601     		.2byte	0x106
 2591 0ddb 03       		.byte	0x3
 2592 0ddc ED0D0000 		.4byte	0xded
 2593 0de0 1D       		.uleb128 0x1d
 2594 0de1 A4080000 		.4byte	.LASF204
 2595 0de5 02       		.byte	0x2
 2596 0de6 0601     		.2byte	0x106
 2597 0de8 CE000000 		.4byte	0xce
 2598 0dec 00       		.byte	0
 2599 0ded 1E       		.uleb128 0x1e
 2600 0dee A3090000 		.4byte	.LASF197
 2601 0df2 0D       		.byte	0xd
 2602 0df3 5202     		.2byte	0x252
 2603 0df5 03       		.byte	0x3
 2604 0df6 1E       		.uleb128 0x1e
 2605 0df7 B3010000 		.4byte	.LASF198
 2606 0dfb 0D       		.byte	0xd
 2607 0dfc 6A02     		.2byte	0x26a
 2608 0dfe 03       		.byte	0x3
 2609 0dff 1E       		.uleb128 0x1e
 2610 0e00 75050000 		.4byte	.LASF199
 2611 0e04 0D       		.byte	0xd
 2612 0e05 7902     		.2byte	0x279
 2613 0e07 03       		.byte	0x3
 2614 0e08 1E       		.uleb128 0x1e
 2615 0e09 38070000 		.4byte	.LASF200
 2616 0e0d 0D       		.byte	0xd
 2617 0e0e 8402     		.2byte	0x284
 2618 0e10 03       		.byte	0x3
ARM GAS  /tmp/ccOKB5Xj.s 			page 47


 2619 0e11 1E       		.uleb128 0x1e
 2620 0e12 32010000 		.4byte	.LASF201
 2621 0e16 04       		.byte	0x4
 2622 0e17 0102     		.2byte	0x201
 2623 0e19 03       		.byte	0x3
 2624 0e1a 1C       		.uleb128 0x1c
 2625 0e1b 4A010000 		.4byte	.LASF203
 2626 0e1f 04       		.byte	0x4
 2627 0e20 D602     		.2byte	0x2d6
 2628 0e22 03       		.byte	0x3
 2629 0e23 400E0000 		.4byte	0xe40
 2630 0e27 1F       		.uleb128 0x1f
 2631 0e28 74727000 		.ascii	"trp\000"
 2632 0e2c 04       		.byte	0x4
 2633 0e2d D602     		.2byte	0x2d6
 2634 0e2f 590A0000 		.4byte	0xa59
 2635 0e33 1F       		.uleb128 0x1f
 2636 0e34 6D736700 		.ascii	"msg\000"
 2637 0e38 04       		.byte	0x4
 2638 0e39 D602     		.2byte	0x2d6
 2639 0e3b 26010000 		.4byte	0x126
 2640 0e3f 00       		.byte	0
 2641 0e40 1E       		.uleb128 0x1e
 2642 0e41 26040000 		.4byte	.LASF205
 2643 0e45 04       		.byte	0x4
 2644 0e46 0C02     		.2byte	0x20c
 2645 0e48 03       		.byte	0x3
 2646 0e49 20       		.uleb128 0x20
 2647 0e4a C5080000 		.4byte	.LASF206
 2648 0e4e 01       		.byte	0x1
 2649 0e4f B4       		.byte	0xb4
 2650 0e50 00000000 		.4byte	.LFB279
 2651 0e54 34000000 		.4byte	.LFE279-.LFB279
 2652 0e58 01       		.uleb128 0x1
 2653 0e59 9C       		.byte	0x9c
 2654 0e5a 870E0000 		.4byte	0xe87
 2655 0e5e 21       		.uleb128 0x21
 2656 0e5f 0A000000 		.4byte	.LVL0
 2657 0e63 FC130000 		.4byte	0x13fc
 2658 0e67 720E0000 		.4byte	0xe72
 2659 0e6b 22       		.uleb128 0x22
 2660 0e6c 01       		.uleb128 0x1
 2661 0e6d 50       		.byte	0x50
 2662 0e6e 02       		.uleb128 0x2
 2663 0e6f 74       		.byte	0x74
 2664 0e70 00       		.sleb128 0
 2665 0e71 00       		.byte	0
 2666 0e72 23       		.uleb128 0x23
 2667 0e73 22000000 		.4byte	.LVL1
 2668 0e77 0D140000 		.4byte	0x140d
 2669 0e7b 22       		.uleb128 0x22
 2670 0e7c 01       		.uleb128 0x1
 2671 0e7d 51       		.byte	0x51
 2672 0e7e 01       		.uleb128 0x1
 2673 0e7f 36       		.byte	0x36
 2674 0e80 22       		.uleb128 0x22
 2675 0e81 01       		.uleb128 0x1
ARM GAS  /tmp/ccOKB5Xj.s 			page 48


 2676 0e82 50       		.byte	0x50
 2677 0e83 01       		.uleb128 0x1
 2678 0e84 42       		.byte	0x42
 2679 0e85 00       		.byte	0
 2680 0e86 00       		.byte	0
 2681 0e87 20       		.uleb128 0x20
 2682 0e88 32000000 		.4byte	.LASF207
 2683 0e8c 01       		.byte	0x1
 2684 0e8d E9       		.byte	0xe9
 2685 0e8e 00000000 		.4byte	.LFB280
 2686 0e92 60000000 		.4byte	.LFE280-.LFB280
 2687 0e96 01       		.uleb128 0x1
 2688 0e97 9C       		.byte	0x9c
 2689 0e98 E60E0000 		.4byte	0xee6
 2690 0e9c 24       		.uleb128 0x24
 2691 0e9d 8E050000 		.4byte	.LASF209
 2692 0ea1 01       		.byte	0x1
 2693 0ea2 E9       		.byte	0xe9
 2694 0ea3 B60C0000 		.4byte	0xcb6
 2695 0ea7 00000000 		.4byte	.LLST0
 2696 0eab 25       		.uleb128 0x25
 2697 0eac D8000000 		.4byte	.LASF236
 2698 0eb0 F60E0000 		.4byte	0xef6
 2699 0eb4 26       		.uleb128 0x26
 2700 0eb5 10000000 		.4byte	.LBB43
 2701 0eb9 1E000000 		.4byte	.LBE43-.LBB43
 2702 0ebd 27       		.uleb128 0x27
 2703 0ebe 6200     		.ascii	"b\000"
 2704 0ec0 01       		.byte	0x1
 2705 0ec1 EF       		.byte	0xef
 2706 0ec2 F50A0000 		.4byte	0xaf5
 2707 0ec6 28       		.uleb128 0x28
 2708 0ec7 1C000000 		.4byte	.LVL4
 2709 0ecb 23140000 		.4byte	0x1423
 2710 0ecf 22       		.uleb128 0x22
 2711 0ed0 01       		.uleb128 0x1
 2712 0ed1 53       		.byte	0x53
 2713 0ed2 02       		.uleb128 0x2
 2714 0ed3 74       		.byte	0x74
 2715 0ed4 00       		.sleb128 0
 2716 0ed5 22       		.uleb128 0x22
 2717 0ed6 01       		.uleb128 0x1
 2718 0ed7 52       		.byte	0x52
 2719 0ed8 05       		.uleb128 0x5
 2720 0ed9 03       		.byte	0x3
 2721 0eda 00000000 		.4byte	adc_lld_serve_rx_interrupt
 2722 0ede 22       		.uleb128 0x22
 2723 0edf 01       		.uleb128 0x1
 2724 0ee0 51       		.byte	0x51
 2725 0ee1 01       		.uleb128 0x1
 2726 0ee2 36       		.byte	0x36
 2727 0ee3 00       		.byte	0
 2728 0ee4 00       		.byte	0
 2729 0ee5 00       		.byte	0
 2730 0ee6 10       		.uleb128 0x10
 2731 0ee7 CC0A0000 		.4byte	0xacc
 2732 0eeb F60E0000 		.4byte	0xef6
ARM GAS  /tmp/ccOKB5Xj.s 			page 49


 2733 0eef 11       		.uleb128 0x11
 2734 0ef0 70040000 		.4byte	0x470
 2735 0ef4 0D       		.byte	0xd
 2736 0ef5 00       		.byte	0
 2737 0ef6 18       		.uleb128 0x18
 2738 0ef7 E60E0000 		.4byte	0xee6
 2739 0efb 29       		.uleb128 0x29
 2740 0efc 0C020000 		.4byte	.LASF208
 2741 0f00 01       		.byte	0x1
 2742 0f01 2801     		.2byte	0x128
 2743 0f03 00000000 		.4byte	.LFB281
 2744 0f07 34000000 		.4byte	.LFE281-.LFB281
 2745 0f0b 01       		.uleb128 0x1
 2746 0f0c 9C       		.byte	0x9c
 2747 0f0d 2B0F0000 		.4byte	0xf2b
 2748 0f11 2A       		.uleb128 0x2a
 2749 0f12 8E050000 		.4byte	.LASF209
 2750 0f16 01       		.byte	0x1
 2751 0f17 2801     		.2byte	0x128
 2752 0f19 B60C0000 		.4byte	0xcb6
 2753 0f1d 2C000000 		.4byte	.LLST1
 2754 0f21 2B       		.uleb128 0x2b
 2755 0f22 10000000 		.4byte	.LVL8
 2756 0f26 48140000 		.4byte	0x1448
 2757 0f2a 00       		.byte	0
 2758 0f2b 29       		.uleb128 0x29
 2759 0f2c 33050000 		.4byte	.LASF210
 2760 0f30 01       		.byte	0x1
 2761 0f31 4801     		.2byte	0x148
 2762 0f33 00000000 		.4byte	.LFB282
 2763 0f37 8C000000 		.4byte	.LFE282-.LFB282
 2764 0f3b 01       		.uleb128 0x1
 2765 0f3c 9C       		.byte	0x9c
 2766 0f3d 800F0000 		.4byte	0xf80
 2767 0f41 2C       		.uleb128 0x2c
 2768 0f42 8E050000 		.4byte	.LASF209
 2769 0f46 01       		.byte	0x1
 2770 0f47 4801     		.2byte	0x148
 2771 0f49 B60C0000 		.4byte	0xcb6
 2772 0f4d 01       		.uleb128 0x1
 2773 0f4e 50       		.byte	0x50
 2774 0f4f 2D       		.uleb128 0x2d
 2775 0f50 CC090000 		.4byte	.LASF211
 2776 0f54 01       		.byte	0x1
 2777 0f55 4901     		.2byte	0x149
 2778 0f57 CE000000 		.4byte	0xce
 2779 0f5b 58000000 		.4byte	.LLST2
 2780 0f5f 2E       		.uleb128 0x2e
 2781 0f60 63723200 		.ascii	"cr2\000"
 2782 0f64 01       		.byte	0x1
 2783 0f65 4A01     		.2byte	0x14a
 2784 0f67 CE000000 		.4byte	0xce
 2785 0f6b A5000000 		.4byte	.LLST3
 2786 0f6f 2D       		.uleb128 0x2d
 2787 0f70 73090000 		.4byte	.LASF178
 2788 0f74 01       		.byte	0x1
 2789 0f75 4B01     		.2byte	0x14b
ARM GAS  /tmp/ccOKB5Xj.s 			page 50


 2790 0f77 B70D0000 		.4byte	0xdb7
 2791 0f7b D3000000 		.4byte	.LLST4
 2792 0f7f 00       		.byte	0
 2793 0f80 29       		.uleb128 0x29
 2794 0f81 62060000 		.4byte	.LASF212
 2795 0f85 01       		.byte	0x1
 2796 0f86 7F01     		.2byte	0x17f
 2797 0f88 00000000 		.4byte	.LFB283
 2798 0f8c 2C000000 		.4byte	.LFE283-.LFB283
 2799 0f90 01       		.uleb128 0x1
 2800 0f91 9C       		.byte	0x9c
 2801 0f92 A50F0000 		.4byte	0xfa5
 2802 0f96 2C       		.uleb128 0x2c
 2803 0f97 8E050000 		.4byte	.LASF209
 2804 0f9b 01       		.byte	0x1
 2805 0f9c 7F01     		.2byte	0x17f
 2806 0f9e B60C0000 		.4byte	0xcb6
 2807 0fa2 01       		.uleb128 0x1
 2808 0fa3 50       		.byte	0x50
 2809 0fa4 00       		.byte	0
 2810 0fa5 1E       		.uleb128 0x1e
 2811 0fa6 BF010000 		.4byte	.LASF213
 2812 0faa 03       		.byte	0x3
 2813 0fab 9E01     		.2byte	0x19e
 2814 0fad 03       		.byte	0x3
 2815 0fae 1E       		.uleb128 0x1e
 2816 0faf 63020000 		.4byte	.LASF214
 2817 0fb3 03       		.byte	0x3
 2818 0fb4 B201     		.2byte	0x1b2
 2819 0fb6 03       		.byte	0x3
 2820 0fb7 20       		.uleb128 0x20
 2821 0fb8 FA010000 		.4byte	.LASF215
 2822 0fbc 01       		.byte	0x1
 2823 0fbd 6F       		.byte	0x6f
 2824 0fbe 00000000 		.4byte	.LFB278
 2825 0fc2 80000000 		.4byte	.LFE278-.LFB278
 2826 0fc6 01       		.uleb128 0x1
 2827 0fc7 9C       		.byte	0x9c
 2828 0fc8 31110000 		.4byte	0x1131
 2829 0fcc 2F       		.uleb128 0x2f
 2830 0fcd 737200   		.ascii	"sr\000"
 2831 0fd0 01       		.byte	0x1
 2832 0fd1 70       		.byte	0x70
 2833 0fd2 CE000000 		.4byte	0xce
 2834 0fd6 F2000000 		.4byte	.LLST5
 2835 0fda 30       		.uleb128 0x30
 2836 0fdb 110E0000 		.4byte	0xe11
 2837 0fdf 4C000000 		.4byte	.LBB62
 2838 0fe3 0A000000 		.4byte	.LBE62-.LBB62
 2839 0fe7 01       		.byte	0x1
 2840 0fe8 7D       		.byte	0x7d
 2841 0fe9 48100000 		.4byte	0x1048
 2842 0fed 31       		.uleb128 0x31
 2843 0fee A50F0000 		.4byte	0xfa5
 2844 0ff2 4C000000 		.4byte	.LBB63
 2845 0ff6 0A000000 		.4byte	.LBE63-.LBB63
 2846 0ffa 04       		.byte	0x4
ARM GAS  /tmp/ccOKB5Xj.s 			page 51


 2847 0ffb 0302     		.2byte	0x203
 2848 0ffd 32       		.uleb128 0x32
 2849 0ffe FF0D0000 		.4byte	0xdff
 2850 1002 4C000000 		.4byte	.LBB65
 2851 1006 06000000 		.4byte	.LBE65-.LBB65
 2852 100a 03       		.byte	0x3
 2853 100b A001     		.2byte	0x1a0
 2854 100d 3D100000 		.4byte	0x103d
 2855 1011 31       		.uleb128 0x31
 2856 1012 ED0D0000 		.4byte	0xded
 2857 1016 4C000000 		.4byte	.LBB66
 2858 101a 06000000 		.4byte	.LBE66-.LBB66
 2859 101e 0D       		.byte	0xd
 2860 101f 7B02     		.2byte	0x27b
 2861 1021 31       		.uleb128 0x31
 2862 1022 D30D0000 		.4byte	0xdd3
 2863 1026 4C000000 		.4byte	.LBB67
 2864 102a 06000000 		.4byte	.LBE67-.LBB67
 2865 102e 0D       		.byte	0xd
 2866 102f 5A02     		.2byte	0x25a
 2867 1031 33       		.uleb128 0x33
 2868 1032 E00D0000 		.4byte	0xde0
 2869 1036 05010000 		.4byte	.LLST6
 2870 103a 00       		.byte	0
 2871 103b 00       		.byte	0
 2872 103c 00       		.byte	0
 2873 103d 2B       		.uleb128 0x2b
 2874 103e 56000000 		.4byte	.LVL27
 2875 1042 5A140000 		.4byte	0x145a
 2876 1046 00       		.byte	0
 2877 1047 00       		.byte	0
 2878 1048 30       		.uleb128 0x30
 2879 1049 1A0E0000 		.4byte	0xe1a
 2880 104d 56000000 		.4byte	.LBB69
 2881 1051 0A000000 		.4byte	.LBE69-.LBB69
 2882 1055 01       		.byte	0x1
 2883 1056 7D       		.byte	0x7d
 2884 1057 87100000 		.4byte	0x1087
 2885 105b 33       		.uleb128 0x33
 2886 105c 330E0000 		.4byte	0xe33
 2887 1060 1A010000 		.4byte	.LLST7
 2888 1064 33       		.uleb128 0x33
 2889 1065 270E0000 		.4byte	0xe27
 2890 1069 2F010000 		.4byte	.LLST8
 2891 106d 28       		.uleb128 0x28
 2892 106e 60000000 		.4byte	.LVL28
 2893 1072 61140000 		.4byte	0x1461
 2894 1076 22       		.uleb128 0x22
 2895 1077 01       		.uleb128 0x1
 2896 1078 51       		.byte	0x51
 2897 1079 02       		.uleb128 0x2
 2898 107a 09       		.byte	0x9
 2899 107b FF       		.byte	0xff
 2900 107c 22       		.uleb128 0x22
 2901 107d 01       		.uleb128 0x1
 2902 107e 50       		.byte	0x50
 2903 107f 05       		.uleb128 0x5
ARM GAS  /tmp/ccOKB5Xj.s 			page 52


 2904 1080 03       		.byte	0x3
 2905 1081 14000000 		.4byte	.LANCHOR0+20
 2906 1085 00       		.byte	0
 2907 1086 00       		.byte	0
 2908 1087 30       		.uleb128 0x30
 2909 1088 400E0000 		.4byte	0xe40
 2910 108c 60000000 		.4byte	.LBB71
 2911 1090 0A000000 		.4byte	.LBE71-.LBB71
 2912 1094 01       		.byte	0x1
 2913 1095 7D       		.byte	0x7d
 2914 1096 F5100000 		.4byte	0x10f5
 2915 109a 31       		.uleb128 0x31
 2916 109b AE0F0000 		.4byte	0xfae
 2917 109f 60000000 		.4byte	.LBB72
 2918 10a3 0A000000 		.4byte	.LBE72-.LBB72
 2919 10a7 04       		.byte	0x4
 2920 10a8 0E02     		.2byte	0x20e
 2921 10aa 32       		.uleb128 0x32
 2922 10ab 080E0000 		.4byte	0xe08
 2923 10af 64000000 		.4byte	.LBB74
 2924 10b3 06000000 		.4byte	.LBE74-.LBB74
 2925 10b7 03       		.byte	0x3
 2926 10b8 B601     		.2byte	0x1b6
 2927 10ba EA100000 		.4byte	0x10ea
 2928 10be 31       		.uleb128 0x31
 2929 10bf F60D0000 		.4byte	0xdf6
 2930 10c3 64000000 		.4byte	.LBB75
 2931 10c7 06000000 		.4byte	.LBE75-.LBB75
 2932 10cb 0D       		.byte	0xd
 2933 10cc 8602     		.2byte	0x286
 2934 10ce 31       		.uleb128 0x31
 2935 10cf D30D0000 		.4byte	0xdd3
 2936 10d3 64000000 		.4byte	.LBB76
 2937 10d7 06000000 		.4byte	.LBE76-.LBB76
 2938 10db 0D       		.byte	0xd
 2939 10dc 6D02     		.2byte	0x26d
 2940 10de 33       		.uleb128 0x33
 2941 10df E00D0000 		.4byte	0xde0
 2942 10e3 47010000 		.4byte	.LLST9
 2943 10e7 00       		.byte	0
 2944 10e8 00       		.byte	0
 2945 10e9 00       		.byte	0
 2946 10ea 2B       		.uleb128 0x2b
 2947 10eb 64000000 		.4byte	.LVL29
 2948 10ef 78140000 		.4byte	0x1478
 2949 10f3 00       		.byte	0
 2950 10f4 00       		.byte	0
 2951 10f5 2B       		.uleb128 0x2b
 2952 10f6 06000000 		.4byte	.LVL22
 2953 10fa 7F140000 		.4byte	0x147f
 2954 10fe 21       		.uleb128 0x21
 2955 10ff 26000000 		.4byte	.LVL24
 2956 1103 800F0000 		.4byte	0xf80
 2957 1107 12110000 		.4byte	0x1112
 2958 110b 22       		.uleb128 0x22
 2959 110c 01       		.uleb128 0x1
 2960 110d 50       		.byte	0x50
ARM GAS  /tmp/ccOKB5Xj.s 			page 53


 2961 110e 02       		.uleb128 0x2
 2962 110f 75       		.byte	0x75
 2963 1110 00       		.sleb128 0
 2964 1111 00       		.byte	0
 2965 1112 34       		.uleb128 0x34
 2966 1113 36000000 		.4byte	.LVL25
 2967 1117 27110000 		.4byte	0x1127
 2968 111b 22       		.uleb128 0x22
 2969 111c 01       		.uleb128 0x1
 2970 111d 51       		.byte	0x51
 2971 111e 01       		.uleb128 0x1
 2972 111f 31       		.byte	0x31
 2973 1120 22       		.uleb128 0x22
 2974 1121 01       		.uleb128 0x1
 2975 1122 50       		.byte	0x50
 2976 1123 02       		.uleb128 0x2
 2977 1124 75       		.byte	0x75
 2978 1125 00       		.sleb128 0
 2979 1126 00       		.byte	0
 2980 1127 35       		.uleb128 0x35
 2981 1128 72000000 		.4byte	.LVL31
 2982 112c 86140000 		.4byte	0x1486
 2983 1130 00       		.byte	0
 2984 1131 36       		.uleb128 0x36
 2985 1132 B90A0000 		.4byte	.LASF237
 2986 1136 01       		.byte	0x1
 2987 1137 4B       		.byte	0x4b
 2988 1138 00000000 		.4byte	.LFB277
 2989 113c CE000000 		.4byte	.LFE277-.LFB277
 2990 1140 01       		.uleb128 0x1
 2991 1141 9C       		.byte	0x9c
 2992 1142 66130000 		.4byte	0x1366
 2993 1146 24       		.uleb128 0x24
 2994 1147 8E050000 		.4byte	.LASF209
 2995 114b 01       		.byte	0x1
 2996 114c 4B       		.byte	0x4b
 2997 114d B60C0000 		.4byte	0xcb6
 2998 1151 5B010000 		.4byte	.LLST10
 2999 1155 24       		.uleb128 0x24
 3000 1156 60030000 		.4byte	.LASF39
 3001 115a 01       		.byte	0x1
 3002 115b 4B       		.byte	0x4b
 3003 115c CE000000 		.4byte	0xce
 3004 1160 B3010000 		.4byte	.LLST11
 3005 1164 30       		.uleb128 0x30
 3006 1165 110E0000 		.4byte	0xe11
 3007 1169 32000000 		.4byte	.LBB115
 3008 116d 0A000000 		.4byte	.LBE115-.LBB115
 3009 1171 01       		.byte	0x1
 3010 1172 51       		.byte	0x51
 3011 1173 D2110000 		.4byte	0x11d2
 3012 1177 31       		.uleb128 0x31
 3013 1178 A50F0000 		.4byte	0xfa5
 3014 117c 32000000 		.4byte	.LBB116
 3015 1180 0A000000 		.4byte	.LBE116-.LBB116
 3016 1184 04       		.byte	0x4
 3017 1185 0302     		.2byte	0x203
ARM GAS  /tmp/ccOKB5Xj.s 			page 54


 3018 1187 32       		.uleb128 0x32
 3019 1188 FF0D0000 		.4byte	0xdff
 3020 118c 32000000 		.4byte	.LBB118
 3021 1190 06000000 		.4byte	.LBE118-.LBB118
 3022 1194 03       		.byte	0x3
 3023 1195 A001     		.2byte	0x1a0
 3024 1197 C7110000 		.4byte	0x11c7
 3025 119b 31       		.uleb128 0x31
 3026 119c ED0D0000 		.4byte	0xded
 3027 11a0 32000000 		.4byte	.LBB119
 3028 11a4 06000000 		.4byte	.LBE119-.LBB119
 3029 11a8 0D       		.byte	0xd
 3030 11a9 7B02     		.2byte	0x27b
 3031 11ab 31       		.uleb128 0x31
 3032 11ac D30D0000 		.4byte	0xdd3
 3033 11b0 32000000 		.4byte	.LBB120
 3034 11b4 06000000 		.4byte	.LBE120-.LBB120
 3035 11b8 0D       		.byte	0xd
 3036 11b9 5A02     		.2byte	0x25a
 3037 11bb 33       		.uleb128 0x33
 3038 11bc E00D0000 		.4byte	0xde0
 3039 11c0 2A020000 		.4byte	.LLST12
 3040 11c4 00       		.byte	0
 3041 11c5 00       		.byte	0
 3042 11c6 00       		.byte	0
 3043 11c7 2B       		.uleb128 0x2b
 3044 11c8 3C000000 		.4byte	.LVL36
 3045 11cc 5A140000 		.4byte	0x145a
 3046 11d0 00       		.byte	0
 3047 11d1 00       		.byte	0
 3048 11d2 30       		.uleb128 0x30
 3049 11d3 1A0E0000 		.4byte	0xe1a
 3050 11d7 3C000000 		.4byte	.LBB122
 3051 11db 0A000000 		.4byte	.LBE122-.LBB122
 3052 11df 01       		.byte	0x1
 3053 11e0 51       		.byte	0x51
 3054 11e1 F8110000 		.4byte	0x11f8
 3055 11e5 33       		.uleb128 0x33
 3056 11e6 330E0000 		.4byte	0xe33
 3057 11ea 3F020000 		.4byte	.LLST13
 3058 11ee 33       		.uleb128 0x33
 3059 11ef 270E0000 		.4byte	0xe27
 3060 11f3 54020000 		.4byte	.LLST14
 3061 11f7 00       		.byte	0
 3062 11f8 37       		.uleb128 0x37
 3063 11f9 00000000 		.4byte	.Ldebug_ranges0+0
 3064 11fd 1C120000 		.4byte	0x121c
 3065 1201 38       		.uleb128 0x38
 3066 1202 FE080000 		.4byte	.LASF216
 3067 1206 01       		.byte	0x1
 3068 1207 5A       		.byte	0x5a
 3069 1208 2C000000 		.4byte	0x2c
 3070 120c 74020000 		.4byte	.LLST15
 3071 1210 39       		.uleb128 0x39
 3072 1211 B0080000 		.4byte	.LASF217
 3073 1215 01       		.byte	0x1
 3074 1216 5A       		.byte	0x5a
ARM GAS  /tmp/ccOKB5Xj.s 			page 55


 3075 1217 2C000000 		.4byte	0x2c
 3076 121b 00       		.byte	0
 3077 121c 30       		.uleb128 0x30
 3078 121d 110E0000 		.4byte	0xe11
 3079 1221 98000000 		.4byte	.LBB126
 3080 1225 0A000000 		.4byte	.LBE126-.LBB126
 3081 1229 01       		.byte	0x1
 3082 122a 5A       		.byte	0x5a
 3083 122b 8A120000 		.4byte	0x128a
 3084 122f 31       		.uleb128 0x31
 3085 1230 A50F0000 		.4byte	0xfa5
 3086 1234 98000000 		.4byte	.LBB127
 3087 1238 0A000000 		.4byte	.LBE127-.LBB127
 3088 123c 04       		.byte	0x4
 3089 123d 0302     		.2byte	0x203
 3090 123f 32       		.uleb128 0x32
 3091 1240 FF0D0000 		.4byte	0xdff
 3092 1244 98000000 		.4byte	.LBB129
 3093 1248 06000000 		.4byte	.LBE129-.LBB129
 3094 124c 03       		.byte	0x3
 3095 124d A001     		.2byte	0x1a0
 3096 124f 7F120000 		.4byte	0x127f
 3097 1253 31       		.uleb128 0x31
 3098 1254 ED0D0000 		.4byte	0xded
 3099 1258 98000000 		.4byte	.LBB130
 3100 125c 06000000 		.4byte	.LBE130-.LBB130
 3101 1260 0D       		.byte	0xd
 3102 1261 7B02     		.2byte	0x27b
 3103 1263 31       		.uleb128 0x31
 3104 1264 D30D0000 		.4byte	0xdd3
 3105 1268 98000000 		.4byte	.LBB131
 3106 126c 06000000 		.4byte	.LBE131-.LBB131
 3107 1270 0D       		.byte	0xd
 3108 1271 5A02     		.2byte	0x25a
 3109 1273 33       		.uleb128 0x33
 3110 1274 E00D0000 		.4byte	0xde0
 3111 1278 87020000 		.4byte	.LLST16
 3112 127c 00       		.byte	0
 3113 127d 00       		.byte	0
 3114 127e 00       		.byte	0
 3115 127f 2B       		.uleb128 0x2b
 3116 1280 A2000000 		.4byte	.LVL45
 3117 1284 5A140000 		.4byte	0x145a
 3118 1288 00       		.byte	0
 3119 1289 00       		.byte	0
 3120 128a 30       		.uleb128 0x30
 3121 128b 1A0E0000 		.4byte	0xe1a
 3122 128f A2000000 		.4byte	.LBB133
 3123 1293 0A000000 		.4byte	.LBE133-.LBB133
 3124 1297 01       		.byte	0x1
 3125 1298 5A       		.byte	0x5a
 3126 1299 B9120000 		.4byte	0x12b9
 3127 129d 33       		.uleb128 0x33
 3128 129e 330E0000 		.4byte	0xe33
 3129 12a2 9C020000 		.4byte	.LLST17
 3130 12a6 33       		.uleb128 0x33
 3131 12a7 270E0000 		.4byte	0xe27
ARM GAS  /tmp/ccOKB5Xj.s 			page 56


 3132 12ab B0020000 		.4byte	.LLST18
 3133 12af 2B       		.uleb128 0x2b
 3134 12b0 AC000000 		.4byte	.LVL48
 3135 12b4 61140000 		.4byte	0x1461
 3136 12b8 00       		.byte	0
 3137 12b9 30       		.uleb128 0x30
 3138 12ba 400E0000 		.4byte	0xe40
 3139 12be AC000000 		.4byte	.LBB135
 3140 12c2 0C000000 		.4byte	.LBE135-.LBB135
 3141 12c6 01       		.byte	0x1
 3142 12c7 5A       		.byte	0x5a
 3143 12c8 27130000 		.4byte	0x1327
 3144 12cc 31       		.uleb128 0x31
 3145 12cd AE0F0000 		.4byte	0xfae
 3146 12d1 AC000000 		.4byte	.LBB136
 3147 12d5 0C000000 		.4byte	.LBE136-.LBB136
 3148 12d9 04       		.byte	0x4
 3149 12da 0E02     		.2byte	0x20e
 3150 12dc 32       		.uleb128 0x32
 3151 12dd 080E0000 		.4byte	0xe08
 3152 12e1 B0000000 		.4byte	.LBB138
 3153 12e5 08000000 		.4byte	.LBE138-.LBB138
 3154 12e9 03       		.byte	0x3
 3155 12ea B601     		.2byte	0x1b6
 3156 12ec 1C130000 		.4byte	0x131c
 3157 12f0 31       		.uleb128 0x31
 3158 12f1 F60D0000 		.4byte	0xdf6
 3159 12f5 B0000000 		.4byte	.LBB139
 3160 12f9 08000000 		.4byte	.LBE139-.LBB139
 3161 12fd 0D       		.byte	0xd
 3162 12fe 8602     		.2byte	0x286
 3163 1300 31       		.uleb128 0x31
 3164 1301 D30D0000 		.4byte	0xdd3
 3165 1305 B0000000 		.4byte	.LBB140
 3166 1309 08000000 		.4byte	.LBE140-.LBB140
 3167 130d 0D       		.byte	0xd
 3168 130e 6D02     		.2byte	0x26d
 3169 1310 33       		.uleb128 0x33
 3170 1311 E00D0000 		.4byte	0xde0
 3171 1315 D0020000 		.4byte	.LLST19
 3172 1319 00       		.byte	0
 3173 131a 00       		.byte	0
 3174 131b 00       		.byte	0
 3175 131c 2B       		.uleb128 0x2b
 3176 131d B0000000 		.4byte	.LVL49
 3177 1321 78140000 		.4byte	0x1478
 3178 1325 00       		.byte	0
 3179 1326 00       		.byte	0
 3180 1327 21       		.uleb128 0x21
 3181 1328 0E000000 		.4byte	.LVL33
 3182 132c 800F0000 		.4byte	0xf80
 3183 1330 3B130000 		.4byte	0x133b
 3184 1334 22       		.uleb128 0x22
 3185 1335 01       		.uleb128 0x1
 3186 1336 50       		.byte	0x50
 3187 1337 02       		.uleb128 0x2
 3188 1338 74       		.byte	0x74
ARM GAS  /tmp/ccOKB5Xj.s 			page 57


 3189 1339 00       		.sleb128 0
 3190 133a 00       		.byte	0
 3191 133b 34       		.uleb128 0x34
 3192 133c 1E000000 		.4byte	.LVL34
 3193 1340 50130000 		.4byte	0x1350
 3194 1344 22       		.uleb128 0x22
 3195 1345 01       		.uleb128 0x1
 3196 1346 51       		.byte	0x51
 3197 1347 01       		.uleb128 0x1
 3198 1348 30       		.byte	0x30
 3199 1349 22       		.uleb128 0x22
 3200 134a 01       		.uleb128 0x1
 3201 134b 50       		.byte	0x50
 3202 134c 02       		.uleb128 0x2
 3203 134d 74       		.byte	0x74
 3204 134e 00       		.sleb128 0
 3205 134f 00       		.byte	0
 3206 1350 2B       		.uleb128 0x2b
 3207 1351 78000000 		.4byte	.LVL42
 3208 1355 800F0000 		.4byte	0xf80
 3209 1359 3A       		.uleb128 0x3a
 3210 135a 8A000000 		.4byte	.LVL43
 3211 135e 22       		.uleb128 0x22
 3212 135f 01       		.uleb128 0x1
 3213 1360 50       		.byte	0x50
 3214 1361 02       		.uleb128 0x2
 3215 1362 74       		.byte	0x74
 3216 1363 00       		.sleb128 0
 3217 1364 00       		.byte	0
 3218 1365 00       		.byte	0
 3219 1366 3B       		.uleb128 0x3b
 3220 1367 80010000 		.4byte	.LASF218
 3221 136b 01       		.byte	0x1
 3222 136c 8D01     		.2byte	0x18d
 3223 136e 00000000 		.4byte	.LFB284
 3224 1372 10000000 		.4byte	.LFE284-.LFB284
 3225 1376 01       		.uleb128 0x1
 3226 1377 9C       		.byte	0x9c
 3227 1378 3B       		.uleb128 0x3b
 3228 1379 E1000000 		.4byte	.LASF219
 3229 137d 01       		.byte	0x1
 3230 137e 9801     		.2byte	0x198
 3231 1380 00000000 		.4byte	.LFB285
 3232 1384 10000000 		.4byte	.LFE285-.LFB285
 3233 1388 01       		.uleb128 0x1
 3234 1389 9C       		.byte	0x9c
 3235 138a 3B       		.uleb128 0x3b
 3236 138b 2B090000 		.4byte	.LASF220
 3237 138f 01       		.byte	0x1
 3238 1390 A301     		.2byte	0x1a3
 3239 1392 00000000 		.4byte	.LFB286
 3240 1396 10000000 		.4byte	.LFE286-.LFB286
 3241 139a 01       		.uleb128 0x1
 3242 139b 9C       		.byte	0x9c
 3243 139c 3B       		.uleb128 0x3b
 3244 139d 14010000 		.4byte	.LASF221
 3245 13a1 01       		.byte	0x1
ARM GAS  /tmp/ccOKB5Xj.s 			page 58


 3246 13a2 AE01     		.2byte	0x1ae
 3247 13a4 00000000 		.4byte	.LFB287
 3248 13a8 10000000 		.4byte	.LFE287-.LFB287
 3249 13ac 01       		.uleb128 0x1
 3250 13ad 9C       		.byte	0x9c
 3251 13ae 3C       		.uleb128 0x3c
 3252 13af BB050000 		.4byte	.LASF222
 3253 13b3 15       		.byte	0x15
 3254 13b4 4407     		.2byte	0x744
 3255 13b6 BA130000 		.4byte	0x13ba
 3256 13ba 0F       		.uleb128 0xf
 3257 13bb C3000000 		.4byte	0xc3
 3258 13bf 3D       		.uleb128 0x3d
 3259 13c0 636800   		.ascii	"ch\000"
 3260 13c3 0A       		.byte	0xa
 3261 13c4 D201     		.2byte	0x1d2
 3262 13c6 0A040000 		.4byte	0x40a
 3263 13ca 10       		.uleb128 0x10
 3264 13cb 530B0000 		.4byte	0xb53
 3265 13cf DA130000 		.4byte	0x13da
 3266 13d3 11       		.uleb128 0x11
 3267 13d4 70040000 		.4byte	0x470
 3268 13d8 0F       		.byte	0xf
 3269 13d9 00       		.byte	0
 3270 13da 3C       		.uleb128 0x3c
 3271 13db 9F040000 		.4byte	.LASF223
 3272 13df 12       		.byte	0x12
 3273 13e0 9202     		.2byte	0x292
 3274 13e2 E6130000 		.4byte	0x13e6
 3275 13e6 18       		.uleb128 0x18
 3276 13e7 CA130000 		.4byte	0x13ca
 3277 13eb 3E       		.uleb128 0x3e
 3278 13ec 4B060000 		.4byte	.LASF224
 3279 13f0 01       		.byte	0x1
 3280 13f1 30       		.byte	0x30
 3281 13f2 F30B0000 		.4byte	0xbf3
 3282 13f6 05       		.uleb128 0x5
 3283 13f7 03       		.byte	0x3
 3284 13f8 00000000 		.4byte	ADCD1
 3285 13fc 3F       		.uleb128 0x3f
 3286 13fd 0A0A0000 		.4byte	.LASF225
 3287 1401 13       		.byte	0x13
 3288 1402 FB       		.byte	0xfb
 3289 1403 0D140000 		.4byte	0x140d
 3290 1407 0D       		.uleb128 0xd
 3291 1408 B60C0000 		.4byte	0xcb6
 3292 140c 00       		.byte	0
 3293 140d 3F       		.uleb128 0x3f
 3294 140e 9F0A0000 		.4byte	.LASF226
 3295 1412 16       		.byte	0x16
 3296 1413 4E       		.byte	0x4e
 3297 1414 23140000 		.4byte	0x1423
 3298 1418 0D       		.uleb128 0xd
 3299 1419 CE000000 		.4byte	0xce
 3300 141d 0D       		.uleb128 0xd
 3301 141e CE000000 		.4byte	0xce
 3302 1422 00       		.byte	0
ARM GAS  /tmp/ccOKB5Xj.s 			page 59


 3303 1423 40       		.uleb128 0x40
 3304 1424 A5030000 		.4byte	.LASF238
 3305 1428 12       		.byte	0x12
 3306 1429 9902     		.2byte	0x299
 3307 142b F50A0000 		.4byte	0xaf5
 3308 142f 48140000 		.4byte	0x1448
 3309 1433 0D       		.uleb128 0xd
 3310 1434 C80D0000 		.4byte	0xdc8
 3311 1438 0D       		.uleb128 0xd
 3312 1439 CE000000 		.4byte	0xce
 3313 143d 0D       		.uleb128 0xd
 3314 143e 5F0B0000 		.4byte	0xb5f
 3315 1442 0D       		.uleb128 0xd
 3316 1443 3B030000 		.4byte	0x33b
 3317 1447 00       		.byte	0
 3318 1448 41       		.uleb128 0x41
 3319 1449 B0000000 		.4byte	.LASF227
 3320 144d 12       		.byte	0x12
 3321 144e 9D02     		.2byte	0x29d
 3322 1450 5A140000 		.4byte	0x145a
 3323 1454 0D       		.uleb128 0xd
 3324 1455 C80D0000 		.4byte	0xdc8
 3325 1459 00       		.byte	0
 3326 145a 42       		.uleb128 0x42
 3327 145b 400A0000 		.4byte	.LASF229
 3328 145f 0F       		.byte	0xf
 3329 1460 51       		.byte	0x51
 3330 1461 41       		.uleb128 0x41
 3331 1462 9A000000 		.4byte	.LASF228
 3332 1466 17       		.byte	0x17
 3333 1467 0301     		.2byte	0x103
 3334 1469 78140000 		.4byte	0x1478
 3335 146d 0D       		.uleb128 0xd
 3336 146e 590A0000 		.4byte	0xa59
 3337 1472 0D       		.uleb128 0xd
 3338 1473 26010000 		.4byte	0x126
 3339 1477 00       		.byte	0
 3340 1478 42       		.uleb128 0x42
 3341 1479 BC030000 		.4byte	.LASF230
 3342 147d 0F       		.byte	0xf
 3343 147e 52       		.byte	0x52
 3344 147f 42       		.uleb128 0x42
 3345 1480 9F010000 		.4byte	.LASF231
 3346 1484 0F       		.byte	0xf
 3347 1485 4D       		.byte	0x4d
 3348 1486 43       		.uleb128 0x43
 3349 1487 30060000 		.4byte	.LASF232
 3350 148b 0D       		.byte	0xd
 3351 148c EA01     		.2byte	0x1ea
 3352 148e 00       		.byte	0
 3353              		.section	.debug_abbrev,"",%progbits
 3354              	.Ldebug_abbrev0:
 3355 0000 01       		.uleb128 0x1
 3356 0001 11       		.uleb128 0x11
 3357 0002 01       		.byte	0x1
 3358 0003 25       		.uleb128 0x25
 3359 0004 0E       		.uleb128 0xe
ARM GAS  /tmp/ccOKB5Xj.s 			page 60


 3360 0005 13       		.uleb128 0x13
 3361 0006 0B       		.uleb128 0xb
 3362 0007 03       		.uleb128 0x3
 3363 0008 0E       		.uleb128 0xe
 3364 0009 1B       		.uleb128 0x1b
 3365 000a 0E       		.uleb128 0xe
 3366 000b 55       		.uleb128 0x55
 3367 000c 17       		.uleb128 0x17
 3368 000d 11       		.uleb128 0x11
 3369 000e 01       		.uleb128 0x1
 3370 000f 10       		.uleb128 0x10
 3371 0010 17       		.uleb128 0x17
 3372 0011 00       		.byte	0
 3373 0012 00       		.byte	0
 3374 0013 02       		.uleb128 0x2
 3375 0014 24       		.uleb128 0x24
 3376 0015 00       		.byte	0
 3377 0016 0B       		.uleb128 0xb
 3378 0017 0B       		.uleb128 0xb
 3379 0018 3E       		.uleb128 0x3e
 3380 0019 0B       		.uleb128 0xb
 3381 001a 03       		.uleb128 0x3
 3382 001b 08       		.uleb128 0x8
 3383 001c 00       		.byte	0
 3384 001d 00       		.byte	0
 3385 001e 03       		.uleb128 0x3
 3386 001f 16       		.uleb128 0x16
 3387 0020 00       		.byte	0
 3388 0021 03       		.uleb128 0x3
 3389 0022 0E       		.uleb128 0xe
 3390 0023 3A       		.uleb128 0x3a
 3391 0024 0B       		.uleb128 0xb
 3392 0025 3B       		.uleb128 0x3b
 3393 0026 0B       		.uleb128 0xb
 3394 0027 49       		.uleb128 0x49
 3395 0028 13       		.uleb128 0x13
 3396 0029 00       		.byte	0
 3397 002a 00       		.byte	0
 3398 002b 04       		.uleb128 0x4
 3399 002c 24       		.uleb128 0x24
 3400 002d 00       		.byte	0
 3401 002e 0B       		.uleb128 0xb
 3402 002f 0B       		.uleb128 0xb
 3403 0030 3E       		.uleb128 0x3e
 3404 0031 0B       		.uleb128 0xb
 3405 0032 03       		.uleb128 0x3
 3406 0033 0E       		.uleb128 0xe
 3407 0034 00       		.byte	0
 3408 0035 00       		.byte	0
 3409 0036 05       		.uleb128 0x5
 3410 0037 13       		.uleb128 0x13
 3411 0038 01       		.byte	0x1
 3412 0039 03       		.uleb128 0x3
 3413 003a 0E       		.uleb128 0xe
 3414 003b 0B       		.uleb128 0xb
 3415 003c 0B       		.uleb128 0xb
 3416 003d 3A       		.uleb128 0x3a
ARM GAS  /tmp/ccOKB5Xj.s 			page 61


 3417 003e 0B       		.uleb128 0xb
 3418 003f 3B       		.uleb128 0x3b
 3419 0040 0B       		.uleb128 0xb
 3420 0041 01       		.uleb128 0x1
 3421 0042 13       		.uleb128 0x13
 3422 0043 00       		.byte	0
 3423 0044 00       		.byte	0
 3424 0045 06       		.uleb128 0x6
 3425 0046 0D       		.uleb128 0xd
 3426 0047 00       		.byte	0
 3427 0048 03       		.uleb128 0x3
 3428 0049 0E       		.uleb128 0xe
 3429 004a 3A       		.uleb128 0x3a
 3430 004b 0B       		.uleb128 0xb
 3431 004c 3B       		.uleb128 0x3b
 3432 004d 0B       		.uleb128 0xb
 3433 004e 49       		.uleb128 0x49
 3434 004f 13       		.uleb128 0x13
 3435 0050 38       		.uleb128 0x38
 3436 0051 0B       		.uleb128 0xb
 3437 0052 00       		.byte	0
 3438 0053 00       		.byte	0
 3439 0054 07       		.uleb128 0x7
 3440 0055 0D       		.uleb128 0xd
 3441 0056 00       		.byte	0
 3442 0057 03       		.uleb128 0x3
 3443 0058 08       		.uleb128 0x8
 3444 0059 3A       		.uleb128 0x3a
 3445 005a 0B       		.uleb128 0xb
 3446 005b 3B       		.uleb128 0x3b
 3447 005c 0B       		.uleb128 0xb
 3448 005d 49       		.uleb128 0x49
 3449 005e 13       		.uleb128 0x13
 3450 005f 38       		.uleb128 0x38
 3451 0060 0B       		.uleb128 0xb
 3452 0061 00       		.byte	0
 3453 0062 00       		.byte	0
 3454 0063 08       		.uleb128 0x8
 3455 0064 0D       		.uleb128 0xd
 3456 0065 00       		.byte	0
 3457 0066 03       		.uleb128 0x3
 3458 0067 08       		.uleb128 0x8
 3459 0068 3A       		.uleb128 0x3a
 3460 0069 0B       		.uleb128 0xb
 3461 006a 3B       		.uleb128 0x3b
 3462 006b 05       		.uleb128 0x5
 3463 006c 49       		.uleb128 0x49
 3464 006d 13       		.uleb128 0x13
 3465 006e 38       		.uleb128 0x38
 3466 006f 0B       		.uleb128 0xb
 3467 0070 00       		.byte	0
 3468 0071 00       		.byte	0
 3469 0072 09       		.uleb128 0x9
 3470 0073 0D       		.uleb128 0xd
 3471 0074 00       		.byte	0
 3472 0075 03       		.uleb128 0x3
 3473 0076 0E       		.uleb128 0xe
ARM GAS  /tmp/ccOKB5Xj.s 			page 62


 3474 0077 3A       		.uleb128 0x3a
 3475 0078 0B       		.uleb128 0xb
 3476 0079 3B       		.uleb128 0x3b
 3477 007a 05       		.uleb128 0x5
 3478 007b 49       		.uleb128 0x49
 3479 007c 13       		.uleb128 0x13
 3480 007d 38       		.uleb128 0x38
 3481 007e 0B       		.uleb128 0xb
 3482 007f 00       		.byte	0
 3483 0080 00       		.byte	0
 3484 0081 0A       		.uleb128 0xa
 3485 0082 0F       		.uleb128 0xf
 3486 0083 00       		.byte	0
 3487 0084 0B       		.uleb128 0xb
 3488 0085 0B       		.uleb128 0xb
 3489 0086 49       		.uleb128 0x49
 3490 0087 13       		.uleb128 0x13
 3491 0088 00       		.byte	0
 3492 0089 00       		.byte	0
 3493 008a 0B       		.uleb128 0xb
 3494 008b 13       		.uleb128 0x13
 3495 008c 01       		.byte	0x1
 3496 008d 03       		.uleb128 0x3
 3497 008e 0E       		.uleb128 0xe
 3498 008f 0B       		.uleb128 0xb
 3499 0090 0B       		.uleb128 0xb
 3500 0091 3A       		.uleb128 0x3a
 3501 0092 0B       		.uleb128 0xb
 3502 0093 3B       		.uleb128 0x3b
 3503 0094 05       		.uleb128 0x5
 3504 0095 01       		.uleb128 0x1
 3505 0096 13       		.uleb128 0x13
 3506 0097 00       		.byte	0
 3507 0098 00       		.byte	0
 3508 0099 0C       		.uleb128 0xc
 3509 009a 15       		.uleb128 0x15
 3510 009b 01       		.byte	0x1
 3511 009c 27       		.uleb128 0x27
 3512 009d 19       		.uleb128 0x19
 3513 009e 01       		.uleb128 0x1
 3514 009f 13       		.uleb128 0x13
 3515 00a0 00       		.byte	0
 3516 00a1 00       		.byte	0
 3517 00a2 0D       		.uleb128 0xd
 3518 00a3 05       		.uleb128 0x5
 3519 00a4 00       		.byte	0
 3520 00a5 49       		.uleb128 0x49
 3521 00a6 13       		.uleb128 0x13
 3522 00a7 00       		.byte	0
 3523 00a8 00       		.byte	0
 3524 00a9 0E       		.uleb128 0xe
 3525 00aa 0F       		.uleb128 0xf
 3526 00ab 00       		.byte	0
 3527 00ac 0B       		.uleb128 0xb
 3528 00ad 0B       		.uleb128 0xb
 3529 00ae 00       		.byte	0
 3530 00af 00       		.byte	0
ARM GAS  /tmp/ccOKB5Xj.s 			page 63


 3531 00b0 0F       		.uleb128 0xf
 3532 00b1 35       		.uleb128 0x35
 3533 00b2 00       		.byte	0
 3534 00b3 49       		.uleb128 0x49
 3535 00b4 13       		.uleb128 0x13
 3536 00b5 00       		.byte	0
 3537 00b6 00       		.byte	0
 3538 00b7 10       		.uleb128 0x10
 3539 00b8 01       		.uleb128 0x1
 3540 00b9 01       		.byte	0x1
 3541 00ba 49       		.uleb128 0x49
 3542 00bb 13       		.uleb128 0x13
 3543 00bc 01       		.uleb128 0x1
 3544 00bd 13       		.uleb128 0x13
 3545 00be 00       		.byte	0
 3546 00bf 00       		.byte	0
 3547 00c0 11       		.uleb128 0x11
 3548 00c1 21       		.uleb128 0x21
 3549 00c2 00       		.byte	0
 3550 00c3 49       		.uleb128 0x49
 3551 00c4 13       		.uleb128 0x13
 3552 00c5 2F       		.uleb128 0x2f
 3553 00c6 0B       		.uleb128 0xb
 3554 00c7 00       		.byte	0
 3555 00c8 00       		.byte	0
 3556 00c9 12       		.uleb128 0x12
 3557 00ca 13       		.uleb128 0x13
 3558 00cb 01       		.byte	0x1
 3559 00cc 0B       		.uleb128 0xb
 3560 00cd 0B       		.uleb128 0xb
 3561 00ce 3A       		.uleb128 0x3a
 3562 00cf 0B       		.uleb128 0xb
 3563 00d0 3B       		.uleb128 0x3b
 3564 00d1 0B       		.uleb128 0xb
 3565 00d2 01       		.uleb128 0x1
 3566 00d3 13       		.uleb128 0x13
 3567 00d4 00       		.byte	0
 3568 00d5 00       		.byte	0
 3569 00d6 13       		.uleb128 0x13
 3570 00d7 13       		.uleb128 0x13
 3571 00d8 01       		.byte	0x1
 3572 00d9 0B       		.uleb128 0xb
 3573 00da 0B       		.uleb128 0xb
 3574 00db 3A       		.uleb128 0x3a
 3575 00dc 0B       		.uleb128 0xb
 3576 00dd 3B       		.uleb128 0x3b
 3577 00de 05       		.uleb128 0x5
 3578 00df 01       		.uleb128 0x1
 3579 00e0 13       		.uleb128 0x13
 3580 00e1 00       		.byte	0
 3581 00e2 00       		.byte	0
 3582 00e3 14       		.uleb128 0x14
 3583 00e4 16       		.uleb128 0x16
 3584 00e5 00       		.byte	0
 3585 00e6 03       		.uleb128 0x3
 3586 00e7 0E       		.uleb128 0xe
 3587 00e8 3A       		.uleb128 0x3a
ARM GAS  /tmp/ccOKB5Xj.s 			page 64


 3588 00e9 0B       		.uleb128 0xb
 3589 00ea 3B       		.uleb128 0x3b
 3590 00eb 05       		.uleb128 0x5
 3591 00ec 49       		.uleb128 0x49
 3592 00ed 13       		.uleb128 0x13
 3593 00ee 00       		.byte	0
 3594 00ef 00       		.byte	0
 3595 00f0 15       		.uleb128 0x15
 3596 00f1 17       		.uleb128 0x17
 3597 00f2 01       		.byte	0x1
 3598 00f3 0B       		.uleb128 0xb
 3599 00f4 0B       		.uleb128 0xb
 3600 00f5 3A       		.uleb128 0x3a
 3601 00f6 0B       		.uleb128 0xb
 3602 00f7 3B       		.uleb128 0x3b
 3603 00f8 0B       		.uleb128 0xb
 3604 00f9 01       		.uleb128 0x1
 3605 00fa 13       		.uleb128 0x13
 3606 00fb 00       		.byte	0
 3607 00fc 00       		.byte	0
 3608 00fd 16       		.uleb128 0x16
 3609 00fe 0D       		.uleb128 0xd
 3610 00ff 00       		.byte	0
 3611 0100 03       		.uleb128 0x3
 3612 0101 0E       		.uleb128 0xe
 3613 0102 3A       		.uleb128 0x3a
 3614 0103 0B       		.uleb128 0xb
 3615 0104 3B       		.uleb128 0x3b
 3616 0105 0B       		.uleb128 0xb
 3617 0106 49       		.uleb128 0x49
 3618 0107 13       		.uleb128 0x13
 3619 0108 00       		.byte	0
 3620 0109 00       		.byte	0
 3621 010a 17       		.uleb128 0x17
 3622 010b 0D       		.uleb128 0xd
 3623 010c 00       		.byte	0
 3624 010d 03       		.uleb128 0x3
 3625 010e 0E       		.uleb128 0xe
 3626 010f 3A       		.uleb128 0x3a
 3627 0110 0B       		.uleb128 0xb
 3628 0111 3B       		.uleb128 0x3b
 3629 0112 05       		.uleb128 0x5
 3630 0113 49       		.uleb128 0x49
 3631 0114 13       		.uleb128 0x13
 3632 0115 00       		.byte	0
 3633 0116 00       		.byte	0
 3634 0117 18       		.uleb128 0x18
 3635 0118 26       		.uleb128 0x26
 3636 0119 00       		.byte	0
 3637 011a 49       		.uleb128 0x49
 3638 011b 13       		.uleb128 0x13
 3639 011c 00       		.byte	0
 3640 011d 00       		.byte	0
 3641 011e 19       		.uleb128 0x19
 3642 011f 04       		.uleb128 0x4
 3643 0120 01       		.byte	0x1
 3644 0121 0B       		.uleb128 0xb
ARM GAS  /tmp/ccOKB5Xj.s 			page 65


 3645 0122 0B       		.uleb128 0xb
 3646 0123 3A       		.uleb128 0x3a
 3647 0124 0B       		.uleb128 0xb
 3648 0125 3B       		.uleb128 0x3b
 3649 0126 0B       		.uleb128 0xb
 3650 0127 01       		.uleb128 0x1
 3651 0128 13       		.uleb128 0x13
 3652 0129 00       		.byte	0
 3653 012a 00       		.byte	0
 3654 012b 1A       		.uleb128 0x1a
 3655 012c 28       		.uleb128 0x28
 3656 012d 00       		.byte	0
 3657 012e 03       		.uleb128 0x3
 3658 012f 0E       		.uleb128 0xe
 3659 0130 1C       		.uleb128 0x1c
 3660 0131 0D       		.uleb128 0xd
 3661 0132 00       		.byte	0
 3662 0133 00       		.byte	0
 3663 0134 1B       		.uleb128 0x1b
 3664 0135 04       		.uleb128 0x4
 3665 0136 01       		.byte	0x1
 3666 0137 0B       		.uleb128 0xb
 3667 0138 0B       		.uleb128 0xb
 3668 0139 3A       		.uleb128 0x3a
 3669 013a 0B       		.uleb128 0xb
 3670 013b 3B       		.uleb128 0x3b
 3671 013c 05       		.uleb128 0x5
 3672 013d 01       		.uleb128 0x1
 3673 013e 13       		.uleb128 0x13
 3674 013f 00       		.byte	0
 3675 0140 00       		.byte	0
 3676 0141 1C       		.uleb128 0x1c
 3677 0142 2E       		.uleb128 0x2e
 3678 0143 01       		.byte	0x1
 3679 0144 03       		.uleb128 0x3
 3680 0145 0E       		.uleb128 0xe
 3681 0146 3A       		.uleb128 0x3a
 3682 0147 0B       		.uleb128 0xb
 3683 0148 3B       		.uleb128 0x3b
 3684 0149 05       		.uleb128 0x5
 3685 014a 27       		.uleb128 0x27
 3686 014b 19       		.uleb128 0x19
 3687 014c 20       		.uleb128 0x20
 3688 014d 0B       		.uleb128 0xb
 3689 014e 01       		.uleb128 0x1
 3690 014f 13       		.uleb128 0x13
 3691 0150 00       		.byte	0
 3692 0151 00       		.byte	0
 3693 0152 1D       		.uleb128 0x1d
 3694 0153 05       		.uleb128 0x5
 3695 0154 00       		.byte	0
 3696 0155 03       		.uleb128 0x3
 3697 0156 0E       		.uleb128 0xe
 3698 0157 3A       		.uleb128 0x3a
 3699 0158 0B       		.uleb128 0xb
 3700 0159 3B       		.uleb128 0x3b
 3701 015a 05       		.uleb128 0x5
ARM GAS  /tmp/ccOKB5Xj.s 			page 66


 3702 015b 49       		.uleb128 0x49
 3703 015c 13       		.uleb128 0x13
 3704 015d 00       		.byte	0
 3705 015e 00       		.byte	0
 3706 015f 1E       		.uleb128 0x1e
 3707 0160 2E       		.uleb128 0x2e
 3708 0161 00       		.byte	0
 3709 0162 03       		.uleb128 0x3
 3710 0163 0E       		.uleb128 0xe
 3711 0164 3A       		.uleb128 0x3a
 3712 0165 0B       		.uleb128 0xb
 3713 0166 3B       		.uleb128 0x3b
 3714 0167 05       		.uleb128 0x5
 3715 0168 27       		.uleb128 0x27
 3716 0169 19       		.uleb128 0x19
 3717 016a 20       		.uleb128 0x20
 3718 016b 0B       		.uleb128 0xb
 3719 016c 00       		.byte	0
 3720 016d 00       		.byte	0
 3721 016e 1F       		.uleb128 0x1f
 3722 016f 05       		.uleb128 0x5
 3723 0170 00       		.byte	0
 3724 0171 03       		.uleb128 0x3
 3725 0172 08       		.uleb128 0x8
 3726 0173 3A       		.uleb128 0x3a
 3727 0174 0B       		.uleb128 0xb
 3728 0175 3B       		.uleb128 0x3b
 3729 0176 05       		.uleb128 0x5
 3730 0177 49       		.uleb128 0x49
 3731 0178 13       		.uleb128 0x13
 3732 0179 00       		.byte	0
 3733 017a 00       		.byte	0
 3734 017b 20       		.uleb128 0x20
 3735 017c 2E       		.uleb128 0x2e
 3736 017d 01       		.byte	0x1
 3737 017e 3F       		.uleb128 0x3f
 3738 017f 19       		.uleb128 0x19
 3739 0180 03       		.uleb128 0x3
 3740 0181 0E       		.uleb128 0xe
 3741 0182 3A       		.uleb128 0x3a
 3742 0183 0B       		.uleb128 0xb
 3743 0184 3B       		.uleb128 0x3b
 3744 0185 0B       		.uleb128 0xb
 3745 0186 27       		.uleb128 0x27
 3746 0187 19       		.uleb128 0x19
 3747 0188 11       		.uleb128 0x11
 3748 0189 01       		.uleb128 0x1
 3749 018a 12       		.uleb128 0x12
 3750 018b 06       		.uleb128 0x6
 3751 018c 40       		.uleb128 0x40
 3752 018d 18       		.uleb128 0x18
 3753 018e 9742     		.uleb128 0x2117
 3754 0190 19       		.uleb128 0x19
 3755 0191 01       		.uleb128 0x1
 3756 0192 13       		.uleb128 0x13
 3757 0193 00       		.byte	0
 3758 0194 00       		.byte	0
ARM GAS  /tmp/ccOKB5Xj.s 			page 67


 3759 0195 21       		.uleb128 0x21
 3760 0196 898201   		.uleb128 0x4109
 3761 0199 01       		.byte	0x1
 3762 019a 11       		.uleb128 0x11
 3763 019b 01       		.uleb128 0x1
 3764 019c 31       		.uleb128 0x31
 3765 019d 13       		.uleb128 0x13
 3766 019e 01       		.uleb128 0x1
 3767 019f 13       		.uleb128 0x13
 3768 01a0 00       		.byte	0
 3769 01a1 00       		.byte	0
 3770 01a2 22       		.uleb128 0x22
 3771 01a3 8A8201   		.uleb128 0x410a
 3772 01a6 00       		.byte	0
 3773 01a7 02       		.uleb128 0x2
 3774 01a8 18       		.uleb128 0x18
 3775 01a9 9142     		.uleb128 0x2111
 3776 01ab 18       		.uleb128 0x18
 3777 01ac 00       		.byte	0
 3778 01ad 00       		.byte	0
 3779 01ae 23       		.uleb128 0x23
 3780 01af 898201   		.uleb128 0x4109
 3781 01b2 01       		.byte	0x1
 3782 01b3 11       		.uleb128 0x11
 3783 01b4 01       		.uleb128 0x1
 3784 01b5 9542     		.uleb128 0x2115
 3785 01b7 19       		.uleb128 0x19
 3786 01b8 31       		.uleb128 0x31
 3787 01b9 13       		.uleb128 0x13
 3788 01ba 00       		.byte	0
 3789 01bb 00       		.byte	0
 3790 01bc 24       		.uleb128 0x24
 3791 01bd 05       		.uleb128 0x5
 3792 01be 00       		.byte	0
 3793 01bf 03       		.uleb128 0x3
 3794 01c0 0E       		.uleb128 0xe
 3795 01c1 3A       		.uleb128 0x3a
 3796 01c2 0B       		.uleb128 0xb
 3797 01c3 3B       		.uleb128 0x3b
 3798 01c4 0B       		.uleb128 0xb
 3799 01c5 49       		.uleb128 0x49
 3800 01c6 13       		.uleb128 0x13
 3801 01c7 02       		.uleb128 0x2
 3802 01c8 17       		.uleb128 0x17
 3803 01c9 00       		.byte	0
 3804 01ca 00       		.byte	0
 3805 01cb 25       		.uleb128 0x25
 3806 01cc 34       		.uleb128 0x34
 3807 01cd 00       		.byte	0
 3808 01ce 03       		.uleb128 0x3
 3809 01cf 0E       		.uleb128 0xe
 3810 01d0 49       		.uleb128 0x49
 3811 01d1 13       		.uleb128 0x13
 3812 01d2 34       		.uleb128 0x34
 3813 01d3 19       		.uleb128 0x19
 3814 01d4 00       		.byte	0
 3815 01d5 00       		.byte	0
ARM GAS  /tmp/ccOKB5Xj.s 			page 68


 3816 01d6 26       		.uleb128 0x26
 3817 01d7 0B       		.uleb128 0xb
 3818 01d8 01       		.byte	0x1
 3819 01d9 11       		.uleb128 0x11
 3820 01da 01       		.uleb128 0x1
 3821 01db 12       		.uleb128 0x12
 3822 01dc 06       		.uleb128 0x6
 3823 01dd 00       		.byte	0
 3824 01de 00       		.byte	0
 3825 01df 27       		.uleb128 0x27
 3826 01e0 34       		.uleb128 0x34
 3827 01e1 00       		.byte	0
 3828 01e2 03       		.uleb128 0x3
 3829 01e3 08       		.uleb128 0x8
 3830 01e4 3A       		.uleb128 0x3a
 3831 01e5 0B       		.uleb128 0xb
 3832 01e6 3B       		.uleb128 0x3b
 3833 01e7 0B       		.uleb128 0xb
 3834 01e8 49       		.uleb128 0x49
 3835 01e9 13       		.uleb128 0x13
 3836 01ea 00       		.byte	0
 3837 01eb 00       		.byte	0
 3838 01ec 28       		.uleb128 0x28
 3839 01ed 898201   		.uleb128 0x4109
 3840 01f0 01       		.byte	0x1
 3841 01f1 11       		.uleb128 0x11
 3842 01f2 01       		.uleb128 0x1
 3843 01f3 31       		.uleb128 0x31
 3844 01f4 13       		.uleb128 0x13
 3845 01f5 00       		.byte	0
 3846 01f6 00       		.byte	0
 3847 01f7 29       		.uleb128 0x29
 3848 01f8 2E       		.uleb128 0x2e
 3849 01f9 01       		.byte	0x1
 3850 01fa 3F       		.uleb128 0x3f
 3851 01fb 19       		.uleb128 0x19
 3852 01fc 03       		.uleb128 0x3
 3853 01fd 0E       		.uleb128 0xe
 3854 01fe 3A       		.uleb128 0x3a
 3855 01ff 0B       		.uleb128 0xb
 3856 0200 3B       		.uleb128 0x3b
 3857 0201 05       		.uleb128 0x5
 3858 0202 27       		.uleb128 0x27
 3859 0203 19       		.uleb128 0x19
 3860 0204 11       		.uleb128 0x11
 3861 0205 01       		.uleb128 0x1
 3862 0206 12       		.uleb128 0x12
 3863 0207 06       		.uleb128 0x6
 3864 0208 40       		.uleb128 0x40
 3865 0209 18       		.uleb128 0x18
 3866 020a 9742     		.uleb128 0x2117
 3867 020c 19       		.uleb128 0x19
 3868 020d 01       		.uleb128 0x1
 3869 020e 13       		.uleb128 0x13
 3870 020f 00       		.byte	0
 3871 0210 00       		.byte	0
 3872 0211 2A       		.uleb128 0x2a
ARM GAS  /tmp/ccOKB5Xj.s 			page 69


 3873 0212 05       		.uleb128 0x5
 3874 0213 00       		.byte	0
 3875 0214 03       		.uleb128 0x3
 3876 0215 0E       		.uleb128 0xe
 3877 0216 3A       		.uleb128 0x3a
 3878 0217 0B       		.uleb128 0xb
 3879 0218 3B       		.uleb128 0x3b
 3880 0219 05       		.uleb128 0x5
 3881 021a 49       		.uleb128 0x49
 3882 021b 13       		.uleb128 0x13
 3883 021c 02       		.uleb128 0x2
 3884 021d 17       		.uleb128 0x17
 3885 021e 00       		.byte	0
 3886 021f 00       		.byte	0
 3887 0220 2B       		.uleb128 0x2b
 3888 0221 898201   		.uleb128 0x4109
 3889 0224 00       		.byte	0
 3890 0225 11       		.uleb128 0x11
 3891 0226 01       		.uleb128 0x1
 3892 0227 31       		.uleb128 0x31
 3893 0228 13       		.uleb128 0x13
 3894 0229 00       		.byte	0
 3895 022a 00       		.byte	0
 3896 022b 2C       		.uleb128 0x2c
 3897 022c 05       		.uleb128 0x5
 3898 022d 00       		.byte	0
 3899 022e 03       		.uleb128 0x3
 3900 022f 0E       		.uleb128 0xe
 3901 0230 3A       		.uleb128 0x3a
 3902 0231 0B       		.uleb128 0xb
 3903 0232 3B       		.uleb128 0x3b
 3904 0233 05       		.uleb128 0x5
 3905 0234 49       		.uleb128 0x49
 3906 0235 13       		.uleb128 0x13
 3907 0236 02       		.uleb128 0x2
 3908 0237 18       		.uleb128 0x18
 3909 0238 00       		.byte	0
 3910 0239 00       		.byte	0
 3911 023a 2D       		.uleb128 0x2d
 3912 023b 34       		.uleb128 0x34
 3913 023c 00       		.byte	0
 3914 023d 03       		.uleb128 0x3
 3915 023e 0E       		.uleb128 0xe
 3916 023f 3A       		.uleb128 0x3a
 3917 0240 0B       		.uleb128 0xb
 3918 0241 3B       		.uleb128 0x3b
 3919 0242 05       		.uleb128 0x5
 3920 0243 49       		.uleb128 0x49
 3921 0244 13       		.uleb128 0x13
 3922 0245 02       		.uleb128 0x2
 3923 0246 17       		.uleb128 0x17
 3924 0247 00       		.byte	0
 3925 0248 00       		.byte	0
 3926 0249 2E       		.uleb128 0x2e
 3927 024a 34       		.uleb128 0x34
 3928 024b 00       		.byte	0
 3929 024c 03       		.uleb128 0x3
ARM GAS  /tmp/ccOKB5Xj.s 			page 70


 3930 024d 08       		.uleb128 0x8
 3931 024e 3A       		.uleb128 0x3a
 3932 024f 0B       		.uleb128 0xb
 3933 0250 3B       		.uleb128 0x3b
 3934 0251 05       		.uleb128 0x5
 3935 0252 49       		.uleb128 0x49
 3936 0253 13       		.uleb128 0x13
 3937 0254 02       		.uleb128 0x2
 3938 0255 17       		.uleb128 0x17
 3939 0256 00       		.byte	0
 3940 0257 00       		.byte	0
 3941 0258 2F       		.uleb128 0x2f
 3942 0259 34       		.uleb128 0x34
 3943 025a 00       		.byte	0
 3944 025b 03       		.uleb128 0x3
 3945 025c 08       		.uleb128 0x8
 3946 025d 3A       		.uleb128 0x3a
 3947 025e 0B       		.uleb128 0xb
 3948 025f 3B       		.uleb128 0x3b
 3949 0260 0B       		.uleb128 0xb
 3950 0261 49       		.uleb128 0x49
 3951 0262 13       		.uleb128 0x13
 3952 0263 02       		.uleb128 0x2
 3953 0264 17       		.uleb128 0x17
 3954 0265 00       		.byte	0
 3955 0266 00       		.byte	0
 3956 0267 30       		.uleb128 0x30
 3957 0268 1D       		.uleb128 0x1d
 3958 0269 01       		.byte	0x1
 3959 026a 31       		.uleb128 0x31
 3960 026b 13       		.uleb128 0x13
 3961 026c 11       		.uleb128 0x11
 3962 026d 01       		.uleb128 0x1
 3963 026e 12       		.uleb128 0x12
 3964 026f 06       		.uleb128 0x6
 3965 0270 58       		.uleb128 0x58
 3966 0271 0B       		.uleb128 0xb
 3967 0272 59       		.uleb128 0x59
 3968 0273 0B       		.uleb128 0xb
 3969 0274 01       		.uleb128 0x1
 3970 0275 13       		.uleb128 0x13
 3971 0276 00       		.byte	0
 3972 0277 00       		.byte	0
 3973 0278 31       		.uleb128 0x31
 3974 0279 1D       		.uleb128 0x1d
 3975 027a 01       		.byte	0x1
 3976 027b 31       		.uleb128 0x31
 3977 027c 13       		.uleb128 0x13
 3978 027d 11       		.uleb128 0x11
 3979 027e 01       		.uleb128 0x1
 3980 027f 12       		.uleb128 0x12
 3981 0280 06       		.uleb128 0x6
 3982 0281 58       		.uleb128 0x58
 3983 0282 0B       		.uleb128 0xb
 3984 0283 59       		.uleb128 0x59
 3985 0284 05       		.uleb128 0x5
 3986 0285 00       		.byte	0
ARM GAS  /tmp/ccOKB5Xj.s 			page 71


 3987 0286 00       		.byte	0
 3988 0287 32       		.uleb128 0x32
 3989 0288 1D       		.uleb128 0x1d
 3990 0289 01       		.byte	0x1
 3991 028a 31       		.uleb128 0x31
 3992 028b 13       		.uleb128 0x13
 3993 028c 11       		.uleb128 0x11
 3994 028d 01       		.uleb128 0x1
 3995 028e 12       		.uleb128 0x12
 3996 028f 06       		.uleb128 0x6
 3997 0290 58       		.uleb128 0x58
 3998 0291 0B       		.uleb128 0xb
 3999 0292 59       		.uleb128 0x59
 4000 0293 05       		.uleb128 0x5
 4001 0294 01       		.uleb128 0x1
 4002 0295 13       		.uleb128 0x13
 4003 0296 00       		.byte	0
 4004 0297 00       		.byte	0
 4005 0298 33       		.uleb128 0x33
 4006 0299 05       		.uleb128 0x5
 4007 029a 00       		.byte	0
 4008 029b 31       		.uleb128 0x31
 4009 029c 13       		.uleb128 0x13
 4010 029d 02       		.uleb128 0x2
 4011 029e 17       		.uleb128 0x17
 4012 029f 00       		.byte	0
 4013 02a0 00       		.byte	0
 4014 02a1 34       		.uleb128 0x34
 4015 02a2 898201   		.uleb128 0x4109
 4016 02a5 01       		.byte	0x1
 4017 02a6 11       		.uleb128 0x11
 4018 02a7 01       		.uleb128 0x1
 4019 02a8 01       		.uleb128 0x1
 4020 02a9 13       		.uleb128 0x13
 4021 02aa 00       		.byte	0
 4022 02ab 00       		.byte	0
 4023 02ac 35       		.uleb128 0x35
 4024 02ad 898201   		.uleb128 0x4109
 4025 02b0 00       		.byte	0
 4026 02b1 11       		.uleb128 0x11
 4027 02b2 01       		.uleb128 0x1
 4028 02b3 9542     		.uleb128 0x2115
 4029 02b5 19       		.uleb128 0x19
 4030 02b6 31       		.uleb128 0x31
 4031 02b7 13       		.uleb128 0x13
 4032 02b8 00       		.byte	0
 4033 02b9 00       		.byte	0
 4034 02ba 36       		.uleb128 0x36
 4035 02bb 2E       		.uleb128 0x2e
 4036 02bc 01       		.byte	0x1
 4037 02bd 03       		.uleb128 0x3
 4038 02be 0E       		.uleb128 0xe
 4039 02bf 3A       		.uleb128 0x3a
 4040 02c0 0B       		.uleb128 0xb
 4041 02c1 3B       		.uleb128 0x3b
 4042 02c2 0B       		.uleb128 0xb
 4043 02c3 27       		.uleb128 0x27
ARM GAS  /tmp/ccOKB5Xj.s 			page 72


 4044 02c4 19       		.uleb128 0x19
 4045 02c5 11       		.uleb128 0x11
 4046 02c6 01       		.uleb128 0x1
 4047 02c7 12       		.uleb128 0x12
 4048 02c8 06       		.uleb128 0x6
 4049 02c9 40       		.uleb128 0x40
 4050 02ca 18       		.uleb128 0x18
 4051 02cb 01       		.uleb128 0x1
 4052 02cc 13       		.uleb128 0x13
 4053 02cd 00       		.byte	0
 4054 02ce 00       		.byte	0
 4055 02cf 37       		.uleb128 0x37
 4056 02d0 0B       		.uleb128 0xb
 4057 02d1 01       		.byte	0x1
 4058 02d2 55       		.uleb128 0x55
 4059 02d3 17       		.uleb128 0x17
 4060 02d4 01       		.uleb128 0x1
 4061 02d5 13       		.uleb128 0x13
 4062 02d6 00       		.byte	0
 4063 02d7 00       		.byte	0
 4064 02d8 38       		.uleb128 0x38
 4065 02d9 34       		.uleb128 0x34
 4066 02da 00       		.byte	0
 4067 02db 03       		.uleb128 0x3
 4068 02dc 0E       		.uleb128 0xe
 4069 02dd 3A       		.uleb128 0x3a
 4070 02de 0B       		.uleb128 0xb
 4071 02df 3B       		.uleb128 0x3b
 4072 02e0 0B       		.uleb128 0xb
 4073 02e1 49       		.uleb128 0x49
 4074 02e2 13       		.uleb128 0x13
 4075 02e3 02       		.uleb128 0x2
 4076 02e4 17       		.uleb128 0x17
 4077 02e5 00       		.byte	0
 4078 02e6 00       		.byte	0
 4079 02e7 39       		.uleb128 0x39
 4080 02e8 34       		.uleb128 0x34
 4081 02e9 00       		.byte	0
 4082 02ea 03       		.uleb128 0x3
 4083 02eb 0E       		.uleb128 0xe
 4084 02ec 3A       		.uleb128 0x3a
 4085 02ed 0B       		.uleb128 0xb
 4086 02ee 3B       		.uleb128 0x3b
 4087 02ef 0B       		.uleb128 0xb
 4088 02f0 49       		.uleb128 0x49
 4089 02f1 13       		.uleb128 0x13
 4090 02f2 00       		.byte	0
 4091 02f3 00       		.byte	0
 4092 02f4 3A       		.uleb128 0x3a
 4093 02f5 898201   		.uleb128 0x4109
 4094 02f8 01       		.byte	0x1
 4095 02f9 11       		.uleb128 0x11
 4096 02fa 01       		.uleb128 0x1
 4097 02fb 00       		.byte	0
 4098 02fc 00       		.byte	0
 4099 02fd 3B       		.uleb128 0x3b
 4100 02fe 2E       		.uleb128 0x2e
ARM GAS  /tmp/ccOKB5Xj.s 			page 73


 4101 02ff 00       		.byte	0
 4102 0300 3F       		.uleb128 0x3f
 4103 0301 19       		.uleb128 0x19
 4104 0302 03       		.uleb128 0x3
 4105 0303 0E       		.uleb128 0xe
 4106 0304 3A       		.uleb128 0x3a
 4107 0305 0B       		.uleb128 0xb
 4108 0306 3B       		.uleb128 0x3b
 4109 0307 05       		.uleb128 0x5
 4110 0308 27       		.uleb128 0x27
 4111 0309 19       		.uleb128 0x19
 4112 030a 11       		.uleb128 0x11
 4113 030b 01       		.uleb128 0x1
 4114 030c 12       		.uleb128 0x12
 4115 030d 06       		.uleb128 0x6
 4116 030e 40       		.uleb128 0x40
 4117 030f 18       		.uleb128 0x18
 4118 0310 9742     		.uleb128 0x2117
 4119 0312 19       		.uleb128 0x19
 4120 0313 00       		.byte	0
 4121 0314 00       		.byte	0
 4122 0315 3C       		.uleb128 0x3c
 4123 0316 34       		.uleb128 0x34
 4124 0317 00       		.byte	0
 4125 0318 03       		.uleb128 0x3
 4126 0319 0E       		.uleb128 0xe
 4127 031a 3A       		.uleb128 0x3a
 4128 031b 0B       		.uleb128 0xb
 4129 031c 3B       		.uleb128 0x3b
 4130 031d 05       		.uleb128 0x5
 4131 031e 49       		.uleb128 0x49
 4132 031f 13       		.uleb128 0x13
 4133 0320 3F       		.uleb128 0x3f
 4134 0321 19       		.uleb128 0x19
 4135 0322 3C       		.uleb128 0x3c
 4136 0323 19       		.uleb128 0x19
 4137 0324 00       		.byte	0
 4138 0325 00       		.byte	0
 4139 0326 3D       		.uleb128 0x3d
 4140 0327 34       		.uleb128 0x34
 4141 0328 00       		.byte	0
 4142 0329 03       		.uleb128 0x3
 4143 032a 08       		.uleb128 0x8
 4144 032b 3A       		.uleb128 0x3a
 4145 032c 0B       		.uleb128 0xb
 4146 032d 3B       		.uleb128 0x3b
 4147 032e 05       		.uleb128 0x5
 4148 032f 49       		.uleb128 0x49
 4149 0330 13       		.uleb128 0x13
 4150 0331 3F       		.uleb128 0x3f
 4151 0332 19       		.uleb128 0x19
 4152 0333 3C       		.uleb128 0x3c
 4153 0334 19       		.uleb128 0x19
 4154 0335 00       		.byte	0
 4155 0336 00       		.byte	0
 4156 0337 3E       		.uleb128 0x3e
 4157 0338 34       		.uleb128 0x34
ARM GAS  /tmp/ccOKB5Xj.s 			page 74


 4158 0339 00       		.byte	0
 4159 033a 03       		.uleb128 0x3
 4160 033b 0E       		.uleb128 0xe
 4161 033c 3A       		.uleb128 0x3a
 4162 033d 0B       		.uleb128 0xb
 4163 033e 3B       		.uleb128 0x3b
 4164 033f 0B       		.uleb128 0xb
 4165 0340 49       		.uleb128 0x49
 4166 0341 13       		.uleb128 0x13
 4167 0342 3F       		.uleb128 0x3f
 4168 0343 19       		.uleb128 0x19
 4169 0344 02       		.uleb128 0x2
 4170 0345 18       		.uleb128 0x18
 4171 0346 00       		.byte	0
 4172 0347 00       		.byte	0
 4173 0348 3F       		.uleb128 0x3f
 4174 0349 2E       		.uleb128 0x2e
 4175 034a 01       		.byte	0x1
 4176 034b 3F       		.uleb128 0x3f
 4177 034c 19       		.uleb128 0x19
 4178 034d 03       		.uleb128 0x3
 4179 034e 0E       		.uleb128 0xe
 4180 034f 3A       		.uleb128 0x3a
 4181 0350 0B       		.uleb128 0xb
 4182 0351 3B       		.uleb128 0x3b
 4183 0352 0B       		.uleb128 0xb
 4184 0353 27       		.uleb128 0x27
 4185 0354 19       		.uleb128 0x19
 4186 0355 3C       		.uleb128 0x3c
 4187 0356 19       		.uleb128 0x19
 4188 0357 01       		.uleb128 0x1
 4189 0358 13       		.uleb128 0x13
 4190 0359 00       		.byte	0
 4191 035a 00       		.byte	0
 4192 035b 40       		.uleb128 0x40
 4193 035c 2E       		.uleb128 0x2e
 4194 035d 01       		.byte	0x1
 4195 035e 3F       		.uleb128 0x3f
 4196 035f 19       		.uleb128 0x19
 4197 0360 03       		.uleb128 0x3
 4198 0361 0E       		.uleb128 0xe
 4199 0362 3A       		.uleb128 0x3a
 4200 0363 0B       		.uleb128 0xb
 4201 0364 3B       		.uleb128 0x3b
 4202 0365 05       		.uleb128 0x5
 4203 0366 27       		.uleb128 0x27
 4204 0367 19       		.uleb128 0x19
 4205 0368 49       		.uleb128 0x49
 4206 0369 13       		.uleb128 0x13
 4207 036a 3C       		.uleb128 0x3c
 4208 036b 19       		.uleb128 0x19
 4209 036c 01       		.uleb128 0x1
 4210 036d 13       		.uleb128 0x13
 4211 036e 00       		.byte	0
 4212 036f 00       		.byte	0
 4213 0370 41       		.uleb128 0x41
 4214 0371 2E       		.uleb128 0x2e
ARM GAS  /tmp/ccOKB5Xj.s 			page 75


 4215 0372 01       		.byte	0x1
 4216 0373 3F       		.uleb128 0x3f
 4217 0374 19       		.uleb128 0x19
 4218 0375 03       		.uleb128 0x3
 4219 0376 0E       		.uleb128 0xe
 4220 0377 3A       		.uleb128 0x3a
 4221 0378 0B       		.uleb128 0xb
 4222 0379 3B       		.uleb128 0x3b
 4223 037a 05       		.uleb128 0x5
 4224 037b 27       		.uleb128 0x27
 4225 037c 19       		.uleb128 0x19
 4226 037d 3C       		.uleb128 0x3c
 4227 037e 19       		.uleb128 0x19
 4228 037f 01       		.uleb128 0x1
 4229 0380 13       		.uleb128 0x13
 4230 0381 00       		.byte	0
 4231 0382 00       		.byte	0
 4232 0383 42       		.uleb128 0x42
 4233 0384 2E       		.uleb128 0x2e
 4234 0385 00       		.byte	0
 4235 0386 3F       		.uleb128 0x3f
 4236 0387 19       		.uleb128 0x19
 4237 0388 03       		.uleb128 0x3
 4238 0389 0E       		.uleb128 0xe
 4239 038a 3A       		.uleb128 0x3a
 4240 038b 0B       		.uleb128 0xb
 4241 038c 3B       		.uleb128 0x3b
 4242 038d 0B       		.uleb128 0xb
 4243 038e 27       		.uleb128 0x27
 4244 038f 19       		.uleb128 0x19
 4245 0390 3C       		.uleb128 0x3c
 4246 0391 19       		.uleb128 0x19
 4247 0392 00       		.byte	0
 4248 0393 00       		.byte	0
 4249 0394 43       		.uleb128 0x43
 4250 0395 2E       		.uleb128 0x2e
 4251 0396 00       		.byte	0
 4252 0397 3F       		.uleb128 0x3f
 4253 0398 19       		.uleb128 0x19
 4254 0399 03       		.uleb128 0x3
 4255 039a 0E       		.uleb128 0xe
 4256 039b 3A       		.uleb128 0x3a
 4257 039c 0B       		.uleb128 0xb
 4258 039d 3B       		.uleb128 0x3b
 4259 039e 05       		.uleb128 0x5
 4260 039f 27       		.uleb128 0x27
 4261 03a0 19       		.uleb128 0x19
 4262 03a1 3C       		.uleb128 0x3c
 4263 03a2 19       		.uleb128 0x19
 4264 03a3 00       		.byte	0
 4265 03a4 00       		.byte	0
 4266 03a5 00       		.byte	0
 4267              		.section	.debug_loc,"",%progbits
 4268              	.Ldebug_loc0:
 4269              	.LLST0:
 4270 0000 00000000 		.4byte	.LVL2
 4271 0004 14000000 		.4byte	.LVL3
ARM GAS  /tmp/ccOKB5Xj.s 			page 76


 4272 0008 0100     		.2byte	0x1
 4273 000a 50       		.byte	0x50
 4274 000b 14000000 		.4byte	.LVL3
 4275 000f 4A000000 		.4byte	.LVL5
 4276 0013 0100     		.2byte	0x1
 4277 0015 54       		.byte	0x54
 4278 0016 4A000000 		.4byte	.LVL5
 4279 001a 60000000 		.4byte	.LFE280
 4280 001e 0400     		.2byte	0x4
 4281 0020 F3       		.byte	0xf3
 4282 0021 01       		.uleb128 0x1
 4283 0022 50       		.byte	0x50
 4284 0023 9F       		.byte	0x9f
 4285 0024 00000000 		.4byte	0
 4286 0028 00000000 		.4byte	0
 4287              	.LLST1:
 4288 002c 00000000 		.4byte	.LVL6
 4289 0030 0C000000 		.4byte	.LVL7
 4290 0034 0100     		.2byte	0x1
 4291 0036 50       		.byte	0x50
 4292 0037 0C000000 		.4byte	.LVL7
 4293 003b 2A000000 		.4byte	.LVL9
 4294 003f 0100     		.2byte	0x1
 4295 0041 54       		.byte	0x54
 4296 0042 2A000000 		.4byte	.LVL9
 4297 0046 34000000 		.4byte	.LFE281
 4298 004a 0400     		.2byte	0x4
 4299 004c F3       		.byte	0xf3
 4300 004d 01       		.uleb128 0x1
 4301 004e 50       		.byte	0x50
 4302 004f 9F       		.byte	0x9f
 4303 0050 00000000 		.4byte	0
 4304 0054 00000000 		.4byte	0
 4305              	.LLST2:
 4306 0058 04000000 		.4byte	.LVL12
 4307 005c 0C000000 		.4byte	.LVL13
 4308 0060 0100     		.2byte	0x1
 4309 0062 51       		.byte	0x51
 4310 0063 0C000000 		.4byte	.LVL13
 4311 0067 14000000 		.4byte	.LVL14
 4312 006b 0700     		.2byte	0x7
 4313 006d 71       		.byte	0x71
 4314 006e 00       		.sleb128 0
 4315 006f 0A       		.byte	0xa
 4316 0070 0001     		.2byte	0x100
 4317 0072 21       		.byte	0x21
 4318 0073 9F       		.byte	0x9f
 4319 0074 14000000 		.4byte	.LVL14
 4320 0078 18000000 		.4byte	.LVL15
 4321 007c 0800     		.2byte	0x8
 4322 007e 70       		.byte	0x70
 4323 007f 30       		.sleb128 48
 4324 0080 06       		.byte	0x6
 4325 0081 0A       		.byte	0xa
 4326 0082 0001     		.2byte	0x100
 4327 0084 21       		.byte	0x21
 4328 0085 9F       		.byte	0x9f
ARM GAS  /tmp/ccOKB5Xj.s 			page 77


 4329 0086 18000000 		.4byte	.LVL15
 4330 008a 2A000000 		.4byte	.LVL16
 4331 008e 0100     		.2byte	0x1
 4332 0090 51       		.byte	0x51
 4333 0091 2A000000 		.4byte	.LVL16
 4334 0095 30000000 		.4byte	.LVL17
 4335 0099 0200     		.2byte	0x2
 4336 009b 72       		.byte	0x72
 4337 009c 00       		.sleb128 0
 4338 009d 00000000 		.4byte	0
 4339 00a1 00000000 		.4byte	0
 4340              	.LLST3:
 4341 00a5 54000000 		.4byte	.LVL18
 4342 00a9 72000000 		.4byte	.LVL19
 4343 00ad 0700     		.2byte	0x7
 4344 00af 73       		.byte	0x73
 4345 00b0 00       		.sleb128 0
 4346 00b1 0A       		.byte	0xa
 4347 00b2 0103     		.2byte	0x301
 4348 00b4 21       		.byte	0x21
 4349 00b5 9F       		.byte	0x9f
 4350 00b6 72000000 		.4byte	.LVL19
 4351 00ba 8A000000 		.4byte	.LVL20
 4352 00be 0B00     		.2byte	0xb
 4353 00c0 70       		.byte	0x70
 4354 00c1 10       		.sleb128 16
 4355 00c2 06       		.byte	0x6
 4356 00c3 23       		.byte	0x23
 4357 00c4 10       		.uleb128 0x10
 4358 00c5 06       		.byte	0x6
 4359 00c6 0A       		.byte	0xa
 4360 00c7 0103     		.2byte	0x301
 4361 00c9 21       		.byte	0x21
 4362 00ca 9F       		.byte	0x9f
 4363 00cb 00000000 		.4byte	0
 4364 00cf 00000000 		.4byte	0
 4365              	.LLST4:
 4366 00d3 02000000 		.4byte	.LVL11
 4367 00d7 54000000 		.4byte	.LVL18
 4368 00db 0100     		.2byte	0x1
 4369 00dd 53       		.byte	0x53
 4370 00de 54000000 		.4byte	.LVL18
 4371 00e2 8C000000 		.4byte	.LFE282
 4372 00e6 0200     		.2byte	0x2
 4373 00e8 70       		.byte	0x70
 4374 00e9 10       		.sleb128 16
 4375 00ea 00000000 		.4byte	0
 4376 00ee 00000000 		.4byte	0
 4377              	.LLST5:
 4378 00f2 0A000000 		.4byte	.LVL23
 4379 00f6 25000000 		.4byte	.LVL24-1
 4380 00fa 0100     		.2byte	0x1
 4381 00fc 52       		.byte	0x52
 4382 00fd 00000000 		.4byte	0
 4383 0101 00000000 		.4byte	0
 4384              	.LLST6:
 4385 0105 4C000000 		.4byte	.LVL26
ARM GAS  /tmp/ccOKB5Xj.s 			page 78


 4386 0109 6A000000 		.4byte	.LVL30
 4387 010d 0300     		.2byte	0x3
 4388 010f 08       		.byte	0x8
 4389 0110 20       		.byte	0x20
 4390 0111 9F       		.byte	0x9f
 4391 0112 00000000 		.4byte	0
 4392 0116 00000000 		.4byte	0
 4393              	.LLST7:
 4394 011a 56000000 		.4byte	.LVL27
 4395 011e 6A000000 		.4byte	.LVL30
 4396 0122 0300     		.2byte	0x3
 4397 0124 09       		.byte	0x9
 4398 0125 FF       		.byte	0xff
 4399 0126 9F       		.byte	0x9f
 4400 0127 00000000 		.4byte	0
 4401 012b 00000000 		.4byte	0
 4402              	.LLST8:
 4403 012f 56000000 		.4byte	.LVL27
 4404 0133 6A000000 		.4byte	.LVL30
 4405 0137 0600     		.2byte	0x6
 4406 0139 03       		.byte	0x3
 4407 013a 14000000 		.4byte	ADCD1+20
 4408 013e 9F       		.byte	0x9f
 4409 013f 00000000 		.4byte	0
 4410 0143 00000000 		.4byte	0
 4411              	.LLST9:
 4412 0147 64000000 		.4byte	.LVL29
 4413 014b 6A000000 		.4byte	.LVL30
 4414 014f 0200     		.2byte	0x2
 4415 0151 30       		.byte	0x30
 4416 0152 9F       		.byte	0x9f
 4417 0153 00000000 		.4byte	0
 4418 0157 00000000 		.4byte	0
 4419              	.LLST10:
 4420 015b 00000000 		.4byte	.LVL32
 4421 015f 0D000000 		.4byte	.LVL33-1
 4422 0163 0100     		.2byte	0x1
 4423 0165 50       		.byte	0x50
 4424 0166 0D000000 		.4byte	.LVL33-1
 4425 016a 46000000 		.4byte	.LVL38
 4426 016e 0100     		.2byte	0x1
 4427 0170 54       		.byte	0x54
 4428 0171 46000000 		.4byte	.LVL38
 4429 0175 77000000 		.4byte	.LVL42-1
 4430 0179 0100     		.2byte	0x1
 4431 017b 50       		.byte	0x50
 4432 017c 77000000 		.4byte	.LVL42-1
 4433 0180 B8000000 		.4byte	.LVL50
 4434 0184 0100     		.2byte	0x1
 4435 0186 54       		.byte	0x54
 4436 0187 B8000000 		.4byte	.LVL50
 4437 018b CB000000 		.4byte	.LVL52-1
 4438 018f 0100     		.2byte	0x1
 4439 0191 50       		.byte	0x50
 4440 0192 CB000000 		.4byte	.LVL52-1
 4441 0196 CC000000 		.4byte	.LVL52
 4442 019a 0400     		.2byte	0x4
ARM GAS  /tmp/ccOKB5Xj.s 			page 79


 4443 019c F3       		.byte	0xf3
 4444 019d 01       		.uleb128 0x1
 4445 019e 50       		.byte	0x50
 4446 019f 9F       		.byte	0x9f
 4447 01a0 CC000000 		.4byte	.LVL52
 4448 01a4 CE000000 		.4byte	.LFE277
 4449 01a8 0100     		.2byte	0x1
 4450 01aa 50       		.byte	0x50
 4451 01ab 00000000 		.4byte	0
 4452 01af 00000000 		.4byte	0
 4453              	.LLST11:
 4454 01b3 00000000 		.4byte	.LVL32
 4455 01b7 0D000000 		.4byte	.LVL33-1
 4456 01bb 0100     		.2byte	0x1
 4457 01bd 51       		.byte	0x51
 4458 01be 0D000000 		.4byte	.LVL33-1
 4459 01c2 46000000 		.4byte	.LVL38
 4460 01c6 0400     		.2byte	0x4
 4461 01c8 F3       		.byte	0xf3
 4462 01c9 01       		.uleb128 0x1
 4463 01ca 51       		.byte	0x51
 4464 01cb 9F       		.byte	0x9f
 4465 01cc 46000000 		.4byte	.LVL38
 4466 01d0 64000000 		.4byte	.LVL39
 4467 01d4 0100     		.2byte	0x1
 4468 01d6 51       		.byte	0x51
 4469 01d7 64000000 		.4byte	.LVL39
 4470 01db 74000000 		.4byte	.LVL41
 4471 01df 0400     		.2byte	0x4
 4472 01e1 F3       		.byte	0xf3
 4473 01e2 01       		.uleb128 0x1
 4474 01e3 51       		.byte	0x51
 4475 01e4 9F       		.byte	0x9f
 4476 01e5 74000000 		.4byte	.LVL41
 4477 01e9 77000000 		.4byte	.LVL42-1
 4478 01ed 0100     		.2byte	0x1
 4479 01ef 51       		.byte	0x51
 4480 01f0 77000000 		.4byte	.LVL42-1
 4481 01f4 B8000000 		.4byte	.LVL50
 4482 01f8 0400     		.2byte	0x4
 4483 01fa F3       		.byte	0xf3
 4484 01fb 01       		.uleb128 0x1
 4485 01fc 51       		.byte	0x51
 4486 01fd 9F       		.byte	0x9f
 4487 01fe B8000000 		.4byte	.LVL50
 4488 0202 C4000000 		.4byte	.LVL51
 4489 0206 0100     		.2byte	0x1
 4490 0208 51       		.byte	0x51
 4491 0209 C4000000 		.4byte	.LVL51
 4492 020d CC000000 		.4byte	.LVL52
 4493 0211 0400     		.2byte	0x4
 4494 0213 F3       		.byte	0xf3
 4495 0214 01       		.uleb128 0x1
 4496 0215 51       		.byte	0x51
 4497 0216 9F       		.byte	0x9f
 4498 0217 CC000000 		.4byte	.LVL52
 4499 021b CE000000 		.4byte	.LFE277
ARM GAS  /tmp/ccOKB5Xj.s 			page 80


 4500 021f 0100     		.2byte	0x1
 4501 0221 51       		.byte	0x51
 4502 0222 00000000 		.4byte	0
 4503 0226 00000000 		.4byte	0
 4504              	.LLST12:
 4505 022a 32000000 		.4byte	.LVL35
 4506 022e 46000000 		.4byte	.LVL38
 4507 0232 0300     		.2byte	0x3
 4508 0234 08       		.byte	0x8
 4509 0235 20       		.byte	0x20
 4510 0236 9F       		.byte	0x9f
 4511 0237 00000000 		.4byte	0
 4512 023b 00000000 		.4byte	0
 4513              	.LLST13:
 4514 023f 3C000000 		.4byte	.LVL36
 4515 0243 46000000 		.4byte	.LVL38
 4516 0247 0300     		.2byte	0x3
 4517 0249 09       		.byte	0x9
 4518 024a FF       		.byte	0xff
 4519 024b 9F       		.byte	0x9f
 4520 024c 00000000 		.4byte	0
 4521 0250 00000000 		.4byte	0
 4522              	.LLST14:
 4523 0254 3C000000 		.4byte	.LVL36
 4524 0258 40000000 		.4byte	.LVL37
 4525 025c 0300     		.2byte	0x3
 4526 025e 74       		.byte	0x74
 4527 025f 14       		.sleb128 20
 4528 0260 9F       		.byte	0x9f
 4529 0261 40000000 		.4byte	.LVL37
 4530 0265 46000000 		.4byte	.LVL38
 4531 0269 0100     		.2byte	0x1
 4532 026b 50       		.byte	0x50
 4533 026c 00000000 		.4byte	0
 4534 0270 00000000 		.4byte	0
 4535              	.LLST15:
 4536 0274 68000000 		.4byte	.LVL40
 4537 0278 74000000 		.4byte	.LVL41
 4538 027c 0100     		.2byte	0x1
 4539 027e 52       		.byte	0x52
 4540 027f 00000000 		.4byte	0
 4541 0283 00000000 		.4byte	0
 4542              	.LLST16:
 4543 0287 98000000 		.4byte	.LVL44
 4544 028b A8000000 		.4byte	.LVL47
 4545 028f 0300     		.2byte	0x3
 4546 0291 08       		.byte	0x8
 4547 0292 20       		.byte	0x20
 4548 0293 9F       		.byte	0x9f
 4549 0294 00000000 		.4byte	0
 4550 0298 00000000 		.4byte	0
 4551              	.LLST17:
 4552 029c A2000000 		.4byte	.LVL45
 4553 02a0 A8000000 		.4byte	.LVL47
 4554 02a4 0200     		.2byte	0x2
 4555 02a6 30       		.byte	0x30
 4556 02a7 9F       		.byte	0x9f
ARM GAS  /tmp/ccOKB5Xj.s 			page 81


 4557 02a8 00000000 		.4byte	0
 4558 02ac 00000000 		.4byte	0
 4559              	.LLST18:
 4560 02b0 A2000000 		.4byte	.LVL45
 4561 02b4 A6000000 		.4byte	.LVL46
 4562 02b8 0300     		.2byte	0x3
 4563 02ba 74       		.byte	0x74
 4564 02bb 14       		.sleb128 20
 4565 02bc 9F       		.byte	0x9f
 4566 02bd A6000000 		.4byte	.LVL46
 4567 02c1 A8000000 		.4byte	.LVL47
 4568 02c5 0100     		.2byte	0x1
 4569 02c7 50       		.byte	0x50
 4570 02c8 00000000 		.4byte	0
 4571 02cc 00000000 		.4byte	0
 4572              	.LLST19:
 4573 02d0 B0000000 		.4byte	.LVL49
 4574 02d4 B8000000 		.4byte	.LVL50
 4575 02d8 0200     		.2byte	0x2
 4576 02da 30       		.byte	0x30
 4577 02db 9F       		.byte	0x9f
 4578 02dc 00000000 		.4byte	0
 4579 02e0 00000000 		.4byte	0
 4580              		.section	.debug_aranges,"",%progbits
 4581 0000 6C000000 		.4byte	0x6c
 4582 0004 0200     		.2byte	0x2
 4583 0006 00000000 		.4byte	.Ldebug_info0
 4584 000a 04       		.byte	0x4
 4585 000b 00       		.byte	0
 4586 000c 0000     		.2byte	0
 4587 000e 0000     		.2byte	0
 4588 0010 00000000 		.4byte	.LFB279
 4589 0014 34000000 		.4byte	.LFE279-.LFB279
 4590 0018 00000000 		.4byte	.LFB280
 4591 001c 60000000 		.4byte	.LFE280-.LFB280
 4592 0020 00000000 		.4byte	.LFB281
 4593 0024 34000000 		.4byte	.LFE281-.LFB281
 4594 0028 00000000 		.4byte	.LFB282
 4595 002c 8C000000 		.4byte	.LFE282-.LFB282
 4596 0030 00000000 		.4byte	.LFB283
 4597 0034 2C000000 		.4byte	.LFE283-.LFB283
 4598 0038 00000000 		.4byte	.LFB278
 4599 003c 80000000 		.4byte	.LFE278-.LFB278
 4600 0040 00000000 		.4byte	.LFB277
 4601 0044 CE000000 		.4byte	.LFE277-.LFB277
 4602 0048 00000000 		.4byte	.LFB284
 4603 004c 10000000 		.4byte	.LFE284-.LFB284
 4604 0050 00000000 		.4byte	.LFB285
 4605 0054 10000000 		.4byte	.LFE285-.LFB285
 4606 0058 00000000 		.4byte	.LFB286
 4607 005c 10000000 		.4byte	.LFE286-.LFB286
 4608 0060 00000000 		.4byte	.LFB287
 4609 0064 10000000 		.4byte	.LFE287-.LFB287
 4610 0068 00000000 		.4byte	0
 4611 006c 00000000 		.4byte	0
 4612              		.section	.debug_ranges,"",%progbits
 4613              	.Ldebug_ranges0:
ARM GAS  /tmp/ccOKB5Xj.s 			page 82


 4614 0000 5E000000 		.4byte	.LBB124
 4615 0004 64000000 		.4byte	.LBE124
 4616 0008 66000000 		.4byte	.LBB125
 4617 000c 70000000 		.4byte	.LBE125
 4618 0010 00000000 		.4byte	0
 4619 0014 00000000 		.4byte	0
 4620 0018 00000000 		.4byte	.LFB279
 4621 001c 34000000 		.4byte	.LFE279
 4622 0020 00000000 		.4byte	.LFB280
 4623 0024 60000000 		.4byte	.LFE280
 4624 0028 00000000 		.4byte	.LFB281
 4625 002c 34000000 		.4byte	.LFE281
 4626 0030 00000000 		.4byte	.LFB282
 4627 0034 8C000000 		.4byte	.LFE282
 4628 0038 00000000 		.4byte	.LFB283
 4629 003c 2C000000 		.4byte	.LFE283
 4630 0040 00000000 		.4byte	.LFB278
 4631 0044 80000000 		.4byte	.LFE278
 4632 0048 00000000 		.4byte	.LFB277
 4633 004c CE000000 		.4byte	.LFE277
 4634 0050 00000000 		.4byte	.LFB284
 4635 0054 10000000 		.4byte	.LFE284
 4636 0058 00000000 		.4byte	.LFB285
 4637 005c 10000000 		.4byte	.LFE285
 4638 0060 00000000 		.4byte	.LFB286
 4639 0064 10000000 		.4byte	.LFE286
 4640 0068 00000000 		.4byte	.LFB287
 4641 006c 10000000 		.4byte	.LFE287
 4642 0070 00000000 		.4byte	0
 4643 0074 00000000 		.4byte	0
 4644              		.section	.debug_line,"",%progbits
 4645              	.Ldebug_line0:
 4646 0000 8B050000 		.section	.debug_str,"MS",%progbits,1
 4646      02007F03 
 4646      00000201 
 4646      FB0E0D00 
 4646      01010101 
 4647              	.LASF95:
 4648 0000 4D314152 		.ascii	"M1AR\000"
 4648      00
 4649              	.LASF160:
 4650 0005 73746D33 		.ascii	"stm32_dma_stream_t\000"
 4650      325F646D 
 4650      615F7374 
 4650      7265616D 
 4650      5F7400
 4651              	.LASF2:
 4652 0018 73697A65 		.ascii	"size_t\000"
 4652      5F7400
 4653              	.LASF191:
 4654 001f 73717231 		.ascii	"sqr1\000"
 4654      00
 4655              	.LASF192:
 4656 0024 73717232 		.ascii	"sqr2\000"
 4656      00
 4657              	.LASF76:
 4658 0029 73697A65 		.ascii	"sizetype\000"
ARM GAS  /tmp/ccOKB5Xj.s 			page 83


 4658      74797065 
 4658      00
 4659              	.LASF207:
 4660 0032 6164635F 		.ascii	"adc_lld_start\000"
 4660      6C6C645F 
 4660      73746172 
 4660      7400
 4661              	.LASF146:
 4662 0040 77747365 		.ascii	"wtsemp\000"
 4662      6D7000
 4663              	.LASF30:
 4664 0047 73797374 		.ascii	"systime_t\000"
 4664      696D655F 
 4664      7400
 4665              	.LASF123:
 4666 0051 504C4C49 		.ascii	"PLLI2SCFGR\000"
 4666      32534346 
 4666      475200
 4667              	.LASF151:
 4668 005c 6F776E65 		.ascii	"owner\000"
 4668      7200
 4669              	.LASF25:
 4670 0062 74707269 		.ascii	"tprio_t\000"
 4670      6F5F7400 
 4671              	.LASF183:
 4672 006a 61646363 		.ascii	"adccallback_t\000"
 4672      616C6C62 
 4672      61636B5F 
 4672      7400
 4673              	.LASF83:
 4674 0078 53515231 		.ascii	"SQR1\000"
 4674      00
 4675              	.LASF84:
 4676 007d 53515232 		.ascii	"SQR2\000"
 4676      00
 4677              	.LASF85:
 4678 0082 53515233 		.ascii	"SQR3\000"
 4678      00
 4679              	.LASF17:
 4680 0087 696E7433 		.ascii	"int32_t\000"
 4680      325F7400 
 4681              	.LASF168:
 4682 008f 61646373 		.ascii	"adcstate_t\000"
 4682      74617465 
 4682      5F7400
 4683              	.LASF228:
 4684 009a 63685468 		.ascii	"chThdResumeI\000"
 4684      64526573 
 4684      756D6549 
 4684      00
 4685              	.LASF59:
 4686 00a7 76746675 		.ascii	"vtfunc_t\000"
 4686      6E635F74 
 4686      00
 4687              	.LASF227:
 4688 00b0 646D6153 		.ascii	"dmaStreamRelease\000"
 4688      74726561 
ARM GAS  /tmp/ccOKB5Xj.s 			page 84


 4688      6D52656C 
 4688      65617365 
 4688      00
 4689              	.LASF65:
 4690 00c1 63685F76 		.ascii	"ch_virtual_timers_list\000"
 4690      69727475 
 4690      616C5F74 
 4690      696D6572 
 4690      735F6C69 
 4691              	.LASF236:
 4692 00d8 5F5F6675 		.ascii	"__func__\000"
 4692      6E635F5F 
 4692      00
 4693              	.LASF219:
 4694 00e1 61646353 		.ascii	"adcSTM32DisableTSVREFE\000"
 4694      544D3332 
 4694      44697361 
 4694      626C6554 
 4694      53565245 
 4695              	.LASF101:
 4696 00f8 41484233 		.ascii	"AHB3RSTR\000"
 4696      52535452 
 4696      00
 4697              	.LASF175:
 4698 0101 636F6E66 		.ascii	"config\000"
 4698      696700
 4699              	.LASF38:
 4700 0108 73746174 		.ascii	"state\000"
 4700      6500
 4701              	.LASF47:
 4702 010e 73746174 		.ascii	"stats\000"
 4702      7300
 4703              	.LASF221:
 4704 0114 61646353 		.ascii	"adcSTM32DisableVBATE\000"
 4704      544D3332 
 4704      44697361 
 4704      626C6556 
 4704      42415445 
 4705              	.LASF188:
 4706 0129 6572726F 		.ascii	"error_cb\000"
 4706      725F6362 
 4706      00
 4707              	.LASF201:
 4708 0132 6F73616C 		.ascii	"osalSysLockFromISR\000"
 4708      5379734C 
 4708      6F636B46 
 4708      726F6D49 
 4708      535200
 4709              	.LASF33:
 4710 0145 7072696F 		.ascii	"prio\000"
 4710      00
 4711              	.LASF203:
 4712 014a 6F73616C 		.ascii	"osalThreadResumeI\000"
 4712      54687265 
 4712      61645265 
 4712      73756D65 
 4712      4900
ARM GAS  /tmp/ccOKB5Xj.s 			page 85


 4713              	.LASF187:
 4714 015c 656E645F 		.ascii	"end_cb\000"
 4714      636200
 4715              	.LASF142:
 4716 0163 65786974 		.ascii	"exitcode\000"
 4716      636F6465 
 4716      00
 4717              	.LASF3:
 4718 016c 5F5F7569 		.ascii	"__uint8_t\000"
 4718      6E74385F 
 4718      7400
 4719              	.LASF114:
 4720 0176 41484232 		.ascii	"AHB2LPENR\000"
 4720      4C50454E 
 4720      5200
 4721              	.LASF218:
 4722 0180 61646353 		.ascii	"adcSTM32EnableTSVREFE\000"
 4722      544D3332 
 4722      456E6162 
 4722      6C655453 
 4722      56524546 
 4723              	.LASF9:
 4724 0196 6C6F6E67 		.ascii	"long int\000"
 4724      20696E74 
 4724      00
 4725              	.LASF231:
 4726 019f 5F737461 		.ascii	"_stats_increase_irq\000"
 4726      74735F69 
 4726      6E637265 
 4726      6173655F 
 4726      69727100 
 4727              	.LASF198:
 4728 01b3 706F7274 		.ascii	"port_unlock\000"
 4728      5F756E6C 
 4728      6F636B00 
 4729              	.LASF213:
 4730 01bf 63685379 		.ascii	"chSysLockFromISR\000"
 4730      734C6F63 
 4730      6B46726F 
 4730      6D495352 
 4730      00
 4731              	.LASF182:
 4732 01d0 646D616D 		.ascii	"dmamode\000"
 4732      6F646500 
 4733              	.LASF23:
 4734 01d8 74737461 		.ascii	"tstate_t\000"
 4734      74655F74 
 4734      00
 4735              	.LASF21:
 4736 01e1 72747469 		.ascii	"rttime_t\000"
 4736      6D655F74 
 4736      00
 4737              	.LASF53:
 4738 01ea 74687265 		.ascii	"threads_queue_t\000"
 4738      6164735F 
 4738      71756575 
 4738      655F7400 
ARM GAS  /tmp/ccOKB5Xj.s 			page 86


 4739              	.LASF215:
 4740 01fa 56656374 		.ascii	"Vector88\000"
 4740      6F723838 
 4740      00
 4741              	.LASF125:
 4742 0203 72656761 		.ascii	"regarm_t\000"
 4742      726D5F74 
 4742      00
 4743              	.LASF208:
 4744 020c 6164635F 		.ascii	"adc_lld_stop\000"
 4744      6C6C645F 
 4744      73746F70 
 4744      00
 4745              	.LASF111:
 4746 0219 41504232 		.ascii	"APB2ENR\000"
 4746      454E5200 
 4747              	.LASF113:
 4748 0221 41484231 		.ascii	"AHB1LPENR\000"
 4748      4C50454E 
 4748      5200
 4749              	.LASF134:
 4750 022b 63756D75 		.ascii	"cumulative\000"
 4750      6C617469 
 4750      766500
 4751              	.LASF1:
 4752 0236 7369676E 		.ascii	"signed char\000"
 4752      65642063 
 4752      68617200 
 4753              	.LASF148:
 4754 0242 65776D61 		.ascii	"ewmask\000"
 4754      736B00
 4755              	.LASF15:
 4756 0249 75696E74 		.ascii	"uint8_t\000"
 4756      385F7400 
 4757              	.LASF27:
 4758 0251 6576656E 		.ascii	"eventmask_t\000"
 4758      746D6173 
 4758      6B5F7400 
 4759              	.LASF144:
 4760 025d 77747472 		.ascii	"wttrp\000"
 4760      7000
 4761              	.LASF214:
 4762 0263 63685379 		.ascii	"chSysUnlockFromISR\000"
 4762      73556E6C 
 4762      6F636B46 
 4762      726F6D49 
 4762      535200
 4763              	.LASF102:
 4764 0276 52455345 		.ascii	"RESERVED0\000"
 4764      52564544 
 4764      3000
 4765              	.LASF105:
 4766 0280 52455345 		.ascii	"RESERVED1\000"
 4766      52564544 
 4766      3100
 4767              	.LASF4:
 4768 028a 756E7369 		.ascii	"unsigned char\000"
ARM GAS  /tmp/ccOKB5Xj.s 			page 87


 4768      676E6564 
 4768      20636861 
 4768      7200
 4769              	.LASF112:
 4770 0298 52455345 		.ascii	"RESERVED3\000"
 4770      52564544 
 4770      3300
 4771              	.LASF116:
 4772 02a2 52455345 		.ascii	"RESERVED4\000"
 4772      52564544 
 4772      3400
 4773              	.LASF119:
 4774 02ac 52455345 		.ascii	"RESERVED5\000"
 4774      52564544 
 4774      3500
 4775              	.LASF66:
 4776 02b6 6C617374 		.ascii	"lasttime\000"
 4776      74696D65 
 4776      00
 4777              	.LASF69:
 4778 02bf 70616E69 		.ascii	"panic_msg\000"
 4778      635F6D73 
 4778      6700
 4779              	.LASF173:
 4780 02c9 61646365 		.ascii	"adcerror_t\000"
 4780      72726F72 
 4780      5F7400
 4781              	.LASF162:
 4782 02d4 4144435F 		.ascii	"ADC_UNINIT\000"
 4782      554E494E 
 4782      495400
 4783              	.LASF67:
 4784 02df 73797374 		.ascii	"system_debug_t\000"
 4784      656D5F64 
 4784      65627567 
 4784      5F7400
 4785              	.LASF164:
 4786 02ee 4144435F 		.ascii	"ADC_READY\000"
 4786      52454144 
 4786      5900
 4787              	.LASF154:
 4788 02f8 5F426F6F 		.ascii	"_Bool\000"
 4788      6C00
 4789              	.LASF109:
 4790 02fe 52455345 		.ascii	"RESERVED2\000"
 4790      52564544 
 4790      3200
 4791              	.LASF169:
 4792 0308 61646373 		.ascii	"adcsample_t\000"
 4792      616D706C 
 4792      655F7400 
 4793              	.LASF121:
 4794 0314 52455345 		.ascii	"RESERVED6\000"
 4794      52564544 
 4794      3600
 4795              	.LASF152:
 4796 031e 63686172 		.ascii	"char\000"
ARM GAS  /tmp/ccOKB5Xj.s 			page 88


 4796      00
 4797              	.LASF157:
 4798 0323 69736869 		.ascii	"ishift\000"
 4798      667400
 4799              	.LASF99:
 4800 032a 41484231 		.ascii	"AHB1RSTR\000"
 4800      52535452 
 4800      00
 4801              	.LASF6:
 4802 0333 5F5F7569 		.ascii	"__uint16_t\000"
 4802      6E743136 
 4802      5F7400
 4803              	.LASF107:
 4804 033e 41484232 		.ascii	"AHB2ENR\000"
 4804      454E5200 
 4805              	.LASF143:
 4806 0346 77746F62 		.ascii	"wtobjp\000"
 4806      6A7000
 4807              	.LASF137:
 4808 034d 6E5F6374 		.ascii	"n_ctxswc\000"
 4808      78737763 
 4808      00
 4809              	.LASF167:
 4810 0356 4144435F 		.ascii	"ADC_ERROR\000"
 4810      4552524F 
 4810      5200
 4811              	.LASF39:
 4812 0360 666C6167 		.ascii	"flags\000"
 4812      7300
 4813              	.LASF126:
 4814 0366 73746B61 		.ascii	"stkalign_t\000"
 4814      6C69676E 
 4814      5F7400
 4815              	.LASF193:
 4816 0371 73717233 		.ascii	"sqr3\000"
 4816      00
 4817              	.LASF185:
 4818 0376 63697263 		.ascii	"circular\000"
 4818      756C6172 
 4818      00
 4819              	.LASF46:
 4820 037f 6D706F6F 		.ascii	"mpool\000"
 4820      6C00
 4821              	.LASF171:
 4822 0385 4144435F 		.ascii	"ADC_ERR_DMAFAILURE\000"
 4822      4552525F 
 4822      444D4146 
 4822      41494C55 
 4822      524500
 4823              	.LASF155:
 4824 0398 73747265 		.ascii	"stream\000"
 4824      616D00
 4825              	.LASF132:
 4826 039f 776F7273 		.ascii	"worst\000"
 4826      7400
 4827              	.LASF238:
 4828 03a5 646D6153 		.ascii	"dmaStreamAllocate\000"
ARM GAS  /tmp/ccOKB5Xj.s 			page 89


 4828      74726561 
 4828      6D416C6C 
 4828      6F636174 
 4828      6500
 4829              	.LASF120:
 4830 03b7 42444352 		.ascii	"BDCR\000"
 4830      00
 4831              	.LASF230:
 4832 03bc 5F737461 		.ascii	"_stats_stop_measure_crit_isr\000"
 4832      74735F73 
 4832      746F705F 
 4832      6D656173 
 4832      7572655F 
 4833              	.LASF176:
 4834 03d9 73616D70 		.ascii	"samples\000"
 4834      6C657300 
 4835              	.LASF28:
 4836 03e1 636E745F 		.ascii	"cnt_t\000"
 4836      7400
 4837              	.LASF91:
 4838 03e7 4144435F 		.ascii	"ADC_TypeDef\000"
 4838      54797065 
 4838      44656600 
 4839              	.LASF81:
 4840 03f3 4A4F4652 		.ascii	"JOFR3\000"
 4840      3300
 4841              	.LASF147:
 4842 03f9 77746D74 		.ascii	"wtmtxp\000"
 4842      787000
 4843              	.LASF57:
 4844 0400 63685F72 		.ascii	"ch_ready_list\000"
 4844      65616479 
 4844      5F6C6973 
 4844      7400
 4845              	.LASF98:
 4846 040e 43464752 		.ascii	"CFGR\000"
 4846      00
 4847              	.LASF170:
 4848 0413 6164635F 		.ascii	"adc_channels_num_t\000"
 4848      6368616E 
 4848      6E656C73 
 4848      5F6E756D 
 4848      5F7400
 4849              	.LASF205:
 4850 0426 6F73616C 		.ascii	"osalSysUnlockFromISR\000"
 4850      53797355 
 4850      6E6C6F63 
 4850      6B46726F 
 4850      6D495352 
 4851              	.LASF138:
 4852 043b 6D5F6372 		.ascii	"m_crit_thd\000"
 4852      69745F74 
 4852      686400
 4853              	.LASF13:
 4854 0446 5F5F7569 		.ascii	"__uint64_t\000"
 4854      6E743634 
 4854      5F7400
ARM GAS  /tmp/ccOKB5Xj.s 			page 90


 4855              	.LASF11:
 4856 0451 6C6F6E67 		.ascii	"long unsigned int\000"
 4856      20756E73 
 4856      69676E65 
 4856      6420696E 
 4856      7400
 4857              	.LASF110:
 4858 0463 41504231 		.ascii	"APB1ENR\000"
 4858      454E5200 
 4859              	.LASF181:
 4860 046b 646D6173 		.ascii	"dmastp\000"
 4860      747000
 4861              	.LASF149:
 4862 0472 63685F73 		.ascii	"ch_semaphore\000"
 4862      656D6170 
 4862      686F7265 
 4862      00
 4863              	.LASF50:
 4864 047f 63685F74 		.ascii	"ch_thread\000"
 4864      68726561 
 4864      6400
 4865              	.LASF64:
 4866 0489 76697274 		.ascii	"virtual_timers_list_t\000"
 4866      75616C5F 
 4866      74696D65 
 4866      72735F6C 
 4866      6973745F 
 4867              	.LASF223:
 4868 049f 5F73746D 		.ascii	"_stm32_dma_streams\000"
 4868      33325F64 
 4868      6D615F73 
 4868      74726561 
 4868      6D7300
 4869              	.LASF77:
 4870 04b2 534D5052 		.ascii	"SMPR1\000"
 4870      3100
 4871              	.LASF78:
 4872 04b8 534D5052 		.ascii	"SMPR2\000"
 4872      3200
 4873              	.LASF60:
 4874 04be 76697274 		.ascii	"virtual_timer_t\000"
 4874      75616C5F 
 4874      74696D65 
 4874      725F7400 
 4875              	.LASF56:
 4876 04ce 72656164 		.ascii	"ready_list_t\000"
 4876      795F6C69 
 4876      73745F74 
 4876      00
 4877              	.LASF35:
 4878 04db 6F6C6465 		.ascii	"older\000"
 4878      7200
 4879              	.LASF45:
 4880 04e1 7265616C 		.ascii	"realprio\000"
 4880      7072696F 
 4880      00
 4881              	.LASF29:
ARM GAS  /tmp/ccOKB5Xj.s 			page 91


 4882 04ea 75636E74 		.ascii	"ucnt_t\000"
 4882      5F7400
 4883              	.LASF194:
 4884 04f1 41444343 		.ascii	"ADCConversionGroup\000"
 4884      6F6E7665 
 4884      7273696F 
 4884      6E47726F 
 4884      757000
 4885              	.LASF166:
 4886 0504 4144435F 		.ascii	"ADC_COMPLETE\000"
 4886      434F4D50 
 4886      4C455445 
 4886      00
 4887              	.LASF51:
 4888 0511 63685F74 		.ascii	"ch_threads_list\000"
 4888      68726561 
 4888      64735F6C 
 4888      69737400 
 4889              	.LASF189:
 4890 0521 736D7072 		.ascii	"smpr1\000"
 4890      3100
 4891              	.LASF190:
 4892 0527 736D7072 		.ascii	"smpr2\000"
 4892      3200
 4893              	.LASF136:
 4894 052d 6E5F6972 		.ascii	"n_irq\000"
 4894      7100
 4895              	.LASF210:
 4896 0533 6164635F 		.ascii	"adc_lld_start_conversion\000"
 4896      6C6C645F 
 4896      73746172 
 4896      745F636F 
 4896      6E766572 
 4897              	.LASF97:
 4898 054c 504C4C43 		.ascii	"PLLCFGR\000"
 4898      46475200 
 4899              	.LASF10:
 4900 0554 5F5F7569 		.ascii	"__uint32_t\000"
 4900      6E743332 
 4900      5F7400
 4901              	.LASF44:
 4902 055f 6D74786C 		.ascii	"mtxlist\000"
 4902      69737400 
 4903              	.LASF12:
 4904 0567 6C6F6E67 		.ascii	"long long int\000"
 4904      206C6F6E 
 4904      6720696E 
 4904      7400
 4905              	.LASF199:
 4906 0575 706F7274 		.ascii	"port_lock_from_isr\000"
 4906      5F6C6F63 
 4906      6B5F6672 
 4906      6F6D5F69 
 4906      737200
 4907              	.LASF122:
 4908 0588 53534347 		.ascii	"SSCGR\000"
 4908      5200
ARM GAS  /tmp/ccOKB5Xj.s 			page 92


 4909              	.LASF209:
 4910 058e 61646370 		.ascii	"adcp\000"
 4910      00
 4911              	.LASF184:
 4912 0593 61646365 		.ascii	"adcerrorcallback_t\000"
 4912      72726F72 
 4912      63616C6C 
 4912      6261636B 
 4912      5F7400
 4913              	.LASF104:
 4914 05a6 41504232 		.ascii	"APB2RSTR\000"
 4914      52535452 
 4914      00
 4915              	.LASF177:
 4916 05af 64657074 		.ascii	"depth\000"
 4916      6800
 4917              	.LASF180:
 4918 05b5 6D757465 		.ascii	"mutex\000"
 4918      7800
 4919              	.LASF222:
 4920 05bb 49544D5F 		.ascii	"ITM_RxBuffer\000"
 4920      52784275 
 4920      66666572 
 4920      00
 4921              	.LASF118:
 4922 05c8 41504232 		.ascii	"APB2LPENR\000"
 4922      4C50454E 
 4922      5200
 4923              	.LASF135:
 4924 05d2 74696D65 		.ascii	"time_measurement_t\000"
 4924      5F6D6561 
 4924      73757265 
 4924      6D656E74 
 4924      5F7400
 4925              	.LASF139:
 4926 05e5 6D5F6372 		.ascii	"m_crit_isr\000"
 4926      69745F69 
 4926      737200
 4927              	.LASF0:
 4928 05f0 756E7369 		.ascii	"unsigned int\000"
 4928      676E6564 
 4928      20696E74 
 4928      00
 4929              	.LASF20:
 4930 05fd 7274636E 		.ascii	"rtcnt_t\000"
 4930      745F7400 
 4931              	.LASF161:
 4932 0605 73746D33 		.ascii	"stm32_dmaisr_t\000"
 4932      325F646D 
 4932      61697372 
 4932      5F7400
 4933              	.LASF186:
 4934 0614 6E756D5F 		.ascii	"num_channels\000"
 4934      6368616E 
 4934      6E656C73 
 4934      00
 4935              	.LASF140:
ARM GAS  /tmp/ccOKB5Xj.s 			page 93


 4936 0621 6B65726E 		.ascii	"kernel_stats_t\000"
 4936      656C5F73 
 4936      74617473 
 4936      5F7400
 4937              	.LASF232:
 4938 0630 5F706F72 		.ascii	"_port_irq_epilogue\000"
 4938      745F6972 
 4938      715F6570 
 4938      696C6F67 
 4938      756500
 4939              	.LASF58:
 4940 0643 63757272 		.ascii	"current\000"
 4940      656E7400 
 4941              	.LASF224:
 4942 064b 41444344 		.ascii	"ADCD1\000"
 4942      3100
 4943              	.LASF129:
 4944 0651 6F666673 		.ascii	"offset\000"
 4944      657400
 4945              	.LASF117:
 4946 0658 41504231 		.ascii	"APB1LPENR\000"
 4946      4C50454E 
 4946      5200
 4947              	.LASF212:
 4948 0662 6164635F 		.ascii	"adc_lld_stop_conversion\000"
 4948      6C6C645F 
 4948      73746F70 
 4948      5F636F6E 
 4948      76657273 
 4949              	.LASF96:
 4950 067a 444D415F 		.ascii	"DMA_Stream_TypeDef\000"
 4950      53747265 
 4950      616D5F54 
 4950      79706544 
 4950      656600
 4951              	.LASF234:
 4952 068d 2E2E2F2E 		.ascii	"../../modules/ChibiOS/os/hal/ports/STM32/LLD/ADCv2/"
 4952      2E2F6D6F 
 4952      64756C65 
 4952      732F4368 
 4952      6962694F 
 4953 06c0 68616C5F 		.ascii	"hal_adc_lld.c\000"
 4953      6164635F 
 4953      6C6C642E 
 4953      6300
 4954              	.LASF235:
 4955 06ce 2F686F6D 		.ascii	"/home/kozinalexey/f4by/ardupilot/build/f4by-ch\000"
 4955      652F6B6F 
 4955      7A696E61 
 4955      6C657865 
 4955      792F6634 
 4956              	.LASF31:
 4957 06fd 74687265 		.ascii	"thread_t\000"
 4957      61645F74 
 4957      00
 4958              	.LASF48:
 4959 0706 74687265 		.ascii	"thread_reference_t\000"
ARM GAS  /tmp/ccOKB5Xj.s 			page 94


 4959      61645F72 
 4959      65666572 
 4959      656E6365 
 4959      5F7400
 4960              	.LASF145:
 4961 0719 73656E74 		.ascii	"sentmsg\000"
 4961      6D736700 
 4962              	.LASF128:
 4963 0721 706F7274 		.ascii	"port_intctx\000"
 4963      5F696E74 
 4963      63747800 
 4964              	.LASF165:
 4965 072d 4144435F 		.ascii	"ADC_ACTIVE\000"
 4965      41435449 
 4965      564500
 4966              	.LASF200:
 4967 0738 706F7274 		.ascii	"port_unlock_from_isr\000"
 4967      5F756E6C 
 4967      6F636B5F 
 4967      66726F6D 
 4967      5F697372 
 4968              	.LASF103:
 4969 074d 41504231 		.ascii	"APB1RSTR\000"
 4969      52535452 
 4969      00
 4970              	.LASF61:
 4971 0756 63685F76 		.ascii	"ch_virtual_timer\000"
 4971      69727475 
 4971      616C5F74 
 4971      696D6572 
 4971      00
 4972              	.LASF75:
 4973 0767 6B65726E 		.ascii	"kernel_stats\000"
 4973      656C5F73 
 4973      74617473 
 4973      00
 4974              	.LASF158:
 4975 0774 73656C66 		.ascii	"selfindex\000"
 4975      696E6465 
 4975      7800
 4976              	.LASF14:
 4977 077e 6C6F6E67 		.ascii	"long long unsigned int\000"
 4977      206C6F6E 
 4977      6720756E 
 4977      7369676E 
 4977      65642069 
 4978              	.LASF16:
 4979 0795 75696E74 		.ascii	"uint16_t\000"
 4979      31365F74 
 4979      00
 4980              	.LASF233:
 4981 079e 474E5520 		.ascii	"GNU C 4.9.3 20150529 (prerelease) -mcpu=cortex-m4 -"
 4981      4320342E 
 4981      392E3320 
 4981      32303135 
 4981      30353239 
 4982 07d1 6D666C6F 		.ascii	"mfloat-abi=hard -mfpu=fpv4-sp-d16 -mno-thumb-interw"
ARM GAS  /tmp/ccOKB5Xj.s 			page 95


 4982      61742D61 
 4982      62693D68 
 4982      61726420 
 4982      2D6D6670 
 4983 0804 6F726B20 		.ascii	"ork -mthumb -g -Os -fomit-frame-pointer -falign-fun"
 4983      2D6D7468 
 4983      756D6220 
 4983      2D67202D 
 4983      4F73202D 
 4984 0837 6374696F 		.ascii	"ctions=16 -ffunction-sections -fdata-sections -fno-"
 4984      6E733D31 
 4984      36202D66 
 4984      66756E63 
 4984      74696F6E 
 4985 086a 636F6D6D 		.ascii	"common -fsingle-precision-constant\000"
 4985      6F6E202D 
 4985      6673696E 
 4985      676C652D 
 4985      70726563 
 4986              	.LASF26:
 4987 088d 6D73675F 		.ascii	"msg_t\000"
 4987      7400
 4988              	.LASF54:
 4989 0893 63685F74 		.ascii	"ch_threads_queue\000"
 4989      68726561 
 4989      64735F71 
 4989      75657565 
 4989      00
 4990              	.LASF204:
 4991 08a4 76616C75 		.ascii	"value\000"
 4991      6500
 4992              	.LASF62:
 4993 08aa 64656C74 		.ascii	"delta\000"
 4993      6100
 4994              	.LASF217:
 4995 08b0 68616C66 		.ascii	"half_index\000"
 4995      5F696E64 
 4995      657800
 4996              	.LASF174:
 4997 08bb 41444344 		.ascii	"ADCDriver\000"
 4997      72697665 
 4997      7200
 4998              	.LASF206:
 4999 08c5 6164635F 		.ascii	"adc_lld_init\000"
 4999      6C6C645F 
 4999      696E6974 
 4999      00
 5000              	.LASF40:
 5001 08d2 72656673 		.ascii	"refs\000"
 5001      00
 5002              	.LASF32:
 5003 08d7 71756575 		.ascii	"queue\000"
 5003      6500
 5004              	.LASF43:
 5005 08dd 6570656E 		.ascii	"epending\000"
 5005      64696E67 
 5005      00
ARM GAS  /tmp/ccOKB5Xj.s 			page 96


 5006              	.LASF159:
 5007 08e6 76656374 		.ascii	"vector\000"
 5007      6F7200
 5008              	.LASF172:
 5009 08ed 4144435F 		.ascii	"ADC_ERR_OVERFLOW\000"
 5009      4552525F 
 5009      4F564552 
 5009      464C4F57 
 5009      00
 5010              	.LASF216:
 5011 08fe 68616C66 		.ascii	"half\000"
 5011      00
 5012              	.LASF74:
 5013 0903 6D61696E 		.ascii	"mainthread\000"
 5013      74687265 
 5013      616400
 5014              	.LASF115:
 5015 090e 41484233 		.ascii	"AHB3LPENR\000"
 5015      4C50454E 
 5015      5200
 5016              	.LASF202:
 5017 0918 5F5F7365 		.ascii	"__set_BASEPRI\000"
 5017      745F4241 
 5017      53455052 
 5017      4900
 5018              	.LASF131:
 5019 0926 62657374 		.ascii	"best\000"
 5019      00
 5020              	.LASF220:
 5021 092b 61646353 		.ascii	"adcSTM32EnableVBATE\000"
 5021      544D3332 
 5021      456E6162 
 5021      6C655642 
 5021      41544500 
 5022              	.LASF37:
 5023 093f 77616261 		.ascii	"wabase\000"
 5023      736500
 5024              	.LASF72:
 5025 0946 726C6973 		.ascii	"rlist\000"
 5025      7400
 5026              	.LASF22:
 5027 094c 746D6F64 		.ascii	"tmode_t\000"
 5027      655F7400 
 5028              	.LASF195:
 5029 0954 64756D6D 		.ascii	"dummy\000"
 5029      7900
 5030              	.LASF163:
 5031 095a 4144435F 		.ascii	"ADC_STOP\000"
 5031      53544F50 
 5031      00
 5032              	.LASF106:
 5033 0963 41484231 		.ascii	"AHB1ENR\000"
 5033      454E5200 
 5034              	.LASF108:
 5035 096b 41484233 		.ascii	"AHB3ENR\000"
 5035      454E5200 
 5036              	.LASF178:
ARM GAS  /tmp/ccOKB5Xj.s 			page 97


 5037 0973 67727070 		.ascii	"grpp\000"
 5037      00
 5038              	.LASF130:
 5039 0978 746D5F63 		.ascii	"tm_calibration_t\000"
 5039      616C6962 
 5039      72617469 
 5039      6F6E5F74 
 5039      00
 5040              	.LASF100:
 5041 0989 41484232 		.ascii	"AHB2RSTR\000"
 5041      52535452 
 5041      00
 5042              	.LASF179:
 5043 0992 74687265 		.ascii	"thread\000"
 5043      616400
 5044              	.LASF94:
 5045 0999 4D304152 		.ascii	"M0AR\000"
 5045      00
 5046              	.LASF36:
 5047 099e 6E616D65 		.ascii	"name\000"
 5047      00
 5048              	.LASF197:
 5049 09a3 706F7274 		.ascii	"port_lock\000"
 5049      5F6C6F63 
 5049      6B00
 5050              	.LASF124:
 5051 09ad 5243435F 		.ascii	"RCC_TypeDef\000"
 5051      54797065 
 5051      44656600 
 5052              	.LASF5:
 5053 09b9 73686F72 		.ascii	"short int\000"
 5053      7420696E 
 5053      7400
 5054              	.LASF19:
 5055 09c3 75696E74 		.ascii	"uint64_t\000"
 5055      36345F74 
 5055      00
 5056              	.LASF211:
 5057 09cc 6D6F6465 		.ascii	"mode\000"
 5057      00
 5058              	.LASF63:
 5059 09d1 66756E63 		.ascii	"func\000"
 5059      00
 5060              	.LASF150:
 5061 09d6 63685F6D 		.ascii	"ch_mutex\000"
 5061      75746578 
 5061      00
 5062              	.LASF79:
 5063 09df 4A4F4652 		.ascii	"JOFR1\000"
 5063      3100
 5064              	.LASF80:
 5065 09e5 4A4F4652 		.ascii	"JOFR2\000"
 5065      3200
 5066              	.LASF42:
 5067 09eb 6D736771 		.ascii	"msgqueue\000"
 5067      75657565 
 5067      00
ARM GAS  /tmp/ccOKB5Xj.s 			page 98


 5068              	.LASF82:
 5069 09f4 4A4F4652 		.ascii	"JOFR4\000"
 5069      3400
 5070              	.LASF68:
 5071 09fa 63685F73 		.ascii	"ch_system_debug\000"
 5071      79737465 
 5071      6D5F6465 
 5071      62756700 
 5072              	.LASF225:
 5073 0a0a 6164634F 		.ascii	"adcObjectInit\000"
 5073      626A6563 
 5073      74496E69 
 5073      7400
 5074              	.LASF87:
 5075 0a18 4A445231 		.ascii	"JDR1\000"
 5075      00
 5076              	.LASF88:
 5077 0a1d 4A445232 		.ascii	"JDR2\000"
 5077      00
 5078              	.LASF89:
 5079 0a22 4A445233 		.ascii	"JDR3\000"
 5079      00
 5080              	.LASF90:
 5081 0a27 4A445234 		.ascii	"JDR4\000"
 5081      00
 5082              	.LASF86:
 5083 0a2c 4A535152 		.ascii	"JSQR\000"
 5083      00
 5084              	.LASF73:
 5085 0a31 76746C69 		.ascii	"vtlist\000"
 5085      737400
 5086              	.LASF41:
 5087 0a38 77616974 		.ascii	"waiting\000"
 5087      696E6700 
 5088              	.LASF229:
 5089 0a40 5F737461 		.ascii	"_stats_start_measure_crit_isr\000"
 5089      74735F73 
 5089      74617274 
 5089      5F6D6561 
 5089      73757265 
 5090              	.LASF153:
 5091 0a5e 6D757465 		.ascii	"mutex_t\000"
 5091      785F7400 
 5092              	.LASF24:
 5093 0a66 74726566 		.ascii	"trefs_t\000"
 5093      735F7400 
 5094              	.LASF127:
 5095 0a6e 706F7274 		.ascii	"port_context\000"
 5095      5F636F6E 
 5095      74657874 
 5095      00
 5096              	.LASF49:
 5097 0a7b 74687265 		.ascii	"threads_list_t\000"
 5097      6164735F 
 5097      6C697374 
 5097      5F7400
 5098              	.LASF71:
ARM GAS  /tmp/ccOKB5Xj.s 			page 99


 5099 0a8a 63685F73 		.ascii	"ch_system\000"
 5099      79737465 
 5099      6D00
 5100              	.LASF34:
 5101 0a94 6E657765 		.ascii	"newer\000"
 5101      7200
 5102              	.LASF93:
 5103 0a9a 4E445452 		.ascii	"NDTR\000"
 5103      00
 5104              	.LASF226:
 5105 0a9f 6E766963 		.ascii	"nvicEnableVector\000"
 5105      456E6162 
 5105      6C655665 
 5105      63746F72 
 5105      00
 5106              	.LASF18:
 5107 0ab0 75696E74 		.ascii	"uint32_t\000"
 5107      33325F74 
 5107      00
 5108              	.LASF237:
 5109 0ab9 6164635F 		.ascii	"adc_lld_serve_rx_interrupt\000"
 5109      6C6C645F 
 5109      73657276 
 5109      655F7278 
 5109      5F696E74 
 5110              	.LASF141:
 5111 0ad4 7264796D 		.ascii	"rdymsg\000"
 5111      736700
 5112              	.LASF7:
 5113 0adb 73686F72 		.ascii	"short unsigned int\000"
 5113      7420756E 
 5113      7369676E 
 5113      65642069 
 5113      6E7400
 5114              	.LASF70:
 5115 0aee 63685F73 		.ascii	"ch_system_t\000"
 5115      79737465 
 5115      6D5F7400 
 5116              	.LASF8:
 5117 0afa 5F5F696E 		.ascii	"__int32_t\000"
 5117      7433325F 
 5117      7400
 5118              	.LASF92:
 5119 0b04 4144435F 		.ascii	"ADC_Common_TypeDef\000"
 5119      436F6D6D 
 5119      6F6E5F54 
 5119      79706544 
 5119      656600
 5120              	.LASF156:
 5121 0b17 69666372 		.ascii	"ifcr\000"
 5121      00
 5122              	.LASF52:
 5123 0b1c 6E657874 		.ascii	"next\000"
 5123      00
 5124              	.LASF55:
 5125 0b21 70726576 		.ascii	"prev\000"
 5125      00
ARM GAS  /tmp/ccOKB5Xj.s 			page 100


 5126              	.LASF133:
 5127 0b26 6C617374 		.ascii	"last\000"
 5127      00
 5128              	.LASF196:
 5129 0b2b 41444343 		.ascii	"ADCConfig\000"
 5129      6F6E6669 
 5129      6700
 5130              		.ident	"GCC: (15:4.9.3+svn231177-1) 4.9.3 20150529 (prerelease)"
ARM GAS  /tmp/ccOKB5Xj.s 			page 101


DEFINED SYMBOLS
                            *ABS*:0000000000000000 hal_adc_lld.c
     /tmp/ccOKB5Xj.s:21     .text.adc_lld_init:0000000000000000 $t
     /tmp/ccOKB5Xj.s:26     .text.adc_lld_init:0000000000000000 adc_lld_init
     /tmp/ccOKB5Xj.s:65     .text.adc_lld_init:0000000000000024 $d
     /tmp/ccOKB5Xj.s:73     .text.adc_lld_start:0000000000000000 $t
     /tmp/ccOKB5Xj.s:78     .text.adc_lld_start:0000000000000000 adc_lld_start
     /tmp/ccOKB5Xj.s:143    .text.adc_lld_start:000000000000004c $d
     /tmp/ccOKB5Xj.s:527    .text.adc_lld_serve_rx_interrupt:0000000000000000 adc_lld_serve_rx_interrupt
     /tmp/ccOKB5Xj.s:152    .text.adc_lld_stop:0000000000000000 $t
     /tmp/ccOKB5Xj.s:157    .text.adc_lld_stop:0000000000000000 adc_lld_stop
     /tmp/ccOKB5Xj.s:202    .text.adc_lld_stop:000000000000002c $d
     /tmp/ccOKB5Xj.s:208    .text.adc_lld_start_conversion:0000000000000000 $t
     /tmp/ccOKB5Xj.s:213    .text.adc_lld_start_conversion:0000000000000000 adc_lld_start_conversion
     /tmp/ccOKB5Xj.s:327    .text.adc_lld_stop_conversion:0000000000000000 $t
     /tmp/ccOKB5Xj.s:332    .text.adc_lld_stop_conversion:0000000000000000 adc_lld_stop_conversion
     /tmp/ccOKB5Xj.s:375    .text.Vector88:0000000000000000 $t
     /tmp/ccOKB5Xj.s:380    .text.Vector88:0000000000000000 Vector88
     /tmp/ccOKB5Xj.s:516    .text.Vector88:0000000000000074 $d
     /tmp/ccOKB5Xj.s:523    .text.adc_lld_serve_rx_interrupt:0000000000000000 $t
     /tmp/ccOKB5Xj.s:759    .text.adcSTM32EnableTSVREFE:0000000000000000 $t
     /tmp/ccOKB5Xj.s:764    .text.adcSTM32EnableTSVREFE:0000000000000000 adcSTM32EnableTSVREFE
     /tmp/ccOKB5Xj.s:780    .text.adcSTM32EnableTSVREFE:000000000000000c $d
     /tmp/ccOKB5Xj.s:785    .text.adcSTM32DisableTSVREFE:0000000000000000 $t
     /tmp/ccOKB5Xj.s:790    .text.adcSTM32DisableTSVREFE:0000000000000000 adcSTM32DisableTSVREFE
     /tmp/ccOKB5Xj.s:806    .text.adcSTM32DisableTSVREFE:000000000000000c $d
     /tmp/ccOKB5Xj.s:811    .text.adcSTM32EnableVBATE:0000000000000000 $t
     /tmp/ccOKB5Xj.s:816    .text.adcSTM32EnableVBATE:0000000000000000 adcSTM32EnableVBATE
     /tmp/ccOKB5Xj.s:832    .text.adcSTM32EnableVBATE:000000000000000c $d
     /tmp/ccOKB5Xj.s:837    .text.adcSTM32DisableVBATE:0000000000000000 $t
     /tmp/ccOKB5Xj.s:842    .text.adcSTM32DisableVBATE:0000000000000000 adcSTM32DisableVBATE
     /tmp/ccOKB5Xj.s:858    .text.adcSTM32DisableVBATE:000000000000000c $d
     /tmp/ccOKB5Xj.s:868    .bss.ADCD1:0000000000000000 ADCD1
     /tmp/ccOKB5Xj.s:864    .bss.ADCD1:0000000000000000 $d
                     .debug_frame:0000000000000010 $d

UNDEFINED SYMBOLS
adcObjectInit
nvicEnableVector
_stm32_dma_streams
dmaStreamAllocate
dmaStreamRelease
_stats_increase_irq
_stats_start_measure_crit_isr
chThdResumeI
_stats_stop_measure_crit_isr
_port_irq_epilogue
