ARM GAS  /tmp/cczp6DF1.s 			page 1


   1              		.syntax unified
   2              		.cpu cortex-m4
   3              		.eabi_attribute 27, 1
   4              		.eabi_attribute 28, 1
   5              		.fpu fpv4-sp-d16
   6              		.eabi_attribute 20, 1
   7              		.eabi_attribute 21, 1
   8              		.eabi_attribute 23, 3
   9              		.eabi_attribute 24, 1
  10              		.eabi_attribute 25, 1
  11              		.eabi_attribute 26, 1
  12              		.eabi_attribute 30, 4
  13              		.eabi_attribute 34, 1
  14              		.eabi_attribute 18, 4
  15              		.thumb
  16              		.file	"hal_ext.c"
  17              		.text
  18              	.Ltext0:
  19              		.cfi_sections	.debug_frame
  20              		.section	.text.extInit,"ax",%progbits
  21              		.align	1
  22              		.global	extInit
  23              		.thumb
  24              		.thumb_func
  25              		.type	extInit, %function
  26              	extInit:
  27              	.LFB277:
  28              		.file 1 "../../modules/ChibiOS/os/hal/src/hal_ext.c"
  29              		.loc 1 56 0
  30              		.cfi_startproc
  31              		@ args = 0, pretend = 0, frame = 0
  32              		@ frame_needed = 0, uses_anonymous_args = 0
  33              		@ link register save eliminated.
  34              		.loc 1 58 0
  35 0000 FFF7FEBF 		b	ext_lld_init
  36              	.LVL0:
  37              		.cfi_endproc
  38              	.LFE277:
  39              		.size	extInit, .-extInit
  40              		.section	.text.extObjectInit,"ax",%progbits
  41              		.align	1
  42              		.global	extObjectInit
  43              		.thumb
  44              		.thumb_func
  45              		.type	extObjectInit, %function
  46              	extObjectInit:
  47              	.LFB278:
  48              		.loc 1 68 0
  49              		.cfi_startproc
  50              		@ args = 0, pretend = 0, frame = 0
  51              		@ frame_needed = 0, uses_anonymous_args = 0
  52              		@ link register save eliminated.
  53              	.LVL1:
  54              		.loc 1 70 0
  55 0000 0123     		movs	r3, #1
  56 0002 0370     		strb	r3, [r0]
  57              		.loc 1 71 0
ARM GAS  /tmp/cczp6DF1.s 			page 2


  58 0004 0023     		movs	r3, #0
  59 0006 4360     		str	r3, [r0, #4]
  60 0008 7047     		bx	lr
  61              		.cfi_endproc
  62              	.LFE278:
  63              		.size	extObjectInit, .-extObjectInit
  64              		.section	.text.extStart,"ax",%progbits
  65              		.align	1
  66              		.global	extStart
  67              		.thumb
  68              		.thumb_func
  69              		.type	extStart, %function
  70              	extStart:
  71              	.LFB279:
  72              		.loc 1 84 0
  73              		.cfi_startproc
  74              		@ args = 0, pretend = 0, frame = 0
  75              		@ frame_needed = 0, uses_anonymous_args = 0
  76              	.LVL2:
  77 0000 38B5     		push	{r3, r4, r5, lr}
  78              		.cfi_def_cfa_offset 16
  79              		.cfi_offset 3, -16
  80              		.cfi_offset 4, -12
  81              		.cfi_offset 5, -8
  82              		.cfi_offset 14, -4
  83              		.loc 1 84 0
  84 0002 0446     		mov	r4, r0
  85 0004 0D46     		mov	r5, r1
  86              	.LBB44:
  87              	.LBB45:
  88              	.LBB46:
  89              	.LBB47:
  90              	.LBB48:
  91              	.LBB49:
  92              		.file 2 "../../modules/ChibiOS/os/common/ext/CMSIS/include/cmsis_gcc.h"
  93              		.loc 2 264 0
  94 0006 2023     		movs	r3, #32
  95              	@ 264 "../../modules/ChibiOS/os/common/ext/CMSIS/include/cmsis_gcc.h" 1
  96 0008 83F31188 		MSR basepri, r3
  97              	@ 0 "" 2
  98              		.thumb
  99              	.LBE49:
 100              	.LBE48:
 101              	.LBE47:
 102              		.file 3 "../../modules/ChibiOS/os/rt/include/chsys.h"
 103              		.loc 3 377 0
 104 000c FFF7FEFF 		bl	_stats_start_measure_crit_thd
 105              	.LVL3:
 106              	.LBE46:
 107              	.LBE45:
 108              	.LBE44:
 109              		.loc 1 92 0
 110 0010 2046     		mov	r0, r4
 111              		.loc 1 91 0
 112 0012 6560     		str	r5, [r4, #4]
 113              		.loc 1 92 0
 114 0014 FFF7FEFF 		bl	ext_lld_start
ARM GAS  /tmp/cczp6DF1.s 			page 3


 115              	.LVL4:
 116              		.loc 1 93 0
 117 0018 0223     		movs	r3, #2
 118 001a 2370     		strb	r3, [r4]
 119              	.LBB50:
 120              	.LBB51:
 121              	.LBB52:
 122              		.loc 3 389 0
 123 001c FFF7FEFF 		bl	_stats_stop_measure_crit_thd
 124              	.LVL5:
 125              	.LBB53:
 126              	.LBB54:
 127              	.LBB55:
 128              		.loc 2 264 0
 129 0020 0023     		movs	r3, #0
 130              	@ 264 "../../modules/ChibiOS/os/common/ext/CMSIS/include/cmsis_gcc.h" 1
 131 0022 83F31188 		MSR basepri, r3
 132              	@ 0 "" 2
 133              		.thumb
 134 0026 38BD     		pop	{r3, r4, r5, pc}
 135              	.LBE55:
 136              	.LBE54:
 137              	.LBE53:
 138              	.LBE52:
 139              	.LBE51:
 140              	.LBE50:
 141              		.cfi_endproc
 142              	.LFE279:
 143              		.size	extStart, .-extStart
 144              		.section	.text.extStop,"ax",%progbits
 145              		.align	1
 146              		.global	extStop
 147              		.thumb
 148              		.thumb_func
 149              		.type	extStop, %function
 150              	extStop:
 151              	.LFB280:
 152              		.loc 1 104 0
 153              		.cfi_startproc
 154              		@ args = 0, pretend = 0, frame = 0
 155              		@ frame_needed = 0, uses_anonymous_args = 0
 156              	.LVL6:
 157 0000 38B5     		push	{r3, r4, r5, lr}
 158              		.cfi_def_cfa_offset 16
 159              		.cfi_offset 3, -16
 160              		.cfi_offset 4, -12
 161              		.cfi_offset 5, -8
 162              		.cfi_offset 14, -4
 163              		.loc 1 104 0
 164 0002 0446     		mov	r4, r0
 165              	.LBB70:
 166              	.LBB71:
 167              	.LBB72:
 168              	.LBB73:
 169              	.LBB74:
 170              	.LBB75:
 171              		.loc 2 264 0
ARM GAS  /tmp/cczp6DF1.s 			page 4


 172 0004 2023     		movs	r3, #32
 173              	@ 264 "../../modules/ChibiOS/os/common/ext/CMSIS/include/cmsis_gcc.h" 1
 174 0006 83F31188 		MSR basepri, r3
 175              	@ 0 "" 2
 176              		.thumb
 177              	.LBE75:
 178              	.LBE74:
 179              	.LBE73:
 180              		.loc 3 377 0
 181 000a FFF7FEFF 		bl	_stats_start_measure_crit_thd
 182              	.LVL7:
 183              	.LBE72:
 184              	.LBE71:
 185              	.LBE70:
 186              		.loc 1 113 0
 187 000e 2046     		mov	r0, r4
 188 0010 FFF7FEFF 		bl	ext_lld_stop
 189              	.LVL8:
 190              		.loc 1 114 0
 191 0014 0025     		movs	r5, #0
 192              		.loc 1 115 0
 193 0016 0123     		movs	r3, #1
 194              		.loc 1 114 0
 195 0018 6560     		str	r5, [r4, #4]
 196              		.loc 1 115 0
 197 001a 2370     		strb	r3, [r4]
 198              	.LBB76:
 199              	.LBB77:
 200              	.LBB78:
 201              		.loc 3 389 0
 202 001c FFF7FEFF 		bl	_stats_stop_measure_crit_thd
 203              	.LVL9:
 204              	.LBB79:
 205              	.LBB80:
 206              	.LBB81:
 207              		.loc 2 264 0
 208              	@ 264 "../../modules/ChibiOS/os/common/ext/CMSIS/include/cmsis_gcc.h" 1
 209 0020 85F31188 		MSR basepri, r5
 210              	@ 0 "" 2
 211              		.thumb
 212 0024 38BD     		pop	{r3, r4, r5, pc}
 213              	.LBE81:
 214              	.LBE80:
 215              	.LBE79:
 216              	.LBE78:
 217              	.LBE77:
 218              	.LBE76:
 219              		.cfi_endproc
 220              	.LFE280:
 221              		.size	extStop, .-extStop
 222              		.section	.text.extChannelEnable,"ax",%progbits
 223              		.align	1
 224              		.global	extChannelEnable
 225              		.thumb
 226              		.thumb_func
 227              		.type	extChannelEnable, %function
 228              	extChannelEnable:
ARM GAS  /tmp/cczp6DF1.s 			page 5


 229              	.LFB281:
 230              		.loc 1 129 0
 231              		.cfi_startproc
 232              		@ args = 0, pretend = 0, frame = 0
 233              		@ frame_needed = 0, uses_anonymous_args = 0
 234              	.LVL10:
 235 0000 38B5     		push	{r3, r4, r5, lr}
 236              		.cfi_def_cfa_offset 16
 237              		.cfi_offset 3, -16
 238              		.cfi_offset 4, -12
 239              		.cfi_offset 5, -8
 240              		.cfi_offset 14, -4
 241              		.loc 1 129 0
 242 0002 0546     		mov	r5, r0
 243 0004 0C46     		mov	r4, r1
 244              	.LBB96:
 245              	.LBB97:
 246              	.LBB98:
 247              	.LBB99:
 248              	.LBB100:
 249              	.LBB101:
 250              		.loc 2 264 0
 251 0006 2023     		movs	r3, #32
 252              	@ 264 "../../modules/ChibiOS/os/common/ext/CMSIS/include/cmsis_gcc.h" 1
 253 0008 83F31188 		MSR basepri, r3
 254              	@ 0 "" 2
 255              		.thumb
 256              	.LBE101:
 257              	.LBE100:
 258              	.LBE99:
 259              		.loc 3 377 0
 260 000c FFF7FEFF 		bl	_stats_start_measure_crit_thd
 261              	.LVL11:
 262              	.LBE98:
 263              	.LBE97:
 264              	.LBE96:
 265              		.loc 1 138 0
 266 0010 2846     		mov	r0, r5
 267 0012 2146     		mov	r1, r4
 268 0014 FFF7FEFF 		bl	ext_lld_channel_enable
 269              	.LVL12:
 270              	.LBB102:
 271              	.LBB103:
 272              	.LBB104:
 273              		.loc 3 389 0
 274 0018 FFF7FEFF 		bl	_stats_stop_measure_crit_thd
 275              	.LVL13:
 276              	.LBB105:
 277              	.LBB106:
 278              	.LBB107:
 279              		.loc 2 264 0
 280 001c 0023     		movs	r3, #0
 281              	@ 264 "../../modules/ChibiOS/os/common/ext/CMSIS/include/cmsis_gcc.h" 1
 282 001e 83F31188 		MSR basepri, r3
 283              	@ 0 "" 2
 284              		.thumb
 285 0022 38BD     		pop	{r3, r4, r5, pc}
ARM GAS  /tmp/cczp6DF1.s 			page 6


 286              	.LBE107:
 287              	.LBE106:
 288              	.LBE105:
 289              	.LBE104:
 290              	.LBE103:
 291              	.LBE102:
 292              		.cfi_endproc
 293              	.LFE281:
 294              		.size	extChannelEnable, .-extChannelEnable
 295              		.section	.text.extChannelDisable,"ax",%progbits
 296              		.align	1
 297              		.global	extChannelDisable
 298              		.thumb
 299              		.thumb_func
 300              		.type	extChannelDisable, %function
 301              	extChannelDisable:
 302              	.LFB282:
 303              		.loc 1 151 0
 304              		.cfi_startproc
 305              		@ args = 0, pretend = 0, frame = 0
 306              		@ frame_needed = 0, uses_anonymous_args = 0
 307              	.LVL14:
 308 0000 38B5     		push	{r3, r4, r5, lr}
 309              		.cfi_def_cfa_offset 16
 310              		.cfi_offset 3, -16
 311              		.cfi_offset 4, -12
 312              		.cfi_offset 5, -8
 313              		.cfi_offset 14, -4
 314              		.loc 1 151 0
 315 0002 0546     		mov	r5, r0
 316 0004 0C46     		mov	r4, r1
 317              	.LBB122:
 318              	.LBB123:
 319              	.LBB124:
 320              	.LBB125:
 321              	.LBB126:
 322              	.LBB127:
 323              		.loc 2 264 0
 324 0006 2023     		movs	r3, #32
 325              	@ 264 "../../modules/ChibiOS/os/common/ext/CMSIS/include/cmsis_gcc.h" 1
 326 0008 83F31188 		MSR basepri, r3
 327              	@ 0 "" 2
 328              		.thumb
 329              	.LBE127:
 330              	.LBE126:
 331              	.LBE125:
 332              		.loc 3 377 0
 333 000c FFF7FEFF 		bl	_stats_start_measure_crit_thd
 334              	.LVL15:
 335              	.LBE124:
 336              	.LBE123:
 337              	.LBE122:
 338              		.loc 1 160 0
 339 0010 2846     		mov	r0, r5
 340 0012 2146     		mov	r1, r4
 341 0014 FFF7FEFF 		bl	ext_lld_channel_disable
 342              	.LVL16:
ARM GAS  /tmp/cczp6DF1.s 			page 7


 343              	.LBB128:
 344              	.LBB129:
 345              	.LBB130:
 346              		.loc 3 389 0
 347 0018 FFF7FEFF 		bl	_stats_stop_measure_crit_thd
 348              	.LVL17:
 349              	.LBB131:
 350              	.LBB132:
 351              	.LBB133:
 352              		.loc 2 264 0
 353 001c 0023     		movs	r3, #0
 354              	@ 264 "../../modules/ChibiOS/os/common/ext/CMSIS/include/cmsis_gcc.h" 1
 355 001e 83F31188 		MSR basepri, r3
 356              	@ 0 "" 2
 357              		.thumb
 358 0022 38BD     		pop	{r3, r4, r5, pc}
 359              	.LBE133:
 360              	.LBE132:
 361              	.LBE131:
 362              	.LBE130:
 363              	.LBE129:
 364              	.LBE128:
 365              		.cfi_endproc
 366              	.LFE282:
 367              		.size	extChannelDisable, .-extChannelDisable
 368              		.section	.text.extSetChannelModeI,"ax",%progbits
 369              		.align	1
 370              		.global	extSetChannelModeI
 371              		.thumb
 372              		.thumb_func
 373              		.type	extSetChannelModeI, %function
 374              	extSetChannelModeI:
 375              	.LFB283:
 376              		.loc 1 183 0
 377              		.cfi_startproc
 378              		@ args = 0, pretend = 0, frame = 0
 379              		@ frame_needed = 0, uses_anonymous_args = 0
 380              	.LVL18:
 381 0000 30B5     		push	{r4, r5, lr}
 382              		.cfi_def_cfa_offset 12
 383              		.cfi_offset 4, -12
 384              		.cfi_offset 5, -8
 385              		.cfi_offset 14, -4
 386              		.loc 1 200 0
 387 0002 4368     		ldr	r3, [r0, #4]
 388              		.loc 1 183 0
 389 0004 0546     		mov	r5, r0
 390 0006 0C46     		mov	r4, r1
 391              		.loc 1 200 0
 392 0008 03EBC103 		add	r3, r3, r1, lsl #3
 393 000c 92E80300 		ldmia	r2, {r0, r1}
 394              	.LVL19:
 395 0010 83E80300 		stmia	r3, {r0, r1}
 396              	.LVL20:
 397              		.loc 1 201 0
 398 0014 2846     		mov	r0, r5
 399 0016 2146     		mov	r1, r4
ARM GAS  /tmp/cczp6DF1.s 			page 8


 400              		.loc 1 202 0
 401 0018 BDE83040 		pop	{r4, r5, lr}
 402              		.cfi_restore 14
 403              		.cfi_restore 5
 404              		.cfi_restore 4
 405              		.cfi_def_cfa_offset 0
 406              	.LVL21:
 407              		.loc 1 201 0
 408 001c FFF7FEBF 		b	ext_lld_channel_enable
 409              	.LVL22:
 410              		.cfi_endproc
 411              	.LFE283:
 412              		.size	extSetChannelModeI, .-extSetChannelModeI
 413              		.text
 414              	.Letext0:
 415              		.file 4 "/usr/include/newlib/machine/_default_types.h"
 416              		.file 5 "/usr/include/newlib/sys/_stdint.h"
 417              		.file 6 "../../modules/ChibiOS/os/common/ports/ARMCMx/compilers/GCC/chtypes.h"
 418              		.file 7 "../../modules/ChibiOS/os/rt/include/chsystypes.h"
 419              		.file 8 "../../modules/ChibiOS/os/rt/include/chschd.h"
 420              		.file 9 "../../modules/ChibiOS/os/common/ports/ARMCMx/chcore.h"
 421              		.file 10 "../../modules/ChibiOS/os/common/ports/ARMCMx/chcore_v7m.h"
 422              		.file 11 "../../modules/ChibiOS/os/rt/include/chtm.h"
 423              		.file 12 "../../modules/ChibiOS/os/rt/include/chstats.h"
 424              		.file 13 "../../modules/ChibiOS/os/rt/include/chsem.h"
 425              		.file 14 "../../modules/ChibiOS/os/rt/include/chmtx.h"
 426              		.file 15 "../../modules/ChibiOS/os/hal/include/hal_ext.h"
 427              		.file 16 "../../modules/ChibiOS/os/hal/ports/STM32/LLD/EXTIv1/hal_ext_lld.h"
 428              		.file 17 "../../modules/ChibiOS/os/hal/osal/rt/osal.h"
 429              		.file 18 "../../modules/ChibiOS/os/common/ext/CMSIS/include/core_cm4.h"