ARM GAS  /tmp/ccC1lapy.s 			page 1


   1              		.syntax unified
   2              		.cpu cortex-m4
   3              		.eabi_attribute 27, 1
   4              		.eabi_attribute 28, 1
   5              		.fpu fpv4-sp-d16
   6              		.eabi_attribute 20, 1
   7              		.eabi_attribute 21, 1
   8              		.eabi_attribute 23, 3
   9              		.eabi_attribute 24, 1
  10              		.eabi_attribute 25, 1
  11              		.eabi_attribute 26, 1
  12              		.eabi_attribute 30, 4
  13              		.eabi_attribute 34, 1
  14              		.eabi_attribute 18, 4
  15              		.thumb
  16              		.file	"hal_queues.c"
  17              		.text
  18              	.Ltext0:
  19              		.cfi_sections	.debug_frame
  20              		.section	.text.chSysLock,"ax",%progbits
  21              		.align	1
  22              		.thumb
  23              		.thumb_func
  24              		.type	chSysLock, %function
  25              	chSysLock:
  26              	.LFB167:
  27              		.file 1 "../../modules/ChibiOS/os/rt/include/chsys.h"
  28              		.loc 1 374 0
  29              		.cfi_startproc
  30              		@ args = 0, pretend = 0, frame = 0
  31              		@ frame_needed = 0, uses_anonymous_args = 0
  32              		@ link register save eliminated.
  33              	.LVL0:
  34              	.LBB123:
  35              	.LBB124:
  36              	.LBB125:
  37              		.file 2 "../../modules/ChibiOS/os/common/ext/CMSIS/include/cmsis_gcc.h"
  38              		.loc 2 264 0
  39 0000 2023     		movs	r3, #32
  40              	@ 264 "../../modules/ChibiOS/os/common/ext/CMSIS/include/cmsis_gcc.h" 1
  41 0002 83F31188 		MSR basepri, r3
  42              	@ 0 "" 2
  43              		.thumb
  44              	.LBE125:
  45              	.LBE124:
  46              	.LBE123:
  47              		.loc 1 377 0
  48 0006 FFF7FEBF 		b	_stats_start_measure_crit_thd
  49              	.LVL1:
  50              		.cfi_endproc
  51              	.LFE167:
  52              		.size	chSysLock, .-chSysLock
  53              		.section	.text.chSysUnlock,"ax",%progbits
  54              		.align	1
  55              		.thumb
  56              		.thumb_func
  57              		.type	chSysUnlock, %function
ARM GAS  /tmp/ccC1lapy.s 			page 2


  58              	chSysUnlock:
  59              	.LFB168:
  60              		.loc 1 386 0
  61              		.cfi_startproc
  62              		@ args = 0, pretend = 0, frame = 0
  63              		@ frame_needed = 0, uses_anonymous_args = 0
  64 0000 08B5     		push	{r3, lr}
  65              		.cfi_def_cfa_offset 8
  66              		.cfi_offset 3, -8
  67              		.cfi_offset 14, -4
  68              		.loc 1 389 0
  69 0002 FFF7FEFF 		bl	_stats_stop_measure_crit_thd
  70              	.LVL2:
  71              	.LBB126:
  72              	.LBB127:
  73              	.LBB128:
  74              		.loc 2 264 0
  75 0006 0023     		movs	r3, #0
  76              	@ 264 "../../modules/ChibiOS/os/common/ext/CMSIS/include/cmsis_gcc.h" 1
  77 0008 83F31188 		MSR basepri, r3
  78              	@ 0 "" 2
  79              		.thumb
  80 000c 08BD     		pop	{r3, pc}
  81              	.LBE128:
  82              	.LBE127:
  83              	.LBE126:
  84              		.cfi_endproc
  85              	.LFE168:
  86              		.size	chSysUnlock, .-chSysUnlock
  87              		.section	.text.iqObjectInit,"ax",%progbits
  88              		.align	1
  89              		.global	iqObjectInit
  90              		.thumb
  91              		.thumb_func
  92              		.type	iqObjectInit, %function
  93              	iqObjectInit:
  94              	.LFB277:
  95              		.file 3 "../../modules/ChibiOS/os/hal/src/hal_queues.c"
  96              		.loc 3 56 0
  97              		.cfi_startproc
  98              		@ args = 4, pretend = 0, frame = 0
  99              		@ frame_needed = 0, uses_anonymous_args = 0
 100              	.LVL3:
 101 0000 10B5     		push	{r4, lr}
 102              		.cfi_def_cfa_offset 8
 103              		.cfi_offset 4, -8
 104              		.cfi_offset 14, -4
 105              		.loc 3 63 0
 106 0002 0A44     		add	r2, r2, r1
 107              	.LVL4:
 108              		.loc 3 59 0
 109 0004 0024     		movs	r4, #0
 110              		.loc 3 64 0
 111 0006 C361     		str	r3, [r0, #28]
 112              		.loc 3 65 0
 113 0008 029B     		ldr	r3, [sp, #8]
 114              	.LVL5:
ARM GAS  /tmp/ccC1lapy.s 			page 3


 115              	.LBB129:
 116              	.LBB130:
 117              	.LBB131:
 118              	.LBB132:
 119              		.file 4 "../../modules/ChibiOS/os/rt/include/chschd.h"
 120              		.loc 4 550 0
 121 000a 0060     		str	r0, [r0]
 122              		.loc 4 551 0
 123 000c 4060     		str	r0, [r0, #4]
 124              	.LBE132:
 125              	.LBE131:
 126              	.LBE130:
 127              	.LBE129:
 128              		.loc 3 59 0
 129 000e 8460     		str	r4, [r0, #8]
 130              		.loc 3 60 0
 131 0010 C160     		str	r1, [r0, #12]
 132              		.loc 3 61 0
 133 0012 8161     		str	r1, [r0, #24]
 134              		.loc 3 62 0
 135 0014 4161     		str	r1, [r0, #20]
 136              		.loc 3 63 0
 137 0016 0261     		str	r2, [r0, #16]
 138              		.loc 3 65 0
 139 0018 0362     		str	r3, [r0, #32]
 140 001a 10BD     		pop	{r4, pc}
 141              		.cfi_endproc
 142              	.LFE277:
 143              		.size	iqObjectInit, .-iqObjectInit
 144              		.section	.text.iqResetI,"ax",%progbits
 145              		.align	1
 146              		.global	iqResetI
 147              		.thumb
 148              		.thumb_func
 149              		.type	iqResetI, %function
 150              	iqResetI:
 151              	.LFB278:
 152              		.loc 3 79 0
 153              		.cfi_startproc
 154              		@ args = 0, pretend = 0, frame = 0
 155              		@ frame_needed = 0, uses_anonymous_args = 0
 156              		@ link register save eliminated.
 157              	.LVL6:
 158              		.loc 3 83 0
 159 0000 C268     		ldr	r2, [r0, #12]
 160 0002 8261     		str	r2, [r0, #24]
 161              		.loc 3 84 0
 162 0004 4261     		str	r2, [r0, #20]
 163              		.loc 3 85 0
 164 0006 0022     		movs	r2, #0
 165 0008 8260     		str	r2, [r0, #8]
 166              	.LVL7:
 167              	.LBB133:
 168              	.LBB134:
 169              		.file 5 "../../modules/ChibiOS/os/hal/osal/rt/osal.h"
 170              		.loc 5 810 0
 171 000a 6FF00101 		mvn	r1, #1
ARM GAS  /tmp/ccC1lapy.s 			page 4


 172 000e FFF7FEBF 		b	chThdDequeueAllI
 173              	.LVL8:
 174              	.LBE134:
 175              	.LBE133:
 176              		.cfi_endproc
 177              	.LFE278:
 178              		.size	iqResetI, .-iqResetI
 179              		.section	.text.iqPutI,"ax",%progbits
 180              		.align	1
 181              		.global	iqPutI
 182              		.thumb
 183              		.thumb_func
 184              		.type	iqPutI, %function
 185              	iqPutI:
 186              	.LFB279:
 187              		.loc 3 102 0
 188              		.cfi_startproc
 189              		@ args = 0, pretend = 0, frame = 0
 190              		@ frame_needed = 0, uses_anonymous_args = 0
 191              	.LVL9:
 192 0000 08B5     		push	{r3, lr}
 193              		.cfi_def_cfa_offset 8
 194              		.cfi_offset 3, -8
 195              		.cfi_offset 14, -4
 196              		.loc 3 106 0
 197 0002 8269     		ldr	r2, [r0, #24]
 198 0004 4369     		ldr	r3, [r0, #20]
 199 0006 9342     		cmp	r3, r2
 200 0008 04D1     		bne	.L6
 201              		.loc 3 106 0 is_stmt 0 discriminator 1
 202 000a 8268     		ldr	r2, [r0, #8]
 203 000c 12B1     		cbz	r2, .L6
 204              		.loc 3 107 0 is_stmt 1
 205 000e 4FF0FF30 		mov	r0, #-1
 206              	.LVL10:
 207 0012 08BD     		pop	{r3, pc}
 208              	.LVL11:
 209              	.L6:
 210              		.loc 3 110 0
 211 0014 8268     		ldr	r2, [r0, #8]
 212 0016 0132     		adds	r2, r2, #1
 213 0018 8260     		str	r2, [r0, #8]
 214              		.loc 3 111 0
 215 001a 5A1C     		adds	r2, r3, #1
 216 001c 4261     		str	r2, [r0, #20]
 217 001e 1970     		strb	r1, [r3]
 218              		.loc 3 112 0
 219 0020 4269     		ldr	r2, [r0, #20]
 220 0022 0369     		ldr	r3, [r0, #16]
 221 0024 9A42     		cmp	r2, r3
 222 0026 01D3     		bcc	.L9
 223              		.loc 3 113 0
 224 0028 C368     		ldr	r3, [r0, #12]
 225 002a 4361     		str	r3, [r0, #20]
 226              	.L9:
 227              	.LVL12:
 228              	.LBB135:
ARM GAS  /tmp/ccC1lapy.s 			page 5


 229              	.LBB136:
 230              		.loc 5 797 0
 231 002c 0021     		movs	r1, #0
 232              	.LVL13:
 233 002e FFF7FEFF 		bl	chThdDequeueNextI
 234              	.LVL14:
 235              	.LBE136:
 236              	.LBE135:
 237              		.loc 3 118 0
 238 0032 0020     		movs	r0, #0
 239 0034 08BD     		pop	{r3, pc}
 240              		.cfi_endproc
 241              	.LFE279:
 242              		.size	iqPutI, .-iqPutI
 243              		.section	.text.iqGetTimeout,"ax",%progbits
 244              		.align	1
 245              		.global	iqGetTimeout
 246              		.thumb
 247              		.thumb_func
 248              		.type	iqGetTimeout, %function
 249              	iqGetTimeout:
 250              	.LFB280:
 251              		.loc 3 141 0
 252              		.cfi_startproc
 253              		@ args = 0, pretend = 0, frame = 0
 254              		@ frame_needed = 0, uses_anonymous_args = 0
 255              	.LVL15:
 256 0000 70B5     		push	{r4, r5, r6, lr}
 257              		.cfi_def_cfa_offset 16
 258              		.cfi_offset 4, -16
 259              		.cfi_offset 5, -12
 260              		.cfi_offset 6, -8
 261              		.cfi_offset 14, -4
 262              		.loc 3 141 0
 263 0002 0446     		mov	r4, r0
 264 0004 0E46     		mov	r6, r1
 265              	.LBB137:
 266              	.LBB138:
 267              		.loc 5 493 0
 268 0006 FFF7FEFF 		bl	chSysLock
 269              	.LVL16:
 270              	.L14:
 271              	.LBE138:
 272              	.LBE137:
 273              		.loc 3 147 0
 274 000a A368     		ldr	r3, [r4, #8]
 275 000c 33B9     		cbnz	r3, .L23
 276              	.LVL17:
 277              	.LBB139:
 278              	.LBB140:
 279              	.LBB141:
 280              		.loc 5 784 0
 281 000e 2046     		mov	r0, r4
 282 0010 3146     		mov	r1, r6
 283 0012 FFF7FEFF 		bl	chThdEnqueueTimeoutS
 284              	.LVL18:
 285              	.LBE141:
ARM GAS  /tmp/ccC1lapy.s 			page 6


 286              	.LBE140:
 287              		.loc 3 149 0
 288 0016 051E     		subs	r5, r0, #0
 289 0018 F7DA     		bge	.L14
 290 001a 0FE0     		b	.L18
 291              	.LVL19:
 292              	.L23:
 293              	.LBE139:
 294              		.loc 3 156 0
 295 001c A368     		ldr	r3, [r4, #8]
 296              		.loc 3 157 0
 297 001e A269     		ldr	r2, [r4, #24]
 298              		.loc 3 156 0
 299 0020 013B     		subs	r3, r3, #1
 300 0022 A360     		str	r3, [r4, #8]
 301              		.loc 3 157 0
 302 0024 531C     		adds	r3, r2, #1
 303 0026 A361     		str	r3, [r4, #24]
 304 0028 1578     		ldrb	r5, [r2]	@ zero_extendqisi2
 305              	.LVL20:
 306              		.loc 3 158 0
 307 002a 2269     		ldr	r2, [r4, #16]
 308 002c 9342     		cmp	r3, r2
 309              		.loc 3 159 0
 310 002e 24BF     		itt	cs
 311 0030 E368     		ldrcs	r3, [r4, #12]
 312 0032 A361     		strcs	r3, [r4, #24]
 313              		.loc 3 163 0
 314 0034 E369     		ldr	r3, [r4, #28]
 315 0036 0BB1     		cbz	r3, .L18
 316              		.loc 3 164 0
 317 0038 2046     		mov	r0, r4
 318 003a 9847     		blx	r3
 319              	.LVL21:
 320              	.L18:
 321              	.LBB142:
 322              	.LBB143:
 323              		.loc 5 504 0
 324 003c FFF7FEFF 		bl	chSysUnlock
 325              	.LVL22:
 326              	.LBE143:
 327              	.LBE142:
 328              		.loc 3 169 0
 329 0040 2846     		mov	r0, r5
 330              		.loc 3 170 0
 331 0042 70BD     		pop	{r4, r5, r6, pc}
 332              		.cfi_endproc
 333              	.LFE280:
 334              		.size	iqGetTimeout, .-iqGetTimeout
 335              		.section	.text.iqReadTimeout,"ax",%progbits
 336              		.align	1
 337              		.global	iqReadTimeout
 338              		.thumb
 339              		.thumb_func
 340              		.type	iqReadTimeout, %function
 341              	iqReadTimeout:
 342              	.LFB281:
ARM GAS  /tmp/ccC1lapy.s 			page 7


 343              		.loc 3 197 0
 344              		.cfi_startproc
 345              		@ args = 0, pretend = 0, frame = 0
 346              		@ frame_needed = 0, uses_anonymous_args = 0
 347              	.LVL23:
 348 0000 2DE9F84F 		push	{r3, r4, r5, r6, r7, r8, r9, r10, fp, lr}
 349              		.cfi_def_cfa_offset 40
 350              		.cfi_offset 3, -40
 351              		.cfi_offset 4, -36
 352              		.cfi_offset 5, -32
 353              		.cfi_offset 6, -28
 354              		.cfi_offset 7, -24
 355              		.cfi_offset 8, -20
 356              		.cfi_offset 9, -16
 357              		.cfi_offset 10, -12
 358              		.cfi_offset 11, -8
 359              		.cfi_offset 14, -4
 360              		.loc 3 197 0
 361 0004 1D46     		mov	r5, r3
 362 0006 0446     		mov	r4, r0
 363 0008 0F46     		mov	r7, r1
 364 000a 9146     		mov	r9, r2
 365              		.loc 3 199 0
 366 000c D0F81CA0 		ldr	r10, [r0, #28]
 367              	.LVL24:
 368              	.LBB144:
 369              	.LBB145:
 370              		.loc 5 493 0
 371 0010 FFF7FEFF 		bl	chSysLock
 372              	.LVL25:
 373              	.LBE145:
 374              	.LBE144:
 375              	.LBB146:
 376              	.LBB147:
 377              	.LBB148:
 378              	.LBB149:
 379              	.LBB150:
 380              		.file 6 "../../modules/ChibiOS/os/hal/ports/STM32/LLD/TIMv1/hal_st_lld.h"
 381              		.loc 6 141 0
 382 0014 1E4B     		ldr	r3, .L46
 383 0016 5B6A     		ldr	r3, [r3, #36]
 384              	.LBE150:
 385              	.LBE149:
 386              	.LBE148:
 387              	.LBE147:
 388              	.LBE146:
 389              		.loc 3 200 0
 390 0018 0026     		movs	r6, #0
 391              		.loc 3 209 0
 392 001a 05EB0308 		add	r8, r5, r3
 393              	.LVL26:
 394              	.L25:
 395              		.loc 3 213 0
 396 001e A368     		ldr	r3, [r4, #8]
 397 0020 9BB9     		cbnz	r3, .L45
 398              	.LBB151:
 399              		.loc 3 218 0
ARM GAS  /tmp/ccC1lapy.s 			page 8


 400 0022 6B1E     		subs	r3, r5, #1
 401 0024 0333     		adds	r3, r3, #3
 402 0026 02D9     		bls	.L26
 403              	.LVL27:
 404              	.LBB152:
 405              	.LBB153:
 406              		.loc 5 784 0
 407 0028 2046     		mov	r0, r4
 408 002a 2946     		mov	r1, r5
 409 002c 06E0     		b	.L43
 410              	.LVL28:
 411              	.L26:
 412              	.LBE153:
 413              	.LBE152:
 414              	.LBB154:
 415              	.LBB155:
 416              	.LBB156:
 417              	.LBB157:
 418              	.LBB158:
 419              	.LBB159:
 420              		.loc 6 141 0
 421 002e 184B     		ldr	r3, .L46
 422 0030 596A     		ldr	r1, [r3, #36]
 423              	.LBE159:
 424              	.LBE158:
 425              	.LBE157:
 426              	.LBE156:
 427              	.LBE155:
 428              		.loc 3 222 0
 429 0032 C1EB0801 		rsb	r1, r1, r8
 430              	.LVL29:
 431              		.loc 3 227 0
 432 0036 A942     		cmp	r1, r5
 433 0038 04D8     		bhi	.L44
 434              	.LVL30:
 435              	.LBB160:
 436              	.LBB161:
 437              		.loc 5 784 0
 438 003a 2046     		mov	r0, r4
 439              	.LVL31:
 440              	.L43:
 441 003c FFF7FEFF 		bl	chThdEnqueueTimeoutS
 442              	.LVL32:
 443              	.LBE161:
 444              	.LBE160:
 445              	.LBE154:
 446              		.loc 3 236 0
 447 0040 0028     		cmp	r0, #0
 448 0042 ECD0     		beq	.L25
 449              	.LVL33:
 450              	.L44:
 451              	.LBB162:
 452              	.LBB163:
 453              		.loc 5 504 0
 454 0044 FFF7FEFF 		bl	chSysUnlock
 455              	.LVL34:
 456              	.LBE163:
ARM GAS  /tmp/ccC1lapy.s 			page 9


 457              	.LBE162:
 458              		.loc 3 238 0
 459 0048 1FE0     		b	.L29
 460              	.L45:
 461              	.LBE151:
 462              		.loc 3 243 0
 463 004a A368     		ldr	r3, [r4, #8]
 464 004c 013B     		subs	r3, r3, #1
 465 004e A360     		str	r3, [r4, #8]
 466              		.loc 3 244 0
 467 0050 A369     		ldr	r3, [r4, #24]
 468 0052 5A1C     		adds	r2, r3, #1
 469 0054 A261     		str	r2, [r4, #24]
 470 0056 1B78     		ldrb	r3, [r3]	@ zero_extendqisi2
 471 0058 3B70     		strb	r3, [r7]
 472              		.loc 3 245 0
 473 005a 2369     		ldr	r3, [r4, #16]
 474 005c A269     		ldr	r2, [r4, #24]
 475 005e 9A42     		cmp	r2, r3
 476              		.loc 3 246 0
 477 0060 24BF     		itt	cs
 478 0062 E368     		ldrcs	r3, [r4, #12]
 479 0064 A361     		strcs	r3, [r4, #24]
 480              		.loc 3 244 0
 481 0066 07F1010B 		add	fp, r7, #1
 482              	.LVL35:
 483              		.loc 3 250 0
 484 006a BAF1000F 		cmp	r10, #0
 485 006e 01D0     		beq	.L33
 486              		.loc 3 251 0
 487 0070 2046     		mov	r0, r4
 488 0072 D047     		blx	r10
 489              	.LVL36:
 490              	.L33:
 491              	.LBB164:
 492              	.LBB165:
 493              		.loc 5 504 0
 494 0074 FFF7FEFF 		bl	chSysUnlock
 495              	.LVL37:
 496              	.LBE165:
 497              	.LBE164:
 498              		.loc 3 258 0
 499 0078 B9F10109 		subs	r9, r9, #1
 500              	.LVL38:
 501              		.loc 3 257 0
 502 007c 06F10106 		add	r6, r6, #1
 503              	.LVL39:
 504              		.loc 3 258 0
 505 0080 03D0     		beq	.L29
 506              	.LBB166:
 507              	.LBB167:
 508              		.loc 5 493 0
 509 0082 FFF7FEFF 		bl	chSysLock
 510              	.LVL40:
 511              	.LBE167:
 512              	.LBE166:
 513              		.loc 3 244 0
ARM GAS  /tmp/ccC1lapy.s 			page 10


 514 0086 5F46     		mov	r7, fp
 515 0088 C9E7     		b	.L25
 516              	.LVL41:
 517              	.L29:
 518              		.loc 3 264 0
 519 008a 3046     		mov	r0, r6
 520 008c BDE8F88F 		pop	{r3, r4, r5, r6, r7, r8, r9, r10, fp, pc}
 521              	.LVL42:
 522              	.L47:
 523              		.align	2
 524              	.L46:
 525 0090 000C0040 		.word	1073744896
 526              		.cfi_endproc
 527              	.LFE281:
 528              		.size	iqReadTimeout, .-iqReadTimeout
 529              		.section	.text.oqObjectInit,"ax",%progbits
 530              		.align	1
 531              		.global	oqObjectInit
 532              		.thumb
 533              		.thumb_func
 534              		.type	oqObjectInit, %function
 535              	oqObjectInit:
 536              	.LFB282:
 537              		.loc 3 282 0
 538              		.cfi_startproc
 539              		@ args = 4, pretend = 0, frame = 0
 540              		@ frame_needed = 0, uses_anonymous_args = 0
 541              		@ link register save eliminated.
 542              	.LVL43:
 543              		.loc 3 285 0
 544 0000 8260     		str	r2, [r0, #8]
 545              		.loc 3 290 0
 546 0002 C361     		str	r3, [r0, #28]
 547              		.loc 3 289 0
 548 0004 0A44     		add	r2, r2, r1
 549              	.LVL44:
 550              		.loc 3 291 0
 551 0006 009B     		ldr	r3, [sp]
 552              	.LVL45:
 553              	.LBB168:
 554              	.LBB169:
 555              	.LBB170:
 556              	.LBB171:
 557              		.loc 4 550 0
 558 0008 0060     		str	r0, [r0]
 559              		.loc 4 551 0
 560 000a 4060     		str	r0, [r0, #4]
 561              	.LBE171:
 562              	.LBE170:
 563              	.LBE169:
 564              	.LBE168:
 565              		.loc 3 286 0
 566 000c C160     		str	r1, [r0, #12]
 567              		.loc 3 287 0
 568 000e 8161     		str	r1, [r0, #24]
 569              		.loc 3 288 0
 570 0010 4161     		str	r1, [r0, #20]
ARM GAS  /tmp/ccC1lapy.s 			page 11


 571              		.loc 3 289 0
 572 0012 0261     		str	r2, [r0, #16]
 573              		.loc 3 291 0
 574 0014 0362     		str	r3, [r0, #32]
 575 0016 7047     		bx	lr
 576              		.cfi_endproc
 577              	.LFE282:
 578              		.size	oqObjectInit, .-oqObjectInit
 579              		.section	.text.oqResetI,"ax",%progbits
 580              		.align	1
 581              		.global	oqResetI
 582              		.thumb
 583              		.thumb_func
 584              		.type	oqResetI, %function
 585              	oqResetI:
 586              	.LFB283:
 587              		.loc 3 305 0
 588              		.cfi_startproc
 589              		@ args = 0, pretend = 0, frame = 0
 590              		@ frame_needed = 0, uses_anonymous_args = 0
 591              		@ link register save eliminated.
 592              	.LVL46:
 593              		.loc 3 309 0
 594 0000 C168     		ldr	r1, [r0, #12]
 595              		.loc 3 311 0
 596 0002 0269     		ldr	r2, [r0, #16]
 597              		.loc 3 309 0
 598 0004 8161     		str	r1, [r0, #24]
 599              		.loc 3 311 0
 600 0006 521A     		subs	r2, r2, r1
 601              		.loc 3 310 0
 602 0008 4161     		str	r1, [r0, #20]
 603              		.loc 3 311 0
 604 000a 8260     		str	r2, [r0, #8]
 605              	.LVL47:
 606              	.LBB172:
 607              	.LBB173:
 608              		.loc 5 810 0
 609 000c 6FF00101 		mvn	r1, #1
 610 0010 FFF7FEBF 		b	chThdDequeueAllI
 611              	.LVL48:
 612              	.LBE173:
 613              	.LBE172:
 614              		.cfi_endproc
 615              	.LFE283:
 616              		.size	oqResetI, .-oqResetI
 617              		.section	.text.oqPutTimeout,"ax",%progbits
 618              		.align	1
 619              		.global	oqPutTimeout
 620              		.thumb
 621              		.thumb_func
 622              		.type	oqPutTimeout, %function
 623              	oqPutTimeout:
 624              	.LFB284:
 625              		.loc 3 337 0
 626              		.cfi_startproc
 627              		@ args = 0, pretend = 0, frame = 0
ARM GAS  /tmp/ccC1lapy.s 			page 12


 628              		@ frame_needed = 0, uses_anonymous_args = 0
 629              	.LVL49:
 630 0000 F8B5     		push	{r3, r4, r5, r6, r7, lr}
 631              		.cfi_def_cfa_offset 24
 632              		.cfi_offset 3, -24
 633              		.cfi_offset 4, -20
 634              		.cfi_offset 5, -16
 635              		.cfi_offset 6, -12
 636              		.cfi_offset 7, -8
 637              		.cfi_offset 14, -4
 638              		.loc 3 337 0
 639 0002 0446     		mov	r4, r0
 640 0004 0E46     		mov	r6, r1
 641 0006 1746     		mov	r7, r2
 642              	.LBB174:
 643              	.LBB175:
 644              		.loc 5 493 0
 645 0008 FFF7FEFF 		bl	chSysLock
 646              	.LVL50:
 647              	.L51:
 648              	.LBE175:
 649              	.LBE174:
 650              		.loc 3 342 0
 651 000c A368     		ldr	r3, [r4, #8]
 652 000e 4BB9     		cbnz	r3, .L60
 653              	.LVL51:
 654              	.LBB176:
 655              	.LBB177:
 656              	.LBB178:
 657              		.loc 5 784 0
 658 0010 2046     		mov	r0, r4
 659 0012 3946     		mov	r1, r7
 660 0014 FFF7FEFF 		bl	chThdEnqueueTimeoutS
 661              	.LVL52:
 662              	.LBE178:
 663              	.LBE177:
 664              		.loc 3 344 0
 665 0018 051E     		subs	r5, r0, #0
 666 001a F7DA     		bge	.L51
 667              	.LBB180:
 668              	.LBB181:
 669              		.loc 5 504 0
 670 001c FFF7FEFF 		bl	chSysUnlock
 671              	.LVL53:
 672              	.LBE181:
 673              	.LBE180:
 674              	.LBB182:
 675              	.LBB179:
 676              		.loc 5 784 0
 677 0020 2846     		mov	r0, r5
 678              	.LBE179:
 679              	.LBE182:
 680              		.loc 3 346 0
 681 0022 F8BD     		pop	{r3, r4, r5, r6, r7, pc}
 682              	.LVL54:
 683              	.L60:
 684              	.LBE176:
ARM GAS  /tmp/ccC1lapy.s 			page 13


 685              		.loc 3 351 0
 686 0024 A368     		ldr	r3, [r4, #8]
 687 0026 013B     		subs	r3, r3, #1
 688 0028 A360     		str	r3, [r4, #8]
 689              		.loc 3 352 0
 690 002a 6369     		ldr	r3, [r4, #20]
 691 002c 5A1C     		adds	r2, r3, #1
 692 002e 6261     		str	r2, [r4, #20]
 693 0030 1E70     		strb	r6, [r3]
 694              		.loc 3 353 0
 695 0032 2369     		ldr	r3, [r4, #16]
 696 0034 6269     		ldr	r2, [r4, #20]
 697 0036 9A42     		cmp	r2, r3
 698              		.loc 3 354 0
 699 0038 24BF     		itt	cs
 700 003a E368     		ldrcs	r3, [r4, #12]
 701 003c 6361     		strcs	r3, [r4, #20]
 702              		.loc 3 358 0
 703 003e E369     		ldr	r3, [r4, #28]
 704 0040 0BB1     		cbz	r3, .L55
 705              		.loc 3 359 0
 706 0042 2046     		mov	r0, r4
 707 0044 9847     		blx	r3
 708              	.LVL55:
 709              	.L55:
 710              	.LBB183:
 711              	.LBB184:
 712              		.loc 5 504 0
 713 0046 FFF7FEFF 		bl	chSysUnlock
 714              	.LVL56:
 715              	.LBE184:
 716              	.LBE183:
 717              		.loc 3 364 0
 718 004a 0020     		movs	r0, #0
 719              		.loc 3 365 0
 720 004c F8BD     		pop	{r3, r4, r5, r6, r7, pc}
 721              		.cfi_endproc
 722              	.LFE284:
 723              		.size	oqPutTimeout, .-oqPutTimeout
 724              		.section	.text.oqGetI,"ax",%progbits
 725              		.align	1
 726              		.global	oqGetI
 727              		.thumb
 728              		.thumb_func
 729              		.type	oqGetI, %function
 730              	oqGetI:
 731              	.LFB285:
 732              		.loc 3 377 0
 733              		.cfi_startproc
 734              		@ args = 0, pretend = 0, frame = 0
 735              		@ frame_needed = 0, uses_anonymous_args = 0
 736              	.LVL57:
 737              		.loc 3 382 0
 738 0000 8369     		ldr	r3, [r0, #24]
 739 0002 4269     		ldr	r2, [r0, #20]
 740 0004 9A42     		cmp	r2, r3
 741              		.loc 3 377 0
ARM GAS  /tmp/ccC1lapy.s 			page 14


 742 0006 10B5     		push	{r4, lr}
 743              		.cfi_def_cfa_offset 8
 744              		.cfi_offset 4, -8
 745              		.cfi_offset 14, -4
 746              		.loc 3 382 0
 747 0008 04D1     		bne	.L62
 748              		.loc 3 382 0 is_stmt 0 discriminator 1
 749 000a 8268     		ldr	r2, [r0, #8]
 750 000c 12B1     		cbz	r2, .L62
 751              		.loc 3 383 0 is_stmt 1
 752 000e 4FF0FF30 		mov	r0, #-1
 753              	.LVL58:
 754 0012 10BD     		pop	{r4, pc}
 755              	.LVL59:
 756              	.L62:
 757              		.loc 3 386 0
 758 0014 8268     		ldr	r2, [r0, #8]
 759 0016 0132     		adds	r2, r2, #1
 760 0018 8260     		str	r2, [r0, #8]
 761              		.loc 3 387 0
 762 001a 5A1C     		adds	r2, r3, #1
 763 001c 8261     		str	r2, [r0, #24]
 764 001e 1C78     		ldrb	r4, [r3]	@ zero_extendqisi2
 765              	.LVL60:
 766              		.loc 3 388 0
 767 0020 0369     		ldr	r3, [r0, #16]
 768 0022 9A42     		cmp	r2, r3
 769 0024 01D3     		bcc	.L65
 770              		.loc 3 389 0
 771 0026 C368     		ldr	r3, [r0, #12]
 772 0028 8361     		str	r3, [r0, #24]
 773              	.L65:
 774              	.LVL61:
 775              	.LBB185:
 776              	.LBB186:
 777              		.loc 5 797 0
 778 002a 0021     		movs	r1, #0
 779 002c FFF7FEFF 		bl	chThdDequeueNextI
 780              	.LVL62:
 781              	.LBE186:
 782              	.LBE185:
 783              		.loc 3 394 0
 784 0030 2046     		mov	r0, r4
 785 0032 10BD     		pop	{r4, pc}
 786              		.cfi_endproc
 787              	.LFE285:
 788              		.size	oqGetI, .-oqGetI
 789              		.section	.text.oqWriteTimeout,"ax",%progbits
 790              		.align	1
 791              		.global	oqWriteTimeout
 792              		.thumb
 793              		.thumb_func
 794              		.type	oqWriteTimeout, %function
 795              	oqWriteTimeout:
 796              	.LFB286:
 797              		.loc 3 422 0
 798              		.cfi_startproc
ARM GAS  /tmp/ccC1lapy.s 			page 15


 799              		@ args = 0, pretend = 0, frame = 0
 800              		@ frame_needed = 0, uses_anonymous_args = 0
 801              	.LVL63:
 802 0000 2DE9F84F 		push	{r3, r4, r5, r6, r7, r8, r9, r10, fp, lr}
 803              		.cfi_def_cfa_offset 40
 804              		.cfi_offset 3, -40
 805              		.cfi_offset 4, -36
 806              		.cfi_offset 5, -32
 807              		.cfi_offset 6, -28
 808              		.cfi_offset 7, -24
 809              		.cfi_offset 8, -20
 810              		.cfi_offset 9, -16
 811              		.cfi_offset 10, -12
 812              		.cfi_offset 11, -8
 813              		.cfi_offset 14, -4
 814              		.loc 3 422 0
 815 0004 1D46     		mov	r5, r3
 816 0006 0446     		mov	r4, r0
 817 0008 0F46     		mov	r7, r1
 818 000a 9146     		mov	r9, r2
 819              		.loc 3 424 0
 820 000c D0F81CA0 		ldr	r10, [r0, #28]
 821              	.LVL64:
 822              	.LBB187:
 823              	.LBB188:
 824              		.loc 5 493 0
 825 0010 FFF7FEFF 		bl	chSysLock
 826              	.LVL65:
 827              	.LBE188:
 828              	.LBE187:
 829              	.LBB189:
 830              	.LBB190:
 831              	.LBB191:
 832              	.LBB192:
 833              	.LBB193:
 834              		.loc 6 141 0
 835 0014 1E4B     		ldr	r3, .L90
 836 0016 5B6A     		ldr	r3, [r3, #36]
 837              	.LBE193:
 838              	.LBE192:
 839              	.LBE191:
 840              	.LBE190:
 841              	.LBE189:
 842              		.loc 3 425 0
 843 0018 0026     		movs	r6, #0
 844              		.loc 3 434 0
 845 001a 05EB0308 		add	r8, r5, r3
 846              	.LVL66:
 847              	.L69:
 848              	.LBB194:
 849              		.loc 3 439 0
 850 001e A368     		ldr	r3, [r4, #8]
 851 0020 9BB9     		cbnz	r3, .L89
 852              		.loc 3 442 0
 853 0022 6B1E     		subs	r3, r5, #1
 854 0024 0333     		adds	r3, r3, #3
 855 0026 02D9     		bls	.L70
ARM GAS  /tmp/ccC1lapy.s 			page 16


 856              	.LVL67:
 857              	.LBB195:
 858              	.LBB196:
 859              		.loc 5 784 0
 860 0028 2046     		mov	r0, r4
 861 002a 2946     		mov	r1, r5
 862 002c 06E0     		b	.L87
 863              	.LVL68:
 864              	.L70:
 865              	.LBE196:
 866              	.LBE195:
 867              	.LBB197:
 868              	.LBB198:
 869              	.LBB199:
 870              	.LBB200:
 871              	.LBB201:
 872              	.LBB202:
 873              		.loc 6 141 0
 874 002e 184B     		ldr	r3, .L90
 875 0030 596A     		ldr	r1, [r3, #36]
 876              	.LBE202:
 877              	.LBE201:
 878              	.LBE200:
 879              	.LBE199:
 880              	.LBE198:
 881              		.loc 3 446 0
 882 0032 C1EB0801 		rsb	r1, r1, r8
 883              	.LVL69:
 884              		.loc 3 451 0
 885 0036 A942     		cmp	r1, r5
 886 0038 04D8     		bhi	.L88
 887              	.LVL70:
 888              	.LBB203:
 889              	.LBB204:
 890              		.loc 5 784 0
 891 003a 2046     		mov	r0, r4
 892              	.LVL71:
 893              	.L87:
 894 003c FFF7FEFF 		bl	chThdEnqueueTimeoutS
 895              	.LVL72:
 896              	.LBE204:
 897              	.LBE203:
 898              	.LBE197:
 899              		.loc 3 460 0
 900 0040 0028     		cmp	r0, #0
 901 0042 ECD0     		beq	.L69
 902              	.LVL73:
 903              	.L88:
 904              	.LBB205:
 905              	.LBB206:
 906              		.loc 5 504 0
 907 0044 FFF7FEFF 		bl	chSysUnlock
 908              	.LVL74:
 909              	.LBE206:
 910              	.LBE205:
 911              		.loc 3 462 0
 912 0048 1FE0     		b	.L73
ARM GAS  /tmp/ccC1lapy.s 			page 17


 913              	.L89:
 914              		.loc 3 467 0
 915 004a A368     		ldr	r3, [r4, #8]
 916 004c 013B     		subs	r3, r3, #1
 917 004e A360     		str	r3, [r4, #8]
 918              		.loc 3 468 0
 919 0050 6369     		ldr	r3, [r4, #20]
 920 0052 5A1C     		adds	r2, r3, #1
 921 0054 6261     		str	r2, [r4, #20]
 922 0056 3A78     		ldrb	r2, [r7]	@ zero_extendqisi2
 923 0058 1A70     		strb	r2, [r3]
 924              		.loc 3 469 0
 925 005a 2369     		ldr	r3, [r4, #16]
 926 005c 6269     		ldr	r2, [r4, #20]
 927 005e 9A42     		cmp	r2, r3
 928              		.loc 3 470 0
 929 0060 24BF     		itt	cs
 930 0062 E368     		ldrcs	r3, [r4, #12]
 931 0064 6361     		strcs	r3, [r4, #20]
 932              		.loc 3 468 0
 933 0066 07F1010B 		add	fp, r7, #1
 934              	.LVL75:
 935              		.loc 3 474 0
 936 006a BAF1000F 		cmp	r10, #0
 937 006e 01D0     		beq	.L77
 938              		.loc 3 475 0
 939 0070 2046     		mov	r0, r4
 940 0072 D047     		blx	r10
 941              	.LVL76:
 942              	.L77:
 943              	.LBB207:
 944              	.LBB208:
 945              		.loc 5 504 0
 946 0074 FFF7FEFF 		bl	chSysUnlock
 947              	.LVL77:
 948              	.LBE208:
 949              	.LBE207:
 950              		.loc 3 482 0
 951 0078 B9F10109 		subs	r9, r9, #1
 952              	.LVL78:
 953              		.loc 3 481 0
 954 007c 06F10106 		add	r6, r6, #1
 955              	.LVL79:
 956              		.loc 3 482 0
 957 0080 03D0     		beq	.L73
 958              	.LBB209:
 959              	.LBB210:
 960              		.loc 5 493 0
 961 0082 FFF7FEFF 		bl	chSysLock
 962              	.LVL80:
 963              	.LBE210:
 964              	.LBE209:
 965              		.loc 3 468 0
 966 0086 5F46     		mov	r7, fp
 967 0088 C9E7     		b	.L69
 968              	.LVL81:
 969              	.L73:
ARM GAS  /tmp/ccC1lapy.s 			page 18


 970              	.LBE194:
 971              		.loc 3 488 0
 972 008a 3046     		mov	r0, r6
 973 008c BDE8F88F 		pop	{r3, r4, r5, r6, r7, r8, r9, r10, fp, pc}
 974              	.LVL82:
 975              	.L91:
 976              		.align	2
 977              	.L90:
 978 0090 000C0040 		.word	1073744896
 979              		.cfi_endproc
 980              	.LFE286:
 981              		.size	oqWriteTimeout, .-oqWriteTimeout
 982              		.text
 983              	.Letext0:
 984              		.file 7 "/usr/lib/gcc/arm-none-eabi/4.9.3/include/stddef.h"
 985              		.file 8 "/usr/include/newlib/machine/_default_types.h"
 986              		.file 9 "/usr/include/newlib/sys/_stdint.h"
 987              		.file 10 "../../modules/ChibiOS/os/common/ports/ARMCMx/compilers/GCC/chtypes.h"
 988              		.file 11 "../../modules/ChibiOS/os/rt/include/chsystypes.h"
 989              		.file 12 "../../modules/ChibiOS/os/common/ports/ARMCMx/chcore.h"
 990              		.file 13 "../../modules/ChibiOS/os/common/ports/ARMCMx/chcore_v7m.h"
 991              		.file 14 "../../modules/ChibiOS/os/hal/ports/STM32/LLD/TIMv1/stm32_tim.h"
 992              		.file 15 "../../modules/ChibiOS/os/rt/include/chtm.h"
 993              		.file 16 "../../modules/ChibiOS/os/rt/include/chstats.h"
 994              		.file 17 "../../modules/ChibiOS/os/rt/include/chsem.h"
 995              		.file 18 "../../modules/ChibiOS/os/rt/include/chmtx.h"
 996              		.file 19 "../../modules/ChibiOS/os/hal/include/hal_queues.h"
 997              		.file 20 "../../modules/ChibiOS/os/common/ports/ARMCMx/chcore_timer.h"
 998              		.file 21 "../../modules/ChibiOS/os/rt/include/chvt.h"
 999              		.file 22 "../../modules/ChibiOS/os/rt/include/chthreads.h"
 1000              		.file 23 "../../modules/ChibiOS/os/common/ext/CMSIS/include/core_cm4.h"