ARM GAS  /tmp/ccFUmwJK.s 			page 1


   1              		.syntax unified
   2              		.cpu cortex-m4
   3              		.eabi_attribute 27, 1
   4              		.eabi_attribute 28, 1
   5              		.fpu fpv4-sp-d16
   6              		.eabi_attribute 20, 1
   7              		.eabi_attribute 21, 1
   8              		.eabi_attribute 23, 3
   9              		.eabi_attribute 24, 1
  10              		.eabi_attribute 25, 1
  11              		.eabi_attribute 26, 1
  12              		.eabi_attribute 30, 4
  13              		.eabi_attribute 34, 1
  14              		.eabi_attribute 18, 4
  15              		.thumb
  16              		.file	"hal_pal_lld.c"
  17              		.text
  18              	.Ltext0:
  19              		.cfi_sections	.debug_frame
  20              		.section	.text.initgpio,"ax",%progbits
  21              		.align	1
  22              		.thumb
  23              		.thumb_func
  24              		.type	initgpio, %function
  25              	initgpio:
  26              	.LFB277:
  27              		.file 1 "../../modules/ChibiOS/os/hal/ports/STM32/LLD/GPIOv2/hal_pal_lld.c"
  28              		.loc 1 61 0
  29              		.cfi_startproc
  30              		@ args = 0, pretend = 0, frame = 0
  31              		@ frame_needed = 0, uses_anonymous_args = 0
  32              		@ link register save eliminated.
  33              	.LVL0:
  34              		.loc 1 63 0
  35 0000 4B68     		ldr	r3, [r1, #4]
  36 0002 4360     		str	r3, [r0, #4]
  37              		.loc 1 64 0
  38 0004 8B68     		ldr	r3, [r1, #8]
  39 0006 8360     		str	r3, [r0, #8]
  40              		.loc 1 65 0
  41 0008 CB68     		ldr	r3, [r1, #12]
  42 000a C360     		str	r3, [r0, #12]
  43              		.loc 1 66 0
  44 000c 0B69     		ldr	r3, [r1, #16]
  45 000e 4361     		str	r3, [r0, #20]
  46              		.loc 1 67 0
  47 0010 4B69     		ldr	r3, [r1, #20]
  48 0012 0362     		str	r3, [r0, #32]
  49              		.loc 1 68 0
  50 0014 8B69     		ldr	r3, [r1, #24]
  51 0016 4362     		str	r3, [r0, #36]
  52              		.loc 1 69 0
  53 0018 0B68     		ldr	r3, [r1]
  54 001a 0360     		str	r3, [r0]
  55 001c 7047     		bx	lr
  56              		.cfi_endproc
  57              	.LFE277:
ARM GAS  /tmp/ccFUmwJK.s 			page 2


  58              		.size	initgpio, .-initgpio
  59              		.section	.text._pal_lld_init,"ax",%progbits
  60              		.align	1
  61              		.global	_pal_lld_init
  62              		.thumb
  63              		.thumb_func
  64              		.type	_pal_lld_init, %function
  65              	_pal_lld_init:
  66              	.LFB278:
  67              		.loc 1 88 0
  68              		.cfi_startproc
  69              		@ args = 0, pretend = 0, frame = 0
  70              		@ frame_needed = 0, uses_anonymous_args = 0
  71              	.LVL1:
  72              		.loc 1 104 0
  73 0000 1C4B     		ldr	r3, .L3
  74 0002 196B     		ldr	r1, [r3, #48]
  75 0004 40F2FF12 		movw	r2, #511
  76 0008 1143     		orrs	r1, r1, r2
  77              		.loc 1 88 0
  78 000a 10B5     		push	{r4, lr}
  79              		.cfi_def_cfa_offset 8
  80              		.cfi_offset 4, -8
  81              		.cfi_offset 14, -4
  82              		.loc 1 104 0
  83 000c 1963     		str	r1, [r3, #48]
  84              		.loc 1 105 0
  85 000e 196D     		ldr	r1, [r3, #80]
  86              		.loc 1 88 0
  87 0010 0446     		mov	r4, r0
  88              		.loc 1 105 0
  89 0012 0A43     		orrs	r2, r2, r1
  90 0014 1A65     		str	r2, [r3, #80]
  91              		.loc 1 112 0
  92 0016 2146     		mov	r1, r4
  93 0018 1748     		ldr	r0, .L3+4
  94              	.LVL2:
  95 001a FFF7FEFF 		bl	initgpio
  96              	.LVL3:
  97              		.loc 1 115 0
  98 001e 04F11C01 		add	r1, r4, #28
  99 0022 1648     		ldr	r0, .L3+8
 100 0024 FFF7FEFF 		bl	initgpio
 101              	.LVL4:
 102              		.loc 1 118 0
 103 0028 04F13801 		add	r1, r4, #56
 104 002c 1448     		ldr	r0, .L3+12
 105 002e FFF7FEFF 		bl	initgpio
 106              	.LVL5:
 107              		.loc 1 121 0
 108 0032 04F15401 		add	r1, r4, #84
 109 0036 1348     		ldr	r0, .L3+16
 110 0038 FFF7FEFF 		bl	initgpio
 111              	.LVL6:
 112              		.loc 1 124 0
 113 003c 04F17001 		add	r1, r4, #112
 114 0040 1148     		ldr	r0, .L3+20
ARM GAS  /tmp/ccFUmwJK.s 			page 3


 115 0042 FFF7FEFF 		bl	initgpio
 116              	.LVL7:
 117              		.loc 1 127 0
 118 0046 04F18C01 		add	r1, r4, #140
 119 004a 1048     		ldr	r0, .L3+24
 120 004c FFF7FEFF 		bl	initgpio
 121              	.LVL8:
 122              		.loc 1 130 0
 123 0050 04F1A801 		add	r1, r4, #168
 124 0054 0E48     		ldr	r0, .L3+28
 125 0056 FFF7FEFF 		bl	initgpio
 126              	.LVL9:
 127              		.loc 1 133 0
 128 005a 04F1C401 		add	r1, r4, #196
 129 005e 0D48     		ldr	r0, .L3+32
 130 0060 FFF7FEFF 		bl	initgpio
 131              	.LVL10:
 132              		.loc 1 136 0
 133 0064 04F1E001 		add	r1, r4, #224
 134 0068 0B48     		ldr	r0, .L3+36
 135              		.loc 1 144 0
 136 006a BDE81040 		pop	{r4, lr}
 137              		.cfi_restore 14
 138              		.cfi_restore 4
 139              		.cfi_def_cfa_offset 0
 140              	.LVL11:
 141              		.loc 1 136 0
 142 006e FFF7FEBF 		b	initgpio
 143              	.LVL12:
 144              	.L4:
 145 0072 00BF     		.align	2
 146              	.L3:
 147 0074 00380240 		.word	1073887232
 148 0078 00000240 		.word	1073872896
 149 007c 00040240 		.word	1073873920
 150 0080 00080240 		.word	1073874944
 151 0084 000C0240 		.word	1073875968
 152 0088 00100240 		.word	1073876992
 153 008c 00140240 		.word	1073878016
 154 0090 00180240 		.word	1073879040
 155 0094 001C0240 		.word	1073880064
 156 0098 00200240 		.word	1073881088
 157              		.cfi_endproc
 158              	.LFE278:
 159              		.size	_pal_lld_init, .-_pal_lld_init
 160              		.section	.text._pal_lld_setgroupmode,"ax",%progbits
 161              		.align	1
 162              		.global	_pal_lld_setgroupmode
 163              		.thumb
 164              		.thumb_func
 165              		.type	_pal_lld_setgroupmode, %function
 166              	_pal_lld_setgroupmode:
 167              	.LFB279:
 168              		.loc 1 161 0
 169              		.cfi_startproc
 170              		@ args = 0, pretend = 0, frame = 0
 171              		@ frame_needed = 0, uses_anonymous_args = 0
ARM GAS  /tmp/ccFUmwJK.s 			page 4


 172              	.LVL13:
 173 0000 2DE9F04F 		push	{r4, r5, r6, r7, r8, r9, r10, fp, lr}
 174              		.cfi_def_cfa_offset 36
 175              		.cfi_offset 4, -36
 176              		.cfi_offset 5, -32
 177              		.cfi_offset 6, -28
 178              		.cfi_offset 7, -24
 179              		.cfi_offset 8, -20
 180              		.cfi_offset 9, -16
 181              		.cfi_offset 10, -12
 182              		.cfi_offset 11, -8
 183              		.cfi_offset 14, -4
 184              		.loc 1 163 0
 185 0004 02F00309 		and	r9, r2, #3
 186              	.LVL14:
 187              		.loc 1 164 0
 188 0008 C2F38008 		ubfx	r8, r2, #2, #1
 189              	.LVL15:
 190              		.loc 1 165 0
 191 000c C2F3C10C 		ubfx	ip, r2, #3, #2
 192              	.LVL16:
 193              		.loc 1 166 0
 194 0010 C2F3411E 		ubfx	lr, r2, #5, #2
 195              	.LVL17:
 196              		.loc 1 163 0
 197 0014 4F46     		mov	r7, r9
 198              		.loc 1 167 0
 199 0016 C2F3C312 		ubfx	r2, r2, #7, #4
 200              	.LVL18:
 201              		.loc 1 168 0
 202 001a 0025     		movs	r5, #0
 203              	.LVL19:
 204              	.L12:
 205              		.loc 1 170 0
 206 001c CB07     		lsls	r3, r1, #31
 207 001e 4AD5     		bpl	.L6
 208              	.LBB2:
 209              		.loc 1 173 0
 210 0020 05F00704 		and	r4, r5, #7
 211 0024 A400     		lsls	r4, r4, #2
 212              		.loc 1 176 0
 213 0026 0F23     		movs	r3, #15
 214 0028 03FA04FB 		lsl	fp, r3, r4
 215              		.loc 1 173 0
 216 002c 02FA04F6 		lsl	r6, r2, r4
 217              	.LVL20:
 218              		.loc 1 174 0
 219 0030 0123     		movs	r3, #1
 220              		.loc 1 177 0
 221 0032 4468     		ldr	r4, [r0, #4]
 222              		.loc 1 174 0
 223 0034 AB40     		lsls	r3, r3, r5
 224              	.LVL21:
 225              		.loc 1 177 0
 226 0036 24EA0303 		bic	r3, r4, r3
 227              	.LVL22:
 228 003a 43EA0803 		orr	r3, r3, r8
ARM GAS  /tmp/ccFUmwJK.s 			page 5


 229 003e 4360     		str	r3, [r0, #4]
 230 0040 4FEA450A 		lsl	r10, r5, #1
 231              		.loc 1 175 0
 232 0044 0324     		movs	r4, #3
 233              		.loc 1 178 0
 234 0046 8368     		ldr	r3, [r0, #8]
 235              		.loc 1 175 0
 236 0048 04FA0AF4 		lsl	r4, r4, r10
 237              	.LVL23:
 238              		.loc 1 178 0
 239 004c E443     		mvns	r4, r4
 240              	.LVL24:
 241 004e 2340     		ands	r3, r3, r4
 242 0050 43EA0C03 		orr	r3, r3, ip
 243 0054 8360     		str	r3, [r0, #8]
 244              		.loc 1 179 0
 245 0056 C368     		ldr	r3, [r0, #12]
 246 0058 04EA030A 		and	r10, r4, r3
 247 005c 4AEA0E03 		orr	r3, r10, lr
 248              		.loc 1 180 0
 249 0060 B9F1020F 		cmp	r9, #2
 250              		.loc 1 179 0
 251 0064 C360     		str	r3, [r0, #12]
 252 0066 6FEA0B03 		mvn	r3, fp
 253              		.loc 1 180 0
 254 006a 13D1     		bne	.L7
 255              		.loc 1 183 0
 256 006c 072D     		cmp	r5, #7
 257              		.loc 1 184 0
 258 006e 95BF     		itete	ls
 259 0070 D0F820A0 		ldrls	r10, [r0, #32]
 260              		.loc 1 186 0
 261 0074 D0F824A0 		ldrhi	r10, [r0, #36]
 262              		.loc 1 184 0
 263 0078 03EA0A03 		andls	r3, r3, r10
 264              		.loc 1 186 0
 265 007c 03EA0A03 		andhi	r3, r3, r10
 266              		.loc 1 184 0
 267 0080 95BF     		itete	ls
 268 0082 1E43     		orrls	r6, r6, r3
 269              	.LVL25:
 270              		.loc 1 186 0
 271 0084 1E43     		orrhi	r6, r6, r3
 272              		.loc 1 184 0
 273 0086 0662     		strls	r6, [r0, #32]
 274              		.loc 1 186 0
 275 0088 4662     		strhi	r6, [r0, #36]
 276              		.loc 1 187 0
 277 008a 0368     		ldr	r3, [r0]
 278 008c 1C40     		ands	r4, r4, r3
 279              	.LVL26:
 280 008e 3C43     		orrs	r4, r4, r7
 281 0090 0460     		str	r4, [r0]
 282 0092 10E0     		b	.L6
 283              	.LVL27:
 284              	.L7:
 285              		.loc 1 192 0
ARM GAS  /tmp/ccFUmwJK.s 			page 6


 286 0094 D0F800A0 		ldr	r10, [r0]
 287 0098 04EA0A04 		and	r4, r4, r10
 288 009c 3C43     		orrs	r4, r4, r7
 289              		.loc 1 193 0
 290 009e 072D     		cmp	r5, #7
 291              		.loc 1 192 0
 292 00a0 0460     		str	r4, [r0]
 293              		.loc 1 194 0
 294 00a2 95BF     		itete	ls
 295 00a4 046A     		ldrls	r4, [r0, #32]
 296              		.loc 1 196 0
 297 00a6 446A     		ldrhi	r4, [r0, #36]
 298              		.loc 1 194 0
 299 00a8 2340     		andls	r3, r3, r4
 300              		.loc 1 196 0
 301 00aa 2340     		andhi	r3, r3, r4
 302              		.loc 1 194 0
 303 00ac 95BF     		itete	ls
 304 00ae 1E43     		orrls	r6, r6, r3
 305              	.LVL28:
 306              		.loc 1 196 0
 307 00b0 1E43     		orrhi	r6, r6, r3
 308              		.loc 1 194 0
 309 00b2 0662     		strls	r6, [r0, #32]
 310              		.loc 1 196 0
 311 00b4 4662     		strhi	r6, [r0, #36]
 312              	.LVL29:
 313              	.L6:
 314              	.LBE2:
 315              		.loc 1 200 0
 316 00b6 4908     		lsrs	r1, r1, #1
 317              	.LVL30:
 318 00b8 08D0     		beq	.L5
 319              		.loc 1 202 0
 320 00ba 4FEA4808 		lsl	r8, r8, #1
 321              	.LVL31:
 322              		.loc 1 203 0
 323 00be 4FEA8C0C 		lsl	ip, ip, #2
 324              	.LVL32:
 325              		.loc 1 204 0
 326 00c2 4FEA8E0E 		lsl	lr, lr, #2
 327              	.LVL33:
 328              		.loc 1 205 0
 329 00c6 BF00     		lsls	r7, r7, #2
 330              	.LVL34:
 331              		.loc 1 206 0
 332 00c8 0135     		adds	r5, r5, #1
 333              	.LVL35:
 334              		.loc 1 207 0
 335 00ca A7E7     		b	.L12
 336              	.L5:
 337 00cc BDE8F08F 		pop	{r4, r5, r6, r7, r8, r9, r10, fp, pc}
 338              		.cfi_endproc
 339              	.LFE279:
 340              		.size	_pal_lld_setgroupmode, .-_pal_lld_setgroupmode
 341              		.text
 342              	.Letext0:
ARM GAS  /tmp/ccFUmwJK.s 			page 7


 343              		.file 2 "/usr/include/newlib/machine/_default_types.h"
 344              		.file 3 "/usr/include/newlib/sys/_stdint.h"
 345              		.file 4 "../../modules/ChibiOS/os/common/ports/ARMCMx/compilers/GCC/chtypes.h"
 346              		.file 5 "../../modules/ChibiOS/os/rt/include/chsystypes.h"
 347              		.file 6 "../../modules/ChibiOS/os/rt/include/chschd.h"
 348              		.file 7 "../../modules/ChibiOS/os/common/ext/CMSIS/ST/STM32F4xx/stm32f407xx.h"
 349              		.file 8 "../../modules/ChibiOS/os/common/ports/ARMCMx/chcore.h"
 350              		.file 9 "../../modules/ChibiOS/os/common/ports/ARMCMx/chcore_v7m.h"
 351              		.file 10 "../../modules/ChibiOS/os/rt/include/chtm.h"
 352              		.file 11 "../../modules/ChibiOS/os/rt/include/chstats.h"
 353              		.file 12 "../../modules/ChibiOS/os/rt/include/chsem.h"
 354              		.file 13 "../../modules/ChibiOS/os/rt/include/chmtx.h"
 355              		.file 14 "../../modules/ChibiOS/os/hal/ports/STM32/LLD/GPIOv2/hal_pal_lld.h"
 356              		.file 15 "../../modules/ChibiOS/os/common/ext/CMSIS/include/core_cm4.h"
 357              		.section	.debug_info,"",%progbits
 358              	.Ldebug_info0:
 359 0000 B10D0000 		.4byte	0xdb1
 360 0004 0400     		.2byte	0x4
 361 0006 00000000 		.4byte	.Ldebug_abbrev0
 362 000a 04       		.byte	0x4
 363 000b 01       		.uleb128 0x1
 364 000c 70020000 		.4byte	.LASF174
 365 0010 01       		.byte	0x1
 366 0011 B8050000 		.4byte	.LASF175
 367 0015 4D010000 		.4byte	.LASF176
 368 0019 00000000 		.4byte	.Ldebug_ranges0+0
 369 001d 00000000 		.4byte	0
 370 0021 00000000 		.4byte	.Ldebug_line0
 371 0025 02       		.uleb128 0x2
 372 0026 04       		.byte	0x4
 373 0027 05       		.byte	0x5
 374 0028 696E7400 		.ascii	"int\000"
 375 002c 03       		.uleb128 0x3
 376 002d 04       		.byte	0x4
 377 002e 07       		.byte	0x7
 378 002f 63020000 		.4byte	.LASF0
 379 0033 03       		.uleb128 0x3
 380 0034 01       		.byte	0x1
 381 0035 06       		.byte	0x6
 382 0036 2D010000 		.4byte	.LASF1
 383 003a 04       		.uleb128 0x4
 384 003b 3C000000 		.4byte	.LASF4
 385 003f 02       		.byte	0x2
 386 0040 1D       		.byte	0x1d
 387 0041 45000000 		.4byte	0x45
 388 0045 03       		.uleb128 0x3
 389 0046 01       		.byte	0x1
 390 0047 08       		.byte	0x8
 391 0048 88050000 		.4byte	.LASF2
 392 004c 03       		.uleb128 0x3
 393 004d 02       		.byte	0x2
 394 004e 05       		.byte	0x5
 395 004f 9B050000 		.4byte	.LASF3
 396 0053 04       		.uleb128 0x4
 397 0054 96060000 		.4byte	.LASF5
 398 0058 02       		.byte	0x2
 399 0059 2B       		.byte	0x2b
ARM GAS  /tmp/ccFUmwJK.s 			page 8


 400 005a 5E000000 		.4byte	0x5e
 401 005e 03       		.uleb128 0x3
 402 005f 02       		.byte	0x2
 403 0060 07       		.byte	0x7
 404 0061 95030000 		.4byte	.LASF6
 405 0065 04       		.uleb128 0x4
 406 0066 33040000 		.4byte	.LASF7
 407 006a 02       		.byte	0x2
 408 006b 3F       		.byte	0x3f
 409 006c 70000000 		.4byte	0x70
 410 0070 03       		.uleb128 0x3
 411 0071 04       		.byte	0x4
 412 0072 05       		.byte	0x5
 413 0073 A7010000 		.4byte	.LASF8
 414 0077 04       		.uleb128 0x4
 415 0078 F7010000 		.4byte	.LASF9
 416 007c 02       		.byte	0x2
 417 007d 41       		.byte	0x41
 418 007e 82000000 		.4byte	0x82
 419 0082 03       		.uleb128 0x3
 420 0083 04       		.byte	0x4
 421 0084 07       		.byte	0x7
 422 0085 61060000 		.4byte	.LASF10
 423 0089 03       		.uleb128 0x3
 424 008a 08       		.byte	0x8
 425 008b 05       		.byte	0x5
 426 008c 1F010000 		.4byte	.LASF11
 427 0090 04       		.uleb128 0x4
 428 0091 FB040000 		.4byte	.LASF12
 429 0095 02       		.byte	0x2
 430 0096 5B       		.byte	0x5b
 431 0097 9B000000 		.4byte	0x9b
 432 009b 03       		.uleb128 0x3
 433 009c 08       		.byte	0x8
 434 009d 07       		.byte	0x7
 435 009e AC000000 		.4byte	.LASF13
 436 00a2 04       		.uleb128 0x4
 437 00a3 72070000 		.4byte	.LASF14
 438 00a7 03       		.byte	0x3
 439 00a8 14       		.byte	0x14
 440 00a9 3A000000 		.4byte	0x3a
 441 00ad 04       		.uleb128 0x4
 442 00ae 5F030000 		.4byte	.LASF15
 443 00b2 03       		.byte	0x3
 444 00b3 1A       		.byte	0x1a
 445 00b4 53000000 		.4byte	0x53
 446 00b8 04       		.uleb128 0x4
 447 00b9 80050000 		.4byte	.LASF16
 448 00bd 03       		.byte	0x3
 449 00be 1F       		.byte	0x1f
 450 00bf 65000000 		.4byte	0x65
 451 00c3 04       		.uleb128 0x4
 452 00c4 3B060000 		.4byte	.LASF17
 453 00c8 03       		.byte	0x3
 454 00c9 20       		.byte	0x20
 455 00ca 77000000 		.4byte	0x77
 456 00ce 04       		.uleb128 0x4
ARM GAS  /tmp/ccFUmwJK.s 			page 9


 457 00cf 33000000 		.4byte	.LASF18
 458 00d3 03       		.byte	0x3
 459 00d4 26       		.byte	0x26
 460 00d5 90000000 		.4byte	0x90
 461 00d9 04       		.uleb128 0x4
 462 00da 28070000 		.4byte	.LASF19
 463 00de 04       		.byte	0x4
 464 00df 39       		.byte	0x39
 465 00e0 C3000000 		.4byte	0xc3
 466 00e4 04       		.uleb128 0x4
 467 00e5 07010000 		.4byte	.LASF20
 468 00e9 04       		.byte	0x4
 469 00ea 3A       		.byte	0x3a
 470 00eb CE000000 		.4byte	0xce
 471 00ef 04       		.uleb128 0x4
 472 00f0 FC030000 		.4byte	.LASF21
 473 00f4 04       		.byte	0x4
 474 00f5 3C       		.byte	0x3c
 475 00f6 A2000000 		.4byte	0xa2
 476 00fa 04       		.uleb128 0x4
 477 00fb CA010000 		.4byte	.LASF22
 478 00ff 04       		.byte	0x4
 479 0100 3D       		.byte	0x3d
 480 0101 A2000000 		.4byte	0xa2
 481 0105 04       		.uleb128 0x4
 482 0106 1B050000 		.4byte	.LASF23
 483 010a 04       		.byte	0x4
 484 010b 3E       		.byte	0x3e
 485 010c A2000000 		.4byte	0xa2
 486 0110 04       		.uleb128 0x4
 487 0111 69050000 		.4byte	.LASF24
 488 0115 04       		.byte	0x4
 489 0116 40       		.byte	0x40
 490 0117 C3000000 		.4byte	0xc3
 491 011b 04       		.uleb128 0x4
 492 011c D1030000 		.4byte	.LASF25
 493 0120 04       		.byte	0x4
 494 0121 41       		.byte	0x41
 495 0122 B8000000 		.4byte	0xb8
 496 0126 04       		.uleb128 0x4
 497 0127 27040000 		.4byte	.LASF26
 498 012b 04       		.byte	0x4
 499 012c 43       		.byte	0x43
 500 012d C3000000 		.4byte	0xc3
 501 0131 04       		.uleb128 0x4
 502 0132 5D020000 		.4byte	.LASF27
 503 0136 04       		.byte	0x4
 504 0137 45       		.byte	0x45
 505 0138 B8000000 		.4byte	0xb8
 506 013c 04       		.uleb128 0x4
 507 013d E0030000 		.4byte	.LASF28
 508 0141 04       		.byte	0x4
 509 0142 46       		.byte	0x46
 510 0143 C3000000 		.4byte	0xc3
 511 0147 04       		.uleb128 0x4
 512 0148 B8060000 		.4byte	.LASF29
 513 014c 05       		.byte	0x5
ARM GAS  /tmp/ccFUmwJK.s 			page 10


 514 014d 33       		.byte	0x33
 515 014e C3000000 		.4byte	0xc3
 516 0152 04       		.uleb128 0x4
 517 0153 AA060000 		.4byte	.LASF30
 518 0157 05       		.byte	0x5
 519 0158 3F       		.byte	0x3f
 520 0159 5D010000 		.4byte	0x15d
 521 015d 05       		.uleb128 0x5
 522 015e BC030000 		.4byte	.LASF49
 523 0162 60       		.byte	0x60
 524 0163 06       		.byte	0x6
 525 0164 9A       		.byte	0x9a
 526 0165 48020000 		.4byte	0x248
 527 0169 06       		.uleb128 0x6
 528 016a 82030000 		.4byte	.LASF31
 529 016e 06       		.byte	0x6
 530 016f 9B       		.byte	0x9b
 531 0170 7D020000 		.4byte	0x27d
 532 0174 00       		.byte	0
 533 0175 06       		.uleb128 0x6
 534 0176 E5040000 		.4byte	.LASF32
 535 017a 06       		.byte	0x6
 536 017b 9C       		.byte	0x9c
 537 017c 10010000 		.4byte	0x110
 538 0180 08       		.byte	0x8
 539 0181 07       		.uleb128 0x7
 540 0182 63747800 		.ascii	"ctx\000"
 541 0186 06       		.byte	0x6
 542 0187 9D       		.byte	0x9d
 543 0188 32060000 		.4byte	0x632
 544 018c 0C       		.byte	0xc
 545 018d 06       		.uleb128 0x6
 546 018e 4F040000 		.4byte	.LASF33
 547 0192 06       		.byte	0x6
 548 0193 9F       		.byte	0x9f
 549 0194 53020000 		.4byte	0x253
 550 0198 10       		.byte	0x10
 551 0199 06       		.uleb128 0x6
 552 019a 84060000 		.4byte	.LASF34
 553 019e 06       		.byte	0x6
 554 019f A0       		.byte	0xa0
 555 01a0 53020000 		.4byte	0x253
 556 01a4 14       		.byte	0x14
 557 01a5 06       		.uleb128 0x6
 558 01a6 B7030000 		.4byte	.LASF35
 559 01aa 06       		.byte	0x6
 560 01ab A7       		.byte	0xa7
 561 01ac 19090000 		.4byte	0x919
 562 01b0 18       		.byte	0x18
 563 01b1 06       		.uleb128 0x6
 564 01b2 73060000 		.4byte	.LASF36
 565 01b6 06       		.byte	0x6
 566 01b7 B0       		.byte	0xb0
 567 01b8 2B090000 		.4byte	0x92b
 568 01bc 1C       		.byte	0x1c
 569 01bd 06       		.uleb128 0x6
 570 01be 97010000 		.4byte	.LASF37
ARM GAS  /tmp/ccFUmwJK.s 			page 11


 571 01c2 06       		.byte	0x6
 572 01c3 B5       		.byte	0xb5
 573 01c4 FA000000 		.4byte	0xfa
 574 01c8 20       		.byte	0x20
 575 01c9 06       		.uleb128 0x6
 576 01ca 80070000 		.4byte	.LASF38
 577 01ce 06       		.byte	0x6
 578 01cf B9       		.byte	0xb9
 579 01d0 EF000000 		.4byte	0xef
 580 01d4 21       		.byte	0x21
 581 01d5 06       		.uleb128 0x6
 582 01d6 1A010000 		.4byte	.LASF39
 583 01da 06       		.byte	0x6
 584 01db BE       		.byte	0xbe
 585 01dc 05010000 		.4byte	0x105
 586 01e0 22       		.byte	0x22
 587 01e1 08       		.uleb128 0x8
 588 01e2 7500     		.ascii	"u\000"
 589 01e4 06       		.byte	0x6
 590 01e5 0F01     		.2byte	0x10f
 591 01e7 4E080000 		.4byte	0x84e
 592 01eb 24       		.byte	0x24
 593 01ec 09       		.uleb128 0x9
 594 01ed 27020000 		.4byte	.LASF40
 595 01f1 06       		.byte	0x6
 596 01f2 1401     		.2byte	0x114
 597 01f4 59020000 		.4byte	0x259
 598 01f8 28       		.byte	0x28
 599 01f9 09       		.uleb128 0x9
 600 01fa 7C010000 		.4byte	.LASF41
 601 01fe 06       		.byte	0x6
 602 01ff 1A01     		.2byte	0x11a
 603 0201 7D020000 		.4byte	0x27d
 604 0205 2C       		.byte	0x2c
 605 0206 09       		.uleb128 0x9
 606 0207 E7030000 		.4byte	.LASF42
 607 020b 06       		.byte	0x6
 608 020c 2001     		.2byte	0x120
 609 020e 26010000 		.4byte	0x126
 610 0212 34       		.byte	0x34
 611 0213 09       		.uleb128 0x9
 612 0214 AD070000 		.4byte	.LASF43
 613 0218 06       		.byte	0x6
 614 0219 2701     		.2byte	0x127
 615 021b 13090000 		.4byte	0x913
 616 021f 38       		.byte	0x38
 617 0220 09       		.uleb128 0x9
 618 0221 65040000 		.4byte	.LASF44
 619 0225 06       		.byte	0x6
 620 0226 2B01     		.2byte	0x12b
 621 0228 10010000 		.4byte	0x110
 622 022c 3C       		.byte	0x3c
 623 022d 09       		.uleb128 0x9
 624 022e 8F030000 		.4byte	.LASF45
 625 0232 06       		.byte	0x6
 626 0233 3201     		.2byte	0x132
 627 0235 30030000 		.4byte	0x330
ARM GAS  /tmp/ccFUmwJK.s 			page 12


 628 0239 40       		.byte	0x40
 629 023a 09       		.uleb128 0x9
 630 023b D8010000 		.4byte	.LASF46
 631 023f 06       		.byte	0x6
 632 0240 3801     		.2byte	0x138
 633 0242 FF070000 		.4byte	0x7ff
 634 0246 48       		.byte	0x48
 635 0247 00       		.byte	0
 636 0248 04       		.uleb128 0x4
 637 0249 77040000 		.4byte	.LASF47
 638 024d 05       		.byte	0x5
 639 024e 44       		.byte	0x44
 640 024f 53020000 		.4byte	0x253
 641 0253 0A       		.uleb128 0xa
 642 0254 04       		.byte	0x4
 643 0255 52010000 		.4byte	0x152
 644 0259 04       		.uleb128 0x4
 645 025a AF040000 		.4byte	.LASF48
 646 025e 05       		.byte	0x5
 647 025f 49       		.byte	0x49
 648 0260 64020000 		.4byte	0x264
 649 0264 05       		.uleb128 0x5
 650 0265 4B060000 		.4byte	.LASF50
 651 0269 04       		.byte	0x4
 652 026a 06       		.byte	0x6
 653 026b 88       		.byte	0x88
 654 026c 7D020000 		.4byte	0x27d
 655 0270 06       		.uleb128 0x6
 656 0271 02010000 		.4byte	.LASF51
 657 0275 06       		.byte	0x6
 658 0276 89       		.byte	0x89
 659 0277 53020000 		.4byte	0x253
 660 027b 00       		.byte	0
 661 027c 00       		.byte	0
 662 027d 04       		.uleb128 0x4
 663 027e 40070000 		.4byte	.LASF52
 664 0282 05       		.byte	0x5
 665 0283 50       		.byte	0x50
 666 0284 88020000 		.4byte	0x288
 667 0288 05       		.uleb128 0x5
 668 0289 59000000 		.4byte	.LASF53
 669 028d 08       		.byte	0x8
 670 028e 06       		.byte	0x6
 671 028f 8F       		.byte	0x8f
 672 0290 AD020000 		.4byte	0x2ad
 673 0294 06       		.uleb128 0x6
 674 0295 02010000 		.4byte	.LASF51
 675 0299 06       		.byte	0x6
 676 029a 90       		.byte	0x90
 677 029b 53020000 		.4byte	0x253
 678 029f 00       		.byte	0
 679 02a0 06       		.uleb128 0x6
 680 02a1 A1070000 		.4byte	.LASF54
 681 02a5 06       		.byte	0x6
 682 02a6 91       		.byte	0x91
 683 02a7 53020000 		.4byte	0x253
 684 02ab 04       		.byte	0x4
ARM GAS  /tmp/ccFUmwJK.s 			page 13


 685 02ac 00       		.byte	0
 686 02ad 04       		.uleb128 0x4
 687 02ae 13000000 		.4byte	.LASF55
 688 02b2 05       		.byte	0x5
 689 02b3 57       		.byte	0x57
 690 02b4 B8020000 		.4byte	0x2b8
 691 02b8 0B       		.uleb128 0xb
 692 02b9 19040000 		.4byte	.LASF56
 693 02bd 1C       		.byte	0x1c
 694 02be 06       		.byte	0x6
 695 02bf 6A01     		.2byte	0x16a
 696 02c1 14030000 		.4byte	0x314
 697 02c5 09       		.uleb128 0x9
 698 02c6 82030000 		.4byte	.LASF31
 699 02ca 06       		.byte	0x6
 700 02cb 6B01     		.2byte	0x16b
 701 02cd 7D020000 		.4byte	0x27d
 702 02d1 00       		.byte	0
 703 02d2 09       		.uleb128 0x9
 704 02d3 E5040000 		.4byte	.LASF32
 705 02d7 06       		.byte	0x6
 706 02d8 6C01     		.2byte	0x16c
 707 02da 10010000 		.4byte	0x110
 708 02de 08       		.byte	0x8
 709 02df 08       		.uleb128 0x8
 710 02e0 63747800 		.ascii	"ctx\000"
 711 02e4 06       		.byte	0x6
 712 02e5 6E01     		.2byte	0x16e
 713 02e7 32060000 		.4byte	0x632
 714 02eb 0C       		.byte	0xc
 715 02ec 09       		.uleb128 0x9
 716 02ed 4F040000 		.4byte	.LASF33
 717 02f1 06       		.byte	0x6
 718 02f2 7101     		.2byte	0x171
 719 02f4 53020000 		.4byte	0x253
 720 02f8 10       		.byte	0x10
 721 02f9 09       		.uleb128 0x9
 722 02fa 84060000 		.4byte	.LASF34
 723 02fe 06       		.byte	0x6
 724 02ff 7201     		.2byte	0x172
 725 0301 53020000 		.4byte	0x253
 726 0305 14       		.byte	0x14
 727 0306 09       		.uleb128 0x9
 728 0307 F3040000 		.4byte	.LASF57
 729 030b 06       		.byte	0x6
 730 030c 7501     		.2byte	0x175
 731 030e 53020000 		.4byte	0x253
 732 0312 18       		.byte	0x18
 733 0313 00       		.byte	0
 734 0314 04       		.uleb128 0x4
 735 0315 C2060000 		.4byte	.LASF58
 736 0319 05       		.byte	0x5
 737 031a 5C       		.byte	0x5c
 738 031b 1F030000 		.4byte	0x31f
 739 031f 0A       		.uleb128 0xa
 740 0320 04       		.byte	0x4
 741 0321 25030000 		.4byte	0x325
ARM GAS  /tmp/ccFUmwJK.s 			page 14


 742 0325 0C       		.uleb128 0xc
 743 0326 30030000 		.4byte	0x330
 744 032a 0D       		.uleb128 0xd
 745 032b 30030000 		.4byte	0x330
 746 032f 00       		.byte	0
 747 0330 0E       		.uleb128 0xe
 748 0331 04       		.byte	0x4
 749 0332 04       		.uleb128 0x4
 750 0333 55040000 		.4byte	.LASF59
 751 0337 05       		.byte	0x5
 752 0338 61       		.byte	0x61
 753 0339 3D030000 		.4byte	0x33d
 754 033d 0B       		.uleb128 0xb
 755 033e 1D060000 		.4byte	.LASF60
 756 0342 14       		.byte	0x14
 757 0343 06       		.byte	0x6
 758 0344 4501     		.2byte	0x145
 759 0346 8C030000 		.4byte	0x38c
 760 034a 09       		.uleb128 0x9
 761 034b 02010000 		.4byte	.LASF51
 762 034f 06       		.byte	0x6
 763 0350 4601     		.2byte	0x146
 764 0352 31090000 		.4byte	0x931
 765 0356 00       		.byte	0
 766 0357 09       		.uleb128 0x9
 767 0358 A1070000 		.4byte	.LASF54
 768 035c 06       		.byte	0x6
 769 035d 4701     		.2byte	0x147
 770 035f 31090000 		.4byte	0x931
 771 0363 04       		.byte	0x4
 772 0364 09       		.uleb128 0x9
 773 0365 26000000 		.4byte	.LASF61
 774 0369 06       		.byte	0x6
 775 036a 4801     		.2byte	0x148
 776 036c 47010000 		.4byte	0x147
 777 0370 08       		.byte	0x8
 778 0371 09       		.uleb128 0x9
 779 0372 D3010000 		.4byte	.LASF62
 780 0376 06       		.byte	0x6
 781 0377 4901     		.2byte	0x149
 782 0379 14030000 		.4byte	0x314
 783 037d 0C       		.byte	0xc
 784 037e 08       		.uleb128 0x8
 785 037f 70617200 		.ascii	"par\000"
 786 0383 06       		.byte	0x6
 787 0384 4B01     		.2byte	0x14b
 788 0386 30030000 		.4byte	0x330
 789 038a 10       		.byte	0x10
 790 038b 00       		.byte	0
 791 038c 04       		.uleb128 0x4
 792 038d DF000000 		.4byte	.LASF63
 793 0391 05       		.byte	0x5
 794 0392 66       		.byte	0x66
 795 0393 97030000 		.4byte	0x397
 796 0397 0B       		.uleb128 0xb
 797 0398 8A040000 		.4byte	.LASF64
 798 039c 10       		.byte	0x10
ARM GAS  /tmp/ccFUmwJK.s 			page 15


 799 039d 06       		.byte	0x6
 800 039e 5501     		.2byte	0x155
 801 03a0 D9030000 		.4byte	0x3d9
 802 03a4 09       		.uleb128 0x9
 803 03a5 02010000 		.4byte	.LASF51
 804 03a9 06       		.byte	0x6
 805 03aa 5601     		.2byte	0x156
 806 03ac 31090000 		.4byte	0x931
 807 03b0 00       		.byte	0
 808 03b1 09       		.uleb128 0x9
 809 03b2 A1070000 		.4byte	.LASF54
 810 03b6 06       		.byte	0x6
 811 03b7 5801     		.2byte	0x158
 812 03b9 31090000 		.4byte	0x931
 813 03bd 04       		.byte	0x4
 814 03be 09       		.uleb128 0x9
 815 03bf 26000000 		.4byte	.LASF61
 816 03c3 06       		.byte	0x6
 817 03c4 5A01     		.2byte	0x15a
 818 03c6 47010000 		.4byte	0x147
 819 03ca 08       		.byte	0x8
 820 03cb 09       		.uleb128 0x9
 821 03cc A5050000 		.4byte	.LASF65
 822 03d0 06       		.byte	0x6
 823 03d1 6201     		.2byte	0x162
 824 03d3 47010000 		.4byte	0x147
 825 03d7 0C       		.byte	0xc
 826 03d8 00       		.byte	0
 827 03d9 04       		.uleb128 0x4
 828 03da 6A000000 		.4byte	.LASF66
 829 03de 05       		.byte	0x5
 830 03df 6B       		.byte	0x6b
 831 03e0 E4030000 		.4byte	0x3e4
 832 03e4 0B       		.uleb128 0xb
 833 03e5 17020000 		.4byte	.LASF67
 834 03e9 04       		.byte	0x4
 835 03ea 06       		.byte	0x6
 836 03eb 7C01     		.2byte	0x17c
 837 03ed FF030000 		.4byte	0x3ff
 838 03f1 09       		.uleb128 0x9
 839 03f2 D9060000 		.4byte	.LASF68
 840 03f6 06       		.byte	0x6
 841 03f7 8401     		.2byte	0x184
 842 03f9 37090000 		.4byte	0x937
 843 03fd 00       		.byte	0
 844 03fe 00       		.byte	0
 845 03ff 04       		.uleb128 0x4
 846 0400 F0030000 		.4byte	.LASF69
 847 0404 05       		.byte	0x5
 848 0405 70       		.byte	0x70
 849 0406 0A040000 		.4byte	0x40a
 850 040a 0B       		.uleb128 0xb
 851 040b 9D010000 		.4byte	.LASF70
 852 040f D0       		.byte	0xd0
 853 0410 06       		.byte	0x6
 854 0411 9C01     		.2byte	0x19c
 855 0413 65040000 		.4byte	0x465
ARM GAS  /tmp/ccFUmwJK.s 			page 16


 856 0417 09       		.uleb128 0x9
 857 0418 6C070000 		.4byte	.LASF71
 858 041c 06       		.byte	0x6
 859 041d A001     		.2byte	0x1a0
 860 041f AD020000 		.4byte	0x2ad
 861 0423 00       		.byte	0
 862 0424 09       		.uleb128 0x9
 863 0425 10020000 		.4byte	.LASF72
 864 0429 06       		.byte	0x6
 865 042a A401     		.2byte	0x1a4
 866 042c 8C030000 		.4byte	0x38c
 867 0430 1C       		.byte	0x1c
 868 0431 08       		.uleb128 0x8
 869 0432 64626700 		.ascii	"dbg\000"
 870 0436 06       		.byte	0x6
 871 0437 A801     		.2byte	0x1a8
 872 0439 D9030000 		.4byte	0x3d9
 873 043d 2C       		.byte	0x2c
 874 043e 09       		.uleb128 0x9
 875 043f CC000000 		.4byte	.LASF73
 876 0443 06       		.byte	0x6
 877 0444 AC01     		.2byte	0x1ac
 878 0446 52010000 		.4byte	0x152
 879 044a 30       		.byte	0x30
 880 044b 08       		.uleb128 0x8
 881 044c 746D00   		.ascii	"tm\000"
 882 044f 06       		.byte	0x6
 883 0450 B101     		.2byte	0x1b1
 884 0452 B1070000 		.4byte	0x7b1
 885 0456 90       		.byte	0x90
 886 0457 09       		.uleb128 0x9
 887 0458 05070000 		.4byte	.LASF74
 888 045c 06       		.byte	0x6
 889 045d B701     		.2byte	0x1b7
 890 045f 43080000 		.4byte	0x843
 891 0463 98       		.byte	0x98
 892 0464 00       		.byte	0
 893 0465 03       		.uleb128 0x3
 894 0466 04       		.byte	0x4
 895 0467 07       		.byte	0x7
 896 0468 6E040000 		.4byte	.LASF75
 897 046c 0F       		.uleb128 0xf
 898 046d C3000000 		.4byte	0xc3
 899 0471 10       		.uleb128 0x10
 900 0472 C3000000 		.4byte	0xc3
 901 0476 81040000 		.4byte	0x481
 902 047a 11       		.uleb128 0x11
 903 047b 65040000 		.4byte	0x465
 904 047f 01       		.byte	0x1
 905 0480 00       		.byte	0
 906 0481 12       		.uleb128 0x12
 907 0482 88       		.byte	0x88
 908 0483 07       		.byte	0x7
 909 0484 6602     		.2byte	0x266
 910 0486 10060000 		.4byte	0x610
 911 048a 08       		.uleb128 0x8
 912 048b 435200   		.ascii	"CR\000"
ARM GAS  /tmp/ccFUmwJK.s 			page 17


 913 048e 07       		.byte	0x7
 914 048f 6802     		.2byte	0x268
 915 0491 6C040000 		.4byte	0x46c
 916 0495 00       		.byte	0
 917 0496 09       		.uleb128 0x9
 918 0497 E7010000 		.4byte	.LASF76
 919 049b 07       		.byte	0x7
 920 049c 6902     		.2byte	0x269
 921 049e 6C040000 		.4byte	0x46c
 922 04a2 04       		.byte	0x4
 923 04a3 09       		.uleb128 0x9
 924 04a4 9C070000 		.4byte	.LASF77
 925 04a8 07       		.byte	0x7
 926 04a9 6A02     		.2byte	0x26a
 927 04ab 6C040000 		.4byte	0x46c
 928 04af 08       		.byte	0x8
 929 04b0 08       		.uleb128 0x8
 930 04b1 43495200 		.ascii	"CIR\000"
 931 04b5 07       		.byte	0x7
 932 04b6 6B02     		.2byte	0x26b
 933 04b8 6C040000 		.4byte	0x46c
 934 04bc 0C       		.byte	0xc
 935 04bd 09       		.uleb128 0x9
 936 04be 3E010000 		.4byte	.LASF78
 937 04c2 07       		.byte	0x7
 938 04c3 6C02     		.2byte	0x26c
 939 04c5 6C040000 		.4byte	0x46c
 940 04c9 10       		.byte	0x10
 941 04ca 09       		.uleb128 0x9
 942 04cb A1060000 		.4byte	.LASF79
 943 04cf 07       		.byte	0x7
 944 04d0 6D02     		.2byte	0x26d
 945 04d2 6C040000 		.4byte	0x46c
 946 04d6 14       		.byte	0x14
 947 04d7 09       		.uleb128 0x9
 948 04d8 D7030000 		.4byte	.LASF80
 949 04dc 07       		.byte	0x7
 950 04dd 6E02     		.2byte	0x26e
 951 04df 6C040000 		.4byte	0x46c
 952 04e3 18       		.byte	0x18
 953 04e4 09       		.uleb128 0x9
 954 04e5 23050000 		.4byte	.LASF81
 955 04e9 07       		.byte	0x7
 956 04ea 6F02     		.2byte	0x26f
 957 04ec C3000000 		.4byte	0xc3
 958 04f0 1C       		.byte	0x1c
 959 04f1 09       		.uleb128 0x9
 960 04f2 EA040000 		.4byte	.LASF82
 961 04f6 07       		.byte	0x7
 962 04f7 7002     		.2byte	0x270
 963 04f9 6C040000 		.4byte	0x46c
 964 04fd 20       		.byte	0x20
 965 04fe 09       		.uleb128 0x9
 966 04ff B7010000 		.4byte	.LASF83
 967 0503 07       		.byte	0x7
 968 0504 7102     		.2byte	0x271
 969 0506 6C040000 		.4byte	0x46c
ARM GAS  /tmp/ccFUmwJK.s 			page 18


 970 050a 24       		.byte	0x24
 971 050b 09       		.uleb128 0x9
 972 050c 2D050000 		.4byte	.LASF84
 973 0510 07       		.byte	0x7
 974 0511 7202     		.2byte	0x272
 975 0513 71040000 		.4byte	0x471
 976 0517 28       		.byte	0x28
 977 0518 09       		.uleb128 0x9
 978 0519 8D070000 		.4byte	.LASF85
 979 051d 07       		.byte	0x7
 980 051e 7302     		.2byte	0x273
 981 0520 6C040000 		.4byte	0x46c
 982 0524 30       		.byte	0x30
 983 0525 09       		.uleb128 0x9
 984 0526 FD060000 		.4byte	.LASF86
 985 052a 07       		.byte	0x7
 986 052b 7402     		.2byte	0x274
 987 052d 6C040000 		.4byte	0x46c
 988 0531 34       		.byte	0x34
 989 0532 09       		.uleb128 0x9
 990 0533 A7040000 		.4byte	.LASF87
 991 0537 07       		.byte	0x7
 992 0538 7502     		.2byte	0x275
 993 053a 6C040000 		.4byte	0x46c
 994 053e 38       		.byte	0x38
 995 053f 09       		.uleb128 0x9
 996 0540 37050000 		.4byte	.LASF88
 997 0544 07       		.byte	0x7
 998 0545 7602     		.2byte	0x276
 999 0547 C3000000 		.4byte	0xc3
 1000 054b 3C       		.byte	0x3c
 1001 054c 09       		.uleb128 0x9
 1002 054d EA060000 		.4byte	.LASF89
 1003 0551 07       		.byte	0x7
 1004 0552 7702     		.2byte	0x277
 1005 0554 6C040000 		.4byte	0x46c
 1006 0558 40       		.byte	0x40
 1007 0559 09       		.uleb128 0x9
 1008 055a 0E060000 		.4byte	.LASF90
 1009 055e 07       		.byte	0x7
 1010 055f 7802     		.2byte	0x278
 1011 0561 6C040000 		.4byte	0x46c
 1012 0565 44       		.byte	0x44
 1013 0566 09       		.uleb128 0x9
 1014 0567 41050000 		.4byte	.LASF91
 1015 056b 07       		.byte	0x7
 1016 056c 7902     		.2byte	0x279
 1017 056e 71040000 		.4byte	0x471
 1018 0572 48       		.byte	0x48
 1019 0573 09       		.uleb128 0x9
 1020 0574 10010000 		.4byte	.LASF92
 1021 0578 07       		.byte	0x7
 1022 0579 7A02     		.2byte	0x27a
 1023 057b 6C040000 		.4byte	0x46c
 1024 057f 50       		.byte	0x50
 1025 0580 09       		.uleb128 0x9
 1026 0581 BE040000 		.4byte	.LASF93
ARM GAS  /tmp/ccFUmwJK.s 			page 19


 1027 0585 07       		.byte	0x7
 1028 0586 7B02     		.2byte	0x27b
 1029 0588 6C040000 		.4byte	0x46c
 1030 058c 54       		.byte	0x54
 1031 058d 09       		.uleb128 0x9
 1032 058e AE050000 		.4byte	.LASF94
 1033 0592 07       		.byte	0x7
 1034 0593 7C02     		.2byte	0x27c
 1035 0595 6C040000 		.4byte	0x46c
 1036 0599 58       		.byte	0x58
 1037 059a 09       		.uleb128 0x9
 1038 059b 4B050000 		.4byte	.LASF95
 1039 059f 07       		.byte	0x7
 1040 05a0 7D02     		.2byte	0x27d
 1041 05a2 C3000000 		.4byte	0xc3
 1042 05a6 5C       		.byte	0x5c
 1043 05a7 09       		.uleb128 0x9
 1044 05a8 C0010000 		.4byte	.LASF96
 1045 05ac 07       		.byte	0x7
 1046 05ad 7E02     		.2byte	0x27e
 1047 05af 6C040000 		.4byte	0x46c
 1048 05b3 60       		.byte	0x60
 1049 05b4 09       		.uleb128 0x9
 1050 05b5 04040000 		.4byte	.LASF97
 1051 05b9 07       		.byte	0x7
 1052 05ba 7F02     		.2byte	0x27f
 1053 05bc 6C040000 		.4byte	0x46c
 1054 05c0 64       		.byte	0x64
 1055 05c1 09       		.uleb128 0x9
 1056 05c2 55050000 		.4byte	.LASF98
 1057 05c6 07       		.byte	0x7
 1058 05c7 8002     		.2byte	0x280
 1059 05c9 71040000 		.4byte	0x471
 1060 05cd 68       		.byte	0x68
 1061 05ce 09       		.uleb128 0x9
 1062 05cf 67070000 		.4byte	.LASF99
 1063 05d3 07       		.byte	0x7
 1064 05d4 8102     		.2byte	0x281
 1065 05d6 6C040000 		.4byte	0x46c
 1066 05da 70       		.byte	0x70
 1067 05db 08       		.uleb128 0x8
 1068 05dc 43535200 		.ascii	"CSR\000"
 1069 05e0 07       		.byte	0x7
 1070 05e1 8202     		.2byte	0x282
 1071 05e3 6C040000 		.4byte	0x46c
 1072 05e7 74       		.byte	0x74
 1073 05e8 09       		.uleb128 0x9
 1074 05e9 5F050000 		.4byte	.LASF100
 1075 05ed 07       		.byte	0x7
 1076 05ee 8302     		.2byte	0x283
 1077 05f0 71040000 		.4byte	0x471
 1078 05f4 78       		.byte	0x78
 1079 05f5 09       		.uleb128 0x9
 1080 05f6 3A070000 		.4byte	.LASF101
 1081 05fa 07       		.byte	0x7
 1082 05fb 8402     		.2byte	0x284
 1083 05fd 6C040000 		.4byte	0x46c
ARM GAS  /tmp/ccFUmwJK.s 			page 20


 1084 0601 80       		.byte	0x80
 1085 0602 09       		.uleb128 0x9
 1086 0603 C6030000 		.4byte	.LASF102
 1087 0607 07       		.byte	0x7
 1088 0608 8502     		.2byte	0x285
 1089 060a 6C040000 		.4byte	0x46c
 1090 060e 84       		.byte	0x84
 1091 060f 00       		.byte	0
 1092 0610 13       		.uleb128 0x13
 1093 0611 85010000 		.4byte	.LASF103
 1094 0615 07       		.byte	0x7
 1095 0616 8702     		.2byte	0x287
 1096 0618 81040000 		.4byte	0x481
 1097 061c 04       		.uleb128 0x4
 1098 061d 07020000 		.4byte	.LASF104
 1099 0621 08       		.byte	0x8
 1100 0622 65       		.byte	0x65
 1101 0623 30030000 		.4byte	0x330
 1102 0627 04       		.uleb128 0x4
 1103 0628 44040000 		.4byte	.LASF105
 1104 062c 08       		.byte	0x8
 1105 062d 6D       		.byte	0x6d
 1106 062e CE000000 		.4byte	0xce
 1107 0632 05       		.uleb128 0x5
 1108 0633 50020000 		.4byte	.LASF106
 1109 0637 04       		.byte	0x4
 1110 0638 08       		.byte	0x8
 1111 0639 89       		.byte	0x89
 1112 063a 4A060000 		.4byte	0x64a
 1113 063e 07       		.uleb128 0x7
 1114 063f 737000   		.ascii	"sp\000"
 1115 0642 08       		.byte	0x8
 1116 0643 8A       		.byte	0x8a
 1117 0644 96070000 		.4byte	0x796
 1118 0648 00       		.byte	0
 1119 0649 00       		.byte	0
 1120 064a 0B       		.uleb128 0xb
 1121 064b 4D000000 		.4byte	.LASF107
 1122 064f 64       		.byte	0x64
 1123 0650 09       		.byte	0x9
 1124 0651 5901     		.2byte	0x159
 1125 0653 96070000 		.4byte	0x796
 1126 0657 08       		.uleb128 0x8
 1127 0658 73313600 		.ascii	"s16\000"
 1128 065c 09       		.byte	0x9
 1129 065d 5B01     		.2byte	0x15b
 1130 065f 1C060000 		.4byte	0x61c
 1131 0663 00       		.byte	0
 1132 0664 08       		.uleb128 0x8
 1133 0665 73313700 		.ascii	"s17\000"
 1134 0669 09       		.byte	0x9
 1135 066a 5C01     		.2byte	0x15c
 1136 066c 1C060000 		.4byte	0x61c
 1137 0670 04       		.byte	0x4
 1138 0671 08       		.uleb128 0x8
 1139 0672 73313800 		.ascii	"s18\000"
 1140 0676 09       		.byte	0x9
ARM GAS  /tmp/ccFUmwJK.s 			page 21


 1141 0677 5D01     		.2byte	0x15d
 1142 0679 1C060000 		.4byte	0x61c
 1143 067d 08       		.byte	0x8
 1144 067e 08       		.uleb128 0x8
 1145 067f 73313900 		.ascii	"s19\000"
 1146 0683 09       		.byte	0x9
 1147 0684 5E01     		.2byte	0x15e
 1148 0686 1C060000 		.4byte	0x61c
 1149 068a 0C       		.byte	0xc
 1150 068b 08       		.uleb128 0x8
 1151 068c 73323000 		.ascii	"s20\000"
 1152 0690 09       		.byte	0x9
 1153 0691 5F01     		.2byte	0x15f
 1154 0693 1C060000 		.4byte	0x61c
 1155 0697 10       		.byte	0x10
 1156 0698 08       		.uleb128 0x8
 1157 0699 73323100 		.ascii	"s21\000"
 1158 069d 09       		.byte	0x9
 1159 069e 6001     		.2byte	0x160
 1160 06a0 1C060000 		.4byte	0x61c
 1161 06a4 14       		.byte	0x14
 1162 06a5 08       		.uleb128 0x8
 1163 06a6 73323200 		.ascii	"s22\000"
 1164 06aa 09       		.byte	0x9
 1165 06ab 6101     		.2byte	0x161
 1166 06ad 1C060000 		.4byte	0x61c
 1167 06b1 18       		.byte	0x18
 1168 06b2 08       		.uleb128 0x8
 1169 06b3 73323300 		.ascii	"s23\000"
 1170 06b7 09       		.byte	0x9
 1171 06b8 6201     		.2byte	0x162
 1172 06ba 1C060000 		.4byte	0x61c
 1173 06be 1C       		.byte	0x1c
 1174 06bf 08       		.uleb128 0x8
 1175 06c0 73323400 		.ascii	"s24\000"
 1176 06c4 09       		.byte	0x9
 1177 06c5 6301     		.2byte	0x163
 1178 06c7 1C060000 		.4byte	0x61c
 1179 06cb 20       		.byte	0x20
 1180 06cc 08       		.uleb128 0x8
 1181 06cd 73323500 		.ascii	"s25\000"
 1182 06d1 09       		.byte	0x9
 1183 06d2 6401     		.2byte	0x164
 1184 06d4 1C060000 		.4byte	0x61c
 1185 06d8 24       		.byte	0x24
 1186 06d9 08       		.uleb128 0x8
 1187 06da 73323600 		.ascii	"s26\000"
 1188 06de 09       		.byte	0x9
 1189 06df 6501     		.2byte	0x165
 1190 06e1 1C060000 		.4byte	0x61c
 1191 06e5 28       		.byte	0x28
 1192 06e6 08       		.uleb128 0x8
 1193 06e7 73323700 		.ascii	"s27\000"
 1194 06eb 09       		.byte	0x9
 1195 06ec 6601     		.2byte	0x166
 1196 06ee 1C060000 		.4byte	0x61c
 1197 06f2 2C       		.byte	0x2c
ARM GAS  /tmp/ccFUmwJK.s 			page 22


 1198 06f3 08       		.uleb128 0x8
 1199 06f4 73323800 		.ascii	"s28\000"
 1200 06f8 09       		.byte	0x9
 1201 06f9 6701     		.2byte	0x167
 1202 06fb 1C060000 		.4byte	0x61c
 1203 06ff 30       		.byte	0x30
 1204 0700 08       		.uleb128 0x8
 1205 0701 73323900 		.ascii	"s29\000"
 1206 0705 09       		.byte	0x9
 1207 0706 6801     		.2byte	0x168
 1208 0708 1C060000 		.4byte	0x61c
 1209 070c 34       		.byte	0x34
 1210 070d 08       		.uleb128 0x8
 1211 070e 73333000 		.ascii	"s30\000"
 1212 0712 09       		.byte	0x9
 1213 0713 6901     		.2byte	0x169
 1214 0715 1C060000 		.4byte	0x61c
 1215 0719 38       		.byte	0x38
 1216 071a 08       		.uleb128 0x8
 1217 071b 73333100 		.ascii	"s31\000"
 1218 071f 09       		.byte	0x9
 1219 0720 6A01     		.2byte	0x16a
 1220 0722 1C060000 		.4byte	0x61c
 1221 0726 3C       		.byte	0x3c
 1222 0727 08       		.uleb128 0x8
 1223 0728 723400   		.ascii	"r4\000"
 1224 072b 09       		.byte	0x9
 1225 072c 6C01     		.2byte	0x16c
 1226 072e 1C060000 		.4byte	0x61c
 1227 0732 40       		.byte	0x40
 1228 0733 08       		.uleb128 0x8
 1229 0734 723500   		.ascii	"r5\000"
 1230 0737 09       		.byte	0x9
 1231 0738 6D01     		.2byte	0x16d
 1232 073a 1C060000 		.4byte	0x61c
 1233 073e 44       		.byte	0x44
 1234 073f 08       		.uleb128 0x8
 1235 0740 723600   		.ascii	"r6\000"
 1236 0743 09       		.byte	0x9
 1237 0744 6E01     		.2byte	0x16e
 1238 0746 1C060000 		.4byte	0x61c
 1239 074a 48       		.byte	0x48
 1240 074b 08       		.uleb128 0x8
 1241 074c 723700   		.ascii	"r7\000"
 1242 074f 09       		.byte	0x9
 1243 0750 6F01     		.2byte	0x16f
 1244 0752 1C060000 		.4byte	0x61c
 1245 0756 4C       		.byte	0x4c
 1246 0757 08       		.uleb128 0x8
 1247 0758 723800   		.ascii	"r8\000"
 1248 075b 09       		.byte	0x9
 1249 075c 7001     		.2byte	0x170
 1250 075e 1C060000 		.4byte	0x61c
 1251 0762 50       		.byte	0x50
 1252 0763 08       		.uleb128 0x8
 1253 0764 723900   		.ascii	"r9\000"
 1254 0767 09       		.byte	0x9
ARM GAS  /tmp/ccFUmwJK.s 			page 23


 1255 0768 7101     		.2byte	0x171
 1256 076a 1C060000 		.4byte	0x61c
 1257 076e 54       		.byte	0x54
 1258 076f 08       		.uleb128 0x8
 1259 0770 72313000 		.ascii	"r10\000"
 1260 0774 09       		.byte	0x9
 1261 0775 7201     		.2byte	0x172
 1262 0777 1C060000 		.4byte	0x61c
 1263 077b 58       		.byte	0x58
 1264 077c 08       		.uleb128 0x8
 1265 077d 72313100 		.ascii	"r11\000"
 1266 0781 09       		.byte	0x9
 1267 0782 7301     		.2byte	0x173
 1268 0784 1C060000 		.4byte	0x61c
 1269 0788 5C       		.byte	0x5c
 1270 0789 08       		.uleb128 0x8
 1271 078a 6C7200   		.ascii	"lr\000"
 1272 078d 09       		.byte	0x9
 1273 078e 7401     		.2byte	0x174
 1274 0790 1C060000 		.4byte	0x61c
 1275 0794 60       		.byte	0x60
 1276 0795 00       		.byte	0
 1277 0796 0A       		.uleb128 0xa
 1278 0797 04       		.byte	0x4
 1279 0798 4A060000 		.4byte	0x64a
 1280 079c 14       		.uleb128 0x14
 1281 079d 04       		.byte	0x4
 1282 079e 0A       		.byte	0xa
 1283 079f 38       		.byte	0x38
 1284 07a0 B1070000 		.4byte	0x7b1
 1285 07a4 06       		.uleb128 0x6
 1286 07a5 E3060000 		.4byte	.LASF108
 1287 07a9 0A       		.byte	0xa
 1288 07aa 3C       		.byte	0x3c
 1289 07ab D9000000 		.4byte	0xd9
 1290 07af 00       		.byte	0
 1291 07b0 00       		.byte	0
 1292 07b1 04       		.uleb128 0x4
 1293 07b2 C8040000 		.4byte	.LASF109
 1294 07b6 0A       		.byte	0xa
 1295 07b7 3D       		.byte	0x3d
 1296 07b8 9C070000 		.4byte	0x79c
 1297 07bc 14       		.uleb128 0x14
 1298 07bd 18       		.byte	0x18
 1299 07be 0A       		.byte	0xa
 1300 07bf 48       		.byte	0x48
 1301 07c0 FF070000 		.4byte	0x7ff
 1302 07c4 06       		.uleb128 0x6
 1303 07c5 B3060000 		.4byte	.LASF110
 1304 07c9 0A       		.byte	0xa
 1305 07ca 49       		.byte	0x49
 1306 07cb D9000000 		.4byte	0xd9
 1307 07cf 00       		.byte	0
 1308 07d0 06       		.uleb128 0x6
 1309 07d1 86000000 		.4byte	.LASF111
 1310 07d5 0A       		.byte	0xa
 1311 07d6 4A       		.byte	0x4a
ARM GAS  /tmp/ccFUmwJK.s 			page 24


 1312 07d7 D9000000 		.4byte	0xd9
 1313 07db 04       		.byte	0x4
 1314 07dc 06       		.uleb128 0x6
 1315 07dd CB060000 		.4byte	.LASF112
 1316 07e1 0A       		.byte	0xa
 1317 07e2 4B       		.byte	0x4b
 1318 07e3 D9000000 		.4byte	0xd9
 1319 07e7 08       		.byte	0x8
 1320 07e8 07       		.uleb128 0x7
 1321 07e9 6E00     		.ascii	"n\000"
 1322 07eb 0A       		.byte	0xa
 1323 07ec 4C       		.byte	0x4c
 1324 07ed 3C010000 		.4byte	0x13c
 1325 07f1 0C       		.byte	0xc
 1326 07f2 06       		.uleb128 0x6
 1327 07f3 0B050000 		.4byte	.LASF113
 1328 07f7 0A       		.byte	0xa
 1329 07f8 4D       		.byte	0x4d
 1330 07f9 E4000000 		.4byte	0xe4
 1331 07fd 10       		.byte	0x10
 1332 07fe 00       		.byte	0
 1333 07ff 04       		.uleb128 0x4
 1334 0800 93000000 		.4byte	.LASF114
 1335 0804 0A       		.byte	0xa
 1336 0805 4E       		.byte	0x4e
 1337 0806 BC070000 		.4byte	0x7bc
 1338 080a 14       		.uleb128 0x14
 1339 080b 38       		.byte	0x38
 1340 080c 0B       		.byte	0xb
 1341 080d 38       		.byte	0x38
 1342 080e 43080000 		.4byte	0x843
 1343 0812 06       		.uleb128 0x6
 1344 0813 7C030000 		.4byte	.LASF115
 1345 0817 0B       		.byte	0xb
 1346 0818 39       		.byte	0x39
 1347 0819 3C010000 		.4byte	0x13c
 1348 081d 00       		.byte	0
 1349 081e 06       		.uleb128 0x6
 1350 081f 71050000 		.4byte	.LASF116
 1351 0823 0B       		.byte	0xb
 1352 0824 3A       		.byte	0x3a
 1353 0825 3C010000 		.4byte	0x13c
 1354 0829 04       		.byte	0x4
 1355 082a 06       		.uleb128 0x6
 1356 082b BE070000 		.4byte	.LASF117
 1357 082f 0B       		.byte	0xb
 1358 0830 3B       		.byte	0x3b
 1359 0831 FF070000 		.4byte	0x7ff
 1360 0835 08       		.byte	0x8
 1361 0836 06       		.uleb128 0x6
 1362 0837 0E040000 		.4byte	.LASF118
 1363 083b 0B       		.byte	0xb
 1364 083c 3D       		.byte	0x3d
 1365 083d FF070000 		.4byte	0x7ff
 1366 0841 20       		.byte	0x20
 1367 0842 00       		.byte	0
 1368 0843 04       		.uleb128 0x4
ARM GAS  /tmp/ccFUmwJK.s 			page 25


 1369 0844 A8030000 		.4byte	.LASF119
 1370 0848 0B       		.byte	0xb
 1371 0849 3F       		.byte	0x3f
 1372 084a 0A080000 		.4byte	0x80a
 1373 084e 15       		.uleb128 0x15
 1374 084f 04       		.byte	0x4
 1375 0850 06       		.byte	0x6
 1376 0851 D2       		.byte	0xd2
 1377 0852 B1080000 		.4byte	0x8b1
 1378 0856 16       		.uleb128 0x16
 1379 0857 2C000000 		.4byte	.LASF120
 1380 085b 06       		.byte	0x6
 1381 085c D9       		.byte	0xd9
 1382 085d 1B010000 		.4byte	0x11b
 1383 0861 16       		.uleb128 0x16
 1384 0862 C3000000 		.4byte	.LASF121
 1385 0866 06       		.byte	0x6
 1386 0867 E0       		.byte	0xe0
 1387 0868 1B010000 		.4byte	0x11b
 1388 086c 16       		.uleb128 0x16
 1389 086d 86070000 		.4byte	.LASF122
 1390 0871 06       		.byte	0x6
 1391 0872 E7       		.byte	0xe7
 1392 0873 30030000 		.4byte	0x330
 1393 0877 16       		.uleb128 0x16
 1394 0878 20000000 		.4byte	.LASF123
 1395 087c 06       		.byte	0x6
 1396 087d EE       		.byte	0xee
 1397 087e B1080000 		.4byte	0x8b1
 1398 0882 16       		.uleb128 0x16
 1399 0883 D7000000 		.4byte	.LASF124
 1400 0887 06       		.byte	0x6
 1401 0888 F3       		.byte	0xf3
 1402 0889 1B010000 		.4byte	0x11b
 1403 088d 16       		.uleb128 0x16
 1404 088e 68030000 		.4byte	.LASF125
 1405 0892 06       		.byte	0x6
 1406 0893 FC       		.byte	0xfc
 1407 0894 DC080000 		.4byte	0x8dc
 1408 0898 17       		.uleb128 0x17
 1409 0899 44060000 		.4byte	.LASF126
 1410 089d 06       		.byte	0x6
 1411 089e 0501     		.2byte	0x105
 1412 08a0 13090000 		.4byte	0x913
 1413 08a4 17       		.uleb128 0x17
 1414 08a5 01060000 		.4byte	.LASF127
 1415 08a9 06       		.byte	0x6
 1416 08aa 0D01     		.2byte	0x10d
 1417 08ac 26010000 		.4byte	0x126
 1418 08b0 00       		.byte	0
 1419 08b1 0A       		.uleb128 0xa
 1420 08b2 04       		.byte	0x4
 1421 08b3 48020000 		.4byte	0x248
 1422 08b7 05       		.uleb128 0x5
 1423 08b8 2E060000 		.4byte	.LASF128
 1424 08bc 0C       		.byte	0xc
 1425 08bd 0C       		.byte	0xc
ARM GAS  /tmp/ccFUmwJK.s 			page 26


 1426 08be 34       		.byte	0x34
 1427 08bf DC080000 		.4byte	0x8dc
 1428 08c3 06       		.uleb128 0x6
 1429 08c4 82030000 		.4byte	.LASF31
 1430 08c8 0C       		.byte	0xc
 1431 08c9 35       		.byte	0x35
 1432 08ca 7D020000 		.4byte	0x27d
 1433 08ce 00       		.byte	0
 1434 08cf 07       		.uleb128 0x7
 1435 08d0 636E7400 		.ascii	"cnt\000"
 1436 08d4 0C       		.byte	0xc
 1437 08d5 37       		.byte	0x37
 1438 08d6 31010000 		.4byte	0x131
 1439 08da 08       		.byte	0x8
 1440 08db 00       		.byte	0
 1441 08dc 0A       		.uleb128 0xa
 1442 08dd 04       		.byte	0x4
 1443 08de B7080000 		.4byte	0x8b7
 1444 08e2 05       		.uleb128 0x5
 1445 08e3 50070000 		.4byte	.LASF129
 1446 08e7 10       		.byte	0x10
 1447 08e8 0D       		.byte	0xd
 1448 08e9 39       		.byte	0x39
 1449 08ea 13090000 		.4byte	0x913
 1450 08ee 06       		.uleb128 0x6
 1451 08ef 82030000 		.4byte	.LASF31
 1452 08f3 0D       		.byte	0xd
 1453 08f4 3A       		.byte	0x3a
 1454 08f5 7D020000 		.4byte	0x27d
 1455 08f9 00       		.byte	0
 1456 08fa 06       		.uleb128 0x6
 1457 08fb 5B060000 		.4byte	.LASF130
 1458 08ff 0D       		.byte	0xd
 1459 0900 3C       		.byte	0x3c
 1460 0901 53020000 		.4byte	0x253
 1461 0905 08       		.byte	0x8
 1462 0906 06       		.uleb128 0x6
 1463 0907 02010000 		.4byte	.LASF51
 1464 090b 0D       		.byte	0xd
 1465 090c 3E       		.byte	0x3e
 1466 090d 47090000 		.4byte	0x947
 1467 0911 0C       		.byte	0xc
 1468 0912 00       		.byte	0
 1469 0913 0A       		.uleb128 0xa
 1470 0914 04       		.byte	0x4
 1471 0915 E2080000 		.4byte	0x8e2
 1472 0919 0A       		.uleb128 0xa
 1473 091a 04       		.byte	0x4
 1474 091b 1F090000 		.4byte	0x91f
 1475 091f 18       		.uleb128 0x18
 1476 0920 24090000 		.4byte	0x924
 1477 0924 03       		.uleb128 0x3
 1478 0925 01       		.byte	0x1
 1479 0926 08       		.byte	0x8
 1480 0927 7F060000 		.4byte	.LASF131
 1481 092b 0A       		.uleb128 0xa
 1482 092c 04       		.byte	0x4
ARM GAS  /tmp/ccFUmwJK.s 			page 27


 1483 092d 27060000 		.4byte	0x627
 1484 0931 0A       		.uleb128 0xa
 1485 0932 04       		.byte	0x4
 1486 0933 32030000 		.4byte	0x332
 1487 0937 0F       		.uleb128 0xf
 1488 0938 19090000 		.4byte	0x919
 1489 093c 04       		.uleb128 0x4
 1490 093d 41020000 		.4byte	.LASF132
 1491 0941 0D       		.byte	0xd
 1492 0942 34       		.byte	0x34
 1493 0943 E2080000 		.4byte	0x8e2
 1494 0947 0A       		.uleb128 0xa
 1495 0948 04       		.byte	0x4
 1496 0949 3C090000 		.4byte	0x93c
 1497 094d 03       		.uleb128 0x3
 1498 094e 01       		.byte	0x1
 1499 094f 02       		.byte	0x2
 1500 0950 7A050000 		.4byte	.LASF133
 1501 0954 14       		.uleb128 0x14
 1502 0955 04       		.byte	0x4
 1503 0956 0E       		.byte	0xe
 1504 0957 E7       		.byte	0xe7
 1505 0958 75090000 		.4byte	0x975
 1506 095c 07       		.uleb128 0x7
 1507 095d 73657400 		.ascii	"set\000"
 1508 0961 0E       		.byte	0xe
 1509 0962 E8       		.byte	0xe8
 1510 0963 AD000000 		.4byte	0xad
 1511 0967 00       		.byte	0
 1512 0968 06       		.uleb128 0x6
 1513 0969 A1040000 		.4byte	.LASF134
 1514 096d 0E       		.byte	0xe
 1515 096e E9       		.byte	0xe9
 1516 096f AD000000 		.4byte	0xad
 1517 0973 02       		.byte	0x2
 1518 0974 00       		.byte	0
 1519 0975 15       		.uleb128 0x15
 1520 0976 04       		.byte	0x4
 1521 0977 0E       		.byte	0xe
 1522 0978 E5       		.byte	0xe5
 1523 0979 90090000 		.4byte	0x990
 1524 097d 19       		.uleb128 0x19
 1525 097e 5700     		.ascii	"W\000"
 1526 0980 0E       		.byte	0xe
 1527 0981 E6       		.byte	0xe6
 1528 0982 C3000000 		.4byte	0xc3
 1529 0986 19       		.uleb128 0x19
 1530 0987 4800     		.ascii	"H\000"
 1531 0989 0E       		.byte	0xe
 1532 098a EA       		.byte	0xea
 1533 098b 54090000 		.4byte	0x954
 1534 098f 00       		.byte	0
 1535 0990 14       		.uleb128 0x14
 1536 0991 2C       		.byte	0x2c
 1537 0992 0E       		.byte	0xe
 1538 0993 DD       		.byte	0xdd
 1539 0994 1D0A0000 		.4byte	0xa1d
ARM GAS  /tmp/ccFUmwJK.s 			page 28


 1540 0998 06       		.uleb128 0x6
 1541 0999 A6000000 		.4byte	.LASF135
 1542 099d 0E       		.byte	0xe
 1543 099e DF       		.byte	0xdf
 1544 099f 6C040000 		.4byte	0x46c
 1545 09a3 00       		.byte	0
 1546 09a4 06       		.uleb128 0x6
 1547 09a5 46000000 		.4byte	.LASF136
 1548 09a9 0E       		.byte	0xe
 1549 09aa E0       		.byte	0xe0
 1550 09ab 6C040000 		.4byte	0x46c
 1551 09af 04       		.byte	0x4
 1552 09b0 06       		.uleb128 0x6
 1553 09b1 EF010000 		.4byte	.LASF137
 1554 09b5 0E       		.byte	0xe
 1555 09b6 E1       		.byte	0xe1
 1556 09b7 6C040000 		.4byte	0x46c
 1557 09bb 08       		.byte	0x8
 1558 09bc 06       		.uleb128 0x6
 1559 09bd 91010000 		.4byte	.LASF138
 1560 09c1 0E       		.byte	0xe
 1561 09c2 E2       		.byte	0xe2
 1562 09c3 6C040000 		.4byte	0x46c
 1563 09c7 0C       		.byte	0xc
 1564 09c8 07       		.uleb128 0x7
 1565 09c9 49445200 		.ascii	"IDR\000"
 1566 09cd 0E       		.byte	0xe
 1567 09ce E3       		.byte	0xe3
 1568 09cf 6C040000 		.4byte	0x46c
 1569 09d3 10       		.byte	0x10
 1570 09d4 07       		.uleb128 0x7
 1571 09d5 4F445200 		.ascii	"ODR\000"
 1572 09d9 0E       		.byte	0xe
 1573 09da E4       		.byte	0xe4
 1574 09db 6C040000 		.4byte	0x46c
 1575 09df 14       		.byte	0x14
 1576 09e0 06       		.uleb128 0x6
 1577 09e1 39010000 		.4byte	.LASF139
 1578 09e5 0E       		.byte	0xe
 1579 09e6 EB       		.byte	0xeb
 1580 09e7 1D0A0000 		.4byte	0xa1d
 1581 09eb 18       		.byte	0x18
 1582 09ec 06       		.uleb128 0x6
 1583 09ed 77030000 		.4byte	.LASF140
 1584 09f1 0E       		.byte	0xe
 1585 09f2 EC       		.byte	0xec
 1586 09f3 6C040000 		.4byte	0x46c
 1587 09f7 1C       		.byte	0x1c
 1588 09f8 06       		.uleb128 0x6
 1589 09f9 16050000 		.4byte	.LASF141
 1590 09fd 0E       		.byte	0xe
 1591 09fe ED       		.byte	0xed
 1592 09ff 6C040000 		.4byte	0x46c
 1593 0a03 20       		.byte	0x20
 1594 0a04 06       		.uleb128 0x6
 1595 0a05 06050000 		.4byte	.LASF142
 1596 0a09 0E       		.byte	0xe
ARM GAS  /tmp/ccFUmwJK.s 			page 29


 1597 0a0a EE       		.byte	0xee
 1598 0a0b 6C040000 		.4byte	0x46c
 1599 0a0f 24       		.byte	0x24
 1600 0a10 07       		.uleb128 0x7
 1601 0a11 42525200 		.ascii	"BRR\000"
 1602 0a15 0E       		.byte	0xe
 1603 0a16 EF       		.byte	0xef
 1604 0a17 6C040000 		.4byte	0x46c
 1605 0a1b 28       		.byte	0x28
 1606 0a1c 00       		.byte	0
 1607 0a1d 0F       		.uleb128 0xf
 1608 0a1e 75090000 		.4byte	0x975
 1609 0a22 04       		.uleb128 0x4
 1610 0a23 2F020000 		.4byte	.LASF143
 1611 0a27 0E       		.byte	0xe
 1612 0a28 F0       		.byte	0xf0
 1613 0a29 90090000 		.4byte	0x990
 1614 0a2d 14       		.uleb128 0x14
 1615 0a2e 1C       		.byte	0x1c
 1616 0a2f 0E       		.byte	0xe
 1617 0a30 F5       		.byte	0xf5
 1618 0a31 8C0A0000 		.4byte	0xa8c
 1619 0a35 06       		.uleb128 0x6
 1620 0a36 47010000 		.4byte	.LASF144
 1621 0a3a 0E       		.byte	0xe
 1622 0a3b F7       		.byte	0xf7
 1623 0a3c C3000000 		.4byte	0xc3
 1624 0a40 00       		.byte	0
 1625 0a41 06       		.uleb128 0x6
 1626 0a42 88030000 		.4byte	.LASF145
 1627 0a46 0E       		.byte	0xe
 1628 0a47 F9       		.byte	0xf9
 1629 0a48 C3000000 		.4byte	0xc3
 1630 0a4c 04       		.byte	0x4
 1631 0a4d 06       		.uleb128 0x6
 1632 0a4e 6F030000 		.4byte	.LASF146
 1633 0a52 0E       		.byte	0xe
 1634 0a53 FB       		.byte	0xfb
 1635 0a54 C3000000 		.4byte	0xc3
 1636 0a58 08       		.byte	0x8
 1637 0a59 06       		.uleb128 0x6
 1638 0a5a 7A070000 		.4byte	.LASF147
 1639 0a5e 0E       		.byte	0xe
 1640 0a5f FD       		.byte	0xfd
 1641 0a60 C3000000 		.4byte	0xc3
 1642 0a64 0C       		.byte	0xc
 1643 0a65 07       		.uleb128 0x7
 1644 0a66 6F647200 		.ascii	"odr\000"
 1645 0a6a 0E       		.byte	0xe
 1646 0a6b FF       		.byte	0xff
 1647 0a6c C3000000 		.4byte	0xc3
 1648 0a70 10       		.byte	0x10
 1649 0a71 09       		.uleb128 0x9
 1650 0a72 96050000 		.4byte	.LASF148
 1651 0a76 0E       		.byte	0xe
 1652 0a77 0101     		.2byte	0x101
 1653 0a79 C3000000 		.4byte	0xc3
ARM GAS  /tmp/ccFUmwJK.s 			page 30


 1654 0a7d 14       		.byte	0x14
 1655 0a7e 09       		.uleb128 0x9
 1656 0a7f D9040000 		.4byte	.LASF149
 1657 0a83 0E       		.byte	0xe
 1658 0a84 0301     		.2byte	0x103
 1659 0a86 C3000000 		.4byte	0xc3
 1660 0a8a 18       		.byte	0x18
 1661 0a8b 00       		.byte	0
 1662 0a8c 13       		.uleb128 0x13
 1663 0a8d 00000000 		.4byte	.LASF150
 1664 0a91 0E       		.byte	0xe
 1665 0a92 0401     		.2byte	0x104
 1666 0a94 2D0A0000 		.4byte	0xa2d
 1667 0a98 12       		.uleb128 0x12
 1668 0a99 FC       		.byte	0xfc
 1669 0a9a 0E       		.byte	0xe
 1670 0a9b 0D01     		.2byte	0x10d
 1671 0a9d 170B0000 		.4byte	0xb17
 1672 0aa1 09       		.uleb128 0x9
 1673 0aa2 FA050000 		.4byte	.LASF151
 1674 0aa6 0E       		.byte	0xe
 1675 0aa7 1001     		.2byte	0x110
 1676 0aa9 8C0A0000 		.4byte	0xa8c
 1677 0aad 00       		.byte	0
 1678 0aae 09       		.uleb128 0x9
 1679 0aaf 49020000 		.4byte	.LASF152
 1680 0ab3 0E       		.byte	0xe
 1681 0ab4 1401     		.2byte	0x114
 1682 0ab6 8C0A0000 		.4byte	0xa8c
 1683 0aba 1C       		.byte	0x1c
 1684 0abb 09       		.uleb128 0x9
 1685 0abc 95070000 		.4byte	.LASF153
 1686 0ac0 0E       		.byte	0xe
 1687 0ac1 1801     		.2byte	0x118
 1688 0ac3 8C0A0000 		.4byte	0xa8c
 1689 0ac7 38       		.byte	0x38
 1690 0ac8 09       		.uleb128 0x9
 1691 0ac9 DE040000 		.4byte	.LASF154
 1692 0acd 0E       		.byte	0xe
 1693 0ace 1C01     		.2byte	0x11c
 1694 0ad0 8C0A0000 		.4byte	0xa8c
 1695 0ad4 54       		.byte	0x54
 1696 0ad5 09       		.uleb128 0x9
 1697 0ad6 B0010000 		.4byte	.LASF155
 1698 0ada 0E       		.byte	0xe
 1699 0adb 2001     		.2byte	0x120
 1700 0add 8C0A0000 		.4byte	0xa8c
 1701 0ae1 70       		.byte	0x70
 1702 0ae2 09       		.uleb128 0x9
 1703 0ae3 A6070000 		.4byte	.LASF156
 1704 0ae7 0E       		.byte	0xe
 1705 0ae8 2401     		.2byte	0x124
 1706 0aea 8C0A0000 		.4byte	0xa8c
 1707 0aee 8C       		.byte	0x8c
 1708 0aef 09       		.uleb128 0x9
 1709 0af0 3D040000 		.4byte	.LASF157
 1710 0af4 0E       		.byte	0xe
ARM GAS  /tmp/ccFUmwJK.s 			page 31


 1711 0af5 2801     		.2byte	0x128
 1712 0af7 8C0A0000 		.4byte	0xa8c
 1713 0afb A8       		.byte	0xa8
 1714 0afc 09       		.uleb128 0x9
 1715 0afd 8C000000 		.4byte	.LASF158
 1716 0b01 0E       		.byte	0xe
 1717 0b02 2C01     		.2byte	0x12c
 1718 0b04 8C0A0000 		.4byte	0xa8c
 1719 0b08 C4       		.byte	0xc4
 1720 0b09 09       		.uleb128 0x9
 1721 0b0a 16060000 		.4byte	.LASF159
 1722 0b0e 0E       		.byte	0xe
 1723 0b0f 3001     		.2byte	0x130
 1724 0b11 8C0A0000 		.4byte	0xa8c
 1725 0b15 E0       		.byte	0xe0
 1726 0b16 00       		.byte	0
 1727 0b17 13       		.uleb128 0x13
 1728 0b18 30070000 		.4byte	.LASF160
 1729 0b1c 0E       		.byte	0xe
 1730 0b1d 3A01     		.2byte	0x13a
 1731 0b1f 980A0000 		.4byte	0xa98
 1732 0b23 13       		.uleb128 0x13
 1733 0b24 79000000 		.4byte	.LASF161
 1734 0b28 0E       		.byte	0xe
 1735 0b29 3F01     		.2byte	0x13f
 1736 0b2b C3000000 		.4byte	0xc3
 1737 0b2f 13       		.uleb128 0x13
 1738 0b30 B5070000 		.4byte	.LASF162
 1739 0b34 0E       		.byte	0xe
 1740 0b35 4401     		.2byte	0x144
 1741 0b37 C3000000 		.4byte	0xc3
 1742 0b3b 13       		.uleb128 0x13
 1743 0b3c F2060000 		.4byte	.LASF163
 1744 0b40 0E       		.byte	0xe
 1745 0b41 5101     		.2byte	0x151
 1746 0b43 470B0000 		.4byte	0xb47
 1747 0b47 0A       		.uleb128 0xa
 1748 0b48 04       		.byte	0x4
 1749 0b49 220A0000 		.4byte	0xa22
 1750 0b4d 1A       		.uleb128 0x1a
 1751 0b4e D0060000 		.4byte	.LASF177
 1752 0b52 01       		.byte	0x1
 1753 0b53 3D       		.byte	0x3d
 1754 0b54 00000000 		.4byte	.LFB277
 1755 0b58 1E000000 		.4byte	.LFE277-.LFB277
 1756 0b5c 01       		.uleb128 0x1
 1757 0b5d 9C       		.byte	0x9c
 1758 0b5e 7D0B0000 		.4byte	0xb7d
 1759 0b62 1B       		.uleb128 0x1b
 1760 0b63 08060000 		.4byte	.LASF164
 1761 0b67 01       		.byte	0x1
 1762 0b68 3D       		.byte	0x3d
 1763 0b69 470B0000 		.4byte	0xb47
 1764 0b6d 01       		.uleb128 0x1
 1765 0b6e 50       		.byte	0x50
 1766 0b6f 1B       		.uleb128 0x1b
 1767 0b70 8F060000 		.4byte	.LASF165
ARM GAS  /tmp/ccFUmwJK.s 			page 32


 1768 0b74 01       		.byte	0x1
 1769 0b75 3D       		.byte	0x3d
 1770 0b76 7D0B0000 		.4byte	0xb7d
 1771 0b7a 01       		.uleb128 0x1
 1772 0b7b 51       		.byte	0x51
 1773 0b7c 00       		.byte	0
 1774 0b7d 0A       		.uleb128 0xa
 1775 0b7e 04       		.byte	0x4
 1776 0b7f 830B0000 		.4byte	0xb83
 1777 0b83 18       		.uleb128 0x18
 1778 0b84 8C0A0000 		.4byte	0xa8c
 1779 0b88 1C       		.uleb128 0x1c
 1780 0b89 59070000 		.4byte	.LASF166
 1781 0b8d 01       		.byte	0x1
 1782 0b8e 58       		.byte	0x58
 1783 0b8f 00000000 		.4byte	.LFB278
 1784 0b93 9C000000 		.4byte	.LFE278-.LFB278
 1785 0b97 01       		.uleb128 0x1
 1786 0b98 9C       		.byte	0x9c
 1787 0b99 B70C0000 		.4byte	0xcb7
 1788 0b9d 1D       		.uleb128 0x1d
 1789 0b9e 8F060000 		.4byte	.LASF165
 1790 0ba2 01       		.byte	0x1
 1791 0ba3 58       		.byte	0x58
 1792 0ba4 B70C0000 		.4byte	0xcb7
 1793 0ba8 00000000 		.4byte	.LLST0
 1794 0bac 1E       		.uleb128 0x1e
 1795 0bad 1E000000 		.4byte	.LVL3
 1796 0bb1 4D0B0000 		.4byte	0xb4d
 1797 0bb5 C90B0000 		.4byte	0xbc9
 1798 0bb9 1F       		.uleb128 0x1f
 1799 0bba 01       		.uleb128 0x1
 1800 0bbb 51       		.byte	0x51
 1801 0bbc 02       		.uleb128 0x2
 1802 0bbd 74       		.byte	0x74
 1803 0bbe 00       		.sleb128 0
 1804 0bbf 1F       		.uleb128 0x1f
 1805 0bc0 01       		.uleb128 0x1
 1806 0bc1 50       		.byte	0x50
 1807 0bc2 05       		.uleb128 0x5
 1808 0bc3 0C       		.byte	0xc
 1809 0bc4 00000240 		.4byte	0x40020000
 1810 0bc8 00       		.byte	0
 1811 0bc9 1E       		.uleb128 0x1e
 1812 0bca 28000000 		.4byte	.LVL4
 1813 0bce 4D0B0000 		.4byte	0xb4d
 1814 0bd2 E60B0000 		.4byte	0xbe6
 1815 0bd6 1F       		.uleb128 0x1f
 1816 0bd7 01       		.uleb128 0x1
 1817 0bd8 51       		.byte	0x51
 1818 0bd9 02       		.uleb128 0x2
 1819 0bda 74       		.byte	0x74
 1820 0bdb 1C       		.sleb128 28
 1821 0bdc 1F       		.uleb128 0x1f
 1822 0bdd 01       		.uleb128 0x1
 1823 0bde 50       		.byte	0x50
 1824 0bdf 05       		.uleb128 0x5
ARM GAS  /tmp/ccFUmwJK.s 			page 33


 1825 0be0 0C       		.byte	0xc
 1826 0be1 00040240 		.4byte	0x40020400
 1827 0be5 00       		.byte	0
 1828 0be6 1E       		.uleb128 0x1e
 1829 0be7 32000000 		.4byte	.LVL5
 1830 0beb 4D0B0000 		.4byte	0xb4d
 1831 0bef 030C0000 		.4byte	0xc03
 1832 0bf3 1F       		.uleb128 0x1f
 1833 0bf4 01       		.uleb128 0x1
 1834 0bf5 51       		.byte	0x51
 1835 0bf6 02       		.uleb128 0x2
 1836 0bf7 74       		.byte	0x74
 1837 0bf8 38       		.sleb128 56
 1838 0bf9 1F       		.uleb128 0x1f
 1839 0bfa 01       		.uleb128 0x1
 1840 0bfb 50       		.byte	0x50
 1841 0bfc 05       		.uleb128 0x5
 1842 0bfd 0C       		.byte	0xc
 1843 0bfe 00080240 		.4byte	0x40020800
 1844 0c02 00       		.byte	0
 1845 0c03 1E       		.uleb128 0x1e
 1846 0c04 3C000000 		.4byte	.LVL6
 1847 0c08 4D0B0000 		.4byte	0xb4d
 1848 0c0c 210C0000 		.4byte	0xc21
 1849 0c10 1F       		.uleb128 0x1f
 1850 0c11 01       		.uleb128 0x1
 1851 0c12 51       		.byte	0x51
 1852 0c13 03       		.uleb128 0x3
 1853 0c14 74       		.byte	0x74
 1854 0c15 D400     		.sleb128 84
 1855 0c17 1F       		.uleb128 0x1f
 1856 0c18 01       		.uleb128 0x1
 1857 0c19 50       		.byte	0x50
 1858 0c1a 05       		.uleb128 0x5
 1859 0c1b 0C       		.byte	0xc
 1860 0c1c 000C0240 		.4byte	0x40020c00
 1861 0c20 00       		.byte	0
 1862 0c21 1E       		.uleb128 0x1e
 1863 0c22 46000000 		.4byte	.LVL7
 1864 0c26 4D0B0000 		.4byte	0xb4d
 1865 0c2a 3F0C0000 		.4byte	0xc3f
 1866 0c2e 1F       		.uleb128 0x1f
 1867 0c2f 01       		.uleb128 0x1
 1868 0c30 51       		.byte	0x51
 1869 0c31 03       		.uleb128 0x3
 1870 0c32 74       		.byte	0x74
 1871 0c33 F000     		.sleb128 112
 1872 0c35 1F       		.uleb128 0x1f
 1873 0c36 01       		.uleb128 0x1
 1874 0c37 50       		.byte	0x50
 1875 0c38 05       		.uleb128 0x5
 1876 0c39 0C       		.byte	0xc
 1877 0c3a 00100240 		.4byte	0x40021000
 1878 0c3e 00       		.byte	0
 1879 0c3f 1E       		.uleb128 0x1e
 1880 0c40 50000000 		.4byte	.LVL8
 1881 0c44 4D0B0000 		.4byte	0xb4d
ARM GAS  /tmp/ccFUmwJK.s 			page 34


 1882 0c48 5D0C0000 		.4byte	0xc5d
 1883 0c4c 1F       		.uleb128 0x1f
 1884 0c4d 01       		.uleb128 0x1
 1885 0c4e 51       		.byte	0x51
 1886 0c4f 03       		.uleb128 0x3
 1887 0c50 74       		.byte	0x74
 1888 0c51 8C01     		.sleb128 140
 1889 0c53 1F       		.uleb128 0x1f
 1890 0c54 01       		.uleb128 0x1
 1891 0c55 50       		.byte	0x50
 1892 0c56 05       		.uleb128 0x5
 1893 0c57 0C       		.byte	0xc
 1894 0c58 00140240 		.4byte	0x40021400
 1895 0c5c 00       		.byte	0
 1896 0c5d 1E       		.uleb128 0x1e
 1897 0c5e 5A000000 		.4byte	.LVL9
 1898 0c62 4D0B0000 		.4byte	0xb4d
 1899 0c66 7B0C0000 		.4byte	0xc7b
 1900 0c6a 1F       		.uleb128 0x1f
 1901 0c6b 01       		.uleb128 0x1
 1902 0c6c 51       		.byte	0x51
 1903 0c6d 03       		.uleb128 0x3
 1904 0c6e 74       		.byte	0x74
 1905 0c6f A801     		.sleb128 168
 1906 0c71 1F       		.uleb128 0x1f
 1907 0c72 01       		.uleb128 0x1
 1908 0c73 50       		.byte	0x50
 1909 0c74 05       		.uleb128 0x5
 1910 0c75 0C       		.byte	0xc
 1911 0c76 00180240 		.4byte	0x40021800
 1912 0c7a 00       		.byte	0
 1913 0c7b 1E       		.uleb128 0x1e
 1914 0c7c 64000000 		.4byte	.LVL10
 1915 0c80 4D0B0000 		.4byte	0xb4d
 1916 0c84 990C0000 		.4byte	0xc99
 1917 0c88 1F       		.uleb128 0x1f
 1918 0c89 01       		.uleb128 0x1
 1919 0c8a 51       		.byte	0x51
 1920 0c8b 03       		.uleb128 0x3
 1921 0c8c 74       		.byte	0x74
 1922 0c8d C401     		.sleb128 196
 1923 0c8f 1F       		.uleb128 0x1f
 1924 0c90 01       		.uleb128 0x1
 1925 0c91 50       		.byte	0x50
 1926 0c92 05       		.uleb128 0x5
 1927 0c93 0C       		.byte	0xc
 1928 0c94 001C0240 		.4byte	0x40021c00
 1929 0c98 00       		.byte	0
 1930 0c99 20       		.uleb128 0x20
 1931 0c9a 72000000 		.4byte	.LVL12
 1932 0c9e 4D0B0000 		.4byte	0xb4d
 1933 0ca2 1F       		.uleb128 0x1f
 1934 0ca3 01       		.uleb128 0x1
 1935 0ca4 51       		.byte	0x51
 1936 0ca5 06       		.uleb128 0x6
 1937 0ca6 F3       		.byte	0xf3
 1938 0ca7 01       		.uleb128 0x1
ARM GAS  /tmp/ccFUmwJK.s 			page 35


 1939 0ca8 50       		.byte	0x50
 1940 0ca9 23       		.byte	0x23
 1941 0caa E001     		.uleb128 0xe0
 1942 0cac 1F       		.uleb128 0x1f
 1943 0cad 01       		.uleb128 0x1
 1944 0cae 50       		.byte	0x50
 1945 0caf 05       		.uleb128 0x5
 1946 0cb0 0C       		.byte	0xc
 1947 0cb1 00200240 		.4byte	0x40022000
 1948 0cb5 00       		.byte	0
 1949 0cb6 00       		.byte	0
 1950 0cb7 0A       		.uleb128 0xa
 1951 0cb8 04       		.byte	0x4
 1952 0cb9 BD0C0000 		.4byte	0xcbd
 1953 0cbd 18       		.uleb128 0x18
 1954 0cbe 170B0000 		.4byte	0xb17
 1955 0cc2 1C       		.uleb128 0x1c
 1956 0cc3 12070000 		.4byte	.LASF167
 1957 0cc7 01       		.byte	0x1
 1958 0cc8 9F       		.byte	0x9f
 1959 0cc9 00000000 		.4byte	.LFB279
 1960 0ccd D0000000 		.4byte	.LFE279-.LFB279
 1961 0cd1 01       		.uleb128 0x1
 1962 0cd2 9C       		.byte	0x9c
 1963 0cd3 980D0000 		.4byte	0xd98
 1964 0cd7 1B       		.uleb128 0x1b
 1965 0cd8 3C020000 		.4byte	.LASF168
 1966 0cdc 01       		.byte	0x1
 1967 0cdd 9F       		.byte	0x9f
 1968 0cde 3B0B0000 		.4byte	0xb3b
 1969 0ce2 01       		.uleb128 0x1
 1970 0ce3 50       		.byte	0x50
 1971 0ce4 1D       		.uleb128 0x1d
 1972 0ce5 02020000 		.4byte	.LASF169
 1973 0ce9 01       		.byte	0x1
 1974 0cea A0       		.byte	0xa0
 1975 0ceb 230B0000 		.4byte	0xb23
 1976 0cef 45000000 		.4byte	.LLST1
 1977 0cf3 1D       		.uleb128 0x1d
 1978 0cf4 8A060000 		.4byte	.LASF170
 1979 0cf8 01       		.byte	0x1
 1980 0cf9 A1       		.byte	0xa1
 1981 0cfa 2F0B0000 		.4byte	0xb2f
 1982 0cfe 72000000 		.4byte	.LLST2
 1983 0d02 21       		.uleb128 0x21
 1984 0d03 47010000 		.4byte	.LASF144
 1985 0d07 01       		.byte	0x1
 1986 0d08 A3       		.byte	0xa3
 1987 0d09 C3000000 		.4byte	0xc3
 1988 0d0d 93000000 		.4byte	.LLST3
 1989 0d11 22       		.uleb128 0x22
 1990 0d12 88030000 		.4byte	.LASF145
 1991 0d16 01       		.byte	0x1
 1992 0d17 A4       		.byte	0xa4
 1993 0d18 C3000000 		.4byte	0xc3
 1994 0d1c 01       		.uleb128 0x1
 1995 0d1d 58       		.byte	0x58
ARM GAS  /tmp/ccFUmwJK.s 			page 36


 1996 0d1e 22       		.uleb128 0x22
 1997 0d1f 6F030000 		.4byte	.LASF146
 1998 0d23 01       		.byte	0x1
 1999 0d24 A5       		.byte	0xa5
 2000 0d25 C3000000 		.4byte	0xc3
 2001 0d29 01       		.uleb128 0x1
 2002 0d2a 5C       		.byte	0x5c
 2003 0d2b 22       		.uleb128 0x22
 2004 0d2c 7A070000 		.4byte	.LASF147
 2005 0d30 01       		.byte	0x1
 2006 0d31 A6       		.byte	0xa6
 2007 0d32 C3000000 		.4byte	0xc3
 2008 0d36 01       		.uleb128 0x1
 2009 0d37 5E       		.byte	0x5e
 2010 0d38 22       		.uleb128 0x22
 2011 0d39 7A060000 		.4byte	.LASF171
 2012 0d3d 01       		.byte	0x1
 2013 0d3e A7       		.byte	0xa7
 2014 0d3f C3000000 		.4byte	0xc3
 2015 0d43 01       		.uleb128 0x1
 2016 0d44 52       		.byte	0x52
 2017 0d45 23       		.uleb128 0x23
 2018 0d46 62697400 		.ascii	"bit\000"
 2019 0d4a 01       		.byte	0x1
 2020 0d4b A8       		.byte	0xa8
 2021 0d4c C3000000 		.4byte	0xc3
 2022 0d50 B1000000 		.4byte	.LLST4
 2023 0d54 24       		.uleb128 0x24
 2024 0d55 20000000 		.4byte	.LBB2
 2025 0d59 96000000 		.4byte	.LBE2-.LBB2
 2026 0d5d 21       		.uleb128 0x21
 2027 0d5e DE010000 		.4byte	.LASF172
 2028 0d62 01       		.byte	0x1
 2029 0d63 AB       		.byte	0xab
 2030 0d64 C3000000 		.4byte	0xc3
 2031 0d68 D0000000 		.4byte	.LLST5
 2032 0d6c 23       		.uleb128 0x23
 2033 0d6d 6D3100   		.ascii	"m1\000"
 2034 0d70 01       		.byte	0x1
 2035 0d71 AB       		.byte	0xab
 2036 0d72 C3000000 		.4byte	0xc3
 2037 0d76 16010000 		.4byte	.LLST6
 2038 0d7a 23       		.uleb128 0x23
 2039 0d7b 6D3200   		.ascii	"m2\000"
 2040 0d7e 01       		.byte	0x1
 2041 0d7f AB       		.byte	0xab
 2042 0d80 C3000000 		.4byte	0xc3
 2043 0d84 47010000 		.4byte	.LLST7
 2044 0d88 23       		.uleb128 0x23
 2045 0d89 6D3400   		.ascii	"m4\000"
 2046 0d8c 01       		.byte	0x1
 2047 0d8d AB       		.byte	0xab
 2048 0d8e C3000000 		.4byte	0xc3
 2049 0d92 8A010000 		.4byte	.LLST8
 2050 0d96 00       		.byte	0
 2051 0d97 00       		.byte	0
 2052 0d98 25       		.uleb128 0x25
ARM GAS  /tmp/ccFUmwJK.s 			page 37


 2053 0d99 F5000000 		.4byte	.LASF173
 2054 0d9d 0F       		.byte	0xf
 2055 0d9e 4407     		.2byte	0x744
 2056 0da0 A40D0000 		.4byte	0xda4
 2057 0da4 0F       		.uleb128 0xf
 2058 0da5 B8000000 		.4byte	0xb8
 2059 0da9 26       		.uleb128 0x26
 2060 0daa 636800   		.ascii	"ch\000"
 2061 0dad 06       		.byte	0x6
 2062 0dae D201     		.2byte	0x1d2
 2063 0db0 FF030000 		.4byte	0x3ff
 2064 0db4 00       		.byte	0
 2065              		.section	.debug_abbrev,"",%progbits
 2066              	.Ldebug_abbrev0:
 2067 0000 01       		.uleb128 0x1
 2068 0001 11       		.uleb128 0x11
 2069 0002 01       		.byte	0x1
 2070 0003 25       		.uleb128 0x25
 2071 0004 0E       		.uleb128 0xe
 2072 0005 13       		.uleb128 0x13
 2073 0006 0B       		.uleb128 0xb
 2074 0007 03       		.uleb128 0x3
 2075 0008 0E       		.uleb128 0xe
 2076 0009 1B       		.uleb128 0x1b
 2077 000a 0E       		.uleb128 0xe
 2078 000b 55       		.uleb128 0x55
 2079 000c 17       		.uleb128 0x17
 2080 000d 11       		.uleb128 0x11
 2081 000e 01       		.uleb128 0x1
 2082 000f 10       		.uleb128 0x10
 2083 0010 17       		.uleb128 0x17
 2084 0011 00       		.byte	0
 2085 0012 00       		.byte	0
 2086 0013 02       		.uleb128 0x2
 2087 0014 24       		.uleb128 0x24
 2088 0015 00       		.byte	0
 2089 0016 0B       		.uleb128 0xb
 2090 0017 0B       		.uleb128 0xb
 2091 0018 3E       		.uleb128 0x3e
 2092 0019 0B       		.uleb128 0xb
 2093 001a 03       		.uleb128 0x3
 2094 001b 08       		.uleb128 0x8
 2095 001c 00       		.byte	0
 2096 001d 00       		.byte	0
 2097 001e 03       		.uleb128 0x3
 2098 001f 24       		.uleb128 0x24
 2099 0020 00       		.byte	0
 2100 0021 0B       		.uleb128 0xb
 2101 0022 0B       		.uleb128 0xb
 2102 0023 3E       		.uleb128 0x3e
 2103 0024 0B       		.uleb128 0xb
 2104 0025 03       		.uleb128 0x3
 2105 0026 0E       		.uleb128 0xe
 2106 0027 00       		.byte	0
 2107 0028 00       		.byte	0
 2108 0029 04       		.uleb128 0x4
 2109 002a 16       		.uleb128 0x16
ARM GAS  /tmp/ccFUmwJK.s 			page 38


 2110 002b 00       		.byte	0
 2111 002c 03       		.uleb128 0x3
 2112 002d 0E       		.uleb128 0xe
 2113 002e 3A       		.uleb128 0x3a
 2114 002f 0B       		.uleb128 0xb
 2115 0030 3B       		.uleb128 0x3b
 2116 0031 0B       		.uleb128 0xb
 2117 0032 49       		.uleb128 0x49
 2118 0033 13       		.uleb128 0x13
 2119 0034 00       		.byte	0
 2120 0035 00       		.byte	0
 2121 0036 05       		.uleb128 0x5
 2122 0037 13       		.uleb128 0x13
 2123 0038 01       		.byte	0x1
 2124 0039 03       		.uleb128 0x3
 2125 003a 0E       		.uleb128 0xe
 2126 003b 0B       		.uleb128 0xb
 2127 003c 0B       		.uleb128 0xb
 2128 003d 3A       		.uleb128 0x3a
 2129 003e 0B       		.uleb128 0xb
 2130 003f 3B       		.uleb128 0x3b
 2131 0040 0B       		.uleb128 0xb
 2132 0041 01       		.uleb128 0x1
 2133 0042 13       		.uleb128 0x13
 2134 0043 00       		.byte	0
 2135 0044 00       		.byte	0
 2136 0045 06       		.uleb128 0x6
 2137 0046 0D       		.uleb128 0xd
 2138 0047 00       		.byte	0
 2139 0048 03       		.uleb128 0x3
 2140 0049 0E       		.uleb128 0xe
 2141 004a 3A       		.uleb128 0x3a
 2142 004b 0B       		.uleb128 0xb
 2143 004c 3B       		.uleb128 0x3b
 2144 004d 0B       		.uleb128 0xb
 2145 004e 49       		.uleb128 0x49
 2146 004f 13       		.uleb128 0x13
 2147 0050 38       		.uleb128 0x38
 2148 0051 0B       		.uleb128 0xb
 2149 0052 00       		.byte	0
 2150 0053 00       		.byte	0
 2151 0054 07       		.uleb128 0x7
 2152 0055 0D       		.uleb128 0xd
 2153 0056 00       		.byte	0
 2154 0057 03       		.uleb128 0x3
 2155 0058 08       		.uleb128 0x8
 2156 0059 3A       		.uleb128 0x3a
 2157 005a 0B       		.uleb128 0xb
 2158 005b 3B       		.uleb128 0x3b
 2159 005c 0B       		.uleb128 0xb
 2160 005d 49       		.uleb128 0x49
 2161 005e 13       		.uleb128 0x13
 2162 005f 38       		.uleb128 0x38
 2163 0060 0B       		.uleb128 0xb
 2164 0061 00       		.byte	0
 2165 0062 00       		.byte	0
 2166 0063 08       		.uleb128 0x8
ARM GAS  /tmp/ccFUmwJK.s 			page 39


 2167 0064 0D       		.uleb128 0xd
 2168 0065 00       		.byte	0
 2169 0066 03       		.uleb128 0x3
 2170 0067 08       		.uleb128 0x8
 2171 0068 3A       		.uleb128 0x3a
 2172 0069 0B       		.uleb128 0xb
 2173 006a 3B       		.uleb128 0x3b
 2174 006b 05       		.uleb128 0x5
 2175 006c 49       		.uleb128 0x49
 2176 006d 13       		.uleb128 0x13
 2177 006e 38       		.uleb128 0x38
 2178 006f 0B       		.uleb128 0xb
 2179 0070 00       		.byte	0
 2180 0071 00       		.byte	0
 2181 0072 09       		.uleb128 0x9
 2182 0073 0D       		.uleb128 0xd
 2183 0074 00       		.byte	0
 2184 0075 03       		.uleb128 0x3
 2185 0076 0E       		.uleb128 0xe
 2186 0077 3A       		.uleb128 0x3a
 2187 0078 0B       		.uleb128 0xb
 2188 0079 3B       		.uleb128 0x3b
 2189 007a 05       		.uleb128 0x5
 2190 007b 49       		.uleb128 0x49
 2191 007c 13       		.uleb128 0x13
 2192 007d 38       		.uleb128 0x38
 2193 007e 0B       		.uleb128 0xb
 2194 007f 00       		.byte	0
 2195 0080 00       		.byte	0
 2196 0081 0A       		.uleb128 0xa
 2197 0082 0F       		.uleb128 0xf
 2198 0083 00       		.byte	0
 2199 0084 0B       		.uleb128 0xb
 2200 0085 0B       		.uleb128 0xb
 2201 0086 49       		.uleb128 0x49
 2202 0087 13       		.uleb128 0x13
 2203 0088 00       		.byte	0
 2204 0089 00       		.byte	0
 2205 008a 0B       		.uleb128 0xb
 2206 008b 13       		.uleb128 0x13
 2207 008c 01       		.byte	0x1
 2208 008d 03       		.uleb128 0x3
 2209 008e 0E       		.uleb128 0xe
 2210 008f 0B       		.uleb128 0xb
 2211 0090 0B       		.uleb128 0xb
 2212 0091 3A       		.uleb128 0x3a
 2213 0092 0B       		.uleb128 0xb
 2214 0093 3B       		.uleb128 0x3b
 2215 0094 05       		.uleb128 0x5
 2216 0095 01       		.uleb128 0x1
 2217 0096 13       		.uleb128 0x13
 2218 0097 00       		.byte	0
 2219 0098 00       		.byte	0
 2220 0099 0C       		.uleb128 0xc
 2221 009a 15       		.uleb128 0x15
 2222 009b 01       		.byte	0x1
 2223 009c 27       		.uleb128 0x27
ARM GAS  /tmp/ccFUmwJK.s 			page 40


 2224 009d 19       		.uleb128 0x19
 2225 009e 01       		.uleb128 0x1
 2226 009f 13       		.uleb128 0x13
 2227 00a0 00       		.byte	0
 2228 00a1 00       		.byte	0
 2229 00a2 0D       		.uleb128 0xd
 2230 00a3 05       		.uleb128 0x5
 2231 00a4 00       		.byte	0
 2232 00a5 49       		.uleb128 0x49
 2233 00a6 13       		.uleb128 0x13
 2234 00a7 00       		.byte	0
 2235 00a8 00       		.byte	0
 2236 00a9 0E       		.uleb128 0xe
 2237 00aa 0F       		.uleb128 0xf
 2238 00ab 00       		.byte	0
 2239 00ac 0B       		.uleb128 0xb
 2240 00ad 0B       		.uleb128 0xb
 2241 00ae 00       		.byte	0
 2242 00af 00       		.byte	0
 2243 00b0 0F       		.uleb128 0xf
 2244 00b1 35       		.uleb128 0x35
 2245 00b2 00       		.byte	0
 2246 00b3 49       		.uleb128 0x49
 2247 00b4 13       		.uleb128 0x13
 2248 00b5 00       		.byte	0
 2249 00b6 00       		.byte	0
 2250 00b7 10       		.uleb128 0x10
 2251 00b8 01       		.uleb128 0x1
 2252 00b9 01       		.byte	0x1
 2253 00ba 49       		.uleb128 0x49
 2254 00bb 13       		.uleb128 0x13
 2255 00bc 01       		.uleb128 0x1
 2256 00bd 13       		.uleb128 0x13
 2257 00be 00       		.byte	0
 2258 00bf 00       		.byte	0
 2259 00c0 11       		.uleb128 0x11
 2260 00c1 21       		.uleb128 0x21
 2261 00c2 00       		.byte	0
 2262 00c3 49       		.uleb128 0x49
 2263 00c4 13       		.uleb128 0x13
 2264 00c5 2F       		.uleb128 0x2f
 2265 00c6 0B       		.uleb128 0xb
 2266 00c7 00       		.byte	0
 2267 00c8 00       		.byte	0
 2268 00c9 12       		.uleb128 0x12
 2269 00ca 13       		.uleb128 0x13
 2270 00cb 01       		.byte	0x1
 2271 00cc 0B       		.uleb128 0xb
 2272 00cd 0B       		.uleb128 0xb
 2273 00ce 3A       		.uleb128 0x3a
 2274 00cf 0B       		.uleb128 0xb
 2275 00d0 3B       		.uleb128 0x3b
 2276 00d1 05       		.uleb128 0x5
 2277 00d2 01       		.uleb128 0x1
 2278 00d3 13       		.uleb128 0x13
 2279 00d4 00       		.byte	0
 2280 00d5 00       		.byte	0
ARM GAS  /tmp/ccFUmwJK.s 			page 41


 2281 00d6 13       		.uleb128 0x13
 2282 00d7 16       		.uleb128 0x16
 2283 00d8 00       		.byte	0
 2284 00d9 03       		.uleb128 0x3
 2285 00da 0E       		.uleb128 0xe
 2286 00db 3A       		.uleb128 0x3a
 2287 00dc 0B       		.uleb128 0xb
 2288 00dd 3B       		.uleb128 0x3b
 2289 00de 05       		.uleb128 0x5
 2290 00df 49       		.uleb128 0x49
 2291 00e0 13       		.uleb128 0x13
 2292 00e1 00       		.byte	0
 2293 00e2 00       		.byte	0
 2294 00e3 14       		.uleb128 0x14
 2295 00e4 13       		.uleb128 0x13
 2296 00e5 01       		.byte	0x1
 2297 00e6 0B       		.uleb128 0xb
 2298 00e7 0B       		.uleb128 0xb
 2299 00e8 3A       		.uleb128 0x3a
 2300 00e9 0B       		.uleb128 0xb
 2301 00ea 3B       		.uleb128 0x3b
 2302 00eb 0B       		.uleb128 0xb
 2303 00ec 01       		.uleb128 0x1
 2304 00ed 13       		.uleb128 0x13
 2305 00ee 00       		.byte	0
 2306 00ef 00       		.byte	0
 2307 00f0 15       		.uleb128 0x15
 2308 00f1 17       		.uleb128 0x17
 2309 00f2 01       		.byte	0x1
 2310 00f3 0B       		.uleb128 0xb
 2311 00f4 0B       		.uleb128 0xb
 2312 00f5 3A       		.uleb128 0x3a
 2313 00f6 0B       		.uleb128 0xb
 2314 00f7 3B       		.uleb128 0x3b
 2315 00f8 0B       		.uleb128 0xb
 2316 00f9 01       		.uleb128 0x1
 2317 00fa 13       		.uleb128 0x13
 2318 00fb 00       		.byte	0
 2319 00fc 00       		.byte	0
 2320 00fd 16       		.uleb128 0x16
 2321 00fe 0D       		.uleb128 0xd
 2322 00ff 00       		.byte	0
 2323 0100 03       		.uleb128 0x3
 2324 0101 0E       		.uleb128 0xe
 2325 0102 3A       		.uleb128 0x3a
 2326 0103 0B       		.uleb128 0xb
 2327 0104 3B       		.uleb128 0x3b
 2328 0105 0B       		.uleb128 0xb
 2329 0106 49       		.uleb128 0x49
 2330 0107 13       		.uleb128 0x13
 2331 0108 00       		.byte	0
 2332 0109 00       		.byte	0
 2333 010a 17       		.uleb128 0x17
 2334 010b 0D       		.uleb128 0xd
 2335 010c 00       		.byte	0
 2336 010d 03       		.uleb128 0x3
 2337 010e 0E       		.uleb128 0xe
ARM GAS  /tmp/ccFUmwJK.s 			page 42


 2338 010f 3A       		.uleb128 0x3a
 2339 0110 0B       		.uleb128 0xb
 2340 0111 3B       		.uleb128 0x3b
 2341 0112 05       		.uleb128 0x5
 2342 0113 49       		.uleb128 0x49
 2343 0114 13       		.uleb128 0x13
 2344 0115 00       		.byte	0
 2345 0116 00       		.byte	0
 2346 0117 18       		.uleb128 0x18
 2347 0118 26       		.uleb128 0x26
 2348 0119 00       		.byte	0
 2349 011a 49       		.uleb128 0x49
 2350 011b 13       		.uleb128 0x13
 2351 011c 00       		.byte	0
 2352 011d 00       		.byte	0
 2353 011e 19       		.uleb128 0x19
 2354 011f 0D       		.uleb128 0xd
 2355 0120 00       		.byte	0
 2356 0121 03       		.uleb128 0x3
 2357 0122 08       		.uleb128 0x8
 2358 0123 3A       		.uleb128 0x3a
 2359 0124 0B       		.uleb128 0xb
 2360 0125 3B       		.uleb128 0x3b
 2361 0126 0B       		.uleb128 0xb
 2362 0127 49       		.uleb128 0x49
 2363 0128 13       		.uleb128 0x13
 2364 0129 00       		.byte	0
 2365 012a 00       		.byte	0
 2366 012b 1A       		.uleb128 0x1a
 2367 012c 2E       		.uleb128 0x2e
 2368 012d 01       		.byte	0x1
 2369 012e 03       		.uleb128 0x3
 2370 012f 0E       		.uleb128 0xe
 2371 0130 3A       		.uleb128 0x3a
 2372 0131 0B       		.uleb128 0xb
 2373 0132 3B       		.uleb128 0x3b
 2374 0133 0B       		.uleb128 0xb
 2375 0134 27       		.uleb128 0x27
 2376 0135 19       		.uleb128 0x19
 2377 0136 11       		.uleb128 0x11
 2378 0137 01       		.uleb128 0x1
 2379 0138 12       		.uleb128 0x12
 2380 0139 06       		.uleb128 0x6
 2381 013a 40       		.uleb128 0x40
 2382 013b 18       		.uleb128 0x18
 2383 013c 9742     		.uleb128 0x2117
 2384 013e 19       		.uleb128 0x19
 2385 013f 01       		.uleb128 0x1
 2386 0140 13       		.uleb128 0x13
 2387 0141 00       		.byte	0
 2388 0142 00       		.byte	0
 2389 0143 1B       		.uleb128 0x1b
 2390 0144 05       		.uleb128 0x5
 2391 0145 00       		.byte	0
 2392 0146 03       		.uleb128 0x3
 2393 0147 0E       		.uleb128 0xe
 2394 0148 3A       		.uleb128 0x3a
ARM GAS  /tmp/ccFUmwJK.s 			page 43


 2395 0149 0B       		.uleb128 0xb
 2396 014a 3B       		.uleb128 0x3b
 2397 014b 0B       		.uleb128 0xb
 2398 014c 49       		.uleb128 0x49
 2399 014d 13       		.uleb128 0x13
 2400 014e 02       		.uleb128 0x2
 2401 014f 18       		.uleb128 0x18
 2402 0150 00       		.byte	0
 2403 0151 00       		.byte	0
 2404 0152 1C       		.uleb128 0x1c
 2405 0153 2E       		.uleb128 0x2e
 2406 0154 01       		.byte	0x1
 2407 0155 3F       		.uleb128 0x3f
 2408 0156 19       		.uleb128 0x19
 2409 0157 03       		.uleb128 0x3
 2410 0158 0E       		.uleb128 0xe
 2411 0159 3A       		.uleb128 0x3a
 2412 015a 0B       		.uleb128 0xb
 2413 015b 3B       		.uleb128 0x3b
 2414 015c 0B       		.uleb128 0xb
 2415 015d 27       		.uleb128 0x27
 2416 015e 19       		.uleb128 0x19
 2417 015f 11       		.uleb128 0x11
 2418 0160 01       		.uleb128 0x1
 2419 0161 12       		.uleb128 0x12
 2420 0162 06       		.uleb128 0x6
 2421 0163 40       		.uleb128 0x40
 2422 0164 18       		.uleb128 0x18
 2423 0165 9742     		.uleb128 0x2117
 2424 0167 19       		.uleb128 0x19
 2425 0168 01       		.uleb128 0x1
 2426 0169 13       		.uleb128 0x13
 2427 016a 00       		.byte	0
 2428 016b 00       		.byte	0
 2429 016c 1D       		.uleb128 0x1d
 2430 016d 05       		.uleb128 0x5
 2431 016e 00       		.byte	0
 2432 016f 03       		.uleb128 0x3
 2433 0170 0E       		.uleb128 0xe
 2434 0171 3A       		.uleb128 0x3a
 2435 0172 0B       		.uleb128 0xb
 2436 0173 3B       		.uleb128 0x3b
 2437 0174 0B       		.uleb128 0xb
 2438 0175 49       		.uleb128 0x49
 2439 0176 13       		.uleb128 0x13
 2440 0177 02       		.uleb128 0x2
 2441 0178 17       		.uleb128 0x17
 2442 0179 00       		.byte	0
 2443 017a 00       		.byte	0
 2444 017b 1E       		.uleb128 0x1e
 2445 017c 898201   		.uleb128 0x4109
 2446 017f 01       		.byte	0x1
 2447 0180 11       		.uleb128 0x11
 2448 0181 01       		.uleb128 0x1
 2449 0182 31       		.uleb128 0x31
 2450 0183 13       		.uleb128 0x13
 2451 0184 01       		.uleb128 0x1
ARM GAS  /tmp/ccFUmwJK.s 			page 44


 2452 0185 13       		.uleb128 0x13
 2453 0186 00       		.byte	0
 2454 0187 00       		.byte	0
 2455 0188 1F       		.uleb128 0x1f
 2456 0189 8A8201   		.uleb128 0x410a
 2457 018c 00       		.byte	0
 2458 018d 02       		.uleb128 0x2
 2459 018e 18       		.uleb128 0x18
 2460 018f 9142     		.uleb128 0x2111
 2461 0191 18       		.uleb128 0x18
 2462 0192 00       		.byte	0
 2463 0193 00       		.byte	0
 2464 0194 20       		.uleb128 0x20
 2465 0195 898201   		.uleb128 0x4109
 2466 0198 01       		.byte	0x1
 2467 0199 11       		.uleb128 0x11
 2468 019a 01       		.uleb128 0x1
 2469 019b 9542     		.uleb128 0x2115
 2470 019d 19       		.uleb128 0x19
 2471 019e 31       		.uleb128 0x31
 2472 019f 13       		.uleb128 0x13
 2473 01a0 00       		.byte	0
 2474 01a1 00       		.byte	0
 2475 01a2 21       		.uleb128 0x21
 2476 01a3 34       		.uleb128 0x34
 2477 01a4 00       		.byte	0
 2478 01a5 03       		.uleb128 0x3
 2479 01a6 0E       		.uleb128 0xe
 2480 01a7 3A       		.uleb128 0x3a
 2481 01a8 0B       		.uleb128 0xb
 2482 01a9 3B       		.uleb128 0x3b
 2483 01aa 0B       		.uleb128 0xb
 2484 01ab 49       		.uleb128 0x49
 2485 01ac 13       		.uleb128 0x13
 2486 01ad 02       		.uleb128 0x2
 2487 01ae 17       		.uleb128 0x17
 2488 01af 00       		.byte	0
 2489 01b0 00       		.byte	0
 2490 01b1 22       		.uleb128 0x22
 2491 01b2 34       		.uleb128 0x34
 2492 01b3 00       		.byte	0
 2493 01b4 03       		.uleb128 0x3
 2494 01b5 0E       		.uleb128 0xe
 2495 01b6 3A       		.uleb128 0x3a
 2496 01b7 0B       		.uleb128 0xb
 2497 01b8 3B       		.uleb128 0x3b
 2498 01b9 0B       		.uleb128 0xb
 2499 01ba 49       		.uleb128 0x49
 2500 01bb 13       		.uleb128 0x13
 2501 01bc 02       		.uleb128 0x2
 2502 01bd 18       		.uleb128 0x18
 2503 01be 00       		.byte	0
 2504 01bf 00       		.byte	0
 2505 01c0 23       		.uleb128 0x23
 2506 01c1 34       		.uleb128 0x34
 2507 01c2 00       		.byte	0
 2508 01c3 03       		.uleb128 0x3
ARM GAS  /tmp/ccFUmwJK.s 			page 45


 2509 01c4 08       		.uleb128 0x8
 2510 01c5 3A       		.uleb128 0x3a
 2511 01c6 0B       		.uleb128 0xb
 2512 01c7 3B       		.uleb128 0x3b
 2513 01c8 0B       		.uleb128 0xb
 2514 01c9 49       		.uleb128 0x49
 2515 01ca 13       		.uleb128 0x13
 2516 01cb 02       		.uleb128 0x2
 2517 01cc 17       		.uleb128 0x17
 2518 01cd 00       		.byte	0
 2519 01ce 00       		.byte	0
 2520 01cf 24       		.uleb128 0x24
 2521 01d0 0B       		.uleb128 0xb
 2522 01d1 01       		.byte	0x1
 2523 01d2 11       		.uleb128 0x11
 2524 01d3 01       		.uleb128 0x1
 2525 01d4 12       		.uleb128 0x12
 2526 01d5 06       		.uleb128 0x6
 2527 01d6 00       		.byte	0
 2528 01d7 00       		.byte	0
 2529 01d8 25       		.uleb128 0x25
 2530 01d9 34       		.uleb128 0x34
 2531 01da 00       		.byte	0
 2532 01db 03       		.uleb128 0x3
 2533 01dc 0E       		.uleb128 0xe
 2534 01dd 3A       		.uleb128 0x3a
 2535 01de 0B       		.uleb128 0xb
 2536 01df 3B       		.uleb128 0x3b
 2537 01e0 05       		.uleb128 0x5
 2538 01e1 49       		.uleb128 0x49
 2539 01e2 13       		.uleb128 0x13
 2540 01e3 3F       		.uleb128 0x3f
 2541 01e4 19       		.uleb128 0x19
 2542 01e5 3C       		.uleb128 0x3c
 2543 01e6 19       		.uleb128 0x19
 2544 01e7 00       		.byte	0
 2545 01e8 00       		.byte	0
 2546 01e9 26       		.uleb128 0x26
 2547 01ea 34       		.uleb128 0x34
 2548 01eb 00       		.byte	0
 2549 01ec 03       		.uleb128 0x3
 2550 01ed 08       		.uleb128 0x8
 2551 01ee 3A       		.uleb128 0x3a
 2552 01ef 0B       		.uleb128 0xb
 2553 01f0 3B       		.uleb128 0x3b
 2554 01f1 05       		.uleb128 0x5
 2555 01f2 49       		.uleb128 0x49
 2556 01f3 13       		.uleb128 0x13
 2557 01f4 3F       		.uleb128 0x3f
 2558 01f5 19       		.uleb128 0x19
 2559 01f6 3C       		.uleb128 0x3c
 2560 01f7 19       		.uleb128 0x19
 2561 01f8 00       		.byte	0
 2562 01f9 00       		.byte	0
 2563 01fa 00       		.byte	0
 2564              		.section	.debug_loc,"",%progbits
 2565              	.Ldebug_loc0:
ARM GAS  /tmp/ccFUmwJK.s 			page 46


 2566              	.LLST0:
 2567 0000 00000000 		.4byte	.LVL1
 2568 0004 1A000000 		.4byte	.LVL2
 2569 0008 0100     		.2byte	0x1
 2570 000a 50       		.byte	0x50
 2571 000b 1A000000 		.4byte	.LVL2
 2572 000f 1D000000 		.4byte	.LVL3-1
 2573 0013 0100     		.2byte	0x1
 2574 0015 51       		.byte	0x51
 2575 0016 1D000000 		.4byte	.LVL3-1
 2576 001a 6E000000 		.4byte	.LVL11
 2577 001e 0100     		.2byte	0x1
 2578 0020 54       		.byte	0x54
 2579 0021 6E000000 		.4byte	.LVL11
 2580 0025 71000000 		.4byte	.LVL12-1
 2581 0029 0400     		.2byte	0x4
 2582 002b 71       		.byte	0x71
 2583 002c A07E     		.sleb128 -224
 2584 002e 9F       		.byte	0x9f
 2585 002f 71000000 		.4byte	.LVL12-1
 2586 0033 9C000000 		.4byte	.LFE278
 2587 0037 0400     		.2byte	0x4
 2588 0039 F3       		.byte	0xf3
 2589 003a 01       		.uleb128 0x1
 2590 003b 50       		.byte	0x50
 2591 003c 9F       		.byte	0x9f
 2592 003d 00000000 		.4byte	0
 2593 0041 00000000 		.4byte	0
 2594              	.LLST1:
 2595 0045 00000000 		.4byte	.LVL13
 2596 0049 B6000000 		.4byte	.LVL29
 2597 004d 0100     		.2byte	0x1
 2598 004f 51       		.byte	0x51
 2599 0050 B6000000 		.4byte	.LVL29
 2600 0054 B8000000 		.4byte	.LVL30
 2601 0058 0500     		.2byte	0x5
 2602 005a 71       		.byte	0x71
 2603 005b 00       		.sleb128 0
 2604 005c 31       		.byte	0x31
 2605 005d 25       		.byte	0x25
 2606 005e 9F       		.byte	0x9f
 2607 005f B8000000 		.4byte	.LVL30
 2608 0063 D0000000 		.4byte	.LFE279
 2609 0067 0100     		.2byte	0x1
 2610 0069 51       		.byte	0x51
 2611 006a 00000000 		.4byte	0
 2612 006e 00000000 		.4byte	0
 2613              	.LLST2:
 2614 0072 00000000 		.4byte	.LVL13
 2615 0076 1A000000 		.4byte	.LVL18
 2616 007a 0100     		.2byte	0x1
 2617 007c 52       		.byte	0x52
 2618 007d 1A000000 		.4byte	.LVL18
 2619 0081 D0000000 		.4byte	.LFE279
 2620 0085 0400     		.2byte	0x4
 2621 0087 F3       		.byte	0xf3
 2622 0088 01       		.uleb128 0x1
ARM GAS  /tmp/ccFUmwJK.s 			page 47


 2623 0089 52       		.byte	0x52
 2624 008a 9F       		.byte	0x9f
 2625 008b 00000000 		.4byte	0
 2626 008f 00000000 		.4byte	0
 2627              	.LLST3:
 2628 0093 08000000 		.4byte	.LVL14
 2629 0097 1C000000 		.4byte	.LVL19
 2630 009b 0100     		.2byte	0x1
 2631 009d 59       		.byte	0x59
 2632 009e 1C000000 		.4byte	.LVL19
 2633 00a2 D0000000 		.4byte	.LFE279
 2634 00a6 0100     		.2byte	0x1
 2635 00a8 57       		.byte	0x57
 2636 00a9 00000000 		.4byte	0
 2637 00ad 00000000 		.4byte	0
 2638              	.LLST4:
 2639 00b1 1A000000 		.4byte	.LVL18
 2640 00b5 1C000000 		.4byte	.LVL19
 2641 00b9 0200     		.2byte	0x2
 2642 00bb 30       		.byte	0x30
 2643 00bc 9F       		.byte	0x9f
 2644 00bd 1C000000 		.4byte	.LVL19
 2645 00c1 D0000000 		.4byte	.LFE279
 2646 00c5 0100     		.2byte	0x1
 2647 00c7 55       		.byte	0x55
 2648 00c8 00000000 		.4byte	0
 2649 00cc 00000000 		.4byte	0
 2650              	.LLST5:
 2651 00d0 30000000 		.4byte	.LVL20
 2652 00d4 84000000 		.4byte	.LVL25
 2653 00d8 0100     		.2byte	0x1
 2654 00da 56       		.byte	0x56
 2655 00db 84000000 		.4byte	.LVL25
 2656 00df 94000000 		.4byte	.LVL27
 2657 00e3 0A00     		.2byte	0xa
 2658 00e5 72       		.byte	0x72
 2659 00e6 00       		.sleb128 0
 2660 00e7 75       		.byte	0x75
 2661 00e8 00       		.sleb128 0
 2662 00e9 37       		.byte	0x37
 2663 00ea 1A       		.byte	0x1a
 2664 00eb 32       		.byte	0x32
 2665 00ec 24       		.byte	0x24
 2666 00ed 24       		.byte	0x24
 2667 00ee 9F       		.byte	0x9f
 2668 00ef 94000000 		.4byte	.LVL27
 2669 00f3 B0000000 		.4byte	.LVL28
 2670 00f7 0100     		.2byte	0x1
 2671 00f9 56       		.byte	0x56
 2672 00fa B0000000 		.4byte	.LVL28
 2673 00fe B6000000 		.4byte	.LVL29
 2674 0102 0A00     		.2byte	0xa
 2675 0104 72       		.byte	0x72
 2676 0105 00       		.sleb128 0
 2677 0106 75       		.byte	0x75
 2678 0107 00       		.sleb128 0
 2679 0108 37       		.byte	0x37
ARM GAS  /tmp/ccFUmwJK.s 			page 48


 2680 0109 1A       		.byte	0x1a
 2681 010a 32       		.byte	0x32
 2682 010b 24       		.byte	0x24
 2683 010c 24       		.byte	0x24
 2684 010d 9F       		.byte	0x9f
 2685 010e 00000000 		.4byte	0
 2686 0112 00000000 		.4byte	0
 2687              	.LLST6:
 2688 0116 30000000 		.4byte	.LVL20
 2689 011a 36000000 		.4byte	.LVL21
 2690 011e 0500     		.2byte	0x5
 2691 0120 31       		.byte	0x31
 2692 0121 75       		.byte	0x75
 2693 0122 00       		.sleb128 0
 2694 0123 24       		.byte	0x24
 2695 0124 9F       		.byte	0x9f
 2696 0125 36000000 		.4byte	.LVL21
 2697 0129 3A000000 		.4byte	.LVL22
 2698 012d 0100     		.2byte	0x1
 2699 012f 53       		.byte	0x53
 2700 0130 3A000000 		.4byte	.LVL22
 2701 0134 B6000000 		.4byte	.LVL29
 2702 0138 0500     		.2byte	0x5
 2703 013a 31       		.byte	0x31
 2704 013b 75       		.byte	0x75
 2705 013c 00       		.sleb128 0
 2706 013d 24       		.byte	0x24
 2707 013e 9F       		.byte	0x9f
 2708 013f 00000000 		.4byte	0
 2709 0143 00000000 		.4byte	0
 2710              	.LLST7:
 2711 0147 30000000 		.4byte	.LVL20
 2712 014b 4C000000 		.4byte	.LVL23
 2713 014f 0700     		.2byte	0x7
 2714 0151 33       		.byte	0x33
 2715 0152 75       		.byte	0x75
 2716 0153 00       		.sleb128 0
 2717 0154 31       		.byte	0x31
 2718 0155 24       		.byte	0x24
 2719 0156 24       		.byte	0x24
 2720 0157 9F       		.byte	0x9f
 2721 0158 4C000000 		.4byte	.LVL23
 2722 015c 4E000000 		.4byte	.LVL24
 2723 0160 0100     		.2byte	0x1
 2724 0162 54       		.byte	0x54
 2725 0163 4E000000 		.4byte	.LVL24
 2726 0167 8E000000 		.4byte	.LVL26
 2727 016b 0400     		.2byte	0x4
 2728 016d 74       		.byte	0x74
 2729 016e 00       		.sleb128 0
 2730 016f 20       		.byte	0x20
 2731 0170 9F       		.byte	0x9f
 2732 0171 8E000000 		.4byte	.LVL26
 2733 0175 B6000000 		.4byte	.LVL29
 2734 0179 0700     		.2byte	0x7
 2735 017b 33       		.byte	0x33
 2736 017c 75       		.byte	0x75
ARM GAS  /tmp/ccFUmwJK.s 			page 49


 2737 017d 00       		.sleb128 0
 2738 017e 31       		.byte	0x31
 2739 017f 24       		.byte	0x24
 2740 0180 24       		.byte	0x24
 2741 0181 9F       		.byte	0x9f
 2742 0182 00000000 		.4byte	0
 2743 0186 00000000 		.4byte	0
 2744              	.LLST8:
 2745 018a 30000000 		.4byte	.LVL20
 2746 018e B6000000 		.4byte	.LVL29
 2747 0192 0100     		.2byte	0x1
 2748 0194 5B       		.byte	0x5b
 2749 0195 00000000 		.4byte	0
 2750 0199 00000000 		.4byte	0
 2751              		.section	.debug_aranges,"",%progbits
 2752 0000 2C000000 		.4byte	0x2c
 2753 0004 0200     		.2byte	0x2
 2754 0006 00000000 		.4byte	.Ldebug_info0
 2755 000a 04       		.byte	0x4
 2756 000b 00       		.byte	0
 2757 000c 0000     		.2byte	0
 2758 000e 0000     		.2byte	0
 2759 0010 00000000 		.4byte	.LFB277
 2760 0014 1E000000 		.4byte	.LFE277-.LFB277
 2761 0018 00000000 		.4byte	.LFB278
 2762 001c 9C000000 		.4byte	.LFE278-.LFB278
 2763 0020 00000000 		.4byte	.LFB279
 2764 0024 D0000000 		.4byte	.LFE279-.LFB279
 2765 0028 00000000 		.4byte	0
 2766 002c 00000000 		.4byte	0
 2767              		.section	.debug_ranges,"",%progbits
 2768              	.Ldebug_ranges0:
 2769 0000 00000000 		.4byte	.LFB277
 2770 0004 1E000000 		.4byte	.LFE277
 2771 0008 00000000 		.4byte	.LFB278
 2772 000c 9C000000 		.4byte	.LFE278
 2773 0010 00000000 		.4byte	.LFB279
 2774 0014 D0000000 		.4byte	.LFE279
 2775 0018 00000000 		.4byte	0
 2776 001c 00000000 		.4byte	0
 2777              		.section	.debug_line,"",%progbits
 2778              	.Ldebug_line0:
 2779 0000 D0020000 		.section	.debug_str,"MS",%progbits,1
 2779      02004402 
 2779      00000201 
 2779      FB0E0D00 
 2779      01010101 
 2780              	.LASF150:
 2781 0000 73746D33 		.ascii	"stm32_gpio_setup_t\000"
 2781      325F6770 
 2781      696F5F73 
 2781      65747570 
 2781      5F7400
 2782              	.LASF55:
 2783 0013 72656164 		.ascii	"ready_list_t\000"
 2783      795F6C69 
 2783      73745F74 
ARM GAS  /tmp/ccFUmwJK.s 			page 50


 2783      00
 2784              	.LASF123:
 2785 0020 77747472 		.ascii	"wttrp\000"
 2785      7000
 2786              	.LASF61:
 2787 0026 64656C74 		.ascii	"delta\000"
 2787      6100
 2788              	.LASF120:
 2789 002c 7264796D 		.ascii	"rdymsg\000"
 2789      736700
 2790              	.LASF18:
 2791 0033 75696E74 		.ascii	"uint64_t\000"
 2791      36345F74 
 2791      00
 2792              	.LASF4:
 2793 003c 5F5F7569 		.ascii	"__uint8_t\000"
 2793      6E74385F 
 2793      7400
 2794              	.LASF136:
 2795 0046 4F545950 		.ascii	"OTYPER\000"
 2795      455200
 2796              	.LASF107:
 2797 004d 706F7274 		.ascii	"port_intctx\000"
 2797      5F696E74 
 2797      63747800 
 2798              	.LASF53:
 2799 0059 63685F74 		.ascii	"ch_threads_queue\000"
 2799      68726561 
 2799      64735F71 
 2799      75657565 
 2799      00
 2800              	.LASF66:
 2801 006a 73797374 		.ascii	"system_debug_t\000"
 2801      656D5F64 
 2801      65627567 
 2801      5F7400
 2802              	.LASF161:
 2803 0079 696F706F 		.ascii	"ioportmask_t\000"
 2803      72746D61 
 2803      736B5F74 
 2803      00
 2804              	.LASF111:
 2805 0086 776F7273 		.ascii	"worst\000"
 2805      7400
 2806              	.LASF158:
 2807 008c 50484461 		.ascii	"PHData\000"
 2807      746100
 2808              	.LASF114:
 2809 0093 74696D65 		.ascii	"time_measurement_t\000"
 2809      5F6D6561 
 2809      73757265 
 2809      6D656E74 
 2809      5F7400
 2810              	.LASF135:
 2811 00a6 4D4F4445 		.ascii	"MODER\000"
 2811      5200
 2812              	.LASF13:
ARM GAS  /tmp/ccFUmwJK.s 			page 51


 2813 00ac 6C6F6E67 		.ascii	"long long unsigned int\000"
 2813      206C6F6E 
 2813      6720756E 
 2813      7369676E 
 2813      65642069 
 2814              	.LASF121:
 2815 00c3 65786974 		.ascii	"exitcode\000"
 2815      636F6465 
 2815      00
 2816              	.LASF73:
 2817 00cc 6D61696E 		.ascii	"mainthread\000"
 2817      74687265 
 2817      616400
 2818              	.LASF124:
 2819 00d7 73656E74 		.ascii	"sentmsg\000"
 2819      6D736700 
 2820              	.LASF63:
 2821 00df 76697274 		.ascii	"virtual_timers_list_t\000"
 2821      75616C5F 
 2821      74696D65 
 2821      72735F6C 
 2821      6973745F 
 2822              	.LASF173:
 2823 00f5 49544D5F 		.ascii	"ITM_RxBuffer\000"
 2823      52784275 
 2823      66666572 
 2823      00
 2824              	.LASF51:
 2825 0102 6E657874 		.ascii	"next\000"
 2825      00
 2826              	.LASF20:
 2827 0107 72747469 		.ascii	"rttime_t\000"
 2827      6D655F74 
 2827      00
 2828              	.LASF92:
 2829 0110 41484231 		.ascii	"AHB1LPENR\000"
 2829      4C50454E 
 2829      5200
 2830              	.LASF39:
 2831 011a 72656673 		.ascii	"refs\000"
 2831      00
 2832              	.LASF11:
 2833 011f 6C6F6E67 		.ascii	"long long int\000"
 2833      206C6F6E 
 2833      6720696E 
 2833      7400
 2834              	.LASF1:
 2835 012d 7369676E 		.ascii	"signed char\000"
 2835      65642063 
 2835      68617200 
 2836              	.LASF139:
 2837 0139 42535252 		.ascii	"BSRR\000"
 2837      00
 2838              	.LASF78:
 2839 013e 41484231 		.ascii	"AHB1RSTR\000"
 2839      52535452 
 2839      00
ARM GAS  /tmp/ccFUmwJK.s 			page 52


 2840              	.LASF144:
 2841 0147 6D6F6465 		.ascii	"moder\000"
 2841      7200
 2842              	.LASF176:
 2843 014d 2F686F6D 		.ascii	"/home/kozinalexey/f4by/ardupilot/build/f4by-ch\000"
 2843      652F6B6F 
 2843      7A696E61 
 2843      6C657865 
 2843      792F6634 
 2844              	.LASF41:
 2845 017c 6D736771 		.ascii	"msgqueue\000"
 2845      75657565 
 2845      00
 2846              	.LASF103:
 2847 0185 5243435F 		.ascii	"RCC_TypeDef\000"
 2847      54797065 
 2847      44656600 
 2848              	.LASF138:
 2849 0191 50555044 		.ascii	"PUPDR\000"
 2849      5200
 2850              	.LASF37:
 2851 0197 73746174 		.ascii	"state\000"
 2851      6500
 2852              	.LASF70:
 2853 019d 63685F73 		.ascii	"ch_system\000"
 2853      79737465 
 2853      6D00
 2854              	.LASF8:
 2855 01a7 6C6F6E67 		.ascii	"long int\000"
 2855      20696E74 
 2855      00
 2856              	.LASF155:
 2857 01b0 50454461 		.ascii	"PEData\000"
 2857      746100
 2858              	.LASF83:
 2859 01b7 41504232 		.ascii	"APB2RSTR\000"
 2859      52535452 
 2859      00
 2860              	.LASF96:
 2861 01c0 41504231 		.ascii	"APB1LPENR\000"
 2861      4C50454E 
 2861      5200
 2862              	.LASF22:
 2863 01ca 74737461 		.ascii	"tstate_t\000"
 2863      74655F74 
 2863      00
 2864              	.LASF62:
 2865 01d3 66756E63 		.ascii	"func\000"
 2865      00
 2866              	.LASF46:
 2867 01d8 73746174 		.ascii	"stats\000"
 2867      7300
 2868              	.LASF172:
 2869 01de 616C7472 		.ascii	"altrmask\000"
 2869      6D61736B 
 2869      00
 2870              	.LASF76:
ARM GAS  /tmp/ccFUmwJK.s 			page 53


 2871 01e7 504C4C43 		.ascii	"PLLCFGR\000"
 2871      46475200 
 2872              	.LASF137:
 2873 01ef 4F535045 		.ascii	"OSPEEDR\000"
 2873      45445200 
 2874              	.LASF9:
 2875 01f7 5F5F7569 		.ascii	"__uint32_t\000"
 2875      6E743332 
 2875      5F7400
 2876              	.LASF169:
 2877 0202 6D61736B 		.ascii	"mask\000"
 2877      00
 2878              	.LASF104:
 2879 0207 72656761 		.ascii	"regarm_t\000"
 2879      726D5F74 
 2879      00
 2880              	.LASF72:
 2881 0210 76746C69 		.ascii	"vtlist\000"
 2881      737400
 2882              	.LASF67:
 2883 0217 63685F73 		.ascii	"ch_system_debug\000"
 2883      79737465 
 2883      6D5F6465 
 2883      62756700 
 2884              	.LASF40:
 2885 0227 77616974 		.ascii	"waiting\000"
 2885      696E6700 
 2886              	.LASF143:
 2887 022f 73746D33 		.ascii	"stm32_gpio_t\000"
 2887      325F6770 
 2887      696F5F74 
 2887      00
 2888              	.LASF168:
 2889 023c 706F7274 		.ascii	"port\000"
 2889      00
 2890              	.LASF132:
 2891 0241 6D757465 		.ascii	"mutex_t\000"
 2891      785F7400 
 2892              	.LASF152:
 2893 0249 50424461 		.ascii	"PBData\000"
 2893      746100
 2894              	.LASF106:
 2895 0250 706F7274 		.ascii	"port_context\000"
 2895      5F636F6E 
 2895      74657874 
 2895      00
 2896              	.LASF27:
 2897 025d 636E745F 		.ascii	"cnt_t\000"
 2897      7400
 2898              	.LASF0:
 2899 0263 756E7369 		.ascii	"unsigned int\000"
 2899      676E6564 
 2899      20696E74 
 2899      00
 2900              	.LASF174:
 2901 0270 474E5520 		.ascii	"GNU C 4.9.3 20150529 (prerelease) -mcpu=cortex-m4 -"
 2901      4320342E 
ARM GAS  /tmp/ccFUmwJK.s 			page 54


 2901      392E3320 
 2901      32303135 
 2901      30353239 
 2902 02a3 6D666C6F 		.ascii	"mfloat-abi=hard -mfpu=fpv4-sp-d16 -mno-thumb-interw"
 2902      61742D61 
 2902      62693D68 
 2902      61726420 
 2902      2D6D6670 
 2903 02d6 6F726B20 		.ascii	"ork -mthumb -g -Os -fomit-frame-pointer -falign-fun"
 2903      2D6D7468 
 2903      756D6220 
 2903      2D67202D 
 2903      4F73202D 
 2904 0309 6374696F 		.ascii	"ctions=16 -ffunction-sections -fdata-sections -fno-"
 2904      6E733D31 
 2904      36202D66 
 2904      66756E63 
 2904      74696F6E 
 2905 033c 636F6D6D 		.ascii	"common -fsingle-precision-constant\000"
 2905      6F6E202D 
 2905      6673696E 
 2905      676C652D 
 2905      70726563 
 2906              	.LASF15:
 2907 035f 75696E74 		.ascii	"uint16_t\000"
 2907      31365F74 
 2907      00
 2908              	.LASF125:
 2909 0368 77747365 		.ascii	"wtsemp\000"
 2909      6D7000
 2910              	.LASF146:
 2911 036f 6F737065 		.ascii	"ospeedr\000"
 2911      65647200 
 2912              	.LASF140:
 2913 0377 4C434B52 		.ascii	"LCKR\000"
 2913      00
 2914              	.LASF115:
 2915 037c 6E5F6972 		.ascii	"n_irq\000"
 2915      7100
 2916              	.LASF31:
 2917 0382 71756575 		.ascii	"queue\000"
 2917      6500
 2918              	.LASF145:
 2919 0388 6F747970 		.ascii	"otyper\000"
 2919      657200
 2920              	.LASF45:
 2921 038f 6D706F6F 		.ascii	"mpool\000"
 2921      6C00
 2922              	.LASF6:
 2923 0395 73686F72 		.ascii	"short unsigned int\000"
 2923      7420756E 
 2923      7369676E 
 2923      65642069 
 2923      6E7400
 2924              	.LASF119:
 2925 03a8 6B65726E 		.ascii	"kernel_stats_t\000"
 2925      656C5F73 
ARM GAS  /tmp/ccFUmwJK.s 			page 55


 2925      74617473 
 2925      5F7400
 2926              	.LASF35:
 2927 03b7 6E616D65 		.ascii	"name\000"
 2927      00
 2928              	.LASF49:
 2929 03bc 63685F74 		.ascii	"ch_thread\000"
 2929      68726561 
 2929      6400
 2930              	.LASF102:
 2931 03c6 504C4C49 		.ascii	"PLLI2SCFGR\000"
 2931      32534346 
 2931      475200
 2932              	.LASF25:
 2933 03d1 6D73675F 		.ascii	"msg_t\000"
 2933      7400
 2934              	.LASF80:
 2935 03d7 41484233 		.ascii	"AHB3RSTR\000"
 2935      52535452 
 2935      00
 2936              	.LASF28:
 2937 03e0 75636E74 		.ascii	"ucnt_t\000"
 2937      5F7400
 2938              	.LASF42:
 2939 03e7 6570656E 		.ascii	"epending\000"
 2939      64696E67 
 2939      00
 2940              	.LASF69:
 2941 03f0 63685F73 		.ascii	"ch_system_t\000"
 2941      79737465 
 2941      6D5F7400 
 2942              	.LASF21:
 2943 03fc 746D6F64 		.ascii	"tmode_t\000"
 2943      655F7400 
 2944              	.LASF97:
 2945 0404 41504232 		.ascii	"APB2LPENR\000"
 2945      4C50454E 
 2945      5200
 2946              	.LASF118:
 2947 040e 6D5F6372 		.ascii	"m_crit_isr\000"
 2947      69745F69 
 2947      737200
 2948              	.LASF56:
 2949 0419 63685F72 		.ascii	"ch_ready_list\000"
 2949      65616479 
 2949      5F6C6973 
 2949      7400
 2950              	.LASF26:
 2951 0427 6576656E 		.ascii	"eventmask_t\000"
 2951      746D6173 
 2951      6B5F7400 
 2952              	.LASF7:
 2953 0433 5F5F696E 		.ascii	"__int32_t\000"
 2953      7433325F 
 2953      7400
 2954              	.LASF157:
 2955 043d 50474461 		.ascii	"PGData\000"
ARM GAS  /tmp/ccFUmwJK.s 			page 56


 2955      746100
 2956              	.LASF105:
 2957 0444 73746B61 		.ascii	"stkalign_t\000"
 2957      6C69676E 
 2957      5F7400
 2958              	.LASF33:
 2959 044f 6E657765 		.ascii	"newer\000"
 2959      7200
 2960              	.LASF59:
 2961 0455 76697274 		.ascii	"virtual_timer_t\000"
 2961      75616C5F 
 2961      74696D65 
 2961      725F7400 
 2962              	.LASF44:
 2963 0465 7265616C 		.ascii	"realprio\000"
 2963      7072696F 
 2963      00
 2964              	.LASF75:
 2965 046e 73697A65 		.ascii	"sizetype\000"
 2965      74797065 
 2965      00
 2966              	.LASF47:
 2967 0477 74687265 		.ascii	"thread_reference_t\000"
 2967      61645F72 
 2967      65666572 
 2967      656E6365 
 2967      5F7400
 2968              	.LASF64:
 2969 048a 63685F76 		.ascii	"ch_virtual_timers_list\000"
 2969      69727475 
 2969      616C5F74 
 2969      696D6572 
 2969      735F6C69 
 2970              	.LASF134:
 2971 04a1 636C6561 		.ascii	"clear\000"
 2971      7200
 2972              	.LASF87:
 2973 04a7 41484233 		.ascii	"AHB3ENR\000"
 2973      454E5200 
 2974              	.LASF48:
 2975 04af 74687265 		.ascii	"threads_list_t\000"
 2975      6164735F 
 2975      6C697374 
 2975      5F7400
 2976              	.LASF93:
 2977 04be 41484232 		.ascii	"AHB2LPENR\000"
 2977      4C50454E 
 2977      5200
 2978              	.LASF109:
 2979 04c8 746D5F63 		.ascii	"tm_calibration_t\000"
 2979      616C6962 
 2979      72617469 
 2979      6F6E5F74 
 2979      00
 2980              	.LASF149:
 2981 04d9 61667268 		.ascii	"afrh\000"
 2981      00
ARM GAS  /tmp/ccFUmwJK.s 			page 57


 2982              	.LASF154:
 2983 04de 50444461 		.ascii	"PDData\000"
 2983      746100
 2984              	.LASF32:
 2985 04e5 7072696F 		.ascii	"prio\000"
 2985      00
 2986              	.LASF82:
 2987 04ea 41504231 		.ascii	"APB1RSTR\000"
 2987      52535452 
 2987      00
 2988              	.LASF57:
 2989 04f3 63757272 		.ascii	"current\000"
 2989      656E7400 
 2990              	.LASF12:
 2991 04fb 5F5F7569 		.ascii	"__uint64_t\000"
 2991      6E743634 
 2991      5F7400
 2992              	.LASF142:
 2993 0506 41465248 		.ascii	"AFRH\000"
 2993      00
 2994              	.LASF113:
 2995 050b 63756D75 		.ascii	"cumulative\000"
 2995      6C617469 
 2995      766500
 2996              	.LASF141:
 2997 0516 4146524C 		.ascii	"AFRL\000"
 2997      00
 2998              	.LASF23:
 2999 051b 74726566 		.ascii	"trefs_t\000"
 2999      735F7400 
 3000              	.LASF81:
 3001 0523 52455345 		.ascii	"RESERVED0\000"
 3001      52564544 
 3001      3000
 3002              	.LASF84:
 3003 052d 52455345 		.ascii	"RESERVED1\000"
 3003      52564544 
 3003      3100
 3004              	.LASF88:
 3005 0537 52455345 		.ascii	"RESERVED2\000"
 3005      52564544 
 3005      3200
 3006              	.LASF91:
 3007 0541 52455345 		.ascii	"RESERVED3\000"
 3007      52564544 
 3007      3300
 3008              	.LASF95:
 3009 054b 52455345 		.ascii	"RESERVED4\000"
 3009      52564544 
 3009      3400
 3010              	.LASF98:
 3011 0555 52455345 		.ascii	"RESERVED5\000"
 3011      52564544 
 3011      3500
 3012              	.LASF100:
 3013 055f 52455345 		.ascii	"RESERVED6\000"
 3013      52564544 
ARM GAS  /tmp/ccFUmwJK.s 			page 58


 3013      3600
 3014              	.LASF24:
 3015 0569 74707269 		.ascii	"tprio_t\000"
 3015      6F5F7400 
 3016              	.LASF116:
 3017 0571 6E5F6374 		.ascii	"n_ctxswc\000"
 3017      78737763 
 3017      00
 3018              	.LASF133:
 3019 057a 5F426F6F 		.ascii	"_Bool\000"
 3019      6C00
 3020              	.LASF16:
 3021 0580 696E7433 		.ascii	"int32_t\000"
 3021      325F7400 
 3022              	.LASF2:
 3023 0588 756E7369 		.ascii	"unsigned char\000"
 3023      676E6564 
 3023      20636861 
 3023      7200
 3024              	.LASF148:
 3025 0596 6166726C 		.ascii	"afrl\000"
 3025      00
 3026              	.LASF3:
 3027 059b 73686F72 		.ascii	"short int\000"
 3027      7420696E 
 3027      7400
 3028              	.LASF65:
 3029 05a5 6C617374 		.ascii	"lasttime\000"
 3029      74696D65 
 3029      00
 3030              	.LASF94:
 3031 05ae 41484233 		.ascii	"AHB3LPENR\000"
 3031      4C50454E 
 3031      5200
 3032              	.LASF175:
 3033 05b8 2E2E2F2E 		.ascii	"../../modules/ChibiOS/os/hal/ports/STM32/LLD/GPIOv2"
 3033      2E2F6D6F 
 3033      64756C65 
 3033      732F4368 
 3033      6962694F 
 3034 05eb 2F68616C 		.ascii	"/hal_pal_lld.c\000"
 3034      5F70616C 
 3034      5F6C6C64 
 3034      2E6300
 3035              	.LASF151:
 3036 05fa 50414461 		.ascii	"PAData\000"
 3036      746100
 3037              	.LASF127:
 3038 0601 65776D61 		.ascii	"ewmask\000"
 3038      736B00
 3039              	.LASF164:
 3040 0608 6770696F 		.ascii	"gpiop\000"
 3040      7000
 3041              	.LASF90:
 3042 060e 41504232 		.ascii	"APB2ENR\000"
 3042      454E5200 
 3043              	.LASF159:
ARM GAS  /tmp/ccFUmwJK.s 			page 59


 3044 0616 50494461 		.ascii	"PIData\000"
 3044      746100
 3045              	.LASF60:
 3046 061d 63685F76 		.ascii	"ch_virtual_timer\000"
 3046      69727475 
 3046      616C5F74 
 3046      696D6572 
 3046      00
 3047              	.LASF128:
 3048 062e 63685F73 		.ascii	"ch_semaphore\000"
 3048      656D6170 
 3048      686F7265 
 3048      00
 3049              	.LASF17:
 3050 063b 75696E74 		.ascii	"uint32_t\000"
 3050      33325F74 
 3050      00
 3051              	.LASF126:
 3052 0644 77746D74 		.ascii	"wtmtxp\000"
 3052      787000
 3053              	.LASF50:
 3054 064b 63685F74 		.ascii	"ch_threads_list\000"
 3054      68726561 
 3054      64735F6C 
 3054      69737400 
 3055              	.LASF130:
 3056 065b 6F776E65 		.ascii	"owner\000"
 3056      7200
 3057              	.LASF10:
 3058 0661 6C6F6E67 		.ascii	"long unsigned int\000"
 3058      20756E73 
 3058      69676E65 
 3058      6420696E 
 3058      7400
 3059              	.LASF36:
 3060 0673 77616261 		.ascii	"wabase\000"
 3060      736500
 3061              	.LASF171:
 3062 067a 616C7472 		.ascii	"altr\000"
 3062      00
 3063              	.LASF131:
 3064 067f 63686172 		.ascii	"char\000"
 3064      00
 3065              	.LASF34:
 3066 0684 6F6C6465 		.ascii	"older\000"
 3066      7200
 3067              	.LASF170:
 3068 068a 6D6F6465 		.ascii	"mode\000"
 3068      00
 3069              	.LASF165:
 3070 068f 636F6E66 		.ascii	"config\000"
 3070      696700
 3071              	.LASF5:
 3072 0696 5F5F7569 		.ascii	"__uint16_t\000"
 3072      6E743136 
 3072      5F7400
 3073              	.LASF79:
ARM GAS  /tmp/ccFUmwJK.s 			page 60


 3074 06a1 41484232 		.ascii	"AHB2RSTR\000"
 3074      52535452 
 3074      00
 3075              	.LASF30:
 3076 06aa 74687265 		.ascii	"thread_t\000"
 3076      61645F74 
 3076      00
 3077              	.LASF110:
 3078 06b3 62657374 		.ascii	"best\000"
 3078      00
 3079              	.LASF29:
 3080 06b8 73797374 		.ascii	"systime_t\000"
 3080      696D655F 
 3080      7400
 3081              	.LASF58:
 3082 06c2 76746675 		.ascii	"vtfunc_t\000"
 3082      6E635F74 
 3082      00
 3083              	.LASF112:
 3084 06cb 6C617374 		.ascii	"last\000"
 3084      00
 3085              	.LASF177:
 3086 06d0 696E6974 		.ascii	"initgpio\000"
 3086      6770696F 
 3086      00
 3087              	.LASF68:
 3088 06d9 70616E69 		.ascii	"panic_msg\000"
 3088      635F6D73 
 3088      6700
 3089              	.LASF108:
 3090 06e3 6F666673 		.ascii	"offset\000"
 3090      657400
 3091              	.LASF89:
 3092 06ea 41504231 		.ascii	"APB1ENR\000"
 3092      454E5200 
 3093              	.LASF163:
 3094 06f2 696F706F 		.ascii	"ioportid_t\000"
 3094      72746964 
 3094      5F7400
 3095              	.LASF86:
 3096 06fd 41484232 		.ascii	"AHB2ENR\000"
 3096      454E5200 
 3097              	.LASF74:
 3098 0705 6B65726E 		.ascii	"kernel_stats\000"
 3098      656C5F73 
 3098      74617473 
 3098      00
 3099              	.LASF167:
 3100 0712 5F70616C 		.ascii	"_pal_lld_setgroupmode\000"
 3100      5F6C6C64 
 3100      5F736574 
 3100      67726F75 
 3100      706D6F64 
 3101              	.LASF19:
 3102 0728 7274636E 		.ascii	"rtcnt_t\000"
 3102      745F7400 
 3103              	.LASF160:
ARM GAS  /tmp/ccFUmwJK.s 			page 61


 3104 0730 50414C43 		.ascii	"PALConfig\000"
 3104      6F6E6669 
 3104      6700
 3105              	.LASF101:
 3106 073a 53534347 		.ascii	"SSCGR\000"
 3106      5200
 3107              	.LASF52:
 3108 0740 74687265 		.ascii	"threads_queue_t\000"
 3108      6164735F 
 3108      71756575 
 3108      655F7400 
 3109              	.LASF129:
 3110 0750 63685F6D 		.ascii	"ch_mutex\000"
 3110      75746578 
 3110      00
 3111              	.LASF166:
 3112 0759 5F70616C 		.ascii	"_pal_lld_init\000"
 3112      5F6C6C64 
 3112      5F696E69 
 3112      7400
 3113              	.LASF99:
 3114 0767 42444352 		.ascii	"BDCR\000"
 3114      00
 3115              	.LASF71:
 3116 076c 726C6973 		.ascii	"rlist\000"
 3116      7400
 3117              	.LASF14:
 3118 0772 75696E74 		.ascii	"uint8_t\000"
 3118      385F7400 
 3119              	.LASF147:
 3120 077a 70757064 		.ascii	"pupdr\000"
 3120      7200
 3121              	.LASF38:
 3122 0780 666C6167 		.ascii	"flags\000"
 3122      7300
 3123              	.LASF122:
 3124 0786 77746F62 		.ascii	"wtobjp\000"
 3124      6A7000
 3125              	.LASF85:
 3126 078d 41484231 		.ascii	"AHB1ENR\000"
 3126      454E5200 
 3127              	.LASF153:
 3128 0795 50434461 		.ascii	"PCData\000"
 3128      746100
 3129              	.LASF77:
 3130 079c 43464752 		.ascii	"CFGR\000"
 3130      00
 3131              	.LASF54:
 3132 07a1 70726576 		.ascii	"prev\000"
 3132      00
 3133              	.LASF156:
 3134 07a6 50464461 		.ascii	"PFData\000"
 3134      746100
 3135              	.LASF43:
 3136 07ad 6D74786C 		.ascii	"mtxlist\000"
 3136      69737400 
 3137              	.LASF162:
ARM GAS  /tmp/ccFUmwJK.s 			page 62


 3138 07b5 696F6D6F 		.ascii	"iomode_t\000"
 3138      64655F74 
 3138      00
 3139              	.LASF117:
 3140 07be 6D5F6372 		.ascii	"m_crit_thd\000"
 3140      69745F74 
 3140      686400
 3141              		.ident	"GCC: (15:4.9.3+svn231177-1) 4.9.3 20150529 (prerelease)"
ARM GAS  /tmp/ccFUmwJK.s 			page 63


DEFINED SYMBOLS
                            *ABS*:0000000000000000 hal_pal_lld.c
     /tmp/ccFUmwJK.s:21     .text.initgpio:0000000000000000 $t
     /tmp/ccFUmwJK.s:25     .text.initgpio:0000000000000000 initgpio
     /tmp/ccFUmwJK.s:60     .text._pal_lld_init:0000000000000000 $t
     /tmp/ccFUmwJK.s:65     .text._pal_lld_init:0000000000000000 _pal_lld_init
     /tmp/ccFUmwJK.s:147    .text._pal_lld_init:0000000000000074 $d
     /tmp/ccFUmwJK.s:161    .text._pal_lld_setgroupmode:0000000000000000 $t
     /tmp/ccFUmwJK.s:166    .text._pal_lld_setgroupmode:0000000000000000 _pal_lld_setgroupmode
                     .debug_frame:0000000000000010 $d

NO UNDEFINED SYMBOLS
