ARM GAS  /tmp/ccFu9jx6.s 			page 1


   1              		.syntax unified
   2              		.cpu cortex-m4
   3              		.eabi_attribute 27, 1
   4              		.eabi_attribute 28, 1
   5              		.fpu fpv4-sp-d16
   6              		.eabi_attribute 20, 1
   7              		.eabi_attribute 21, 1
   8              		.eabi_attribute 23, 3
   9              		.eabi_attribute 24, 1
  10              		.eabi_attribute 25, 1
  11              		.eabi_attribute 26, 1
  12              		.eabi_attribute 30, 4
  13              		.eabi_attribute 34, 1
  14              		.eabi_attribute 18, 4
  15              		.thumb
  16              		.file	"hal_ext_lld_isr.c"
  17              		.text
  18              	.Ltext0:
  19              		.cfi_sections	.debug_frame
  20              		.section	.text.Vector58,"ax",%progbits
  21              		.align	1
  22              		.global	Vector58
  23              		.thumb
  24              		.thumb_func
  25              		.type	Vector58, %function
  26              	Vector58:
  27              	.LFB277:
  28              		.file 1 "../../modules/ChibiOS/os/hal/ports/STM32/STM32F4xx/hal_ext_lld_isr.c"
  29              		.loc 1 56 0
  30              		.cfi_startproc
  31              		@ args = 0, pretend = 0, frame = 0
  32              		@ frame_needed = 0, uses_anonymous_args = 0
  33 0000 08B5     		push	{r3, lr}
  34              		.cfi_def_cfa_offset 8
  35              		.cfi_offset 3, -8
  36              		.cfi_offset 14, -4
  37              		.loc 1 59 0
  38 0002 FFF7FEFF 		bl	_stats_increase_irq
  39              	.LVL0:
  40              		.loc 1 61 0
  41 0006 084A     		ldr	r2, .L7
  42 0008 5169     		ldr	r1, [r2, #20]
  43              	.LVL1:
  44              		.loc 1 62 0
  45 000a 1368     		ldr	r3, [r2]
  46 000c 0B40     		ands	r3, r3, r1
  47 000e 03F00103 		and	r3, r3, #1
  48              	.LVL2:
  49              		.loc 1 63 0
  50 0012 5361     		str	r3, [r2, #20]
  51              		.loc 1 64 0
  52 0014 23B1     		cbz	r3, .L2
  53              		.loc 1 65 0
  54 0016 0548     		ldr	r0, .L7+4
  55 0018 4368     		ldr	r3, [r0, #4]
  56              	.LVL3:
  57 001a 0021     		movs	r1, #0
ARM GAS  /tmp/ccFu9jx6.s 			page 2


  58 001c 5B68     		ldr	r3, [r3, #4]
  59 001e 9847     		blx	r3
  60              	.LVL4:
  61              	.L2:
  62              		.loc 1 68 0
  63 0020 BDE80840 		pop	{r3, lr}
  64              		.cfi_restore 14
  65              		.cfi_restore 3
  66              		.cfi_def_cfa_offset 0
  67              		.loc 1 67 0
  68 0024 FFF7FEBF 		b	_port_irq_epilogue
  69              	.LVL5:
  70              	.L8:
  71              		.align	2
  72              	.L7:
  73 0028 003C0140 		.word	1073822720
  74 002c 00000000 		.word	EXTD1
  75              		.cfi_endproc
  76              	.LFE277:
  77              		.size	Vector58, .-Vector58
  78              		.section	.text.Vector5C,"ax",%progbits
  79              		.align	1
  80              		.global	Vector5C
  81              		.thumb
  82              		.thumb_func
  83              		.type	Vector5C, %function
  84              	Vector5C:
  85              	.LFB278:
  86              		.loc 1 75 0
  87              		.cfi_startproc
  88              		@ args = 0, pretend = 0, frame = 0
  89              		@ frame_needed = 0, uses_anonymous_args = 0
  90 0000 08B5     		push	{r3, lr}
  91              		.cfi_def_cfa_offset 8
  92              		.cfi_offset 3, -8
  93              		.cfi_offset 14, -4
  94              		.loc 1 78 0
  95 0002 FFF7FEFF 		bl	_stats_increase_irq
  96              	.LVL6:
  97              		.loc 1 80 0
  98 0006 084A     		ldr	r2, .L14
  99 0008 5169     		ldr	r1, [r2, #20]
 100              	.LVL7:
 101              		.loc 1 81 0
 102 000a 1368     		ldr	r3, [r2]
 103 000c 0B40     		ands	r3, r3, r1
 104 000e 03F00203 		and	r3, r3, #2
 105              	.LVL8:
 106              		.loc 1 82 0
 107 0012 5361     		str	r3, [r2, #20]
 108              		.loc 1 83 0
 109 0014 23B1     		cbz	r3, .L10
 110              		.loc 1 84 0
 111 0016 0548     		ldr	r0, .L14+4
 112 0018 4368     		ldr	r3, [r0, #4]
 113              	.LVL9:
 114 001a 0121     		movs	r1, #1
ARM GAS  /tmp/ccFu9jx6.s 			page 3


 115 001c DB68     		ldr	r3, [r3, #12]
 116 001e 9847     		blx	r3
 117              	.LVL10:
 118              	.L10:
 119              		.loc 1 87 0
 120 0020 BDE80840 		pop	{r3, lr}
 121              		.cfi_restore 14
 122              		.cfi_restore 3
 123              		.cfi_def_cfa_offset 0
 124              		.loc 1 86 0
 125 0024 FFF7FEBF 		b	_port_irq_epilogue
 126              	.LVL11:
 127              	.L15:
 128              		.align	2
 129              	.L14:
 130 0028 003C0140 		.word	1073822720
 131 002c 00000000 		.word	EXTD1
 132              		.cfi_endproc
 133              	.LFE278:
 134              		.size	Vector5C, .-Vector5C
 135              		.section	.text.Vector60,"ax",%progbits
 136              		.align	1
 137              		.global	Vector60
 138              		.thumb
 139              		.thumb_func
 140              		.type	Vector60, %function
 141              	Vector60:
 142              	.LFB279:
 143              		.loc 1 94 0
 144              		.cfi_startproc
 145              		@ args = 0, pretend = 0, frame = 0
 146              		@ frame_needed = 0, uses_anonymous_args = 0
 147 0000 08B5     		push	{r3, lr}
 148              		.cfi_def_cfa_offset 8
 149              		.cfi_offset 3, -8
 150              		.cfi_offset 14, -4
 151              		.loc 1 97 0
 152 0002 FFF7FEFF 		bl	_stats_increase_irq
 153              	.LVL12:
 154              		.loc 1 99 0
 155 0006 084A     		ldr	r2, .L21
 156 0008 5169     		ldr	r1, [r2, #20]
 157              	.LVL13:
 158              		.loc 1 100 0
 159 000a 1368     		ldr	r3, [r2]
 160 000c 0B40     		ands	r3, r3, r1
 161 000e 03F00403 		and	r3, r3, #4
 162              	.LVL14:
 163              		.loc 1 101 0
 164 0012 5361     		str	r3, [r2, #20]
 165              		.loc 1 102 0
 166 0014 23B1     		cbz	r3, .L17
 167              		.loc 1 103 0
 168 0016 0548     		ldr	r0, .L21+4
 169 0018 4368     		ldr	r3, [r0, #4]
 170              	.LVL15:
 171 001a 0221     		movs	r1, #2
ARM GAS  /tmp/ccFu9jx6.s 			page 4


 172 001c 5B69     		ldr	r3, [r3, #20]
 173 001e 9847     		blx	r3
 174              	.LVL16:
 175              	.L17:
 176              		.loc 1 106 0
 177 0020 BDE80840 		pop	{r3, lr}
 178              		.cfi_restore 14
 179              		.cfi_restore 3
 180              		.cfi_def_cfa_offset 0
 181              		.loc 1 105 0
 182 0024 FFF7FEBF 		b	_port_irq_epilogue
 183              	.LVL17:
 184              	.L22:
 185              		.align	2
 186              	.L21:
 187 0028 003C0140 		.word	1073822720
 188 002c 00000000 		.word	EXTD1
 189              		.cfi_endproc
 190              	.LFE279:
 191              		.size	Vector60, .-Vector60
 192              		.section	.text.Vector64,"ax",%progbits
 193              		.align	1
 194              		.global	Vector64
 195              		.thumb
 196              		.thumb_func
 197              		.type	Vector64, %function
 198              	Vector64:
 199              	.LFB280:
 200              		.loc 1 113 0
 201              		.cfi_startproc
 202              		@ args = 0, pretend = 0, frame = 0
 203              		@ frame_needed = 0, uses_anonymous_args = 0
 204 0000 08B5     		push	{r3, lr}
 205              		.cfi_def_cfa_offset 8
 206              		.cfi_offset 3, -8
 207              		.cfi_offset 14, -4
 208              		.loc 1 116 0
 209 0002 FFF7FEFF 		bl	_stats_increase_irq
 210              	.LVL18:
 211              		.loc 1 118 0
 212 0006 084A     		ldr	r2, .L28
 213 0008 5169     		ldr	r1, [r2, #20]
 214              	.LVL19:
 215              		.loc 1 119 0
 216 000a 1368     		ldr	r3, [r2]
 217 000c 0B40     		ands	r3, r3, r1
 218 000e 03F00803 		and	r3, r3, #8
 219              	.LVL20:
 220              		.loc 1 120 0
 221 0012 5361     		str	r3, [r2, #20]
 222              		.loc 1 121 0
 223 0014 23B1     		cbz	r3, .L24
 224              		.loc 1 122 0
 225 0016 0548     		ldr	r0, .L28+4
 226 0018 4368     		ldr	r3, [r0, #4]
 227              	.LVL21:
 228 001a 0321     		movs	r1, #3
ARM GAS  /tmp/ccFu9jx6.s 			page 5


 229 001c DB69     		ldr	r3, [r3, #28]
 230 001e 9847     		blx	r3
 231              	.LVL22:
 232              	.L24:
 233              		.loc 1 125 0
 234 0020 BDE80840 		pop	{r3, lr}
 235              		.cfi_restore 14
 236              		.cfi_restore 3
 237              		.cfi_def_cfa_offset 0
 238              		.loc 1 124 0
 239 0024 FFF7FEBF 		b	_port_irq_epilogue
 240              	.LVL23:
 241              	.L29:
 242              		.align	2
 243              	.L28:
 244 0028 003C0140 		.word	1073822720
 245 002c 00000000 		.word	EXTD1
 246              		.cfi_endproc
 247              	.LFE280:
 248              		.size	Vector64, .-Vector64
 249              		.section	.text.Vector68,"ax",%progbits
 250              		.align	1
 251              		.global	Vector68
 252              		.thumb
 253              		.thumb_func
 254              		.type	Vector68, %function
 255              	Vector68:
 256              	.LFB281:
 257              		.loc 1 132 0
 258              		.cfi_startproc
 259              		@ args = 0, pretend = 0, frame = 0
 260              		@ frame_needed = 0, uses_anonymous_args = 0
 261 0000 08B5     		push	{r3, lr}
 262              		.cfi_def_cfa_offset 8
 263              		.cfi_offset 3, -8
 264              		.cfi_offset 14, -4
 265              		.loc 1 135 0
 266 0002 FFF7FEFF 		bl	_stats_increase_irq
 267              	.LVL24:
 268              		.loc 1 137 0
 269 0006 084A     		ldr	r2, .L35
 270 0008 5169     		ldr	r1, [r2, #20]
 271              	.LVL25:
 272              		.loc 1 138 0
 273 000a 1368     		ldr	r3, [r2]
 274 000c 0B40     		ands	r3, r3, r1
 275 000e 03F01003 		and	r3, r3, #16
 276              	.LVL26:
 277              		.loc 1 139 0
 278 0012 5361     		str	r3, [r2, #20]
 279              		.loc 1 140 0
 280 0014 23B1     		cbz	r3, .L31
 281              		.loc 1 141 0
 282 0016 0548     		ldr	r0, .L35+4
 283 0018 4368     		ldr	r3, [r0, #4]
 284              	.LVL27:
 285 001a 0421     		movs	r1, #4
ARM GAS  /tmp/ccFu9jx6.s 			page 6


 286 001c 5B6A     		ldr	r3, [r3, #36]
 287 001e 9847     		blx	r3
 288              	.LVL28:
 289              	.L31:
 290              		.loc 1 144 0
 291 0020 BDE80840 		pop	{r3, lr}
 292              		.cfi_restore 14
 293              		.cfi_restore 3
 294              		.cfi_def_cfa_offset 0
 295              		.loc 1 143 0
 296 0024 FFF7FEBF 		b	_port_irq_epilogue
 297              	.LVL29:
 298              	.L36:
 299              		.align	2
 300              	.L35:
 301 0028 003C0140 		.word	1073822720
 302 002c 00000000 		.word	EXTD1
 303              		.cfi_endproc
 304              	.LFE281:
 305              		.size	Vector68, .-Vector68
 306              		.section	.text.Vector9C,"ax",%progbits
 307              		.align	1
 308              		.global	Vector9C
 309              		.thumb
 310              		.thumb_func
 311              		.type	Vector9C, %function
 312              	Vector9C:
 313              	.LFB282:
 314              		.loc 1 151 0
 315              		.cfi_startproc
 316              		@ args = 0, pretend = 0, frame = 0
 317              		@ frame_needed = 0, uses_anonymous_args = 0
 318 0000 10B5     		push	{r4, lr}
 319              		.cfi_def_cfa_offset 8
 320              		.cfi_offset 4, -8
 321              		.cfi_offset 14, -4
 322              		.loc 1 154 0
 323 0002 FFF7FEFF 		bl	_stats_increase_irq
 324              	.LVL30:
 325              		.loc 1 156 0
 326 0006 174B     		ldr	r3, .L58
 327 0008 5A69     		ldr	r2, [r3, #20]
 328              	.LVL31:
 329              		.loc 1 157 0
 330 000a 1C68     		ldr	r4, [r3]
 331 000c 1440     		ands	r4, r4, r2
 332 000e 04F47872 		and	r2, r4, #992
 333              	.LVL32:
 334              		.loc 1 159 0
 335 0012 5A61     		str	r2, [r3, #20]
 336              		.loc 1 160 0
 337 0014 A306     		lsls	r3, r4, #26
 338 0016 04D5     		bpl	.L38
 339              		.loc 1 161 0
 340 0018 1348     		ldr	r0, .L58+4
 341 001a 4368     		ldr	r3, [r0, #4]
 342 001c 0521     		movs	r1, #5
ARM GAS  /tmp/ccFu9jx6.s 			page 7


 343 001e DB6A     		ldr	r3, [r3, #44]
 344 0020 9847     		blx	r3
 345              	.LVL33:
 346              	.L38:
 347              		.loc 1 162 0
 348 0022 6006     		lsls	r0, r4, #25
 349 0024 04D5     		bpl	.L39
 350              		.loc 1 163 0
 351 0026 1048     		ldr	r0, .L58+4
 352 0028 4368     		ldr	r3, [r0, #4]
 353 002a 0621     		movs	r1, #6
 354 002c 5B6B     		ldr	r3, [r3, #52]
 355 002e 9847     		blx	r3
 356              	.LVL34:
 357              	.L39:
 358              		.loc 1 164 0
 359 0030 2106     		lsls	r1, r4, #24
 360 0032 04D5     		bpl	.L40
 361              		.loc 1 165 0
 362 0034 0C48     		ldr	r0, .L58+4
 363 0036 4368     		ldr	r3, [r0, #4]
 364 0038 0721     		movs	r1, #7
 365 003a DB6B     		ldr	r3, [r3, #60]
 366 003c 9847     		blx	r3
 367              	.LVL35:
 368              	.L40:
 369              		.loc 1 166 0
 370 003e E205     		lsls	r2, r4, #23
 371 0040 04D5     		bpl	.L41
 372              		.loc 1 167 0
 373 0042 0948     		ldr	r0, .L58+4
 374 0044 4368     		ldr	r3, [r0, #4]
 375 0046 0821     		movs	r1, #8
 376 0048 5B6C     		ldr	r3, [r3, #68]
 377 004a 9847     		blx	r3
 378              	.LVL36:
 379              	.L41:
 380              		.loc 1 168 0
 381 004c A305     		lsls	r3, r4, #22
 382 004e 04D5     		bpl	.L42
 383              		.loc 1 169 0
 384 0050 0548     		ldr	r0, .L58+4
 385 0052 4368     		ldr	r3, [r0, #4]
 386 0054 0921     		movs	r1, #9
 387 0056 DB6C     		ldr	r3, [r3, #76]
 388 0058 9847     		blx	r3
 389              	.LVL37:
 390              	.L42:
 391              		.loc 1 172 0
 392 005a BDE81040 		pop	{r4, lr}
 393              		.cfi_restore 14
 394              		.cfi_restore 4
 395              		.cfi_def_cfa_offset 0
 396              	.LVL38:
 397              		.loc 1 171 0
 398 005e FFF7FEBF 		b	_port_irq_epilogue
 399              	.LVL39:
ARM GAS  /tmp/ccFu9jx6.s 			page 8


 400              	.L59:
 401 0062 00BF     		.align	2
 402              	.L58:
 403 0064 003C0140 		.word	1073822720
 404 0068 00000000 		.word	EXTD1
 405              		.cfi_endproc
 406              	.LFE282:
 407              		.size	Vector9C, .-Vector9C
 408              		.section	.text.VectorE0,"ax",%progbits
 409              		.align	1
 410              		.global	VectorE0
 411              		.thumb
 412              		.thumb_func
 413              		.type	VectorE0, %function
 414              	VectorE0:
 415              	.LFB283:
 416              		.loc 1 179 0
 417              		.cfi_startproc
 418              		@ args = 0, pretend = 0, frame = 0
 419              		@ frame_needed = 0, uses_anonymous_args = 0
 420 0000 10B5     		push	{r4, lr}
 421              		.cfi_def_cfa_offset 8
 422              		.cfi_offset 4, -8
 423              		.cfi_offset 14, -4
 424              		.loc 1 182 0
 425 0002 FFF7FEFF 		bl	_stats_increase_irq
 426              	.LVL40:
 427              		.loc 1 184 0
 428 0006 1A4B     		ldr	r3, .L85
 429 0008 5A69     		ldr	r2, [r3, #20]
 430              	.LVL41:
 431              		.loc 1 185 0
 432 000a 1C68     		ldr	r4, [r3]
 433 000c 1440     		ands	r4, r4, r2
 434 000e 04F47C42 		and	r2, r4, #64512
 435              	.LVL42:
 436              		.loc 1 187 0
 437 0012 5A61     		str	r2, [r3, #20]
 438              		.loc 1 188 0
 439 0014 6205     		lsls	r2, r4, #21
 440              	.LVL43:
 441 0016 04D5     		bpl	.L61
 442              		.loc 1 189 0
 443 0018 1648     		ldr	r0, .L85+4
 444 001a 4368     		ldr	r3, [r0, #4]
 445              	.LVL44:
 446 001c 0A21     		movs	r1, #10
 447 001e 5B6D     		ldr	r3, [r3, #84]
 448 0020 9847     		blx	r3
 449              	.LVL45:
 450              	.L61:
 451              		.loc 1 190 0
 452 0022 2305     		lsls	r3, r4, #20
 453 0024 04D5     		bpl	.L62
 454              		.loc 1 191 0
 455 0026 1348     		ldr	r0, .L85+4
 456 0028 4368     		ldr	r3, [r0, #4]
ARM GAS  /tmp/ccFu9jx6.s 			page 9


 457 002a 0B21     		movs	r1, #11
 458 002c DB6D     		ldr	r3, [r3, #92]
 459 002e 9847     		blx	r3
 460              	.LVL46:
 461              	.L62:
 462              		.loc 1 192 0
 463 0030 E004     		lsls	r0, r4, #19
 464 0032 04D5     		bpl	.L63
 465              		.loc 1 193 0
 466 0034 0F48     		ldr	r0, .L85+4
 467 0036 4368     		ldr	r3, [r0, #4]
 468 0038 0C21     		movs	r1, #12
 469 003a 5B6E     		ldr	r3, [r3, #100]
 470 003c 9847     		blx	r3
 471              	.LVL47:
 472              	.L63:
 473              		.loc 1 194 0
 474 003e A104     		lsls	r1, r4, #18
 475 0040 04D5     		bpl	.L64
 476              		.loc 1 195 0
 477 0042 0C48     		ldr	r0, .L85+4
 478 0044 4368     		ldr	r3, [r0, #4]
 479 0046 0D21     		movs	r1, #13
 480 0048 DB6E     		ldr	r3, [r3, #108]
 481 004a 9847     		blx	r3
 482              	.LVL48:
 483              	.L64:
 484              		.loc 1 196 0
 485 004c 6204     		lsls	r2, r4, #17
 486 004e 04D5     		bpl	.L65
 487              		.loc 1 197 0
 488 0050 0848     		ldr	r0, .L85+4
 489 0052 4368     		ldr	r3, [r0, #4]
 490 0054 0E21     		movs	r1, #14
 491 0056 5B6F     		ldr	r3, [r3, #116]
 492 0058 9847     		blx	r3
 493              	.LVL49:
 494              	.L65:
 495              		.loc 1 198 0
 496 005a 2304     		lsls	r3, r4, #16
 497 005c 04D5     		bpl	.L66
 498              		.loc 1 199 0
 499 005e 0548     		ldr	r0, .L85+4
 500 0060 4368     		ldr	r3, [r0, #4]
 501 0062 0F21     		movs	r1, #15
 502 0064 DB6F     		ldr	r3, [r3, #124]
 503 0066 9847     		blx	r3
 504              	.LVL50:
 505              	.L66:
 506              		.loc 1 202 0
 507 0068 BDE81040 		pop	{r4, lr}
 508              		.cfi_restore 14
 509              		.cfi_restore 4
 510              		.cfi_def_cfa_offset 0
 511              	.LVL51:
 512              		.loc 1 201 0
 513 006c FFF7FEBF 		b	_port_irq_epilogue
ARM GAS  /tmp/ccFu9jx6.s 			page 10


 514              	.LVL52:
 515              	.L86:
 516              		.align	2
 517              	.L85:
 518 0070 003C0140 		.word	1073822720
 519 0074 00000000 		.word	EXTD1
 520              		.cfi_endproc
 521              	.LFE283:
 522              		.size	VectorE0, .-VectorE0
 523              		.section	.text.Vector44,"ax",%progbits
 524              		.align	1
 525              		.global	Vector44
 526              		.thumb
 527              		.thumb_func
 528              		.type	Vector44, %function
 529              	Vector44:
 530              	.LFB284:
 531              		.loc 1 209 0
 532              		.cfi_startproc
 533              		@ args = 0, pretend = 0, frame = 0
 534              		@ frame_needed = 0, uses_anonymous_args = 0
 535 0000 08B5     		push	{r3, lr}
 536              		.cfi_def_cfa_offset 8
 537              		.cfi_offset 3, -8
 538              		.cfi_offset 14, -4
 539              		.loc 1 212 0
 540 0002 FFF7FEFF 		bl	_stats_increase_irq
 541              	.LVL53:
 542              		.loc 1 214 0
 543 0006 094A     		ldr	r2, .L92
 544 0008 5169     		ldr	r1, [r2, #20]
 545              	.LVL54:
 546              		.loc 1 215 0
 547 000a 1368     		ldr	r3, [r2]
 548 000c 0B40     		ands	r3, r3, r1
 549 000e 03F48033 		and	r3, r3, #65536
 550              	.LVL55:
 551              		.loc 1 216 0
 552 0012 5361     		str	r3, [r2, #20]
 553              		.loc 1 217 0
 554 0014 2BB1     		cbz	r3, .L88
 555              		.loc 1 218 0
 556 0016 0648     		ldr	r0, .L92+4
 557 0018 4368     		ldr	r3, [r0, #4]
 558              	.LVL56:
 559 001a 1021     		movs	r1, #16
 560 001c D3F88430 		ldr	r3, [r3, #132]
 561 0020 9847     		blx	r3
 562              	.LVL57:
 563              	.L88:
 564              		.loc 1 221 0
 565 0022 BDE80840 		pop	{r3, lr}
 566              		.cfi_restore 14
 567              		.cfi_restore 3
 568              		.cfi_def_cfa_offset 0
 569              		.loc 1 220 0
 570 0026 FFF7FEBF 		b	_port_irq_epilogue
ARM GAS  /tmp/ccFu9jx6.s 			page 11


 571              	.LVL58:
 572              	.L93:
 573 002a 00BF     		.align	2
 574              	.L92:
 575 002c 003C0140 		.word	1073822720
 576 0030 00000000 		.word	EXTD1
 577              		.cfi_endproc
 578              	.LFE284:
 579              		.size	Vector44, .-Vector44
 580              		.section	.text.VectorE4,"ax",%progbits
 581              		.align	1
 582              		.global	VectorE4
 583              		.thumb
 584              		.thumb_func
 585              		.type	VectorE4, %function
 586              	VectorE4:
 587              	.LFB285:
 588              		.loc 1 228 0
 589              		.cfi_startproc
 590              		@ args = 0, pretend = 0, frame = 0
 591              		@ frame_needed = 0, uses_anonymous_args = 0
 592 0000 08B5     		push	{r3, lr}
 593              		.cfi_def_cfa_offset 8
 594              		.cfi_offset 3, -8
 595              		.cfi_offset 14, -4
 596              		.loc 1 231 0
 597 0002 FFF7FEFF 		bl	_stats_increase_irq
 598              	.LVL59:
 599              		.loc 1 233 0
 600 0006 094A     		ldr	r2, .L99
 601 0008 5169     		ldr	r1, [r2, #20]
 602              	.LVL60:
 603              		.loc 1 234 0
 604 000a 1368     		ldr	r3, [r2]
 605 000c 0B40     		ands	r3, r3, r1
 606 000e 03F40033 		and	r3, r3, #131072
 607              	.LVL61:
 608              		.loc 1 235 0
 609 0012 5361     		str	r3, [r2, #20]
 610              		.loc 1 236 0
 611 0014 2BB1     		cbz	r3, .L95
 612              		.loc 1 237 0
 613 0016 0648     		ldr	r0, .L99+4
 614 0018 4368     		ldr	r3, [r0, #4]
 615              	.LVL62:
 616 001a 1121     		movs	r1, #17
 617 001c D3F88C30 		ldr	r3, [r3, #140]
 618 0020 9847     		blx	r3
 619              	.LVL63:
 620              	.L95:
 621              		.loc 1 240 0
 622 0022 BDE80840 		pop	{r3, lr}
 623              		.cfi_restore 14
 624              		.cfi_restore 3
 625              		.cfi_def_cfa_offset 0
 626              		.loc 1 239 0
 627 0026 FFF7FEBF 		b	_port_irq_epilogue
ARM GAS  /tmp/ccFu9jx6.s 			page 12


 628              	.LVL64:
 629              	.L100:
 630 002a 00BF     		.align	2
 631              	.L99:
 632 002c 003C0140 		.word	1073822720
 633 0030 00000000 		.word	EXTD1
 634              		.cfi_endproc
 635              	.LFE285:
 636              		.size	VectorE4, .-VectorE4
 637              		.section	.text.VectorE8,"ax",%progbits
 638              		.align	1
 639              		.global	VectorE8
 640              		.thumb
 641              		.thumb_func
 642              		.type	VectorE8, %function
 643              	VectorE8:
 644              	.LFB286:
 645              		.loc 1 247 0
 646              		.cfi_startproc
 647              		@ args = 0, pretend = 0, frame = 0
 648              		@ frame_needed = 0, uses_anonymous_args = 0
 649 0000 08B5     		push	{r3, lr}
 650              		.cfi_def_cfa_offset 8
 651              		.cfi_offset 3, -8
 652              		.cfi_offset 14, -4
 653              		.loc 1 250 0
 654 0002 FFF7FEFF 		bl	_stats_increase_irq
 655              	.LVL65:
 656              		.loc 1 252 0
 657 0006 094A     		ldr	r2, .L106
 658 0008 5169     		ldr	r1, [r2, #20]
 659              	.LVL66:
 660              		.loc 1 253 0
 661 000a 1368     		ldr	r3, [r2]
 662 000c 0B40     		ands	r3, r3, r1
 663 000e 03F48023 		and	r3, r3, #262144
 664              	.LVL67:
 665              		.loc 1 254 0
 666 0012 5361     		str	r3, [r2, #20]
 667              		.loc 1 255 0
 668 0014 2BB1     		cbz	r3, .L102
 669              		.loc 1 256 0
 670 0016 0648     		ldr	r0, .L106+4
 671 0018 4368     		ldr	r3, [r0, #4]
 672              	.LVL68:
 673 001a 1221     		movs	r1, #18
 674 001c D3F89430 		ldr	r3, [r3, #148]
 675 0020 9847     		blx	r3
 676              	.LVL69:
 677              	.L102:
 678              		.loc 1 259 0
 679 0022 BDE80840 		pop	{r3, lr}
 680              		.cfi_restore 14
 681              		.cfi_restore 3
 682              		.cfi_def_cfa_offset 0
 683              		.loc 1 258 0
 684 0026 FFF7FEBF 		b	_port_irq_epilogue
ARM GAS  /tmp/ccFu9jx6.s 			page 13


 685              	.LVL70:
 686              	.L107:
 687 002a 00BF     		.align	2
 688              	.L106:
 689 002c 003C0140 		.word	1073822720
 690 0030 00000000 		.word	EXTD1
 691              		.cfi_endproc
 692              	.LFE286:
 693              		.size	VectorE8, .-VectorE8
 694              		.section	.text.Vector138,"ax",%progbits
 695              		.align	1
 696              		.global	Vector138
 697              		.thumb
 698              		.thumb_func
 699              		.type	Vector138, %function
 700              	Vector138:
 701              	.LFB287:
 702              		.loc 1 267 0
 703              		.cfi_startproc
 704              		@ args = 0, pretend = 0, frame = 0
 705              		@ frame_needed = 0, uses_anonymous_args = 0
 706 0000 08B5     		push	{r3, lr}
 707              		.cfi_def_cfa_offset 8
 708              		.cfi_offset 3, -8
 709              		.cfi_offset 14, -4
 710              		.loc 1 270 0
 711 0002 FFF7FEFF 		bl	_stats_increase_irq
 712              	.LVL71:
 713              		.loc 1 272 0
 714 0006 094A     		ldr	r2, .L113
 715 0008 5169     		ldr	r1, [r2, #20]
 716              	.LVL72:
 717              		.loc 1 273 0
 718 000a 1368     		ldr	r3, [r2]
 719 000c 0B40     		ands	r3, r3, r1
 720 000e 03F40023 		and	r3, r3, #524288
 721              	.LVL73:
 722              		.loc 1 274 0
 723 0012 5361     		str	r3, [r2, #20]
 724              		.loc 1 275 0
 725 0014 2BB1     		cbz	r3, .L109
 726              		.loc 1 276 0
 727 0016 0648     		ldr	r0, .L113+4
 728 0018 4368     		ldr	r3, [r0, #4]
 729              	.LVL74:
 730 001a 1321     		movs	r1, #19
 731 001c D3F89C30 		ldr	r3, [r3, #156]
 732 0020 9847     		blx	r3
 733              	.LVL75:
 734              	.L109:
 735              		.loc 1 279 0
 736 0022 BDE80840 		pop	{r3, lr}
 737              		.cfi_restore 14
 738              		.cfi_restore 3
 739              		.cfi_def_cfa_offset 0
 740              		.loc 1 278 0
 741 0026 FFF7FEBF 		b	_port_irq_epilogue
ARM GAS  /tmp/ccFu9jx6.s 			page 14


 742              	.LVL76:
 743              	.L114:
 744 002a 00BF     		.align	2
 745              	.L113:
 746 002c 003C0140 		.word	1073822720
 747 0030 00000000 		.word	EXTD1
 748              		.cfi_endproc
 749              	.LFE287:
 750              		.size	Vector138, .-Vector138
 751              		.section	.text.Vector170,"ax",%progbits
 752              		.align	1
 753              		.global	Vector170
 754              		.thumb
 755              		.thumb_func
 756              		.type	Vector170, %function
 757              	Vector170:
 758              	.LFB288:
 759              		.loc 1 288 0
 760              		.cfi_startproc
 761              		@ args = 0, pretend = 0, frame = 0
 762              		@ frame_needed = 0, uses_anonymous_args = 0
 763 0000 08B5     		push	{r3, lr}
 764              		.cfi_def_cfa_offset 8
 765              		.cfi_offset 3, -8
 766              		.cfi_offset 14, -4
 767              		.loc 1 291 0
 768 0002 FFF7FEFF 		bl	_stats_increase_irq
 769              	.LVL77:
 770              		.loc 1 293 0
 771 0006 094A     		ldr	r2, .L120
 772 0008 5169     		ldr	r1, [r2, #20]
 773              	.LVL78:
 774              		.loc 1 294 0
 775 000a 1368     		ldr	r3, [r2]
 776 000c 0B40     		ands	r3, r3, r1
 777 000e 03F48013 		and	r3, r3, #1048576
 778              	.LVL79:
 779              		.loc 1 295 0
 780 0012 5361     		str	r3, [r2, #20]
 781              		.loc 1 296 0
 782 0014 2BB1     		cbz	r3, .L116
 783              		.loc 1 297 0
 784 0016 0648     		ldr	r0, .L120+4
 785 0018 4368     		ldr	r3, [r0, #4]
 786              	.LVL80:
 787 001a 1421     		movs	r1, #20
 788 001c D3F8A430 		ldr	r3, [r3, #164]
 789 0020 9847     		blx	r3
 790              	.LVL81:
 791              	.L116:
 792              		.loc 1 300 0
 793 0022 BDE80840 		pop	{r3, lr}
 794              		.cfi_restore 14
 795              		.cfi_restore 3
 796              		.cfi_def_cfa_offset 0
 797              		.loc 1 299 0
 798 0026 FFF7FEBF 		b	_port_irq_epilogue
ARM GAS  /tmp/ccFu9jx6.s 			page 15


 799              	.LVL82:
 800              	.L121:
 801 002a 00BF     		.align	2
 802              	.L120:
 803 002c 003C0140 		.word	1073822720
 804 0030 00000000 		.word	EXTD1
 805              		.cfi_endproc
 806              	.LFE288:
 807              		.size	Vector170, .-Vector170
 808              		.section	.text.Vector48,"ax",%progbits
 809              		.align	1
 810              		.global	Vector48
 811              		.thumb
 812              		.thumb_func
 813              		.type	Vector48, %function
 814              	Vector48:
 815              	.LFB289:
 816              		.loc 1 309 0
 817              		.cfi_startproc
 818              		@ args = 0, pretend = 0, frame = 0
 819              		@ frame_needed = 0, uses_anonymous_args = 0
 820 0000 08B5     		push	{r3, lr}
 821              		.cfi_def_cfa_offset 8
 822              		.cfi_offset 3, -8
 823              		.cfi_offset 14, -4
 824              		.loc 1 312 0
 825 0002 FFF7FEFF 		bl	_stats_increase_irq
 826              	.LVL83:
 827              		.loc 1 314 0
 828 0006 094A     		ldr	r2, .L127
 829 0008 5169     		ldr	r1, [r2, #20]
 830              	.LVL84:
 831              		.loc 1 315 0
 832 000a 1368     		ldr	r3, [r2]
 833 000c 0B40     		ands	r3, r3, r1
 834 000e 03F40013 		and	r3, r3, #2097152
 835              	.LVL85:
 836              		.loc 1 316 0
 837 0012 5361     		str	r3, [r2, #20]
 838              		.loc 1 317 0
 839 0014 2BB1     		cbz	r3, .L123
 840              		.loc 1 318 0
 841 0016 0648     		ldr	r0, .L127+4
 842 0018 4368     		ldr	r3, [r0, #4]
 843              	.LVL86:
 844 001a 1521     		movs	r1, #21
 845 001c D3F8AC30 		ldr	r3, [r3, #172]
 846 0020 9847     		blx	r3
 847              	.LVL87:
 848              	.L123:
 849              		.loc 1 321 0
 850 0022 BDE80840 		pop	{r3, lr}
 851              		.cfi_restore 14
 852              		.cfi_restore 3
 853              		.cfi_def_cfa_offset 0
 854              		.loc 1 320 0
 855 0026 FFF7FEBF 		b	_port_irq_epilogue
ARM GAS  /tmp/ccFu9jx6.s 			page 16


 856              	.LVL88:
 857              	.L128:
 858 002a 00BF     		.align	2
 859              	.L127:
 860 002c 003C0140 		.word	1073822720
 861 0030 00000000 		.word	EXTD1
 862              		.cfi_endproc
 863              	.LFE289:
 864              		.size	Vector48, .-Vector48
 865              		.section	.text.Vector4C,"ax",%progbits
 866              		.align	1
 867              		.global	Vector4C
 868              		.thumb
 869              		.thumb_func
 870              		.type	Vector4C, %function
 871              	Vector4C:
 872              	.LFB290:
 873              		.loc 1 329 0
 874              		.cfi_startproc
 875              		@ args = 0, pretend = 0, frame = 0
 876              		@ frame_needed = 0, uses_anonymous_args = 0
 877 0000 08B5     		push	{r3, lr}
 878              		.cfi_def_cfa_offset 8
 879              		.cfi_offset 3, -8
 880              		.cfi_offset 14, -4
 881              		.loc 1 332 0
 882 0002 FFF7FEFF 		bl	_stats_increase_irq
 883              	.LVL89:
 884              		.loc 1 334 0
 885 0006 094A     		ldr	r2, .L134
 886 0008 5169     		ldr	r1, [r2, #20]
 887              	.LVL90:
 888              		.loc 1 335 0
 889 000a 1368     		ldr	r3, [r2]
 890 000c 0B40     		ands	r3, r3, r1
 891 000e 03F48003 		and	r3, r3, #4194304
 892              	.LVL91:
 893              		.loc 1 336 0
 894 0012 5361     		str	r3, [r2, #20]
 895              		.loc 1 337 0
 896 0014 2BB1     		cbz	r3, .L130
 897              		.loc 1 338 0
 898 0016 0648     		ldr	r0, .L134+4
 899 0018 4368     		ldr	r3, [r0, #4]
 900              	.LVL92:
 901 001a 1621     		movs	r1, #22
 902 001c D3F8B430 		ldr	r3, [r3, #180]
 903 0020 9847     		blx	r3
 904              	.LVL93:
 905              	.L130:
 906              		.loc 1 341 0
 907 0022 BDE80840 		pop	{r3, lr}
 908              		.cfi_restore 14
 909              		.cfi_restore 3
 910              		.cfi_def_cfa_offset 0
 911              		.loc 1 340 0
 912 0026 FFF7FEBF 		b	_port_irq_epilogue
ARM GAS  /tmp/ccFu9jx6.s 			page 17


 913              	.LVL94:
 914              	.L135:
 915 002a 00BF     		.align	2
 916              	.L134:
 917 002c 003C0140 		.word	1073822720
 918 0030 00000000 		.word	EXTD1
 919              		.cfi_endproc
 920              	.LFE290:
 921              		.size	Vector4C, .-Vector4C
 922              		.section	.text.ext_lld_exti_irq_enable,"ax",%progbits
 923              		.align	1
 924              		.global	ext_lld_exti_irq_enable
 925              		.thumb
 926              		.thumb_func
 927              		.type	ext_lld_exti_irq_enable, %function
 928              	ext_lld_exti_irq_enable:
 929              	.LFB291:
 930              		.loc 1 352 0
 931              		.cfi_startproc
 932              		@ args = 0, pretend = 0, frame = 0
 933              		@ frame_needed = 0, uses_anonymous_args = 0
 934              		.loc 1 354 0
 935 0000 0620     		movs	r0, #6
 936              		.loc 1 352 0
 937 0002 08B5     		push	{r3, lr}
 938              		.cfi_def_cfa_offset 8
 939              		.cfi_offset 3, -8
 940              		.cfi_offset 14, -4
 941              		.loc 1 354 0
 942 0004 0146     		mov	r1, r0
 943 0006 FFF7FEFF 		bl	nvicEnableVector
 944              	.LVL95:
 945              		.loc 1 355 0
 946 000a 0720     		movs	r0, #7
 947 000c 0621     		movs	r1, #6
 948 000e FFF7FEFF 		bl	nvicEnableVector
 949              	.LVL96:
 950              		.loc 1 356 0
 951 0012 0820     		movs	r0, #8
 952 0014 0621     		movs	r1, #6
 953 0016 FFF7FEFF 		bl	nvicEnableVector
 954              	.LVL97:
 955              		.loc 1 357 0
 956 001a 0920     		movs	r0, #9
 957 001c 0621     		movs	r1, #6
 958 001e FFF7FEFF 		bl	nvicEnableVector
 959              	.LVL98:
 960              		.loc 1 358 0
 961 0022 0A20     		movs	r0, #10
 962 0024 0621     		movs	r1, #6
 963 0026 FFF7FEFF 		bl	nvicEnableVector
 964              	.LVL99:
 965              		.loc 1 359 0
 966 002a 1720     		movs	r0, #23
 967 002c 0621     		movs	r1, #6
 968 002e FFF7FEFF 		bl	nvicEnableVector
 969              	.LVL100:
ARM GAS  /tmp/ccFu9jx6.s 			page 18


 970              		.loc 1 360 0
 971 0032 2820     		movs	r0, #40
 972 0034 0621     		movs	r1, #6
 973 0036 FFF7FEFF 		bl	nvicEnableVector
 974              	.LVL101:
 975              		.loc 1 361 0
 976 003a 0120     		movs	r0, #1
 977 003c 0621     		movs	r1, #6
 978 003e FFF7FEFF 		bl	nvicEnableVector
 979              	.LVL102:
 980              		.loc 1 362 0
 981 0042 2920     		movs	r0, #41
 982 0044 0F21     		movs	r1, #15
 983 0046 FFF7FEFF 		bl	nvicEnableVector
 984              	.LVL103:
 985              		.loc 1 364 0
 986 004a 2A20     		movs	r0, #42
 987 004c 0621     		movs	r1, #6
 988 004e FFF7FEFF 		bl	nvicEnableVector
 989              	.LVL104:
 990              		.loc 1 367 0
 991 0052 3E20     		movs	r0, #62
 992 0054 0621     		movs	r1, #6
 993 0056 FFF7FEFF 		bl	nvicEnableVector
 994              	.LVL105:
 995              		.loc 1 370 0
 996 005a 4C20     		movs	r0, #76
 997 005c 0621     		movs	r1, #6
 998 005e FFF7FEFF 		bl	nvicEnableVector
 999              	.LVL106:
 1000              		.loc 1 373 0
 1001 0062 0220     		movs	r0, #2
 1002 0064 0F21     		movs	r1, #15
 1003 0066 FFF7FEFF 		bl	nvicEnableVector
 1004              	.LVL107:
 1005              		.loc 1 375 0
 1006 006a 0320     		movs	r0, #3
 1007 006c 0F21     		movs	r1, #15
 1008              		.loc 1 376 0
 1009 006e BDE80840 		pop	{r3, lr}
 1010              		.cfi_restore 14
 1011              		.cfi_restore 3
 1012              		.cfi_def_cfa_offset 0
 1013              		.loc 1 375 0
 1014 0072 FFF7FEBF 		b	nvicEnableVector
 1015              	.LVL108:
 1016              		.cfi_endproc
 1017              	.LFE291:
 1018              		.size	ext_lld_exti_irq_enable, .-ext_lld_exti_irq_enable
 1019              		.section	.text.ext_lld_exti_irq_disable,"ax",%progbits
 1020              		.align	1
 1021              		.global	ext_lld_exti_irq_disable
 1022              		.thumb
 1023              		.thumb_func
 1024              		.type	ext_lld_exti_irq_disable, %function
 1025              	ext_lld_exti_irq_disable:
 1026              	.LFB292:
ARM GAS  /tmp/ccFu9jx6.s 			page 19


 1027              		.loc 1 383 0
 1028              		.cfi_startproc
 1029              		@ args = 0, pretend = 0, frame = 0
 1030              		@ frame_needed = 0, uses_anonymous_args = 0
 1031 0000 08B5     		push	{r3, lr}
 1032              		.cfi_def_cfa_offset 8
 1033              		.cfi_offset 3, -8
 1034              		.cfi_offset 14, -4
 1035              		.loc 1 385 0
 1036 0002 0620     		movs	r0, #6
 1037 0004 FFF7FEFF 		bl	nvicDisableVector
 1038              	.LVL109:
 1039              		.loc 1 386 0
 1040 0008 0720     		movs	r0, #7
 1041 000a FFF7FEFF 		bl	nvicDisableVector
 1042              	.LVL110:
 1043              		.loc 1 387 0
 1044 000e 0820     		movs	r0, #8
 1045 0010 FFF7FEFF 		bl	nvicDisableVector
 1046              	.LVL111:
 1047              		.loc 1 388 0
 1048 0014 0920     		movs	r0, #9
 1049 0016 FFF7FEFF 		bl	nvicDisableVector
 1050              	.LVL112:
 1051              		.loc 1 389 0
 1052 001a 0A20     		movs	r0, #10
 1053 001c FFF7FEFF 		bl	nvicDisableVector
 1054              	.LVL113:
 1055              		.loc 1 390 0
 1056 0020 1720     		movs	r0, #23
 1057 0022 FFF7FEFF 		bl	nvicDisableVector
 1058              	.LVL114:
 1059              		.loc 1 391 0
 1060 0026 2820     		movs	r0, #40
 1061 0028 FFF7FEFF 		bl	nvicDisableVector
 1062              	.LVL115:
 1063              		.loc 1 392 0
 1064 002c 0120     		movs	r0, #1
 1065 002e FFF7FEFF 		bl	nvicDisableVector
 1066              	.LVL116:
 1067              		.loc 1 393 0
 1068 0032 2920     		movs	r0, #41
 1069 0034 FFF7FEFF 		bl	nvicDisableVector
 1070              	.LVL117:
 1071              		.loc 1 395 0
 1072 0038 2A20     		movs	r0, #42
 1073 003a FFF7FEFF 		bl	nvicDisableVector
 1074              	.LVL118:
 1075              		.loc 1 398 0
 1076 003e 3E20     		movs	r0, #62
 1077 0040 FFF7FEFF 		bl	nvicDisableVector
 1078              	.LVL119:
 1079              		.loc 1 401 0
 1080 0044 4C20     		movs	r0, #76
 1081 0046 FFF7FEFF 		bl	nvicDisableVector
 1082              	.LVL120:
 1083              		.loc 1 404 0
ARM GAS  /tmp/ccFu9jx6.s 			page 20


 1084 004a 0220     		movs	r0, #2
 1085 004c FFF7FEFF 		bl	nvicDisableVector
 1086              	.LVL121:
 1087              		.loc 1 406 0
 1088 0050 0320     		movs	r0, #3
 1089              		.loc 1 407 0
 1090 0052 BDE80840 		pop	{r3, lr}
 1091              		.cfi_restore 14
 1092              		.cfi_restore 3
 1093              		.cfi_def_cfa_offset 0
 1094              		.loc 1 406 0
 1095 0056 FFF7FEBF 		b	nvicDisableVector
 1096              	.LVL122:
 1097              		.cfi_endproc
 1098              	.LFE292:
 1099              		.size	ext_lld_exti_irq_disable, .-ext_lld_exti_irq_disable
 1100              		.text
 1101              	.Letext0:
 1102              		.file 2 "/usr/include/newlib/machine/_default_types.h"
 1103              		.file 3 "/usr/include/newlib/sys/_stdint.h"
 1104              		.file 4 "../../modules/ChibiOS/os/common/ports/ARMCMx/compilers/GCC/chtypes.h"
 1105              		.file 5 "../../modules/ChibiOS/os/rt/include/chsystypes.h"
 1106              		.file 6 "../../modules/ChibiOS/os/rt/include/chschd.h"
 1107              		.file 7 "../../modules/ChibiOS/os/common/ext/CMSIS/ST/STM32F4xx/stm32f407xx.h"
 1108              		.file 8 "../../modules/ChibiOS/os/common/ports/ARMCMx/chcore.h"
 1109              		.file 9 "../../modules/ChibiOS/os/common/ports/ARMCMx/chcore_v7m.h"
 1110              		.file 10 "../../modules/ChibiOS/os/rt/include/chtm.h"
 1111              		.file 11 "../../modules/ChibiOS/os/rt/include/chstats.h"
 1112              		.file 12 "../../modules/ChibiOS/os/rt/include/chsem.h"
 1113              		.file 13 "../../modules/ChibiOS/os/rt/include/chmtx.h"
 1114              		.file 14 "../../modules/ChibiOS/os/hal/include/hal_ext.h"
 1115              		.file 15 "../../modules/ChibiOS/os/hal/ports/STM32/LLD/EXTIv1/hal_ext_lld.h"
 1116              		.file 16 "../../modules/ChibiOS/os/common/ext/CMSIS/include/core_cm4.h"
 1117              		.file 17 "../../modules/ChibiOS/os/hal/ports/common/ARMCMx/nvic.h"
 1118              		.section	.debug_info,"",%progbits
 1119              	.Ldebug_info0:
 1120 0000 49120000 		.4byte	0x1249
 1121 0004 0400     		.2byte	0x4
 1122 0006 00000000 		.4byte	.Ldebug_abbrev0
 1123 000a 04       		.byte	0x4
 1124 000b 01       		.uleb128 0x1
 1125 000c 0E080000 		.4byte	.LASF229
 1126 0010 01       		.byte	0x1
 1127 0011 5E060000 		.4byte	.LASF230
 1128 0015 25070000 		.4byte	.LASF231
 1129 0019 00000000 		.4byte	.Ldebug_ranges0+0
 1130 001d 00000000 		.4byte	0
 1131 0021 00000000 		.4byte	.Ldebug_line0
 1132 0025 02       		.uleb128 0x2
 1133 0026 04       		.byte	0x4
 1134 0027 05       		.byte	0x5
 1135 0028 696E7400 		.ascii	"int\000"
 1136 002c 03       		.uleb128 0x3
 1137 002d 04       		.byte	0x4
 1138 002e 07       		.byte	0x7
 1139 002f 2D060000 		.4byte	.LASF0
 1140 0033 03       		.uleb128 0x3
ARM GAS  /tmp/ccFu9jx6.s 			page 21


 1141 0034 01       		.byte	0x1
 1142 0035 06       		.byte	0x6
 1143 0036 0F020000 		.4byte	.LASF1
 1144 003a 04       		.uleb128 0x4
 1145 003b 2C010000 		.4byte	.LASF5
 1146 003f 02       		.byte	0x2
 1147 0040 1D       		.byte	0x1d
 1148 0041 45000000 		.4byte	0x45
 1149 0045 03       		.uleb128 0x3
 1150 0046 01       		.byte	0x1
 1151 0047 08       		.byte	0x8
 1152 0048 4E020000 		.4byte	.LASF2
 1153 004c 03       		.uleb128 0x3
 1154 004d 02       		.byte	0x2
 1155 004e 05       		.byte	0x5
 1156 004f 200A0000 		.4byte	.LASF3
 1157 0053 03       		.uleb128 0x3
 1158 0054 02       		.byte	0x2
 1159 0055 07       		.byte	0x7
 1160 0056 4A0B0000 		.4byte	.LASF4
 1161 005a 04       		.uleb128 0x4
 1162 005b CE0B0000 		.4byte	.LASF6
 1163 005f 02       		.byte	0x2
 1164 0060 3F       		.byte	0x3f
 1165 0061 65000000 		.4byte	0x65
 1166 0065 03       		.uleb128 0x3
 1167 0066 04       		.byte	0x4
 1168 0067 05       		.byte	0x5
 1169 0068 65010000 		.4byte	.LASF7
 1170 006c 04       		.uleb128 0x4
 1171 006d 75050000 		.4byte	.LASF8
 1172 0071 02       		.byte	0x2
 1173 0072 41       		.byte	0x41
 1174 0073 77000000 		.4byte	0x77
 1175 0077 03       		.uleb128 0x3
 1176 0078 04       		.byte	0x4
 1177 0079 07       		.byte	0x7
 1178 007a 40040000 		.4byte	.LASF9
 1179 007e 03       		.uleb128 0x3
 1180 007f 08       		.byte	0x8
 1181 0080 05       		.byte	0x5
 1182 0081 92050000 		.4byte	.LASF10
 1183 0085 04       		.uleb128 0x4
 1184 0086 20040000 		.4byte	.LASF11
 1185 008a 02       		.byte	0x2
 1186 008b 5B       		.byte	0x5b
 1187 008c 90000000 		.4byte	0x90
 1188 0090 03       		.uleb128 0x3
 1189 0091 08       		.byte	0x8
 1190 0092 07       		.byte	0x7
 1191 0093 F7070000 		.4byte	.LASF12
 1192 0097 04       		.uleb128 0x4
 1193 0098 22020000 		.4byte	.LASF13
 1194 009c 03       		.byte	0x3
 1195 009d 14       		.byte	0x14
 1196 009e 3A000000 		.4byte	0x3a
 1197 00a2 04       		.uleb128 0x4
ARM GAS  /tmp/ccFu9jx6.s 			page 22


 1198 00a3 6F000000 		.4byte	.LASF14
 1199 00a7 03       		.byte	0x3
 1200 00a8 1F       		.byte	0x1f
 1201 00a9 5A000000 		.4byte	0x5a
 1202 00ad 04       		.uleb128 0x4
 1203 00ae 140B0000 		.4byte	.LASF15
 1204 00b2 03       		.byte	0x3
 1205 00b3 20       		.byte	0x20
 1206 00b4 6C000000 		.4byte	0x6c
 1207 00b8 04       		.uleb128 0x4
 1208 00b9 2A0A0000 		.4byte	.LASF16
 1209 00bd 03       		.byte	0x3
 1210 00be 26       		.byte	0x26
 1211 00bf 85000000 		.4byte	0x85
 1212 00c3 04       		.uleb128 0x4
 1213 00c4 3A060000 		.4byte	.LASF17
 1214 00c8 04       		.byte	0x4
 1215 00c9 39       		.byte	0x39
 1216 00ca AD000000 		.4byte	0xad
 1217 00ce 04       		.uleb128 0x4
 1218 00cf 9D010000 		.4byte	.LASF18
 1219 00d3 04       		.byte	0x4
 1220 00d4 3A       		.byte	0x3a
 1221 00d5 B8000000 		.4byte	0xb8
 1222 00d9 04       		.uleb128 0x4
 1223 00da A9090000 		.4byte	.LASF19
 1224 00de 04       		.byte	0x4
 1225 00df 3C       		.byte	0x3c
 1226 00e0 97000000 		.4byte	0x97
 1227 00e4 04       		.uleb128 0x4
 1228 00e5 94010000 		.4byte	.LASF20
 1229 00e9 04       		.byte	0x4
 1230 00ea 3D       		.byte	0x3d
 1231 00eb 97000000 		.4byte	0x97
 1232 00ef 04       		.uleb128 0x4
 1233 00f0 BB0A0000 		.4byte	.LASF21
 1234 00f4 04       		.byte	0x4
 1235 00f5 3E       		.byte	0x3e
 1236 00f6 97000000 		.4byte	0x97
 1237 00fa 04       		.uleb128 0x4
 1238 00fb 5E000000 		.4byte	.LASF22
 1239 00ff 04       		.byte	0x4
 1240 0100 40       		.byte	0x40
 1241 0101 AD000000 		.4byte	0xad
 1242 0105 04       		.uleb128 0x4
 1243 0106 FD080000 		.4byte	.LASF23
 1244 010a 04       		.byte	0x4
 1245 010b 41       		.byte	0x41
 1246 010c A2000000 		.4byte	0xa2
 1247 0110 04       		.uleb128 0x4
 1248 0111 2A020000 		.4byte	.LASF24
 1249 0115 04       		.byte	0x4
 1250 0116 43       		.byte	0x43
 1251 0117 AD000000 		.4byte	0xad
 1252 011b 04       		.uleb128 0x4
 1253 011c 3A030000 		.4byte	.LASF25
 1254 0120 04       		.byte	0x4
ARM GAS  /tmp/ccFu9jx6.s 			page 23


 1255 0121 45       		.byte	0x45
 1256 0122 A2000000 		.4byte	0xa2
 1257 0126 04       		.uleb128 0x4
 1258 0127 1F050000 		.4byte	.LASF26
 1259 012b 04       		.byte	0x4
 1260 012c 46       		.byte	0x46
 1261 012d AD000000 		.4byte	0xad
 1262 0131 04       		.uleb128 0x4
 1263 0132 4E000000 		.4byte	.LASF27
 1264 0136 05       		.byte	0x5
 1265 0137 33       		.byte	0x33
 1266 0138 AD000000 		.4byte	0xad
 1267 013c 04       		.uleb128 0x4
 1268 013d 54070000 		.4byte	.LASF28
 1269 0141 05       		.byte	0x5
 1270 0142 3F       		.byte	0x3f
 1271 0143 47010000 		.4byte	0x147
 1272 0147 05       		.uleb128 0x5
 1273 0148 A1040000 		.4byte	.LASF47
 1274 014c 60       		.byte	0x60
 1275 014d 06       		.byte	0x6
 1276 014e 9A       		.byte	0x9a
 1277 014f 32020000 		.4byte	0x232
 1278 0153 06       		.uleb128 0x6
 1279 0154 3E090000 		.4byte	.LASF29
 1280 0158 06       		.byte	0x6
 1281 0159 9B       		.byte	0x9b
 1282 015a 67020000 		.4byte	0x267
 1283 015e 00       		.byte	0
 1284 015f 06       		.uleb128 0x6
 1285 0160 04010000 		.4byte	.LASF30
 1286 0164 06       		.byte	0x6
 1287 0165 9C       		.byte	0x9c
 1288 0166 FA000000 		.4byte	0xfa
 1289 016a 08       		.byte	0x8
 1290 016b 07       		.uleb128 0x7
 1291 016c 63747800 		.ascii	"ctx\000"
 1292 0170 06       		.byte	0x6
 1293 0171 9D       		.byte	0x9d
 1294 0172 04070000 		.4byte	0x704
 1295 0176 0C       		.byte	0xc
 1296 0177 06       		.uleb128 0x6
 1297 0178 FD0A0000 		.4byte	.LASF31
 1298 017c 06       		.byte	0x6
 1299 017d 9F       		.byte	0x9f
 1300 017e 3D020000 		.4byte	0x23d
 1301 0182 10       		.byte	0x10
 1302 0183 06       		.uleb128 0x6
 1303 0184 07050000 		.4byte	.LASF32
 1304 0188 06       		.byte	0x6
 1305 0189 A0       		.byte	0xa0
 1306 018a 3D020000 		.4byte	0x23d
 1307 018e 14       		.byte	0x14
 1308 018f 06       		.uleb128 0x6
 1309 0190 1B0A0000 		.4byte	.LASF33
 1310 0194 06       		.byte	0x6
 1311 0195 A7       		.byte	0xa7
ARM GAS  /tmp/ccFu9jx6.s 			page 24


 1312 0196 EB090000 		.4byte	0x9eb
 1313 019a 18       		.byte	0x18
 1314 019b 06       		.uleb128 0x6
 1315 019c 7E090000 		.4byte	.LASF34
 1316 01a0 06       		.byte	0x6
 1317 01a1 B0       		.byte	0xb0
 1318 01a2 FD090000 		.4byte	0x9fd
 1319 01a6 1C       		.byte	0x1c
 1320 01a7 06       		.uleb128 0x6
 1321 01a8 D8000000 		.4byte	.LASF35
 1322 01ac 06       		.byte	0x6
 1323 01ad B5       		.byte	0xb5
 1324 01ae E4000000 		.4byte	0xe4
 1325 01b2 20       		.byte	0x20
 1326 01b3 06       		.uleb128 0x6
 1327 01b4 07030000 		.4byte	.LASF36
 1328 01b8 06       		.byte	0x6
 1329 01b9 B9       		.byte	0xb9
 1330 01ba D9000000 		.4byte	0xd9
 1331 01be 21       		.byte	0x21
 1332 01bf 06       		.uleb128 0x6
 1333 01c0 39090000 		.4byte	.LASF37
 1334 01c4 06       		.byte	0x6
 1335 01c5 BE       		.byte	0xbe
 1336 01c6 EF000000 		.4byte	0xef
 1337 01ca 22       		.byte	0x22
 1338 01cb 08       		.uleb128 0x8
 1339 01cc 7500     		.ascii	"u\000"
 1340 01ce 06       		.byte	0x6
 1341 01cf 0F01     		.2byte	0x10f
 1342 01d1 20090000 		.4byte	0x920
 1343 01d5 24       		.byte	0x24
 1344 01d6 09       		.uleb128 0x9
 1345 01d7 A10A0000 		.4byte	.LASF38
 1346 01db 06       		.byte	0x6
 1347 01dc 1401     		.2byte	0x114
 1348 01de 43020000 		.4byte	0x243
 1349 01e2 28       		.byte	0x28
 1350 01e3 09       		.uleb128 0x9
 1351 01e4 4F0A0000 		.4byte	.LASF39
 1352 01e8 06       		.byte	0x6
 1353 01e9 1A01     		.2byte	0x11a
 1354 01eb 67020000 		.4byte	0x267
 1355 01ef 2C       		.byte	0x2c
 1356 01f0 09       		.uleb128 0x9
 1357 01f1 52090000 		.4byte	.LASF40
 1358 01f5 06       		.byte	0x6
 1359 01f6 2001     		.2byte	0x120
 1360 01f8 10010000 		.4byte	0x110
 1361 01fc 34       		.byte	0x34
 1362 01fd 09       		.uleb128 0x9
 1363 01fe 80050000 		.4byte	.LASF41
 1364 0202 06       		.byte	0x6
 1365 0203 2701     		.2byte	0x127
 1366 0205 E5090000 		.4byte	0x9e5
 1367 0209 38       		.byte	0x38
 1368 020a 09       		.uleb128 0x9
ARM GAS  /tmp/ccFu9jx6.s 			page 25


 1369 020b 16050000 		.4byte	.LASF42
 1370 020f 06       		.byte	0x6
 1371 0210 2B01     		.2byte	0x12b
 1372 0212 FA000000 		.4byte	0xfa
 1373 0216 3C       		.byte	0x3c
 1374 0217 09       		.uleb128 0x9
 1375 0218 18030000 		.4byte	.LASF43
 1376 021c 06       		.byte	0x6
 1377 021d 3201     		.2byte	0x132
 1378 021f 1A030000 		.4byte	0x31a
 1379 0223 40       		.byte	0x40
 1380 0224 09       		.uleb128 0x9
 1381 0225 DE000000 		.4byte	.LASF44
 1382 0229 06       		.byte	0x6
 1383 022a 3801     		.2byte	0x138
 1384 022c D1080000 		.4byte	0x8d1
 1385 0230 48       		.byte	0x48
 1386 0231 00       		.byte	0
 1387 0232 04       		.uleb128 0x4
 1388 0233 6F070000 		.4byte	.LASF45
 1389 0237 05       		.byte	0x5
 1390 0238 44       		.byte	0x44
 1391 0239 3D020000 		.4byte	0x23d
 1392 023d 0A       		.uleb128 0xa
 1393 023e 04       		.byte	0x4
 1394 023f 3C010000 		.4byte	0x13c
 1395 0243 04       		.uleb128 0x4
 1396 0244 E40A0000 		.4byte	.LASF46
 1397 0248 05       		.byte	0x5
 1398 0249 49       		.byte	0x49
 1399 024a 4E020000 		.4byte	0x24e
 1400 024e 05       		.uleb128 0x5
 1401 024f 33050000 		.4byte	.LASF48
 1402 0253 04       		.byte	0x4
 1403 0254 06       		.byte	0x6
 1404 0255 88       		.byte	0x88
 1405 0256 67020000 		.4byte	0x267
 1406 025a 06       		.uleb128 0x6
 1407 025b E20B0000 		.4byte	.LASF49
 1408 025f 06       		.byte	0x6
 1409 0260 89       		.byte	0x89
 1410 0261 3D020000 		.4byte	0x23d
 1411 0265 00       		.byte	0
 1412 0266 00       		.byte	0
 1413 0267 04       		.uleb128 0x4
 1414 0268 A6010000 		.4byte	.LASF50
 1415 026c 05       		.byte	0x5
 1416 026d 50       		.byte	0x50
 1417 026e 72020000 		.4byte	0x272
 1418 0272 05       		.uleb128 0x5
 1419 0273 03090000 		.4byte	.LASF51
 1420 0277 08       		.byte	0x8
 1421 0278 06       		.byte	0x6
 1422 0279 8F       		.byte	0x8f
 1423 027a 97020000 		.4byte	0x297
 1424 027e 06       		.uleb128 0x6
 1425 027f E20B0000 		.4byte	.LASF49
ARM GAS  /tmp/ccFu9jx6.s 			page 26


 1426 0283 06       		.byte	0x6
 1427 0284 90       		.byte	0x90
 1428 0285 3D020000 		.4byte	0x23d
 1429 0289 00       		.byte	0
 1430 028a 06       		.uleb128 0x6
 1431 028b E70B0000 		.4byte	.LASF52
 1432 028f 06       		.byte	0x6
 1433 0290 91       		.byte	0x91
 1434 0291 3D020000 		.4byte	0x23d
 1435 0295 04       		.byte	0x4
 1436 0296 00       		.byte	0
 1437 0297 04       		.uleb128 0x4
 1438 0298 FA040000 		.4byte	.LASF53
 1439 029c 05       		.byte	0x5
 1440 029d 57       		.byte	0x57
 1441 029e A2020000 		.4byte	0x2a2
 1442 02a2 0B       		.uleb128 0xb
 1443 02a3 54030000 		.4byte	.LASF54
 1444 02a7 1C       		.byte	0x1c
 1445 02a8 06       		.byte	0x6
 1446 02a9 6A01     		.2byte	0x16a
 1447 02ab FE020000 		.4byte	0x2fe
 1448 02af 09       		.uleb128 0x9
 1449 02b0 3E090000 		.4byte	.LASF29
 1450 02b4 06       		.byte	0x6
 1451 02b5 6B01     		.2byte	0x16b
 1452 02b7 67020000 		.4byte	0x267
 1453 02bb 00       		.byte	0
 1454 02bc 09       		.uleb128 0x9
 1455 02bd 04010000 		.4byte	.LASF30
 1456 02c1 06       		.byte	0x6
 1457 02c2 6C01     		.2byte	0x16c
 1458 02c4 FA000000 		.4byte	0xfa
 1459 02c8 08       		.byte	0x8
 1460 02c9 08       		.uleb128 0x8
 1461 02ca 63747800 		.ascii	"ctx\000"
 1462 02ce 06       		.byte	0x6
 1463 02cf 6E01     		.2byte	0x16e
 1464 02d1 04070000 		.4byte	0x704
 1465 02d5 0C       		.byte	0xc
 1466 02d6 09       		.uleb128 0x9
 1467 02d7 FD0A0000 		.4byte	.LASF31
 1468 02db 06       		.byte	0x6
 1469 02dc 7101     		.2byte	0x171
 1470 02de 3D020000 		.4byte	0x23d
 1471 02e2 10       		.byte	0x10
 1472 02e3 09       		.uleb128 0x9
 1473 02e4 07050000 		.4byte	.LASF32
 1474 02e8 06       		.byte	0x6
 1475 02e9 7201     		.2byte	0x172
 1476 02eb 3D020000 		.4byte	0x23d
 1477 02ef 14       		.byte	0x14
 1478 02f0 09       		.uleb128 0x9
 1479 02f1 B6060000 		.4byte	.LASF55
 1480 02f5 06       		.byte	0x6
 1481 02f6 7501     		.2byte	0x175
 1482 02f8 3D020000 		.4byte	0x23d
ARM GAS  /tmp/ccFu9jx6.s 			page 27


 1483 02fc 18       		.byte	0x18
 1484 02fd 00       		.byte	0
 1485 02fe 04       		.uleb128 0x4
 1486 02ff 80000000 		.4byte	.LASF56
 1487 0303 05       		.byte	0x5
 1488 0304 5C       		.byte	0x5c
 1489 0305 09030000 		.4byte	0x309
 1490 0309 0A       		.uleb128 0xa
 1491 030a 04       		.byte	0x4
 1492 030b 0F030000 		.4byte	0x30f
 1493 030f 0C       		.uleb128 0xc
 1494 0310 1A030000 		.4byte	0x31a
 1495 0314 0D       		.uleb128 0xd
 1496 0315 1A030000 		.4byte	0x31a
 1497 0319 00       		.byte	0
 1498 031a 0E       		.uleb128 0xe
 1499 031b 04       		.byte	0x4
 1500 031c 04       		.uleb128 0x4
 1501 031d EA040000 		.4byte	.LASF57
 1502 0321 05       		.byte	0x5
 1503 0322 61       		.byte	0x61
 1504 0323 27030000 		.4byte	0x327
 1505 0327 0B       		.uleb128 0xb
 1506 0328 AE070000 		.4byte	.LASF58
 1507 032c 14       		.byte	0x14
 1508 032d 06       		.byte	0x6
 1509 032e 4501     		.2byte	0x145
 1510 0330 76030000 		.4byte	0x376
 1511 0334 09       		.uleb128 0x9
 1512 0335 E20B0000 		.4byte	.LASF49
 1513 0339 06       		.byte	0x6
 1514 033a 4601     		.2byte	0x146
 1515 033c 030A0000 		.4byte	0xa03
 1516 0340 00       		.byte	0
 1517 0341 09       		.uleb128 0x9
 1518 0342 E70B0000 		.4byte	.LASF52
 1519 0346 06       		.byte	0x6
 1520 0347 4701     		.2byte	0x147
 1521 0349 030A0000 		.4byte	0xa03
 1522 034d 04       		.byte	0x4
 1523 034e 09       		.uleb128 0x9
 1524 034f 2A090000 		.4byte	.LASF59
 1525 0353 06       		.byte	0x6
 1526 0354 4801     		.2byte	0x148
 1527 0356 31010000 		.4byte	0x131
 1528 035a 08       		.byte	0x8
 1529 035b 09       		.uleb128 0x9
 1530 035c 410A0000 		.4byte	.LASF60
 1531 0360 06       		.byte	0x6
 1532 0361 4901     		.2byte	0x149
 1533 0363 FE020000 		.4byte	0x2fe
 1534 0367 0C       		.byte	0xc
 1535 0368 08       		.uleb128 0x8
 1536 0369 70617200 		.ascii	"par\000"
 1537 036d 06       		.byte	0x6
 1538 036e 4B01     		.2byte	0x14b
 1539 0370 1A030000 		.4byte	0x31a
ARM GAS  /tmp/ccFu9jx6.s 			page 28


 1540 0374 10       		.byte	0x10
 1541 0375 00       		.byte	0
 1542 0376 04       		.uleb128 0x4
 1543 0377 B9040000 		.4byte	.LASF61
 1544 037b 05       		.byte	0x5
 1545 037c 66       		.byte	0x66
 1546 037d 81030000 		.4byte	0x381
 1547 0381 0B       		.uleb128 0xb
 1548 0382 89000000 		.4byte	.LASF62
 1549 0386 10       		.byte	0x10
 1550 0387 06       		.byte	0x6
 1551 0388 5501     		.2byte	0x155
 1552 038a C3030000 		.4byte	0x3c3
 1553 038e 09       		.uleb128 0x9
 1554 038f E20B0000 		.4byte	.LASF49
 1555 0393 06       		.byte	0x6
 1556 0394 5601     		.2byte	0x156
 1557 0396 030A0000 		.4byte	0xa03
 1558 039a 00       		.byte	0
 1559 039b 09       		.uleb128 0x9
 1560 039c E70B0000 		.4byte	.LASF52
 1561 03a0 06       		.byte	0x6
 1562 03a1 5801     		.2byte	0x158
 1563 03a3 030A0000 		.4byte	0xa03
 1564 03a7 04       		.byte	0x4
 1565 03a8 09       		.uleb128 0x9
 1566 03a9 2A090000 		.4byte	.LASF59
 1567 03ad 06       		.byte	0x6
 1568 03ae 5A01     		.2byte	0x15a
 1569 03b0 31010000 		.4byte	0x131
 1570 03b4 08       		.byte	0x8
 1571 03b5 09       		.uleb128 0x9
 1572 03b6 6E020000 		.4byte	.LASF63
 1573 03ba 06       		.byte	0x6
 1574 03bb 6201     		.2byte	0x162
 1575 03bd 31010000 		.4byte	0x131
 1576 03c1 0C       		.byte	0xc
 1577 03c2 00       		.byte	0
 1578 03c3 04       		.uleb128 0x4
 1579 03c4 A7020000 		.4byte	.LASF64
 1580 03c8 05       		.byte	0x5
 1581 03c9 6B       		.byte	0x6b
 1582 03ca CE030000 		.4byte	0x3ce
 1583 03ce 0B       		.uleb128 0xb
 1584 03cf 6A0A0000 		.4byte	.LASF65
 1585 03d3 04       		.byte	0x4
 1586 03d4 06       		.byte	0x6
 1587 03d5 7C01     		.2byte	0x17c
 1588 03d7 E9030000 		.4byte	0x3e9
 1589 03db 09       		.uleb128 0x9
 1590 03dc 90020000 		.4byte	.LASF66
 1591 03e0 06       		.byte	0x6
 1592 03e1 8401     		.2byte	0x184
 1593 03e3 090A0000 		.4byte	0xa09
 1594 03e7 00       		.byte	0
 1595 03e8 00       		.byte	0
 1596 03e9 04       		.uleb128 0x4
ARM GAS  /tmp/ccFu9jx6.s 			page 29


 1597 03ea 740B0000 		.4byte	.LASF67
 1598 03ee 05       		.byte	0x5
 1599 03ef 70       		.byte	0x70
 1600 03f0 F4030000 		.4byte	0x3f4
 1601 03f4 0B       		.uleb128 0xb
 1602 03f5 F30A0000 		.4byte	.LASF68
 1603 03f9 D0       		.byte	0xd0
 1604 03fa 06       		.byte	0x6
 1605 03fb 9C01     		.2byte	0x19c
 1606 03fd 4F040000 		.4byte	0x44f
 1607 0401 09       		.uleb128 0x9
 1608 0402 A3090000 		.4byte	.LASF69
 1609 0406 06       		.byte	0x6
 1610 0407 A001     		.2byte	0x1a0
 1611 0409 97020000 		.4byte	0x297
 1612 040d 00       		.byte	0
 1613 040e 09       		.uleb128 0x9
 1614 040f 9A0A0000 		.4byte	.LASF70
 1615 0413 06       		.byte	0x6
 1616 0414 A401     		.2byte	0x1a4
 1617 0416 76030000 		.4byte	0x376
 1618 041a 1C       		.byte	0x1c
 1619 041b 08       		.uleb128 0x8
 1620 041c 64626700 		.ascii	"dbg\000"
 1621 0420 06       		.byte	0x6
 1622 0421 A801     		.2byte	0x1a8
 1623 0423 C3030000 		.4byte	0x3c3
 1624 0427 2C       		.byte	0x2c
 1625 0428 09       		.uleb128 0x9
 1626 0429 64090000 		.4byte	.LASF71
 1627 042d 06       		.byte	0x6
 1628 042e AC01     		.2byte	0x1ac
 1629 0430 3C010000 		.4byte	0x13c
 1630 0434 30       		.byte	0x30
 1631 0435 08       		.uleb128 0x8
 1632 0436 746D00   		.ascii	"tm\000"
 1633 0439 06       		.byte	0x6
 1634 043a B101     		.2byte	0x1b1
 1635 043c 83080000 		.4byte	0x883
 1636 0440 90       		.byte	0x90
 1637 0441 09       		.uleb128 0x9
 1638 0442 CE070000 		.4byte	.LASF72
 1639 0446 06       		.byte	0x6
 1640 0447 B701     		.2byte	0x1b7
 1641 0449 15090000 		.4byte	0x915
 1642 044d 98       		.byte	0x98
 1643 044e 00       		.byte	0
 1644 044f 0F       		.uleb128 0xf
 1645 0450 01       		.byte	0x1
 1646 0451 07       		.byte	0x7
 1647 0452 56       		.byte	0x56
 1648 0453 7F060000 		.4byte	0x67f
 1649 0457 10       		.uleb128 0x10
 1650 0458 0C040000 		.4byte	.LASF73
 1651 045c 72       		.sleb128 -14
 1652 045d 10       		.uleb128 0x10
 1653 045e 5B040000 		.4byte	.LASF74
ARM GAS  /tmp/ccFu9jx6.s 			page 30


 1654 0462 74       		.sleb128 -12
 1655 0463 10       		.uleb128 0x10
 1656 0464 49050000 		.4byte	.LASF75
 1657 0468 75       		.sleb128 -11
 1658 0469 10       		.uleb128 0x10
 1659 046a D4020000 		.4byte	.LASF76
 1660 046e 76       		.sleb128 -10
 1661 046f 10       		.uleb128 0x10
 1662 0470 D5050000 		.4byte	.LASF77
 1663 0474 7B       		.sleb128 -5
 1664 0475 10       		.uleb128 0x10
 1665 0476 E2090000 		.4byte	.LASF78
 1666 047a 7C       		.sleb128 -4
 1667 047b 10       		.uleb128 0x10
 1668 047c 9D0B0000 		.4byte	.LASF79
 1669 0480 7E       		.sleb128 -2
 1670 0481 10       		.uleb128 0x10
 1671 0482 E0010000 		.4byte	.LASF80
 1672 0486 7F       		.sleb128 -1
 1673 0487 10       		.uleb128 0x10
 1674 0488 36040000 		.4byte	.LASF81
 1675 048c 00       		.sleb128 0
 1676 048d 10       		.uleb128 0x10
 1677 048e 85090000 		.4byte	.LASF82
 1678 0492 01       		.sleb128 1
 1679 0493 10       		.uleb128 0x10
 1680 0494 87040000 		.4byte	.LASF83
 1681 0498 02       		.sleb128 2
 1682 0499 10       		.uleb128 0x10
 1683 049a 00000000 		.4byte	.LASF84
 1684 049e 03       		.sleb128 3
 1685 049f 10       		.uleb128 0x10
 1686 04a0 BC000000 		.4byte	.LASF85
 1687 04a4 04       		.sleb128 4
 1688 04a5 10       		.uleb128 0x10
 1689 04a6 330A0000 		.4byte	.LASF86
 1690 04aa 05       		.sleb128 5
 1691 04ab 10       		.uleb128 0x10
 1692 04ac 98090000 		.4byte	.LASF87
 1693 04b0 06       		.sleb128 6
 1694 04b1 10       		.uleb128 0x10
 1695 04b2 98030000 		.4byte	.LASF88
 1696 04b6 07       		.sleb128 7
 1697 04b7 10       		.uleb128 0x10
 1698 04b8 0E000000 		.4byte	.LASF89
 1699 04bc 08       		.sleb128 8
 1700 04bd 10       		.uleb128 0x10
 1701 04be 920B0000 		.4byte	.LASF90
 1702 04c2 09       		.sleb128 9
 1703 04c3 10       		.uleb128 0x10
 1704 04c4 3F0B0000 		.4byte	.LASF91
 1705 04c8 0A       		.sleb128 10
 1706 04c9 10       		.uleb128 0x10
 1707 04ca 96070000 		.4byte	.LASF92
 1708 04ce 0B       		.sleb128 11
 1709 04cf 10       		.uleb128 0x10
 1710 04d0 C5060000 		.4byte	.LASF93
ARM GAS  /tmp/ccFu9jx6.s 			page 31


 1711 04d4 0C       		.sleb128 12
 1712 04d5 10       		.uleb128 0x10
 1713 04d6 3C020000 		.4byte	.LASF94
 1714 04da 0D       		.sleb128 13
 1715 04db 10       		.uleb128 0x10
 1716 04dc 580A0000 		.4byte	.LASF95
 1717 04e0 0E       		.sleb128 14
 1718 04e1 10       		.uleb128 0x10
 1719 04e2 B1090000 		.4byte	.LASF96
 1720 04e6 0F       		.sleb128 15
 1721 04e7 10       		.uleb128 0x10
 1722 04e8 B9030000 		.4byte	.LASF97
 1723 04ec 10       		.sleb128 16
 1724 04ed 10       		.uleb128 0x10
 1725 04ee 19000000 		.4byte	.LASF98
 1726 04f2 11       		.sleb128 17
 1727 04f3 10       		.uleb128 0x10
 1728 04f4 5B090000 		.4byte	.LASF99
 1729 04f8 12       		.sleb128 18
 1730 04f9 10       		.uleb128 0x10
 1731 04fa AC030000 		.4byte	.LASF100
 1732 04fe 13       		.sleb128 19
 1733 04ff 10       		.uleb128 0x10
 1734 0500 F0020000 		.4byte	.LASF101
 1735 0504 14       		.sleb128 20
 1736 0505 10       		.uleb128 0x10
 1737 0506 1D0B0000 		.4byte	.LASF102
 1738 050a 15       		.sleb128 21
 1739 050b 10       		.uleb128 0x10
 1740 050c AB040000 		.4byte	.LASF103
 1741 0510 16       		.sleb128 22
 1742 0511 10       		.uleb128 0x10
 1743 0512 2B0B0000 		.4byte	.LASF104
 1744 0516 17       		.sleb128 23
 1745 0517 10       		.uleb128 0x10
 1746 0518 62050000 		.4byte	.LASF105
 1747 051c 18       		.sleb128 24
 1748 051d 10       		.uleb128 0x10
 1749 051e 7A0A0000 		.4byte	.LASF106
 1750 0522 19       		.sleb128 25
 1751 0523 10       		.uleb128 0x10
 1752 0524 B6010000 		.4byte	.LASF107
 1753 0528 1A       		.sleb128 26
 1754 0529 10       		.uleb128 0x10
 1755 052a 7D030000 		.4byte	.LASF108
 1756 052e 1B       		.sleb128 27
 1757 052f 10       		.uleb128 0x10
 1758 0530 E4000000 		.4byte	.LASF109
 1759 0534 1C       		.sleb128 28
 1760 0535 10       		.uleb128 0x10
 1761 0536 14090000 		.4byte	.LASF110
 1762 053a 1D       		.sleb128 29
 1763 053b 10       		.uleb128 0x10
 1764 053c 1E030000 		.4byte	.LASF111
 1765 0540 1E       		.sleb128 30
 1766 0541 10       		.uleb128 0x10
 1767 0542 40030000 		.4byte	.LASF112
ARM GAS  /tmp/ccFu9jx6.s 			page 32


 1768 0546 1F       		.sleb128 31
 1769 0547 10       		.uleb128 0x10
 1770 0548 9A020000 		.4byte	.LASF113
 1771 054c 20       		.sleb128 32
 1772 054d 10       		.uleb128 0x10
 1773 054e 42060000 		.4byte	.LASF114
 1774 0552 21       		.sleb128 33
 1775 0553 10       		.uleb128 0x10
 1776 0554 26050000 		.4byte	.LASF115
 1777 0558 22       		.sleb128 34
 1778 0559 10       		.uleb128 0x10
 1779 055a C5050000 		.4byte	.LASF116
 1780 055e 23       		.sleb128 35
 1781 055f 10       		.uleb128 0x10
 1782 0560 47010000 		.4byte	.LASF117
 1783 0564 24       		.sleb128 36
 1784 0565 10       		.uleb128 0x10
 1785 0566 1E090000 		.4byte	.LASF118
 1786 056a 25       		.sleb128 37
 1787 056b 10       		.uleb128 0x10
 1788 056c 28030000 		.4byte	.LASF119
 1789 0570 26       		.sleb128 38
 1790 0571 10       		.uleb128 0x10
 1791 0572 ED010000 		.4byte	.LASF120
 1792 0576 27       		.sleb128 39
 1793 0577 10       		.uleb128 0x10
 1794 0578 E8070000 		.4byte	.LASF121
 1795 057c 28       		.sleb128 40
 1796 057d 10       		.uleb128 0x10
 1797 057e BF070000 		.4byte	.LASF122
 1798 0582 29       		.sleb128 41
 1799 0583 10       		.uleb128 0x10
 1800 0584 F5050000 		.4byte	.LASF123
 1801 0588 2A       		.sleb128 42
 1802 0589 10       		.uleb128 0x10
 1803 058a 51010000 		.4byte	.LASF124
 1804 058e 2B       		.sleb128 43
 1805 058f 10       		.uleb128 0x10
 1806 0590 2B000000 		.4byte	.LASF125
 1807 0594 2C       		.sleb128 44
 1808 0595 10       		.uleb128 0x10
 1809 0596 CB030000 		.4byte	.LASF126
 1810 059a 2D       		.sleb128 45
 1811 059b 10       		.uleb128 0x10
 1812 059c 5D0B0000 		.4byte	.LASF127
 1813 05a0 2E       		.sleb128 46
 1814 05a1 10       		.uleb128 0x10
 1815 05a2 BC0B0000 		.4byte	.LASF128
 1816 05a6 2F       		.sleb128 47
 1817 05a7 10       		.uleb128 0x10
 1818 05a8 8E090000 		.4byte	.LASF129
 1819 05ac 30       		.sleb128 48
 1820 05ad 10       		.uleb128 0x10
 1821 05ae 6A0B0000 		.4byte	.LASF130
 1822 05b2 31       		.sleb128 49
 1823 05b3 10       		.uleb128 0x10
 1824 05b4 CA020000 		.4byte	.LASF131
ARM GAS  /tmp/ccFu9jx6.s 			page 33


 1825 05b8 32       		.sleb128 50
 1826 05b9 10       		.uleb128 0x10
 1827 05ba B2000000 		.4byte	.LASF132
 1828 05be 33       		.sleb128 51
 1829 05bf 10       		.uleb128 0x10
 1830 05c0 EA050000 		.4byte	.LASF133
 1831 05c4 34       		.sleb128 52
 1832 05c5 10       		.uleb128 0x10
 1833 05c6 57050000 		.4byte	.LASF134
 1834 05ca 35       		.sleb128 53
 1835 05cb 10       		.uleb128 0x10
 1836 05cc EC0B0000 		.4byte	.LASF135
 1837 05d0 36       		.sleb128 54
 1838 05d1 10       		.uleb128 0x10
 1839 05d2 88050000 		.4byte	.LASF136
 1840 05d6 37       		.sleb128 55
 1841 05d7 10       		.uleb128 0x10
 1842 05d8 CF040000 		.4byte	.LASF137
 1843 05dc 38       		.sleb128 56
 1844 05dd 10       		.uleb128 0x10
 1845 05de A0000000 		.4byte	.LASF138
 1846 05e2 39       		.sleb128 57
 1847 05e3 10       		.uleb128 0x10
 1848 05e4 FA0B0000 		.4byte	.LASF139
 1849 05e8 3A       		.sleb128 58
 1850 05e9 10       		.uleb128 0x10
 1851 05ea D7060000 		.4byte	.LASF140
 1852 05ee 3B       		.sleb128 59
 1853 05ef 10       		.uleb128 0x10
 1854 05f0 5C020000 		.4byte	.LASF141
 1855 05f4 3C       		.sleb128 60
 1856 05f5 10       		.uleb128 0x10
 1857 05f6 120A0000 		.4byte	.LASF142
 1858 05fa 3D       		.sleb128 61
 1859 05fb 10       		.uleb128 0x10
 1860 05fc A0050000 		.4byte	.LASF143
 1861 0600 3E       		.sleb128 62
 1862 0601 10       		.uleb128 0x10
 1863 0602 E9060000 		.4byte	.LASF144
 1864 0606 3F       		.sleb128 63
 1865 0607 10       		.uleb128 0x10
 1866 0608 09010000 		.4byte	.LASF145
 1867 060c C000     		.sleb128 64
 1868 060e 10       		.uleb128 0x10
 1869 060f 44090000 		.4byte	.LASF146
 1870 0613 C100     		.sleb128 65
 1871 0615 10       		.uleb128 0x10
 1872 0616 B6020000 		.4byte	.LASF147
 1873 061a C200     		.sleb128 66
 1874 061c 10       		.uleb128 0x10
 1875 061d F5030000 		.4byte	.LASF148
 1876 0621 C300     		.sleb128 67
 1877 0623 10       		.uleb128 0x10
 1878 0624 82010000 		.4byte	.LASF149
 1879 0628 C400     		.sleb128 68
 1880 062a 10       		.uleb128 0x10
 1881 062b D0090000 		.4byte	.LASF150
ARM GAS  /tmp/ccFu9jx6.s 			page 34


 1882 062f C500     		.sleb128 69
 1883 0631 10       		.uleb128 0x10
 1884 0632 E3030000 		.4byte	.LASF151
 1885 0636 C600     		.sleb128 70
 1886 0638 10       		.uleb128 0x10
 1887 0639 17010000 		.4byte	.LASF152
 1888 063d C700     		.sleb128 71
 1889 063f 10       		.uleb128 0x10
 1890 0640 F4090000 		.4byte	.LASF153
 1891 0644 C800     		.sleb128 72
 1892 0646 10       		.uleb128 0x10
 1893 0647 DB070000 		.4byte	.LASF154
 1894 064b C900     		.sleb128 73
 1895 064d 10       		.uleb128 0x10
 1896 064e C30A0000 		.4byte	.LASF155
 1897 0652 CA00     		.sleb128 74
 1898 0654 10       		.uleb128 0x10
 1899 0655 A90B0000 		.4byte	.LASF156
 1900 0659 CB00     		.sleb128 75
 1901 065b 10       		.uleb128 0x10
 1902 065c 36010000 		.4byte	.LASF157
 1903 0660 CC00     		.sleb128 76
 1904 0662 10       		.uleb128 0x10
 1905 0663 AE050000 		.4byte	.LASF158
 1906 0667 CD00     		.sleb128 77
 1907 0669 10       		.uleb128 0x10
 1908 066a C7000000 		.4byte	.LASF159
 1909 066e CE00     		.sleb128 78
 1910 0670 10       		.uleb128 0x10
 1911 0671 8A030000 		.4byte	.LASF160
 1912 0675 D000     		.sleb128 80
 1913 0677 10       		.uleb128 0x10
 1914 0678 E1050000 		.4byte	.LASF161
 1915 067c D100     		.sleb128 81
 1916 067e 00       		.byte	0
 1917 067f 03       		.uleb128 0x3
 1918 0680 04       		.byte	0x4
 1919 0681 07       		.byte	0x7
 1920 0682 3E000000 		.4byte	.LASF162
 1921 0686 11       		.uleb128 0x11
 1922 0687 AD000000 		.4byte	0xad
 1923 068b 12       		.uleb128 0x12
 1924 068c 18       		.byte	0x18
 1925 068d 07       		.byte	0x7
 1926 068e CC01     		.2byte	0x1cc
 1927 0690 E2060000 		.4byte	0x6e2
 1928 0694 08       		.uleb128 0x8
 1929 0695 494D5200 		.ascii	"IMR\000"
 1930 0699 07       		.byte	0x7
 1931 069a CE01     		.2byte	0x1ce
 1932 069c 86060000 		.4byte	0x686
 1933 06a0 00       		.byte	0
 1934 06a1 08       		.uleb128 0x8
 1935 06a2 454D5200 		.ascii	"EMR\000"
 1936 06a6 07       		.byte	0x7
 1937 06a7 CF01     		.2byte	0x1cf
 1938 06a9 86060000 		.4byte	0x686
ARM GAS  /tmp/ccFu9jx6.s 			page 35


 1939 06ad 04       		.byte	0x4
 1940 06ae 09       		.uleb128 0x9
 1941 06af CE010000 		.4byte	.LASF163
 1942 06b3 07       		.byte	0x7
 1943 06b4 D001     		.2byte	0x1d0
 1944 06b6 86060000 		.4byte	0x686
 1945 06ba 08       		.byte	0x8
 1946 06bb 09       		.uleb128 0x9
 1947 06bc FF000000 		.4byte	.LASF164
 1948 06c0 07       		.byte	0x7
 1949 06c1 D101     		.2byte	0x1d1
 1950 06c3 86060000 		.4byte	0x686
 1951 06c7 0C       		.byte	0xc
 1952 06c8 09       		.uleb128 0x9
 1953 06c9 A8070000 		.4byte	.LASF165
 1954 06cd 07       		.byte	0x7
 1955 06ce D201     		.2byte	0x1d2
 1956 06d0 86060000 		.4byte	0x686
 1957 06d4 10       		.byte	0x10
 1958 06d5 08       		.uleb128 0x8
 1959 06d6 505200   		.ascii	"PR\000"
 1960 06d9 07       		.byte	0x7
 1961 06da D301     		.2byte	0x1d3
 1962 06dc 86060000 		.4byte	0x686
 1963 06e0 14       		.byte	0x14
 1964 06e1 00       		.byte	0
 1965 06e2 13       		.uleb128 0x13
 1966 06e3 D3010000 		.4byte	.LASF166
 1967 06e7 07       		.byte	0x7
 1968 06e8 D401     		.2byte	0x1d4
 1969 06ea 8B060000 		.4byte	0x68b
 1970 06ee 04       		.uleb128 0x4
 1971 06ef F6060000 		.4byte	.LASF167
 1972 06f3 08       		.byte	0x8
 1973 06f4 65       		.byte	0x65
 1974 06f5 1A030000 		.4byte	0x31a
 1975 06f9 04       		.uleb128 0x4
 1976 06fa 0D030000 		.4byte	.LASF168
 1977 06fe 08       		.byte	0x8
 1978 06ff 6D       		.byte	0x6d
 1979 0700 B8000000 		.4byte	0xb8
 1980 0704 05       		.uleb128 0x5
 1981 0705 D70A0000 		.4byte	.LASF169
 1982 0709 04       		.byte	0x4
 1983 070a 08       		.byte	0x8
 1984 070b 89       		.byte	0x89
 1985 070c 1C070000 		.4byte	0x71c
 1986 0710 07       		.uleb128 0x7
 1987 0711 737000   		.ascii	"sp\000"
 1988 0714 08       		.byte	0x8
 1989 0715 8A       		.byte	0x8a
 1990 0716 68080000 		.4byte	0x868
 1991 071a 00       		.byte	0
 1992 071b 00       		.byte	0
 1993 071c 0B       		.uleb128 0xb
 1994 071d 8A070000 		.4byte	.LASF170
 1995 0721 64       		.byte	0x64
ARM GAS  /tmp/ccFu9jx6.s 			page 36


 1996 0722 09       		.byte	0x9
 1997 0723 5901     		.2byte	0x159
 1998 0725 68080000 		.4byte	0x868
 1999 0729 08       		.uleb128 0x8
 2000 072a 73313600 		.ascii	"s16\000"
 2001 072e 09       		.byte	0x9
 2002 072f 5B01     		.2byte	0x15b
 2003 0731 EE060000 		.4byte	0x6ee
 2004 0735 00       		.byte	0
 2005 0736 08       		.uleb128 0x8
 2006 0737 73313700 		.ascii	"s17\000"
 2007 073b 09       		.byte	0x9
 2008 073c 5C01     		.2byte	0x15c
 2009 073e EE060000 		.4byte	0x6ee
 2010 0742 04       		.byte	0x4
 2011 0743 08       		.uleb128 0x8
 2012 0744 73313800 		.ascii	"s18\000"
 2013 0748 09       		.byte	0x9
 2014 0749 5D01     		.2byte	0x15d
 2015 074b EE060000 		.4byte	0x6ee
 2016 074f 08       		.byte	0x8
 2017 0750 08       		.uleb128 0x8
 2018 0751 73313900 		.ascii	"s19\000"
 2019 0755 09       		.byte	0x9
 2020 0756 5E01     		.2byte	0x15e
 2021 0758 EE060000 		.4byte	0x6ee
 2022 075c 0C       		.byte	0xc
 2023 075d 08       		.uleb128 0x8
 2024 075e 73323000 		.ascii	"s20\000"
 2025 0762 09       		.byte	0x9
 2026 0763 5F01     		.2byte	0x15f
 2027 0765 EE060000 		.4byte	0x6ee
 2028 0769 10       		.byte	0x10
 2029 076a 08       		.uleb128 0x8
 2030 076b 73323100 		.ascii	"s21\000"
 2031 076f 09       		.byte	0x9
 2032 0770 6001     		.2byte	0x160
 2033 0772 EE060000 		.4byte	0x6ee
 2034 0776 14       		.byte	0x14
 2035 0777 08       		.uleb128 0x8
 2036 0778 73323200 		.ascii	"s22\000"
 2037 077c 09       		.byte	0x9
 2038 077d 6101     		.2byte	0x161
 2039 077f EE060000 		.4byte	0x6ee
 2040 0783 18       		.byte	0x18
 2041 0784 08       		.uleb128 0x8
 2042 0785 73323300 		.ascii	"s23\000"
 2043 0789 09       		.byte	0x9
 2044 078a 6201     		.2byte	0x162
 2045 078c EE060000 		.4byte	0x6ee
 2046 0790 1C       		.byte	0x1c
 2047 0791 08       		.uleb128 0x8
 2048 0792 73323400 		.ascii	"s24\000"
 2049 0796 09       		.byte	0x9
 2050 0797 6301     		.2byte	0x163
 2051 0799 EE060000 		.4byte	0x6ee
 2052 079d 20       		.byte	0x20
ARM GAS  /tmp/ccFu9jx6.s 			page 37


 2053 079e 08       		.uleb128 0x8
 2054 079f 73323500 		.ascii	"s25\000"
 2055 07a3 09       		.byte	0x9
 2056 07a4 6401     		.2byte	0x164
 2057 07a6 EE060000 		.4byte	0x6ee
 2058 07aa 24       		.byte	0x24
 2059 07ab 08       		.uleb128 0x8
 2060 07ac 73323600 		.ascii	"s26\000"
 2061 07b0 09       		.byte	0x9
 2062 07b1 6501     		.2byte	0x165
 2063 07b3 EE060000 		.4byte	0x6ee
 2064 07b7 28       		.byte	0x28
 2065 07b8 08       		.uleb128 0x8
 2066 07b9 73323700 		.ascii	"s27\000"
 2067 07bd 09       		.byte	0x9
 2068 07be 6601     		.2byte	0x166
 2069 07c0 EE060000 		.4byte	0x6ee
 2070 07c4 2C       		.byte	0x2c
 2071 07c5 08       		.uleb128 0x8
 2072 07c6 73323800 		.ascii	"s28\000"
 2073 07ca 09       		.byte	0x9
 2074 07cb 6701     		.2byte	0x167
 2075 07cd EE060000 		.4byte	0x6ee
 2076 07d1 30       		.byte	0x30
 2077 07d2 08       		.uleb128 0x8
 2078 07d3 73323900 		.ascii	"s29\000"
 2079 07d7 09       		.byte	0x9
 2080 07d8 6801     		.2byte	0x168
 2081 07da EE060000 		.4byte	0x6ee
 2082 07de 34       		.byte	0x34
 2083 07df 08       		.uleb128 0x8
 2084 07e0 73333000 		.ascii	"s30\000"
 2085 07e4 09       		.byte	0x9
 2086 07e5 6901     		.2byte	0x169
 2087 07e7 EE060000 		.4byte	0x6ee
 2088 07eb 38       		.byte	0x38
 2089 07ec 08       		.uleb128 0x8
 2090 07ed 73333100 		.ascii	"s31\000"
 2091 07f1 09       		.byte	0x9
 2092 07f2 6A01     		.2byte	0x16a
 2093 07f4 EE060000 		.4byte	0x6ee
 2094 07f8 3C       		.byte	0x3c
 2095 07f9 08       		.uleb128 0x8
 2096 07fa 723400   		.ascii	"r4\000"
 2097 07fd 09       		.byte	0x9
 2098 07fe 6C01     		.2byte	0x16c
 2099 0800 EE060000 		.4byte	0x6ee
 2100 0804 40       		.byte	0x40
 2101 0805 08       		.uleb128 0x8
 2102 0806 723500   		.ascii	"r5\000"
 2103 0809 09       		.byte	0x9
 2104 080a 6D01     		.2byte	0x16d
 2105 080c EE060000 		.4byte	0x6ee
 2106 0810 44       		.byte	0x44
 2107 0811 08       		.uleb128 0x8
 2108 0812 723600   		.ascii	"r6\000"
 2109 0815 09       		.byte	0x9
ARM GAS  /tmp/ccFu9jx6.s 			page 38


 2110 0816 6E01     		.2byte	0x16e
 2111 0818 EE060000 		.4byte	0x6ee
 2112 081c 48       		.byte	0x48
 2113 081d 08       		.uleb128 0x8
 2114 081e 723700   		.ascii	"r7\000"
 2115 0821 09       		.byte	0x9
 2116 0822 6F01     		.2byte	0x16f
 2117 0824 EE060000 		.4byte	0x6ee
 2118 0828 4C       		.byte	0x4c
 2119 0829 08       		.uleb128 0x8
 2120 082a 723800   		.ascii	"r8\000"
 2121 082d 09       		.byte	0x9
 2122 082e 7001     		.2byte	0x170
 2123 0830 EE060000 		.4byte	0x6ee
 2124 0834 50       		.byte	0x50
 2125 0835 08       		.uleb128 0x8
 2126 0836 723900   		.ascii	"r9\000"
 2127 0839 09       		.byte	0x9
 2128 083a 7101     		.2byte	0x171
 2129 083c EE060000 		.4byte	0x6ee
 2130 0840 54       		.byte	0x54
 2131 0841 08       		.uleb128 0x8
 2132 0842 72313000 		.ascii	"r10\000"
 2133 0846 09       		.byte	0x9
 2134 0847 7201     		.2byte	0x172
 2135 0849 EE060000 		.4byte	0x6ee
 2136 084d 58       		.byte	0x58
 2137 084e 08       		.uleb128 0x8
 2138 084f 72313100 		.ascii	"r11\000"
 2139 0853 09       		.byte	0x9
 2140 0854 7301     		.2byte	0x173
 2141 0856 EE060000 		.4byte	0x6ee
 2142 085a 5C       		.byte	0x5c
 2143 085b 08       		.uleb128 0x8
 2144 085c 6C7200   		.ascii	"lr\000"
 2145 085f 09       		.byte	0x9
 2146 0860 7401     		.2byte	0x174
 2147 0862 EE060000 		.4byte	0x6ee
 2148 0866 60       		.byte	0x60
 2149 0867 00       		.byte	0
 2150 0868 0A       		.uleb128 0xa
 2151 0869 04       		.byte	0x4
 2152 086a 1C070000 		.4byte	0x71c
 2153 086e 14       		.uleb128 0x14
 2154 086f 04       		.byte	0x4
 2155 0870 0A       		.byte	0xa
 2156 0871 38       		.byte	0x38
 2157 0872 83080000 		.4byte	0x883
 2158 0876 06       		.uleb128 0x6
 2159 0877 BE060000 		.4byte	.LASF171
 2160 087b 0A       		.byte	0xa
 2161 087c 3C       		.byte	0x3c
 2162 087d C3000000 		.4byte	0xc3
 2163 0881 00       		.byte	0
 2164 0882 00       		.byte	0
 2165 0883 04       		.uleb128 0x4
 2166 0884 010A0000 		.4byte	.LASF172
ARM GAS  /tmp/ccFu9jx6.s 			page 39


 2167 0888 0A       		.byte	0xa
 2168 0889 3D       		.byte	0x3d
 2169 088a 6E080000 		.4byte	0x86e
 2170 088e 14       		.uleb128 0x14
 2171 088f 18       		.byte	0x18
 2172 0890 0A       		.byte	0xa
 2173 0891 48       		.byte	0x48
 2174 0892 D1080000 		.4byte	0x8d1
 2175 0896 06       		.uleb128 0x6
 2176 0897 79090000 		.4byte	.LASF173
 2177 089b 0A       		.byte	0xa
 2178 089c 49       		.byte	0x49
 2179 089d C3000000 		.4byte	0xc3
 2180 08a1 00       		.byte	0
 2181 08a2 06       		.uleb128 0x6
 2182 08a3 34030000 		.4byte	.LASF174
 2183 08a7 0A       		.byte	0xa
 2184 08a8 4A       		.byte	0x4a
 2185 08a9 C3000000 		.4byte	0xc3
 2186 08ad 04       		.byte	0x4
 2187 08ae 06       		.uleb128 0x6
 2188 08af 0C0C0000 		.4byte	.LASF175
 2189 08b3 0A       		.byte	0xa
 2190 08b4 4B       		.byte	0x4b
 2191 08b5 C3000000 		.4byte	0xc3
 2192 08b9 08       		.byte	0x8
 2193 08ba 07       		.uleb128 0x7
 2194 08bb 6E00     		.ascii	"n\000"
 2195 08bd 0A       		.byte	0xa
 2196 08be 4C       		.byte	0x4c
 2197 08bf 26010000 		.4byte	0x126
 2198 08c3 0C       		.byte	0xc
 2199 08c4 06       		.uleb128 0x6
 2200 08c5 04020000 		.4byte	.LASF176
 2201 08c9 0A       		.byte	0xa
 2202 08ca 4D       		.byte	0x4d
 2203 08cb CE000000 		.4byte	0xce
 2204 08cf 10       		.byte	0x10
 2205 08d0 00       		.byte	0
 2206 08d1 04       		.uleb128 0x4
 2207 08d2 06060000 		.4byte	.LASF177
 2208 08d6 0A       		.byte	0xa
 2209 08d7 4E       		.byte	0x4e
 2210 08d8 8E080000 		.4byte	0x88e
 2211 08dc 14       		.uleb128 0x14
 2212 08dd 38       		.byte	0x38
 2213 08de 0B       		.byte	0xb
 2214 08df 38       		.byte	0x38
 2215 08e0 15090000 		.4byte	0x915
 2216 08e4 06       		.uleb128 0x6
 2217 08e5 43050000 		.4byte	.LASF178
 2218 08e9 0B       		.byte	0xb
 2219 08ea 39       		.byte	0x39
 2220 08eb 26010000 		.4byte	0x126
 2221 08ef 00       		.byte	0
 2222 08f0 06       		.uleb128 0x6
 2223 08f1 FE020000 		.4byte	.LASF179
ARM GAS  /tmp/ccFu9jx6.s 			page 40


 2224 08f5 0B       		.byte	0xb
 2225 08f6 3A       		.byte	0x3a
 2226 08f7 26010000 		.4byte	0x126
 2227 08fb 04       		.byte	0x4
 2228 08fc 06       		.uleb128 0x6
 2229 08fd 01040000 		.4byte	.LASF180
 2230 0901 0B       		.byte	0xb
 2231 0902 3B       		.byte	0x3b
 2232 0903 D1080000 		.4byte	0x8d1
 2233 0907 08       		.byte	0x8
 2234 0908 06       		.uleb128 0x6
 2235 0909 22060000 		.4byte	.LASF181
 2236 090d 0B       		.byte	0xb
 2237 090e 3D       		.byte	0x3d
 2238 090f D1080000 		.4byte	0x8d1
 2239 0913 20       		.byte	0x20
 2240 0914 00       		.byte	0
 2241 0915 04       		.uleb128 0x4
 2242 0916 4F060000 		.4byte	.LASF182
 2243 091a 0B       		.byte	0xb
 2244 091b 3F       		.byte	0x3f
 2245 091c DC080000 		.4byte	0x8dc
 2246 0920 15       		.uleb128 0x15
 2247 0921 04       		.byte	0x4
 2248 0922 06       		.byte	0x6
 2249 0923 D2       		.byte	0xd2
 2250 0924 83090000 		.4byte	0x983
 2251 0928 16       		.uleb128 0x16
 2252 0929 380B0000 		.4byte	.LASF183
 2253 092d 06       		.byte	0x6
 2254 092e D9       		.byte	0xd9
 2255 092f 05010000 		.4byte	0x105
 2256 0933 16       		.uleb128 0x16
 2257 0934 23010000 		.4byte	.LASF184
 2258 0938 06       		.byte	0x6
 2259 0939 E0       		.byte	0xe0
 2260 093a 05010000 		.4byte	0x105
 2261 093e 16       		.uleb128 0x16
 2262 093f E9020000 		.4byte	.LASF185
 2263 0943 06       		.byte	0x6
 2264 0944 E7       		.byte	0xe7
 2265 0945 1A030000 		.4byte	0x31a
 2266 0949 16       		.uleb128 0x16
 2267 094a 36020000 		.4byte	.LASF186
 2268 094e 06       		.byte	0x6
 2269 094f EE       		.byte	0xee
 2270 0950 83090000 		.4byte	0x983
 2271 0954 16       		.uleb128 0x16
 2272 0955 82070000 		.4byte	.LASF187
 2273 0959 06       		.byte	0x6
 2274 095a F3       		.byte	0xf3
 2275 095b 05010000 		.4byte	0x105
 2276 095f 16       		.uleb128 0x16
 2277 0960 47000000 		.4byte	.LASF188
 2278 0964 06       		.byte	0x6
 2279 0965 FC       		.byte	0xfc
 2280 0966 AE090000 		.4byte	0x9ae
ARM GAS  /tmp/ccFu9jx6.s 			page 41


 2281 096a 17       		.uleb128 0x17
 2282 096b 4D030000 		.4byte	.LASF189
 2283 096f 06       		.byte	0x6
 2284 0970 0501     		.2byte	0x105
 2285 0972 E5090000 		.4byte	0x9e5
 2286 0976 17       		.uleb128 0x17
 2287 0977 1B020000 		.4byte	.LASF190
 2288 097b 06       		.byte	0x6
 2289 097c 0D01     		.2byte	0x10d
 2290 097e 10010000 		.4byte	0x110
 2291 0982 00       		.byte	0
 2292 0983 0A       		.uleb128 0xa
 2293 0984 04       		.byte	0x4
 2294 0985 32020000 		.4byte	0x232
 2295 0989 05       		.uleb128 0x5
 2296 098a 7A040000 		.4byte	.LASF191
 2297 098e 0C       		.byte	0xc
 2298 098f 0C       		.byte	0xc
 2299 0990 34       		.byte	0x34
 2300 0991 AE090000 		.4byte	0x9ae
 2301 0995 06       		.uleb128 0x6
 2302 0996 3E090000 		.4byte	.LASF29
 2303 099a 0C       		.byte	0xc
 2304 099b 35       		.byte	0x35
 2305 099c 67020000 		.4byte	0x267
 2306 09a0 00       		.byte	0
 2307 09a1 07       		.uleb128 0x7
 2308 09a2 636E7400 		.ascii	"cnt\000"
 2309 09a6 0C       		.byte	0xc
 2310 09a7 37       		.byte	0x37
 2311 09a8 1B010000 		.4byte	0x11b
 2312 09ac 08       		.byte	0x8
 2313 09ad 00       		.byte	0
 2314 09ae 0A       		.uleb128 0xa
 2315 09af 04       		.byte	0x4
 2316 09b0 89090000 		.4byte	0x989
 2317 09b4 05       		.uleb128 0x5
 2318 09b5 460A0000 		.4byte	.LASF192
 2319 09b9 10       		.byte	0x10
 2320 09ba 0D       		.byte	0xd
 2321 09bb 39       		.byte	0x39
 2322 09bc E5090000 		.4byte	0x9e5
 2323 09c0 06       		.uleb128 0x6
 2324 09c1 3E090000 		.4byte	.LASF29
 2325 09c5 0D       		.byte	0xd
 2326 09c6 3A       		.byte	0x3a
 2327 09c7 67020000 		.4byte	0x267
 2328 09cb 00       		.byte	0
 2329 09cc 06       		.uleb128 0x6
 2330 09cd 58000000 		.4byte	.LASF193
 2331 09d1 0D       		.byte	0xd
 2332 09d2 3C       		.byte	0x3c
 2333 09d3 3D020000 		.4byte	0x23d
 2334 09d7 08       		.byte	0x8
 2335 09d8 06       		.uleb128 0x6
 2336 09d9 E20B0000 		.4byte	.LASF49
 2337 09dd 0D       		.byte	0xd
ARM GAS  /tmp/ccFu9jx6.s 			page 42


 2338 09de 3E       		.byte	0x3e
 2339 09df 190A0000 		.4byte	0xa19
 2340 09e3 0C       		.byte	0xc
 2341 09e4 00       		.byte	0
 2342 09e5 0A       		.uleb128 0xa
 2343 09e6 04       		.byte	0x4
 2344 09e7 B4090000 		.4byte	0x9b4
 2345 09eb 0A       		.uleb128 0xa
 2346 09ec 04       		.byte	0x4
 2347 09ed F1090000 		.4byte	0x9f1
 2348 09f1 18       		.uleb128 0x18
 2349 09f2 F6090000 		.4byte	0x9f6
 2350 09f6 03       		.uleb128 0x3
 2351 09f7 01       		.byte	0x1
 2352 09f8 08       		.byte	0x8
 2353 09f9 E4020000 		.4byte	.LASF194
 2354 09fd 0A       		.uleb128 0xa
 2355 09fe 04       		.byte	0x4
 2356 09ff F9060000 		.4byte	0x6f9
 2357 0a03 0A       		.uleb128 0xa
 2358 0a04 04       		.byte	0x4
 2359 0a05 1C030000 		.4byte	0x31c
 2360 0a09 11       		.uleb128 0x11
 2361 0a0a EB090000 		.4byte	0x9eb
 2362 0a0e 04       		.uleb128 0x4
 2363 0a0f B30A0000 		.4byte	.LASF195
 2364 0a13 0D       		.byte	0xd
 2365 0a14 34       		.byte	0x34
 2366 0a15 B4090000 		.4byte	0x9b4
 2367 0a19 0A       		.uleb128 0xa
 2368 0a1a 04       		.byte	0x4
 2369 0a1b 0E0A0000 		.4byte	0xa0e
 2370 0a1f 03       		.uleb128 0x3
 2371 0a20 01       		.byte	0x1
 2372 0a21 02       		.byte	0x2
 2373 0a22 C4020000 		.4byte	.LASF196
 2374 0a26 0F       		.uleb128 0xf
 2375 0a27 01       		.byte	0x1
 2376 0a28 0E       		.byte	0xe
 2377 0a29 40       		.byte	0x40
 2378 0a2a 410A0000 		.4byte	0xa41
 2379 0a2e 10       		.uleb128 0x10
 2380 0a2f 2B040000 		.4byte	.LASF197
 2381 0a33 00       		.sleb128 0
 2382 0a34 10       		.uleb128 0x10
 2383 0a35 62030000 		.4byte	.LASF198
 2384 0a39 01       		.sleb128 1
 2385 0a3a 10       		.uleb128 0x10
 2386 0a3b BA050000 		.4byte	.LASF199
 2387 0a3f 02       		.sleb128 2
 2388 0a40 00       		.byte	0
 2389 0a41 04       		.uleb128 0x4
 2390 0a42 F9010000 		.4byte	.LASF200
 2391 0a46 0E       		.byte	0xe
 2392 0a47 44       		.byte	0x44
 2393 0a48 260A0000 		.4byte	0xa26
 2394 0a4c 04       		.uleb128 0x4
ARM GAS  /tmp/ccFu9jx6.s 			page 43


 2395 0a4d D80B0000 		.4byte	.LASF201
 2396 0a51 0E       		.byte	0xe
 2397 0a52 49       		.byte	0x49
 2398 0a53 570A0000 		.4byte	0xa57
 2399 0a57 05       		.uleb128 0x5
 2400 0a58 D80B0000 		.4byte	.LASF201
 2401 0a5c 08       		.byte	0x8
 2402 0a5d 0F       		.byte	0xf
 2403 0a5e 73       		.byte	0x73
 2404 0a5f 7C0A0000 		.4byte	0xa7c
 2405 0a63 06       		.uleb128 0x6
 2406 0a64 D8000000 		.4byte	.LASF35
 2407 0a68 0F       		.byte	0xf
 2408 0a69 77       		.byte	0x77
 2409 0a6a 410A0000 		.4byte	0xa41
 2410 0a6e 00       		.byte	0
 2411 0a6f 06       		.uleb128 0x6
 2412 0a70 D1000000 		.4byte	.LASF202
 2413 0a74 0F       		.byte	0xf
 2414 0a75 7B       		.byte	0x7b
 2415 0a76 090B0000 		.4byte	0xb09
 2416 0a7a 04       		.byte	0x4
 2417 0a7b 00       		.byte	0
 2418 0a7c 04       		.uleb128 0x4
 2419 0a7d C3090000 		.4byte	.LASF203
 2420 0a81 0F       		.byte	0xf
 2421 0a82 49       		.byte	0x49
 2422 0a83 AD000000 		.4byte	0xad
 2423 0a87 04       		.uleb128 0x4
 2424 0a88 17070000 		.4byte	.LASF204
 2425 0a8c 0F       		.byte	0xf
 2426 0a8d 51       		.byte	0x51
 2427 0a8e 920A0000 		.4byte	0xa92
 2428 0a92 0A       		.uleb128 0xa
 2429 0a93 04       		.byte	0x4
 2430 0a94 980A0000 		.4byte	0xa98
 2431 0a98 0C       		.uleb128 0xc
 2432 0a99 A80A0000 		.4byte	0xaa8
 2433 0a9d 0D       		.uleb128 0xd
 2434 0a9e A80A0000 		.4byte	0xaa8
 2435 0aa2 0D       		.uleb128 0xd
 2436 0aa3 7C0A0000 		.4byte	0xa7c
 2437 0aa7 00       		.byte	0
 2438 0aa8 0A       		.uleb128 0xa
 2439 0aa9 04       		.byte	0x4
 2440 0aaa 4C0A0000 		.4byte	0xa4c
 2441 0aae 14       		.uleb128 0x14
 2442 0aaf 08       		.byte	0x8
 2443 0ab0 0F       		.byte	0xf
 2444 0ab1 56       		.byte	0x56
 2445 0ab2 CE0A0000 		.4byte	0xace
 2446 0ab6 06       		.uleb128 0x6
 2447 0ab7 3C0A0000 		.4byte	.LASF205
 2448 0abb 0F       		.byte	0xf
 2449 0abc 5A       		.byte	0x5a
 2450 0abd AD000000 		.4byte	0xad
 2451 0ac1 00       		.byte	0
ARM GAS  /tmp/ccFu9jx6.s 			page 44


 2452 0ac2 07       		.uleb128 0x7
 2453 0ac3 636200   		.ascii	"cb\000"
 2454 0ac6 0F       		.byte	0xf
 2455 0ac7 61       		.byte	0x61
 2456 0ac8 870A0000 		.4byte	0xa87
 2457 0acc 04       		.byte	0x4
 2458 0acd 00       		.byte	0
 2459 0ace 04       		.uleb128 0x4
 2460 0acf EE000000 		.4byte	.LASF206
 2461 0ad3 0F       		.byte	0xf
 2462 0ad4 62       		.byte	0x62
 2463 0ad5 AE0A0000 		.4byte	0xaae
 2464 0ad9 14       		.uleb128 0x14
 2465 0ada B8       		.byte	0xb8
 2466 0adb 0F       		.byte	0xf
 2467 0adc 68       		.byte	0x68
 2468 0add EE0A0000 		.4byte	0xaee
 2469 0ae1 06       		.uleb128 0x6
 2470 0ae2 30090000 		.4byte	.LASF207
 2471 0ae6 0F       		.byte	0xf
 2472 0ae7 6C       		.byte	0x6c
 2473 0ae8 EE0A0000 		.4byte	0xaee
 2474 0aec 00       		.byte	0
 2475 0aed 00       		.byte	0
 2476 0aee 19       		.uleb128 0x19
 2477 0aef CE0A0000 		.4byte	0xace
 2478 0af3 FE0A0000 		.4byte	0xafe
 2479 0af7 1A       		.uleb128 0x1a
 2480 0af8 7F060000 		.4byte	0x67f
 2481 0afc 16       		.byte	0x16
 2482 0afd 00       		.byte	0
 2483 0afe 04       		.uleb128 0x4
 2484 0aff 97040000 		.4byte	.LASF208
 2485 0b03 0F       		.byte	0xf
 2486 0b04 6E       		.byte	0x6e
 2487 0b05 D90A0000 		.4byte	0xad9
 2488 0b09 0A       		.uleb128 0xa
 2489 0b0a 04       		.byte	0x4
 2490 0b0b 0F0B0000 		.4byte	0xb0f
 2491 0b0f 18       		.uleb128 0x18
 2492 0b10 FE0A0000 		.4byte	0xafe
 2493 0b14 1B       		.uleb128 0x1b
 2494 0b15 52040000 		.4byte	.LASF209
 2495 0b19 01       		.byte	0x1
 2496 0b1a 38       		.byte	0x38
 2497 0b1b 00000000 		.4byte	.LFB277
 2498 0b1f 30000000 		.4byte	.LFE277-.LFB277
 2499 0b23 01       		.uleb128 0x1
 2500 0b24 9C       		.byte	0x9c
 2501 0b25 590B0000 		.4byte	0xb59
 2502 0b29 1C       		.uleb128 0x1c
 2503 0b2a 707200   		.ascii	"pr\000"
 2504 0b2d 01       		.byte	0x1
 2505 0b2e 39       		.byte	0x39
 2506 0b2f AD000000 		.4byte	0xad
 2507 0b33 00000000 		.4byte	.LLST0
 2508 0b37 1D       		.uleb128 0x1d
ARM GAS  /tmp/ccFu9jx6.s 			page 45


 2509 0b38 06000000 		.4byte	.LVL0
 2510 0b3c 1A120000 		.4byte	0x121a
 2511 0b40 1E       		.uleb128 0x1e
 2512 0b41 20000000 		.4byte	.LVL4
 2513 0b45 4F0B0000 		.4byte	0xb4f
 2514 0b49 1F       		.uleb128 0x1f
 2515 0b4a 01       		.uleb128 0x1
 2516 0b4b 51       		.byte	0x51
 2517 0b4c 01       		.uleb128 0x1
 2518 0b4d 30       		.byte	0x30
 2519 0b4e 00       		.byte	0
 2520 0b4f 20       		.uleb128 0x20
 2521 0b50 28000000 		.4byte	.LVL5
 2522 0b54 21120000 		.4byte	0x1221
 2523 0b58 00       		.byte	0
 2524 0b59 1B       		.uleb128 0x1b
 2525 0b5a 71040000 		.4byte	.LASF210
 2526 0b5e 01       		.byte	0x1
 2527 0b5f 4B       		.byte	0x4b
 2528 0b60 00000000 		.4byte	.LFB278
 2529 0b64 30000000 		.4byte	.LFE278-.LFB278
 2530 0b68 01       		.uleb128 0x1
 2531 0b69 9C       		.byte	0x9c
 2532 0b6a 9E0B0000 		.4byte	0xb9e
 2533 0b6e 1C       		.uleb128 0x1c
 2534 0b6f 707200   		.ascii	"pr\000"
 2535 0b72 01       		.byte	0x1
 2536 0b73 4C       		.byte	0x4c
 2537 0b74 AD000000 		.4byte	0xad
 2538 0b78 2A000000 		.4byte	.LLST1
 2539 0b7c 1D       		.uleb128 0x1d
 2540 0b7d 06000000 		.4byte	.LVL6
 2541 0b81 1A120000 		.4byte	0x121a
 2542 0b85 1E       		.uleb128 0x1e
 2543 0b86 20000000 		.4byte	.LVL10
 2544 0b8a 940B0000 		.4byte	0xb94
 2545 0b8e 1F       		.uleb128 0x1f
 2546 0b8f 01       		.uleb128 0x1
 2547 0b90 51       		.byte	0x51
 2548 0b91 01       		.uleb128 0x1
 2549 0b92 31       		.byte	0x31
 2550 0b93 00       		.byte	0
 2551 0b94 20       		.uleb128 0x20
 2552 0b95 28000000 		.4byte	.LVL11
 2553 0b99 21120000 		.4byte	0x1221
 2554 0b9d 00       		.byte	0
 2555 0b9e 1B       		.uleb128 0x1b
 2556 0b9f E1040000 		.4byte	.LASF211
 2557 0ba3 01       		.byte	0x1
 2558 0ba4 5E       		.byte	0x5e
 2559 0ba5 00000000 		.4byte	.LFB279
 2560 0ba9 30000000 		.4byte	.LFE279-.LFB279
 2561 0bad 01       		.uleb128 0x1
 2562 0bae 9C       		.byte	0x9c
 2563 0baf E30B0000 		.4byte	0xbe3
 2564 0bb3 1C       		.uleb128 0x1c
 2565 0bb4 707200   		.ascii	"pr\000"
ARM GAS  /tmp/ccFu9jx6.s 			page 46


 2566 0bb7 01       		.byte	0x1
 2567 0bb8 5F       		.byte	0x5f
 2568 0bb9 AD000000 		.4byte	0xad
 2569 0bbd 54000000 		.4byte	.LLST2
 2570 0bc1 1D       		.uleb128 0x1d
 2571 0bc2 06000000 		.4byte	.LVL12
 2572 0bc6 1A120000 		.4byte	0x121a
 2573 0bca 1E       		.uleb128 0x1e
 2574 0bcb 20000000 		.4byte	.LVL16
 2575 0bcf D90B0000 		.4byte	0xbd9
 2576 0bd3 1F       		.uleb128 0x1f
 2577 0bd4 01       		.uleb128 0x1
 2578 0bd5 51       		.byte	0x51
 2579 0bd6 01       		.uleb128 0x1
 2580 0bd7 32       		.byte	0x32
 2581 0bd8 00       		.byte	0
 2582 0bd9 20       		.uleb128 0x20
 2583 0bda 28000000 		.4byte	.LVL17
 2584 0bde 21120000 		.4byte	0x1221
 2585 0be2 00       		.byte	0
 2586 0be3 1B       		.uleb128 0x1b
 2587 0be4 77000000 		.4byte	.LASF212
 2588 0be8 01       		.byte	0x1
 2589 0be9 71       		.byte	0x71
 2590 0bea 00000000 		.4byte	.LFB280
 2591 0bee 30000000 		.4byte	.LFE280-.LFB280
 2592 0bf2 01       		.uleb128 0x1
 2593 0bf3 9C       		.byte	0x9c
 2594 0bf4 280C0000 		.4byte	0xc28
 2595 0bf8 1C       		.uleb128 0x1c
 2596 0bf9 707200   		.ascii	"pr\000"
 2597 0bfc 01       		.byte	0x1
 2598 0bfd 72       		.byte	0x72
 2599 0bfe AD000000 		.4byte	0xad
 2600 0c02 7E000000 		.4byte	.LLST3
 2601 0c06 1D       		.uleb128 0x1d
 2602 0c07 06000000 		.4byte	.LVL18
 2603 0c0b 1A120000 		.4byte	0x121a
 2604 0c0f 1E       		.uleb128 0x1e
 2605 0c10 20000000 		.4byte	.LVL22
 2606 0c14 1E0C0000 		.4byte	0xc1e
 2607 0c18 1F       		.uleb128 0x1f
 2608 0c19 01       		.uleb128 0x1
 2609 0c1a 51       		.byte	0x51
 2610 0c1b 01       		.uleb128 0x1
 2611 0c1c 33       		.byte	0x33
 2612 0c1d 00       		.byte	0
 2613 0c1e 20       		.uleb128 0x20
 2614 0c1f 28000000 		.4byte	.LVL23
 2615 0c23 21120000 		.4byte	0x1221
 2616 0c27 00       		.byte	0
 2617 0c28 1B       		.uleb128 0x1b
 2618 0c29 0D050000 		.4byte	.LASF213
 2619 0c2d 01       		.byte	0x1
 2620 0c2e 84       		.byte	0x84
 2621 0c2f 00000000 		.4byte	.LFB281
 2622 0c33 30000000 		.4byte	.LFE281-.LFB281
ARM GAS  /tmp/ccFu9jx6.s 			page 47


 2623 0c37 01       		.uleb128 0x1
 2624 0c38 9C       		.byte	0x9c
 2625 0c39 6D0C0000 		.4byte	0xc6d
 2626 0c3d 1C       		.uleb128 0x1c
 2627 0c3e 707200   		.ascii	"pr\000"
 2628 0c41 01       		.byte	0x1
 2629 0c42 85       		.byte	0x85
 2630 0c43 AD000000 		.4byte	0xad
 2631 0c47 A8000000 		.4byte	.LLST4
 2632 0c4b 1D       		.uleb128 0x1d
 2633 0c4c 06000000 		.4byte	.LVL24
 2634 0c50 1A120000 		.4byte	0x121a
 2635 0c54 1E       		.uleb128 0x1e
 2636 0c55 20000000 		.4byte	.LVL28
 2637 0c59 630C0000 		.4byte	0xc63
 2638 0c5d 1F       		.uleb128 0x1f
 2639 0c5e 01       		.uleb128 0x1
 2640 0c5f 51       		.byte	0x51
 2641 0c60 01       		.uleb128 0x1
 2642 0c61 34       		.byte	0x34
 2643 0c62 00       		.byte	0
 2644 0c63 20       		.uleb128 0x20
 2645 0c64 28000000 		.4byte	.LVL29
 2646 0c68 21120000 		.4byte	0x1221
 2647 0c6c 00       		.byte	0
 2648 0c6d 1B       		.uleb128 0x1b
 2649 0c6e 19060000 		.4byte	.LASF214
 2650 0c72 01       		.byte	0x1
 2651 0c73 97       		.byte	0x97
 2652 0c74 00000000 		.4byte	.LFB282
 2653 0c78 6C000000 		.4byte	.LFE282-.LFB282
 2654 0c7c 01       		.uleb128 0x1
 2655 0c7d 9C       		.byte	0x9c
 2656 0c7e EE0C0000 		.4byte	0xcee
 2657 0c82 1C       		.uleb128 0x1c
 2658 0c83 707200   		.ascii	"pr\000"
 2659 0c86 01       		.byte	0x1
 2660 0c87 98       		.byte	0x98
 2661 0c88 AD000000 		.4byte	0xad
 2662 0c8c D2000000 		.4byte	.LLST5
 2663 0c90 1D       		.uleb128 0x1d
 2664 0c91 06000000 		.4byte	.LVL30
 2665 0c95 1A120000 		.4byte	0x121a
 2666 0c99 1E       		.uleb128 0x1e
 2667 0c9a 22000000 		.4byte	.LVL33
 2668 0c9e A80C0000 		.4byte	0xca8
 2669 0ca2 1F       		.uleb128 0x1f
 2670 0ca3 01       		.uleb128 0x1
 2671 0ca4 51       		.byte	0x51
 2672 0ca5 01       		.uleb128 0x1
 2673 0ca6 35       		.byte	0x35
 2674 0ca7 00       		.byte	0
 2675 0ca8 1E       		.uleb128 0x1e
 2676 0ca9 30000000 		.4byte	.LVL34
 2677 0cad B70C0000 		.4byte	0xcb7
 2678 0cb1 1F       		.uleb128 0x1f
 2679 0cb2 01       		.uleb128 0x1
ARM GAS  /tmp/ccFu9jx6.s 			page 48


 2680 0cb3 51       		.byte	0x51
 2681 0cb4 01       		.uleb128 0x1
 2682 0cb5 36       		.byte	0x36
 2683 0cb6 00       		.byte	0
 2684 0cb7 1E       		.uleb128 0x1e
 2685 0cb8 3E000000 		.4byte	.LVL35
 2686 0cbc C60C0000 		.4byte	0xcc6
 2687 0cc0 1F       		.uleb128 0x1f
 2688 0cc1 01       		.uleb128 0x1
 2689 0cc2 51       		.byte	0x51
 2690 0cc3 01       		.uleb128 0x1
 2691 0cc4 37       		.byte	0x37
 2692 0cc5 00       		.byte	0
 2693 0cc6 1E       		.uleb128 0x1e
 2694 0cc7 4C000000 		.4byte	.LVL36
 2695 0ccb D50C0000 		.4byte	0xcd5
 2696 0ccf 1F       		.uleb128 0x1f
 2697 0cd0 01       		.uleb128 0x1
 2698 0cd1 51       		.byte	0x51
 2699 0cd2 01       		.uleb128 0x1
 2700 0cd3 38       		.byte	0x38
 2701 0cd4 00       		.byte	0
 2702 0cd5 1E       		.uleb128 0x1e
 2703 0cd6 5A000000 		.4byte	.LVL37
 2704 0cda E40C0000 		.4byte	0xce4
 2705 0cde 1F       		.uleb128 0x1f
 2706 0cdf 01       		.uleb128 0x1
 2707 0ce0 51       		.byte	0x51
 2708 0ce1 01       		.uleb128 0x1
 2709 0ce2 39       		.byte	0x39
 2710 0ce3 00       		.byte	0
 2711 0ce4 20       		.uleb128 0x20
 2712 0ce5 62000000 		.4byte	.LVL39
 2713 0ce9 21120000 		.4byte	0x1221
 2714 0ced 00       		.byte	0
 2715 0cee 1B       		.uleb128 0x1b
 2716 0cef 800B0000 		.4byte	.LASF215
 2717 0cf3 01       		.byte	0x1
 2718 0cf4 B3       		.byte	0xb3
 2719 0cf5 00000000 		.4byte	.LFB283
 2720 0cf9 78000000 		.4byte	.LFE283-.LFB283
 2721 0cfd 01       		.uleb128 0x1
 2722 0cfe 9C       		.byte	0x9c
 2723 0cff 7E0D0000 		.4byte	0xd7e
 2724 0d03 1C       		.uleb128 0x1c
 2725 0d04 707200   		.ascii	"pr\000"
 2726 0d07 01       		.byte	0x1
 2727 0d08 B4       		.byte	0xb4
 2728 0d09 AD000000 		.4byte	0xad
 2729 0d0d F6000000 		.4byte	.LLST6
 2730 0d11 1D       		.uleb128 0x1d
 2731 0d12 06000000 		.4byte	.LVL40
 2732 0d16 1A120000 		.4byte	0x121a
 2733 0d1a 1E       		.uleb128 0x1e
 2734 0d1b 22000000 		.4byte	.LVL45
 2735 0d1f 290D0000 		.4byte	0xd29
 2736 0d23 1F       		.uleb128 0x1f
ARM GAS  /tmp/ccFu9jx6.s 			page 49


 2737 0d24 01       		.uleb128 0x1
 2738 0d25 51       		.byte	0x51
 2739 0d26 01       		.uleb128 0x1
 2740 0d27 3A       		.byte	0x3a
 2741 0d28 00       		.byte	0
 2742 0d29 1E       		.uleb128 0x1e
 2743 0d2a 30000000 		.4byte	.LVL46
 2744 0d2e 380D0000 		.4byte	0xd38
 2745 0d32 1F       		.uleb128 0x1f
 2746 0d33 01       		.uleb128 0x1
 2747 0d34 51       		.byte	0x51
 2748 0d35 01       		.uleb128 0x1
 2749 0d36 3B       		.byte	0x3b
 2750 0d37 00       		.byte	0
 2751 0d38 1E       		.uleb128 0x1e
 2752 0d39 3E000000 		.4byte	.LVL47
 2753 0d3d 470D0000 		.4byte	0xd47
 2754 0d41 1F       		.uleb128 0x1f
 2755 0d42 01       		.uleb128 0x1
 2756 0d43 51       		.byte	0x51
 2757 0d44 01       		.uleb128 0x1
 2758 0d45 3C       		.byte	0x3c
 2759 0d46 00       		.byte	0
 2760 0d47 1E       		.uleb128 0x1e
 2761 0d48 4C000000 		.4byte	.LVL48
 2762 0d4c 560D0000 		.4byte	0xd56
 2763 0d50 1F       		.uleb128 0x1f
 2764 0d51 01       		.uleb128 0x1
 2765 0d52 51       		.byte	0x51
 2766 0d53 01       		.uleb128 0x1
 2767 0d54 3D       		.byte	0x3d
 2768 0d55 00       		.byte	0
 2769 0d56 1E       		.uleb128 0x1e
 2770 0d57 5A000000 		.4byte	.LVL49
 2771 0d5b 650D0000 		.4byte	0xd65
 2772 0d5f 1F       		.uleb128 0x1f
 2773 0d60 01       		.uleb128 0x1
 2774 0d61 51       		.byte	0x51
 2775 0d62 01       		.uleb128 0x1
 2776 0d63 3E       		.byte	0x3e
 2777 0d64 00       		.byte	0
 2778 0d65 1E       		.uleb128 0x1e
 2779 0d66 68000000 		.4byte	.LVL50
 2780 0d6a 740D0000 		.4byte	0xd74
 2781 0d6e 1F       		.uleb128 0x1f
 2782 0d6f 01       		.uleb128 0x1
 2783 0d70 51       		.byte	0x51
 2784 0d71 01       		.uleb128 0x1
 2785 0d72 3F       		.byte	0x3f
 2786 0d73 00       		.byte	0
 2787 0d74 20       		.uleb128 0x20
 2788 0d75 70000000 		.4byte	.LVL52
 2789 0d79 21120000 		.4byte	0x1221
 2790 0d7d 00       		.byte	0
 2791 0d7e 1B       		.uleb128 0x1b
 2792 0d7f 6B030000 		.4byte	.LASF216
 2793 0d83 01       		.byte	0x1
ARM GAS  /tmp/ccFu9jx6.s 			page 50


 2794 0d84 D1       		.byte	0xd1
 2795 0d85 00000000 		.4byte	.LFB284
 2796 0d89 34000000 		.4byte	.LFE284-.LFB284
 2797 0d8d 01       		.uleb128 0x1
 2798 0d8e 9C       		.byte	0x9c
 2799 0d8f C30D0000 		.4byte	0xdc3
 2800 0d93 1C       		.uleb128 0x1c
 2801 0d94 707200   		.ascii	"pr\000"
 2802 0d97 01       		.byte	0x1
 2803 0d98 D2       		.byte	0xd2
 2804 0d99 AD000000 		.4byte	0xad
 2805 0d9d 35010000 		.4byte	.LLST7
 2806 0da1 1D       		.uleb128 0x1d
 2807 0da2 06000000 		.4byte	.LVL53
 2808 0da6 1A120000 		.4byte	0x121a
 2809 0daa 1E       		.uleb128 0x1e
 2810 0dab 22000000 		.4byte	.LVL57
 2811 0daf B90D0000 		.4byte	0xdb9
 2812 0db3 1F       		.uleb128 0x1f
 2813 0db4 01       		.uleb128 0x1
 2814 0db5 51       		.byte	0x51
 2815 0db6 01       		.uleb128 0x1
 2816 0db7 40       		.byte	0x40
 2817 0db8 00       		.byte	0
 2818 0db9 20       		.uleb128 0x20
 2819 0dba 2A000000 		.4byte	.LVL58
 2820 0dbe 21120000 		.4byte	0x1221
 2821 0dc2 00       		.byte	0
 2822 0dc3 1B       		.uleb128 0x1b
 2823 0dc4 890B0000 		.4byte	.LASF217
 2824 0dc8 01       		.byte	0x1
 2825 0dc9 E4       		.byte	0xe4
 2826 0dca 00000000 		.4byte	.LFB285
 2827 0dce 34000000 		.4byte	.LFE285-.LFB285
 2828 0dd2 01       		.uleb128 0x1
 2829 0dd3 9C       		.byte	0x9c
 2830 0dd4 080E0000 		.4byte	0xe08
 2831 0dd8 1C       		.uleb128 0x1c
 2832 0dd9 707200   		.ascii	"pr\000"
 2833 0ddc 01       		.byte	0x1
 2834 0ddd E5       		.byte	0xe5
 2835 0dde AD000000 		.4byte	0xad
 2836 0de2 5F010000 		.4byte	.LLST8
 2837 0de6 1D       		.uleb128 0x1d
 2838 0de7 06000000 		.4byte	.LVL59
 2839 0deb 1A120000 		.4byte	0x121a
 2840 0def 1E       		.uleb128 0x1e
 2841 0df0 22000000 		.4byte	.LVL63
 2842 0df4 FE0D0000 		.4byte	0xdfe
 2843 0df8 1F       		.uleb128 0x1f
 2844 0df9 01       		.uleb128 0x1
 2845 0dfa 51       		.byte	0x51
 2846 0dfb 01       		.uleb128 0x1
 2847 0dfc 41       		.byte	0x41
 2848 0dfd 00       		.byte	0
 2849 0dfe 20       		.uleb128 0x20
 2850 0dff 2A000000 		.4byte	.LVL64
ARM GAS  /tmp/ccFu9jx6.s 			page 51


 2851 0e03 21120000 		.4byte	0x1221
 2852 0e07 00       		.byte	0
 2853 0e08 1B       		.uleb128 0x1b
 2854 0e09 66000000 		.4byte	.LASF218
 2855 0e0d 01       		.byte	0x1
 2856 0e0e F7       		.byte	0xf7
 2857 0e0f 00000000 		.4byte	.LFB286
 2858 0e13 34000000 		.4byte	.LFE286-.LFB286
 2859 0e17 01       		.uleb128 0x1
 2860 0e18 9C       		.byte	0x9c
 2861 0e19 4D0E0000 		.4byte	0xe4d
 2862 0e1d 1C       		.uleb128 0x1c
 2863 0e1e 707200   		.ascii	"pr\000"
 2864 0e21 01       		.byte	0x1
 2865 0e22 F8       		.byte	0xf8
 2866 0e23 AD000000 		.4byte	0xad
 2867 0e27 89010000 		.4byte	.LLST9
 2868 0e2b 1D       		.uleb128 0x1d
 2869 0e2c 06000000 		.4byte	.LVL65
 2870 0e30 1A120000 		.4byte	0x121a
 2871 0e34 1E       		.uleb128 0x1e
 2872 0e35 22000000 		.4byte	.LVL69
 2873 0e39 430E0000 		.4byte	0xe43
 2874 0e3d 1F       		.uleb128 0x1f
 2875 0e3e 01       		.uleb128 0x1
 2876 0e3f 51       		.byte	0x51
 2877 0e40 01       		.uleb128 0x1
 2878 0e41 42       		.byte	0x42
 2879 0e42 00       		.byte	0
 2880 0e43 20       		.uleb128 0x20
 2881 0e44 2A000000 		.4byte	.LVL70
 2882 0e48 21120000 		.4byte	0x1221
 2883 0e4c 00       		.byte	0
 2884 0e4d 21       		.uleb128 0x21
 2885 0e4e 6F090000 		.4byte	.LASF219
 2886 0e52 01       		.byte	0x1
 2887 0e53 0B01     		.2byte	0x10b
 2888 0e55 00000000 		.4byte	.LFB287
 2889 0e59 34000000 		.4byte	.LFE287-.LFB287
 2890 0e5d 01       		.uleb128 0x1
 2891 0e5e 9C       		.byte	0x9c
 2892 0e5f 940E0000 		.4byte	0xe94
 2893 0e63 22       		.uleb128 0x22
 2894 0e64 707200   		.ascii	"pr\000"
 2895 0e67 01       		.byte	0x1
 2896 0e68 0C01     		.2byte	0x10c
 2897 0e6a AD000000 		.4byte	0xad
 2898 0e6e B3010000 		.4byte	.LLST10
 2899 0e72 1D       		.uleb128 0x1d
 2900 0e73 06000000 		.4byte	.LVL71
 2901 0e77 1A120000 		.4byte	0x121a
 2902 0e7b 1E       		.uleb128 0x1e
 2903 0e7c 22000000 		.4byte	.LVL75
 2904 0e80 8A0E0000 		.4byte	0xe8a
 2905 0e84 1F       		.uleb128 0x1f
 2906 0e85 01       		.uleb128 0x1
 2907 0e86 51       		.byte	0x51
ARM GAS  /tmp/ccFu9jx6.s 			page 52


 2908 0e87 01       		.uleb128 0x1
 2909 0e88 43       		.byte	0x43
 2910 0e89 00       		.byte	0
 2911 0e8a 20       		.uleb128 0x20
 2912 0e8b 2A000000 		.4byte	.LVL76
 2913 0e8f 21120000 		.4byte	0x1221
 2914 0e93 00       		.byte	0
 2915 0e94 21       		.uleb128 0x21
 2916 0e95 A90A0000 		.4byte	.LASF220
 2917 0e99 01       		.byte	0x1
 2918 0e9a 2001     		.2byte	0x120
 2919 0e9c 00000000 		.4byte	.LFB288
 2920 0ea0 34000000 		.4byte	.LFE288-.LFB288
 2921 0ea4 01       		.uleb128 0x1
 2922 0ea5 9C       		.byte	0x9c
 2923 0ea6 DB0E0000 		.4byte	0xedb
 2924 0eaa 22       		.uleb128 0x22
 2925 0eab 707200   		.ascii	"pr\000"
 2926 0eae 01       		.byte	0x1
 2927 0eaf 2101     		.2byte	0x121
 2928 0eb1 AD000000 		.4byte	0xad
 2929 0eb5 DD010000 		.4byte	.LLST11
 2930 0eb9 1D       		.uleb128 0x1d
 2931 0eba 06000000 		.4byte	.LVL77
 2932 0ebe 1A120000 		.4byte	0x121a
 2933 0ec2 1E       		.uleb128 0x1e
 2934 0ec3 22000000 		.4byte	.LVL81
 2935 0ec7 D10E0000 		.4byte	0xed1
 2936 0ecb 1F       		.uleb128 0x1f
 2937 0ecc 01       		.uleb128 0x1
 2938 0ecd 51       		.byte	0x51
 2939 0ece 01       		.uleb128 0x1
 2940 0ecf 44       		.byte	0x44
 2941 0ed0 00       		.byte	0
 2942 0ed1 20       		.uleb128 0x20
 2943 0ed2 2A000000 		.4byte	.LVL82
 2944 0ed6 21120000 		.4byte	0x1221
 2945 0eda 00       		.byte	0
 2946 0edb 21       		.uleb128 0x21
 2947 0edc 74030000 		.4byte	.LASF221
 2948 0ee0 01       		.byte	0x1
 2949 0ee1 3501     		.2byte	0x135
 2950 0ee3 00000000 		.4byte	.LFB289
 2951 0ee7 34000000 		.4byte	.LFE289-.LFB289
 2952 0eeb 01       		.uleb128 0x1
 2953 0eec 9C       		.byte	0x9c
 2954 0eed 220F0000 		.4byte	0xf22
 2955 0ef1 22       		.uleb128 0x22
 2956 0ef2 707200   		.ascii	"pr\000"
 2957 0ef5 01       		.byte	0x1
 2958 0ef6 3601     		.2byte	0x136
 2959 0ef8 AD000000 		.4byte	0xad
 2960 0efc 07020000 		.4byte	.LLST12
 2961 0f00 1D       		.uleb128 0x1d
 2962 0f01 06000000 		.4byte	.LVL83
 2963 0f05 1A120000 		.4byte	0x121a
 2964 0f09 1E       		.uleb128 0x1e
ARM GAS  /tmp/ccFu9jx6.s 			page 53


 2965 0f0a 22000000 		.4byte	.LVL87
 2966 0f0e 180F0000 		.4byte	0xf18
 2967 0f12 1F       		.uleb128 0x1f
 2968 0f13 01       		.uleb128 0x1
 2969 0f14 51       		.byte	0x51
 2970 0f15 01       		.uleb128 0x1
 2971 0f16 45       		.byte	0x45
 2972 0f17 00       		.byte	0
 2973 0f18 20       		.uleb128 0x20
 2974 0f19 2A000000 		.4byte	.LVL88
 2975 0f1d 21120000 		.4byte	0x1221
 2976 0f21 00       		.byte	0
 2977 0f22 21       		.uleb128 0x21
 2978 0f23 A3030000 		.4byte	.LASF222
 2979 0f27 01       		.byte	0x1
 2980 0f28 4901     		.2byte	0x149
 2981 0f2a 00000000 		.4byte	.LFB290
 2982 0f2e 34000000 		.4byte	.LFE290-.LFB290
 2983 0f32 01       		.uleb128 0x1
 2984 0f33 9C       		.byte	0x9c
 2985 0f34 690F0000 		.4byte	0xf69
 2986 0f38 22       		.uleb128 0x22
 2987 0f39 707200   		.ascii	"pr\000"
 2988 0f3c 01       		.byte	0x1
 2989 0f3d 4A01     		.2byte	0x14a
 2990 0f3f AD000000 		.4byte	0xad
 2991 0f43 31020000 		.4byte	.LLST13
 2992 0f47 1D       		.uleb128 0x1d
 2993 0f48 06000000 		.4byte	.LVL89
 2994 0f4c 1A120000 		.4byte	0x121a
 2995 0f50 1E       		.uleb128 0x1e
 2996 0f51 22000000 		.4byte	.LVL93
 2997 0f55 5F0F0000 		.4byte	0xf5f
 2998 0f59 1F       		.uleb128 0x1f
 2999 0f5a 01       		.uleb128 0x1
 3000 0f5b 51       		.byte	0x51
 3001 0f5c 01       		.uleb128 0x1
 3002 0f5d 46       		.byte	0x46
 3003 0f5e 00       		.byte	0
 3004 0f5f 20       		.uleb128 0x20
 3005 0f60 2A000000 		.4byte	.LVL94
 3006 0f64 21120000 		.4byte	0x1221
 3007 0f68 00       		.byte	0
 3008 0f69 21       		.uleb128 0x21
 3009 0f6a FF060000 		.4byte	.LASF223
 3010 0f6e 01       		.byte	0x1
 3011 0f6f 6001     		.2byte	0x160
 3012 0f71 00000000 		.4byte	.LFB291
 3013 0f75 76000000 		.4byte	.LFE291-.LFB291
 3014 0f79 01       		.uleb128 0x1
 3015 0f7a 9C       		.byte	0x9c
 3016 0f7b D1100000 		.4byte	0x10d1
 3017 0f7f 23       		.uleb128 0x23
 3018 0f80 0A000000 		.4byte	.LVL95
 3019 0f84 29120000 		.4byte	0x1229
 3020 0f88 970F0000 		.4byte	0xf97
 3021 0f8c 1F       		.uleb128 0x1f
ARM GAS  /tmp/ccFu9jx6.s 			page 54


 3022 0f8d 01       		.uleb128 0x1
 3023 0f8e 51       		.byte	0x51
 3024 0f8f 01       		.uleb128 0x1
 3025 0f90 36       		.byte	0x36
 3026 0f91 1F       		.uleb128 0x1f
 3027 0f92 01       		.uleb128 0x1
 3028 0f93 50       		.byte	0x50
 3029 0f94 01       		.uleb128 0x1
 3030 0f95 36       		.byte	0x36
 3031 0f96 00       		.byte	0
 3032 0f97 23       		.uleb128 0x23
 3033 0f98 12000000 		.4byte	.LVL96
 3034 0f9c 29120000 		.4byte	0x1229
 3035 0fa0 AF0F0000 		.4byte	0xfaf
 3036 0fa4 1F       		.uleb128 0x1f
 3037 0fa5 01       		.uleb128 0x1
 3038 0fa6 51       		.byte	0x51
 3039 0fa7 01       		.uleb128 0x1
 3040 0fa8 36       		.byte	0x36
 3041 0fa9 1F       		.uleb128 0x1f
 3042 0faa 01       		.uleb128 0x1
 3043 0fab 50       		.byte	0x50
 3044 0fac 01       		.uleb128 0x1
 3045 0fad 37       		.byte	0x37
 3046 0fae 00       		.byte	0
 3047 0faf 23       		.uleb128 0x23
 3048 0fb0 1A000000 		.4byte	.LVL97
 3049 0fb4 29120000 		.4byte	0x1229
 3050 0fb8 C70F0000 		.4byte	0xfc7
 3051 0fbc 1F       		.uleb128 0x1f
 3052 0fbd 01       		.uleb128 0x1
 3053 0fbe 51       		.byte	0x51
 3054 0fbf 01       		.uleb128 0x1
 3055 0fc0 36       		.byte	0x36
 3056 0fc1 1F       		.uleb128 0x1f
 3057 0fc2 01       		.uleb128 0x1
 3058 0fc3 50       		.byte	0x50
 3059 0fc4 01       		.uleb128 0x1
 3060 0fc5 38       		.byte	0x38
 3061 0fc6 00       		.byte	0
 3062 0fc7 23       		.uleb128 0x23
 3063 0fc8 22000000 		.4byte	.LVL98
 3064 0fcc 29120000 		.4byte	0x1229
 3065 0fd0 DF0F0000 		.4byte	0xfdf
 3066 0fd4 1F       		.uleb128 0x1f
 3067 0fd5 01       		.uleb128 0x1
 3068 0fd6 51       		.byte	0x51
 3069 0fd7 01       		.uleb128 0x1
 3070 0fd8 36       		.byte	0x36
 3071 0fd9 1F       		.uleb128 0x1f
 3072 0fda 01       		.uleb128 0x1
 3073 0fdb 50       		.byte	0x50
 3074 0fdc 01       		.uleb128 0x1
 3075 0fdd 39       		.byte	0x39
 3076 0fde 00       		.byte	0
 3077 0fdf 23       		.uleb128 0x23
 3078 0fe0 2A000000 		.4byte	.LVL99
ARM GAS  /tmp/ccFu9jx6.s 			page 55


 3079 0fe4 29120000 		.4byte	0x1229
 3080 0fe8 F70F0000 		.4byte	0xff7
 3081 0fec 1F       		.uleb128 0x1f
 3082 0fed 01       		.uleb128 0x1
 3083 0fee 51       		.byte	0x51
 3084 0fef 01       		.uleb128 0x1
 3085 0ff0 36       		.byte	0x36
 3086 0ff1 1F       		.uleb128 0x1f
 3087 0ff2 01       		.uleb128 0x1
 3088 0ff3 50       		.byte	0x50
 3089 0ff4 01       		.uleb128 0x1
 3090 0ff5 3A       		.byte	0x3a
 3091 0ff6 00       		.byte	0
 3092 0ff7 23       		.uleb128 0x23
 3093 0ff8 32000000 		.4byte	.LVL100
 3094 0ffc 29120000 		.4byte	0x1229
 3095 1000 0F100000 		.4byte	0x100f
 3096 1004 1F       		.uleb128 0x1f
 3097 1005 01       		.uleb128 0x1
 3098 1006 51       		.byte	0x51
 3099 1007 01       		.uleb128 0x1
 3100 1008 36       		.byte	0x36
 3101 1009 1F       		.uleb128 0x1f
 3102 100a 01       		.uleb128 0x1
 3103 100b 50       		.byte	0x50
 3104 100c 01       		.uleb128 0x1
 3105 100d 47       		.byte	0x47
 3106 100e 00       		.byte	0
 3107 100f 23       		.uleb128 0x23
 3108 1010 3A000000 		.4byte	.LVL101
 3109 1014 29120000 		.4byte	0x1229
 3110 1018 28100000 		.4byte	0x1028
 3111 101c 1F       		.uleb128 0x1f
 3112 101d 01       		.uleb128 0x1
 3113 101e 51       		.byte	0x51
 3114 101f 01       		.uleb128 0x1
 3115 1020 36       		.byte	0x36
 3116 1021 1F       		.uleb128 0x1f
 3117 1022 01       		.uleb128 0x1
 3118 1023 50       		.byte	0x50
 3119 1024 02       		.uleb128 0x2
 3120 1025 08       		.byte	0x8
 3121 1026 28       		.byte	0x28
 3122 1027 00       		.byte	0
 3123 1028 23       		.uleb128 0x23
 3124 1029 42000000 		.4byte	.LVL102
 3125 102d 29120000 		.4byte	0x1229
 3126 1031 40100000 		.4byte	0x1040
 3127 1035 1F       		.uleb128 0x1f
 3128 1036 01       		.uleb128 0x1
 3129 1037 51       		.byte	0x51
 3130 1038 01       		.uleb128 0x1
 3131 1039 36       		.byte	0x36
 3132 103a 1F       		.uleb128 0x1f
 3133 103b 01       		.uleb128 0x1
 3134 103c 50       		.byte	0x50
 3135 103d 01       		.uleb128 0x1
ARM GAS  /tmp/ccFu9jx6.s 			page 56


 3136 103e 31       		.byte	0x31
 3137 103f 00       		.byte	0
 3138 1040 23       		.uleb128 0x23
 3139 1041 4A000000 		.4byte	.LVL103
 3140 1045 29120000 		.4byte	0x1229
 3141 1049 59100000 		.4byte	0x1059
 3142 104d 1F       		.uleb128 0x1f
 3143 104e 01       		.uleb128 0x1
 3144 104f 51       		.byte	0x51
 3145 1050 01       		.uleb128 0x1
 3146 1051 3F       		.byte	0x3f
 3147 1052 1F       		.uleb128 0x1f
 3148 1053 01       		.uleb128 0x1
 3149 1054 50       		.byte	0x50
 3150 1055 02       		.uleb128 0x2
 3151 1056 08       		.byte	0x8
 3152 1057 29       		.byte	0x29
 3153 1058 00       		.byte	0
 3154 1059 23       		.uleb128 0x23
 3155 105a 52000000 		.4byte	.LVL104
 3156 105e 29120000 		.4byte	0x1229
 3157 1062 72100000 		.4byte	0x1072
 3158 1066 1F       		.uleb128 0x1f
 3159 1067 01       		.uleb128 0x1
 3160 1068 51       		.byte	0x51
 3161 1069 01       		.uleb128 0x1
 3162 106a 36       		.byte	0x36
 3163 106b 1F       		.uleb128 0x1f
 3164 106c 01       		.uleb128 0x1
 3165 106d 50       		.byte	0x50
 3166 106e 02       		.uleb128 0x2
 3167 106f 08       		.byte	0x8
 3168 1070 2A       		.byte	0x2a
 3169 1071 00       		.byte	0
 3170 1072 23       		.uleb128 0x23
 3171 1073 5A000000 		.4byte	.LVL105
 3172 1077 29120000 		.4byte	0x1229
 3173 107b 8B100000 		.4byte	0x108b
 3174 107f 1F       		.uleb128 0x1f
 3175 1080 01       		.uleb128 0x1
 3176 1081 51       		.byte	0x51
 3177 1082 01       		.uleb128 0x1
 3178 1083 36       		.byte	0x36
 3179 1084 1F       		.uleb128 0x1f
 3180 1085 01       		.uleb128 0x1
 3181 1086 50       		.byte	0x50
 3182 1087 02       		.uleb128 0x2
 3183 1088 08       		.byte	0x8
 3184 1089 3E       		.byte	0x3e
 3185 108a 00       		.byte	0
 3186 108b 23       		.uleb128 0x23
 3187 108c 62000000 		.4byte	.LVL106
 3188 1090 29120000 		.4byte	0x1229
 3189 1094 A4100000 		.4byte	0x10a4
 3190 1098 1F       		.uleb128 0x1f
 3191 1099 01       		.uleb128 0x1
 3192 109a 51       		.byte	0x51
ARM GAS  /tmp/ccFu9jx6.s 			page 57


 3193 109b 01       		.uleb128 0x1
 3194 109c 36       		.byte	0x36
 3195 109d 1F       		.uleb128 0x1f
 3196 109e 01       		.uleb128 0x1
 3197 109f 50       		.byte	0x50
 3198 10a0 02       		.uleb128 0x2
 3199 10a1 08       		.byte	0x8
 3200 10a2 4C       		.byte	0x4c
 3201 10a3 00       		.byte	0
 3202 10a4 23       		.uleb128 0x23
 3203 10a5 6A000000 		.4byte	.LVL107
 3204 10a9 29120000 		.4byte	0x1229
 3205 10ad BC100000 		.4byte	0x10bc
 3206 10b1 1F       		.uleb128 0x1f
 3207 10b2 01       		.uleb128 0x1
 3208 10b3 51       		.byte	0x51
 3209 10b4 01       		.uleb128 0x1
 3210 10b5 3F       		.byte	0x3f
 3211 10b6 1F       		.uleb128 0x1f
 3212 10b7 01       		.uleb128 0x1
 3213 10b8 50       		.byte	0x50
 3214 10b9 01       		.uleb128 0x1
 3215 10ba 32       		.byte	0x32
 3216 10bb 00       		.byte	0
 3217 10bc 24       		.uleb128 0x24
 3218 10bd 76000000 		.4byte	.LVL108
 3219 10c1 29120000 		.4byte	0x1229
 3220 10c5 1F       		.uleb128 0x1f
 3221 10c6 01       		.uleb128 0x1
 3222 10c7 51       		.byte	0x51
 3223 10c8 01       		.uleb128 0x1
 3224 10c9 3F       		.byte	0x3f
 3225 10ca 1F       		.uleb128 0x1f
 3226 10cb 01       		.uleb128 0x1
 3227 10cc 50       		.byte	0x50
 3228 10cd 01       		.uleb128 0x1
 3229 10ce 33       		.byte	0x33
 3230 10cf 00       		.byte	0
 3231 10d0 00       		.byte	0
 3232 10d1 21       		.uleb128 0x21
 3233 10d2 77020000 		.4byte	.LASF224
 3234 10d6 01       		.byte	0x1
 3235 10d7 7F01     		.2byte	0x17f
 3236 10d9 00000000 		.4byte	.LFB292
 3237 10dd 5A000000 		.4byte	.LFE292-.LFB292
 3238 10e1 01       		.uleb128 0x1
 3239 10e2 9C       		.byte	0x9c
 3240 10e3 F3110000 		.4byte	0x11f3
 3241 10e7 23       		.uleb128 0x23
 3242 10e8 08000000 		.4byte	.LVL109
 3243 10ec 3F120000 		.4byte	0x123f
 3244 10f0 FA100000 		.4byte	0x10fa
 3245 10f4 1F       		.uleb128 0x1f
 3246 10f5 01       		.uleb128 0x1
 3247 10f6 50       		.byte	0x50
 3248 10f7 01       		.uleb128 0x1
 3249 10f8 36       		.byte	0x36
ARM GAS  /tmp/ccFu9jx6.s 			page 58


 3250 10f9 00       		.byte	0
 3251 10fa 23       		.uleb128 0x23
 3252 10fb 0E000000 		.4byte	.LVL110
 3253 10ff 3F120000 		.4byte	0x123f
 3254 1103 0D110000 		.4byte	0x110d
 3255 1107 1F       		.uleb128 0x1f
 3256 1108 01       		.uleb128 0x1
 3257 1109 50       		.byte	0x50
 3258 110a 01       		.uleb128 0x1
 3259 110b 37       		.byte	0x37
 3260 110c 00       		.byte	0
 3261 110d 23       		.uleb128 0x23
 3262 110e 14000000 		.4byte	.LVL111
 3263 1112 3F120000 		.4byte	0x123f
 3264 1116 20110000 		.4byte	0x1120
 3265 111a 1F       		.uleb128 0x1f
 3266 111b 01       		.uleb128 0x1
 3267 111c 50       		.byte	0x50
 3268 111d 01       		.uleb128 0x1
 3269 111e 38       		.byte	0x38
 3270 111f 00       		.byte	0
 3271 1120 23       		.uleb128 0x23
 3272 1121 1A000000 		.4byte	.LVL112
 3273 1125 3F120000 		.4byte	0x123f
 3274 1129 33110000 		.4byte	0x1133
 3275 112d 1F       		.uleb128 0x1f
 3276 112e 01       		.uleb128 0x1
 3277 112f 50       		.byte	0x50
 3278 1130 01       		.uleb128 0x1
 3279 1131 39       		.byte	0x39
 3280 1132 00       		.byte	0
 3281 1133 23       		.uleb128 0x23
 3282 1134 20000000 		.4byte	.LVL113
 3283 1138 3F120000 		.4byte	0x123f
 3284 113c 46110000 		.4byte	0x1146
 3285 1140 1F       		.uleb128 0x1f
 3286 1141 01       		.uleb128 0x1
 3287 1142 50       		.byte	0x50
 3288 1143 01       		.uleb128 0x1
 3289 1144 3A       		.byte	0x3a
 3290 1145 00       		.byte	0
 3291 1146 23       		.uleb128 0x23
 3292 1147 26000000 		.4byte	.LVL114
 3293 114b 3F120000 		.4byte	0x123f
 3294 114f 59110000 		.4byte	0x1159
 3295 1153 1F       		.uleb128 0x1f
 3296 1154 01       		.uleb128 0x1
 3297 1155 50       		.byte	0x50
 3298 1156 01       		.uleb128 0x1
 3299 1157 47       		.byte	0x47
 3300 1158 00       		.byte	0
 3301 1159 23       		.uleb128 0x23
 3302 115a 2C000000 		.4byte	.LVL115
 3303 115e 3F120000 		.4byte	0x123f
 3304 1162 6D110000 		.4byte	0x116d
 3305 1166 1F       		.uleb128 0x1f
 3306 1167 01       		.uleb128 0x1
ARM GAS  /tmp/ccFu9jx6.s 			page 59


 3307 1168 50       		.byte	0x50
 3308 1169 02       		.uleb128 0x2
 3309 116a 08       		.byte	0x8
 3310 116b 28       		.byte	0x28
 3311 116c 00       		.byte	0
 3312 116d 23       		.uleb128 0x23
 3313 116e 32000000 		.4byte	.LVL116
 3314 1172 3F120000 		.4byte	0x123f
 3315 1176 80110000 		.4byte	0x1180
 3316 117a 1F       		.uleb128 0x1f
 3317 117b 01       		.uleb128 0x1
 3318 117c 50       		.byte	0x50
 3319 117d 01       		.uleb128 0x1
 3320 117e 31       		.byte	0x31
 3321 117f 00       		.byte	0
 3322 1180 23       		.uleb128 0x23
 3323 1181 38000000 		.4byte	.LVL117
 3324 1185 3F120000 		.4byte	0x123f
 3325 1189 94110000 		.4byte	0x1194
 3326 118d 1F       		.uleb128 0x1f
 3327 118e 01       		.uleb128 0x1
 3328 118f 50       		.byte	0x50
 3329 1190 02       		.uleb128 0x2
 3330 1191 08       		.byte	0x8
 3331 1192 29       		.byte	0x29
 3332 1193 00       		.byte	0
 3333 1194 23       		.uleb128 0x23
 3334 1195 3E000000 		.4byte	.LVL118
 3335 1199 3F120000 		.4byte	0x123f
 3336 119d A8110000 		.4byte	0x11a8
 3337 11a1 1F       		.uleb128 0x1f
 3338 11a2 01       		.uleb128 0x1
 3339 11a3 50       		.byte	0x50
 3340 11a4 02       		.uleb128 0x2
 3341 11a5 08       		.byte	0x8
 3342 11a6 2A       		.byte	0x2a
 3343 11a7 00       		.byte	0
 3344 11a8 23       		.uleb128 0x23
 3345 11a9 44000000 		.4byte	.LVL119
 3346 11ad 3F120000 		.4byte	0x123f
 3347 11b1 BC110000 		.4byte	0x11bc
 3348 11b5 1F       		.uleb128 0x1f
 3349 11b6 01       		.uleb128 0x1
 3350 11b7 50       		.byte	0x50
 3351 11b8 02       		.uleb128 0x2
 3352 11b9 08       		.byte	0x8
 3353 11ba 3E       		.byte	0x3e
 3354 11bb 00       		.byte	0
 3355 11bc 23       		.uleb128 0x23
 3356 11bd 4A000000 		.4byte	.LVL120
 3357 11c1 3F120000 		.4byte	0x123f
 3358 11c5 D0110000 		.4byte	0x11d0
 3359 11c9 1F       		.uleb128 0x1f
 3360 11ca 01       		.uleb128 0x1
 3361 11cb 50       		.byte	0x50
 3362 11cc 02       		.uleb128 0x2
 3363 11cd 08       		.byte	0x8
ARM GAS  /tmp/ccFu9jx6.s 			page 60


 3364 11ce 4C       		.byte	0x4c
 3365 11cf 00       		.byte	0
 3366 11d0 23       		.uleb128 0x23
 3367 11d1 50000000 		.4byte	.LVL121
 3368 11d5 3F120000 		.4byte	0x123f
 3369 11d9 E3110000 		.4byte	0x11e3
 3370 11dd 1F       		.uleb128 0x1f
 3371 11de 01       		.uleb128 0x1
 3372 11df 50       		.byte	0x50
 3373 11e0 01       		.uleb128 0x1
 3374 11e1 32       		.byte	0x32
 3375 11e2 00       		.byte	0
 3376 11e3 24       		.uleb128 0x24
 3377 11e4 5A000000 		.4byte	.LVL122
 3378 11e8 3F120000 		.4byte	0x123f
 3379 11ec 1F       		.uleb128 0x1f
 3380 11ed 01       		.uleb128 0x1
 3381 11ee 50       		.byte	0x50
 3382 11ef 01       		.uleb128 0x1
 3383 11f0 33       		.byte	0x33
 3384 11f1 00       		.byte	0
 3385 11f2 00       		.byte	0
 3386 11f3 25       		.uleb128 0x25
 3387 11f4 8D0A0000 		.4byte	.LASF225
 3388 11f8 10       		.byte	0x10
 3389 11f9 4407     		.2byte	0x744
 3390 11fb FF110000 		.4byte	0x11ff
 3391 11ff 11       		.uleb128 0x11
 3392 1200 A2000000 		.4byte	0xa2
 3393 1204 26       		.uleb128 0x26
 3394 1205 636800   		.ascii	"ch\000"
 3395 1208 06       		.byte	0x6
 3396 1209 D201     		.2byte	0x1d2
 3397 120b E9030000 		.4byte	0x3e9
 3398 120f 27       		.uleb128 0x27
 3399 1210 CF050000 		.4byte	.LASF226
 3400 1214 0F       		.byte	0xf
 3401 1215 88       		.byte	0x88
 3402 1216 4C0A0000 		.4byte	0xa4c
 3403 121a 28       		.uleb128 0x28
 3404 121b 6E010000 		.4byte	.LASF227
 3405 121f 0B       		.byte	0xb
 3406 1220 4D       		.byte	0x4d
 3407 1221 29       		.uleb128 0x29
 3408 1222 A3060000 		.4byte	.LASF228
 3409 1226 09       		.byte	0x9
 3410 1227 EA01     		.2byte	0x1ea
 3411 1229 2A       		.uleb128 0x2a
 3412 122a 030B0000 		.4byte	.LASF232
 3413 122e 11       		.byte	0x11
 3414 122f 4E       		.byte	0x4e
 3415 1230 3F120000 		.4byte	0x123f
 3416 1234 0D       		.uleb128 0xd
 3417 1235 AD000000 		.4byte	0xad
 3418 1239 0D       		.uleb128 0xd
 3419 123a AD000000 		.4byte	0xad
 3420 123e 00       		.byte	0
ARM GAS  /tmp/ccFu9jx6.s 			page 61


 3421 123f 2B       		.uleb128 0x2b
 3422 1240 5D070000 		.4byte	.LASF233
 3423 1244 11       		.byte	0x11
 3424 1245 4F       		.byte	0x4f
 3425 1246 0D       		.uleb128 0xd
 3426 1247 AD000000 		.4byte	0xad
 3427 124b 00       		.byte	0
 3428 124c 00       		.byte	0
 3429              		.section	.debug_abbrev,"",%progbits
 3430              	.Ldebug_abbrev0:
 3431 0000 01       		.uleb128 0x1
 3432 0001 11       		.uleb128 0x11
 3433 0002 01       		.byte	0x1
 3434 0003 25       		.uleb128 0x25
 3435 0004 0E       		.uleb128 0xe
 3436 0005 13       		.uleb128 0x13
 3437 0006 0B       		.uleb128 0xb
 3438 0007 03       		.uleb128 0x3
 3439 0008 0E       		.uleb128 0xe
 3440 0009 1B       		.uleb128 0x1b
 3441 000a 0E       		.uleb128 0xe
 3442 000b 55       		.uleb128 0x55
 3443 000c 17       		.uleb128 0x17
 3444 000d 11       		.uleb128 0x11
 3445 000e 01       		.uleb128 0x1
 3446 000f 10       		.uleb128 0x10
 3447 0010 17       		.uleb128 0x17
 3448 0011 00       		.byte	0
 3449 0012 00       		.byte	0
 3450 0013 02       		.uleb128 0x2
 3451 0014 24       		.uleb128 0x24
 3452 0015 00       		.byte	0
 3453 0016 0B       		.uleb128 0xb
 3454 0017 0B       		.uleb128 0xb
 3455 0018 3E       		.uleb128 0x3e
 3456 0019 0B       		.uleb128 0xb
 3457 001a 03       		.uleb128 0x3
 3458 001b 08       		.uleb128 0x8
 3459 001c 00       		.byte	0
 3460 001d 00       		.byte	0
 3461 001e 03       		.uleb128 0x3
 3462 001f 24       		.uleb128 0x24
 3463 0020 00       		.byte	0
 3464 0021 0B       		.uleb128 0xb
 3465 0022 0B       		.uleb128 0xb
 3466 0023 3E       		.uleb128 0x3e
 3467 0024 0B       		.uleb128 0xb
 3468 0025 03       		.uleb128 0x3
 3469 0026 0E       		.uleb128 0xe
 3470 0027 00       		.byte	0
 3471 0028 00       		.byte	0
 3472 0029 04       		.uleb128 0x4
 3473 002a 16       		.uleb128 0x16
 3474 002b 00       		.byte	0
 3475 002c 03       		.uleb128 0x3
 3476 002d 0E       		.uleb128 0xe
 3477 002e 3A       		.uleb128 0x3a
ARM GAS  /tmp/ccFu9jx6.s 			page 62


 3478 002f 0B       		.uleb128 0xb
 3479 0030 3B       		.uleb128 0x3b
 3480 0031 0B       		.uleb128 0xb
 3481 0032 49       		.uleb128 0x49
 3482 0033 13       		.uleb128 0x13
 3483 0034 00       		.byte	0
 3484 0035 00       		.byte	0
 3485 0036 05       		.uleb128 0x5
 3486 0037 13       		.uleb128 0x13
 3487 0038 01       		.byte	0x1
 3488 0039 03       		.uleb128 0x3
 3489 003a 0E       		.uleb128 0xe
 3490 003b 0B       		.uleb128 0xb
 3491 003c 0B       		.uleb128 0xb
 3492 003d 3A       		.uleb128 0x3a
 3493 003e 0B       		.uleb128 0xb
 3494 003f 3B       		.uleb128 0x3b
 3495 0040 0B       		.uleb128 0xb
 3496 0041 01       		.uleb128 0x1
 3497 0042 13       		.uleb128 0x13
 3498 0043 00       		.byte	0
 3499 0044 00       		.byte	0
 3500 0045 06       		.uleb128 0x6
 3501 0046 0D       		.uleb128 0xd
 3502 0047 00       		.byte	0
 3503 0048 03       		.uleb128 0x3
 3504 0049 0E       		.uleb128 0xe
 3505 004a 3A       		.uleb128 0x3a
 3506 004b 0B       		.uleb128 0xb
 3507 004c 3B       		.uleb128 0x3b
 3508 004d 0B       		.uleb128 0xb
 3509 004e 49       		.uleb128 0x49
 3510 004f 13       		.uleb128 0x13
 3511 0050 38       		.uleb128 0x38
 3512 0051 0B       		.uleb128 0xb
 3513 0052 00       		.byte	0
 3514 0053 00       		.byte	0
 3515 0054 07       		.uleb128 0x7
 3516 0055 0D       		.uleb128 0xd
 3517 0056 00       		.byte	0
 3518 0057 03       		.uleb128 0x3
 3519 0058 08       		.uleb128 0x8
 3520 0059 3A       		.uleb128 0x3a
 3521 005a 0B       		.uleb128 0xb
 3522 005b 3B       		.uleb128 0x3b
 3523 005c 0B       		.uleb128 0xb
 3524 005d 49       		.uleb128 0x49
 3525 005e 13       		.uleb128 0x13
 3526 005f 38       		.uleb128 0x38
 3527 0060 0B       		.uleb128 0xb
 3528 0061 00       		.byte	0
 3529 0062 00       		.byte	0
 3530 0063 08       		.uleb128 0x8
 3531 0064 0D       		.uleb128 0xd
 3532 0065 00       		.byte	0
 3533 0066 03       		.uleb128 0x3
 3534 0067 08       		.uleb128 0x8
ARM GAS  /tmp/ccFu9jx6.s 			page 63


 3535 0068 3A       		.uleb128 0x3a
 3536 0069 0B       		.uleb128 0xb
 3537 006a 3B       		.uleb128 0x3b
 3538 006b 05       		.uleb128 0x5
 3539 006c 49       		.uleb128 0x49
 3540 006d 13       		.uleb128 0x13
 3541 006e 38       		.uleb128 0x38
 3542 006f 0B       		.uleb128 0xb
 3543 0070 00       		.byte	0
 3544 0071 00       		.byte	0
 3545 0072 09       		.uleb128 0x9
 3546 0073 0D       		.uleb128 0xd
 3547 0074 00       		.byte	0
 3548 0075 03       		.uleb128 0x3
 3549 0076 0E       		.uleb128 0xe
 3550 0077 3A       		.uleb128 0x3a
 3551 0078 0B       		.uleb128 0xb
 3552 0079 3B       		.uleb128 0x3b
 3553 007a 05       		.uleb128 0x5
 3554 007b 49       		.uleb128 0x49
 3555 007c 13       		.uleb128 0x13
 3556 007d 38       		.uleb128 0x38
 3557 007e 0B       		.uleb128 0xb
 3558 007f 00       		.byte	0
 3559 0080 00       		.byte	0
 3560 0081 0A       		.uleb128 0xa
 3561 0082 0F       		.uleb128 0xf
 3562 0083 00       		.byte	0
 3563 0084 0B       		.uleb128 0xb
 3564 0085 0B       		.uleb128 0xb
 3565 0086 49       		.uleb128 0x49
 3566 0087 13       		.uleb128 0x13
 3567 0088 00       		.byte	0
 3568 0089 00       		.byte	0
 3569 008a 0B       		.uleb128 0xb
 3570 008b 13       		.uleb128 0x13
 3571 008c 01       		.byte	0x1
 3572 008d 03       		.uleb128 0x3
 3573 008e 0E       		.uleb128 0xe
 3574 008f 0B       		.uleb128 0xb
 3575 0090 0B       		.uleb128 0xb
 3576 0091 3A       		.uleb128 0x3a
 3577 0092 0B       		.uleb128 0xb
 3578 0093 3B       		.uleb128 0x3b
 3579 0094 05       		.uleb128 0x5
 3580 0095 01       		.uleb128 0x1
 3581 0096 13       		.uleb128 0x13
 3582 0097 00       		.byte	0
 3583 0098 00       		.byte	0
 3584 0099 0C       		.uleb128 0xc
 3585 009a 15       		.uleb128 0x15
 3586 009b 01       		.byte	0x1
 3587 009c 27       		.uleb128 0x27
 3588 009d 19       		.uleb128 0x19
 3589 009e 01       		.uleb128 0x1
 3590 009f 13       		.uleb128 0x13
 3591 00a0 00       		.byte	0
ARM GAS  /tmp/ccFu9jx6.s 			page 64


 3592 00a1 00       		.byte	0
 3593 00a2 0D       		.uleb128 0xd
 3594 00a3 05       		.uleb128 0x5
 3595 00a4 00       		.byte	0
 3596 00a5 49       		.uleb128 0x49
 3597 00a6 13       		.uleb128 0x13
 3598 00a7 00       		.byte	0
 3599 00a8 00       		.byte	0
 3600 00a9 0E       		.uleb128 0xe
 3601 00aa 0F       		.uleb128 0xf
 3602 00ab 00       		.byte	0
 3603 00ac 0B       		.uleb128 0xb
 3604 00ad 0B       		.uleb128 0xb
 3605 00ae 00       		.byte	0
 3606 00af 00       		.byte	0
 3607 00b0 0F       		.uleb128 0xf
 3608 00b1 04       		.uleb128 0x4
 3609 00b2 01       		.byte	0x1
 3610 00b3 0B       		.uleb128 0xb
 3611 00b4 0B       		.uleb128 0xb
 3612 00b5 3A       		.uleb128 0x3a
 3613 00b6 0B       		.uleb128 0xb
 3614 00b7 3B       		.uleb128 0x3b
 3615 00b8 0B       		.uleb128 0xb
 3616 00b9 01       		.uleb128 0x1
 3617 00ba 13       		.uleb128 0x13
 3618 00bb 00       		.byte	0
 3619 00bc 00       		.byte	0
 3620 00bd 10       		.uleb128 0x10
 3621 00be 28       		.uleb128 0x28
 3622 00bf 00       		.byte	0
 3623 00c0 03       		.uleb128 0x3
 3624 00c1 0E       		.uleb128 0xe
 3625 00c2 1C       		.uleb128 0x1c
 3626 00c3 0D       		.uleb128 0xd
 3627 00c4 00       		.byte	0
 3628 00c5 00       		.byte	0
 3629 00c6 11       		.uleb128 0x11
 3630 00c7 35       		.uleb128 0x35
 3631 00c8 00       		.byte	0
 3632 00c9 49       		.uleb128 0x49
 3633 00ca 13       		.uleb128 0x13
 3634 00cb 00       		.byte	0
 3635 00cc 00       		.byte	0
 3636 00cd 12       		.uleb128 0x12
 3637 00ce 13       		.uleb128 0x13
 3638 00cf 01       		.byte	0x1
 3639 00d0 0B       		.uleb128 0xb
 3640 00d1 0B       		.uleb128 0xb
 3641 00d2 3A       		.uleb128 0x3a
 3642 00d3 0B       		.uleb128 0xb
 3643 00d4 3B       		.uleb128 0x3b
 3644 00d5 05       		.uleb128 0x5
 3645 00d6 01       		.uleb128 0x1
 3646 00d7 13       		.uleb128 0x13
 3647 00d8 00       		.byte	0
 3648 00d9 00       		.byte	0
ARM GAS  /tmp/ccFu9jx6.s 			page 65


 3649 00da 13       		.uleb128 0x13
 3650 00db 16       		.uleb128 0x16
 3651 00dc 00       		.byte	0
 3652 00dd 03       		.uleb128 0x3
 3653 00de 0E       		.uleb128 0xe
 3654 00df 3A       		.uleb128 0x3a
 3655 00e0 0B       		.uleb128 0xb
 3656 00e1 3B       		.uleb128 0x3b
 3657 00e2 05       		.uleb128 0x5
 3658 00e3 49       		.uleb128 0x49
 3659 00e4 13       		.uleb128 0x13
 3660 00e5 00       		.byte	0
 3661 00e6 00       		.byte	0
 3662 00e7 14       		.uleb128 0x14
 3663 00e8 13       		.uleb128 0x13
 3664 00e9 01       		.byte	0x1
 3665 00ea 0B       		.uleb128 0xb
 3666 00eb 0B       		.uleb128 0xb
 3667 00ec 3A       		.uleb128 0x3a
 3668 00ed 0B       		.uleb128 0xb
 3669 00ee 3B       		.uleb128 0x3b
 3670 00ef 0B       		.uleb128 0xb
 3671 00f0 01       		.uleb128 0x1
 3672 00f1 13       		.uleb128 0x13
 3673 00f2 00       		.byte	0
 3674 00f3 00       		.byte	0
 3675 00f4 15       		.uleb128 0x15
 3676 00f5 17       		.uleb128 0x17
 3677 00f6 01       		.byte	0x1
 3678 00f7 0B       		.uleb128 0xb
 3679 00f8 0B       		.uleb128 0xb
 3680 00f9 3A       		.uleb128 0x3a
 3681 00fa 0B       		.uleb128 0xb
 3682 00fb 3B       		.uleb128 0x3b
 3683 00fc 0B       		.uleb128 0xb
 3684 00fd 01       		.uleb128 0x1
 3685 00fe 13       		.uleb128 0x13
 3686 00ff 00       		.byte	0
 3687 0100 00       		.byte	0
 3688 0101 16       		.uleb128 0x16
 3689 0102 0D       		.uleb128 0xd
 3690 0103 00       		.byte	0
 3691 0104 03       		.uleb128 0x3
 3692 0105 0E       		.uleb128 0xe
 3693 0106 3A       		.uleb128 0x3a
 3694 0107 0B       		.uleb128 0xb
 3695 0108 3B       		.uleb128 0x3b
 3696 0109 0B       		.uleb128 0xb
 3697 010a 49       		.uleb128 0x49
 3698 010b 13       		.uleb128 0x13
 3699 010c 00       		.byte	0
 3700 010d 00       		.byte	0
 3701 010e 17       		.uleb128 0x17
 3702 010f 0D       		.uleb128 0xd
 3703 0110 00       		.byte	0
 3704 0111 03       		.uleb128 0x3
 3705 0112 0E       		.uleb128 0xe
ARM GAS  /tmp/ccFu9jx6.s 			page 66


 3706 0113 3A       		.uleb128 0x3a
 3707 0114 0B       		.uleb128 0xb
 3708 0115 3B       		.uleb128 0x3b
 3709 0116 05       		.uleb128 0x5
 3710 0117 49       		.uleb128 0x49
 3711 0118 13       		.uleb128 0x13
 3712 0119 00       		.byte	0
 3713 011a 00       		.byte	0
 3714 011b 18       		.uleb128 0x18
 3715 011c 26       		.uleb128 0x26
 3716 011d 00       		.byte	0
 3717 011e 49       		.uleb128 0x49
 3718 011f 13       		.uleb128 0x13
 3719 0120 00       		.byte	0
 3720 0121 00       		.byte	0
 3721 0122 19       		.uleb128 0x19
 3722 0123 01       		.uleb128 0x1
 3723 0124 01       		.byte	0x1
 3724 0125 49       		.uleb128 0x49
 3725 0126 13       		.uleb128 0x13
 3726 0127 01       		.uleb128 0x1
 3727 0128 13       		.uleb128 0x13
 3728 0129 00       		.byte	0
 3729 012a 00       		.byte	0
 3730 012b 1A       		.uleb128 0x1a
 3731 012c 21       		.uleb128 0x21
 3732 012d 00       		.byte	0
 3733 012e 49       		.uleb128 0x49
 3734 012f 13       		.uleb128 0x13
 3735 0130 2F       		.uleb128 0x2f
 3736 0131 0B       		.uleb128 0xb
 3737 0132 00       		.byte	0
 3738 0133 00       		.byte	0
 3739 0134 1B       		.uleb128 0x1b
 3740 0135 2E       		.uleb128 0x2e
 3741 0136 01       		.byte	0x1
 3742 0137 3F       		.uleb128 0x3f
 3743 0138 19       		.uleb128 0x19
 3744 0139 03       		.uleb128 0x3
 3745 013a 0E       		.uleb128 0xe
 3746 013b 3A       		.uleb128 0x3a
 3747 013c 0B       		.uleb128 0xb
 3748 013d 3B       		.uleb128 0x3b
 3749 013e 0B       		.uleb128 0xb
 3750 013f 27       		.uleb128 0x27
 3751 0140 19       		.uleb128 0x19
 3752 0141 11       		.uleb128 0x11
 3753 0142 01       		.uleb128 0x1
 3754 0143 12       		.uleb128 0x12
 3755 0144 06       		.uleb128 0x6
 3756 0145 40       		.uleb128 0x40
 3757 0146 18       		.uleb128 0x18
 3758 0147 9742     		.uleb128 0x2117
 3759 0149 19       		.uleb128 0x19
 3760 014a 01       		.uleb128 0x1
 3761 014b 13       		.uleb128 0x13
 3762 014c 00       		.byte	0
ARM GAS  /tmp/ccFu9jx6.s 			page 67


 3763 014d 00       		.byte	0
 3764 014e 1C       		.uleb128 0x1c
 3765 014f 34       		.uleb128 0x34
 3766 0150 00       		.byte	0
 3767 0151 03       		.uleb128 0x3
 3768 0152 08       		.uleb128 0x8
 3769 0153 3A       		.uleb128 0x3a
 3770 0154 0B       		.uleb128 0xb
 3771 0155 3B       		.uleb128 0x3b
 3772 0156 0B       		.uleb128 0xb
 3773 0157 49       		.uleb128 0x49
 3774 0158 13       		.uleb128 0x13
 3775 0159 02       		.uleb128 0x2
 3776 015a 17       		.uleb128 0x17
 3777 015b 00       		.byte	0
 3778 015c 00       		.byte	0
 3779 015d 1D       		.uleb128 0x1d
 3780 015e 898201   		.uleb128 0x4109
 3781 0161 00       		.byte	0
 3782 0162 11       		.uleb128 0x11
 3783 0163 01       		.uleb128 0x1
 3784 0164 31       		.uleb128 0x31
 3785 0165 13       		.uleb128 0x13
 3786 0166 00       		.byte	0
 3787 0167 00       		.byte	0
 3788 0168 1E       		.uleb128 0x1e
 3789 0169 898201   		.uleb128 0x4109
 3790 016c 01       		.byte	0x1
 3791 016d 11       		.uleb128 0x11
 3792 016e 01       		.uleb128 0x1
 3793 016f 01       		.uleb128 0x1
 3794 0170 13       		.uleb128 0x13
 3795 0171 00       		.byte	0
 3796 0172 00       		.byte	0
 3797 0173 1F       		.uleb128 0x1f
 3798 0174 8A8201   		.uleb128 0x410a
 3799 0177 00       		.byte	0
 3800 0178 02       		.uleb128 0x2
 3801 0179 18       		.uleb128 0x18
 3802 017a 9142     		.uleb128 0x2111
 3803 017c 18       		.uleb128 0x18
 3804 017d 00       		.byte	0
 3805 017e 00       		.byte	0
 3806 017f 20       		.uleb128 0x20
 3807 0180 898201   		.uleb128 0x4109
 3808 0183 00       		.byte	0
 3809 0184 11       		.uleb128 0x11
 3810 0185 01       		.uleb128 0x1
 3811 0186 9542     		.uleb128 0x2115
 3812 0188 19       		.uleb128 0x19
 3813 0189 31       		.uleb128 0x31
 3814 018a 13       		.uleb128 0x13
 3815 018b 00       		.byte	0
 3816 018c 00       		.byte	0
 3817 018d 21       		.uleb128 0x21
 3818 018e 2E       		.uleb128 0x2e
 3819 018f 01       		.byte	0x1
ARM GAS  /tmp/ccFu9jx6.s 			page 68


 3820 0190 3F       		.uleb128 0x3f
 3821 0191 19       		.uleb128 0x19
 3822 0192 03       		.uleb128 0x3
 3823 0193 0E       		.uleb128 0xe
 3824 0194 3A       		.uleb128 0x3a
 3825 0195 0B       		.uleb128 0xb
 3826 0196 3B       		.uleb128 0x3b
 3827 0197 05       		.uleb128 0x5
 3828 0198 27       		.uleb128 0x27
 3829 0199 19       		.uleb128 0x19
 3830 019a 11       		.uleb128 0x11
 3831 019b 01       		.uleb128 0x1
 3832 019c 12       		.uleb128 0x12
 3833 019d 06       		.uleb128 0x6
 3834 019e 40       		.uleb128 0x40
 3835 019f 18       		.uleb128 0x18
 3836 01a0 9742     		.uleb128 0x2117
 3837 01a2 19       		.uleb128 0x19
 3838 01a3 01       		.uleb128 0x1
 3839 01a4 13       		.uleb128 0x13
 3840 01a5 00       		.byte	0
 3841 01a6 00       		.byte	0
 3842 01a7 22       		.uleb128 0x22
 3843 01a8 34       		.uleb128 0x34
 3844 01a9 00       		.byte	0
 3845 01aa 03       		.uleb128 0x3
 3846 01ab 08       		.uleb128 0x8
 3847 01ac 3A       		.uleb128 0x3a
 3848 01ad 0B       		.uleb128 0xb
 3849 01ae 3B       		.uleb128 0x3b
 3850 01af 05       		.uleb128 0x5
 3851 01b0 49       		.uleb128 0x49
 3852 01b1 13       		.uleb128 0x13
 3853 01b2 02       		.uleb128 0x2
 3854 01b3 17       		.uleb128 0x17
 3855 01b4 00       		.byte	0
 3856 01b5 00       		.byte	0
 3857 01b6 23       		.uleb128 0x23
 3858 01b7 898201   		.uleb128 0x4109
 3859 01ba 01       		.byte	0x1
 3860 01bb 11       		.uleb128 0x11
 3861 01bc 01       		.uleb128 0x1
 3862 01bd 31       		.uleb128 0x31
 3863 01be 13       		.uleb128 0x13
 3864 01bf 01       		.uleb128 0x1
 3865 01c0 13       		.uleb128 0x13
 3866 01c1 00       		.byte	0
 3867 01c2 00       		.byte	0
 3868 01c3 24       		.uleb128 0x24
 3869 01c4 898201   		.uleb128 0x4109
 3870 01c7 01       		.byte	0x1
 3871 01c8 11       		.uleb128 0x11
 3872 01c9 01       		.uleb128 0x1
 3873 01ca 9542     		.uleb128 0x2115
 3874 01cc 19       		.uleb128 0x19
 3875 01cd 31       		.uleb128 0x31
 3876 01ce 13       		.uleb128 0x13
ARM GAS  /tmp/ccFu9jx6.s 			page 69


 3877 01cf 00       		.byte	0
 3878 01d0 00       		.byte	0
 3879 01d1 25       		.uleb128 0x25
 3880 01d2 34       		.uleb128 0x34
 3881 01d3 00       		.byte	0
 3882 01d4 03       		.uleb128 0x3
 3883 01d5 0E       		.uleb128 0xe
 3884 01d6 3A       		.uleb128 0x3a
 3885 01d7 0B       		.uleb128 0xb
 3886 01d8 3B       		.uleb128 0x3b
 3887 01d9 05       		.uleb128 0x5
 3888 01da 49       		.uleb128 0x49
 3889 01db 13       		.uleb128 0x13
 3890 01dc 3F       		.uleb128 0x3f
 3891 01dd 19       		.uleb128 0x19
 3892 01de 3C       		.uleb128 0x3c
 3893 01df 19       		.uleb128 0x19
 3894 01e0 00       		.byte	0
 3895 01e1 00       		.byte	0
 3896 01e2 26       		.uleb128 0x26
 3897 01e3 34       		.uleb128 0x34
 3898 01e4 00       		.byte	0
 3899 01e5 03       		.uleb128 0x3
 3900 01e6 08       		.uleb128 0x8
 3901 01e7 3A       		.uleb128 0x3a
 3902 01e8 0B       		.uleb128 0xb
 3903 01e9 3B       		.uleb128 0x3b
 3904 01ea 05       		.uleb128 0x5
 3905 01eb 49       		.uleb128 0x49
 3906 01ec 13       		.uleb128 0x13
 3907 01ed 3F       		.uleb128 0x3f
 3908 01ee 19       		.uleb128 0x19
 3909 01ef 3C       		.uleb128 0x3c
 3910 01f0 19       		.uleb128 0x19
 3911 01f1 00       		.byte	0
 3912 01f2 00       		.byte	0
 3913 01f3 27       		.uleb128 0x27
 3914 01f4 34       		.uleb128 0x34
 3915 01f5 00       		.byte	0
 3916 01f6 03       		.uleb128 0x3
 3917 01f7 0E       		.uleb128 0xe
 3918 01f8 3A       		.uleb128 0x3a
 3919 01f9 0B       		.uleb128 0xb
 3920 01fa 3B       		.uleb128 0x3b
 3921 01fb 0B       		.uleb128 0xb
 3922 01fc 49       		.uleb128 0x49
 3923 01fd 13       		.uleb128 0x13
 3924 01fe 3F       		.uleb128 0x3f
 3925 01ff 19       		.uleb128 0x19
 3926 0200 3C       		.uleb128 0x3c
 3927 0201 19       		.uleb128 0x19
 3928 0202 00       		.byte	0
 3929 0203 00       		.byte	0
 3930 0204 28       		.uleb128 0x28
 3931 0205 2E       		.uleb128 0x2e
 3932 0206 00       		.byte	0
 3933 0207 3F       		.uleb128 0x3f
ARM GAS  /tmp/ccFu9jx6.s 			page 70


 3934 0208 19       		.uleb128 0x19
 3935 0209 03       		.uleb128 0x3
 3936 020a 0E       		.uleb128 0xe
 3937 020b 3A       		.uleb128 0x3a
 3938 020c 0B       		.uleb128 0xb
 3939 020d 3B       		.uleb128 0x3b
 3940 020e 0B       		.uleb128 0xb
 3941 020f 27       		.uleb128 0x27
 3942 0210 19       		.uleb128 0x19
 3943 0211 3C       		.uleb128 0x3c
 3944 0212 19       		.uleb128 0x19
 3945 0213 00       		.byte	0
 3946 0214 00       		.byte	0
 3947 0215 29       		.uleb128 0x29
 3948 0216 2E       		.uleb128 0x2e
 3949 0217 00       		.byte	0
 3950 0218 3F       		.uleb128 0x3f
 3951 0219 19       		.uleb128 0x19
 3952 021a 03       		.uleb128 0x3
 3953 021b 0E       		.uleb128 0xe
 3954 021c 3A       		.uleb128 0x3a
 3955 021d 0B       		.uleb128 0xb
 3956 021e 3B       		.uleb128 0x3b
 3957 021f 05       		.uleb128 0x5
 3958 0220 27       		.uleb128 0x27
 3959 0221 19       		.uleb128 0x19
 3960 0222 3C       		.uleb128 0x3c
 3961 0223 19       		.uleb128 0x19
 3962 0224 00       		.byte	0
 3963 0225 00       		.byte	0
 3964 0226 2A       		.uleb128 0x2a
 3965 0227 2E       		.uleb128 0x2e
 3966 0228 01       		.byte	0x1
 3967 0229 3F       		.uleb128 0x3f
 3968 022a 19       		.uleb128 0x19
 3969 022b 03       		.uleb128 0x3
 3970 022c 0E       		.uleb128 0xe
 3971 022d 3A       		.uleb128 0x3a
 3972 022e 0B       		.uleb128 0xb
 3973 022f 3B       		.uleb128 0x3b
 3974 0230 0B       		.uleb128 0xb
 3975 0231 27       		.uleb128 0x27
 3976 0232 19       		.uleb128 0x19
 3977 0233 3C       		.uleb128 0x3c
 3978 0234 19       		.uleb128 0x19
 3979 0235 01       		.uleb128 0x1
 3980 0236 13       		.uleb128 0x13
 3981 0237 00       		.byte	0
 3982 0238 00       		.byte	0
 3983 0239 2B       		.uleb128 0x2b
 3984 023a 2E       		.uleb128 0x2e
 3985 023b 01       		.byte	0x1
 3986 023c 3F       		.uleb128 0x3f
 3987 023d 19       		.uleb128 0x19
 3988 023e 03       		.uleb128 0x3
 3989 023f 0E       		.uleb128 0xe
 3990 0240 3A       		.uleb128 0x3a
ARM GAS  /tmp/ccFu9jx6.s 			page 71


 3991 0241 0B       		.uleb128 0xb
 3992 0242 3B       		.uleb128 0x3b
 3993 0243 0B       		.uleb128 0xb
 3994 0244 27       		.uleb128 0x27
 3995 0245 19       		.uleb128 0x19
 3996 0246 3C       		.uleb128 0x3c
 3997 0247 19       		.uleb128 0x19
 3998 0248 00       		.byte	0
 3999 0249 00       		.byte	0
 4000 024a 00       		.byte	0
 4001              		.section	.debug_loc,"",%progbits
 4002              	.Ldebug_loc0:
 4003              	.LLST0:
 4004 0000 0A000000 		.4byte	.LVL1
 4005 0004 12000000 		.4byte	.LVL2
 4006 0008 0100     		.2byte	0x1
 4007 000a 51       		.byte	0x51
 4008 000b 12000000 		.4byte	.LVL2
 4009 000f 1A000000 		.4byte	.LVL3
 4010 0013 0100     		.2byte	0x1
 4011 0015 53       		.byte	0x53
 4012 0016 1A000000 		.4byte	.LVL3
 4013 001a 1F000000 		.4byte	.LVL4-1
 4014 001e 0200     		.2byte	0x2
 4015 0020 72       		.byte	0x72
 4016 0021 14       		.sleb128 20
 4017 0022 00000000 		.4byte	0
 4018 0026 00000000 		.4byte	0
 4019              	.LLST1:
 4020 002a 0A000000 		.4byte	.LVL7
 4021 002e 12000000 		.4byte	.LVL8
 4022 0032 0100     		.2byte	0x1
 4023 0034 51       		.byte	0x51
 4024 0035 12000000 		.4byte	.LVL8
 4025 0039 1A000000 		.4byte	.LVL9
 4026 003d 0100     		.2byte	0x1
 4027 003f 53       		.byte	0x53
 4028 0040 1A000000 		.4byte	.LVL9
 4029 0044 1F000000 		.4byte	.LVL10-1
 4030 0048 0200     		.2byte	0x2
 4031 004a 72       		.byte	0x72
 4032 004b 14       		.sleb128 20
 4033 004c 00000000 		.4byte	0
 4034 0050 00000000 		.4byte	0
 4035              	.LLST2:
 4036 0054 0A000000 		.4byte	.LVL13
 4037 0058 12000000 		.4byte	.LVL14
 4038 005c 0100     		.2byte	0x1
 4039 005e 51       		.byte	0x51
 4040 005f 12000000 		.4byte	.LVL14
 4041 0063 1A000000 		.4byte	.LVL15
 4042 0067 0100     		.2byte	0x1
 4043 0069 53       		.byte	0x53
 4044 006a 1A000000 		.4byte	.LVL15
 4045 006e 1F000000 		.4byte	.LVL16-1
 4046 0072 0200     		.2byte	0x2
 4047 0074 72       		.byte	0x72
ARM GAS  /tmp/ccFu9jx6.s 			page 72


 4048 0075 14       		.sleb128 20
 4049 0076 00000000 		.4byte	0
 4050 007a 00000000 		.4byte	0
 4051              	.LLST3:
 4052 007e 0A000000 		.4byte	.LVL19
 4053 0082 12000000 		.4byte	.LVL20
 4054 0086 0100     		.2byte	0x1
 4055 0088 51       		.byte	0x51
 4056 0089 12000000 		.4byte	.LVL20
 4057 008d 1A000000 		.4byte	.LVL21
 4058 0091 0100     		.2byte	0x1
 4059 0093 53       		.byte	0x53
 4060 0094 1A000000 		.4byte	.LVL21
 4061 0098 1F000000 		.4byte	.LVL22-1
 4062 009c 0200     		.2byte	0x2
 4063 009e 72       		.byte	0x72
 4064 009f 14       		.sleb128 20
 4065 00a0 00000000 		.4byte	0
 4066 00a4 00000000 		.4byte	0
 4067              	.LLST4:
 4068 00a8 0A000000 		.4byte	.LVL25
 4069 00ac 12000000 		.4byte	.LVL26
 4070 00b0 0100     		.2byte	0x1
 4071 00b2 51       		.byte	0x51
 4072 00b3 12000000 		.4byte	.LVL26
 4073 00b7 1A000000 		.4byte	.LVL27
 4074 00bb 0100     		.2byte	0x1
 4075 00bd 53       		.byte	0x53
 4076 00be 1A000000 		.4byte	.LVL27
 4077 00c2 1F000000 		.4byte	.LVL28-1
 4078 00c6 0200     		.2byte	0x2
 4079 00c8 72       		.byte	0x72
 4080 00c9 14       		.sleb128 20
 4081 00ca 00000000 		.4byte	0
 4082 00ce 00000000 		.4byte	0
 4083              	.LLST5:
 4084 00d2 0A000000 		.4byte	.LVL31
 4085 00d6 21000000 		.4byte	.LVL33-1
 4086 00da 0100     		.2byte	0x1
 4087 00dc 52       		.byte	0x52
 4088 00dd 21000000 		.4byte	.LVL33-1
 4089 00e1 5E000000 		.4byte	.LVL38
 4090 00e5 0700     		.2byte	0x7
 4091 00e7 74       		.byte	0x74
 4092 00e8 00       		.sleb128 0
 4093 00e9 0A       		.byte	0xa
 4094 00ea E003     		.2byte	0x3e0
 4095 00ec 1A       		.byte	0x1a
 4096 00ed 9F       		.byte	0x9f
 4097 00ee 00000000 		.4byte	0
 4098 00f2 00000000 		.4byte	0
 4099              	.LLST6:
 4100 00f6 0A000000 		.4byte	.LVL41
 4101 00fa 16000000 		.4byte	.LVL43
 4102 00fe 0100     		.2byte	0x1
 4103 0100 52       		.byte	0x52
 4104 0101 16000000 		.4byte	.LVL43
ARM GAS  /tmp/ccFu9jx6.s 			page 73


 4105 0105 1C000000 		.4byte	.LVL44
 4106 0109 0200     		.2byte	0x2
 4107 010b 73       		.byte	0x73
 4108 010c 14       		.sleb128 20
 4109 010d 1C000000 		.4byte	.LVL44
 4110 0111 21000000 		.4byte	.LVL45-1
 4111 0115 0500     		.2byte	0x5
 4112 0117 0C       		.byte	0xc
 4113 0118 143C0140 		.4byte	0x40013c14
 4114 011c 21000000 		.4byte	.LVL45-1
 4115 0120 6C000000 		.4byte	.LVL51
 4116 0124 0700     		.2byte	0x7
 4117 0126 74       		.byte	0x74
 4118 0127 00       		.sleb128 0
 4119 0128 0A       		.byte	0xa
 4120 0129 00FC     		.2byte	0xfc00
 4121 012b 1A       		.byte	0x1a
 4122 012c 9F       		.byte	0x9f
 4123 012d 00000000 		.4byte	0
 4124 0131 00000000 		.4byte	0
 4125              	.LLST7:
 4126 0135 0A000000 		.4byte	.LVL54
 4127 0139 12000000 		.4byte	.LVL55
 4128 013d 0100     		.2byte	0x1
 4129 013f 51       		.byte	0x51
 4130 0140 12000000 		.4byte	.LVL55
 4131 0144 1A000000 		.4byte	.LVL56
 4132 0148 0100     		.2byte	0x1
 4133 014a 53       		.byte	0x53
 4134 014b 1A000000 		.4byte	.LVL56
 4135 014f 21000000 		.4byte	.LVL57-1
 4136 0153 0200     		.2byte	0x2
 4137 0155 72       		.byte	0x72
 4138 0156 14       		.sleb128 20
 4139 0157 00000000 		.4byte	0
 4140 015b 00000000 		.4byte	0
 4141              	.LLST8:
 4142 015f 0A000000 		.4byte	.LVL60
 4143 0163 12000000 		.4byte	.LVL61
 4144 0167 0100     		.2byte	0x1
 4145 0169 51       		.byte	0x51
 4146 016a 12000000 		.4byte	.LVL61
 4147 016e 1A000000 		.4byte	.LVL62
 4148 0172 0100     		.2byte	0x1
 4149 0174 53       		.byte	0x53
 4150 0175 1A000000 		.4byte	.LVL62
 4151 0179 21000000 		.4byte	.LVL63-1
 4152 017d 0200     		.2byte	0x2
 4153 017f 72       		.byte	0x72
 4154 0180 14       		.sleb128 20
 4155 0181 00000000 		.4byte	0
 4156 0185 00000000 		.4byte	0
 4157              	.LLST9:
 4158 0189 0A000000 		.4byte	.LVL66
 4159 018d 12000000 		.4byte	.LVL67
 4160 0191 0100     		.2byte	0x1
 4161 0193 51       		.byte	0x51
ARM GAS  /tmp/ccFu9jx6.s 			page 74


 4162 0194 12000000 		.4byte	.LVL67
 4163 0198 1A000000 		.4byte	.LVL68
 4164 019c 0100     		.2byte	0x1
 4165 019e 53       		.byte	0x53
 4166 019f 1A000000 		.4byte	.LVL68
 4167 01a3 21000000 		.4byte	.LVL69-1
 4168 01a7 0200     		.2byte	0x2
 4169 01a9 72       		.byte	0x72
 4170 01aa 14       		.sleb128 20
 4171 01ab 00000000 		.4byte	0
 4172 01af 00000000 		.4byte	0
 4173              	.LLST10:
 4174 01b3 0A000000 		.4byte	.LVL72
 4175 01b7 12000000 		.4byte	.LVL73
 4176 01bb 0100     		.2byte	0x1
 4177 01bd 51       		.byte	0x51
 4178 01be 12000000 		.4byte	.LVL73
 4179 01c2 1A000000 		.4byte	.LVL74
 4180 01c6 0100     		.2byte	0x1
 4181 01c8 53       		.byte	0x53
 4182 01c9 1A000000 		.4byte	.LVL74
 4183 01cd 21000000 		.4byte	.LVL75-1
 4184 01d1 0200     		.2byte	0x2
 4185 01d3 72       		.byte	0x72
 4186 01d4 14       		.sleb128 20
 4187 01d5 00000000 		.4byte	0
 4188 01d9 00000000 		.4byte	0
 4189              	.LLST11:
 4190 01dd 0A000000 		.4byte	.LVL78
 4191 01e1 12000000 		.4byte	.LVL79
 4192 01e5 0100     		.2byte	0x1
 4193 01e7 51       		.byte	0x51
 4194 01e8 12000000 		.4byte	.LVL79
 4195 01ec 1A000000 		.4byte	.LVL80
 4196 01f0 0100     		.2byte	0x1
 4197 01f2 53       		.byte	0x53
 4198 01f3 1A000000 		.4byte	.LVL80
 4199 01f7 21000000 		.4byte	.LVL81-1
 4200 01fb 0200     		.2byte	0x2
 4201 01fd 72       		.byte	0x72
 4202 01fe 14       		.sleb128 20
 4203 01ff 00000000 		.4byte	0
 4204 0203 00000000 		.4byte	0
 4205              	.LLST12:
 4206 0207 0A000000 		.4byte	.LVL84
 4207 020b 12000000 		.4byte	.LVL85
 4208 020f 0100     		.2byte	0x1
 4209 0211 51       		.byte	0x51
 4210 0212 12000000 		.4byte	.LVL85
 4211 0216 1A000000 		.4byte	.LVL86
 4212 021a 0100     		.2byte	0x1
 4213 021c 53       		.byte	0x53
 4214 021d 1A000000 		.4byte	.LVL86
 4215 0221 21000000 		.4byte	.LVL87-1
 4216 0225 0200     		.2byte	0x2
 4217 0227 72       		.byte	0x72
 4218 0228 14       		.sleb128 20
ARM GAS  /tmp/ccFu9jx6.s 			page 75


 4219 0229 00000000 		.4byte	0
 4220 022d 00000000 		.4byte	0
 4221              	.LLST13:
 4222 0231 0A000000 		.4byte	.LVL90
 4223 0235 12000000 		.4byte	.LVL91
 4224 0239 0100     		.2byte	0x1
 4225 023b 51       		.byte	0x51
 4226 023c 12000000 		.4byte	.LVL91
 4227 0240 1A000000 		.4byte	.LVL92
 4228 0244 0100     		.2byte	0x1
 4229 0246 53       		.byte	0x53
 4230 0247 1A000000 		.4byte	.LVL92
 4231 024b 21000000 		.4byte	.LVL93-1
 4232 024f 0200     		.2byte	0x2
 4233 0251 72       		.byte	0x72
 4234 0252 14       		.sleb128 20
 4235 0253 00000000 		.4byte	0
 4236 0257 00000000 		.4byte	0
 4237              		.section	.debug_aranges,"",%progbits
 4238 0000 94000000 		.4byte	0x94
 4239 0004 0200     		.2byte	0x2
 4240 0006 00000000 		.4byte	.Ldebug_info0
 4241 000a 04       		.byte	0x4
 4242 000b 00       		.byte	0
 4243 000c 0000     		.2byte	0
 4244 000e 0000     		.2byte	0
 4245 0010 00000000 		.4byte	.LFB277
 4246 0014 30000000 		.4byte	.LFE277-.LFB277
 4247 0018 00000000 		.4byte	.LFB278
 4248 001c 30000000 		.4byte	.LFE278-.LFB278
 4249 0020 00000000 		.4byte	.LFB279
 4250 0024 30000000 		.4byte	.LFE279-.LFB279
 4251 0028 00000000 		.4byte	.LFB280
 4252 002c 30000000 		.4byte	.LFE280-.LFB280
 4253 0030 00000000 		.4byte	.LFB281
 4254 0034 30000000 		.4byte	.LFE281-.LFB281
 4255 0038 00000000 		.4byte	.LFB282
 4256 003c 6C000000 		.4byte	.LFE282-.LFB282
 4257 0040 00000000 		.4byte	.LFB283
 4258 0044 78000000 		.4byte	.LFE283-.LFB283
 4259 0048 00000000 		.4byte	.LFB284
 4260 004c 34000000 		.4byte	.LFE284-.LFB284
 4261 0050 00000000 		.4byte	.LFB285
 4262 0054 34000000 		.4byte	.LFE285-.LFB285
 4263 0058 00000000 		.4byte	.LFB286
 4264 005c 34000000 		.4byte	.LFE286-.LFB286
 4265 0060 00000000 		.4byte	.LFB287
 4266 0064 34000000 		.4byte	.LFE287-.LFB287
 4267 0068 00000000 		.4byte	.LFB288
 4268 006c 34000000 		.4byte	.LFE288-.LFB288
 4269 0070 00000000 		.4byte	.LFB289
 4270 0074 34000000 		.4byte	.LFE289-.LFB289
 4271 0078 00000000 		.4byte	.LFB290
 4272 007c 34000000 		.4byte	.LFE290-.LFB290
 4273 0080 00000000 		.4byte	.LFB291
 4274 0084 76000000 		.4byte	.LFE291-.LFB291
 4275 0088 00000000 		.4byte	.LFB292
ARM GAS  /tmp/ccFu9jx6.s 			page 76


 4276 008c 5A000000 		.4byte	.LFE292-.LFB292
 4277 0090 00000000 		.4byte	0
 4278 0094 00000000 		.4byte	0
 4279              		.section	.debug_ranges,"",%progbits
 4280              	.Ldebug_ranges0:
 4281 0000 00000000 		.4byte	.LFB277
 4282 0004 30000000 		.4byte	.LFE277
 4283 0008 00000000 		.4byte	.LFB278
 4284 000c 30000000 		.4byte	.LFE278
 4285 0010 00000000 		.4byte	.LFB279
 4286 0014 30000000 		.4byte	.LFE279
 4287 0018 00000000 		.4byte	.LFB280
 4288 001c 30000000 		.4byte	.LFE280
 4289 0020 00000000 		.4byte	.LFB281
 4290 0024 30000000 		.4byte	.LFE281
 4291 0028 00000000 		.4byte	.LFB282
 4292 002c 6C000000 		.4byte	.LFE282
 4293 0030 00000000 		.4byte	.LFB283
 4294 0034 78000000 		.4byte	.LFE283
 4295 0038 00000000 		.4byte	.LFB284
 4296 003c 34000000 		.4byte	.LFE284
 4297 0040 00000000 		.4byte	.LFB285
 4298 0044 34000000 		.4byte	.LFE285
 4299 0048 00000000 		.4byte	.LFB286
 4300 004c 34000000 		.4byte	.LFE286
 4301 0050 00000000 		.4byte	.LFB287
 4302 0054 34000000 		.4byte	.LFE287
 4303 0058 00000000 		.4byte	.LFB288
 4304 005c 34000000 		.4byte	.LFE288
 4305 0060 00000000 		.4byte	.LFB289
 4306 0064 34000000 		.4byte	.LFE289
 4307 0068 00000000 		.4byte	.LFB290
 4308 006c 34000000 		.4byte	.LFE290
 4309 0070 00000000 		.4byte	.LFB291
 4310 0074 76000000 		.4byte	.LFE291
 4311 0078 00000000 		.4byte	.LFB292
 4312 007c 5A000000 		.4byte	.LFE292
 4313 0080 00000000 		.4byte	0
 4314 0084 00000000 		.4byte	0
 4315              		.section	.debug_line,"",%progbits
 4316              	.Ldebug_line0:
 4317 0000 91040000 		.section	.debug_str,"MS",%progbits,1
 4317      0200E802 
 4317      00000201 
 4317      FB0E0D00 
 4317      01010101 
 4318              	.LASF84:
 4319 0000 5254435F 		.ascii	"RTC_WKUP_IRQn\000"
 4319      574B5550 
 4319      5F495251 
 4319      6E00
 4320              	.LASF89:
 4321 000e 45585449 		.ascii	"EXTI2_IRQn\000"
 4321      325F4952 
 4321      516E00
 4322              	.LASF98:
 4323 0019 444D4131 		.ascii	"DMA1_Stream6_IRQn\000"
ARM GAS  /tmp/ccFu9jx6.s 			page 77


 4323      5F537472 
 4323      65616D36 
 4323      5F495251 
 4323      6E00
 4324              	.LASF125:
 4325 002b 54494D38 		.ascii	"TIM8_UP_TIM13_IRQn\000"
 4325      5F55505F 
 4325      54494D31 
 4325      335F4952 
 4325      516E00
 4326              	.LASF162:
 4327 003e 73697A65 		.ascii	"sizetype\000"
 4327      74797065 
 4327      00
 4328              	.LASF188:
 4329 0047 77747365 		.ascii	"wtsemp\000"
 4329      6D7000
 4330              	.LASF27:
 4331 004e 73797374 		.ascii	"systime_t\000"
 4331      696D655F 
 4331      7400
 4332              	.LASF193:
 4333 0058 6F776E65 		.ascii	"owner\000"
 4333      7200
 4334              	.LASF22:
 4335 005e 74707269 		.ascii	"tprio_t\000"
 4335      6F5F7400 
 4336              	.LASF218:
 4337 0066 56656374 		.ascii	"VectorE8\000"
 4337      6F724538 
 4337      00
 4338              	.LASF14:
 4339 006f 696E7433 		.ascii	"int32_t\000"
 4339      325F7400 
 4340              	.LASF212:
 4341 0077 56656374 		.ascii	"Vector64\000"
 4341      6F723634 
 4341      00
 4342              	.LASF56:
 4343 0080 76746675 		.ascii	"vtfunc_t\000"
 4343      6E635F74 
 4343      00
 4344              	.LASF62:
 4345 0089 63685F76 		.ascii	"ch_virtual_timers_list\000"
 4345      69727475 
 4345      616C5F74 
 4345      696D6572 
 4345      735F6C69 
 4346              	.LASF138:
 4347 00a0 444D4132 		.ascii	"DMA2_Stream1_IRQn\000"
 4347      5F537472 
 4347      65616D31 
 4347      5F495251 
 4347      6E00
 4348              	.LASF132:
 4349 00b2 53504933 		.ascii	"SPI3_IRQn\000"
 4349      5F495251 
ARM GAS  /tmp/ccFu9jx6.s 			page 78


 4349      6E00
 4350              	.LASF85:
 4351 00bc 464C4153 		.ascii	"FLASH_IRQn\000"
 4351      485F4952 
 4351      516E00
 4352              	.LASF159:
 4353 00c7 44434D49 		.ascii	"DCMI_IRQn\000"
 4353      5F495251 
 4353      6E00
 4354              	.LASF202:
 4355 00d1 636F6E66 		.ascii	"config\000"
 4355      696700
 4356              	.LASF35:
 4357 00d8 73746174 		.ascii	"state\000"
 4357      6500
 4358              	.LASF44:
 4359 00de 73746174 		.ascii	"stats\000"
 4359      7300
 4360              	.LASF109:
 4361 00e4 54494D32 		.ascii	"TIM2_IRQn\000"
 4361      5F495251 
 4361      6E00
 4362              	.LASF206:
 4363 00ee 45585443 		.ascii	"EXTChannelConfig\000"
 4363      68616E6E 
 4363      656C436F 
 4363      6E666967 
 4363      00
 4364              	.LASF164:
 4365 00ff 46545352 		.ascii	"FTSR\000"
 4365      00
 4366              	.LASF30:
 4367 0104 7072696F 		.ascii	"prio\000"
 4367      00
 4368              	.LASF145:
 4369 0109 43414E32 		.ascii	"CAN2_RX0_IRQn\000"
 4369      5F525830 
 4369      5F495251 
 4369      6E00
 4370              	.LASF152:
 4371 0117 55534152 		.ascii	"USART6_IRQn\000"
 4371      54365F49 
 4371      52516E00 
 4372              	.LASF184:
 4373 0123 65786974 		.ascii	"exitcode\000"
 4373      636F6465 
 4373      00
 4374              	.LASF5:
 4375 012c 5F5F7569 		.ascii	"__uint8_t\000"
 4375      6E74385F 
 4375      7400
 4376              	.LASF157:
 4377 0136 4F54475F 		.ascii	"OTG_HS_WKUP_IRQn\000"
 4377      48535F57 
 4377      4B55505F 
 4377      4952516E 
 4377      00
ARM GAS  /tmp/ccFu9jx6.s 			page 79


 4378              	.LASF117:
 4379 0147 53504932 		.ascii	"SPI2_IRQn\000"
 4379      5F495251 
 4379      6E00
 4380              	.LASF124:
 4381 0151 54494D38 		.ascii	"TIM8_BRK_TIM12_IRQn\000"
 4381      5F42524B 
 4381      5F54494D 
 4381      31325F49 
 4381      52516E00 
 4382              	.LASF7:
 4383 0165 6C6F6E67 		.ascii	"long int\000"
 4383      20696E74 
 4383      00
 4384              	.LASF227:
 4385 016e 5F737461 		.ascii	"_stats_increase_irq\000"
 4385      74735F69 
 4385      6E637265 
 4385      6173655F 
 4385      69727100 
 4386              	.LASF149:
 4387 0182 444D4132 		.ascii	"DMA2_Stream5_IRQn\000"
 4387      5F537472 
 4387      65616D35 
 4387      5F495251 
 4387      6E00
 4388              	.LASF20:
 4389 0194 74737461 		.ascii	"tstate_t\000"
 4389      74655F74 
 4389      00
 4390              	.LASF18:
 4391 019d 72747469 		.ascii	"rttime_t\000"
 4391      6D655F74 
 4391      00
 4392              	.LASF50:
 4393 01a6 74687265 		.ascii	"threads_queue_t\000"
 4393      6164735F 
 4393      71756575 
 4393      655F7400 
 4394              	.LASF107:
 4395 01b6 54494D31 		.ascii	"TIM1_TRG_COM_TIM11_IRQn\000"
 4395      5F545247 
 4395      5F434F4D 
 4395      5F54494D 
 4395      31315F49 
 4396              	.LASF163:
 4397 01ce 52545352 		.ascii	"RTSR\000"
 4397      00
 4398              	.LASF166:
 4399 01d3 45585449 		.ascii	"EXTI_TypeDef\000"
 4399      5F547970 
 4399      65446566 
 4399      00
 4400              	.LASF80:
 4401 01e0 53797354 		.ascii	"SysTick_IRQn\000"
 4401      69636B5F 
 4401      4952516E 
ARM GAS  /tmp/ccFu9jx6.s 			page 80


 4401      00
 4402              	.LASF120:
 4403 01ed 55534152 		.ascii	"USART3_IRQn\000"
 4403      54335F49 
 4403      52516E00 
 4404              	.LASF200:
 4405 01f9 65787473 		.ascii	"extstate_t\000"
 4405      74617465 
 4405      5F7400
 4406              	.LASF176:
 4407 0204 63756D75 		.ascii	"cumulative\000"
 4407      6C617469 
 4407      766500
 4408              	.LASF1:
 4409 020f 7369676E 		.ascii	"signed char\000"
 4409      65642063 
 4409      68617200 
 4410              	.LASF190:
 4411 021b 65776D61 		.ascii	"ewmask\000"
 4411      736B00
 4412              	.LASF13:
 4413 0222 75696E74 		.ascii	"uint8_t\000"
 4413      385F7400 
 4414              	.LASF24:
 4415 022a 6576656E 		.ascii	"eventmask_t\000"
 4415      746D6173 
 4415      6B5F7400 
 4416              	.LASF186:
 4417 0236 77747472 		.ascii	"wttrp\000"
 4417      7000
 4418              	.LASF94:
 4419 023c 444D4131 		.ascii	"DMA1_Stream2_IRQn\000"
 4419      5F537472 
 4419      65616D32 
 4419      5F495251 
 4419      6E00
 4420              	.LASF2:
 4421 024e 756E7369 		.ascii	"unsigned char\000"
 4421      676E6564 
 4421      20636861 
 4421      7200
 4422              	.LASF141:
 4423 025c 444D4132 		.ascii	"DMA2_Stream4_IRQn\000"
 4423      5F537472 
 4423      65616D34 
 4423      5F495251 
 4423      6E00
 4424              	.LASF63:
 4425 026e 6C617374 		.ascii	"lasttime\000"
 4425      74696D65 
 4425      00
 4426              	.LASF224:
 4427 0277 6578745F 		.ascii	"ext_lld_exti_irq_disable\000"
 4427      6C6C645F 
 4427      65787469 
 4427      5F697271 
 4427      5F646973 
ARM GAS  /tmp/ccFu9jx6.s 			page 81


 4428              	.LASF66:
 4429 0290 70616E69 		.ascii	"panic_msg\000"
 4429      635F6D73 
 4429      6700
 4430              	.LASF113:
 4431 029a 49324331 		.ascii	"I2C1_ER_IRQn\000"
 4431      5F45525F 
 4431      4952516E 
 4431      00
 4432              	.LASF64:
 4433 02a7 73797374 		.ascii	"system_debug_t\000"
 4433      656D5F64 
 4433      65627567 
 4433      5F7400
 4434              	.LASF147:
 4435 02b6 43414E32 		.ascii	"CAN2_SCE_IRQn\000"
 4435      5F534345 
 4435      5F495251 
 4435      6E00
 4436              	.LASF196:
 4437 02c4 5F426F6F 		.ascii	"_Bool\000"
 4437      6C00
 4438              	.LASF131:
 4439 02ca 54494D35 		.ascii	"TIM5_IRQn\000"
 4439      5F495251 
 4439      6E00
 4440              	.LASF76:
 4441 02d4 55736167 		.ascii	"UsageFault_IRQn\000"
 4441      65466175 
 4441      6C745F49 
 4441      52516E00 
 4442              	.LASF194:
 4443 02e4 63686172 		.ascii	"char\000"
 4443      00
 4444              	.LASF185:
 4445 02e9 77746F62 		.ascii	"wtobjp\000"
 4445      6A7000
 4446              	.LASF101:
 4447 02f0 43414E31 		.ascii	"CAN1_RX0_IRQn\000"
 4447      5F525830 
 4447      5F495251 
 4447      6E00
 4448              	.LASF179:
 4449 02fe 6E5F6374 		.ascii	"n_ctxswc\000"
 4449      78737763 
 4449      00
 4450              	.LASF36:
 4451 0307 666C6167 		.ascii	"flags\000"
 4451      7300
 4452              	.LASF168:
 4453 030d 73746B61 		.ascii	"stkalign_t\000"
 4453      6C69676E 
 4453      5F7400
 4454              	.LASF43:
 4455 0318 6D706F6F 		.ascii	"mpool\000"
 4455      6C00
 4456              	.LASF111:
ARM GAS  /tmp/ccFu9jx6.s 			page 82


 4457 031e 54494D34 		.ascii	"TIM4_IRQn\000"
 4457      5F495251 
 4457      6E00
 4458              	.LASF119:
 4459 0328 55534152 		.ascii	"USART2_IRQn\000"
 4459      54325F49 
 4459      52516E00 
 4460              	.LASF174:
 4461 0334 776F7273 		.ascii	"worst\000"
 4461      7400
 4462              	.LASF25:
 4463 033a 636E745F 		.ascii	"cnt_t\000"
 4463      7400
 4464              	.LASF112:
 4465 0340 49324331 		.ascii	"I2C1_EV_IRQn\000"
 4465      5F45565F 
 4465      4952516E 
 4465      00
 4466              	.LASF189:
 4467 034d 77746D74 		.ascii	"wtmtxp\000"
 4467      787000
 4468              	.LASF54:
 4469 0354 63685F72 		.ascii	"ch_ready_list\000"
 4469      65616479 
 4469      5F6C6973 
 4469      7400
 4470              	.LASF198:
 4471 0362 4558545F 		.ascii	"EXT_STOP\000"
 4471      53544F50 
 4471      00
 4472              	.LASF216:
 4473 036b 56656374 		.ascii	"Vector44\000"
 4473      6F723434 
 4473      00
 4474              	.LASF221:
 4475 0374 56656374 		.ascii	"Vector48\000"
 4475      6F723438 
 4475      00
 4476              	.LASF108:
 4477 037d 54494D31 		.ascii	"TIM1_CC_IRQn\000"
 4477      5F43435F 
 4477      4952516E 
 4477      00
 4478              	.LASF160:
 4479 038a 48415348 		.ascii	"HASH_RNG_IRQn\000"
 4479      5F524E47 
 4479      5F495251 
 4479      6E00
 4480              	.LASF88:
 4481 0398 45585449 		.ascii	"EXTI1_IRQn\000"
 4481      315F4952 
 4481      516E00
 4482              	.LASF222:
 4483 03a3 56656374 		.ascii	"Vector4C\000"
 4483      6F723443 
 4483      00
 4484              	.LASF100:
ARM GAS  /tmp/ccFu9jx6.s 			page 83


 4485 03ac 43414E31 		.ascii	"CAN1_TX_IRQn\000"
 4485      5F54585F 
 4485      4952516E 
 4485      00
 4486              	.LASF97:
 4487 03b9 444D4131 		.ascii	"DMA1_Stream5_IRQn\000"
 4487      5F537472 
 4487      65616D35 
 4487      5F495251 
 4487      6E00
 4488              	.LASF126:
 4489 03cb 54494D38 		.ascii	"TIM8_TRG_COM_TIM14_IRQn\000"
 4489      5F545247 
 4489      5F434F4D 
 4489      5F54494D 
 4489      31345F49 
 4490              	.LASF151:
 4491 03e3 444D4132 		.ascii	"DMA2_Stream7_IRQn\000"
 4491      5F537472 
 4491      65616D37 
 4491      5F495251 
 4491      6E00
 4492              	.LASF148:
 4493 03f5 4F54475F 		.ascii	"OTG_FS_IRQn\000"
 4493      46535F49 
 4493      52516E00 
 4494              	.LASF180:
 4495 0401 6D5F6372 		.ascii	"m_crit_thd\000"
 4495      69745F74 
 4495      686400
 4496              	.LASF73:
 4497 040c 4E6F6E4D 		.ascii	"NonMaskableInt_IRQn\000"
 4497      61736B61 
 4497      626C6549 
 4497      6E745F49 
 4497      52516E00 
 4498              	.LASF11:
 4499 0420 5F5F7569 		.ascii	"__uint64_t\000"
 4499      6E743634 
 4499      5F7400
 4500              	.LASF197:
 4501 042b 4558545F 		.ascii	"EXT_UNINIT\000"
 4501      554E494E 
 4501      495400
 4502              	.LASF81:
 4503 0436 57574447 		.ascii	"WWDG_IRQn\000"
 4503      5F495251 
 4503      6E00
 4504              	.LASF9:
 4505 0440 6C6F6E67 		.ascii	"long unsigned int\000"
 4505      20756E73 
 4505      69676E65 
 4505      6420696E 
 4505      7400
 4506              	.LASF209:
 4507 0452 56656374 		.ascii	"Vector58\000"
 4507      6F723538 
ARM GAS  /tmp/ccFu9jx6.s 			page 84


 4507      00
 4508              	.LASF74:
 4509 045b 4D656D6F 		.ascii	"MemoryManagement_IRQn\000"
 4509      72794D61 
 4509      6E616765 
 4509      6D656E74 
 4509      5F495251 
 4510              	.LASF210:
 4511 0471 56656374 		.ascii	"Vector5C\000"
 4511      6F723543 
 4511      00
 4512              	.LASF191:
 4513 047a 63685F73 		.ascii	"ch_semaphore\000"
 4513      656D6170 
 4513      686F7265 
 4513      00
 4514              	.LASF83:
 4515 0487 54414D50 		.ascii	"TAMP_STAMP_IRQn\000"
 4515      5F535441 
 4515      4D505F49 
 4515      52516E00 
 4516              	.LASF208:
 4517 0497 45585443 		.ascii	"EXTConfig\000"
 4517      6F6E6669 
 4517      6700
 4518              	.LASF47:
 4519 04a1 63685F74 		.ascii	"ch_thread\000"
 4519      68726561 
 4519      6400
 4520              	.LASF103:
 4521 04ab 43414E31 		.ascii	"CAN1_SCE_IRQn\000"
 4521      5F534345 
 4521      5F495251 
 4521      6E00
 4522              	.LASF61:
 4523 04b9 76697274 		.ascii	"virtual_timers_list_t\000"
 4523      75616C5F 
 4523      74696D65 
 4523      72735F6C 
 4523      6973745F 
 4524              	.LASF137:
 4525 04cf 444D4132 		.ascii	"DMA2_Stream0_IRQn\000"
 4525      5F537472 
 4525      65616D30 
 4525      5F495251 
 4525      6E00
 4526              	.LASF211:
 4527 04e1 56656374 		.ascii	"Vector60\000"
 4527      6F723630 
 4527      00
 4528              	.LASF57:
 4529 04ea 76697274 		.ascii	"virtual_timer_t\000"
 4529      75616C5F 
 4529      74696D65 
 4529      725F7400 
 4530              	.LASF53:
 4531 04fa 72656164 		.ascii	"ready_list_t\000"
ARM GAS  /tmp/ccFu9jx6.s 			page 85


 4531      795F6C69 
 4531      73745F74 
 4531      00
 4532              	.LASF32:
 4533 0507 6F6C6465 		.ascii	"older\000"
 4533      7200
 4534              	.LASF213:
 4535 050d 56656374 		.ascii	"Vector68\000"
 4535      6F723638 
 4535      00
 4536              	.LASF42:
 4537 0516 7265616C 		.ascii	"realprio\000"
 4537      7072696F 
 4537      00
 4538              	.LASF26:
 4539 051f 75636E74 		.ascii	"ucnt_t\000"
 4539      5F7400
 4540              	.LASF115:
 4541 0526 49324332 		.ascii	"I2C2_ER_IRQn\000"
 4541      5F45525F 
 4541      4952516E 
 4541      00
 4542              	.LASF48:
 4543 0533 63685F74 		.ascii	"ch_threads_list\000"
 4543      68726561 
 4543      64735F6C 
 4543      69737400 
 4544              	.LASF178:
 4545 0543 6E5F6972 		.ascii	"n_irq\000"
 4545      7100
 4546              	.LASF75:
 4547 0549 42757346 		.ascii	"BusFault_IRQn\000"
 4547      61756C74 
 4547      5F495251 
 4547      6E00
 4548              	.LASF134:
 4549 0557 55415254 		.ascii	"UART5_IRQn\000"
 4549      355F4952 
 4549      516E00
 4550              	.LASF105:
 4551 0562 54494D31 		.ascii	"TIM1_BRK_TIM9_IRQn\000"
 4551      5F42524B 
 4551      5F54494D 
 4551      395F4952 
 4551      516E00
 4552              	.LASF8:
 4553 0575 5F5F7569 		.ascii	"__uint32_t\000"
 4553      6E743332 
 4553      5F7400
 4554              	.LASF41:
 4555 0580 6D74786C 		.ascii	"mtxlist\000"
 4555      69737400 
 4556              	.LASF136:
 4557 0588 54494D37 		.ascii	"TIM7_IRQn\000"
 4557      5F495251 
 4557      6E00
 4558              	.LASF10:
ARM GAS  /tmp/ccFu9jx6.s 			page 86


 4559 0592 6C6F6E67 		.ascii	"long long int\000"
 4559      206C6F6E 
 4559      6720696E 
 4559      7400
 4560              	.LASF143:
 4561 05a0 4554485F 		.ascii	"ETH_WKUP_IRQn\000"
 4561      574B5550 
 4561      5F495251 
 4561      6E00
 4562              	.LASF158:
 4563 05ae 4F54475F 		.ascii	"OTG_HS_IRQn\000"
 4563      48535F49 
 4563      52516E00 
 4564              	.LASF199:
 4565 05ba 4558545F 		.ascii	"EXT_ACTIVE\000"
 4565      41435449 
 4565      564500
 4566              	.LASF116:
 4567 05c5 53504931 		.ascii	"SPI1_IRQn\000"
 4567      5F495251 
 4567      6E00
 4568              	.LASF226:
 4569 05cf 45585444 		.ascii	"EXTD1\000"
 4569      3100
 4570              	.LASF77:
 4571 05d5 53564361 		.ascii	"SVCall_IRQn\000"
 4571      6C6C5F49 
 4571      52516E00 
 4572              	.LASF161:
 4573 05e1 4650555F 		.ascii	"FPU_IRQn\000"
 4573      4952516E 
 4573      00
 4574              	.LASF133:
 4575 05ea 55415254 		.ascii	"UART4_IRQn\000"
 4575      345F4952 
 4575      516E00
 4576              	.LASF123:
 4577 05f5 4F54475F 		.ascii	"OTG_FS_WKUP_IRQn\000"
 4577      46535F57 
 4577      4B55505F 
 4577      4952516E 
 4577      00
 4578              	.LASF177:
 4579 0606 74696D65 		.ascii	"time_measurement_t\000"
 4579      5F6D6561 
 4579      73757265 
 4579      6D656E74 
 4579      5F7400
 4580              	.LASF214:
 4581 0619 56656374 		.ascii	"Vector9C\000"
 4581      6F723943 
 4581      00
 4582              	.LASF181:
 4583 0622 6D5F6372 		.ascii	"m_crit_isr\000"
 4583      69745F69 
 4583      737200
 4584              	.LASF0:
ARM GAS  /tmp/ccFu9jx6.s 			page 87


 4585 062d 756E7369 		.ascii	"unsigned int\000"
 4585      676E6564 
 4585      20696E74 
 4585      00
 4586              	.LASF17:
 4587 063a 7274636E 		.ascii	"rtcnt_t\000"
 4587      745F7400 
 4588              	.LASF114:
 4589 0642 49324332 		.ascii	"I2C2_EV_IRQn\000"
 4589      5F45565F 
 4589      4952516E 
 4589      00
 4590              	.LASF182:
 4591 064f 6B65726E 		.ascii	"kernel_stats_t\000"
 4591      656C5F73 
 4591      74617473 
 4591      5F7400
 4592              	.LASF230:
 4593 065e 2E2E2F2E 		.ascii	"../../modules/ChibiOS/os/hal/ports/STM32/STM32F4xx/"
 4593      2E2F6D6F 
 4593      64756C65 
 4593      732F4368 
 4593      6962694F 
 4594 0691 68616C5F 		.ascii	"hal_ext_lld_isr.c\000"
 4594      6578745F 
 4594      6C6C645F 
 4594      6973722E 
 4594      6300
 4595              	.LASF228:
 4596 06a3 5F706F72 		.ascii	"_port_irq_epilogue\000"
 4596      745F6972 
 4596      715F6570 
 4596      696C6F67 
 4596      756500
 4597              	.LASF55:
 4598 06b6 63757272 		.ascii	"current\000"
 4598      656E7400 
 4599              	.LASF171:
 4600 06be 6F666673 		.ascii	"offset\000"
 4600      657400
 4601              	.LASF93:
 4602 06c5 444D4131 		.ascii	"DMA1_Stream1_IRQn\000"
 4602      5F537472 
 4602      65616D31 
 4602      5F495251 
 4602      6E00
 4603              	.LASF140:
 4604 06d7 444D4132 		.ascii	"DMA2_Stream3_IRQn\000"
 4604      5F537472 
 4604      65616D33 
 4604      5F495251 
 4604      6E00
 4605              	.LASF144:
 4606 06e9 43414E32 		.ascii	"CAN2_TX_IRQn\000"
 4606      5F54585F 
 4606      4952516E 
 4606      00
ARM GAS  /tmp/ccFu9jx6.s 			page 88


 4607              	.LASF167:
 4608 06f6 72656761 		.ascii	"regarm_t\000"
 4608      726D5F74 
 4608      00
 4609              	.LASF223:
 4610 06ff 6578745F 		.ascii	"ext_lld_exti_irq_enable\000"
 4610      6C6C645F 
 4610      65787469 
 4610      5F697271 
 4610      5F656E61 
 4611              	.LASF204:
 4612 0717 65787463 		.ascii	"extcallback_t\000"
 4612      616C6C62 
 4612      61636B5F 
 4612      7400
 4613              	.LASF231:
 4614 0725 2F686F6D 		.ascii	"/home/kozinalexey/f4by/ardupilot/build/f4by-ch\000"
 4614      652F6B6F 
 4614      7A696E61 
 4614      6C657865 
 4614      792F6634 
 4615              	.LASF28:
 4616 0754 74687265 		.ascii	"thread_t\000"
 4616      61645F74 
 4616      00
 4617              	.LASF233:
 4618 075d 6E766963 		.ascii	"nvicDisableVector\000"
 4618      44697361 
 4618      626C6556 
 4618      6563746F 
 4618      7200
 4619              	.LASF45:
 4620 076f 74687265 		.ascii	"thread_reference_t\000"
 4620      61645F72 
 4620      65666572 
 4620      656E6365 
 4620      5F7400
 4621              	.LASF187:
 4622 0782 73656E74 		.ascii	"sentmsg\000"
 4622      6D736700 
 4623              	.LASF170:
 4624 078a 706F7274 		.ascii	"port_intctx\000"
 4624      5F696E74 
 4624      63747800 
 4625              	.LASF92:
 4626 0796 444D4131 		.ascii	"DMA1_Stream0_IRQn\000"
 4626      5F537472 
 4626      65616D30 
 4626      5F495251 
 4626      6E00
 4627              	.LASF165:
 4628 07a8 53574945 		.ascii	"SWIER\000"
 4628      5200
 4629              	.LASF58:
 4630 07ae 63685F76 		.ascii	"ch_virtual_timer\000"
 4630      69727475 
 4630      616C5F74 
ARM GAS  /tmp/ccFu9jx6.s 			page 89


 4630      696D6572 
 4630      00
 4631              	.LASF122:
 4632 07bf 5254435F 		.ascii	"RTC_Alarm_IRQn\000"
 4632      416C6172 
 4632      6D5F4952 
 4632      516E00
 4633              	.LASF72:
 4634 07ce 6B65726E 		.ascii	"kernel_stats\000"
 4634      656C5F73 
 4634      74617473 
 4634      00
 4635              	.LASF154:
 4636 07db 49324333 		.ascii	"I2C3_ER_IRQn\000"
 4636      5F45525F 
 4636      4952516E 
 4636      00
 4637              	.LASF121:
 4638 07e8 45585449 		.ascii	"EXTI15_10_IRQn\000"
 4638      31355F31 
 4638      305F4952 
 4638      516E00
 4639              	.LASF12:
 4640 07f7 6C6F6E67 		.ascii	"long long unsigned int\000"
 4640      206C6F6E 
 4640      6720756E 
 4640      7369676E 
 4640      65642069 
 4641              	.LASF229:
 4642 080e 474E5520 		.ascii	"GNU C 4.9.3 20150529 (prerelease) -mcpu=cortex-m4 -"
 4642      4320342E 
 4642      392E3320 
 4642      32303135 
 4642      30353239 
 4643 0841 6D666C6F 		.ascii	"mfloat-abi=hard -mfpu=fpv4-sp-d16 -mno-thumb-interw"
 4643      61742D61 
 4643      62693D68 
 4643      61726420 
 4643      2D6D6670 
 4644 0874 6F726B20 		.ascii	"ork -mthumb -g -Os -fomit-frame-pointer -falign-fun"
 4644      2D6D7468 
 4644      756D6220 
 4644      2D67202D 
 4644      4F73202D 
 4645 08a7 6374696F 		.ascii	"ctions=16 -ffunction-sections -fdata-sections -fno-"
 4645      6E733D31 
 4645      36202D66 
 4645      66756E63 
 4645      74696F6E 
 4646 08da 636F6D6D 		.ascii	"common -fsingle-precision-constant\000"
 4646      6F6E202D 
 4646      6673696E 
 4646      676C652D 
 4646      70726563 
 4647              	.LASF23:
 4648 08fd 6D73675F 		.ascii	"msg_t\000"
 4648      7400
ARM GAS  /tmp/ccFu9jx6.s 			page 90


 4649              	.LASF51:
 4650 0903 63685F74 		.ascii	"ch_threads_queue\000"
 4650      68726561 
 4650      64735F71 
 4650      75657565 
 4650      00
 4651              	.LASF110:
 4652 0914 54494D33 		.ascii	"TIM3_IRQn\000"
 4652      5F495251 
 4652      6E00
 4653              	.LASF118:
 4654 091e 55534152 		.ascii	"USART1_IRQn\000"
 4654      54315F49 
 4654      52516E00 
 4655              	.LASF59:
 4656 092a 64656C74 		.ascii	"delta\000"
 4656      6100
 4657              	.LASF207:
 4658 0930 6368616E 		.ascii	"channels\000"
 4658      6E656C73 
 4658      00
 4659              	.LASF37:
 4660 0939 72656673 		.ascii	"refs\000"
 4660      00
 4661              	.LASF29:
 4662 093e 71756575 		.ascii	"queue\000"
 4662      6500
 4663              	.LASF146:
 4664 0944 43414E32 		.ascii	"CAN2_RX1_IRQn\000"
 4664      5F525831 
 4664      5F495251 
 4664      6E00
 4665              	.LASF40:
 4666 0952 6570656E 		.ascii	"epending\000"
 4666      64696E67 
 4666      00
 4667              	.LASF99:
 4668 095b 4144435F 		.ascii	"ADC_IRQn\000"
 4668      4952516E 
 4668      00
 4669              	.LASF71:
 4670 0964 6D61696E 		.ascii	"mainthread\000"
 4670      74687265 
 4670      616400
 4671              	.LASF219:
 4672 096f 56656374 		.ascii	"Vector138\000"
 4672      6F723133 
 4672      3800
 4673              	.LASF173:
 4674 0979 62657374 		.ascii	"best\000"
 4674      00
 4675              	.LASF34:
 4676 097e 77616261 		.ascii	"wabase\000"
 4676      736500
 4677              	.LASF82:
 4678 0985 5056445F 		.ascii	"PVD_IRQn\000"
 4678      4952516E 
ARM GAS  /tmp/ccFu9jx6.s 			page 91


 4678      00
 4679              	.LASF129:
 4680 098e 46534D43 		.ascii	"FSMC_IRQn\000"
 4680      5F495251 
 4680      6E00
 4681              	.LASF87:
 4682 0998 45585449 		.ascii	"EXTI0_IRQn\000"
 4682      305F4952 
 4682      516E00
 4683              	.LASF69:
 4684 09a3 726C6973 		.ascii	"rlist\000"
 4684      7400
 4685              	.LASF19:
 4686 09a9 746D6F64 		.ascii	"tmode_t\000"
 4686      655F7400 
 4687              	.LASF96:
 4688 09b1 444D4131 		.ascii	"DMA1_Stream4_IRQn\000"
 4688      5F537472 
 4688      65616D34 
 4688      5F495251 
 4688      6E00
 4689              	.LASF203:
 4690 09c3 65787063 		.ascii	"expchannel_t\000"
 4690      68616E6E 
 4690      656C5F74 
 4690      00
 4691              	.LASF150:
 4692 09d0 444D4132 		.ascii	"DMA2_Stream6_IRQn\000"
 4692      5F537472 
 4692      65616D36 
 4692      5F495251 
 4692      6E00
 4693              	.LASF78:
 4694 09e2 44656275 		.ascii	"DebugMonitor_IRQn\000"
 4694      674D6F6E 
 4694      69746F72 
 4694      5F495251 
 4694      6E00
 4695              	.LASF153:
 4696 09f4 49324333 		.ascii	"I2C3_EV_IRQn\000"
 4696      5F45565F 
 4696      4952516E 
 4696      00
 4697              	.LASF172:
 4698 0a01 746D5F63 		.ascii	"tm_calibration_t\000"
 4698      616C6962 
 4698      72617469 
 4698      6F6E5F74 
 4698      00
 4699              	.LASF142:
 4700 0a12 4554485F 		.ascii	"ETH_IRQn\000"
 4700      4952516E 
 4700      00
 4701              	.LASF33:
 4702 0a1b 6E616D65 		.ascii	"name\000"
 4702      00
 4703              	.LASF3:
ARM GAS  /tmp/ccFu9jx6.s 			page 92


 4704 0a20 73686F72 		.ascii	"short int\000"
 4704      7420696E 
 4704      7400
 4705              	.LASF16:
 4706 0a2a 75696E74 		.ascii	"uint64_t\000"
 4706      36345F74 
 4706      00
 4707              	.LASF86:
 4708 0a33 5243435F 		.ascii	"RCC_IRQn\000"
 4708      4952516E 
 4708      00
 4709              	.LASF205:
 4710 0a3c 6D6F6465 		.ascii	"mode\000"
 4710      00
 4711              	.LASF60:
 4712 0a41 66756E63 		.ascii	"func\000"
 4712      00
 4713              	.LASF192:
 4714 0a46 63685F6D 		.ascii	"ch_mutex\000"
 4714      75746578 
 4714      00
 4715              	.LASF39:
 4716 0a4f 6D736771 		.ascii	"msgqueue\000"
 4716      75657565 
 4716      00
 4717              	.LASF95:
 4718 0a58 444D4131 		.ascii	"DMA1_Stream3_IRQn\000"
 4718      5F537472 
 4718      65616D33 
 4718      5F495251 
 4718      6E00
 4719              	.LASF65:
 4720 0a6a 63685F73 		.ascii	"ch_system_debug\000"
 4720      79737465 
 4720      6D5F6465 
 4720      62756700 
 4721              	.LASF106:
 4722 0a7a 54494D31 		.ascii	"TIM1_UP_TIM10_IRQn\000"
 4722      5F55505F 
 4722      54494D31 
 4722      305F4952 
 4722      516E00
 4723              	.LASF225:
 4724 0a8d 49544D5F 		.ascii	"ITM_RxBuffer\000"
 4724      52784275 
 4724      66666572 
 4724      00
 4725              	.LASF70:
 4726 0a9a 76746C69 		.ascii	"vtlist\000"
 4726      737400
 4727              	.LASF38:
 4728 0aa1 77616974 		.ascii	"waiting\000"
 4728      696E6700 
 4729              	.LASF220:
 4730 0aa9 56656374 		.ascii	"Vector170\000"
 4730      6F723137 
 4730      3000
ARM GAS  /tmp/ccFu9jx6.s 			page 93


 4731              	.LASF195:
 4732 0ab3 6D757465 		.ascii	"mutex_t\000"
 4732      785F7400 
 4733              	.LASF21:
 4734 0abb 74726566 		.ascii	"trefs_t\000"
 4734      735F7400 
 4735              	.LASF155:
 4736 0ac3 4F54475F 		.ascii	"OTG_HS_EP1_OUT_IRQn\000"
 4736      48535F45 
 4736      50315F4F 
 4736      55545F49 
 4736      52516E00 
 4737              	.LASF169:
 4738 0ad7 706F7274 		.ascii	"port_context\000"
 4738      5F636F6E 
 4738      74657874 
 4738      00
 4739              	.LASF46:
 4740 0ae4 74687265 		.ascii	"threads_list_t\000"
 4740      6164735F 
 4740      6C697374 
 4740      5F7400
 4741              	.LASF68:
 4742 0af3 63685F73 		.ascii	"ch_system\000"
 4742      79737465 
 4742      6D00
 4743              	.LASF31:
 4744 0afd 6E657765 		.ascii	"newer\000"
 4744      7200
 4745              	.LASF232:
 4746 0b03 6E766963 		.ascii	"nvicEnableVector\000"
 4746      456E6162 
 4746      6C655665 
 4746      63746F72 
 4746      00
 4747              	.LASF15:
 4748 0b14 75696E74 		.ascii	"uint32_t\000"
 4748      33325F74 
 4748      00
 4749              	.LASF102:
 4750 0b1d 43414E31 		.ascii	"CAN1_RX1_IRQn\000"
 4750      5F525831 
 4750      5F495251 
 4750      6E00
 4751              	.LASF104:
 4752 0b2b 45585449 		.ascii	"EXTI9_5_IRQn\000"
 4752      395F355F 
 4752      4952516E 
 4752      00
 4753              	.LASF183:
 4754 0b38 7264796D 		.ascii	"rdymsg\000"
 4754      736700
 4755              	.LASF91:
 4756 0b3f 45585449 		.ascii	"EXTI4_IRQn\000"
 4756      345F4952 
 4756      516E00
 4757              	.LASF4:
ARM GAS  /tmp/ccFu9jx6.s 			page 94


 4758 0b4a 73686F72 		.ascii	"short unsigned int\000"
 4758      7420756E 
 4758      7369676E 
 4758      65642069 
 4758      6E7400
 4759              	.LASF127:
 4760 0b5d 54494D38 		.ascii	"TIM8_CC_IRQn\000"
 4760      5F43435F 
 4760      4952516E 
 4760      00
 4761              	.LASF130:
 4762 0b6a 5344494F 		.ascii	"SDIO_IRQn\000"
 4762      5F495251 
 4762      6E00
 4763              	.LASF67:
 4764 0b74 63685F73 		.ascii	"ch_system_t\000"
 4764      79737465 
 4764      6D5F7400 
 4765              	.LASF215:
 4766 0b80 56656374 		.ascii	"VectorE0\000"
 4766      6F724530 
 4766      00
 4767              	.LASF217:
 4768 0b89 56656374 		.ascii	"VectorE4\000"
 4768      6F724534 
 4768      00
 4769              	.LASF90:
 4770 0b92 45585449 		.ascii	"EXTI3_IRQn\000"
 4770      335F4952 
 4770      516E00
 4771              	.LASF79:
 4772 0b9d 50656E64 		.ascii	"PendSV_IRQn\000"
 4772      53565F49 
 4772      52516E00 
 4773              	.LASF156:
 4774 0ba9 4F54475F 		.ascii	"OTG_HS_EP1_IN_IRQn\000"
 4774      48535F45 
 4774      50315F49 
 4774      4E5F4952 
 4774      516E00
 4775              	.LASF128:
 4776 0bbc 444D4131 		.ascii	"DMA1_Stream7_IRQn\000"
 4776      5F537472 
 4776      65616D37 
 4776      5F495251 
 4776      6E00
 4777              	.LASF6:
 4778 0bce 5F5F696E 		.ascii	"__int32_t\000"
 4778      7433325F 
 4778      7400
 4779              	.LASF201:
 4780 0bd8 45585444 		.ascii	"EXTDriver\000"
 4780      72697665 
 4780      7200
 4781              	.LASF49:
 4782 0be2 6E657874 		.ascii	"next\000"
 4782      00
ARM GAS  /tmp/ccFu9jx6.s 			page 95


 4783              	.LASF52:
 4784 0be7 70726576 		.ascii	"prev\000"
 4784      00
 4785              	.LASF135:
 4786 0bec 54494D36 		.ascii	"TIM6_DAC_IRQn\000"
 4786      5F444143 
 4786      5F495251 
 4786      6E00
 4787              	.LASF139:
 4788 0bfa 444D4132 		.ascii	"DMA2_Stream2_IRQn\000"
 4788      5F537472 
 4788      65616D32 
 4788      5F495251 
 4788      6E00
 4789              	.LASF175:
 4790 0c0c 6C617374 		.ascii	"last\000"
 4790      00
 4791              		.ident	"GCC: (15:4.9.3+svn231177-1) 4.9.3 20150529 (prerelease)"
ARM GAS  /tmp/ccFu9jx6.s 			page 96


DEFINED SYMBOLS
                            *ABS*:0000000000000000 hal_ext_lld_isr.c
     /tmp/ccFu9jx6.s:21     .text.Vector58:0000000000000000 $t
     /tmp/ccFu9jx6.s:26     .text.Vector58:0000000000000000 Vector58
     /tmp/ccFu9jx6.s:73     .text.Vector58:0000000000000028 $d
     /tmp/ccFu9jx6.s:79     .text.Vector5C:0000000000000000 $t
     /tmp/ccFu9jx6.s:84     .text.Vector5C:0000000000000000 Vector5C
     /tmp/ccFu9jx6.s:130    .text.Vector5C:0000000000000028 $d
     /tmp/ccFu9jx6.s:136    .text.Vector60:0000000000000000 $t
     /tmp/ccFu9jx6.s:141    .text.Vector60:0000000000000000 Vector60
     /tmp/ccFu9jx6.s:187    .text.Vector60:0000000000000028 $d
     /tmp/ccFu9jx6.s:193    .text.Vector64:0000000000000000 $t
     /tmp/ccFu9jx6.s:198    .text.Vector64:0000000000000000 Vector64
     /tmp/ccFu9jx6.s:244    .text.Vector64:0000000000000028 $d
     /tmp/ccFu9jx6.s:250    .text.Vector68:0000000000000000 $t
     /tmp/ccFu9jx6.s:255    .text.Vector68:0000000000000000 Vector68
     /tmp/ccFu9jx6.s:301    .text.Vector68:0000000000000028 $d
     /tmp/ccFu9jx6.s:307    .text.Vector9C:0000000000000000 $t
     /tmp/ccFu9jx6.s:312    .text.Vector9C:0000000000000000 Vector9C
     /tmp/ccFu9jx6.s:403    .text.Vector9C:0000000000000064 $d
     /tmp/ccFu9jx6.s:409    .text.VectorE0:0000000000000000 $t
     /tmp/ccFu9jx6.s:414    .text.VectorE0:0000000000000000 VectorE0
     /tmp/ccFu9jx6.s:518    .text.VectorE0:0000000000000070 $d
     /tmp/ccFu9jx6.s:524    .text.Vector44:0000000000000000 $t
     /tmp/ccFu9jx6.s:529    .text.Vector44:0000000000000000 Vector44
     /tmp/ccFu9jx6.s:575    .text.Vector44:000000000000002c $d
     /tmp/ccFu9jx6.s:581    .text.VectorE4:0000000000000000 $t
     /tmp/ccFu9jx6.s:586    .text.VectorE4:0000000000000000 VectorE4
     /tmp/ccFu9jx6.s:632    .text.VectorE4:000000000000002c $d
     /tmp/ccFu9jx6.s:638    .text.VectorE8:0000000000000000 $t
     /tmp/ccFu9jx6.s:643    .text.VectorE8:0000000000000000 VectorE8
     /tmp/ccFu9jx6.s:689    .text.VectorE8:000000000000002c $d
     /tmp/ccFu9jx6.s:695    .text.Vector138:0000000000000000 $t
     /tmp/ccFu9jx6.s:700    .text.Vector138:0000000000000000 Vector138
     /tmp/ccFu9jx6.s:746    .text.Vector138:000000000000002c $d
     /tmp/ccFu9jx6.s:752    .text.Vector170:0000000000000000 $t
     /tmp/ccFu9jx6.s:757    .text.Vector170:0000000000000000 Vector170
     /tmp/ccFu9jx6.s:803    .text.Vector170:000000000000002c $d
     /tmp/ccFu9jx6.s:809    .text.Vector48:0000000000000000 $t
     /tmp/ccFu9jx6.s:814    .text.Vector48:0000000000000000 Vector48
     /tmp/ccFu9jx6.s:860    .text.Vector48:000000000000002c $d
     /tmp/ccFu9jx6.s:866    .text.Vector4C:0000000000000000 $t
     /tmp/ccFu9jx6.s:871    .text.Vector4C:0000000000000000 Vector4C
     /tmp/ccFu9jx6.s:917    .text.Vector4C:000000000000002c $d
     /tmp/ccFu9jx6.s:923    .text.ext_lld_exti_irq_enable:0000000000000000 $t
     /tmp/ccFu9jx6.s:928    .text.ext_lld_exti_irq_enable:0000000000000000 ext_lld_exti_irq_enable
     /tmp/ccFu9jx6.s:1020   .text.ext_lld_exti_irq_disable:0000000000000000 $t
     /tmp/ccFu9jx6.s:1025   .text.ext_lld_exti_irq_disable:0000000000000000 ext_lld_exti_irq_disable
                     .debug_frame:0000000000000010 $d

UNDEFINED SYMBOLS
_stats_increase_irq
_port_irq_epilogue
EXTD1
nvicEnableVector
nvicDisableVector
