ARM GAS  /tmp/ccuVlvbs.s 			page 1


   1              		.syntax unified
   2              		.cpu cortex-m4
   3              		.eabi_attribute 27, 1
   4              		.eabi_attribute 28, 1
   5              		.fpu fpv4-sp-d16
   6              		.eabi_attribute 20, 1
   7              		.eabi_attribute 21, 1
   8              		.eabi_attribute 23, 3
   9              		.eabi_attribute 24, 1
  10              		.eabi_attribute 25, 1
  11              		.eabi_attribute 26, 1
  12              		.eabi_attribute 30, 4
  13              		.eabi_attribute 34, 1
  14              		.eabi_attribute 18, 4
  15              		.thumb
  16              		.file	"hal_i2c.c"
  17              		.text
  18              	.Ltext0:
  19              		.cfi_sections	.debug_frame
  20              		.section	.text.i2cInit,"ax",%progbits
  21              		.align	1
  22              		.global	i2cInit
  23              		.thumb
  24              		.thumb_func
  25              		.type	i2cInit, %function
  26              	i2cInit:
  27              	.LFB277:
  28              		.file 1 "../../modules/ChibiOS/os/hal/src/hal_i2c.c"
  29              		.loc 1 59 0
  30              		.cfi_startproc
  31              		@ args = 0, pretend = 0, frame = 0
  32              		@ frame_needed = 0, uses_anonymous_args = 0
  33              		@ link register save eliminated.
  34              		.loc 1 61 0
  35 0000 FFF7FEBF 		b	i2c_lld_init
  36              	.LVL0:
  37              		.cfi_endproc
  38              	.LFE277:
  39              		.size	i2cInit, .-i2cInit
  40              		.section	.text.i2cObjectInit,"ax",%progbits
  41              		.align	1
  42              		.global	i2cObjectInit
  43              		.thumb
  44              		.thumb_func
  45              		.type	i2cObjectInit, %function
  46              	i2cObjectInit:
  47              	.LFB278:
  48              		.loc 1 71 0
  49              		.cfi_startproc
  50              		@ args = 0, pretend = 0, frame = 0
  51              		@ frame_needed = 0, uses_anonymous_args = 0
  52              		@ link register save eliminated.
  53              	.LVL1:
  54              		.loc 1 73 0
  55 0000 0123     		movs	r3, #1
  56 0002 0370     		strb	r3, [r0]
  57              		.loc 1 74 0
ARM GAS  /tmp/ccuVlvbs.s 			page 2


  58 0004 0023     		movs	r3, #0
  59 0006 4360     		str	r3, [r0, #4]
  60              	.LVL2:
  61              	.LBB36:
  62              	.LBB37:
  63              		.file 2 "../../modules/ChibiOS/os/hal/osal/rt/osal.h"
  64              		.loc 2 887 0
  65 0008 0C30     		adds	r0, r0, #12
  66              	.LVL3:
  67 000a FFF7FEBF 		b	chMtxObjectInit
  68              	.LVL4:
  69              	.LBE37:
  70              	.LBE36:
  71              		.cfi_endproc
  72              	.LFE278:
  73              		.size	i2cObjectInit, .-i2cObjectInit
  74              		.section	.text.i2cStart,"ax",%progbits
  75              		.align	1
  76              		.global	i2cStart
  77              		.thumb
  78              		.thumb_func
  79              		.type	i2cStart, %function
  80              	i2cStart:
  81              	.LFB279:
  82              		.loc 1 93 0
  83              		.cfi_startproc
  84              		@ args = 0, pretend = 0, frame = 0
  85              		@ frame_needed = 0, uses_anonymous_args = 0
  86              	.LVL5:
  87 0000 38B5     		push	{r3, r4, r5, lr}
  88              		.cfi_def_cfa_offset 16
  89              		.cfi_offset 3, -16
  90              		.cfi_offset 4, -12
  91              		.cfi_offset 5, -8
  92              		.cfi_offset 14, -4
  93              		.loc 1 93 0
  94 0002 0446     		mov	r4, r0
  95 0004 0D46     		mov	r5, r1
  96              	.LBB52:
  97              	.LBB53:
  98              	.LBB54:
  99              	.LBB55:
 100              	.LBB56:
 101              	.LBB57:
 102              		.file 3 "../../modules/ChibiOS/os/common/ext/CMSIS/include/cmsis_gcc.h"
 103              		.loc 3 264 0
 104 0006 2023     		movs	r3, #32
 105              	@ 264 "../../modules/ChibiOS/os/common/ext/CMSIS/include/cmsis_gcc.h" 1
 106 0008 83F31188 		MSR basepri, r3
 107              	@ 0 "" 2
 108              		.thumb
 109              	.LBE57:
 110              	.LBE56:
 111              	.LBE55:
 112              		.file 4 "../../modules/ChibiOS/os/rt/include/chsys.h"
 113              		.loc 4 377 0
 114 000c FFF7FEFF 		bl	_stats_start_measure_crit_thd
ARM GAS  /tmp/ccuVlvbs.s 			page 3


 115              	.LVL6:
 116              	.LBE54:
 117              	.LBE53:
 118              	.LBE52:
 119              		.loc 1 101 0
 120 0010 2046     		mov	r0, r4
 121              		.loc 1 100 0
 122 0012 6560     		str	r5, [r4, #4]
 123              		.loc 1 101 0
 124 0014 FFF7FEFF 		bl	i2c_lld_start
 125              	.LVL7:
 126              		.loc 1 102 0
 127 0018 0223     		movs	r3, #2
 128 001a 2370     		strb	r3, [r4]
 129              	.LBB58:
 130              	.LBB59:
 131              	.LBB60:
 132              		.loc 4 389 0
 133 001c FFF7FEFF 		bl	_stats_stop_measure_crit_thd
 134              	.LVL8:
 135              	.LBB61:
 136              	.LBB62:
 137              	.LBB63:
 138              		.loc 3 264 0
 139 0020 0023     		movs	r3, #0
 140              	@ 264 "../../modules/ChibiOS/os/common/ext/CMSIS/include/cmsis_gcc.h" 1
 141 0022 83F31188 		MSR basepri, r3
 142              	@ 0 "" 2
 143              		.thumb
 144 0026 38BD     		pop	{r3, r4, r5, pc}
 145              	.LBE63:
 146              	.LBE62:
 147              	.LBE61:
 148              	.LBE60:
 149              	.LBE59:
 150              	.LBE58:
 151              		.cfi_endproc
 152              	.LFE279:
 153              		.size	i2cStart, .-i2cStart
 154              		.section	.text.i2cStop,"ax",%progbits
 155              		.align	1
 156              		.global	i2cStop
 157              		.thumb
 158              		.thumb_func
 159              		.type	i2cStop, %function
 160              	i2cStop:
 161              	.LFB280:
 162              		.loc 1 113 0
 163              		.cfi_startproc
 164              		@ args = 0, pretend = 0, frame = 0
 165              		@ frame_needed = 0, uses_anonymous_args = 0
 166              	.LVL9:
 167 0000 38B5     		push	{r3, r4, r5, lr}
 168              		.cfi_def_cfa_offset 16
 169              		.cfi_offset 3, -16
 170              		.cfi_offset 4, -12
 171              		.cfi_offset 5, -8
ARM GAS  /tmp/ccuVlvbs.s 			page 4


 172              		.cfi_offset 14, -4
 173              		.loc 1 113 0
 174 0002 0446     		mov	r4, r0
 175              	.LBB78:
 176              	.LBB79:
 177              	.LBB80:
 178              	.LBB81:
 179              	.LBB82:
 180              	.LBB83:
 181              		.loc 3 264 0
 182 0004 2023     		movs	r3, #32
 183              	@ 264 "../../modules/ChibiOS/os/common/ext/CMSIS/include/cmsis_gcc.h" 1
 184 0006 83F31188 		MSR basepri, r3
 185              	@ 0 "" 2
 186              		.thumb
 187              	.LBE83:
 188              	.LBE82:
 189              	.LBE81:
 190              		.loc 4 377 0
 191 000a FFF7FEFF 		bl	_stats_start_measure_crit_thd
 192              	.LVL10:
 193              	.LBE80:
 194              	.LBE79:
 195              	.LBE78:
 196              		.loc 1 122 0
 197 000e 2046     		mov	r0, r4
 198 0010 FFF7FEFF 		bl	i2c_lld_stop
 199              	.LVL11:
 200              		.loc 1 123 0
 201 0014 0025     		movs	r5, #0
 202              		.loc 1 124 0
 203 0016 0123     		movs	r3, #1
 204              		.loc 1 123 0
 205 0018 6560     		str	r5, [r4, #4]
 206              		.loc 1 124 0
 207 001a 2370     		strb	r3, [r4]
 208              	.LBB84:
 209              	.LBB85:
 210              	.LBB86:
 211              		.loc 4 389 0
 212 001c FFF7FEFF 		bl	_stats_stop_measure_crit_thd
 213              	.LVL12:
 214              	.LBB87:
 215              	.LBB88:
 216              	.LBB89:
 217              		.loc 3 264 0
 218              	@ 264 "../../modules/ChibiOS/os/common/ext/CMSIS/include/cmsis_gcc.h" 1
 219 0020 85F31188 		MSR basepri, r5
 220              	@ 0 "" 2
 221              		.thumb
 222 0024 38BD     		pop	{r3, r4, r5, pc}
 223              	.LBE89:
 224              	.LBE88:
 225              	.LBE87:
 226              	.LBE86:
 227              	.LBE85:
 228              	.LBE84:
ARM GAS  /tmp/ccuVlvbs.s 			page 5


 229              		.cfi_endproc
 230              	.LFE280:
 231              		.size	i2cStop, .-i2cStop
 232              		.section	.text.i2cGetErrors,"ax",%progbits
 233              		.align	1
 234              		.global	i2cGetErrors
 235              		.thumb
 236              		.thumb_func
 237              		.type	i2cGetErrors, %function
 238              	i2cGetErrors:
 239              	.LFB281:
 240              		.loc 1 137 0
 241              		.cfi_startproc
 242              		@ args = 0, pretend = 0, frame = 0
 243              		@ frame_needed = 0, uses_anonymous_args = 0
 244              		@ link register save eliminated.
 245              	.LVL13:
 246              		.loc 1 142 0
 247 0000 8068     		ldr	r0, [r0, #8]
 248              	.LVL14:
 249 0002 7047     		bx	lr
 250              		.cfi_endproc
 251              	.LFE281:
 252              		.size	i2cGetErrors, .-i2cGetErrors
 253              		.section	.text.i2cMasterTransmitTimeout,"ax",%progbits
 254              		.align	1
 255              		.global	i2cMasterTransmitTimeout
 256              		.thumb
 257              		.thumb_func
 258              		.type	i2cMasterTransmitTimeout, %function
 259              	i2cMasterTransmitTimeout:
 260              	.LFB282:
 261              		.loc 1 176 0
 262              		.cfi_startproc
 263              		@ args = 12, pretend = 0, frame = 0
 264              		@ frame_needed = 0, uses_anonymous_args = 0
 265              	.LVL15:
 266 0000 2DE9FF41 		push	{r0, r1, r2, r3, r4, r5, r6, r7, r8, lr}
 267              		.cfi_def_cfa_offset 40
 268              		.cfi_offset 4, -24
 269              		.cfi_offset 5, -20
 270              		.cfi_offset 6, -16
 271              		.cfi_offset 7, -12
 272              		.cfi_offset 8, -8
 273              		.cfi_offset 14, -4
 274              		.loc 1 176 0
 275 0004 1E46     		mov	r6, r3
 276 0006 0446     		mov	r4, r0
 277 0008 8846     		mov	r8, r1
 278 000a 1746     		mov	r7, r2
 279              	.LBB104:
 280              	.LBB105:
 281              	.LBB106:
 282              	.LBB107:
 283              	.LBB108:
 284              	.LBB109:
 285              		.loc 3 264 0
ARM GAS  /tmp/ccuVlvbs.s 			page 6


 286 000c 2023     		movs	r3, #32
 287              	.LVL16:
 288              	@ 264 "../../modules/ChibiOS/os/common/ext/CMSIS/include/cmsis_gcc.h" 1
 289 000e 83F31188 		MSR basepri, r3
 290              	@ 0 "" 2
 291              		.thumb
 292              	.LBE109:
 293              	.LBE108:
 294              	.LBE107:
 295              		.loc 4 377 0
 296 0012 FFF7FEFF 		bl	_stats_start_measure_crit_thd
 297              	.LVL17:
 298              	.LBE106:
 299              	.LBE105:
 300              	.LBE104:
 301              		.loc 1 188 0
 302 0016 0323     		movs	r3, #3
 303 0018 2370     		strb	r3, [r4]
 304              		.loc 1 189 0
 305 001a 0A9B     		ldr	r3, [sp, #40]
 306 001c 0093     		str	r3, [sp]
 307 001e 0B9B     		ldr	r3, [sp, #44]
 308 0020 0193     		str	r3, [sp, #4]
 309              		.loc 1 187 0
 310 0022 0025     		movs	r5, #0
 311              		.loc 1 189 0
 312 0024 0C9B     		ldr	r3, [sp, #48]
 313 0026 0293     		str	r3, [sp, #8]
 314 0028 4146     		mov	r1, r8
 315 002a 3A46     		mov	r2, r7
 316 002c 3346     		mov	r3, r6
 317              		.loc 1 187 0
 318 002e A560     		str	r5, [r4, #8]
 319              		.loc 1 189 0
 320 0030 2046     		mov	r0, r4
 321 0032 FFF7FEFF 		bl	i2c_lld_master_transmit_timeout
 322              	.LVL18:
 323              		.loc 1 191 0
 324 0036 431C     		adds	r3, r0, #1
 325              		.loc 1 192 0
 326 0038 0CBF     		ite	eq
 327 003a 0523     		moveq	r3, #5
 328              		.loc 1 195 0
 329 003c 0223     		movne	r3, #2
 330 003e 2370     		strb	r3, [r4]
 331              		.loc 1 189 0
 332 0040 0646     		mov	r6, r0
 333              	.LVL19:
 334              	.LBB110:
 335              	.LBB111:
 336              	.LBB112:
 337              		.loc 4 389 0
 338 0042 FFF7FEFF 		bl	_stats_stop_measure_crit_thd
 339              	.LVL20:
 340              	.LBB113:
 341              	.LBB114:
 342              	.LBB115:
ARM GAS  /tmp/ccuVlvbs.s 			page 7


 343              		.loc 3 264 0
 344              	@ 264 "../../modules/ChibiOS/os/common/ext/CMSIS/include/cmsis_gcc.h" 1
 345 0046 85F31188 		MSR basepri, r5
 346              	@ 0 "" 2
 347              		.thumb
 348              	.LBE115:
 349              	.LBE114:
 350              	.LBE113:
 351              	.LBE112:
 352              	.LBE111:
 353              	.LBE110:
 354              		.loc 1 199 0
 355 004a 3046     		mov	r0, r6
 356 004c 04B0     		add	sp, sp, #16
 357              		.cfi_def_cfa_offset 24
 358              		@ sp needed
 359 004e BDE8F081 		pop	{r4, r5, r6, r7, r8, pc}
 360              		.cfi_endproc
 361              	.LFE282:
 362              		.size	i2cMasterTransmitTimeout, .-i2cMasterTransmitTimeout
 363              		.section	.text.i2cMasterReceiveTimeout,"ax",%progbits
 364              		.align	1
 365              		.global	i2cMasterReceiveTimeout
 366              		.thumb
 367              		.thumb_func
 368              		.type	i2cMasterReceiveTimeout, %function
 369              	i2cMasterReceiveTimeout:
 370              	.LFB283:
 371              		.loc 1 225 0
 372              		.cfi_startproc
 373              		@ args = 4, pretend = 0, frame = 0
 374              		@ frame_needed = 0, uses_anonymous_args = 0
 375              	.LVL21:
 376 0000 2DE9F341 		push	{r0, r1, r4, r5, r6, r7, r8, lr}
 377              		.cfi_def_cfa_offset 32
 378              		.cfi_offset 4, -24
 379              		.cfi_offset 5, -20
 380              		.cfi_offset 6, -16
 381              		.cfi_offset 7, -12
 382              		.cfi_offset 8, -8
 383              		.cfi_offset 14, -4
 384              		.loc 1 225 0
 385 0004 1E46     		mov	r6, r3
 386 0006 0446     		mov	r4, r0
 387 0008 8846     		mov	r8, r1
 388 000a 1746     		mov	r7, r2
 389              	.LBB130:
 390              	.LBB131:
 391              	.LBB132:
 392              	.LBB133:
 393              	.LBB134:
 394              	.LBB135:
 395              		.loc 3 264 0
 396 000c 2023     		movs	r3, #32
 397              	.LVL22:
 398              	@ 264 "../../modules/ChibiOS/os/common/ext/CMSIS/include/cmsis_gcc.h" 1
 399 000e 83F31188 		MSR basepri, r3
ARM GAS  /tmp/ccuVlvbs.s 			page 8


 400              	@ 0 "" 2
 401              		.thumb
 402              	.LBE135:
 403              	.LBE134:
 404              	.LBE133:
 405              		.loc 4 377 0
 406 0012 FFF7FEFF 		bl	_stats_start_measure_crit_thd
 407              	.LVL23:
 408              	.LBE132:
 409              	.LBE131:
 410              	.LBE130:
 411              		.loc 1 237 0
 412 0016 0423     		movs	r3, #4
 413 0018 2370     		strb	r3, [r4]
 414              		.loc 1 236 0
 415 001a 0025     		movs	r5, #0
 416              		.loc 1 238 0
 417 001c 089B     		ldr	r3, [sp, #32]
 418 001e 0093     		str	r3, [sp]
 419 0020 4146     		mov	r1, r8
 420 0022 3A46     		mov	r2, r7
 421 0024 3346     		mov	r3, r6
 422              		.loc 1 236 0
 423 0026 A560     		str	r5, [r4, #8]
 424              		.loc 1 238 0
 425 0028 2046     		mov	r0, r4
 426 002a FFF7FEFF 		bl	i2c_lld_master_receive_timeout
 427              	.LVL24:
 428              		.loc 1 239 0
 429 002e 431C     		adds	r3, r0, #1
 430              		.loc 1 240 0
 431 0030 0CBF     		ite	eq
 432 0032 0523     		moveq	r3, #5
 433              		.loc 1 243 0
 434 0034 0223     		movne	r3, #2
 435 0036 2370     		strb	r3, [r4]
 436              		.loc 1 238 0
 437 0038 0646     		mov	r6, r0
 438              	.LVL25:
 439              	.LBB136:
 440              	.LBB137:
 441              	.LBB138:
 442              		.loc 4 389 0
 443 003a FFF7FEFF 		bl	_stats_stop_measure_crit_thd
 444              	.LVL26:
 445              	.LBB139:
 446              	.LBB140:
 447              	.LBB141:
 448              		.loc 3 264 0
 449              	@ 264 "../../modules/ChibiOS/os/common/ext/CMSIS/include/cmsis_gcc.h" 1
 450 003e 85F31188 		MSR basepri, r5
 451              	@ 0 "" 2
 452              		.thumb
 453              	.LBE141:
 454              	.LBE140:
 455              	.LBE139:
 456              	.LBE138:
ARM GAS  /tmp/ccuVlvbs.s 			page 9


 457              	.LBE137:
 458              	.LBE136:
 459              		.loc 1 247 0
 460 0042 3046     		mov	r0, r6
 461 0044 02B0     		add	sp, sp, #8
 462              		.cfi_def_cfa_offset 24
 463              		@ sp needed
 464 0046 BDE8F081 		pop	{r4, r5, r6, r7, r8, pc}
 465              		.cfi_endproc
 466              	.LFE283:
 467              		.size	i2cMasterReceiveTimeout, .-i2cMasterReceiveTimeout
 468              		.section	.text.i2cAcquireBus,"ax",%progbits
 469              		.align	1
 470              		.global	i2cAcquireBus
 471              		.thumb
 472              		.thumb_func
 473              		.type	i2cAcquireBus, %function
 474              	i2cAcquireBus:
 475              	.LFB284:
 476              		.loc 1 261 0
 477              		.cfi_startproc
 478              		@ args = 0, pretend = 0, frame = 0
 479              		@ frame_needed = 0, uses_anonymous_args = 0
 480              		@ link register save eliminated.
 481              	.LVL27:
 482              	.LBB142:
 483              	.LBB143:
 484              		.loc 2 907 0
 485 0000 0C30     		adds	r0, r0, #12
 486              	.LVL28:
 487 0002 FFF7FEBF 		b	chMtxLock
 488              	.LVL29:
 489              	.LBE143:
 490              	.LBE142:
 491              		.cfi_endproc
 492              	.LFE284:
 493              		.size	i2cAcquireBus, .-i2cAcquireBus
 494              		.section	.text.i2cReleaseBus,"ax",%progbits
 495              		.align	1
 496              		.global	i2cReleaseBus
 497              		.thumb
 498              		.thumb_func
 499              		.type	i2cReleaseBus, %function
 500              	i2cReleaseBus:
 501              	.LFB285:
 502              		.loc 1 277 0
 503              		.cfi_startproc
 504              		@ args = 0, pretend = 0, frame = 0
 505              		@ frame_needed = 0, uses_anonymous_args = 0
 506              		@ link register save eliminated.
 507              	.LVL30:
 508              	.LBB144:
 509              	.LBB145:
 510              		.loc 2 931 0
 511 0000 0C30     		adds	r0, r0, #12
 512              	.LVL31:
 513 0002 FFF7FEBF 		b	chMtxUnlock
ARM GAS  /tmp/ccuVlvbs.s 			page 10


 514              	.LVL32:
 515              	.LBE145:
 516              	.LBE144:
 517              		.cfi_endproc
 518              	.LFE285:
 519              		.size	i2cReleaseBus, .-i2cReleaseBus
 520              		.text
 521              	.Letext0:
 522              		.file 5 "/usr/lib/gcc/arm-none-eabi/4.9.3/include/stddef.h"
 523              		.file 6 "/usr/include/newlib/machine/_default_types.h"
 524              		.file 7 "/usr/include/newlib/sys/_stdint.h"
 525              		.file 8 "../../modules/ChibiOS/os/common/ports/ARMCMx/compilers/GCC/chtypes.h"
 526              		.file 9 "../../modules/ChibiOS/os/rt/include/chsystypes.h"
 527              		.file 10 "../../modules/ChibiOS/os/rt/include/chschd.h"
 528              		.file 11 "../../modules/ChibiOS/os/common/ext/CMSIS/ST/STM32F4xx/stm32f407xx.h"
 529              		.file 12 "../../modules/ChibiOS/os/common/ports/ARMCMx/chcore.h"
 530              		.file 13 "../../modules/ChibiOS/os/common/ports/ARMCMx/chcore_v7m.h"
 531              		.file 14 "../../modules/ChibiOS/os/rt/include/chtm.h"
 532              		.file 15 "../../modules/ChibiOS/os/rt/include/chstats.h"
 533              		.file 16 "../../modules/ChibiOS/os/rt/include/chsem.h"
 534              		.file 17 "../../modules/ChibiOS/os/rt/include/chmtx.h"
 535              		.file 18 "../../modules/ChibiOS/os/hal/ports/STM32/LLD/DMAv2/stm32_dma.h"
 536              		.file 19 "../../modules/ChibiOS/os/hal/include/hal_i2c.h"
 537              		.file 20 "../../modules/ChibiOS/os/hal/ports/STM32/LLD/I2Cv1/hal_i2c_lld.h"
 538              		.file 21 "../../modules/ChibiOS/os/common/ext/CMSIS/include/core_cm4.h"
 539              		.section	.debug_info,"",%progbits
 540              	.Ldebug_info0:
 541 0000 5A130000 		.4byte	0x135a
 542 0004 0400     		.2byte	0x4
 543 0006 00000000 		.4byte	.Ldebug_abbrev0
 544 000a 04       		.byte	0x4
 545 000b 01       		.uleb128 0x1
 546 000c FF020000 		.4byte	.LASF190
 547 0010 01       		.byte	0x1
 548 0011 76050000 		.4byte	.LASF191
 549 0015 F4010000 		.4byte	.LASF192
 550 0019 00000000 		.4byte	.Ldebug_ranges0+0
 551 001d 00000000 		.4byte	0
 552 0021 00000000 		.4byte	.Ldebug_line0
 553 0025 02       		.uleb128 0x2
 554 0026 04       		.byte	0x4
 555 0027 05       		.byte	0x5
 556 0028 696E7400 		.ascii	"int\000"
 557 002c 03       		.uleb128 0x3
 558 002d 36000000 		.4byte	.LASF2
 559 0031 05       		.byte	0x5
 560 0032 D4       		.byte	0xd4
 561 0033 37000000 		.4byte	0x37
 562 0037 04       		.uleb128 0x4
 563 0038 04       		.byte	0x4
 564 0039 07       		.byte	0x7
 565 003a F2020000 		.4byte	.LASF0
 566 003e 04       		.uleb128 0x4
 567 003f 01       		.byte	0x1
 568 0040 06       		.byte	0x6
 569 0041 AA010000 		.4byte	.LASF1
 570 0045 03       		.uleb128 0x3
ARM GAS  /tmp/ccuVlvbs.s 			page 11


 571 0046 60000000 		.4byte	.LASF3
 572 004a 06       		.byte	0x6
 573 004b 1D       		.byte	0x1d
 574 004c 50000000 		.4byte	0x50
 575 0050 04       		.uleb128 0x4
 576 0051 01       		.byte	0x1
 577 0052 08       		.byte	0x8
 578 0053 DA060000 		.4byte	.LASF4
 579 0057 04       		.uleb128 0x4
 580 0058 02       		.byte	0x2
 581 0059 05       		.byte	0x5
 582 005a DA040000 		.4byte	.LASF5
 583 005e 03       		.uleb128 0x3
 584 005f F1070000 		.4byte	.LASF6
 585 0063 06       		.byte	0x6
 586 0064 2B       		.byte	0x2b
 587 0065 69000000 		.4byte	0x69
 588 0069 04       		.uleb128 0x4
 589 006a 02       		.byte	0x2
 590 006b 07       		.byte	0x7
 591 006c 37040000 		.4byte	.LASF7
 592 0070 03       		.uleb128 0x3
 593 0071 E4040000 		.4byte	.LASF8
 594 0075 06       		.byte	0x6
 595 0076 3F       		.byte	0x3f
 596 0077 7B000000 		.4byte	0x7b
 597 007b 04       		.uleb128 0x4
 598 007c 04       		.byte	0x4
 599 007d 05       		.byte	0x5
 600 007e 48020000 		.4byte	.LASF9
 601 0082 03       		.uleb128 0x3
 602 0083 8C020000 		.4byte	.LASF10
 603 0087 06       		.byte	0x6
 604 0088 41       		.byte	0x41
 605 0089 8D000000 		.4byte	0x8d
 606 008d 04       		.uleb128 0x4
 607 008e 04       		.byte	0x4
 608 008f 07       		.byte	0x7
 609 0090 B6070000 		.4byte	.LASF11
 610 0094 04       		.uleb128 0x4
 611 0095 08       		.byte	0x8
 612 0096 05       		.byte	0x5
 613 0097 D8020000 		.4byte	.LASF12
 614 009b 03       		.uleb128 0x3
 615 009c 22060000 		.4byte	.LASF13
 616 00a0 06       		.byte	0x6
 617 00a1 5B       		.byte	0x5b
 618 00a2 A6000000 		.4byte	0xa6
 619 00a6 04       		.uleb128 0x4
 620 00a7 08       		.byte	0x8
 621 00a8 07       		.byte	0x7
 622 00a9 F3000000 		.4byte	.LASF14
 623 00ad 03       		.uleb128 0x3
 624 00ae C4080000 		.4byte	.LASF15
 625 00b2 07       		.byte	0x7
 626 00b3 14       		.byte	0x14
 627 00b4 45000000 		.4byte	0x45
ARM GAS  /tmp/ccuVlvbs.s 			page 12


 628 00b8 03       		.uleb128 0x3
 629 00b9 AC040000 		.4byte	.LASF16
 630 00bd 07       		.byte	0x7
 631 00be 1A       		.byte	0x1a
 632 00bf 5E000000 		.4byte	0x5e
 633 00c3 03       		.uleb128 0x3
 634 00c4 D2060000 		.4byte	.LASF17
 635 00c8 07       		.byte	0x7
 636 00c9 1F       		.byte	0x1f
 637 00ca 70000000 		.4byte	0x70
 638 00ce 03       		.uleb128 0x3
 639 00cf 82070000 		.4byte	.LASF18
 640 00d3 07       		.byte	0x7
 641 00d4 20       		.byte	0x20
 642 00d5 82000000 		.4byte	0x82
 643 00d9 03       		.uleb128 0x3
 644 00da 4A000000 		.4byte	.LASF19
 645 00de 07       		.byte	0x7
 646 00df 26       		.byte	0x26
 647 00e0 9B000000 		.4byte	0x9b
 648 00e4 03       		.uleb128 0x3
 649 00e5 8A080000 		.4byte	.LASF20
 650 00e9 08       		.byte	0x8
 651 00ea 39       		.byte	0x39
 652 00eb CE000000 		.4byte	0xce
 653 00ef 03       		.uleb128 0x3
 654 00f0 56010000 		.4byte	.LASF21
 655 00f4 08       		.byte	0x8
 656 00f5 3A       		.byte	0x3a
 657 00f6 D9000000 		.4byte	0xd9
 658 00fa 03       		.uleb128 0x3
 659 00fb A4040000 		.4byte	.LASF22
 660 00ff 08       		.byte	0x8
 661 0100 3C       		.byte	0x3c
 662 0101 AD000000 		.4byte	0xad
 663 0105 03       		.uleb128 0x3
 664 0106 51020000 		.4byte	.LASF23
 665 010a 08       		.byte	0x8
 666 010b 3D       		.byte	0x3d
 667 010c AD000000 		.4byte	0xad
 668 0110 03       		.uleb128 0x3
 669 0111 3E060000 		.4byte	.LASF24
 670 0115 08       		.byte	0x8
 671 0116 3E       		.byte	0x3e
 672 0117 AD000000 		.4byte	0xad
 673 011b 03       		.uleb128 0x3
 674 011c 9C060000 		.4byte	.LASF25
 675 0120 08       		.byte	0x8
 676 0121 40       		.byte	0x40
 677 0122 CE000000 		.4byte	0xce
 678 0126 03       		.uleb128 0x3
 679 0127 7D040000 		.4byte	.LASF26
 680 012b 08       		.byte	0x8
 681 012c 41       		.byte	0x41
 682 012d C3000000 		.4byte	0xc3
 683 0131 03       		.uleb128 0x3
 684 0132 CE040000 		.4byte	.LASF27
ARM GAS  /tmp/ccuVlvbs.s 			page 13


 685 0136 08       		.byte	0x8
 686 0137 43       		.byte	0x43
 687 0138 CE000000 		.4byte	0xce
 688 013c 03       		.uleb128 0x3
 689 013d EC020000 		.4byte	.LASF28
 690 0141 08       		.byte	0x8
 691 0142 45       		.byte	0x45
 692 0143 C3000000 		.4byte	0xc3
 693 0147 03       		.uleb128 0x3
 694 0148 88040000 		.4byte	.LASF29
 695 014c 08       		.byte	0x8
 696 014d 46       		.byte	0x46
 697 014e CE000000 		.4byte	0xce
 698 0152 03       		.uleb128 0x3
 699 0153 0A080000 		.4byte	.LASF30
 700 0157 09       		.byte	0x9
 701 0158 33       		.byte	0x33
 702 0159 CE000000 		.4byte	0xce
 703 015d 03       		.uleb128 0x3
 704 015e FC070000 		.4byte	.LASF31
 705 0162 09       		.byte	0x9
 706 0163 3F       		.byte	0x3f
 707 0164 68010000 		.4byte	0x168
 708 0168 05       		.uleb128 0x5
 709 0169 63040000 		.4byte	.LASF50
 710 016d 60       		.byte	0x60
 711 016e 0A       		.byte	0xa
 712 016f 9A       		.byte	0x9a
 713 0170 53020000 		.4byte	0x253
 714 0174 06       		.uleb128 0x6
 715 0175 17040000 		.4byte	.LASF32
 716 0179 0A       		.byte	0xa
 717 017a 9B       		.byte	0x9b
 718 017b 88020000 		.4byte	0x288
 719 017f 00       		.byte	0
 720 0180 06       		.uleb128 0x6
 721 0181 0D060000 		.4byte	.LASF33
 722 0185 0A       		.byte	0xa
 723 0186 9C       		.byte	0x9c
 724 0187 1B010000 		.4byte	0x11b
 725 018b 08       		.byte	0x8
 726 018c 07       		.uleb128 0x7
 727 018d 63747800 		.ascii	"ctx\000"
 728 0191 0A       		.byte	0xa
 729 0192 9D       		.byte	0x9d
 730 0193 8C050000 		.4byte	0x58c
 731 0197 0C       		.byte	0xc
 732 0198 06       		.uleb128 0x6
 733 0199 38060000 		.4byte	.LASF34
 734 019d 0A       		.byte	0xa
 735 019e 9F       		.byte	0x9f
 736 019f 5E020000 		.4byte	0x25e
 737 01a3 10       		.byte	0x10
 738 01a4 06       		.uleb128 0x6
 739 01a5 D4070000 		.4byte	.LASF35
 740 01a9 0A       		.byte	0xa
 741 01aa A0       		.byte	0xa0
ARM GAS  /tmp/ccuVlvbs.s 			page 14


 742 01ab 5E020000 		.4byte	0x25e
 743 01af 14       		.byte	0x14
 744 01b0 06       		.uleb128 0x6
 745 01b1 78040000 		.4byte	.LASF36
 746 01b5 0A       		.byte	0xa
 747 01b6 A7       		.byte	0xa7
 748 01b7 73080000 		.4byte	0x873
 749 01bb 18       		.byte	0x18
 750 01bc 06       		.uleb128 0x6
 751 01bd C8070000 		.4byte	.LASF37
 752 01c1 0A       		.byte	0xa
 753 01c2 B0       		.byte	0xb0
 754 01c3 85080000 		.4byte	0x885
 755 01c7 1C       		.byte	0x1c
 756 01c8 06       		.uleb128 0x6
 757 01c9 42020000 		.4byte	.LASF38
 758 01cd 0A       		.byte	0xa
 759 01ce B5       		.byte	0xb5
 760 01cf 05010000 		.4byte	0x105
 761 01d3 20       		.byte	0x20
 762 01d4 06       		.uleb128 0x6
 763 01d5 D6080000 		.4byte	.LASF39
 764 01d9 0A       		.byte	0xa
 765 01da B9       		.byte	0xb9
 766 01db FA000000 		.4byte	0xfa
 767 01df 21       		.byte	0x21
 768 01e0 06       		.uleb128 0x6
 769 01e1 66060000 		.4byte	.LASF40
 770 01e5 0A       		.byte	0xa
 771 01e6 BE       		.byte	0xbe
 772 01e7 10010000 		.4byte	0x110
 773 01eb 22       		.byte	0x22
 774 01ec 08       		.uleb128 0x8
 775 01ed 7500     		.ascii	"u\000"
 776 01ef 0A       		.byte	0xa
 777 01f0 0F01     		.2byte	0x10f
 778 01f2 A8070000 		.4byte	0x7a8
 779 01f6 24       		.byte	0x24
 780 01f7 09       		.uleb128 0x9
 781 01f8 BA020000 		.4byte	.LASF41
 782 01fc 0A       		.byte	0xa
 783 01fd 1401     		.2byte	0x114
 784 01ff 64020000 		.4byte	0x264
 785 0203 28       		.byte	0x28
 786 0204 09       		.uleb128 0x9
 787 0205 2F020000 		.4byte	.LASF42
 788 0209 0A       		.byte	0xa
 789 020a 1A01     		.2byte	0x11a
 790 020c 88020000 		.4byte	0x288
 791 0210 2C       		.byte	0x2c
 792 0211 09       		.uleb128 0x9
 793 0212 8F040000 		.4byte	.LASF43
 794 0216 0A       		.byte	0xa
 795 0217 2001     		.2byte	0x120
 796 0219 31010000 		.4byte	0x131
 797 021d 34       		.byte	0x34
 798 021e 09       		.uleb128 0x9
ARM GAS  /tmp/ccuVlvbs.s 			page 15


 799 021f 3D090000 		.4byte	.LASF44
 800 0223 0A       		.byte	0xa
 801 0224 2701     		.2byte	0x127
 802 0226 6D080000 		.4byte	0x86d
 803 022a 38       		.byte	0x38
 804 022b 09       		.uleb128 0x9
 805 022c 06050000 		.4byte	.LASF45
 806 0230 0A       		.byte	0xa
 807 0231 2B01     		.2byte	0x12b
 808 0233 1B010000 		.4byte	0x11b
 809 0237 3C       		.byte	0x3c
 810 0238 09       		.uleb128 0x9
 811 0239 1D040000 		.4byte	.LASF46
 812 023d 0A       		.byte	0xa
 813 023e 3201     		.2byte	0x132
 814 0240 3B030000 		.4byte	0x33b
 815 0244 40       		.byte	0x40
 816 0245 09       		.uleb128 0x9
 817 0246 5F020000 		.4byte	.LASF47
 818 024a 0A       		.byte	0xa
 819 024b 3801     		.2byte	0x138
 820 024d 59070000 		.4byte	0x759
 821 0251 48       		.byte	0x48
 822 0252 00       		.byte	0
 823 0253 03       		.uleb128 0x3
 824 0254 43050000 		.4byte	.LASF48
 825 0258 09       		.byte	0x9
 826 0259 44       		.byte	0x44
 827 025a 5E020000 		.4byte	0x25e
 828 025e 0A       		.uleb128 0xa
 829 025f 04       		.byte	0x4
 830 0260 5D010000 		.4byte	0x15d
 831 0264 03       		.uleb128 0x3
 832 0265 FB080000 		.4byte	.LASF49
 833 0269 09       		.byte	0x9
 834 026a 49       		.byte	0x49
 835 026b 6F020000 		.4byte	0x26f
 836 026f 05       		.uleb128 0x5
 837 0270 92070000 		.4byte	.LASF51
 838 0274 04       		.byte	0x4
 839 0275 0A       		.byte	0xa
 840 0276 88       		.byte	0x88
 841 0277 88020000 		.4byte	0x288
 842 027b 06       		.uleb128 0x6
 843 027c 51010000 		.4byte	.LASF52
 844 0280 0A       		.byte	0xa
 845 0281 89       		.byte	0x89
 846 0282 5E020000 		.4byte	0x25e
 847 0286 00       		.byte	0
 848 0287 00       		.byte	0
 849 0288 03       		.uleb128 0x3
 850 0289 A1080000 		.4byte	.LASF53
 851 028d 09       		.byte	0x9
 852 028e 50       		.byte	0x50
 853 028f 93020000 		.4byte	0x293
 854 0293 05       		.uleb128 0x5
 855 0294 84000000 		.4byte	.LASF54
ARM GAS  /tmp/ccuVlvbs.s 			page 16


 856 0298 08       		.byte	0x8
 857 0299 0A       		.byte	0xa
 858 029a 8F       		.byte	0x8f
 859 029b B8020000 		.4byte	0x2b8
 860 029f 06       		.uleb128 0x6
 861 02a0 51010000 		.4byte	.LASF52
 862 02a4 0A       		.byte	0xa
 863 02a5 90       		.byte	0x90
 864 02a6 5E020000 		.4byte	0x25e
 865 02aa 00       		.byte	0
 866 02ab 06       		.uleb128 0x6
 867 02ac 73000000 		.4byte	.LASF55
 868 02b0 0A       		.byte	0xa
 869 02b1 91       		.byte	0x91
 870 02b2 5E020000 		.4byte	0x25e
 871 02b6 04       		.byte	0x4
 872 02b7 00       		.byte	0
 873 02b8 03       		.uleb128 0x3
 874 02b9 24000000 		.4byte	.LASF56
 875 02bd 09       		.byte	0x9
 876 02be 57       		.byte	0x57
 877 02bf C3020000 		.4byte	0x2c3
 878 02c3 0B       		.uleb128 0xb
 879 02c4 C0040000 		.4byte	.LASF57
 880 02c8 1C       		.byte	0x1c
 881 02c9 0A       		.byte	0xa
 882 02ca 6A01     		.2byte	0x16a
 883 02cc 1F030000 		.4byte	0x31f
 884 02d0 09       		.uleb128 0x9
 885 02d1 17040000 		.4byte	.LASF32
 886 02d5 0A       		.byte	0xa
 887 02d6 6B01     		.2byte	0x16b
 888 02d8 88020000 		.4byte	0x288
 889 02dc 00       		.byte	0
 890 02dd 09       		.uleb128 0x9
 891 02de 0D060000 		.4byte	.LASF33
 892 02e2 0A       		.byte	0xa
 893 02e3 6C01     		.2byte	0x16c
 894 02e5 1B010000 		.4byte	0x11b
 895 02e9 08       		.byte	0x8
 896 02ea 08       		.uleb128 0x8
 897 02eb 63747800 		.ascii	"ctx\000"
 898 02ef 0A       		.byte	0xa
 899 02f0 6E01     		.2byte	0x16e
 900 02f2 8C050000 		.4byte	0x58c
 901 02f6 0C       		.byte	0xc
 902 02f7 09       		.uleb128 0x9
 903 02f8 38060000 		.4byte	.LASF34
 904 02fc 0A       		.byte	0xa
 905 02fd 7101     		.2byte	0x171
 906 02ff 5E020000 		.4byte	0x25e
 907 0303 10       		.byte	0x10
 908 0304 09       		.uleb128 0x9
 909 0305 D4070000 		.4byte	.LASF35
 910 0309 0A       		.byte	0xa
 911 030a 7201     		.2byte	0x172
 912 030c 5E020000 		.4byte	0x25e
ARM GAS  /tmp/ccuVlvbs.s 			page 17


 913 0310 14       		.byte	0x14
 914 0311 09       		.uleb128 0x9
 915 0312 1A060000 		.4byte	.LASF58
 916 0316 0A       		.byte	0xa
 917 0317 7501     		.2byte	0x175
 918 0319 5E020000 		.4byte	0x25e
 919 031d 18       		.byte	0x18
 920 031e 00       		.byte	0
 921 031f 03       		.uleb128 0x3
 922 0320 14080000 		.4byte	.LASF59
 923 0324 09       		.byte	0x9
 924 0325 5C       		.byte	0x5c
 925 0326 2A030000 		.4byte	0x32a
 926 032a 0A       		.uleb128 0xa
 927 032b 04       		.byte	0x4
 928 032c 30030000 		.4byte	0x330
 929 0330 0C       		.uleb128 0xc
 930 0331 3B030000 		.4byte	0x33b
 931 0335 0D       		.uleb128 0xd
 932 0336 3B030000 		.4byte	0x33b
 933 033a 00       		.byte	0
 934 033b 0E       		.uleb128 0xe
 935 033c 04       		.byte	0x4
 936 033d 03       		.uleb128 0x3
 937 033e 6B060000 		.4byte	.LASF60
 938 0342 09       		.byte	0x9
 939 0343 61       		.byte	0x61
 940 0344 48030000 		.4byte	0x348
 941 0348 0B       		.uleb128 0xb
 942 0349 79080000 		.4byte	.LASF61
 943 034d 14       		.byte	0x14
 944 034e 0A       		.byte	0xa
 945 034f 4501     		.2byte	0x145
 946 0351 97030000 		.4byte	0x397
 947 0355 09       		.uleb128 0x9
 948 0356 51010000 		.4byte	.LASF52
 949 035a 0A       		.byte	0xa
 950 035b 4601     		.2byte	0x146
 951 035d 8B080000 		.4byte	0x88b
 952 0361 00       		.byte	0
 953 0362 09       		.uleb128 0x9
 954 0363 73000000 		.4byte	.LASF55
 955 0367 0A       		.byte	0xa
 956 0368 4701     		.2byte	0x147
 957 036a 8B080000 		.4byte	0x88b
 958 036e 04       		.byte	0x4
 959 036f 09       		.uleb128 0x9
 960 0370 3D000000 		.4byte	.LASF62
 961 0374 0A       		.byte	0xa
 962 0375 4801     		.2byte	0x148
 963 0377 52010000 		.4byte	0x152
 964 037b 08       		.byte	0x8
 965 037c 09       		.uleb128 0x9
 966 037d 5A020000 		.4byte	.LASF63
 967 0381 0A       		.byte	0xa
 968 0382 4901     		.2byte	0x149
 969 0384 1F030000 		.4byte	0x31f
ARM GAS  /tmp/ccuVlvbs.s 			page 18


 970 0388 0C       		.byte	0xc
 971 0389 08       		.uleb128 0x8
 972 038a 70617200 		.ascii	"par\000"
 973 038e 0A       		.byte	0xa
 974 038f 4B01     		.2byte	0x14b
 975 0391 3B030000 		.4byte	0x33b
 976 0395 10       		.byte	0x10
 977 0396 00       		.byte	0
 978 0397 03       		.uleb128 0x3
 979 0398 29010000 		.4byte	.LASF64
 980 039c 09       		.byte	0x9
 981 039d 66       		.byte	0x66
 982 039e A2030000 		.4byte	0x3a2
 983 03a2 0B       		.uleb128 0xb
 984 03a3 56050000 		.4byte	.LASF65
 985 03a7 10       		.byte	0x10
 986 03a8 0A       		.byte	0xa
 987 03a9 5501     		.2byte	0x155
 988 03ab E4030000 		.4byte	0x3e4
 989 03af 09       		.uleb128 0x9
 990 03b0 51010000 		.4byte	.LASF52
 991 03b4 0A       		.byte	0xa
 992 03b5 5601     		.2byte	0x156
 993 03b7 8B080000 		.4byte	0x88b
 994 03bb 00       		.byte	0
 995 03bc 09       		.uleb128 0x9
 996 03bd 73000000 		.4byte	.LASF55
 997 03c1 0A       		.byte	0xa
 998 03c2 5801     		.2byte	0x158
 999 03c4 8B080000 		.4byte	0x88b
 1000 03c8 04       		.byte	0x4
 1001 03c9 09       		.uleb128 0x9
 1002 03ca 3D000000 		.4byte	.LASF62
 1003 03ce 0A       		.byte	0xa
 1004 03cf 5A01     		.2byte	0x15a
 1005 03d1 52010000 		.4byte	0x152
 1006 03d5 08       		.byte	0x8
 1007 03d6 09       		.uleb128 0x9
 1008 03d7 FB060000 		.4byte	.LASF66
 1009 03db 0A       		.byte	0xa
 1010 03dc 6201     		.2byte	0x162
 1011 03de 52010000 		.4byte	0x152
 1012 03e2 0C       		.byte	0xc
 1013 03e3 00       		.byte	0
 1014 03e4 03       		.uleb128 0x3
 1015 03e5 95000000 		.4byte	.LASF67
 1016 03e9 09       		.byte	0x9
 1017 03ea 6B       		.byte	0x6b
 1018 03eb EF030000 		.4byte	0x3ef
 1019 03ef 0B       		.uleb128 0xb
 1020 03f0 AA020000 		.4byte	.LASF68
 1021 03f4 04       		.byte	0x4
 1022 03f5 0A       		.byte	0xa
 1023 03f6 7C01     		.2byte	0x17c
 1024 03f8 0A040000 		.4byte	0x40a
 1025 03fc 09       		.uleb128 0x9
 1026 03fd 3E080000 		.4byte	.LASF69
ARM GAS  /tmp/ccuVlvbs.s 			page 19


 1027 0401 0A       		.byte	0xa
 1028 0402 8401     		.2byte	0x184
 1029 0404 91080000 		.4byte	0x891
 1030 0408 00       		.byte	0
 1031 0409 00       		.byte	0
 1032 040a 03       		.uleb128 0x3
 1033 040b 98040000 		.4byte	.LASF70
 1034 040f 09       		.byte	0x9
 1035 0410 70       		.byte	0x70
 1036 0411 15040000 		.4byte	0x415
 1037 0415 0B       		.uleb128 0xb
 1038 0416 18070000 		.4byte	.LASF71
 1039 041a D0       		.byte	0xd0
 1040 041b 0A       		.byte	0xa
 1041 041c 9C01     		.2byte	0x19c
 1042 041e 70040000 		.4byte	0x470
 1043 0422 09       		.uleb128 0x9
 1044 0423 BE080000 		.4byte	.LASF72
 1045 0427 0A       		.byte	0xa
 1046 0428 A001     		.2byte	0x1a0
 1047 042a B8020000 		.4byte	0x2b8
 1048 042e 00       		.byte	0
 1049 042f 09       		.uleb128 0x9
 1050 0430 ED010000 		.4byte	.LASF73
 1051 0434 0A       		.byte	0xa
 1052 0435 A401     		.2byte	0x1a4
 1053 0437 97030000 		.4byte	0x397
 1054 043b 1C       		.byte	0x1c
 1055 043c 08       		.uleb128 0x8
 1056 043d 64626700 		.ascii	"dbg\000"
 1057 0441 0A       		.byte	0xa
 1058 0442 A801     		.2byte	0x1a8
 1059 0444 E4030000 		.4byte	0x3e4
 1060 0448 2C       		.byte	0x2c
 1061 0449 09       		.uleb128 0x9
 1062 044a 6D040000 		.4byte	.LASF74
 1063 044e 0A       		.byte	0xa
 1064 044f AC01     		.2byte	0x1ac
 1065 0451 5D010000 		.4byte	0x15d
 1066 0455 30       		.byte	0x30
 1067 0456 08       		.uleb128 0x8
 1068 0457 746D00   		.ascii	"tm\000"
 1069 045a 0A       		.byte	0xa
 1070 045b B101     		.2byte	0x1b1
 1071 045d 0B070000 		.4byte	0x70b
 1072 0461 90       		.byte	0x90
 1073 0462 09       		.uleb128 0x9
 1074 0463 53000000 		.4byte	.LASF75
 1075 0467 0A       		.byte	0xa
 1076 0468 B701     		.2byte	0x1b7
 1077 046a 9D070000 		.4byte	0x79d
 1078 046e 98       		.byte	0x98
 1079 046f 00       		.byte	0
 1080 0470 04       		.uleb128 0x4
 1081 0471 04       		.byte	0x4
 1082 0472 07       		.byte	0x7
 1083 0473 3A050000 		.4byte	.LASF76
ARM GAS  /tmp/ccuVlvbs.s 			page 20


 1084 0477 0F       		.uleb128 0xf
 1085 0478 CE000000 		.4byte	0xce
 1086 047c 10       		.uleb128 0x10
 1087 047d 18       		.byte	0x18
 1088 047e 0B       		.byte	0xb
 1089 047f 6B01     		.2byte	0x16b
 1090 0481 D3040000 		.4byte	0x4d3
 1091 0485 08       		.uleb128 0x8
 1092 0486 435200   		.ascii	"CR\000"
 1093 0489 0B       		.byte	0xb
 1094 048a 6D01     		.2byte	0x16d
 1095 048c 77040000 		.4byte	0x477
 1096 0490 00       		.byte	0
 1097 0491 09       		.uleb128 0x9
 1098 0492 39080000 		.4byte	.LASF77
 1099 0496 0B       		.byte	0xb
 1100 0497 6E01     		.2byte	0x16e
 1101 0499 77040000 		.4byte	0x477
 1102 049d 04       		.byte	0x4
 1103 049e 08       		.uleb128 0x8
 1104 049f 50415200 		.ascii	"PAR\000"
 1105 04a3 0B       		.byte	0xb
 1106 04a4 6F01     		.2byte	0x16f
 1107 04a6 77040000 		.4byte	0x477
 1108 04aa 08       		.byte	0x8
 1109 04ab 09       		.uleb128 0x9
 1110 04ac 31000000 		.4byte	.LASF78
 1111 04b0 0B       		.byte	0xb
 1112 04b1 7001     		.2byte	0x170
 1113 04b3 77040000 		.4byte	0x477
 1114 04b7 0C       		.byte	0xc
 1115 04b8 09       		.uleb128 0x9
 1116 04b9 92080000 		.4byte	.LASF79
 1117 04bd 0B       		.byte	0xb
 1118 04be 7101     		.2byte	0x171
 1119 04c0 77040000 		.4byte	0x477
 1120 04c4 10       		.byte	0x10
 1121 04c5 08       		.uleb128 0x8
 1122 04c6 46435200 		.ascii	"FCR\000"
 1123 04ca 0B       		.byte	0xb
 1124 04cb 7201     		.2byte	0x172
 1125 04cd 77040000 		.4byte	0x477
 1126 04d1 14       		.byte	0x14
 1127 04d2 00       		.byte	0
 1128 04d3 11       		.uleb128 0x11
 1129 04d4 4F080000 		.4byte	.LASF80
 1130 04d8 0B       		.byte	0xb
 1131 04d9 7301     		.2byte	0x173
 1132 04db 7C040000 		.4byte	0x47c
 1133 04df 10       		.uleb128 0x10
 1134 04e0 28       		.byte	0x28
 1135 04e1 0B       		.byte	0xb
 1136 04e2 3E02     		.2byte	0x23e
 1137 04e4 6A050000 		.4byte	0x56a
 1138 04e8 08       		.uleb128 0x8
 1139 04e9 43523100 		.ascii	"CR1\000"
 1140 04ed 0B       		.byte	0xb
ARM GAS  /tmp/ccuVlvbs.s 			page 21


 1141 04ee 4002     		.2byte	0x240
 1142 04f0 77040000 		.4byte	0x477
 1143 04f4 00       		.byte	0
 1144 04f5 08       		.uleb128 0x8
 1145 04f6 43523200 		.ascii	"CR2\000"
 1146 04fa 0B       		.byte	0xb
 1147 04fb 4102     		.2byte	0x241
 1148 04fd 77040000 		.4byte	0x477
 1149 0501 04       		.byte	0x4
 1150 0502 09       		.uleb128 0x9
 1151 0503 CC080000 		.4byte	.LASF81
 1152 0507 0B       		.byte	0xb
 1153 0508 4202     		.2byte	0x242
 1154 050a 77040000 		.4byte	0x477
 1155 050e 08       		.byte	0x8
 1156 050f 09       		.uleb128 0x9
 1157 0510 D1080000 		.4byte	.LASF82
 1158 0514 0B       		.byte	0xb
 1159 0515 4302     		.2byte	0x243
 1160 0517 77040000 		.4byte	0x477
 1161 051b 0C       		.byte	0xc
 1162 051c 08       		.uleb128 0x8
 1163 051d 445200   		.ascii	"DR\000"
 1164 0520 0B       		.byte	0xb
 1165 0521 4402     		.2byte	0x244
 1166 0523 77040000 		.4byte	0x477
 1167 0527 10       		.byte	0x10
 1168 0528 08       		.uleb128 0x8
 1169 0529 53523100 		.ascii	"SR1\000"
 1170 052d 0B       		.byte	0xb
 1171 052e 4502     		.2byte	0x245
 1172 0530 77040000 		.4byte	0x477
 1173 0534 14       		.byte	0x14
 1174 0535 08       		.uleb128 0x8
 1175 0536 53523200 		.ascii	"SR2\000"
 1176 053a 0B       		.byte	0xb
 1177 053b 4602     		.2byte	0x246
 1178 053d 77040000 		.4byte	0x477
 1179 0541 18       		.byte	0x18
 1180 0542 08       		.uleb128 0x8
 1181 0543 43435200 		.ascii	"CCR\000"
 1182 0547 0B       		.byte	0xb
 1183 0548 4702     		.2byte	0x247
 1184 054a 77040000 		.4byte	0x477
 1185 054e 1C       		.byte	0x1c
 1186 054f 09       		.uleb128 0x9
 1187 0550 C3000000 		.4byte	.LASF83
 1188 0554 0B       		.byte	0xb
 1189 0555 4802     		.2byte	0x248
 1190 0557 77040000 		.4byte	0x477
 1191 055b 20       		.byte	0x20
 1192 055c 09       		.uleb128 0x9
 1193 055d 65020000 		.4byte	.LASF84
 1194 0561 0B       		.byte	0xb
 1195 0562 4902     		.2byte	0x249
 1196 0564 77040000 		.4byte	0x477
 1197 0568 24       		.byte	0x24
ARM GAS  /tmp/ccuVlvbs.s 			page 22


 1198 0569 00       		.byte	0
 1199 056a 11       		.uleb128 0x11
 1200 056b 1E090000 		.4byte	.LASF85
 1201 056f 0B       		.byte	0xb
 1202 0570 4A02     		.2byte	0x24a
 1203 0572 DF040000 		.4byte	0x4df
 1204 0576 03       		.uleb128 0x3
 1205 0577 97020000 		.4byte	.LASF86
 1206 057b 0C       		.byte	0xc
 1207 057c 65       		.byte	0x65
 1208 057d 3B030000 		.4byte	0x33b
 1209 0581 03       		.uleb128 0x3
 1210 0582 EE040000 		.4byte	.LASF87
 1211 0586 0C       		.byte	0xc
 1212 0587 6D       		.byte	0x6d
 1213 0588 D9000000 		.4byte	0xd9
 1214 058c 05       		.uleb128 0x5
 1215 058d E4050000 		.4byte	.LASF88
 1216 0591 04       		.byte	0x4
 1217 0592 0C       		.byte	0xc
 1218 0593 89       		.byte	0x89
 1219 0594 A4050000 		.4byte	0x5a4
 1220 0598 07       		.uleb128 0x7
 1221 0599 737000   		.ascii	"sp\000"
 1222 059c 0C       		.byte	0xc
 1223 059d 8A       		.byte	0x8a
 1224 059e F0060000 		.4byte	0x6f0
 1225 05a2 00       		.byte	0
 1226 05a3 00       		.byte	0
 1227 05a4 0B       		.uleb128 0xb
 1228 05a5 78000000 		.4byte	.LASF89
 1229 05a9 64       		.byte	0x64
 1230 05aa 0D       		.byte	0xd
 1231 05ab 5901     		.2byte	0x159
 1232 05ad F0060000 		.4byte	0x6f0
 1233 05b1 08       		.uleb128 0x8
 1234 05b2 73313600 		.ascii	"s16\000"
 1235 05b6 0D       		.byte	0xd
 1236 05b7 5B01     		.2byte	0x15b
 1237 05b9 76050000 		.4byte	0x576
 1238 05bd 00       		.byte	0
 1239 05be 08       		.uleb128 0x8
 1240 05bf 73313700 		.ascii	"s17\000"
 1241 05c3 0D       		.byte	0xd
 1242 05c4 5C01     		.2byte	0x15c
 1243 05c6 76050000 		.4byte	0x576
 1244 05ca 04       		.byte	0x4
 1245 05cb 08       		.uleb128 0x8
 1246 05cc 73313800 		.ascii	"s18\000"
 1247 05d0 0D       		.byte	0xd
 1248 05d1 5D01     		.2byte	0x15d
 1249 05d3 76050000 		.4byte	0x576
 1250 05d7 08       		.byte	0x8
 1251 05d8 08       		.uleb128 0x8
 1252 05d9 73313900 		.ascii	"s19\000"
 1253 05dd 0D       		.byte	0xd
 1254 05de 5E01     		.2byte	0x15e
ARM GAS  /tmp/ccuVlvbs.s 			page 23


 1255 05e0 76050000 		.4byte	0x576
 1256 05e4 0C       		.byte	0xc
 1257 05e5 08       		.uleb128 0x8
 1258 05e6 73323000 		.ascii	"s20\000"
 1259 05ea 0D       		.byte	0xd
 1260 05eb 5F01     		.2byte	0x15f
 1261 05ed 76050000 		.4byte	0x576
 1262 05f1 10       		.byte	0x10
 1263 05f2 08       		.uleb128 0x8
 1264 05f3 73323100 		.ascii	"s21\000"
 1265 05f7 0D       		.byte	0xd
 1266 05f8 6001     		.2byte	0x160
 1267 05fa 76050000 		.4byte	0x576
 1268 05fe 14       		.byte	0x14
 1269 05ff 08       		.uleb128 0x8
 1270 0600 73323200 		.ascii	"s22\000"
 1271 0604 0D       		.byte	0xd
 1272 0605 6101     		.2byte	0x161
 1273 0607 76050000 		.4byte	0x576
 1274 060b 18       		.byte	0x18
 1275 060c 08       		.uleb128 0x8
 1276 060d 73323300 		.ascii	"s23\000"
 1277 0611 0D       		.byte	0xd
 1278 0612 6201     		.2byte	0x162
 1279 0614 76050000 		.4byte	0x576
 1280 0618 1C       		.byte	0x1c
 1281 0619 08       		.uleb128 0x8
 1282 061a 73323400 		.ascii	"s24\000"
 1283 061e 0D       		.byte	0xd
 1284 061f 6301     		.2byte	0x163
 1285 0621 76050000 		.4byte	0x576
 1286 0625 20       		.byte	0x20
 1287 0626 08       		.uleb128 0x8
 1288 0627 73323500 		.ascii	"s25\000"
 1289 062b 0D       		.byte	0xd
 1290 062c 6401     		.2byte	0x164
 1291 062e 76050000 		.4byte	0x576
 1292 0632 24       		.byte	0x24
 1293 0633 08       		.uleb128 0x8
 1294 0634 73323600 		.ascii	"s26\000"
 1295 0638 0D       		.byte	0xd
 1296 0639 6501     		.2byte	0x165
 1297 063b 76050000 		.4byte	0x576
 1298 063f 28       		.byte	0x28
 1299 0640 08       		.uleb128 0x8
 1300 0641 73323700 		.ascii	"s27\000"
 1301 0645 0D       		.byte	0xd
 1302 0646 6601     		.2byte	0x166
 1303 0648 76050000 		.4byte	0x576
 1304 064c 2C       		.byte	0x2c
 1305 064d 08       		.uleb128 0x8
 1306 064e 73323800 		.ascii	"s28\000"
 1307 0652 0D       		.byte	0xd
 1308 0653 6701     		.2byte	0x167
 1309 0655 76050000 		.4byte	0x576
 1310 0659 30       		.byte	0x30
 1311 065a 08       		.uleb128 0x8
ARM GAS  /tmp/ccuVlvbs.s 			page 24


 1312 065b 73323900 		.ascii	"s29\000"
 1313 065f 0D       		.byte	0xd
 1314 0660 6801     		.2byte	0x168
 1315 0662 76050000 		.4byte	0x576
 1316 0666 34       		.byte	0x34
 1317 0667 08       		.uleb128 0x8
 1318 0668 73333000 		.ascii	"s30\000"
 1319 066c 0D       		.byte	0xd
 1320 066d 6901     		.2byte	0x169
 1321 066f 76050000 		.4byte	0x576
 1322 0673 38       		.byte	0x38
 1323 0674 08       		.uleb128 0x8
 1324 0675 73333100 		.ascii	"s31\000"
 1325 0679 0D       		.byte	0xd
 1326 067a 6A01     		.2byte	0x16a
 1327 067c 76050000 		.4byte	0x576
 1328 0680 3C       		.byte	0x3c
 1329 0681 08       		.uleb128 0x8
 1330 0682 723400   		.ascii	"r4\000"
 1331 0685 0D       		.byte	0xd
 1332 0686 6C01     		.2byte	0x16c
 1333 0688 76050000 		.4byte	0x576
 1334 068c 40       		.byte	0x40
 1335 068d 08       		.uleb128 0x8
 1336 068e 723500   		.ascii	"r5\000"
 1337 0691 0D       		.byte	0xd
 1338 0692 6D01     		.2byte	0x16d
 1339 0694 76050000 		.4byte	0x576
 1340 0698 44       		.byte	0x44
 1341 0699 08       		.uleb128 0x8
 1342 069a 723600   		.ascii	"r6\000"
 1343 069d 0D       		.byte	0xd
 1344 069e 6E01     		.2byte	0x16e
 1345 06a0 76050000 		.4byte	0x576
 1346 06a4 48       		.byte	0x48
 1347 06a5 08       		.uleb128 0x8
 1348 06a6 723700   		.ascii	"r7\000"
 1349 06a9 0D       		.byte	0xd
 1350 06aa 6F01     		.2byte	0x16f
 1351 06ac 76050000 		.4byte	0x576
 1352 06b0 4C       		.byte	0x4c
 1353 06b1 08       		.uleb128 0x8
 1354 06b2 723800   		.ascii	"r8\000"
 1355 06b5 0D       		.byte	0xd
 1356 06b6 7001     		.2byte	0x170
 1357 06b8 76050000 		.4byte	0x576
 1358 06bc 50       		.byte	0x50
 1359 06bd 08       		.uleb128 0x8
 1360 06be 723900   		.ascii	"r9\000"
 1361 06c1 0D       		.byte	0xd
 1362 06c2 7101     		.2byte	0x171
 1363 06c4 76050000 		.4byte	0x576
 1364 06c8 54       		.byte	0x54
 1365 06c9 08       		.uleb128 0x8
 1366 06ca 72313000 		.ascii	"r10\000"
 1367 06ce 0D       		.byte	0xd
 1368 06cf 7201     		.2byte	0x172
ARM GAS  /tmp/ccuVlvbs.s 			page 25


 1369 06d1 76050000 		.4byte	0x576
 1370 06d5 58       		.byte	0x58
 1371 06d6 08       		.uleb128 0x8
 1372 06d7 72313100 		.ascii	"r11\000"
 1373 06db 0D       		.byte	0xd
 1374 06dc 7301     		.2byte	0x173
 1375 06de 76050000 		.4byte	0x576
 1376 06e2 5C       		.byte	0x5c
 1377 06e3 08       		.uleb128 0x8
 1378 06e4 6C7200   		.ascii	"lr\000"
 1379 06e7 0D       		.byte	0xd
 1380 06e8 7401     		.2byte	0x174
 1381 06ea 76050000 		.4byte	0x576
 1382 06ee 60       		.byte	0x60
 1383 06ef 00       		.byte	0
 1384 06f0 0A       		.uleb128 0xa
 1385 06f1 04       		.byte	0x4
 1386 06f2 A4050000 		.4byte	0x5a4
 1387 06f6 12       		.uleb128 0x12
 1388 06f7 04       		.byte	0x4
 1389 06f8 0E       		.byte	0xe
 1390 06f9 38       		.byte	0x38
 1391 06fa 0B070000 		.4byte	0x70b
 1392 06fe 06       		.uleb128 0x6
 1393 06ff 48080000 		.4byte	.LASF90
 1394 0703 0E       		.byte	0xe
 1395 0704 3C       		.byte	0x3c
 1396 0705 E4000000 		.4byte	0xe4
 1397 0709 00       		.byte	0
 1398 070a 00       		.byte	0
 1399 070b 03       		.uleb128 0x3
 1400 070c F1050000 		.4byte	.LASF91
 1401 0710 0E       		.byte	0xe
 1402 0711 3D       		.byte	0x3d
 1403 0712 F6060000 		.4byte	0x6f6
 1404 0716 12       		.uleb128 0x12
 1405 0717 18       		.byte	0x18
 1406 0718 0E       		.byte	0xe
 1407 0719 48       		.byte	0x48
 1408 071a 59070000 		.4byte	0x759
 1409 071e 06       		.uleb128 0x6
 1410 071f 05080000 		.4byte	.LASF92
 1411 0723 0E       		.byte	0xe
 1412 0724 49       		.byte	0x49
 1413 0725 E4000000 		.4byte	0xe4
 1414 0729 00       		.byte	0
 1415 072a 06       		.uleb128 0x6
 1416 072b DA000000 		.4byte	.LASF93
 1417 072f 0E       		.byte	0xe
 1418 0730 4A       		.byte	0x4a
 1419 0731 E4000000 		.4byte	0xe4
 1420 0735 04       		.byte	0x4
 1421 0736 06       		.uleb128 0x6
 1422 0737 83040000 		.4byte	.LASF94
 1423 073b 0E       		.byte	0xe
 1424 073c 4B       		.byte	0x4b
 1425 073d E4000000 		.4byte	0xe4
ARM GAS  /tmp/ccuVlvbs.s 			page 26


 1426 0741 08       		.byte	0x8
 1427 0742 07       		.uleb128 0x7
 1428 0743 6E00     		.ascii	"n\000"
 1429 0745 0E       		.byte	0xe
 1430 0746 4C       		.byte	0x4c
 1431 0747 47010000 		.4byte	0x147
 1432 074b 0C       		.byte	0xc
 1433 074c 06       		.uleb128 0x6
 1434 074d 2D060000 		.4byte	.LASF95
 1435 0751 0E       		.byte	0xe
 1436 0752 4D       		.byte	0x4d
 1437 0753 EF000000 		.4byte	0xef
 1438 0757 10       		.byte	0x10
 1439 0758 00       		.byte	0
 1440 0759 03       		.uleb128 0x3
 1441 075a E0000000 		.4byte	.LASF96
 1442 075e 0E       		.byte	0xe
 1443 075f 4E       		.byte	0x4e
 1444 0760 16070000 		.4byte	0x716
 1445 0764 12       		.uleb128 0x12
 1446 0765 38       		.byte	0x38
 1447 0766 0F       		.byte	0xf
 1448 0767 38       		.byte	0x38
 1449 0768 9D070000 		.4byte	0x79d
 1450 076c 06       		.uleb128 0x6
 1451 076d 57090000 		.4byte	.LASF97
 1452 0771 0F       		.byte	0xf
 1453 0772 39       		.byte	0x39
 1454 0773 47010000 		.4byte	0x147
 1455 0777 00       		.byte	0
 1456 0778 06       		.uleb128 0x6
 1457 0779 C3060000 		.4byte	.LASF98
 1458 077d 0F       		.byte	0xf
 1459 077e 3A       		.byte	0x3a
 1460 077f 47010000 		.4byte	0x147
 1461 0783 04       		.byte	0x4
 1462 0784 06       		.uleb128 0x6
 1463 0785 45090000 		.4byte	.LASF99
 1464 0789 0F       		.byte	0xf
 1465 078a 3B       		.byte	0x3b
 1466 078b 59070000 		.4byte	0x759
 1467 078f 08       		.byte	0x8
 1468 0790 06       		.uleb128 0x6
 1469 0791 B5040000 		.4byte	.LASF100
 1470 0795 0F       		.byte	0xf
 1471 0796 3D       		.byte	0x3d
 1472 0797 59070000 		.4byte	0x759
 1473 079b 20       		.byte	0x20
 1474 079c 00       		.byte	0
 1475 079d 03       		.uleb128 0x3
 1476 079e 4A040000 		.4byte	.LASF101
 1477 07a2 0F       		.byte	0xf
 1478 07a3 3F       		.byte	0x3f
 1479 07a4 64070000 		.4byte	0x764
 1480 07a8 13       		.uleb128 0x13
 1481 07a9 04       		.byte	0x4
 1482 07aa 0A       		.byte	0xa
ARM GAS  /tmp/ccuVlvbs.s 			page 27


 1483 07ab D2       		.byte	0xd2
 1484 07ac 0B080000 		.4byte	0x80b
 1485 07b0 14       		.uleb128 0x14
 1486 07b1 43000000 		.4byte	.LASF102
 1487 07b5 0A       		.byte	0xa
 1488 07b6 D9       		.byte	0xd9
 1489 07b7 26010000 		.4byte	0x126
 1490 07bb 14       		.uleb128 0x14
 1491 07bc 0A010000 		.4byte	.LASF103
 1492 07c0 0A       		.byte	0xa
 1493 07c1 E0       		.byte	0xe0
 1494 07c2 26010000 		.4byte	0x126
 1495 07c6 14       		.uleb128 0x14
 1496 07c7 F4080000 		.4byte	.LASF104
 1497 07cb 0A       		.byte	0xa
 1498 07cc E7       		.byte	0xe7
 1499 07cd 3B030000 		.4byte	0x33b
 1500 07d1 14       		.uleb128 0x14
 1501 07d2 02040000 		.4byte	.LASF105
 1502 07d6 0A       		.byte	0xa
 1503 07d7 EE       		.byte	0xee
 1504 07d8 0B080000 		.4byte	0x80b
 1505 07dc 14       		.uleb128 0x14
 1506 07dd 21010000 		.4byte	.LASF106
 1507 07e1 0A       		.byte	0xa
 1508 07e2 F3       		.byte	0xf3
 1509 07e3 26010000 		.4byte	0x126
 1510 07e7 14       		.uleb128 0x14
 1511 07e8 F4030000 		.4byte	.LASF107
 1512 07ec 0A       		.byte	0xa
 1513 07ed FC       		.byte	0xfc
 1514 07ee 36080000 		.4byte	0x836
 1515 07f2 15       		.uleb128 0x15
 1516 07f3 8B070000 		.4byte	.LASF108
 1517 07f7 0A       		.byte	0xa
 1518 07f8 0501     		.2byte	0x105
 1519 07fa 6D080000 		.4byte	0x86d
 1520 07fe 15       		.uleb128 0x15
 1521 07ff 11070000 		.4byte	.LASF109
 1522 0803 0A       		.byte	0xa
 1523 0804 0D01     		.2byte	0x10d
 1524 0806 31010000 		.4byte	0x131
 1525 080a 00       		.byte	0
 1526 080b 0A       		.uleb128 0xa
 1527 080c 04       		.byte	0x4
 1528 080d 53020000 		.4byte	0x253
 1529 0811 05       		.uleb128 0x5
 1530 0812 70070000 		.4byte	.LASF110
 1531 0816 0C       		.byte	0xc
 1532 0817 10       		.byte	0x10
 1533 0818 34       		.byte	0x34
 1534 0819 36080000 		.4byte	0x836
 1535 081d 06       		.uleb128 0x6
 1536 081e 17040000 		.4byte	.LASF32
 1537 0822 10       		.byte	0x10
 1538 0823 35       		.byte	0x35
 1539 0824 88020000 		.4byte	0x288
ARM GAS  /tmp/ccuVlvbs.s 			page 28


 1540 0828 00       		.byte	0
 1541 0829 07       		.uleb128 0x7
 1542 082a 636E7400 		.ascii	"cnt\000"
 1543 082e 10       		.byte	0x10
 1544 082f 37       		.byte	0x37
 1545 0830 3C010000 		.4byte	0x13c
 1546 0834 08       		.byte	0x8
 1547 0835 00       		.byte	0
 1548 0836 0A       		.uleb128 0xa
 1549 0837 04       		.byte	0x4
 1550 0838 11080000 		.4byte	0x811
 1551 083c 05       		.uleb128 0x5
 1552 083d 62080000 		.4byte	.LASF111
 1553 0841 10       		.byte	0x10
 1554 0842 11       		.byte	0x11
 1555 0843 39       		.byte	0x39
 1556 0844 6D080000 		.4byte	0x86d
 1557 0848 06       		.uleb128 0x6
 1558 0849 17040000 		.4byte	.LASF32
 1559 084d 11       		.byte	0x11
 1560 084e 3A       		.byte	0x3a
 1561 084f 88020000 		.4byte	0x288
 1562 0853 00       		.byte	0
 1563 0854 06       		.uleb128 0x6
 1564 0855 A2070000 		.4byte	.LASF112
 1565 0859 11       		.byte	0x11
 1566 085a 3C       		.byte	0x3c
 1567 085b 5E020000 		.4byte	0x25e
 1568 085f 08       		.byte	0x8
 1569 0860 06       		.uleb128 0x6
 1570 0861 51010000 		.4byte	.LASF52
 1571 0865 11       		.byte	0x11
 1572 0866 3E       		.byte	0x3e
 1573 0867 A1080000 		.4byte	0x8a1
 1574 086b 0C       		.byte	0xc
 1575 086c 00       		.byte	0
 1576 086d 0A       		.uleb128 0xa
 1577 086e 04       		.byte	0x4
 1578 086f 3C080000 		.4byte	0x83c
 1579 0873 0A       		.uleb128 0xa
 1580 0874 04       		.byte	0x4
 1581 0875 79080000 		.4byte	0x879
 1582 0879 16       		.uleb128 0x16
 1583 087a 7E080000 		.4byte	0x87e
 1584 087e 04       		.uleb128 0x4
 1585 087f 01       		.byte	0x1
 1586 0880 08       		.byte	0x8
 1587 0881 CF070000 		.4byte	.LASF113
 1588 0885 0A       		.uleb128 0xa
 1589 0886 04       		.byte	0x4
 1590 0887 81050000 		.4byte	0x581
 1591 088b 0A       		.uleb128 0xa
 1592 088c 04       		.byte	0x4
 1593 088d 3D030000 		.4byte	0x33d
 1594 0891 0F       		.uleb128 0xf
 1595 0892 73080000 		.4byte	0x873
 1596 0896 03       		.uleb128 0x3
ARM GAS  /tmp/ccuVlvbs.s 			page 29


 1597 0897 96010000 		.4byte	.LASF114
 1598 089b 11       		.byte	0x11
 1599 089c 34       		.byte	0x34
 1600 089d 3C080000 		.4byte	0x83c
 1601 08a1 0A       		.uleb128 0xa
 1602 08a2 04       		.byte	0x4
 1603 08a3 96080000 		.4byte	0x896
 1604 08a7 04       		.uleb128 0x4
 1605 08a8 01       		.byte	0x1
 1606 08a9 02       		.byte	0x2
 1607 08aa CC060000 		.4byte	.LASF115
 1608 08ae 10       		.uleb128 0x10
 1609 08af 0C       		.byte	0xc
 1610 08b0 12       		.byte	0x12
 1611 08b1 6D01     		.2byte	0x16d
 1612 08b3 F9080000 		.4byte	0x8f9
 1613 08b7 09       		.uleb128 0x9
 1614 08b8 C9000000 		.4byte	.LASF116
 1615 08bc 12       		.byte	0x12
 1616 08bd 6E01     		.2byte	0x16e
 1617 08bf F9080000 		.4byte	0x8f9
 1618 08c3 00       		.byte	0
 1619 08c4 09       		.uleb128 0x9
 1620 08c5 7D070000 		.4byte	.LASF117
 1621 08c9 12       		.byte	0x12
 1622 08ca 6F01     		.2byte	0x16f
 1623 08cc FF080000 		.4byte	0x8ff
 1624 08d0 04       		.byte	0x4
 1625 08d1 09       		.uleb128 0x9
 1626 08d2 10040000 		.4byte	.LASF118
 1627 08d6 12       		.byte	0x12
 1628 08d7 7001     		.2byte	0x170
 1629 08d9 AD000000 		.4byte	0xad
 1630 08dd 08       		.byte	0x8
 1631 08de 09       		.uleb128 0x9
 1632 08df A0020000 		.4byte	.LASF119
 1633 08e3 12       		.byte	0x12
 1634 08e4 7201     		.2byte	0x172
 1635 08e6 AD000000 		.4byte	0xad
 1636 08ea 09       		.byte	0x9
 1637 08eb 09       		.uleb128 0x9
 1638 08ec 50090000 		.4byte	.LASF120
 1639 08f0 12       		.byte	0x12
 1640 08f1 7301     		.2byte	0x173
 1641 08f3 AD000000 		.4byte	0xad
 1642 08f7 0A       		.byte	0xa
 1643 08f8 00       		.byte	0
 1644 08f9 0A       		.uleb128 0xa
 1645 08fa 04       		.byte	0x4
 1646 08fb D3040000 		.4byte	0x4d3
 1647 08ff 0A       		.uleb128 0xa
 1648 0900 04       		.byte	0x4
 1649 0901 77040000 		.4byte	0x477
 1650 0905 11       		.uleb128 0x11
 1651 0906 7B060000 		.4byte	.LASF121
 1652 090a 12       		.byte	0x12
 1653 090b 7401     		.2byte	0x174
ARM GAS  /tmp/ccuVlvbs.s 			page 30


 1654 090d AE080000 		.4byte	0x8ae
 1655 0911 0A       		.uleb128 0xa
 1656 0912 04       		.byte	0x4
 1657 0913 17090000 		.4byte	0x917
 1658 0917 16       		.uleb128 0x16
 1659 0918 AD000000 		.4byte	0xad
 1660 091c 0A       		.uleb128 0xa
 1661 091d 04       		.byte	0x4
 1662 091e AD000000 		.4byte	0xad
 1663 0922 0A       		.uleb128 0xa
 1664 0923 04       		.byte	0x4
 1665 0924 28090000 		.4byte	0x928
 1666 0928 16       		.uleb128 0x16
 1667 0929 05090000 		.4byte	0x905
 1668 092d 17       		.uleb128 0x17
 1669 092e 01       		.byte	0x1
 1670 092f 13       		.byte	0x13
 1671 0930 4C       		.byte	0x4c
 1672 0931 5A090000 		.4byte	0x95a
 1673 0935 18       		.uleb128 0x18
 1674 0936 F0060000 		.4byte	.LASF122
 1675 093a 00       		.sleb128 0
 1676 093b 18       		.uleb128 0x18
 1677 093c 6A000000 		.4byte	.LASF123
 1678 0940 01       		.sleb128 1
 1679 0941 18       		.uleb128 0x18
 1680 0942 5F010000 		.4byte	.LASF124
 1681 0946 02       		.sleb128 2
 1682 0947 18       		.uleb128 0x18
 1683 0948 A4060000 		.4byte	.LASF125
 1684 094c 03       		.sleb128 3
 1685 094d 18       		.uleb128 0x18
 1686 094e A8070000 		.4byte	.LASF126
 1687 0952 04       		.sleb128 4
 1688 0953 18       		.uleb128 0x18
 1689 0954 65070000 		.4byte	.LASF127
 1690 0958 05       		.sleb128 5
 1691 0959 00       		.byte	0
 1692 095a 03       		.uleb128 0x3
 1693 095b 46060000 		.4byte	.LASF128
 1694 095f 13       		.byte	0x13
 1695 0960 53       		.byte	0x53
 1696 0961 2D090000 		.4byte	0x92d
 1697 0965 11       		.uleb128 0x11
 1698 0966 38020000 		.4byte	.LASF129
 1699 096a 14       		.byte	0x14
 1700 096b 7501     		.2byte	0x175
 1701 096d B8000000 		.4byte	0xb8
 1702 0971 11       		.uleb128 0x11
 1703 0972 B2060000 		.4byte	.LASF130
 1704 0976 14       		.byte	0x14
 1705 0977 7A01     		.2byte	0x17a
 1706 0979 CE000000 		.4byte	0xce
 1707 097d 19       		.uleb128 0x19
 1708 097e 01       		.byte	0x1
 1709 097f 14       		.byte	0x14
 1710 0980 7F01     		.2byte	0x17f
ARM GAS  /tmp/ccuVlvbs.s 			page 31


 1711 0982 99090000 		.4byte	0x999
 1712 0986 18       		.uleb128 0x18
 1713 0987 02060000 		.4byte	.LASF131
 1714 098b 01       		.sleb128 1
 1715 098c 18       		.uleb128 0x18
 1716 098d 23040000 		.4byte	.LASF132
 1717 0991 02       		.sleb128 2
 1718 0992 18       		.uleb128 0x18
 1719 0993 7A020000 		.4byte	.LASF133
 1720 0997 03       		.sleb128 3
 1721 0998 00       		.byte	0
 1722 0999 11       		.uleb128 0x11
 1723 099a 2A090000 		.4byte	.LASF134
 1724 099e 14       		.byte	0x14
 1725 099f 8301     		.2byte	0x183
 1726 09a1 7D090000 		.4byte	0x97d
 1727 09a5 19       		.uleb128 0x19
 1728 09a6 01       		.byte	0x1
 1729 09a7 14       		.byte	0x14
 1730 09a8 8801     		.2byte	0x188
 1731 09aa C1090000 		.4byte	0x9c1
 1732 09ae 18       		.uleb128 0x18
 1733 09af 00000000 		.4byte	.LASF135
 1734 09b3 01       		.sleb128 1
 1735 09b4 18       		.uleb128 0x18
 1736 09b5 53070000 		.4byte	.LASF136
 1737 09b9 02       		.sleb128 2
 1738 09ba 18       		.uleb128 0x18
 1739 09bb 51060000 		.4byte	.LASF137
 1740 09bf 03       		.sleb128 3
 1741 09c0 00       		.byte	0
 1742 09c1 11       		.uleb128 0x11
 1743 09c2 15000000 		.4byte	.LASF138
 1744 09c6 14       		.byte	0x14
 1745 09c7 8C01     		.2byte	0x18c
 1746 09c9 A5090000 		.4byte	0x9a5
 1747 09cd 10       		.uleb128 0x10
 1748 09ce 0C       		.byte	0xc
 1749 09cf 14       		.byte	0x14
 1750 09d0 9101     		.2byte	0x191
 1751 09d2 FE090000 		.4byte	0x9fe
 1752 09d6 09       		.uleb128 0x9
 1753 09d7 E8060000 		.4byte	.LASF139
 1754 09db 14       		.byte	0x14
 1755 09dc 9301     		.2byte	0x193
 1756 09de 99090000 		.4byte	0x999
 1757 09e2 00       		.byte	0
 1758 09e3 09       		.uleb128 0x9
 1759 09e4 B6010000 		.4byte	.LASF140
 1760 09e8 14       		.byte	0x14
 1761 09e9 9401     		.2byte	0x194
 1762 09eb CE000000 		.4byte	0xce
 1763 09ef 04       		.byte	0x4
 1764 09f0 09       		.uleb128 0x9
 1765 09f1 A1050000 		.4byte	.LASF141
 1766 09f5 14       		.byte	0x14
 1767 09f6 9701     		.2byte	0x197
ARM GAS  /tmp/ccuVlvbs.s 			page 32


 1768 09f8 C1090000 		.4byte	0x9c1
 1769 09fc 08       		.byte	0x8
 1770 09fd 00       		.byte	0
 1771 09fe 11       		.uleb128 0x11
 1772 09ff 97080000 		.4byte	.LASF142
 1773 0a03 14       		.byte	0x14
 1774 0a04 9901     		.2byte	0x199
 1775 0a06 CD090000 		.4byte	0x9cd
 1776 0a0a 11       		.uleb128 0x11
 1777 0a0b 59040000 		.4byte	.LASF143
 1778 0a0f 14       		.byte	0x14
 1779 0a10 9E01     		.2byte	0x19e
 1780 0a12 160A0000 		.4byte	0xa16
 1781 0a16 0B       		.uleb128 0xb
 1782 0a17 59040000 		.4byte	.LASF143
 1783 0a1b 38       		.byte	0x38
 1784 0a1c 14       		.byte	0x14
 1785 0a1d A301     		.2byte	0x1a3
 1786 0a1f B30A0000 		.4byte	0xab3
 1787 0a23 09       		.uleb128 0x9
 1788 0a24 42020000 		.4byte	.LASF38
 1789 0a28 14       		.byte	0x14
 1790 0a29 A701     		.2byte	0x1a7
 1791 0a2b 5A090000 		.4byte	0x95a
 1792 0a2f 00       		.byte	0
 1793 0a30 09       		.uleb128 0x9
 1794 0a31 DA070000 		.4byte	.LASF144
 1795 0a35 14       		.byte	0x14
 1796 0a36 AB01     		.2byte	0x1ab
 1797 0a38 B30A0000 		.4byte	0xab3
 1798 0a3c 04       		.byte	0x4
 1799 0a3d 09       		.uleb128 0x9
 1800 0a3e FB030000 		.4byte	.LASF145
 1801 0a42 14       		.byte	0x14
 1802 0a43 AF01     		.2byte	0x1af
 1803 0a45 71090000 		.4byte	0x971
 1804 0a49 08       		.byte	0x8
 1805 0a4a 09       		.uleb128 0x9
 1806 0a4b BD060000 		.4byte	.LASF146
 1807 0a4f 14       		.byte	0x14
 1808 0a50 B401     		.2byte	0x1b4
 1809 0a52 96080000 		.4byte	0x896
 1810 0a56 0C       		.byte	0xc
 1811 0a57 09       		.uleb128 0x9
 1812 0a58 36090000 		.4byte	.LASF147
 1813 0a5c 14       		.byte	0x14
 1814 0a5d BD01     		.2byte	0x1bd
 1815 0a5f 53020000 		.4byte	0x253
 1816 0a63 1C       		.byte	0x1c
 1817 0a64 09       		.uleb128 0x9
 1818 0a65 C8010000 		.4byte	.LASF148
 1819 0a69 14       		.byte	0x14
 1820 0a6a C101     		.2byte	0x1c1
 1821 0a6c 65090000 		.4byte	0x965
 1822 0a70 20       		.byte	0x20
 1823 0a71 09       		.uleb128 0x9
 1824 0a72 6A020000 		.4byte	.LASF149
ARM GAS  /tmp/ccuVlvbs.s 			page 33


 1825 0a76 14       		.byte	0x14
 1826 0a77 C601     		.2byte	0x1c6
 1827 0a79 CE000000 		.4byte	0xce
 1828 0a7d 24       		.byte	0x24
 1829 0a7e 09       		.uleb128 0x9
 1830 0a7f CE020000 		.4byte	.LASF150
 1831 0a83 14       		.byte	0x14
 1832 0a84 CA01     		.2byte	0x1ca
 1833 0a86 CE000000 		.4byte	0xce
 1834 0a8a 28       		.byte	0x28
 1835 0a8b 09       		.uleb128 0x9
 1836 0a8c 0F000000 		.4byte	.LASF151
 1837 0a90 14       		.byte	0x14
 1838 0a91 CE01     		.2byte	0x1ce
 1839 0a93 22090000 		.4byte	0x922
 1840 0a97 2C       		.byte	0x2c
 1841 0a98 09       		.uleb128 0x9
 1842 0a99 74020000 		.4byte	.LASF152
 1843 0a9d 14       		.byte	0x14
 1844 0a9e D201     		.2byte	0x1d2
 1845 0aa0 22090000 		.4byte	0x922
 1846 0aa4 30       		.byte	0x30
 1847 0aa5 08       		.uleb128 0x8
 1848 0aa6 69326300 		.ascii	"i2c\000"
 1849 0aaa 14       		.byte	0x14
 1850 0aab E801     		.2byte	0x1e8
 1851 0aad BE0A0000 		.4byte	0xabe
 1852 0ab1 34       		.byte	0x34
 1853 0ab2 00       		.byte	0
 1854 0ab3 0A       		.uleb128 0xa
 1855 0ab4 04       		.byte	0x4
 1856 0ab5 B90A0000 		.4byte	0xab9
 1857 0ab9 16       		.uleb128 0x16
 1858 0aba FE090000 		.4byte	0x9fe
 1859 0abe 0A       		.uleb128 0xa
 1860 0abf 04       		.byte	0x4
 1861 0ac0 6A050000 		.4byte	0x56a
 1862 0ac4 1A       		.uleb128 0x1a
 1863 0ac5 1D080000 		.4byte	.LASF155
 1864 0ac9 03       		.byte	0x3
 1865 0aca 0601     		.2byte	0x106
 1866 0acc 03       		.byte	0x3
 1867 0acd DE0A0000 		.4byte	0xade
 1868 0ad1 1B       		.uleb128 0x1b
 1869 0ad2 E6020000 		.4byte	.LASF157
 1870 0ad6 03       		.byte	0x3
 1871 0ad7 0601     		.2byte	0x106
 1872 0ad9 CE000000 		.4byte	0xce
 1873 0add 00       		.byte	0
 1874 0ade 1C       		.uleb128 0x1c
 1875 0adf D0000000 		.4byte	.LASF153
 1876 0ae3 0D       		.byte	0xd
 1877 0ae4 5202     		.2byte	0x252
 1878 0ae6 03       		.byte	0x3
 1879 0ae7 1C       		.uleb128 0x1c
 1880 0ae8 23020000 		.4byte	.LASF154
 1881 0aec 0D       		.byte	0xd
ARM GAS  /tmp/ccuVlvbs.s 			page 34


 1882 0aed 6A02     		.2byte	0x26a
 1883 0aef 03       		.byte	0x3
 1884 0af0 1A       		.uleb128 0x1a
 1885 0af1 82010000 		.4byte	.LASF156
 1886 0af5 02       		.byte	0x2
 1887 0af6 7403     		.2byte	0x374
 1888 0af8 03       		.byte	0x3
 1889 0af9 090B0000 		.4byte	0xb09
 1890 0afd 1D       		.uleb128 0x1d
 1891 0afe 6D7000   		.ascii	"mp\000"
 1892 0b01 02       		.byte	0x2
 1893 0b02 7403     		.2byte	0x374
 1894 0b04 A1080000 		.4byte	0x8a1
 1895 0b08 00       		.byte	0
 1896 0b09 1C       		.uleb128 0x1c
 1897 0b0a C2020000 		.4byte	.LASF158
 1898 0b0e 02       		.byte	0x2
 1899 0b0f EB01     		.2byte	0x1eb
 1900 0b11 03       		.byte	0x3
 1901 0b12 1C       		.uleb128 0x1c
 1902 0b13 35070000 		.4byte	.LASF159
 1903 0b17 02       		.byte	0x2
 1904 0b18 F601     		.2byte	0x1f6
 1905 0b1a 03       		.byte	0x3
 1906 0b1b 1A       		.uleb128 0x1a
 1907 0b1c 2B080000 		.4byte	.LASF160
 1908 0b20 02       		.byte	0x2
 1909 0b21 8803     		.2byte	0x388
 1910 0b23 03       		.byte	0x3
 1911 0b24 340B0000 		.4byte	0xb34
 1912 0b28 1D       		.uleb128 0x1d
 1913 0b29 6D7000   		.ascii	"mp\000"
 1914 0b2c 02       		.byte	0x2
 1915 0b2d 8803     		.2byte	0x388
 1916 0b2f A1080000 		.4byte	0x8a1
 1917 0b33 00       		.byte	0
 1918 0b34 1A       		.uleb128 0x1a
 1919 0b35 E1070000 		.4byte	.LASF161
 1920 0b39 02       		.byte	0x2
 1921 0b3a A003     		.2byte	0x3a0
 1922 0b3c 03       		.byte	0x3
 1923 0b3d 4D0B0000 		.4byte	0xb4d
 1924 0b41 1D       		.uleb128 0x1d
 1925 0b42 6D7000   		.ascii	"mp\000"
 1926 0b45 02       		.byte	0x2
 1927 0b46 A003     		.2byte	0x3a0
 1928 0b48 A1080000 		.4byte	0x8a1
 1929 0b4c 00       		.byte	0
 1930 0b4d 1E       		.uleb128 0x1e
 1931 0b4e 0A090000 		.4byte	.LASF162
 1932 0b52 01       		.byte	0x1
 1933 0b53 3B       		.byte	0x3b
 1934 0b54 00000000 		.4byte	.LFB277
 1935 0b58 04000000 		.4byte	.LFE277-.LFB277
 1936 0b5c 01       		.uleb128 0x1
 1937 0b5d 9C       		.byte	0x9c
 1938 0b5e 6C0B0000 		.4byte	0xb6c
ARM GAS  /tmp/ccuVlvbs.s 			page 35


 1939 0b62 1F       		.uleb128 0x1f
 1940 0b63 04000000 		.4byte	.LVL0
 1941 0b67 96120000 		.4byte	0x1296
 1942 0b6b 00       		.byte	0
 1943 0b6c 1E       		.uleb128 0x1e
 1944 0b6d 6B080000 		.4byte	.LASF163
 1945 0b71 01       		.byte	0x1
 1946 0b72 47       		.byte	0x47
 1947 0b73 00000000 		.4byte	.LFB278
 1948 0b77 0E000000 		.4byte	.LFE278-.LFB278
 1949 0b7b 01       		.uleb128 0x1
 1950 0b7c 9C       		.byte	0x9c
 1951 0b7d BD0B0000 		.4byte	0xbbd
 1952 0b81 20       		.uleb128 0x20
 1953 0b82 4C010000 		.4byte	.LASF167
 1954 0b86 01       		.byte	0x1
 1955 0b87 47       		.byte	0x47
 1956 0b88 BD0B0000 		.4byte	0xbbd
 1957 0b8c 00000000 		.4byte	.LLST0
 1958 0b90 21       		.uleb128 0x21
 1959 0b91 F00A0000 		.4byte	0xaf0
 1960 0b95 08000000 		.4byte	.LBB36
 1961 0b99 06000000 		.4byte	.LBE36-.LBB36
 1962 0b9d 01       		.byte	0x1
 1963 0b9e 4D       		.byte	0x4d
 1964 0b9f 22       		.uleb128 0x22
 1965 0ba0 FD0A0000 		.4byte	0xafd
 1966 0ba4 2E000000 		.4byte	.LLST1
 1967 0ba8 23       		.uleb128 0x23
 1968 0ba9 0E000000 		.4byte	.LVL4
 1969 0bad 9E120000 		.4byte	0x129e
 1970 0bb1 24       		.uleb128 0x24
 1971 0bb2 01       		.uleb128 0x1
 1972 0bb3 50       		.byte	0x50
 1973 0bb4 05       		.uleb128 0x5
 1974 0bb5 F3       		.byte	0xf3
 1975 0bb6 01       		.uleb128 0x1
 1976 0bb7 50       		.byte	0x50
 1977 0bb8 23       		.byte	0x23
 1978 0bb9 0C       		.uleb128 0xc
 1979 0bba 00       		.byte	0
 1980 0bbb 00       		.byte	0
 1981 0bbc 00       		.byte	0
 1982 0bbd 0A       		.uleb128 0xa
 1983 0bbe 04       		.byte	0x4
 1984 0bbf 0A0A0000 		.4byte	0xa0a
 1985 0bc3 1C       		.uleb128 0x1c
 1986 0bc4 2B070000 		.4byte	.LASF164
 1987 0bc8 04       		.byte	0x4
 1988 0bc9 7601     		.2byte	0x176
 1989 0bcb 03       		.byte	0x3
 1990 0bcc 1A       		.uleb128 0x1a
 1991 0bcd 12090000 		.4byte	.LASF165
 1992 0bd1 04       		.byte	0x4
 1993 0bd2 8201     		.2byte	0x182
 1994 0bd4 03       		.byte	0x3
 1995 0bd5 E70B0000 		.4byte	0xbe7
ARM GAS  /tmp/ccuVlvbs.s 			page 36


 1996 0bd9 25       		.uleb128 0x25
 1997 0bda 22070000 		.4byte	.LASF169
 1998 0bde F70B0000 		.4byte	0xbf7
 1999 0be2 12090000 		.4byte	.LASF165
 2000 0be6 00       		.byte	0
 2001 0be7 26       		.uleb128 0x26
 2002 0be8 7E080000 		.4byte	0x87e
 2003 0bec F70B0000 		.4byte	0xbf7
 2004 0bf0 27       		.uleb128 0x27
 2005 0bf1 70040000 		.4byte	0x470
 2006 0bf5 0B       		.byte	0xb
 2007 0bf6 00       		.byte	0
 2008 0bf7 16       		.uleb128 0x16
 2009 0bf8 E70B0000 		.4byte	0xbe7
 2010 0bfc 1E       		.uleb128 0x1e
 2011 0bfd 6D050000 		.4byte	.LASF166
 2012 0c01 01       		.byte	0x1
 2013 0c02 5D       		.byte	0x5d
 2014 0c03 00000000 		.4byte	.LFB279
 2015 0c07 28000000 		.4byte	.LFE279-.LFB279
 2016 0c0b 01       		.uleb128 0x1
 2017 0c0c 9C       		.byte	0x9c
 2018 0c0d 0C0D0000 		.4byte	0xd0c
 2019 0c11 20       		.uleb128 0x20
 2020 0c12 4C010000 		.4byte	.LASF167
 2021 0c16 01       		.byte	0x1
 2022 0c17 5D       		.byte	0x5d
 2023 0c18 BD0B0000 		.4byte	0xbbd
 2024 0c1c 5E000000 		.4byte	.LLST2
 2025 0c20 20       		.uleb128 0x20
 2026 0c21 DA070000 		.4byte	.LASF144
 2027 0c25 01       		.byte	0x1
 2028 0c26 5D       		.byte	0x5d
 2029 0c27 B30A0000 		.4byte	0xab3
 2030 0c2b 7C000000 		.4byte	.LLST3
 2031 0c2f 28       		.uleb128 0x28
 2032 0c30 22070000 		.4byte	.LASF169
 2033 0c34 1C0D0000 		.4byte	0xd1c
 2034 0c38 29       		.uleb128 0x29
 2035 0c39 090B0000 		.4byte	0xb09
 2036 0c3d 06000000 		.4byte	.LBB52
 2037 0c41 0A000000 		.4byte	.LBE52-.LBB52
 2038 0c45 01       		.byte	0x1
 2039 0c46 63       		.byte	0x63
 2040 0c47 920C0000 		.4byte	0xc92
 2041 0c4b 2A       		.uleb128 0x2a
 2042 0c4c C30B0000 		.4byte	0xbc3
 2043 0c50 06000000 		.4byte	.LBB53
 2044 0c54 0A000000 		.4byte	.LBE53-.LBB53
 2045 0c58 02       		.byte	0x2
 2046 0c59 ED01     		.2byte	0x1ed
 2047 0c5b 2B       		.uleb128 0x2b
 2048 0c5c DE0A0000 		.4byte	0xade
 2049 0c60 06000000 		.4byte	.LBB55
 2050 0c64 06000000 		.4byte	.LBE55-.LBB55
 2051 0c68 04       		.byte	0x4
 2052 0c69 7801     		.2byte	0x178
ARM GAS  /tmp/ccuVlvbs.s 			page 37


 2053 0c6b 870C0000 		.4byte	0xc87
 2054 0c6f 2A       		.uleb128 0x2a
 2055 0c70 C40A0000 		.4byte	0xac4
 2056 0c74 06000000 		.4byte	.LBB56
 2057 0c78 06000000 		.4byte	.LBE56-.LBB56
 2058 0c7c 0D       		.byte	0xd
 2059 0c7d 5A02     		.2byte	0x25a
 2060 0c7f 2C       		.uleb128 0x2c
 2061 0c80 D10A0000 		.4byte	0xad1
 2062 0c84 20       		.byte	0x20
 2063 0c85 00       		.byte	0
 2064 0c86 00       		.byte	0
 2065 0c87 2D       		.uleb128 0x2d
 2066 0c88 10000000 		.4byte	.LVL6
 2067 0c8c AF120000 		.4byte	0x12af
 2068 0c90 00       		.byte	0
 2069 0c91 00       		.byte	0
 2070 0c92 29       		.uleb128 0x29
 2071 0c93 120B0000 		.4byte	0xb12
 2072 0c97 1C000000 		.4byte	.LBB58
 2073 0c9b 0C000000 		.4byte	.LBE58-.LBB58
 2074 0c9f 01       		.byte	0x1
 2075 0ca0 67       		.byte	0x67
 2076 0ca1 FB0C0000 		.4byte	0xcfb
 2077 0ca5 2A       		.uleb128 0x2a
 2078 0ca6 CC0B0000 		.4byte	0xbcc
 2079 0caa 1C000000 		.4byte	.LBB59
 2080 0cae 0C000000 		.4byte	.LBE59-.LBB59
 2081 0cb2 02       		.byte	0x2
 2082 0cb3 F801     		.2byte	0x1f8
 2083 0cb5 2E       		.uleb128 0x2e
 2084 0cb6 1C000000 		.4byte	.LBB60
 2085 0cba 0C000000 		.4byte	.LBE60-.LBB60
 2086 0cbe 2F       		.uleb128 0x2f
 2087 0cbf D90B0000 		.4byte	0xbd9
 2088 0cc3 2B       		.uleb128 0x2b
 2089 0cc4 E70A0000 		.4byte	0xae7
 2090 0cc8 20000000 		.4byte	.LBB61
 2091 0ccc 08000000 		.4byte	.LBE61-.LBB61
 2092 0cd0 04       		.byte	0x4
 2093 0cd1 8F01     		.2byte	0x18f
 2094 0cd3 EF0C0000 		.4byte	0xcef
 2095 0cd7 2A       		.uleb128 0x2a
 2096 0cd8 C40A0000 		.4byte	0xac4
 2097 0cdc 20000000 		.4byte	.LBB62
 2098 0ce0 08000000 		.4byte	.LBE62-.LBB62
 2099 0ce4 0D       		.byte	0xd
 2100 0ce5 6D02     		.2byte	0x26d
 2101 0ce7 2C       		.uleb128 0x2c
 2102 0ce8 D10A0000 		.4byte	0xad1
 2103 0cec 00       		.byte	0
 2104 0ced 00       		.byte	0
 2105 0cee 00       		.byte	0
 2106 0cef 2D       		.uleb128 0x2d
 2107 0cf0 20000000 		.4byte	.LVL8
 2108 0cf4 B6120000 		.4byte	0x12b6
 2109 0cf8 00       		.byte	0
ARM GAS  /tmp/ccuVlvbs.s 			page 38


 2110 0cf9 00       		.byte	0
 2111 0cfa 00       		.byte	0
 2112 0cfb 30       		.uleb128 0x30
 2113 0cfc 18000000 		.4byte	.LVL7
 2114 0d00 BD120000 		.4byte	0x12bd
 2115 0d04 24       		.uleb128 0x24
 2116 0d05 01       		.uleb128 0x1
 2117 0d06 50       		.byte	0x50
 2118 0d07 02       		.uleb128 0x2
 2119 0d08 74       		.byte	0x74
 2120 0d09 00       		.sleb128 0
 2121 0d0a 00       		.byte	0
 2122 0d0b 00       		.byte	0
 2123 0d0c 26       		.uleb128 0x26
 2124 0d0d 7E080000 		.4byte	0x87e
 2125 0d11 1C0D0000 		.4byte	0xd1c
 2126 0d15 27       		.uleb128 0x27
 2127 0d16 70040000 		.4byte	0x470
 2128 0d1a 08       		.byte	0x8
 2129 0d1b 00       		.byte	0
 2130 0d1c 16       		.uleb128 0x16
 2131 0d1d 0C0D0000 		.4byte	0xd0c
 2132 0d21 1E       		.uleb128 0x1e
 2133 0d22 DC050000 		.4byte	.LASF168
 2134 0d26 01       		.byte	0x1
 2135 0d27 71       		.byte	0x71
 2136 0d28 00000000 		.4byte	.LFB280
 2137 0d2c 26000000 		.4byte	.LFE280-.LFB280
 2138 0d30 01       		.uleb128 0x1
 2139 0d31 9C       		.byte	0x9c
 2140 0d32 220E0000 		.4byte	0xe22
 2141 0d36 20       		.uleb128 0x20
 2142 0d37 4C010000 		.4byte	.LASF167
 2143 0d3b 01       		.byte	0x1
 2144 0d3c 71       		.byte	0x71
 2145 0d3d BD0B0000 		.4byte	0xbbd
 2146 0d41 9A000000 		.4byte	.LLST4
 2147 0d45 28       		.uleb128 0x28
 2148 0d46 22070000 		.4byte	.LASF169
 2149 0d4a 320E0000 		.4byte	0xe32
 2150 0d4e 29       		.uleb128 0x29
 2151 0d4f 090B0000 		.4byte	0xb09
 2152 0d53 04000000 		.4byte	.LBB78
 2153 0d57 0A000000 		.4byte	.LBE78-.LBB78
 2154 0d5b 01       		.byte	0x1
 2155 0d5c 75       		.byte	0x75
 2156 0d5d A80D0000 		.4byte	0xda8
 2157 0d61 2A       		.uleb128 0x2a
 2158 0d62 C30B0000 		.4byte	0xbc3
 2159 0d66 04000000 		.4byte	.LBB79
 2160 0d6a 0A000000 		.4byte	.LBE79-.LBB79
 2161 0d6e 02       		.byte	0x2
 2162 0d6f ED01     		.2byte	0x1ed
 2163 0d71 2B       		.uleb128 0x2b
 2164 0d72 DE0A0000 		.4byte	0xade
 2165 0d76 04000000 		.4byte	.LBB81
 2166 0d7a 06000000 		.4byte	.LBE81-.LBB81
ARM GAS  /tmp/ccuVlvbs.s 			page 39


 2167 0d7e 04       		.byte	0x4
 2168 0d7f 7801     		.2byte	0x178
 2169 0d81 9D0D0000 		.4byte	0xd9d
 2170 0d85 2A       		.uleb128 0x2a
 2171 0d86 C40A0000 		.4byte	0xac4
 2172 0d8a 04000000 		.4byte	.LBB82
 2173 0d8e 06000000 		.4byte	.LBE82-.LBB82
 2174 0d92 0D       		.byte	0xd
 2175 0d93 5A02     		.2byte	0x25a
 2176 0d95 2C       		.uleb128 0x2c
 2177 0d96 D10A0000 		.4byte	0xad1
 2178 0d9a 20       		.byte	0x20
 2179 0d9b 00       		.byte	0
 2180 0d9c 00       		.byte	0
 2181 0d9d 2D       		.uleb128 0x2d
 2182 0d9e 0E000000 		.4byte	.LVL10
 2183 0da2 AF120000 		.4byte	0x12af
 2184 0da6 00       		.byte	0
 2185 0da7 00       		.byte	0
 2186 0da8 29       		.uleb128 0x29
 2187 0da9 120B0000 		.4byte	0xb12
 2188 0dad 1C000000 		.4byte	.LBB84
 2189 0db1 0A000000 		.4byte	.LBE84-.LBB84
 2190 0db5 01       		.byte	0x1
 2191 0db6 7E       		.byte	0x7e
 2192 0db7 110E0000 		.4byte	0xe11
 2193 0dbb 2A       		.uleb128 0x2a
 2194 0dbc CC0B0000 		.4byte	0xbcc
 2195 0dc0 1C000000 		.4byte	.LBB85
 2196 0dc4 0A000000 		.4byte	.LBE85-.LBB85
 2197 0dc8 02       		.byte	0x2
 2198 0dc9 F801     		.2byte	0x1f8
 2199 0dcb 2E       		.uleb128 0x2e
 2200 0dcc 1C000000 		.4byte	.LBB86
 2201 0dd0 0A000000 		.4byte	.LBE86-.LBB86
 2202 0dd4 2F       		.uleb128 0x2f
 2203 0dd5 D90B0000 		.4byte	0xbd9
 2204 0dd9 2B       		.uleb128 0x2b
 2205 0dda E70A0000 		.4byte	0xae7
 2206 0dde 20000000 		.4byte	.LBB87
 2207 0de2 06000000 		.4byte	.LBE87-.LBB87
 2208 0de6 04       		.byte	0x4
 2209 0de7 8F01     		.2byte	0x18f
 2210 0de9 050E0000 		.4byte	0xe05
 2211 0ded 2A       		.uleb128 0x2a
 2212 0dee C40A0000 		.4byte	0xac4
 2213 0df2 20000000 		.4byte	.LBB88
 2214 0df6 06000000 		.4byte	.LBE88-.LBB88
 2215 0dfa 0D       		.byte	0xd
 2216 0dfb 6D02     		.2byte	0x26d
 2217 0dfd 2C       		.uleb128 0x2c
 2218 0dfe D10A0000 		.4byte	0xad1
 2219 0e02 00       		.byte	0
 2220 0e03 00       		.byte	0
 2221 0e04 00       		.byte	0
 2222 0e05 2D       		.uleb128 0x2d
 2223 0e06 20000000 		.4byte	.LVL12
ARM GAS  /tmp/ccuVlvbs.s 			page 40


 2224 0e0a B6120000 		.4byte	0x12b6
 2225 0e0e 00       		.byte	0
 2226 0e0f 00       		.byte	0
 2227 0e10 00       		.byte	0
 2228 0e11 30       		.uleb128 0x30
 2229 0e12 14000000 		.4byte	.LVL11
 2230 0e16 CF120000 		.4byte	0x12cf
 2231 0e1a 24       		.uleb128 0x24
 2232 0e1b 01       		.uleb128 0x1
 2233 0e1c 50       		.byte	0x50
 2234 0e1d 02       		.uleb128 0x2
 2235 0e1e 74       		.byte	0x74
 2236 0e1f 00       		.sleb128 0
 2237 0e20 00       		.byte	0
 2238 0e21 00       		.byte	0
 2239 0e22 26       		.uleb128 0x26
 2240 0e23 7E080000 		.4byte	0x87e
 2241 0e27 320E0000 		.4byte	0xe32
 2242 0e2b 27       		.uleb128 0x27
 2243 0e2c 70040000 		.4byte	0x470
 2244 0e30 07       		.byte	0x7
 2245 0e31 00       		.byte	0
 2246 0e32 16       		.uleb128 0x16
 2247 0e33 220E0000 		.4byte	0xe22
 2248 0e37 31       		.uleb128 0x31
 2249 0e38 04070000 		.4byte	.LASF170
 2250 0e3c 01       		.byte	0x1
 2251 0e3d 89       		.byte	0x89
 2252 0e3e 71090000 		.4byte	0x971
 2253 0e42 00000000 		.4byte	.LFB281
 2254 0e46 04000000 		.4byte	.LFE281-.LFB281
 2255 0e4a 01       		.uleb128 0x1
 2256 0e4b 9C       		.byte	0x9c
 2257 0e4c 690E0000 		.4byte	0xe69
 2258 0e50 20       		.uleb128 0x20
 2259 0e51 4C010000 		.4byte	.LASF167
 2260 0e55 01       		.byte	0x1
 2261 0e56 89       		.byte	0x89
 2262 0e57 BD0B0000 		.4byte	0xbbd
 2263 0e5b B8000000 		.4byte	.LLST5
 2264 0e5f 28       		.uleb128 0x28
 2265 0e60 22070000 		.4byte	.LASF169
 2266 0e64 790E0000 		.4byte	0xe79
 2267 0e68 00       		.byte	0
 2268 0e69 26       		.uleb128 0x26
 2269 0e6a 7E080000 		.4byte	0x87e
 2270 0e6e 790E0000 		.4byte	0xe79
 2271 0e72 27       		.uleb128 0x27
 2272 0e73 70040000 		.4byte	0x470
 2273 0e77 0C       		.byte	0xc
 2274 0e78 00       		.byte	0
 2275 0e79 16       		.uleb128 0x16
 2276 0e7a 690E0000 		.4byte	0xe69
 2277 0e7e 31       		.uleb128 0x31
 2278 0e7f 69010000 		.4byte	.LASF171
 2279 0e83 01       		.byte	0x1
 2280 0e84 AA       		.byte	0xaa
ARM GAS  /tmp/ccuVlvbs.s 			page 41


 2281 0e85 26010000 		.4byte	0x126
 2282 0e89 00000000 		.4byte	.LFB282
 2283 0e8d 52000000 		.4byte	.LFE282-.LFB282
 2284 0e91 01       		.uleb128 0x1
 2285 0e92 9C       		.byte	0x9c
 2286 0e93 13100000 		.4byte	0x1013
 2287 0e97 20       		.uleb128 0x20
 2288 0e98 4C010000 		.4byte	.LASF167
 2289 0e9c 01       		.byte	0x1
 2290 0e9d AA       		.byte	0xaa
 2291 0e9e BD0B0000 		.4byte	0xbbd
 2292 0ea2 D9000000 		.4byte	.LLST6
 2293 0ea6 20       		.uleb128 0x20
 2294 0ea7 C8010000 		.4byte	.LASF148
 2295 0eab 01       		.byte	0x1
 2296 0eac AB       		.byte	0xab
 2297 0ead 65090000 		.4byte	0x965
 2298 0eb1 F7000000 		.4byte	.LLST7
 2299 0eb5 20       		.uleb128 0x20
 2300 0eb6 EE030000 		.4byte	.LASF172
 2301 0eba 01       		.byte	0x1
 2302 0ebb AC       		.byte	0xac
 2303 0ebc 11090000 		.4byte	0x911
 2304 0ec0 18010000 		.4byte	.LLST8
 2305 0ec4 20       		.uleb128 0x20
 2306 0ec5 12060000 		.4byte	.LASF173
 2307 0ec9 01       		.byte	0x1
 2308 0eca AD       		.byte	0xad
 2309 0ecb 2C000000 		.4byte	0x2c
 2310 0ecf 36010000 		.4byte	.LLST9
 2311 0ed3 32       		.uleb128 0x32
 2312 0ed4 C2010000 		.4byte	.LASF174
 2313 0ed8 01       		.byte	0x1
 2314 0ed9 AE       		.byte	0xae
 2315 0eda 1C090000 		.4byte	0x91c
 2316 0ede 02       		.uleb128 0x2
 2317 0edf 91       		.byte	0x91
 2318 0ee0 00       		.sleb128 0
 2319 0ee1 32       		.uleb128 0x32
 2320 0ee2 D4050000 		.4byte	.LASF175
 2321 0ee6 01       		.byte	0x1
 2322 0ee7 AF       		.byte	0xaf
 2323 0ee8 2C000000 		.4byte	0x2c
 2324 0eec 02       		.uleb128 0x2
 2325 0eed 91       		.byte	0x91
 2326 0eee 04       		.sleb128 4
 2327 0eef 32       		.uleb128 0x32
 2328 0ef0 08040000 		.4byte	.LASF176
 2329 0ef4 01       		.byte	0x1
 2330 0ef5 B0       		.byte	0xb0
 2331 0ef6 52010000 		.4byte	0x152
 2332 0efa 02       		.uleb128 0x2
 2333 0efb 91       		.byte	0x91
 2334 0efc 08       		.sleb128 8
 2335 0efd 33       		.uleb128 0x33
 2336 0efe 43000000 		.4byte	.LASF102
 2337 0f02 01       		.byte	0x1
ARM GAS  /tmp/ccuVlvbs.s 			page 42


 2338 0f03 B1       		.byte	0xb1
 2339 0f04 26010000 		.4byte	0x126
 2340 0f08 62010000 		.4byte	.LLST10
 2341 0f0c 28       		.uleb128 0x28
 2342 0f0d 22070000 		.4byte	.LASF169
 2343 0f11 23100000 		.4byte	0x1023
 2344 0f15 29       		.uleb128 0x29
 2345 0f16 090B0000 		.4byte	0xb09
 2346 0f1a 0C000000 		.4byte	.LBB104
 2347 0f1e 0A000000 		.4byte	.LBE104-.LBB104
 2348 0f22 01       		.byte	0x1
 2349 0f23 BA       		.byte	0xba
 2350 0f24 6F0F0000 		.4byte	0xf6f
 2351 0f28 2A       		.uleb128 0x2a
 2352 0f29 C30B0000 		.4byte	0xbc3
 2353 0f2d 0C000000 		.4byte	.LBB105
 2354 0f31 0A000000 		.4byte	.LBE105-.LBB105
 2355 0f35 02       		.byte	0x2
 2356 0f36 ED01     		.2byte	0x1ed
 2357 0f38 2B       		.uleb128 0x2b
 2358 0f39 DE0A0000 		.4byte	0xade
 2359 0f3d 0C000000 		.4byte	.LBB107
 2360 0f41 06000000 		.4byte	.LBE107-.LBB107
 2361 0f45 04       		.byte	0x4
 2362 0f46 7801     		.2byte	0x178
 2363 0f48 640F0000 		.4byte	0xf64
 2364 0f4c 2A       		.uleb128 0x2a
 2365 0f4d C40A0000 		.4byte	0xac4
 2366 0f51 0C000000 		.4byte	.LBB108
 2367 0f55 06000000 		.4byte	.LBE108-.LBB108
 2368 0f59 0D       		.byte	0xd
 2369 0f5a 5A02     		.2byte	0x25a
 2370 0f5c 2C       		.uleb128 0x2c
 2371 0f5d D10A0000 		.4byte	0xad1
 2372 0f61 20       		.byte	0x20
 2373 0f62 00       		.byte	0
 2374 0f63 00       		.byte	0
 2375 0f64 2D       		.uleb128 0x2d
 2376 0f65 16000000 		.4byte	.LVL17
 2377 0f69 AF120000 		.4byte	0x12af
 2378 0f6d 00       		.byte	0
 2379 0f6e 00       		.byte	0
 2380 0f6f 29       		.uleb128 0x29
 2381 0f70 120B0000 		.4byte	0xb12
 2382 0f74 42000000 		.4byte	.LBB110
 2383 0f78 08000000 		.4byte	.LBE110-.LBB110
 2384 0f7c 01       		.byte	0x1
 2385 0f7d C5       		.byte	0xc5
 2386 0f7e D80F0000 		.4byte	0xfd8
 2387 0f82 2A       		.uleb128 0x2a
 2388 0f83 CC0B0000 		.4byte	0xbcc
 2389 0f87 42000000 		.4byte	.LBB111
 2390 0f8b 08000000 		.4byte	.LBE111-.LBB111
 2391 0f8f 02       		.byte	0x2
 2392 0f90 F801     		.2byte	0x1f8
 2393 0f92 2E       		.uleb128 0x2e
 2394 0f93 42000000 		.4byte	.LBB112
ARM GAS  /tmp/ccuVlvbs.s 			page 43


 2395 0f97 08000000 		.4byte	.LBE112-.LBB112
 2396 0f9b 2F       		.uleb128 0x2f
 2397 0f9c D90B0000 		.4byte	0xbd9
 2398 0fa0 2B       		.uleb128 0x2b
 2399 0fa1 E70A0000 		.4byte	0xae7
 2400 0fa5 46000000 		.4byte	.LBB113
 2401 0fa9 04000000 		.4byte	.LBE113-.LBB113
 2402 0fad 04       		.byte	0x4
 2403 0fae 8F01     		.2byte	0x18f
 2404 0fb0 CC0F0000 		.4byte	0xfcc
 2405 0fb4 2A       		.uleb128 0x2a
 2406 0fb5 C40A0000 		.4byte	0xac4
 2407 0fb9 46000000 		.4byte	.LBB114
 2408 0fbd 04000000 		.4byte	.LBE114-.LBB114
 2409 0fc1 0D       		.byte	0xd
 2410 0fc2 6D02     		.2byte	0x26d
 2411 0fc4 2C       		.uleb128 0x2c
 2412 0fc5 D10A0000 		.4byte	0xad1
 2413 0fc9 00       		.byte	0
 2414 0fca 00       		.byte	0
 2415 0fcb 00       		.byte	0
 2416 0fcc 2D       		.uleb128 0x2d
 2417 0fcd 46000000 		.4byte	.LVL20
 2418 0fd1 B6120000 		.4byte	0x12b6
 2419 0fd5 00       		.byte	0
 2420 0fd6 00       		.byte	0
 2421 0fd7 00       		.byte	0
 2422 0fd8 30       		.uleb128 0x30
 2423 0fd9 36000000 		.4byte	.LVL18
 2424 0fdd E1120000 		.4byte	0x12e1
 2425 0fe1 24       		.uleb128 0x24
 2426 0fe2 01       		.uleb128 0x1
 2427 0fe3 53       		.byte	0x53
 2428 0fe4 02       		.uleb128 0x2
 2429 0fe5 76       		.byte	0x76
 2430 0fe6 00       		.sleb128 0
 2431 0fe7 24       		.uleb128 0x24
 2432 0fe8 01       		.uleb128 0x1
 2433 0fe9 52       		.byte	0x52
 2434 0fea 02       		.uleb128 0x2
 2435 0feb 77       		.byte	0x77
 2436 0fec 00       		.sleb128 0
 2437 0fed 24       		.uleb128 0x24
 2438 0fee 01       		.uleb128 0x1
 2439 0fef 51       		.byte	0x51
 2440 0ff0 02       		.uleb128 0x2
 2441 0ff1 78       		.byte	0x78
 2442 0ff2 00       		.sleb128 0
 2443 0ff3 24       		.uleb128 0x24
 2444 0ff4 01       		.uleb128 0x1
 2445 0ff5 50       		.byte	0x50
 2446 0ff6 02       		.uleb128 0x2
 2447 0ff7 74       		.byte	0x74
 2448 0ff8 00       		.sleb128 0
 2449 0ff9 24       		.uleb128 0x24
 2450 0ffa 02       		.uleb128 0x2
 2451 0ffb 7D       		.byte	0x7d
ARM GAS  /tmp/ccuVlvbs.s 			page 44


 2452 0ffc 08       		.sleb128 8
 2453 0ffd 03       		.uleb128 0x3
 2454 0ffe 91       		.byte	0x91
 2455 0fff 08       		.sleb128 8
 2456 1000 06       		.byte	0x6
 2457 1001 24       		.uleb128 0x24
 2458 1002 02       		.uleb128 0x2
 2459 1003 7D       		.byte	0x7d
 2460 1004 04       		.sleb128 4
 2461 1005 03       		.uleb128 0x3
 2462 1006 91       		.byte	0x91
 2463 1007 04       		.sleb128 4
 2464 1008 06       		.byte	0x6
 2465 1009 24       		.uleb128 0x24
 2466 100a 02       		.uleb128 0x2
 2467 100b 7D       		.byte	0x7d
 2468 100c 00       		.sleb128 0
 2469 100d 03       		.uleb128 0x3
 2470 100e 91       		.byte	0x91
 2471 100f 00       		.sleb128 0
 2472 1010 06       		.byte	0x6
 2473 1011 00       		.byte	0
 2474 1012 00       		.byte	0
 2475 1013 26       		.uleb128 0x26
 2476 1014 7E080000 		.4byte	0x87e
 2477 1018 23100000 		.4byte	0x1023
 2478 101c 27       		.uleb128 0x27
 2479 101d 70040000 		.4byte	0x470
 2480 1021 18       		.byte	0x18
 2481 1022 00       		.byte	0
 2482 1023 16       		.uleb128 0x16
 2483 1024 13100000 		.4byte	0x1013
 2484 1028 31       		.uleb128 0x31
 2485 1029 DC080000 		.4byte	.LASF177
 2486 102d 01       		.byte	0x1
 2487 102e DD       		.byte	0xdd
 2488 102f 26010000 		.4byte	0x126
 2489 1033 00000000 		.4byte	.LFB283
 2490 1037 4A000000 		.4byte	.LFE283-.LFB283
 2491 103b 01       		.uleb128 0x1
 2492 103c 9C       		.byte	0x9c
 2493 103d 91110000 		.4byte	0x1191
 2494 1041 20       		.uleb128 0x20
 2495 1042 4C010000 		.4byte	.LASF167
 2496 1046 01       		.byte	0x1
 2497 1047 DD       		.byte	0xdd
 2498 1048 BD0B0000 		.4byte	0xbbd
 2499 104c 80010000 		.4byte	.LLST11
 2500 1050 20       		.uleb128 0x20
 2501 1051 C8010000 		.4byte	.LASF148
 2502 1055 01       		.byte	0x1
 2503 1056 DE       		.byte	0xde
 2504 1057 65090000 		.4byte	0x965
 2505 105b 9E010000 		.4byte	.LLST12
 2506 105f 20       		.uleb128 0x20
 2507 1060 C2010000 		.4byte	.LASF174
 2508 1064 01       		.byte	0x1
ARM GAS  /tmp/ccuVlvbs.s 			page 45


 2509 1065 DF       		.byte	0xdf
 2510 1066 1C090000 		.4byte	0x91c
 2511 106a BF010000 		.4byte	.LLST13
 2512 106e 20       		.uleb128 0x20
 2513 106f D4050000 		.4byte	.LASF175
 2514 1073 01       		.byte	0x1
 2515 1074 E0       		.byte	0xe0
 2516 1075 2C000000 		.4byte	0x2c
 2517 1079 DD010000 		.4byte	.LLST14
 2518 107d 32       		.uleb128 0x32
 2519 107e 08040000 		.4byte	.LASF176
 2520 1082 01       		.byte	0x1
 2521 1083 E1       		.byte	0xe1
 2522 1084 52010000 		.4byte	0x152
 2523 1088 02       		.uleb128 0x2
 2524 1089 91       		.byte	0x91
 2525 108a 00       		.sleb128 0
 2526 108b 33       		.uleb128 0x33
 2527 108c 43000000 		.4byte	.LASF102
 2528 1090 01       		.byte	0x1
 2529 1091 E3       		.byte	0xe3
 2530 1092 26010000 		.4byte	0x126
 2531 1096 09020000 		.4byte	.LLST15
 2532 109a 28       		.uleb128 0x28
 2533 109b 22070000 		.4byte	.LASF169
 2534 109f A1110000 		.4byte	0x11a1
 2535 10a3 29       		.uleb128 0x29
 2536 10a4 090B0000 		.4byte	0xb09
 2537 10a8 0C000000 		.4byte	.LBB130
 2538 10ac 0A000000 		.4byte	.LBE130-.LBB130
 2539 10b0 01       		.byte	0x1
 2540 10b1 EB       		.byte	0xeb
 2541 10b2 FD100000 		.4byte	0x10fd
 2542 10b6 2A       		.uleb128 0x2a
 2543 10b7 C30B0000 		.4byte	0xbc3
 2544 10bb 0C000000 		.4byte	.LBB131
 2545 10bf 0A000000 		.4byte	.LBE131-.LBB131
 2546 10c3 02       		.byte	0x2
 2547 10c4 ED01     		.2byte	0x1ed
 2548 10c6 2B       		.uleb128 0x2b
 2549 10c7 DE0A0000 		.4byte	0xade
 2550 10cb 0C000000 		.4byte	.LBB133
 2551 10cf 06000000 		.4byte	.LBE133-.LBB133
 2552 10d3 04       		.byte	0x4
 2553 10d4 7801     		.2byte	0x178
 2554 10d6 F2100000 		.4byte	0x10f2
 2555 10da 2A       		.uleb128 0x2a
 2556 10db C40A0000 		.4byte	0xac4
 2557 10df 0C000000 		.4byte	.LBB134
 2558 10e3 06000000 		.4byte	.LBE134-.LBB134
 2559 10e7 0D       		.byte	0xd
 2560 10e8 5A02     		.2byte	0x25a
 2561 10ea 2C       		.uleb128 0x2c
 2562 10eb D10A0000 		.4byte	0xad1
 2563 10ef 20       		.byte	0x20
 2564 10f0 00       		.byte	0
 2565 10f1 00       		.byte	0
ARM GAS  /tmp/ccuVlvbs.s 			page 46


 2566 10f2 2D       		.uleb128 0x2d
 2567 10f3 16000000 		.4byte	.LVL23
 2568 10f7 AF120000 		.4byte	0x12af
 2569 10fb 00       		.byte	0
 2570 10fc 00       		.byte	0
 2571 10fd 29       		.uleb128 0x29
 2572 10fe 120B0000 		.4byte	0xb12
 2573 1102 3A000000 		.4byte	.LBB136
 2574 1106 08000000 		.4byte	.LBE136-.LBB136
 2575 110a 01       		.byte	0x1
 2576 110b F5       		.byte	0xf5
 2577 110c 66110000 		.4byte	0x1166
 2578 1110 2A       		.uleb128 0x2a
 2579 1111 CC0B0000 		.4byte	0xbcc
 2580 1115 3A000000 		.4byte	.LBB137
 2581 1119 08000000 		.4byte	.LBE137-.LBB137
 2582 111d 02       		.byte	0x2
 2583 111e F801     		.2byte	0x1f8
 2584 1120 2E       		.uleb128 0x2e
 2585 1121 3A000000 		.4byte	.LBB138
 2586 1125 08000000 		.4byte	.LBE138-.LBB138
 2587 1129 2F       		.uleb128 0x2f
 2588 112a D90B0000 		.4byte	0xbd9
 2589 112e 2B       		.uleb128 0x2b
 2590 112f E70A0000 		.4byte	0xae7
 2591 1133 3E000000 		.4byte	.LBB139
 2592 1137 04000000 		.4byte	.LBE139-.LBB139
 2593 113b 04       		.byte	0x4
 2594 113c 8F01     		.2byte	0x18f
 2595 113e 5A110000 		.4byte	0x115a
 2596 1142 2A       		.uleb128 0x2a
 2597 1143 C40A0000 		.4byte	0xac4
 2598 1147 3E000000 		.4byte	.LBB140
 2599 114b 04000000 		.4byte	.LBE140-.LBB140
 2600 114f 0D       		.byte	0xd
 2601 1150 6D02     		.2byte	0x26d
 2602 1152 2C       		.uleb128 0x2c
 2603 1153 D10A0000 		.4byte	0xad1
 2604 1157 00       		.byte	0
 2605 1158 00       		.byte	0
 2606 1159 00       		.byte	0
 2607 115a 2D       		.uleb128 0x2d
 2608 115b 3E000000 		.4byte	.LVL26
 2609 115f B6120000 		.4byte	0x12b6
 2610 1163 00       		.byte	0
 2611 1164 00       		.byte	0
 2612 1165 00       		.byte	0
 2613 1166 30       		.uleb128 0x30
 2614 1167 2E000000 		.4byte	.LVL24
 2615 116b 15130000 		.4byte	0x1315
 2616 116f 24       		.uleb128 0x24
 2617 1170 01       		.uleb128 0x1
 2618 1171 53       		.byte	0x53
 2619 1172 02       		.uleb128 0x2
 2620 1173 76       		.byte	0x76
 2621 1174 00       		.sleb128 0
 2622 1175 24       		.uleb128 0x24
ARM GAS  /tmp/ccuVlvbs.s 			page 47


 2623 1176 01       		.uleb128 0x1
 2624 1177 52       		.byte	0x52
 2625 1178 02       		.uleb128 0x2
 2626 1179 77       		.byte	0x77
 2627 117a 00       		.sleb128 0
 2628 117b 24       		.uleb128 0x24
 2629 117c 01       		.uleb128 0x1
 2630 117d 51       		.byte	0x51
 2631 117e 02       		.uleb128 0x2
 2632 117f 78       		.byte	0x78
 2633 1180 00       		.sleb128 0
 2634 1181 24       		.uleb128 0x24
 2635 1182 01       		.uleb128 0x1
 2636 1183 50       		.byte	0x50
 2637 1184 02       		.uleb128 0x2
 2638 1185 74       		.byte	0x74
 2639 1186 00       		.sleb128 0
 2640 1187 24       		.uleb128 0x24
 2641 1188 02       		.uleb128 0x2
 2642 1189 7D       		.byte	0x7d
 2643 118a 00       		.sleb128 0
 2644 118b 03       		.uleb128 0x3
 2645 118c 91       		.byte	0x91
 2646 118d 00       		.sleb128 0
 2647 118e 06       		.byte	0x6
 2648 118f 00       		.byte	0
 2649 1190 00       		.byte	0
 2650 1191 26       		.uleb128 0x26
 2651 1192 7E080000 		.4byte	0x87e
 2652 1196 A1110000 		.4byte	0x11a1
 2653 119a 27       		.uleb128 0x27
 2654 119b 70040000 		.4byte	0x470
 2655 119f 17       		.byte	0x17
 2656 11a0 00       		.byte	0
 2657 11a1 16       		.uleb128 0x16
 2658 11a2 91110000 		.4byte	0x1191
 2659 11a6 34       		.uleb128 0x34
 2660 11a7 8E060000 		.4byte	.LASF178
 2661 11ab 01       		.byte	0x1
 2662 11ac 0501     		.2byte	0x105
 2663 11ae 00000000 		.4byte	.LFB284
 2664 11b2 06000000 		.4byte	.LFE284-.LFB284
 2665 11b6 01       		.uleb128 0x1
 2666 11b7 9C       		.byte	0x9c
 2667 11b8 03120000 		.4byte	0x1203
 2668 11bc 35       		.uleb128 0x35
 2669 11bd 4C010000 		.4byte	.LASF167
 2670 11c1 01       		.byte	0x1
 2671 11c2 0501     		.2byte	0x105
 2672 11c4 BD0B0000 		.4byte	0xbbd
 2673 11c8 27020000 		.4byte	.LLST16
 2674 11cc 28       		.uleb128 0x28
 2675 11cd 22070000 		.4byte	.LASF169
 2676 11d1 13120000 		.4byte	0x1213
 2677 11d5 2A       		.uleb128 0x2a
 2678 11d6 1B0B0000 		.4byte	0xb1b
 2679 11da 00000000 		.4byte	.LBB142
ARM GAS  /tmp/ccuVlvbs.s 			page 48


 2680 11de 06000000 		.4byte	.LBE142-.LBB142
 2681 11e2 01       		.byte	0x1
 2682 11e3 0901     		.2byte	0x109
 2683 11e5 22       		.uleb128 0x22
 2684 11e6 280B0000 		.4byte	0xb28
 2685 11ea 55020000 		.4byte	.LLST17
 2686 11ee 23       		.uleb128 0x23
 2687 11ef 06000000 		.4byte	.LVL29
 2688 11f3 3F130000 		.4byte	0x133f
 2689 11f7 24       		.uleb128 0x24
 2690 11f8 01       		.uleb128 0x1
 2691 11f9 50       		.byte	0x50
 2692 11fa 05       		.uleb128 0x5
 2693 11fb F3       		.byte	0xf3
 2694 11fc 01       		.uleb128 0x1
 2695 11fd 50       		.byte	0x50
 2696 11fe 23       		.byte	0x23
 2697 11ff 0C       		.uleb128 0xc
 2698 1200 00       		.byte	0
 2699 1201 00       		.byte	0
 2700 1202 00       		.byte	0
 2701 1203 26       		.uleb128 0x26
 2702 1204 7E080000 		.4byte	0x87e
 2703 1208 13120000 		.4byte	0x1213
 2704 120c 27       		.uleb128 0x27
 2705 120d 70040000 		.4byte	0x470
 2706 1211 0D       		.byte	0xd
 2707 1212 00       		.byte	0
 2708 1213 16       		.uleb128 0x16
 2709 1214 03120000 		.4byte	0x1203
 2710 1218 34       		.uleb128 0x34
 2711 1219 13010000 		.4byte	.LASF179
 2712 121d 01       		.byte	0x1
 2713 121e 1501     		.2byte	0x115
 2714 1220 00000000 		.4byte	.LFB285
 2715 1224 06000000 		.4byte	.LFE285-.LFB285
 2716 1228 01       		.uleb128 0x1
 2717 1229 9C       		.byte	0x9c
 2718 122a 75120000 		.4byte	0x1275
 2719 122e 35       		.uleb128 0x35
 2720 122f 4C010000 		.4byte	.LASF167
 2721 1233 01       		.byte	0x1
 2722 1234 1501     		.2byte	0x115
 2723 1236 BD0B0000 		.4byte	0xbbd
 2724 123a 85020000 		.4byte	.LLST18
 2725 123e 28       		.uleb128 0x28
 2726 123f 22070000 		.4byte	.LASF169
 2727 1243 75120000 		.4byte	0x1275
 2728 1247 2A       		.uleb128 0x2a
 2729 1248 340B0000 		.4byte	0xb34
 2730 124c 00000000 		.4byte	.LBB144
 2731 1250 06000000 		.4byte	.LBE144-.LBB144
 2732 1254 01       		.byte	0x1
 2733 1255 1901     		.2byte	0x119
 2734 1257 22       		.uleb128 0x22
 2735 1258 410B0000 		.4byte	0xb41
 2736 125c B3020000 		.4byte	.LLST19
ARM GAS  /tmp/ccuVlvbs.s 			page 49


 2737 1260 23       		.uleb128 0x23
 2738 1261 06000000 		.4byte	.LVL32
 2739 1265 50130000 		.4byte	0x1350
 2740 1269 24       		.uleb128 0x24
 2741 126a 01       		.uleb128 0x1
 2742 126b 50       		.byte	0x50
 2743 126c 05       		.uleb128 0x5
 2744 126d F3       		.byte	0xf3
 2745 126e 01       		.uleb128 0x1
 2746 126f 50       		.byte	0x50
 2747 1270 23       		.byte	0x23
 2748 1271 0C       		.uleb128 0xc
 2749 1272 00       		.byte	0
 2750 1273 00       		.byte	0
 2751 1274 00       		.byte	0
 2752 1275 16       		.uleb128 0x16
 2753 1276 03120000 		.4byte	0x1203
 2754 127a 36       		.uleb128 0x36
 2755 127b 3F010000 		.4byte	.LASF180
 2756 127f 15       		.byte	0x15
 2757 1280 4407     		.2byte	0x744
 2758 1282 86120000 		.4byte	0x1286
 2759 1286 0F       		.uleb128 0xf
 2760 1287 C3000000 		.4byte	0xc3
 2761 128b 37       		.uleb128 0x37
 2762 128c 636800   		.ascii	"ch\000"
 2763 128f 0A       		.byte	0xa
 2764 1290 D201     		.2byte	0x1d2
 2765 1292 0A040000 		.4byte	0x40a
 2766 1296 38       		.uleb128 0x38
 2767 1297 B1080000 		.4byte	.LASF181
 2768 129b 14       		.byte	0x14
 2769 129c 0D02     		.2byte	0x20d
 2770 129e 39       		.uleb128 0x39
 2771 129f 43070000 		.4byte	.LASF184
 2772 12a3 11       		.byte	0x11
 2773 12a4 66       		.byte	0x66
 2774 12a5 AF120000 		.4byte	0x12af
 2775 12a9 0D       		.uleb128 0xd
 2776 12aa A1080000 		.4byte	0x8a1
 2777 12ae 00       		.byte	0
 2778 12af 3A       		.uleb128 0x3a
 2779 12b0 AC050000 		.4byte	.LASF182
 2780 12b4 0F       		.byte	0xf
 2781 12b5 4F       		.byte	0x4f
 2782 12b6 3A       		.uleb128 0x3a
 2783 12b7 1D050000 		.4byte	.LASF183
 2784 12bb 0F       		.byte	0xf
 2785 12bc 50       		.byte	0x50
 2786 12bd 3B       		.uleb128 0x3b
 2787 12be 0F050000 		.4byte	.LASF185
 2788 12c2 14       		.byte	0x14
 2789 12c3 0E02     		.2byte	0x20e
 2790 12c5 CF120000 		.4byte	0x12cf
 2791 12c9 0D       		.uleb128 0xd
 2792 12ca BD0B0000 		.4byte	0xbbd
 2793 12ce 00       		.byte	0
ARM GAS  /tmp/ccuVlvbs.s 			page 50


 2794 12cf 3B       		.uleb128 0x3b
 2795 12d0 F9040000 		.4byte	.LASF186
 2796 12d4 14       		.byte	0x14
 2797 12d5 0F02     		.2byte	0x20f
 2798 12d7 E1120000 		.4byte	0x12e1
 2799 12db 0D       		.uleb128 0xd
 2800 12dc BD0B0000 		.4byte	0xbbd
 2801 12e0 00       		.byte	0
 2802 12e1 3C       		.uleb128 0x3c
 2803 12e2 CD010000 		.4byte	.LASF187
 2804 12e6 14       		.byte	0x14
 2805 12e7 1002     		.2byte	0x210
 2806 12e9 26010000 		.4byte	0x126
 2807 12ed 15130000 		.4byte	0x1315
 2808 12f1 0D       		.uleb128 0xd
 2809 12f2 BD0B0000 		.4byte	0xbbd
 2810 12f6 0D       		.uleb128 0xd
 2811 12f7 65090000 		.4byte	0x965
 2812 12fb 0D       		.uleb128 0xd
 2813 12fc 11090000 		.4byte	0x911
 2814 1300 0D       		.uleb128 0xd
 2815 1301 2C000000 		.4byte	0x2c
 2816 1305 0D       		.uleb128 0xd
 2817 1306 1C090000 		.4byte	0x91c
 2818 130a 0D       		.uleb128 0xd
 2819 130b 2C000000 		.4byte	0x2c
 2820 130f 0D       		.uleb128 0xd
 2821 1310 52010000 		.4byte	0x152
 2822 1314 00       		.byte	0
 2823 1315 3C       		.uleb128 0x3c
 2824 1316 A4000000 		.4byte	.LASF188
 2825 131a 14       		.byte	0x14
 2826 131b 1402     		.2byte	0x214
 2827 131d 26010000 		.4byte	0x126
 2828 1321 3F130000 		.4byte	0x133f
 2829 1325 0D       		.uleb128 0xd
 2830 1326 BD0B0000 		.4byte	0xbbd
 2831 132a 0D       		.uleb128 0xd
 2832 132b 65090000 		.4byte	0x965
 2833 132f 0D       		.uleb128 0xd
 2834 1330 1C090000 		.4byte	0x91c
 2835 1334 0D       		.uleb128 0xd
 2836 1335 2C000000 		.4byte	0x2c
 2837 1339 0D       		.uleb128 0xd
 2838 133a 52010000 		.4byte	0x152
 2839 133e 00       		.byte	0
 2840 133f 39       		.uleb128 0x39
 2841 1340 CA050000 		.4byte	.LASF189
 2842 1344 11       		.byte	0x11
 2843 1345 67       		.byte	0x67
 2844 1346 50130000 		.4byte	0x1350
 2845 134a 0D       		.uleb128 0xd
 2846 134b A1080000 		.4byte	0x8a1
 2847 134f 00       		.byte	0
 2848 1350 3D       		.uleb128 0x3d
 2849 1351 9E010000 		.4byte	.LASF193
 2850 1355 11       		.byte	0x11
ARM GAS  /tmp/ccuVlvbs.s 			page 51


 2851 1356 6B       		.byte	0x6b
 2852 1357 0D       		.uleb128 0xd
 2853 1358 A1080000 		.4byte	0x8a1
 2854 135c 00       		.byte	0
 2855 135d 00       		.byte	0
 2856              		.section	.debug_abbrev,"",%progbits
 2857              	.Ldebug_abbrev0:
 2858 0000 01       		.uleb128 0x1
 2859 0001 11       		.uleb128 0x11
 2860 0002 01       		.byte	0x1
 2861 0003 25       		.uleb128 0x25
 2862 0004 0E       		.uleb128 0xe
 2863 0005 13       		.uleb128 0x13
 2864 0006 0B       		.uleb128 0xb
 2865 0007 03       		.uleb128 0x3
 2866 0008 0E       		.uleb128 0xe
 2867 0009 1B       		.uleb128 0x1b
 2868 000a 0E       		.uleb128 0xe
 2869 000b 55       		.uleb128 0x55
 2870 000c 17       		.uleb128 0x17
 2871 000d 11       		.uleb128 0x11
 2872 000e 01       		.uleb128 0x1
 2873 000f 10       		.uleb128 0x10
 2874 0010 17       		.uleb128 0x17
 2875 0011 00       		.byte	0
 2876 0012 00       		.byte	0
 2877 0013 02       		.uleb128 0x2
 2878 0014 24       		.uleb128 0x24
 2879 0015 00       		.byte	0
 2880 0016 0B       		.uleb128 0xb
 2881 0017 0B       		.uleb128 0xb
 2882 0018 3E       		.uleb128 0x3e
 2883 0019 0B       		.uleb128 0xb
 2884 001a 03       		.uleb128 0x3
 2885 001b 08       		.uleb128 0x8
 2886 001c 00       		.byte	0
 2887 001d 00       		.byte	0
 2888 001e 03       		.uleb128 0x3
 2889 001f 16       		.uleb128 0x16
 2890 0020 00       		.byte	0
 2891 0021 03       		.uleb128 0x3
 2892 0022 0E       		.uleb128 0xe
 2893 0023 3A       		.uleb128 0x3a
 2894 0024 0B       		.uleb128 0xb
 2895 0025 3B       		.uleb128 0x3b
 2896 0026 0B       		.uleb128 0xb
 2897 0027 49       		.uleb128 0x49
 2898 0028 13       		.uleb128 0x13
 2899 0029 00       		.byte	0
 2900 002a 00       		.byte	0
 2901 002b 04       		.uleb128 0x4
 2902 002c 24       		.uleb128 0x24
 2903 002d 00       		.byte	0
 2904 002e 0B       		.uleb128 0xb
 2905 002f 0B       		.uleb128 0xb
 2906 0030 3E       		.uleb128 0x3e
 2907 0031 0B       		.uleb128 0xb
ARM GAS  /tmp/ccuVlvbs.s 			page 52


 2908 0032 03       		.uleb128 0x3
 2909 0033 0E       		.uleb128 0xe
 2910 0034 00       		.byte	0
 2911 0035 00       		.byte	0
 2912 0036 05       		.uleb128 0x5
 2913 0037 13       		.uleb128 0x13
 2914 0038 01       		.byte	0x1
 2915 0039 03       		.uleb128 0x3
 2916 003a 0E       		.uleb128 0xe
 2917 003b 0B       		.uleb128 0xb
 2918 003c 0B       		.uleb128 0xb
 2919 003d 3A       		.uleb128 0x3a
 2920 003e 0B       		.uleb128 0xb
 2921 003f 3B       		.uleb128 0x3b
 2922 0040 0B       		.uleb128 0xb
 2923 0041 01       		.uleb128 0x1
 2924 0042 13       		.uleb128 0x13
 2925 0043 00       		.byte	0
 2926 0044 00       		.byte	0
 2927 0045 06       		.uleb128 0x6
 2928 0046 0D       		.uleb128 0xd
 2929 0047 00       		.byte	0
 2930 0048 03       		.uleb128 0x3
 2931 0049 0E       		.uleb128 0xe
 2932 004a 3A       		.uleb128 0x3a
 2933 004b 0B       		.uleb128 0xb
 2934 004c 3B       		.uleb128 0x3b
 2935 004d 0B       		.uleb128 0xb
 2936 004e 49       		.uleb128 0x49
 2937 004f 13       		.uleb128 0x13
 2938 0050 38       		.uleb128 0x38
 2939 0051 0B       		.uleb128 0xb
 2940 0052 00       		.byte	0
 2941 0053 00       		.byte	0
 2942 0054 07       		.uleb128 0x7
 2943 0055 0D       		.uleb128 0xd
 2944 0056 00       		.byte	0
 2945 0057 03       		.uleb128 0x3
 2946 0058 08       		.uleb128 0x8
 2947 0059 3A       		.uleb128 0x3a
 2948 005a 0B       		.uleb128 0xb
 2949 005b 3B       		.uleb128 0x3b
 2950 005c 0B       		.uleb128 0xb
 2951 005d 49       		.uleb128 0x49
 2952 005e 13       		.uleb128 0x13
 2953 005f 38       		.uleb128 0x38
 2954 0060 0B       		.uleb128 0xb
 2955 0061 00       		.byte	0
 2956 0062 00       		.byte	0
 2957 0063 08       		.uleb128 0x8
 2958 0064 0D       		.uleb128 0xd
 2959 0065 00       		.byte	0
 2960 0066 03       		.uleb128 0x3
 2961 0067 08       		.uleb128 0x8
 2962 0068 3A       		.uleb128 0x3a
 2963 0069 0B       		.uleb128 0xb
 2964 006a 3B       		.uleb128 0x3b
ARM GAS  /tmp/ccuVlvbs.s 			page 53


 2965 006b 05       		.uleb128 0x5
 2966 006c 49       		.uleb128 0x49
 2967 006d 13       		.uleb128 0x13
 2968 006e 38       		.uleb128 0x38
 2969 006f 0B       		.uleb128 0xb
 2970 0070 00       		.byte	0
 2971 0071 00       		.byte	0
 2972 0072 09       		.uleb128 0x9
 2973 0073 0D       		.uleb128 0xd
 2974 0074 00       		.byte	0
 2975 0075 03       		.uleb128 0x3
 2976 0076 0E       		.uleb128 0xe
 2977 0077 3A       		.uleb128 0x3a
 2978 0078 0B       		.uleb128 0xb
 2979 0079 3B       		.uleb128 0x3b
 2980 007a 05       		.uleb128 0x5
 2981 007b 49       		.uleb128 0x49
 2982 007c 13       		.uleb128 0x13
 2983 007d 38       		.uleb128 0x38
 2984 007e 0B       		.uleb128 0xb
 2985 007f 00       		.byte	0
 2986 0080 00       		.byte	0
 2987 0081 0A       		.uleb128 0xa
 2988 0082 0F       		.uleb128 0xf
 2989 0083 00       		.byte	0
 2990 0084 0B       		.uleb128 0xb
 2991 0085 0B       		.uleb128 0xb
 2992 0086 49       		.uleb128 0x49
 2993 0087 13       		.uleb128 0x13
 2994 0088 00       		.byte	0
 2995 0089 00       		.byte	0
 2996 008a 0B       		.uleb128 0xb
 2997 008b 13       		.uleb128 0x13
 2998 008c 01       		.byte	0x1
 2999 008d 03       		.uleb128 0x3
 3000 008e 0E       		.uleb128 0xe
 3001 008f 0B       		.uleb128 0xb
 3002 0090 0B       		.uleb128 0xb
 3003 0091 3A       		.uleb128 0x3a
 3004 0092 0B       		.uleb128 0xb
 3005 0093 3B       		.uleb128 0x3b
 3006 0094 05       		.uleb128 0x5
 3007 0095 01       		.uleb128 0x1
 3008 0096 13       		.uleb128 0x13
 3009 0097 00       		.byte	0
 3010 0098 00       		.byte	0
 3011 0099 0C       		.uleb128 0xc
 3012 009a 15       		.uleb128 0x15
 3013 009b 01       		.byte	0x1
 3014 009c 27       		.uleb128 0x27
 3015 009d 19       		.uleb128 0x19
 3016 009e 01       		.uleb128 0x1
 3017 009f 13       		.uleb128 0x13
 3018 00a0 00       		.byte	0
 3019 00a1 00       		.byte	0
 3020 00a2 0D       		.uleb128 0xd
 3021 00a3 05       		.uleb128 0x5
ARM GAS  /tmp/ccuVlvbs.s 			page 54


 3022 00a4 00       		.byte	0
 3023 00a5 49       		.uleb128 0x49
 3024 00a6 13       		.uleb128 0x13
 3025 00a7 00       		.byte	0
 3026 00a8 00       		.byte	0
 3027 00a9 0E       		.uleb128 0xe
 3028 00aa 0F       		.uleb128 0xf
 3029 00ab 00       		.byte	0
 3030 00ac 0B       		.uleb128 0xb
 3031 00ad 0B       		.uleb128 0xb
 3032 00ae 00       		.byte	0
 3033 00af 00       		.byte	0
 3034 00b0 0F       		.uleb128 0xf
 3035 00b1 35       		.uleb128 0x35
 3036 00b2 00       		.byte	0
 3037 00b3 49       		.uleb128 0x49
 3038 00b4 13       		.uleb128 0x13
 3039 00b5 00       		.byte	0
 3040 00b6 00       		.byte	0
 3041 00b7 10       		.uleb128 0x10
 3042 00b8 13       		.uleb128 0x13
 3043 00b9 01       		.byte	0x1
 3044 00ba 0B       		.uleb128 0xb
 3045 00bb 0B       		.uleb128 0xb
 3046 00bc 3A       		.uleb128 0x3a
 3047 00bd 0B       		.uleb128 0xb
 3048 00be 3B       		.uleb128 0x3b
 3049 00bf 05       		.uleb128 0x5
 3050 00c0 01       		.uleb128 0x1
 3051 00c1 13       		.uleb128 0x13
 3052 00c2 00       		.byte	0
 3053 00c3 00       		.byte	0
 3054 00c4 11       		.uleb128 0x11
 3055 00c5 16       		.uleb128 0x16
 3056 00c6 00       		.byte	0
 3057 00c7 03       		.uleb128 0x3
 3058 00c8 0E       		.uleb128 0xe
 3059 00c9 3A       		.uleb128 0x3a
 3060 00ca 0B       		.uleb128 0xb
 3061 00cb 3B       		.uleb128 0x3b
 3062 00cc 05       		.uleb128 0x5
 3063 00cd 49       		.uleb128 0x49
 3064 00ce 13       		.uleb128 0x13
 3065 00cf 00       		.byte	0
 3066 00d0 00       		.byte	0
 3067 00d1 12       		.uleb128 0x12
 3068 00d2 13       		.uleb128 0x13
 3069 00d3 01       		.byte	0x1
 3070 00d4 0B       		.uleb128 0xb
 3071 00d5 0B       		.uleb128 0xb
 3072 00d6 3A       		.uleb128 0x3a
 3073 00d7 0B       		.uleb128 0xb
 3074 00d8 3B       		.uleb128 0x3b
 3075 00d9 0B       		.uleb128 0xb
 3076 00da 01       		.uleb128 0x1
 3077 00db 13       		.uleb128 0x13
 3078 00dc 00       		.byte	0
ARM GAS  /tmp/ccuVlvbs.s 			page 55


 3079 00dd 00       		.byte	0
 3080 00de 13       		.uleb128 0x13
 3081 00df 17       		.uleb128 0x17
 3082 00e0 01       		.byte	0x1
 3083 00e1 0B       		.uleb128 0xb
 3084 00e2 0B       		.uleb128 0xb
 3085 00e3 3A       		.uleb128 0x3a
 3086 00e4 0B       		.uleb128 0xb
 3087 00e5 3B       		.uleb128 0x3b
 3088 00e6 0B       		.uleb128 0xb
 3089 00e7 01       		.uleb128 0x1
 3090 00e8 13       		.uleb128 0x13
 3091 00e9 00       		.byte	0
 3092 00ea 00       		.byte	0
 3093 00eb 14       		.uleb128 0x14
 3094 00ec 0D       		.uleb128 0xd
 3095 00ed 00       		.byte	0
 3096 00ee 03       		.uleb128 0x3
 3097 00ef 0E       		.uleb128 0xe
 3098 00f0 3A       		.uleb128 0x3a
 3099 00f1 0B       		.uleb128 0xb
 3100 00f2 3B       		.uleb128 0x3b
 3101 00f3 0B       		.uleb128 0xb
 3102 00f4 49       		.uleb128 0x49
 3103 00f5 13       		.uleb128 0x13
 3104 00f6 00       		.byte	0
 3105 00f7 00       		.byte	0
 3106 00f8 15       		.uleb128 0x15
 3107 00f9 0D       		.uleb128 0xd
 3108 00fa 00       		.byte	0
 3109 00fb 03       		.uleb128 0x3
 3110 00fc 0E       		.uleb128 0xe
 3111 00fd 3A       		.uleb128 0x3a
 3112 00fe 0B       		.uleb128 0xb
 3113 00ff 3B       		.uleb128 0x3b
 3114 0100 05       		.uleb128 0x5
 3115 0101 49       		.uleb128 0x49
 3116 0102 13       		.uleb128 0x13
 3117 0103 00       		.byte	0
 3118 0104 00       		.byte	0
 3119 0105 16       		.uleb128 0x16
 3120 0106 26       		.uleb128 0x26
 3121 0107 00       		.byte	0
 3122 0108 49       		.uleb128 0x49
 3123 0109 13       		.uleb128 0x13
 3124 010a 00       		.byte	0
 3125 010b 00       		.byte	0
 3126 010c 17       		.uleb128 0x17
 3127 010d 04       		.uleb128 0x4
 3128 010e 01       		.byte	0x1
 3129 010f 0B       		.uleb128 0xb
 3130 0110 0B       		.uleb128 0xb
 3131 0111 3A       		.uleb128 0x3a
 3132 0112 0B       		.uleb128 0xb
 3133 0113 3B       		.uleb128 0x3b
 3134 0114 0B       		.uleb128 0xb
 3135 0115 01       		.uleb128 0x1
ARM GAS  /tmp/ccuVlvbs.s 			page 56


 3136 0116 13       		.uleb128 0x13
 3137 0117 00       		.byte	0
 3138 0118 00       		.byte	0
 3139 0119 18       		.uleb128 0x18
 3140 011a 28       		.uleb128 0x28
 3141 011b 00       		.byte	0
 3142 011c 03       		.uleb128 0x3
 3143 011d 0E       		.uleb128 0xe
 3144 011e 1C       		.uleb128 0x1c
 3145 011f 0D       		.uleb128 0xd
 3146 0120 00       		.byte	0
 3147 0121 00       		.byte	0
 3148 0122 19       		.uleb128 0x19
 3149 0123 04       		.uleb128 0x4
 3150 0124 01       		.byte	0x1
 3151 0125 0B       		.uleb128 0xb
 3152 0126 0B       		.uleb128 0xb
 3153 0127 3A       		.uleb128 0x3a
 3154 0128 0B       		.uleb128 0xb
 3155 0129 3B       		.uleb128 0x3b
 3156 012a 05       		.uleb128 0x5
 3157 012b 01       		.uleb128 0x1
 3158 012c 13       		.uleb128 0x13
 3159 012d 00       		.byte	0
 3160 012e 00       		.byte	0
 3161 012f 1A       		.uleb128 0x1a
 3162 0130 2E       		.uleb128 0x2e
 3163 0131 01       		.byte	0x1
 3164 0132 03       		.uleb128 0x3
 3165 0133 0E       		.uleb128 0xe
 3166 0134 3A       		.uleb128 0x3a
 3167 0135 0B       		.uleb128 0xb
 3168 0136 3B       		.uleb128 0x3b
 3169 0137 05       		.uleb128 0x5
 3170 0138 27       		.uleb128 0x27
 3171 0139 19       		.uleb128 0x19
 3172 013a 20       		.uleb128 0x20
 3173 013b 0B       		.uleb128 0xb
 3174 013c 01       		.uleb128 0x1
 3175 013d 13       		.uleb128 0x13
 3176 013e 00       		.byte	0
 3177 013f 00       		.byte	0
 3178 0140 1B       		.uleb128 0x1b
 3179 0141 05       		.uleb128 0x5
 3180 0142 00       		.byte	0
 3181 0143 03       		.uleb128 0x3
 3182 0144 0E       		.uleb128 0xe
 3183 0145 3A       		.uleb128 0x3a
 3184 0146 0B       		.uleb128 0xb
 3185 0147 3B       		.uleb128 0x3b
 3186 0148 05       		.uleb128 0x5
 3187 0149 49       		.uleb128 0x49
 3188 014a 13       		.uleb128 0x13
 3189 014b 00       		.byte	0
 3190 014c 00       		.byte	0
 3191 014d 1C       		.uleb128 0x1c
 3192 014e 2E       		.uleb128 0x2e
ARM GAS  /tmp/ccuVlvbs.s 			page 57


 3193 014f 00       		.byte	0
 3194 0150 03       		.uleb128 0x3
 3195 0151 0E       		.uleb128 0xe
 3196 0152 3A       		.uleb128 0x3a
 3197 0153 0B       		.uleb128 0xb
 3198 0154 3B       		.uleb128 0x3b
 3199 0155 05       		.uleb128 0x5
 3200 0156 27       		.uleb128 0x27
 3201 0157 19       		.uleb128 0x19
 3202 0158 20       		.uleb128 0x20
 3203 0159 0B       		.uleb128 0xb
 3204 015a 00       		.byte	0
 3205 015b 00       		.byte	0
 3206 015c 1D       		.uleb128 0x1d
 3207 015d 05       		.uleb128 0x5
 3208 015e 00       		.byte	0
 3209 015f 03       		.uleb128 0x3
 3210 0160 08       		.uleb128 0x8
 3211 0161 3A       		.uleb128 0x3a
 3212 0162 0B       		.uleb128 0xb
 3213 0163 3B       		.uleb128 0x3b
 3214 0164 05       		.uleb128 0x5
 3215 0165 49       		.uleb128 0x49
 3216 0166 13       		.uleb128 0x13
 3217 0167 00       		.byte	0
 3218 0168 00       		.byte	0
 3219 0169 1E       		.uleb128 0x1e
 3220 016a 2E       		.uleb128 0x2e
 3221 016b 01       		.byte	0x1
 3222 016c 3F       		.uleb128 0x3f
 3223 016d 19       		.uleb128 0x19
 3224 016e 03       		.uleb128 0x3
 3225 016f 0E       		.uleb128 0xe
 3226 0170 3A       		.uleb128 0x3a
 3227 0171 0B       		.uleb128 0xb
 3228 0172 3B       		.uleb128 0x3b
 3229 0173 0B       		.uleb128 0xb
 3230 0174 27       		.uleb128 0x27
 3231 0175 19       		.uleb128 0x19
 3232 0176 11       		.uleb128 0x11
 3233 0177 01       		.uleb128 0x1
 3234 0178 12       		.uleb128 0x12
 3235 0179 06       		.uleb128 0x6
 3236 017a 40       		.uleb128 0x40
 3237 017b 18       		.uleb128 0x18
 3238 017c 9742     		.uleb128 0x2117
 3239 017e 19       		.uleb128 0x19
 3240 017f 01       		.uleb128 0x1
 3241 0180 13       		.uleb128 0x13
 3242 0181 00       		.byte	0
 3243 0182 00       		.byte	0
 3244 0183 1F       		.uleb128 0x1f
 3245 0184 898201   		.uleb128 0x4109
 3246 0187 00       		.byte	0
 3247 0188 11       		.uleb128 0x11
 3248 0189 01       		.uleb128 0x1
 3249 018a 9542     		.uleb128 0x2115
ARM GAS  /tmp/ccuVlvbs.s 			page 58


 3250 018c 19       		.uleb128 0x19
 3251 018d 31       		.uleb128 0x31
 3252 018e 13       		.uleb128 0x13
 3253 018f 00       		.byte	0
 3254 0190 00       		.byte	0
 3255 0191 20       		.uleb128 0x20
 3256 0192 05       		.uleb128 0x5
 3257 0193 00       		.byte	0
 3258 0194 03       		.uleb128 0x3
 3259 0195 0E       		.uleb128 0xe
 3260 0196 3A       		.uleb128 0x3a
 3261 0197 0B       		.uleb128 0xb
 3262 0198 3B       		.uleb128 0x3b
 3263 0199 0B       		.uleb128 0xb
 3264 019a 49       		.uleb128 0x49
 3265 019b 13       		.uleb128 0x13
 3266 019c 02       		.uleb128 0x2
 3267 019d 17       		.uleb128 0x17
 3268 019e 00       		.byte	0
 3269 019f 00       		.byte	0
 3270 01a0 21       		.uleb128 0x21
 3271 01a1 1D       		.uleb128 0x1d
 3272 01a2 01       		.byte	0x1
 3273 01a3 31       		.uleb128 0x31
 3274 01a4 13       		.uleb128 0x13
 3275 01a5 11       		.uleb128 0x11
 3276 01a6 01       		.uleb128 0x1
 3277 01a7 12       		.uleb128 0x12
 3278 01a8 06       		.uleb128 0x6
 3279 01a9 58       		.uleb128 0x58
 3280 01aa 0B       		.uleb128 0xb
 3281 01ab 59       		.uleb128 0x59
 3282 01ac 0B       		.uleb128 0xb
 3283 01ad 00       		.byte	0
 3284 01ae 00       		.byte	0
 3285 01af 22       		.uleb128 0x22
 3286 01b0 05       		.uleb128 0x5
 3287 01b1 00       		.byte	0
 3288 01b2 31       		.uleb128 0x31
 3289 01b3 13       		.uleb128 0x13
 3290 01b4 02       		.uleb128 0x2
 3291 01b5 17       		.uleb128 0x17
 3292 01b6 00       		.byte	0
 3293 01b7 00       		.byte	0
 3294 01b8 23       		.uleb128 0x23
 3295 01b9 898201   		.uleb128 0x4109
 3296 01bc 01       		.byte	0x1
 3297 01bd 11       		.uleb128 0x11
 3298 01be 01       		.uleb128 0x1
 3299 01bf 9542     		.uleb128 0x2115
 3300 01c1 19       		.uleb128 0x19
 3301 01c2 31       		.uleb128 0x31
 3302 01c3 13       		.uleb128 0x13
 3303 01c4 00       		.byte	0
 3304 01c5 00       		.byte	0
 3305 01c6 24       		.uleb128 0x24
 3306 01c7 8A8201   		.uleb128 0x410a
ARM GAS  /tmp/ccuVlvbs.s 			page 59


 3307 01ca 00       		.byte	0
 3308 01cb 02       		.uleb128 0x2
 3309 01cc 18       		.uleb128 0x18
 3310 01cd 9142     		.uleb128 0x2111
 3311 01cf 18       		.uleb128 0x18
 3312 01d0 00       		.byte	0
 3313 01d1 00       		.byte	0
 3314 01d2 25       		.uleb128 0x25
 3315 01d3 34       		.uleb128 0x34
 3316 01d4 00       		.byte	0
 3317 01d5 03       		.uleb128 0x3
 3318 01d6 0E       		.uleb128 0xe
 3319 01d7 49       		.uleb128 0x49
 3320 01d8 13       		.uleb128 0x13
 3321 01d9 34       		.uleb128 0x34
 3322 01da 19       		.uleb128 0x19
 3323 01db 1C       		.uleb128 0x1c
 3324 01dc 0E       		.uleb128 0xe
 3325 01dd 00       		.byte	0
 3326 01de 00       		.byte	0
 3327 01df 26       		.uleb128 0x26
 3328 01e0 01       		.uleb128 0x1
 3329 01e1 01       		.byte	0x1
 3330 01e2 49       		.uleb128 0x49
 3331 01e3 13       		.uleb128 0x13
 3332 01e4 01       		.uleb128 0x1
 3333 01e5 13       		.uleb128 0x13
 3334 01e6 00       		.byte	0
 3335 01e7 00       		.byte	0
 3336 01e8 27       		.uleb128 0x27
 3337 01e9 21       		.uleb128 0x21
 3338 01ea 00       		.byte	0
 3339 01eb 49       		.uleb128 0x49
 3340 01ec 13       		.uleb128 0x13
 3341 01ed 2F       		.uleb128 0x2f
 3342 01ee 0B       		.uleb128 0xb
 3343 01ef 00       		.byte	0
 3344 01f0 00       		.byte	0
 3345 01f1 28       		.uleb128 0x28
 3346 01f2 34       		.uleb128 0x34
 3347 01f3 00       		.byte	0
 3348 01f4 03       		.uleb128 0x3
 3349 01f5 0E       		.uleb128 0xe
 3350 01f6 49       		.uleb128 0x49
 3351 01f7 13       		.uleb128 0x13
 3352 01f8 34       		.uleb128 0x34
 3353 01f9 19       		.uleb128 0x19
 3354 01fa 00       		.byte	0
 3355 01fb 00       		.byte	0
 3356 01fc 29       		.uleb128 0x29
 3357 01fd 1D       		.uleb128 0x1d
 3358 01fe 01       		.byte	0x1
 3359 01ff 31       		.uleb128 0x31
 3360 0200 13       		.uleb128 0x13
 3361 0201 11       		.uleb128 0x11
 3362 0202 01       		.uleb128 0x1
 3363 0203 12       		.uleb128 0x12
ARM GAS  /tmp/ccuVlvbs.s 			page 60


 3364 0204 06       		.uleb128 0x6
 3365 0205 58       		.uleb128 0x58
 3366 0206 0B       		.uleb128 0xb
 3367 0207 59       		.uleb128 0x59
 3368 0208 0B       		.uleb128 0xb
 3369 0209 01       		.uleb128 0x1
 3370 020a 13       		.uleb128 0x13
 3371 020b 00       		.byte	0
 3372 020c 00       		.byte	0
 3373 020d 2A       		.uleb128 0x2a
 3374 020e 1D       		.uleb128 0x1d
 3375 020f 01       		.byte	0x1
 3376 0210 31       		.uleb128 0x31
 3377 0211 13       		.uleb128 0x13
 3378 0212 11       		.uleb128 0x11
 3379 0213 01       		.uleb128 0x1
 3380 0214 12       		.uleb128 0x12
 3381 0215 06       		.uleb128 0x6
 3382 0216 58       		.uleb128 0x58
 3383 0217 0B       		.uleb128 0xb
 3384 0218 59       		.uleb128 0x59
 3385 0219 05       		.uleb128 0x5
 3386 021a 00       		.byte	0
 3387 021b 00       		.byte	0
 3388 021c 2B       		.uleb128 0x2b
 3389 021d 1D       		.uleb128 0x1d
 3390 021e 01       		.byte	0x1
 3391 021f 31       		.uleb128 0x31
 3392 0220 13       		.uleb128 0x13
 3393 0221 11       		.uleb128 0x11
 3394 0222 01       		.uleb128 0x1
 3395 0223 12       		.uleb128 0x12
 3396 0224 06       		.uleb128 0x6
 3397 0225 58       		.uleb128 0x58
 3398 0226 0B       		.uleb128 0xb
 3399 0227 59       		.uleb128 0x59
 3400 0228 05       		.uleb128 0x5
 3401 0229 01       		.uleb128 0x1
 3402 022a 13       		.uleb128 0x13
 3403 022b 00       		.byte	0
 3404 022c 00       		.byte	0
 3405 022d 2C       		.uleb128 0x2c
 3406 022e 05       		.uleb128 0x5
 3407 022f 00       		.byte	0
 3408 0230 31       		.uleb128 0x31
 3409 0231 13       		.uleb128 0x13
 3410 0232 1C       		.uleb128 0x1c
 3411 0233 0B       		.uleb128 0xb
 3412 0234 00       		.byte	0
 3413 0235 00       		.byte	0
 3414 0236 2D       		.uleb128 0x2d
 3415 0237 898201   		.uleb128 0x4109
 3416 023a 00       		.byte	0
 3417 023b 11       		.uleb128 0x11
 3418 023c 01       		.uleb128 0x1
 3419 023d 31       		.uleb128 0x31
 3420 023e 13       		.uleb128 0x13
ARM GAS  /tmp/ccuVlvbs.s 			page 61


 3421 023f 00       		.byte	0
 3422 0240 00       		.byte	0
 3423 0241 2E       		.uleb128 0x2e
 3424 0242 0B       		.uleb128 0xb
 3425 0243 01       		.byte	0x1
 3426 0244 11       		.uleb128 0x11
 3427 0245 01       		.uleb128 0x1
 3428 0246 12       		.uleb128 0x12
 3429 0247 06       		.uleb128 0x6
 3430 0248 00       		.byte	0
 3431 0249 00       		.byte	0
 3432 024a 2F       		.uleb128 0x2f
 3433 024b 34       		.uleb128 0x34
 3434 024c 00       		.byte	0
 3435 024d 31       		.uleb128 0x31
 3436 024e 13       		.uleb128 0x13
 3437 024f 00       		.byte	0
 3438 0250 00       		.byte	0
 3439 0251 30       		.uleb128 0x30
 3440 0252 898201   		.uleb128 0x4109
 3441 0255 01       		.byte	0x1
 3442 0256 11       		.uleb128 0x11
 3443 0257 01       		.uleb128 0x1
 3444 0258 31       		.uleb128 0x31
 3445 0259 13       		.uleb128 0x13
 3446 025a 00       		.byte	0
 3447 025b 00       		.byte	0
 3448 025c 31       		.uleb128 0x31
 3449 025d 2E       		.uleb128 0x2e
 3450 025e 01       		.byte	0x1
 3451 025f 3F       		.uleb128 0x3f
 3452 0260 19       		.uleb128 0x19
 3453 0261 03       		.uleb128 0x3
 3454 0262 0E       		.uleb128 0xe
 3455 0263 3A       		.uleb128 0x3a
 3456 0264 0B       		.uleb128 0xb
 3457 0265 3B       		.uleb128 0x3b
 3458 0266 0B       		.uleb128 0xb
 3459 0267 27       		.uleb128 0x27
 3460 0268 19       		.uleb128 0x19
 3461 0269 49       		.uleb128 0x49
 3462 026a 13       		.uleb128 0x13
 3463 026b 11       		.uleb128 0x11
 3464 026c 01       		.uleb128 0x1
 3465 026d 12       		.uleb128 0x12
 3466 026e 06       		.uleb128 0x6
 3467 026f 40       		.uleb128 0x40
 3468 0270 18       		.uleb128 0x18
 3469 0271 9742     		.uleb128 0x2117
 3470 0273 19       		.uleb128 0x19
 3471 0274 01       		.uleb128 0x1
 3472 0275 13       		.uleb128 0x13
 3473 0276 00       		.byte	0
 3474 0277 00       		.byte	0
 3475 0278 32       		.uleb128 0x32
 3476 0279 05       		.uleb128 0x5
 3477 027a 00       		.byte	0
ARM GAS  /tmp/ccuVlvbs.s 			page 62


 3478 027b 03       		.uleb128 0x3
 3479 027c 0E       		.uleb128 0xe
 3480 027d 3A       		.uleb128 0x3a
 3481 027e 0B       		.uleb128 0xb
 3482 027f 3B       		.uleb128 0x3b
 3483 0280 0B       		.uleb128 0xb
 3484 0281 49       		.uleb128 0x49
 3485 0282 13       		.uleb128 0x13
 3486 0283 02       		.uleb128 0x2
 3487 0284 18       		.uleb128 0x18
 3488 0285 00       		.byte	0
 3489 0286 00       		.byte	0
 3490 0287 33       		.uleb128 0x33
 3491 0288 34       		.uleb128 0x34
 3492 0289 00       		.byte	0
 3493 028a 03       		.uleb128 0x3
 3494 028b 0E       		.uleb128 0xe
 3495 028c 3A       		.uleb128 0x3a
 3496 028d 0B       		.uleb128 0xb
 3497 028e 3B       		.uleb128 0x3b
 3498 028f 0B       		.uleb128 0xb
 3499 0290 49       		.uleb128 0x49
 3500 0291 13       		.uleb128 0x13
 3501 0292 02       		.uleb128 0x2
 3502 0293 17       		.uleb128 0x17
 3503 0294 00       		.byte	0
 3504 0295 00       		.byte	0
 3505 0296 34       		.uleb128 0x34
 3506 0297 2E       		.uleb128 0x2e
 3507 0298 01       		.byte	0x1
 3508 0299 3F       		.uleb128 0x3f
 3509 029a 19       		.uleb128 0x19
 3510 029b 03       		.uleb128 0x3
 3511 029c 0E       		.uleb128 0xe
 3512 029d 3A       		.uleb128 0x3a
 3513 029e 0B       		.uleb128 0xb
 3514 029f 3B       		.uleb128 0x3b
 3515 02a0 05       		.uleb128 0x5
 3516 02a1 27       		.uleb128 0x27
 3517 02a2 19       		.uleb128 0x19
 3518 02a3 11       		.uleb128 0x11
 3519 02a4 01       		.uleb128 0x1
 3520 02a5 12       		.uleb128 0x12
 3521 02a6 06       		.uleb128 0x6
 3522 02a7 40       		.uleb128 0x40
 3523 02a8 18       		.uleb128 0x18
 3524 02a9 9742     		.uleb128 0x2117
 3525 02ab 19       		.uleb128 0x19
 3526 02ac 01       		.uleb128 0x1
 3527 02ad 13       		.uleb128 0x13
 3528 02ae 00       		.byte	0
 3529 02af 00       		.byte	0
 3530 02b0 35       		.uleb128 0x35
 3531 02b1 05       		.uleb128 0x5
 3532 02b2 00       		.byte	0
 3533 02b3 03       		.uleb128 0x3
 3534 02b4 0E       		.uleb128 0xe
ARM GAS  /tmp/ccuVlvbs.s 			page 63


 3535 02b5 3A       		.uleb128 0x3a
 3536 02b6 0B       		.uleb128 0xb
 3537 02b7 3B       		.uleb128 0x3b
 3538 02b8 05       		.uleb128 0x5
 3539 02b9 49       		.uleb128 0x49
 3540 02ba 13       		.uleb128 0x13
 3541 02bb 02       		.uleb128 0x2
 3542 02bc 17       		.uleb128 0x17
 3543 02bd 00       		.byte	0
 3544 02be 00       		.byte	0
 3545 02bf 36       		.uleb128 0x36
 3546 02c0 34       		.uleb128 0x34
 3547 02c1 00       		.byte	0
 3548 02c2 03       		.uleb128 0x3
 3549 02c3 0E       		.uleb128 0xe
 3550 02c4 3A       		.uleb128 0x3a
 3551 02c5 0B       		.uleb128 0xb
 3552 02c6 3B       		.uleb128 0x3b
 3553 02c7 05       		.uleb128 0x5
 3554 02c8 49       		.uleb128 0x49
 3555 02c9 13       		.uleb128 0x13
 3556 02ca 3F       		.uleb128 0x3f
 3557 02cb 19       		.uleb128 0x19
 3558 02cc 3C       		.uleb128 0x3c
 3559 02cd 19       		.uleb128 0x19
 3560 02ce 00       		.byte	0
 3561 02cf 00       		.byte	0
 3562 02d0 37       		.uleb128 0x37
 3563 02d1 34       		.uleb128 0x34
 3564 02d2 00       		.byte	0
 3565 02d3 03       		.uleb128 0x3
 3566 02d4 08       		.uleb128 0x8
 3567 02d5 3A       		.uleb128 0x3a
 3568 02d6 0B       		.uleb128 0xb
 3569 02d7 3B       		.uleb128 0x3b
 3570 02d8 05       		.uleb128 0x5
 3571 02d9 49       		.uleb128 0x49
 3572 02da 13       		.uleb128 0x13
 3573 02db 3F       		.uleb128 0x3f
 3574 02dc 19       		.uleb128 0x19
 3575 02dd 3C       		.uleb128 0x3c
 3576 02de 19       		.uleb128 0x19
 3577 02df 00       		.byte	0
 3578 02e0 00       		.byte	0
 3579 02e1 38       		.uleb128 0x38
 3580 02e2 2E       		.uleb128 0x2e
 3581 02e3 00       		.byte	0
 3582 02e4 3F       		.uleb128 0x3f
 3583 02e5 19       		.uleb128 0x19
 3584 02e6 03       		.uleb128 0x3
 3585 02e7 0E       		.uleb128 0xe
 3586 02e8 3A       		.uleb128 0x3a
 3587 02e9 0B       		.uleb128 0xb
 3588 02ea 3B       		.uleb128 0x3b
 3589 02eb 05       		.uleb128 0x5
 3590 02ec 27       		.uleb128 0x27
 3591 02ed 19       		.uleb128 0x19
ARM GAS  /tmp/ccuVlvbs.s 			page 64


 3592 02ee 3C       		.uleb128 0x3c
 3593 02ef 19       		.uleb128 0x19
 3594 02f0 00       		.byte	0
 3595 02f1 00       		.byte	0
 3596 02f2 39       		.uleb128 0x39
 3597 02f3 2E       		.uleb128 0x2e
 3598 02f4 01       		.byte	0x1
 3599 02f5 3F       		.uleb128 0x3f
 3600 02f6 19       		.uleb128 0x19
 3601 02f7 03       		.uleb128 0x3
 3602 02f8 0E       		.uleb128 0xe
 3603 02f9 3A       		.uleb128 0x3a
 3604 02fa 0B       		.uleb128 0xb
 3605 02fb 3B       		.uleb128 0x3b
 3606 02fc 0B       		.uleb128 0xb
 3607 02fd 27       		.uleb128 0x27
 3608 02fe 19       		.uleb128 0x19
 3609 02ff 3C       		.uleb128 0x3c
 3610 0300 19       		.uleb128 0x19
 3611 0301 01       		.uleb128 0x1
 3612 0302 13       		.uleb128 0x13
 3613 0303 00       		.byte	0
 3614 0304 00       		.byte	0
 3615 0305 3A       		.uleb128 0x3a
 3616 0306 2E       		.uleb128 0x2e
 3617 0307 00       		.byte	0
 3618 0308 3F       		.uleb128 0x3f
 3619 0309 19       		.uleb128 0x19
 3620 030a 03       		.uleb128 0x3
 3621 030b 0E       		.uleb128 0xe
 3622 030c 3A       		.uleb128 0x3a
 3623 030d 0B       		.uleb128 0xb
 3624 030e 3B       		.uleb128 0x3b
 3625 030f 0B       		.uleb128 0xb
 3626 0310 27       		.uleb128 0x27
 3627 0311 19       		.uleb128 0x19
 3628 0312 3C       		.uleb128 0x3c
 3629 0313 19       		.uleb128 0x19
 3630 0314 00       		.byte	0
 3631 0315 00       		.byte	0
 3632 0316 3B       		.uleb128 0x3b
 3633 0317 2E       		.uleb128 0x2e
 3634 0318 01       		.byte	0x1
 3635 0319 3F       		.uleb128 0x3f
 3636 031a 19       		.uleb128 0x19
 3637 031b 03       		.uleb128 0x3
 3638 031c 0E       		.uleb128 0xe
 3639 031d 3A       		.uleb128 0x3a
 3640 031e 0B       		.uleb128 0xb
 3641 031f 3B       		.uleb128 0x3b
 3642 0320 05       		.uleb128 0x5
 3643 0321 27       		.uleb128 0x27
 3644 0322 19       		.uleb128 0x19
 3645 0323 3C       		.uleb128 0x3c
 3646 0324 19       		.uleb128 0x19
 3647 0325 01       		.uleb128 0x1
 3648 0326 13       		.uleb128 0x13
ARM GAS  /tmp/ccuVlvbs.s 			page 65


 3649 0327 00       		.byte	0
 3650 0328 00       		.byte	0
 3651 0329 3C       		.uleb128 0x3c
 3652 032a 2E       		.uleb128 0x2e
 3653 032b 01       		.byte	0x1
 3654 032c 3F       		.uleb128 0x3f
 3655 032d 19       		.uleb128 0x19
 3656 032e 03       		.uleb128 0x3
 3657 032f 0E       		.uleb128 0xe
 3658 0330 3A       		.uleb128 0x3a
 3659 0331 0B       		.uleb128 0xb
 3660 0332 3B       		.uleb128 0x3b
 3661 0333 05       		.uleb128 0x5
 3662 0334 27       		.uleb128 0x27
 3663 0335 19       		.uleb128 0x19
 3664 0336 49       		.uleb128 0x49
 3665 0337 13       		.uleb128 0x13
 3666 0338 3C       		.uleb128 0x3c
 3667 0339 19       		.uleb128 0x19
 3668 033a 01       		.uleb128 0x1
 3669 033b 13       		.uleb128 0x13
 3670 033c 00       		.byte	0
 3671 033d 00       		.byte	0
 3672 033e 3D       		.uleb128 0x3d
 3673 033f 2E       		.uleb128 0x2e
 3674 0340 01       		.byte	0x1
 3675 0341 3F       		.uleb128 0x3f
 3676 0342 19       		.uleb128 0x19
 3677 0343 03       		.uleb128 0x3
 3678 0344 0E       		.uleb128 0xe
 3679 0345 3A       		.uleb128 0x3a
 3680 0346 0B       		.uleb128 0xb
 3681 0347 3B       		.uleb128 0x3b
 3682 0348 0B       		.uleb128 0xb
 3683 0349 27       		.uleb128 0x27
 3684 034a 19       		.uleb128 0x19
 3685 034b 3C       		.uleb128 0x3c
 3686 034c 19       		.uleb128 0x19
 3687 034d 00       		.byte	0
 3688 034e 00       		.byte	0
 3689 034f 00       		.byte	0
 3690              		.section	.debug_loc,"",%progbits
 3691              	.Ldebug_loc0:
 3692              	.LLST0:
 3693 0000 00000000 		.4byte	.LVL1
 3694 0004 0A000000 		.4byte	.LVL3
 3695 0008 0100     		.2byte	0x1
 3696 000a 50       		.byte	0x50
 3697 000b 0A000000 		.4byte	.LVL3
 3698 000f 0D000000 		.4byte	.LVL4-1
 3699 0013 0300     		.2byte	0x3
 3700 0015 70       		.byte	0x70
 3701 0016 74       		.sleb128 -12
 3702 0017 9F       		.byte	0x9f
 3703 0018 0D000000 		.4byte	.LVL4-1
 3704 001c 0E000000 		.4byte	.LFE278
 3705 0020 0400     		.2byte	0x4
ARM GAS  /tmp/ccuVlvbs.s 			page 66


 3706 0022 F3       		.byte	0xf3
 3707 0023 01       		.uleb128 0x1
 3708 0024 50       		.byte	0x50
 3709 0025 9F       		.byte	0x9f
 3710 0026 00000000 		.4byte	0
 3711 002a 00000000 		.4byte	0
 3712              	.LLST1:
 3713 002e 08000000 		.4byte	.LVL2
 3714 0032 0A000000 		.4byte	.LVL3
 3715 0036 0300     		.2byte	0x3
 3716 0038 70       		.byte	0x70
 3717 0039 0C       		.sleb128 12
 3718 003a 9F       		.byte	0x9f
 3719 003b 0A000000 		.4byte	.LVL3
 3720 003f 0D000000 		.4byte	.LVL4-1
 3721 0043 0100     		.2byte	0x1
 3722 0045 50       		.byte	0x50
 3723 0046 0D000000 		.4byte	.LVL4-1
 3724 004a 0E000000 		.4byte	.LFE278
 3725 004e 0600     		.2byte	0x6
 3726 0050 F3       		.byte	0xf3
 3727 0051 01       		.uleb128 0x1
 3728 0052 50       		.byte	0x50
 3729 0053 23       		.byte	0x23
 3730 0054 0C       		.uleb128 0xc
 3731 0055 9F       		.byte	0x9f
 3732 0056 00000000 		.4byte	0
 3733 005a 00000000 		.4byte	0
 3734              	.LLST2:
 3735 005e 00000000 		.4byte	.LVL5
 3736 0062 0F000000 		.4byte	.LVL6-1
 3737 0066 0100     		.2byte	0x1
 3738 0068 50       		.byte	0x50
 3739 0069 0F000000 		.4byte	.LVL6-1
 3740 006d 28000000 		.4byte	.LFE279
 3741 0071 0100     		.2byte	0x1
 3742 0073 54       		.byte	0x54
 3743 0074 00000000 		.4byte	0
 3744 0078 00000000 		.4byte	0
 3745              	.LLST3:
 3746 007c 00000000 		.4byte	.LVL5
 3747 0080 0F000000 		.4byte	.LVL6-1
 3748 0084 0100     		.2byte	0x1
 3749 0086 51       		.byte	0x51
 3750 0087 0F000000 		.4byte	.LVL6-1
 3751 008b 28000000 		.4byte	.LFE279
 3752 008f 0100     		.2byte	0x1
 3753 0091 55       		.byte	0x55
 3754 0092 00000000 		.4byte	0
 3755 0096 00000000 		.4byte	0
 3756              	.LLST4:
 3757 009a 00000000 		.4byte	.LVL9
 3758 009e 0D000000 		.4byte	.LVL10-1
 3759 00a2 0100     		.2byte	0x1
 3760 00a4 50       		.byte	0x50
 3761 00a5 0D000000 		.4byte	.LVL10-1
 3762 00a9 26000000 		.4byte	.LFE280
ARM GAS  /tmp/ccuVlvbs.s 			page 67


 3763 00ad 0100     		.2byte	0x1
 3764 00af 54       		.byte	0x54
 3765 00b0 00000000 		.4byte	0
 3766 00b4 00000000 		.4byte	0
 3767              	.LLST5:
 3768 00b8 00000000 		.4byte	.LVL13
 3769 00bc 02000000 		.4byte	.LVL14
 3770 00c0 0100     		.2byte	0x1
 3771 00c2 50       		.byte	0x50
 3772 00c3 02000000 		.4byte	.LVL14
 3773 00c7 04000000 		.4byte	.LFE281
 3774 00cb 0400     		.2byte	0x4
 3775 00cd F3       		.byte	0xf3
 3776 00ce 01       		.uleb128 0x1
 3777 00cf 50       		.byte	0x50
 3778 00d0 9F       		.byte	0x9f
 3779 00d1 00000000 		.4byte	0
 3780 00d5 00000000 		.4byte	0
 3781              	.LLST6:
 3782 00d9 00000000 		.4byte	.LVL15
 3783 00dd 15000000 		.4byte	.LVL17-1
 3784 00e1 0100     		.2byte	0x1
 3785 00e3 50       		.byte	0x50
 3786 00e4 15000000 		.4byte	.LVL17-1
 3787 00e8 52000000 		.4byte	.LFE282
 3788 00ec 0100     		.2byte	0x1
 3789 00ee 54       		.byte	0x54
 3790 00ef 00000000 		.4byte	0
 3791 00f3 00000000 		.4byte	0
 3792              	.LLST7:
 3793 00f7 00000000 		.4byte	.LVL15
 3794 00fb 15000000 		.4byte	.LVL17-1
 3795 00ff 0100     		.2byte	0x1
 3796 0101 51       		.byte	0x51
 3797 0102 15000000 		.4byte	.LVL17-1
 3798 0106 52000000 		.4byte	.LFE282
 3799 010a 0400     		.2byte	0x4
 3800 010c F3       		.byte	0xf3
 3801 010d 01       		.uleb128 0x1
 3802 010e 51       		.byte	0x51
 3803 010f 9F       		.byte	0x9f
 3804 0110 00000000 		.4byte	0
 3805 0114 00000000 		.4byte	0
 3806              	.LLST8:
 3807 0118 00000000 		.4byte	.LVL15
 3808 011c 15000000 		.4byte	.LVL17-1
 3809 0120 0100     		.2byte	0x1
 3810 0122 52       		.byte	0x52
 3811 0123 15000000 		.4byte	.LVL17-1
 3812 0127 52000000 		.4byte	.LFE282
 3813 012b 0100     		.2byte	0x1
 3814 012d 57       		.byte	0x57
 3815 012e 00000000 		.4byte	0
 3816 0132 00000000 		.4byte	0
 3817              	.LLST9:
 3818 0136 00000000 		.4byte	.LVL15
 3819 013a 0E000000 		.4byte	.LVL16
ARM GAS  /tmp/ccuVlvbs.s 			page 68


 3820 013e 0100     		.2byte	0x1
 3821 0140 53       		.byte	0x53
 3822 0141 0E000000 		.4byte	.LVL16
 3823 0145 42000000 		.4byte	.LVL19
 3824 0149 0100     		.2byte	0x1
 3825 014b 56       		.byte	0x56
 3826 014c 42000000 		.4byte	.LVL19
 3827 0150 52000000 		.4byte	.LFE282
 3828 0154 0400     		.2byte	0x4
 3829 0156 F3       		.byte	0xf3
 3830 0157 01       		.uleb128 0x1
 3831 0158 53       		.byte	0x53
 3832 0159 9F       		.byte	0x9f
 3833 015a 00000000 		.4byte	0
 3834 015e 00000000 		.4byte	0
 3835              	.LLST10:
 3836 0162 42000000 		.4byte	.LVL19
 3837 0166 45000000 		.4byte	.LVL20-1
 3838 016a 0100     		.2byte	0x1
 3839 016c 50       		.byte	0x50
 3840 016d 45000000 		.4byte	.LVL20-1
 3841 0171 52000000 		.4byte	.LFE282
 3842 0175 0100     		.2byte	0x1
 3843 0177 56       		.byte	0x56
 3844 0178 00000000 		.4byte	0
 3845 017c 00000000 		.4byte	0
 3846              	.LLST11:
 3847 0180 00000000 		.4byte	.LVL21
 3848 0184 15000000 		.4byte	.LVL23-1
 3849 0188 0100     		.2byte	0x1
 3850 018a 50       		.byte	0x50
 3851 018b 15000000 		.4byte	.LVL23-1
 3852 018f 4A000000 		.4byte	.LFE283
 3853 0193 0100     		.2byte	0x1
 3854 0195 54       		.byte	0x54
 3855 0196 00000000 		.4byte	0
 3856 019a 00000000 		.4byte	0
 3857              	.LLST12:
 3858 019e 00000000 		.4byte	.LVL21
 3859 01a2 15000000 		.4byte	.LVL23-1
 3860 01a6 0100     		.2byte	0x1
 3861 01a8 51       		.byte	0x51
 3862 01a9 15000000 		.4byte	.LVL23-1
 3863 01ad 4A000000 		.4byte	.LFE283
 3864 01b1 0400     		.2byte	0x4
 3865 01b3 F3       		.byte	0xf3
 3866 01b4 01       		.uleb128 0x1
 3867 01b5 51       		.byte	0x51
 3868 01b6 9F       		.byte	0x9f
 3869 01b7 00000000 		.4byte	0
 3870 01bb 00000000 		.4byte	0
 3871              	.LLST13:
 3872 01bf 00000000 		.4byte	.LVL21
 3873 01c3 15000000 		.4byte	.LVL23-1
 3874 01c7 0100     		.2byte	0x1
 3875 01c9 52       		.byte	0x52
 3876 01ca 15000000 		.4byte	.LVL23-1
ARM GAS  /tmp/ccuVlvbs.s 			page 69


 3877 01ce 4A000000 		.4byte	.LFE283
 3878 01d2 0100     		.2byte	0x1
 3879 01d4 57       		.byte	0x57
 3880 01d5 00000000 		.4byte	0
 3881 01d9 00000000 		.4byte	0
 3882              	.LLST14:
 3883 01dd 00000000 		.4byte	.LVL21
 3884 01e1 0E000000 		.4byte	.LVL22
 3885 01e5 0100     		.2byte	0x1
 3886 01e7 53       		.byte	0x53
 3887 01e8 0E000000 		.4byte	.LVL22
 3888 01ec 3A000000 		.4byte	.LVL25
 3889 01f0 0100     		.2byte	0x1
 3890 01f2 56       		.byte	0x56
 3891 01f3 3A000000 		.4byte	.LVL25
 3892 01f7 4A000000 		.4byte	.LFE283
 3893 01fb 0400     		.2byte	0x4
 3894 01fd F3       		.byte	0xf3
 3895 01fe 01       		.uleb128 0x1
 3896 01ff 53       		.byte	0x53
 3897 0200 9F       		.byte	0x9f
 3898 0201 00000000 		.4byte	0
 3899 0205 00000000 		.4byte	0
 3900              	.LLST15:
 3901 0209 3A000000 		.4byte	.LVL25
 3902 020d 3D000000 		.4byte	.LVL26-1
 3903 0211 0100     		.2byte	0x1
 3904 0213 50       		.byte	0x50
 3905 0214 3D000000 		.4byte	.LVL26-1
 3906 0218 4A000000 		.4byte	.LFE283
 3907 021c 0100     		.2byte	0x1
 3908 021e 56       		.byte	0x56
 3909 021f 00000000 		.4byte	0
 3910 0223 00000000 		.4byte	0
 3911              	.LLST16:
 3912 0227 00000000 		.4byte	.LVL27
 3913 022b 02000000 		.4byte	.LVL28
 3914 022f 0100     		.2byte	0x1
 3915 0231 50       		.byte	0x50
 3916 0232 02000000 		.4byte	.LVL28
 3917 0236 05000000 		.4byte	.LVL29-1
 3918 023a 0300     		.2byte	0x3
 3919 023c 70       		.byte	0x70
 3920 023d 74       		.sleb128 -12
 3921 023e 9F       		.byte	0x9f
 3922 023f 05000000 		.4byte	.LVL29-1
 3923 0243 06000000 		.4byte	.LFE284
 3924 0247 0400     		.2byte	0x4
 3925 0249 F3       		.byte	0xf3
 3926 024a 01       		.uleb128 0x1
 3927 024b 50       		.byte	0x50
 3928 024c 9F       		.byte	0x9f
 3929 024d 00000000 		.4byte	0
 3930 0251 00000000 		.4byte	0
 3931              	.LLST17:
 3932 0255 00000000 		.4byte	.LVL27
 3933 0259 02000000 		.4byte	.LVL28
ARM GAS  /tmp/ccuVlvbs.s 			page 70


 3934 025d 0300     		.2byte	0x3
 3935 025f 70       		.byte	0x70
 3936 0260 0C       		.sleb128 12
 3937 0261 9F       		.byte	0x9f
 3938 0262 02000000 		.4byte	.LVL28
 3939 0266 05000000 		.4byte	.LVL29-1
 3940 026a 0100     		.2byte	0x1
 3941 026c 50       		.byte	0x50
 3942 026d 05000000 		.4byte	.LVL29-1
 3943 0271 06000000 		.4byte	.LFE284
 3944 0275 0600     		.2byte	0x6
 3945 0277 F3       		.byte	0xf3
 3946 0278 01       		.uleb128 0x1
 3947 0279 50       		.byte	0x50
 3948 027a 23       		.byte	0x23
 3949 027b 0C       		.uleb128 0xc
 3950 027c 9F       		.byte	0x9f
 3951 027d 00000000 		.4byte	0
 3952 0281 00000000 		.4byte	0
 3953              	.LLST18:
 3954 0285 00000000 		.4byte	.LVL30
 3955 0289 02000000 		.4byte	.LVL31
 3956 028d 0100     		.2byte	0x1
 3957 028f 50       		.byte	0x50
 3958 0290 02000000 		.4byte	.LVL31
 3959 0294 05000000 		.4byte	.LVL32-1
 3960 0298 0300     		.2byte	0x3
 3961 029a 70       		.byte	0x70
 3962 029b 74       		.sleb128 -12
 3963 029c 9F       		.byte	0x9f
 3964 029d 05000000 		.4byte	.LVL32-1
 3965 02a1 06000000 		.4byte	.LFE285
 3966 02a5 0400     		.2byte	0x4
 3967 02a7 F3       		.byte	0xf3
 3968 02a8 01       		.uleb128 0x1
 3969 02a9 50       		.byte	0x50
 3970 02aa 9F       		.byte	0x9f
 3971 02ab 00000000 		.4byte	0
 3972 02af 00000000 		.4byte	0
 3973              	.LLST19:
 3974 02b3 00000000 		.4byte	.LVL30
 3975 02b7 02000000 		.4byte	.LVL31
 3976 02bb 0300     		.2byte	0x3
 3977 02bd 70       		.byte	0x70
 3978 02be 0C       		.sleb128 12
 3979 02bf 9F       		.byte	0x9f
 3980 02c0 02000000 		.4byte	.LVL31
 3981 02c4 05000000 		.4byte	.LVL32-1
 3982 02c8 0100     		.2byte	0x1
 3983 02ca 50       		.byte	0x50
 3984 02cb 05000000 		.4byte	.LVL32-1
 3985 02cf 06000000 		.4byte	.LFE285
 3986 02d3 0600     		.2byte	0x6
 3987 02d5 F3       		.byte	0xf3
 3988 02d6 01       		.uleb128 0x1
 3989 02d7 50       		.byte	0x50
 3990 02d8 23       		.byte	0x23
ARM GAS  /tmp/ccuVlvbs.s 			page 71


 3991 02d9 0C       		.uleb128 0xc
 3992 02da 9F       		.byte	0x9f
 3993 02db 00000000 		.4byte	0
 3994 02df 00000000 		.4byte	0
 3995              		.section	.debug_aranges,"",%progbits
 3996 0000 5C000000 		.4byte	0x5c
 3997 0004 0200     		.2byte	0x2
 3998 0006 00000000 		.4byte	.Ldebug_info0
 3999 000a 04       		.byte	0x4
 4000 000b 00       		.byte	0
 4001 000c 0000     		.2byte	0
 4002 000e 0000     		.2byte	0
 4003 0010 00000000 		.4byte	.LFB277
 4004 0014 04000000 		.4byte	.LFE277-.LFB277
 4005 0018 00000000 		.4byte	.LFB278
 4006 001c 0E000000 		.4byte	.LFE278-.LFB278
 4007 0020 00000000 		.4byte	.LFB279
 4008 0024 28000000 		.4byte	.LFE279-.LFB279
 4009 0028 00000000 		.4byte	.LFB280
 4010 002c 26000000 		.4byte	.LFE280-.LFB280
 4011 0030 00000000 		.4byte	.LFB281
 4012 0034 04000000 		.4byte	.LFE281-.LFB281
 4013 0038 00000000 		.4byte	.LFB282
 4014 003c 52000000 		.4byte	.LFE282-.LFB282
 4015 0040 00000000 		.4byte	.LFB283
 4016 0044 4A000000 		.4byte	.LFE283-.LFB283
 4017 0048 00000000 		.4byte	.LFB284
 4018 004c 06000000 		.4byte	.LFE284-.LFB284
 4019 0050 00000000 		.4byte	.LFB285
 4020 0054 06000000 		.4byte	.LFE285-.LFB285
 4021 0058 00000000 		.4byte	0
 4022 005c 00000000 		.4byte	0
 4023              		.section	.debug_ranges,"",%progbits
 4024              	.Ldebug_ranges0:
 4025 0000 00000000 		.4byte	.LFB277
 4026 0004 04000000 		.4byte	.LFE277
 4027 0008 00000000 		.4byte	.LFB278
 4028 000c 0E000000 		.4byte	.LFE278
 4029 0010 00000000 		.4byte	.LFB279
 4030 0014 28000000 		.4byte	.LFE279
 4031 0018 00000000 		.4byte	.LFB280
 4032 001c 26000000 		.4byte	.LFE280
 4033 0020 00000000 		.4byte	.LFB281
 4034 0024 04000000 		.4byte	.LFE281
 4035 0028 00000000 		.4byte	.LFB282
 4036 002c 52000000 		.4byte	.LFE282
 4037 0030 00000000 		.4byte	.LFB283
 4038 0034 4A000000 		.4byte	.LFE283
 4039 0038 00000000 		.4byte	.LFB284
 4040 003c 06000000 		.4byte	.LFE284
 4041 0040 00000000 		.4byte	.LFB285
 4042 0044 06000000 		.4byte	.LFE285
 4043 0048 00000000 		.4byte	0
 4044 004c 00000000 		.4byte	0
 4045              		.section	.debug_line,"",%progbits
 4046              	.Ldebug_line0:
 4047 0000 9D040000 		.section	.debug_str,"MS",%progbits,1
ARM GAS  /tmp/ccuVlvbs.s 			page 72


 4047      02005203 
 4047      00000201 
 4047      FB0E0D00 
 4047      01010101 
 4048              	.LASF135:
 4049 0000 5354445F 		.ascii	"STD_DUTY_CYCLE\000"
 4049      44555459 
 4049      5F435943 
 4049      4C4500
 4050              	.LASF151:
 4051 000f 646D6172 		.ascii	"dmarx\000"
 4051      7800
 4052              	.LASF138:
 4053 0015 69326364 		.ascii	"i2cdutycycle_t\000"
 4053      75747963 
 4053      79636C65 
 4053      5F7400
 4054              	.LASF56:
 4055 0024 72656164 		.ascii	"ready_list_t\000"
 4055      795F6C69 
 4055      73745F74 
 4055      00
 4056              	.LASF78:
 4057 0031 4D304152 		.ascii	"M0AR\000"
 4057      00
 4058              	.LASF2:
 4059 0036 73697A65 		.ascii	"size_t\000"
 4059      5F7400
 4060              	.LASF62:
 4061 003d 64656C74 		.ascii	"delta\000"
 4061      6100
 4062              	.LASF102:
 4063 0043 7264796D 		.ascii	"rdymsg\000"
 4063      736700
 4064              	.LASF19:
 4065 004a 75696E74 		.ascii	"uint64_t\000"
 4065      36345F74 
 4065      00
 4066              	.LASF75:
 4067 0053 6B65726E 		.ascii	"kernel_stats\000"
 4067      656C5F73 
 4067      74617473 
 4067      00
 4068              	.LASF3:
 4069 0060 5F5F7569 		.ascii	"__uint8_t\000"
 4069      6E74385F 
 4069      7400
 4070              	.LASF123:
 4071 006a 4932435F 		.ascii	"I2C_STOP\000"
 4071      53544F50 
 4071      00
 4072              	.LASF55:
 4073 0073 70726576 		.ascii	"prev\000"
 4073      00
 4074              	.LASF89:
 4075 0078 706F7274 		.ascii	"port_intctx\000"
 4075      5F696E74 
ARM GAS  /tmp/ccuVlvbs.s 			page 73


 4075      63747800 
 4076              	.LASF54:
 4077 0084 63685F74 		.ascii	"ch_threads_queue\000"
 4077      68726561 
 4077      64735F71 
 4077      75657565 
 4077      00
 4078              	.LASF67:
 4079 0095 73797374 		.ascii	"system_debug_t\000"
 4079      656D5F64 
 4079      65627567 
 4079      5F7400
 4080              	.LASF188:
 4081 00a4 6932635F 		.ascii	"i2c_lld_master_receive_timeout\000"
 4081      6C6C645F 
 4081      6D617374 
 4081      65725F72 
 4081      65636569 
 4082              	.LASF83:
 4083 00c3 54524953 		.ascii	"TRISE\000"
 4083      4500
 4084              	.LASF116:
 4085 00c9 73747265 		.ascii	"stream\000"
 4085      616D00
 4086              	.LASF153:
 4087 00d0 706F7274 		.ascii	"port_lock\000"
 4087      5F6C6F63 
 4087      6B00
 4088              	.LASF93:
 4089 00da 776F7273 		.ascii	"worst\000"
 4089      7400
 4090              	.LASF96:
 4091 00e0 74696D65 		.ascii	"time_measurement_t\000"
 4091      5F6D6561 
 4091      73757265 
 4091      6D656E74 
 4091      5F7400
 4092              	.LASF14:
 4093 00f3 6C6F6E67 		.ascii	"long long unsigned int\000"
 4093      206C6F6E 
 4093      6720756E 
 4093      7369676E 
 4093      65642069 
 4094              	.LASF103:
 4095 010a 65786974 		.ascii	"exitcode\000"
 4095      636F6465 
 4095      00
 4096              	.LASF179:
 4097 0113 69326352 		.ascii	"i2cReleaseBus\000"
 4097      656C6561 
 4097      73654275 
 4097      7300
 4098              	.LASF106:
 4099 0121 73656E74 		.ascii	"sentmsg\000"
 4099      6D736700 
 4100              	.LASF64:
 4101 0129 76697274 		.ascii	"virtual_timers_list_t\000"
ARM GAS  /tmp/ccuVlvbs.s 			page 74


 4101      75616C5F 
 4101      74696D65 
 4101      72735F6C 
 4101      6973745F 
 4102              	.LASF180:
 4103 013f 49544D5F 		.ascii	"ITM_RxBuffer\000"
 4103      52784275 
 4103      66666572 
 4103      00
 4104              	.LASF167:
 4105 014c 69326370 		.ascii	"i2cp\000"
 4105      00
 4106              	.LASF52:
 4107 0151 6E657874 		.ascii	"next\000"
 4107      00
 4108              	.LASF21:
 4109 0156 72747469 		.ascii	"rttime_t\000"
 4109      6D655F74 
 4109      00
 4110              	.LASF124:
 4111 015f 4932435F 		.ascii	"I2C_READY\000"
 4111      52454144 
 4111      5900
 4112              	.LASF171:
 4113 0169 6932634D 		.ascii	"i2cMasterTransmitTimeout\000"
 4113      61737465 
 4113      72547261 
 4113      6E736D69 
 4113      7454696D 
 4114              	.LASF156:
 4115 0182 6F73616C 		.ascii	"osalMutexObjectInit\000"
 4115      4D757465 
 4115      784F626A 
 4115      65637449 
 4115      6E697400 
 4116              	.LASF114:
 4117 0196 6D757465 		.ascii	"mutex_t\000"
 4117      785F7400 
 4118              	.LASF193:
 4119 019e 63684D74 		.ascii	"chMtxUnlock\000"
 4119      78556E6C 
 4119      6F636B00 
 4120              	.LASF1:
 4121 01aa 7369676E 		.ascii	"signed char\000"
 4121      65642063 
 4121      68617200 
 4122              	.LASF140:
 4123 01b6 636C6F63 		.ascii	"clock_speed\000"
 4123      6B5F7370 
 4123      65656400 
 4124              	.LASF174:
 4125 01c2 72786275 		.ascii	"rxbuf\000"
 4125      6600
 4126              	.LASF148:
 4127 01c8 61646472 		.ascii	"addr\000"
 4127      00
 4128              	.LASF187:
ARM GAS  /tmp/ccuVlvbs.s 			page 75


 4129 01cd 6932635F 		.ascii	"i2c_lld_master_transmit_timeout\000"
 4129      6C6C645F 
 4129      6D617374 
 4129      65725F74 
 4129      72616E73 
 4130              	.LASF73:
 4131 01ed 76746C69 		.ascii	"vtlist\000"
 4131      737400
 4132              	.LASF192:
 4133 01f4 2F686F6D 		.ascii	"/home/kozinalexey/f4by/ardupilot/build/f4by-ch\000"
 4133      652F6B6F 
 4133      7A696E61 
 4133      6C657865 
 4133      792F6634 
 4134              	.LASF154:
 4135 0223 706F7274 		.ascii	"port_unlock\000"
 4135      5F756E6C 
 4135      6F636B00 
 4136              	.LASF42:
 4137 022f 6D736771 		.ascii	"msgqueue\000"
 4137      75657565 
 4137      00
 4138              	.LASF129:
 4139 0238 69326361 		.ascii	"i2caddr_t\000"
 4139      6464725F 
 4139      7400
 4140              	.LASF38:
 4141 0242 73746174 		.ascii	"state\000"
 4141      6500
 4142              	.LASF9:
 4143 0248 6C6F6E67 		.ascii	"long int\000"
 4143      20696E74 
 4143      00
 4144              	.LASF23:
 4145 0251 74737461 		.ascii	"tstate_t\000"
 4145      74655F74 
 4145      00
 4146              	.LASF63:
 4147 025a 66756E63 		.ascii	"func\000"
 4147      00
 4148              	.LASF47:
 4149 025f 73746174 		.ascii	"stats\000"
 4149      7300
 4150              	.LASF84:
 4151 0265 464C5452 		.ascii	"FLTR\000"
 4151      00
 4152              	.LASF149:
 4153 026a 7278646D 		.ascii	"rxdmamode\000"
 4153      616D6F64 
 4153      6500
 4154              	.LASF152:
 4155 0274 646D6174 		.ascii	"dmatx\000"
 4155      7800
 4156              	.LASF133:
 4157 027a 4F504D4F 		.ascii	"OPMODE_SMBUS_HOST\000"
 4157      44455F53 
 4157      4D425553 
ARM GAS  /tmp/ccuVlvbs.s 			page 76


 4157      5F484F53 
 4157      5400
 4158              	.LASF10:
 4159 028c 5F5F7569 		.ascii	"__uint32_t\000"
 4159      6E743332 
 4159      5F7400
 4160              	.LASF86:
 4161 0297 72656761 		.ascii	"regarm_t\000"
 4161      726D5F74 
 4161      00
 4162              	.LASF119:
 4163 02a0 73656C66 		.ascii	"selfindex\000"
 4163      696E6465 
 4163      7800
 4164              	.LASF68:
 4165 02aa 63685F73 		.ascii	"ch_system_debug\000"
 4165      79737465 
 4165      6D5F6465 
 4165      62756700 
 4166              	.LASF41:
 4167 02ba 77616974 		.ascii	"waiting\000"
 4167      696E6700 
 4168              	.LASF158:
 4169 02c2 6F73616C 		.ascii	"osalSysLock\000"
 4169      5379734C 
 4169      6F636B00 
 4170              	.LASF150:
 4171 02ce 7478646D 		.ascii	"txdmamode\000"
 4171      616D6F64 
 4171      6500
 4172              	.LASF12:
 4173 02d8 6C6F6E67 		.ascii	"long long int\000"
 4173      206C6F6E 
 4173      6720696E 
 4173      7400
 4174              	.LASF157:
 4175 02e6 76616C75 		.ascii	"value\000"
 4175      6500
 4176              	.LASF28:
 4177 02ec 636E745F 		.ascii	"cnt_t\000"
 4177      7400
 4178              	.LASF0:
 4179 02f2 756E7369 		.ascii	"unsigned int\000"
 4179      676E6564 
 4179      20696E74 
 4179      00
 4180              	.LASF190:
 4181 02ff 474E5520 		.ascii	"GNU C 4.9.3 20150529 (prerelease) -mcpu=cortex-m4 -"
 4181      4320342E 
 4181      392E3320 
 4181      32303135 
 4181      30353239 
 4182 0332 6D666C6F 		.ascii	"mfloat-abi=hard -mfpu=fpv4-sp-d16 -mno-thumb-interw"
 4182      61742D61 
 4182      62693D68 
 4182      61726420 
 4182      2D6D6670 
ARM GAS  /tmp/ccuVlvbs.s 			page 77


 4183 0365 6F726B20 		.ascii	"ork -mthumb -g -Os -fomit-frame-pointer -falign-fun"
 4183      2D6D7468 
 4183      756D6220 
 4183      2D67202D 
 4183      4F73202D 
 4184 0398 6374696F 		.ascii	"ctions=16 -ffunction-sections -fdata-sections -fno-"
 4184      6E733D31 
 4184      36202D66 
 4184      66756E63 
 4184      74696F6E 
 4185 03cb 636F6D6D 		.ascii	"common -fsingle-precision-constant\000"
 4185      6F6E202D 
 4185      6673696E 
 4185      676C652D 
 4185      70726563 
 4186              	.LASF172:
 4187 03ee 74786275 		.ascii	"txbuf\000"
 4187      6600
 4188              	.LASF107:
 4189 03f4 77747365 		.ascii	"wtsemp\000"
 4189      6D7000
 4190              	.LASF145:
 4191 03fb 6572726F 		.ascii	"errors\000"
 4191      727300
 4192              	.LASF105:
 4193 0402 77747472 		.ascii	"wttrp\000"
 4193      7000
 4194              	.LASF176:
 4195 0408 74696D65 		.ascii	"timeout\000"
 4195      6F757400 
 4196              	.LASF118:
 4197 0410 69736869 		.ascii	"ishift\000"
 4197      667400
 4198              	.LASF32:
 4199 0417 71756575 		.ascii	"queue\000"
 4199      6500
 4200              	.LASF46:
 4201 041d 6D706F6F 		.ascii	"mpool\000"
 4201      6C00
 4202              	.LASF132:
 4203 0423 4F504D4F 		.ascii	"OPMODE_SMBUS_DEVICE\000"
 4203      44455F53 
 4203      4D425553 
 4203      5F444556 
 4203      49434500 
 4204              	.LASF7:
 4205 0437 73686F72 		.ascii	"short unsigned int\000"
 4205      7420756E 
 4205      7369676E 
 4205      65642069 
 4205      6E7400
 4206              	.LASF101:
 4207 044a 6B65726E 		.ascii	"kernel_stats_t\000"
 4207      656C5F73 
 4207      74617473 
 4207      5F7400
 4208              	.LASF143:
ARM GAS  /tmp/ccuVlvbs.s 			page 78


 4209 0459 49324344 		.ascii	"I2CDriver\000"
 4209      72697665 
 4209      7200
 4210              	.LASF50:
 4211 0463 63685F74 		.ascii	"ch_thread\000"
 4211      68726561 
 4211      6400
 4212              	.LASF74:
 4213 046d 6D61696E 		.ascii	"mainthread\000"
 4213      74687265 
 4213      616400
 4214              	.LASF36:
 4215 0478 6E616D65 		.ascii	"name\000"
 4215      00
 4216              	.LASF26:
 4217 047d 6D73675F 		.ascii	"msg_t\000"
 4217      7400
 4218              	.LASF94:
 4219 0483 6C617374 		.ascii	"last\000"
 4219      00
 4220              	.LASF29:
 4221 0488 75636E74 		.ascii	"ucnt_t\000"
 4221      5F7400
 4222              	.LASF43:
 4223 048f 6570656E 		.ascii	"epending\000"
 4223      64696E67 
 4223      00
 4224              	.LASF70:
 4225 0498 63685F73 		.ascii	"ch_system_t\000"
 4225      79737465 
 4225      6D5F7400 
 4226              	.LASF22:
 4227 04a4 746D6F64 		.ascii	"tmode_t\000"
 4227      655F7400 
 4228              	.LASF16:
 4229 04ac 75696E74 		.ascii	"uint16_t\000"
 4229      31365F74 
 4229      00
 4230              	.LASF100:
 4231 04b5 6D5F6372 		.ascii	"m_crit_isr\000"
 4231      69745F69 
 4231      737200
 4232              	.LASF57:
 4233 04c0 63685F72 		.ascii	"ch_ready_list\000"
 4233      65616479 
 4233      5F6C6973 
 4233      7400
 4234              	.LASF27:
 4235 04ce 6576656E 		.ascii	"eventmask_t\000"
 4235      746D6173 
 4235      6B5F7400 
 4236              	.LASF5:
 4237 04da 73686F72 		.ascii	"short int\000"
 4237      7420696E 
 4237      7400
 4238              	.LASF8:
 4239 04e4 5F5F696E 		.ascii	"__int32_t\000"
ARM GAS  /tmp/ccuVlvbs.s 			page 79


 4239      7433325F 
 4239      7400
 4240              	.LASF87:
 4241 04ee 73746B61 		.ascii	"stkalign_t\000"
 4241      6C69676E 
 4241      5F7400
 4242              	.LASF186:
 4243 04f9 6932635F 		.ascii	"i2c_lld_stop\000"
 4243      6C6C645F 
 4243      73746F70 
 4243      00
 4244              	.LASF45:
 4245 0506 7265616C 		.ascii	"realprio\000"
 4245      7072696F 
 4245      00
 4246              	.LASF185:
 4247 050f 6932635F 		.ascii	"i2c_lld_start\000"
 4247      6C6C645F 
 4247      73746172 
 4247      7400
 4248              	.LASF183:
 4249 051d 5F737461 		.ascii	"_stats_stop_measure_crit_thd\000"
 4249      74735F73 
 4249      746F705F 
 4249      6D656173 
 4249      7572655F 
 4250              	.LASF76:
 4251 053a 73697A65 		.ascii	"sizetype\000"
 4251      74797065 
 4251      00
 4252              	.LASF48:
 4253 0543 74687265 		.ascii	"thread_reference_t\000"
 4253      61645F72 
 4253      65666572 
 4253      656E6365 
 4253      5F7400
 4254              	.LASF65:
 4255 0556 63685F76 		.ascii	"ch_virtual_timers_list\000"
 4255      69727475 
 4255      616C5F74 
 4255      696D6572 
 4255      735F6C69 
 4256              	.LASF166:
 4257 056d 69326353 		.ascii	"i2cStart\000"
 4257      74617274 
 4257      00
 4258              	.LASF191:
 4259 0576 2E2E2F2E 		.ascii	"../../modules/ChibiOS/os/hal/src/hal_i2c.c\000"
 4259      2E2F6D6F 
 4259      64756C65 
 4259      732F4368 
 4259      6962694F 
 4260              	.LASF141:
 4261 05a1 64757479 		.ascii	"duty_cycle\000"
 4261      5F637963 
 4261      6C6500
 4262              	.LASF182:
ARM GAS  /tmp/ccuVlvbs.s 			page 80


 4263 05ac 5F737461 		.ascii	"_stats_start_measure_crit_thd\000"
 4263      74735F73 
 4263      74617274 
 4263      5F6D6561 
 4263      73757265 
 4264              	.LASF189:
 4265 05ca 63684D74 		.ascii	"chMtxLock\000"
 4265      784C6F63 
 4265      6B00
 4266              	.LASF175:
 4267 05d4 72786279 		.ascii	"rxbytes\000"
 4267      74657300 
 4268              	.LASF168:
 4269 05dc 69326353 		.ascii	"i2cStop\000"
 4269      746F7000 
 4270              	.LASF88:
 4271 05e4 706F7274 		.ascii	"port_context\000"
 4271      5F636F6E 
 4271      74657874 
 4271      00
 4272              	.LASF91:
 4273 05f1 746D5F63 		.ascii	"tm_calibration_t\000"
 4273      616C6962 
 4273      72617469 
 4273      6F6E5F74 
 4273      00
 4274              	.LASF131:
 4275 0602 4F504D4F 		.ascii	"OPMODE_I2C\000"
 4275      44455F49 
 4275      324300
 4276              	.LASF33:
 4277 060d 7072696F 		.ascii	"prio\000"
 4277      00
 4278              	.LASF173:
 4279 0612 74786279 		.ascii	"txbytes\000"
 4279      74657300 
 4280              	.LASF58:
 4281 061a 63757272 		.ascii	"current\000"
 4281      656E7400 
 4282              	.LASF13:
 4283 0622 5F5F7569 		.ascii	"__uint64_t\000"
 4283      6E743634 
 4283      5F7400
 4284              	.LASF95:
 4285 062d 63756D75 		.ascii	"cumulative\000"
 4285      6C617469 
 4285      766500
 4286              	.LASF34:
 4287 0638 6E657765 		.ascii	"newer\000"
 4287      7200
 4288              	.LASF24:
 4289 063e 74726566 		.ascii	"trefs_t\000"
 4289      735F7400 
 4290              	.LASF128:
 4291 0646 69326373 		.ascii	"i2cstate_t\000"
 4291      74617465 
 4291      5F7400
ARM GAS  /tmp/ccuVlvbs.s 			page 81


 4292              	.LASF137:
 4293 0651 46415354 		.ascii	"FAST_DUTY_CYCLE_16_9\000"
 4293      5F445554 
 4293      595F4359 
 4293      434C455F 
 4293      31365F39 
 4294              	.LASF40:
 4295 0666 72656673 		.ascii	"refs\000"
 4295      00
 4296              	.LASF60:
 4297 066b 76697274 		.ascii	"virtual_timer_t\000"
 4297      75616C5F 
 4297      74696D65 
 4297      725F7400 
 4298              	.LASF121:
 4299 067b 73746D33 		.ascii	"stm32_dma_stream_t\000"
 4299      325F646D 
 4299      615F7374 
 4299      7265616D 
 4299      5F7400
 4300              	.LASF178:
 4301 068e 69326341 		.ascii	"i2cAcquireBus\000"
 4301      63717569 
 4301      72654275 
 4301      7300
 4302              	.LASF25:
 4303 069c 74707269 		.ascii	"tprio_t\000"
 4303      6F5F7400 
 4304              	.LASF125:
 4305 06a4 4932435F 		.ascii	"I2C_ACTIVE_TX\000"
 4305      41435449 
 4305      56455F54 
 4305      5800
 4306              	.LASF130:
 4307 06b2 69326366 		.ascii	"i2cflags_t\000"
 4307      6C616773 
 4307      5F7400
 4308              	.LASF146:
 4309 06bd 6D757465 		.ascii	"mutex\000"
 4309      7800
 4310              	.LASF98:
 4311 06c3 6E5F6374 		.ascii	"n_ctxswc\000"
 4311      78737763 
 4311      00
 4312              	.LASF115:
 4313 06cc 5F426F6F 		.ascii	"_Bool\000"
 4313      6C00
 4314              	.LASF17:
 4315 06d2 696E7433 		.ascii	"int32_t\000"
 4315      325F7400 
 4316              	.LASF4:
 4317 06da 756E7369 		.ascii	"unsigned char\000"
 4317      676E6564 
 4317      20636861 
 4317      7200
 4318              	.LASF139:
 4319 06e8 6F705F6D 		.ascii	"op_mode\000"
ARM GAS  /tmp/ccuVlvbs.s 			page 82


 4319      6F646500 
 4320              	.LASF122:
 4321 06f0 4932435F 		.ascii	"I2C_UNINIT\000"
 4321      554E494E 
 4321      495400
 4322              	.LASF66:
 4323 06fb 6C617374 		.ascii	"lasttime\000"
 4323      74696D65 
 4323      00
 4324              	.LASF170:
 4325 0704 69326347 		.ascii	"i2cGetErrors\000"
 4325      65744572 
 4325      726F7273 
 4325      00
 4326              	.LASF109:
 4327 0711 65776D61 		.ascii	"ewmask\000"
 4327      736B00
 4328              	.LASF71:
 4329 0718 63685F73 		.ascii	"ch_system\000"
 4329      79737465 
 4329      6D00
 4330              	.LASF169:
 4331 0722 5F5F6675 		.ascii	"__func__\000"
 4331      6E635F5F 
 4331      00
 4332              	.LASF164:
 4333 072b 63685379 		.ascii	"chSysLock\000"
 4333      734C6F63 
 4333      6B00
 4334              	.LASF159:
 4335 0735 6F73616C 		.ascii	"osalSysUnlock\000"
 4335      53797355 
 4335      6E6C6F63 
 4335      6B00
 4336              	.LASF184:
 4337 0743 63684D74 		.ascii	"chMtxObjectInit\000"
 4337      784F626A 
 4337      65637449 
 4337      6E697400 
 4338              	.LASF136:
 4339 0753 46415354 		.ascii	"FAST_DUTY_CYCLE_2\000"
 4339      5F445554 
 4339      595F4359 
 4339      434C455F 
 4339      3200
 4340              	.LASF127:
 4341 0765 4932435F 		.ascii	"I2C_LOCKED\000"
 4341      4C4F434B 
 4341      454400
 4342              	.LASF110:
 4343 0770 63685F73 		.ascii	"ch_semaphore\000"
 4343      656D6170 
 4343      686F7265 
 4343      00
 4344              	.LASF117:
 4345 077d 69666372 		.ascii	"ifcr\000"
 4345      00
ARM GAS  /tmp/ccuVlvbs.s 			page 83


 4346              	.LASF18:
 4347 0782 75696E74 		.ascii	"uint32_t\000"
 4347      33325F74 
 4347      00
 4348              	.LASF108:
 4349 078b 77746D74 		.ascii	"wtmtxp\000"
 4349      787000
 4350              	.LASF51:
 4351 0792 63685F74 		.ascii	"ch_threads_list\000"
 4351      68726561 
 4351      64735F6C 
 4351      69737400 
 4352              	.LASF112:
 4353 07a2 6F776E65 		.ascii	"owner\000"
 4353      7200
 4354              	.LASF126:
 4355 07a8 4932435F 		.ascii	"I2C_ACTIVE_RX\000"
 4355      41435449 
 4355      56455F52 
 4355      5800
 4356              	.LASF11:
 4357 07b6 6C6F6E67 		.ascii	"long unsigned int\000"
 4357      20756E73 
 4357      69676E65 
 4357      6420696E 
 4357      7400
 4358              	.LASF37:
 4359 07c8 77616261 		.ascii	"wabase\000"
 4359      736500
 4360              	.LASF113:
 4361 07cf 63686172 		.ascii	"char\000"
 4361      00
 4362              	.LASF35:
 4363 07d4 6F6C6465 		.ascii	"older\000"
 4363      7200
 4364              	.LASF144:
 4365 07da 636F6E66 		.ascii	"config\000"
 4365      696700
 4366              	.LASF161:
 4367 07e1 6F73616C 		.ascii	"osalMutexUnlock\000"
 4367      4D757465 
 4367      78556E6C 
 4367      6F636B00 
 4368              	.LASF6:
 4369 07f1 5F5F7569 		.ascii	"__uint16_t\000"
 4369      6E743136 
 4369      5F7400
 4370              	.LASF31:
 4371 07fc 74687265 		.ascii	"thread_t\000"
 4371      61645F74 
 4371      00
 4372              	.LASF92:
 4373 0805 62657374 		.ascii	"best\000"
 4373      00
 4374              	.LASF30:
 4375 080a 73797374 		.ascii	"systime_t\000"
 4375      696D655F 
ARM GAS  /tmp/ccuVlvbs.s 			page 84


 4375      7400
 4376              	.LASF59:
 4377 0814 76746675 		.ascii	"vtfunc_t\000"
 4377      6E635F74 
 4377      00
 4378              	.LASF155:
 4379 081d 5F5F7365 		.ascii	"__set_BASEPRI\000"
 4379      745F4241 
 4379      53455052 
 4379      4900
 4380              	.LASF160:
 4381 082b 6F73616C 		.ascii	"osalMutexLock\000"
 4381      4D757465 
 4381      784C6F63 
 4381      6B00
 4382              	.LASF77:
 4383 0839 4E445452 		.ascii	"NDTR\000"
 4383      00
 4384              	.LASF69:
 4385 083e 70616E69 		.ascii	"panic_msg\000"
 4385      635F6D73 
 4385      6700
 4386              	.LASF90:
 4387 0848 6F666673 		.ascii	"offset\000"
 4387      657400
 4388              	.LASF80:
 4389 084f 444D415F 		.ascii	"DMA_Stream_TypeDef\000"
 4389      53747265 
 4389      616D5F54 
 4389      79706544 
 4389      656600
 4390              	.LASF111:
 4391 0862 63685F6D 		.ascii	"ch_mutex\000"
 4391      75746578 
 4391      00
 4392              	.LASF163:
 4393 086b 6932634F 		.ascii	"i2cObjectInit\000"
 4393      626A6563 
 4393      74496E69 
 4393      7400
 4394              	.LASF61:
 4395 0879 63685F76 		.ascii	"ch_virtual_timer\000"
 4395      69727475 
 4395      616C5F74 
 4395      696D6572 
 4395      00
 4396              	.LASF20:
 4397 088a 7274636E 		.ascii	"rtcnt_t\000"
 4397      745F7400 
 4398              	.LASF79:
 4399 0892 4D314152 		.ascii	"M1AR\000"
 4399      00
 4400              	.LASF142:
 4401 0897 49324343 		.ascii	"I2CConfig\000"
 4401      6F6E6669 
 4401      6700
 4402              	.LASF53:
ARM GAS  /tmp/ccuVlvbs.s 			page 85


 4403 08a1 74687265 		.ascii	"threads_queue_t\000"
 4403      6164735F 
 4403      71756575 
 4403      655F7400 
 4404              	.LASF181:
 4405 08b1 6932635F 		.ascii	"i2c_lld_init\000"
 4405      6C6C645F 
 4405      696E6974 
 4405      00
 4406              	.LASF72:
 4407 08be 726C6973 		.ascii	"rlist\000"
 4407      7400
 4408              	.LASF15:
 4409 08c4 75696E74 		.ascii	"uint8_t\000"
 4409      385F7400 
 4410              	.LASF81:
 4411 08cc 4F415231 		.ascii	"OAR1\000"
 4411      00
 4412              	.LASF82:
 4413 08d1 4F415232 		.ascii	"OAR2\000"
 4413      00
 4414              	.LASF39:
 4415 08d6 666C6167 		.ascii	"flags\000"
 4415      7300
 4416              	.LASF177:
 4417 08dc 6932634D 		.ascii	"i2cMasterReceiveTimeout\000"
 4417      61737465 
 4417      72526563 
 4417      65697665 
 4417      54696D65 
 4418              	.LASF104:
 4419 08f4 77746F62 		.ascii	"wtobjp\000"
 4419      6A7000
 4420              	.LASF49:
 4421 08fb 74687265 		.ascii	"threads_list_t\000"
 4421      6164735F 
 4421      6C697374 
 4421      5F7400
 4422              	.LASF162:
 4423 090a 69326349 		.ascii	"i2cInit\000"
 4423      6E697400 
 4424              	.LASF165:
 4425 0912 63685379 		.ascii	"chSysUnlock\000"
 4425      73556E6C 
 4425      6F636B00 
 4426              	.LASF85:
 4427 091e 4932435F 		.ascii	"I2C_TypeDef\000"
 4427      54797065 
 4427      44656600 
 4428              	.LASF134:
 4429 092a 6932636F 		.ascii	"i2copmode_t\000"
 4429      706D6F64 
 4429      655F7400 
 4430              	.LASF147:
 4431 0936 74687265 		.ascii	"thread\000"
 4431      616400
 4432              	.LASF44:
ARM GAS  /tmp/ccuVlvbs.s 			page 86


 4433 093d 6D74786C 		.ascii	"mtxlist\000"
 4433      69737400 
 4434              	.LASF99:
 4435 0945 6D5F6372 		.ascii	"m_crit_thd\000"
 4435      69745F74 
 4435      686400
 4436              	.LASF120:
 4437 0950 76656374 		.ascii	"vector\000"
 4437      6F7200
 4438              	.LASF97:
 4439 0957 6E5F6972 		.ascii	"n_irq\000"
 4439      7100
 4440              		.ident	"GCC: (15:4.9.3+svn231177-1) 4.9.3 20150529 (prerelease)"
ARM GAS  /tmp/ccuVlvbs.s 			page 87


DEFINED SYMBOLS
                            *ABS*:0000000000000000 hal_i2c.c
     /tmp/ccuVlvbs.s:21     .text.i2cInit:0000000000000000 $t
     /tmp/ccuVlvbs.s:26     .text.i2cInit:0000000000000000 i2cInit
     /tmp/ccuVlvbs.s:41     .text.i2cObjectInit:0000000000000000 $t
     /tmp/ccuVlvbs.s:46     .text.i2cObjectInit:0000000000000000 i2cObjectInit
     /tmp/ccuVlvbs.s:75     .text.i2cStart:0000000000000000 $t
     /tmp/ccuVlvbs.s:80     .text.i2cStart:0000000000000000 i2cStart
     /tmp/ccuVlvbs.s:155    .text.i2cStop:0000000000000000 $t
     /tmp/ccuVlvbs.s:160    .text.i2cStop:0000000000000000 i2cStop
     /tmp/ccuVlvbs.s:233    .text.i2cGetErrors:0000000000000000 $t
     /tmp/ccuVlvbs.s:238    .text.i2cGetErrors:0000000000000000 i2cGetErrors
     /tmp/ccuVlvbs.s:254    .text.i2cMasterTransmitTimeout:0000000000000000 $t
     /tmp/ccuVlvbs.s:259    .text.i2cMasterTransmitTimeout:0000000000000000 i2cMasterTransmitTimeout
     /tmp/ccuVlvbs.s:364    .text.i2cMasterReceiveTimeout:0000000000000000 $t
     /tmp/ccuVlvbs.s:369    .text.i2cMasterReceiveTimeout:0000000000000000 i2cMasterReceiveTimeout
     /tmp/ccuVlvbs.s:469    .text.i2cAcquireBus:0000000000000000 $t
     /tmp/ccuVlvbs.s:474    .text.i2cAcquireBus:0000000000000000 i2cAcquireBus
     /tmp/ccuVlvbs.s:495    .text.i2cReleaseBus:0000000000000000 $t
     /tmp/ccuVlvbs.s:500    .text.i2cReleaseBus:0000000000000000 i2cReleaseBus
                     .debug_frame:0000000000000010 $d

UNDEFINED SYMBOLS
i2c_lld_init
chMtxObjectInit
_stats_start_measure_crit_thd
i2c_lld_start
_stats_stop_measure_crit_thd
i2c_lld_stop
i2c_lld_master_transmit_timeout
i2c_lld_master_receive_timeout
chMtxLock
chMtxUnlock
