ARM GAS  /tmp/ccBeSko7.s 			page 1


   1              		.syntax unified
   2              		.cpu cortex-m4
   3              		.eabi_attribute 27, 1
   4              		.eabi_attribute 28, 1
   5              		.fpu fpv4-sp-d16
   6              		.eabi_attribute 20, 1
   7              		.eabi_attribute 21, 1
   8              		.eabi_attribute 23, 3
   9              		.eabi_attribute 24, 1
  10              		.eabi_attribute 25, 1
  11              		.eabi_attribute 26, 1
  12              		.eabi_attribute 30, 4
  13              		.eabi_attribute 34, 1
  14              		.eabi_attribute 18, 4
  15              		.thumb
  16              		.file	"hal_spi.c"
  17              		.text
  18              	.Ltext0:
  19              		.cfi_sections	.debug_frame
  20              		.section	.text.chSysLock,"ax",%progbits
  21              		.align	1
  22              		.thumb
  23              		.thumb_func
  24              		.type	chSysLock, %function
  25              	chSysLock:
  26              	.LFB167:
  27              		.file 1 "../../modules/ChibiOS/os/rt/include/chsys.h"
  28              		.loc 1 374 0
  29              		.cfi_startproc
  30              		@ args = 0, pretend = 0, frame = 0
  31              		@ frame_needed = 0, uses_anonymous_args = 0
  32              		@ link register save eliminated.
  33              	.LVL0:
  34              	.LBB68:
  35              	.LBB69:
  36              	.LBB70:
  37              		.file 2 "../../modules/ChibiOS/os/common/ext/CMSIS/include/cmsis_gcc.h"
  38              		.loc 2 264 0
  39 0000 2023     		movs	r3, #32
  40              	@ 264 "../../modules/ChibiOS/os/common/ext/CMSIS/include/cmsis_gcc.h" 1
  41 0002 83F31188 		MSR basepri, r3
  42              	@ 0 "" 2
  43              		.thumb
  44              	.LBE70:
  45              	.LBE69:
  46              	.LBE68:
  47              		.loc 1 377 0
  48 0006 FFF7FEBF 		b	_stats_start_measure_crit_thd
  49              	.LVL1:
  50              		.cfi_endproc
  51              	.LFE167:
  52              		.size	chSysLock, .-chSysLock
  53              		.section	.text.chSysUnlock,"ax",%progbits
  54              		.align	1
  55              		.thumb
  56              		.thumb_func
  57              		.type	chSysUnlock, %function
ARM GAS  /tmp/ccBeSko7.s 			page 2


  58              	chSysUnlock:
  59              	.LFB168:
  60              		.loc 1 386 0
  61              		.cfi_startproc
  62              		@ args = 0, pretend = 0, frame = 0
  63              		@ frame_needed = 0, uses_anonymous_args = 0
  64 0000 08B5     		push	{r3, lr}
  65              		.cfi_def_cfa_offset 8
  66              		.cfi_offset 3, -8
  67              		.cfi_offset 14, -4
  68              		.loc 1 389 0
  69 0002 FFF7FEFF 		bl	_stats_stop_measure_crit_thd
  70              	.LVL2:
  71              	.LBB71:
  72              	.LBB72:
  73              	.LBB73:
  74              		.loc 2 264 0
  75 0006 0023     		movs	r3, #0
  76              	@ 264 "../../modules/ChibiOS/os/common/ext/CMSIS/include/cmsis_gcc.h" 1
  77 0008 83F31188 		MSR basepri, r3
  78              	@ 0 "" 2
  79              		.thumb
  80 000c 08BD     		pop	{r3, pc}
  81              	.LBE73:
  82              	.LBE72:
  83              	.LBE71:
  84              		.cfi_endproc
  85              	.LFE168:
  86              		.size	chSysUnlock, .-chSysUnlock
  87              		.section	.text.spiInit,"ax",%progbits
  88              		.align	1
  89              		.global	spiInit
  90              		.thumb
  91              		.thumb_func
  92              		.type	spiInit, %function
  93              	spiInit:
  94              	.LFB277:
  95              		.file 3 "../../modules/ChibiOS/os/hal/src/hal_spi.c"
  96              		.loc 3 56 0
  97              		.cfi_startproc
  98              		@ args = 0, pretend = 0, frame = 0
  99              		@ frame_needed = 0, uses_anonymous_args = 0
 100              		@ link register save eliminated.
 101              		.loc 3 58 0
 102 0000 FFF7FEBF 		b	spi_lld_init
 103              	.LVL3:
 104              		.cfi_endproc
 105              	.LFE277:
 106              		.size	spiInit, .-spiInit
 107              		.section	.text.spiObjectInit,"ax",%progbits
 108              		.align	1
 109              		.global	spiObjectInit
 110              		.thumb
 111              		.thumb_func
 112              		.type	spiObjectInit, %function
 113              	spiObjectInit:
 114              	.LFB278:
ARM GAS  /tmp/ccBeSko7.s 			page 3


 115              		.loc 3 68 0
 116              		.cfi_startproc
 117              		@ args = 0, pretend = 0, frame = 0
 118              		@ frame_needed = 0, uses_anonymous_args = 0
 119              		@ link register save eliminated.
 120              	.LVL4:
 121              		.loc 3 70 0
 122 0000 0123     		movs	r3, #1
 123 0002 0370     		strb	r3, [r0]
 124              		.loc 3 71 0
 125 0004 0023     		movs	r3, #0
 126 0006 4360     		str	r3, [r0, #4]
 127              		.loc 3 73 0
 128 0008 8360     		str	r3, [r0, #8]
 129              	.LVL5:
 130              	.LBB74:
 131              	.LBB75:
 132              		.file 4 "../../modules/ChibiOS/os/hal/osal/rt/osal.h"
 133              		.loc 4 887 0
 134 000a 0C30     		adds	r0, r0, #12
 135              	.LVL6:
 136 000c FFF7FEBF 		b	chMtxObjectInit
 137              	.LVL7:
 138              	.LBE75:
 139              	.LBE74:
 140              		.cfi_endproc
 141              	.LFE278:
 142              		.size	spiObjectInit, .-spiObjectInit
 143              		.section	.text.spiStart,"ax",%progbits
 144              		.align	1
 145              		.global	spiStart
 146              		.thumb
 147              		.thumb_func
 148              		.type	spiStart, %function
 149              	spiStart:
 150              	.LFB279:
 151              		.loc 3 91 0
 152              		.cfi_startproc
 153              		@ args = 0, pretend = 0, frame = 0
 154              		@ frame_needed = 0, uses_anonymous_args = 0
 155              	.LVL8:
 156 0000 38B5     		push	{r3, r4, r5, lr}
 157              		.cfi_def_cfa_offset 16
 158              		.cfi_offset 3, -16
 159              		.cfi_offset 4, -12
 160              		.cfi_offset 5, -8
 161              		.cfi_offset 14, -4
 162              		.loc 3 91 0
 163 0002 0446     		mov	r4, r0
 164 0004 0D46     		mov	r5, r1
 165              	.LBB76:
 166              	.LBB77:
 167              		.loc 4 493 0
 168 0006 FFF7FEFF 		bl	chSysLock
 169              	.LVL9:
 170              	.LBE77:
 171              	.LBE76:
ARM GAS  /tmp/ccBeSko7.s 			page 4


 172              		.loc 3 98 0
 173 000a 6560     		str	r5, [r4, #4]
 174              		.loc 3 99 0
 175 000c 2046     		mov	r0, r4
 176 000e FFF7FEFF 		bl	spi_lld_start
 177              	.LVL10:
 178              		.loc 3 100 0
 179 0012 0223     		movs	r3, #2
 180 0014 2370     		strb	r3, [r4]
 181              		.loc 3 102 0
 182 0016 BDE83840 		pop	{r3, r4, r5, lr}
 183              		.cfi_restore 14
 184              		.cfi_restore 5
 185              		.cfi_restore 4
 186              		.cfi_restore 3
 187              		.cfi_def_cfa_offset 0
 188              	.LVL11:
 189              	.LBB78:
 190              	.LBB79:
 191              		.loc 4 504 0
 192 001a FFF7FEBF 		b	chSysUnlock
 193              	.LVL12:
 194              	.LBE79:
 195              	.LBE78:
 196              		.cfi_endproc
 197              	.LFE279:
 198              		.size	spiStart, .-spiStart
 199              		.section	.text.spiStop,"ax",%progbits
 200              		.align	1
 201              		.global	spiStop
 202              		.thumb
 203              		.thumb_func
 204              		.type	spiStop, %function
 205              	spiStop:
 206              	.LFB280:
 207              		.loc 3 113 0
 208              		.cfi_startproc
 209              		@ args = 0, pretend = 0, frame = 0
 210              		@ frame_needed = 0, uses_anonymous_args = 0
 211              	.LVL13:
 212 0000 10B5     		push	{r4, lr}
 213              		.cfi_def_cfa_offset 8
 214              		.cfi_offset 4, -8
 215              		.cfi_offset 14, -4
 216              		.loc 3 113 0
 217 0002 0446     		mov	r4, r0
 218              	.LBB80:
 219              	.LBB81:
 220              		.loc 4 493 0
 221 0004 FFF7FEFF 		bl	chSysLock
 222              	.LVL14:
 223              	.LBE81:
 224              	.LBE80:
 225              		.loc 3 122 0
 226 0008 2046     		mov	r0, r4
 227 000a FFF7FEFF 		bl	spi_lld_stop
 228              	.LVL15:
ARM GAS  /tmp/ccBeSko7.s 			page 5


 229              		.loc 3 123 0
 230 000e 0023     		movs	r3, #0
 231 0010 6360     		str	r3, [r4, #4]
 232              		.loc 3 124 0
 233 0012 0123     		movs	r3, #1
 234 0014 2370     		strb	r3, [r4]
 235              		.loc 3 127 0
 236 0016 BDE81040 		pop	{r4, lr}
 237              		.cfi_restore 14
 238              		.cfi_restore 4
 239              		.cfi_def_cfa_offset 0
 240              	.LVL16:
 241              	.LBB82:
 242              	.LBB83:
 243              		.loc 4 504 0
 244 001a FFF7FEBF 		b	chSysUnlock
 245              	.LVL17:
 246              	.LBE83:
 247              	.LBE82:
 248              		.cfi_endproc
 249              	.LFE280:
 250              		.size	spiStop, .-spiStop
 251              		.section	.text.spiSelect,"ax",%progbits
 252              		.align	1
 253              		.global	spiSelect
 254              		.thumb
 255              		.thumb_func
 256              		.type	spiSelect, %function
 257              	spiSelect:
 258              	.LFB281:
 259              		.loc 3 136 0
 260              		.cfi_startproc
 261              		@ args = 0, pretend = 0, frame = 0
 262              		@ frame_needed = 0, uses_anonymous_args = 0
 263              	.LVL18:
 264 0000 10B5     		push	{r4, lr}
 265              		.cfi_def_cfa_offset 8
 266              		.cfi_offset 4, -8
 267              		.cfi_offset 14, -4
 268              		.loc 3 136 0
 269 0002 0446     		mov	r4, r0
 270              	.LBB84:
 271              	.LBB85:
 272              		.loc 4 493 0
 273 0004 FFF7FEFF 		bl	chSysLock
 274              	.LVL19:
 275              	.LBE85:
 276              	.LBE84:
 277              		.loc 3 142 0
 278 0008 2046     		mov	r0, r4
 279 000a FFF7FEFF 		bl	spi_lld_select
 280              	.LVL20:
 281              		.loc 3 144 0
 282 000e BDE81040 		pop	{r4, lr}
 283              		.cfi_restore 14
 284              		.cfi_restore 4
 285              		.cfi_def_cfa_offset 0
ARM GAS  /tmp/ccBeSko7.s 			page 6


 286              	.LVL21:
 287              	.LBB86:
 288              	.LBB87:
 289              		.loc 4 504 0
 290 0012 FFF7FEBF 		b	chSysUnlock
 291              	.LVL22:
 292              	.LBE87:
 293              	.LBE86:
 294              		.cfi_endproc
 295              	.LFE281:
 296              		.size	spiSelect, .-spiSelect
 297              		.section	.text.spiUnselect,"ax",%progbits
 298              		.align	1
 299              		.global	spiUnselect
 300              		.thumb
 301              		.thumb_func
 302              		.type	spiUnselect, %function
 303              	spiUnselect:
 304              	.LFB282:
 305              		.loc 3 154 0
 306              		.cfi_startproc
 307              		@ args = 0, pretend = 0, frame = 0
 308              		@ frame_needed = 0, uses_anonymous_args = 0
 309              	.LVL23:
 310 0000 10B5     		push	{r4, lr}
 311              		.cfi_def_cfa_offset 8
 312              		.cfi_offset 4, -8
 313              		.cfi_offset 14, -4
 314              		.loc 3 154 0
 315 0002 0446     		mov	r4, r0
 316              	.LBB88:
 317              	.LBB89:
 318              		.loc 4 493 0
 319 0004 FFF7FEFF 		bl	chSysLock
 320              	.LVL24:
 321              	.LBE89:
 322              	.LBE88:
 323              		.loc 3 160 0
 324 0008 2046     		mov	r0, r4
 325 000a FFF7FEFF 		bl	spi_lld_unselect
 326              	.LVL25:
 327              		.loc 3 162 0
 328 000e BDE81040 		pop	{r4, lr}
 329              		.cfi_restore 14
 330              		.cfi_restore 4
 331              		.cfi_def_cfa_offset 0
 332              	.LVL26:
 333              	.LBB90:
 334              	.LBB91:
 335              		.loc 4 504 0
 336 0012 FFF7FEBF 		b	chSysUnlock
 337              	.LVL27:
 338              	.LBE91:
 339              	.LBE90:
 340              		.cfi_endproc
 341              	.LFE282:
 342              		.size	spiUnselect, .-spiUnselect
ARM GAS  /tmp/ccBeSko7.s 			page 7


 343              		.section	.text.spiStartIgnore,"ax",%progbits
 344              		.align	1
 345              		.global	spiStartIgnore
 346              		.thumb
 347              		.thumb_func
 348              		.type	spiStartIgnore, %function
 349              	spiStartIgnore:
 350              	.LFB283:
 351              		.loc 3 177 0
 352              		.cfi_startproc
 353              		@ args = 0, pretend = 0, frame = 0
 354              		@ frame_needed = 0, uses_anonymous_args = 0
 355              	.LVL28:
 356 0000 38B5     		push	{r3, r4, r5, lr}
 357              		.cfi_def_cfa_offset 16
 358              		.cfi_offset 3, -16
 359              		.cfi_offset 4, -12
 360              		.cfi_offset 5, -8
 361              		.cfi_offset 14, -4
 362              		.loc 3 177 0
 363 0002 0446     		mov	r4, r0
 364 0004 0D46     		mov	r5, r1
 365              	.LBB92:
 366              	.LBB93:
 367              		.loc 4 493 0
 368 0006 FFF7FEFF 		bl	chSysLock
 369              	.LVL29:
 370              	.LBE93:
 371              	.LBE92:
 372              		.loc 3 183 0
 373 000a 0323     		movs	r3, #3
 374 000c 2370     		strb	r3, [r4]
 375 000e 2046     		mov	r0, r4
 376 0010 2946     		mov	r1, r5
 377 0012 FFF7FEFF 		bl	spi_lld_ignore
 378              	.LVL30:
 379              		.loc 3 185 0
 380 0016 BDE83840 		pop	{r3, r4, r5, lr}
 381              		.cfi_restore 14
 382              		.cfi_restore 5
 383              		.cfi_restore 4
 384              		.cfi_restore 3
 385              		.cfi_def_cfa_offset 0
 386              	.LVL31:
 387              	.LBB94:
 388              	.LBB95:
 389              		.loc 4 504 0
 390 001a FFF7FEBF 		b	chSysUnlock
 391              	.LVL32:
 392              	.LBE95:
 393              	.LBE94:
 394              		.cfi_endproc
 395              	.LFE283:
 396              		.size	spiStartIgnore, .-spiStartIgnore
 397              		.section	.text.spiStartExchange,"ax",%progbits
 398              		.align	1
 399              		.global	spiStartExchange
ARM GAS  /tmp/ccBeSko7.s 			page 8


 400              		.thumb
 401              		.thumb_func
 402              		.type	spiStartExchange, %function
 403              	spiStartExchange:
 404              	.LFB284:
 405              		.loc 3 205 0
 406              		.cfi_startproc
 407              		@ args = 0, pretend = 0, frame = 0
 408              		@ frame_needed = 0, uses_anonymous_args = 0
 409              	.LVL33:
 410 0000 F8B5     		push	{r3, r4, r5, r6, r7, lr}
 411              		.cfi_def_cfa_offset 24
 412              		.cfi_offset 3, -24
 413              		.cfi_offset 4, -20
 414              		.cfi_offset 5, -16
 415              		.cfi_offset 6, -12
 416              		.cfi_offset 7, -8
 417              		.cfi_offset 14, -4
 418              		.loc 3 205 0
 419 0002 0446     		mov	r4, r0
 420 0004 1D46     		mov	r5, r3
 421 0006 0F46     		mov	r7, r1
 422 0008 1646     		mov	r6, r2
 423              	.LBB96:
 424              	.LBB97:
 425              		.loc 4 493 0
 426 000a FFF7FEFF 		bl	chSysLock
 427              	.LVL34:
 428              	.LBE97:
 429              	.LBE96:
 430              		.loc 3 212 0
 431 000e 0323     		movs	r3, #3
 432 0010 2370     		strb	r3, [r4]
 433 0012 2046     		mov	r0, r4
 434 0014 3946     		mov	r1, r7
 435 0016 3246     		mov	r2, r6
 436 0018 2B46     		mov	r3, r5
 437 001a FFF7FEFF 		bl	spi_lld_exchange
 438              	.LVL35:
 439              		.loc 3 214 0
 440 001e BDE8F840 		pop	{r3, r4, r5, r6, r7, lr}
 441              		.cfi_restore 14
 442              		.cfi_restore 7
 443              		.cfi_restore 6
 444              		.cfi_restore 5
 445              		.cfi_restore 4
 446              		.cfi_restore 3
 447              		.cfi_def_cfa_offset 0
 448              	.LVL36:
 449              	.LBB98:
 450              	.LBB99:
 451              		.loc 4 504 0
 452 0022 FFF7FEBF 		b	chSysUnlock
 453              	.LVL37:
 454              	.LBE99:
 455              	.LBE98:
 456              		.cfi_endproc
ARM GAS  /tmp/ccBeSko7.s 			page 9


 457              	.LFE284:
 458              		.size	spiStartExchange, .-spiStartExchange
 459              		.section	.text.spiStartSend,"ax",%progbits
 460              		.align	1
 461              		.global	spiStartSend
 462              		.thumb
 463              		.thumb_func
 464              		.type	spiStartSend, %function
 465              	spiStartSend:
 466              	.LFB285:
 467              		.loc 3 231 0
 468              		.cfi_startproc
 469              		@ args = 0, pretend = 0, frame = 0
 470              		@ frame_needed = 0, uses_anonymous_args = 0
 471              	.LVL38:
 472 0000 70B5     		push	{r4, r5, r6, lr}
 473              		.cfi_def_cfa_offset 16
 474              		.cfi_offset 4, -16
 475              		.cfi_offset 5, -12
 476              		.cfi_offset 6, -8
 477              		.cfi_offset 14, -4
 478              		.loc 3 231 0
 479 0002 0446     		mov	r4, r0
 480 0004 0E46     		mov	r6, r1
 481 0006 1546     		mov	r5, r2
 482              	.LBB100:
 483              	.LBB101:
 484              		.loc 4 493 0
 485 0008 FFF7FEFF 		bl	chSysLock
 486              	.LVL39:
 487              	.LBE101:
 488              	.LBE100:
 489              		.loc 3 237 0
 490 000c 0323     		movs	r3, #3
 491 000e 2370     		strb	r3, [r4]
 492 0010 2046     		mov	r0, r4
 493 0012 3146     		mov	r1, r6
 494 0014 2A46     		mov	r2, r5
 495 0016 FFF7FEFF 		bl	spi_lld_send
 496              	.LVL40:
 497              		.loc 3 239 0
 498 001a BDE87040 		pop	{r4, r5, r6, lr}
 499              		.cfi_restore 14
 500              		.cfi_restore 6
 501              		.cfi_restore 5
 502              		.cfi_restore 4
 503              		.cfi_def_cfa_offset 0
 504              	.LVL41:
 505              	.LBB102:
 506              	.LBB103:
 507              		.loc 4 504 0
 508 001e FFF7FEBF 		b	chSysUnlock
 509              	.LVL42:
 510              	.LBE103:
 511              	.LBE102:
 512              		.cfi_endproc
 513              	.LFE285:
ARM GAS  /tmp/ccBeSko7.s 			page 10


 514              		.size	spiStartSend, .-spiStartSend
 515              		.section	.text.spiStartReceive,"ax",%progbits
 516              		.align	1
 517              		.global	spiStartReceive
 518              		.thumb
 519              		.thumb_func
 520              		.type	spiStartReceive, %function
 521              	spiStartReceive:
 522              	.LFB286:
 523              		.loc 3 256 0
 524              		.cfi_startproc
 525              		@ args = 0, pretend = 0, frame = 0
 526              		@ frame_needed = 0, uses_anonymous_args = 0
 527              	.LVL43:
 528 0000 70B5     		push	{r4, r5, r6, lr}
 529              		.cfi_def_cfa_offset 16
 530              		.cfi_offset 4, -16
 531              		.cfi_offset 5, -12
 532              		.cfi_offset 6, -8
 533              		.cfi_offset 14, -4
 534              		.loc 3 256 0
 535 0002 0446     		mov	r4, r0
 536 0004 0E46     		mov	r6, r1
 537 0006 1546     		mov	r5, r2
 538              	.LBB104:
 539              	.LBB105:
 540              		.loc 4 493 0
 541 0008 FFF7FEFF 		bl	chSysLock
 542              	.LVL44:
 543              	.LBE105:
 544              	.LBE104:
 545              		.loc 3 262 0
 546 000c 0323     		movs	r3, #3
 547 000e 2370     		strb	r3, [r4]
 548 0010 2046     		mov	r0, r4
 549 0012 3146     		mov	r1, r6
 550 0014 2A46     		mov	r2, r5
 551 0016 FFF7FEFF 		bl	spi_lld_receive
 552              	.LVL45:
 553              		.loc 3 264 0
 554 001a BDE87040 		pop	{r4, r5, r6, lr}
 555              		.cfi_restore 14
 556              		.cfi_restore 6
 557              		.cfi_restore 5
 558              		.cfi_restore 4
 559              		.cfi_def_cfa_offset 0
 560              	.LVL46:
 561              	.LBB106:
 562              	.LBB107:
 563              		.loc 4 504 0
 564 001e FFF7FEBF 		b	chSysUnlock
 565              	.LVL47:
 566              	.LBE107:
 567              	.LBE106:
 568              		.cfi_endproc
 569              	.LFE286:
 570              		.size	spiStartReceive, .-spiStartReceive
ARM GAS  /tmp/ccBeSko7.s 			page 11


 571              		.section	.text.spiIgnore,"ax",%progbits
 572              		.align	1
 573              		.global	spiIgnore
 574              		.thumb
 575              		.thumb_func
 576              		.type	spiIgnore, %function
 577              	spiIgnore:
 578              	.LFB287:
 579              		.loc 3 281 0
 580              		.cfi_startproc
 581              		@ args = 0, pretend = 0, frame = 0
 582              		@ frame_needed = 0, uses_anonymous_args = 0
 583              	.LVL48:
 584 0000 38B5     		push	{r3, r4, r5, lr}
 585              		.cfi_def_cfa_offset 16
 586              		.cfi_offset 3, -16
 587              		.cfi_offset 4, -12
 588              		.cfi_offset 5, -8
 589              		.cfi_offset 14, -4
 590              		.loc 3 281 0
 591 0002 0446     		mov	r4, r0
 592 0004 0D46     		mov	r5, r1
 593              	.LBB114:
 594              	.LBB115:
 595              		.loc 4 493 0
 596 0006 FFF7FEFF 		bl	chSysLock
 597              	.LVL49:
 598              	.LBE115:
 599              	.LBE114:
 600              		.loc 3 288 0
 601 000a 0323     		movs	r3, #3
 602 000c 2370     		strb	r3, [r4]
 603 000e 2046     		mov	r0, r4
 604 0010 2946     		mov	r1, r5
 605 0012 FFF7FEFF 		bl	spi_lld_ignore
 606              	.LVL50:
 607              	.LBB116:
 608              	.LBB117:
 609              		.loc 4 688 0
 610 0016 04F10800 		add	r0, r4, #8
 611              	.LVL51:
 612 001a FFF7FEFF 		bl	chThdSuspendS
 613              	.LVL52:
 614              	.LBE117:
 615              	.LBE116:
 616              		.loc 3 291 0
 617 001e BDE83840 		pop	{r3, r4, r5, lr}
 618              		.cfi_restore 14
 619              		.cfi_restore 5
 620              		.cfi_restore 4
 621              		.cfi_restore 3
 622              		.cfi_def_cfa_offset 0
 623              	.LVL53:
 624              	.LBB118:
 625              	.LBB119:
 626              		.loc 4 504 0
 627 0022 FFF7FEBF 		b	chSysUnlock
ARM GAS  /tmp/ccBeSko7.s 			page 12


 628              	.LVL54:
 629              	.LBE119:
 630              	.LBE118:
 631              		.cfi_endproc
 632              	.LFE287:
 633              		.size	spiIgnore, .-spiIgnore
 634              		.section	.text.spiExchange,"ax",%progbits
 635              		.align	1
 636              		.global	spiExchange
 637              		.thumb
 638              		.thumb_func
 639              		.type	spiExchange, %function
 640              	spiExchange:
 641              	.LFB288:
 642              		.loc 3 312 0
 643              		.cfi_startproc
 644              		@ args = 0, pretend = 0, frame = 0
 645              		@ frame_needed = 0, uses_anonymous_args = 0
 646              	.LVL55:
 647 0000 F8B5     		push	{r3, r4, r5, r6, r7, lr}
 648              		.cfi_def_cfa_offset 24
 649              		.cfi_offset 3, -24
 650              		.cfi_offset 4, -20
 651              		.cfi_offset 5, -16
 652              		.cfi_offset 6, -12
 653              		.cfi_offset 7, -8
 654              		.cfi_offset 14, -4
 655              		.loc 3 312 0
 656 0002 0446     		mov	r4, r0
 657 0004 1D46     		mov	r5, r3
 658 0006 0F46     		mov	r7, r1
 659 0008 1646     		mov	r6, r2
 660              	.LBB126:
 661              	.LBB127:
 662              		.loc 4 493 0
 663 000a FFF7FEFF 		bl	chSysLock
 664              	.LVL56:
 665              	.LBE127:
 666              	.LBE126:
 667              		.loc 3 320 0
 668 000e 0323     		movs	r3, #3
 669 0010 2370     		strb	r3, [r4]
 670 0012 2046     		mov	r0, r4
 671 0014 3946     		mov	r1, r7
 672 0016 3246     		mov	r2, r6
 673 0018 2B46     		mov	r3, r5
 674 001a FFF7FEFF 		bl	spi_lld_exchange
 675              	.LVL57:
 676              	.LBB128:
 677              	.LBB129:
 678              		.loc 4 688 0
 679 001e 04F10800 		add	r0, r4, #8
 680              	.LVL58:
 681 0022 FFF7FEFF 		bl	chThdSuspendS
 682              	.LVL59:
 683              	.LBE129:
 684              	.LBE128:
ARM GAS  /tmp/ccBeSko7.s 			page 13


 685              		.loc 3 323 0
 686 0026 BDE8F840 		pop	{r3, r4, r5, r6, r7, lr}
 687              		.cfi_restore 14
 688              		.cfi_restore 7
 689              		.cfi_restore 6
 690              		.cfi_restore 5
 691              		.cfi_restore 4
 692              		.cfi_restore 3
 693              		.cfi_def_cfa_offset 0
 694              	.LVL60:
 695              	.LBB130:
 696              	.LBB131:
 697              		.loc 4 504 0
 698 002a FFF7FEBF 		b	chSysUnlock
 699              	.LVL61:
 700              	.LBE131:
 701              	.LBE130:
 702              		.cfi_endproc
 703              	.LFE288:
 704              		.size	spiExchange, .-spiExchange
 705              		.section	.text.spiSend,"ax",%progbits
 706              		.align	1
 707              		.global	spiSend
 708              		.thumb
 709              		.thumb_func
 710              		.type	spiSend, %function
 711              	spiSend:
 712              	.LFB289:
 713              		.loc 3 341 0
 714              		.cfi_startproc
 715              		@ args = 0, pretend = 0, frame = 0
 716              		@ frame_needed = 0, uses_anonymous_args = 0
 717              	.LVL62:
 718 0000 70B5     		push	{r4, r5, r6, lr}
 719              		.cfi_def_cfa_offset 16
 720              		.cfi_offset 4, -16
 721              		.cfi_offset 5, -12
 722              		.cfi_offset 6, -8
 723              		.cfi_offset 14, -4
 724              		.loc 3 341 0
 725 0002 0446     		mov	r4, r0
 726 0004 0E46     		mov	r6, r1
 727 0006 1546     		mov	r5, r2
 728              	.LBB138:
 729              	.LBB139:
 730              		.loc 4 493 0
 731 0008 FFF7FEFF 		bl	chSysLock
 732              	.LVL63:
 733              	.LBE139:
 734              	.LBE138:
 735              		.loc 3 348 0
 736 000c 0323     		movs	r3, #3
 737 000e 2370     		strb	r3, [r4]
 738 0010 2046     		mov	r0, r4
 739 0012 3146     		mov	r1, r6
 740 0014 2A46     		mov	r2, r5
 741 0016 FFF7FEFF 		bl	spi_lld_send
ARM GAS  /tmp/ccBeSko7.s 			page 14


 742              	.LVL64:
 743              	.LBB140:
 744              	.LBB141:
 745              		.loc 4 688 0
 746 001a 04F10800 		add	r0, r4, #8
 747              	.LVL65:
 748 001e FFF7FEFF 		bl	chThdSuspendS
 749              	.LVL66:
 750              	.LBE141:
 751              	.LBE140:
 752              		.loc 3 351 0
 753 0022 BDE87040 		pop	{r4, r5, r6, lr}
 754              		.cfi_restore 14
 755              		.cfi_restore 6
 756              		.cfi_restore 5
 757              		.cfi_restore 4
 758              		.cfi_def_cfa_offset 0
 759              	.LVL67:
 760              	.LBB142:
 761              	.LBB143:
 762              		.loc 4 504 0
 763 0026 FFF7FEBF 		b	chSysUnlock
 764              	.LVL68:
 765              	.LBE143:
 766              	.LBE142:
 767              		.cfi_endproc
 768              	.LFE289:
 769              		.size	spiSend, .-spiSend
 770              		.section	.text.spiReceive,"ax",%progbits
 771              		.align	1
 772              		.global	spiReceive
 773              		.thumb
 774              		.thumb_func
 775              		.type	spiReceive, %function
 776              	spiReceive:
 777              	.LFB290:
 778              		.loc 3 369 0
 779              		.cfi_startproc
 780              		@ args = 0, pretend = 0, frame = 0
 781              		@ frame_needed = 0, uses_anonymous_args = 0
 782              	.LVL69:
 783 0000 70B5     		push	{r4, r5, r6, lr}
 784              		.cfi_def_cfa_offset 16
 785              		.cfi_offset 4, -16
 786              		.cfi_offset 5, -12
 787              		.cfi_offset 6, -8
 788              		.cfi_offset 14, -4
 789              		.loc 3 369 0
 790 0002 0446     		mov	r4, r0
 791 0004 0E46     		mov	r6, r1
 792 0006 1546     		mov	r5, r2
 793              	.LBB150:
 794              	.LBB151:
 795              		.loc 4 493 0
 796 0008 FFF7FEFF 		bl	chSysLock
 797              	.LVL70:
 798              	.LBE151:
ARM GAS  /tmp/ccBeSko7.s 			page 15


 799              	.LBE150:
 800              		.loc 3 376 0
 801 000c 0323     		movs	r3, #3
 802 000e 2370     		strb	r3, [r4]
 803 0010 2046     		mov	r0, r4
 804 0012 3146     		mov	r1, r6
 805 0014 2A46     		mov	r2, r5
 806 0016 FFF7FEFF 		bl	spi_lld_receive
 807              	.LVL71:
 808              	.LBB152:
 809              	.LBB153:
 810              		.loc 4 688 0
 811 001a 04F10800 		add	r0, r4, #8
 812              	.LVL72:
 813 001e FFF7FEFF 		bl	chThdSuspendS
 814              	.LVL73:
 815              	.LBE153:
 816              	.LBE152:
 817              		.loc 3 379 0
 818 0022 BDE87040 		pop	{r4, r5, r6, lr}
 819              		.cfi_restore 14
 820              		.cfi_restore 6
 821              		.cfi_restore 5
 822              		.cfi_restore 4
 823              		.cfi_def_cfa_offset 0
 824              	.LVL74:
 825              	.LBB154:
 826              	.LBB155:
 827              		.loc 4 504 0
 828 0026 FFF7FEBF 		b	chSysUnlock
 829              	.LVL75:
 830              	.LBE155:
 831              	.LBE154:
 832              		.cfi_endproc
 833              	.LFE290:
 834              		.size	spiReceive, .-spiReceive
 835              		.section	.text.spiAcquireBus,"ax",%progbits
 836              		.align	1
 837              		.global	spiAcquireBus
 838              		.thumb
 839              		.thumb_func
 840              		.type	spiAcquireBus, %function
 841              	spiAcquireBus:
 842              	.LFB291:
 843              		.loc 3 394 0
 844              		.cfi_startproc
 845              		@ args = 0, pretend = 0, frame = 0
 846              		@ frame_needed = 0, uses_anonymous_args = 0
 847              		@ link register save eliminated.
 848              	.LVL76:
 849              	.LBB156:
 850              	.LBB157:
 851              		.loc 4 907 0
 852 0000 0C30     		adds	r0, r0, #12
 853              	.LVL77:
 854 0002 FFF7FEBF 		b	chMtxLock
 855              	.LVL78:
ARM GAS  /tmp/ccBeSko7.s 			page 16


 856              	.LBE157:
 857              	.LBE156:
 858              		.cfi_endproc
 859              	.LFE291:
 860              		.size	spiAcquireBus, .-spiAcquireBus
 861              		.section	.text.spiReleaseBus,"ax",%progbits
 862              		.align	1
 863              		.global	spiReleaseBus
 864              		.thumb
 865              		.thumb_func
 866              		.type	spiReleaseBus, %function
 867              	spiReleaseBus:
 868              	.LFB292:
 869              		.loc 3 410 0
 870              		.cfi_startproc
 871              		@ args = 0, pretend = 0, frame = 0
 872              		@ frame_needed = 0, uses_anonymous_args = 0
 873              		@ link register save eliminated.
 874              	.LVL79:
 875              	.LBB158:
 876              	.LBB159:
 877              		.loc 4 931 0
 878 0000 0C30     		adds	r0, r0, #12
 879              	.LVL80:
 880 0002 FFF7FEBF 		b	chMtxUnlock
 881              	.LVL81:
 882              	.LBE159:
 883              	.LBE158:
 884              		.cfi_endproc
 885              	.LFE292:
 886              		.size	spiReleaseBus, .-spiReleaseBus
 887              		.text
 888              	.Letext0:
 889              		.file 5 "/usr/lib/gcc/arm-none-eabi/4.9.3/include/stddef.h"
 890              		.file 6 "/usr/include/newlib/machine/_default_types.h"
 891              		.file 7 "/usr/include/newlib/sys/_stdint.h"
 892              		.file 8 "../../modules/ChibiOS/os/common/ports/ARMCMx/compilers/GCC/chtypes.h"
 893              		.file 9 "../../modules/ChibiOS/os/rt/include/chsystypes.h"
 894              		.file 10 "../../modules/ChibiOS/os/rt/include/chschd.h"
 895              		.file 11 "../../modules/ChibiOS/os/common/ext/CMSIS/ST/STM32F4xx/stm32f407xx.h"
 896              		.file 12 "../../modules/ChibiOS/os/common/ports/ARMCMx/chcore.h"
 897              		.file 13 "../../modules/ChibiOS/os/common/ports/ARMCMx/chcore_v7m.h"
 898              		.file 14 "../../modules/ChibiOS/os/rt/include/chtm.h"
 899              		.file 15 "../../modules/ChibiOS/os/rt/include/chstats.h"
 900              		.file 16 "../../modules/ChibiOS/os/rt/include/chsem.h"
 901              		.file 17 "../../modules/ChibiOS/os/rt/include/chmtx.h"
 902              		.file 18 "../../modules/ChibiOS/os/hal/ports/STM32/LLD/DMAv2/stm32_dma.h"
 903              		.file 19 "../../modules/ChibiOS/os/hal/ports/STM32/LLD/GPIOv2/hal_pal_lld.h"
 904              		.file 20 "../../modules/ChibiOS/os/hal/include/hal_spi.h"
 905              		.file 21 "../../modules/ChibiOS/os/hal/ports/STM32/LLD/SPIv1/hal_spi_lld.h"
 906              		.file 22 "../../modules/ChibiOS/os/common/ext/CMSIS/include/core_cm4.h"
 907              		.file 23 "../../modules/ChibiOS/os/rt/include/chthreads.h"