ARM GAS  /tmp/ccQCN2vm.s 			page 1


   1              		.syntax unified
   2              		.cpu cortex-m4
   3              		.eabi_attribute 27, 1
   4              		.eabi_attribute 28, 1
   5              		.fpu fpv4-sp-d16
   6              		.eabi_attribute 20, 1
   7              		.eabi_attribute 21, 1
   8              		.eabi_attribute 23, 3
   9              		.eabi_attribute 24, 1
  10              		.eabi_attribute 25, 1
  11              		.eabi_attribute 26, 1
  12              		.eabi_attribute 30, 4
  13              		.eabi_attribute 34, 1
  14              		.eabi_attribute 18, 4
  15              		.thumb
  16              		.file	"hal_st.c"
  17              		.text
  18              	.Ltext0:
  19              		.cfi_sections	.debug_frame
  20              		.section	.text.stInit,"ax",%progbits
  21              		.align	1
  22              		.global	stInit
  23              		.thumb
  24              		.thumb_func
  25              		.type	stInit, %function
  26              	stInit:
  27              	.LFB277:
  28              		.file 1 "../../modules/ChibiOS/os/hal/src/hal_st.c"
  29              		.loc 1 60 0
  30              		.cfi_startproc
  31              		@ args = 0, pretend = 0, frame = 0
  32              		@ frame_needed = 0, uses_anonymous_args = 0
  33              		@ link register save eliminated.
  34              		.loc 1 62 0
  35 0000 FFF7FEBF 		b	st_lld_init
  36              	.LVL0:
  37              		.cfi_endproc
  38              	.LFE277:
  39              		.size	stInit, .-stInit
  40              		.section	.text.stStartAlarm,"ax",%progbits
  41              		.align	1
  42              		.global	stStartAlarm
  43              		.thumb
  44              		.thumb_func
  45              		.type	stStartAlarm, %function
  46              	stStartAlarm:
  47              	.LFB278:
  48              		.loc 1 76 0
  49              		.cfi_startproc
  50              		@ args = 0, pretend = 0, frame = 0
  51              		@ frame_needed = 0, uses_anonymous_args = 0
  52              		@ link register save eliminated.
  53              	.LVL1:
  54              	.LBB10:
  55              	.LBB11:
  56              		.file 2 "../../modules/ChibiOS/os/hal/ports/STM32/LLD/TIMv1/hal_st_lld.h"
  57              		.loc 2 155 0
ARM GAS  /tmp/ccQCN2vm.s 			page 2


  58 0000 034B     		ldr	r3, .L3
  59              		.loc 2 156 0
  60 0002 0022     		movs	r2, #0
  61              		.loc 2 155 0
  62 0004 5863     		str	r0, [r3, #52]
  63              		.loc 2 156 0
  64 0006 1A61     		str	r2, [r3, #16]
  65              		.loc 2 157 0
  66 0008 0222     		movs	r2, #2
  67 000a DA60     		str	r2, [r3, #12]
  68 000c 7047     		bx	lr
  69              	.L4:
  70 000e 00BF     		.align	2
  71              	.L3:
  72 0010 000C0040 		.word	1073744896
  73              	.LBE11:
  74              	.LBE10:
  75              		.cfi_endproc
  76              	.LFE278:
  77              		.size	stStartAlarm, .-stStartAlarm
  78              		.section	.text.stStopAlarm,"ax",%progbits
  79              		.align	1
  80              		.global	stStopAlarm
  81              		.thumb
  82              		.thumb_func
  83              		.type	stStopAlarm, %function
  84              	stStopAlarm:
  85              	.LFB279:
  86              		.loc 1 90 0
  87              		.cfi_startproc
  88              		@ args = 0, pretend = 0, frame = 0
  89              		@ frame_needed = 0, uses_anonymous_args = 0
  90              		@ link register save eliminated.
  91              	.LBB12:
  92              	.LBB13:
  93              		.loc 2 167 0
  94 0000 014B     		ldr	r3, .L6
  95 0002 0022     		movs	r2, #0
  96 0004 DA60     		str	r2, [r3, #12]
  97 0006 7047     		bx	lr
  98              	.L7:
  99              		.align	2
 100              	.L6:
 101 0008 000C0040 		.word	1073744896
 102              	.LBE13:
 103              	.LBE12:
 104              		.cfi_endproc
 105              	.LFE279:
 106              		.size	stStopAlarm, .-stStopAlarm
 107              		.section	.text.stSetAlarm,"ax",%progbits
 108              		.align	1
 109              		.global	stSetAlarm
 110              		.thumb
 111              		.thumb_func
 112              		.type	stSetAlarm, %function
 113              	stSetAlarm:
 114              	.LFB280:
ARM GAS  /tmp/ccQCN2vm.s 			page 3


 115              		.loc 1 104 0
 116              		.cfi_startproc
 117              		@ args = 0, pretend = 0, frame = 0
 118              		@ frame_needed = 0, uses_anonymous_args = 0
 119              		@ link register save eliminated.
 120              	.LVL2:
 121              	.LBB14:
 122              	.LBB15:
 123              		.loc 2 179 0
 124 0000 014B     		ldr	r3, .L9
 125 0002 5863     		str	r0, [r3, #52]
 126 0004 7047     		bx	lr
 127              	.L10:
 128 0006 00BF     		.align	2
 129              	.L9:
 130 0008 000C0040 		.word	1073744896
 131              	.LBE15:
 132              	.LBE14:
 133              		.cfi_endproc
 134              	.LFE280:
 135              		.size	stSetAlarm, .-stSetAlarm
 136              		.section	.text.stGetAlarm,"ax",%progbits
 137              		.align	1
 138              		.global	stGetAlarm
 139              		.thumb
 140              		.thumb_func
 141              		.type	stGetAlarm, %function
 142              	stGetAlarm:
 143              	.LFB281:
 144              		.loc 1 120 0
 145              		.cfi_startproc
 146              		@ args = 0, pretend = 0, frame = 0
 147              		@ frame_needed = 0, uses_anonymous_args = 0
 148              		@ link register save eliminated.
 149              	.LBB16:
 150              	.LBB17:
 151              		.loc 2 191 0
 152 0000 014B     		ldr	r3, .L12
 153 0002 586B     		ldr	r0, [r3, #52]
 154              	.LBE17:
 155              	.LBE16:
 156              		.loc 1 125 0
 157 0004 7047     		bx	lr
 158              	.L13:
 159 0006 00BF     		.align	2
 160              	.L12:
 161 0008 000C0040 		.word	1073744896
 162              		.cfi_endproc
 163              	.LFE281:
 164              		.size	stGetAlarm, .-stGetAlarm
 165              		.text
 166              	.Letext0:
 167              		.file 3 "/usr/include/newlib/machine/_default_types.h"
 168              		.file 4 "/usr/include/newlib/sys/_stdint.h"
 169              		.file 5 "../../modules/ChibiOS/os/common/ports/ARMCMx/compilers/GCC/chtypes.h"
 170              		.file 6 "../../modules/ChibiOS/os/rt/include/chsystypes.h"
 171              		.file 7 "../../modules/ChibiOS/os/rt/include/chschd.h"
ARM GAS  /tmp/ccQCN2vm.s 			page 4


 172              		.file 8 "../../modules/ChibiOS/os/common/ports/ARMCMx/chcore.h"
 173              		.file 9 "../../modules/ChibiOS/os/common/ports/ARMCMx/chcore_v7m.h"
 174              		.file 10 "../../modules/ChibiOS/os/hal/ports/STM32/LLD/TIMv1/stm32_tim.h"
 175              		.file 11 "../../modules/ChibiOS/os/rt/include/chtm.h"
 176              		.file 12 "../../modules/ChibiOS/os/rt/include/chstats.h"
 177              		.file 13 "../../modules/ChibiOS/os/rt/include/chsem.h"
 178              		.file 14 "../../modules/ChibiOS/os/rt/include/chmtx.h"
 179              		.file 15 "../../modules/ChibiOS/os/common/ext/CMSIS/include/core_cm4.h"
 180              		.section	.debug_info,"",%progbits
 181              	.Ldebug_info0:
 182 0000 640A0000 		.4byte	0xa64
 183 0004 0400     		.2byte	0x4
 184 0006 00000000 		.4byte	.Ldebug_abbrev0
 185 000a 04       		.byte	0x4
 186 000b 01       		.uleb128 0x1
 187 000c E0010000 		.4byte	.LASF124
 188 0010 01       		.byte	0x1
 189 0011 92050000 		.4byte	.LASF125
 190 0015 29010000 		.4byte	.LASF126
 191 0019 00000000 		.4byte	.Ldebug_ranges0+0
 192 001d 00000000 		.4byte	0
 193 0021 00000000 		.4byte	.Ldebug_line0
 194 0025 02       		.uleb128 0x2
 195 0026 04       		.byte	0x4
 196 0027 05       		.byte	0x5
 197 0028 696E7400 		.ascii	"int\000"
 198 002c 03       		.uleb128 0x3
 199 002d 04       		.byte	0x4
 200 002e 07       		.byte	0x7
 201 002f D3010000 		.4byte	.LASF0
 202 0033 03       		.uleb128 0x3
 203 0034 01       		.byte	0x1
 204 0035 06       		.byte	0x6
 205 0036 16010000 		.4byte	.LASF1
 206 003a 04       		.uleb128 0x4
 207 003b 40000000 		.4byte	.LASF5
 208 003f 03       		.byte	0x3
 209 0040 1D       		.byte	0x1d
 210 0041 45000000 		.4byte	0x45
 211 0045 03       		.uleb128 0x3
 212 0046 01       		.byte	0x1
 213 0047 08       		.byte	0x8
 214 0048 54040000 		.4byte	.LASF2
 215 004c 03       		.uleb128 0x3
 216 004d 02       		.byte	0x2
 217 004e 05       		.byte	0x5
 218 004f 62040000 		.4byte	.LASF3
 219 0053 03       		.uleb128 0x3
 220 0054 02       		.byte	0x2
 221 0055 07       		.byte	0x7
 222 0056 65050000 		.4byte	.LASF4
 223 005a 04       		.uleb128 0x4
 224 005b 68030000 		.4byte	.LASF6
 225 005f 03       		.byte	0x3
 226 0060 3F       		.byte	0x3f
 227 0061 65000000 		.4byte	0x65
 228 0065 03       		.uleb128 0x3
ARM GAS  /tmp/ccQCN2vm.s 			page 5


 229 0066 04       		.byte	0x4
 230 0067 05       		.byte	0x5
 231 0068 67010000 		.4byte	.LASF7
 232 006c 04       		.uleb128 0x4
 233 006d 8C010000 		.4byte	.LASF8
 234 0071 03       		.byte	0x3
 235 0072 41       		.byte	0x41
 236 0073 77000000 		.4byte	0x77
 237 0077 03       		.uleb128 0x3
 238 0078 04       		.byte	0x4
 239 0079 07       		.byte	0x7
 240 007a F1040000 		.4byte	.LASF9
 241 007e 03       		.uleb128 0x3
 242 007f 08       		.byte	0x8
 243 0080 05       		.byte	0x5
 244 0081 BF010000 		.4byte	.LASF10
 245 0085 04       		.uleb128 0x4
 246 0086 02040000 		.4byte	.LASF11
 247 008a 03       		.byte	0x3
 248 008b 5B       		.byte	0x5b
 249 008c 90000000 		.4byte	0x90
 250 0090 03       		.uleb128 0x3
 251 0091 08       		.byte	0x8
 252 0092 07       		.byte	0x7
 253 0093 94000000 		.4byte	.LASF12
 254 0097 04       		.uleb128 0x4
 255 0098 86040000 		.4byte	.LASF13
 256 009c 04       		.byte	0x4
 257 009d 14       		.byte	0x14
 258 009e 3A000000 		.4byte	0x3a
 259 00a2 04       		.uleb128 0x4
 260 00a3 4C040000 		.4byte	.LASF14
 261 00a7 04       		.byte	0x4
 262 00a8 1F       		.byte	0x1f
 263 00a9 5A000000 		.4byte	0x5a
 264 00ad 04       		.uleb128 0x4
 265 00ae CB040000 		.4byte	.LASF15
 266 00b2 04       		.byte	0x4
 267 00b3 20       		.byte	0x20
 268 00b4 6C000000 		.4byte	0x6c
 269 00b8 04       		.uleb128 0x4
 270 00b9 2A000000 		.4byte	.LASF16
 271 00bd 04       		.byte	0x4
 272 00be 26       		.byte	0x26
 273 00bf 85000000 		.4byte	0x85
 274 00c3 04       		.uleb128 0x4
 275 00c4 78050000 		.4byte	.LASF17
 276 00c8 05       		.byte	0x5
 277 00c9 39       		.byte	0x39
 278 00ca AD000000 		.4byte	0xad
 279 00ce 04       		.uleb128 0x4
 280 00cf FB000000 		.4byte	.LASF18
 281 00d3 05       		.byte	0x5
 282 00d4 3A       		.byte	0x3a
 283 00d5 B8000000 		.4byte	0xb8
 284 00d9 04       		.uleb128 0x4
 285 00da 70010000 		.4byte	.LASF19
ARM GAS  /tmp/ccQCN2vm.s 			page 6


 286 00de 05       		.byte	0x5
 287 00df 3C       		.byte	0x3c
 288 00e0 97000000 		.4byte	0x97
 289 00e4 04       		.uleb128 0x4
 290 00e5 78010000 		.4byte	.LASF20
 291 00e9 05       		.byte	0x5
 292 00ea 3D       		.byte	0x3d
 293 00eb 97000000 		.4byte	0x97
 294 00ef 04       		.uleb128 0x4
 295 00f0 18040000 		.4byte	.LASF21
 296 00f4 05       		.byte	0x5
 297 00f5 3E       		.byte	0x3e
 298 00f6 97000000 		.4byte	0x97
 299 00fa 04       		.uleb128 0x4
 300 00fb 35040000 		.4byte	.LASF22
 301 00ff 05       		.byte	0x5
 302 0100 40       		.byte	0x40
 303 0101 AD000000 		.4byte	0xad
 304 0105 04       		.uleb128 0x4
 305 0106 10030000 		.4byte	.LASF23
 306 010a 05       		.byte	0x5
 307 010b 41       		.byte	0x41
 308 010c A2000000 		.4byte	0xa2
 309 0110 04       		.uleb128 0x4
 310 0111 5C030000 		.4byte	.LASF24
 311 0115 05       		.byte	0x5
 312 0116 43       		.byte	0x43
 313 0117 AD000000 		.4byte	0xad
 314 011b 04       		.uleb128 0x4
 315 011c CD010000 		.4byte	.LASF25
 316 0120 05       		.byte	0x5
 317 0121 45       		.byte	0x45
 318 0122 A2000000 		.4byte	0xa2
 319 0126 04       		.uleb128 0x4
 320 0127 1B030000 		.4byte	.LASF26
 321 012b 05       		.byte	0x5
 322 012c 46       		.byte	0x46
 323 012d AD000000 		.4byte	0xad
 324 0131 04       		.uleb128 0x4
 325 0132 34050000 		.4byte	.LASF27
 326 0136 06       		.byte	0x6
 327 0137 33       		.byte	0x33
 328 0138 AD000000 		.4byte	0xad
 329 013c 04       		.uleb128 0x4
 330 013d 26050000 		.4byte	.LASF28
 331 0141 06       		.byte	0x6
 332 0142 3F       		.byte	0x3f
 333 0143 47010000 		.4byte	0x147
 334 0147 05       		.uleb128 0x5
 335 0148 06030000 		.4byte	.LASF47
 336 014c 60       		.byte	0x60
 337 014d 07       		.byte	0x7
 338 014e 9A       		.byte	0x9a
 339 014f 32020000 		.4byte	0x232
 340 0153 06       		.uleb128 0x6
 341 0154 DC020000 		.4byte	.LASF29
 342 0158 07       		.byte	0x7
ARM GAS  /tmp/ccQCN2vm.s 			page 7


 343 0159 9B       		.byte	0x9b
 344 015a 67020000 		.4byte	0x267
 345 015e 00       		.byte	0
 346 015f 06       		.uleb128 0x6
 347 0160 F5030000 		.4byte	.LASF30
 348 0164 07       		.byte	0x7
 349 0165 9C       		.byte	0x9c
 350 0166 FA000000 		.4byte	0xfa
 351 016a 08       		.byte	0x8
 352 016b 07       		.uleb128 0x7
 353 016c 63747800 		.ascii	"ctx\000"
 354 0170 07       		.byte	0x7
 355 0171 9D       		.byte	0x9d
 356 0172 91040000 		.4byte	0x491
 357 0176 0C       		.byte	0xc
 358 0177 06       		.uleb128 0x6
 359 0178 90030000 		.4byte	.LASF31
 360 017c 07       		.byte	0x7
 361 017d 9F       		.byte	0x9f
 362 017e 3D020000 		.4byte	0x23d
 363 0182 10       		.byte	0x10
 364 0183 06       		.uleb128 0x6
 365 0184 1B050000 		.4byte	.LASF32
 366 0188 07       		.byte	0x7
 367 0189 A0       		.byte	0xa0
 368 018a 3D020000 		.4byte	0x23d
 369 018e 14       		.byte	0x14
 370 018f 06       		.uleb128 0x6
 371 0190 01030000 		.4byte	.LASF33
 372 0194 07       		.byte	0x7
 373 0195 A7       		.byte	0xa7
 374 0196 9A080000 		.4byte	0x89a
 375 019a 18       		.byte	0x18
 376 019b 06       		.uleb128 0x6
 377 019c 03050000 		.4byte	.LASF34
 378 01a0 07       		.byte	0x7
 379 01a1 B0       		.byte	0xb0
 380 01a2 AC080000 		.4byte	0x8ac
 381 01a6 1C       		.byte	0x1c
 382 01a7 06       		.uleb128 0x6
 383 01a8 61010000 		.4byte	.LASF35
 384 01ac 07       		.byte	0x7
 385 01ad B5       		.byte	0xb5
 386 01ae E4000000 		.4byte	0xe4
 387 01b2 20       		.byte	0x20
 388 01b3 06       		.uleb128 0x6
 389 01b4 E6050000 		.4byte	.LASF36
 390 01b8 07       		.byte	0x7
 391 01b9 B9       		.byte	0xb9
 392 01ba D9000000 		.4byte	0xd9
 393 01be 21       		.byte	0x21
 394 01bf 06       		.uleb128 0x6
 395 01c0 20040000 		.4byte	.LASF37
 396 01c4 07       		.byte	0x7
 397 01c5 BE       		.byte	0xbe
 398 01c6 EF000000 		.4byte	0xef
 399 01ca 22       		.byte	0x22
ARM GAS  /tmp/ccQCN2vm.s 			page 8


 400 01cb 08       		.uleb128 0x8
 401 01cc 7500     		.ascii	"u\000"
 402 01ce 07       		.byte	0x7
 403 01cf 0F01     		.2byte	0x10f
 404 01d1 CF070000 		.4byte	0x7cf
 405 01d5 24       		.byte	0x24
 406 01d6 09       		.uleb128 0x9
 407 01d7 B7010000 		.4byte	.LASF38
 408 01db 07       		.byte	0x7
 409 01dc 1401     		.2byte	0x114
 410 01de 43020000 		.4byte	0x243
 411 01e2 28       		.byte	0x28
 412 01e3 09       		.uleb128 0x9
 413 01e4 58010000 		.4byte	.LASF39
 414 01e8 07       		.byte	0x7
 415 01e9 1A01     		.2byte	0x11a
 416 01eb 67020000 		.4byte	0x267
 417 01ef 2C       		.byte	0x2c
 418 01f0 09       		.uleb128 0x9
 419 01f1 22030000 		.4byte	.LASF40
 420 01f5 07       		.byte	0x7
 421 01f6 2001     		.2byte	0x120
 422 01f8 10010000 		.4byte	0x110
 423 01fc 34       		.byte	0x34
 424 01fd 09       		.uleb128 0x9
 425 01fe 26060000 		.4byte	.LASF41
 426 0202 07       		.byte	0x7
 427 0203 2701     		.2byte	0x127
 428 0205 94080000 		.4byte	0x894
 429 0209 38       		.byte	0x38
 430 020a 09       		.uleb128 0x9
 431 020b 96030000 		.4byte	.LASF42
 432 020f 07       		.byte	0x7
 433 0210 2B01     		.2byte	0x12b
 434 0212 FA000000 		.4byte	0xfa
 435 0216 3C       		.byte	0x3c
 436 0217 09       		.uleb128 0x9
 437 0218 E2020000 		.4byte	.LASF43
 438 021c 07       		.byte	0x7
 439 021d 3201     		.2byte	0x132
 440 021f 1A030000 		.4byte	0x31a
 441 0223 40       		.byte	0x40
 442 0224 09       		.uleb128 0x9
 443 0225 86010000 		.4byte	.LASF44
 444 0229 07       		.byte	0x7
 445 022a 3801     		.2byte	0x138
 446 022c 80070000 		.4byte	0x780
 447 0230 48       		.byte	0x48
 448 0231 00       		.byte	0
 449 0232 04       		.uleb128 0x4
 450 0233 A8030000 		.4byte	.LASF45
 451 0237 06       		.byte	0x6
 452 0238 44       		.byte	0x44
 453 0239 3D020000 		.4byte	0x23d
 454 023d 0A       		.uleb128 0xa
 455 023e 04       		.byte	0x4
 456 023f 3C010000 		.4byte	0x13c
ARM GAS  /tmp/ccQCN2vm.s 			page 9


 457 0243 04       		.uleb128 0x4
 458 0244 FE050000 		.4byte	.LASF46
 459 0248 06       		.byte	0x6
 460 0249 49       		.byte	0x49
 461 024a 4E020000 		.4byte	0x24e
 462 024e 05       		.uleb128 0x5
 463 024f DB040000 		.4byte	.LASF48
 464 0253 04       		.byte	0x4
 465 0254 07       		.byte	0x7
 466 0255 88       		.byte	0x88
 467 0256 67020000 		.4byte	0x267
 468 025a 06       		.uleb128 0x6
 469 025b 18000000 		.4byte	.LASF49
 470 025f 07       		.byte	0x7
 471 0260 89       		.byte	0x89
 472 0261 3D020000 		.4byte	0x23d
 473 0265 00       		.byte	0
 474 0266 00       		.byte	0
 475 0267 04       		.uleb128 0x4
 476 0268 BC050000 		.4byte	.LASF50
 477 026c 06       		.byte	0x6
 478 026d 50       		.byte	0x50
 479 026e 72020000 		.4byte	0x272
 480 0272 05       		.uleb128 0x5
 481 0273 5B000000 		.4byte	.LASF51
 482 0277 08       		.byte	0x8
 483 0278 07       		.byte	0x7
 484 0279 8F       		.byte	0x8f
 485 027a 97020000 		.4byte	0x297
 486 027e 06       		.uleb128 0x6
 487 027f 18000000 		.4byte	.LASF49
 488 0283 07       		.byte	0x7
 489 0284 90       		.byte	0x90
 490 0285 3D020000 		.4byte	0x23d
 491 0289 00       		.byte	0
 492 028a 06       		.uleb128 0x6
 493 028b 4A000000 		.4byte	.LASF52
 494 028f 07       		.byte	0x7
 495 0290 91       		.byte	0x91
 496 0291 3D020000 		.4byte	0x23d
 497 0295 04       		.byte	0x4
 498 0296 00       		.byte	0
 499 0297 04       		.uleb128 0x4
 500 0298 00000000 		.4byte	.LASF53
 501 029c 06       		.byte	0x6
 502 029d 57       		.byte	0x57
 503 029e A2020000 		.4byte	0x2a2
 504 02a2 0B       		.uleb128 0xb
 505 02a3 4E030000 		.4byte	.LASF54
 506 02a7 1C       		.byte	0x1c
 507 02a8 07       		.byte	0x7
 508 02a9 6A01     		.2byte	0x16a
 509 02ab FE020000 		.4byte	0x2fe
 510 02af 09       		.uleb128 0x9
 511 02b0 DC020000 		.4byte	.LASF29
 512 02b4 07       		.byte	0x7
 513 02b5 6B01     		.2byte	0x16b
ARM GAS  /tmp/ccQCN2vm.s 			page 10


 514 02b7 67020000 		.4byte	0x267
 515 02bb 00       		.byte	0
 516 02bc 09       		.uleb128 0x9
 517 02bd F5030000 		.4byte	.LASF30
 518 02c1 07       		.byte	0x7
 519 02c2 6C01     		.2byte	0x16c
 520 02c4 FA000000 		.4byte	0xfa
 521 02c8 08       		.byte	0x8
 522 02c9 08       		.uleb128 0x8
 523 02ca 63747800 		.ascii	"ctx\000"
 524 02ce 07       		.byte	0x7
 525 02cf 6E01     		.2byte	0x16e
 526 02d1 91040000 		.4byte	0x491
 527 02d5 0C       		.byte	0xc
 528 02d6 09       		.uleb128 0x9
 529 02d7 90030000 		.4byte	.LASF31
 530 02db 07       		.byte	0x7
 531 02dc 7101     		.2byte	0x171
 532 02de 3D020000 		.4byte	0x23d
 533 02e2 10       		.byte	0x10
 534 02e3 09       		.uleb128 0x9
 535 02e4 1B050000 		.4byte	.LASF32
 536 02e8 07       		.byte	0x7
 537 02e9 7201     		.2byte	0x172
 538 02eb 3D020000 		.4byte	0x23d
 539 02ef 14       		.byte	0x14
 540 02f0 09       		.uleb128 0x9
 541 02f1 FA030000 		.4byte	.LASF55
 542 02f5 07       		.byte	0x7
 543 02f6 7501     		.2byte	0x175
 544 02f8 3D020000 		.4byte	0x23d
 545 02fc 18       		.byte	0x18
 546 02fd 00       		.byte	0
 547 02fe 04       		.uleb128 0x4
 548 02ff 3E050000 		.4byte	.LASF56
 549 0303 06       		.byte	0x6
 550 0304 5C       		.byte	0x5c
 551 0305 09030000 		.4byte	0x309
 552 0309 0A       		.uleb128 0xa
 553 030a 04       		.byte	0x4
 554 030b 0F030000 		.4byte	0x30f
 555 030f 0C       		.uleb128 0xc
 556 0310 1A030000 		.4byte	0x31a
 557 0314 0D       		.uleb128 0xd
 558 0315 1A030000 		.4byte	0x31a
 559 0319 00       		.byte	0
 560 031a 0E       		.uleb128 0xe
 561 031b 04       		.byte	0x4
 562 031c 04       		.uleb128 0x4
 563 031d 25040000 		.4byte	.LASF57
 564 0321 06       		.byte	0x6
 565 0322 61       		.byte	0x61
 566 0323 27030000 		.4byte	0x327
 567 0327 0B       		.uleb128 0xb
 568 0328 97040000 		.4byte	.LASF58
 569 032c 14       		.byte	0x14
 570 032d 07       		.byte	0x7
ARM GAS  /tmp/ccQCN2vm.s 			page 11


 571 032e 4501     		.2byte	0x145
 572 0330 76030000 		.4byte	0x376
 573 0334 09       		.uleb128 0x9
 574 0335 18000000 		.4byte	.LASF49
 575 0339 07       		.byte	0x7
 576 033a 4601     		.2byte	0x146
 577 033c B2080000 		.4byte	0x8b2
 578 0340 00       		.byte	0
 579 0341 09       		.uleb128 0x9
 580 0342 4A000000 		.4byte	.LASF52
 581 0346 07       		.byte	0x7
 582 0347 4701     		.2byte	0x147
 583 0349 B2080000 		.4byte	0x8b2
 584 034d 04       		.byte	0x4
 585 034e 09       		.uleb128 0x9
 586 034f 1D000000 		.4byte	.LASF59
 587 0353 07       		.byte	0x7
 588 0354 4801     		.2byte	0x148
 589 0356 31010000 		.4byte	0x131
 590 035a 08       		.byte	0x8
 591 035b 09       		.uleb128 0x9
 592 035c 81010000 		.4byte	.LASF60
 593 0360 07       		.byte	0x7
 594 0361 4901     		.2byte	0x149
 595 0363 FE020000 		.4byte	0x2fe
 596 0367 0C       		.byte	0xc
 597 0368 08       		.uleb128 0x8
 598 0369 70617200 		.ascii	"par\000"
 599 036d 07       		.byte	0x7
 600 036e 4B01     		.2byte	0x14b
 601 0370 1A030000 		.4byte	0x31a
 602 0374 10       		.byte	0x10
 603 0375 00       		.byte	0
 604 0376 04       		.uleb128 0x4
 605 0377 C7000000 		.4byte	.LASF61
 606 037b 06       		.byte	0x6
 607 037c 66       		.byte	0x66
 608 037d 81030000 		.4byte	0x381
 609 0381 0B       		.uleb128 0xb
 610 0382 BB030000 		.4byte	.LASF62
 611 0386 10       		.byte	0x10
 612 0387 07       		.byte	0x7
 613 0388 5501     		.2byte	0x155
 614 038a C3030000 		.4byte	0x3c3
 615 038e 09       		.uleb128 0x9
 616 038f 18000000 		.4byte	.LASF49
 617 0393 07       		.byte	0x7
 618 0394 5601     		.2byte	0x156
 619 0396 B2080000 		.4byte	0x8b2
 620 039a 00       		.byte	0
 621 039b 09       		.uleb128 0x9
 622 039c 4A000000 		.4byte	.LASF52
 623 03a0 07       		.byte	0x7
 624 03a1 5801     		.2byte	0x158
 625 03a3 B2080000 		.4byte	0x8b2
 626 03a7 04       		.byte	0x4
 627 03a8 09       		.uleb128 0x9
ARM GAS  /tmp/ccQCN2vm.s 			page 12


 628 03a9 1D000000 		.4byte	.LASF59
 629 03ad 07       		.byte	0x7
 630 03ae 5A01     		.2byte	0x15a
 631 03b0 31010000 		.4byte	0x131
 632 03b4 08       		.byte	0x8
 633 03b5 09       		.uleb128 0x9
 634 03b6 6C040000 		.4byte	.LASF63
 635 03ba 07       		.byte	0x7
 636 03bb 6201     		.2byte	0x162
 637 03bd 31010000 		.4byte	0x131
 638 03c1 0C       		.byte	0xc
 639 03c2 00       		.byte	0
 640 03c3 04       		.uleb128 0x4
 641 03c4 6C000000 		.4byte	.LASF64
 642 03c8 06       		.byte	0x6
 643 03c9 6B       		.byte	0x6b
 644 03ca CE030000 		.4byte	0x3ce
 645 03ce 0B       		.uleb128 0xb
 646 03cf A7010000 		.4byte	.LASF65
 647 03d3 04       		.byte	0x4
 648 03d4 07       		.byte	0x7
 649 03d5 7C01     		.2byte	0x17c
 650 03d7 E9030000 		.4byte	0x3e9
 651 03db 09       		.uleb128 0x9
 652 03dc 47050000 		.4byte	.LASF66
 653 03e0 07       		.byte	0x7
 654 03e1 8401     		.2byte	0x184
 655 03e3 B8080000 		.4byte	0x8b8
 656 03e7 00       		.byte	0
 657 03e8 00       		.byte	0
 658 03e9 04       		.uleb128 0x4
 659 03ea 2B030000 		.4byte	.LASF67
 660 03ee 06       		.byte	0x6
 661 03ef 70       		.byte	0x70
 662 03f0 F4030000 		.4byte	0x3f4
 663 03f4 0B       		.uleb128 0xb
 664 03f5 7C040000 		.4byte	.LASF68
 665 03f9 D0       		.byte	0xd0
 666 03fa 07       		.byte	0x7
 667 03fb 9C01     		.2byte	0x19c
 668 03fd 4F040000 		.4byte	0x44f
 669 0401 09       		.uleb128 0x9
 670 0402 D5050000 		.4byte	.LASF69
 671 0406 07       		.byte	0x7
 672 0407 A001     		.2byte	0x1a0
 673 0409 97020000 		.4byte	0x297
 674 040d 00       		.byte	0
 675 040e 09       		.uleb128 0x9
 676 040f 22010000 		.4byte	.LASF70
 677 0413 07       		.byte	0x7
 678 0414 A401     		.2byte	0x1a4
 679 0416 76030000 		.4byte	0x376
 680 041a 1C       		.byte	0x1c
 681 041b 08       		.uleb128 0x8
 682 041c 64626700 		.ascii	"dbg\000"
 683 0420 07       		.byte	0x7
 684 0421 A801     		.2byte	0x1a8
ARM GAS  /tmp/ccQCN2vm.s 			page 13


 685 0423 C3030000 		.4byte	0x3c3
 686 0427 2C       		.byte	0x2c
 687 0428 09       		.uleb128 0x9
 688 0429 B4000000 		.4byte	.LASF71
 689 042d 07       		.byte	0x7
 690 042e AC01     		.2byte	0x1ac
 691 0430 3C010000 		.4byte	0x13c
 692 0434 30       		.byte	0x30
 693 0435 08       		.uleb128 0x8
 694 0436 746D00   		.ascii	"tm\000"
 695 0439 07       		.byte	0x7
 696 043a B101     		.2byte	0x1b1
 697 043c 32070000 		.4byte	0x732
 698 0440 90       		.byte	0x90
 699 0441 09       		.uleb128 0x9
 700 0442 33000000 		.4byte	.LASF72
 701 0446 07       		.byte	0x7
 702 0447 B701     		.2byte	0x1b7
 703 0449 C4070000 		.4byte	0x7c4
 704 044d 98       		.byte	0x98
 705 044e 00       		.byte	0
 706 044f 03       		.uleb128 0x3
 707 0450 04       		.byte	0x4
 708 0451 07       		.byte	0x7
 709 0452 9F030000 		.4byte	.LASF73
 710 0456 0F       		.uleb128 0xf
 711 0457 AD000000 		.4byte	0xad
 712 045b 10       		.uleb128 0x10
 713 045c AD000000 		.4byte	0xad
 714 0460 6B040000 		.4byte	0x46b
 715 0464 11       		.uleb128 0x11
 716 0465 4F040000 		.4byte	0x44f
 717 0469 01       		.byte	0x1
 718 046a 00       		.byte	0
 719 046b 10       		.uleb128 0x10
 720 046c AD000000 		.4byte	0xad
 721 0470 7B040000 		.4byte	0x47b
 722 0474 11       		.uleb128 0x11
 723 0475 4F040000 		.4byte	0x44f
 724 0479 03       		.byte	0x3
 725 047a 00       		.byte	0
 726 047b 04       		.uleb128 0x4
 727 047c 97010000 		.4byte	.LASF74
 728 0480 08       		.byte	0x8
 729 0481 65       		.byte	0x65
 730 0482 1A030000 		.4byte	0x31a
 731 0486 04       		.uleb128 0x4
 732 0487 85030000 		.4byte	.LASF75
 733 048b 08       		.byte	0x8
 734 048c 6D       		.byte	0x6d
 735 048d B8000000 		.4byte	0xb8
 736 0491 05       		.uleb128 0x5
 737 0492 D2030000 		.4byte	.LASF76
 738 0496 04       		.byte	0x4
 739 0497 08       		.byte	0x8
 740 0498 89       		.byte	0x89
 741 0499 A9040000 		.4byte	0x4a9
ARM GAS  /tmp/ccQCN2vm.s 			page 14


 742 049d 07       		.uleb128 0x7
 743 049e 737000   		.ascii	"sp\000"
 744 04a1 08       		.byte	0x8
 745 04a2 8A       		.byte	0x8a
 746 04a3 F5050000 		.4byte	0x5f5
 747 04a7 00       		.byte	0
 748 04a8 00       		.byte	0
 749 04a9 0B       		.uleb128 0xb
 750 04aa 4F000000 		.4byte	.LASF77
 751 04ae 64       		.byte	0x64
 752 04af 09       		.byte	0x9
 753 04b0 5901     		.2byte	0x159
 754 04b2 F5050000 		.4byte	0x5f5
 755 04b6 08       		.uleb128 0x8
 756 04b7 73313600 		.ascii	"s16\000"
 757 04bb 09       		.byte	0x9
 758 04bc 5B01     		.2byte	0x15b
 759 04be 7B040000 		.4byte	0x47b
 760 04c2 00       		.byte	0
 761 04c3 08       		.uleb128 0x8
 762 04c4 73313700 		.ascii	"s17\000"
 763 04c8 09       		.byte	0x9
 764 04c9 5C01     		.2byte	0x15c
 765 04cb 7B040000 		.4byte	0x47b
 766 04cf 04       		.byte	0x4
 767 04d0 08       		.uleb128 0x8
 768 04d1 73313800 		.ascii	"s18\000"
 769 04d5 09       		.byte	0x9
 770 04d6 5D01     		.2byte	0x15d
 771 04d8 7B040000 		.4byte	0x47b
 772 04dc 08       		.byte	0x8
 773 04dd 08       		.uleb128 0x8
 774 04de 73313900 		.ascii	"s19\000"
 775 04e2 09       		.byte	0x9
 776 04e3 5E01     		.2byte	0x15e
 777 04e5 7B040000 		.4byte	0x47b
 778 04e9 0C       		.byte	0xc
 779 04ea 08       		.uleb128 0x8
 780 04eb 73323000 		.ascii	"s20\000"
 781 04ef 09       		.byte	0x9
 782 04f0 5F01     		.2byte	0x15f
 783 04f2 7B040000 		.4byte	0x47b
 784 04f6 10       		.byte	0x10
 785 04f7 08       		.uleb128 0x8
 786 04f8 73323100 		.ascii	"s21\000"
 787 04fc 09       		.byte	0x9
 788 04fd 6001     		.2byte	0x160
 789 04ff 7B040000 		.4byte	0x47b
 790 0503 14       		.byte	0x14
 791 0504 08       		.uleb128 0x8
 792 0505 73323200 		.ascii	"s22\000"
 793 0509 09       		.byte	0x9
 794 050a 6101     		.2byte	0x161
 795 050c 7B040000 		.4byte	0x47b
 796 0510 18       		.byte	0x18
 797 0511 08       		.uleb128 0x8
 798 0512 73323300 		.ascii	"s23\000"
ARM GAS  /tmp/ccQCN2vm.s 			page 15


 799 0516 09       		.byte	0x9
 800 0517 6201     		.2byte	0x162
 801 0519 7B040000 		.4byte	0x47b
 802 051d 1C       		.byte	0x1c
 803 051e 08       		.uleb128 0x8
 804 051f 73323400 		.ascii	"s24\000"
 805 0523 09       		.byte	0x9
 806 0524 6301     		.2byte	0x163
 807 0526 7B040000 		.4byte	0x47b
 808 052a 20       		.byte	0x20
 809 052b 08       		.uleb128 0x8
 810 052c 73323500 		.ascii	"s25\000"
 811 0530 09       		.byte	0x9
 812 0531 6401     		.2byte	0x164
 813 0533 7B040000 		.4byte	0x47b
 814 0537 24       		.byte	0x24
 815 0538 08       		.uleb128 0x8
 816 0539 73323600 		.ascii	"s26\000"
 817 053d 09       		.byte	0x9
 818 053e 6501     		.2byte	0x165
 819 0540 7B040000 		.4byte	0x47b
 820 0544 28       		.byte	0x28
 821 0545 08       		.uleb128 0x8
 822 0546 73323700 		.ascii	"s27\000"
 823 054a 09       		.byte	0x9
 824 054b 6601     		.2byte	0x166
 825 054d 7B040000 		.4byte	0x47b
 826 0551 2C       		.byte	0x2c
 827 0552 08       		.uleb128 0x8
 828 0553 73323800 		.ascii	"s28\000"
 829 0557 09       		.byte	0x9
 830 0558 6701     		.2byte	0x167
 831 055a 7B040000 		.4byte	0x47b
 832 055e 30       		.byte	0x30
 833 055f 08       		.uleb128 0x8
 834 0560 73323900 		.ascii	"s29\000"
 835 0564 09       		.byte	0x9
 836 0565 6801     		.2byte	0x168
 837 0567 7B040000 		.4byte	0x47b
 838 056b 34       		.byte	0x34
 839 056c 08       		.uleb128 0x8
 840 056d 73333000 		.ascii	"s30\000"
 841 0571 09       		.byte	0x9
 842 0572 6901     		.2byte	0x169
 843 0574 7B040000 		.4byte	0x47b
 844 0578 38       		.byte	0x38
 845 0579 08       		.uleb128 0x8
 846 057a 73333100 		.ascii	"s31\000"
 847 057e 09       		.byte	0x9
 848 057f 6A01     		.2byte	0x16a
 849 0581 7B040000 		.4byte	0x47b
 850 0585 3C       		.byte	0x3c
 851 0586 08       		.uleb128 0x8
 852 0587 723400   		.ascii	"r4\000"
 853 058a 09       		.byte	0x9
 854 058b 6C01     		.2byte	0x16c
 855 058d 7B040000 		.4byte	0x47b
ARM GAS  /tmp/ccQCN2vm.s 			page 16


 856 0591 40       		.byte	0x40
 857 0592 08       		.uleb128 0x8
 858 0593 723500   		.ascii	"r5\000"
 859 0596 09       		.byte	0x9
 860 0597 6D01     		.2byte	0x16d
 861 0599 7B040000 		.4byte	0x47b
 862 059d 44       		.byte	0x44
 863 059e 08       		.uleb128 0x8
 864 059f 723600   		.ascii	"r6\000"
 865 05a2 09       		.byte	0x9
 866 05a3 6E01     		.2byte	0x16e
 867 05a5 7B040000 		.4byte	0x47b
 868 05a9 48       		.byte	0x48
 869 05aa 08       		.uleb128 0x8
 870 05ab 723700   		.ascii	"r7\000"
 871 05ae 09       		.byte	0x9
 872 05af 6F01     		.2byte	0x16f
 873 05b1 7B040000 		.4byte	0x47b
 874 05b5 4C       		.byte	0x4c
 875 05b6 08       		.uleb128 0x8
 876 05b7 723800   		.ascii	"r8\000"
 877 05ba 09       		.byte	0x9
 878 05bb 7001     		.2byte	0x170
 879 05bd 7B040000 		.4byte	0x47b
 880 05c1 50       		.byte	0x50
 881 05c2 08       		.uleb128 0x8
 882 05c3 723900   		.ascii	"r9\000"
 883 05c6 09       		.byte	0x9
 884 05c7 7101     		.2byte	0x171
 885 05c9 7B040000 		.4byte	0x47b
 886 05cd 54       		.byte	0x54
 887 05ce 08       		.uleb128 0x8
 888 05cf 72313000 		.ascii	"r10\000"
 889 05d3 09       		.byte	0x9
 890 05d4 7201     		.2byte	0x172
 891 05d6 7B040000 		.4byte	0x47b
 892 05da 58       		.byte	0x58
 893 05db 08       		.uleb128 0x8
 894 05dc 72313100 		.ascii	"r11\000"
 895 05e0 09       		.byte	0x9
 896 05e1 7301     		.2byte	0x173
 897 05e3 7B040000 		.4byte	0x47b
 898 05e7 5C       		.byte	0x5c
 899 05e8 08       		.uleb128 0x8
 900 05e9 6C7200   		.ascii	"lr\000"
 901 05ec 09       		.byte	0x9
 902 05ed 7401     		.2byte	0x174
 903 05ef 7B040000 		.4byte	0x47b
 904 05f3 60       		.byte	0x60
 905 05f4 00       		.byte	0
 906 05f5 0A       		.uleb128 0xa
 907 05f6 04       		.byte	0x4
 908 05f7 A9040000 		.4byte	0x4a9
 909 05fb 12       		.uleb128 0x12
 910 05fc 60       		.byte	0x60
 911 05fd 0A       		.byte	0xa
 912 05fe A101     		.2byte	0x1a1
ARM GAS  /tmp/ccQCN2vm.s 			page 17


 913 0600 07070000 		.4byte	0x707
 914 0604 08       		.uleb128 0x8
 915 0605 43523100 		.ascii	"CR1\000"
 916 0609 0A       		.byte	0xa
 917 060a A201     		.2byte	0x1a2
 918 060c 56040000 		.4byte	0x456
 919 0610 00       		.byte	0
 920 0611 08       		.uleb128 0x8
 921 0612 43523200 		.ascii	"CR2\000"
 922 0616 0A       		.byte	0xa
 923 0617 A301     		.2byte	0x1a3
 924 0619 56040000 		.4byte	0x456
 925 061d 04       		.byte	0x4
 926 061e 09       		.uleb128 0x9
 927 061f ED020000 		.4byte	.LASF78
 928 0623 0A       		.byte	0xa
 929 0624 A401     		.2byte	0x1a4
 930 0626 56040000 		.4byte	0x456
 931 062a 08       		.byte	0x8
 932 062b 09       		.uleb128 0x9
 933 062c 0D000000 		.4byte	.LASF79
 934 0630 0A       		.byte	0xa
 935 0631 A501     		.2byte	0x1a5
 936 0633 56040000 		.4byte	0x456
 937 0637 0C       		.byte	0xc
 938 0638 08       		.uleb128 0x8
 939 0639 535200   		.ascii	"SR\000"
 940 063c 0A       		.byte	0xa
 941 063d A601     		.2byte	0x1a6
 942 063f 56040000 		.4byte	0x456
 943 0643 10       		.byte	0x10
 944 0644 08       		.uleb128 0x8
 945 0645 45475200 		.ascii	"EGR\000"
 946 0649 0A       		.byte	0xa
 947 064a A701     		.2byte	0x1a7
 948 064c 56040000 		.4byte	0x456
 949 0650 14       		.byte	0x14
 950 0651 09       		.uleb128 0x9
 951 0652 04010000 		.4byte	.LASF80
 952 0656 0A       		.byte	0xa
 953 0657 A801     		.2byte	0x1a8
 954 0659 56040000 		.4byte	0x456
 955 065d 18       		.byte	0x18
 956 065e 09       		.uleb128 0x9
 957 065f 0A010000 		.4byte	.LASF81
 958 0663 0A       		.byte	0xa
 959 0664 A901     		.2byte	0x1a9
 960 0666 56040000 		.4byte	0x456
 961 066a 1C       		.byte	0x1c
 962 066b 09       		.uleb128 0x9
 963 066c 2F050000 		.4byte	.LASF82
 964 0670 0A       		.byte	0xa
 965 0671 AA01     		.2byte	0x1aa
 966 0673 56040000 		.4byte	0x456
 967 0677 20       		.byte	0x20
 968 0678 08       		.uleb128 0x8
 969 0679 434E5400 		.ascii	"CNT\000"
ARM GAS  /tmp/ccQCN2vm.s 			page 18


 970 067d 0A       		.byte	0xa
 971 067e AB01     		.2byte	0x1ab
 972 0680 56040000 		.4byte	0x456
 973 0684 24       		.byte	0x24
 974 0685 08       		.uleb128 0x8
 975 0686 50534300 		.ascii	"PSC\000"
 976 068a 0A       		.byte	0xa
 977 068b AC01     		.2byte	0x1ac
 978 068d 56040000 		.4byte	0x456
 979 0691 28       		.byte	0x28
 980 0692 08       		.uleb128 0x8
 981 0693 41525200 		.ascii	"ARR\000"
 982 0697 0A       		.byte	0xa
 983 0698 AD01     		.2byte	0x1ad
 984 069a 56040000 		.4byte	0x456
 985 069e 2C       		.byte	0x2c
 986 069f 08       		.uleb128 0x8
 987 06a0 52435200 		.ascii	"RCR\000"
 988 06a4 0A       		.byte	0xa
 989 06a5 AE01     		.2byte	0x1ae
 990 06a7 56040000 		.4byte	0x456
 991 06ab 30       		.byte	0x30
 992 06ac 08       		.uleb128 0x8
 993 06ad 43435200 		.ascii	"CCR\000"
 994 06b1 0A       		.byte	0xa
 995 06b2 AF01     		.2byte	0x1af
 996 06b4 07070000 		.4byte	0x707
 997 06b8 34       		.byte	0x34
 998 06b9 09       		.uleb128 0x9
 999 06ba F6000000 		.4byte	.LASF83
 1000 06be 0A       		.byte	0xa
 1001 06bf B001     		.2byte	0x1b0
 1002 06c1 56040000 		.4byte	0x456
 1003 06c5 44       		.byte	0x44
 1004 06c6 08       		.uleb128 0x8
 1005 06c7 44435200 		.ascii	"DCR\000"
 1006 06cb 0A       		.byte	0xa
 1007 06cc B101     		.2byte	0x1b1
 1008 06ce 56040000 		.4byte	0x456
 1009 06d2 48       		.byte	0x48
 1010 06d3 09       		.uleb128 0x9
 1011 06d4 21050000 		.4byte	.LASF84
 1012 06d8 0A       		.byte	0xa
 1013 06d9 B201     		.2byte	0x1b2
 1014 06db 56040000 		.4byte	0x456
 1015 06df 4C       		.byte	0x4c
 1016 06e0 08       		.uleb128 0x8
 1017 06e1 4F5200   		.ascii	"OR\000"
 1018 06e4 0A       		.byte	0xa
 1019 06e5 B301     		.2byte	0x1b3
 1020 06e7 56040000 		.4byte	0x456
 1021 06eb 50       		.byte	0x50
 1022 06ec 09       		.uleb128 0x9
 1023 06ed 10010000 		.4byte	.LASF85
 1024 06f1 0A       		.byte	0xa
 1025 06f2 B401     		.2byte	0x1b4
 1026 06f4 56040000 		.4byte	0x456
ARM GAS  /tmp/ccQCN2vm.s 			page 19


 1027 06f8 54       		.byte	0x54
 1028 06f9 09       		.uleb128 0x9
 1029 06fa C6040000 		.4byte	.LASF86
 1030 06fe 0A       		.byte	0xa
 1031 06ff B501     		.2byte	0x1b5
 1032 0701 0C070000 		.4byte	0x70c
 1033 0705 58       		.byte	0x58
 1034 0706 00       		.byte	0
 1035 0707 0F       		.uleb128 0xf
 1036 0708 6B040000 		.4byte	0x46b
 1037 070c 0F       		.uleb128 0xf
 1038 070d 5B040000 		.4byte	0x45b
 1039 0711 13       		.uleb128 0x13
 1040 0712 37030000 		.4byte	.LASF87
 1041 0716 0A       		.byte	0xa
 1042 0717 B601     		.2byte	0x1b6
 1043 0719 FB050000 		.4byte	0x5fb
 1044 071d 14       		.uleb128 0x14
 1045 071e 04       		.byte	0x4
 1046 071f 0B       		.byte	0xb
 1047 0720 38       		.byte	0x38
 1048 0721 32070000 		.4byte	0x732
 1049 0725 06       		.uleb128 0x6
 1050 0726 51050000 		.4byte	.LASF88
 1051 072a 0B       		.byte	0xb
 1052 072b 3C       		.byte	0x3c
 1053 072c C3000000 		.4byte	0xc3
 1054 0730 00       		.byte	0
 1055 0731 00       		.byte	0
 1056 0732 04       		.uleb128 0x4
 1057 0733 DF030000 		.4byte	.LASF89
 1058 0737 0B       		.byte	0xb
 1059 0738 3D       		.byte	0x3d
 1060 0739 1D070000 		.4byte	0x71d
 1061 073d 14       		.uleb128 0x14
 1062 073e 18       		.byte	0x18
 1063 073f 0B       		.byte	0xb
 1064 0740 48       		.byte	0x48
 1065 0741 80070000 		.4byte	0x780
 1066 0745 06       		.uleb128 0x6
 1067 0746 E8020000 		.4byte	.LASF90
 1068 074a 0B       		.byte	0xb
 1069 074b 49       		.byte	0x49
 1070 074c C3000000 		.4byte	0xc3
 1071 0750 00       		.byte	0
 1072 0751 06       		.uleb128 0x6
 1073 0752 7B000000 		.4byte	.LASF91
 1074 0756 0B       		.byte	0xb
 1075 0757 4A       		.byte	0x4a
 1076 0758 C3000000 		.4byte	0xc3
 1077 075c 04       		.byte	0x4
 1078 075d 06       		.uleb128 0x6
 1079 075e 16030000 		.4byte	.LASF92
 1080 0762 0B       		.byte	0xb
 1081 0763 4B       		.byte	0x4b
 1082 0764 C3000000 		.4byte	0xc3
 1083 0768 08       		.byte	0x8
ARM GAS  /tmp/ccQCN2vm.s 			page 20


 1084 0769 07       		.uleb128 0x7
 1085 076a 6E00     		.ascii	"n\000"
 1086 076c 0B       		.byte	0xb
 1087 076d 4C       		.byte	0x4c
 1088 076e 26010000 		.4byte	0x126
 1089 0772 0C       		.byte	0xc
 1090 0773 06       		.uleb128 0x6
 1091 0774 0D040000 		.4byte	.LASF93
 1092 0778 0B       		.byte	0xb
 1093 0779 4D       		.byte	0x4d
 1094 077a CE000000 		.4byte	0xce
 1095 077e 10       		.byte	0x10
 1096 077f 00       		.byte	0
 1097 0780 04       		.uleb128 0x4
 1098 0781 81000000 		.4byte	.LASF94
 1099 0785 0B       		.byte	0xb
 1100 0786 4E       		.byte	0x4e
 1101 0787 3D070000 		.4byte	0x73d
 1102 078b 14       		.uleb128 0x14
 1103 078c 38       		.byte	0x38
 1104 078d 0C       		.byte	0xc
 1105 078e 38       		.byte	0x38
 1106 078f C4070000 		.4byte	0x7c4
 1107 0793 06       		.uleb128 0x6
 1108 0794 D6020000 		.4byte	.LASF95
 1109 0798 0C       		.byte	0xc
 1110 0799 39       		.byte	0x39
 1111 079a 26010000 		.4byte	0x126
 1112 079e 00       		.byte	0
 1113 079f 06       		.uleb128 0x6
 1114 07a0 3D040000 		.4byte	.LASF96
 1115 07a4 0C       		.byte	0xc
 1116 07a5 3A       		.byte	0x3a
 1117 07a6 26010000 		.4byte	0x126
 1118 07aa 04       		.byte	0x4
 1119 07ab 06       		.uleb128 0x6
 1120 07ac 36060000 		.4byte	.LASF97
 1121 07b0 0C       		.byte	0xc
 1122 07b1 3B       		.byte	0x3b
 1123 07b2 80070000 		.4byte	0x780
 1124 07b6 08       		.byte	0x8
 1125 07b7 06       		.uleb128 0x6
 1126 07b8 43030000 		.4byte	.LASF98
 1127 07bc 0C       		.byte	0xc
 1128 07bd 3D       		.byte	0x3d
 1129 07be 80070000 		.4byte	0x780
 1130 07c2 20       		.byte	0x20
 1131 07c3 00       		.byte	0
 1132 07c4 04       		.uleb128 0x4
 1133 07c5 F2020000 		.4byte	.LASF99
 1134 07c9 0C       		.byte	0xc
 1135 07ca 3F       		.byte	0x3f
 1136 07cb 8B070000 		.4byte	0x78b
 1137 07cf 15       		.uleb128 0x15
 1138 07d0 04       		.byte	0x4
 1139 07d1 07       		.byte	0x7
 1140 07d2 D2       		.byte	0xd2
ARM GAS  /tmp/ccQCN2vm.s 			page 21


 1141 07d3 32080000 		.4byte	0x832
 1142 07d7 16       		.uleb128 0x16
 1143 07d8 23000000 		.4byte	.LASF100
 1144 07dc 07       		.byte	0x7
 1145 07dd D9       		.byte	0xd9
 1146 07de 05010000 		.4byte	0x105
 1147 07e2 16       		.uleb128 0x16
 1148 07e3 AB000000 		.4byte	.LASF101
 1149 07e7 07       		.byte	0x7
 1150 07e8 E0       		.byte	0xe0
 1151 07e9 05010000 		.4byte	0x105
 1152 07ed 16       		.uleb128 0x16
 1153 07ee F7050000 		.4byte	.LASF102
 1154 07f2 07       		.byte	0x7
 1155 07f3 E7       		.byte	0xe7
 1156 07f4 1A030000 		.4byte	0x31a
 1157 07f8 16       		.uleb128 0x16
 1158 07f9 12000000 		.4byte	.LASF103
 1159 07fd 07       		.byte	0x7
 1160 07fe EE       		.byte	0xee
 1161 07ff 32080000 		.4byte	0x832
 1162 0803 16       		.uleb128 0x16
 1163 0804 BF000000 		.4byte	.LASF104
 1164 0808 07       		.byte	0x7
 1165 0809 F3       		.byte	0xf3
 1166 080a 05010000 		.4byte	0x105
 1167 080e 16       		.uleb128 0x16
 1168 080f CF020000 		.4byte	.LASF105
 1169 0813 07       		.byte	0x7
 1170 0814 FC       		.byte	0xfc
 1171 0815 5D080000 		.4byte	0x85d
 1172 0819 17       		.uleb128 0x17
 1173 081a D4040000 		.4byte	.LASF106
 1174 081e 07       		.byte	0x7
 1175 081f 0501     		.2byte	0x105
 1176 0821 94080000 		.4byte	0x894
 1177 0825 17       		.uleb128 0x17
 1178 0826 75040000 		.4byte	.LASF107
 1179 082a 07       		.byte	0x7
 1180 082b 0D01     		.2byte	0x10d
 1181 082d 10010000 		.4byte	0x110
 1182 0831 00       		.byte	0
 1183 0832 0A       		.uleb128 0xa
 1184 0833 04       		.byte	0x4
 1185 0834 32020000 		.4byte	0x232
 1186 0838 05       		.uleb128 0x5
 1187 0839 B9040000 		.4byte	.LASF108
 1188 083d 0C       		.byte	0xc
 1189 083e 0D       		.byte	0xd
 1190 083f 34       		.byte	0x34
 1191 0840 5D080000 		.4byte	0x85d
 1192 0844 06       		.uleb128 0x6
 1193 0845 DC020000 		.4byte	.LASF29
 1194 0849 0D       		.byte	0xd
 1195 084a 35       		.byte	0x35
 1196 084b 67020000 		.4byte	0x267
 1197 084f 00       		.byte	0
ARM GAS  /tmp/ccQCN2vm.s 			page 22


 1198 0850 07       		.uleb128 0x7
 1199 0851 636E7400 		.ascii	"cnt\000"
 1200 0855 0D       		.byte	0xd
 1201 0856 37       		.byte	0x37
 1202 0857 1B010000 		.4byte	0x11b
 1203 085b 08       		.byte	0x8
 1204 085c 00       		.byte	0
 1205 085d 0A       		.uleb128 0xa
 1206 085e 04       		.byte	0x4
 1207 085f 38080000 		.4byte	0x838
 1208 0863 05       		.uleb128 0x5
 1209 0864 CC050000 		.4byte	.LASF109
 1210 0868 10       		.byte	0x10
 1211 0869 0E       		.byte	0xe
 1212 086a 39       		.byte	0x39
 1213 086b 94080000 		.4byte	0x894
 1214 086f 06       		.uleb128 0x6
 1215 0870 DC020000 		.4byte	.LASF29
 1216 0874 0E       		.byte	0xe
 1217 0875 3A       		.byte	0x3a
 1218 0876 67020000 		.4byte	0x267
 1219 087a 00       		.byte	0
 1220 087b 06       		.uleb128 0x6
 1221 087c EB040000 		.4byte	.LASF110
 1222 0880 0E       		.byte	0xe
 1223 0881 3C       		.byte	0x3c
 1224 0882 3D020000 		.4byte	0x23d
 1225 0886 08       		.byte	0x8
 1226 0887 06       		.uleb128 0x6
 1227 0888 18000000 		.4byte	.LASF49
 1228 088c 0E       		.byte	0xe
 1229 088d 3E       		.byte	0x3e
 1230 088e C8080000 		.4byte	0x8c8
 1231 0892 0C       		.byte	0xc
 1232 0893 00       		.byte	0
 1233 0894 0A       		.uleb128 0xa
 1234 0895 04       		.byte	0x4
 1235 0896 63080000 		.4byte	0x863
 1236 089a 0A       		.uleb128 0xa
 1237 089b 04       		.byte	0x4
 1238 089c A0080000 		.4byte	0x8a0
 1239 08a0 18       		.uleb128 0x18
 1240 08a1 A5080000 		.4byte	0x8a5
 1241 08a5 03       		.uleb128 0x3
 1242 08a6 01       		.byte	0x1
 1243 08a7 08       		.byte	0x8
 1244 08a8 16050000 		.4byte	.LASF111
 1245 08ac 0A       		.uleb128 0xa
 1246 08ad 04       		.byte	0x4
 1247 08ae 86040000 		.4byte	0x486
 1248 08b2 0A       		.uleb128 0xa
 1249 08b3 04       		.byte	0x4
 1250 08b4 1C030000 		.4byte	0x31c
 1251 08b8 0F       		.uleb128 0xf
 1252 08b9 9A080000 		.4byte	0x89a
 1253 08bd 04       		.uleb128 0x4
 1254 08be 2E060000 		.4byte	.LASF112
ARM GAS  /tmp/ccQCN2vm.s 			page 23


 1255 08c2 0E       		.byte	0xe
 1256 08c3 34       		.byte	0x34
 1257 08c4 63080000 		.4byte	0x863
 1258 08c8 0A       		.uleb128 0xa
 1259 08c9 04       		.byte	0x4
 1260 08ca BD080000 		.4byte	0x8bd
 1261 08ce 03       		.uleb128 0x3
 1262 08cf 01       		.byte	0x1
 1263 08d0 02       		.byte	0x2
 1264 08d1 46040000 		.4byte	.LASF113
 1265 08d5 19       		.uleb128 0x19
 1266 08d6 80050000 		.4byte	.LASF127
 1267 08da 02       		.byte	0x2
 1268 08db A5       		.byte	0xa5
 1269 08dc 03       		.byte	0x3
 1270 08dd 1A       		.uleb128 0x1a
 1271 08de 15060000 		.4byte	.LASF114
 1272 08e2 02       		.byte	0x2
 1273 08e3 B1       		.byte	0xb1
 1274 08e4 03       		.byte	0x3
 1275 08e5 F5080000 		.4byte	0x8f5
 1276 08e9 1B       		.uleb128 0x1b
 1277 08ea F0030000 		.4byte	.LASF116
 1278 08ee 02       		.byte	0x2
 1279 08ef B1       		.byte	0xb1
 1280 08f0 31010000 		.4byte	0x131
 1281 08f4 00       		.byte	0
 1282 08f5 1C       		.uleb128 0x1c
 1283 08f6 A8040000 		.4byte	.LASF128
 1284 08fa 02       		.byte	0x2
 1285 08fb BD       		.byte	0xbd
 1286 08fc 31010000 		.4byte	0x131
 1287 0900 03       		.byte	0x3
 1288 0901 1D       		.uleb128 0x1d
 1289 0902 A0010000 		.4byte	.LASF117
 1290 0906 01       		.byte	0x1
 1291 0907 3C       		.byte	0x3c
 1292 0908 00000000 		.4byte	.LFB277
 1293 090c 04000000 		.4byte	.LFE277-.LFB277
 1294 0910 01       		.uleb128 0x1
 1295 0911 9C       		.byte	0x9c
 1296 0912 20090000 		.4byte	0x920
 1297 0916 1E       		.uleb128 0x1e
 1298 0917 04000000 		.4byte	.LVL0
 1299 091b 600A0000 		.4byte	0xa60
 1300 091f 00       		.byte	0
 1301 0920 1A       		.uleb128 0x1a
 1302 0921 72030000 		.4byte	.LASF115
 1303 0925 02       		.byte	0x2
 1304 0926 99       		.byte	0x99
 1305 0927 03       		.byte	0x3
 1306 0928 38090000 		.4byte	0x938
 1307 092c 1B       		.uleb128 0x1b
 1308 092d F0030000 		.4byte	.LASF116
 1309 0931 02       		.byte	0x2
 1310 0932 99       		.byte	0x99
 1311 0933 31010000 		.4byte	0x131
ARM GAS  /tmp/ccQCN2vm.s 			page 24


 1312 0937 00       		.byte	0
 1313 0938 1D       		.uleb128 0x1d
 1314 0939 58050000 		.4byte	.LASF118
 1315 093d 01       		.byte	0x1
 1316 093e 4C       		.byte	0x4c
 1317 093f 00000000 		.4byte	.LFB278
 1318 0943 14000000 		.4byte	.LFE278-.LFB278
 1319 0947 01       		.uleb128 0x1
 1320 0948 9C       		.byte	0x9c
 1321 0949 7B090000 		.4byte	0x97b
 1322 094d 1F       		.uleb128 0x1f
 1323 094e 0D060000 		.4byte	.LASF121
 1324 0952 01       		.byte	0x1
 1325 0953 4C       		.byte	0x4c
 1326 0954 31010000 		.4byte	0x131
 1327 0958 01       		.uleb128 0x1
 1328 0959 50       		.byte	0x50
 1329 095a 20       		.uleb128 0x20
 1330 095b 8E040000 		.4byte	.LASF122
 1331 095f 8B090000 		.4byte	0x98b
 1332 0963 21       		.uleb128 0x21
 1333 0964 20090000 		.4byte	0x920
 1334 0968 00000000 		.4byte	.LBB10
 1335 096c 14000000 		.4byte	.LBE10-.LBB10
 1336 0970 01       		.byte	0x1
 1337 0971 50       		.byte	0x50
 1338 0972 22       		.uleb128 0x22
 1339 0973 2C090000 		.4byte	0x92c
 1340 0977 01       		.uleb128 0x1
 1341 0978 50       		.byte	0x50
 1342 0979 00       		.byte	0
 1343 097a 00       		.byte	0
 1344 097b 10       		.uleb128 0x10
 1345 097c A5080000 		.4byte	0x8a5
 1346 0980 8B090000 		.4byte	0x98b
 1347 0984 11       		.uleb128 0x11
 1348 0985 4F040000 		.4byte	0x44f
 1349 0989 0C       		.byte	0xc
 1350 098a 00       		.byte	0
 1351 098b 18       		.uleb128 0x18
 1352 098c 7B090000 		.4byte	0x97b
 1353 0990 1D       		.uleb128 0x1d
 1354 0991 0A050000 		.4byte	.LASF119
 1355 0995 01       		.byte	0x1
 1356 0996 5A       		.byte	0x5a
 1357 0997 00000000 		.4byte	.LFB279
 1358 099b 0C000000 		.4byte	.LFE279-.LFB279
 1359 099f 01       		.uleb128 0x1
 1360 09a0 9C       		.byte	0x9c
 1361 09a1 B5090000 		.4byte	0x9b5
 1362 09a5 23       		.uleb128 0x23
 1363 09a6 D5080000 		.4byte	0x8d5
 1364 09aa 00000000 		.4byte	.LBB12
 1365 09ae 0C000000 		.4byte	.LBE12-.LBB12
 1366 09b2 01       		.byte	0x1
 1367 09b3 5C       		.byte	0x5c
 1368 09b4 00       		.byte	0
ARM GAS  /tmp/ccQCN2vm.s 			page 25


 1369 09b5 1D       		.uleb128 0x1d
 1370 09b6 DB050000 		.4byte	.LASF120
 1371 09ba 01       		.byte	0x1
 1372 09bb 68       		.byte	0x68
 1373 09bc 00000000 		.4byte	.LFB280
 1374 09c0 0C000000 		.4byte	.LFE280-.LFB280
 1375 09c4 01       		.uleb128 0x1
 1376 09c5 9C       		.byte	0x9c
 1377 09c6 F8090000 		.4byte	0x9f8
 1378 09ca 1F       		.uleb128 0x1f
 1379 09cb 0D060000 		.4byte	.LASF121
 1380 09cf 01       		.byte	0x1
 1381 09d0 68       		.byte	0x68
 1382 09d1 31010000 		.4byte	0x131
 1383 09d5 01       		.uleb128 0x1
 1384 09d6 50       		.byte	0x50
 1385 09d7 20       		.uleb128 0x20
 1386 09d8 8E040000 		.4byte	.LASF122
 1387 09dc 080A0000 		.4byte	0xa08
 1388 09e0 21       		.uleb128 0x21
 1389 09e1 DD080000 		.4byte	0x8dd
 1390 09e5 00000000 		.4byte	.LBB14
 1391 09e9 0C000000 		.4byte	.LBE14-.LBB14
 1392 09ed 01       		.byte	0x1
 1393 09ee 6C       		.byte	0x6c
 1394 09ef 22       		.uleb128 0x22
 1395 09f0 E9080000 		.4byte	0x8e9
 1396 09f4 01       		.uleb128 0x1
 1397 09f5 50       		.byte	0x50
 1398 09f6 00       		.byte	0
 1399 09f7 00       		.byte	0
 1400 09f8 10       		.uleb128 0x10
 1401 09f9 A5080000 		.4byte	0x8a5
 1402 09fd 080A0000 		.4byte	0xa08
 1403 0a01 11       		.uleb128 0x11
 1404 0a02 4F040000 		.4byte	0x44f
 1405 0a06 0A       		.byte	0xa
 1406 0a07 00       		.byte	0
 1407 0a08 18       		.uleb128 0x18
 1408 0a09 F8090000 		.4byte	0x9f8
 1409 0a0d 24       		.uleb128 0x24
 1410 0a0e EC050000 		.4byte	.LASF129
 1411 0a12 01       		.byte	0x1
 1412 0a13 78       		.byte	0x78
 1413 0a14 31010000 		.4byte	0x131
 1414 0a18 00000000 		.4byte	.LFB281
 1415 0a1c 0C000000 		.4byte	.LFE281-.LFB281
 1416 0a20 01       		.uleb128 0x1
 1417 0a21 9C       		.byte	0x9c
 1418 0a22 3F0A0000 		.4byte	0xa3f
 1419 0a26 20       		.uleb128 0x20
 1420 0a27 8E040000 		.4byte	.LASF122
 1421 0a2b 3F0A0000 		.4byte	0xa3f
 1422 0a2f 23       		.uleb128 0x23
 1423 0a30 F5080000 		.4byte	0x8f5
 1424 0a34 00000000 		.4byte	.LBB16
 1425 0a38 04000000 		.4byte	.LBE16-.LBB16
ARM GAS  /tmp/ccQCN2vm.s 			page 26


 1426 0a3c 01       		.byte	0x1
 1427 0a3d 7C       		.byte	0x7c
 1428 0a3e 00       		.byte	0
 1429 0a3f 18       		.uleb128 0x18
 1430 0a40 F8090000 		.4byte	0x9f8
 1431 0a44 25       		.uleb128 0x25
 1432 0a45 DD000000 		.4byte	.LASF123
 1433 0a49 0F       		.byte	0xf
 1434 0a4a 4407     		.2byte	0x744
 1435 0a4c 500A0000 		.4byte	0xa50
 1436 0a50 0F       		.uleb128 0xf
 1437 0a51 A2000000 		.4byte	0xa2
 1438 0a55 26       		.uleb128 0x26
 1439 0a56 636800   		.ascii	"ch\000"
 1440 0a59 07       		.byte	0x7
 1441 0a5a D201     		.2byte	0x1d2
 1442 0a5c E9030000 		.4byte	0x3e9
 1443 0a60 27       		.uleb128 0x27
 1444 0a61 EA000000 		.4byte	.LASF130
 1445 0a65 02       		.byte	0x2
 1446 0a66 7B       		.byte	0x7b
 1447 0a67 00       		.byte	0
 1448              		.section	.debug_abbrev,"",%progbits
 1449              	.Ldebug_abbrev0:
 1450 0000 01       		.uleb128 0x1
 1451 0001 11       		.uleb128 0x11
 1452 0002 01       		.byte	0x1
 1453 0003 25       		.uleb128 0x25
 1454 0004 0E       		.uleb128 0xe
 1455 0005 13       		.uleb128 0x13
 1456 0006 0B       		.uleb128 0xb
 1457 0007 03       		.uleb128 0x3
 1458 0008 0E       		.uleb128 0xe
 1459 0009 1B       		.uleb128 0x1b
 1460 000a 0E       		.uleb128 0xe
 1461 000b 55       		.uleb128 0x55
 1462 000c 17       		.uleb128 0x17
 1463 000d 11       		.uleb128 0x11
 1464 000e 01       		.uleb128 0x1
 1465 000f 10       		.uleb128 0x10
 1466 0010 17       		.uleb128 0x17
 1467 0011 00       		.byte	0
 1468 0012 00       		.byte	0
 1469 0013 02       		.uleb128 0x2
 1470 0014 24       		.uleb128 0x24
 1471 0015 00       		.byte	0
 1472 0016 0B       		.uleb128 0xb
 1473 0017 0B       		.uleb128 0xb
 1474 0018 3E       		.uleb128 0x3e
 1475 0019 0B       		.uleb128 0xb
 1476 001a 03       		.uleb128 0x3
 1477 001b 08       		.uleb128 0x8
 1478 001c 00       		.byte	0
 1479 001d 00       		.byte	0
 1480 001e 03       		.uleb128 0x3
 1481 001f 24       		.uleb128 0x24
 1482 0020 00       		.byte	0
ARM GAS  /tmp/ccQCN2vm.s 			page 27


 1483 0021 0B       		.uleb128 0xb
 1484 0022 0B       		.uleb128 0xb
 1485 0023 3E       		.uleb128 0x3e
 1486 0024 0B       		.uleb128 0xb
 1487 0025 03       		.uleb128 0x3
 1488 0026 0E       		.uleb128 0xe
 1489 0027 00       		.byte	0
 1490 0028 00       		.byte	0
 1491 0029 04       		.uleb128 0x4
 1492 002a 16       		.uleb128 0x16
 1493 002b 00       		.byte	0
 1494 002c 03       		.uleb128 0x3
 1495 002d 0E       		.uleb128 0xe
 1496 002e 3A       		.uleb128 0x3a
 1497 002f 0B       		.uleb128 0xb
 1498 0030 3B       		.uleb128 0x3b
 1499 0031 0B       		.uleb128 0xb
 1500 0032 49       		.uleb128 0x49
 1501 0033 13       		.uleb128 0x13
 1502 0034 00       		.byte	0
 1503 0035 00       		.byte	0
 1504 0036 05       		.uleb128 0x5
 1505 0037 13       		.uleb128 0x13
 1506 0038 01       		.byte	0x1
 1507 0039 03       		.uleb128 0x3
 1508 003a 0E       		.uleb128 0xe
 1509 003b 0B       		.uleb128 0xb
 1510 003c 0B       		.uleb128 0xb
 1511 003d 3A       		.uleb128 0x3a
 1512 003e 0B       		.uleb128 0xb
 1513 003f 3B       		.uleb128 0x3b
 1514 0040 0B       		.uleb128 0xb
 1515 0041 01       		.uleb128 0x1
 1516 0042 13       		.uleb128 0x13
 1517 0043 00       		.byte	0
 1518 0044 00       		.byte	0
 1519 0045 06       		.uleb128 0x6
 1520 0046 0D       		.uleb128 0xd
 1521 0047 00       		.byte	0
 1522 0048 03       		.uleb128 0x3
 1523 0049 0E       		.uleb128 0xe
 1524 004a 3A       		.uleb128 0x3a
 1525 004b 0B       		.uleb128 0xb
 1526 004c 3B       		.uleb128 0x3b
 1527 004d 0B       		.uleb128 0xb
 1528 004e 49       		.uleb128 0x49
 1529 004f 13       		.uleb128 0x13
 1530 0050 38       		.uleb128 0x38
 1531 0051 0B       		.uleb128 0xb
 1532 0052 00       		.byte	0
 1533 0053 00       		.byte	0
 1534 0054 07       		.uleb128 0x7
 1535 0055 0D       		.uleb128 0xd
 1536 0056 00       		.byte	0
 1537 0057 03       		.uleb128 0x3
 1538 0058 08       		.uleb128 0x8
 1539 0059 3A       		.uleb128 0x3a
ARM GAS  /tmp/ccQCN2vm.s 			page 28


 1540 005a 0B       		.uleb128 0xb
 1541 005b 3B       		.uleb128 0x3b
 1542 005c 0B       		.uleb128 0xb
 1543 005d 49       		.uleb128 0x49
 1544 005e 13       		.uleb128 0x13
 1545 005f 38       		.uleb128 0x38
 1546 0060 0B       		.uleb128 0xb
 1547 0061 00       		.byte	0
 1548 0062 00       		.byte	0
 1549 0063 08       		.uleb128 0x8
 1550 0064 0D       		.uleb128 0xd
 1551 0065 00       		.byte	0
 1552 0066 03       		.uleb128 0x3
 1553 0067 08       		.uleb128 0x8
 1554 0068 3A       		.uleb128 0x3a
 1555 0069 0B       		.uleb128 0xb
 1556 006a 3B       		.uleb128 0x3b
 1557 006b 05       		.uleb128 0x5
 1558 006c 49       		.uleb128 0x49
 1559 006d 13       		.uleb128 0x13
 1560 006e 38       		.uleb128 0x38
 1561 006f 0B       		.uleb128 0xb
 1562 0070 00       		.byte	0
 1563 0071 00       		.byte	0
 1564 0072 09       		.uleb128 0x9
 1565 0073 0D       		.uleb128 0xd
 1566 0074 00       		.byte	0
 1567 0075 03       		.uleb128 0x3
 1568 0076 0E       		.uleb128 0xe
 1569 0077 3A       		.uleb128 0x3a
 1570 0078 0B       		.uleb128 0xb
 1571 0079 3B       		.uleb128 0x3b
 1572 007a 05       		.uleb128 0x5
 1573 007b 49       		.uleb128 0x49
 1574 007c 13       		.uleb128 0x13
 1575 007d 38       		.uleb128 0x38
 1576 007e 0B       		.uleb128 0xb
 1577 007f 00       		.byte	0
 1578 0080 00       		.byte	0
 1579 0081 0A       		.uleb128 0xa
 1580 0082 0F       		.uleb128 0xf
 1581 0083 00       		.byte	0
 1582 0084 0B       		.uleb128 0xb
 1583 0085 0B       		.uleb128 0xb
 1584 0086 49       		.uleb128 0x49
 1585 0087 13       		.uleb128 0x13
 1586 0088 00       		.byte	0
 1587 0089 00       		.byte	0
 1588 008a 0B       		.uleb128 0xb
 1589 008b 13       		.uleb128 0x13
 1590 008c 01       		.byte	0x1
 1591 008d 03       		.uleb128 0x3
 1592 008e 0E       		.uleb128 0xe
 1593 008f 0B       		.uleb128 0xb
 1594 0090 0B       		.uleb128 0xb
 1595 0091 3A       		.uleb128 0x3a
 1596 0092 0B       		.uleb128 0xb
ARM GAS  /tmp/ccQCN2vm.s 			page 29


 1597 0093 3B       		.uleb128 0x3b
 1598 0094 05       		.uleb128 0x5
 1599 0095 01       		.uleb128 0x1
 1600 0096 13       		.uleb128 0x13
 1601 0097 00       		.byte	0
 1602 0098 00       		.byte	0
 1603 0099 0C       		.uleb128 0xc
 1604 009a 15       		.uleb128 0x15
 1605 009b 01       		.byte	0x1
 1606 009c 27       		.uleb128 0x27
 1607 009d 19       		.uleb128 0x19
 1608 009e 01       		.uleb128 0x1
 1609 009f 13       		.uleb128 0x13
 1610 00a0 00       		.byte	0
 1611 00a1 00       		.byte	0
 1612 00a2 0D       		.uleb128 0xd
 1613 00a3 05       		.uleb128 0x5
 1614 00a4 00       		.byte	0
 1615 00a5 49       		.uleb128 0x49
 1616 00a6 13       		.uleb128 0x13
 1617 00a7 00       		.byte	0
 1618 00a8 00       		.byte	0
 1619 00a9 0E       		.uleb128 0xe
 1620 00aa 0F       		.uleb128 0xf
 1621 00ab 00       		.byte	0
 1622 00ac 0B       		.uleb128 0xb
 1623 00ad 0B       		.uleb128 0xb
 1624 00ae 00       		.byte	0
 1625 00af 00       		.byte	0
 1626 00b0 0F       		.uleb128 0xf
 1627 00b1 35       		.uleb128 0x35
 1628 00b2 00       		.byte	0
 1629 00b3 49       		.uleb128 0x49
 1630 00b4 13       		.uleb128 0x13
 1631 00b5 00       		.byte	0
 1632 00b6 00       		.byte	0
 1633 00b7 10       		.uleb128 0x10
 1634 00b8 01       		.uleb128 0x1
 1635 00b9 01       		.byte	0x1
 1636 00ba 49       		.uleb128 0x49
 1637 00bb 13       		.uleb128 0x13
 1638 00bc 01       		.uleb128 0x1
 1639 00bd 13       		.uleb128 0x13
 1640 00be 00       		.byte	0
 1641 00bf 00       		.byte	0
 1642 00c0 11       		.uleb128 0x11
 1643 00c1 21       		.uleb128 0x21
 1644 00c2 00       		.byte	0
 1645 00c3 49       		.uleb128 0x49
 1646 00c4 13       		.uleb128 0x13
 1647 00c5 2F       		.uleb128 0x2f
 1648 00c6 0B       		.uleb128 0xb
 1649 00c7 00       		.byte	0
 1650 00c8 00       		.byte	0
 1651 00c9 12       		.uleb128 0x12
 1652 00ca 13       		.uleb128 0x13
 1653 00cb 01       		.byte	0x1
ARM GAS  /tmp/ccQCN2vm.s 			page 30


 1654 00cc 0B       		.uleb128 0xb
 1655 00cd 0B       		.uleb128 0xb
 1656 00ce 3A       		.uleb128 0x3a
 1657 00cf 0B       		.uleb128 0xb
 1658 00d0 3B       		.uleb128 0x3b
 1659 00d1 05       		.uleb128 0x5
 1660 00d2 01       		.uleb128 0x1
 1661 00d3 13       		.uleb128 0x13
 1662 00d4 00       		.byte	0
 1663 00d5 00       		.byte	0
 1664 00d6 13       		.uleb128 0x13
 1665 00d7 16       		.uleb128 0x16
 1666 00d8 00       		.byte	0
 1667 00d9 03       		.uleb128 0x3
 1668 00da 0E       		.uleb128 0xe
 1669 00db 3A       		.uleb128 0x3a
 1670 00dc 0B       		.uleb128 0xb
 1671 00dd 3B       		.uleb128 0x3b
 1672 00de 05       		.uleb128 0x5
 1673 00df 49       		.uleb128 0x49
 1674 00e0 13       		.uleb128 0x13
 1675 00e1 00       		.byte	0
 1676 00e2 00       		.byte	0
 1677 00e3 14       		.uleb128 0x14
 1678 00e4 13       		.uleb128 0x13
 1679 00e5 01       		.byte	0x1
 1680 00e6 0B       		.uleb128 0xb
 1681 00e7 0B       		.uleb128 0xb
 1682 00e8 3A       		.uleb128 0x3a
 1683 00e9 0B       		.uleb128 0xb
 1684 00ea 3B       		.uleb128 0x3b
 1685 00eb 0B       		.uleb128 0xb
 1686 00ec 01       		.uleb128 0x1
 1687 00ed 13       		.uleb128 0x13
 1688 00ee 00       		.byte	0
 1689 00ef 00       		.byte	0
 1690 00f0 15       		.uleb128 0x15
 1691 00f1 17       		.uleb128 0x17
 1692 00f2 01       		.byte	0x1
 1693 00f3 0B       		.uleb128 0xb
 1694 00f4 0B       		.uleb128 0xb
 1695 00f5 3A       		.uleb128 0x3a
 1696 00f6 0B       		.uleb128 0xb
 1697 00f7 3B       		.uleb128 0x3b
 1698 00f8 0B       		.uleb128 0xb
 1699 00f9 01       		.uleb128 0x1
 1700 00fa 13       		.uleb128 0x13
 1701 00fb 00       		.byte	0
 1702 00fc 00       		.byte	0
 1703 00fd 16       		.uleb128 0x16
 1704 00fe 0D       		.uleb128 0xd
 1705 00ff 00       		.byte	0
 1706 0100 03       		.uleb128 0x3
 1707 0101 0E       		.uleb128 0xe
 1708 0102 3A       		.uleb128 0x3a
 1709 0103 0B       		.uleb128 0xb
 1710 0104 3B       		.uleb128 0x3b
ARM GAS  /tmp/ccQCN2vm.s 			page 31


 1711 0105 0B       		.uleb128 0xb
 1712 0106 49       		.uleb128 0x49
 1713 0107 13       		.uleb128 0x13
 1714 0108 00       		.byte	0
 1715 0109 00       		.byte	0
 1716 010a 17       		.uleb128 0x17
 1717 010b 0D       		.uleb128 0xd
 1718 010c 00       		.byte	0
 1719 010d 03       		.uleb128 0x3
 1720 010e 0E       		.uleb128 0xe
 1721 010f 3A       		.uleb128 0x3a
 1722 0110 0B       		.uleb128 0xb
 1723 0111 3B       		.uleb128 0x3b
 1724 0112 05       		.uleb128 0x5
 1725 0113 49       		.uleb128 0x49
 1726 0114 13       		.uleb128 0x13
 1727 0115 00       		.byte	0
 1728 0116 00       		.byte	0
 1729 0117 18       		.uleb128 0x18
 1730 0118 26       		.uleb128 0x26
 1731 0119 00       		.byte	0
 1732 011a 49       		.uleb128 0x49
 1733 011b 13       		.uleb128 0x13
 1734 011c 00       		.byte	0
 1735 011d 00       		.byte	0
 1736 011e 19       		.uleb128 0x19
 1737 011f 2E       		.uleb128 0x2e
 1738 0120 00       		.byte	0
 1739 0121 03       		.uleb128 0x3
 1740 0122 0E       		.uleb128 0xe
 1741 0123 3A       		.uleb128 0x3a
 1742 0124 0B       		.uleb128 0xb
 1743 0125 3B       		.uleb128 0x3b
 1744 0126 0B       		.uleb128 0xb
 1745 0127 27       		.uleb128 0x27
 1746 0128 19       		.uleb128 0x19
 1747 0129 20       		.uleb128 0x20
 1748 012a 0B       		.uleb128 0xb
 1749 012b 00       		.byte	0
 1750 012c 00       		.byte	0
 1751 012d 1A       		.uleb128 0x1a
 1752 012e 2E       		.uleb128 0x2e
 1753 012f 01       		.byte	0x1
 1754 0130 03       		.uleb128 0x3
 1755 0131 0E       		.uleb128 0xe
 1756 0132 3A       		.uleb128 0x3a
 1757 0133 0B       		.uleb128 0xb
 1758 0134 3B       		.uleb128 0x3b
 1759 0135 0B       		.uleb128 0xb
 1760 0136 27       		.uleb128 0x27
 1761 0137 19       		.uleb128 0x19
 1762 0138 20       		.uleb128 0x20
 1763 0139 0B       		.uleb128 0xb
 1764 013a 01       		.uleb128 0x1
 1765 013b 13       		.uleb128 0x13
 1766 013c 00       		.byte	0
 1767 013d 00       		.byte	0
ARM GAS  /tmp/ccQCN2vm.s 			page 32


 1768 013e 1B       		.uleb128 0x1b
 1769 013f 05       		.uleb128 0x5
 1770 0140 00       		.byte	0
 1771 0141 03       		.uleb128 0x3
 1772 0142 0E       		.uleb128 0xe
 1773 0143 3A       		.uleb128 0x3a
 1774 0144 0B       		.uleb128 0xb
 1775 0145 3B       		.uleb128 0x3b
 1776 0146 0B       		.uleb128 0xb
 1777 0147 49       		.uleb128 0x49
 1778 0148 13       		.uleb128 0x13
 1779 0149 00       		.byte	0
 1780 014a 00       		.byte	0
 1781 014b 1C       		.uleb128 0x1c
 1782 014c 2E       		.uleb128 0x2e
 1783 014d 00       		.byte	0
 1784 014e 03       		.uleb128 0x3
 1785 014f 0E       		.uleb128 0xe
 1786 0150 3A       		.uleb128 0x3a
 1787 0151 0B       		.uleb128 0xb
 1788 0152 3B       		.uleb128 0x3b
 1789 0153 0B       		.uleb128 0xb
 1790 0154 27       		.uleb128 0x27
 1791 0155 19       		.uleb128 0x19
 1792 0156 49       		.uleb128 0x49
 1793 0157 13       		.uleb128 0x13
 1794 0158 20       		.uleb128 0x20
 1795 0159 0B       		.uleb128 0xb
 1796 015a 00       		.byte	0
 1797 015b 00       		.byte	0
 1798 015c 1D       		.uleb128 0x1d
 1799 015d 2E       		.uleb128 0x2e
 1800 015e 01       		.byte	0x1
 1801 015f 3F       		.uleb128 0x3f
 1802 0160 19       		.uleb128 0x19
 1803 0161 03       		.uleb128 0x3
 1804 0162 0E       		.uleb128 0xe
 1805 0163 3A       		.uleb128 0x3a
 1806 0164 0B       		.uleb128 0xb
 1807 0165 3B       		.uleb128 0x3b
 1808 0166 0B       		.uleb128 0xb
 1809 0167 27       		.uleb128 0x27
 1810 0168 19       		.uleb128 0x19
 1811 0169 11       		.uleb128 0x11
 1812 016a 01       		.uleb128 0x1
 1813 016b 12       		.uleb128 0x12
 1814 016c 06       		.uleb128 0x6
 1815 016d 40       		.uleb128 0x40
 1816 016e 18       		.uleb128 0x18
 1817 016f 9742     		.uleb128 0x2117
 1818 0171 19       		.uleb128 0x19
 1819 0172 01       		.uleb128 0x1
 1820 0173 13       		.uleb128 0x13
 1821 0174 00       		.byte	0
 1822 0175 00       		.byte	0
 1823 0176 1E       		.uleb128 0x1e
 1824 0177 898201   		.uleb128 0x4109
ARM GAS  /tmp/ccQCN2vm.s 			page 33


 1825 017a 00       		.byte	0
 1826 017b 11       		.uleb128 0x11
 1827 017c 01       		.uleb128 0x1
 1828 017d 9542     		.uleb128 0x2115
 1829 017f 19       		.uleb128 0x19
 1830 0180 31       		.uleb128 0x31
 1831 0181 13       		.uleb128 0x13
 1832 0182 00       		.byte	0
 1833 0183 00       		.byte	0
 1834 0184 1F       		.uleb128 0x1f
 1835 0185 05       		.uleb128 0x5
 1836 0186 00       		.byte	0
 1837 0187 03       		.uleb128 0x3
 1838 0188 0E       		.uleb128 0xe
 1839 0189 3A       		.uleb128 0x3a
 1840 018a 0B       		.uleb128 0xb
 1841 018b 3B       		.uleb128 0x3b
 1842 018c 0B       		.uleb128 0xb
 1843 018d 49       		.uleb128 0x49
 1844 018e 13       		.uleb128 0x13
 1845 018f 02       		.uleb128 0x2
 1846 0190 18       		.uleb128 0x18
 1847 0191 00       		.byte	0
 1848 0192 00       		.byte	0
 1849 0193 20       		.uleb128 0x20
 1850 0194 34       		.uleb128 0x34
 1851 0195 00       		.byte	0
 1852 0196 03       		.uleb128 0x3
 1853 0197 0E       		.uleb128 0xe
 1854 0198 49       		.uleb128 0x49
 1855 0199 13       		.uleb128 0x13
 1856 019a 34       		.uleb128 0x34
 1857 019b 19       		.uleb128 0x19
 1858 019c 00       		.byte	0
 1859 019d 00       		.byte	0
 1860 019e 21       		.uleb128 0x21
 1861 019f 1D       		.uleb128 0x1d
 1862 01a0 01       		.byte	0x1
 1863 01a1 31       		.uleb128 0x31
 1864 01a2 13       		.uleb128 0x13
 1865 01a3 11       		.uleb128 0x11
 1866 01a4 01       		.uleb128 0x1
 1867 01a5 12       		.uleb128 0x12
 1868 01a6 06       		.uleb128 0x6
 1869 01a7 58       		.uleb128 0x58
 1870 01a8 0B       		.uleb128 0xb
 1871 01a9 59       		.uleb128 0x59
 1872 01aa 0B       		.uleb128 0xb
 1873 01ab 00       		.byte	0
 1874 01ac 00       		.byte	0
 1875 01ad 22       		.uleb128 0x22
 1876 01ae 05       		.uleb128 0x5
 1877 01af 00       		.byte	0
 1878 01b0 31       		.uleb128 0x31
 1879 01b1 13       		.uleb128 0x13
 1880 01b2 02       		.uleb128 0x2
 1881 01b3 18       		.uleb128 0x18
ARM GAS  /tmp/ccQCN2vm.s 			page 34


 1882 01b4 00       		.byte	0
 1883 01b5 00       		.byte	0
 1884 01b6 23       		.uleb128 0x23
 1885 01b7 1D       		.uleb128 0x1d
 1886 01b8 00       		.byte	0
 1887 01b9 31       		.uleb128 0x31
 1888 01ba 13       		.uleb128 0x13
 1889 01bb 11       		.uleb128 0x11
 1890 01bc 01       		.uleb128 0x1
 1891 01bd 12       		.uleb128 0x12
 1892 01be 06       		.uleb128 0x6
 1893 01bf 58       		.uleb128 0x58
 1894 01c0 0B       		.uleb128 0xb
 1895 01c1 59       		.uleb128 0x59
 1896 01c2 0B       		.uleb128 0xb
 1897 01c3 00       		.byte	0
 1898 01c4 00       		.byte	0
 1899 01c5 24       		.uleb128 0x24
 1900 01c6 2E       		.uleb128 0x2e
 1901 01c7 01       		.byte	0x1
 1902 01c8 3F       		.uleb128 0x3f
 1903 01c9 19       		.uleb128 0x19
 1904 01ca 03       		.uleb128 0x3
 1905 01cb 0E       		.uleb128 0xe
 1906 01cc 3A       		.uleb128 0x3a
 1907 01cd 0B       		.uleb128 0xb
 1908 01ce 3B       		.uleb128 0x3b
 1909 01cf 0B       		.uleb128 0xb
 1910 01d0 27       		.uleb128 0x27
 1911 01d1 19       		.uleb128 0x19
 1912 01d2 49       		.uleb128 0x49
 1913 01d3 13       		.uleb128 0x13
 1914 01d4 11       		.uleb128 0x11
 1915 01d5 01       		.uleb128 0x1
 1916 01d6 12       		.uleb128 0x12
 1917 01d7 06       		.uleb128 0x6
 1918 01d8 40       		.uleb128 0x40
 1919 01d9 18       		.uleb128 0x18
 1920 01da 9742     		.uleb128 0x2117
 1921 01dc 19       		.uleb128 0x19
 1922 01dd 01       		.uleb128 0x1
 1923 01de 13       		.uleb128 0x13
 1924 01df 00       		.byte	0
 1925 01e0 00       		.byte	0
 1926 01e1 25       		.uleb128 0x25
 1927 01e2 34       		.uleb128 0x34
 1928 01e3 00       		.byte	0
 1929 01e4 03       		.uleb128 0x3
 1930 01e5 0E       		.uleb128 0xe
 1931 01e6 3A       		.uleb128 0x3a
 1932 01e7 0B       		.uleb128 0xb
 1933 01e8 3B       		.uleb128 0x3b
 1934 01e9 05       		.uleb128 0x5
 1935 01ea 49       		.uleb128 0x49
 1936 01eb 13       		.uleb128 0x13
 1937 01ec 3F       		.uleb128 0x3f
 1938 01ed 19       		.uleb128 0x19
ARM GAS  /tmp/ccQCN2vm.s 			page 35


 1939 01ee 3C       		.uleb128 0x3c
 1940 01ef 19       		.uleb128 0x19
 1941 01f0 00       		.byte	0
 1942 01f1 00       		.byte	0
 1943 01f2 26       		.uleb128 0x26
 1944 01f3 34       		.uleb128 0x34
 1945 01f4 00       		.byte	0
 1946 01f5 03       		.uleb128 0x3
 1947 01f6 08       		.uleb128 0x8
 1948 01f7 3A       		.uleb128 0x3a
 1949 01f8 0B       		.uleb128 0xb
 1950 01f9 3B       		.uleb128 0x3b
 1951 01fa 05       		.uleb128 0x5
 1952 01fb 49       		.uleb128 0x49
 1953 01fc 13       		.uleb128 0x13
 1954 01fd 3F       		.uleb128 0x3f
 1955 01fe 19       		.uleb128 0x19
 1956 01ff 3C       		.uleb128 0x3c
 1957 0200 19       		.uleb128 0x19
 1958 0201 00       		.byte	0
 1959 0202 00       		.byte	0
 1960 0203 27       		.uleb128 0x27
 1961 0204 2E       		.uleb128 0x2e
 1962 0205 00       		.byte	0
 1963 0206 3F       		.uleb128 0x3f
 1964 0207 19       		.uleb128 0x19
 1965 0208 03       		.uleb128 0x3
 1966 0209 0E       		.uleb128 0xe
 1967 020a 3A       		.uleb128 0x3a
 1968 020b 0B       		.uleb128 0xb
 1969 020c 3B       		.uleb128 0x3b
 1970 020d 0B       		.uleb128 0xb
 1971 020e 27       		.uleb128 0x27
 1972 020f 19       		.uleb128 0x19
 1973 0210 3C       		.uleb128 0x3c
 1974 0211 19       		.uleb128 0x19
 1975 0212 00       		.byte	0
 1976 0213 00       		.byte	0
 1977 0214 00       		.byte	0
 1978              		.section	.debug_aranges,"",%progbits
 1979 0000 3C000000 		.4byte	0x3c
 1980 0004 0200     		.2byte	0x2
 1981 0006 00000000 		.4byte	.Ldebug_info0
 1982 000a 04       		.byte	0x4
 1983 000b 00       		.byte	0
 1984 000c 0000     		.2byte	0
 1985 000e 0000     		.2byte	0
 1986 0010 00000000 		.4byte	.LFB277
 1987 0014 04000000 		.4byte	.LFE277-.LFB277
 1988 0018 00000000 		.4byte	.LFB278
 1989 001c 14000000 		.4byte	.LFE278-.LFB278
 1990 0020 00000000 		.4byte	.LFB279
 1991 0024 0C000000 		.4byte	.LFE279-.LFB279
 1992 0028 00000000 		.4byte	.LFB280
 1993 002c 0C000000 		.4byte	.LFE280-.LFB280
 1994 0030 00000000 		.4byte	.LFB281
 1995 0034 0C000000 		.4byte	.LFE281-.LFB281
ARM GAS  /tmp/ccQCN2vm.s 			page 36


 1996 0038 00000000 		.4byte	0
 1997 003c 00000000 		.4byte	0
 1998              		.section	.debug_ranges,"",%progbits
 1999              	.Ldebug_ranges0:
 2000 0000 00000000 		.4byte	.LFB277
 2001 0004 04000000 		.4byte	.LFE277
 2002 0008 00000000 		.4byte	.LFB278
 2003 000c 14000000 		.4byte	.LFE278
 2004 0010 00000000 		.4byte	.LFB279
 2005 0014 0C000000 		.4byte	.LFE279
 2006 0018 00000000 		.4byte	.LFB280
 2007 001c 0C000000 		.4byte	.LFE280
 2008 0020 00000000 		.4byte	.LFB281
 2009 0024 0C000000 		.4byte	.LFE281
 2010 0028 00000000 		.4byte	0
 2011 002c 00000000 		.4byte	0
 2012              		.section	.debug_line,"",%progbits
 2013              	.Ldebug_line0:
 2014 0000 9D020000 		.section	.debug_str,"MS",%progbits,1
 2014      02002502 
 2014      00000201 
 2014      FB0E0D00 
 2014      01010101 
 2015              	.LASF53:
 2016 0000 72656164 		.ascii	"ready_list_t\000"
 2016      795F6C69 
 2016      73745F74 
 2016      00
 2017              	.LASF79:
 2018 000d 44494552 		.ascii	"DIER\000"
 2018      00
 2019              	.LASF103:
 2020 0012 77747472 		.ascii	"wttrp\000"
 2020      7000
 2021              	.LASF49:
 2022 0018 6E657874 		.ascii	"next\000"
 2022      00
 2023              	.LASF59:
 2024 001d 64656C74 		.ascii	"delta\000"
 2024      6100
 2025              	.LASF100:
 2026 0023 7264796D 		.ascii	"rdymsg\000"
 2026      736700
 2027              	.LASF16:
 2028 002a 75696E74 		.ascii	"uint64_t\000"
 2028      36345F74 
 2028      00
 2029              	.LASF72:
 2030 0033 6B65726E 		.ascii	"kernel_stats\000"
 2030      656C5F73 
 2030      74617473 
 2030      00
 2031              	.LASF5:
 2032 0040 5F5F7569 		.ascii	"__uint8_t\000"
 2032      6E74385F 
 2032      7400
 2033              	.LASF52:
ARM GAS  /tmp/ccQCN2vm.s 			page 37


 2034 004a 70726576 		.ascii	"prev\000"
 2034      00
 2035              	.LASF77:
 2036 004f 706F7274 		.ascii	"port_intctx\000"
 2036      5F696E74 
 2036      63747800 
 2037              	.LASF51:
 2038 005b 63685F74 		.ascii	"ch_threads_queue\000"
 2038      68726561 
 2038      64735F71 
 2038      75657565 
 2038      00
 2039              	.LASF64:
 2040 006c 73797374 		.ascii	"system_debug_t\000"
 2040      656D5F64 
 2040      65627567 
 2040      5F7400
 2041              	.LASF91:
 2042 007b 776F7273 		.ascii	"worst\000"
 2042      7400
 2043              	.LASF94:
 2044 0081 74696D65 		.ascii	"time_measurement_t\000"
 2044      5F6D6561 
 2044      73757265 
 2044      6D656E74 
 2044      5F7400
 2045              	.LASF12:
 2046 0094 6C6F6E67 		.ascii	"long long unsigned int\000"
 2046      206C6F6E 
 2046      6720756E 
 2046      7369676E 
 2046      65642069 
 2047              	.LASF101:
 2048 00ab 65786974 		.ascii	"exitcode\000"
 2048      636F6465 
 2048      00
 2049              	.LASF71:
 2050 00b4 6D61696E 		.ascii	"mainthread\000"
 2050      74687265 
 2050      616400
 2051              	.LASF104:
 2052 00bf 73656E74 		.ascii	"sentmsg\000"
 2052      6D736700 
 2053              	.LASF61:
 2054 00c7 76697274 		.ascii	"virtual_timers_list_t\000"
 2054      75616C5F 
 2054      74696D65 
 2054      72735F6C 
 2054      6973745F 
 2055              	.LASF123:
 2056 00dd 49544D5F 		.ascii	"ITM_RxBuffer\000"
 2056      52784275 
 2056      66666572 
 2056      00
 2057              	.LASF130:
 2058 00ea 73745F6C 		.ascii	"st_lld_init\000"
 2058      6C645F69 
ARM GAS  /tmp/ccQCN2vm.s 			page 38


 2058      6E697400 
 2059              	.LASF83:
 2060 00f6 42445452 		.ascii	"BDTR\000"
 2060      00
 2061              	.LASF18:
 2062 00fb 72747469 		.ascii	"rttime_t\000"
 2062      6D655F74 
 2062      00
 2063              	.LASF80:
 2064 0104 43434D52 		.ascii	"CCMR1\000"
 2064      3100
 2065              	.LASF81:
 2066 010a 43434D52 		.ascii	"CCMR2\000"
 2066      3200
 2067              	.LASF85:
 2068 0110 43434D52 		.ascii	"CCMR3\000"
 2068      3300
 2069              	.LASF1:
 2070 0116 7369676E 		.ascii	"signed char\000"
 2070      65642063 
 2070      68617200 
 2071              	.LASF70:
 2072 0122 76746C69 		.ascii	"vtlist\000"
 2072      737400
 2073              	.LASF126:
 2074 0129 2F686F6D 		.ascii	"/home/kozinalexey/f4by/ardupilot/build/f4by-ch\000"
 2074      652F6B6F 
 2074      7A696E61 
 2074      6C657865 
 2074      792F6634 
 2075              	.LASF39:
 2076 0158 6D736771 		.ascii	"msgqueue\000"
 2076      75657565 
 2076      00
 2077              	.LASF35:
 2078 0161 73746174 		.ascii	"state\000"
 2078      6500
 2079              	.LASF7:
 2080 0167 6C6F6E67 		.ascii	"long int\000"
 2080      20696E74 
 2080      00
 2081              	.LASF19:
 2082 0170 746D6F64 		.ascii	"tmode_t\000"
 2082      655F7400 
 2083              	.LASF20:
 2084 0178 74737461 		.ascii	"tstate_t\000"
 2084      74655F74 
 2084      00
 2085              	.LASF60:
 2086 0181 66756E63 		.ascii	"func\000"
 2086      00
 2087              	.LASF44:
 2088 0186 73746174 		.ascii	"stats\000"
 2088      7300
 2089              	.LASF8:
 2090 018c 5F5F7569 		.ascii	"__uint32_t\000"
 2090      6E743332 
ARM GAS  /tmp/ccQCN2vm.s 			page 39


 2090      5F7400
 2091              	.LASF74:
 2092 0197 72656761 		.ascii	"regarm_t\000"
 2092      726D5F74 
 2092      00
 2093              	.LASF117:
 2094 01a0 7374496E 		.ascii	"stInit\000"
 2094      697400
 2095              	.LASF65:
 2096 01a7 63685F73 		.ascii	"ch_system_debug\000"
 2096      79737465 
 2096      6D5F6465 
 2096      62756700 
 2097              	.LASF38:
 2098 01b7 77616974 		.ascii	"waiting\000"
 2098      696E6700 
 2099              	.LASF10:
 2100 01bf 6C6F6E67 		.ascii	"long long int\000"
 2100      206C6F6E 
 2100      6720696E 
 2100      7400
 2101              	.LASF25:
 2102 01cd 636E745F 		.ascii	"cnt_t\000"
 2102      7400
 2103              	.LASF0:
 2104 01d3 756E7369 		.ascii	"unsigned int\000"
 2104      676E6564 
 2104      20696E74 
 2104      00
 2105              	.LASF124:
 2106 01e0 474E5520 		.ascii	"GNU C 4.9.3 20150529 (prerelease) -mcpu=cortex-m4 -"
 2106      4320342E 
 2106      392E3320 
 2106      32303135 
 2106      30353239 
 2107 0213 6D666C6F 		.ascii	"mfloat-abi=hard -mfpu=fpv4-sp-d16 -mno-thumb-interw"
 2107      61742D61 
 2107      62693D68 
 2107      61726420 
 2107      2D6D6670 
 2108 0246 6F726B20 		.ascii	"ork -mthumb -g -Os -fomit-frame-pointer -falign-fun"
 2108      2D6D7468 
 2108      756D6220 
 2108      2D67202D 
 2108      4F73202D 
 2109 0279 6374696F 		.ascii	"ctions=16 -ffunction-sections -fdata-sections -fno-"
 2109      6E733D31 
 2109      36202D66 
 2109      66756E63 
 2109      74696F6E 
 2110 02ac 636F6D6D 		.ascii	"common -fsingle-precision-constant\000"
 2110      6F6E202D 
 2110      6673696E 
 2110      676C652D 
 2110      70726563 
 2111              	.LASF105:
 2112 02cf 77747365 		.ascii	"wtsemp\000"
ARM GAS  /tmp/ccQCN2vm.s 			page 40


 2112      6D7000
 2113              	.LASF95:
 2114 02d6 6E5F6972 		.ascii	"n_irq\000"
 2114      7100
 2115              	.LASF29:
 2116 02dc 71756575 		.ascii	"queue\000"
 2116      6500
 2117              	.LASF43:
 2118 02e2 6D706F6F 		.ascii	"mpool\000"
 2118      6C00
 2119              	.LASF90:
 2120 02e8 62657374 		.ascii	"best\000"
 2120      00
 2121              	.LASF78:
 2122 02ed 534D4352 		.ascii	"SMCR\000"
 2122      00
 2123              	.LASF99:
 2124 02f2 6B65726E 		.ascii	"kernel_stats_t\000"
 2124      656C5F73 
 2124      74617473 
 2124      5F7400
 2125              	.LASF33:
 2126 0301 6E616D65 		.ascii	"name\000"
 2126      00
 2127              	.LASF47:
 2128 0306 63685F74 		.ascii	"ch_thread\000"
 2128      68726561 
 2128      6400
 2129              	.LASF23:
 2130 0310 6D73675F 		.ascii	"msg_t\000"
 2130      7400
 2131              	.LASF92:
 2132 0316 6C617374 		.ascii	"last\000"
 2132      00
 2133              	.LASF26:
 2134 031b 75636E74 		.ascii	"ucnt_t\000"
 2134      5F7400
 2135              	.LASF40:
 2136 0322 6570656E 		.ascii	"epending\000"
 2136      64696E67 
 2136      00
 2137              	.LASF67:
 2138 032b 63685F73 		.ascii	"ch_system_t\000"
 2138      79737465 
 2138      6D5F7400 
 2139              	.LASF87:
 2140 0337 73746D33 		.ascii	"stm32_tim_t\000"
 2140      325F7469 
 2140      6D5F7400 
 2141              	.LASF98:
 2142 0343 6D5F6372 		.ascii	"m_crit_isr\000"
 2142      69745F69 
 2142      737200
 2143              	.LASF54:
 2144 034e 63685F72 		.ascii	"ch_ready_list\000"
 2144      65616479 
 2144      5F6C6973 
ARM GAS  /tmp/ccQCN2vm.s 			page 41


 2144      7400
 2145              	.LASF24:
 2146 035c 6576656E 		.ascii	"eventmask_t\000"
 2146      746D6173 
 2146      6B5F7400 
 2147              	.LASF6:
 2148 0368 5F5F696E 		.ascii	"__int32_t\000"
 2148      7433325F 
 2148      7400
 2149              	.LASF115:
 2150 0372 73745F6C 		.ascii	"st_lld_start_alarm\000"
 2150      6C645F73 
 2150      74617274 
 2150      5F616C61 
 2150      726D00
 2151              	.LASF75:
 2152 0385 73746B61 		.ascii	"stkalign_t\000"
 2152      6C69676E 
 2152      5F7400
 2153              	.LASF31:
 2154 0390 6E657765 		.ascii	"newer\000"
 2154      7200
 2155              	.LASF42:
 2156 0396 7265616C 		.ascii	"realprio\000"
 2156      7072696F 
 2156      00
 2157              	.LASF73:
 2158 039f 73697A65 		.ascii	"sizetype\000"
 2158      74797065 
 2158      00
 2159              	.LASF45:
 2160 03a8 74687265 		.ascii	"thread_reference_t\000"
 2160      61645F72 
 2160      65666572 
 2160      656E6365 
 2160      5F7400
 2161              	.LASF62:
 2162 03bb 63685F76 		.ascii	"ch_virtual_timers_list\000"
 2162      69727475 
 2162      616C5F74 
 2162      696D6572 
 2162      735F6C69 
 2163              	.LASF76:
 2164 03d2 706F7274 		.ascii	"port_context\000"
 2164      5F636F6E 
 2164      74657874 
 2164      00
 2165              	.LASF89:
 2166 03df 746D5F63 		.ascii	"tm_calibration_t\000"
 2166      616C6962 
 2166      72617469 
 2166      6F6E5F74 
 2166      00
 2167              	.LASF116:
 2168 03f0 74696D65 		.ascii	"time\000"
 2168      00
 2169              	.LASF30:
ARM GAS  /tmp/ccQCN2vm.s 			page 42


 2170 03f5 7072696F 		.ascii	"prio\000"
 2170      00
 2171              	.LASF55:
 2172 03fa 63757272 		.ascii	"current\000"
 2172      656E7400 
 2173              	.LASF11:
 2174 0402 5F5F7569 		.ascii	"__uint64_t\000"
 2174      6E743634 
 2174      5F7400
 2175              	.LASF93:
 2176 040d 63756D75 		.ascii	"cumulative\000"
 2176      6C617469 
 2176      766500
 2177              	.LASF21:
 2178 0418 74726566 		.ascii	"trefs_t\000"
 2178      735F7400 
 2179              	.LASF37:
 2180 0420 72656673 		.ascii	"refs\000"
 2180      00
 2181              	.LASF57:
 2182 0425 76697274 		.ascii	"virtual_timer_t\000"
 2182      75616C5F 
 2182      74696D65 
 2182      725F7400 
 2183              	.LASF22:
 2184 0435 74707269 		.ascii	"tprio_t\000"
 2184      6F5F7400 
 2185              	.LASF96:
 2186 043d 6E5F6374 		.ascii	"n_ctxswc\000"
 2186      78737763 
 2186      00
 2187              	.LASF113:
 2188 0446 5F426F6F 		.ascii	"_Bool\000"
 2188      6C00
 2189              	.LASF14:
 2190 044c 696E7433 		.ascii	"int32_t\000"
 2190      325F7400 
 2191              	.LASF2:
 2192 0454 756E7369 		.ascii	"unsigned char\000"
 2192      676E6564 
 2192      20636861 
 2192      7200
 2193              	.LASF3:
 2194 0462 73686F72 		.ascii	"short int\000"
 2194      7420696E 
 2194      7400
 2195              	.LASF63:
 2196 046c 6C617374 		.ascii	"lasttime\000"
 2196      74696D65 
 2196      00
 2197              	.LASF107:
 2198 0475 65776D61 		.ascii	"ewmask\000"
 2198      736B00
 2199              	.LASF68:
 2200 047c 63685F73 		.ascii	"ch_system\000"
 2200      79737465 
 2200      6D00
ARM GAS  /tmp/ccQCN2vm.s 			page 43


 2201              	.LASF13:
 2202 0486 75696E74 		.ascii	"uint8_t\000"
 2202      385F7400 
 2203              	.LASF122:
 2204 048e 5F5F6675 		.ascii	"__func__\000"
 2204      6E635F5F 
 2204      00
 2205              	.LASF58:
 2206 0497 63685F76 		.ascii	"ch_virtual_timer\000"
 2206      69727475 
 2206      616C5F74 
 2206      696D6572 
 2206      00
 2207              	.LASF128:
 2208 04a8 73745F6C 		.ascii	"st_lld_get_alarm\000"
 2208      6C645F67 
 2208      65745F61 
 2208      6C61726D 
 2208      00
 2209              	.LASF108:
 2210 04b9 63685F73 		.ascii	"ch_semaphore\000"
 2210      656D6170 
 2210      686F7265 
 2210      00
 2211              	.LASF86:
 2212 04c6 43435852 		.ascii	"CCXR\000"
 2212      00
 2213              	.LASF15:
 2214 04cb 75696E74 		.ascii	"uint32_t\000"
 2214      33325F74 
 2214      00
 2215              	.LASF106:
 2216 04d4 77746D74 		.ascii	"wtmtxp\000"
 2216      787000
 2217              	.LASF48:
 2218 04db 63685F74 		.ascii	"ch_threads_list\000"
 2218      68726561 
 2218      64735F6C 
 2218      69737400 
 2219              	.LASF110:
 2220 04eb 6F776E65 		.ascii	"owner\000"
 2220      7200
 2221              	.LASF9:
 2222 04f1 6C6F6E67 		.ascii	"long unsigned int\000"
 2222      20756E73 
 2222      69676E65 
 2222      6420696E 
 2222      7400
 2223              	.LASF34:
 2224 0503 77616261 		.ascii	"wabase\000"
 2224      736500
 2225              	.LASF119:
 2226 050a 73745374 		.ascii	"stStopAlarm\000"
 2226      6F70416C 
 2226      61726D00 
 2227              	.LASF111:
 2228 0516 63686172 		.ascii	"char\000"
ARM GAS  /tmp/ccQCN2vm.s 			page 44


 2228      00
 2229              	.LASF32:
 2230 051b 6F6C6465 		.ascii	"older\000"
 2230      7200
 2231              	.LASF84:
 2232 0521 444D4152 		.ascii	"DMAR\000"
 2232      00
 2233              	.LASF28:
 2234 0526 74687265 		.ascii	"thread_t\000"
 2234      61645F74 
 2234      00
 2235              	.LASF82:
 2236 052f 43434552 		.ascii	"CCER\000"
 2236      00
 2237              	.LASF27:
 2238 0534 73797374 		.ascii	"systime_t\000"
 2238      696D655F 
 2238      7400
 2239              	.LASF56:
 2240 053e 76746675 		.ascii	"vtfunc_t\000"
 2240      6E635F74 
 2240      00
 2241              	.LASF66:
 2242 0547 70616E69 		.ascii	"panic_msg\000"
 2242      635F6D73 
 2242      6700
 2243              	.LASF88:
 2244 0551 6F666673 		.ascii	"offset\000"
 2244      657400
 2245              	.LASF118:
 2246 0558 73745374 		.ascii	"stStartAlarm\000"
 2246      61727441 
 2246      6C61726D 
 2246      00
 2247              	.LASF4:
 2248 0565 73686F72 		.ascii	"short unsigned int\000"
 2248      7420756E 
 2248      7369676E 
 2248      65642069 
 2248      6E7400
 2249              	.LASF17:
 2250 0578 7274636E 		.ascii	"rtcnt_t\000"
 2250      745F7400 
 2251              	.LASF127:
 2252 0580 73745F6C 		.ascii	"st_lld_stop_alarm\000"
 2252      6C645F73 
 2252      746F705F 
 2252      616C6172 
 2252      6D00
 2253              	.LASF125:
 2254 0592 2E2E2F2E 		.ascii	"../../modules/ChibiOS/os/hal/src/hal_st.c\000"
 2254      2E2F6D6F 
 2254      64756C65 
 2254      732F4368 
 2254      6962694F 
 2255              	.LASF50:
 2256 05bc 74687265 		.ascii	"threads_queue_t\000"
ARM GAS  /tmp/ccQCN2vm.s 			page 45


 2256      6164735F 
 2256      71756575 
 2256      655F7400 
 2257              	.LASF109:
 2258 05cc 63685F6D 		.ascii	"ch_mutex\000"
 2258      75746578 
 2258      00
 2259              	.LASF69:
 2260 05d5 726C6973 		.ascii	"rlist\000"
 2260      7400
 2261              	.LASF120:
 2262 05db 73745365 		.ascii	"stSetAlarm\000"
 2262      74416C61 
 2262      726D00
 2263              	.LASF36:
 2264 05e6 666C6167 		.ascii	"flags\000"
 2264      7300
 2265              	.LASF129:
 2266 05ec 73744765 		.ascii	"stGetAlarm\000"
 2266      74416C61 
 2266      726D00
 2267              	.LASF102:
 2268 05f7 77746F62 		.ascii	"wtobjp\000"
 2268      6A7000
 2269              	.LASF46:
 2270 05fe 74687265 		.ascii	"threads_list_t\000"
 2270      6164735F 
 2270      6C697374 
 2270      5F7400
 2271              	.LASF121:
 2272 060d 61627374 		.ascii	"abstime\000"
 2272      696D6500 
 2273              	.LASF114:
 2274 0615 73745F6C 		.ascii	"st_lld_set_alarm\000"
 2274      6C645F73 
 2274      65745F61 
 2274      6C61726D 
 2274      00
 2275              	.LASF41:
 2276 0626 6D74786C 		.ascii	"mtxlist\000"
 2276      69737400 
 2277              	.LASF112:
 2278 062e 6D757465 		.ascii	"mutex_t\000"
 2278      785F7400 
 2279              	.LASF97:
 2280 0636 6D5F6372 		.ascii	"m_crit_thd\000"
 2280      69745F74 
 2280      686400
 2281              		.ident	"GCC: (15:4.9.3+svn231177-1) 4.9.3 20150529 (prerelease)"
ARM GAS  /tmp/ccQCN2vm.s 			page 46


DEFINED SYMBOLS
                            *ABS*:0000000000000000 hal_st.c
     /tmp/ccQCN2vm.s:21     .text.stInit:0000000000000000 $t
     /tmp/ccQCN2vm.s:26     .text.stInit:0000000000000000 stInit
     /tmp/ccQCN2vm.s:41     .text.stStartAlarm:0000000000000000 $t
     /tmp/ccQCN2vm.s:46     .text.stStartAlarm:0000000000000000 stStartAlarm
     /tmp/ccQCN2vm.s:72     .text.stStartAlarm:0000000000000010 $d
     /tmp/ccQCN2vm.s:79     .text.stStopAlarm:0000000000000000 $t
     /tmp/ccQCN2vm.s:84     .text.stStopAlarm:0000000000000000 stStopAlarm
     /tmp/ccQCN2vm.s:101    .text.stStopAlarm:0000000000000008 $d
     /tmp/ccQCN2vm.s:108    .text.stSetAlarm:0000000000000000 $t
     /tmp/ccQCN2vm.s:113    .text.stSetAlarm:0000000000000000 stSetAlarm
     /tmp/ccQCN2vm.s:130    .text.stSetAlarm:0000000000000008 $d
     /tmp/ccQCN2vm.s:137    .text.stGetAlarm:0000000000000000 $t
     /tmp/ccQCN2vm.s:142    .text.stGetAlarm:0000000000000000 stGetAlarm
     /tmp/ccQCN2vm.s:161    .text.stGetAlarm:0000000000000008 $d
                     .debug_frame:0000000000000010 $d

UNDEFINED SYMBOLS
st_lld_init
