ARM GAS  /tmp/ccycizpT.s 			page 1


   1              		.syntax unified
   2              		.cpu cortex-m4
   3              		.eabi_attribute 27, 1
   4              		.eabi_attribute 28, 1
   5              		.fpu fpv4-sp-d16
   6              		.eabi_attribute 20, 1
   7              		.eabi_attribute 21, 1
   8              		.eabi_attribute 23, 3
   9              		.eabi_attribute 24, 1
  10              		.eabi_attribute 25, 1
  11              		.eabi_attribute 26, 1
  12              		.eabi_attribute 30, 4
  13              		.eabi_attribute 34, 1
  14              		.eabi_attribute 18, 4
  15              		.thumb
  16              		.file	"hal_usb.c"
  17              		.text
  18              	.Ltext0:
  19              		.cfi_sections	.debug_frame
  20              		.section	.text.chSysLockFromISR,"ax",%progbits
  21              		.align	1
  22              		.thumb
  23              		.thumb_func
  24              		.type	chSysLockFromISR, %function
  25              	chSysLockFromISR:
  26              	.LFB169:
  27              		.file 1 "../../modules/ChibiOS/os/rt/include/chsys.h"
  28              		.loc 1 414 0
  29              		.cfi_startproc
  30              		@ args = 0, pretend = 0, frame = 0
  31              		@ frame_needed = 0, uses_anonymous_args = 0
  32              		@ link register save eliminated.
  33              	.LVL0:
  34              	.LBB80:
  35              	.LBB81:
  36              	.LBB82:
  37              	.LBB83:
  38              		.file 2 "../../modules/ChibiOS/os/common/ext/CMSIS/include/cmsis_gcc.h"
  39              		.loc 2 264 0
  40 0000 2023     		movs	r3, #32
  41              	@ 264 "../../modules/ChibiOS/os/common/ext/CMSIS/include/cmsis_gcc.h" 1
  42 0002 83F31188 		MSR basepri, r3
  43              	@ 0 "" 2
  44              		.thumb
  45              	.LBE83:
  46              	.LBE82:
  47              	.LBE81:
  48              	.LBE80:
  49              		.loc 1 417 0
  50 0006 FFF7FEBF 		b	_stats_start_measure_crit_isr
  51              	.LVL1:
  52              		.cfi_endproc
  53              	.LFE169:
  54              		.size	chSysLockFromISR, .-chSysLockFromISR
  55              		.section	.text.chSysUnlockFromISR,"ax",%progbits
  56              		.align	1
  57              		.thumb
ARM GAS  /tmp/ccycizpT.s 			page 2


  58              		.thumb_func
  59              		.type	chSysUnlockFromISR, %function
  60              	chSysUnlockFromISR:
  61              	.LFB170:
  62              		.loc 1 434 0
  63              		.cfi_startproc
  64              		@ args = 0, pretend = 0, frame = 0
  65              		@ frame_needed = 0, uses_anonymous_args = 0
  66 0000 08B5     		push	{r3, lr}
  67              		.cfi_def_cfa_offset 8
  68              		.cfi_offset 3, -8
  69              		.cfi_offset 14, -4
  70              		.loc 1 437 0
  71 0002 FFF7FEFF 		bl	_stats_stop_measure_crit_isr
  72              	.LVL2:
  73              	.LBB84:
  74              	.LBB85:
  75              	.LBB86:
  76              	.LBB87:
  77              		.loc 2 264 0
  78 0006 0023     		movs	r3, #0
  79              	@ 264 "../../modules/ChibiOS/os/common/ext/CMSIS/include/cmsis_gcc.h" 1
  80 0008 83F31188 		MSR basepri, r3
  81              	@ 0 "" 2
  82              		.thumb
  83 000c 08BD     		pop	{r3, pc}
  84              	.LBE87:
  85              	.LBE86:
  86              	.LBE85:
  87              	.LBE84:
  88              		.cfi_endproc
  89              	.LFE170:
  90              		.size	chSysUnlockFromISR, .-chSysUnlockFromISR
  91              		.section	.text.usbInit,"ax",%progbits
  92              		.align	1
  93              		.global	usbInit
  94              		.thumb
  95              		.thumb_func
  96              		.type	usbInit, %function
  97              	usbInit:
  98              	.LFB280:
  99              		.file 3 "../../modules/ChibiOS/os/hal/src/hal_usb.c"
 100              		.loc 3 266 0
 101              		.cfi_startproc
 102              		@ args = 0, pretend = 0, frame = 0
 103              		@ frame_needed = 0, uses_anonymous_args = 0
 104              		@ link register save eliminated.
 105              		.loc 3 268 0
 106 0000 FFF7FEBF 		b	usb_lld_init
 107              	.LVL3:
 108              		.cfi_endproc
 109              	.LFE280:
 110              		.size	usbInit, .-usbInit
 111              		.section	.text.usbObjectInit,"ax",%progbits
 112              		.align	1
 113              		.global	usbObjectInit
 114              		.thumb
ARM GAS  /tmp/ccycizpT.s 			page 3


 115              		.thumb_func
 116              		.type	usbObjectInit, %function
 117              	usbObjectInit:
 118              	.LFB281:
 119              		.loc 3 278 0
 120              		.cfi_startproc
 121              		@ args = 0, pretend = 0, frame = 0
 122              		@ frame_needed = 0, uses_anonymous_args = 0
 123              		@ link register save eliminated.
 124              	.LVL4:
 125              		.loc 3 281 0
 126 0000 0123     		movs	r3, #1
 127 0002 0370     		strb	r3, [r0]
 128              		.loc 3 282 0
 129 0004 0023     		movs	r3, #0
 130 0006 4360     		str	r3, [r0, #4]
 131              	.LVL5:
 132              		.loc 3 284 0
 133 0008 C361     		str	r3, [r0, #28]
 134              		.loc 3 285 0
 135 000a 8362     		str	r3, [r0, #40]
 136              	.LVL6:
 137              		.loc 3 284 0
 138 000c 0362     		str	r3, [r0, #32]
 139              		.loc 3 285 0
 140 000e C362     		str	r3, [r0, #44]
 141              	.LVL7:
 142              		.loc 3 284 0
 143 0010 4362     		str	r3, [r0, #36]
 144              		.loc 3 285 0
 145 0012 0363     		str	r3, [r0, #48]
 146              	.LVL8:
 147              		.loc 3 287 0
 148 0014 0381     		strh	r3, [r0, #8]	@ movhi
 149              		.loc 3 288 0
 150 0016 4381     		strh	r3, [r0, #10]	@ movhi
 151 0018 7047     		bx	lr
 152              		.cfi_endproc
 153              	.LFE281:
 154              		.size	usbObjectInit, .-usbObjectInit
 155              		.section	.text.usbStart,"ax",%progbits
 156              		.align	1
 157              		.global	usbStart
 158              		.thumb
 159              		.thumb_func
 160              		.type	usbStart, %function
 161              	usbStart:
 162              	.LFB282:
 163              		.loc 3 299 0
 164              		.cfi_startproc
 165              		@ args = 0, pretend = 0, frame = 0
 166              		@ frame_needed = 0, uses_anonymous_args = 0
 167              	.LVL9:
 168 0000 38B5     		push	{r3, r4, r5, lr}
 169              		.cfi_def_cfa_offset 16
 170              		.cfi_offset 3, -16
 171              		.cfi_offset 4, -12
ARM GAS  /tmp/ccycizpT.s 			page 4


 172              		.cfi_offset 5, -8
 173              		.cfi_offset 14, -4
 174              		.loc 3 299 0
 175 0002 0446     		mov	r4, r0
 176 0004 0D46     		mov	r5, r1
 177              	.LBB102:
 178              	.LBB103:
 179              	.LBB104:
 180              	.LBB105:
 181              	.LBB106:
 182              	.LBB107:
 183              		.loc 2 264 0
 184 0006 2023     		movs	r3, #32
 185              	@ 264 "../../modules/ChibiOS/os/common/ext/CMSIS/include/cmsis_gcc.h" 1
 186 0008 83F31188 		MSR basepri, r3
 187              	@ 0 "" 2
 188              		.thumb
 189              	.LBE107:
 190              	.LBE106:
 191              	.LBE105:
 192              		.loc 1 377 0
 193 000c FFF7FEFF 		bl	_stats_start_measure_crit_thd
 194              	.LVL10:
 195              	.LBE104:
 196              	.LBE103:
 197              	.LBE102:
 198              		.loc 3 307 0
 199 0010 6560     		str	r5, [r4, #4]
 200              	.LVL11:
 201              		.loc 3 309 0
 202 0012 0025     		movs	r5, #0
 203              	.LVL12:
 204              		.loc 3 311 0
 205 0014 2046     		mov	r0, r4
 206              		.loc 3 309 0
 207 0016 E560     		str	r5, [r4, #12]
 208              	.LVL13:
 209 0018 2561     		str	r5, [r4, #16]
 210              	.LVL14:
 211 001a 6561     		str	r5, [r4, #20]
 212              	.LVL15:
 213 001c A561     		str	r5, [r4, #24]
 214              	.LVL16:
 215              		.loc 3 311 0
 216 001e FFF7FEFF 		bl	usb_lld_start
 217              	.LVL17:
 218              		.loc 3 312 0
 219 0022 0223     		movs	r3, #2
 220 0024 2370     		strb	r3, [r4]
 221              	.LBB108:
 222              	.LBB109:
 223              	.LBB110:
 224              		.loc 1 389 0
 225 0026 FFF7FEFF 		bl	_stats_stop_measure_crit_thd
 226              	.LVL18:
 227              	.LBB111:
 228              	.LBB112:
ARM GAS  /tmp/ccycizpT.s 			page 5


 229              	.LBB113:
 230              		.loc 2 264 0
 231              	@ 264 "../../modules/ChibiOS/os/common/ext/CMSIS/include/cmsis_gcc.h" 1
 232 002a 85F31188 		MSR basepri, r5
 233              	@ 0 "" 2
 234              		.thumb
 235 002e 38BD     		pop	{r3, r4, r5, pc}
 236              	.LBE113:
 237              	.LBE112:
 238              	.LBE111:
 239              	.LBE110:
 240              	.LBE109:
 241              	.LBE108:
 242              		.cfi_endproc
 243              	.LFE282:
 244              		.size	usbStart, .-usbStart
 245              		.section	.text.usbStop,"ax",%progbits
 246              		.align	1
 247              		.global	usbStop
 248              		.thumb
 249              		.thumb_func
 250              		.type	usbStop, %function
 251              	usbStop:
 252              	.LFB283:
 253              		.loc 3 323 0
 254              		.cfi_startproc
 255              		@ args = 0, pretend = 0, frame = 0
 256              		@ frame_needed = 0, uses_anonymous_args = 0
 257              	.LVL19:
 258 0000 38B5     		push	{r3, r4, r5, lr}
 259              		.cfi_def_cfa_offset 16
 260              		.cfi_offset 3, -16
 261              		.cfi_offset 4, -12
 262              		.cfi_offset 5, -8
 263              		.cfi_offset 14, -4
 264              		.loc 3 323 0
 265 0002 0446     		mov	r4, r0
 266              	.LBB130:
 267              	.LBB131:
 268              	.LBB132:
 269              	.LBB133:
 270              	.LBB134:
 271              	.LBB135:
 272              		.loc 2 264 0
 273 0004 2023     		movs	r3, #32
 274              	@ 264 "../../modules/ChibiOS/os/common/ext/CMSIS/include/cmsis_gcc.h" 1
 275 0006 83F31188 		MSR basepri, r3
 276              	@ 0 "" 2
 277              		.thumb
 278              	.LBE135:
 279              	.LBE134:
 280              	.LBE133:
 281              		.loc 1 377 0
 282 000a FFF7FEFF 		bl	_stats_start_measure_crit_thd
 283              	.LVL20:
 284              	.LBE132:
 285              	.LBE131:
ARM GAS  /tmp/ccycizpT.s 			page 6


 286              	.LBE130:
 287              		.loc 3 335 0
 288 000e 2046     		mov	r0, r4
 289 0010 FFF7FEFF 		bl	usb_lld_stop
 290              	.LVL21:
 291              		.loc 3 336 0
 292 0014 0025     		movs	r5, #0
 293              		.loc 3 337 0
 294 0016 0123     		movs	r3, #1
 295 0018 2370     		strb	r3, [r4]
 296              	.LVL22:
 297              		.loc 3 336 0
 298 001a 6560     		str	r5, [r4, #4]
 299              		.loc 3 351 0
 300 001c E560     		str	r5, [r4, #12]
 301              	.LVL23:
 302 001e 2561     		str	r5, [r4, #16]
 303              	.LVL24:
 304 0020 6561     		str	r5, [r4, #20]
 305              	.LVL25:
 306 0022 A561     		str	r5, [r4, #24]
 307              	.LVL26:
 308              	.LBB136:
 309              	.LBB137:
 310              		.file 4 "../../modules/ChibiOS/os/hal/osal/rt/osal.h"
 311              		.loc 4 600 0
 312 0024 FFF7FEFF 		bl	chSchRescheduleS
 313              	.LVL27:
 314              	.LBE137:
 315              	.LBE136:
 316              	.LBB138:
 317              	.LBB139:
 318              	.LBB140:
 319              		.loc 1 389 0
 320 0028 FFF7FEFF 		bl	_stats_stop_measure_crit_thd
 321              	.LVL28:
 322              	.LBB141:
 323              	.LBB142:
 324              	.LBB143:
 325              		.loc 2 264 0
 326              	@ 264 "../../modules/ChibiOS/os/common/ext/CMSIS/include/cmsis_gcc.h" 1
 327 002c 85F31188 		MSR basepri, r5
 328              	@ 0 "" 2
 329              		.thumb
 330 0030 38BD     		pop	{r3, r4, r5, pc}
 331              	.LBE143:
 332              	.LBE142:
 333              	.LBE141:
 334              	.LBE140:
 335              	.LBE139:
 336              	.LBE138:
 337              		.cfi_endproc
 338              	.LFE283:
 339              		.size	usbStop, .-usbStop
 340              		.section	.text.usbInitEndpointI,"ax",%progbits
 341              		.align	1
 342              		.global	usbInitEndpointI
ARM GAS  /tmp/ccycizpT.s 			page 7


 343              		.thumb
 344              		.thumb_func
 345              		.type	usbInitEndpointI, %function
 346              	usbInitEndpointI:
 347              	.LFB284:
 348              		.loc 3 372 0
 349              		.cfi_startproc
 350              		@ args = 0, pretend = 0, frame = 0
 351              		@ frame_needed = 0, uses_anonymous_args = 0
 352              	.LVL29:
 353 0000 70B5     		push	{r4, r5, r6, lr}
 354              		.cfi_def_cfa_offset 16
 355              		.cfi_offset 4, -16
 356              		.cfi_offset 5, -12
 357              		.cfi_offset 6, -8
 358              		.cfi_offset 14, -4
 359              		.loc 3 381 0
 360 0002 00EB8103 		add	r3, r0, r1, lsl #2
 361              		.loc 3 372 0
 362 0006 0646     		mov	r6, r0
 363              		.loc 3 384 0
 364 0008 5069     		ldr	r0, [r2, #20]
 365              	.LVL30:
 366              		.loc 3 381 0
 367 000a DA60     		str	r2, [r3, #12]
 368              		.loc 3 372 0
 369 000c 0D46     		mov	r5, r1
 370 000e 1446     		mov	r4, r2
 371              		.loc 3 384 0
 372 0010 18B1     		cbz	r0, .L8
 373              		.loc 3 385 0
 374 0012 0021     		movs	r1, #0
 375              	.LVL31:
 376 0014 1022     		movs	r2, #16
 377              	.LVL32:
 378 0016 FFF7FEFF 		bl	memset
 379              	.LVL33:
 380              	.L8:
 381              		.loc 3 387 0
 382 001a A069     		ldr	r0, [r4, #24]
 383 001c 18B1     		cbz	r0, .L9
 384              		.loc 3 388 0
 385 001e 0021     		movs	r1, #0
 386 0020 1022     		movs	r2, #16
 387 0022 FFF7FEFF 		bl	memset
 388              	.LVL34:
 389              	.L9:
 390              		.loc 3 392 0
 391 0026 3046     		mov	r0, r6
 392 0028 2946     		mov	r1, r5
 393              		.loc 3 393 0
 394 002a BDE87040 		pop	{r4, r5, r6, lr}
 395              		.cfi_restore 14
 396              		.cfi_restore 6
 397              		.cfi_restore 5
 398              		.cfi_restore 4
 399              		.cfi_def_cfa_offset 0
ARM GAS  /tmp/ccycizpT.s 			page 8


 400              	.LVL35:
 401              		.loc 3 392 0
 402 002e FFF7FEBF 		b	usb_lld_init_endpoint
 403              	.LVL36:
 404              		.cfi_endproc
 405              	.LFE284:
 406              		.size	usbInitEndpointI, .-usbInitEndpointI
 407              		.section	.text.usbDisableEndpointsI,"ax",%progbits
 408              		.align	1
 409              		.global	usbDisableEndpointsI
 410              		.thumb
 411              		.thumb_func
 412              		.type	usbDisableEndpointsI, %function
 413              	usbDisableEndpointsI:
 414              	.LFB285:
 415              		.loc 3 406 0
 416              		.cfi_startproc
 417              		@ args = 0, pretend = 0, frame = 0
 418              		@ frame_needed = 0, uses_anonymous_args = 0
 419              		@ link register save eliminated.
 420              	.LVL37:
 421              		.loc 3 413 0
 422 0000 0289     		ldrh	r2, [r0, #8]
 423 0002 02F00102 		and	r2, r2, #1
 424 0006 0281     		strh	r2, [r0, #8]	@ movhi
 425              		.loc 3 414 0
 426 0008 4289     		ldrh	r2, [r0, #10]
 427 000a 02F00102 		and	r2, r2, #1
 428 000e 4281     		strh	r2, [r0, #10]	@ movhi
 429              	.LVL38:
 430              		.loc 3 428 0
 431 0010 0022     		movs	r2, #0
 432 0012 0261     		str	r2, [r0, #16]
 433              	.LVL39:
 434 0014 4261     		str	r2, [r0, #20]
 435              	.LVL40:
 436 0016 8261     		str	r2, [r0, #24]
 437              	.LVL41:
 438              		.loc 3 432 0
 439 0018 FFF7FEBF 		b	usb_lld_disable_endpoints
 440              	.LVL42:
 441              		.cfi_endproc
 442              	.LFE285:
 443              		.size	usbDisableEndpointsI, .-usbDisableEndpointsI
 444              		.section	.text.usbStartReceiveI,"ax",%progbits
 445              		.align	1
 446              		.global	usbStartReceiveI
 447              		.thumb
 448              		.thumb_func
 449              		.type	usbStartReceiveI, %function
 450              	usbStartReceiveI:
 451              	.LFB286:
 452              		.loc 3 450 0
 453              		.cfi_startproc
 454              		@ args = 0, pretend = 0, frame = 0
 455              		@ frame_needed = 0, uses_anonymous_args = 0
 456              	.LVL43:
ARM GAS  /tmp/ccycizpT.s 			page 9


 457 0000 F0B5     		push	{r4, r5, r6, r7, lr}
 458              		.cfi_def_cfa_offset 20
 459              		.cfi_offset 4, -20
 460              		.cfi_offset 5, -16
 461              		.cfi_offset 6, -12
 462              		.cfi_offset 7, -8
 463              		.cfi_offset 14, -4
 464              		.loc 3 462 0
 465 0002 00EB8104 		add	r4, r0, r1, lsl #2
 466              		.loc 3 458 0
 467 0006 4689     		ldrh	r6, [r0, #10]
 468              		.loc 3 462 0
 469 0008 E468     		ldr	r4, [r4, #12]
 470              		.loc 3 458 0
 471 000a 0125     		movs	r5, #1
 472              		.loc 3 462 0
 473 000c A469     		ldr	r4, [r4, #24]
 474              	.LVL44:
 475              		.loc 3 458 0
 476 000e 8D40     		lsls	r5, r5, r1
 477 0010 3543     		orrs	r5, r5, r6
 478 0012 4581     		strh	r5, [r0, #10]	@ movhi
 479              		.loc 3 465 0
 480 0014 2360     		str	r3, [r4]
 481              		.loc 3 466 0
 482 0016 0023     		movs	r3, #0
 483              	.LVL45:
 484              		.loc 3 464 0
 485 0018 A260     		str	r2, [r4, #8]
 486              		.loc 3 466 0
 487 001a 6360     		str	r3, [r4, #4]
 488              		.loc 3 473 0
 489 001c BDE8F040 		pop	{r4, r5, r6, r7, lr}
 490              		.cfi_restore 14
 491              		.cfi_restore 7
 492              		.cfi_restore 6
 493              		.cfi_restore 5
 494              		.cfi_restore 4
 495              		.cfi_def_cfa_offset 0
 496              	.LVL46:
 497              		.loc 3 472 0
 498 0020 FFF7FEBF 		b	usb_lld_start_out
 499              	.LVL47:
 500              		.cfi_endproc
 501              	.LFE286:
 502              		.size	usbStartReceiveI, .-usbStartReceiveI
 503              		.section	.text.usbStartTransmitI,"ax",%progbits
 504              		.align	1
 505              		.global	usbStartTransmitI
 506              		.thumb
 507              		.thumb_func
 508              		.type	usbStartTransmitI, %function
 509              	usbStartTransmitI:
 510              	.LFB287:
 511              		.loc 3 489 0
 512              		.cfi_startproc
 513              		@ args = 0, pretend = 0, frame = 0
ARM GAS  /tmp/ccycizpT.s 			page 10


 514              		@ frame_needed = 0, uses_anonymous_args = 0
 515              	.LVL48:
 516 0000 F0B5     		push	{r4, r5, r6, r7, lr}
 517              		.cfi_def_cfa_offset 20
 518              		.cfi_offset 4, -20
 519              		.cfi_offset 5, -16
 520              		.cfi_offset 6, -12
 521              		.cfi_offset 7, -8
 522              		.cfi_offset 14, -4
 523              		.loc 3 501 0
 524 0002 00EB8104 		add	r4, r0, r1, lsl #2
 525              		.loc 3 497 0
 526 0006 0689     		ldrh	r6, [r0, #8]
 527              		.loc 3 501 0
 528 0008 E468     		ldr	r4, [r4, #12]
 529              		.loc 3 497 0
 530 000a 0125     		movs	r5, #1
 531              		.loc 3 501 0
 532 000c 6469     		ldr	r4, [r4, #20]
 533              	.LVL49:
 534              		.loc 3 497 0
 535 000e 8D40     		lsls	r5, r5, r1
 536 0010 3543     		orrs	r5, r5, r6
 537 0012 0581     		strh	r5, [r0, #8]	@ movhi
 538              		.loc 3 504 0
 539 0014 2360     		str	r3, [r4]
 540              		.loc 3 505 0
 541 0016 0023     		movs	r3, #0
 542              	.LVL50:
 543              		.loc 3 503 0
 544 0018 A260     		str	r2, [r4, #8]
 545              		.loc 3 505 0
 546 001a 6360     		str	r3, [r4, #4]
 547              		.loc 3 512 0
 548 001c BDE8F040 		pop	{r4, r5, r6, r7, lr}
 549              		.cfi_restore 14
 550              		.cfi_restore 7
 551              		.cfi_restore 6
 552              		.cfi_restore 5
 553              		.cfi_restore 4
 554              		.cfi_def_cfa_offset 0
 555              	.LVL51:
 556              		.loc 3 511 0
 557 0020 FFF7FEBF 		b	usb_lld_start_in
 558              	.LVL52:
 559              		.cfi_endproc
 560              	.LFE287:
 561              		.size	usbStartTransmitI, .-usbStartTransmitI
 562              		.section	.text.usbStallReceiveI,"ax",%progbits
 563              		.align	1
 564              		.global	usbStallReceiveI
 565              		.thumb
 566              		.thumb_func
 567              		.type	usbStallReceiveI, %function
 568              	usbStallReceiveI:
 569              	.LFB288:
 570              		.loc 3 595 0
ARM GAS  /tmp/ccycizpT.s 			page 11


 571              		.cfi_startproc
 572              		@ args = 0, pretend = 0, frame = 0
 573              		@ frame_needed = 0, uses_anonymous_args = 0
 574              	.LVL53:
 575 0000 10B5     		push	{r4, lr}
 576              		.cfi_def_cfa_offset 8
 577              		.cfi_offset 4, -8
 578              		.cfi_offset 14, -4
 579              		.loc 3 600 0
 580 0002 0123     		movs	r3, #1
 581 0004 4489     		ldrh	r4, [r0, #10]
 582 0006 03FA01F2 		lsl	r2, r3, r1
 583 000a 1440     		ands	r4, r2, r4
 584 000c 03D1     		bne	.L22
 585              		.loc 3 604 0
 586 000e FFF7FEFF 		bl	usb_lld_stall_out
 587              	.LVL54:
 588              		.loc 3 605 0
 589 0012 2046     		mov	r0, r4
 590 0014 10BD     		pop	{r4, pc}
 591              	.LVL55:
 592              	.L22:
 593              		.loc 3 601 0
 594 0016 1846     		mov	r0, r3
 595              	.LVL56:
 596              		.loc 3 606 0
 597 0018 10BD     		pop	{r4, pc}
 598              		.cfi_endproc
 599              	.LFE288:
 600              		.size	usbStallReceiveI, .-usbStallReceiveI
 601              		.section	.text.usbStallTransmitI,"ax",%progbits
 602              		.align	1
 603              		.global	usbStallTransmitI
 604              		.thumb
 605              		.thumb_func
 606              		.type	usbStallTransmitI, %function
 607              	usbStallTransmitI:
 608              	.LFB289:
 609              		.loc 3 620 0
 610              		.cfi_startproc
 611              		@ args = 0, pretend = 0, frame = 0
 612              		@ frame_needed = 0, uses_anonymous_args = 0
 613              	.LVL57:
 614 0000 10B5     		push	{r4, lr}
 615              		.cfi_def_cfa_offset 8
 616              		.cfi_offset 4, -8
 617              		.cfi_offset 14, -4
 618              		.loc 3 625 0
 619 0002 0123     		movs	r3, #1
 620 0004 0489     		ldrh	r4, [r0, #8]
 621 0006 03FA01F2 		lsl	r2, r3, r1
 622 000a 1440     		ands	r4, r2, r4
 623 000c 03D1     		bne	.L25
 624              		.loc 3 629 0
 625 000e FFF7FEFF 		bl	usb_lld_stall_in
 626              	.LVL58:
 627              		.loc 3 630 0
ARM GAS  /tmp/ccycizpT.s 			page 12


 628 0012 2046     		mov	r0, r4
 629 0014 10BD     		pop	{r4, pc}
 630              	.LVL59:
 631              	.L25:
 632              		.loc 3 626 0
 633 0016 1846     		mov	r0, r3
 634              	.LVL60:
 635              		.loc 3 631 0
 636 0018 10BD     		pop	{r4, pc}
 637              		.cfi_endproc
 638              	.LFE289:
 639              		.size	usbStallTransmitI, .-usbStallTransmitI
 640              		.section	.text._usb_reset,"ax",%progbits
 641              		.align	1
 642              		.global	_usb_reset
 643              		.thumb
 644              		.thumb_func
 645              		.type	_usb_reset, %function
 646              	_usb_reset:
 647              	.LFB290:
 648              		.loc 3 642 0
 649              		.cfi_startproc
 650              		@ args = 0, pretend = 0, frame = 0
 651              		@ frame_needed = 0, uses_anonymous_args = 0
 652              	.LVL61:
 653 0000 70B5     		push	{r4, r5, r6, lr}
 654              		.cfi_def_cfa_offset 16
 655              		.cfi_offset 4, -16
 656              		.cfi_offset 5, -12
 657              		.cfi_offset 6, -8
 658              		.cfi_offset 14, -4
 659              		.loc 3 646 0
 660 0002 0223     		movs	r3, #2
 661              		.loc 3 649 0
 662 0004 0025     		movs	r5, #0
 663              		.loc 3 642 0
 664 0006 0446     		mov	r4, r0
 665              		.loc 3 646 0
 666 0008 0370     		strb	r3, [r0]
 667              		.loc 3 649 0
 668 000a A0F84C50 		strh	r5, [r0, #76]	@ movhi
 669              		.loc 3 650 0
 670 000e 80F84E50 		strb	r5, [r0, #78]
 671              		.loc 3 651 0
 672 0012 80F84F50 		strb	r5, [r0, #79]
 673              		.loc 3 652 0
 674 0016 0581     		strh	r5, [r0, #8]	@ movhi
 675              		.loc 3 653 0
 676 0018 4581     		strh	r5, [r0, #10]	@ movhi
 677              	.LVL62:
 678              		.loc 3 670 0
 679 001a C560     		str	r5, [r0, #12]
 680              	.LVL63:
 681 001c 0561     		str	r5, [r0, #16]
 682              	.LVL64:
 683 001e 4561     		str	r5, [r0, #20]
 684              	.LVL65:
ARM GAS  /tmp/ccycizpT.s 			page 13


 685 0020 8561     		str	r5, [r0, #24]
 686              	.LVL66:
 687              		.loc 3 674 0
 688 0022 80F83450 		strb	r5, [r0, #52]
 689              		.loc 3 677 0
 690 0026 FFF7FEFF 		bl	usb_lld_reset
 691              	.LVL67:
 692              		.loc 3 680 0
 693 002a 6368     		ldr	r3, [r4, #4]
 694 002c 1B68     		ldr	r3, [r3]
 695 002e 23B1     		cbz	r3, .L26
 696              		.loc 3 680 0 is_stmt 0 discriminator 1
 697 0030 2046     		mov	r0, r4
 698 0032 2946     		mov	r1, r5
 699              		.loc 3 681 0 is_stmt 1 discriminator 1
 700 0034 BDE87040 		pop	{r4, r5, r6, lr}
 701              		.cfi_remember_state
 702              		.cfi_restore 14
 703              		.cfi_restore 6
 704              		.cfi_restore 5
 705              		.cfi_restore 4
 706              		.cfi_def_cfa_offset 0
 707              	.LVL68:
 708              		.loc 3 680 0 discriminator 1
 709 0038 1847     		bx	r3	@ indirect register sibling call
 710              	.LVL69:
 711              	.L26:
 712              		.cfi_restore_state
 713 003a 70BD     		pop	{r4, r5, r6, pc}
 714              		.cfi_endproc
 715              	.LFE290:
 716              		.size	_usb_reset, .-_usb_reset
 717              		.section	.text._usb_suspend,"ax",%progbits
 718              		.align	1
 719              		.global	_usb_suspend
 720              		.thumb
 721              		.thumb_func
 722              		.type	_usb_suspend, %function
 723              	_usb_suspend:
 724              	.LFB291:
 725              		.loc 3 692 0
 726              		.cfi_startproc
 727              		@ args = 0, pretend = 0, frame = 0
 728              		@ frame_needed = 0, uses_anonymous_args = 0
 729              		@ link register save eliminated.
 730              	.LVL70:
 731              		.loc 3 700 0
 732 0000 4368     		ldr	r3, [r0, #4]
 733              		.loc 3 696 0
 734 0002 0278     		ldrb	r2, [r0]	@ zero_extendqisi2
 735              		.loc 3 700 0
 736 0004 1B68     		ldr	r3, [r3]
 737              		.loc 3 696 0
 738 0006 80F85020 		strb	r2, [r0, #80]
 739              		.loc 3 697 0
 740 000a 0522     		movs	r2, #5
 741 000c 0270     		strb	r2, [r0]
ARM GAS  /tmp/ccycizpT.s 			page 14


 742              		.loc 3 700 0
 743 000e 0BB1     		cbz	r3, .L28
 744              		.loc 3 700 0 is_stmt 0 discriminator 1
 745 0010 0421     		movs	r1, #4
 746 0012 1847     		bx	r3	@ indirect register sibling call
 747              	.LVL71:
 748              	.L28:
 749 0014 7047     		bx	lr
 750              		.cfi_endproc
 751              	.LFE291:
 752              		.size	_usb_suspend, .-_usb_suspend
 753              		.section	.text._usb_wakeup,"ax",%progbits
 754              		.align	1
 755              		.global	_usb_wakeup
 756              		.thumb
 757              		.thumb_func
 758              		.type	_usb_wakeup, %function
 759              	_usb_wakeup:
 760              	.LFB292:
 761              		.loc 3 732 0 is_stmt 1
 762              		.cfi_startproc
 763              		@ args = 0, pretend = 0, frame = 0
 764              		@ frame_needed = 0, uses_anonymous_args = 0
 765              		@ link register save eliminated.
 766              	.LVL72:
 767              		.loc 3 738 0
 768 0000 4368     		ldr	r3, [r0, #4]
 769              		.loc 3 735 0
 770 0002 90F85020 		ldrb	r2, [r0, #80]	@ zero_extendqisi2
 771              		.loc 3 738 0
 772 0006 1B68     		ldr	r3, [r3]
 773              		.loc 3 735 0
 774 0008 0270     		strb	r2, [r0]
 775              		.loc 3 738 0
 776 000a 0BB1     		cbz	r3, .L30
 777              		.loc 3 738 0 is_stmt 0 discriminator 1
 778 000c 0521     		movs	r1, #5
 779 000e 1847     		bx	r3	@ indirect register sibling call
 780              	.LVL73:
 781              	.L30:
 782 0010 7047     		bx	lr
 783              		.cfi_endproc
 784              	.LFE292:
 785              		.size	_usb_wakeup, .-_usb_wakeup
 786              		.section	.text._usb_ep0setup,"ax",%progbits
 787              		.align	1
 788              		.global	_usb_ep0setup
 789              		.thumb
 790              		.thumb_func
 791              		.type	_usb_ep0setup, %function
 792              	_usb_ep0setup:
 793              	.LFB293:
 794              		.loc 3 751 0 is_stmt 1
 795              		.cfi_startproc
 796              		@ args = 0, pretend = 0, frame = 0
 797              		@ frame_needed = 0, uses_anonymous_args = 0
 798              	.LVL74:
ARM GAS  /tmp/ccycizpT.s 			page 15


 799 0000 F8B5     		push	{r3, r4, r5, r6, r7, lr}
 800              		.cfi_def_cfa_offset 24
 801              		.cfi_offset 3, -24
 802              		.cfi_offset 4, -20
 803              		.cfi_offset 5, -16
 804              		.cfi_offset 6, -12
 805              		.cfi_offset 7, -8
 806              		.cfi_offset 14, -4
 807              		.loc 3 754 0
 808 0002 0023     		movs	r3, #0
 809              		.loc 3 751 0
 810 0004 0446     		mov	r4, r0
 811              		.loc 3 754 0
 812 0006 80F83430 		strb	r3, [r0, #52]
 813              		.loc 3 755 0
 814 000a 00F14402 		add	r2, r0, #68
 815 000e FFF7FEFF 		bl	usb_lld_read_setup
 816              	.LVL75:
 817              		.loc 3 760 0
 818 0012 6368     		ldr	r3, [r4, #4]
 819 0014 9B68     		ldr	r3, [r3, #8]
 820 0016 33B9     		cbnz	r3, .L33
 821              	.L37:
 822              		.loc 3 766 0
 823 0018 94F84430 		ldrb	r3, [r4, #68]	@ zero_extendqisi2
 824 001c 13F06006 		ands	r6, r3, #96
 825 0020 40F0F780 		bne	.L34
 826 0024 05E0     		b	.L115
 827              	.L33:
 828              		.loc 3 761 0 discriminator 1
 829 0026 2046     		mov	r0, r4
 830 0028 9847     		blx	r3
 831              	.LVL76:
 832              		.loc 3 760 0 discriminator 1
 833 002a 0028     		cmp	r0, #0
 834 002c 40F00381 		bne	.L36
 835 0030 F2E7     		b	.L37
 836              	.L115:
 837              	.LVL77:
 838              	.LBB172:
 839              	.LBB173:
 840              		.loc 3 90 0
 841 0032 94F84550 		ldrb	r5, [r4, #69]	@ zero_extendqisi2
 842              		.loc 3 88 0
 843 0036 03F07F03 		and	r3, r3, #127
 844              		.loc 3 89 0
 845 003a 43EA0525 		orr	r5, r3, r5, lsl #8
 846              		.loc 3 88 0
 847 003e B5F5407F 		cmp	r5, #768
 848 0042 3FD0     		beq	.L39
 849 0044 10D8     		bhi	.L40
 850 0046 022D     		cmp	r5, #2
 851 0048 00F0A780 		beq	.L41
 852 004c 04D8     		bhi	.L42
 853 004e 45B3     		cbz	r5, .L43
 854 0050 012D     		cmp	r5, #1
 855 0052 00F09B80 		beq	.L44
ARM GAS  /tmp/ccycizpT.s 			page 16


 856 0056 DCE0     		b	.L34
 857              	.L42:
 858 0058 B5F5807F 		cmp	r5, #256
 859 005c 28D0     		beq	.L45
 860 005e B5F5817F 		cmp	r5, #258
 861 0062 00F0B480 		beq	.L46
 862 0066 D4E0     		b	.L34
 863              	.L40:
 864 0068 B5F5C06F 		cmp	r5, #1536
 865 006c 50D0     		beq	.L47
 866 006e 08D8     		bhi	.L48
 867 0070 40F20233 		movw	r3, #770
 868 0074 9D42     		cmp	r5, r3
 869 0076 00F0BB80 		beq	.L49
 870 007a B5F5A06F 		cmp	r5, #1280
 871 007e 2FD0     		beq	.L50
 872 0080 C7E0     		b	.L34
 873              	.L48:
 874 0082 B5F5106F 		cmp	r5, #2304
 875 0086 58D0     		beq	.L51
 876 0088 40F60243 		movw	r3, #3074
 877 008c 9D42     		cmp	r5, r3
 878 008e 7DD0     		beq	.L44
 879 0090 B5F5006F 		cmp	r5, #2048
 880 0094 40F0BD80 		bne	.L34
 881              		.loc 3 141 0
 882 0098 04F14F03 		add	r3, r4, #79
 883 009c A363     		str	r3, [r4, #56]
 884 009e 0123     		movs	r3, #1
 885 00a0 49E0     		b	.L111
 886              	.L43:
 887              		.loc 3 93 0
 888 00a2 04F14C03 		add	r3, r4, #76
 889 00a6 A363     		str	r3, [r4, #56]
 890 00a8 0223     		movs	r3, #2
 891 00aa E363     		str	r3, [r4, #60]
 892 00ac 2564     		str	r5, [r4, #64]
 893 00ae C2E0     		b	.L36
 894              	.L45:
 895              		.loc 3 98 0
 896 00b0 94F84630 		ldrb	r3, [r4, #70]	@ zero_extendqisi2
 897 00b4 012B     		cmp	r3, #1
 898 00b6 40F0AC80 		bne	.L34
 899              		.loc 3 99 0
 900 00ba B4F84C30 		ldrh	r3, [r4, #76]
 901 00be 23F00203 		bic	r3, r3, #2
 902 00c2 08E0     		b	.L110
 903              	.L39:
 904              		.loc 3 107 0
 905 00c4 94F84630 		ldrb	r3, [r4, #70]	@ zero_extendqisi2
 906 00c8 012B     		cmp	r3, #1
 907 00ca 40F0A280 		bne	.L34
 908              		.loc 3 108 0
 909 00ce B4F84C30 		ldrh	r3, [r4, #76]
 910 00d2 43F00203 		orr	r3, r3, #2
 911              	.L110:
 912 00d6 A4F84C30 		strh	r3, [r4, #76]	@ movhi
ARM GAS  /tmp/ccycizpT.s 			page 17


 913              		.loc 3 109 0
 914 00da A663     		str	r6, [r4, #56]
 915 00dc E663     		str	r6, [r4, #60]
 916 00de 74E0     		b	.L105
 917              	.L50:
 918              		.loc 3 118 0
 919 00e0 B4F84430 		ldrh	r3, [r4, #68]
 920 00e4 B3F5A06F 		cmp	r3, #1280
 921 00e8 0ED1     		bne	.L57
 922              	.LVL78:
 923              	.LBB174:
 924              	.LBB175:
 925              		.loc 3 66 0
 926 00ea 94F84630 		ldrb	r3, [r4, #70]	@ zero_extendqisi2
 927 00ee 84F84E30 		strb	r3, [r4, #78]
 928              		.loc 3 67 0
 929 00f2 2046     		mov	r0, r4
 930 00f4 FFF7FEFF 		bl	usb_lld_set_address
 931              	.LVL79:
 932              		.loc 3 68 0
 933 00f8 6368     		ldr	r3, [r4, #4]
 934 00fa 1B68     		ldr	r3, [r3]
 935 00fc 13B1     		cbz	r3, .L58
 936 00fe 2046     		mov	r0, r4
 937 0100 0121     		movs	r1, #1
 938 0102 9847     		blx	r3
 939              	.LVL80:
 940              	.L58:
 941              		.loc 3 69 0
 942 0104 0323     		movs	r3, #3
 943 0106 2370     		strb	r3, [r4]
 944              	.LVL81:
 945              	.L57:
 946              	.LBE175:
 947              	.LBE174:
 948              		.loc 3 122 0
 949 0108 0023     		movs	r3, #0
 950 010a A363     		str	r3, [r4, #56]
 951 010c E363     		str	r3, [r4, #60]
 952 010e 42E0     		b	.L106
 953              	.L47:
 954              	.LVL82:
 955              		.loc 3 129 0
 956 0110 6268     		ldr	r2, [r4, #4]
 957              	.LBB176:
 958              	.LBB177:
 959              		.loc 3 55 0
 960 0112 94F84970 		ldrb	r7, [r4, #73]	@ zero_extendqisi2
 961 0116 94F84830 		ldrb	r3, [r4, #72]	@ zero_extendqisi2
 962              	.LBE177:
 963              	.LBE176:
 964              		.loc 3 129 0
 965 011a 5568     		ldr	r5, [r2, #4]
 966 011c 94F84710 		ldrb	r1, [r4, #71]	@ zero_extendqisi2
 967 0120 94F84620 		ldrb	r2, [r4, #70]	@ zero_extendqisi2
 968 0124 2046     		mov	r0, r4
 969 0126 43EA0723 		orr	r3, r3, r7, lsl #8
ARM GAS  /tmp/ccycizpT.s 			page 18


 970 012a A847     		blx	r5
 971              	.LVL83:
 972              		.loc 3 132 0
 973 012c 0028     		cmp	r0, #0
 974 012e 70D0     		beq	.L34
 975              		.loc 3 136 0
 976 0130 4368     		ldr	r3, [r0, #4]
 977 0132 A363     		str	r3, [r4, #56]
 978 0134 0368     		ldr	r3, [r0]
 979              	.LVL84:
 980              	.L111:
 981              		.loc 3 141 0
 982 0136 E363     		str	r3, [r4, #60]
 983 0138 47E0     		b	.L105
 984              	.L51:
 985              		.loc 3 146 0
 986 013a 94F84F20 		ldrb	r2, [r4, #79]	@ zero_extendqisi2
 987 013e 94F84630 		ldrb	r3, [r4, #70]	@ zero_extendqisi2
 988 0142 9A42     		cmp	r2, r3
 989 0144 E0D0     		beq	.L57
 990              		.loc 3 149 0
 991 0146 2378     		ldrb	r3, [r4]	@ zero_extendqisi2
 992 0148 042B     		cmp	r3, #4
 993 014a 0FD1     		bne	.L61
 994              	.LBB178:
 995              	.LBB179:
 996              		.loc 4 515 0
 997 014c FFF7FEFF 		bl	chSysLockFromISR
 998              	.LVL85:
 999              	.LBE179:
 1000              	.LBE178:
 1001              		.loc 3 152 0
 1002 0150 2046     		mov	r0, r4
 1003 0152 FFF7FEFF 		bl	usbDisableEndpointsI
 1004              	.LVL86:
 1005              	.LBB180:
 1006              	.LBB181:
 1007              		.loc 4 526 0
 1008 0156 FFF7FEFF 		bl	chSysUnlockFromISR
 1009              	.LVL87:
 1010              	.LBE181:
 1011              	.LBE180:
 1012              		.loc 3 156 0
 1013 015a 6368     		ldr	r3, [r4, #4]
 1014              		.loc 3 154 0
 1015 015c 84F84F60 		strb	r6, [r4, #79]
 1016              		.loc 3 156 0
 1017 0160 1B68     		ldr	r3, [r3]
 1018              		.loc 3 155 0
 1019 0162 0321     		movs	r1, #3
 1020 0164 2170     		strb	r1, [r4]
 1021              		.loc 3 156 0
 1022 0166 0BB1     		cbz	r3, .L61
 1023 0168 2046     		mov	r0, r4
 1024 016a 9847     		blx	r3
 1025              	.LVL88:
 1026              	.L61:
ARM GAS  /tmp/ccycizpT.s 			page 19


 1027              		.loc 3 158 0
 1028 016c 94F84630 		ldrb	r3, [r4, #70]	@ zero_extendqisi2
 1029 0170 002B     		cmp	r3, #0
 1030 0172 C9D0     		beq	.L57
 1031              		.loc 3 160 0
 1032 0174 84F84F30 		strb	r3, [r4, #79]
 1033              		.loc 3 161 0
 1034 0178 0423     		movs	r3, #4
 1035 017a 2370     		strb	r3, [r4]
 1036              		.loc 3 162 0
 1037 017c 6368     		ldr	r3, [r4, #4]
 1038 017e 1B68     		ldr	r3, [r3]
 1039 0180 002B     		cmp	r3, #0
 1040 0182 C1D0     		beq	.L57
 1041 0184 2046     		mov	r0, r4
 1042 0186 0221     		movs	r1, #2
 1043 0188 9847     		blx	r3
 1044              	.LVL89:
 1045 018a BDE7     		b	.L57
 1046              	.L44:
 1047              		.loc 3 172 0
 1048 018c 4A4B     		ldr	r3, .L116
 1049 018e A363     		str	r3, [r4, #56]
 1050 0190 0223     		movs	r3, #2
 1051 0192 E363     		str	r3, [r4, #60]
 1052 0194 0023     		movs	r3, #0
 1053              	.L106:
 1054 0196 2364     		str	r3, [r4, #64]
 1055 0198 4DE0     		b	.L36
 1056              	.L41:
 1057              		.loc 3 177 0
 1058 019a 94F84810 		ldrb	r1, [r4, #72]	@ zero_extendqisi2
 1059 019e 11F0800F 		tst	r1, #128
 1060              		.loc 3 178 0
 1061 01a2 2046     		mov	r0, r4
 1062 01a4 01F00F01 		and	r1, r1, #15
 1063              		.loc 3 177 0
 1064 01a8 02D0     		beq	.L63
 1065              	.LVL90:
 1066              		.loc 3 178 0
 1067 01aa FFF7FEFF 		bl	usb_lld_get_status_in
 1068              	.LVL91:
 1069 01ae 01E0     		b	.L114
 1070              	.LVL92:
 1071              	.L63:
 1072              		.loc 3 195 0
 1073 01b0 FFF7FEFF 		bl	usb_lld_get_status_out
 1074              	.LVL93:
 1075              	.L114:
 1076 01b4 0128     		cmp	r0, #1
 1077 01b6 05D0     		beq	.L66
 1078 01b8 0228     		cmp	r0, #2
 1079 01ba 2AD1     		bne	.L34
 1080              		.loc 3 203 0
 1081 01bc 3F4B     		ldr	r3, .L116+4
 1082 01be A363     		str	r3, [r4, #56]
 1083 01c0 E063     		str	r0, [r4, #60]
ARM GAS  /tmp/ccycizpT.s 			page 20


 1084 01c2 02E0     		b	.L105
 1085              	.L66:
 1086              		.loc 3 198 0
 1087 01c4 3E4B     		ldr	r3, .L116+8
 1088 01c6 A363     		str	r3, [r4, #56]
 1089 01c8 E563     		str	r5, [r4, #60]
 1090              	.L105:
 1091              		.loc 3 203 0
 1092 01ca 2664     		str	r6, [r4, #64]
 1093 01cc 33E0     		b	.L36
 1094              	.L46:
 1095              		.loc 3 213 0
 1096 01ce 94F84630 		ldrb	r3, [r4, #70]	@ zero_extendqisi2
 1097 01d2 F3B9     		cbnz	r3, .L34
 1098              		.loc 3 217 0
 1099 01d4 94F84830 		ldrb	r3, [r4, #72]	@ zero_extendqisi2
 1100 01d8 13F00F01 		ands	r1, r3, #15
 1101 01dc 94D0     		beq	.L57
 1102              		.loc 3 218 0
 1103 01de 1A06     		lsls	r2, r3, #24
 1104              		.loc 3 219 0
 1105 01e0 2046     		mov	r0, r4
 1106              		.loc 3 218 0
 1107 01e2 02D5     		bpl	.L68
 1108              	.LVL94:
 1109              		.loc 3 219 0
 1110 01e4 FFF7FEFF 		bl	usb_lld_clear_in
 1111              	.LVL95:
 1112 01e8 8EE7     		b	.L57
 1113              	.LVL96:
 1114              	.L68:
 1115              		.loc 3 222 0
 1116 01ea FFF7FEFF 		bl	usb_lld_clear_out
 1117              	.LVL97:
 1118 01ee 8BE7     		b	.L57
 1119              	.L49:
 1120              		.loc 3 229 0
 1121 01f0 94F84630 		ldrb	r3, [r4, #70]	@ zero_extendqisi2
 1122 01f4 6BB9     		cbnz	r3, .L34
 1123              		.loc 3 233 0
 1124 01f6 94F84830 		ldrb	r3, [r4, #72]	@ zero_extendqisi2
 1125 01fa 13F00F01 		ands	r1, r3, #15
 1126 01fe 83D0     		beq	.L57
 1127              		.loc 3 234 0
 1128 0200 1B06     		lsls	r3, r3, #24
 1129              		.loc 3 235 0
 1130 0202 2046     		mov	r0, r4
 1131              		.loc 3 234 0
 1132 0204 02D5     		bpl	.L69
 1133              	.LVL98:
 1134              		.loc 3 235 0
 1135 0206 FFF7FEFF 		bl	usb_lld_stall_in
 1136              	.LVL99:
 1137 020a 7DE7     		b	.L57
 1138              	.LVL100:
 1139              	.L69:
 1140              		.loc 3 238 0
ARM GAS  /tmp/ccycizpT.s 			page 21


 1141 020c FFF7FEFF 		bl	usb_lld_stall_out
 1142              	.LVL101:
 1143 0210 7AE7     		b	.L57
 1144              	.LVL102:
 1145              	.L34:
 1146              	.LBE173:
 1147              	.LBE172:
 1148              		.loc 3 772 0
 1149 0212 2046     		mov	r0, r4
 1150 0214 0021     		movs	r1, #0
 1151 0216 FFF7FEFF 		bl	usb_lld_stall_in
 1152              	.LVL103:
 1153              		.loc 3 773 0
 1154 021a 2046     		mov	r0, r4
 1155 021c 0021     		movs	r1, #0
 1156 021e FFF7FEFF 		bl	usb_lld_stall_out
 1157              	.LVL104:
 1158              		.loc 3 774 0
 1159 0222 6368     		ldr	r3, [r4, #4]
 1160 0224 1B68     		ldr	r3, [r3]
 1161 0226 13B1     		cbz	r3, .L70
 1162              		.loc 3 774 0 is_stmt 0 discriminator 1
 1163 0228 2046     		mov	r0, r4
 1164 022a 0621     		movs	r1, #6
 1165 022c 9847     		blx	r3
 1166              	.LVL105:
 1167              	.L70:
 1168              		.loc 3 775 0 is_stmt 1
 1169 022e 0623     		movs	r3, #6
 1170 0230 84F83430 		strb	r3, [r4, #52]
 1171              		.loc 3 776 0
 1172 0234 F8BD     		pop	{r3, r4, r5, r6, r7, pc}
 1173              	.LVL106:
 1174              	.L36:
 1175              	.LBB182:
 1176              	.LBB183:
 1177              		.loc 3 55 0
 1178 0236 94F84B20 		ldrb	r2, [r4, #75]	@ zero_extendqisi2
 1179 023a 94F84A30 		ldrb	r3, [r4, #74]	@ zero_extendqisi2
 1180              	.LBE183:
 1181              	.LBE182:
 1182              		.loc 3 788 0
 1183 023e 43EA0223 		orr	r3, r3, r2, lsl #8
 1184              	.LVL107:
 1185              		.loc 3 790 0
 1186 0242 E26B     		ldr	r2, [r4, #60]
 1187 0244 9A42     		cmp	r2, r3
 1188              		.loc 3 791 0
 1189 0246 88BF     		it	hi
 1190 0248 E363     		strhi	r3, [r4, #60]
 1191              		.loc 3 793 0
 1192 024a 94F94430 		ldrsb	r3, [r4, #68]
 1193              	.LVL108:
 1194 024e E56B     		ldr	r5, [r4, #60]
 1195 0250 002B     		cmp	r3, #0
 1196 0252 14DA     		bge	.L73
 1197              		.loc 3 795 0
ARM GAS  /tmp/ccycizpT.s 			page 22


 1198 0254 4DB1     		cbz	r5, .L74
 1199              		.loc 3 797 0
 1200 0256 0123     		movs	r3, #1
 1201 0258 84F83430 		strb	r3, [r4, #52]
 1202              	.LBB184:
 1203              	.LBB185:
 1204              		.loc 4 515 0
 1205 025c FFF7FEFF 		bl	chSysLockFromISR
 1206              	.LVL109:
 1207              	.LBE185:
 1208              	.LBE184:
 1209              		.loc 3 799 0
 1210 0260 2046     		mov	r0, r4
 1211 0262 0021     		movs	r1, #0
 1212 0264 A26B     		ldr	r2, [r4, #56]
 1213 0266 E36B     		ldr	r3, [r4, #60]
 1214 0268 1FE0     		b	.L107
 1215              	.LVL110:
 1216              	.L74:
 1217              		.loc 3 805 0
 1218 026a 0323     		movs	r3, #3
 1219 026c 84F83430 		strb	r3, [r4, #52]
 1220              	.LBB186:
 1221              	.LBB187:
 1222              		.loc 4 515 0
 1223 0270 FFF7FEFF 		bl	chSysLockFromISR
 1224              	.LVL111:
 1225              	.LBE187:
 1226              	.LBE186:
 1227              		.loc 3 808 0
 1228 0274 2046     		mov	r0, r4
 1229 0276 2946     		mov	r1, r5
 1230 0278 2A46     		mov	r2, r5
 1231 027a 2B46     		mov	r3, r5
 1232 027c 09E0     		b	.L112
 1233              	.LVL112:
 1234              	.L73:
 1235              		.loc 3 817 0
 1236 027e 5DB1     		cbz	r5, .L75
 1237              		.loc 3 819 0
 1238 0280 0423     		movs	r3, #4
 1239 0282 84F83430 		strb	r3, [r4, #52]
 1240              	.LBB188:
 1241              	.LBB189:
 1242              		.loc 4 515 0
 1243 0286 FFF7FEFF 		bl	chSysLockFromISR
 1244              	.LVL113:
 1245              	.LBE189:
 1246              	.LBE188:
 1247              		.loc 3 821 0
 1248 028a A26B     		ldr	r2, [r4, #56]
 1249 028c E36B     		ldr	r3, [r4, #60]
 1250 028e 2046     		mov	r0, r4
 1251 0290 0021     		movs	r1, #0
 1252              	.LVL114:
 1253              	.L112:
 1254 0292 FFF7FEFF 		bl	usbStartReceiveI
ARM GAS  /tmp/ccycizpT.s 			page 23


 1255              	.LVL115:
 1256 0296 0AE0     		b	.L108
 1257              	.LVL116:
 1258              	.L75:
 1259              		.loc 3 827 0
 1260 0298 0523     		movs	r3, #5
 1261 029a 84F83430 		strb	r3, [r4, #52]
 1262              	.LBB190:
 1263              	.LBB191:
 1264              		.loc 4 515 0
 1265 029e FFF7FEFF 		bl	chSysLockFromISR
 1266              	.LVL117:
 1267              	.LBE191:
 1268              	.LBE190:
 1269              		.loc 3 830 0
 1270 02a2 2046     		mov	r0, r4
 1271 02a4 2946     		mov	r1, r5
 1272 02a6 2A46     		mov	r2, r5
 1273 02a8 2B46     		mov	r3, r5
 1274              	.LVL118:
 1275              	.L107:
 1276 02aa FFF7FEFF 		bl	usbStartTransmitI
 1277              	.LVL119:
 1278              	.L108:
 1279              		.loc 3 837 0
 1280 02ae BDE8F840 		pop	{r3, r4, r5, r6, r7, lr}
 1281              		.cfi_restore 14
 1282              		.cfi_restore 7
 1283              		.cfi_restore 6
 1284              		.cfi_restore 5
 1285              		.cfi_restore 4
 1286              		.cfi_restore 3
 1287              		.cfi_def_cfa_offset 0
 1288              	.LVL120:
 1289              	.LBB192:
 1290              	.LBB193:
 1291              		.loc 4 526 0
 1292 02b2 FFF7FEBF 		b	chSysUnlockFromISR
 1293              	.LVL121:
 1294              	.L117:
 1295 02b6 00BF     		.align	2
 1296              	.L116:
 1297 02b8 00000000 		.word	.LANCHOR0
 1298 02bc 00000000 		.word	.LANCHOR2
 1299 02c0 00000000 		.word	.LANCHOR1
 1300              	.LBE193:
 1301              	.LBE192:
 1302              		.cfi_endproc
 1303              	.LFE293:
 1304              		.size	_usb_ep0setup, .-_usb_ep0setup
 1305              		.section	.text._usb_ep0in,"ax",%progbits
 1306              		.align	1
 1307              		.global	_usb_ep0in
 1308              		.thumb
 1309              		.thumb_func
 1310              		.type	_usb_ep0in, %function
 1311              	_usb_ep0in:
ARM GAS  /tmp/ccycizpT.s 			page 24


 1312              	.LFB294:
 1313              		.loc 3 849 0
 1314              		.cfi_startproc
 1315              		@ args = 0, pretend = 0, frame = 0
 1316              		@ frame_needed = 0, uses_anonymous_args = 0
 1317              	.LVL122:
 1318 0000 38B5     		push	{r3, r4, r5, lr}
 1319              		.cfi_def_cfa_offset 16
 1320              		.cfi_offset 3, -16
 1321              		.cfi_offset 4, -12
 1322              		.cfi_offset 5, -8
 1323              		.cfi_offset 14, -4
 1324              		.loc 3 853 0
 1325 0002 90F83430 		ldrb	r3, [r0, #52]	@ zero_extendqisi2
 1326              		.loc 3 849 0
 1327 0006 0446     		mov	r4, r0
 1328              		.loc 3 853 0
 1329 0008 062B     		cmp	r3, #6
 1330 000a 45D8     		bhi	.L118
 1331 000c DFE803F0 		tbb	[pc, r3]
 1332              	.L121:
 1333 0010 34       		.byte	(.L120-.L121)/2
 1334 0011 04       		.byte	(.L122-.L121)/2
 1335 0012 20       		.byte	(.L123-.L121)/2
 1336 0013 34       		.byte	(.L120-.L121)/2
 1337 0014 34       		.byte	(.L120-.L121)/2
 1338 0015 2F       		.byte	(.L124-.L121)/2
 1339 0016 34       		.byte	(.L120-.L121)/2
 1340 0017 00       		.p2align 1
 1341              	.L122:
 1342              	.LVL123:
 1343              	.LBB194:
 1344              	.LBB195:
 1345              		.loc 3 55 0
 1346 0018 90F84B10 		ldrb	r1, [r0, #75]	@ zero_extendqisi2
 1347              	.LVL124:
 1348 001c 90F84A30 		ldrb	r3, [r0, #74]	@ zero_extendqisi2
 1349              	.LBE195:
 1350              	.LBE194:
 1351              		.loc 3 859 0
 1352 0020 C26B     		ldr	r2, [r0, #60]
 1353              		.loc 3 855 0
 1354 0022 43EA0123 		orr	r3, r3, r1, lsl #8
 1355              		.loc 3 859 0
 1356 0026 9A42     		cmp	r2, r3
 1357 0028 12D2     		bcs	.L123
 1358              		.loc 3 860 0 discriminator 1
 1359 002a C368     		ldr	r3, [r0, #12]
 1360 002c 1D8A     		ldrh	r5, [r3, #16]
 1361 002e B2FBF5F3 		udiv	r3, r2, r5
 1362 0032 05FB1325 		mls	r5, r5, r3, r2
 1363              		.loc 3 859 0 discriminator 1
 1364 0036 5DB9     		cbnz	r5, .L123
 1365              	.LBB196:
 1366              	.LBB197:
 1367              		.loc 4 515 0
 1368 0038 FFF7FEFF 		bl	chSysLockFromISR
ARM GAS  /tmp/ccycizpT.s 			page 25


 1369              	.LVL125:
 1370              	.LBE197:
 1371              	.LBE196:
 1372              		.loc 3 862 0
 1373 003c 2B46     		mov	r3, r5
 1374 003e 2046     		mov	r0, r4
 1375 0040 2946     		mov	r1, r5
 1376 0042 2A46     		mov	r2, r5
 1377 0044 FFF7FEFF 		bl	usbStartTransmitI
 1378              	.LVL126:
 1379              	.LBB198:
 1380              	.LBB199:
 1381              		.loc 4 526 0
 1382 0048 FFF7FEFF 		bl	chSysUnlockFromISR
 1383              	.LVL127:
 1384              	.LBE199:
 1385              	.LBE198:
 1386              		.loc 3 864 0
 1387 004c 0223     		movs	r3, #2
 1388 004e 21E0     		b	.L133
 1389              	.LVL128:
 1390              	.L123:
 1391              		.loc 3 870 0
 1392 0050 0323     		movs	r3, #3
 1393 0052 84F83430 		strb	r3, [r4, #52]
 1394              	.LBB200:
 1395              	.LBB201:
 1396              		.loc 4 515 0
 1397 0056 FFF7FEFF 		bl	chSysLockFromISR
 1398              	.LVL129:
 1399              	.LBE201:
 1400              	.LBE200:
 1401              		.loc 3 873 0
 1402 005a 0021     		movs	r1, #0
 1403 005c 2046     		mov	r0, r4
 1404 005e 0B46     		mov	r3, r1
 1405 0060 0A46     		mov	r2, r1
 1406 0062 FFF7FEFF 		bl	usbStartReceiveI
 1407              	.LVL130:
 1408              		.loc 3 904 0
 1409 0066 BDE83840 		pop	{r3, r4, r5, lr}
 1410              		.cfi_remember_state
 1411              		.cfi_restore 14
 1412              		.cfi_restore 5
 1413              		.cfi_restore 4
 1414              		.cfi_restore 3
 1415              		.cfi_def_cfa_offset 0
 1416              	.LVL131:
 1417              	.LBB202:
 1418              	.LBB203:
 1419              		.loc 4 526 0
 1420 006a FFF7FEBF 		b	chSysUnlockFromISR
 1421              	.LVL132:
 1422              	.L124:
 1423              		.cfi_restore_state
 1424              	.LBE203:
 1425              	.LBE202:
ARM GAS  /tmp/ccycizpT.s 			page 26


 1426              		.loc 3 881 0
 1427 006e 036C     		ldr	r3, [r0, #64]
 1428 0070 03B1     		cbz	r3, .L125
 1429              		.loc 3 882 0
 1430 0072 9847     		blx	r3
 1431              	.LVL133:
 1432              	.L125:
 1433              		.loc 3 884 0
 1434 0074 0023     		movs	r3, #0
 1435 0076 0DE0     		b	.L133
 1436              	.LVL134:
 1437              	.L120:
 1438              		.loc 3 896 0
 1439 0078 0021     		movs	r1, #0
 1440              	.LVL135:
 1441 007a FFF7FEFF 		bl	usb_lld_stall_in
 1442              	.LVL136:
 1443              		.loc 3 897 0
 1444 007e 2046     		mov	r0, r4
 1445 0080 0021     		movs	r1, #0
 1446 0082 FFF7FEFF 		bl	usb_lld_stall_out
 1447              	.LVL137:
 1448              		.loc 3 898 0
 1449 0086 6368     		ldr	r3, [r4, #4]
 1450 0088 1B68     		ldr	r3, [r3]
 1451 008a 13B1     		cbz	r3, .L126
 1452              		.loc 3 898 0 is_stmt 0 discriminator 1
 1453 008c 2046     		mov	r0, r4
 1454 008e 0621     		movs	r1, #6
 1455 0090 9847     		blx	r3
 1456              	.LVL138:
 1457              	.L126:
 1458              		.loc 3 899 0 is_stmt 1
 1459 0092 0623     		movs	r3, #6
 1460              	.L133:
 1461 0094 84F83430 		strb	r3, [r4, #52]
 1462              	.L118:
 1463 0098 38BD     		pop	{r3, r4, r5, pc}
 1464              		.cfi_endproc
 1465              	.LFE294:
 1466              		.size	_usb_ep0in, .-_usb_ep0in
 1467              		.section	.text._usb_ep0out,"ax",%progbits
 1468              		.align	1
 1469              		.global	_usb_ep0out
 1470              		.thumb
 1471              		.thumb_func
 1472              		.type	_usb_ep0out, %function
 1473              	_usb_ep0out:
 1474              	.LFB295:
 1475              		.loc 3 916 0
 1476              		.cfi_startproc
 1477              		@ args = 0, pretend = 0, frame = 0
 1478              		@ frame_needed = 0, uses_anonymous_args = 0
 1479              	.LVL139:
 1480              		.loc 3 919 0
 1481 0000 90F83420 		ldrb	r2, [r0, #52]	@ zero_extendqisi2
 1482 0004 062A     		cmp	r2, #6
ARM GAS  /tmp/ccycizpT.s 			page 27


 1483              		.loc 3 916 0
 1484 0006 38B5     		push	{r3, r4, r5, lr}
 1485              		.cfi_def_cfa_offset 16
 1486              		.cfi_offset 3, -16
 1487              		.cfi_offset 4, -12
 1488              		.cfi_offset 5, -8
 1489              		.cfi_offset 14, -4
 1490              		.loc 3 916 0
 1491 0008 0446     		mov	r4, r0
 1492 000a 31D8     		bhi	.L134
 1493 000c 0123     		movs	r3, #1
 1494 000e 9340     		lsls	r3, r3, r2
 1495 0010 13F0670F 		tst	r3, #103
 1496 0014 1CD1     		bne	.L136
 1497 0016 13F00805 		ands	r5, r3, #8
 1498 001a 10D1     		bne	.L137
 1499 001c DB06     		lsls	r3, r3, #27
 1500 001e 27D5     		bpl	.L134
 1501              		.loc 3 922 0
 1502 0020 0523     		movs	r3, #5
 1503 0022 80F83430 		strb	r3, [r0, #52]
 1504              	.LBB204:
 1505              	.LBB205:
 1506              		.loc 4 515 0
 1507 0026 FFF7FEFF 		bl	chSysLockFromISR
 1508              	.LVL140:
 1509              	.LBE205:
 1510              	.LBE204:
 1511              		.loc 3 925 0
 1512 002a 2046     		mov	r0, r4
 1513 002c 2946     		mov	r1, r5
 1514 002e 2A46     		mov	r2, r5
 1515 0030 2B46     		mov	r3, r5
 1516 0032 FFF7FEFF 		bl	usbStartTransmitI
 1517              	.LVL141:
 1518              		.loc 3 963 0
 1519 0036 BDE83840 		pop	{r3, r4, r5, lr}
 1520              		.cfi_remember_state
 1521              		.cfi_restore 14
 1522              		.cfi_restore 5
 1523              		.cfi_restore 4
 1524              		.cfi_restore 3
 1525              		.cfi_def_cfa_offset 0
 1526              	.LVL142:
 1527              	.LBB206:
 1528              	.LBB207:
 1529              		.loc 4 526 0
 1530 003a FFF7FEBF 		b	chSysUnlockFromISR
 1531              	.LVL143:
 1532              	.L137:
 1533              		.cfi_restore_state
 1534              	.LBE207:
 1535              	.LBE206:
 1536              		.loc 3 935 0
 1537 003e C368     		ldr	r3, [r0, #12]
 1538 0040 9B69     		ldr	r3, [r3, #24]
 1539 0042 5B68     		ldr	r3, [r3, #4]
ARM GAS  /tmp/ccycizpT.s 			page 28


 1540 0044 A3B9     		cbnz	r3, .L134
 1541              		.loc 3 939 0
 1542 0046 036C     		ldr	r3, [r0, #64]
 1543 0048 03B1     		cbz	r3, .L138
 1544              		.loc 3 940 0
 1545 004a 9847     		blx	r3
 1546              	.LVL144:
 1547              	.L138:
 1548              		.loc 3 942 0
 1549 004c 0023     		movs	r3, #0
 1550 004e 0DE0     		b	.L149
 1551              	.LVL145:
 1552              	.L136:
 1553              		.loc 3 955 0
 1554 0050 0021     		movs	r1, #0
 1555              	.LVL146:
 1556 0052 FFF7FEFF 		bl	usb_lld_stall_in
 1557              	.LVL147:
 1558              		.loc 3 956 0
 1559 0056 2046     		mov	r0, r4
 1560 0058 0021     		movs	r1, #0
 1561 005a FFF7FEFF 		bl	usb_lld_stall_out
 1562              	.LVL148:
 1563              		.loc 3 957 0
 1564 005e 6368     		ldr	r3, [r4, #4]
 1565 0060 1B68     		ldr	r3, [r3]
 1566 0062 13B1     		cbz	r3, .L139
 1567              		.loc 3 957 0 is_stmt 0 discriminator 1
 1568 0064 2046     		mov	r0, r4
 1569 0066 0621     		movs	r1, #6
 1570 0068 9847     		blx	r3
 1571              	.LVL149:
 1572              	.L139:
 1573              		.loc 3 958 0 is_stmt 1
 1574 006a 0623     		movs	r3, #6
 1575              	.L149:
 1576 006c 84F83430 		strb	r3, [r4, #52]
 1577              	.L134:
 1578 0070 38BD     		pop	{r3, r4, r5, pc}
 1579              		.cfi_endproc
 1580              	.LFE295:
 1581              		.size	_usb_ep0out, .-_usb_ep0out
 1582              		.section	.rodata.zero_status,"a",%progbits
 1583              		.set	.LANCHOR0,. + 0
 1584              		.type	zero_status, %object
 1585              		.size	zero_status, 2
 1586              	zero_status:
 1587 0000 0000     		.space	2
 1588              		.section	.rodata.active_status,"a",%progbits
 1589              		.set	.LANCHOR2,. + 0
 1590              		.type	active_status, %object
 1591              		.size	active_status, 2
 1592              	active_status:
 1593 0000 0000     		.space	2
 1594              		.section	.rodata.halted_status,"a",%progbits
 1595              		.set	.LANCHOR1,. + 0
 1596              		.type	halted_status, %object
ARM GAS  /tmp/ccycizpT.s 			page 29


 1597              		.size	halted_status, 2
 1598              	halted_status:
 1599 0000 01       		.byte	1
 1600 0001 00       		.byte	0
 1601              		.text
 1602              	.Letext0:
 1603              		.file 5 "/usr/lib/gcc/arm-none-eabi/4.9.3/include/stddef.h"
 1604              		.file 6 "/usr/include/newlib/machine/_default_types.h"
 1605              		.file 7 "/usr/include/newlib/sys/_stdint.h"
 1606              		.file 8 "../../modules/ChibiOS/os/common/ports/ARMCMx/compilers/GCC/chtypes.h"
 1607              		.file 9 "../../modules/ChibiOS/os/rt/include/chsystypes.h"
 1608              		.file 10 "../../modules/ChibiOS/os/rt/include/chschd.h"
 1609              		.file 11 "../../modules/ChibiOS/os/common/ports/ARMCMx/chcore.h"
 1610              		.file 12 "../../modules/ChibiOS/os/common/ports/ARMCMx/chcore_v7m.h"
 1611              		.file 13 "../../modules/ChibiOS/os/rt/include/chtm.h"
 1612              		.file 14 "../../modules/ChibiOS/os/rt/include/chstats.h"
 1613              		.file 15 "../../modules/ChibiOS/os/rt/include/chsem.h"
 1614              		.file 16 "../../modules/ChibiOS/os/rt/include/chmtx.h"
 1615              		.file 17 "../../modules/ChibiOS/os/hal/include/hal_usb.h"
 1616              		.file 18 "../../modules/ChibiOS/os/hal/ports/STM32/LLD/OTGv1/hal_usb_lld.h"
 1617              		.file 19 "../../modules/ChibiOS/os/hal/ports/STM32/LLD/OTGv1/stm32_otg.h"
 1618              		.file 20 "../../modules/ChibiOS/os/common/ext/CMSIS/include/core_cm4.h"