ARM GAS  /tmp/ccEo48Qg.s 			page 1


   1              		.syntax unified
   2              		.cpu cortex-m4
   3              		.eabi_attribute 27, 1
   4              		.eabi_attribute 28, 1
   5              		.fpu fpv4-sp-d16
   6              		.eabi_attribute 20, 1
   7              		.eabi_attribute 21, 1
   8              		.eabi_attribute 23, 3
   9              		.eabi_attribute 24, 1
  10              		.eabi_attribute 25, 1
  11              		.eabi_attribute 26, 1
  12              		.eabi_attribute 30, 4
  13              		.eabi_attribute 34, 1
  14              		.eabi_attribute 18, 4
  15              		.thumb
  16              		.file	"hrt.c"
  17              		.text
  18              	.Ltext0:
  19              		.cfi_sections	.debug_frame
  20              		.section	.text.hrt_micros,"ax",%progbits
  21              		.align	1
  22              		.global	hrt_micros
  23              		.thumb
  24              		.thumb_func
  25              		.type	hrt_micros, %function
  26              	hrt_micros:
  27              	.LFB277:
  28              		.file 1 "../../libraries/AP_HAL_ChibiOS/hwdef/common/hrt.c"
  29              		.loc 1 26 0
  30              		.cfi_startproc
  31              		@ args = 0, pretend = 0, frame = 0
  32              		@ frame_needed = 0, uses_anonymous_args = 0
  33 0000 2DE9F843 		push	{r3, r4, r5, r6, r7, r8, r9, lr}
  34              		.cfi_def_cfa_offset 32
  35              		.cfi_offset 3, -32
  36              		.cfi_offset 4, -28
  37              		.cfi_offset 5, -24
  38              		.cfi_offset 6, -20
  39              		.cfi_offset 7, -16
  40              		.cfi_offset 8, -12
  41              		.cfi_offset 9, -8
  42              		.cfi_offset 14, -4
  43              		.loc 1 33 0
  44 0004 FFF7FEFF 		bl	chSysGetStatusAndLockX
  45              	.LVL0:
  46              		.loc 1 35 0
  47 0008 0F4A     		ldr	r2, .L4
  48              	.LBB14:
  49              	.LBB15:
  50              	.LBB16:
  51              	.LBB17:
  52              		.file 2 "../../modules/ChibiOS/os/hal/ports/STM32/LLD/TIMv1/hal_st_lld.h"
  53              		.loc 2 141 0
  54 000a 104B     		ldr	r3, .L4+4
  55              	.LBE17:
  56              	.LBE16:
  57              	.LBE15:
ARM GAS  /tmp/ccEo48Qg.s 			page 2


  58              	.LBE14:
  59              		.loc 1 35 0
  60 000c D2E90067 		ldrd	r6, [r2]
  61              	.LBB21:
  62              	.LBB20:
  63              	.LBB19:
  64              	.LBB18:
  65              		.loc 2 141 0
  66 0010 5B6A     		ldr	r3, [r3, #36]
  67              	.LBE18:
  68              	.LBE19:
  69              	.LBE20:
  70              	.LBE21:
  71              		.loc 1 35 0
  72 0012 F418     		adds	r4, r6, r3
  73              		.loc 1 39 0
  74 0014 0E4B     		ldr	r3, .L4+8
  75 0016 D3E90089 		ldrd	r8, [r3]
  76              		.loc 1 35 0
  77 001a 47F10005 		adc	r5, r7, #0
  78              	.LVL1:
  79              		.loc 1 39 0
  80 001e 4D45     		cmp	r5, r9
  81 0020 08BF     		it	eq
  82 0022 4445     		cmpeq	r4, r8
  83 0024 07D2     		bcs	.L2
  84              	.LVL2:
  85              	.LBB22:
  86              		.loc 1 41 0
  87 0026 0036     		adds	r6, r6, #0
  88 0028 47F10107 		adc	r7, r7, #1
  89 002c C2E90067 		strd	r6, [r2]
  90              		.loc 1 42 0
  91 0030 0034     		adds	r4, r4, #0
  92              	.LVL3:
  93 0032 45F10105 		adc	r5, r5, #1
  94              	.LVL4:
  95              	.L2:
  96              	.LBE22:
  97              		.loc 1 44 0
  98 0036 C3E90045 		strd	r4, [r3]
  99              		.loc 1 45 0
 100 003a FFF7FEFF 		bl	chSysRestoreStatusX
 101              	.LVL5:
 102              		.loc 1 47 0
 103 003e 2046     		mov	r0, r4
 104 0040 2946     		mov	r1, r5
 105 0042 BDE8F883 		pop	{r3, r4, r5, r6, r7, r8, r9, pc}
 106              	.LVL6:
 107              	.L5:
 108 0046 00BF     		.align	2
 109              	.L4:
 110 0048 00000000 		.word	.LANCHOR0
 111 004c 000C0040 		.word	1073744896
 112 0050 00000000 		.word	.LANCHOR1
 113              		.cfi_endproc
 114              	.LFE277:
ARM GAS  /tmp/ccEo48Qg.s 			page 3


 115              		.size	hrt_micros, .-hrt_micros
 116              		.section	.bss.last_micros.8387,"aw",%nobits
 117              		.align	3
 118              		.set	.LANCHOR1,. + 0
 119              		.type	last_micros.8387, %object
 120              		.size	last_micros.8387, 8
 121              	last_micros.8387:
 122 0000 00000000 		.space	8
 122      00000000 
 123              		.section	.bss.timer_base,"aw",%nobits
 124              		.align	3
 125              		.set	.LANCHOR0,. + 0
 126              		.type	timer_base, %object
 127              		.size	timer_base, 8
 128              	timer_base:
 129 0000 00000000 		.space	8
 129      00000000 
 130              		.text
 131              	.Letext0:
 132              		.file 3 "/usr/lib/gcc/arm-none-eabi/4.9.3/include/stddef.h"
 133              		.file 4 "/usr/include/newlib/machine/_default_types.h"
 134              		.file 5 "/usr/include/newlib/sys/_stdint.h"
 135              		.file 6 "../../modules/ChibiOS/os/common/ports/ARMCMx/compilers/GCC/chtypes.h"
 136              		.file 7 "../../modules/ChibiOS/os/rt/include/chsystypes.h"
 137              		.file 8 "../../modules/ChibiOS/os/rt/include/chschd.h"
 138              		.file 9 "../../modules/ChibiOS/os/common/ports/ARMCMx/chcore.h"
 139              		.file 10 "../../modules/ChibiOS/os/common/ports/ARMCMx/chcore_v7m.h"
 140              		.file 11 "../../modules/ChibiOS/os/hal/ports/STM32/LLD/TIMv1/stm32_tim.h"
 141              		.file 12 "../../modules/ChibiOS/os/rt/include/chtm.h"
 142              		.file 13 "../../modules/ChibiOS/os/rt/include/chstats.h"
 143              		.file 14 "../../modules/ChibiOS/os/rt/include/chsem.h"
 144              		.file 15 "../../modules/ChibiOS/os/rt/include/chmtx.h"
 145              		.file 16 "../../modules/ChibiOS/os/common/ports/ARMCMx/chcore_timer.h"
 146              		.file 17 "../../modules/ChibiOS/os/rt/include/chvt.h"
 147              		.file 18 "../../modules/ChibiOS/os/common/ext/CMSIS/include/core_cm4.h"
 148              		.file 19 "../../modules/ChibiOS/os/rt/include/chsys.h"