ARM GAS  /tmp/ccBmDPQE.s 			page 1


   1              		.syntax unified
   2              		.cpu cortex-m4
   3              		.eabi_attribute 27, 1
   4              		.eabi_attribute 28, 1
   5              		.fpu fpv4-sp-d16
   6              		.eabi_attribute 20, 1
   7              		.eabi_attribute 21, 1
   8              		.eabi_attribute 23, 3
   9              		.eabi_attribute 24, 1
  10              		.eabi_attribute 25, 1
  11              		.eabi_attribute 26, 1
  12              		.eabi_attribute 30, 4
  13              		.eabi_attribute 34, 1
  14              		.eabi_attribute 18, 4
  15              		.thumb
  16              		.file	"malloc.c"
  17              		.text
  18              	.Ltext0:
  19              		.cfi_sections	.debug_frame
  20              		.section	.text.malloc_ccm,"ax",%progbits
  21              		.align	1
  22              		.global	malloc_ccm
  23              		.thumb
  24              		.thumb_func
  25              		.type	malloc_ccm, %function
  26              	malloc_ccm:
  27              	.LFB277:
  28              		.file 1 "../../libraries/AP_HAL_ChibiOS/hwdef/common/malloc.c"
  29              		.loc 1 44 0
  30              		.cfi_startproc
  31              		@ args = 0, pretend = 0, frame = 0
  32              		@ frame_needed = 0, uses_anonymous_args = 0
  33              	.LVL0:
  34 0000 38B5     		push	{r3, r4, r5, lr}
  35              		.cfi_def_cfa_offset 16
  36              		.cfi_offset 3, -16
  37              		.cfi_offset 4, -12
  38              		.cfi_offset 5, -8
  39              		.cfi_offset 14, -4
  40              		.loc 1 47 0
  41 0002 0D4B     		ldr	r3, .L8
  42 0004 1A78     		ldrb	r2, [r3]	@ zero_extendqisi2
  43              		.loc 1 44 0
  44 0006 0446     		mov	r4, r0
  45              		.loc 1 47 0
  46 0008 42B9     		cbnz	r2, .L2
  47              		.loc 1 48 0
  48 000a 0122     		movs	r2, #1
  49 000c 1A70     		strb	r2, [r3]
  50              		.loc 1 49 0
  51 000e 0B48     		ldr	r0, .L8+4
  52              	.LVL1:
  53 0010 4FF08051 		mov	r1, #268435456
  54 0014 4FF48032 		mov	r2, #65536
  55 0018 FFF7FEFF 		bl	chHeapObjectInit
  56              	.LVL2:
  57              	.L2:
ARM GAS  /tmp/ccBmDPQE.s 			page 2


  58              		.loc 1 51 0
  59 001c 0748     		ldr	r0, .L8+4
  60 001e 2146     		mov	r1, r4
  61 0020 0822     		movs	r2, #8
  62 0022 FFF7FEFF 		bl	chHeapAllocAligned
  63              	.LVL3:
  64              		.loc 1 52 0
  65 0026 0546     		mov	r5, r0
  66 0028 18B1     		cbz	r0, .L3
  67              		.loc 1 53 0
  68 002a 0021     		movs	r1, #0
  69 002c 2246     		mov	r2, r4
  70 002e FFF7FEFF 		bl	memset
  71              	.LVL4:
  72              	.L3:
  73              		.loc 1 59 0
  74 0032 2846     		mov	r0, r5
  75 0034 38BD     		pop	{r3, r4, r5, pc}
  76              	.LVL5:
  77              	.L9:
  78 0036 00BF     		.align	2
  79              	.L8:
  80 0038 00000000 		.word	.LANCHOR0
  81 003c 00000000 		.word	.LANCHOR1
  82              		.cfi_endproc
  83              	.LFE277:
  84              		.size	malloc_ccm, .-malloc_ccm
  85              		.section	.text.malloc,"ax",%progbits
  86              		.align	1
  87              		.global	malloc
  88              		.thumb
  89              		.thumb_func
  90              		.type	malloc, %function
  91              	malloc:
  92              	.LFB278:
  93              		.loc 1 62 0
  94              		.cfi_startproc
  95              		@ args = 0, pretend = 0, frame = 0
  96              		@ frame_needed = 0, uses_anonymous_args = 0
  97              	.LVL6:
  98 0000 38B5     		push	{r3, r4, r5, lr}
  99              		.cfi_def_cfa_offset 16
 100              		.cfi_offset 3, -16
 101              		.cfi_offset 4, -12
 102              		.cfi_offset 5, -8
 103              		.cfi_offset 14, -4
 104              		.loc 1 63 0
 105 0002 0446     		mov	r4, r0
 106 0004 88B1     		cbz	r0, .L13
 107              		.loc 1 66 0
 108 0006 0020     		movs	r0, #0
 109              	.LVL7:
 110 0008 2146     		mov	r1, r4
 111 000a 0822     		movs	r2, #8
 112 000c FFF7FEFF 		bl	chHeapAllocAligned
 113              	.LVL8:
 114              		.loc 1 67 0
ARM GAS  /tmp/ccBmDPQE.s 			page 3


 115 0010 0546     		mov	r5, r0
 116 0012 28B1     		cbz	r0, .L12
 117              		.loc 1 68 0
 118 0014 0021     		movs	r1, #0
 119 0016 2246     		mov	r2, r4
 120 0018 FFF7FEFF 		bl	memset
 121              	.LVL9:
 122 001c 2846     		mov	r0, r5
 123 001e 38BD     		pop	{r3, r4, r5, pc}
 124              	.LVL10:
 125              	.L12:
 126              		.loc 1 71 0
 127 0020 2046     		mov	r0, r4
 128              	.LVL11:
 129              		.loc 1 74 0
 130 0022 BDE83840 		pop	{r3, r4, r5, lr}
 131              		.cfi_remember_state
 132              		.cfi_restore 14
 133              		.cfi_restore 5
 134              		.cfi_restore 4
 135              		.cfi_restore 3
 136              		.cfi_def_cfa_offset 0
 137              	.LVL12:
 138              		.loc 1 71 0
 139 0026 FFF7FEBF 		b	malloc_ccm
 140              	.LVL13:
 141              	.L13:
 142              		.cfi_restore_state
 143              		.loc 1 74 0
 144 002a 38BD     		pop	{r3, r4, r5, pc}
 145              		.cfi_endproc
 146              	.LFE278:
 147              		.size	malloc, .-malloc
 148              		.section	.text.calloc,"ax",%progbits
 149              		.align	1
 150              		.global	calloc
 151              		.thumb
 152              		.thumb_func
 153              		.type	calloc, %function
 154              	calloc:
 155              	.LFB279:
 156              		.loc 1 77 0
 157              		.cfi_startproc
 158              		@ args = 0, pretend = 0, frame = 0
 159              		@ frame_needed = 0, uses_anonymous_args = 0
 160              		@ link register save eliminated.
 161              	.LVL14:
 162              		.loc 1 78 0
 163 0000 4843     		muls	r0, r1, r0
 164              	.LVL15:
 165 0002 FFF7FEBF 		b	malloc
 166              	.LVL16:
 167              		.cfi_endproc
 168              	.LFE279:
 169              		.size	calloc, .-calloc
 170              		.section	.text.free,"ax",%progbits
 171              		.align	1
ARM GAS  /tmp/ccBmDPQE.s 			page 4


 172              		.global	free
 173              		.thumb
 174              		.thumb_func
 175              		.type	free, %function
 176              	free:
 177              	.LFB280:
 178              		.loc 1 82 0
 179              		.cfi_startproc
 180              		@ args = 0, pretend = 0, frame = 0
 181              		@ frame_needed = 0, uses_anonymous_args = 0
 182              		@ link register save eliminated.
 183              	.LVL17:
 184              		.loc 1 83 0
 185 0000 08B1     		cbz	r0, .L15
 186              		.loc 1 84 0
 187 0002 FFF7FEBF 		b	chHeapFree
 188              	.LVL18:
 189              	.L15:
 190 0006 7047     		bx	lr
 191              		.cfi_endproc
 192              	.LFE280:
 193              		.size	free, .-free
 194              		.section	.text.mem_available,"ax",%progbits
 195              		.align	1
 196              		.global	mem_available
 197              		.thumb
 198              		.thumb_func
 199              		.type	mem_available, %function
 200              	mem_available:
 201              	.LFB281:
 202              		.loc 1 92 0
 203              		.cfi_startproc
 204              		@ args = 0, pretend = 0, frame = 8
 205              		@ frame_needed = 0, uses_anonymous_args = 0
 206 0000 13B5     		push	{r0, r1, r4, lr}
 207              		.cfi_def_cfa_offset 16
 208              		.cfi_offset 4, -8
 209              		.cfi_offset 14, -4
 210              		.loc 1 93 0
 211 0002 02A9     		add	r1, sp, #8
 212 0004 0024     		movs	r4, #0
 213 0006 41F8084D 		str	r4, [r1, #-8]!
 214              		.loc 1 95 0
 215 000a 2246     		mov	r2, r4
 216 000c 2046     		mov	r0, r4
 217 000e FFF7FEFF 		bl	chHeapStatus
 218              	.LVL19:
 219              		.loc 1 98 0
 220 0012 FFF7FEFF 		bl	chCoreGetStatusX
 221              	.LVL20:
 222 0016 009B     		ldr	r3, [sp]
 223              		.loc 1 101 0
 224 0018 02A9     		add	r1, sp, #8
 225              		.loc 1 98 0
 226 001a 1844     		add	r0, r0, r3
 227 001c 0090     		str	r0, [sp]
 228              		.loc 1 101 0
ARM GAS  /tmp/ccBmDPQE.s 			page 5


 229 001e 41F8044D 		str	r4, [r1, #-4]!
 230              		.loc 1 102 0
 231 0022 2246     		mov	r2, r4
 232 0024 0348     		ldr	r0, .L18
 233 0026 FFF7FEFF 		bl	chHeapStatus
 234              	.LVL21:
 235              		.loc 1 107 0
 236 002a 9DE80900 		ldmia	sp, {r0, r3}
 237 002e 1844     		add	r0, r0, r3
 238              	.LVL22:
 239 0030 02B0     		add	sp, sp, #8
 240              		.cfi_def_cfa_offset 8
 241              		@ sp needed
 242 0032 10BD     		pop	{r4, pc}
 243              	.L19:
 244              		.align	2
 245              	.L18:
 246 0034 00000000 		.word	.LANCHOR1
 247              		.cfi_endproc
 248              	.LFE281:
 249              		.size	mem_available, .-mem_available
 250              		.section	.bss.ccm_heap,"aw",%nobits
 251              		.align	3
 252              		.set	.LANCHOR1,. + 0
 253              		.type	ccm_heap, %object
 254              		.size	ccm_heap, 32
 255              	ccm_heap:
 256 0000 00000000 		.space	32
 256      00000000 
 256      00000000 
 256      00000000 
 256      00000000 
 257              		.section	.bss.ccm_heap_initialised,"aw",%nobits
 258              		.set	.LANCHOR0,. + 0
 259              		.type	ccm_heap_initialised, %object
 260              		.size	ccm_heap_initialised, 1
 261              	ccm_heap_initialised:
 262 0000 00       		.space	1
 263              		.text
 264              	.Letext0:
 265              		.file 2 "/usr/include/newlib/machine/_default_types.h"
 266              		.file 3 "/usr/include/newlib/sys/_stdint.h"
 267              		.file 4 "/usr/lib/gcc/arm-none-eabi/4.9.3/include/stddef.h"
 268              		.file 5 "../../modules/ChibiOS/os/common/ports/ARMCMx/compilers/GCC/chtypes.h"
 269              		.file 6 "../../modules/ChibiOS/os/rt/include/chsystypes.h"
 270              		.file 7 "../../modules/ChibiOS/os/rt/include/chschd.h"
 271              		.file 8 "../../modules/ChibiOS/os/common/ports/ARMCMx/chcore.h"
 272              		.file 9 "../../modules/ChibiOS/os/common/ports/ARMCMx/chcore_v7m.h"
 273              		.file 10 "../../modules/ChibiOS/os/rt/include/chtm.h"
 274              		.file 11 "../../modules/ChibiOS/os/rt/include/chstats.h"
 275              		.file 12 "../../modules/ChibiOS/os/rt/include/chsem.h"
 276              		.file 13 "../../modules/ChibiOS/os/rt/include/chmtx.h"
 277              		.file 14 "../../modules/ChibiOS/os/common/oslib/include/chmemcore.h"
 278              		.file 15 "../../modules/ChibiOS/os/common/oslib/include/chheap.h"
 279              		.file 16 "../../modules/ChibiOS/os/common/ext/CMSIS/include/core_cm4.h"