ARM GAS  /tmp/ccYXQwkX.s 			page 1


   1              		.syntax unified
   2              		.cpu cortex-m4
   3              		.eabi_attribute 27, 1
   4              		.eabi_attribute 28, 1
   5              		.fpu fpv4-sp-d16
   6              		.eabi_attribute 20, 1
   7              		.eabi_attribute 21, 1
   8              		.eabi_attribute 23, 3
   9              		.eabi_attribute 24, 1
  10              		.eabi_attribute 25, 1
  11              		.eabi_attribute 26, 1
  12              		.eabi_attribute 30, 4
  13              		.eabi_attribute 34, 1
  14              		.eabi_attribute 18, 4
  15              		.thumb
  16              		.file	"memstreams.c"
  17              		.text
  18              	.Ltext0:
  19              		.cfi_sections	.debug_frame
  20              		.section	.text._put,"ax",%progbits
  21              		.align	1
  22              		.thumb
  23              		.thumb_func
  24              		.type	_put, %function
  25              	_put:
  26              	.LFB279:
  27              		.file 1 "../../modules/ChibiOS/os/hal/lib/streams/memstreams.c"
  28              		.loc 1 66 0
  29              		.cfi_startproc
  30              		@ args = 0, pretend = 0, frame = 0
  31              		@ frame_needed = 0, uses_anonymous_args = 0
  32              		@ link register save eliminated.
  33              	.LVL0:
  34              		.loc 1 69 0
  35 0000 C368     		ldr	r3, [r0, #12]
  36 0002 8268     		ldr	r2, [r0, #8]
  37 0004 9A42     		cmp	r2, r3
  38              		.loc 1 71 0
  39 0006 1FBF     		itttt	ne
  40 0008 4268     		ldrne	r2, [r0, #4]
  41 000a D154     		strbne	r1, [r2, r3]
  42              		.loc 1 72 0
  43 000c C368     		ldrne	r3, [r0, #12]
  44 000e 0133     		addne	r3, r3, #1
  45 0010 1ABF     		itte	ne
  46 0012 C360     		strne	r3, [r0, #12]
  47              		.loc 1 73 0
  48 0014 0020     		movne	r0, #0
  49              	.LVL1:
  50              		.loc 1 70 0
  51 0016 6FF00100 		mvneq	r0, #1
  52              		.loc 1 74 0
  53 001a 7047     		bx	lr
  54              		.cfi_endproc
  55              	.LFE279:
  56              		.size	_put, .-_put
  57              		.section	.text._get,"ax",%progbits
ARM GAS  /tmp/ccYXQwkX.s 			page 2


  58              		.align	1
  59              		.thumb
  60              		.thumb_func
  61              		.type	_get, %function
  62              	_get:
  63              	.LFB280:
  64              		.loc 1 76 0
  65              		.cfi_startproc
  66              		@ args = 0, pretend = 0, frame = 0
  67              		@ frame_needed = 0, uses_anonymous_args = 0
  68              		@ link register save eliminated.
  69              	.LVL2:
  70              		.loc 1 80 0
  71 0000 0369     		ldr	r3, [r0, #16]
  72 0002 C268     		ldr	r2, [r0, #12]
  73 0004 9A42     		cmp	r2, r3
  74              		.loc 1 82 0
  75 0006 1FBF     		itttt	ne
  76 0008 4268     		ldrne	r2, [r0, #4]
  77 000a D25C     		ldrbne	r2, [r2, r3]	@ zero_extendqisi2
  78              	.LVL3:
  79              		.loc 1 83 0
  80 000c 0133     		addne	r3, r3, #1
  81 000e 0361     		strne	r3, [r0, #16]
  82              		.loc 1 84 0
  83 0010 14BF     		ite	ne
  84 0012 1046     		movne	r0, r2
  85              	.LVL4:
  86              		.loc 1 81 0
  87 0014 6FF00100 		mvneq	r0, #1
  88              		.loc 1 85 0
  89 0018 7047     		bx	lr
  90              		.cfi_endproc
  91              	.LFE280:
  92              		.size	_get, .-_get
  93              		.section	.text._reads,"ax",%progbits
  94              		.align	1
  95              		.thumb
  96              		.thumb_func
  97              		.type	_reads, %function
  98              	_reads:
  99              	.LFB278:
 100              		.loc 1 56 0
 101              		.cfi_startproc
 102              		@ args = 0, pretend = 0, frame = 0
 103              		@ frame_needed = 0, uses_anonymous_args = 0
 104              	.LVL5:
 105 0000 38B5     		push	{r3, r4, r5, lr}
 106              		.cfi_def_cfa_offset 16
 107              		.cfi_offset 3, -16
 108              		.cfi_offset 4, -12
 109              		.cfi_offset 5, -8
 110              		.cfi_offset 14, -4
 111              		.loc 1 59 0
 112 0002 0369     		ldr	r3, [r0, #16]
 113 0004 C468     		ldr	r4, [r0, #12]
 114 0006 E41A     		subs	r4, r4, r3
ARM GAS  /tmp/ccYXQwkX.s 			page 3


 115 0008 9442     		cmp	r4, r2
 116 000a 28BF     		it	cs
 117 000c 1446     		movcs	r4, r2
 118              	.LVL6:
 119              		.loc 1 61 0
 120 000e 4268     		ldr	r2, [r0, #4]
 121              		.loc 1 56 0
 122 0010 0546     		mov	r5, r0
 123              		.loc 1 61 0
 124 0012 0846     		mov	r0, r1
 125              	.LVL7:
 126 0014 D118     		adds	r1, r2, r3
 127              	.LVL8:
 128 0016 2246     		mov	r2, r4
 129 0018 FFF7FEFF 		bl	memcpy
 130              	.LVL9:
 131              		.loc 1 62 0
 132 001c 2B69     		ldr	r3, [r5, #16]
 133 001e 2344     		add	r3, r3, r4
 134 0020 2B61     		str	r3, [r5, #16]
 135              		.loc 1 64 0
 136 0022 2046     		mov	r0, r4
 137 0024 38BD     		pop	{r3, r4, r5, pc}
 138              		.cfi_endproc
 139              	.LFE278:
 140              		.size	_reads, .-_reads
 141              		.section	.text._writes,"ax",%progbits
 142              		.align	1
 143              		.thumb
 144              		.thumb_func
 145              		.type	_writes, %function
 146              	_writes:
 147              	.LFB277:
 148              		.loc 1 46 0
 149              		.cfi_startproc
 150              		@ args = 0, pretend = 0, frame = 0
 151              		@ frame_needed = 0, uses_anonymous_args = 0
 152              	.LVL10:
 153 0000 38B5     		push	{r3, r4, r5, lr}
 154              		.cfi_def_cfa_offset 16
 155              		.cfi_offset 3, -16
 156              		.cfi_offset 4, -12
 157              		.cfi_offset 5, -8
 158              		.cfi_offset 14, -4
 159              		.loc 1 49 0
 160 0002 C368     		ldr	r3, [r0, #12]
 161 0004 8468     		ldr	r4, [r0, #8]
 162 0006 E41A     		subs	r4, r4, r3
 163              		.loc 1 46 0
 164 0008 0546     		mov	r5, r0
 165 000a 9442     		cmp	r4, r2
 166              		.loc 1 51 0
 167 000c 4068     		ldr	r0, [r0, #4]
 168              	.LVL11:
 169 000e 28BF     		it	cs
 170 0010 1446     		movcs	r4, r2
 171              	.LVL12:
ARM GAS  /tmp/ccYXQwkX.s 			page 4


 172 0012 1844     		add	r0, r0, r3
 173 0014 2246     		mov	r2, r4
 174 0016 FFF7FEFF 		bl	memcpy
 175              	.LVL13:
 176              		.loc 1 52 0
 177 001a EB68     		ldr	r3, [r5, #12]
 178 001c 2344     		add	r3, r3, r4
 179 001e EB60     		str	r3, [r5, #12]
 180              		.loc 1 54 0
 181 0020 2046     		mov	r0, r4
 182 0022 38BD     		pop	{r3, r4, r5, pc}
 183              		.cfi_endproc
 184              	.LFE277:
 185              		.size	_writes, .-_writes
 186              		.section	.text.msObjectInit,"ax",%progbits
 187              		.align	1
 188              		.global	msObjectInit
 189              		.thumb
 190              		.thumb_func
 191              		.type	msObjectInit, %function
 192              	msObjectInit:
 193              	.LFB281:
 194              		.loc 1 104 0
 195              		.cfi_startproc
 196              		@ args = 0, pretend = 0, frame = 0
 197              		@ frame_needed = 0, uses_anonymous_args = 0
 198              	.LVL14:
 199 0000 10B5     		push	{r4, lr}
 200              		.cfi_def_cfa_offset 8
 201              		.cfi_offset 4, -8
 202              		.cfi_offset 14, -4
 203              		.loc 1 109 0
 204 0002 C360     		str	r3, [r0, #12]
 205              		.loc 1 106 0
 206 0004 034C     		ldr	r4, .L10
 207 0006 0460     		str	r4, [r0]
 208              		.loc 1 110 0
 209 0008 0023     		movs	r3, #0
 210              	.LVL15:
 211              		.loc 1 107 0
 212 000a 4160     		str	r1, [r0, #4]
 213              		.loc 1 108 0
 214 000c 8260     		str	r2, [r0, #8]
 215              		.loc 1 110 0
 216 000e 0361     		str	r3, [r0, #16]
 217 0010 10BD     		pop	{r4, pc}
 218              	.L11:
 219 0012 00BF     		.align	2
 220              	.L10:
 221 0014 00000000 		.word	.LANCHOR0
 222              		.cfi_endproc
 223              	.LFE281:
 224              		.size	msObjectInit, .-msObjectInit
 225              		.section	.rodata.vmt,"a",%progbits
 226              		.align	2
 227              		.set	.LANCHOR0,. + 0
 228              		.type	vmt, %object
ARM GAS  /tmp/ccYXQwkX.s 			page 5


 229              		.size	vmt, 16
 230              	vmt:
 231 0000 00000000 		.word	_writes
 232 0004 00000000 		.word	_reads
 233 0008 00000000 		.word	_put
 234 000c 00000000 		.word	_get
 235              		.text
 236              	.Letext0:
 237              		.file 2 "/usr/lib/gcc/arm-none-eabi/4.9.3/include/stddef.h"
 238              		.file 3 "/usr/include/newlib/machine/_default_types.h"
 239              		.file 4 "/usr/include/newlib/sys/_stdint.h"
 240              		.file 5 "../../modules/ChibiOS/os/common/ports/ARMCMx/compilers/GCC/chtypes.h"
 241              		.file 6 "../../modules/ChibiOS/os/rt/include/chsystypes.h"
 242              		.file 7 "../../modules/ChibiOS/os/rt/include/chschd.h"
 243              		.file 8 "../../modules/ChibiOS/os/common/ports/ARMCMx/chcore.h"
 244              		.file 9 "../../modules/ChibiOS/os/common/ports/ARMCMx/chcore_v7m.h"
 245              		.file 10 "../../modules/ChibiOS/os/rt/include/chtm.h"
 246              		.file 11 "../../modules/ChibiOS/os/rt/include/chstats.h"
 247              		.file 12 "../../modules/ChibiOS/os/rt/include/chsem.h"
 248              		.file 13 "../../modules/ChibiOS/os/rt/include/chmtx.h"
 249              		.file 14 "../../modules/ChibiOS/os/hal/lib/streams/memstreams.h"
 250              		.file 15 "../../modules/ChibiOS/os/common/ext/CMSIS/include/core_cm4.h"
 251              		.section	.debug_info,"",%progbits
 252              	.Ldebug_info0:
 253 0000 A50A0000 		.4byte	0xaa5
 254 0004 0400     		.2byte	0x4
 255 0006 00000000 		.4byte	.Ldebug_abbrev0
 256 000a 04       		.byte	0x4
 257 000b 01       		.uleb128 0x1
 258 000c C5010000 		.4byte	.LASF116
 259 0010 01       		.byte	0x1
 260 0011 F5040000 		.4byte	.LASF117
 261 0015 1C010000 		.4byte	.LASF118
 262 0019 00000000 		.4byte	.Ldebug_ranges0+0
 263 001d 00000000 		.4byte	0
 264 0021 00000000 		.4byte	.Ldebug_line0
 265 0025 02       		.uleb128 0x2
 266 0026 04       		.byte	0x4
 267 0027 05       		.byte	0x5
 268 0028 696E7400 		.ascii	"int\000"
 269 002c 03       		.uleb128 0x3
 270 002d 16000000 		.4byte	.LASF2
 271 0031 02       		.byte	0x2
 272 0032 D4       		.byte	0xd4
 273 0033 37000000 		.4byte	0x37
 274 0037 04       		.uleb128 0x4
 275 0038 04       		.byte	0x4
 276 0039 07       		.byte	0x7
 277 003a B8010000 		.4byte	.LASF0
 278 003e 04       		.uleb128 0x4
 279 003f 01       		.byte	0x1
 280 0040 06       		.byte	0x6
 281 0041 04010000 		.4byte	.LASF1
 282 0045 03       		.uleb128 0x3
 283 0046 40000000 		.4byte	.LASF3
 284 004a 03       		.byte	0x3
 285 004b 1D       		.byte	0x1d
ARM GAS  /tmp/ccYXQwkX.s 			page 6


 286 004c 50000000 		.4byte	0x50
 287 0050 04       		.uleb128 0x4
 288 0051 01       		.byte	0x1
 289 0052 08       		.byte	0x8
 290 0053 47040000 		.4byte	.LASF4
 291 0057 04       		.uleb128 0x4
 292 0058 02       		.byte	0x2
 293 0059 05       		.byte	0x5
 294 005a 55040000 		.4byte	.LASF5
 295 005e 04       		.uleb128 0x4
 296 005f 02       		.byte	0x2
 297 0060 07       		.byte	0x7
 298 0061 D3020000 		.4byte	.LASF6
 299 0065 03       		.uleb128 0x3
 300 0066 4E030000 		.4byte	.LASF7
 301 006a 03       		.byte	0x3
 302 006b 3F       		.byte	0x3f
 303 006c 70000000 		.4byte	0x70
 304 0070 04       		.uleb128 0x4
 305 0071 04       		.byte	0x4
 306 0072 05       		.byte	0x5
 307 0073 5A010000 		.4byte	.LASF8
 308 0077 03       		.uleb128 0x3
 309 0078 7E010000 		.4byte	.LASF9
 310 007c 03       		.byte	0x3
 311 007d 41       		.byte	0x41
 312 007e 82000000 		.4byte	0x82
 313 0082 04       		.uleb128 0x4
 314 0083 04       		.byte	0x4
 315 0084 07       		.byte	0x7
 316 0085 CC040000 		.4byte	.LASF10
 317 0089 04       		.uleb128 0x4
 318 008a 08       		.byte	0x8
 319 008b 05       		.byte	0x5
 320 008c F6000000 		.4byte	.LASF11
 321 0090 03       		.uleb128 0x3
 322 0091 F0030000 		.4byte	.LASF12
 323 0095 03       		.byte	0x3
 324 0096 5B       		.byte	0x5b
 325 0097 9B000000 		.4byte	0x9b
 326 009b 04       		.uleb128 0x4
 327 009c 08       		.byte	0x8
 328 009d 07       		.byte	0x7
 329 009e 94000000 		.4byte	.LASF13
 330 00a2 04       		.uleb128 0x4
 331 00a3 04       		.byte	0x4
 332 00a4 07       		.byte	0x7
 333 00a5 85030000 		.4byte	.LASF14
 334 00a9 05       		.uleb128 0x5
 335 00aa 04       		.byte	0x4
 336 00ab 04       		.uleb128 0x4
 337 00ac 01       		.byte	0x1
 338 00ad 08       		.byte	0x8
 339 00ae EA040000 		.4byte	.LASF15
 340 00b2 06       		.uleb128 0x6
 341 00b3 04       		.byte	0x4
 342 00b4 B8000000 		.4byte	0xb8
ARM GAS  /tmp/ccYXQwkX.s 			page 7


 343 00b8 07       		.uleb128 0x7
 344 00b9 AB000000 		.4byte	0xab
 345 00bd 03       		.uleb128 0x3
 346 00be 9B050000 		.4byte	.LASF16
 347 00c2 04       		.byte	0x4
 348 00c3 14       		.byte	0x14
 349 00c4 45000000 		.4byte	0x45
 350 00c8 03       		.uleb128 0x3
 351 00c9 3F040000 		.4byte	.LASF17
 352 00cd 04       		.byte	0x4
 353 00ce 1F       		.byte	0x1f
 354 00cf 65000000 		.4byte	0x65
 355 00d3 03       		.uleb128 0x3
 356 00d4 A6040000 		.4byte	.LASF18
 357 00d8 04       		.byte	0x4
 358 00d9 20       		.byte	0x20
 359 00da 77000000 		.4byte	0x77
 360 00de 03       		.uleb128 0x3
 361 00df 2A000000 		.4byte	.LASF19
 362 00e3 04       		.byte	0x4
 363 00e4 26       		.byte	0x26
 364 00e5 90000000 		.4byte	0x90
 365 00e9 03       		.uleb128 0x3
 366 00ea 64050000 		.4byte	.LASF20
 367 00ee 05       		.byte	0x5
 368 00ef 39       		.byte	0x39
 369 00f0 D3000000 		.4byte	0xd3
 370 00f4 03       		.uleb128 0x3
 371 00f5 00000000 		.4byte	.LASF21
 372 00f9 05       		.byte	0x5
 373 00fa 3A       		.byte	0x3a
 374 00fb DE000000 		.4byte	0xde
 375 00ff 03       		.uleb128 0x3
 376 0100 21030000 		.4byte	.LASF22
 377 0104 05       		.byte	0x5
 378 0105 3C       		.byte	0x3c
 379 0106 BD000000 		.4byte	0xbd
 380 010a 03       		.uleb128 0x3
 381 010b 63010000 		.4byte	.LASF23
 382 010f 05       		.byte	0x5
 383 0110 3D       		.byte	0x3d
 384 0111 BD000000 		.4byte	0xbd
 385 0115 03       		.uleb128 0x3
 386 0116 8D050000 		.4byte	.LASF24
 387 011a 05       		.byte	0x5
 388 011b 3E       		.byte	0x3e
 389 011c BD000000 		.4byte	0xbd
 390 0120 03       		.uleb128 0x3
 391 0121 1B040000 		.4byte	.LASF25
 392 0125 05       		.byte	0x5
 393 0126 40       		.byte	0x40
 394 0127 D3000000 		.4byte	0xd3
 395 012b 03       		.uleb128 0x3
 396 012c FA020000 		.4byte	.LASF26
 397 0130 05       		.byte	0x5
 398 0131 41       		.byte	0x41
 399 0132 C8000000 		.4byte	0xc8
ARM GAS  /tmp/ccYXQwkX.s 			page 8


 400 0136 03       		.uleb128 0x3
 401 0137 42030000 		.4byte	.LASF27
 402 013b 05       		.byte	0x5
 403 013c 43       		.byte	0x43
 404 013d D3000000 		.4byte	0xd3
 405 0141 03       		.uleb128 0x3
 406 0142 B2010000 		.4byte	.LASF28
 407 0146 05       		.byte	0x5
 408 0147 45       		.byte	0x45
 409 0148 C8000000 		.4byte	0xc8
 410 014c 03       		.uleb128 0x3
 411 014d 05030000 		.4byte	.LASF29
 412 0151 05       		.byte	0x5
 413 0152 46       		.byte	0x46
 414 0153 D3000000 		.4byte	0xd3
 415 0157 03       		.uleb128 0x3
 416 0158 39050000 		.4byte	.LASF30
 417 015c 06       		.byte	0x6
 418 015d 33       		.byte	0x33
 419 015e D3000000 		.4byte	0xd3
 420 0162 03       		.uleb128 0x3
 421 0163 2B050000 		.4byte	.LASF31
 422 0167 06       		.byte	0x6
 423 0168 3F       		.byte	0x3f
 424 0169 6D010000 		.4byte	0x16d
 425 016d 08       		.uleb128 0x8
 426 016e F0020000 		.4byte	.LASF50
 427 0172 60       		.byte	0x60
 428 0173 07       		.byte	0x7
 429 0174 9A       		.byte	0x9a
 430 0175 58020000 		.4byte	0x258
 431 0179 09       		.uleb128 0x9
 432 017a C7020000 		.4byte	.LASF32
 433 017e 07       		.byte	0x7
 434 017f 9B       		.byte	0x9b
 435 0180 8D020000 		.4byte	0x28d
 436 0184 00       		.byte	0
 437 0185 09       		.uleb128 0x9
 438 0186 D6030000 		.4byte	.LASF33
 439 018a 07       		.byte	0x7
 440 018b 9C       		.byte	0x9c
 441 018c 20010000 		.4byte	0x120
 442 0190 08       		.byte	0x8
 443 0191 0A       		.uleb128 0xa
 444 0192 63747800 		.ascii	"ctx\000"
 445 0196 07       		.byte	0x7
 446 0197 9D       		.byte	0x9d
 447 0198 89040000 		.4byte	0x489
 448 019c 0C       		.byte	0xc
 449 019d 09       		.uleb128 0x9
 450 019e 63030000 		.4byte	.LASF34
 451 01a2 07       		.byte	0x7
 452 01a3 9F       		.byte	0x9f
 453 01a4 63020000 		.4byte	0x263
 454 01a8 10       		.byte	0x10
 455 01a9 09       		.uleb128 0x9
 456 01aa EF040000 		.4byte	.LASF35
ARM GAS  /tmp/ccYXQwkX.s 			page 9


 457 01ae 07       		.byte	0x7
 458 01af A0       		.byte	0xa0
 459 01b0 63020000 		.4byte	0x263
 460 01b4 14       		.byte	0x14
 461 01b5 09       		.uleb128 0x9
 462 01b6 EB020000 		.4byte	.LASF36
 463 01ba 07       		.byte	0x7
 464 01bb A7       		.byte	0xa7
 465 01bc B2000000 		.4byte	0xb2
 466 01c0 18       		.byte	0x18
 467 01c1 09       		.uleb128 0x9
 468 01c2 DE040000 		.4byte	.LASF37
 469 01c6 07       		.byte	0x7
 470 01c7 B0       		.byte	0xb0
 471 01c8 70070000 		.4byte	0x770
 472 01cc 1C       		.byte	0x1c
 473 01cd 09       		.uleb128 0x9
 474 01ce 54010000 		.4byte	.LASF38
 475 01d2 07       		.byte	0x7
 476 01d3 B5       		.byte	0xb5
 477 01d4 0A010000 		.4byte	0x10a
 478 01d8 20       		.byte	0x20
 479 01d9 09       		.uleb128 0x9
 480 01da A3050000 		.4byte	.LASF39
 481 01de 07       		.byte	0x7
 482 01df B9       		.byte	0xb9
 483 01e0 FF000000 		.4byte	0xff
 484 01e4 21       		.byte	0x21
 485 01e5 09       		.uleb128 0x9
 486 01e6 06040000 		.4byte	.LASF40
 487 01ea 07       		.byte	0x7
 488 01eb BE       		.byte	0xbe
 489 01ec 15010000 		.4byte	0x115
 490 01f0 22       		.byte	0x22
 491 01f1 0B       		.uleb128 0xb
 492 01f2 7500     		.ascii	"u\000"
 493 01f4 07       		.byte	0x7
 494 01f5 0F01     		.2byte	0x10f
 495 01f7 A5060000 		.4byte	0x6a5
 496 01fb 24       		.byte	0x24
 497 01fc 0C       		.uleb128 0xc
 498 01fd A2010000 		.4byte	.LASF41
 499 0201 07       		.byte	0x7
 500 0202 1401     		.2byte	0x114
 501 0204 69020000 		.4byte	0x269
 502 0208 28       		.byte	0x28
 503 0209 0C       		.uleb128 0xc
 504 020a 4B010000 		.4byte	.LASF42
 505 020e 07       		.byte	0x7
 506 020f 1A01     		.2byte	0x11a
 507 0211 8D020000 		.4byte	0x28d
 508 0215 2C       		.byte	0x2c
 509 0216 0C       		.uleb128 0xc
 510 0217 0C030000 		.4byte	.LASF43
 511 021b 07       		.byte	0x7
 512 021c 2001     		.2byte	0x120
 513 021e 36010000 		.4byte	0x136
ARM GAS  /tmp/ccYXQwkX.s 			page 10


 514 0222 34       		.byte	0x34
 515 0223 0C       		.uleb128 0xc
 516 0224 C4050000 		.4byte	.LASF44
 517 0228 07       		.byte	0x7
 518 0229 2701     		.2byte	0x127
 519 022b 6A070000 		.4byte	0x76a
 520 022f 38       		.byte	0x38
 521 0230 0C       		.uleb128 0xc
 522 0231 7C030000 		.4byte	.LASF45
 523 0235 07       		.byte	0x7
 524 0236 2B01     		.2byte	0x12b
 525 0238 20010000 		.4byte	0x120
 526 023c 3C       		.byte	0x3c
 527 023d 0C       		.uleb128 0xc
 528 023e CD020000 		.4byte	.LASF46
 529 0242 07       		.byte	0x7
 530 0243 3201     		.2byte	0x132
 531 0245 A9000000 		.4byte	0xa9
 532 0249 40       		.byte	0x40
 533 024a 0C       		.uleb128 0xc
 534 024b 71010000 		.4byte	.LASF47
 535 024f 07       		.byte	0x7
 536 0250 3801     		.2byte	0x138
 537 0252 56060000 		.4byte	0x656
 538 0256 48       		.byte	0x48
 539 0257 00       		.byte	0
 540 0258 03       		.uleb128 0x3
 541 0259 8E030000 		.4byte	.LASF48
 542 025d 06       		.byte	0x6
 543 025e 44       		.byte	0x44
 544 025f 63020000 		.4byte	0x263
 545 0263 06       		.uleb128 0x6
 546 0264 04       		.byte	0x4
 547 0265 62010000 		.4byte	0x162
 548 0269 03       		.uleb128 0x3
 549 026a B5050000 		.4byte	.LASF49
 550 026e 06       		.byte	0x6
 551 026f 49       		.byte	0x49
 552 0270 74020000 		.4byte	0x274
 553 0274 08       		.uleb128 0x8
 554 0275 B6040000 		.4byte	.LASF51
 555 0279 04       		.byte	0x4
 556 027a 07       		.byte	0x7
 557 027b 88       		.byte	0x88
 558 027c 8D020000 		.4byte	0x28d
 559 0280 09       		.uleb128 0x9
 560 0281 EA000000 		.4byte	.LASF52
 561 0285 07       		.byte	0x7
 562 0286 89       		.byte	0x89
 563 0287 63020000 		.4byte	0x263
 564 028b 00       		.byte	0
 565 028c 00       		.byte	0
 566 028d 03       		.uleb128 0x3
 567 028e 74050000 		.4byte	.LASF53
 568 0292 06       		.byte	0x6
 569 0293 50       		.byte	0x50
 570 0294 98020000 		.4byte	0x298
ARM GAS  /tmp/ccYXQwkX.s 			page 11


 571 0298 08       		.uleb128 0x8
 572 0299 5B000000 		.4byte	.LASF54
 573 029d 08       		.byte	0x8
 574 029e 07       		.byte	0x7
 575 029f 8F       		.byte	0x8f
 576 02a0 BD020000 		.4byte	0x2bd
 577 02a4 09       		.uleb128 0x9
 578 02a5 EA000000 		.4byte	.LASF52
 579 02a9 07       		.byte	0x7
 580 02aa 90       		.byte	0x90
 581 02ab 63020000 		.4byte	0x263
 582 02af 00       		.byte	0
 583 02b0 09       		.uleb128 0x9
 584 02b1 4A000000 		.4byte	.LASF55
 585 02b5 07       		.byte	0x7
 586 02b6 91       		.byte	0x91
 587 02b7 63020000 		.4byte	0x263
 588 02bb 04       		.byte	0x4
 589 02bc 00       		.byte	0
 590 02bd 03       		.uleb128 0x3
 591 02be 09000000 		.4byte	.LASF56
 592 02c2 06       		.byte	0x6
 593 02c3 57       		.byte	0x57
 594 02c4 C8020000 		.4byte	0x2c8
 595 02c8 0D       		.uleb128 0xd
 596 02c9 34030000 		.4byte	.LASF57
 597 02cd 1C       		.byte	0x1c
 598 02ce 07       		.byte	0x7
 599 02cf 6A01     		.2byte	0x16a
 600 02d1 24030000 		.4byte	0x324
 601 02d5 0C       		.uleb128 0xc
 602 02d6 C7020000 		.4byte	.LASF32
 603 02da 07       		.byte	0x7
 604 02db 6B01     		.2byte	0x16b
 605 02dd 8D020000 		.4byte	0x28d
 606 02e1 00       		.byte	0
 607 02e2 0C       		.uleb128 0xc
 608 02e3 D6030000 		.4byte	.LASF33
 609 02e7 07       		.byte	0x7
 610 02e8 6C01     		.2byte	0x16c
 611 02ea 20010000 		.4byte	0x120
 612 02ee 08       		.byte	0x8
 613 02ef 0B       		.uleb128 0xb
 614 02f0 63747800 		.ascii	"ctx\000"
 615 02f4 07       		.byte	0x7
 616 02f5 6E01     		.2byte	0x16e
 617 02f7 89040000 		.4byte	0x489
 618 02fb 0C       		.byte	0xc
 619 02fc 0C       		.uleb128 0xc
 620 02fd 63030000 		.4byte	.LASF34
 621 0301 07       		.byte	0x7
 622 0302 7101     		.2byte	0x171
 623 0304 63020000 		.4byte	0x263
 624 0308 10       		.byte	0x10
 625 0309 0C       		.uleb128 0xc
 626 030a EF040000 		.4byte	.LASF35
 627 030e 07       		.byte	0x7
ARM GAS  /tmp/ccYXQwkX.s 			page 12


 628 030f 7201     		.2byte	0x172
 629 0311 63020000 		.4byte	0x263
 630 0315 14       		.byte	0x14
 631 0316 0C       		.uleb128 0xc
 632 0317 DB030000 		.4byte	.LASF58
 633 031b 07       		.byte	0x7
 634 031c 7501     		.2byte	0x175
 635 031e 63020000 		.4byte	0x263
 636 0322 18       		.byte	0x18
 637 0323 00       		.byte	0
 638 0324 03       		.uleb128 0x3
 639 0325 43050000 		.4byte	.LASF59
 640 0329 06       		.byte	0x6
 641 032a 5C       		.byte	0x5c
 642 032b 2F030000 		.4byte	0x32f
 643 032f 06       		.uleb128 0x6
 644 0330 04       		.byte	0x4
 645 0331 35030000 		.4byte	0x335
 646 0335 0E       		.uleb128 0xe
 647 0336 40030000 		.4byte	0x340
 648 033a 0F       		.uleb128 0xf
 649 033b A9000000 		.4byte	0xa9
 650 033f 00       		.byte	0
 651 0340 03       		.uleb128 0x3
 652 0341 0B040000 		.4byte	.LASF60
 653 0345 06       		.byte	0x6
 654 0346 61       		.byte	0x61
 655 0347 4B030000 		.4byte	0x34b
 656 034b 0D       		.uleb128 0xd
 657 034c 88040000 		.4byte	.LASF61
 658 0350 14       		.byte	0x14
 659 0351 07       		.byte	0x7
 660 0352 4501     		.2byte	0x145
 661 0354 9A030000 		.4byte	0x39a
 662 0358 0C       		.uleb128 0xc
 663 0359 EA000000 		.4byte	.LASF52
 664 035d 07       		.byte	0x7
 665 035e 4601     		.2byte	0x146
 666 0360 76070000 		.4byte	0x776
 667 0364 00       		.byte	0
 668 0365 0C       		.uleb128 0xc
 669 0366 4A000000 		.4byte	.LASF55
 670 036a 07       		.byte	0x7
 671 036b 4701     		.2byte	0x147
 672 036d 76070000 		.4byte	0x776
 673 0371 04       		.byte	0x4
 674 0372 0C       		.uleb128 0xc
 675 0373 1D000000 		.4byte	.LASF62
 676 0377 07       		.byte	0x7
 677 0378 4801     		.2byte	0x148
 678 037a 57010000 		.4byte	0x157
 679 037e 08       		.byte	0x8
 680 037f 0C       		.uleb128 0xc
 681 0380 6C010000 		.4byte	.LASF63
 682 0384 07       		.byte	0x7
 683 0385 4901     		.2byte	0x149
 684 0387 24030000 		.4byte	0x324
ARM GAS  /tmp/ccYXQwkX.s 			page 13


 685 038b 0C       		.byte	0xc
 686 038c 0B       		.uleb128 0xb
 687 038d 70617200 		.ascii	"par\000"
 688 0391 07       		.byte	0x7
 689 0392 4B01     		.2byte	0x14b
 690 0394 A9000000 		.4byte	0xa9
 691 0398 10       		.byte	0x10
 692 0399 00       		.byte	0
 693 039a 03       		.uleb128 0x3
 694 039b C7000000 		.4byte	.LASF64
 695 039f 06       		.byte	0x6
 696 03a0 66       		.byte	0x66
 697 03a1 A5030000 		.4byte	0x3a5
 698 03a5 0D       		.uleb128 0xd
 699 03a6 A1030000 		.4byte	.LASF65
 700 03aa 10       		.byte	0x10
 701 03ab 07       		.byte	0x7
 702 03ac 5501     		.2byte	0x155
 703 03ae E7030000 		.4byte	0x3e7
 704 03b2 0C       		.uleb128 0xc
 705 03b3 EA000000 		.4byte	.LASF52
 706 03b7 07       		.byte	0x7
 707 03b8 5601     		.2byte	0x156
 708 03ba 76070000 		.4byte	0x776
 709 03be 00       		.byte	0
 710 03bf 0C       		.uleb128 0xc
 711 03c0 4A000000 		.4byte	.LASF55
 712 03c4 07       		.byte	0x7
 713 03c5 5801     		.2byte	0x158
 714 03c7 76070000 		.4byte	0x776
 715 03cb 04       		.byte	0x4
 716 03cc 0C       		.uleb128 0xc
 717 03cd 1D000000 		.4byte	.LASF62
 718 03d1 07       		.byte	0x7
 719 03d2 5A01     		.2byte	0x15a
 720 03d4 57010000 		.4byte	0x157
 721 03d8 08       		.byte	0x8
 722 03d9 0C       		.uleb128 0xc
 723 03da 5F040000 		.4byte	.LASF66
 724 03de 07       		.byte	0x7
 725 03df 6201     		.2byte	0x162
 726 03e1 57010000 		.4byte	0x157
 727 03e5 0C       		.byte	0xc
 728 03e6 00       		.byte	0
 729 03e7 03       		.uleb128 0x3
 730 03e8 6C000000 		.4byte	.LASF67
 731 03ec 06       		.byte	0x6
 732 03ed 6B       		.byte	0x6b
 733 03ee F2030000 		.4byte	0x3f2
 734 03f2 0D       		.uleb128 0xd
 735 03f3 92010000 		.4byte	.LASF68
 736 03f7 04       		.byte	0x4
 737 03f8 07       		.byte	0x7
 738 03f9 7C01     		.2byte	0x17c
 739 03fb 0D040000 		.4byte	0x40d
 740 03ff 0C       		.uleb128 0xc
 741 0400 4C050000 		.4byte	.LASF69
ARM GAS  /tmp/ccYXQwkX.s 			page 14


 742 0404 07       		.byte	0x7
 743 0405 8401     		.2byte	0x184
 744 0407 7C070000 		.4byte	0x77c
 745 040b 00       		.byte	0
 746 040c 00       		.byte	0
 747 040d 03       		.uleb128 0x3
 748 040e 15030000 		.4byte	.LASF70
 749 0412 06       		.byte	0x6
 750 0413 70       		.byte	0x70
 751 0414 18040000 		.4byte	0x418
 752 0418 0D       		.uleb128 0xd
 753 0419 6F040000 		.4byte	.LASF71
 754 041d D0       		.byte	0xd0
 755 041e 07       		.byte	0x7
 756 041f 9C01     		.2byte	0x19c
 757 0421 73040000 		.4byte	0x473
 758 0425 0C       		.uleb128 0xc
 759 0426 95050000 		.4byte	.LASF72
 760 042a 07       		.byte	0x7
 761 042b A001     		.2byte	0x1a0
 762 042d BD020000 		.4byte	0x2bd
 763 0431 00       		.byte	0
 764 0432 0C       		.uleb128 0xc
 765 0433 15010000 		.4byte	.LASF73
 766 0437 07       		.byte	0x7
 767 0438 A401     		.2byte	0x1a4
 768 043a 9A030000 		.4byte	0x39a
 769 043e 1C       		.byte	0x1c
 770 043f 0B       		.uleb128 0xb
 771 0440 64626700 		.ascii	"dbg\000"
 772 0444 07       		.byte	0x7
 773 0445 A801     		.2byte	0x1a8
 774 0447 E7030000 		.4byte	0x3e7
 775 044b 2C       		.byte	0x2c
 776 044c 0C       		.uleb128 0xc
 777 044d B4000000 		.4byte	.LASF74
 778 0451 07       		.byte	0x7
 779 0452 AC01     		.2byte	0x1ac
 780 0454 62010000 		.4byte	0x162
 781 0458 30       		.byte	0x30
 782 0459 0B       		.uleb128 0xb
 783 045a 746D00   		.ascii	"tm\000"
 784 045d 07       		.byte	0x7
 785 045e B101     		.2byte	0x1b1
 786 0460 08060000 		.4byte	0x608
 787 0464 90       		.byte	0x90
 788 0465 0C       		.uleb128 0xc
 789 0466 33000000 		.4byte	.LASF75
 790 046a 07       		.byte	0x7
 791 046b B701     		.2byte	0x1b7
 792 046d 9A060000 		.4byte	0x69a
 793 0471 98       		.byte	0x98
 794 0472 00       		.byte	0
 795 0473 03       		.uleb128 0x3
 796 0474 89010000 		.4byte	.LASF76
 797 0478 08       		.byte	0x8
 798 0479 65       		.byte	0x65
ARM GAS  /tmp/ccYXQwkX.s 			page 15


 799 047a A9000000 		.4byte	0xa9
 800 047e 03       		.uleb128 0x3
 801 047f 58030000 		.4byte	.LASF77
 802 0483 08       		.byte	0x8
 803 0484 6D       		.byte	0x6d
 804 0485 DE000000 		.4byte	0xde
 805 0489 08       		.uleb128 0x8
 806 048a B8030000 		.4byte	.LASF78
 807 048e 04       		.byte	0x4
 808 048f 08       		.byte	0x8
 809 0490 89       		.byte	0x89
 810 0491 A1040000 		.4byte	0x4a1
 811 0495 0A       		.uleb128 0xa
 812 0496 737000   		.ascii	"sp\000"
 813 0499 08       		.byte	0x8
 814 049a 8A       		.byte	0x8a
 815 049b ED050000 		.4byte	0x5ed
 816 049f 00       		.byte	0
 817 04a0 00       		.byte	0
 818 04a1 0D       		.uleb128 0xd
 819 04a2 4F000000 		.4byte	.LASF79
 820 04a6 64       		.byte	0x64
 821 04a7 09       		.byte	0x9
 822 04a8 5901     		.2byte	0x159
 823 04aa ED050000 		.4byte	0x5ed
 824 04ae 0B       		.uleb128 0xb
 825 04af 73313600 		.ascii	"s16\000"
 826 04b3 09       		.byte	0x9
 827 04b4 5B01     		.2byte	0x15b
 828 04b6 73040000 		.4byte	0x473
 829 04ba 00       		.byte	0
 830 04bb 0B       		.uleb128 0xb
 831 04bc 73313700 		.ascii	"s17\000"
 832 04c0 09       		.byte	0x9
 833 04c1 5C01     		.2byte	0x15c
 834 04c3 73040000 		.4byte	0x473
 835 04c7 04       		.byte	0x4
 836 04c8 0B       		.uleb128 0xb
 837 04c9 73313800 		.ascii	"s18\000"
 838 04cd 09       		.byte	0x9
 839 04ce 5D01     		.2byte	0x15d
 840 04d0 73040000 		.4byte	0x473
 841 04d4 08       		.byte	0x8
 842 04d5 0B       		.uleb128 0xb
 843 04d6 73313900 		.ascii	"s19\000"
 844 04da 09       		.byte	0x9
 845 04db 5E01     		.2byte	0x15e
 846 04dd 73040000 		.4byte	0x473
 847 04e1 0C       		.byte	0xc
 848 04e2 0B       		.uleb128 0xb
 849 04e3 73323000 		.ascii	"s20\000"
 850 04e7 09       		.byte	0x9
 851 04e8 5F01     		.2byte	0x15f
 852 04ea 73040000 		.4byte	0x473
 853 04ee 10       		.byte	0x10
 854 04ef 0B       		.uleb128 0xb
 855 04f0 73323100 		.ascii	"s21\000"
ARM GAS  /tmp/ccYXQwkX.s 			page 16


 856 04f4 09       		.byte	0x9
 857 04f5 6001     		.2byte	0x160
 858 04f7 73040000 		.4byte	0x473
 859 04fb 14       		.byte	0x14
 860 04fc 0B       		.uleb128 0xb
 861 04fd 73323200 		.ascii	"s22\000"
 862 0501 09       		.byte	0x9
 863 0502 6101     		.2byte	0x161
 864 0504 73040000 		.4byte	0x473
 865 0508 18       		.byte	0x18
 866 0509 0B       		.uleb128 0xb
 867 050a 73323300 		.ascii	"s23\000"
 868 050e 09       		.byte	0x9
 869 050f 6201     		.2byte	0x162
 870 0511 73040000 		.4byte	0x473
 871 0515 1C       		.byte	0x1c
 872 0516 0B       		.uleb128 0xb
 873 0517 73323400 		.ascii	"s24\000"
 874 051b 09       		.byte	0x9
 875 051c 6301     		.2byte	0x163
 876 051e 73040000 		.4byte	0x473
 877 0522 20       		.byte	0x20
 878 0523 0B       		.uleb128 0xb
 879 0524 73323500 		.ascii	"s25\000"
 880 0528 09       		.byte	0x9
 881 0529 6401     		.2byte	0x164
 882 052b 73040000 		.4byte	0x473
 883 052f 24       		.byte	0x24
 884 0530 0B       		.uleb128 0xb
 885 0531 73323600 		.ascii	"s26\000"
 886 0535 09       		.byte	0x9
 887 0536 6501     		.2byte	0x165
 888 0538 73040000 		.4byte	0x473
 889 053c 28       		.byte	0x28
 890 053d 0B       		.uleb128 0xb
 891 053e 73323700 		.ascii	"s27\000"
 892 0542 09       		.byte	0x9
 893 0543 6601     		.2byte	0x166
 894 0545 73040000 		.4byte	0x473
 895 0549 2C       		.byte	0x2c
 896 054a 0B       		.uleb128 0xb
 897 054b 73323800 		.ascii	"s28\000"
 898 054f 09       		.byte	0x9
 899 0550 6701     		.2byte	0x167
 900 0552 73040000 		.4byte	0x473
 901 0556 30       		.byte	0x30
 902 0557 0B       		.uleb128 0xb
 903 0558 73323900 		.ascii	"s29\000"
 904 055c 09       		.byte	0x9
 905 055d 6801     		.2byte	0x168
 906 055f 73040000 		.4byte	0x473
 907 0563 34       		.byte	0x34
 908 0564 0B       		.uleb128 0xb
 909 0565 73333000 		.ascii	"s30\000"
 910 0569 09       		.byte	0x9
 911 056a 6901     		.2byte	0x169
 912 056c 73040000 		.4byte	0x473
ARM GAS  /tmp/ccYXQwkX.s 			page 17


 913 0570 38       		.byte	0x38
 914 0571 0B       		.uleb128 0xb
 915 0572 73333100 		.ascii	"s31\000"
 916 0576 09       		.byte	0x9
 917 0577 6A01     		.2byte	0x16a
 918 0579 73040000 		.4byte	0x473
 919 057d 3C       		.byte	0x3c
 920 057e 0B       		.uleb128 0xb
 921 057f 723400   		.ascii	"r4\000"
 922 0582 09       		.byte	0x9
 923 0583 6C01     		.2byte	0x16c
 924 0585 73040000 		.4byte	0x473
 925 0589 40       		.byte	0x40
 926 058a 0B       		.uleb128 0xb
 927 058b 723500   		.ascii	"r5\000"
 928 058e 09       		.byte	0x9
 929 058f 6D01     		.2byte	0x16d
 930 0591 73040000 		.4byte	0x473
 931 0595 44       		.byte	0x44
 932 0596 0B       		.uleb128 0xb
 933 0597 723600   		.ascii	"r6\000"
 934 059a 09       		.byte	0x9
 935 059b 6E01     		.2byte	0x16e
 936 059d 73040000 		.4byte	0x473
 937 05a1 48       		.byte	0x48
 938 05a2 0B       		.uleb128 0xb
 939 05a3 723700   		.ascii	"r7\000"
 940 05a6 09       		.byte	0x9
 941 05a7 6F01     		.2byte	0x16f
 942 05a9 73040000 		.4byte	0x473
 943 05ad 4C       		.byte	0x4c
 944 05ae 0B       		.uleb128 0xb
 945 05af 723800   		.ascii	"r8\000"
 946 05b2 09       		.byte	0x9
 947 05b3 7001     		.2byte	0x170
 948 05b5 73040000 		.4byte	0x473
 949 05b9 50       		.byte	0x50
 950 05ba 0B       		.uleb128 0xb
 951 05bb 723900   		.ascii	"r9\000"
 952 05be 09       		.byte	0x9
 953 05bf 7101     		.2byte	0x171
 954 05c1 73040000 		.4byte	0x473
 955 05c5 54       		.byte	0x54
 956 05c6 0B       		.uleb128 0xb
 957 05c7 72313000 		.ascii	"r10\000"
 958 05cb 09       		.byte	0x9
 959 05cc 7201     		.2byte	0x172
 960 05ce 73040000 		.4byte	0x473
 961 05d2 58       		.byte	0x58
 962 05d3 0B       		.uleb128 0xb
 963 05d4 72313100 		.ascii	"r11\000"
 964 05d8 09       		.byte	0x9
 965 05d9 7301     		.2byte	0x173
 966 05db 73040000 		.4byte	0x473
 967 05df 5C       		.byte	0x5c
 968 05e0 0B       		.uleb128 0xb
 969 05e1 6C7200   		.ascii	"lr\000"
ARM GAS  /tmp/ccYXQwkX.s 			page 18


 970 05e4 09       		.byte	0x9
 971 05e5 7401     		.2byte	0x174
 972 05e7 73040000 		.4byte	0x473
 973 05eb 60       		.byte	0x60
 974 05ec 00       		.byte	0
 975 05ed 06       		.uleb128 0x6
 976 05ee 04       		.byte	0x4
 977 05ef A1040000 		.4byte	0x4a1
 978 05f3 10       		.uleb128 0x10
 979 05f4 04       		.byte	0x4
 980 05f5 0A       		.byte	0xa
 981 05f6 38       		.byte	0x38
 982 05f7 08060000 		.4byte	0x608
 983 05fb 09       		.uleb128 0x9
 984 05fc 56050000 		.4byte	.LASF80
 985 0600 0A       		.byte	0xa
 986 0601 3C       		.byte	0x3c
 987 0602 E9000000 		.4byte	0xe9
 988 0606 00       		.byte	0
 989 0607 00       		.byte	0
 990 0608 03       		.uleb128 0x3
 991 0609 C5030000 		.4byte	.LASF81
 992 060d 0A       		.byte	0xa
 993 060e 3D       		.byte	0x3d
 994 060f F3050000 		.4byte	0x5f3
 995 0613 10       		.uleb128 0x10
 996 0614 18       		.byte	0x18
 997 0615 0A       		.byte	0xa
 998 0616 48       		.byte	0x48
 999 0617 56060000 		.4byte	0x656
 1000 061b 09       		.uleb128 0x9
 1001 061c 34050000 		.4byte	.LASF82
 1002 0620 0A       		.byte	0xa
 1003 0621 49       		.byte	0x49
 1004 0622 E9000000 		.4byte	0xe9
 1005 0626 00       		.byte	0
 1006 0627 09       		.uleb128 0x9
 1007 0628 7B000000 		.4byte	.LASF83
 1008 062c 0A       		.byte	0xa
 1009 062d 4A       		.byte	0x4a
 1010 062e E9000000 		.4byte	0xe9
 1011 0632 04       		.byte	0x4
 1012 0633 09       		.uleb128 0x9
 1013 0634 00030000 		.4byte	.LASF84
 1014 0638 0A       		.byte	0xa
 1015 0639 4B       		.byte	0x4b
 1016 063a E9000000 		.4byte	0xe9
 1017 063e 08       		.byte	0x8
 1018 063f 0A       		.uleb128 0xa
 1019 0640 6E00     		.ascii	"n\000"
 1020 0642 0A       		.byte	0xa
 1021 0643 4C       		.byte	0x4c
 1022 0644 4C010000 		.4byte	0x14c
 1023 0648 0C       		.byte	0xc
 1024 0649 09       		.uleb128 0x9
 1025 064a FB030000 		.4byte	.LASF85
 1026 064e 0A       		.byte	0xa
ARM GAS  /tmp/ccYXQwkX.s 			page 19


 1027 064f 4D       		.byte	0x4d
 1028 0650 F4000000 		.4byte	0xf4
 1029 0654 10       		.byte	0x10
 1030 0655 00       		.byte	0
 1031 0656 03       		.uleb128 0x3
 1032 0657 81000000 		.4byte	.LASF86
 1033 065b 0A       		.byte	0xa
 1034 065c 4E       		.byte	0x4e
 1035 065d 13060000 		.4byte	0x613
 1036 0661 10       		.uleb128 0x10
 1037 0662 38       		.byte	0x38
 1038 0663 0B       		.byte	0xb
 1039 0664 38       		.byte	0x38
 1040 0665 9A060000 		.4byte	0x69a
 1041 0669 09       		.uleb128 0x9
 1042 066a C1020000 		.4byte	.LASF87
 1043 066e 0B       		.byte	0xb
 1044 066f 39       		.byte	0x39
 1045 0670 4C010000 		.4byte	0x14c
 1046 0674 00       		.byte	0
 1047 0675 09       		.uleb128 0x9
 1048 0676 30040000 		.4byte	.LASF88
 1049 067a 0B       		.byte	0xb
 1050 067b 3A       		.byte	0x3a
 1051 067c 4C010000 		.4byte	0x14c
 1052 0680 04       		.byte	0x4
 1053 0681 09       		.uleb128 0x9
 1054 0682 CC050000 		.4byte	.LASF89
 1055 0686 0B       		.byte	0xb
 1056 0687 3B       		.byte	0x3b
 1057 0688 56060000 		.4byte	0x656
 1058 068c 08       		.byte	0x8
 1059 068d 09       		.uleb128 0x9
 1060 068e 29030000 		.4byte	.LASF90
 1061 0692 0B       		.byte	0xb
 1062 0693 3D       		.byte	0x3d
 1063 0694 56060000 		.4byte	0x656
 1064 0698 20       		.byte	0x20
 1065 0699 00       		.byte	0
 1066 069a 03       		.uleb128 0x3
 1067 069b 79040000 		.4byte	.LASF91
 1068 069f 0B       		.byte	0xb
 1069 06a0 3F       		.byte	0x3f
 1070 06a1 61060000 		.4byte	0x661
 1071 06a5 11       		.uleb128 0x11
 1072 06a6 04       		.byte	0x4
 1073 06a7 07       		.byte	0x7
 1074 06a8 D2       		.byte	0xd2
 1075 06a9 08070000 		.4byte	0x708
 1076 06ad 12       		.uleb128 0x12
 1077 06ae 23000000 		.4byte	.LASF92
 1078 06b2 07       		.byte	0x7
 1079 06b3 D9       		.byte	0xd9
 1080 06b4 2B010000 		.4byte	0x12b
 1081 06b8 12       		.uleb128 0x12
 1082 06b9 AB000000 		.4byte	.LASF93
 1083 06bd 07       		.byte	0x7
ARM GAS  /tmp/ccYXQwkX.s 			page 20


 1084 06be E0       		.byte	0xe0
 1085 06bf 2B010000 		.4byte	0x12b
 1086 06c3 12       		.uleb128 0x12
 1087 06c4 AE050000 		.4byte	.LASF94
 1088 06c8 07       		.byte	0x7
 1089 06c9 E7       		.byte	0xe7
 1090 06ca A9000000 		.4byte	0xa9
 1091 06ce 12       		.uleb128 0x12
 1092 06cf BB020000 		.4byte	.LASF95
 1093 06d3 07       		.byte	0x7
 1094 06d4 EE       		.byte	0xee
 1095 06d5 08070000 		.4byte	0x708
 1096 06d9 12       		.uleb128 0x12
 1097 06da BF000000 		.4byte	.LASF96
 1098 06de 07       		.byte	0x7
 1099 06df F3       		.byte	0xf3
 1100 06e0 2B010000 		.4byte	0x12b
 1101 06e4 12       		.uleb128 0x12
 1102 06e5 B4020000 		.4byte	.LASF97
 1103 06e9 07       		.byte	0x7
 1104 06ea FC       		.byte	0xfc
 1105 06eb 33070000 		.4byte	0x733
 1106 06ef 13       		.uleb128 0x13
 1107 06f0 AF040000 		.4byte	.LASF98
 1108 06f4 07       		.byte	0x7
 1109 06f5 0501     		.2byte	0x105
 1110 06f7 6A070000 		.4byte	0x76a
 1111 06fb 13       		.uleb128 0x13
 1112 06fc 68040000 		.4byte	.LASF99
 1113 0700 07       		.byte	0x7
 1114 0701 0D01     		.2byte	0x10d
 1115 0703 36010000 		.4byte	0x136
 1116 0707 00       		.byte	0
 1117 0708 06       		.uleb128 0x6
 1118 0709 04       		.byte	0x4
 1119 070a 58020000 		.4byte	0x258
 1120 070e 08       		.uleb128 0x8
 1121 070f 99040000 		.4byte	.LASF100
 1122 0713 0C       		.byte	0xc
 1123 0714 0C       		.byte	0xc
 1124 0715 34       		.byte	0x34
 1125 0716 33070000 		.4byte	0x733
 1126 071a 09       		.uleb128 0x9
 1127 071b C7020000 		.4byte	.LASF32
 1128 071f 0C       		.byte	0xc
 1129 0720 35       		.byte	0x35
 1130 0721 8D020000 		.4byte	0x28d
 1131 0725 00       		.byte	0
 1132 0726 0A       		.uleb128 0xa
 1133 0727 636E7400 		.ascii	"cnt\000"
 1134 072b 0C       		.byte	0xc
 1135 072c 37       		.byte	0x37
 1136 072d 41010000 		.4byte	0x141
 1137 0731 08       		.byte	0x8
 1138 0732 00       		.byte	0
 1139 0733 06       		.uleb128 0x6
 1140 0734 04       		.byte	0x4
ARM GAS  /tmp/ccYXQwkX.s 			page 21


 1141 0735 0E070000 		.4byte	0x70e
 1142 0739 08       		.uleb128 0x8
 1143 073a 84050000 		.4byte	.LASF101
 1144 073e 10       		.byte	0x10
 1145 073f 0D       		.byte	0xd
 1146 0740 39       		.byte	0x39
 1147 0741 6A070000 		.4byte	0x76a
 1148 0745 09       		.uleb128 0x9
 1149 0746 C7020000 		.4byte	.LASF32
 1150 074a 0D       		.byte	0xd
 1151 074b 3A       		.byte	0x3a
 1152 074c 8D020000 		.4byte	0x28d
 1153 0750 00       		.byte	0
 1154 0751 09       		.uleb128 0x9
 1155 0752 C6040000 		.4byte	.LASF102
 1156 0756 0D       		.byte	0xd
 1157 0757 3C       		.byte	0x3c
 1158 0758 63020000 		.4byte	0x263
 1159 075c 08       		.byte	0x8
 1160 075d 09       		.uleb128 0x9
 1161 075e EA000000 		.4byte	.LASF52
 1162 0762 0D       		.byte	0xd
 1163 0763 3E       		.byte	0x3e
 1164 0764 8C070000 		.4byte	0x78c
 1165 0768 0C       		.byte	0xc
 1166 0769 00       		.byte	0
 1167 076a 06       		.uleb128 0x6
 1168 076b 04       		.byte	0x4
 1169 076c 39070000 		.4byte	0x739
 1170 0770 06       		.uleb128 0x6
 1171 0771 04       		.byte	0x4
 1172 0772 7E040000 		.4byte	0x47e
 1173 0776 06       		.uleb128 0x6
 1174 0777 04       		.byte	0x4
 1175 0778 40030000 		.4byte	0x340
 1176 077c 14       		.uleb128 0x14
 1177 077d B2000000 		.4byte	0xb2
 1178 0781 03       		.uleb128 0x3
 1179 0782 AA010000 		.4byte	.LASF103
 1180 0786 0D       		.byte	0xd
 1181 0787 34       		.byte	0x34
 1182 0788 39070000 		.4byte	0x739
 1183 078c 06       		.uleb128 0x6
 1184 078d 04       		.byte	0x4
 1185 078e 81070000 		.4byte	0x781
 1186 0792 04       		.uleb128 0x4
 1187 0793 01       		.byte	0x1
 1188 0794 02       		.byte	0x2
 1189 0795 39040000 		.4byte	.LASF104
 1190 0799 15       		.uleb128 0x15
 1191 079a 2C000000 		.4byte	0x2c
 1192 079e B2070000 		.4byte	0x7b2
 1193 07a2 0F       		.uleb128 0xf
 1194 07a3 A9000000 		.4byte	0xa9
 1195 07a7 0F       		.uleb128 0xf
 1196 07a8 B2070000 		.4byte	0x7b2
 1197 07ac 0F       		.uleb128 0xf
ARM GAS  /tmp/ccYXQwkX.s 			page 22


 1198 07ad 2C000000 		.4byte	0x2c
 1199 07b1 00       		.byte	0
 1200 07b2 06       		.uleb128 0x6
 1201 07b3 04       		.byte	0x4
 1202 07b4 B8070000 		.4byte	0x7b8
 1203 07b8 07       		.uleb128 0x7
 1204 07b9 BD000000 		.4byte	0xbd
 1205 07bd 06       		.uleb128 0x6
 1206 07be 04       		.byte	0x4
 1207 07bf 99070000 		.4byte	0x799
 1208 07c3 15       		.uleb128 0x15
 1209 07c4 2C000000 		.4byte	0x2c
 1210 07c8 DC070000 		.4byte	0x7dc
 1211 07cc 0F       		.uleb128 0xf
 1212 07cd A9000000 		.4byte	0xa9
 1213 07d1 0F       		.uleb128 0xf
 1214 07d2 DC070000 		.4byte	0x7dc
 1215 07d6 0F       		.uleb128 0xf
 1216 07d7 2C000000 		.4byte	0x2c
 1217 07db 00       		.byte	0
 1218 07dc 06       		.uleb128 0x6
 1219 07dd 04       		.byte	0x4
 1220 07de BD000000 		.4byte	0xbd
 1221 07e2 06       		.uleb128 0x6
 1222 07e3 04       		.byte	0x4
 1223 07e4 C3070000 		.4byte	0x7c3
 1224 07e8 15       		.uleb128 0x15
 1225 07e9 2B010000 		.4byte	0x12b
 1226 07ed FC070000 		.4byte	0x7fc
 1227 07f1 0F       		.uleb128 0xf
 1228 07f2 A9000000 		.4byte	0xa9
 1229 07f6 0F       		.uleb128 0xf
 1230 07f7 BD000000 		.4byte	0xbd
 1231 07fb 00       		.byte	0
 1232 07fc 06       		.uleb128 0x6
 1233 07fd 04       		.byte	0x4
 1234 07fe E8070000 		.4byte	0x7e8
 1235 0802 15       		.uleb128 0x15
 1236 0803 2B010000 		.4byte	0x12b
 1237 0807 11080000 		.4byte	0x811
 1238 080b 0F       		.uleb128 0xf
 1239 080c A9000000 		.4byte	0xa9
 1240 0810 00       		.byte	0
 1241 0811 06       		.uleb128 0x6
 1242 0812 04       		.byte	0x4
 1243 0813 02080000 		.4byte	0x802
 1244 0817 08       		.uleb128 0x8
 1245 0818 E3030000 		.4byte	.LASF105
 1246 081c 10       		.byte	0x10
 1247 081d 0E       		.byte	0xe
 1248 081e 3D       		.byte	0x3d
 1249 081f 54080000 		.4byte	0x854
 1250 0823 09       		.uleb128 0x9
 1251 0824 76030000 		.4byte	.LASF106
 1252 0828 0E       		.byte	0xe
 1253 0829 3E       		.byte	0x3e
 1254 082a BD070000 		.4byte	0x7bd
ARM GAS  /tmp/ccYXQwkX.s 			page 23


 1255 082e 00       		.byte	0
 1256 082f 09       		.uleb128 0x9
 1257 0830 E5040000 		.4byte	.LASF107
 1258 0834 0E       		.byte	0xe
 1259 0835 3E       		.byte	0x3e
 1260 0836 E2070000 		.4byte	0x7e2
 1261 083a 04       		.byte	0x4
 1262 083b 0A       		.uleb128 0xa
 1263 083c 70757400 		.ascii	"put\000"
 1264 0840 0E       		.byte	0xe
 1265 0841 3E       		.byte	0x3e
 1266 0842 FC070000 		.4byte	0x7fc
 1267 0846 08       		.byte	0x8
 1268 0847 0A       		.uleb128 0xa
 1269 0848 67657400 		.ascii	"get\000"
 1270 084c 0E       		.byte	0xe
 1271 084d 3E       		.byte	0x3e
 1272 084e 11080000 		.4byte	0x811
 1273 0852 0C       		.byte	0xc
 1274 0853 00       		.byte	0
 1275 0854 10       		.uleb128 0x10
 1276 0855 14       		.byte	0x14
 1277 0856 0E       		.byte	0xe
 1278 0857 46       		.byte	0x46
 1279 0858 99080000 		.4byte	0x899
 1280 085c 0A       		.uleb128 0xa
 1281 085d 766D7400 		.ascii	"vmt\000"
 1282 0861 0E       		.byte	0xe
 1283 0862 48       		.byte	0x48
 1284 0863 99080000 		.4byte	0x899
 1285 0867 00       		.byte	0
 1286 0868 09       		.uleb128 0x9
 1287 0869 77010000 		.4byte	.LASF108
 1288 086d 0E       		.byte	0xe
 1289 086e 49       		.byte	0x49
 1290 086f DC070000 		.4byte	0x7dc
 1291 0873 04       		.byte	0x4
 1292 0874 09       		.uleb128 0x9
 1293 0875 10010000 		.4byte	.LASF109
 1294 0879 0E       		.byte	0xe
 1295 087a 49       		.byte	0x49
 1296 087b 2C000000 		.4byte	0x2c
 1297 087f 08       		.byte	0x8
 1298 0880 0A       		.uleb128 0xa
 1299 0881 656F7300 		.ascii	"eos\000"
 1300 0885 0E       		.byte	0xe
 1301 0886 49       		.byte	0x49
 1302 0887 2C000000 		.4byte	0x2c
 1303 088b 0C       		.byte	0xc
 1304 088c 09       		.uleb128 0x9
 1305 088d 56050000 		.4byte	.LASF80
 1306 0891 0E       		.byte	0xe
 1307 0892 49       		.byte	0x49
 1308 0893 2C000000 		.4byte	0x2c
 1309 0897 10       		.byte	0x10
 1310 0898 00       		.byte	0
 1311 0899 06       		.uleb128 0x6
ARM GAS  /tmp/ccYXQwkX.s 			page 24


 1312 089a 04       		.byte	0x4
 1313 089b 9F080000 		.4byte	0x89f
 1314 089f 07       		.uleb128 0x7
 1315 08a0 17080000 		.4byte	0x817
 1316 08a4 03       		.uleb128 0x3
 1317 08a5 23040000 		.4byte	.LASF110
 1318 08a9 0E       		.byte	0xe
 1319 08aa 4A       		.byte	0x4a
 1320 08ab 54080000 		.4byte	0x854
 1321 08af 16       		.uleb128 0x16
 1322 08b0 E6020000 		.4byte	.LASF111
 1323 08b4 01       		.byte	0x1
 1324 08b5 42       		.byte	0x42
 1325 08b6 2B010000 		.4byte	0x12b
 1326 08ba 00000000 		.4byte	.LFB279
 1327 08be 1C000000 		.4byte	.LFE279-.LFB279
 1328 08c2 01       		.uleb128 0x1
 1329 08c3 9C       		.byte	0x9c
 1330 08c4 F1080000 		.4byte	0x8f1
 1331 08c8 17       		.uleb128 0x17
 1332 08c9 697000   		.ascii	"ip\000"
 1333 08cc 01       		.byte	0x1
 1334 08cd 42       		.byte	0x42
 1335 08ce A9000000 		.4byte	0xa9
 1336 08d2 00000000 		.4byte	.LLST0
 1337 08d6 18       		.uleb128 0x18
 1338 08d7 6200     		.ascii	"b\000"
 1339 08d9 01       		.byte	0x1
 1340 08da 42       		.byte	0x42
 1341 08db BD000000 		.4byte	0xbd
 1342 08df 01       		.uleb128 0x1
 1343 08e0 51       		.byte	0x51
 1344 08e1 19       		.uleb128 0x19
 1345 08e2 6D737000 		.ascii	"msp\000"
 1346 08e6 01       		.byte	0x1
 1347 08e7 43       		.byte	0x43
 1348 08e8 F1080000 		.4byte	0x8f1
 1349 08ec 00000000 		.4byte	.LLST0
 1350 08f0 00       		.byte	0
 1351 08f1 06       		.uleb128 0x6
 1352 08f2 04       		.byte	0x4
 1353 08f3 A4080000 		.4byte	0x8a4
 1354 08f7 16       		.uleb128 0x16
 1355 08f8 A9050000 		.4byte	.LASF112
 1356 08fc 01       		.byte	0x1
 1357 08fd 4C       		.byte	0x4c
 1358 08fe 2B010000 		.4byte	0x12b
 1359 0902 00000000 		.4byte	.LFB280
 1360 0906 1A000000 		.4byte	.LFE280-.LFB280
 1361 090a 01       		.uleb128 0x1
 1362 090b 9C       		.byte	0x9c
 1363 090c 39090000 		.4byte	0x939
 1364 0910 17       		.uleb128 0x17
 1365 0911 697000   		.ascii	"ip\000"
 1366 0914 01       		.byte	0x1
 1367 0915 4C       		.byte	0x4c
 1368 0916 A9000000 		.4byte	0xa9
ARM GAS  /tmp/ccYXQwkX.s 			page 25


 1369 091a 21000000 		.4byte	.LLST2
 1370 091e 1A       		.uleb128 0x1a
 1371 091f 6200     		.ascii	"b\000"
 1372 0921 01       		.byte	0x1
 1373 0922 4D       		.byte	0x4d
 1374 0923 BD000000 		.4byte	0xbd
 1375 0927 01       		.uleb128 0x1
 1376 0928 52       		.byte	0x52
 1377 0929 19       		.uleb128 0x19
 1378 092a 6D737000 		.ascii	"msp\000"
 1379 092e 01       		.byte	0x1
 1380 092f 4E       		.byte	0x4e
 1381 0930 F1080000 		.4byte	0x8f1
 1382 0934 21000000 		.4byte	.LLST2
 1383 0938 00       		.byte	0
 1384 0939 16       		.uleb128 0x16
 1385 093a EF000000 		.4byte	.LASF113
 1386 093e 01       		.byte	0x1
 1387 093f 38       		.byte	0x38
 1388 0940 2C000000 		.4byte	0x2c
 1389 0944 00000000 		.4byte	.LFB278
 1390 0948 26000000 		.4byte	.LFE278-.LFB278
 1391 094c 01       		.uleb128 0x1
 1392 094d 9C       		.byte	0x9c
 1393 094e A2090000 		.4byte	0x9a2
 1394 0952 17       		.uleb128 0x17
 1395 0953 697000   		.ascii	"ip\000"
 1396 0956 01       		.byte	0x1
 1397 0957 38       		.byte	0x38
 1398 0958 A9000000 		.4byte	0xa9
 1399 095c 42000000 		.4byte	.LLST4
 1400 0960 17       		.uleb128 0x17
 1401 0961 627000   		.ascii	"bp\000"
 1402 0964 01       		.byte	0x1
 1403 0965 38       		.byte	0x38
 1404 0966 DC070000 		.4byte	0x7dc
 1405 096a 60000000 		.4byte	.LLST5
 1406 096e 17       		.uleb128 0x17
 1407 096f 6E00     		.ascii	"n\000"
 1408 0971 01       		.byte	0x1
 1409 0972 38       		.byte	0x38
 1410 0973 2C000000 		.4byte	0x2c
 1411 0977 8C000000 		.4byte	.LLST6
 1412 097b 19       		.uleb128 0x19
 1413 097c 6D737000 		.ascii	"msp\000"
 1414 0980 01       		.byte	0x1
 1415 0981 39       		.byte	0x39
 1416 0982 F1080000 		.4byte	0x8f1
 1417 0986 42000000 		.4byte	.LLST4
 1418 098a 1B       		.uleb128 0x1b
 1419 098b 1C000000 		.4byte	.LVL9
 1420 098f 840A0000 		.4byte	0xa84
 1421 0993 1C       		.uleb128 0x1c
 1422 0994 01       		.uleb128 0x1
 1423 0995 52       		.byte	0x52
 1424 0996 02       		.uleb128 0x2
 1425 0997 74       		.byte	0x74
ARM GAS  /tmp/ccYXQwkX.s 			page 26


 1426 0998 00       		.sleb128 0
 1427 0999 1C       		.uleb128 0x1c
 1428 099a 01       		.uleb128 0x1
 1429 099b 50       		.byte	0x50
 1430 099c 03       		.uleb128 0x3
 1431 099d F3       		.byte	0xf3
 1432 099e 01       		.uleb128 0x1
 1433 099f 51       		.byte	0x51
 1434 09a0 00       		.byte	0
 1435 09a1 00       		.byte	0
 1436 09a2 16       		.uleb128 0x16
 1437 09a3 6C050000 		.4byte	.LASF114
 1438 09a7 01       		.byte	0x1
 1439 09a8 2E       		.byte	0x2e
 1440 09a9 2C000000 		.4byte	0x2c
 1441 09ad 00000000 		.4byte	.LFB277
 1442 09b1 24000000 		.4byte	.LFE277-.LFB277
 1443 09b5 01       		.uleb128 0x1
 1444 09b6 9C       		.byte	0x9c
 1445 09b7 0B0A0000 		.4byte	0xa0b
 1446 09bb 17       		.uleb128 0x17
 1447 09bc 697000   		.ascii	"ip\000"
 1448 09bf 01       		.byte	0x1
 1449 09c0 2E       		.byte	0x2e
 1450 09c1 A9000000 		.4byte	0xa9
 1451 09c5 AA000000 		.4byte	.LLST8
 1452 09c9 17       		.uleb128 0x17
 1453 09ca 627000   		.ascii	"bp\000"
 1454 09cd 01       		.byte	0x1
 1455 09ce 2E       		.byte	0x2e
 1456 09cf B2070000 		.4byte	0x7b2
 1457 09d3 C8000000 		.4byte	.LLST9
 1458 09d7 17       		.uleb128 0x17
 1459 09d8 6E00     		.ascii	"n\000"
 1460 09da 01       		.byte	0x1
 1461 09db 2E       		.byte	0x2e
 1462 09dc 2C000000 		.4byte	0x2c
 1463 09e0 E9000000 		.4byte	.LLST10
 1464 09e4 19       		.uleb128 0x19
 1465 09e5 6D737000 		.ascii	"msp\000"
 1466 09e9 01       		.byte	0x1
 1467 09ea 2F       		.byte	0x2f
 1468 09eb F1080000 		.4byte	0x8f1
 1469 09ef AA000000 		.4byte	.LLST8
 1470 09f3 1B       		.uleb128 0x1b
 1471 09f4 1A000000 		.4byte	.LVL13
 1472 09f8 840A0000 		.4byte	0xa84
 1473 09fc 1C       		.uleb128 0x1c
 1474 09fd 01       		.uleb128 0x1
 1475 09fe 52       		.byte	0x52
 1476 09ff 02       		.uleb128 0x2
 1477 0a00 74       		.byte	0x74
 1478 0a01 00       		.sleb128 0
 1479 0a02 1C       		.uleb128 0x1c
 1480 0a03 01       		.uleb128 0x1
 1481 0a04 51       		.byte	0x51
 1482 0a05 03       		.uleb128 0x3
ARM GAS  /tmp/ccYXQwkX.s 			page 27


 1483 0a06 F3       		.byte	0xf3
 1484 0a07 01       		.uleb128 0x1
 1485 0a08 51       		.byte	0x51
 1486 0a09 00       		.byte	0
 1487 0a0a 00       		.byte	0
 1488 0a0b 1D       		.uleb128 0x1d
 1489 0a0c 69030000 		.4byte	.LASF119
 1490 0a10 01       		.byte	0x1
 1491 0a11 67       		.byte	0x67
 1492 0a12 00000000 		.4byte	.LFB281
 1493 0a16 18000000 		.4byte	.LFE281-.LFB281
 1494 0a1a 01       		.uleb128 0x1
 1495 0a1b 9C       		.byte	0x9c
 1496 0a1c 570A0000 		.4byte	0xa57
 1497 0a20 18       		.uleb128 0x18
 1498 0a21 6D737000 		.ascii	"msp\000"
 1499 0a25 01       		.byte	0x1
 1500 0a26 67       		.byte	0x67
 1501 0a27 F1080000 		.4byte	0x8f1
 1502 0a2b 01       		.uleb128 0x1
 1503 0a2c 50       		.byte	0x50
 1504 0a2d 1E       		.uleb128 0x1e
 1505 0a2e 77010000 		.4byte	.LASF108
 1506 0a32 01       		.byte	0x1
 1507 0a33 67       		.byte	0x67
 1508 0a34 DC070000 		.4byte	0x7dc
 1509 0a38 01       		.uleb128 0x1
 1510 0a39 51       		.byte	0x51
 1511 0a3a 1E       		.uleb128 0x1e
 1512 0a3b 10010000 		.4byte	.LASF109
 1513 0a3f 01       		.byte	0x1
 1514 0a40 68       		.byte	0x68
 1515 0a41 2C000000 		.4byte	0x2c
 1516 0a45 01       		.uleb128 0x1
 1517 0a46 52       		.byte	0x52
 1518 0a47 17       		.uleb128 0x17
 1519 0a48 656F7300 		.ascii	"eos\000"
 1520 0a4c 01       		.byte	0x1
 1521 0a4d 68       		.byte	0x68
 1522 0a4e 2C000000 		.4byte	0x2c
 1523 0a52 07010000 		.4byte	.LLST12
 1524 0a56 00       		.byte	0
 1525 0a57 1A       		.uleb128 0x1a
 1526 0a58 766D7400 		.ascii	"vmt\000"
 1527 0a5c 01       		.byte	0x1
 1528 0a5d 57       		.byte	0x57
 1529 0a5e 9F080000 		.4byte	0x89f
 1530 0a62 05       		.uleb128 0x5
 1531 0a63 03       		.byte	0x3
 1532 0a64 00000000 		.4byte	vmt
 1533 0a68 1F       		.uleb128 0x1f
 1534 0a69 DD000000 		.4byte	.LASF115
 1535 0a6d 0F       		.byte	0xf
 1536 0a6e 4407     		.2byte	0x744
 1537 0a70 740A0000 		.4byte	0xa74
 1538 0a74 14       		.uleb128 0x14
 1539 0a75 C8000000 		.4byte	0xc8
ARM GAS  /tmp/ccYXQwkX.s 			page 28


 1540 0a79 20       		.uleb128 0x20
 1541 0a7a 636800   		.ascii	"ch\000"
 1542 0a7d 07       		.byte	0x7
 1543 0a7e D201     		.2byte	0x1d2
 1544 0a80 0D040000 		.4byte	0x40d
 1545 0a84 21       		.uleb128 0x21
 1546 0a85 5D050000 		.4byte	.LASF120
 1547 0a89 A9000000 		.4byte	0xa9
 1548 0a8d A10A0000 		.4byte	0xaa1
 1549 0a91 0F       		.uleb128 0xf
 1550 0a92 A9000000 		.4byte	0xa9
 1551 0a96 0F       		.uleb128 0xf
 1552 0a97 A10A0000 		.4byte	0xaa1
 1553 0a9b 0F       		.uleb128 0xf
 1554 0a9c A2000000 		.4byte	0xa2
 1555 0aa0 00       		.byte	0
 1556 0aa1 06       		.uleb128 0x6
 1557 0aa2 04       		.byte	0x4
 1558 0aa3 A70A0000 		.4byte	0xaa7
 1559 0aa7 22       		.uleb128 0x22
 1560 0aa8 00       		.byte	0
 1561              		.section	.debug_abbrev,"",%progbits
 1562              	.Ldebug_abbrev0:
 1563 0000 01       		.uleb128 0x1
 1564 0001 11       		.uleb128 0x11
 1565 0002 01       		.byte	0x1
 1566 0003 25       		.uleb128 0x25
 1567 0004 0E       		.uleb128 0xe
 1568 0005 13       		.uleb128 0x13
 1569 0006 0B       		.uleb128 0xb
 1570 0007 03       		.uleb128 0x3
 1571 0008 0E       		.uleb128 0xe
 1572 0009 1B       		.uleb128 0x1b
 1573 000a 0E       		.uleb128 0xe
 1574 000b 55       		.uleb128 0x55
 1575 000c 17       		.uleb128 0x17
 1576 000d 11       		.uleb128 0x11
 1577 000e 01       		.uleb128 0x1
 1578 000f 10       		.uleb128 0x10
 1579 0010 17       		.uleb128 0x17
 1580 0011 00       		.byte	0
 1581 0012 00       		.byte	0
 1582 0013 02       		.uleb128 0x2
 1583 0014 24       		.uleb128 0x24
 1584 0015 00       		.byte	0
 1585 0016 0B       		.uleb128 0xb
 1586 0017 0B       		.uleb128 0xb
 1587 0018 3E       		.uleb128 0x3e
 1588 0019 0B       		.uleb128 0xb
 1589 001a 03       		.uleb128 0x3
 1590 001b 08       		.uleb128 0x8
 1591 001c 00       		.byte	0
 1592 001d 00       		.byte	0
 1593 001e 03       		.uleb128 0x3
 1594 001f 16       		.uleb128 0x16
 1595 0020 00       		.byte	0
 1596 0021 03       		.uleb128 0x3
ARM GAS  /tmp/ccYXQwkX.s 			page 29


 1597 0022 0E       		.uleb128 0xe
 1598 0023 3A       		.uleb128 0x3a
 1599 0024 0B       		.uleb128 0xb
 1600 0025 3B       		.uleb128 0x3b
 1601 0026 0B       		.uleb128 0xb
 1602 0027 49       		.uleb128 0x49
 1603 0028 13       		.uleb128 0x13
 1604 0029 00       		.byte	0
 1605 002a 00       		.byte	0
 1606 002b 04       		.uleb128 0x4
 1607 002c 24       		.uleb128 0x24
 1608 002d 00       		.byte	0
 1609 002e 0B       		.uleb128 0xb
 1610 002f 0B       		.uleb128 0xb
 1611 0030 3E       		.uleb128 0x3e
 1612 0031 0B       		.uleb128 0xb
 1613 0032 03       		.uleb128 0x3
 1614 0033 0E       		.uleb128 0xe
 1615 0034 00       		.byte	0
 1616 0035 00       		.byte	0
 1617 0036 05       		.uleb128 0x5
 1618 0037 0F       		.uleb128 0xf
 1619 0038 00       		.byte	0
 1620 0039 0B       		.uleb128 0xb
 1621 003a 0B       		.uleb128 0xb
 1622 003b 00       		.byte	0
 1623 003c 00       		.byte	0
 1624 003d 06       		.uleb128 0x6
 1625 003e 0F       		.uleb128 0xf
 1626 003f 00       		.byte	0
 1627 0040 0B       		.uleb128 0xb
 1628 0041 0B       		.uleb128 0xb
 1629 0042 49       		.uleb128 0x49
 1630 0043 13       		.uleb128 0x13
 1631 0044 00       		.byte	0
 1632 0045 00       		.byte	0
 1633 0046 07       		.uleb128 0x7
 1634 0047 26       		.uleb128 0x26
 1635 0048 00       		.byte	0
 1636 0049 49       		.uleb128 0x49
 1637 004a 13       		.uleb128 0x13
 1638 004b 00       		.byte	0
 1639 004c 00       		.byte	0
 1640 004d 08       		.uleb128 0x8
 1641 004e 13       		.uleb128 0x13
 1642 004f 01       		.byte	0x1
 1643 0050 03       		.uleb128 0x3
 1644 0051 0E       		.uleb128 0xe
 1645 0052 0B       		.uleb128 0xb
 1646 0053 0B       		.uleb128 0xb
 1647 0054 3A       		.uleb128 0x3a
 1648 0055 0B       		.uleb128 0xb
 1649 0056 3B       		.uleb128 0x3b
 1650 0057 0B       		.uleb128 0xb
 1651 0058 01       		.uleb128 0x1
 1652 0059 13       		.uleb128 0x13
 1653 005a 00       		.byte	0
ARM GAS  /tmp/ccYXQwkX.s 			page 30


 1654 005b 00       		.byte	0
 1655 005c 09       		.uleb128 0x9
 1656 005d 0D       		.uleb128 0xd
 1657 005e 00       		.byte	0
 1658 005f 03       		.uleb128 0x3
 1659 0060 0E       		.uleb128 0xe
 1660 0061 3A       		.uleb128 0x3a
 1661 0062 0B       		.uleb128 0xb
 1662 0063 3B       		.uleb128 0x3b
 1663 0064 0B       		.uleb128 0xb
 1664 0065 49       		.uleb128 0x49
 1665 0066 13       		.uleb128 0x13
 1666 0067 38       		.uleb128 0x38
 1667 0068 0B       		.uleb128 0xb
 1668 0069 00       		.byte	0
 1669 006a 00       		.byte	0
 1670 006b 0A       		.uleb128 0xa
 1671 006c 0D       		.uleb128 0xd
 1672 006d 00       		.byte	0
 1673 006e 03       		.uleb128 0x3
 1674 006f 08       		.uleb128 0x8
 1675 0070 3A       		.uleb128 0x3a
 1676 0071 0B       		.uleb128 0xb
 1677 0072 3B       		.uleb128 0x3b
 1678 0073 0B       		.uleb128 0xb
 1679 0074 49       		.uleb128 0x49
 1680 0075 13       		.uleb128 0x13
 1681 0076 38       		.uleb128 0x38
 1682 0077 0B       		.uleb128 0xb
 1683 0078 00       		.byte	0
 1684 0079 00       		.byte	0
 1685 007a 0B       		.uleb128 0xb
 1686 007b 0D       		.uleb128 0xd
 1687 007c 00       		.byte	0
 1688 007d 03       		.uleb128 0x3
 1689 007e 08       		.uleb128 0x8
 1690 007f 3A       		.uleb128 0x3a
 1691 0080 0B       		.uleb128 0xb
 1692 0081 3B       		.uleb128 0x3b
 1693 0082 05       		.uleb128 0x5
 1694 0083 49       		.uleb128 0x49
 1695 0084 13       		.uleb128 0x13
 1696 0085 38       		.uleb128 0x38
 1697 0086 0B       		.uleb128 0xb
 1698 0087 00       		.byte	0
 1699 0088 00       		.byte	0
 1700 0089 0C       		.uleb128 0xc
 1701 008a 0D       		.uleb128 0xd
 1702 008b 00       		.byte	0
 1703 008c 03       		.uleb128 0x3
 1704 008d 0E       		.uleb128 0xe
 1705 008e 3A       		.uleb128 0x3a
 1706 008f 0B       		.uleb128 0xb
 1707 0090 3B       		.uleb128 0x3b
 1708 0091 05       		.uleb128 0x5
 1709 0092 49       		.uleb128 0x49
 1710 0093 13       		.uleb128 0x13
ARM GAS  /tmp/ccYXQwkX.s 			page 31


 1711 0094 38       		.uleb128 0x38
 1712 0095 0B       		.uleb128 0xb
 1713 0096 00       		.byte	0
 1714 0097 00       		.byte	0
 1715 0098 0D       		.uleb128 0xd
 1716 0099 13       		.uleb128 0x13
 1717 009a 01       		.byte	0x1
 1718 009b 03       		.uleb128 0x3
 1719 009c 0E       		.uleb128 0xe
 1720 009d 0B       		.uleb128 0xb
 1721 009e 0B       		.uleb128 0xb
 1722 009f 3A       		.uleb128 0x3a
 1723 00a0 0B       		.uleb128 0xb
 1724 00a1 3B       		.uleb128 0x3b
 1725 00a2 05       		.uleb128 0x5
 1726 00a3 01       		.uleb128 0x1
 1727 00a4 13       		.uleb128 0x13
 1728 00a5 00       		.byte	0
 1729 00a6 00       		.byte	0
 1730 00a7 0E       		.uleb128 0xe
 1731 00a8 15       		.uleb128 0x15
 1732 00a9 01       		.byte	0x1
 1733 00aa 27       		.uleb128 0x27
 1734 00ab 19       		.uleb128 0x19
 1735 00ac 01       		.uleb128 0x1
 1736 00ad 13       		.uleb128 0x13
 1737 00ae 00       		.byte	0
 1738 00af 00       		.byte	0
 1739 00b0 0F       		.uleb128 0xf
 1740 00b1 05       		.uleb128 0x5
 1741 00b2 00       		.byte	0
 1742 00b3 49       		.uleb128 0x49
 1743 00b4 13       		.uleb128 0x13
 1744 00b5 00       		.byte	0
 1745 00b6 00       		.byte	0
 1746 00b7 10       		.uleb128 0x10
 1747 00b8 13       		.uleb128 0x13
 1748 00b9 01       		.byte	0x1
 1749 00ba 0B       		.uleb128 0xb
 1750 00bb 0B       		.uleb128 0xb
 1751 00bc 3A       		.uleb128 0x3a
 1752 00bd 0B       		.uleb128 0xb
 1753 00be 3B       		.uleb128 0x3b
 1754 00bf 0B       		.uleb128 0xb
 1755 00c0 01       		.uleb128 0x1
 1756 00c1 13       		.uleb128 0x13
 1757 00c2 00       		.byte	0
 1758 00c3 00       		.byte	0
 1759 00c4 11       		.uleb128 0x11
 1760 00c5 17       		.uleb128 0x17
 1761 00c6 01       		.byte	0x1
 1762 00c7 0B       		.uleb128 0xb
 1763 00c8 0B       		.uleb128 0xb
 1764 00c9 3A       		.uleb128 0x3a
 1765 00ca 0B       		.uleb128 0xb
 1766 00cb 3B       		.uleb128 0x3b
 1767 00cc 0B       		.uleb128 0xb
ARM GAS  /tmp/ccYXQwkX.s 			page 32


 1768 00cd 01       		.uleb128 0x1
 1769 00ce 13       		.uleb128 0x13
 1770 00cf 00       		.byte	0
 1771 00d0 00       		.byte	0
 1772 00d1 12       		.uleb128 0x12
 1773 00d2 0D       		.uleb128 0xd
 1774 00d3 00       		.byte	0
 1775 00d4 03       		.uleb128 0x3
 1776 00d5 0E       		.uleb128 0xe
 1777 00d6 3A       		.uleb128 0x3a
 1778 00d7 0B       		.uleb128 0xb
 1779 00d8 3B       		.uleb128 0x3b
 1780 00d9 0B       		.uleb128 0xb
 1781 00da 49       		.uleb128 0x49
 1782 00db 13       		.uleb128 0x13
 1783 00dc 00       		.byte	0
 1784 00dd 00       		.byte	0
 1785 00de 13       		.uleb128 0x13
 1786 00df 0D       		.uleb128 0xd
 1787 00e0 00       		.byte	0
 1788 00e1 03       		.uleb128 0x3
 1789 00e2 0E       		.uleb128 0xe
 1790 00e3 3A       		.uleb128 0x3a
 1791 00e4 0B       		.uleb128 0xb
 1792 00e5 3B       		.uleb128 0x3b
 1793 00e6 05       		.uleb128 0x5
 1794 00e7 49       		.uleb128 0x49
 1795 00e8 13       		.uleb128 0x13
 1796 00e9 00       		.byte	0
 1797 00ea 00       		.byte	0
 1798 00eb 14       		.uleb128 0x14
 1799 00ec 35       		.uleb128 0x35
 1800 00ed 00       		.byte	0
 1801 00ee 49       		.uleb128 0x49
 1802 00ef 13       		.uleb128 0x13
 1803 00f0 00       		.byte	0
 1804 00f1 00       		.byte	0
 1805 00f2 15       		.uleb128 0x15
 1806 00f3 15       		.uleb128 0x15
 1807 00f4 01       		.byte	0x1
 1808 00f5 27       		.uleb128 0x27
 1809 00f6 19       		.uleb128 0x19
 1810 00f7 49       		.uleb128 0x49
 1811 00f8 13       		.uleb128 0x13
 1812 00f9 01       		.uleb128 0x1
 1813 00fa 13       		.uleb128 0x13
 1814 00fb 00       		.byte	0
 1815 00fc 00       		.byte	0
 1816 00fd 16       		.uleb128 0x16
 1817 00fe 2E       		.uleb128 0x2e
 1818 00ff 01       		.byte	0x1
 1819 0100 03       		.uleb128 0x3
 1820 0101 0E       		.uleb128 0xe
 1821 0102 3A       		.uleb128 0x3a
 1822 0103 0B       		.uleb128 0xb
 1823 0104 3B       		.uleb128 0x3b
 1824 0105 0B       		.uleb128 0xb
ARM GAS  /tmp/ccYXQwkX.s 			page 33


 1825 0106 27       		.uleb128 0x27
 1826 0107 19       		.uleb128 0x19
 1827 0108 49       		.uleb128 0x49
 1828 0109 13       		.uleb128 0x13
 1829 010a 11       		.uleb128 0x11
 1830 010b 01       		.uleb128 0x1
 1831 010c 12       		.uleb128 0x12
 1832 010d 06       		.uleb128 0x6
 1833 010e 40       		.uleb128 0x40
 1834 010f 18       		.uleb128 0x18
 1835 0110 9742     		.uleb128 0x2117
 1836 0112 19       		.uleb128 0x19
 1837 0113 01       		.uleb128 0x1
 1838 0114 13       		.uleb128 0x13
 1839 0115 00       		.byte	0
 1840 0116 00       		.byte	0
 1841 0117 17       		.uleb128 0x17
 1842 0118 05       		.uleb128 0x5
 1843 0119 00       		.byte	0
 1844 011a 03       		.uleb128 0x3
 1845 011b 08       		.uleb128 0x8
 1846 011c 3A       		.uleb128 0x3a
 1847 011d 0B       		.uleb128 0xb
 1848 011e 3B       		.uleb128 0x3b
 1849 011f 0B       		.uleb128 0xb
 1850 0120 49       		.uleb128 0x49
 1851 0121 13       		.uleb128 0x13
 1852 0122 02       		.uleb128 0x2
 1853 0123 17       		.uleb128 0x17
 1854 0124 00       		.byte	0
 1855 0125 00       		.byte	0
 1856 0126 18       		.uleb128 0x18
 1857 0127 05       		.uleb128 0x5
 1858 0128 00       		.byte	0
 1859 0129 03       		.uleb128 0x3
 1860 012a 08       		.uleb128 0x8
 1861 012b 3A       		.uleb128 0x3a
 1862 012c 0B       		.uleb128 0xb
 1863 012d 3B       		.uleb128 0x3b
 1864 012e 0B       		.uleb128 0xb
 1865 012f 49       		.uleb128 0x49
 1866 0130 13       		.uleb128 0x13
 1867 0131 02       		.uleb128 0x2
 1868 0132 18       		.uleb128 0x18
 1869 0133 00       		.byte	0
 1870 0134 00       		.byte	0
 1871 0135 19       		.uleb128 0x19
 1872 0136 34       		.uleb128 0x34
 1873 0137 00       		.byte	0
 1874 0138 03       		.uleb128 0x3
 1875 0139 08       		.uleb128 0x8
 1876 013a 3A       		.uleb128 0x3a
 1877 013b 0B       		.uleb128 0xb
 1878 013c 3B       		.uleb128 0x3b
 1879 013d 0B       		.uleb128 0xb
 1880 013e 49       		.uleb128 0x49
 1881 013f 13       		.uleb128 0x13
ARM GAS  /tmp/ccYXQwkX.s 			page 34


 1882 0140 02       		.uleb128 0x2
 1883 0141 17       		.uleb128 0x17
 1884 0142 00       		.byte	0
 1885 0143 00       		.byte	0
 1886 0144 1A       		.uleb128 0x1a
 1887 0145 34       		.uleb128 0x34
 1888 0146 00       		.byte	0
 1889 0147 03       		.uleb128 0x3
 1890 0148 08       		.uleb128 0x8
 1891 0149 3A       		.uleb128 0x3a
 1892 014a 0B       		.uleb128 0xb
 1893 014b 3B       		.uleb128 0x3b
 1894 014c 0B       		.uleb128 0xb
 1895 014d 49       		.uleb128 0x49
 1896 014e 13       		.uleb128 0x13
 1897 014f 02       		.uleb128 0x2
 1898 0150 18       		.uleb128 0x18
 1899 0151 00       		.byte	0
 1900 0152 00       		.byte	0
 1901 0153 1B       		.uleb128 0x1b
 1902 0154 898201   		.uleb128 0x4109
 1903 0157 01       		.byte	0x1
 1904 0158 11       		.uleb128 0x11
 1905 0159 01       		.uleb128 0x1
 1906 015a 31       		.uleb128 0x31
 1907 015b 13       		.uleb128 0x13
 1908 015c 00       		.byte	0
 1909 015d 00       		.byte	0
 1910 015e 1C       		.uleb128 0x1c
 1911 015f 8A8201   		.uleb128 0x410a
 1912 0162 00       		.byte	0
 1913 0163 02       		.uleb128 0x2
 1914 0164 18       		.uleb128 0x18
 1915 0165 9142     		.uleb128 0x2111
 1916 0167 18       		.uleb128 0x18
 1917 0168 00       		.byte	0
 1918 0169 00       		.byte	0
 1919 016a 1D       		.uleb128 0x1d
 1920 016b 2E       		.uleb128 0x2e
 1921 016c 01       		.byte	0x1
 1922 016d 3F       		.uleb128 0x3f
 1923 016e 19       		.uleb128 0x19
 1924 016f 03       		.uleb128 0x3
 1925 0170 0E       		.uleb128 0xe
 1926 0171 3A       		.uleb128 0x3a
 1927 0172 0B       		.uleb128 0xb
 1928 0173 3B       		.uleb128 0x3b
 1929 0174 0B       		.uleb128 0xb
 1930 0175 27       		.uleb128 0x27
 1931 0176 19       		.uleb128 0x19
 1932 0177 11       		.uleb128 0x11
 1933 0178 01       		.uleb128 0x1
 1934 0179 12       		.uleb128 0x12
 1935 017a 06       		.uleb128 0x6
 1936 017b 40       		.uleb128 0x40
 1937 017c 18       		.uleb128 0x18
 1938 017d 9742     		.uleb128 0x2117
ARM GAS  /tmp/ccYXQwkX.s 			page 35


 1939 017f 19       		.uleb128 0x19
 1940 0180 01       		.uleb128 0x1
 1941 0181 13       		.uleb128 0x13
 1942 0182 00       		.byte	0
 1943 0183 00       		.byte	0
 1944 0184 1E       		.uleb128 0x1e
 1945 0185 05       		.uleb128 0x5
 1946 0186 00       		.byte	0
 1947 0187 03       		.uleb128 0x3
 1948 0188 0E       		.uleb128 0xe
 1949 0189 3A       		.uleb128 0x3a
 1950 018a 0B       		.uleb128 0xb
 1951 018b 3B       		.uleb128 0x3b
 1952 018c 0B       		.uleb128 0xb
 1953 018d 49       		.uleb128 0x49
 1954 018e 13       		.uleb128 0x13
 1955 018f 02       		.uleb128 0x2
 1956 0190 18       		.uleb128 0x18
 1957 0191 00       		.byte	0
 1958 0192 00       		.byte	0
 1959 0193 1F       		.uleb128 0x1f
 1960 0194 34       		.uleb128 0x34
 1961 0195 00       		.byte	0
 1962 0196 03       		.uleb128 0x3
 1963 0197 0E       		.uleb128 0xe
 1964 0198 3A       		.uleb128 0x3a
 1965 0199 0B       		.uleb128 0xb
 1966 019a 3B       		.uleb128 0x3b
 1967 019b 05       		.uleb128 0x5
 1968 019c 49       		.uleb128 0x49
 1969 019d 13       		.uleb128 0x13
 1970 019e 3F       		.uleb128 0x3f
 1971 019f 19       		.uleb128 0x19
 1972 01a0 3C       		.uleb128 0x3c
 1973 01a1 19       		.uleb128 0x19
 1974 01a2 00       		.byte	0
 1975 01a3 00       		.byte	0
 1976 01a4 20       		.uleb128 0x20
 1977 01a5 34       		.uleb128 0x34
 1978 01a6 00       		.byte	0
 1979 01a7 03       		.uleb128 0x3
 1980 01a8 08       		.uleb128 0x8
 1981 01a9 3A       		.uleb128 0x3a
 1982 01aa 0B       		.uleb128 0xb
 1983 01ab 3B       		.uleb128 0x3b
 1984 01ac 05       		.uleb128 0x5
 1985 01ad 49       		.uleb128 0x49
 1986 01ae 13       		.uleb128 0x13
 1987 01af 3F       		.uleb128 0x3f
 1988 01b0 19       		.uleb128 0x19
 1989 01b1 3C       		.uleb128 0x3c
 1990 01b2 19       		.uleb128 0x19
 1991 01b3 00       		.byte	0
 1992 01b4 00       		.byte	0
 1993 01b5 21       		.uleb128 0x21
 1994 01b6 2E       		.uleb128 0x2e
 1995 01b7 01       		.byte	0x1
ARM GAS  /tmp/ccYXQwkX.s 			page 36


 1996 01b8 3F       		.uleb128 0x3f
 1997 01b9 19       		.uleb128 0x19
 1998 01ba 03       		.uleb128 0x3
 1999 01bb 0E       		.uleb128 0xe
 2000 01bc 27       		.uleb128 0x27
 2001 01bd 19       		.uleb128 0x19
 2002 01be 49       		.uleb128 0x49
 2003 01bf 13       		.uleb128 0x13
 2004 01c0 34       		.uleb128 0x34
 2005 01c1 19       		.uleb128 0x19
 2006 01c2 3C       		.uleb128 0x3c
 2007 01c3 19       		.uleb128 0x19
 2008 01c4 01       		.uleb128 0x1
 2009 01c5 13       		.uleb128 0x13
 2010 01c6 00       		.byte	0
 2011 01c7 00       		.byte	0
 2012 01c8 22       		.uleb128 0x22
 2013 01c9 26       		.uleb128 0x26
 2014 01ca 00       		.byte	0
 2015 01cb 00       		.byte	0
 2016 01cc 00       		.byte	0
 2017 01cd 00       		.byte	0
 2018              		.section	.debug_loc,"",%progbits
 2019              	.Ldebug_loc0:
 2020              	.LLST0:
 2021 0000 00000000 		.4byte	.LVL0
 2022 0004 16000000 		.4byte	.LVL1
 2023 0008 0100     		.2byte	0x1
 2024 000a 50       		.byte	0x50
 2025 000b 16000000 		.4byte	.LVL1
 2026 000f 1C000000 		.4byte	.LFE279
 2027 0013 0400     		.2byte	0x4
 2028 0015 F3       		.byte	0xf3
 2029 0016 01       		.uleb128 0x1
 2030 0017 50       		.byte	0x50
 2031 0018 9F       		.byte	0x9f
 2032 0019 00000000 		.4byte	0
 2033 001d 00000000 		.4byte	0
 2034              	.LLST2:
 2035 0021 00000000 		.4byte	.LVL2
 2036 0025 14000000 		.4byte	.LVL4
 2037 0029 0100     		.2byte	0x1
 2038 002b 50       		.byte	0x50
 2039 002c 14000000 		.4byte	.LVL4
 2040 0030 1A000000 		.4byte	.LFE280
 2041 0034 0400     		.2byte	0x4
 2042 0036 F3       		.byte	0xf3
 2043 0037 01       		.uleb128 0x1
 2044 0038 50       		.byte	0x50
 2045 0039 9F       		.byte	0x9f
 2046 003a 00000000 		.4byte	0
 2047 003e 00000000 		.4byte	0
 2048              	.LLST4:
 2049 0042 00000000 		.4byte	.LVL5
 2050 0046 14000000 		.4byte	.LVL7
 2051 004a 0100     		.2byte	0x1
 2052 004c 50       		.byte	0x50
ARM GAS  /tmp/ccYXQwkX.s 			page 37


 2053 004d 14000000 		.4byte	.LVL7
 2054 0051 26000000 		.4byte	.LFE278
 2055 0055 0100     		.2byte	0x1
 2056 0057 55       		.byte	0x55
 2057 0058 00000000 		.4byte	0
 2058 005c 00000000 		.4byte	0
 2059              	.LLST5:
 2060 0060 00000000 		.4byte	.LVL5
 2061 0064 16000000 		.4byte	.LVL8
 2062 0068 0100     		.2byte	0x1
 2063 006a 51       		.byte	0x51
 2064 006b 16000000 		.4byte	.LVL8
 2065 006f 1B000000 		.4byte	.LVL9-1
 2066 0073 0100     		.2byte	0x1
 2067 0075 50       		.byte	0x50
 2068 0076 1B000000 		.4byte	.LVL9-1
 2069 007a 26000000 		.4byte	.LFE278
 2070 007e 0400     		.2byte	0x4
 2071 0080 F3       		.byte	0xf3
 2072 0081 01       		.uleb128 0x1
 2073 0082 51       		.byte	0x51
 2074 0083 9F       		.byte	0x9f
 2075 0084 00000000 		.4byte	0
 2076 0088 00000000 		.4byte	0
 2077              	.LLST6:
 2078 008c 00000000 		.4byte	.LVL5
 2079 0090 0E000000 		.4byte	.LVL6
 2080 0094 0100     		.2byte	0x1
 2081 0096 52       		.byte	0x52
 2082 0097 0E000000 		.4byte	.LVL6
 2083 009b 26000000 		.4byte	.LFE278
 2084 009f 0100     		.2byte	0x1
 2085 00a1 54       		.byte	0x54
 2086 00a2 00000000 		.4byte	0
 2087 00a6 00000000 		.4byte	0
 2088              	.LLST8:
 2089 00aa 00000000 		.4byte	.LVL10
 2090 00ae 0E000000 		.4byte	.LVL11
 2091 00b2 0100     		.2byte	0x1
 2092 00b4 50       		.byte	0x50
 2093 00b5 0E000000 		.4byte	.LVL11
 2094 00b9 24000000 		.4byte	.LFE277
 2095 00bd 0100     		.2byte	0x1
 2096 00bf 55       		.byte	0x55
 2097 00c0 00000000 		.4byte	0
 2098 00c4 00000000 		.4byte	0
 2099              	.LLST9:
 2100 00c8 00000000 		.4byte	.LVL10
 2101 00cc 19000000 		.4byte	.LVL13-1
 2102 00d0 0100     		.2byte	0x1
 2103 00d2 51       		.byte	0x51
 2104 00d3 19000000 		.4byte	.LVL13-1
 2105 00d7 24000000 		.4byte	.LFE277
 2106 00db 0400     		.2byte	0x4
 2107 00dd F3       		.byte	0xf3
 2108 00de 01       		.uleb128 0x1
 2109 00df 51       		.byte	0x51
ARM GAS  /tmp/ccYXQwkX.s 			page 38


 2110 00e0 9F       		.byte	0x9f
 2111 00e1 00000000 		.4byte	0
 2112 00e5 00000000 		.4byte	0
 2113              	.LLST10:
 2114 00e9 00000000 		.4byte	.LVL10
 2115 00ed 12000000 		.4byte	.LVL12
 2116 00f1 0100     		.2byte	0x1
 2117 00f3 52       		.byte	0x52
 2118 00f4 12000000 		.4byte	.LVL12
 2119 00f8 24000000 		.4byte	.LFE277
 2120 00fc 0100     		.2byte	0x1
 2121 00fe 54       		.byte	0x54
 2122 00ff 00000000 		.4byte	0
 2123 0103 00000000 		.4byte	0
 2124              	.LLST12:
 2125 0107 00000000 		.4byte	.LVL14
 2126 010b 0A000000 		.4byte	.LVL15
 2127 010f 0100     		.2byte	0x1
 2128 0111 53       		.byte	0x53
 2129 0112 0A000000 		.4byte	.LVL15
 2130 0116 18000000 		.4byte	.LFE281
 2131 011a 0200     		.2byte	0x2
 2132 011c 70       		.byte	0x70
 2133 011d 0C       		.sleb128 12
 2134 011e 00000000 		.4byte	0
 2135 0122 00000000 		.4byte	0
 2136              		.section	.debug_aranges,"",%progbits
 2137 0000 3C000000 		.4byte	0x3c
 2138 0004 0200     		.2byte	0x2
 2139 0006 00000000 		.4byte	.Ldebug_info0
 2140 000a 04       		.byte	0x4
 2141 000b 00       		.byte	0
 2142 000c 0000     		.2byte	0
 2143 000e 0000     		.2byte	0
 2144 0010 00000000 		.4byte	.LFB279
 2145 0014 1C000000 		.4byte	.LFE279-.LFB279
 2146 0018 00000000 		.4byte	.LFB280
 2147 001c 1A000000 		.4byte	.LFE280-.LFB280
 2148 0020 00000000 		.4byte	.LFB278
 2149 0024 26000000 		.4byte	.LFE278-.LFB278
 2150 0028 00000000 		.4byte	.LFB277
 2151 002c 24000000 		.4byte	.LFE277-.LFB277
 2152 0030 00000000 		.4byte	.LFB281
 2153 0034 18000000 		.4byte	.LFE281-.LFB281
 2154 0038 00000000 		.4byte	0
 2155 003c 00000000 		.4byte	0
 2156              		.section	.debug_ranges,"",%progbits
 2157              	.Ldebug_ranges0:
 2158 0000 00000000 		.4byte	.LFB279
 2159 0004 1C000000 		.4byte	.LFE279
 2160 0008 00000000 		.4byte	.LFB280
 2161 000c 1A000000 		.4byte	.LFE280
 2162 0010 00000000 		.4byte	.LFB278
 2163 0014 26000000 		.4byte	.LFE278
 2164 0018 00000000 		.4byte	.LFB277
 2165 001c 24000000 		.4byte	.LFE277
 2166 0020 00000000 		.4byte	.LFB281
ARM GAS  /tmp/ccYXQwkX.s 			page 39


 2167 0024 18000000 		.4byte	.LFE281
 2168 0028 00000000 		.4byte	0
 2169 002c 00000000 		.4byte	0
 2170              		.section	.debug_line,"",%progbits
 2171              	.Ldebug_line0:
 2172 0000 95020000 		.section	.debug_str,"MS",%progbits,1
 2172      02002402 
 2172      00000201 
 2172      FB0E0D00 
 2172      01010101 
 2173              	.LASF21:
 2174 0000 72747469 		.ascii	"rttime_t\000"
 2174      6D655F74 
 2174      00
 2175              	.LASF56:
 2176 0009 72656164 		.ascii	"ready_list_t\000"
 2176      795F6C69 
 2176      73745F74 
 2176      00
 2177              	.LASF2:
 2178 0016 73697A65 		.ascii	"size_t\000"
 2178      5F7400
 2179              	.LASF62:
 2180 001d 64656C74 		.ascii	"delta\000"
 2180      6100
 2181              	.LASF92:
 2182 0023 7264796D 		.ascii	"rdymsg\000"
 2182      736700
 2183              	.LASF19:
 2184 002a 75696E74 		.ascii	"uint64_t\000"
 2184      36345F74 
 2184      00
 2185              	.LASF75:
 2186 0033 6B65726E 		.ascii	"kernel_stats\000"
 2186      656C5F73 
 2186      74617473 
 2186      00
 2187              	.LASF3:
 2188 0040 5F5F7569 		.ascii	"__uint8_t\000"
 2188      6E74385F 
 2188      7400
 2189              	.LASF55:
 2190 004a 70726576 		.ascii	"prev\000"
 2190      00
 2191              	.LASF79:
 2192 004f 706F7274 		.ascii	"port_intctx\000"
 2192      5F696E74 
 2192      63747800 
 2193              	.LASF54:
 2194 005b 63685F74 		.ascii	"ch_threads_queue\000"
 2194      68726561 
 2194      64735F71 
 2194      75657565 
 2194      00
 2195              	.LASF67:
 2196 006c 73797374 		.ascii	"system_debug_t\000"
 2196      656D5F64 
ARM GAS  /tmp/ccYXQwkX.s 			page 40


 2196      65627567 
 2196      5F7400
 2197              	.LASF83:
 2198 007b 776F7273 		.ascii	"worst\000"
 2198      7400
 2199              	.LASF86:
 2200 0081 74696D65 		.ascii	"time_measurement_t\000"
 2200      5F6D6561 
 2200      73757265 
 2200      6D656E74 
 2200      5F7400
 2201              	.LASF13:
 2202 0094 6C6F6E67 		.ascii	"long long unsigned int\000"
 2202      206C6F6E 
 2202      6720756E 
 2202      7369676E 
 2202      65642069 
 2203              	.LASF93:
 2204 00ab 65786974 		.ascii	"exitcode\000"
 2204      636F6465 
 2204      00
 2205              	.LASF74:
 2206 00b4 6D61696E 		.ascii	"mainthread\000"
 2206      74687265 
 2206      616400
 2207              	.LASF96:
 2208 00bf 73656E74 		.ascii	"sentmsg\000"
 2208      6D736700 
 2209              	.LASF64:
 2210 00c7 76697274 		.ascii	"virtual_timers_list_t\000"
 2210      75616C5F 
 2210      74696D65 
 2210      72735F6C 
 2210      6973745F 
 2211              	.LASF115:
 2212 00dd 49544D5F 		.ascii	"ITM_RxBuffer\000"
 2212      52784275 
 2212      66666572 
 2212      00
 2213              	.LASF52:
 2214 00ea 6E657874 		.ascii	"next\000"
 2214      00
 2215              	.LASF113:
 2216 00ef 5F726561 		.ascii	"_reads\000"
 2216      647300
 2217              	.LASF11:
 2218 00f6 6C6F6E67 		.ascii	"long long int\000"
 2218      206C6F6E 
 2218      6720696E 
 2218      7400
 2219              	.LASF1:
 2220 0104 7369676E 		.ascii	"signed char\000"
 2220      65642063 
 2220      68617200 
 2221              	.LASF109:
 2222 0110 73697A65 		.ascii	"size\000"
 2222      00
ARM GAS  /tmp/ccYXQwkX.s 			page 41


 2223              	.LASF73:
 2224 0115 76746C69 		.ascii	"vtlist\000"
 2224      737400
 2225              	.LASF118:
 2226 011c 2F686F6D 		.ascii	"/home/kozinalexey/f4by/ardupilot/build/f4by-ch\000"
 2226      652F6B6F 
 2226      7A696E61 
 2226      6C657865 
 2226      792F6634 
 2227              	.LASF42:
 2228 014b 6D736771 		.ascii	"msgqueue\000"
 2228      75657565 
 2228      00
 2229              	.LASF38:
 2230 0154 73746174 		.ascii	"state\000"
 2230      6500
 2231              	.LASF8:
 2232 015a 6C6F6E67 		.ascii	"long int\000"
 2232      20696E74 
 2232      00
 2233              	.LASF23:
 2234 0163 74737461 		.ascii	"tstate_t\000"
 2234      74655F74 
 2234      00
 2235              	.LASF63:
 2236 016c 66756E63 		.ascii	"func\000"
 2236      00
 2237              	.LASF47:
 2238 0171 73746174 		.ascii	"stats\000"
 2238      7300
 2239              	.LASF108:
 2240 0177 62756666 		.ascii	"buffer\000"
 2240      657200
 2241              	.LASF9:
 2242 017e 5F5F7569 		.ascii	"__uint32_t\000"
 2242      6E743332 
 2242      5F7400
 2243              	.LASF76:
 2244 0189 72656761 		.ascii	"regarm_t\000"
 2244      726D5F74 
 2244      00
 2245              	.LASF68:
 2246 0192 63685F73 		.ascii	"ch_system_debug\000"
 2246      79737465 
 2246      6D5F6465 
 2246      62756700 
 2247              	.LASF41:
 2248 01a2 77616974 		.ascii	"waiting\000"
 2248      696E6700 
 2249              	.LASF103:
 2250 01aa 6D757465 		.ascii	"mutex_t\000"
 2250      785F7400 
 2251              	.LASF28:
 2252 01b2 636E745F 		.ascii	"cnt_t\000"
 2252      7400
 2253              	.LASF0:
 2254 01b8 756E7369 		.ascii	"unsigned int\000"
ARM GAS  /tmp/ccYXQwkX.s 			page 42


 2254      676E6564 
 2254      20696E74 
 2254      00
 2255              	.LASF116:
 2256 01c5 474E5520 		.ascii	"GNU C 4.9.3 20150529 (prerelease) -mcpu=cortex-m4 -"
 2256      4320342E 
 2256      392E3320 
 2256      32303135 
 2256      30353239 
 2257 01f8 6D666C6F 		.ascii	"mfloat-abi=hard -mfpu=fpv4-sp-d16 -mno-thumb-interw"
 2257      61742D61 
 2257      62693D68 
 2257      61726420 
 2257      2D6D6670 
 2258 022b 6F726B20 		.ascii	"ork -mthumb -g -Os -fomit-frame-pointer -falign-fun"
 2258      2D6D7468 
 2258      756D6220 
 2258      2D67202D 
 2258      4F73202D 
 2259 025e 6374696F 		.ascii	"ctions=16 -ffunction-sections -fdata-sections -fno-"
 2259      6E733D31 
 2259      36202D66 
 2259      66756E63 
 2259      74696F6E 
 2260 0291 636F6D6D 		.ascii	"common -fsingle-precision-constant\000"
 2260      6F6E202D 
 2260      6673696E 
 2260      676C652D 
 2260      70726563 
 2261              	.LASF97:
 2262 02b4 77747365 		.ascii	"wtsemp\000"
 2262      6D7000
 2263              	.LASF95:
 2264 02bb 77747472 		.ascii	"wttrp\000"
 2264      7000
 2265              	.LASF87:
 2266 02c1 6E5F6972 		.ascii	"n_irq\000"
 2266      7100
 2267              	.LASF32:
 2268 02c7 71756575 		.ascii	"queue\000"
 2268      6500
 2269              	.LASF46:
 2270 02cd 6D706F6F 		.ascii	"mpool\000"
 2270      6C00
 2271              	.LASF6:
 2272 02d3 73686F72 		.ascii	"short unsigned int\000"
 2272      7420756E 
 2272      7369676E 
 2272      65642069 
 2272      6E7400
 2273              	.LASF111:
 2274 02e6 5F707574 		.ascii	"_put\000"
 2274      00
 2275              	.LASF36:
 2276 02eb 6E616D65 		.ascii	"name\000"
 2276      00
 2277              	.LASF50:
ARM GAS  /tmp/ccYXQwkX.s 			page 43


 2278 02f0 63685F74 		.ascii	"ch_thread\000"
 2278      68726561 
 2278      6400
 2279              	.LASF26:
 2280 02fa 6D73675F 		.ascii	"msg_t\000"
 2280      7400
 2281              	.LASF84:
 2282 0300 6C617374 		.ascii	"last\000"
 2282      00
 2283              	.LASF29:
 2284 0305 75636E74 		.ascii	"ucnt_t\000"
 2284      5F7400
 2285              	.LASF43:
 2286 030c 6570656E 		.ascii	"epending\000"
 2286      64696E67 
 2286      00
 2287              	.LASF70:
 2288 0315 63685F73 		.ascii	"ch_system_t\000"
 2288      79737465 
 2288      6D5F7400 
 2289              	.LASF22:
 2290 0321 746D6F64 		.ascii	"tmode_t\000"
 2290      655F7400 
 2291              	.LASF90:
 2292 0329 6D5F6372 		.ascii	"m_crit_isr\000"
 2292      69745F69 
 2292      737200
 2293              	.LASF57:
 2294 0334 63685F72 		.ascii	"ch_ready_list\000"
 2294      65616479 
 2294      5F6C6973 
 2294      7400
 2295              	.LASF27:
 2296 0342 6576656E 		.ascii	"eventmask_t\000"
 2296      746D6173 
 2296      6B5F7400 
 2297              	.LASF7:
 2298 034e 5F5F696E 		.ascii	"__int32_t\000"
 2298      7433325F 
 2298      7400
 2299              	.LASF77:
 2300 0358 73746B61 		.ascii	"stkalign_t\000"
 2300      6C69676E 
 2300      5F7400
 2301              	.LASF34:
 2302 0363 6E657765 		.ascii	"newer\000"
 2302      7200
 2303              	.LASF119:
 2304 0369 6D734F62 		.ascii	"msObjectInit\000"
 2304      6A656374 
 2304      496E6974 
 2304      00
 2305              	.LASF106:
 2306 0376 77726974 		.ascii	"write\000"
 2306      6500
 2307              	.LASF45:
 2308 037c 7265616C 		.ascii	"realprio\000"
ARM GAS  /tmp/ccYXQwkX.s 			page 44


 2308      7072696F 
 2308      00
 2309              	.LASF14:
 2310 0385 73697A65 		.ascii	"sizetype\000"
 2310      74797065 
 2310      00
 2311              	.LASF48:
 2312 038e 74687265 		.ascii	"thread_reference_t\000"
 2312      61645F72 
 2312      65666572 
 2312      656E6365 
 2312      5F7400
 2313              	.LASF65:
 2314 03a1 63685F76 		.ascii	"ch_virtual_timers_list\000"
 2314      69727475 
 2314      616C5F74 
 2314      696D6572 
 2314      735F6C69 
 2315              	.LASF78:
 2316 03b8 706F7274 		.ascii	"port_context\000"
 2316      5F636F6E 
 2316      74657874 
 2316      00
 2317              	.LASF81:
 2318 03c5 746D5F63 		.ascii	"tm_calibration_t\000"
 2318      616C6962 
 2318      72617469 
 2318      6F6E5F74 
 2318      00
 2319              	.LASF33:
 2320 03d6 7072696F 		.ascii	"prio\000"
 2320      00
 2321              	.LASF58:
 2322 03db 63757272 		.ascii	"current\000"
 2322      656E7400 
 2323              	.LASF105:
 2324 03e3 4D656D53 		.ascii	"MemStreamVMT\000"
 2324      74726561 
 2324      6D564D54 
 2324      00
 2325              	.LASF12:
 2326 03f0 5F5F7569 		.ascii	"__uint64_t\000"
 2326      6E743634 
 2326      5F7400
 2327              	.LASF85:
 2328 03fb 63756D75 		.ascii	"cumulative\000"
 2328      6C617469 
 2328      766500
 2329              	.LASF40:
 2330 0406 72656673 		.ascii	"refs\000"
 2330      00
 2331              	.LASF60:
 2332 040b 76697274 		.ascii	"virtual_timer_t\000"
 2332      75616C5F 
 2332      74696D65 
 2332      725F7400 
 2333              	.LASF25:
ARM GAS  /tmp/ccYXQwkX.s 			page 45


 2334 041b 74707269 		.ascii	"tprio_t\000"
 2334      6F5F7400 
 2335              	.LASF110:
 2336 0423 4D656D6F 		.ascii	"MemoryStream\000"
 2336      72795374 
 2336      7265616D 
 2336      00
 2337              	.LASF88:
 2338 0430 6E5F6374 		.ascii	"n_ctxswc\000"
 2338      78737763 
 2338      00
 2339              	.LASF104:
 2340 0439 5F426F6F 		.ascii	"_Bool\000"
 2340      6C00
 2341              	.LASF17:
 2342 043f 696E7433 		.ascii	"int32_t\000"
 2342      325F7400 
 2343              	.LASF4:
 2344 0447 756E7369 		.ascii	"unsigned char\000"
 2344      676E6564 
 2344      20636861 
 2344      7200
 2345              	.LASF5:
 2346 0455 73686F72 		.ascii	"short int\000"
 2346      7420696E 
 2346      7400
 2347              	.LASF66:
 2348 045f 6C617374 		.ascii	"lasttime\000"
 2348      74696D65 
 2348      00
 2349              	.LASF99:
 2350 0468 65776D61 		.ascii	"ewmask\000"
 2350      736B00
 2351              	.LASF71:
 2352 046f 63685F73 		.ascii	"ch_system\000"
 2352      79737465 
 2352      6D00
 2353              	.LASF91:
 2354 0479 6B65726E 		.ascii	"kernel_stats_t\000"
 2354      656C5F73 
 2354      74617473 
 2354      5F7400
 2355              	.LASF61:
 2356 0488 63685F76 		.ascii	"ch_virtual_timer\000"
 2356      69727475 
 2356      616C5F74 
 2356      696D6572 
 2356      00
 2357              	.LASF100:
 2358 0499 63685F73 		.ascii	"ch_semaphore\000"
 2358      656D6170 
 2358      686F7265 
 2358      00
 2359              	.LASF18:
 2360 04a6 75696E74 		.ascii	"uint32_t\000"
 2360      33325F74 
 2360      00
ARM GAS  /tmp/ccYXQwkX.s 			page 46


 2361              	.LASF98:
 2362 04af 77746D74 		.ascii	"wtmtxp\000"
 2362      787000
 2363              	.LASF51:
 2364 04b6 63685F74 		.ascii	"ch_threads_list\000"
 2364      68726561 
 2364      64735F6C 
 2364      69737400 
 2365              	.LASF102:
 2366 04c6 6F776E65 		.ascii	"owner\000"
 2366      7200
 2367              	.LASF10:
 2368 04cc 6C6F6E67 		.ascii	"long unsigned int\000"
 2368      20756E73 
 2368      69676E65 
 2368      6420696E 
 2368      7400
 2369              	.LASF37:
 2370 04de 77616261 		.ascii	"wabase\000"
 2370      736500
 2371              	.LASF107:
 2372 04e5 72656164 		.ascii	"read\000"
 2372      00
 2373              	.LASF15:
 2374 04ea 63686172 		.ascii	"char\000"
 2374      00
 2375              	.LASF35:
 2376 04ef 6F6C6465 		.ascii	"older\000"
 2376      7200
 2377              	.LASF117:
 2378 04f5 2E2E2F2E 		.ascii	"../../modules/ChibiOS/os/hal/lib/streams/memstreams"
 2378      2E2F6D6F 
 2378      64756C65 
 2378      732F4368 
 2378      6962694F 
 2379 0528 2E6300   		.ascii	".c\000"
 2380              	.LASF31:
 2381 052b 74687265 		.ascii	"thread_t\000"
 2381      61645F74 
 2381      00
 2382              	.LASF82:
 2383 0534 62657374 		.ascii	"best\000"
 2383      00
 2384              	.LASF30:
 2385 0539 73797374 		.ascii	"systime_t\000"
 2385      696D655F 
 2385      7400
 2386              	.LASF59:
 2387 0543 76746675 		.ascii	"vtfunc_t\000"
 2387      6E635F74 
 2387      00
 2388              	.LASF69:
 2389 054c 70616E69 		.ascii	"panic_msg\000"
 2389      635F6D73 
 2389      6700
 2390              	.LASF80:
 2391 0556 6F666673 		.ascii	"offset\000"
ARM GAS  /tmp/ccYXQwkX.s 			page 47


 2391      657400
 2392              	.LASF120:
 2393 055d 6D656D63 		.ascii	"memcpy\000"
 2393      707900
 2394              	.LASF20:
 2395 0564 7274636E 		.ascii	"rtcnt_t\000"
 2395      745F7400 
 2396              	.LASF114:
 2397 056c 5F777269 		.ascii	"_writes\000"
 2397      74657300 
 2398              	.LASF53:
 2399 0574 74687265 		.ascii	"threads_queue_t\000"
 2399      6164735F 
 2399      71756575 
 2399      655F7400 
 2400              	.LASF101:
 2401 0584 63685F6D 		.ascii	"ch_mutex\000"
 2401      75746578 
 2401      00
 2402              	.LASF24:
 2403 058d 74726566 		.ascii	"trefs_t\000"
 2403      735F7400 
 2404              	.LASF72:
 2405 0595 726C6973 		.ascii	"rlist\000"
 2405      7400
 2406              	.LASF16:
 2407 059b 75696E74 		.ascii	"uint8_t\000"
 2407      385F7400 
 2408              	.LASF39:
 2409 05a3 666C6167 		.ascii	"flags\000"
 2409      7300
 2410              	.LASF112:
 2411 05a9 5F676574 		.ascii	"_get\000"
 2411      00
 2412              	.LASF94:
 2413 05ae 77746F62 		.ascii	"wtobjp\000"
 2413      6A7000
 2414              	.LASF49:
 2415 05b5 74687265 		.ascii	"threads_list_t\000"
 2415      6164735F 
 2415      6C697374 
 2415      5F7400
 2416              	.LASF44:
 2417 05c4 6D74786C 		.ascii	"mtxlist\000"
 2417      69737400 
 2418              	.LASF89:
 2419 05cc 6D5F6372 		.ascii	"m_crit_thd\000"
 2419      69745F74 
 2419      686400
 2420              		.ident	"GCC: (15:4.9.3+svn231177-1) 4.9.3 20150529 (prerelease)"
ARM GAS  /tmp/ccYXQwkX.s 			page 48


DEFINED SYMBOLS
                            *ABS*:0000000000000000 memstreams.c
     /tmp/ccYXQwkX.s:21     .text._put:0000000000000000 $t
     /tmp/ccYXQwkX.s:25     .text._put:0000000000000000 _put
     /tmp/ccYXQwkX.s:58     .text._get:0000000000000000 $t
     /tmp/ccYXQwkX.s:62     .text._get:0000000000000000 _get
     /tmp/ccYXQwkX.s:94     .text._reads:0000000000000000 $t
     /tmp/ccYXQwkX.s:98     .text._reads:0000000000000000 _reads
     /tmp/ccYXQwkX.s:142    .text._writes:0000000000000000 $t
     /tmp/ccYXQwkX.s:146    .text._writes:0000000000000000 _writes
     /tmp/ccYXQwkX.s:187    .text.msObjectInit:0000000000000000 $t
     /tmp/ccYXQwkX.s:192    .text.msObjectInit:0000000000000000 msObjectInit
     /tmp/ccYXQwkX.s:221    .text.msObjectInit:0000000000000014 $d
     /tmp/ccYXQwkX.s:226    .rodata.vmt:0000000000000000 $d
     /tmp/ccYXQwkX.s:230    .rodata.vmt:0000000000000000 vmt
                     .debug_frame:0000000000000010 $d

UNDEFINED SYMBOLS
memcpy
