ARM GAS  /tmp/ccSRR3Hg.s 			page 1


   1              		.syntax unified
   2              		.cpu cortex-m4
   3              		.eabi_attribute 27, 1
   4              		.eabi_attribute 28, 1
   5              		.fpu fpv4-sp-d16
   6              		.eabi_attribute 20, 1
   7              		.eabi_attribute 21, 1
   8              		.eabi_attribute 23, 3
   9              		.eabi_attribute 24, 1
  10              		.eabi_attribute 25, 1
  11              		.eabi_attribute 26, 1
  12              		.eabi_attribute 30, 4
  13              		.eabi_attribute 34, 1
  14              		.eabi_attribute 18, 4
  15              		.thumb
  16              		.file	"nullstreams.c"
  17              		.text
  18              	.Ltext0:
  19              		.cfi_sections	.debug_frame
  20              		.section	.text.writes,"ax",%progbits
  21              		.align	1
  22              		.thumb
  23              		.thumb_func
  24              		.type	writes, %function
  25              	writes:
  26              	.LFB277:
  27              		.file 1 "../../modules/ChibiOS/os/hal/lib/streams/nullstreams.c"
  28              		.loc 1 44 0
  29              		.cfi_startproc
  30              		@ args = 0, pretend = 0, frame = 0
  31              		@ frame_needed = 0, uses_anonymous_args = 0
  32              		@ link register save eliminated.
  33              	.LVL0:
  34              		.loc 1 50 0
  35 0000 1046     		mov	r0, r2
  36              	.LVL1:
  37 0002 7047     		bx	lr
  38              		.cfi_endproc
  39              	.LFE277:
  40              		.size	writes, .-writes
  41              		.section	.text.reads,"ax",%progbits
  42              		.align	1
  43              		.thumb
  44              		.thumb_func
  45              		.type	reads, %function
  46              	reads:
  47              	.LFB278:
  48              		.loc 1 52 0
  49              		.cfi_startproc
  50              		@ args = 0, pretend = 0, frame = 0
  51              		@ frame_needed = 0, uses_anonymous_args = 0
  52              		@ link register save eliminated.
  53              	.LVL2:
  54              		.loc 1 59 0
  55 0000 0020     		movs	r0, #0
  56              	.LVL3:
  57 0002 7047     		bx	lr
ARM GAS  /tmp/ccSRR3Hg.s 			page 2


  58              		.cfi_endproc
  59              	.LFE278:
  60              		.size	reads, .-reads
  61              		.section	.text.put,"ax",%progbits
  62              		.align	1
  63              		.thumb
  64              		.thumb_func
  65              		.type	put, %function
  66              	put:
  67              	.LFB279:
  68              		.loc 1 61 0
  69              		.cfi_startproc
  70              		@ args = 0, pretend = 0, frame = 0
  71              		@ frame_needed = 0, uses_anonymous_args = 0
  72              		@ link register save eliminated.
  73              	.LVL4:
  74              		.loc 1 67 0
  75 0000 0020     		movs	r0, #0
  76              	.LVL5:
  77 0002 7047     		bx	lr
  78              		.cfi_endproc
  79              	.LFE279:
  80              		.size	put, .-put
  81              		.section	.text.get,"ax",%progbits
  82              		.align	1
  83              		.thumb
  84              		.thumb_func
  85              		.type	get, %function
  86              	get:
  87              	.LFB280:
  88              		.loc 1 69 0
  89              		.cfi_startproc
  90              		@ args = 0, pretend = 0, frame = 0
  91              		@ frame_needed = 0, uses_anonymous_args = 0
  92              		@ link register save eliminated.
  93              	.LVL6:
  94              		.loc 1 74 0
  95 0000 0420     		movs	r0, #4
  96              	.LVL7:
  97 0002 7047     		bx	lr
  98              		.cfi_endproc
  99              	.LFE280:
 100              		.size	get, .-get
 101              		.section	.text.nullObjectInit,"ax",%progbits
 102              		.align	1
 103              		.global	nullObjectInit
 104              		.thumb
 105              		.thumb_func
 106              		.type	nullObjectInit, %function
 107              	nullObjectInit:
 108              	.LFB281:
 109              		.loc 1 87 0
 110              		.cfi_startproc
 111              		@ args = 0, pretend = 0, frame = 0
 112              		@ frame_needed = 0, uses_anonymous_args = 0
 113              		@ link register save eliminated.
 114              	.LVL8:
ARM GAS  /tmp/ccSRR3Hg.s 			page 3


 115              		.loc 1 89 0
 116 0000 014B     		ldr	r3, .L6
 117 0002 0360     		str	r3, [r0]
 118 0004 7047     		bx	lr
 119              	.L7:
 120 0006 00BF     		.align	2
 121              	.L6:
 122 0008 00000000 		.word	.LANCHOR0
 123              		.cfi_endproc
 124              	.LFE281:
 125              		.size	nullObjectInit, .-nullObjectInit
 126              		.section	.rodata.vmt,"a",%progbits
 127              		.align	2
 128              		.set	.LANCHOR0,. + 0
 129              		.type	vmt, %object
 130              		.size	vmt, 16
 131              	vmt:
 132 0000 00000000 		.word	writes
 133 0004 00000000 		.word	reads
 134 0008 00000000 		.word	put
 135 000c 00000000 		.word	get
 136              		.text
 137              	.Letext0:
 138              		.file 2 "/usr/lib/gcc/arm-none-eabi/4.9.3/include/stddef.h"
 139              		.file 3 "/usr/include/newlib/machine/_default_types.h"
 140              		.file 4 "/usr/include/newlib/sys/_stdint.h"
 141              		.file 5 "../../modules/ChibiOS/os/common/ports/ARMCMx/compilers/GCC/chtypes.h"
 142              		.file 6 "../../modules/ChibiOS/os/rt/include/chsystypes.h"
 143              		.file 7 "../../modules/ChibiOS/os/rt/include/chschd.h"
 144              		.file 8 "../../modules/ChibiOS/os/common/ports/ARMCMx/chcore.h"
 145              		.file 9 "../../modules/ChibiOS/os/common/ports/ARMCMx/chcore_v7m.h"
 146              		.file 10 "../../modules/ChibiOS/os/rt/include/chtm.h"
 147              		.file 11 "../../modules/ChibiOS/os/rt/include/chstats.h"
 148              		.file 12 "../../modules/ChibiOS/os/rt/include/chsem.h"
 149              		.file 13 "../../modules/ChibiOS/os/rt/include/chmtx.h"
 150              		.file 14 "../../modules/ChibiOS/os/hal/lib/streams/nullstreams.h"
 151              		.file 15 "../../modules/ChibiOS/os/common/ext/CMSIS/include/core_cm4.h"