ARM GAS  /tmp/ccSRR3Hg.s 			page 1


   1              		.syntax unified
   2              		.cpu cortex-m4
   3              		.eabi_attribute 27, 1
   4              		.eabi_attribute 28, 1
   5              		.fpu fpv4-sp-d16
   6              		.eabi_attribute 20, 1
   7              		.eabi_attribute 21, 1
   8              		.eabi_attribute 23, 3
   9              		.eabi_attribute 24, 1
  10              		.eabi_attribute 25, 1
  11              		.eabi_attribute 26, 1
  12              		.eabi_attribute 30, 4
  13              		.eabi_attribute 34, 1
  14              		.eabi_attribute 18, 4
  15              		.thumb
  16              		.file	"nullstreams.c"
  17              		.text
  18              	.Ltext0:
  19              		.cfi_sections	.debug_frame
  20              		.section	.text.writes,"ax",%progbits
  21              		.align	1
  22              		.thumb
  23              		.thumb_func
  24              		.type	writes, %function
  25              	writes:
  26              	.LFB277:
  27              		.file 1 "../../modules/ChibiOS/os/hal/lib/streams/nullstreams.c"
  28              		.loc 1 44 0
  29              		.cfi_startproc
  30              		@ args = 0, pretend = 0, frame = 0
  31              		@ frame_needed = 0, uses_anonymous_args = 0
  32              		@ link register save eliminated.
  33              	.LVL0:
  34              		.loc 1 50 0
  35 0000 1046     		mov	r0, r2
  36              	.LVL1:
  37 0002 7047     		bx	lr
  38              		.cfi_endproc
  39              	.LFE277:
  40              		.size	writes, .-writes
  41              		.section	.text.reads,"ax",%progbits
  42              		.align	1
  43              		.thumb
  44              		.thumb_func
  45              		.type	reads, %function
  46              	reads:
  47              	.LFB278:
  48              		.loc 1 52 0
  49              		.cfi_startproc
  50              		@ args = 0, pretend = 0, frame = 0
  51              		@ frame_needed = 0, uses_anonymous_args = 0
  52              		@ link register save eliminated.
  53              	.LVL2:
  54              		.loc 1 59 0
  55 0000 0020     		movs	r0, #0
  56              	.LVL3:
  57 0002 7047     		bx	lr
ARM GAS  /tmp/ccSRR3Hg.s 			page 2


  58              		.cfi_endproc
  59              	.LFE278:
  60              		.size	reads, .-reads
  61              		.section	.text.put,"ax",%progbits
  62              		.align	1
  63              		.thumb
  64              		.thumb_func
  65              		.type	put, %function
  66              	put:
  67              	.LFB279:
  68              		.loc 1 61 0
  69              		.cfi_startproc
  70              		@ args = 0, pretend = 0, frame = 0
  71              		@ frame_needed = 0, uses_anonymous_args = 0
  72              		@ link register save eliminated.
  73              	.LVL4:
  74              		.loc 1 67 0
  75 0000 0020     		movs	r0, #0
  76              	.LVL5:
  77 0002 7047     		bx	lr
  78              		.cfi_endproc
  79              	.LFE279:
  80              		.size	put, .-put
  81              		.section	.text.get,"ax",%progbits
  82              		.align	1
  83              		.thumb
  84              		.thumb_func
  85              		.type	get, %function
  86              	get:
  87              	.LFB280:
  88              		.loc 1 69 0
  89              		.cfi_startproc
  90              		@ args = 0, pretend = 0, frame = 0
  91              		@ frame_needed = 0, uses_anonymous_args = 0
  92              		@ link register save eliminated.
  93              	.LVL6:
  94              		.loc 1 74 0
  95 0000 0420     		movs	r0, #4
  96              	.LVL7:
  97 0002 7047     		bx	lr
  98              		.cfi_endproc
  99              	.LFE280:
 100              		.size	get, .-get
 101              		.section	.text.nullObjectInit,"ax",%progbits
 102              		.align	1
 103              		.global	nullObjectInit
 104              		.thumb
 105              		.thumb_func
 106              		.type	nullObjectInit, %function
 107              	nullObjectInit:
 108              	.LFB281:
 109              		.loc 1 87 0
 110              		.cfi_startproc
 111              		@ args = 0, pretend = 0, frame = 0
 112              		@ frame_needed = 0, uses_anonymous_args = 0
 113              		@ link register save eliminated.
 114              	.LVL8:
ARM GAS  /tmp/ccSRR3Hg.s 			page 3


 115              		.loc 1 89 0
 116 0000 014B     		ldr	r3, .L6
 117 0002 0360     		str	r3, [r0]
 118 0004 7047     		bx	lr
 119              	.L7:
 120 0006 00BF     		.align	2
 121              	.L6:
 122 0008 00000000 		.word	.LANCHOR0
 123              		.cfi_endproc
 124              	.LFE281:
 125              		.size	nullObjectInit, .-nullObjectInit
 126              		.section	.rodata.vmt,"a",%progbits
 127              		.align	2
 128              		.set	.LANCHOR0,. + 0
 129              		.type	vmt, %object
 130              		.size	vmt, 16
 131              	vmt:
 132 0000 00000000 		.word	writes
 133 0004 00000000 		.word	reads
 134 0008 00000000 		.word	put
 135 000c 00000000 		.word	get
 136              		.text
 137              	.Letext0:
 138              		.file 2 "/usr/lib/gcc/arm-none-eabi/4.9.3/include/stddef.h"
 139              		.file 3 "/usr/include/newlib/machine/_default_types.h"
 140              		.file 4 "/usr/include/newlib/sys/_stdint.h"
 141              		.file 5 "../../modules/ChibiOS/os/common/ports/ARMCMx/compilers/GCC/chtypes.h"
 142              		.file 6 "../../modules/ChibiOS/os/rt/include/chsystypes.h"
 143              		.file 7 "../../modules/ChibiOS/os/rt/include/chschd.h"
 144              		.file 8 "../../modules/ChibiOS/os/common/ports/ARMCMx/chcore.h"
 145              		.file 9 "../../modules/ChibiOS/os/common/ports/ARMCMx/chcore_v7m.h"
 146              		.file 10 "../../modules/ChibiOS/os/rt/include/chtm.h"
 147              		.file 11 "../../modules/ChibiOS/os/rt/include/chstats.h"
 148              		.file 12 "../../modules/ChibiOS/os/rt/include/chsem.h"
 149              		.file 13 "../../modules/ChibiOS/os/rt/include/chmtx.h"
 150              		.file 14 "../../modules/ChibiOS/os/hal/lib/streams/nullstreams.h"
 151              		.file 15 "../../modules/ChibiOS/os/common/ext/CMSIS/include/core_cm4.h"
 152              		.section	.debug_info,"",%progbits
 153              	.Ldebug_info0:
 154 0000 AB090000 		.4byte	0x9ab
 155 0004 0400     		.2byte	0x4
 156 0006 00000000 		.4byte	.Ldebug_abbrev0
 157 000a 04       		.byte	0x4
 158 000b 01       		.uleb128 0x1
 159 000c D1010000 		.4byte	.LASF112
 160 0010 01       		.byte	0x1
 161 0011 EC030000 		.4byte	.LASF113
 162 0015 21010000 		.4byte	.LASF114
 163 0019 00000000 		.4byte	.Ldebug_ranges0+0
 164 001d 00000000 		.4byte	0
 165 0021 00000000 		.4byte	.Ldebug_line0
 166 0025 02       		.uleb128 0x2
 167 0026 04       		.byte	0x4
 168 0027 05       		.byte	0x5
 169 0028 696E7400 		.ascii	"int\000"
 170 002c 03       		.uleb128 0x3
 171 002d 0D000000 		.4byte	.LASF2
ARM GAS  /tmp/ccSRR3Hg.s 			page 4


 172 0031 02       		.byte	0x2
 173 0032 D4       		.byte	0xd4
 174 0033 37000000 		.4byte	0x37
 175 0037 04       		.uleb128 0x4
 176 0038 04       		.byte	0x4
 177 0039 07       		.byte	0x7
 178 003a C4010000 		.4byte	.LASF0
 179 003e 04       		.uleb128 0x4
 180 003f 01       		.byte	0x1
 181 0040 06       		.byte	0x6
 182 0041 03010000 		.4byte	.LASF1
 183 0045 03       		.uleb128 0x3
 184 0046 37000000 		.4byte	.LASF3
 185 004a 03       		.byte	0x3
 186 004b 1D       		.byte	0x1d
 187 004c 50000000 		.4byte	0x50
 188 0050 04       		.uleb128 0x4
 189 0051 01       		.byte	0x1
 190 0052 08       		.byte	0x8
 191 0053 82040000 		.4byte	.LASF4
 192 0057 04       		.uleb128 0x4
 193 0058 02       		.byte	0x2
 194 0059 05       		.byte	0x5
 195 005a 90040000 		.4byte	.LASF5
 196 005e 04       		.uleb128 0x4
 197 005f 02       		.byte	0x2
 198 0060 07       		.byte	0x7
 199 0061 DF020000 		.4byte	.LASF6
 200 0065 03       		.uleb128 0x3
 201 0066 7A030000 		.4byte	.LASF7
 202 006a 03       		.byte	0x3
 203 006b 3F       		.byte	0x3f
 204 006c 70000000 		.4byte	0x70
 205 0070 04       		.uleb128 0x4
 206 0071 04       		.byte	0x4
 207 0072 05       		.byte	0x5
 208 0073 5F010000 		.4byte	.LASF8
 209 0077 03       		.uleb128 0x3
 210 0078 8A010000 		.4byte	.LASF9
 211 007c 03       		.byte	0x3
 212 007d 41       		.byte	0x41
 213 007e 82000000 		.4byte	0x82
 214 0082 04       		.uleb128 0x4
 215 0083 04       		.byte	0x4
 216 0084 07       		.byte	0x7
 217 0085 01050000 		.4byte	.LASF10
 218 0089 04       		.uleb128 0x4
 219 008a 08       		.byte	0x8
 220 008b 05       		.byte	0x5
 221 008c F5000000 		.4byte	.LASF11
 222 0090 03       		.uleb128 0x3
 223 0091 30040000 		.4byte	.LASF12
 224 0095 03       		.byte	0x3
 225 0096 5B       		.byte	0x5b
 226 0097 9B000000 		.4byte	0x9b
 227 009b 04       		.uleb128 0x4
 228 009c 08       		.byte	0x8
ARM GAS  /tmp/ccSRR3Hg.s 			page 5


 229 009d 07       		.byte	0x7
 230 009e 8B000000 		.4byte	.LASF13
 231 00a2 03       		.uleb128 0x3
 232 00a3 83050000 		.4byte	.LASF14
 233 00a7 04       		.byte	0x4
 234 00a8 14       		.byte	0x14
 235 00a9 45000000 		.4byte	0x45
 236 00ad 03       		.uleb128 0x3
 237 00ae 7A040000 		.4byte	.LASF15
 238 00b2 04       		.byte	0x4
 239 00b3 1F       		.byte	0x1f
 240 00b4 65000000 		.4byte	0x65
 241 00b8 03       		.uleb128 0x3
 242 00b9 D2040000 		.4byte	.LASF16
 243 00bd 04       		.byte	0x4
 244 00be 20       		.byte	0x20
 245 00bf 77000000 		.4byte	0x77
 246 00c3 03       		.uleb128 0x3
 247 00c4 21000000 		.4byte	.LASF17
 248 00c8 04       		.byte	0x4
 249 00c9 26       		.byte	0x26
 250 00ca 90000000 		.4byte	0x90
 251 00ce 03       		.uleb128 0x3
 252 00cf 5C050000 		.4byte	.LASF18
 253 00d3 05       		.byte	0x5
 254 00d4 39       		.byte	0x39
 255 00d5 B8000000 		.4byte	0xb8
 256 00d9 03       		.uleb128 0x3
 257 00da E6000000 		.4byte	.LASF19
 258 00de 05       		.byte	0x5
 259 00df 3A       		.byte	0x3a
 260 00e0 C3000000 		.4byte	0xc3
 261 00e4 03       		.uleb128 0x3
 262 00e5 4D030000 		.4byte	.LASF20
 263 00e9 05       		.byte	0x5
 264 00ea 3C       		.byte	0x3c
 265 00eb A2000000 		.4byte	0xa2
 266 00ef 03       		.uleb128 0x3
 267 00f0 68010000 		.4byte	.LASF21
 268 00f4 05       		.byte	0x5
 269 00f5 3D       		.byte	0x3d
 270 00f6 A2000000 		.4byte	0xa2
 271 00fa 03       		.uleb128 0x3
 272 00fb 46040000 		.4byte	.LASF22
 273 00ff 05       		.byte	0x5
 274 0100 3E       		.byte	0x3e
 275 0101 A2000000 		.4byte	0xa2
 276 0105 03       		.uleb128 0x3
 277 0106 63040000 		.4byte	.LASF23
 278 010a 05       		.byte	0x5
 279 010b 40       		.byte	0x40
 280 010c B8000000 		.4byte	0xb8
 281 0110 03       		.uleb128 0x3
 282 0111 10030000 		.4byte	.LASF24
 283 0115 05       		.byte	0x5
 284 0116 41       		.byte	0x41
 285 0117 AD000000 		.4byte	0xad
ARM GAS  /tmp/ccSRR3Hg.s 			page 6


 286 011b 03       		.uleb128 0x3
 287 011c 6E030000 		.4byte	.LASF25
 288 0120 05       		.byte	0x5
 289 0121 43       		.byte	0x43
 290 0122 B8000000 		.4byte	0xb8
 291 0126 03       		.uleb128 0x3
 292 0127 BE010000 		.4byte	.LASF26
 293 012b 05       		.byte	0x5
 294 012c 45       		.byte	0x45
 295 012d AD000000 		.4byte	0xad
 296 0131 03       		.uleb128 0x3
 297 0132 1B030000 		.4byte	.LASF27
 298 0136 05       		.byte	0x5
 299 0137 46       		.byte	0x46
 300 0138 B8000000 		.4byte	0xb8
 301 013c 03       		.uleb128 0x3
 302 013d 38050000 		.4byte	.LASF28
 303 0141 06       		.byte	0x6
 304 0142 33       		.byte	0x33
 305 0143 B8000000 		.4byte	0xb8
 306 0147 03       		.uleb128 0x3
 307 0148 2A050000 		.4byte	.LASF29
 308 014c 06       		.byte	0x6
 309 014d 3F       		.byte	0x3f
 310 014e 52010000 		.4byte	0x152
 311 0152 05       		.uleb128 0x5
 312 0153 06030000 		.4byte	.LASF48
 313 0157 60       		.byte	0x60
 314 0158 07       		.byte	0x7
 315 0159 9A       		.byte	0x9a
 316 015a 3D020000 		.4byte	0x23d
 317 015e 06       		.uleb128 0x6
 318 015f D3020000 		.4byte	.LASF30
 319 0163 07       		.byte	0x7
 320 0164 9B       		.byte	0x9b
 321 0165 72020000 		.4byte	0x272
 322 0169 00       		.byte	0
 323 016a 06       		.uleb128 0x6
 324 016b 23040000 		.4byte	.LASF31
 325 016f 07       		.byte	0x7
 326 0170 9C       		.byte	0x9c
 327 0171 05010000 		.4byte	0x105
 328 0175 08       		.byte	0x8
 329 0176 07       		.uleb128 0x7
 330 0177 63747800 		.ascii	"ctx\000"
 331 017b 07       		.byte	0x7
 332 017c 9D       		.byte	0x9d
 333 017d 77040000 		.4byte	0x477
 334 0181 0C       		.byte	0xc
 335 0182 06       		.uleb128 0x6
 336 0183 8F030000 		.4byte	.LASF32
 337 0187 07       		.byte	0x7
 338 0188 9F       		.byte	0x9f
 339 0189 48020000 		.4byte	0x248
 340 018d 10       		.byte	0x10
 341 018e 06       		.uleb128 0x6
 342 018f 24050000 		.4byte	.LASF33
ARM GAS  /tmp/ccSRR3Hg.s 			page 7


 343 0193 07       		.byte	0x7
 344 0194 A0       		.byte	0xa0
 345 0195 48020000 		.4byte	0x248
 346 0199 14       		.byte	0x14
 347 019a 06       		.uleb128 0x6
 348 019b 01030000 		.4byte	.LASF34
 349 019f 07       		.byte	0x7
 350 01a0 A7       		.byte	0xa7
 351 01a1 5E070000 		.4byte	0x75e
 352 01a5 18       		.byte	0x18
 353 01a6 06       		.uleb128 0x6
 354 01a7 13050000 		.4byte	.LASF35
 355 01ab 07       		.byte	0x7
 356 01ac B0       		.byte	0xb0
 357 01ad 70070000 		.4byte	0x770
 358 01b1 1C       		.byte	0x1c
 359 01b2 06       		.uleb128 0x6
 360 01b3 59010000 		.4byte	.LASF36
 361 01b7 07       		.byte	0x7
 362 01b8 B5       		.byte	0xb5
 363 01b9 EF000000 		.4byte	0xef
 364 01bd 20       		.byte	0x20
 365 01be 06       		.uleb128 0x6
 366 01bf 8B050000 		.4byte	.LASF37
 367 01c3 07       		.byte	0x7
 368 01c4 B9       		.byte	0xb9
 369 01c5 E4000000 		.4byte	0xe4
 370 01c9 21       		.byte	0x21
 371 01ca 06       		.uleb128 0x6
 372 01cb 4E040000 		.4byte	.LASF38
 373 01cf 07       		.byte	0x7
 374 01d0 BE       		.byte	0xbe
 375 01d1 FA000000 		.4byte	0xfa
 376 01d5 22       		.byte	0x22
 377 01d6 08       		.uleb128 0x8
 378 01d7 7500     		.ascii	"u\000"
 379 01d9 07       		.byte	0x7
 380 01da 0F01     		.2byte	0x10f
 381 01dc 93060000 		.4byte	0x693
 382 01e0 24       		.byte	0x24
 383 01e1 09       		.uleb128 0x9
 384 01e2 AE010000 		.4byte	.LASF39
 385 01e6 07       		.byte	0x7
 386 01e7 1401     		.2byte	0x114
 387 01e9 4E020000 		.4byte	0x24e
 388 01ed 28       		.byte	0x28
 389 01ee 09       		.uleb128 0x9
 390 01ef 50010000 		.4byte	.LASF40
 391 01f3 07       		.byte	0x7
 392 01f4 1A01     		.2byte	0x11a
 393 01f6 72020000 		.4byte	0x272
 394 01fa 2C       		.byte	0x2c
 395 01fb 09       		.uleb128 0x9
 396 01fc 22030000 		.4byte	.LASF41
 397 0200 07       		.byte	0x7
 398 0201 2001     		.2byte	0x120
 399 0203 1B010000 		.4byte	0x11b
ARM GAS  /tmp/ccSRR3Hg.s 			page 8


 400 0207 34       		.byte	0x34
 401 0208 09       		.uleb128 0x9
 402 0209 A7050000 		.4byte	.LASF42
 403 020d 07       		.byte	0x7
 404 020e 2701     		.2byte	0x127
 405 0210 58070000 		.4byte	0x758
 406 0214 38       		.byte	0x38
 407 0215 09       		.uleb128 0x9
 408 0216 F8040000 		.4byte	.LASF43
 409 021a 07       		.byte	0x7
 410 021b 2B01     		.2byte	0x12b
 411 021d 05010000 		.4byte	0x105
 412 0221 3C       		.byte	0x3c
 413 0222 09       		.uleb128 0x9
 414 0223 D9020000 		.4byte	.LASF44
 415 0227 07       		.byte	0x7
 416 0228 3201     		.2byte	0x132
 417 022a 25030000 		.4byte	0x325
 418 022e 40       		.byte	0x40
 419 022f 09       		.uleb128 0x9
 420 0230 76010000 		.4byte	.LASF45
 421 0234 07       		.byte	0x7
 422 0235 3801     		.2byte	0x138
 423 0237 44060000 		.4byte	0x644
 424 023b 48       		.byte	0x48
 425 023c 00       		.byte	0
 426 023d 03       		.uleb128 0x3
 427 023e A4030000 		.4byte	.LASF46
 428 0242 06       		.byte	0x6
 429 0243 44       		.byte	0x44
 430 0244 48020000 		.4byte	0x248
 431 0248 0A       		.uleb128 0xa
 432 0249 04       		.byte	0x4
 433 024a 47010000 		.4byte	0x147
 434 024e 03       		.uleb128 0x3
 435 024f 98050000 		.4byte	.LASF47
 436 0253 06       		.byte	0x6
 437 0254 49       		.byte	0x49
 438 0255 59020000 		.4byte	0x259
 439 0259 05       		.uleb128 0x5
 440 025a E2040000 		.4byte	.LASF49
 441 025e 04       		.byte	0x4
 442 025f 07       		.byte	0x7
 443 0260 88       		.byte	0x88
 444 0261 72020000 		.4byte	0x272
 445 0265 06       		.uleb128 0x6
 446 0266 E1000000 		.4byte	.LASF50
 447 026a 07       		.byte	0x7
 448 026b 89       		.byte	0x89
 449 026c 48020000 		.4byte	0x248
 450 0270 00       		.byte	0
 451 0271 00       		.byte	0
 452 0272 03       		.uleb128 0x3
 453 0273 64050000 		.4byte	.LASF51
 454 0277 06       		.byte	0x6
 455 0278 50       		.byte	0x50
 456 0279 7D020000 		.4byte	0x27d
ARM GAS  /tmp/ccSRR3Hg.s 			page 9


 457 027d 05       		.uleb128 0x5
 458 027e 52000000 		.4byte	.LASF52
 459 0282 08       		.byte	0x8
 460 0283 07       		.byte	0x7
 461 0284 8F       		.byte	0x8f
 462 0285 A2020000 		.4byte	0x2a2
 463 0289 06       		.uleb128 0x6
 464 028a E1000000 		.4byte	.LASF50
 465 028e 07       		.byte	0x7
 466 028f 90       		.byte	0x90
 467 0290 48020000 		.4byte	0x248
 468 0294 00       		.byte	0
 469 0295 06       		.uleb128 0x6
 470 0296 41000000 		.4byte	.LASF53
 471 029a 07       		.byte	0x7
 472 029b 91       		.byte	0x91
 473 029c 48020000 		.4byte	0x248
 474 02a0 04       		.byte	0x4
 475 02a1 00       		.byte	0
 476 02a2 03       		.uleb128 0x3
 477 02a3 00000000 		.4byte	.LASF54
 478 02a7 06       		.byte	0x6
 479 02a8 57       		.byte	0x57
 480 02a9 AD020000 		.4byte	0x2ad
 481 02ad 0B       		.uleb128 0xb
 482 02ae 60030000 		.4byte	.LASF55
 483 02b2 1C       		.byte	0x1c
 484 02b3 07       		.byte	0x7
 485 02b4 6A01     		.2byte	0x16a
 486 02b6 09030000 		.4byte	0x309
 487 02ba 09       		.uleb128 0x9
 488 02bb D3020000 		.4byte	.LASF30
 489 02bf 07       		.byte	0x7
 490 02c0 6B01     		.2byte	0x16b
 491 02c2 72020000 		.4byte	0x272
 492 02c6 00       		.byte	0
 493 02c7 09       		.uleb128 0x9
 494 02c8 23040000 		.4byte	.LASF31
 495 02cc 07       		.byte	0x7
 496 02cd 6C01     		.2byte	0x16c
 497 02cf 05010000 		.4byte	0x105
 498 02d3 08       		.byte	0x8
 499 02d4 08       		.uleb128 0x8
 500 02d5 63747800 		.ascii	"ctx\000"
 501 02d9 07       		.byte	0x7
 502 02da 6E01     		.2byte	0x16e
 503 02dc 77040000 		.4byte	0x477
 504 02e0 0C       		.byte	0xc
 505 02e1 09       		.uleb128 0x9
 506 02e2 8F030000 		.4byte	.LASF32
 507 02e6 07       		.byte	0x7
 508 02e7 7101     		.2byte	0x171
 509 02e9 48020000 		.4byte	0x248
 510 02ed 10       		.byte	0x10
 511 02ee 09       		.uleb128 0x9
 512 02ef 24050000 		.4byte	.LASF33
 513 02f3 07       		.byte	0x7
ARM GAS  /tmp/ccSRR3Hg.s 			page 10


 514 02f4 7201     		.2byte	0x172
 515 02f6 48020000 		.4byte	0x248
 516 02fa 14       		.byte	0x14
 517 02fb 09       		.uleb128 0x9
 518 02fc 28040000 		.4byte	.LASF56
 519 0300 07       		.byte	0x7
 520 0301 7501     		.2byte	0x175
 521 0303 48020000 		.4byte	0x248
 522 0307 18       		.byte	0x18
 523 0308 00       		.byte	0
 524 0309 03       		.uleb128 0x3
 525 030a 42050000 		.4byte	.LASF57
 526 030e 06       		.byte	0x6
 527 030f 5C       		.byte	0x5c
 528 0310 14030000 		.4byte	0x314
 529 0314 0A       		.uleb128 0xa
 530 0315 04       		.byte	0x4
 531 0316 1A030000 		.4byte	0x31a
 532 031a 0C       		.uleb128 0xc
 533 031b 25030000 		.4byte	0x325
 534 031f 0D       		.uleb128 0xd
 535 0320 25030000 		.4byte	0x325
 536 0324 00       		.byte	0
 537 0325 0E       		.uleb128 0xe
 538 0326 04       		.byte	0x4
 539 0327 03       		.uleb128 0x3
 540 0328 53040000 		.4byte	.LASF58
 541 032c 06       		.byte	0x6
 542 032d 61       		.byte	0x61
 543 032e 32030000 		.4byte	0x332
 544 0332 0B       		.uleb128 0xb
 545 0333 B4040000 		.4byte	.LASF59
 546 0337 14       		.byte	0x14
 547 0338 07       		.byte	0x7
 548 0339 4501     		.2byte	0x145
 549 033b 81030000 		.4byte	0x381
 550 033f 09       		.uleb128 0x9
 551 0340 E1000000 		.4byte	.LASF50
 552 0344 07       		.byte	0x7
 553 0345 4601     		.2byte	0x146
 554 0347 76070000 		.4byte	0x776
 555 034b 00       		.byte	0
 556 034c 09       		.uleb128 0x9
 557 034d 41000000 		.4byte	.LASF53
 558 0351 07       		.byte	0x7
 559 0352 4701     		.2byte	0x147
 560 0354 76070000 		.4byte	0x776
 561 0358 04       		.byte	0x4
 562 0359 09       		.uleb128 0x9
 563 035a 14000000 		.4byte	.LASF60
 564 035e 07       		.byte	0x7
 565 035f 4801     		.2byte	0x148
 566 0361 3C010000 		.4byte	0x13c
 567 0365 08       		.byte	0x8
 568 0366 09       		.uleb128 0x9
 569 0367 71010000 		.4byte	.LASF61
 570 036b 07       		.byte	0x7
ARM GAS  /tmp/ccSRR3Hg.s 			page 11


 571 036c 4901     		.2byte	0x149
 572 036e 09030000 		.4byte	0x309
 573 0372 0C       		.byte	0xc
 574 0373 08       		.uleb128 0x8
 575 0374 70617200 		.ascii	"par\000"
 576 0378 07       		.byte	0x7
 577 0379 4B01     		.2byte	0x14b
 578 037b 25030000 		.4byte	0x325
 579 037f 10       		.byte	0x10
 580 0380 00       		.byte	0
 581 0381 03       		.uleb128 0x3
 582 0382 BE000000 		.4byte	.LASF62
 583 0386 06       		.byte	0x6
 584 0387 66       		.byte	0x66
 585 0388 8C030000 		.4byte	0x38c
 586 038c 0B       		.uleb128 0xb
 587 038d B7030000 		.4byte	.LASF63
 588 0391 10       		.byte	0x10
 589 0392 07       		.byte	0x7
 590 0393 5501     		.2byte	0x155
 591 0395 CE030000 		.4byte	0x3ce
 592 0399 09       		.uleb128 0x9
 593 039a E1000000 		.4byte	.LASF50
 594 039e 07       		.byte	0x7
 595 039f 5601     		.2byte	0x156
 596 03a1 76070000 		.4byte	0x776
 597 03a5 00       		.byte	0
 598 03a6 09       		.uleb128 0x9
 599 03a7 41000000 		.4byte	.LASF53
 600 03ab 07       		.byte	0x7
 601 03ac 5801     		.2byte	0x158
 602 03ae 76070000 		.4byte	0x776
 603 03b2 04       		.byte	0x4
 604 03b3 09       		.uleb128 0x9
 605 03b4 14000000 		.4byte	.LASF60
 606 03b8 07       		.byte	0x7
 607 03b9 5A01     		.2byte	0x15a
 608 03bb 3C010000 		.4byte	0x13c
 609 03bf 08       		.byte	0x8
 610 03c0 09       		.uleb128 0x9
 611 03c1 9A040000 		.4byte	.LASF64
 612 03c5 07       		.byte	0x7
 613 03c6 6201     		.2byte	0x162
 614 03c8 3C010000 		.4byte	0x13c
 615 03cc 0C       		.byte	0xc
 616 03cd 00       		.byte	0
 617 03ce 03       		.uleb128 0x3
 618 03cf 63000000 		.4byte	.LASF65
 619 03d3 06       		.byte	0x6
 620 03d4 6B       		.byte	0x6b
 621 03d5 D9030000 		.4byte	0x3d9
 622 03d9 0B       		.uleb128 0xb
 623 03da 9E010000 		.4byte	.LASF66
 624 03de 04       		.byte	0x4
 625 03df 07       		.byte	0x7
 626 03e0 7C01     		.2byte	0x17c
 627 03e2 F4030000 		.4byte	0x3f4
ARM GAS  /tmp/ccSRR3Hg.s 			page 12


 628 03e6 09       		.uleb128 0x9
 629 03e7 4B050000 		.4byte	.LASF67
 630 03eb 07       		.byte	0x7
 631 03ec 8401     		.2byte	0x184
 632 03ee 7C070000 		.4byte	0x77c
 633 03f2 00       		.byte	0
 634 03f3 00       		.byte	0
 635 03f4 03       		.uleb128 0x3
 636 03f5 2B030000 		.4byte	.LASF68
 637 03f9 06       		.byte	0x6
 638 03fa 70       		.byte	0x70
 639 03fb FF030000 		.4byte	0x3ff
 640 03ff 0B       		.uleb128 0xb
 641 0400 AA040000 		.4byte	.LASF69
 642 0404 D0       		.byte	0xd0
 643 0405 07       		.byte	0x7
 644 0406 9C01     		.2byte	0x19c
 645 0408 5A040000 		.4byte	0x45a
 646 040c 09       		.uleb128 0x9
 647 040d 7D050000 		.4byte	.LASF70
 648 0411 07       		.byte	0x7
 649 0412 A001     		.2byte	0x1a0
 650 0414 A2020000 		.4byte	0x2a2
 651 0418 00       		.byte	0
 652 0419 09       		.uleb128 0x9
 653 041a 1A010000 		.4byte	.LASF71
 654 041e 07       		.byte	0x7
 655 041f A401     		.2byte	0x1a4
 656 0421 81030000 		.4byte	0x381
 657 0425 1C       		.byte	0x1c
 658 0426 08       		.uleb128 0x8
 659 0427 64626700 		.ascii	"dbg\000"
 660 042b 07       		.byte	0x7
 661 042c A801     		.2byte	0x1a8
 662 042e CE030000 		.4byte	0x3ce
 663 0432 2C       		.byte	0x2c
 664 0433 09       		.uleb128 0x9
 665 0434 AB000000 		.4byte	.LASF72
 666 0438 07       		.byte	0x7
 667 0439 AC01     		.2byte	0x1ac
 668 043b 47010000 		.4byte	0x147
 669 043f 30       		.byte	0x30
 670 0440 08       		.uleb128 0x8
 671 0441 746D00   		.ascii	"tm\000"
 672 0444 07       		.byte	0x7
 673 0445 B101     		.2byte	0x1b1
 674 0447 F6050000 		.4byte	0x5f6
 675 044b 90       		.byte	0x90
 676 044c 09       		.uleb128 0x9
 677 044d 2A000000 		.4byte	.LASF73
 678 0451 07       		.byte	0x7
 679 0452 B701     		.2byte	0x1b7
 680 0454 88060000 		.4byte	0x688
 681 0458 98       		.byte	0x98
 682 0459 00       		.byte	0
 683 045a 04       		.uleb128 0x4
 684 045b 04       		.byte	0x4
ARM GAS  /tmp/ccSRR3Hg.s 			page 13


 685 045c 07       		.byte	0x7
 686 045d 9B030000 		.4byte	.LASF74
 687 0461 03       		.uleb128 0x3
 688 0462 95010000 		.4byte	.LASF75
 689 0466 08       		.byte	0x8
 690 0467 65       		.byte	0x65
 691 0468 25030000 		.4byte	0x325
 692 046c 03       		.uleb128 0x3
 693 046d 84030000 		.4byte	.LASF76
 694 0471 08       		.byte	0x8
 695 0472 6D       		.byte	0x6d
 696 0473 C3000000 		.4byte	0xc3
 697 0477 05       		.uleb128 0x5
 698 0478 DF030000 		.4byte	.LASF77
 699 047c 04       		.byte	0x4
 700 047d 08       		.byte	0x8
 701 047e 89       		.byte	0x89
 702 047f 8F040000 		.4byte	0x48f
 703 0483 07       		.uleb128 0x7
 704 0484 737000   		.ascii	"sp\000"
 705 0487 08       		.byte	0x8
 706 0488 8A       		.byte	0x8a
 707 0489 DB050000 		.4byte	0x5db
 708 048d 00       		.byte	0
 709 048e 00       		.byte	0
 710 048f 0B       		.uleb128 0xb
 711 0490 46000000 		.4byte	.LASF78
 712 0494 64       		.byte	0x64
 713 0495 09       		.byte	0x9
 714 0496 5901     		.2byte	0x159
 715 0498 DB050000 		.4byte	0x5db
 716 049c 08       		.uleb128 0x8
 717 049d 73313600 		.ascii	"s16\000"
 718 04a1 09       		.byte	0x9
 719 04a2 5B01     		.2byte	0x15b
 720 04a4 61040000 		.4byte	0x461
 721 04a8 00       		.byte	0
 722 04a9 08       		.uleb128 0x8
 723 04aa 73313700 		.ascii	"s17\000"
 724 04ae 09       		.byte	0x9
 725 04af 5C01     		.2byte	0x15c
 726 04b1 61040000 		.4byte	0x461
 727 04b5 04       		.byte	0x4
 728 04b6 08       		.uleb128 0x8
 729 04b7 73313800 		.ascii	"s18\000"
 730 04bb 09       		.byte	0x9
 731 04bc 5D01     		.2byte	0x15d
 732 04be 61040000 		.4byte	0x461
 733 04c2 08       		.byte	0x8
 734 04c3 08       		.uleb128 0x8
 735 04c4 73313900 		.ascii	"s19\000"
 736 04c8 09       		.byte	0x9
 737 04c9 5E01     		.2byte	0x15e
 738 04cb 61040000 		.4byte	0x461
 739 04cf 0C       		.byte	0xc
 740 04d0 08       		.uleb128 0x8
 741 04d1 73323000 		.ascii	"s20\000"
ARM GAS  /tmp/ccSRR3Hg.s 			page 14


 742 04d5 09       		.byte	0x9
 743 04d6 5F01     		.2byte	0x15f
 744 04d8 61040000 		.4byte	0x461
 745 04dc 10       		.byte	0x10
 746 04dd 08       		.uleb128 0x8
 747 04de 73323100 		.ascii	"s21\000"
 748 04e2 09       		.byte	0x9
 749 04e3 6001     		.2byte	0x160
 750 04e5 61040000 		.4byte	0x461
 751 04e9 14       		.byte	0x14
 752 04ea 08       		.uleb128 0x8
 753 04eb 73323200 		.ascii	"s22\000"
 754 04ef 09       		.byte	0x9
 755 04f0 6101     		.2byte	0x161
 756 04f2 61040000 		.4byte	0x461
 757 04f6 18       		.byte	0x18
 758 04f7 08       		.uleb128 0x8
 759 04f8 73323300 		.ascii	"s23\000"
 760 04fc 09       		.byte	0x9
 761 04fd 6201     		.2byte	0x162
 762 04ff 61040000 		.4byte	0x461
 763 0503 1C       		.byte	0x1c
 764 0504 08       		.uleb128 0x8
 765 0505 73323400 		.ascii	"s24\000"
 766 0509 09       		.byte	0x9
 767 050a 6301     		.2byte	0x163
 768 050c 61040000 		.4byte	0x461
 769 0510 20       		.byte	0x20
 770 0511 08       		.uleb128 0x8
 771 0512 73323500 		.ascii	"s25\000"
 772 0516 09       		.byte	0x9
 773 0517 6401     		.2byte	0x164
 774 0519 61040000 		.4byte	0x461
 775 051d 24       		.byte	0x24
 776 051e 08       		.uleb128 0x8
 777 051f 73323600 		.ascii	"s26\000"
 778 0523 09       		.byte	0x9
 779 0524 6501     		.2byte	0x165
 780 0526 61040000 		.4byte	0x461
 781 052a 28       		.byte	0x28
 782 052b 08       		.uleb128 0x8
 783 052c 73323700 		.ascii	"s27\000"
 784 0530 09       		.byte	0x9
 785 0531 6601     		.2byte	0x166
 786 0533 61040000 		.4byte	0x461
 787 0537 2C       		.byte	0x2c
 788 0538 08       		.uleb128 0x8
 789 0539 73323800 		.ascii	"s28\000"
 790 053d 09       		.byte	0x9
 791 053e 6701     		.2byte	0x167
 792 0540 61040000 		.4byte	0x461
 793 0544 30       		.byte	0x30
 794 0545 08       		.uleb128 0x8
 795 0546 73323900 		.ascii	"s29\000"
 796 054a 09       		.byte	0x9
 797 054b 6801     		.2byte	0x168
 798 054d 61040000 		.4byte	0x461
ARM GAS  /tmp/ccSRR3Hg.s 			page 15


 799 0551 34       		.byte	0x34
 800 0552 08       		.uleb128 0x8
 801 0553 73333000 		.ascii	"s30\000"
 802 0557 09       		.byte	0x9
 803 0558 6901     		.2byte	0x169
 804 055a 61040000 		.4byte	0x461
 805 055e 38       		.byte	0x38
 806 055f 08       		.uleb128 0x8
 807 0560 73333100 		.ascii	"s31\000"
 808 0564 09       		.byte	0x9
 809 0565 6A01     		.2byte	0x16a
 810 0567 61040000 		.4byte	0x461
 811 056b 3C       		.byte	0x3c
 812 056c 08       		.uleb128 0x8
 813 056d 723400   		.ascii	"r4\000"
 814 0570 09       		.byte	0x9
 815 0571 6C01     		.2byte	0x16c
 816 0573 61040000 		.4byte	0x461
 817 0577 40       		.byte	0x40
 818 0578 08       		.uleb128 0x8
 819 0579 723500   		.ascii	"r5\000"
 820 057c 09       		.byte	0x9
 821 057d 6D01     		.2byte	0x16d
 822 057f 61040000 		.4byte	0x461
 823 0583 44       		.byte	0x44
 824 0584 08       		.uleb128 0x8
 825 0585 723600   		.ascii	"r6\000"
 826 0588 09       		.byte	0x9
 827 0589 6E01     		.2byte	0x16e
 828 058b 61040000 		.4byte	0x461
 829 058f 48       		.byte	0x48
 830 0590 08       		.uleb128 0x8
 831 0591 723700   		.ascii	"r7\000"
 832 0594 09       		.byte	0x9
 833 0595 6F01     		.2byte	0x16f
 834 0597 61040000 		.4byte	0x461
 835 059b 4C       		.byte	0x4c
 836 059c 08       		.uleb128 0x8
 837 059d 723800   		.ascii	"r8\000"
 838 05a0 09       		.byte	0x9
 839 05a1 7001     		.2byte	0x170
 840 05a3 61040000 		.4byte	0x461
 841 05a7 50       		.byte	0x50
 842 05a8 08       		.uleb128 0x8
 843 05a9 723900   		.ascii	"r9\000"
 844 05ac 09       		.byte	0x9
 845 05ad 7101     		.2byte	0x171
 846 05af 61040000 		.4byte	0x461
 847 05b3 54       		.byte	0x54
 848 05b4 08       		.uleb128 0x8
 849 05b5 72313000 		.ascii	"r10\000"
 850 05b9 09       		.byte	0x9
 851 05ba 7201     		.2byte	0x172
 852 05bc 61040000 		.4byte	0x461
 853 05c0 58       		.byte	0x58
 854 05c1 08       		.uleb128 0x8
 855 05c2 72313100 		.ascii	"r11\000"
ARM GAS  /tmp/ccSRR3Hg.s 			page 16


 856 05c6 09       		.byte	0x9
 857 05c7 7301     		.2byte	0x173
 858 05c9 61040000 		.4byte	0x461
 859 05cd 5C       		.byte	0x5c
 860 05ce 08       		.uleb128 0x8
 861 05cf 6C7200   		.ascii	"lr\000"
 862 05d2 09       		.byte	0x9
 863 05d3 7401     		.2byte	0x174
 864 05d5 61040000 		.4byte	0x461
 865 05d9 60       		.byte	0x60
 866 05da 00       		.byte	0
 867 05db 0A       		.uleb128 0xa
 868 05dc 04       		.byte	0x4
 869 05dd 8F040000 		.4byte	0x48f
 870 05e1 0F       		.uleb128 0xf
 871 05e2 04       		.byte	0x4
 872 05e3 0A       		.byte	0xa
 873 05e4 38       		.byte	0x38
 874 05e5 F6050000 		.4byte	0x5f6
 875 05e9 06       		.uleb128 0x6
 876 05ea 55050000 		.4byte	.LASF79
 877 05ee 0A       		.byte	0xa
 878 05ef 3C       		.byte	0x3c
 879 05f0 CE000000 		.4byte	0xce
 880 05f4 00       		.byte	0
 881 05f5 00       		.byte	0
 882 05f6 03       		.uleb128 0x3
 883 05f7 CE030000 		.4byte	.LASF80
 884 05fb 0A       		.byte	0xa
 885 05fc 3D       		.byte	0x3d
 886 05fd E1050000 		.4byte	0x5e1
 887 0601 0F       		.uleb128 0xf
 888 0602 18       		.byte	0x18
 889 0603 0A       		.byte	0xa
 890 0604 48       		.byte	0x48
 891 0605 44060000 		.4byte	0x644
 892 0609 06       		.uleb128 0x6
 893 060a 33050000 		.4byte	.LASF81
 894 060e 0A       		.byte	0xa
 895 060f 49       		.byte	0x49
 896 0610 CE000000 		.4byte	0xce
 897 0614 00       		.byte	0
 898 0615 06       		.uleb128 0x6
 899 0616 72000000 		.4byte	.LASF82
 900 061a 0A       		.byte	0xa
 901 061b 4A       		.byte	0x4a
 902 061c CE000000 		.4byte	0xce
 903 0620 04       		.byte	0x4
 904 0621 06       		.uleb128 0x6
 905 0622 16030000 		.4byte	.LASF83
 906 0626 0A       		.byte	0xa
 907 0627 4B       		.byte	0x4b
 908 0628 CE000000 		.4byte	0xce
 909 062c 08       		.byte	0x8
 910 062d 07       		.uleb128 0x7
 911 062e 6E00     		.ascii	"n\000"
 912 0630 0A       		.byte	0xa
ARM GAS  /tmp/ccSRR3Hg.s 			page 17


 913 0631 4C       		.byte	0x4c
 914 0632 31010000 		.4byte	0x131
 915 0636 0C       		.byte	0xc
 916 0637 06       		.uleb128 0x6
 917 0638 3B040000 		.4byte	.LASF84
 918 063c 0A       		.byte	0xa
 919 063d 4D       		.byte	0x4d
 920 063e D9000000 		.4byte	0xd9
 921 0642 10       		.byte	0x10
 922 0643 00       		.byte	0
 923 0644 03       		.uleb128 0x3
 924 0645 78000000 		.4byte	.LASF85
 925 0649 0A       		.byte	0xa
 926 064a 4E       		.byte	0x4e
 927 064b 01060000 		.4byte	0x601
 928 064f 0F       		.uleb128 0xf
 929 0650 38       		.byte	0x38
 930 0651 0B       		.byte	0xb
 931 0652 38       		.byte	0x38
 932 0653 88060000 		.4byte	0x688
 933 0657 06       		.uleb128 0x6
 934 0658 CD020000 		.4byte	.LASF86
 935 065c 0B       		.byte	0xb
 936 065d 39       		.byte	0x39
 937 065e 31010000 		.4byte	0x131
 938 0662 00       		.byte	0
 939 0663 06       		.uleb128 0x6
 940 0664 6B040000 		.4byte	.LASF87
 941 0668 0B       		.byte	0xb
 942 0669 3A       		.byte	0x3a
 943 066a 31010000 		.4byte	0x131
 944 066e 04       		.byte	0x4
 945 066f 06       		.uleb128 0x6
 946 0670 AF050000 		.4byte	.LASF88
 947 0674 0B       		.byte	0xb
 948 0675 3B       		.byte	0x3b
 949 0676 44060000 		.4byte	0x644
 950 067a 08       		.byte	0x8
 951 067b 06       		.uleb128 0x6
 952 067c 55030000 		.4byte	.LASF89
 953 0680 0B       		.byte	0xb
 954 0681 3D       		.byte	0x3d
 955 0682 44060000 		.4byte	0x644
 956 0686 20       		.byte	0x20
 957 0687 00       		.byte	0
 958 0688 03       		.uleb128 0x3
 959 0689 F2020000 		.4byte	.LASF90
 960 068d 0B       		.byte	0xb
 961 068e 3F       		.byte	0x3f
 962 068f 4F060000 		.4byte	0x64f
 963 0693 10       		.uleb128 0x10
 964 0694 04       		.byte	0x4
 965 0695 07       		.byte	0x7
 966 0696 D2       		.byte	0xd2
 967 0697 F6060000 		.4byte	0x6f6
 968 069b 11       		.uleb128 0x11
 969 069c 1A000000 		.4byte	.LASF91
ARM GAS  /tmp/ccSRR3Hg.s 			page 18


 970 06a0 07       		.byte	0x7
 971 06a1 D9       		.byte	0xd9
 972 06a2 10010000 		.4byte	0x110
 973 06a6 11       		.uleb128 0x11
 974 06a7 A2000000 		.4byte	.LASF92
 975 06ab 07       		.byte	0x7
 976 06ac E0       		.byte	0xe0
 977 06ad 10010000 		.4byte	0x110
 978 06b1 11       		.uleb128 0x11
 979 06b2 91050000 		.4byte	.LASF93
 980 06b6 07       		.byte	0x7
 981 06b7 E7       		.byte	0xe7
 982 06b8 25030000 		.4byte	0x325
 983 06bc 11       		.uleb128 0x11
 984 06bd C7020000 		.4byte	.LASF94
 985 06c1 07       		.byte	0x7
 986 06c2 EE       		.byte	0xee
 987 06c3 F6060000 		.4byte	0x6f6
 988 06c7 11       		.uleb128 0x11
 989 06c8 B6000000 		.4byte	.LASF95
 990 06cc 07       		.byte	0x7
 991 06cd F3       		.byte	0xf3
 992 06ce 10010000 		.4byte	0x110
 993 06d2 11       		.uleb128 0x11
 994 06d3 C0020000 		.4byte	.LASF96
 995 06d7 07       		.byte	0x7
 996 06d8 FC       		.byte	0xfc
 997 06d9 21070000 		.4byte	0x721
 998 06dd 12       		.uleb128 0x12
 999 06de DB040000 		.4byte	.LASF97
 1000 06e2 07       		.byte	0x7
 1001 06e3 0501     		.2byte	0x105
 1002 06e5 58070000 		.4byte	0x758
 1003 06e9 12       		.uleb128 0x12
 1004 06ea A3040000 		.4byte	.LASF98
 1005 06ee 07       		.byte	0x7
 1006 06ef 0D01     		.2byte	0x10d
 1007 06f1 1B010000 		.4byte	0x11b
 1008 06f5 00       		.byte	0
 1009 06f6 0A       		.uleb128 0xa
 1010 06f7 04       		.byte	0x4
 1011 06f8 3D020000 		.4byte	0x23d
 1012 06fc 05       		.uleb128 0x5
 1013 06fd C5040000 		.4byte	.LASF99
 1014 0701 0C       		.byte	0xc
 1015 0702 0C       		.byte	0xc
 1016 0703 34       		.byte	0x34
 1017 0704 21070000 		.4byte	0x721
 1018 0708 06       		.uleb128 0x6
 1019 0709 D3020000 		.4byte	.LASF30
 1020 070d 0C       		.byte	0xc
 1021 070e 35       		.byte	0x35
 1022 070f 72020000 		.4byte	0x272
 1023 0713 00       		.byte	0
 1024 0714 07       		.uleb128 0x7
 1025 0715 636E7400 		.ascii	"cnt\000"
 1026 0719 0C       		.byte	0xc
ARM GAS  /tmp/ccSRR3Hg.s 			page 19


 1027 071a 37       		.byte	0x37
 1028 071b 26010000 		.4byte	0x126
 1029 071f 08       		.byte	0x8
 1030 0720 00       		.byte	0
 1031 0721 0A       		.uleb128 0xa
 1032 0722 04       		.byte	0x4
 1033 0723 FC060000 		.4byte	0x6fc
 1034 0727 05       		.uleb128 0x5
 1035 0728 74050000 		.4byte	.LASF100
 1036 072c 10       		.byte	0x10
 1037 072d 0D       		.byte	0xd
 1038 072e 39       		.byte	0x39
 1039 072f 58070000 		.4byte	0x758
 1040 0733 06       		.uleb128 0x6
 1041 0734 D3020000 		.4byte	.LASF30
 1042 0738 0D       		.byte	0xd
 1043 0739 3A       		.byte	0x3a
 1044 073a 72020000 		.4byte	0x272
 1045 073e 00       		.byte	0
 1046 073f 06       		.uleb128 0x6
 1047 0740 F2040000 		.4byte	.LASF101
 1048 0744 0D       		.byte	0xd
 1049 0745 3C       		.byte	0x3c
 1050 0746 48020000 		.4byte	0x248
 1051 074a 08       		.byte	0x8
 1052 074b 06       		.uleb128 0x6
 1053 074c E1000000 		.4byte	.LASF50
 1054 0750 0D       		.byte	0xd
 1055 0751 3E       		.byte	0x3e
 1056 0752 8C070000 		.4byte	0x78c
 1057 0756 0C       		.byte	0xc
 1058 0757 00       		.byte	0
 1059 0758 0A       		.uleb128 0xa
 1060 0759 04       		.byte	0x4
 1061 075a 27070000 		.4byte	0x727
 1062 075e 0A       		.uleb128 0xa
 1063 075f 04       		.byte	0x4
 1064 0760 64070000 		.4byte	0x764
 1065 0764 13       		.uleb128 0x13
 1066 0765 69070000 		.4byte	0x769
 1067 0769 04       		.uleb128 0x4
 1068 076a 01       		.byte	0x1
 1069 076b 08       		.byte	0x8
 1070 076c 1F050000 		.4byte	.LASF102
 1071 0770 0A       		.uleb128 0xa
 1072 0771 04       		.byte	0x4
 1073 0772 6C040000 		.4byte	0x46c
 1074 0776 0A       		.uleb128 0xa
 1075 0777 04       		.byte	0x4
 1076 0778 27030000 		.4byte	0x327
 1077 077c 14       		.uleb128 0x14
 1078 077d 5E070000 		.4byte	0x75e
 1079 0781 03       		.uleb128 0x3
 1080 0782 B6010000 		.4byte	.LASF103
 1081 0786 0D       		.byte	0xd
 1082 0787 34       		.byte	0x34
 1083 0788 27070000 		.4byte	0x727
ARM GAS  /tmp/ccSRR3Hg.s 			page 20


 1084 078c 0A       		.uleb128 0xa
 1085 078d 04       		.byte	0x4
 1086 078e 81070000 		.4byte	0x781
 1087 0792 04       		.uleb128 0x4
 1088 0793 01       		.byte	0x1
 1089 0794 02       		.byte	0x2
 1090 0795 74040000 		.4byte	.LASF104
 1091 0799 15       		.uleb128 0x15
 1092 079a 2C000000 		.4byte	0x2c
 1093 079e B2070000 		.4byte	0x7b2
 1094 07a2 0D       		.uleb128 0xd
 1095 07a3 25030000 		.4byte	0x325
 1096 07a7 0D       		.uleb128 0xd
 1097 07a8 B2070000 		.4byte	0x7b2
 1098 07ac 0D       		.uleb128 0xd
 1099 07ad 2C000000 		.4byte	0x2c
 1100 07b1 00       		.byte	0
 1101 07b2 0A       		.uleb128 0xa
 1102 07b3 04       		.byte	0x4
 1103 07b4 B8070000 		.4byte	0x7b8
 1104 07b8 13       		.uleb128 0x13
 1105 07b9 A2000000 		.4byte	0xa2
 1106 07bd 0A       		.uleb128 0xa
 1107 07be 04       		.byte	0x4
 1108 07bf 99070000 		.4byte	0x799
 1109 07c3 15       		.uleb128 0x15
 1110 07c4 2C000000 		.4byte	0x2c
 1111 07c8 DC070000 		.4byte	0x7dc
 1112 07cc 0D       		.uleb128 0xd
 1113 07cd 25030000 		.4byte	0x325
 1114 07d1 0D       		.uleb128 0xd
 1115 07d2 DC070000 		.4byte	0x7dc
 1116 07d6 0D       		.uleb128 0xd
 1117 07d7 2C000000 		.4byte	0x2c
 1118 07db 00       		.byte	0
 1119 07dc 0A       		.uleb128 0xa
 1120 07dd 04       		.byte	0x4
 1121 07de A2000000 		.4byte	0xa2
 1122 07e2 0A       		.uleb128 0xa
 1123 07e3 04       		.byte	0x4
 1124 07e4 C3070000 		.4byte	0x7c3
 1125 07e8 15       		.uleb128 0x15
 1126 07e9 10010000 		.4byte	0x110
 1127 07ed FC070000 		.4byte	0x7fc
 1128 07f1 0D       		.uleb128 0xd
 1129 07f2 25030000 		.4byte	0x325
 1130 07f6 0D       		.uleb128 0xd
 1131 07f7 A2000000 		.4byte	0xa2
 1132 07fb 00       		.byte	0
 1133 07fc 0A       		.uleb128 0xa
 1134 07fd 04       		.byte	0x4
 1135 07fe E8070000 		.4byte	0x7e8
 1136 0802 15       		.uleb128 0x15
 1137 0803 10010000 		.4byte	0x110
 1138 0807 11080000 		.4byte	0x811
 1139 080b 0D       		.uleb128 0xd
 1140 080c 25030000 		.4byte	0x325
ARM GAS  /tmp/ccSRR3Hg.s 			page 21


 1141 0810 00       		.byte	0
 1142 0811 0A       		.uleb128 0xa
 1143 0812 04       		.byte	0x4
 1144 0813 02080000 		.4byte	0x802
 1145 0817 05       		.uleb128 0x5
 1146 0818 7C010000 		.4byte	.LASF105
 1147 081c 10       		.byte	0x10
 1148 081d 0E       		.byte	0xe
 1149 081e 35       		.byte	0x35
 1150 081f 54080000 		.4byte	0x854
 1151 0823 06       		.uleb128 0x6
 1152 0824 95030000 		.4byte	.LASF106
 1153 0828 0E       		.byte	0xe
 1154 0829 36       		.byte	0x36
 1155 082a BD070000 		.4byte	0x7bd
 1156 082e 00       		.byte	0
 1157 082f 06       		.uleb128 0x6
 1158 0830 1A050000 		.4byte	.LASF107
 1159 0834 0E       		.byte	0xe
 1160 0835 36       		.byte	0x36
 1161 0836 E2070000 		.4byte	0x7e2
 1162 083a 04       		.byte	0x4
 1163 083b 07       		.uleb128 0x7
 1164 083c 70757400 		.ascii	"put\000"
 1165 0840 0E       		.byte	0xe
 1166 0841 36       		.byte	0x36
 1167 0842 FC070000 		.4byte	0x7fc
 1168 0846 08       		.byte	0x8
 1169 0847 07       		.uleb128 0x7
 1170 0848 67657400 		.ascii	"get\000"
 1171 084c 0E       		.byte	0xe
 1172 084d 36       		.byte	0x36
 1173 084e 11080000 		.4byte	0x811
 1174 0852 0C       		.byte	0xc
 1175 0853 00       		.byte	0
 1176 0854 0F       		.uleb128 0xf
 1177 0855 04       		.byte	0x4
 1178 0856 0E       		.byte	0xe
 1179 0857 3E       		.byte	0x3e
 1180 0858 69080000 		.4byte	0x869
 1181 085c 07       		.uleb128 0x7
 1182 085d 766D7400 		.ascii	"vmt\000"
 1183 0861 0E       		.byte	0xe
 1184 0862 40       		.byte	0x40
 1185 0863 69080000 		.4byte	0x869
 1186 0867 00       		.byte	0
 1187 0868 00       		.byte	0
 1188 0869 0A       		.uleb128 0xa
 1189 086a 04       		.byte	0x4
 1190 086b 6F080000 		.4byte	0x86f
 1191 086f 13       		.uleb128 0x13
 1192 0870 17080000 		.4byte	0x817
 1193 0874 03       		.uleb128 0x3
 1194 0875 0F010000 		.4byte	.LASF108
 1195 0879 0E       		.byte	0xe
 1196 087a 42       		.byte	0x42
 1197 087b 54080000 		.4byte	0x854
ARM GAS  /tmp/ccSRR3Hg.s 			page 22


 1198 087f 16       		.uleb128 0x16
 1199 0880 46030000 		.4byte	.LASF109
 1200 0884 01       		.byte	0x1
 1201 0885 2C       		.byte	0x2c
 1202 0886 2C000000 		.4byte	0x2c
 1203 088a 00000000 		.4byte	.LFB277
 1204 088e 04000000 		.4byte	.LFE277-.LFB277
 1205 0892 01       		.uleb128 0x1
 1206 0893 9C       		.byte	0x9c
 1207 0894 BE080000 		.4byte	0x8be
 1208 0898 17       		.uleb128 0x17
 1209 0899 697000   		.ascii	"ip\000"
 1210 089c 01       		.byte	0x1
 1211 089d 2C       		.byte	0x2c
 1212 089e 25030000 		.4byte	0x325
 1213 08a2 00000000 		.4byte	.LLST0
 1214 08a6 18       		.uleb128 0x18
 1215 08a7 627000   		.ascii	"bp\000"
 1216 08aa 01       		.byte	0x1
 1217 08ab 2C       		.byte	0x2c
 1218 08ac B2070000 		.4byte	0x7b2
 1219 08b0 01       		.uleb128 0x1
 1220 08b1 51       		.byte	0x51
 1221 08b2 18       		.uleb128 0x18
 1222 08b3 6E00     		.ascii	"n\000"
 1223 08b5 01       		.byte	0x1
 1224 08b6 2C       		.byte	0x2c
 1225 08b7 2C000000 		.4byte	0x2c
 1226 08bb 01       		.uleb128 0x1
 1227 08bc 52       		.byte	0x52
 1228 08bd 00       		.byte	0
 1229 08be 16       		.uleb128 0x16
 1230 08bf EF000000 		.4byte	.LASF110
 1231 08c3 01       		.byte	0x1
 1232 08c4 34       		.byte	0x34
 1233 08c5 2C000000 		.4byte	0x2c
 1234 08c9 00000000 		.4byte	.LFB278
 1235 08cd 04000000 		.4byte	.LFE278-.LFB278
 1236 08d1 01       		.uleb128 0x1
 1237 08d2 9C       		.byte	0x9c
 1238 08d3 FD080000 		.4byte	0x8fd
 1239 08d7 17       		.uleb128 0x17
 1240 08d8 697000   		.ascii	"ip\000"
 1241 08db 01       		.byte	0x1
 1242 08dc 34       		.byte	0x34
 1243 08dd 25030000 		.4byte	0x325
 1244 08e1 21000000 		.4byte	.LLST1
 1245 08e5 18       		.uleb128 0x18
 1246 08e6 627000   		.ascii	"bp\000"
 1247 08e9 01       		.byte	0x1
 1248 08ea 34       		.byte	0x34
 1249 08eb DC070000 		.4byte	0x7dc
 1250 08ef 01       		.uleb128 0x1
 1251 08f0 51       		.byte	0x51
 1252 08f1 18       		.uleb128 0x18
 1253 08f2 6E00     		.ascii	"n\000"
 1254 08f4 01       		.byte	0x1
ARM GAS  /tmp/ccSRR3Hg.s 			page 23


 1255 08f5 34       		.byte	0x34
 1256 08f6 2C000000 		.4byte	0x2c
 1257 08fa 01       		.uleb128 0x1
 1258 08fb 52       		.byte	0x52
 1259 08fc 00       		.byte	0
 1260 08fd 19       		.uleb128 0x19
 1261 08fe 70757400 		.ascii	"put\000"
 1262 0902 01       		.byte	0x1
 1263 0903 3D       		.byte	0x3d
 1264 0904 10010000 		.4byte	0x110
 1265 0908 00000000 		.4byte	.LFB279
 1266 090c 04000000 		.4byte	.LFE279-.LFB279
 1267 0910 01       		.uleb128 0x1
 1268 0911 9C       		.byte	0x9c
 1269 0912 30090000 		.4byte	0x930
 1270 0916 17       		.uleb128 0x17
 1271 0917 697000   		.ascii	"ip\000"
 1272 091a 01       		.byte	0x1
 1273 091b 3D       		.byte	0x3d
 1274 091c 25030000 		.4byte	0x325
 1275 0920 42000000 		.4byte	.LLST2
 1276 0924 18       		.uleb128 0x18
 1277 0925 6200     		.ascii	"b\000"
 1278 0927 01       		.byte	0x1
 1279 0928 3D       		.byte	0x3d
 1280 0929 A2000000 		.4byte	0xa2
 1281 092d 01       		.uleb128 0x1
 1282 092e 51       		.byte	0x51
 1283 092f 00       		.byte	0
 1284 0930 19       		.uleb128 0x19
 1285 0931 67657400 		.ascii	"get\000"
 1286 0935 01       		.byte	0x1
 1287 0936 45       		.byte	0x45
 1288 0937 10010000 		.4byte	0x110
 1289 093b 00000000 		.4byte	.LFB280
 1290 093f 04000000 		.4byte	.LFE280-.LFB280
 1291 0943 01       		.uleb128 0x1
 1292 0944 9C       		.byte	0x9c
 1293 0945 58090000 		.4byte	0x958
 1294 0949 17       		.uleb128 0x17
 1295 094a 697000   		.ascii	"ip\000"
 1296 094d 01       		.byte	0x1
 1297 094e 45       		.byte	0x45
 1298 094f 25030000 		.4byte	0x325
 1299 0953 63000000 		.4byte	.LLST3
 1300 0957 00       		.byte	0
 1301 0958 1A       		.uleb128 0x1a
 1302 0959 37030000 		.4byte	.LASF115
 1303 095d 01       		.byte	0x1
 1304 095e 57       		.byte	0x57
 1305 095f 00000000 		.4byte	.LFB281
 1306 0963 0C000000 		.4byte	.LFE281-.LFB281
 1307 0967 01       		.uleb128 0x1
 1308 0968 9C       		.byte	0x9c
 1309 0969 7B090000 		.4byte	0x97b
 1310 096d 18       		.uleb128 0x18
 1311 096e 6E737000 		.ascii	"nsp\000"
ARM GAS  /tmp/ccSRR3Hg.s 			page 24


 1312 0972 01       		.byte	0x1
 1313 0973 57       		.byte	0x57
 1314 0974 7B090000 		.4byte	0x97b
 1315 0978 01       		.uleb128 0x1
 1316 0979 50       		.byte	0x50
 1317 097a 00       		.byte	0
 1318 097b 0A       		.uleb128 0xa
 1319 097c 04       		.byte	0x4
 1320 097d 74080000 		.4byte	0x874
 1321 0981 1B       		.uleb128 0x1b
 1322 0982 766D7400 		.ascii	"vmt\000"
 1323 0986 01       		.byte	0x1
 1324 0987 4C       		.byte	0x4c
 1325 0988 6F080000 		.4byte	0x86f
 1326 098c 05       		.uleb128 0x5
 1327 098d 03       		.byte	0x3
 1328 098e 00000000 		.4byte	vmt
 1329 0992 1C       		.uleb128 0x1c
 1330 0993 D4000000 		.4byte	.LASF111
 1331 0997 0F       		.byte	0xf
 1332 0998 4407     		.2byte	0x744
 1333 099a 9E090000 		.4byte	0x99e
 1334 099e 14       		.uleb128 0x14
 1335 099f AD000000 		.4byte	0xad
 1336 09a3 1D       		.uleb128 0x1d
 1337 09a4 636800   		.ascii	"ch\000"
 1338 09a7 07       		.byte	0x7
 1339 09a8 D201     		.2byte	0x1d2
 1340 09aa F4030000 		.4byte	0x3f4
 1341 09ae 00       		.byte	0
 1342              		.section	.debug_abbrev,"",%progbits
 1343              	.Ldebug_abbrev0:
 1344 0000 01       		.uleb128 0x1
 1345 0001 11       		.uleb128 0x11
 1346 0002 01       		.byte	0x1
 1347 0003 25       		.uleb128 0x25
 1348 0004 0E       		.uleb128 0xe
 1349 0005 13       		.uleb128 0x13
 1350 0006 0B       		.uleb128 0xb
 1351 0007 03       		.uleb128 0x3
 1352 0008 0E       		.uleb128 0xe
 1353 0009 1B       		.uleb128 0x1b
 1354 000a 0E       		.uleb128 0xe
 1355 000b 55       		.uleb128 0x55
 1356 000c 17       		.uleb128 0x17
 1357 000d 11       		.uleb128 0x11
 1358 000e 01       		.uleb128 0x1
 1359 000f 10       		.uleb128 0x10
 1360 0010 17       		.uleb128 0x17
 1361 0011 00       		.byte	0
 1362 0012 00       		.byte	0
 1363 0013 02       		.uleb128 0x2
 1364 0014 24       		.uleb128 0x24
 1365 0015 00       		.byte	0
 1366 0016 0B       		.uleb128 0xb
 1367 0017 0B       		.uleb128 0xb
 1368 0018 3E       		.uleb128 0x3e
ARM GAS  /tmp/ccSRR3Hg.s 			page 25


 1369 0019 0B       		.uleb128 0xb
 1370 001a 03       		.uleb128 0x3
 1371 001b 08       		.uleb128 0x8
 1372 001c 00       		.byte	0
 1373 001d 00       		.byte	0
 1374 001e 03       		.uleb128 0x3
 1375 001f 16       		.uleb128 0x16
 1376 0020 00       		.byte	0
 1377 0021 03       		.uleb128 0x3
 1378 0022 0E       		.uleb128 0xe
 1379 0023 3A       		.uleb128 0x3a
 1380 0024 0B       		.uleb128 0xb
 1381 0025 3B       		.uleb128 0x3b
 1382 0026 0B       		.uleb128 0xb
 1383 0027 49       		.uleb128 0x49
 1384 0028 13       		.uleb128 0x13
 1385 0029 00       		.byte	0
 1386 002a 00       		.byte	0
 1387 002b 04       		.uleb128 0x4
 1388 002c 24       		.uleb128 0x24
 1389 002d 00       		.byte	0
 1390 002e 0B       		.uleb128 0xb
 1391 002f 0B       		.uleb128 0xb
 1392 0030 3E       		.uleb128 0x3e
 1393 0031 0B       		.uleb128 0xb
 1394 0032 03       		.uleb128 0x3
 1395 0033 0E       		.uleb128 0xe
 1396 0034 00       		.byte	0
 1397 0035 00       		.byte	0
 1398 0036 05       		.uleb128 0x5
 1399 0037 13       		.uleb128 0x13
 1400 0038 01       		.byte	0x1
 1401 0039 03       		.uleb128 0x3
 1402 003a 0E       		.uleb128 0xe
 1403 003b 0B       		.uleb128 0xb
 1404 003c 0B       		.uleb128 0xb
 1405 003d 3A       		.uleb128 0x3a
 1406 003e 0B       		.uleb128 0xb
 1407 003f 3B       		.uleb128 0x3b
 1408 0040 0B       		.uleb128 0xb
 1409 0041 01       		.uleb128 0x1
 1410 0042 13       		.uleb128 0x13
 1411 0043 00       		.byte	0
 1412 0044 00       		.byte	0
 1413 0045 06       		.uleb128 0x6
 1414 0046 0D       		.uleb128 0xd
 1415 0047 00       		.byte	0
 1416 0048 03       		.uleb128 0x3
 1417 0049 0E       		.uleb128 0xe
 1418 004a 3A       		.uleb128 0x3a
 1419 004b 0B       		.uleb128 0xb
 1420 004c 3B       		.uleb128 0x3b
 1421 004d 0B       		.uleb128 0xb
 1422 004e 49       		.uleb128 0x49
 1423 004f 13       		.uleb128 0x13
 1424 0050 38       		.uleb128 0x38
 1425 0051 0B       		.uleb128 0xb
ARM GAS  /tmp/ccSRR3Hg.s 			page 26


 1426 0052 00       		.byte	0
 1427 0053 00       		.byte	0
 1428 0054 07       		.uleb128 0x7
 1429 0055 0D       		.uleb128 0xd
 1430 0056 00       		.byte	0
 1431 0057 03       		.uleb128 0x3
 1432 0058 08       		.uleb128 0x8
 1433 0059 3A       		.uleb128 0x3a
 1434 005a 0B       		.uleb128 0xb
 1435 005b 3B       		.uleb128 0x3b
 1436 005c 0B       		.uleb128 0xb
 1437 005d 49       		.uleb128 0x49
 1438 005e 13       		.uleb128 0x13
 1439 005f 38       		.uleb128 0x38
 1440 0060 0B       		.uleb128 0xb
 1441 0061 00       		.byte	0
 1442 0062 00       		.byte	0
 1443 0063 08       		.uleb128 0x8
 1444 0064 0D       		.uleb128 0xd
 1445 0065 00       		.byte	0
 1446 0066 03       		.uleb128 0x3
 1447 0067 08       		.uleb128 0x8
 1448 0068 3A       		.uleb128 0x3a
 1449 0069 0B       		.uleb128 0xb
 1450 006a 3B       		.uleb128 0x3b
 1451 006b 05       		.uleb128 0x5
 1452 006c 49       		.uleb128 0x49
 1453 006d 13       		.uleb128 0x13
 1454 006e 38       		.uleb128 0x38
 1455 006f 0B       		.uleb128 0xb
 1456 0070 00       		.byte	0
 1457 0071 00       		.byte	0
 1458 0072 09       		.uleb128 0x9
 1459 0073 0D       		.uleb128 0xd
 1460 0074 00       		.byte	0
 1461 0075 03       		.uleb128 0x3
 1462 0076 0E       		.uleb128 0xe
 1463 0077 3A       		.uleb128 0x3a
 1464 0078 0B       		.uleb128 0xb
 1465 0079 3B       		.uleb128 0x3b
 1466 007a 05       		.uleb128 0x5
 1467 007b 49       		.uleb128 0x49
 1468 007c 13       		.uleb128 0x13
 1469 007d 38       		.uleb128 0x38
 1470 007e 0B       		.uleb128 0xb
 1471 007f 00       		.byte	0
 1472 0080 00       		.byte	0
 1473 0081 0A       		.uleb128 0xa
 1474 0082 0F       		.uleb128 0xf
 1475 0083 00       		.byte	0
 1476 0084 0B       		.uleb128 0xb
 1477 0085 0B       		.uleb128 0xb
 1478 0086 49       		.uleb128 0x49
 1479 0087 13       		.uleb128 0x13
 1480 0088 00       		.byte	0
 1481 0089 00       		.byte	0
 1482 008a 0B       		.uleb128 0xb
ARM GAS  /tmp/ccSRR3Hg.s 			page 27


 1483 008b 13       		.uleb128 0x13
 1484 008c 01       		.byte	0x1
 1485 008d 03       		.uleb128 0x3
 1486 008e 0E       		.uleb128 0xe
 1487 008f 0B       		.uleb128 0xb
 1488 0090 0B       		.uleb128 0xb
 1489 0091 3A       		.uleb128 0x3a
 1490 0092 0B       		.uleb128 0xb
 1491 0093 3B       		.uleb128 0x3b
 1492 0094 05       		.uleb128 0x5
 1493 0095 01       		.uleb128 0x1
 1494 0096 13       		.uleb128 0x13
 1495 0097 00       		.byte	0
 1496 0098 00       		.byte	0
 1497 0099 0C       		.uleb128 0xc
 1498 009a 15       		.uleb128 0x15
 1499 009b 01       		.byte	0x1
 1500 009c 27       		.uleb128 0x27
 1501 009d 19       		.uleb128 0x19
 1502 009e 01       		.uleb128 0x1
 1503 009f 13       		.uleb128 0x13
 1504 00a0 00       		.byte	0
 1505 00a1 00       		.byte	0
 1506 00a2 0D       		.uleb128 0xd
 1507 00a3 05       		.uleb128 0x5
 1508 00a4 00       		.byte	0
 1509 00a5 49       		.uleb128 0x49
 1510 00a6 13       		.uleb128 0x13
 1511 00a7 00       		.byte	0
 1512 00a8 00       		.byte	0
 1513 00a9 0E       		.uleb128 0xe
 1514 00aa 0F       		.uleb128 0xf
 1515 00ab 00       		.byte	0
 1516 00ac 0B       		.uleb128 0xb
 1517 00ad 0B       		.uleb128 0xb
 1518 00ae 00       		.byte	0
 1519 00af 00       		.byte	0
 1520 00b0 0F       		.uleb128 0xf
 1521 00b1 13       		.uleb128 0x13
 1522 00b2 01       		.byte	0x1
 1523 00b3 0B       		.uleb128 0xb
 1524 00b4 0B       		.uleb128 0xb
 1525 00b5 3A       		.uleb128 0x3a
 1526 00b6 0B       		.uleb128 0xb
 1527 00b7 3B       		.uleb128 0x3b
 1528 00b8 0B       		.uleb128 0xb
 1529 00b9 01       		.uleb128 0x1
 1530 00ba 13       		.uleb128 0x13
 1531 00bb 00       		.byte	0
 1532 00bc 00       		.byte	0
 1533 00bd 10       		.uleb128 0x10
 1534 00be 17       		.uleb128 0x17
 1535 00bf 01       		.byte	0x1
 1536 00c0 0B       		.uleb128 0xb
 1537 00c1 0B       		.uleb128 0xb
 1538 00c2 3A       		.uleb128 0x3a
 1539 00c3 0B       		.uleb128 0xb
ARM GAS  /tmp/ccSRR3Hg.s 			page 28


 1540 00c4 3B       		.uleb128 0x3b
 1541 00c5 0B       		.uleb128 0xb
 1542 00c6 01       		.uleb128 0x1
 1543 00c7 13       		.uleb128 0x13
 1544 00c8 00       		.byte	0
 1545 00c9 00       		.byte	0
 1546 00ca 11       		.uleb128 0x11
 1547 00cb 0D       		.uleb128 0xd
 1548 00cc 00       		.byte	0
 1549 00cd 03       		.uleb128 0x3
 1550 00ce 0E       		.uleb128 0xe
 1551 00cf 3A       		.uleb128 0x3a
 1552 00d0 0B       		.uleb128 0xb
 1553 00d1 3B       		.uleb128 0x3b
 1554 00d2 0B       		.uleb128 0xb
 1555 00d3 49       		.uleb128 0x49
 1556 00d4 13       		.uleb128 0x13
 1557 00d5 00       		.byte	0
 1558 00d6 00       		.byte	0
 1559 00d7 12       		.uleb128 0x12
 1560 00d8 0D       		.uleb128 0xd
 1561 00d9 00       		.byte	0
 1562 00da 03       		.uleb128 0x3
 1563 00db 0E       		.uleb128 0xe
 1564 00dc 3A       		.uleb128 0x3a
 1565 00dd 0B       		.uleb128 0xb
 1566 00de 3B       		.uleb128 0x3b
 1567 00df 05       		.uleb128 0x5
 1568 00e0 49       		.uleb128 0x49
 1569 00e1 13       		.uleb128 0x13
 1570 00e2 00       		.byte	0
 1571 00e3 00       		.byte	0
 1572 00e4 13       		.uleb128 0x13
 1573 00e5 26       		.uleb128 0x26
 1574 00e6 00       		.byte	0
 1575 00e7 49       		.uleb128 0x49
 1576 00e8 13       		.uleb128 0x13
 1577 00e9 00       		.byte	0
 1578 00ea 00       		.byte	0
 1579 00eb 14       		.uleb128 0x14
 1580 00ec 35       		.uleb128 0x35
 1581 00ed 00       		.byte	0
 1582 00ee 49       		.uleb128 0x49
 1583 00ef 13       		.uleb128 0x13
 1584 00f0 00       		.byte	0
 1585 00f1 00       		.byte	0
 1586 00f2 15       		.uleb128 0x15
 1587 00f3 15       		.uleb128 0x15
 1588 00f4 01       		.byte	0x1
 1589 00f5 27       		.uleb128 0x27
 1590 00f6 19       		.uleb128 0x19
 1591 00f7 49       		.uleb128 0x49
 1592 00f8 13       		.uleb128 0x13
 1593 00f9 01       		.uleb128 0x1
 1594 00fa 13       		.uleb128 0x13
 1595 00fb 00       		.byte	0
 1596 00fc 00       		.byte	0
ARM GAS  /tmp/ccSRR3Hg.s 			page 29


 1597 00fd 16       		.uleb128 0x16
 1598 00fe 2E       		.uleb128 0x2e
 1599 00ff 01       		.byte	0x1
 1600 0100 03       		.uleb128 0x3
 1601 0101 0E       		.uleb128 0xe
 1602 0102 3A       		.uleb128 0x3a
 1603 0103 0B       		.uleb128 0xb
 1604 0104 3B       		.uleb128 0x3b
 1605 0105 0B       		.uleb128 0xb
 1606 0106 27       		.uleb128 0x27
 1607 0107 19       		.uleb128 0x19
 1608 0108 49       		.uleb128 0x49
 1609 0109 13       		.uleb128 0x13
 1610 010a 11       		.uleb128 0x11
 1611 010b 01       		.uleb128 0x1
 1612 010c 12       		.uleb128 0x12
 1613 010d 06       		.uleb128 0x6
 1614 010e 40       		.uleb128 0x40
 1615 010f 18       		.uleb128 0x18
 1616 0110 9742     		.uleb128 0x2117
 1617 0112 19       		.uleb128 0x19
 1618 0113 01       		.uleb128 0x1
 1619 0114 13       		.uleb128 0x13
 1620 0115 00       		.byte	0
 1621 0116 00       		.byte	0
 1622 0117 17       		.uleb128 0x17
 1623 0118 05       		.uleb128 0x5
 1624 0119 00       		.byte	0
 1625 011a 03       		.uleb128 0x3
 1626 011b 08       		.uleb128 0x8
 1627 011c 3A       		.uleb128 0x3a
 1628 011d 0B       		.uleb128 0xb
 1629 011e 3B       		.uleb128 0x3b
 1630 011f 0B       		.uleb128 0xb
 1631 0120 49       		.uleb128 0x49
 1632 0121 13       		.uleb128 0x13
 1633 0122 02       		.uleb128 0x2
 1634 0123 17       		.uleb128 0x17
 1635 0124 00       		.byte	0
 1636 0125 00       		.byte	0
 1637 0126 18       		.uleb128 0x18
 1638 0127 05       		.uleb128 0x5
 1639 0128 00       		.byte	0
 1640 0129 03       		.uleb128 0x3
 1641 012a 08       		.uleb128 0x8
 1642 012b 3A       		.uleb128 0x3a
 1643 012c 0B       		.uleb128 0xb
 1644 012d 3B       		.uleb128 0x3b
 1645 012e 0B       		.uleb128 0xb
 1646 012f 49       		.uleb128 0x49
 1647 0130 13       		.uleb128 0x13
 1648 0131 02       		.uleb128 0x2
 1649 0132 18       		.uleb128 0x18
 1650 0133 00       		.byte	0
 1651 0134 00       		.byte	0
 1652 0135 19       		.uleb128 0x19
 1653 0136 2E       		.uleb128 0x2e
ARM GAS  /tmp/ccSRR3Hg.s 			page 30


 1654 0137 01       		.byte	0x1
 1655 0138 03       		.uleb128 0x3
 1656 0139 08       		.uleb128 0x8
 1657 013a 3A       		.uleb128 0x3a
 1658 013b 0B       		.uleb128 0xb
 1659 013c 3B       		.uleb128 0x3b
 1660 013d 0B       		.uleb128 0xb
 1661 013e 27       		.uleb128 0x27
 1662 013f 19       		.uleb128 0x19
 1663 0140 49       		.uleb128 0x49
 1664 0141 13       		.uleb128 0x13
 1665 0142 11       		.uleb128 0x11
 1666 0143 01       		.uleb128 0x1
 1667 0144 12       		.uleb128 0x12
 1668 0145 06       		.uleb128 0x6
 1669 0146 40       		.uleb128 0x40
 1670 0147 18       		.uleb128 0x18
 1671 0148 9742     		.uleb128 0x2117
 1672 014a 19       		.uleb128 0x19
 1673 014b 01       		.uleb128 0x1
 1674 014c 13       		.uleb128 0x13
 1675 014d 00       		.byte	0
 1676 014e 00       		.byte	0
 1677 014f 1A       		.uleb128 0x1a
 1678 0150 2E       		.uleb128 0x2e
 1679 0151 01       		.byte	0x1
 1680 0152 3F       		.uleb128 0x3f
 1681 0153 19       		.uleb128 0x19
 1682 0154 03       		.uleb128 0x3
 1683 0155 0E       		.uleb128 0xe
 1684 0156 3A       		.uleb128 0x3a
 1685 0157 0B       		.uleb128 0xb
 1686 0158 3B       		.uleb128 0x3b
 1687 0159 0B       		.uleb128 0xb
 1688 015a 27       		.uleb128 0x27
 1689 015b 19       		.uleb128 0x19
 1690 015c 11       		.uleb128 0x11
 1691 015d 01       		.uleb128 0x1
 1692 015e 12       		.uleb128 0x12
 1693 015f 06       		.uleb128 0x6
 1694 0160 40       		.uleb128 0x40
 1695 0161 18       		.uleb128 0x18
 1696 0162 9742     		.uleb128 0x2117
 1697 0164 19       		.uleb128 0x19
 1698 0165 01       		.uleb128 0x1
 1699 0166 13       		.uleb128 0x13
 1700 0167 00       		.byte	0
 1701 0168 00       		.byte	0
 1702 0169 1B       		.uleb128 0x1b
 1703 016a 34       		.uleb128 0x34
 1704 016b 00       		.byte	0
 1705 016c 03       		.uleb128 0x3
 1706 016d 08       		.uleb128 0x8
 1707 016e 3A       		.uleb128 0x3a
 1708 016f 0B       		.uleb128 0xb
 1709 0170 3B       		.uleb128 0x3b
 1710 0171 0B       		.uleb128 0xb
ARM GAS  /tmp/ccSRR3Hg.s 			page 31


 1711 0172 49       		.uleb128 0x49
 1712 0173 13       		.uleb128 0x13
 1713 0174 02       		.uleb128 0x2
 1714 0175 18       		.uleb128 0x18
 1715 0176 00       		.byte	0
 1716 0177 00       		.byte	0
 1717 0178 1C       		.uleb128 0x1c
 1718 0179 34       		.uleb128 0x34
 1719 017a 00       		.byte	0
 1720 017b 03       		.uleb128 0x3
 1721 017c 0E       		.uleb128 0xe
 1722 017d 3A       		.uleb128 0x3a
 1723 017e 0B       		.uleb128 0xb
 1724 017f 3B       		.uleb128 0x3b
 1725 0180 05       		.uleb128 0x5
 1726 0181 49       		.uleb128 0x49
 1727 0182 13       		.uleb128 0x13
 1728 0183 3F       		.uleb128 0x3f
 1729 0184 19       		.uleb128 0x19
 1730 0185 3C       		.uleb128 0x3c
 1731 0186 19       		.uleb128 0x19
 1732 0187 00       		.byte	0
 1733 0188 00       		.byte	0
 1734 0189 1D       		.uleb128 0x1d
 1735 018a 34       		.uleb128 0x34
 1736 018b 00       		.byte	0
 1737 018c 03       		.uleb128 0x3
 1738 018d 08       		.uleb128 0x8
 1739 018e 3A       		.uleb128 0x3a
 1740 018f 0B       		.uleb128 0xb
 1741 0190 3B       		.uleb128 0x3b
 1742 0191 05       		.uleb128 0x5
 1743 0192 49       		.uleb128 0x49
 1744 0193 13       		.uleb128 0x13
 1745 0194 3F       		.uleb128 0x3f
 1746 0195 19       		.uleb128 0x19
 1747 0196 3C       		.uleb128 0x3c
 1748 0197 19       		.uleb128 0x19
 1749 0198 00       		.byte	0
 1750 0199 00       		.byte	0
 1751 019a 00       		.byte	0
 1752              		.section	.debug_loc,"",%progbits
 1753              	.Ldebug_loc0:
 1754              	.LLST0:
 1755 0000 00000000 		.4byte	.LVL0
 1756 0004 02000000 		.4byte	.LVL1
 1757 0008 0100     		.2byte	0x1
 1758 000a 50       		.byte	0x50
 1759 000b 02000000 		.4byte	.LVL1
 1760 000f 04000000 		.4byte	.LFE277
 1761 0013 0400     		.2byte	0x4
 1762 0015 F3       		.byte	0xf3
 1763 0016 01       		.uleb128 0x1
 1764 0017 50       		.byte	0x50
 1765 0018 9F       		.byte	0x9f
 1766 0019 00000000 		.4byte	0
 1767 001d 00000000 		.4byte	0
ARM GAS  /tmp/ccSRR3Hg.s 			page 32


 1768              	.LLST1:
 1769 0021 00000000 		.4byte	.LVL2
 1770 0025 02000000 		.4byte	.LVL3
 1771 0029 0100     		.2byte	0x1
 1772 002b 50       		.byte	0x50
 1773 002c 02000000 		.4byte	.LVL3
 1774 0030 04000000 		.4byte	.LFE278
 1775 0034 0400     		.2byte	0x4
 1776 0036 F3       		.byte	0xf3
 1777 0037 01       		.uleb128 0x1
 1778 0038 50       		.byte	0x50
 1779 0039 9F       		.byte	0x9f
 1780 003a 00000000 		.4byte	0
 1781 003e 00000000 		.4byte	0
 1782              	.LLST2:
 1783 0042 00000000 		.4byte	.LVL4
 1784 0046 02000000 		.4byte	.LVL5
 1785 004a 0100     		.2byte	0x1
 1786 004c 50       		.byte	0x50
 1787 004d 02000000 		.4byte	.LVL5
 1788 0051 04000000 		.4byte	.LFE279
 1789 0055 0400     		.2byte	0x4
 1790 0057 F3       		.byte	0xf3
 1791 0058 01       		.uleb128 0x1
 1792 0059 50       		.byte	0x50
 1793 005a 9F       		.byte	0x9f
 1794 005b 00000000 		.4byte	0
 1795 005f 00000000 		.4byte	0
 1796              	.LLST3:
 1797 0063 00000000 		.4byte	.LVL6
 1798 0067 02000000 		.4byte	.LVL7
 1799 006b 0100     		.2byte	0x1
 1800 006d 50       		.byte	0x50
 1801 006e 02000000 		.4byte	.LVL7
 1802 0072 04000000 		.4byte	.LFE280
 1803 0076 0400     		.2byte	0x4
 1804 0078 F3       		.byte	0xf3
 1805 0079 01       		.uleb128 0x1
 1806 007a 50       		.byte	0x50
 1807 007b 9F       		.byte	0x9f
 1808 007c 00000000 		.4byte	0
 1809 0080 00000000 		.4byte	0
 1810              		.section	.debug_aranges,"",%progbits
 1811 0000 3C000000 		.4byte	0x3c
 1812 0004 0200     		.2byte	0x2
 1813 0006 00000000 		.4byte	.Ldebug_info0
 1814 000a 04       		.byte	0x4
 1815 000b 00       		.byte	0
 1816 000c 0000     		.2byte	0
 1817 000e 0000     		.2byte	0
 1818 0010 00000000 		.4byte	.LFB277
 1819 0014 04000000 		.4byte	.LFE277-.LFB277
 1820 0018 00000000 		.4byte	.LFB278
 1821 001c 04000000 		.4byte	.LFE278-.LFB278
 1822 0020 00000000 		.4byte	.LFB279
 1823 0024 04000000 		.4byte	.LFE279-.LFB279
 1824 0028 00000000 		.4byte	.LFB280
ARM GAS  /tmp/ccSRR3Hg.s 			page 33


 1825 002c 04000000 		.4byte	.LFE280-.LFB280
 1826 0030 00000000 		.4byte	.LFB281
 1827 0034 0C000000 		.4byte	.LFE281-.LFB281
 1828 0038 00000000 		.4byte	0
 1829 003c 00000000 		.4byte	0
 1830              		.section	.debug_ranges,"",%progbits
 1831              	.Ldebug_ranges0:
 1832 0000 00000000 		.4byte	.LFB277
 1833 0004 04000000 		.4byte	.LFE277
 1834 0008 00000000 		.4byte	.LFB278
 1835 000c 04000000 		.4byte	.LFE278
 1836 0010 00000000 		.4byte	.LFB279
 1837 0014 04000000 		.4byte	.LFE279
 1838 0018 00000000 		.4byte	.LFB280
 1839 001c 04000000 		.4byte	.LFE280
 1840 0020 00000000 		.4byte	.LFB281
 1841 0024 0C000000 		.4byte	.LFE281
 1842 0028 00000000 		.4byte	0
 1843 002c 00000000 		.4byte	0
 1844              		.section	.debug_line,"",%progbits
 1845              	.Ldebug_line0:
 1846 0000 7E020000 		.section	.debug_str,"MS",%progbits,1
 1846      02002602 
 1846      00000201 
 1846      FB0E0D00 
 1846      01010101 
 1847              	.LASF54:
 1848 0000 72656164 		.ascii	"ready_list_t\000"
 1848      795F6C69 
 1848      73745F74 
 1848      00
 1849              	.LASF2:
 1850 000d 73697A65 		.ascii	"size_t\000"
 1850      5F7400
 1851              	.LASF60:
 1852 0014 64656C74 		.ascii	"delta\000"
 1852      6100
 1853              	.LASF91:
 1854 001a 7264796D 		.ascii	"rdymsg\000"
 1854      736700
 1855              	.LASF17:
 1856 0021 75696E74 		.ascii	"uint64_t\000"
 1856      36345F74 
 1856      00
 1857              	.LASF73:
 1858 002a 6B65726E 		.ascii	"kernel_stats\000"
 1858      656C5F73 
 1858      74617473 
 1858      00
 1859              	.LASF3:
 1860 0037 5F5F7569 		.ascii	"__uint8_t\000"
 1860      6E74385F 
 1860      7400
 1861              	.LASF53:
 1862 0041 70726576 		.ascii	"prev\000"
 1862      00
 1863              	.LASF78:
ARM GAS  /tmp/ccSRR3Hg.s 			page 34


 1864 0046 706F7274 		.ascii	"port_intctx\000"
 1864      5F696E74 
 1864      63747800 
 1865              	.LASF52:
 1866 0052 63685F74 		.ascii	"ch_threads_queue\000"
 1866      68726561 
 1866      64735F71 
 1866      75657565 
 1866      00
 1867              	.LASF65:
 1868 0063 73797374 		.ascii	"system_debug_t\000"
 1868      656D5F64 
 1868      65627567 
 1868      5F7400
 1869              	.LASF82:
 1870 0072 776F7273 		.ascii	"worst\000"
 1870      7400
 1871              	.LASF85:
 1872 0078 74696D65 		.ascii	"time_measurement_t\000"
 1872      5F6D6561 
 1872      73757265 
 1872      6D656E74 
 1872      5F7400
 1873              	.LASF13:
 1874 008b 6C6F6E67 		.ascii	"long long unsigned int\000"
 1874      206C6F6E 
 1874      6720756E 
 1874      7369676E 
 1874      65642069 
 1875              	.LASF92:
 1876 00a2 65786974 		.ascii	"exitcode\000"
 1876      636F6465 
 1876      00
 1877              	.LASF72:
 1878 00ab 6D61696E 		.ascii	"mainthread\000"
 1878      74687265 
 1878      616400
 1879              	.LASF95:
 1880 00b6 73656E74 		.ascii	"sentmsg\000"
 1880      6D736700 
 1881              	.LASF62:
 1882 00be 76697274 		.ascii	"virtual_timers_list_t\000"
 1882      75616C5F 
 1882      74696D65 
 1882      72735F6C 
 1882      6973745F 
 1883              	.LASF111:
 1884 00d4 49544D5F 		.ascii	"ITM_RxBuffer\000"
 1884      52784275 
 1884      66666572 
 1884      00
 1885              	.LASF50:
 1886 00e1 6E657874 		.ascii	"next\000"
 1886      00
 1887              	.LASF19:
 1888 00e6 72747469 		.ascii	"rttime_t\000"
 1888      6D655F74 
ARM GAS  /tmp/ccSRR3Hg.s 			page 35


 1888      00
 1889              	.LASF110:
 1890 00ef 72656164 		.ascii	"reads\000"
 1890      7300
 1891              	.LASF11:
 1892 00f5 6C6F6E67 		.ascii	"long long int\000"
 1892      206C6F6E 
 1892      6720696E 
 1892      7400
 1893              	.LASF1:
 1894 0103 7369676E 		.ascii	"signed char\000"
 1894      65642063 
 1894      68617200 
 1895              	.LASF108:
 1896 010f 4E756C6C 		.ascii	"NullStream\000"
 1896      53747265 
 1896      616D00
 1897              	.LASF71:
 1898 011a 76746C69 		.ascii	"vtlist\000"
 1898      737400
 1899              	.LASF114:
 1900 0121 2F686F6D 		.ascii	"/home/kozinalexey/f4by/ardupilot/build/f4by-ch\000"
 1900      652F6B6F 
 1900      7A696E61 
 1900      6C657865 
 1900      792F6634 
 1901              	.LASF40:
 1902 0150 6D736771 		.ascii	"msgqueue\000"
 1902      75657565 
 1902      00
 1903              	.LASF36:
 1904 0159 73746174 		.ascii	"state\000"
 1904      6500
 1905              	.LASF8:
 1906 015f 6C6F6E67 		.ascii	"long int\000"
 1906      20696E74 
 1906      00
 1907              	.LASF21:
 1908 0168 74737461 		.ascii	"tstate_t\000"
 1908      74655F74 
 1908      00
 1909              	.LASF61:
 1910 0171 66756E63 		.ascii	"func\000"
 1910      00
 1911              	.LASF45:
 1912 0176 73746174 		.ascii	"stats\000"
 1912      7300
 1913              	.LASF105:
 1914 017c 4E756C6C 		.ascii	"NullStreamVMT\000"
 1914      53747265 
 1914      616D564D 
 1914      5400
 1915              	.LASF9:
 1916 018a 5F5F7569 		.ascii	"__uint32_t\000"
 1916      6E743332 
 1916      5F7400
 1917              	.LASF75:
ARM GAS  /tmp/ccSRR3Hg.s 			page 36


 1918 0195 72656761 		.ascii	"regarm_t\000"
 1918      726D5F74 
 1918      00
 1919              	.LASF66:
 1920 019e 63685F73 		.ascii	"ch_system_debug\000"
 1920      79737465 
 1920      6D5F6465 
 1920      62756700 
 1921              	.LASF39:
 1922 01ae 77616974 		.ascii	"waiting\000"
 1922      696E6700 
 1923              	.LASF103:
 1924 01b6 6D757465 		.ascii	"mutex_t\000"
 1924      785F7400 
 1925              	.LASF26:
 1926 01be 636E745F 		.ascii	"cnt_t\000"
 1926      7400
 1927              	.LASF0:
 1928 01c4 756E7369 		.ascii	"unsigned int\000"
 1928      676E6564 
 1928      20696E74 
 1928      00
 1929              	.LASF112:
 1930 01d1 474E5520 		.ascii	"GNU C 4.9.3 20150529 (prerelease) -mcpu=cortex-m4 -"
 1930      4320342E 
 1930      392E3320 
 1930      32303135 
 1930      30353239 
 1931 0204 6D666C6F 		.ascii	"mfloat-abi=hard -mfpu=fpv4-sp-d16 -mno-thumb-interw"
 1931      61742D61 
 1931      62693D68 
 1931      61726420 
 1931      2D6D6670 
 1932 0237 6F726B20 		.ascii	"ork -mthumb -g -Os -fomit-frame-pointer -falign-fun"
 1932      2D6D7468 
 1932      756D6220 
 1932      2D67202D 
 1932      4F73202D 
 1933 026a 6374696F 		.ascii	"ctions=16 -ffunction-sections -fdata-sections -fno-"
 1933      6E733D31 
 1933      36202D66 
 1933      66756E63 
 1933      74696F6E 
 1934 029d 636F6D6D 		.ascii	"common -fsingle-precision-constant\000"
 1934      6F6E202D 
 1934      6673696E 
 1934      676C652D 
 1934      70726563 
 1935              	.LASF96:
 1936 02c0 77747365 		.ascii	"wtsemp\000"
 1936      6D7000
 1937              	.LASF94:
 1938 02c7 77747472 		.ascii	"wttrp\000"
 1938      7000
 1939              	.LASF86:
 1940 02cd 6E5F6972 		.ascii	"n_irq\000"
 1940      7100
ARM GAS  /tmp/ccSRR3Hg.s 			page 37


 1941              	.LASF30:
 1942 02d3 71756575 		.ascii	"queue\000"
 1942      6500
 1943              	.LASF44:
 1944 02d9 6D706F6F 		.ascii	"mpool\000"
 1944      6C00
 1945              	.LASF6:
 1946 02df 73686F72 		.ascii	"short unsigned int\000"
 1946      7420756E 
 1946      7369676E 
 1946      65642069 
 1946      6E7400
 1947              	.LASF90:
 1948 02f2 6B65726E 		.ascii	"kernel_stats_t\000"
 1948      656C5F73 
 1948      74617473 
 1948      5F7400
 1949              	.LASF34:
 1950 0301 6E616D65 		.ascii	"name\000"
 1950      00
 1951              	.LASF48:
 1952 0306 63685F74 		.ascii	"ch_thread\000"
 1952      68726561 
 1952      6400
 1953              	.LASF24:
 1954 0310 6D73675F 		.ascii	"msg_t\000"
 1954      7400
 1955              	.LASF83:
 1956 0316 6C617374 		.ascii	"last\000"
 1956      00
 1957              	.LASF27:
 1958 031b 75636E74 		.ascii	"ucnt_t\000"
 1958      5F7400
 1959              	.LASF41:
 1960 0322 6570656E 		.ascii	"epending\000"
 1960      64696E67 
 1960      00
 1961              	.LASF68:
 1962 032b 63685F73 		.ascii	"ch_system_t\000"
 1962      79737465 
 1962      6D5F7400 
 1963              	.LASF115:
 1964 0337 6E756C6C 		.ascii	"nullObjectInit\000"
 1964      4F626A65 
 1964      6374496E 
 1964      697400
 1965              	.LASF109:
 1966 0346 77726974 		.ascii	"writes\000"
 1966      657300
 1967              	.LASF20:
 1968 034d 746D6F64 		.ascii	"tmode_t\000"
 1968      655F7400 
 1969              	.LASF89:
 1970 0355 6D5F6372 		.ascii	"m_crit_isr\000"
 1970      69745F69 
 1970      737200
 1971              	.LASF55:
ARM GAS  /tmp/ccSRR3Hg.s 			page 38


 1972 0360 63685F72 		.ascii	"ch_ready_list\000"
 1972      65616479 
 1972      5F6C6973 
 1972      7400
 1973              	.LASF25:
 1974 036e 6576656E 		.ascii	"eventmask_t\000"
 1974      746D6173 
 1974      6B5F7400 
 1975              	.LASF7:
 1976 037a 5F5F696E 		.ascii	"__int32_t\000"
 1976      7433325F 
 1976      7400
 1977              	.LASF76:
 1978 0384 73746B61 		.ascii	"stkalign_t\000"
 1978      6C69676E 
 1978      5F7400
 1979              	.LASF32:
 1980 038f 6E657765 		.ascii	"newer\000"
 1980      7200
 1981              	.LASF106:
 1982 0395 77726974 		.ascii	"write\000"
 1982      6500
 1983              	.LASF74:
 1984 039b 73697A65 		.ascii	"sizetype\000"
 1984      74797065 
 1984      00
 1985              	.LASF46:
 1986 03a4 74687265 		.ascii	"thread_reference_t\000"
 1986      61645F72 
 1986      65666572 
 1986      656E6365 
 1986      5F7400
 1987              	.LASF63:
 1988 03b7 63685F76 		.ascii	"ch_virtual_timers_list\000"
 1988      69727475 
 1988      616C5F74 
 1988      696D6572 
 1988      735F6C69 
 1989              	.LASF80:
 1990 03ce 746D5F63 		.ascii	"tm_calibration_t\000"
 1990      616C6962 
 1990      72617469 
 1990      6F6E5F74 
 1990      00
 1991              	.LASF77:
 1992 03df 706F7274 		.ascii	"port_context\000"
 1992      5F636F6E 
 1992      74657874 
 1992      00
 1993              	.LASF113:
 1994 03ec 2E2E2F2E 		.ascii	"../../modules/ChibiOS/os/hal/lib/streams/nullstream"
 1994      2E2F6D6F 
 1994      64756C65 
 1994      732F4368 
 1994      6962694F 
 1995 041f 732E6300 		.ascii	"s.c\000"
 1996              	.LASF31:
ARM GAS  /tmp/ccSRR3Hg.s 			page 39


 1997 0423 7072696F 		.ascii	"prio\000"
 1997      00
 1998              	.LASF56:
 1999 0428 63757272 		.ascii	"current\000"
 1999      656E7400 
 2000              	.LASF12:
 2001 0430 5F5F7569 		.ascii	"__uint64_t\000"
 2001      6E743634 
 2001      5F7400
 2002              	.LASF84:
 2003 043b 63756D75 		.ascii	"cumulative\000"
 2003      6C617469 
 2003      766500
 2004              	.LASF22:
 2005 0446 74726566 		.ascii	"trefs_t\000"
 2005      735F7400 
 2006              	.LASF38:
 2007 044e 72656673 		.ascii	"refs\000"
 2007      00
 2008              	.LASF58:
 2009 0453 76697274 		.ascii	"virtual_timer_t\000"
 2009      75616C5F 
 2009      74696D65 
 2009      725F7400 
 2010              	.LASF23:
 2011 0463 74707269 		.ascii	"tprio_t\000"
 2011      6F5F7400 
 2012              	.LASF87:
 2013 046b 6E5F6374 		.ascii	"n_ctxswc\000"
 2013      78737763 
 2013      00
 2014              	.LASF104:
 2015 0474 5F426F6F 		.ascii	"_Bool\000"
 2015      6C00
 2016              	.LASF15:
 2017 047a 696E7433 		.ascii	"int32_t\000"
 2017      325F7400 
 2018              	.LASF4:
 2019 0482 756E7369 		.ascii	"unsigned char\000"
 2019      676E6564 
 2019      20636861 
 2019      7200
 2020              	.LASF5:
 2021 0490 73686F72 		.ascii	"short int\000"
 2021      7420696E 
 2021      7400
 2022              	.LASF64:
 2023 049a 6C617374 		.ascii	"lasttime\000"
 2023      74696D65 
 2023      00
 2024              	.LASF98:
 2025 04a3 65776D61 		.ascii	"ewmask\000"
 2025      736B00
 2026              	.LASF69:
 2027 04aa 63685F73 		.ascii	"ch_system\000"
 2027      79737465 
 2027      6D00
ARM GAS  /tmp/ccSRR3Hg.s 			page 40


 2028              	.LASF59:
 2029 04b4 63685F76 		.ascii	"ch_virtual_timer\000"
 2029      69727475 
 2029      616C5F74 
 2029      696D6572 
 2029      00
 2030              	.LASF99:
 2031 04c5 63685F73 		.ascii	"ch_semaphore\000"
 2031      656D6170 
 2031      686F7265 
 2031      00
 2032              	.LASF16:
 2033 04d2 75696E74 		.ascii	"uint32_t\000"
 2033      33325F74 
 2033      00
 2034              	.LASF97:
 2035 04db 77746D74 		.ascii	"wtmtxp\000"
 2035      787000
 2036              	.LASF49:
 2037 04e2 63685F74 		.ascii	"ch_threads_list\000"
 2037      68726561 
 2037      64735F6C 
 2037      69737400 
 2038              	.LASF101:
 2039 04f2 6F776E65 		.ascii	"owner\000"
 2039      7200
 2040              	.LASF43:
 2041 04f8 7265616C 		.ascii	"realprio\000"
 2041      7072696F 
 2041      00
 2042              	.LASF10:
 2043 0501 6C6F6E67 		.ascii	"long unsigned int\000"
 2043      20756E73 
 2043      69676E65 
 2043      6420696E 
 2043      7400
 2044              	.LASF35:
 2045 0513 77616261 		.ascii	"wabase\000"
 2045      736500
 2046              	.LASF107:
 2047 051a 72656164 		.ascii	"read\000"
 2047      00
 2048              	.LASF102:
 2049 051f 63686172 		.ascii	"char\000"
 2049      00
 2050              	.LASF33:
 2051 0524 6F6C6465 		.ascii	"older\000"
 2051      7200
 2052              	.LASF29:
 2053 052a 74687265 		.ascii	"thread_t\000"
 2053      61645F74 
 2053      00
 2054              	.LASF81:
 2055 0533 62657374 		.ascii	"best\000"
 2055      00
 2056              	.LASF28:
 2057 0538 73797374 		.ascii	"systime_t\000"
ARM GAS  /tmp/ccSRR3Hg.s 			page 41


 2057      696D655F 
 2057      7400
 2058              	.LASF57:
 2059 0542 76746675 		.ascii	"vtfunc_t\000"
 2059      6E635F74 
 2059      00
 2060              	.LASF67:
 2061 054b 70616E69 		.ascii	"panic_msg\000"
 2061      635F6D73 
 2061      6700
 2062              	.LASF79:
 2063 0555 6F666673 		.ascii	"offset\000"
 2063      657400
 2064              	.LASF18:
 2065 055c 7274636E 		.ascii	"rtcnt_t\000"
 2065      745F7400 
 2066              	.LASF51:
 2067 0564 74687265 		.ascii	"threads_queue_t\000"
 2067      6164735F 
 2067      71756575 
 2067      655F7400 
 2068              	.LASF100:
 2069 0574 63685F6D 		.ascii	"ch_mutex\000"
 2069      75746578 
 2069      00
 2070              	.LASF70:
 2071 057d 726C6973 		.ascii	"rlist\000"
 2071      7400
 2072              	.LASF14:
 2073 0583 75696E74 		.ascii	"uint8_t\000"
 2073      385F7400 
 2074              	.LASF37:
 2075 058b 666C6167 		.ascii	"flags\000"
 2075      7300
 2076              	.LASF93:
 2077 0591 77746F62 		.ascii	"wtobjp\000"
 2077      6A7000
 2078              	.LASF47:
 2079 0598 74687265 		.ascii	"threads_list_t\000"
 2079      6164735F 
 2079      6C697374 
 2079      5F7400
 2080              	.LASF42:
 2081 05a7 6D74786C 		.ascii	"mtxlist\000"
 2081      69737400 
 2082              	.LASF88:
 2083 05af 6D5F6372 		.ascii	"m_crit_thd\000"
 2083      69745F74 
 2083      686400
 2084              		.ident	"GCC: (15:4.9.3+svn231177-1) 4.9.3 20150529 (prerelease)"
ARM GAS  /tmp/ccSRR3Hg.s 			page 42


DEFINED SYMBOLS
                            *ABS*:0000000000000000 nullstreams.c
     /tmp/ccSRR3Hg.s:21     .text.writes:0000000000000000 $t
     /tmp/ccSRR3Hg.s:25     .text.writes:0000000000000000 writes
     /tmp/ccSRR3Hg.s:42     .text.reads:0000000000000000 $t
     /tmp/ccSRR3Hg.s:46     .text.reads:0000000000000000 reads
     /tmp/ccSRR3Hg.s:62     .text.put:0000000000000000 $t
     /tmp/ccSRR3Hg.s:66     .text.put:0000000000000000 put
     /tmp/ccSRR3Hg.s:82     .text.get:0000000000000000 $t
     /tmp/ccSRR3Hg.s:86     .text.get:0000000000000000 get
     /tmp/ccSRR3Hg.s:102    .text.nullObjectInit:0000000000000000 $t
     /tmp/ccSRR3Hg.s:107    .text.nullObjectInit:0000000000000000 nullObjectInit
     /tmp/ccSRR3Hg.s:122    .text.nullObjectInit:0000000000000008 $d
     /tmp/ccSRR3Hg.s:127    .rodata.vmt:0000000000000000 $d
     /tmp/ccSRR3Hg.s:131    .rodata.vmt:0000000000000000 vmt
                     .debug_frame:0000000000000010 $d

NO UNDEFINED SYMBOLS
