ARM GAS  /tmp/ccLqSRjv.s 			page 1


   1              		.syntax unified
   2              		.cpu cortex-m4
   3              		.eabi_attribute 27, 1
   4              		.eabi_attribute 28, 1
   5              		.fpu fpv4-sp-d16
   6              		.eabi_attribute 20, 1
   7              		.eabi_attribute 21, 1
   8              		.eabi_attribute 23, 3
   9              		.eabi_attribute 24, 1
  10              		.eabi_attribute 25, 1
  11              		.eabi_attribute 26, 1
  12              		.eabi_attribute 30, 4
  13              		.eabi_attribute 34, 1
  14              		.eabi_attribute 18, 4
  15              		.thumb
  16              		.file	"nvic.c"
  17              		.text
  18              	.Ltext0:
  19              		.cfi_sections	.debug_frame
  20              		.section	.text.nvicEnableVector,"ax",%progbits
  21              		.align	1
  22              		.global	nvicEnableVector
  23              		.thumb
  24              		.thumb_func
  25              		.type	nvicEnableVector, %function
  26              	nvicEnableVector:
  27              	.LFB277:
  28              		.file 1 "../../modules/ChibiOS/os/hal/ports/common/ARMCMx/nvic.c"
  29              		.loc 1 57 0
  30              		.cfi_startproc
  31              		@ args = 0, pretend = 0, frame = 0
  32              		@ frame_needed = 0, uses_anonymous_args = 0
  33              		@ link register save eliminated.
  34              	.LVL0:
  35              		.loc 1 63 0
  36 0000 00F16043 		add	r3, r0, #-536870912
  37              		.loc 1 65 0
  38 0004 00F01F02 		and	r2, r0, #31
  39 0008 4009     		lsrs	r0, r0, #5
  40              	.LVL1:
  41              		.loc 1 63 0
  42 000a 03F56143 		add	r3, r3, #57600
  43              	.LVL2:
  44 000e 0901     		lsls	r1, r1, #4
  45              	.LVL3:
  46 0010 8000     		lsls	r0, r0, #2
  47 0012 C9B2     		uxtb	r1, r1
  48 0014 00F16040 		add	r0, r0, #-536870912
  49 0018 83F80013 		strb	r1, [r3, #768]
  50 001c 00F56140 		add	r0, r0, #57600
  51              		.loc 1 65 0
  52 0020 0123     		movs	r3, #1
  53              	.LVL4:
  54 0022 9340     		lsls	r3, r3, r2
  55 0024 C0F88031 		str	r3, [r0, #384]
  56              		.loc 1 66 0
  57 0028 0360     		str	r3, [r0]
ARM GAS  /tmp/ccLqSRjv.s 			page 2


  58 002a 7047     		bx	lr
  59              		.cfi_endproc
  60              	.LFE277:
  61              		.size	nvicEnableVector, .-nvicEnableVector
  62              		.section	.text.nvicDisableVector,"ax",%progbits
  63              		.align	1
  64              		.global	nvicDisableVector
  65              		.thumb
  66              		.thumb_func
  67              		.type	nvicDisableVector, %function
  68              	nvicDisableVector:
  69              	.LFB278:
  70              		.loc 1 74 0
  71              		.cfi_startproc
  72              		@ args = 0, pretend = 0, frame = 0
  73              		@ frame_needed = 0, uses_anonymous_args = 0
  74              		@ link register save eliminated.
  75              	.LVL5:
  76              		.loc 1 76 0
  77 0000 00F01F01 		and	r1, r0, #31
  78 0004 0122     		movs	r2, #1
  79 0006 4309     		lsrs	r3, r0, #5
  80 0008 8A40     		lsls	r2, r2, r1
  81 000a 0449     		ldr	r1, .L3
  82 000c 2033     		adds	r3, r3, #32
  83              		.loc 1 80 0
  84 000e 0844     		add	r0, r0, r1
  85              	.LVL6:
  86              		.loc 1 76 0
  87 0010 41F82320 		str	r2, [r1, r3, lsl #2]
  88              		.loc 1 80 0
  89 0014 0023     		movs	r3, #0
  90 0016 80F80033 		strb	r3, [r0, #768]
  91 001a 7047     		bx	lr
  92              	.L4:
  93              		.align	2
  94              	.L3:
  95 001c 00E100E0 		.word	-536813312
  96              		.cfi_endproc
  97              	.LFE278:
  98              		.size	nvicDisableVector, .-nvicDisableVector
  99              		.section	.text.nvicSetSystemHandlerPriority,"ax",%progbits
 100              		.align	1
 101              		.global	nvicSetSystemHandlerPriority
 102              		.thumb
 103              		.thumb_func
 104              		.type	nvicSetSystemHandlerPriority, %function
 105              	nvicSetSystemHandlerPriority:
 106              	.LFB279:
 107              		.loc 1 90 0
 108              		.cfi_startproc
 109              		@ args = 0, pretend = 0, frame = 0
 110              		@ frame_needed = 0, uses_anonymous_args = 0
 111              		@ link register save eliminated.
 112              	.LVL7:
 113              		.loc 1 100 0
 114 0000 00F16040 		add	r0, r0, #-536870912
ARM GAS  /tmp/ccLqSRjv.s 			page 3


 115              	.LVL8:
 116 0004 0901     		lsls	r1, r1, #4
 117              	.LVL9:
 118 0006 00F56D40 		add	r0, r0, #60672
 119              	.LVL10:
 120 000a C9B2     		uxtb	r1, r1
 121 000c 0176     		strb	r1, [r0, #24]
 122 000e 7047     		bx	lr
 123              		.cfi_endproc
 124              	.LFE279:
 125              		.size	nvicSetSystemHandlerPriority, .-nvicSetSystemHandlerPriority
 126              		.section	.text.nvicClearPending,"ax",%progbits
 127              		.align	1
 128              		.global	nvicClearPending
 129              		.thumb
 130              		.thumb_func
 131              		.type	nvicClearPending, %function
 132              	nvicClearPending:
 133              	.LFB280:
 134              		.loc 1 109 0
 135              		.cfi_startproc
 136              		@ args = 0, pretend = 0, frame = 0
 137              		@ frame_needed = 0, uses_anonymous_args = 0
 138              		@ link register save eliminated.
 139              	.LVL11:
 140              		.loc 1 111 0
 141 0000 4309     		lsrs	r3, r0, #5
 142 0002 0122     		movs	r2, #1
 143 0004 00F01F00 		and	r0, r0, #31
 144              	.LVL12:
 145 0008 6033     		adds	r3, r3, #96
 146 000a 0249     		ldr	r1, .L7
 147 000c 8240     		lsls	r2, r2, r0
 148 000e 41F82320 		str	r2, [r1, r3, lsl #2]
 149 0012 7047     		bx	lr
 150              	.L8:
 151              		.align	2
 152              	.L7:
 153 0014 00E100E0 		.word	-536813312
 154              		.cfi_endproc
 155              	.LFE280:
 156              		.size	nvicClearPending, .-nvicClearPending
 157              		.text
 158              	.Letext0:
 159              		.file 2 "/usr/include/newlib/machine/_default_types.h"
 160              		.file 3 "/usr/include/newlib/sys/_stdint.h"
 161              		.file 4 "../../modules/ChibiOS/os/common/ports/ARMCMx/compilers/GCC/chtypes.h"
 162              		.file 5 "../../modules/ChibiOS/os/rt/include/chsystypes.h"
 163              		.file 6 "../../modules/ChibiOS/os/rt/include/chschd.h"
 164              		.file 7 "../../modules/ChibiOS/os/common/ext/CMSIS/include/core_cm4.h"
 165              		.file 8 "../../modules/ChibiOS/os/common/ports/ARMCMx/chcore.h"
 166              		.file 9 "../../modules/ChibiOS/os/common/ports/ARMCMx/chcore_v7m.h"
 167              		.file 10 "../../modules/ChibiOS/os/rt/include/chtm.h"
 168              		.file 11 "../../modules/ChibiOS/os/rt/include/chstats.h"
 169              		.file 12 "../../modules/ChibiOS/os/rt/include/chsem.h"
 170              		.file 13 "../../modules/ChibiOS/os/rt/include/chmtx.h"