ARM GAS  /tmp/ccLqSRjv.s 			page 1


   1              		.syntax unified
   2              		.cpu cortex-m4
   3              		.eabi_attribute 27, 1
   4              		.eabi_attribute 28, 1
   5              		.fpu fpv4-sp-d16
   6              		.eabi_attribute 20, 1
   7              		.eabi_attribute 21, 1
   8              		.eabi_attribute 23, 3
   9              		.eabi_attribute 24, 1
  10              		.eabi_attribute 25, 1
  11              		.eabi_attribute 26, 1
  12              		.eabi_attribute 30, 4
  13              		.eabi_attribute 34, 1
  14              		.eabi_attribute 18, 4
  15              		.thumb
  16              		.file	"nvic.c"
  17              		.text
  18              	.Ltext0:
  19              		.cfi_sections	.debug_frame
  20              		.section	.text.nvicEnableVector,"ax",%progbits
  21              		.align	1
  22              		.global	nvicEnableVector
  23              		.thumb
  24              		.thumb_func
  25              		.type	nvicEnableVector, %function
  26              	nvicEnableVector:
  27              	.LFB277:
  28              		.file 1 "../../modules/ChibiOS/os/hal/ports/common/ARMCMx/nvic.c"
  29              		.loc 1 57 0
  30              		.cfi_startproc
  31              		@ args = 0, pretend = 0, frame = 0
  32              		@ frame_needed = 0, uses_anonymous_args = 0
  33              		@ link register save eliminated.
  34              	.LVL0:
  35              		.loc 1 63 0
  36 0000 00F16043 		add	r3, r0, #-536870912
  37              		.loc 1 65 0
  38 0004 00F01F02 		and	r2, r0, #31
  39 0008 4009     		lsrs	r0, r0, #5
  40              	.LVL1:
  41              		.loc 1 63 0
  42 000a 03F56143 		add	r3, r3, #57600
  43              	.LVL2:
  44 000e 0901     		lsls	r1, r1, #4
  45              	.LVL3:
  46 0010 8000     		lsls	r0, r0, #2
  47 0012 C9B2     		uxtb	r1, r1
  48 0014 00F16040 		add	r0, r0, #-536870912
  49 0018 83F80013 		strb	r1, [r3, #768]
  50 001c 00F56140 		add	r0, r0, #57600
  51              		.loc 1 65 0
  52 0020 0123     		movs	r3, #1
  53              	.LVL4:
  54 0022 9340     		lsls	r3, r3, r2
  55 0024 C0F88031 		str	r3, [r0, #384]
  56              		.loc 1 66 0
  57 0028 0360     		str	r3, [r0]
ARM GAS  /tmp/ccLqSRjv.s 			page 2


  58 002a 7047     		bx	lr
  59              		.cfi_endproc
  60              	.LFE277:
  61              		.size	nvicEnableVector, .-nvicEnableVector
  62              		.section	.text.nvicDisableVector,"ax",%progbits
  63              		.align	1
  64              		.global	nvicDisableVector
  65              		.thumb
  66              		.thumb_func
  67              		.type	nvicDisableVector, %function
  68              	nvicDisableVector:
  69              	.LFB278:
  70              		.loc 1 74 0
  71              		.cfi_startproc
  72              		@ args = 0, pretend = 0, frame = 0
  73              		@ frame_needed = 0, uses_anonymous_args = 0
  74              		@ link register save eliminated.
  75              	.LVL5:
  76              		.loc 1 76 0
  77 0000 00F01F01 		and	r1, r0, #31
  78 0004 0122     		movs	r2, #1
  79 0006 4309     		lsrs	r3, r0, #5
  80 0008 8A40     		lsls	r2, r2, r1
  81 000a 0449     		ldr	r1, .L3
  82 000c 2033     		adds	r3, r3, #32
  83              		.loc 1 80 0
  84 000e 0844     		add	r0, r0, r1
  85              	.LVL6:
  86              		.loc 1 76 0
  87 0010 41F82320 		str	r2, [r1, r3, lsl #2]
  88              		.loc 1 80 0
  89 0014 0023     		movs	r3, #0
  90 0016 80F80033 		strb	r3, [r0, #768]
  91 001a 7047     		bx	lr
  92              	.L4:
  93              		.align	2
  94              	.L3:
  95 001c 00E100E0 		.word	-536813312
  96              		.cfi_endproc
  97              	.LFE278:
  98              		.size	nvicDisableVector, .-nvicDisableVector
  99              		.section	.text.nvicSetSystemHandlerPriority,"ax",%progbits
 100              		.align	1
 101              		.global	nvicSetSystemHandlerPriority
 102              		.thumb
 103              		.thumb_func
 104              		.type	nvicSetSystemHandlerPriority, %function
 105              	nvicSetSystemHandlerPriority:
 106              	.LFB279:
 107              		.loc 1 90 0
 108              		.cfi_startproc
 109              		@ args = 0, pretend = 0, frame = 0
 110              		@ frame_needed = 0, uses_anonymous_args = 0
 111              		@ link register save eliminated.
 112              	.LVL7:
 113              		.loc 1 100 0
 114 0000 00F16040 		add	r0, r0, #-536870912
ARM GAS  /tmp/ccLqSRjv.s 			page 3


 115              	.LVL8:
 116 0004 0901     		lsls	r1, r1, #4
 117              	.LVL9:
 118 0006 00F56D40 		add	r0, r0, #60672
 119              	.LVL10:
 120 000a C9B2     		uxtb	r1, r1
 121 000c 0176     		strb	r1, [r0, #24]
 122 000e 7047     		bx	lr
 123              		.cfi_endproc
 124              	.LFE279:
 125              		.size	nvicSetSystemHandlerPriority, .-nvicSetSystemHandlerPriority
 126              		.section	.text.nvicClearPending,"ax",%progbits
 127              		.align	1
 128              		.global	nvicClearPending
 129              		.thumb
 130              		.thumb_func
 131              		.type	nvicClearPending, %function
 132              	nvicClearPending:
 133              	.LFB280:
 134              		.loc 1 109 0
 135              		.cfi_startproc
 136              		@ args = 0, pretend = 0, frame = 0
 137              		@ frame_needed = 0, uses_anonymous_args = 0
 138              		@ link register save eliminated.
 139              	.LVL11:
 140              		.loc 1 111 0
 141 0000 4309     		lsrs	r3, r0, #5
 142 0002 0122     		movs	r2, #1
 143 0004 00F01F00 		and	r0, r0, #31
 144              	.LVL12:
 145 0008 6033     		adds	r3, r3, #96
 146 000a 0249     		ldr	r1, .L7
 147 000c 8240     		lsls	r2, r2, r0
 148 000e 41F82320 		str	r2, [r1, r3, lsl #2]
 149 0012 7047     		bx	lr
 150              	.L8:
 151              		.align	2
 152              	.L7:
 153 0014 00E100E0 		.word	-536813312
 154              		.cfi_endproc
 155              	.LFE280:
 156              		.size	nvicClearPending, .-nvicClearPending
 157              		.text
 158              	.Letext0:
 159              		.file 2 "/usr/include/newlib/machine/_default_types.h"
 160              		.file 3 "/usr/include/newlib/sys/_stdint.h"
 161              		.file 4 "../../modules/ChibiOS/os/common/ports/ARMCMx/compilers/GCC/chtypes.h"
 162              		.file 5 "../../modules/ChibiOS/os/rt/include/chsystypes.h"
 163              		.file 6 "../../modules/ChibiOS/os/rt/include/chschd.h"
 164              		.file 7 "../../modules/ChibiOS/os/common/ext/CMSIS/include/core_cm4.h"
 165              		.file 8 "../../modules/ChibiOS/os/common/ports/ARMCMx/chcore.h"
 166              		.file 9 "../../modules/ChibiOS/os/common/ports/ARMCMx/chcore_v7m.h"
 167              		.file 10 "../../modules/ChibiOS/os/rt/include/chtm.h"
 168              		.file 11 "../../modules/ChibiOS/os/rt/include/chstats.h"
 169              		.file 12 "../../modules/ChibiOS/os/rt/include/chsem.h"
 170              		.file 13 "../../modules/ChibiOS/os/rt/include/chmtx.h"
 171              		.section	.debug_info,"",%progbits
ARM GAS  /tmp/ccLqSRjv.s 			page 4


 172              	.Ldebug_info0:
 173 0000 3C0B0000 		.4byte	0xb3c
 174 0004 0400     		.2byte	0x4
 175 0006 00000000 		.4byte	.Ldebug_abbrev0
 176 000a 04       		.byte	0x4
 177 000b 01       		.uleb128 0x1
 178 000c F3010000 		.4byte	.LASF138
 179 0010 01       		.byte	0x1
 180 0011 F0050000 		.4byte	.LASF139
 181 0015 48010000 		.4byte	.LASF140
 182 0019 00000000 		.4byte	.Ldebug_ranges0+0
 183 001d 00000000 		.4byte	0
 184 0021 00000000 		.4byte	.Ldebug_line0
 185 0025 02       		.uleb128 0x2
 186 0026 04       		.byte	0x4
 187 0027 05       		.byte	0x5
 188 0028 696E7400 		.ascii	"int\000"
 189 002c 03       		.uleb128 0x3
 190 002d 04       		.byte	0x4
 191 002e 07       		.byte	0x7
 192 002f E6010000 		.4byte	.LASF0
 193 0033 03       		.uleb128 0x3
 194 0034 01       		.byte	0x1
 195 0035 06       		.byte	0x6
 196 0036 24010000 		.4byte	.LASF1
 197 003a 04       		.uleb128 0x4
 198 003b 45000000 		.4byte	.LASF5
 199 003f 02       		.byte	0x2
 200 0040 1D       		.byte	0x1d
 201 0041 45000000 		.4byte	0x45
 202 0045 03       		.uleb128 0x3
 203 0046 01       		.byte	0x1
 204 0047 08       		.byte	0x8
 205 0048 BB040000 		.4byte	.LASF2
 206 004c 03       		.uleb128 0x3
 207 004d 02       		.byte	0x2
 208 004e 05       		.byte	0x5
 209 004f DC040000 		.4byte	.LASF3
 210 0053 03       		.uleb128 0x3
 211 0054 02       		.byte	0x2
 212 0055 07       		.byte	0x7
 213 0056 CF050000 		.4byte	.LASF4
 214 005a 04       		.uleb128 0x4
 215 005b 99030000 		.4byte	.LASF6
 216 005f 02       		.byte	0x2
 217 0060 3F       		.byte	0x3f
 218 0061 65000000 		.4byte	0x65
 219 0065 03       		.uleb128 0x3
 220 0066 04       		.byte	0x4
 221 0067 05       		.byte	0x5
 222 0068 86010000 		.4byte	.LASF7
 223 006c 04       		.uleb128 0x4
 224 006d A3010000 		.4byte	.LASF8
 225 0071 02       		.byte	0x2
 226 0072 41       		.byte	0x41
 227 0073 77000000 		.4byte	0x77
 228 0077 03       		.uleb128 0x3
ARM GAS  /tmp/ccLqSRjv.s 			page 5


 229 0078 04       		.byte	0x4
 230 0079 07       		.byte	0x7
 231 007a 74050000 		.4byte	.LASF9
 232 007e 03       		.uleb128 0x3
 233 007f 08       		.byte	0x8
 234 0080 05       		.byte	0x5
 235 0081 16010000 		.4byte	.LASF10
 236 0085 04       		.uleb128 0x4
 237 0086 4C040000 		.4byte	.LASF11
 238 008a 02       		.byte	0x2
 239 008b 5B       		.byte	0x5b
 240 008c 90000000 		.4byte	0x90
 241 0090 03       		.uleb128 0x3
 242 0091 08       		.byte	0x8
 243 0092 07       		.byte	0x7
 244 0093 99000000 		.4byte	.LASF12
 245 0097 04       		.uleb128 0x4
 246 0098 4C060000 		.4byte	.LASF13
 247 009c 03       		.byte	0x3
 248 009d 14       		.byte	0x14
 249 009e 3A000000 		.4byte	0x3a
 250 00a2 04       		.uleb128 0x4
 251 00a3 B3040000 		.4byte	.LASF14
 252 00a7 03       		.byte	0x3
 253 00a8 1F       		.byte	0x1f
 254 00a9 5A000000 		.4byte	0x5a
 255 00ad 04       		.uleb128 0x4
 256 00ae 49050000 		.4byte	.LASF15
 257 00b2 03       		.byte	0x3
 258 00b3 20       		.byte	0x20
 259 00b4 6C000000 		.4byte	0x6c
 260 00b8 04       		.uleb128 0x4
 261 00b9 2F000000 		.4byte	.LASF16
 262 00bd 03       		.byte	0x3
 263 00be 26       		.byte	0x26
 264 00bf 85000000 		.4byte	0x85
 265 00c3 04       		.uleb128 0x4
 266 00c4 E2050000 		.4byte	.LASF17
 267 00c8 04       		.byte	0x4
 268 00c9 39       		.byte	0x39
 269 00ca AD000000 		.4byte	0xad
 270 00ce 04       		.uleb128 0x4
 271 00cf ED000000 		.4byte	.LASF18
 272 00d3 04       		.byte	0x4
 273 00d4 3A       		.byte	0x3a
 274 00d5 B8000000 		.4byte	0xb8
 275 00d9 04       		.uleb128 0x4
 276 00da 6C030000 		.4byte	.LASF19
 277 00de 04       		.byte	0x4
 278 00df 3C       		.byte	0x3c
 279 00e0 97000000 		.4byte	0x97
 280 00e4 04       		.uleb128 0x4
 281 00e5 8F010000 		.4byte	.LASF20
 282 00e9 04       		.byte	0x4
 283 00ea 3D       		.byte	0x3d
 284 00eb 97000000 		.4byte	0x97
 285 00ef 04       		.uleb128 0x4
ARM GAS  /tmp/ccLqSRjv.s 			page 6


 286 00f0 62040000 		.4byte	.LASF21
 287 00f4 04       		.byte	0x4
 288 00f5 3E       		.byte	0x3e
 289 00f6 97000000 		.4byte	0x97
 290 00fa 04       		.uleb128 0x4
 291 00fb 9C040000 		.4byte	.LASF22
 292 00ff 04       		.byte	0x4
 293 0100 40       		.byte	0x40
 294 0101 AD000000 		.4byte	0xad
 295 0105 04       		.uleb128 0x4
 296 0106 39030000 		.4byte	.LASF23
 297 010a 04       		.byte	0x4
 298 010b 41       		.byte	0x41
 299 010c A2000000 		.4byte	0xa2
 300 0110 04       		.uleb128 0x4
 301 0111 8D030000 		.4byte	.LASF24
 302 0115 04       		.byte	0x4
 303 0116 43       		.byte	0x43
 304 0117 AD000000 		.4byte	0xad
 305 011b 04       		.uleb128 0x4
 306 011c E0010000 		.4byte	.LASF25
 307 0120 04       		.byte	0x4
 308 0121 45       		.byte	0x45
 309 0122 A2000000 		.4byte	0xa2
 310 0126 04       		.uleb128 0x4
 311 0127 4A030000 		.4byte	.LASF26
 312 012b 04       		.byte	0x4
 313 012c 46       		.byte	0x46
 314 012d AD000000 		.4byte	0xad
 315 0131 04       		.uleb128 0x4
 316 0132 A6050000 		.4byte	.LASF27
 317 0136 05       		.byte	0x5
 318 0137 33       		.byte	0x33
 319 0138 AD000000 		.4byte	0xad
 320 013c 04       		.uleb128 0x4
 321 013d 98050000 		.4byte	.LASF28
 322 0141 05       		.byte	0x5
 323 0142 3F       		.byte	0x3f
 324 0143 47010000 		.4byte	0x147
 325 0147 05       		.uleb128 0x5
 326 0148 25030000 		.4byte	.LASF47
 327 014c 60       		.byte	0x60
 328 014d 06       		.byte	0x6
 329 014e 9A       		.byte	0x9a
 330 014f 32020000 		.4byte	0x232
 331 0153 06       		.uleb128 0x6
 332 0154 0C040000 		.4byte	.LASF29
 333 0158 06       		.byte	0x6
 334 0159 9B       		.byte	0x9b
 335 015a 67020000 		.4byte	0x267
 336 015e 00       		.byte	0
 337 015f 06       		.uleb128 0x6
 338 0160 3F040000 		.4byte	.LASF30
 339 0164 06       		.byte	0x6
 340 0165 9C       		.byte	0x9c
 341 0166 FA000000 		.4byte	0xfa
 342 016a 08       		.byte	0x8
ARM GAS  /tmp/ccLqSRjv.s 			page 7


 343 016b 07       		.uleb128 0x7
 344 016c 63747800 		.ascii	"ctx\000"
 345 0170 06       		.byte	0x6
 346 0171 9D       		.byte	0x9d
 347 0172 37070000 		.4byte	0x737
 348 0176 0C       		.byte	0xc
 349 0177 06       		.uleb128 0x6
 350 0178 EA050000 		.4byte	.LASF31
 351 017c 06       		.byte	0x6
 352 017d 9F       		.byte	0x9f
 353 017e 3D020000 		.4byte	0x23d
 354 0182 10       		.byte	0x10
 355 0183 06       		.uleb128 0x6
 356 0184 92050000 		.4byte	.LASF32
 357 0188 06       		.byte	0x6
 358 0189 A0       		.byte	0xa0
 359 018a 3D020000 		.4byte	0x23d
 360 018e 14       		.byte	0x14
 361 018f 06       		.uleb128 0x6
 362 0190 20030000 		.4byte	.LASF33
 363 0194 06       		.byte	0x6
 364 0195 A7       		.byte	0xa7
 365 0196 1E0A0000 		.4byte	0xa1e
 366 019a 18       		.byte	0x18
 367 019b 06       		.uleb128 0x6
 368 019c 86050000 		.4byte	.LASF34
 369 01a0 06       		.byte	0x6
 370 01a1 B0       		.byte	0xb0
 371 01a2 300A0000 		.4byte	0xa30
 372 01a6 1C       		.byte	0x1c
 373 01a7 06       		.uleb128 0x6
 374 01a8 80010000 		.4byte	.LASF35
 375 01ac 06       		.byte	0x6
 376 01ad B5       		.byte	0xb5
 377 01ae E4000000 		.4byte	0xe4
 378 01b2 20       		.byte	0x20
 379 01b3 06       		.uleb128 0x6
 380 01b4 54060000 		.4byte	.LASF36
 381 01b8 06       		.byte	0x6
 382 01b9 B9       		.byte	0xb9
 383 01ba D9000000 		.4byte	0xd9
 384 01be 21       		.byte	0x21
 385 01bf 06       		.uleb128 0x6
 386 01c0 0C010000 		.4byte	.LASF37
 387 01c4 06       		.byte	0x6
 388 01c5 BE       		.byte	0xbe
 389 01c6 EF000000 		.4byte	0xef
 390 01ca 22       		.byte	0x22
 391 01cb 08       		.uleb128 0x8
 392 01cc 7500     		.ascii	"u\000"
 393 01ce 06       		.byte	0x6
 394 01cf 0F01     		.2byte	0x10f
 395 01d1 53090000 		.4byte	0x953
 396 01d5 24       		.byte	0x24
 397 01d6 09       		.uleb128 0x9
 398 01d7 D0010000 		.4byte	.LASF38
 399 01db 06       		.byte	0x6
ARM GAS  /tmp/ccLqSRjv.s 			page 8


 400 01dc 1401     		.2byte	0x114
 401 01de 43020000 		.4byte	0x243
 402 01e2 28       		.byte	0x28
 403 01e3 09       		.uleb128 0x9
 404 01e4 77010000 		.4byte	.LASF39
 405 01e8 06       		.byte	0x6
 406 01e9 1A01     		.2byte	0x11a
 407 01eb 67020000 		.4byte	0x267
 408 01ef 2C       		.byte	0x2c
 409 01f0 09       		.uleb128 0x9
 410 01f1 51030000 		.4byte	.LASF40
 411 01f5 06       		.byte	0x6
 412 01f6 2001     		.2byte	0x120
 413 01f8 10010000 		.4byte	0x110
 414 01fc 34       		.byte	0x34
 415 01fd 09       		.uleb128 0x9
 416 01fe 7A060000 		.4byte	.LASF41
 417 0202 06       		.byte	0x6
 418 0203 2701     		.2byte	0x127
 419 0205 180A0000 		.4byte	0xa18
 420 0209 38       		.byte	0x38
 421 020a 09       		.uleb128 0x9
 422 020b D0030000 		.4byte	.LASF42
 423 020f 06       		.byte	0x6
 424 0210 2B01     		.2byte	0x12b
 425 0212 FA000000 		.4byte	0xfa
 426 0216 3C       		.byte	0x3c
 427 0217 09       		.uleb128 0x9
 428 0218 0B030000 		.4byte	.LASF43
 429 021c 06       		.byte	0x6
 430 021d 3201     		.2byte	0x132
 431 021f 1A030000 		.4byte	0x31a
 432 0223 40       		.byte	0x40
 433 0224 09       		.uleb128 0x9
 434 0225 9D010000 		.4byte	.LASF44
 435 0229 06       		.byte	0x6
 436 022a 3801     		.2byte	0x138
 437 022c 04090000 		.4byte	0x904
 438 0230 48       		.byte	0x48
 439 0231 00       		.byte	0
 440 0232 04       		.uleb128 0x4
 441 0233 E2030000 		.4byte	.LASF45
 442 0237 05       		.byte	0x5
 443 0238 44       		.byte	0x44
 444 0239 3D020000 		.4byte	0x23d
 445 023d 0A       		.uleb128 0xa
 446 023e 04       		.byte	0x4
 447 023f 3C010000 		.4byte	0x13c
 448 0243 04       		.uleb128 0x4
 449 0244 00000000 		.4byte	.LASF46
 450 0248 05       		.byte	0x5
 451 0249 49       		.byte	0x49
 452 024a 4E020000 		.4byte	0x24e
 453 024e 05       		.uleb128 0x5
 454 024f 5E050000 		.4byte	.LASF48
 455 0253 04       		.byte	0x4
 456 0254 06       		.byte	0x6
ARM GAS  /tmp/ccLqSRjv.s 			page 9


 457 0255 88       		.byte	0x88
 458 0256 67020000 		.4byte	0x267
 459 025a 06       		.uleb128 0x6
 460 025b E8000000 		.4byte	.LASF49
 461 025f 06       		.byte	0x6
 462 0260 89       		.byte	0x89
 463 0261 3D020000 		.4byte	0x23d
 464 0265 00       		.byte	0
 465 0266 00       		.byte	0
 466 0267 04       		.uleb128 0x4
 467 0268 28060000 		.4byte	.LASF50
 468 026c 05       		.byte	0x5
 469 026d 50       		.byte	0x50
 470 026e 72020000 		.4byte	0x272
 471 0272 05       		.uleb128 0x5
 472 0273 60000000 		.4byte	.LASF51
 473 0277 08       		.byte	0x8
 474 0278 06       		.byte	0x6
 475 0279 8F       		.byte	0x8f
 476 027a 97020000 		.4byte	0x297
 477 027e 06       		.uleb128 0x6
 478 027f E8000000 		.4byte	.LASF49
 479 0283 06       		.byte	0x6
 480 0284 90       		.byte	0x90
 481 0285 3D020000 		.4byte	0x23d
 482 0289 00       		.byte	0
 483 028a 06       		.uleb128 0x6
 484 028b 4F000000 		.4byte	.LASF52
 485 028f 06       		.byte	0x6
 486 0290 91       		.byte	0x91
 487 0291 3D020000 		.4byte	0x23d
 488 0295 04       		.byte	0x4
 489 0296 00       		.byte	0
 490 0297 04       		.uleb128 0x4
 491 0298 0F000000 		.4byte	.LASF53
 492 029c 05       		.byte	0x5
 493 029d 57       		.byte	0x57
 494 029e A2020000 		.4byte	0x2a2
 495 02a2 0B       		.uleb128 0xb
 496 02a3 7F030000 		.4byte	.LASF54
 497 02a7 1C       		.byte	0x1c
 498 02a8 06       		.byte	0x6
 499 02a9 6A01     		.2byte	0x16a
 500 02ab FE020000 		.4byte	0x2fe
 501 02af 09       		.uleb128 0x9
 502 02b0 0C040000 		.4byte	.LASF29
 503 02b4 06       		.byte	0x6
 504 02b5 6B01     		.2byte	0x16b
 505 02b7 67020000 		.4byte	0x267
 506 02bb 00       		.byte	0
 507 02bc 09       		.uleb128 0x9
 508 02bd 3F040000 		.4byte	.LASF30
 509 02c1 06       		.byte	0x6
 510 02c2 6C01     		.2byte	0x16c
 511 02c4 FA000000 		.4byte	0xfa
 512 02c8 08       		.byte	0x8
 513 02c9 08       		.uleb128 0x8
ARM GAS  /tmp/ccLqSRjv.s 			page 10


 514 02ca 63747800 		.ascii	"ctx\000"
 515 02ce 06       		.byte	0x6
 516 02cf 6E01     		.2byte	0x16e
 517 02d1 37070000 		.4byte	0x737
 518 02d5 0C       		.byte	0xc
 519 02d6 09       		.uleb128 0x9
 520 02d7 EA050000 		.4byte	.LASF31
 521 02db 06       		.byte	0x6
 522 02dc 7101     		.2byte	0x171
 523 02de 3D020000 		.4byte	0x23d
 524 02e2 10       		.byte	0x10
 525 02e3 09       		.uleb128 0x9
 526 02e4 92050000 		.4byte	.LASF32
 527 02e8 06       		.byte	0x6
 528 02e9 7201     		.2byte	0x172
 529 02eb 3D020000 		.4byte	0x23d
 530 02ef 14       		.byte	0x14
 531 02f0 09       		.uleb128 0x9
 532 02f1 44040000 		.4byte	.LASF55
 533 02f5 06       		.byte	0x6
 534 02f6 7501     		.2byte	0x175
 535 02f8 3D020000 		.4byte	0x23d
 536 02fc 18       		.byte	0x18
 537 02fd 00       		.byte	0
 538 02fe 04       		.uleb128 0x4
 539 02ff B0050000 		.4byte	.LASF56
 540 0303 05       		.byte	0x5
 541 0304 5C       		.byte	0x5c
 542 0305 09030000 		.4byte	0x309
 543 0309 0A       		.uleb128 0xa
 544 030a 04       		.byte	0x4
 545 030b 0F030000 		.4byte	0x30f
 546 030f 0C       		.uleb128 0xc
 547 0310 1A030000 		.4byte	0x31a
 548 0314 0D       		.uleb128 0xd
 549 0315 1A030000 		.4byte	0x31a
 550 0319 00       		.byte	0
 551 031a 0E       		.uleb128 0xe
 552 031b 04       		.byte	0x4
 553 031c 04       		.uleb128 0x4
 554 031d C0030000 		.4byte	.LASF57
 555 0321 05       		.byte	0x5
 556 0322 61       		.byte	0x61
 557 0323 27030000 		.4byte	0x327
 558 0327 0B       		.uleb128 0xb
 559 0328 2B050000 		.4byte	.LASF58
 560 032c 14       		.byte	0x14
 561 032d 06       		.byte	0x6
 562 032e 4501     		.2byte	0x145
 563 0330 76030000 		.4byte	0x376
 564 0334 09       		.uleb128 0x9
 565 0335 E8000000 		.4byte	.LASF49
 566 0339 06       		.byte	0x6
 567 033a 4601     		.2byte	0x146
 568 033c 360A0000 		.4byte	0xa36
 569 0340 00       		.byte	0
 570 0341 09       		.uleb128 0x9
ARM GAS  /tmp/ccLqSRjv.s 			page 11


 571 0342 4F000000 		.4byte	.LASF52
 572 0346 06       		.byte	0x6
 573 0347 4701     		.2byte	0x147
 574 0349 360A0000 		.4byte	0xa36
 575 034d 04       		.byte	0x4
 576 034e 09       		.uleb128 0x9
 577 034f 22000000 		.4byte	.LASF59
 578 0353 06       		.byte	0x6
 579 0354 4801     		.2byte	0x148
 580 0356 31010000 		.4byte	0x131
 581 035a 08       		.byte	0x8
 582 035b 09       		.uleb128 0x9
 583 035c 98010000 		.4byte	.LASF60
 584 0360 06       		.byte	0x6
 585 0361 4901     		.2byte	0x149
 586 0363 FE020000 		.4byte	0x2fe
 587 0367 0C       		.byte	0xc
 588 0368 08       		.uleb128 0x8
 589 0369 70617200 		.ascii	"par\000"
 590 036d 06       		.byte	0x6
 591 036e 4B01     		.2byte	0x14b
 592 0370 1A030000 		.4byte	0x31a
 593 0374 10       		.byte	0x10
 594 0375 00       		.byte	0
 595 0376 04       		.uleb128 0x4
 596 0377 CC000000 		.4byte	.LASF61
 597 037b 05       		.byte	0x5
 598 037c 66       		.byte	0x66
 599 037d 81030000 		.4byte	0x381
 600 0381 0B       		.uleb128 0xb
 601 0382 F5030000 		.4byte	.LASF62
 602 0386 10       		.byte	0x10
 603 0387 06       		.byte	0x6
 604 0388 5501     		.2byte	0x155
 605 038a C3030000 		.4byte	0x3c3
 606 038e 09       		.uleb128 0x9
 607 038f E8000000 		.4byte	.LASF49
 608 0393 06       		.byte	0x6
 609 0394 5601     		.2byte	0x156
 610 0396 360A0000 		.4byte	0xa36
 611 039a 00       		.byte	0
 612 039b 09       		.uleb128 0x9
 613 039c 4F000000 		.4byte	.LASF52
 614 03a0 06       		.byte	0x6
 615 03a1 5801     		.2byte	0x158
 616 03a3 360A0000 		.4byte	0xa36
 617 03a7 04       		.byte	0x4
 618 03a8 09       		.uleb128 0x9
 619 03a9 22000000 		.4byte	.LASF59
 620 03ad 06       		.byte	0x6
 621 03ae 5A01     		.2byte	0x15a
 622 03b0 31010000 		.4byte	0x131
 623 03b4 08       		.byte	0x8
 624 03b5 09       		.uleb128 0x9
 625 03b6 EB040000 		.4byte	.LASF63
 626 03ba 06       		.byte	0x6
 627 03bb 6201     		.2byte	0x162
ARM GAS  /tmp/ccLqSRjv.s 			page 12


 628 03bd 31010000 		.4byte	0x131
 629 03c1 0C       		.byte	0xc
 630 03c2 00       		.byte	0
 631 03c3 04       		.uleb128 0x4
 632 03c4 71000000 		.4byte	.LASF64
 633 03c8 05       		.byte	0x5
 634 03c9 6B       		.byte	0x6b
 635 03ca CE030000 		.4byte	0x3ce
 636 03ce 0B       		.uleb128 0xb
 637 03cf C0010000 		.4byte	.LASF65
 638 03d3 04       		.byte	0x4
 639 03d4 06       		.byte	0x6
 640 03d5 7C01     		.2byte	0x17c
 641 03d7 E9030000 		.4byte	0x3e9
 642 03db 09       		.uleb128 0x9
 643 03dc BE050000 		.4byte	.LASF66
 644 03e0 06       		.byte	0x6
 645 03e1 8401     		.2byte	0x184
 646 03e3 3C0A0000 		.4byte	0xa3c
 647 03e7 00       		.byte	0
 648 03e8 00       		.byte	0
 649 03e9 04       		.uleb128 0x4
 650 03ea 60030000 		.4byte	.LASF67
 651 03ee 05       		.byte	0x5
 652 03ef 70       		.byte	0x70
 653 03f0 F4030000 		.4byte	0x3f4
 654 03f4 0B       		.uleb128 0xb
 655 03f5 18050000 		.4byte	.LASF68
 656 03f9 D0       		.byte	0xd0
 657 03fa 06       		.byte	0x6
 658 03fb 9C01     		.2byte	0x19c
 659 03fd 4F040000 		.4byte	0x44f
 660 0401 09       		.uleb128 0x9
 661 0402 46060000 		.4byte	.LASF69
 662 0406 06       		.byte	0x6
 663 0407 A001     		.2byte	0x1a0
 664 0409 97020000 		.4byte	0x297
 665 040d 00       		.byte	0
 666 040e 09       		.uleb128 0x9
 667 040f 41010000 		.4byte	.LASF70
 668 0413 06       		.byte	0x6
 669 0414 A401     		.2byte	0x1a4
 670 0416 76030000 		.4byte	0x376
 671 041a 1C       		.byte	0x1c
 672 041b 08       		.uleb128 0x8
 673 041c 64626700 		.ascii	"dbg\000"
 674 0420 06       		.byte	0x6
 675 0421 A801     		.2byte	0x1a8
 676 0423 C3030000 		.4byte	0x3c3
 677 0427 2C       		.byte	0x2c
 678 0428 09       		.uleb128 0x9
 679 0429 B9000000 		.4byte	.LASF71
 680 042d 06       		.byte	0x6
 681 042e AC01     		.2byte	0x1ac
 682 0430 3C010000 		.4byte	0x13c
 683 0434 30       		.byte	0x30
 684 0435 08       		.uleb128 0x8
ARM GAS  /tmp/ccLqSRjv.s 			page 13


 685 0436 746D00   		.ascii	"tm\000"
 686 0439 06       		.byte	0x6
 687 043a B101     		.2byte	0x1b1
 688 043c B6080000 		.4byte	0x8b6
 689 0440 90       		.byte	0x90
 690 0441 09       		.uleb128 0x9
 691 0442 38000000 		.4byte	.LASF72
 692 0446 06       		.byte	0x6
 693 0447 B701     		.2byte	0x1b7
 694 0449 48090000 		.4byte	0x948
 695 044d 98       		.byte	0x98
 696 044e 00       		.byte	0
 697 044f 0F       		.uleb128 0xf
 698 0450 040E     		.2byte	0xe04
 699 0452 07       		.byte	0x7
 700 0453 C301     		.2byte	0x1c3
 701 0455 0B050000 		.4byte	0x50b
 702 0459 09       		.uleb128 0x9
 703 045a E6040000 		.4byte	.LASF73
 704 045e 07       		.byte	0x7
 705 045f C501     		.2byte	0x1c5
 706 0461 22050000 		.4byte	0x522
 707 0465 00       		.byte	0
 708 0466 09       		.uleb128 0x9
 709 0467 6A040000 		.4byte	.LASF74
 710 046b 07       		.byte	0x7
 711 046c C601     		.2byte	0x1c6
 712 046e 27050000 		.4byte	0x527
 713 0472 20       		.byte	0x20
 714 0473 09       		.uleb128 0x9
 715 0474 3A040000 		.4byte	.LASF75
 716 0478 07       		.byte	0x7
 717 0479 C701     		.2byte	0x1c7
 718 047b 37050000 		.4byte	0x537
 719 047f 80       		.byte	0x80
 720 0480 09       		.uleb128 0x9
 721 0481 5A060000 		.4byte	.LASF76
 722 0485 07       		.byte	0x7
 723 0486 C801     		.2byte	0x1c8
 724 0488 27050000 		.4byte	0x527
 725 048c A0       		.byte	0xa0
 726 048d 10       		.uleb128 0x10
 727 048e F6000000 		.4byte	.LASF77
 728 0492 07       		.byte	0x7
 729 0493 C901     		.2byte	0x1c9
 730 0495 3C050000 		.4byte	0x53c
 731 0499 0001     		.2byte	0x100
 732 049b 10       		.uleb128 0x10
 733 049c 74040000 		.4byte	.LASF78
 734 04a0 07       		.byte	0x7
 735 04a1 CA01     		.2byte	0x1ca
 736 04a3 27050000 		.4byte	0x527
 737 04a7 2001     		.2byte	0x120
 738 04a9 10       		.uleb128 0x10
 739 04aa FB020000 		.4byte	.LASF79
 740 04ae 07       		.byte	0x7
 741 04af CB01     		.2byte	0x1cb
ARM GAS  /tmp/ccLqSRjv.s 			page 14


 742 04b1 41050000 		.4byte	0x541
 743 04b5 8001     		.2byte	0x180
 744 04b7 10       		.uleb128 0x10
 745 04b8 7E040000 		.4byte	.LASF80
 746 04bc 07       		.byte	0x7
 747 04bd CC01     		.2byte	0x1cc
 748 04bf 27050000 		.4byte	0x527
 749 04c3 A001     		.2byte	0x1a0
 750 04c5 10       		.uleb128 0x10
 751 04c6 17040000 		.4byte	.LASF81
 752 04ca 07       		.byte	0x7
 753 04cb CD01     		.2byte	0x1cd
 754 04cd 46050000 		.4byte	0x546
 755 04d1 0002     		.2byte	0x200
 756 04d3 10       		.uleb128 0x10
 757 04d4 88040000 		.4byte	.LASF82
 758 04d8 07       		.byte	0x7
 759 04d9 CE01     		.2byte	0x1ce
 760 04db 4B050000 		.4byte	0x54b
 761 04df 2002     		.2byte	0x220
 762 04e1 11       		.uleb128 0x11
 763 04e2 495000   		.ascii	"IP\000"
 764 04e5 07       		.byte	0x7
 765 04e6 CF01     		.2byte	0x1cf
 766 04e8 6B050000 		.4byte	0x56b
 767 04ec 0003     		.2byte	0x300
 768 04ee 10       		.uleb128 0x10
 769 04ef 92040000 		.4byte	.LASF83
 770 04f3 07       		.byte	0x7
 771 04f4 D001     		.2byte	0x1d0
 772 04f6 70050000 		.4byte	0x570
 773 04fa F003     		.2byte	0x3f0
 774 04fc 10       		.uleb128 0x10
 775 04fd 63060000 		.4byte	.LASF84
 776 0501 07       		.byte	0x7
 777 0502 D101     		.2byte	0x1d1
 778 0504 81050000 		.4byte	0x581
 779 0508 000E     		.2byte	0xe00
 780 050a 00       		.byte	0
 781 050b 12       		.uleb128 0x12
 782 050c AD000000 		.4byte	0xad
 783 0510 1B050000 		.4byte	0x51b
 784 0514 13       		.uleb128 0x13
 785 0515 1B050000 		.4byte	0x51b
 786 0519 07       		.byte	0x7
 787 051a 00       		.byte	0
 788 051b 03       		.uleb128 0x3
 789 051c 04       		.byte	0x4
 790 051d 07       		.byte	0x7
 791 051e D9030000 		.4byte	.LASF85
 792 0522 14       		.uleb128 0x14
 793 0523 0B050000 		.4byte	0x50b
 794 0527 12       		.uleb128 0x12
 795 0528 AD000000 		.4byte	0xad
 796 052c 37050000 		.4byte	0x537
 797 0530 13       		.uleb128 0x13
 798 0531 1B050000 		.4byte	0x51b
ARM GAS  /tmp/ccLqSRjv.s 			page 15


 799 0535 17       		.byte	0x17
 800 0536 00       		.byte	0
 801 0537 14       		.uleb128 0x14
 802 0538 0B050000 		.4byte	0x50b
 803 053c 14       		.uleb128 0x14
 804 053d 0B050000 		.4byte	0x50b
 805 0541 14       		.uleb128 0x14
 806 0542 0B050000 		.4byte	0x50b
 807 0546 14       		.uleb128 0x14
 808 0547 0B050000 		.4byte	0x50b
 809 054b 12       		.uleb128 0x12
 810 054c AD000000 		.4byte	0xad
 811 0550 5B050000 		.4byte	0x55b
 812 0554 13       		.uleb128 0x13
 813 0555 1B050000 		.4byte	0x51b
 814 0559 37       		.byte	0x37
 815 055a 00       		.byte	0
 816 055b 12       		.uleb128 0x12
 817 055c 97000000 		.4byte	0x97
 818 0560 6B050000 		.4byte	0x56b
 819 0564 13       		.uleb128 0x13
 820 0565 1B050000 		.4byte	0x51b
 821 0569 EF       		.byte	0xef
 822 056a 00       		.byte	0
 823 056b 14       		.uleb128 0x14
 824 056c 5B050000 		.4byte	0x55b
 825 0570 12       		.uleb128 0x12
 826 0571 AD000000 		.4byte	0xad
 827 0575 81050000 		.4byte	0x581
 828 0579 15       		.uleb128 0x15
 829 057a 1B050000 		.4byte	0x51b
 830 057e 8302     		.2byte	0x283
 831 0580 00       		.byte	0
 832 0581 14       		.uleb128 0x14
 833 0582 AD000000 		.4byte	0xad
 834 0586 16       		.uleb128 0x16
 835 0587 AE030000 		.4byte	.LASF86
 836 058b 07       		.byte	0x7
 837 058c D201     		.2byte	0x1d2
 838 058e 4F040000 		.4byte	0x44f
 839 0592 17       		.uleb128 0x17
 840 0593 8C       		.byte	0x8c
 841 0594 07       		.byte	0x7
 842 0595 E501     		.2byte	0x1e5
 843 0597 AD060000 		.4byte	0x6ad
 844 059b 09       		.uleb128 0x9
 845 059c E2000000 		.4byte	.LASF87
 846 05a0 07       		.byte	0x7
 847 05a1 E701     		.2byte	0x1e7
 848 05a3 AD060000 		.4byte	0x6ad
 849 05a7 00       		.byte	0
 850 05a8 09       		.uleb128 0x9
 851 05a9 34030000 		.4byte	.LASF88
 852 05ad 07       		.byte	0x7
 853 05ae E801     		.2byte	0x1e8
 854 05b0 81050000 		.4byte	0x581
 855 05b4 04       		.byte	0x4
ARM GAS  /tmp/ccLqSRjv.s 			page 16


 856 05b5 09       		.uleb128 0x9
 857 05b6 06030000 		.4byte	.LASF89
 858 05ba 07       		.byte	0x7
 859 05bb E901     		.2byte	0x1e9
 860 05bd 81050000 		.4byte	0x581
 861 05c1 08       		.byte	0x8
 862 05c2 09       		.uleb128 0x9
 863 05c3 3F030000 		.4byte	.LASF90
 864 05c7 07       		.byte	0x7
 865 05c8 EA01     		.2byte	0x1ea
 866 05ca 81050000 		.4byte	0x581
 867 05ce 0C       		.byte	0xc
 868 05cf 08       		.uleb128 0x8
 869 05d0 53435200 		.ascii	"SCR\000"
 870 05d4 07       		.byte	0x7
 871 05d5 EB01     		.2byte	0x1eb
 872 05d7 81050000 		.4byte	0x581
 873 05db 10       		.byte	0x10
 874 05dc 08       		.uleb128 0x8
 875 05dd 43435200 		.ascii	"CCR\000"
 876 05e1 07       		.byte	0x7
 877 05e2 EC01     		.2byte	0x1ec
 878 05e4 81050000 		.4byte	0x581
 879 05e8 14       		.byte	0x14
 880 05e9 08       		.uleb128 0x8
 881 05ea 53485000 		.ascii	"SHP\000"
 882 05ee 07       		.byte	0x7
 883 05ef ED01     		.2byte	0x1ed
 884 05f1 C2060000 		.4byte	0x6c2
 885 05f5 18       		.byte	0x18
 886 05f6 09       		.uleb128 0x9
 887 05f7 C9040000 		.4byte	.LASF91
 888 05fb 07       		.byte	0x7
 889 05fc EE01     		.2byte	0x1ee
 890 05fe 81050000 		.4byte	0x581
 891 0602 24       		.byte	0x24
 892 0603 09       		.uleb128 0x9
 893 0604 12040000 		.4byte	.LASF92
 894 0608 07       		.byte	0x7
 895 0609 EF01     		.2byte	0x1ef
 896 060b 81050000 		.4byte	0x581
 897 060f 28       		.byte	0x28
 898 0610 09       		.uleb128 0x9
 899 0611 75060000 		.4byte	.LASF93
 900 0615 07       		.byte	0x7
 901 0616 F001     		.2byte	0x1f0
 902 0618 81050000 		.4byte	0x581
 903 061c 2C       		.byte	0x2c
 904 061d 09       		.uleb128 0x9
 905 061e 45030000 		.4byte	.LASF94
 906 0622 07       		.byte	0x7
 907 0623 F101     		.2byte	0x1f1
 908 0625 81050000 		.4byte	0x581
 909 0629 30       		.byte	0x30
 910 062a 09       		.uleb128 0x9
 911 062b 5A030000 		.4byte	.LASF95
 912 062f 07       		.byte	0x7
ARM GAS  /tmp/ccLqSRjv.s 			page 17


 913 0630 F201     		.2byte	0x1f2
 914 0632 81050000 		.4byte	0x581
 915 0636 34       		.byte	0x34
 916 0637 09       		.uleb128 0x9
 917 0638 2F030000 		.4byte	.LASF96
 918 063c 07       		.byte	0x7
 919 063d F301     		.2byte	0x1f3
 920 063f 81050000 		.4byte	0x581
 921 0643 38       		.byte	0x38
 922 0644 09       		.uleb128 0x9
 923 0645 59050000 		.4byte	.LASF97
 924 0649 07       		.byte	0x7
 925 064a F401     		.2byte	0x1f4
 926 064c 81050000 		.4byte	0x581
 927 0650 3C       		.byte	0x3c
 928 0651 08       		.uleb128 0x8
 929 0652 50465200 		.ascii	"PFR\000"
 930 0656 07       		.byte	0x7
 931 0657 F501     		.2byte	0x1f5
 932 0659 D7060000 		.4byte	0x6d7
 933 065d 40       		.byte	0x40
 934 065e 08       		.uleb128 0x8
 935 065f 44465200 		.ascii	"DFR\000"
 936 0663 07       		.byte	0x7
 937 0664 F601     		.2byte	0x1f6
 938 0666 AD060000 		.4byte	0x6ad
 939 066a 48       		.byte	0x48
 940 066b 08       		.uleb128 0x8
 941 066c 41445200 		.ascii	"ADR\000"
 942 0670 07       		.byte	0x7
 943 0671 F701     		.2byte	0x1f7
 944 0673 AD060000 		.4byte	0x6ad
 945 0677 4C       		.byte	0x4c
 946 0678 09       		.uleb128 0x9
 947 0679 41060000 		.4byte	.LASF98
 948 067d 07       		.byte	0x7
 949 067e F801     		.2byte	0x1f8
 950 0680 F1060000 		.4byte	0x6f1
 951 0684 50       		.byte	0x50
 952 0685 09       		.uleb128 0x9
 953 0686 11010000 		.4byte	.LASF99
 954 068a 07       		.byte	0x7
 955 068b F901     		.2byte	0x1f9
 956 068d 0B070000 		.4byte	0x70b
 957 0691 60       		.byte	0x60
 958 0692 09       		.uleb128 0x9
 959 0693 6A040000 		.4byte	.LASF74
 960 0697 07       		.byte	0x7
 961 0698 FA01     		.2byte	0x1fa
 962 069a FB060000 		.4byte	0x6fb
 963 069e 74       		.byte	0x74
 964 069f 09       		.uleb128 0x9
 965 06a0 6F060000 		.4byte	.LASF100
 966 06a4 07       		.byte	0x7
 967 06a5 FB01     		.2byte	0x1fb
 968 06a7 81050000 		.4byte	0x581
 969 06ab 88       		.byte	0x88
ARM GAS  /tmp/ccLqSRjv.s 			page 18


 970 06ac 00       		.byte	0
 971 06ad 18       		.uleb128 0x18
 972 06ae 81050000 		.4byte	0x581
 973 06b2 12       		.uleb128 0x12
 974 06b3 97000000 		.4byte	0x97
 975 06b7 C2060000 		.4byte	0x6c2
 976 06bb 13       		.uleb128 0x13
 977 06bc 1B050000 		.4byte	0x51b
 978 06c0 0B       		.byte	0xb
 979 06c1 00       		.byte	0
 980 06c2 14       		.uleb128 0x14
 981 06c3 B2060000 		.4byte	0x6b2
 982 06c7 12       		.uleb128 0x12
 983 06c8 AD000000 		.4byte	0xad
 984 06cc D7060000 		.4byte	0x6d7
 985 06d0 13       		.uleb128 0x13
 986 06d1 1B050000 		.4byte	0x51b
 987 06d5 01       		.byte	0x1
 988 06d6 00       		.byte	0
 989 06d7 18       		.uleb128 0x18
 990 06d8 DC060000 		.4byte	0x6dc
 991 06dc 14       		.uleb128 0x14
 992 06dd C7060000 		.4byte	0x6c7
 993 06e1 12       		.uleb128 0x12
 994 06e2 AD000000 		.4byte	0xad
 995 06e6 F1060000 		.4byte	0x6f1
 996 06ea 13       		.uleb128 0x13
 997 06eb 1B050000 		.4byte	0x51b
 998 06ef 03       		.byte	0x3
 999 06f0 00       		.byte	0
 1000 06f1 18       		.uleb128 0x18
 1001 06f2 F6060000 		.4byte	0x6f6
 1002 06f6 14       		.uleb128 0x14
 1003 06f7 E1060000 		.4byte	0x6e1
 1004 06fb 12       		.uleb128 0x12
 1005 06fc AD000000 		.4byte	0xad
 1006 0700 0B070000 		.4byte	0x70b
 1007 0704 13       		.uleb128 0x13
 1008 0705 1B050000 		.4byte	0x51b
 1009 0709 04       		.byte	0x4
 1010 070a 00       		.byte	0
 1011 070b 18       		.uleb128 0x18
 1012 070c 10070000 		.4byte	0x710
 1013 0710 14       		.uleb128 0x14
 1014 0711 FB060000 		.4byte	0x6fb
 1015 0715 16       		.uleb128 0x16
 1016 0716 B7010000 		.4byte	.LASF101
 1017 071a 07       		.byte	0x7
 1018 071b FC01     		.2byte	0x1fc
 1019 071d 92050000 		.4byte	0x592
 1020 0721 04       		.uleb128 0x4
 1021 0722 AE010000 		.4byte	.LASF102
 1022 0726 08       		.byte	0x8
 1023 0727 65       		.byte	0x65
 1024 0728 1A030000 		.4byte	0x31a
 1025 072c 04       		.uleb128 0x4
 1026 072d A3030000 		.4byte	.LASF103
ARM GAS  /tmp/ccLqSRjv.s 			page 19


 1027 0731 08       		.byte	0x8
 1028 0732 6D       		.byte	0x6d
 1029 0733 B8000000 		.4byte	0xb8
 1030 0737 05       		.uleb128 0x5
 1031 0738 1C040000 		.4byte	.LASF104
 1032 073c 04       		.byte	0x4
 1033 073d 08       		.byte	0x8
 1034 073e 89       		.byte	0x89
 1035 073f 4F070000 		.4byte	0x74f
 1036 0743 07       		.uleb128 0x7
 1037 0744 737000   		.ascii	"sp\000"
 1038 0747 08       		.byte	0x8
 1039 0748 8A       		.byte	0x8a
 1040 0749 9B080000 		.4byte	0x89b
 1041 074d 00       		.byte	0
 1042 074e 00       		.byte	0
 1043 074f 0B       		.uleb128 0xb
 1044 0750 54000000 		.4byte	.LASF105
 1045 0754 64       		.byte	0x64
 1046 0755 09       		.byte	0x9
 1047 0756 5901     		.2byte	0x159
 1048 0758 9B080000 		.4byte	0x89b
 1049 075c 08       		.uleb128 0x8
 1050 075d 73313600 		.ascii	"s16\000"
 1051 0761 09       		.byte	0x9
 1052 0762 5B01     		.2byte	0x15b
 1053 0764 21070000 		.4byte	0x721
 1054 0768 00       		.byte	0
 1055 0769 08       		.uleb128 0x8
 1056 076a 73313700 		.ascii	"s17\000"
 1057 076e 09       		.byte	0x9
 1058 076f 5C01     		.2byte	0x15c
 1059 0771 21070000 		.4byte	0x721
 1060 0775 04       		.byte	0x4
 1061 0776 08       		.uleb128 0x8
 1062 0777 73313800 		.ascii	"s18\000"
 1063 077b 09       		.byte	0x9
 1064 077c 5D01     		.2byte	0x15d
 1065 077e 21070000 		.4byte	0x721
 1066 0782 08       		.byte	0x8
 1067 0783 08       		.uleb128 0x8
 1068 0784 73313900 		.ascii	"s19\000"
 1069 0788 09       		.byte	0x9
 1070 0789 5E01     		.2byte	0x15e
 1071 078b 21070000 		.4byte	0x721
 1072 078f 0C       		.byte	0xc
 1073 0790 08       		.uleb128 0x8
 1074 0791 73323000 		.ascii	"s20\000"
 1075 0795 09       		.byte	0x9
 1076 0796 5F01     		.2byte	0x15f
 1077 0798 21070000 		.4byte	0x721
 1078 079c 10       		.byte	0x10
 1079 079d 08       		.uleb128 0x8
 1080 079e 73323100 		.ascii	"s21\000"
 1081 07a2 09       		.byte	0x9
 1082 07a3 6001     		.2byte	0x160
 1083 07a5 21070000 		.4byte	0x721
ARM GAS  /tmp/ccLqSRjv.s 			page 20


 1084 07a9 14       		.byte	0x14
 1085 07aa 08       		.uleb128 0x8
 1086 07ab 73323200 		.ascii	"s22\000"
 1087 07af 09       		.byte	0x9
 1088 07b0 6101     		.2byte	0x161
 1089 07b2 21070000 		.4byte	0x721
 1090 07b6 18       		.byte	0x18
 1091 07b7 08       		.uleb128 0x8
 1092 07b8 73323300 		.ascii	"s23\000"
 1093 07bc 09       		.byte	0x9
 1094 07bd 6201     		.2byte	0x162
 1095 07bf 21070000 		.4byte	0x721
 1096 07c3 1C       		.byte	0x1c
 1097 07c4 08       		.uleb128 0x8
 1098 07c5 73323400 		.ascii	"s24\000"
 1099 07c9 09       		.byte	0x9
 1100 07ca 6301     		.2byte	0x163
 1101 07cc 21070000 		.4byte	0x721
 1102 07d0 20       		.byte	0x20
 1103 07d1 08       		.uleb128 0x8
 1104 07d2 73323500 		.ascii	"s25\000"
 1105 07d6 09       		.byte	0x9
 1106 07d7 6401     		.2byte	0x164
 1107 07d9 21070000 		.4byte	0x721
 1108 07dd 24       		.byte	0x24
 1109 07de 08       		.uleb128 0x8
 1110 07df 73323600 		.ascii	"s26\000"
 1111 07e3 09       		.byte	0x9
 1112 07e4 6501     		.2byte	0x165
 1113 07e6 21070000 		.4byte	0x721
 1114 07ea 28       		.byte	0x28
 1115 07eb 08       		.uleb128 0x8
 1116 07ec 73323700 		.ascii	"s27\000"
 1117 07f0 09       		.byte	0x9
 1118 07f1 6601     		.2byte	0x166
 1119 07f3 21070000 		.4byte	0x721
 1120 07f7 2C       		.byte	0x2c
 1121 07f8 08       		.uleb128 0x8
 1122 07f9 73323800 		.ascii	"s28\000"
 1123 07fd 09       		.byte	0x9
 1124 07fe 6701     		.2byte	0x167
 1125 0800 21070000 		.4byte	0x721
 1126 0804 30       		.byte	0x30
 1127 0805 08       		.uleb128 0x8
 1128 0806 73323900 		.ascii	"s29\000"
 1129 080a 09       		.byte	0x9
 1130 080b 6801     		.2byte	0x168
 1131 080d 21070000 		.4byte	0x721
 1132 0811 34       		.byte	0x34
 1133 0812 08       		.uleb128 0x8
 1134 0813 73333000 		.ascii	"s30\000"
 1135 0817 09       		.byte	0x9
 1136 0818 6901     		.2byte	0x169
 1137 081a 21070000 		.4byte	0x721
 1138 081e 38       		.byte	0x38
 1139 081f 08       		.uleb128 0x8
 1140 0820 73333100 		.ascii	"s31\000"
ARM GAS  /tmp/ccLqSRjv.s 			page 21


 1141 0824 09       		.byte	0x9
 1142 0825 6A01     		.2byte	0x16a
 1143 0827 21070000 		.4byte	0x721
 1144 082b 3C       		.byte	0x3c
 1145 082c 08       		.uleb128 0x8
 1146 082d 723400   		.ascii	"r4\000"
 1147 0830 09       		.byte	0x9
 1148 0831 6C01     		.2byte	0x16c
 1149 0833 21070000 		.4byte	0x721
 1150 0837 40       		.byte	0x40
 1151 0838 08       		.uleb128 0x8
 1152 0839 723500   		.ascii	"r5\000"
 1153 083c 09       		.byte	0x9
 1154 083d 6D01     		.2byte	0x16d
 1155 083f 21070000 		.4byte	0x721
 1156 0843 44       		.byte	0x44
 1157 0844 08       		.uleb128 0x8
 1158 0845 723600   		.ascii	"r6\000"
 1159 0848 09       		.byte	0x9
 1160 0849 6E01     		.2byte	0x16e
 1161 084b 21070000 		.4byte	0x721
 1162 084f 48       		.byte	0x48
 1163 0850 08       		.uleb128 0x8
 1164 0851 723700   		.ascii	"r7\000"
 1165 0854 09       		.byte	0x9
 1166 0855 6F01     		.2byte	0x16f
 1167 0857 21070000 		.4byte	0x721
 1168 085b 4C       		.byte	0x4c
 1169 085c 08       		.uleb128 0x8
 1170 085d 723800   		.ascii	"r8\000"
 1171 0860 09       		.byte	0x9
 1172 0861 7001     		.2byte	0x170
 1173 0863 21070000 		.4byte	0x721
 1174 0867 50       		.byte	0x50
 1175 0868 08       		.uleb128 0x8
 1176 0869 723900   		.ascii	"r9\000"
 1177 086c 09       		.byte	0x9
 1178 086d 7101     		.2byte	0x171
 1179 086f 21070000 		.4byte	0x721
 1180 0873 54       		.byte	0x54
 1181 0874 08       		.uleb128 0x8
 1182 0875 72313000 		.ascii	"r10\000"
 1183 0879 09       		.byte	0x9
 1184 087a 7201     		.2byte	0x172
 1185 087c 21070000 		.4byte	0x721
 1186 0880 58       		.byte	0x58
 1187 0881 08       		.uleb128 0x8
 1188 0882 72313100 		.ascii	"r11\000"
 1189 0886 09       		.byte	0x9
 1190 0887 7301     		.2byte	0x173
 1191 0889 21070000 		.4byte	0x721
 1192 088d 5C       		.byte	0x5c
 1193 088e 08       		.uleb128 0x8
 1194 088f 6C7200   		.ascii	"lr\000"
 1195 0892 09       		.byte	0x9
 1196 0893 7401     		.2byte	0x174
 1197 0895 21070000 		.4byte	0x721
ARM GAS  /tmp/ccLqSRjv.s 			page 22


 1198 0899 60       		.byte	0x60
 1199 089a 00       		.byte	0
 1200 089b 0A       		.uleb128 0xa
 1201 089c 04       		.byte	0x4
 1202 089d 4F070000 		.4byte	0x74f
 1203 08a1 19       		.uleb128 0x19
 1204 08a2 04       		.byte	0x4
 1205 08a3 0A       		.byte	0xa
 1206 08a4 38       		.byte	0x38
 1207 08a5 B6080000 		.4byte	0x8b6
 1208 08a9 06       		.uleb128 0x6
 1209 08aa C8050000 		.4byte	.LASF106
 1210 08ae 0A       		.byte	0xa
 1211 08af 3C       		.byte	0x3c
 1212 08b0 C3000000 		.4byte	0xc3
 1213 08b4 00       		.byte	0
 1214 08b5 00       		.byte	0
 1215 08b6 04       		.uleb128 0x4
 1216 08b7 29040000 		.4byte	.LASF107
 1217 08bb 0A       		.byte	0xa
 1218 08bc 3D       		.byte	0x3d
 1219 08bd A1080000 		.4byte	0x8a1
 1220 08c1 19       		.uleb128 0x19
 1221 08c2 18       		.byte	0x18
 1222 08c3 0A       		.byte	0xa
 1223 08c4 48       		.byte	0x48
 1224 08c5 04090000 		.4byte	0x904
 1225 08c9 06       		.uleb128 0x6
 1226 08ca A1050000 		.4byte	.LASF108
 1227 08ce 0A       		.byte	0xa
 1228 08cf 49       		.byte	0x49
 1229 08d0 C3000000 		.4byte	0xc3
 1230 08d4 00       		.byte	0
 1231 08d5 06       		.uleb128 0x6
 1232 08d6 80000000 		.4byte	.LASF109
 1233 08da 0A       		.byte	0xa
 1234 08db 4A       		.byte	0x4a
 1235 08dc C3000000 		.4byte	0xc3
 1236 08e0 04       		.byte	0x4
 1237 08e1 06       		.uleb128 0x6
 1238 08e2 B9050000 		.4byte	.LASF110
 1239 08e6 0A       		.byte	0xa
 1240 08e7 4B       		.byte	0x4b
 1241 08e8 C3000000 		.4byte	0xc3
 1242 08ec 08       		.byte	0x8
 1243 08ed 07       		.uleb128 0x7
 1244 08ee 6E00     		.ascii	"n\000"
 1245 08f0 0A       		.byte	0xa
 1246 08f1 4C       		.byte	0x4c
 1247 08f2 26010000 		.4byte	0x126
 1248 08f6 0C       		.byte	0xc
 1249 08f7 06       		.uleb128 0x6
 1250 08f8 57040000 		.4byte	.LASF111
 1251 08fc 0A       		.byte	0xa
 1252 08fd 4D       		.byte	0x4d
 1253 08fe CE000000 		.4byte	0xce
 1254 0902 10       		.byte	0x10
ARM GAS  /tmp/ccLqSRjv.s 			page 23


 1255 0903 00       		.byte	0
 1256 0904 04       		.uleb128 0x4
 1257 0905 86000000 		.4byte	.LASF112
 1258 0909 0A       		.byte	0xa
 1259 090a 4E       		.byte	0x4e
 1260 090b C1080000 		.4byte	0x8c1
 1261 090f 19       		.uleb128 0x19
 1262 0910 38       		.byte	0x38
 1263 0911 0B       		.byte	0xb
 1264 0912 38       		.byte	0x38
 1265 0913 48090000 		.4byte	0x948
 1266 0917 06       		.uleb128 0x6
 1267 0918 00030000 		.4byte	.LASF113
 1268 091c 0B       		.byte	0xb
 1269 091d 39       		.byte	0x39
 1270 091e 26010000 		.4byte	0x126
 1271 0922 00       		.byte	0
 1272 0923 06       		.uleb128 0x6
 1273 0924 A4040000 		.4byte	.LASF114
 1274 0928 0B       		.byte	0xb
 1275 0929 3A       		.byte	0x3a
 1276 092a 26010000 		.4byte	0x126
 1277 092e 04       		.byte	0x4
 1278 092f 06       		.uleb128 0x6
 1279 0930 82060000 		.4byte	.LASF115
 1280 0934 0B       		.byte	0xb
 1281 0935 3B       		.byte	0x3b
 1282 0936 04090000 		.4byte	0x904
 1283 093a 08       		.byte	0x8
 1284 093b 06       		.uleb128 0x6
 1285 093c 74030000 		.4byte	.LASF116
 1286 0940 0B       		.byte	0xb
 1287 0941 3D       		.byte	0x3d
 1288 0942 04090000 		.4byte	0x904
 1289 0946 20       		.byte	0x20
 1290 0947 00       		.byte	0
 1291 0948 04       		.uleb128 0x4
 1292 0949 11030000 		.4byte	.LASF117
 1293 094d 0B       		.byte	0xb
 1294 094e 3F       		.byte	0x3f
 1295 094f 0F090000 		.4byte	0x90f
 1296 0953 1A       		.uleb128 0x1a
 1297 0954 04       		.byte	0x4
 1298 0955 06       		.byte	0x6
 1299 0956 D2       		.byte	0xd2
 1300 0957 B6090000 		.4byte	0x9b6
 1301 095b 1B       		.uleb128 0x1b
 1302 095c 28000000 		.4byte	.LASF118
 1303 0960 06       		.byte	0x6
 1304 0961 D9       		.byte	0xd9
 1305 0962 05010000 		.4byte	0x105
 1306 0966 1B       		.uleb128 0x1b
 1307 0967 B0000000 		.4byte	.LASF119
 1308 096b 06       		.byte	0x6
 1309 096c E0       		.byte	0xe0
 1310 096d 05010000 		.4byte	0x105
 1311 0971 1B       		.uleb128 0x1b
ARM GAS  /tmp/ccLqSRjv.s 			page 24


 1312 0972 68060000 		.4byte	.LASF120
 1313 0976 06       		.byte	0x6
 1314 0977 E7       		.byte	0xe7
 1315 0978 1A030000 		.4byte	0x31a
 1316 097c 1B       		.uleb128 0x1b
 1317 097d 1C000000 		.4byte	.LASF121
 1318 0981 06       		.byte	0x6
 1319 0982 EE       		.byte	0xee
 1320 0983 B6090000 		.4byte	0x9b6
 1321 0987 1B       		.uleb128 0x1b
 1322 0988 C4000000 		.4byte	.LASF122
 1323 098c 06       		.byte	0x6
 1324 098d F3       		.byte	0xf3
 1325 098e 05010000 		.4byte	0x105
 1326 0992 1B       		.uleb128 0x1b
 1327 0993 F4020000 		.4byte	.LASF123
 1328 0997 06       		.byte	0x6
 1329 0998 FC       		.byte	0xfc
 1330 0999 E1090000 		.4byte	0x9e1
 1331 099d 1C       		.uleb128 0x1c
 1332 099e 52050000 		.4byte	.LASF124
 1333 09a2 06       		.byte	0x6
 1334 09a3 0501     		.2byte	0x105
 1335 09a5 180A0000 		.4byte	0xa18
 1336 09a9 1C       		.uleb128 0x1c
 1337 09aa 11050000 		.4byte	.LASF125
 1338 09ae 06       		.byte	0x6
 1339 09af 0D01     		.2byte	0x10d
 1340 09b1 10010000 		.4byte	0x110
 1341 09b5 00       		.byte	0
 1342 09b6 0A       		.uleb128 0xa
 1343 09b7 04       		.byte	0x4
 1344 09b8 32020000 		.4byte	0x232
 1345 09bc 05       		.uleb128 0x5
 1346 09bd 3C050000 		.4byte	.LASF126
 1347 09c1 0C       		.byte	0xc
 1348 09c2 0C       		.byte	0xc
 1349 09c3 34       		.byte	0x34
 1350 09c4 E1090000 		.4byte	0x9e1
 1351 09c8 06       		.uleb128 0x6
 1352 09c9 0C040000 		.4byte	.LASF29
 1353 09cd 0C       		.byte	0xc
 1354 09ce 35       		.byte	0x35
 1355 09cf 67020000 		.4byte	0x267
 1356 09d3 00       		.byte	0
 1357 09d4 07       		.uleb128 0x7
 1358 09d5 636E7400 		.ascii	"cnt\000"
 1359 09d9 0C       		.byte	0xc
 1360 09da 37       		.byte	0x37
 1361 09db 1B010000 		.4byte	0x11b
 1362 09df 08       		.byte	0x8
 1363 09e0 00       		.byte	0
 1364 09e1 0A       		.uleb128 0xa
 1365 09e2 04       		.byte	0x4
 1366 09e3 BC090000 		.4byte	0x9bc
 1367 09e7 05       		.uleb128 0x5
 1368 09e8 38060000 		.4byte	.LASF127
ARM GAS  /tmp/ccLqSRjv.s 			page 25


 1369 09ec 10       		.byte	0x10
 1370 09ed 0D       		.byte	0xd
 1371 09ee 39       		.byte	0x39
 1372 09ef 180A0000 		.4byte	0xa18
 1373 09f3 06       		.uleb128 0x6
 1374 09f4 0C040000 		.4byte	.LASF29
 1375 09f8 0D       		.byte	0xd
 1376 09f9 3A       		.byte	0x3a
 1377 09fa 67020000 		.4byte	0x267
 1378 09fe 00       		.byte	0
 1379 09ff 06       		.uleb128 0x6
 1380 0a00 6E050000 		.4byte	.LASF128
 1381 0a04 0D       		.byte	0xd
 1382 0a05 3C       		.byte	0x3c
 1383 0a06 3D020000 		.4byte	0x23d
 1384 0a0a 08       		.byte	0x8
 1385 0a0b 06       		.uleb128 0x6
 1386 0a0c E8000000 		.4byte	.LASF49
 1387 0a10 0D       		.byte	0xd
 1388 0a11 3E       		.byte	0x3e
 1389 0a12 4C0A0000 		.4byte	0xa4c
 1390 0a16 0C       		.byte	0xc
 1391 0a17 00       		.byte	0
 1392 0a18 0A       		.uleb128 0xa
 1393 0a19 04       		.byte	0x4
 1394 0a1a E7090000 		.4byte	0x9e7
 1395 0a1e 0A       		.uleb128 0xa
 1396 0a1f 04       		.byte	0x4
 1397 0a20 240A0000 		.4byte	0xa24
 1398 0a24 18       		.uleb128 0x18
 1399 0a25 290A0000 		.4byte	0xa29
 1400 0a29 03       		.uleb128 0x3
 1401 0a2a 01       		.byte	0x1
 1402 0a2b 08       		.byte	0x8
 1403 0a2c 8D050000 		.4byte	.LASF129
 1404 0a30 0A       		.uleb128 0xa
 1405 0a31 04       		.byte	0x4
 1406 0a32 2C070000 		.4byte	0x72c
 1407 0a36 0A       		.uleb128 0xa
 1408 0a37 04       		.byte	0x4
 1409 0a38 1C030000 		.4byte	0x31c
 1410 0a3c 14       		.uleb128 0x14
 1411 0a3d 1E0A0000 		.4byte	0xa1e
 1412 0a41 04       		.uleb128 0x4
 1413 0a42 D8010000 		.4byte	.LASF130
 1414 0a46 0D       		.byte	0xd
 1415 0a47 34       		.byte	0x34
 1416 0a48 E7090000 		.4byte	0x9e7
 1417 0a4c 0A       		.uleb128 0xa
 1418 0a4d 04       		.byte	0x4
 1419 0a4e 410A0000 		.4byte	0xa41
 1420 0a52 03       		.uleb128 0x3
 1421 0a53 01       		.byte	0x1
 1422 0a54 02       		.byte	0x2
 1423 0a55 AD040000 		.4byte	.LASF131
 1424 0a59 1D       		.uleb128 0x1d
 1425 0a5a FB000000 		.4byte	.LASF132
ARM GAS  /tmp/ccLqSRjv.s 			page 26


 1426 0a5e 01       		.byte	0x1
 1427 0a5f 39       		.byte	0x39
 1428 0a60 00000000 		.4byte	.LFB277
 1429 0a64 2C000000 		.4byte	.LFE277-.LFB277
 1430 0a68 01       		.uleb128 0x1
 1431 0a69 9C       		.byte	0x9c
 1432 0a6a 8B0A0000 		.4byte	0xa8b
 1433 0a6e 1E       		.uleb128 0x1e
 1434 0a6f 6E00     		.ascii	"n\000"
 1435 0a71 01       		.byte	0x1
 1436 0a72 39       		.byte	0x39
 1437 0a73 AD000000 		.4byte	0xad
 1438 0a77 00000000 		.4byte	.LLST0
 1439 0a7b 1F       		.uleb128 0x1f
 1440 0a7c 3F040000 		.4byte	.LASF30
 1441 0a80 01       		.byte	0x1
 1442 0a81 39       		.byte	0x39
 1443 0a82 AD000000 		.4byte	0xad
 1444 0a86 43000000 		.4byte	.LLST1
 1445 0a8a 00       		.byte	0
 1446 0a8b 1D       		.uleb128 0x1d
 1447 0a8c E2020000 		.4byte	.LASF133
 1448 0a90 01       		.byte	0x1
 1449 0a91 4A       		.byte	0x4a
 1450 0a92 00000000 		.4byte	.LFB278
 1451 0a96 20000000 		.4byte	.LFE278-.LFB278
 1452 0a9a 01       		.uleb128 0x1
 1453 0a9b 9C       		.byte	0x9c
 1454 0a9c AE0A0000 		.4byte	0xaae
 1455 0aa0 1E       		.uleb128 0x1e
 1456 0aa1 6E00     		.ascii	"n\000"
 1457 0aa3 01       		.byte	0x1
 1458 0aa4 4A       		.byte	0x4a
 1459 0aa5 AD000000 		.4byte	0xad
 1460 0aa9 64000000 		.4byte	.LLST2
 1461 0aad 00       		.byte	0
 1462 0aae 1D       		.uleb128 0x1d
 1463 0aaf F4040000 		.4byte	.LASF134
 1464 0ab3 01       		.byte	0x1
 1465 0ab4 5A       		.byte	0x5a
 1466 0ab5 00000000 		.4byte	.LFB279
 1467 0ab9 10000000 		.4byte	.LFE279-.LFB279
 1468 0abd 01       		.uleb128 0x1
 1469 0abe 9C       		.byte	0x9c
 1470 0abf EB0A0000 		.4byte	0xaeb
 1471 0ac3 1F       		.uleb128 0x1f
 1472 0ac4 B8030000 		.4byte	.LASF135
 1473 0ac8 01       		.byte	0x1
 1474 0ac9 5A       		.byte	0x5a
 1475 0aca AD000000 		.4byte	0xad
 1476 0ace 88000000 		.4byte	.LLST3
 1477 0ad2 1F       		.uleb128 0x1f
 1478 0ad3 3F040000 		.4byte	.LASF30
 1479 0ad7 01       		.byte	0x1
 1480 0ad8 5A       		.byte	0x5a
 1481 0ad9 AD000000 		.4byte	0xad
 1482 0add BD000000 		.4byte	.LLST4
ARM GAS  /tmp/ccLqSRjv.s 			page 27


 1483 0ae1 20       		.uleb128 0x20
 1484 0ae2 22050000 		.4byte	.LASF141
 1485 0ae6 FB0A0000 		.4byte	0xafb
 1486 0aea 00       		.byte	0
 1487 0aeb 12       		.uleb128 0x12
 1488 0aec 290A0000 		.4byte	0xa29
 1489 0af0 FB0A0000 		.4byte	0xafb
 1490 0af4 13       		.uleb128 0x13
 1491 0af5 1B050000 		.4byte	0x51b
 1492 0af9 1C       		.byte	0x1c
 1493 0afa 00       		.byte	0
 1494 0afb 18       		.uleb128 0x18
 1495 0afc EB0A0000 		.4byte	0xaeb
 1496 0b00 1D       		.uleb128 0x1d
 1497 0b01 30010000 		.4byte	.LASF136
 1498 0b05 01       		.byte	0x1
 1499 0b06 6D       		.byte	0x6d
 1500 0b07 00000000 		.4byte	.LFB280
 1501 0b0b 18000000 		.4byte	.LFE280-.LFB280
 1502 0b0f 01       		.uleb128 0x1
 1503 0b10 9C       		.byte	0x9c
 1504 0b11 230B0000 		.4byte	0xb23
 1505 0b15 1E       		.uleb128 0x1e
 1506 0b16 6E00     		.ascii	"n\000"
 1507 0b18 01       		.byte	0x1
 1508 0b19 6D       		.byte	0x6d
 1509 0b1a AD000000 		.4byte	0xad
 1510 0b1e DE000000 		.4byte	.LLST5
 1511 0b22 00       		.byte	0
 1512 0b23 21       		.uleb128 0x21
 1513 0b24 CF040000 		.4byte	.LASF137
 1514 0b28 07       		.byte	0x7
 1515 0b29 4407     		.2byte	0x744
 1516 0b2b 2F0B0000 		.4byte	0xb2f
 1517 0b2f 14       		.uleb128 0x14
 1518 0b30 A2000000 		.4byte	0xa2
 1519 0b34 22       		.uleb128 0x22
 1520 0b35 636800   		.ascii	"ch\000"
 1521 0b38 06       		.byte	0x6
 1522 0b39 D201     		.2byte	0x1d2
 1523 0b3b E9030000 		.4byte	0x3e9
 1524 0b3f 00       		.byte	0
 1525              		.section	.debug_abbrev,"",%progbits
 1526              	.Ldebug_abbrev0:
 1527 0000 01       		.uleb128 0x1
 1528 0001 11       		.uleb128 0x11
 1529 0002 01       		.byte	0x1
 1530 0003 25       		.uleb128 0x25
 1531 0004 0E       		.uleb128 0xe
 1532 0005 13       		.uleb128 0x13
 1533 0006 0B       		.uleb128 0xb
 1534 0007 03       		.uleb128 0x3
 1535 0008 0E       		.uleb128 0xe
 1536 0009 1B       		.uleb128 0x1b
 1537 000a 0E       		.uleb128 0xe
 1538 000b 55       		.uleb128 0x55
 1539 000c 17       		.uleb128 0x17
ARM GAS  /tmp/ccLqSRjv.s 			page 28


 1540 000d 11       		.uleb128 0x11
 1541 000e 01       		.uleb128 0x1
 1542 000f 10       		.uleb128 0x10
 1543 0010 17       		.uleb128 0x17
 1544 0011 00       		.byte	0
 1545 0012 00       		.byte	0
 1546 0013 02       		.uleb128 0x2
 1547 0014 24       		.uleb128 0x24
 1548 0015 00       		.byte	0
 1549 0016 0B       		.uleb128 0xb
 1550 0017 0B       		.uleb128 0xb
 1551 0018 3E       		.uleb128 0x3e
 1552 0019 0B       		.uleb128 0xb
 1553 001a 03       		.uleb128 0x3
 1554 001b 08       		.uleb128 0x8
 1555 001c 00       		.byte	0
 1556 001d 00       		.byte	0
 1557 001e 03       		.uleb128 0x3
 1558 001f 24       		.uleb128 0x24
 1559 0020 00       		.byte	0
 1560 0021 0B       		.uleb128 0xb
 1561 0022 0B       		.uleb128 0xb
 1562 0023 3E       		.uleb128 0x3e
 1563 0024 0B       		.uleb128 0xb
 1564 0025 03       		.uleb128 0x3
 1565 0026 0E       		.uleb128 0xe
 1566 0027 00       		.byte	0
 1567 0028 00       		.byte	0
 1568 0029 04       		.uleb128 0x4
 1569 002a 16       		.uleb128 0x16
 1570 002b 00       		.byte	0
 1571 002c 03       		.uleb128 0x3
 1572 002d 0E       		.uleb128 0xe
 1573 002e 3A       		.uleb128 0x3a
 1574 002f 0B       		.uleb128 0xb
 1575 0030 3B       		.uleb128 0x3b
 1576 0031 0B       		.uleb128 0xb
 1577 0032 49       		.uleb128 0x49
 1578 0033 13       		.uleb128 0x13
 1579 0034 00       		.byte	0
 1580 0035 00       		.byte	0
 1581 0036 05       		.uleb128 0x5
 1582 0037 13       		.uleb128 0x13
 1583 0038 01       		.byte	0x1
 1584 0039 03       		.uleb128 0x3
 1585 003a 0E       		.uleb128 0xe
 1586 003b 0B       		.uleb128 0xb
 1587 003c 0B       		.uleb128 0xb
 1588 003d 3A       		.uleb128 0x3a
 1589 003e 0B       		.uleb128 0xb
 1590 003f 3B       		.uleb128 0x3b
 1591 0040 0B       		.uleb128 0xb
 1592 0041 01       		.uleb128 0x1
 1593 0042 13       		.uleb128 0x13
 1594 0043 00       		.byte	0
 1595 0044 00       		.byte	0
 1596 0045 06       		.uleb128 0x6
ARM GAS  /tmp/ccLqSRjv.s 			page 29


 1597 0046 0D       		.uleb128 0xd
 1598 0047 00       		.byte	0
 1599 0048 03       		.uleb128 0x3
 1600 0049 0E       		.uleb128 0xe
 1601 004a 3A       		.uleb128 0x3a
 1602 004b 0B       		.uleb128 0xb
 1603 004c 3B       		.uleb128 0x3b
 1604 004d 0B       		.uleb128 0xb
 1605 004e 49       		.uleb128 0x49
 1606 004f 13       		.uleb128 0x13
 1607 0050 38       		.uleb128 0x38
 1608 0051 0B       		.uleb128 0xb
 1609 0052 00       		.byte	0
 1610 0053 00       		.byte	0
 1611 0054 07       		.uleb128 0x7
 1612 0055 0D       		.uleb128 0xd
 1613 0056 00       		.byte	0
 1614 0057 03       		.uleb128 0x3
 1615 0058 08       		.uleb128 0x8
 1616 0059 3A       		.uleb128 0x3a
 1617 005a 0B       		.uleb128 0xb
 1618 005b 3B       		.uleb128 0x3b
 1619 005c 0B       		.uleb128 0xb
 1620 005d 49       		.uleb128 0x49
 1621 005e 13       		.uleb128 0x13
 1622 005f 38       		.uleb128 0x38
 1623 0060 0B       		.uleb128 0xb
 1624 0061 00       		.byte	0
 1625 0062 00       		.byte	0
 1626 0063 08       		.uleb128 0x8
 1627 0064 0D       		.uleb128 0xd
 1628 0065 00       		.byte	0
 1629 0066 03       		.uleb128 0x3
 1630 0067 08       		.uleb128 0x8
 1631 0068 3A       		.uleb128 0x3a
 1632 0069 0B       		.uleb128 0xb
 1633 006a 3B       		.uleb128 0x3b
 1634 006b 05       		.uleb128 0x5
 1635 006c 49       		.uleb128 0x49
 1636 006d 13       		.uleb128 0x13
 1637 006e 38       		.uleb128 0x38
 1638 006f 0B       		.uleb128 0xb
 1639 0070 00       		.byte	0
 1640 0071 00       		.byte	0
 1641 0072 09       		.uleb128 0x9
 1642 0073 0D       		.uleb128 0xd
 1643 0074 00       		.byte	0
 1644 0075 03       		.uleb128 0x3
 1645 0076 0E       		.uleb128 0xe
 1646 0077 3A       		.uleb128 0x3a
 1647 0078 0B       		.uleb128 0xb
 1648 0079 3B       		.uleb128 0x3b
 1649 007a 05       		.uleb128 0x5
 1650 007b 49       		.uleb128 0x49
 1651 007c 13       		.uleb128 0x13
 1652 007d 38       		.uleb128 0x38
 1653 007e 0B       		.uleb128 0xb
ARM GAS  /tmp/ccLqSRjv.s 			page 30


 1654 007f 00       		.byte	0
 1655 0080 00       		.byte	0
 1656 0081 0A       		.uleb128 0xa
 1657 0082 0F       		.uleb128 0xf
 1658 0083 00       		.byte	0
 1659 0084 0B       		.uleb128 0xb
 1660 0085 0B       		.uleb128 0xb
 1661 0086 49       		.uleb128 0x49
 1662 0087 13       		.uleb128 0x13
 1663 0088 00       		.byte	0
 1664 0089 00       		.byte	0
 1665 008a 0B       		.uleb128 0xb
 1666 008b 13       		.uleb128 0x13
 1667 008c 01       		.byte	0x1
 1668 008d 03       		.uleb128 0x3
 1669 008e 0E       		.uleb128 0xe
 1670 008f 0B       		.uleb128 0xb
 1671 0090 0B       		.uleb128 0xb
 1672 0091 3A       		.uleb128 0x3a
 1673 0092 0B       		.uleb128 0xb
 1674 0093 3B       		.uleb128 0x3b
 1675 0094 05       		.uleb128 0x5
 1676 0095 01       		.uleb128 0x1
 1677 0096 13       		.uleb128 0x13
 1678 0097 00       		.byte	0
 1679 0098 00       		.byte	0
 1680 0099 0C       		.uleb128 0xc
 1681 009a 15       		.uleb128 0x15
 1682 009b 01       		.byte	0x1
 1683 009c 27       		.uleb128 0x27
 1684 009d 19       		.uleb128 0x19
 1685 009e 01       		.uleb128 0x1
 1686 009f 13       		.uleb128 0x13
 1687 00a0 00       		.byte	0
 1688 00a1 00       		.byte	0
 1689 00a2 0D       		.uleb128 0xd
 1690 00a3 05       		.uleb128 0x5
 1691 00a4 00       		.byte	0
 1692 00a5 49       		.uleb128 0x49
 1693 00a6 13       		.uleb128 0x13
 1694 00a7 00       		.byte	0
 1695 00a8 00       		.byte	0
 1696 00a9 0E       		.uleb128 0xe
 1697 00aa 0F       		.uleb128 0xf
 1698 00ab 00       		.byte	0
 1699 00ac 0B       		.uleb128 0xb
 1700 00ad 0B       		.uleb128 0xb
 1701 00ae 00       		.byte	0
 1702 00af 00       		.byte	0
 1703 00b0 0F       		.uleb128 0xf
 1704 00b1 13       		.uleb128 0x13
 1705 00b2 01       		.byte	0x1
 1706 00b3 0B       		.uleb128 0xb
 1707 00b4 05       		.uleb128 0x5
 1708 00b5 3A       		.uleb128 0x3a
 1709 00b6 0B       		.uleb128 0xb
 1710 00b7 3B       		.uleb128 0x3b
ARM GAS  /tmp/ccLqSRjv.s 			page 31


 1711 00b8 05       		.uleb128 0x5
 1712 00b9 01       		.uleb128 0x1
 1713 00ba 13       		.uleb128 0x13
 1714 00bb 00       		.byte	0
 1715 00bc 00       		.byte	0
 1716 00bd 10       		.uleb128 0x10
 1717 00be 0D       		.uleb128 0xd
 1718 00bf 00       		.byte	0
 1719 00c0 03       		.uleb128 0x3
 1720 00c1 0E       		.uleb128 0xe
 1721 00c2 3A       		.uleb128 0x3a
 1722 00c3 0B       		.uleb128 0xb
 1723 00c4 3B       		.uleb128 0x3b
 1724 00c5 05       		.uleb128 0x5
 1725 00c6 49       		.uleb128 0x49
 1726 00c7 13       		.uleb128 0x13
 1727 00c8 38       		.uleb128 0x38
 1728 00c9 05       		.uleb128 0x5
 1729 00ca 00       		.byte	0
 1730 00cb 00       		.byte	0
 1731 00cc 11       		.uleb128 0x11
 1732 00cd 0D       		.uleb128 0xd
 1733 00ce 00       		.byte	0
 1734 00cf 03       		.uleb128 0x3
 1735 00d0 08       		.uleb128 0x8
 1736 00d1 3A       		.uleb128 0x3a
 1737 00d2 0B       		.uleb128 0xb
 1738 00d3 3B       		.uleb128 0x3b
 1739 00d4 05       		.uleb128 0x5
 1740 00d5 49       		.uleb128 0x49
 1741 00d6 13       		.uleb128 0x13
 1742 00d7 38       		.uleb128 0x38
 1743 00d8 05       		.uleb128 0x5
 1744 00d9 00       		.byte	0
 1745 00da 00       		.byte	0
 1746 00db 12       		.uleb128 0x12
 1747 00dc 01       		.uleb128 0x1
 1748 00dd 01       		.byte	0x1
 1749 00de 49       		.uleb128 0x49
 1750 00df 13       		.uleb128 0x13
 1751 00e0 01       		.uleb128 0x1
 1752 00e1 13       		.uleb128 0x13
 1753 00e2 00       		.byte	0
 1754 00e3 00       		.byte	0
 1755 00e4 13       		.uleb128 0x13
 1756 00e5 21       		.uleb128 0x21
 1757 00e6 00       		.byte	0
 1758 00e7 49       		.uleb128 0x49
 1759 00e8 13       		.uleb128 0x13
 1760 00e9 2F       		.uleb128 0x2f
 1761 00ea 0B       		.uleb128 0xb
 1762 00eb 00       		.byte	0
 1763 00ec 00       		.byte	0
 1764 00ed 14       		.uleb128 0x14
 1765 00ee 35       		.uleb128 0x35
 1766 00ef 00       		.byte	0
 1767 00f0 49       		.uleb128 0x49
ARM GAS  /tmp/ccLqSRjv.s 			page 32


 1768 00f1 13       		.uleb128 0x13
 1769 00f2 00       		.byte	0
 1770 00f3 00       		.byte	0
 1771 00f4 15       		.uleb128 0x15
 1772 00f5 21       		.uleb128 0x21
 1773 00f6 00       		.byte	0
 1774 00f7 49       		.uleb128 0x49
 1775 00f8 13       		.uleb128 0x13
 1776 00f9 2F       		.uleb128 0x2f
 1777 00fa 05       		.uleb128 0x5
 1778 00fb 00       		.byte	0
 1779 00fc 00       		.byte	0
 1780 00fd 16       		.uleb128 0x16
 1781 00fe 16       		.uleb128 0x16
 1782 00ff 00       		.byte	0
 1783 0100 03       		.uleb128 0x3
 1784 0101 0E       		.uleb128 0xe
 1785 0102 3A       		.uleb128 0x3a
 1786 0103 0B       		.uleb128 0xb
 1787 0104 3B       		.uleb128 0x3b
 1788 0105 05       		.uleb128 0x5
 1789 0106 49       		.uleb128 0x49
 1790 0107 13       		.uleb128 0x13
 1791 0108 00       		.byte	0
 1792 0109 00       		.byte	0
 1793 010a 17       		.uleb128 0x17
 1794 010b 13       		.uleb128 0x13
 1795 010c 01       		.byte	0x1
 1796 010d 0B       		.uleb128 0xb
 1797 010e 0B       		.uleb128 0xb
 1798 010f 3A       		.uleb128 0x3a
 1799 0110 0B       		.uleb128 0xb
 1800 0111 3B       		.uleb128 0x3b
 1801 0112 05       		.uleb128 0x5
 1802 0113 01       		.uleb128 0x1
 1803 0114 13       		.uleb128 0x13
 1804 0115 00       		.byte	0
 1805 0116 00       		.byte	0
 1806 0117 18       		.uleb128 0x18
 1807 0118 26       		.uleb128 0x26
 1808 0119 00       		.byte	0
 1809 011a 49       		.uleb128 0x49
 1810 011b 13       		.uleb128 0x13
 1811 011c 00       		.byte	0
 1812 011d 00       		.byte	0
 1813 011e 19       		.uleb128 0x19
 1814 011f 13       		.uleb128 0x13
 1815 0120 01       		.byte	0x1
 1816 0121 0B       		.uleb128 0xb
 1817 0122 0B       		.uleb128 0xb
 1818 0123 3A       		.uleb128 0x3a
 1819 0124 0B       		.uleb128 0xb
 1820 0125 3B       		.uleb128 0x3b
 1821 0126 0B       		.uleb128 0xb
 1822 0127 01       		.uleb128 0x1
 1823 0128 13       		.uleb128 0x13
 1824 0129 00       		.byte	0
ARM GAS  /tmp/ccLqSRjv.s 			page 33


 1825 012a 00       		.byte	0
 1826 012b 1A       		.uleb128 0x1a
 1827 012c 17       		.uleb128 0x17
 1828 012d 01       		.byte	0x1
 1829 012e 0B       		.uleb128 0xb
 1830 012f 0B       		.uleb128 0xb
 1831 0130 3A       		.uleb128 0x3a
 1832 0131 0B       		.uleb128 0xb
 1833 0132 3B       		.uleb128 0x3b
 1834 0133 0B       		.uleb128 0xb
 1835 0134 01       		.uleb128 0x1
 1836 0135 13       		.uleb128 0x13
 1837 0136 00       		.byte	0
 1838 0137 00       		.byte	0
 1839 0138 1B       		.uleb128 0x1b
 1840 0139 0D       		.uleb128 0xd
 1841 013a 00       		.byte	0
 1842 013b 03       		.uleb128 0x3
 1843 013c 0E       		.uleb128 0xe
 1844 013d 3A       		.uleb128 0x3a
 1845 013e 0B       		.uleb128 0xb
 1846 013f 3B       		.uleb128 0x3b
 1847 0140 0B       		.uleb128 0xb
 1848 0141 49       		.uleb128 0x49
 1849 0142 13       		.uleb128 0x13
 1850 0143 00       		.byte	0
 1851 0144 00       		.byte	0
 1852 0145 1C       		.uleb128 0x1c
 1853 0146 0D       		.uleb128 0xd
 1854 0147 00       		.byte	0
 1855 0148 03       		.uleb128 0x3
 1856 0149 0E       		.uleb128 0xe
 1857 014a 3A       		.uleb128 0x3a
 1858 014b 0B       		.uleb128 0xb
 1859 014c 3B       		.uleb128 0x3b
 1860 014d 05       		.uleb128 0x5
 1861 014e 49       		.uleb128 0x49
 1862 014f 13       		.uleb128 0x13
 1863 0150 00       		.byte	0
 1864 0151 00       		.byte	0
 1865 0152 1D       		.uleb128 0x1d
 1866 0153 2E       		.uleb128 0x2e
 1867 0154 01       		.byte	0x1
 1868 0155 3F       		.uleb128 0x3f
 1869 0156 19       		.uleb128 0x19
 1870 0157 03       		.uleb128 0x3
 1871 0158 0E       		.uleb128 0xe
 1872 0159 3A       		.uleb128 0x3a
 1873 015a 0B       		.uleb128 0xb
 1874 015b 3B       		.uleb128 0x3b
 1875 015c 0B       		.uleb128 0xb
 1876 015d 27       		.uleb128 0x27
 1877 015e 19       		.uleb128 0x19
 1878 015f 11       		.uleb128 0x11
 1879 0160 01       		.uleb128 0x1
 1880 0161 12       		.uleb128 0x12
 1881 0162 06       		.uleb128 0x6
ARM GAS  /tmp/ccLqSRjv.s 			page 34


 1882 0163 40       		.uleb128 0x40
 1883 0164 18       		.uleb128 0x18
 1884 0165 9742     		.uleb128 0x2117
 1885 0167 19       		.uleb128 0x19
 1886 0168 01       		.uleb128 0x1
 1887 0169 13       		.uleb128 0x13
 1888 016a 00       		.byte	0
 1889 016b 00       		.byte	0
 1890 016c 1E       		.uleb128 0x1e
 1891 016d 05       		.uleb128 0x5
 1892 016e 00       		.byte	0
 1893 016f 03       		.uleb128 0x3
 1894 0170 08       		.uleb128 0x8
 1895 0171 3A       		.uleb128 0x3a
 1896 0172 0B       		.uleb128 0xb
 1897 0173 3B       		.uleb128 0x3b
 1898 0174 0B       		.uleb128 0xb
 1899 0175 49       		.uleb128 0x49
 1900 0176 13       		.uleb128 0x13
 1901 0177 02       		.uleb128 0x2
 1902 0178 17       		.uleb128 0x17
 1903 0179 00       		.byte	0
 1904 017a 00       		.byte	0
 1905 017b 1F       		.uleb128 0x1f
 1906 017c 05       		.uleb128 0x5
 1907 017d 00       		.byte	0
 1908 017e 03       		.uleb128 0x3
 1909 017f 0E       		.uleb128 0xe
 1910 0180 3A       		.uleb128 0x3a
 1911 0181 0B       		.uleb128 0xb
 1912 0182 3B       		.uleb128 0x3b
 1913 0183 0B       		.uleb128 0xb
 1914 0184 49       		.uleb128 0x49
 1915 0185 13       		.uleb128 0x13
 1916 0186 02       		.uleb128 0x2
 1917 0187 17       		.uleb128 0x17
 1918 0188 00       		.byte	0
 1919 0189 00       		.byte	0
 1920 018a 20       		.uleb128 0x20
 1921 018b 34       		.uleb128 0x34
 1922 018c 00       		.byte	0
 1923 018d 03       		.uleb128 0x3
 1924 018e 0E       		.uleb128 0xe
 1925 018f 49       		.uleb128 0x49
 1926 0190 13       		.uleb128 0x13
 1927 0191 34       		.uleb128 0x34
 1928 0192 19       		.uleb128 0x19
 1929 0193 00       		.byte	0
 1930 0194 00       		.byte	0
 1931 0195 21       		.uleb128 0x21
 1932 0196 34       		.uleb128 0x34
 1933 0197 00       		.byte	0
 1934 0198 03       		.uleb128 0x3
 1935 0199 0E       		.uleb128 0xe
 1936 019a 3A       		.uleb128 0x3a
 1937 019b 0B       		.uleb128 0xb
 1938 019c 3B       		.uleb128 0x3b
ARM GAS  /tmp/ccLqSRjv.s 			page 35


 1939 019d 05       		.uleb128 0x5
 1940 019e 49       		.uleb128 0x49
 1941 019f 13       		.uleb128 0x13
 1942 01a0 3F       		.uleb128 0x3f
 1943 01a1 19       		.uleb128 0x19
 1944 01a2 3C       		.uleb128 0x3c
 1945 01a3 19       		.uleb128 0x19
 1946 01a4 00       		.byte	0
 1947 01a5 00       		.byte	0
 1948 01a6 22       		.uleb128 0x22
 1949 01a7 34       		.uleb128 0x34
 1950 01a8 00       		.byte	0
 1951 01a9 03       		.uleb128 0x3
 1952 01aa 08       		.uleb128 0x8
 1953 01ab 3A       		.uleb128 0x3a
 1954 01ac 0B       		.uleb128 0xb
 1955 01ad 3B       		.uleb128 0x3b
 1956 01ae 05       		.uleb128 0x5
 1957 01af 49       		.uleb128 0x49
 1958 01b0 13       		.uleb128 0x13
 1959 01b1 3F       		.uleb128 0x3f
 1960 01b2 19       		.uleb128 0x19
 1961 01b3 3C       		.uleb128 0x3c
 1962 01b4 19       		.uleb128 0x19
 1963 01b5 00       		.byte	0
 1964 01b6 00       		.byte	0
 1965 01b7 00       		.byte	0
 1966              		.section	.debug_loc,"",%progbits
 1967              	.Ldebug_loc0:
 1968              	.LLST0:
 1969 0000 00000000 		.4byte	.LVL0
 1970 0004 0A000000 		.4byte	.LVL1
 1971 0008 0100     		.2byte	0x1
 1972 000a 50       		.byte	0x50
 1973 000b 0A000000 		.4byte	.LVL1
 1974 000f 0E000000 		.4byte	.LVL2
 1975 0013 0700     		.2byte	0x7
 1976 0015 73       		.byte	0x73
 1977 0016 80808080 		.sleb128 536870912
 1977      02
 1978 001b 9F       		.byte	0x9f
 1979 001c 0E000000 		.4byte	.LVL2
 1980 0020 22000000 		.4byte	.LVL4
 1981 0024 0700     		.2byte	0x7
 1982 0026 73       		.byte	0x73
 1983 0027 80BEFCFF 		.sleb128 536813312
 1983      01
 1984 002c 9F       		.byte	0x9f
 1985 002d 22000000 		.4byte	.LVL4
 1986 0031 2C000000 		.4byte	.LFE277
 1987 0035 0400     		.2byte	0x4
 1988 0037 F3       		.byte	0xf3
 1989 0038 01       		.uleb128 0x1
 1990 0039 50       		.byte	0x50
 1991 003a 9F       		.byte	0x9f
 1992 003b 00000000 		.4byte	0
 1993 003f 00000000 		.4byte	0
ARM GAS  /tmp/ccLqSRjv.s 			page 36


 1994              	.LLST1:
 1995 0043 00000000 		.4byte	.LVL0
 1996 0047 10000000 		.4byte	.LVL3
 1997 004b 0100     		.2byte	0x1
 1998 004d 51       		.byte	0x51
 1999 004e 10000000 		.4byte	.LVL3
 2000 0052 2C000000 		.4byte	.LFE277
 2001 0056 0400     		.2byte	0x4
 2002 0058 F3       		.byte	0xf3
 2003 0059 01       		.uleb128 0x1
 2004 005a 51       		.byte	0x51
 2005 005b 9F       		.byte	0x9f
 2006 005c 00000000 		.4byte	0
 2007 0060 00000000 		.4byte	0
 2008              	.LLST2:
 2009 0064 00000000 		.4byte	.LVL5
 2010 0068 10000000 		.4byte	.LVL6
 2011 006c 0100     		.2byte	0x1
 2012 006e 50       		.byte	0x50
 2013 006f 10000000 		.4byte	.LVL6
 2014 0073 20000000 		.4byte	.LFE278
 2015 0077 0700     		.2byte	0x7
 2016 0079 70       		.byte	0x70
 2017 007a 80BEFCFF 		.sleb128 536813312
 2017      01
 2018 007f 9F       		.byte	0x9f
 2019 0080 00000000 		.4byte	0
 2020 0084 00000000 		.4byte	0
 2021              	.LLST3:
 2022 0088 00000000 		.4byte	.LVL7
 2023 008c 04000000 		.4byte	.LVL8
 2024 0090 0100     		.2byte	0x1
 2025 0092 50       		.byte	0x50
 2026 0093 04000000 		.4byte	.LVL8
 2027 0097 0A000000 		.4byte	.LVL10
 2028 009b 0700     		.2byte	0x7
 2029 009d 70       		.byte	0x70
 2030 009e 80808080 		.sleb128 536870912
 2030      02
 2031 00a3 9F       		.byte	0x9f
 2032 00a4 0A000000 		.4byte	.LVL10
 2033 00a8 10000000 		.4byte	.LFE279
 2034 00ac 0700     		.2byte	0x7
 2035 00ae 70       		.byte	0x70
 2036 00af 80A6FCFF 		.sleb128 536810240
 2036      01
 2037 00b4 9F       		.byte	0x9f
 2038 00b5 00000000 		.4byte	0
 2039 00b9 00000000 		.4byte	0
 2040              	.LLST4:
 2041 00bd 00000000 		.4byte	.LVL7
 2042 00c1 06000000 		.4byte	.LVL9
 2043 00c5 0100     		.2byte	0x1
 2044 00c7 51       		.byte	0x51
 2045 00c8 06000000 		.4byte	.LVL9
 2046 00cc 10000000 		.4byte	.LFE279
 2047 00d0 0400     		.2byte	0x4
ARM GAS  /tmp/ccLqSRjv.s 			page 37


 2048 00d2 F3       		.byte	0xf3
 2049 00d3 01       		.uleb128 0x1
 2050 00d4 51       		.byte	0x51
 2051 00d5 9F       		.byte	0x9f
 2052 00d6 00000000 		.4byte	0
 2053 00da 00000000 		.4byte	0
 2054              	.LLST5:
 2055 00de 00000000 		.4byte	.LVL11
 2056 00e2 08000000 		.4byte	.LVL12
 2057 00e6 0100     		.2byte	0x1
 2058 00e8 50       		.byte	0x50
 2059 00e9 08000000 		.4byte	.LVL12
 2060 00ed 18000000 		.4byte	.LFE280
 2061 00f1 0400     		.2byte	0x4
 2062 00f3 F3       		.byte	0xf3
 2063 00f4 01       		.uleb128 0x1
 2064 00f5 50       		.byte	0x50
 2065 00f6 9F       		.byte	0x9f
 2066 00f7 00000000 		.4byte	0
 2067 00fb 00000000 		.4byte	0
 2068              		.section	.debug_aranges,"",%progbits
 2069 0000 34000000 		.4byte	0x34
 2070 0004 0200     		.2byte	0x2
 2071 0006 00000000 		.4byte	.Ldebug_info0
 2072 000a 04       		.byte	0x4
 2073 000b 00       		.byte	0
 2074 000c 0000     		.2byte	0
 2075 000e 0000     		.2byte	0
 2076 0010 00000000 		.4byte	.LFB277
 2077 0014 2C000000 		.4byte	.LFE277-.LFB277
 2078 0018 00000000 		.4byte	.LFB278
 2079 001c 20000000 		.4byte	.LFE278-.LFB278
 2080 0020 00000000 		.4byte	.LFB279
 2081 0024 10000000 		.4byte	.LFE279-.LFB279
 2082 0028 00000000 		.4byte	.LFB280
 2083 002c 18000000 		.4byte	.LFE280-.LFB280
 2084 0030 00000000 		.4byte	0
 2085 0034 00000000 		.4byte	0
 2086              		.section	.debug_ranges,"",%progbits
 2087              	.Ldebug_ranges0:
 2088 0000 00000000 		.4byte	.LFB277
 2089 0004 2C000000 		.4byte	.LFE277
 2090 0008 00000000 		.4byte	.LFB278
 2091 000c 20000000 		.4byte	.LFE278
 2092 0010 00000000 		.4byte	.LFB279
 2093 0014 10000000 		.4byte	.LFE279
 2094 0018 00000000 		.4byte	.LFB280
 2095 001c 18000000 		.4byte	.LFE280
 2096 0020 00000000 		.4byte	0
 2097 0024 00000000 		.4byte	0
 2098              		.section	.debug_line,"",%progbits
 2099              	.Ldebug_line0:
 2100 0000 33020000 		.section	.debug_str,"MS",%progbits,1
 2100      0200E101 
 2100      00000201 
 2100      FB0E0D00 
 2100      01010101 
ARM GAS  /tmp/ccLqSRjv.s 			page 38


 2101              	.LASF46:
 2102 0000 74687265 		.ascii	"threads_list_t\000"
 2102      6164735F 
 2102      6C697374 
 2102      5F7400
 2103              	.LASF53:
 2104 000f 72656164 		.ascii	"ready_list_t\000"
 2104      795F6C69 
 2104      73745F74 
 2104      00
 2105              	.LASF121:
 2106 001c 77747472 		.ascii	"wttrp\000"
 2106      7000
 2107              	.LASF59:
 2108 0022 64656C74 		.ascii	"delta\000"
 2108      6100
 2109              	.LASF118:
 2110 0028 7264796D 		.ascii	"rdymsg\000"
 2110      736700
 2111              	.LASF16:
 2112 002f 75696E74 		.ascii	"uint64_t\000"
 2112      36345F74 
 2112      00
 2113              	.LASF72:
 2114 0038 6B65726E 		.ascii	"kernel_stats\000"
 2114      656C5F73 
 2114      74617473 
 2114      00
 2115              	.LASF5:
 2116 0045 5F5F7569 		.ascii	"__uint8_t\000"
 2116      6E74385F 
 2116      7400
 2117              	.LASF52:
 2118 004f 70726576 		.ascii	"prev\000"
 2118      00
 2119              	.LASF105:
 2120 0054 706F7274 		.ascii	"port_intctx\000"
 2120      5F696E74 
 2120      63747800 
 2121              	.LASF51:
 2122 0060 63685F74 		.ascii	"ch_threads_queue\000"
 2122      68726561 
 2122      64735F71 
 2122      75657565 
 2122      00
 2123              	.LASF64:
 2124 0071 73797374 		.ascii	"system_debug_t\000"
 2124      656D5F64 
 2124      65627567 
 2124      5F7400
 2125              	.LASF109:
 2126 0080 776F7273 		.ascii	"worst\000"
 2126      7400
 2127              	.LASF112:
 2128 0086 74696D65 		.ascii	"time_measurement_t\000"
 2128      5F6D6561 
 2128      73757265 
ARM GAS  /tmp/ccLqSRjv.s 			page 39


 2128      6D656E74 
 2128      5F7400
 2129              	.LASF12:
 2130 0099 6C6F6E67 		.ascii	"long long unsigned int\000"
 2130      206C6F6E 
 2130      6720756E 
 2130      7369676E 
 2130      65642069 
 2131              	.LASF119:
 2132 00b0 65786974 		.ascii	"exitcode\000"
 2132      636F6465 
 2132      00
 2133              	.LASF71:
 2134 00b9 6D61696E 		.ascii	"mainthread\000"
 2134      74687265 
 2134      616400
 2135              	.LASF122:
 2136 00c4 73656E74 		.ascii	"sentmsg\000"
 2136      6D736700 
 2137              	.LASF61:
 2138 00cc 76697274 		.ascii	"virtual_timers_list_t\000"
 2138      75616C5F 
 2138      74696D65 
 2138      72735F6C 
 2138      6973745F 
 2139              	.LASF87:
 2140 00e2 43505549 		.ascii	"CPUID\000"
 2140      4400
 2141              	.LASF49:
 2142 00e8 6E657874 		.ascii	"next\000"
 2142      00
 2143              	.LASF18:
 2144 00ed 72747469 		.ascii	"rttime_t\000"
 2144      6D655F74 
 2144      00
 2145              	.LASF77:
 2146 00f6 49535052 		.ascii	"ISPR\000"
 2146      00
 2147              	.LASF132:
 2148 00fb 6E766963 		.ascii	"nvicEnableVector\000"
 2148      456E6162 
 2148      6C655665 
 2148      63746F72 
 2148      00
 2149              	.LASF37:
 2150 010c 72656673 		.ascii	"refs\000"
 2150      00
 2151              	.LASF99:
 2152 0111 49534152 		.ascii	"ISAR\000"
 2152      00
 2153              	.LASF10:
 2154 0116 6C6F6E67 		.ascii	"long long int\000"
 2154      206C6F6E 
 2154      6720696E 
 2154      7400
 2155              	.LASF1:
 2156 0124 7369676E 		.ascii	"signed char\000"
ARM GAS  /tmp/ccLqSRjv.s 			page 40


 2156      65642063 
 2156      68617200 
 2157              	.LASF136:
 2158 0130 6E766963 		.ascii	"nvicClearPending\000"
 2158      436C6561 
 2158      7250656E 
 2158      64696E67 
 2158      00
 2159              	.LASF70:
 2160 0141 76746C69 		.ascii	"vtlist\000"
 2160      737400
 2161              	.LASF140:
 2162 0148 2F686F6D 		.ascii	"/home/kozinalexey/f4by/ardupilot/build/f4by-ch\000"
 2162      652F6B6F 
 2162      7A696E61 
 2162      6C657865 
 2162      792F6634 
 2163              	.LASF39:
 2164 0177 6D736771 		.ascii	"msgqueue\000"
 2164      75657565 
 2164      00
 2165              	.LASF35:
 2166 0180 73746174 		.ascii	"state\000"
 2166      6500
 2167              	.LASF7:
 2168 0186 6C6F6E67 		.ascii	"long int\000"
 2168      20696E74 
 2168      00
 2169              	.LASF20:
 2170 018f 74737461 		.ascii	"tstate_t\000"
 2170      74655F74 
 2170      00
 2171              	.LASF60:
 2172 0198 66756E63 		.ascii	"func\000"
 2172      00
 2173              	.LASF44:
 2174 019d 73746174 		.ascii	"stats\000"
 2174      7300
 2175              	.LASF8:
 2176 01a3 5F5F7569 		.ascii	"__uint32_t\000"
 2176      6E743332 
 2176      5F7400
 2177              	.LASF102:
 2178 01ae 72656761 		.ascii	"regarm_t\000"
 2178      726D5F74 
 2178      00
 2179              	.LASF101:
 2180 01b7 5343425F 		.ascii	"SCB_Type\000"
 2180      54797065 
 2180      00
 2181              	.LASF65:
 2182 01c0 63685F73 		.ascii	"ch_system_debug\000"
 2182      79737465 
 2182      6D5F6465 
 2182      62756700 
 2183              	.LASF38:
 2184 01d0 77616974 		.ascii	"waiting\000"
ARM GAS  /tmp/ccLqSRjv.s 			page 41


 2184      696E6700 
 2185              	.LASF130:
 2186 01d8 6D757465 		.ascii	"mutex_t\000"
 2186      785F7400 
 2187              	.LASF25:
 2188 01e0 636E745F 		.ascii	"cnt_t\000"
 2188      7400
 2189              	.LASF0:
 2190 01e6 756E7369 		.ascii	"unsigned int\000"
 2190      676E6564 
 2190      20696E74 
 2190      00
 2191              	.LASF138:
 2192 01f3 474E5520 		.ascii	"GNU C 4.9.3 20150529 (prerelease) -mcpu=cortex-m4 -"
 2192      4320342E 
 2192      392E3320 
 2192      32303135 
 2192      30353239 
 2193 0226 6D666C6F 		.ascii	"mfloat-abi=hard -mfpu=fpv4-sp-d16 -mno-thumb-interw"
 2193      61742D61 
 2193      62693D68 
 2193      61726420 
 2193      2D6D6670 
 2194 0259 6F726B20 		.ascii	"ork -mthumb -g -Os -fomit-frame-pointer -falign-fun"
 2194      2D6D7468 
 2194      756D6220 
 2194      2D67202D 
 2194      4F73202D 
 2195 028c 6374696F 		.ascii	"ctions=16 -ffunction-sections -fdata-sections -fno-"
 2195      6E733D31 
 2195      36202D66 
 2195      66756E63 
 2195      74696F6E 
 2196 02bf 636F6D6D 		.ascii	"common -fsingle-precision-constant\000"
 2196      6F6E202D 
 2196      6673696E 
 2196      676C652D 
 2196      70726563 
 2197              	.LASF133:
 2198 02e2 6E766963 		.ascii	"nvicDisableVector\000"
 2198      44697361 
 2198      626C6556 
 2198      6563746F 
 2198      7200
 2199              	.LASF123:
 2200 02f4 77747365 		.ascii	"wtsemp\000"
 2200      6D7000
 2201              	.LASF79:
 2202 02fb 49435052 		.ascii	"ICPR\000"
 2202      00
 2203              	.LASF113:
 2204 0300 6E5F6972 		.ascii	"n_irq\000"
 2204      7100
 2205              	.LASF89:
 2206 0306 56544F52 		.ascii	"VTOR\000"
 2206      00
 2207              	.LASF43:
ARM GAS  /tmp/ccLqSRjv.s 			page 42


 2208 030b 6D706F6F 		.ascii	"mpool\000"
 2208      6C00
 2209              	.LASF117:
 2210 0311 6B65726E 		.ascii	"kernel_stats_t\000"
 2210      656C5F73 
 2210      74617473 
 2210      5F7400
 2211              	.LASF33:
 2212 0320 6E616D65 		.ascii	"name\000"
 2212      00
 2213              	.LASF47:
 2214 0325 63685F74 		.ascii	"ch_thread\000"
 2214      68726561 
 2214      6400
 2215              	.LASF96:
 2216 032f 42464152 		.ascii	"BFAR\000"
 2216      00
 2217              	.LASF88:
 2218 0334 49435352 		.ascii	"ICSR\000"
 2218      00
 2219              	.LASF23:
 2220 0339 6D73675F 		.ascii	"msg_t\000"
 2220      7400
 2221              	.LASF90:
 2222 033f 41495243 		.ascii	"AIRCR\000"
 2222      5200
 2223              	.LASF94:
 2224 0345 44465352 		.ascii	"DFSR\000"
 2224      00
 2225              	.LASF26:
 2226 034a 75636E74 		.ascii	"ucnt_t\000"
 2226      5F7400
 2227              	.LASF40:
 2228 0351 6570656E 		.ascii	"epending\000"
 2228      64696E67 
 2228      00
 2229              	.LASF95:
 2230 035a 4D4D4641 		.ascii	"MMFAR\000"
 2230      5200
 2231              	.LASF67:
 2232 0360 63685F73 		.ascii	"ch_system_t\000"
 2232      79737465 
 2232      6D5F7400 
 2233              	.LASF19:
 2234 036c 746D6F64 		.ascii	"tmode_t\000"
 2234      655F7400 
 2235              	.LASF116:
 2236 0374 6D5F6372 		.ascii	"m_crit_isr\000"
 2236      69745F69 
 2236      737200
 2237              	.LASF54:
 2238 037f 63685F72 		.ascii	"ch_ready_list\000"
 2238      65616479 
 2238      5F6C6973 
 2238      7400
 2239              	.LASF24:
 2240 038d 6576656E 		.ascii	"eventmask_t\000"
ARM GAS  /tmp/ccLqSRjv.s 			page 43


 2240      746D6173 
 2240      6B5F7400 
 2241              	.LASF6:
 2242 0399 5F5F696E 		.ascii	"__int32_t\000"
 2242      7433325F 
 2242      7400
 2243              	.LASF103:
 2244 03a3 73746B61 		.ascii	"stkalign_t\000"
 2244      6C69676E 
 2244      5F7400
 2245              	.LASF86:
 2246 03ae 4E564943 		.ascii	"NVIC_Type\000"
 2246      5F547970 
 2246      6500
 2247              	.LASF135:
 2248 03b8 68616E64 		.ascii	"handler\000"
 2248      6C657200 
 2249              	.LASF57:
 2250 03c0 76697274 		.ascii	"virtual_timer_t\000"
 2250      75616C5F 
 2250      74696D65 
 2250      725F7400 
 2251              	.LASF42:
 2252 03d0 7265616C 		.ascii	"realprio\000"
 2252      7072696F 
 2252      00
 2253              	.LASF85:
 2254 03d9 73697A65 		.ascii	"sizetype\000"
 2254      74797065 
 2254      00
 2255              	.LASF45:
 2256 03e2 74687265 		.ascii	"thread_reference_t\000"
 2256      61645F72 
 2256      65666572 
 2256      656E6365 
 2256      5F7400
 2257              	.LASF62:
 2258 03f5 63685F76 		.ascii	"ch_virtual_timers_list\000"
 2258      69727475 
 2258      616C5F74 
 2258      696D6572 
 2258      735F6C69 
 2259              	.LASF29:
 2260 040c 71756575 		.ascii	"queue\000"
 2260      6500
 2261              	.LASF92:
 2262 0412 43465352 		.ascii	"CFSR\000"
 2262      00
 2263              	.LASF81:
 2264 0417 49414252 		.ascii	"IABR\000"
 2264      00
 2265              	.LASF104:
 2266 041c 706F7274 		.ascii	"port_context\000"
 2266      5F636F6E 
 2266      74657874 
 2266      00
 2267              	.LASF107:
ARM GAS  /tmp/ccLqSRjv.s 			page 44


 2268 0429 746D5F63 		.ascii	"tm_calibration_t\000"
 2268      616C6962 
 2268      72617469 
 2268      6F6E5F74 
 2268      00
 2269              	.LASF75:
 2270 043a 49434552 		.ascii	"ICER\000"
 2270      00
 2271              	.LASF30:
 2272 043f 7072696F 		.ascii	"prio\000"
 2272      00
 2273              	.LASF55:
 2274 0444 63757272 		.ascii	"current\000"
 2274      656E7400 
 2275              	.LASF11:
 2276 044c 5F5F7569 		.ascii	"__uint64_t\000"
 2276      6E743634 
 2276      5F7400
 2277              	.LASF111:
 2278 0457 63756D75 		.ascii	"cumulative\000"
 2278      6C617469 
 2278      766500
 2279              	.LASF21:
 2280 0462 74726566 		.ascii	"trefs_t\000"
 2280      735F7400 
 2281              	.LASF74:
 2282 046a 52455345 		.ascii	"RESERVED0\000"
 2282      52564544 
 2282      3000
 2283              	.LASF78:
 2284 0474 52455345 		.ascii	"RESERVED2\000"
 2284      52564544 
 2284      3200
 2285              	.LASF80:
 2286 047e 52455345 		.ascii	"RESERVED3\000"
 2286      52564544 
 2286      3300
 2287              	.LASF82:
 2288 0488 52455345 		.ascii	"RESERVED4\000"
 2288      52564544 
 2288      3400
 2289              	.LASF83:
 2290 0492 52455345 		.ascii	"RESERVED5\000"
 2290      52564544 
 2290      3500
 2291              	.LASF22:
 2292 049c 74707269 		.ascii	"tprio_t\000"
 2292      6F5F7400 
 2293              	.LASF114:
 2294 04a4 6E5F6374 		.ascii	"n_ctxswc\000"
 2294      78737763 
 2294      00
 2295              	.LASF131:
 2296 04ad 5F426F6F 		.ascii	"_Bool\000"
 2296      6C00
 2297              	.LASF14:
 2298 04b3 696E7433 		.ascii	"int32_t\000"
ARM GAS  /tmp/ccLqSRjv.s 			page 45


 2298      325F7400 
 2299              	.LASF2:
 2300 04bb 756E7369 		.ascii	"unsigned char\000"
 2300      676E6564 
 2300      20636861 
 2300      7200
 2301              	.LASF91:
 2302 04c9 53484353 		.ascii	"SHCSR\000"
 2302      5200
 2303              	.LASF137:
 2304 04cf 49544D5F 		.ascii	"ITM_RxBuffer\000"
 2304      52784275 
 2304      66666572 
 2304      00
 2305              	.LASF3:
 2306 04dc 73686F72 		.ascii	"short int\000"
 2306      7420696E 
 2306      7400
 2307              	.LASF73:
 2308 04e6 49534552 		.ascii	"ISER\000"
 2308      00
 2309              	.LASF63:
 2310 04eb 6C617374 		.ascii	"lasttime\000"
 2310      74696D65 
 2310      00
 2311              	.LASF134:
 2312 04f4 6E766963 		.ascii	"nvicSetSystemHandlerPriority\000"
 2312      53657453 
 2312      79737465 
 2312      6D48616E 
 2312      646C6572 
 2313              	.LASF125:
 2314 0511 65776D61 		.ascii	"ewmask\000"
 2314      736B00
 2315              	.LASF68:
 2316 0518 63685F73 		.ascii	"ch_system\000"
 2316      79737465 
 2316      6D00
 2317              	.LASF141:
 2318 0522 5F5F6675 		.ascii	"__func__\000"
 2318      6E635F5F 
 2318      00
 2319              	.LASF58:
 2320 052b 63685F76 		.ascii	"ch_virtual_timer\000"
 2320      69727475 
 2320      616C5F74 
 2320      696D6572 
 2320      00
 2321              	.LASF126:
 2322 053c 63685F73 		.ascii	"ch_semaphore\000"
 2322      656D6170 
 2322      686F7265 
 2322      00
 2323              	.LASF15:
 2324 0549 75696E74 		.ascii	"uint32_t\000"
 2324      33325F74 
 2324      00
ARM GAS  /tmp/ccLqSRjv.s 			page 46


 2325              	.LASF124:
 2326 0552 77746D74 		.ascii	"wtmtxp\000"
 2326      787000
 2327              	.LASF97:
 2328 0559 41465352 		.ascii	"AFSR\000"
 2328      00
 2329              	.LASF48:
 2330 055e 63685F74 		.ascii	"ch_threads_list\000"
 2330      68726561 
 2330      64735F6C 
 2330      69737400 
 2331              	.LASF128:
 2332 056e 6F776E65 		.ascii	"owner\000"
 2332      7200
 2333              	.LASF9:
 2334 0574 6C6F6E67 		.ascii	"long unsigned int\000"
 2334      20756E73 
 2334      69676E65 
 2334      6420696E 
 2334      7400
 2335              	.LASF34:
 2336 0586 77616261 		.ascii	"wabase\000"
 2336      736500
 2337              	.LASF129:
 2338 058d 63686172 		.ascii	"char\000"
 2338      00
 2339              	.LASF32:
 2340 0592 6F6C6465 		.ascii	"older\000"
 2340      7200
 2341              	.LASF28:
 2342 0598 74687265 		.ascii	"thread_t\000"
 2342      61645F74 
 2342      00
 2343              	.LASF108:
 2344 05a1 62657374 		.ascii	"best\000"
 2344      00
 2345              	.LASF27:
 2346 05a6 73797374 		.ascii	"systime_t\000"
 2346      696D655F 
 2346      7400
 2347              	.LASF56:
 2348 05b0 76746675 		.ascii	"vtfunc_t\000"
 2348      6E635F74 
 2348      00
 2349              	.LASF110:
 2350 05b9 6C617374 		.ascii	"last\000"
 2350      00
 2351              	.LASF66:
 2352 05be 70616E69 		.ascii	"panic_msg\000"
 2352      635F6D73 
 2352      6700
 2353              	.LASF106:
 2354 05c8 6F666673 		.ascii	"offset\000"
 2354      657400
 2355              	.LASF4:
 2356 05cf 73686F72 		.ascii	"short unsigned int\000"
 2356      7420756E 
ARM GAS  /tmp/ccLqSRjv.s 			page 47


 2356      7369676E 
 2356      65642069 
 2356      6E7400
 2357              	.LASF17:
 2358 05e2 7274636E 		.ascii	"rtcnt_t\000"
 2358      745F7400 
 2359              	.LASF31:
 2360 05ea 6E657765 		.ascii	"newer\000"
 2360      7200
 2361              	.LASF139:
 2362 05f0 2E2E2F2E 		.ascii	"../../modules/ChibiOS/os/hal/ports/common/ARMCMx/nv"
 2362      2E2F6D6F 
 2362      64756C65 
 2362      732F4368 
 2362      6962694F 
 2363 0623 69632E63 		.ascii	"ic.c\000"
 2363      00
 2364              	.LASF50:
 2365 0628 74687265 		.ascii	"threads_queue_t\000"
 2365      6164735F 
 2365      71756575 
 2365      655F7400 
 2366              	.LASF127:
 2367 0638 63685F6D 		.ascii	"ch_mutex\000"
 2367      75746578 
 2367      00
 2368              	.LASF98:
 2369 0641 4D4D4652 		.ascii	"MMFR\000"
 2369      00
 2370              	.LASF69:
 2371 0646 726C6973 		.ascii	"rlist\000"
 2371      7400
 2372              	.LASF13:
 2373 064c 75696E74 		.ascii	"uint8_t\000"
 2373      385F7400 
 2374              	.LASF36:
 2375 0654 666C6167 		.ascii	"flags\000"
 2375      7300
 2376              	.LASF76:
 2377 065a 52534552 		.ascii	"RSERVED1\000"
 2377      56454431 
 2377      00
 2378              	.LASF84:
 2379 0663 53544952 		.ascii	"STIR\000"
 2379      00
 2380              	.LASF120:
 2381 0668 77746F62 		.ascii	"wtobjp\000"
 2381      6A7000
 2382              	.LASF100:
 2383 066f 43504143 		.ascii	"CPACR\000"
 2383      5200
 2384              	.LASF93:
 2385 0675 48465352 		.ascii	"HFSR\000"
 2385      00
 2386              	.LASF41:
 2387 067a 6D74786C 		.ascii	"mtxlist\000"
 2387      69737400 
ARM GAS  /tmp/ccLqSRjv.s 			page 48


 2388              	.LASF115:
 2389 0682 6D5F6372 		.ascii	"m_crit_thd\000"
 2389      69745F74 
 2389      686400
 2390              		.ident	"GCC: (15:4.9.3+svn231177-1) 4.9.3 20150529 (prerelease)"
ARM GAS  /tmp/ccLqSRjv.s 			page 49


DEFINED SYMBOLS
                            *ABS*:0000000000000000 nvic.c
     /tmp/ccLqSRjv.s:21     .text.nvicEnableVector:0000000000000000 $t
     /tmp/ccLqSRjv.s:26     .text.nvicEnableVector:0000000000000000 nvicEnableVector
     /tmp/ccLqSRjv.s:63     .text.nvicDisableVector:0000000000000000 $t
     /tmp/ccLqSRjv.s:68     .text.nvicDisableVector:0000000000000000 nvicDisableVector
     /tmp/ccLqSRjv.s:95     .text.nvicDisableVector:000000000000001c $d
     /tmp/ccLqSRjv.s:100    .text.nvicSetSystemHandlerPriority:0000000000000000 $t
     /tmp/ccLqSRjv.s:105    .text.nvicSetSystemHandlerPriority:0000000000000000 nvicSetSystemHandlerPriority
     /tmp/ccLqSRjv.s:127    .text.nvicClearPending:0000000000000000 $t
     /tmp/ccLqSRjv.s:132    .text.nvicClearPending:0000000000000000 nvicClearPending
     /tmp/ccLqSRjv.s:153    .text.nvicClearPending:0000000000000014 $d
                     .debug_frame:0000000000000010 $d

NO UNDEFINED SYMBOLS
