ARM GAS  /tmp/ccyVQ1Qg.s 			page 1


   1              		.syntax unified
   2              		.cpu cortex-m4
   3              		.eabi_attribute 27, 1
   4              		.eabi_attribute 28, 1
   5              		.fpu fpv4-sp-d16
   6              		.eabi_attribute 20, 1
   7              		.eabi_attribute 21, 1
   8              		.eabi_attribute 23, 3
   9              		.eabi_attribute 24, 1
  10              		.eabi_attribute 25, 1
  11              		.eabi_attribute 26, 1
  12              		.eabi_attribute 30, 4
  13              		.eabi_attribute 34, 1
  14              		.eabi_attribute 18, 4
  15              		.thumb
  16              		.file	"stm32_dma.c"
  17              		.text
  18              	.Ltext0:
  19              		.cfi_sections	.debug_frame
  20              		.section	.text.Vector6C,"ax",%progbits
  21              		.align	1
  22              		.global	Vector6C
  23              		.thumb
  24              		.thumb_func
  25              		.type	Vector6C, %function
  26              	Vector6C:
  27              	.LFB277:
  28              		.file 1 "../../modules/ChibiOS/os/hal/ports/STM32/LLD/DMAv2/stm32_dma.c"
  29              		.loc 1 117 0
  30              		.cfi_startproc
  31              		@ args = 0, pretend = 0, frame = 0
  32              		@ frame_needed = 0, uses_anonymous_args = 0
  33 0000 08B5     		push	{r3, lr}
  34              		.cfi_def_cfa_offset 8
  35              		.cfi_offset 3, -8
  36              		.cfi_offset 14, -4
  37              		.loc 1 120 0
  38 0002 FFF7FEFF 		bl	_stats_increase_irq
  39              	.LVL0:
  40              		.loc 1 122 0
  41 0006 074B     		ldr	r3, .L7
  42              		.loc 1 124 0
  43 0008 074A     		ldr	r2, .L7+4
  44              		.loc 1 122 0
  45 000a 1968     		ldr	r1, [r3]
  46 000c 01F03D01 		and	r1, r1, #61
  47              	.LVL1:
  48              		.loc 1 123 0
  49 0010 9960     		str	r1, [r3, #8]
  50              		.loc 1 124 0
  51 0012 1368     		ldr	r3, [r2]
  52 0014 0BB1     		cbz	r3, .L2
  53              		.loc 1 125 0
  54 0016 5068     		ldr	r0, [r2, #4]
  55 0018 9847     		blx	r3
  56              	.LVL2:
  57              	.L2:
ARM GAS  /tmp/ccyVQ1Qg.s 			page 2


  58              		.loc 1 128 0
  59 001a BDE80840 		pop	{r3, lr}
  60              		.cfi_restore 14
  61              		.cfi_restore 3
  62              		.cfi_def_cfa_offset 0
  63              		.loc 1 127 0
  64 001e FFF7FEBF 		b	_port_irq_epilogue
  65              	.LVL3:
  66              	.L8:
  67 0022 00BF     		.align	2
  68              	.L7:
  69 0024 00600240 		.word	1073897472
  70 0028 00000000 		.word	.LANCHOR0
  71              		.cfi_endproc
  72              	.LFE277:
  73              		.size	Vector6C, .-Vector6C
  74              		.section	.text.Vector70,"ax",%progbits
  75              		.align	1
  76              		.global	Vector70
  77              		.thumb
  78              		.thumb_func
  79              		.type	Vector70, %function
  80              	Vector70:
  81              	.LFB278:
  82              		.loc 1 135 0
  83              		.cfi_startproc
  84              		@ args = 0, pretend = 0, frame = 0
  85              		@ frame_needed = 0, uses_anonymous_args = 0
  86 0000 08B5     		push	{r3, lr}
  87              		.cfi_def_cfa_offset 8
  88              		.cfi_offset 3, -8
  89              		.cfi_offset 14, -4
  90              		.loc 1 138 0
  91 0002 FFF7FEFF 		bl	_stats_increase_irq
  92              	.LVL4:
  93              		.loc 1 140 0
  94 0006 084B     		ldr	r3, .L14
  95 0008 1968     		ldr	r1, [r3]
  96 000a 8909     		lsrs	r1, r1, #6
  97 000c 01F03D01 		and	r1, r1, #61
  98              	.LVL5:
  99              		.loc 1 141 0
 100 0010 8A01     		lsls	r2, r1, #6
 101 0012 9A60     		str	r2, [r3, #8]
 102              		.loc 1 142 0
 103 0014 054A     		ldr	r2, .L14+4
 104 0016 9368     		ldr	r3, [r2, #8]
 105 0018 0BB1     		cbz	r3, .L10
 106              		.loc 1 143 0
 107 001a D068     		ldr	r0, [r2, #12]
 108 001c 9847     		blx	r3
 109              	.LVL6:
 110              	.L10:
 111              		.loc 1 146 0
 112 001e BDE80840 		pop	{r3, lr}
 113              		.cfi_restore 14
 114              		.cfi_restore 3
ARM GAS  /tmp/ccyVQ1Qg.s 			page 3


 115              		.cfi_def_cfa_offset 0
 116              		.loc 1 145 0
 117 0022 FFF7FEBF 		b	_port_irq_epilogue
 118              	.LVL7:
 119              	.L15:
 120 0026 00BF     		.align	2
 121              	.L14:
 122 0028 00600240 		.word	1073897472
 123 002c 00000000 		.word	.LANCHOR0
 124              		.cfi_endproc
 125              	.LFE278:
 126              		.size	Vector70, .-Vector70
 127              		.section	.text.Vector74,"ax",%progbits
 128              		.align	1
 129              		.global	Vector74
 130              		.thumb
 131              		.thumb_func
 132              		.type	Vector74, %function
 133              	Vector74:
 134              	.LFB279:
 135              		.loc 1 153 0
 136              		.cfi_startproc
 137              		@ args = 0, pretend = 0, frame = 0
 138              		@ frame_needed = 0, uses_anonymous_args = 0
 139 0000 08B5     		push	{r3, lr}
 140              		.cfi_def_cfa_offset 8
 141              		.cfi_offset 3, -8
 142              		.cfi_offset 14, -4
 143              		.loc 1 156 0
 144 0002 FFF7FEFF 		bl	_stats_increase_irq
 145              	.LVL8:
 146              		.loc 1 158 0
 147 0006 084B     		ldr	r3, .L21
 148 0008 1968     		ldr	r1, [r3]
 149 000a 090C     		lsrs	r1, r1, #16
 150 000c 01F03D01 		and	r1, r1, #61
 151              	.LVL9:
 152              		.loc 1 159 0
 153 0010 0A04     		lsls	r2, r1, #16
 154 0012 9A60     		str	r2, [r3, #8]
 155              		.loc 1 160 0
 156 0014 054A     		ldr	r2, .L21+4
 157 0016 1369     		ldr	r3, [r2, #16]
 158 0018 0BB1     		cbz	r3, .L17
 159              		.loc 1 161 0
 160 001a 5069     		ldr	r0, [r2, #20]
 161 001c 9847     		blx	r3
 162              	.LVL10:
 163              	.L17:
 164              		.loc 1 164 0
 165 001e BDE80840 		pop	{r3, lr}
 166              		.cfi_restore 14
 167              		.cfi_restore 3
 168              		.cfi_def_cfa_offset 0
 169              		.loc 1 163 0
 170 0022 FFF7FEBF 		b	_port_irq_epilogue
 171              	.LVL11:
ARM GAS  /tmp/ccyVQ1Qg.s 			page 4


 172              	.L22:
 173 0026 00BF     		.align	2
 174              	.L21:
 175 0028 00600240 		.word	1073897472
 176 002c 00000000 		.word	.LANCHOR0
 177              		.cfi_endproc
 178              	.LFE279:
 179              		.size	Vector74, .-Vector74
 180              		.section	.text.Vector78,"ax",%progbits
 181              		.align	1
 182              		.global	Vector78
 183              		.thumb
 184              		.thumb_func
 185              		.type	Vector78, %function
 186              	Vector78:
 187              	.LFB280:
 188              		.loc 1 171 0
 189              		.cfi_startproc
 190              		@ args = 0, pretend = 0, frame = 0
 191              		@ frame_needed = 0, uses_anonymous_args = 0
 192 0000 08B5     		push	{r3, lr}
 193              		.cfi_def_cfa_offset 8
 194              		.cfi_offset 3, -8
 195              		.cfi_offset 14, -4
 196              		.loc 1 174 0
 197 0002 FFF7FEFF 		bl	_stats_increase_irq
 198              	.LVL12:
 199              		.loc 1 176 0
 200 0006 084B     		ldr	r3, .L28
 201 0008 1968     		ldr	r1, [r3]
 202 000a 890D     		lsrs	r1, r1, #22
 203 000c 01F03D01 		and	r1, r1, #61
 204              	.LVL13:
 205              		.loc 1 177 0
 206 0010 8A05     		lsls	r2, r1, #22
 207 0012 9A60     		str	r2, [r3, #8]
 208              		.loc 1 178 0
 209 0014 054A     		ldr	r2, .L28+4
 210 0016 9369     		ldr	r3, [r2, #24]
 211 0018 0BB1     		cbz	r3, .L24
 212              		.loc 1 179 0
 213 001a D069     		ldr	r0, [r2, #28]
 214 001c 9847     		blx	r3
 215              	.LVL14:
 216              	.L24:
 217              		.loc 1 182 0
 218 001e BDE80840 		pop	{r3, lr}
 219              		.cfi_restore 14
 220              		.cfi_restore 3
 221              		.cfi_def_cfa_offset 0
 222              		.loc 1 181 0
 223 0022 FFF7FEBF 		b	_port_irq_epilogue
 224              	.LVL15:
 225              	.L29:
 226 0026 00BF     		.align	2
 227              	.L28:
 228 0028 00600240 		.word	1073897472
ARM GAS  /tmp/ccyVQ1Qg.s 			page 5


 229 002c 00000000 		.word	.LANCHOR0
 230              		.cfi_endproc
 231              	.LFE280:
 232              		.size	Vector78, .-Vector78
 233              		.section	.text.Vector7C,"ax",%progbits
 234              		.align	1
 235              		.global	Vector7C
 236              		.thumb
 237              		.thumb_func
 238              		.type	Vector7C, %function
 239              	Vector7C:
 240              	.LFB281:
 241              		.loc 1 189 0
 242              		.cfi_startproc
 243              		@ args = 0, pretend = 0, frame = 0
 244              		@ frame_needed = 0, uses_anonymous_args = 0
 245 0000 08B5     		push	{r3, lr}
 246              		.cfi_def_cfa_offset 8
 247              		.cfi_offset 3, -8
 248              		.cfi_offset 14, -4
 249              		.loc 1 192 0
 250 0002 FFF7FEFF 		bl	_stats_increase_irq
 251              	.LVL16:
 252              		.loc 1 194 0
 253 0006 074B     		ldr	r3, .L35
 254              		.loc 1 196 0
 255 0008 074A     		ldr	r2, .L35+4
 256              		.loc 1 194 0
 257 000a 5968     		ldr	r1, [r3, #4]
 258 000c 01F03D01 		and	r1, r1, #61
 259              	.LVL17:
 260              		.loc 1 195 0
 261 0010 D960     		str	r1, [r3, #12]
 262              		.loc 1 196 0
 263 0012 136A     		ldr	r3, [r2, #32]
 264 0014 0BB1     		cbz	r3, .L31
 265              		.loc 1 197 0
 266 0016 506A     		ldr	r0, [r2, #36]
 267 0018 9847     		blx	r3
 268              	.LVL18:
 269              	.L31:
 270              		.loc 1 200 0
 271 001a BDE80840 		pop	{r3, lr}
 272              		.cfi_restore 14
 273              		.cfi_restore 3
 274              		.cfi_def_cfa_offset 0
 275              		.loc 1 199 0
 276 001e FFF7FEBF 		b	_port_irq_epilogue
 277              	.LVL19:
 278              	.L36:
 279 0022 00BF     		.align	2
 280              	.L35:
 281 0024 00600240 		.word	1073897472
 282 0028 00000000 		.word	.LANCHOR0
 283              		.cfi_endproc
 284              	.LFE281:
 285              		.size	Vector7C, .-Vector7C
ARM GAS  /tmp/ccyVQ1Qg.s 			page 6


 286              		.section	.text.Vector80,"ax",%progbits
 287              		.align	1
 288              		.global	Vector80
 289              		.thumb
 290              		.thumb_func
 291              		.type	Vector80, %function
 292              	Vector80:
 293              	.LFB282:
 294              		.loc 1 207 0
 295              		.cfi_startproc
 296              		@ args = 0, pretend = 0, frame = 0
 297              		@ frame_needed = 0, uses_anonymous_args = 0
 298 0000 08B5     		push	{r3, lr}
 299              		.cfi_def_cfa_offset 8
 300              		.cfi_offset 3, -8
 301              		.cfi_offset 14, -4
 302              		.loc 1 210 0
 303 0002 FFF7FEFF 		bl	_stats_increase_irq
 304              	.LVL20:
 305              		.loc 1 212 0
 306 0006 084B     		ldr	r3, .L42
 307 0008 5968     		ldr	r1, [r3, #4]
 308 000a 8909     		lsrs	r1, r1, #6
 309 000c 01F03D01 		and	r1, r1, #61
 310              	.LVL21:
 311              		.loc 1 213 0
 312 0010 8A01     		lsls	r2, r1, #6
 313 0012 DA60     		str	r2, [r3, #12]
 314              		.loc 1 214 0
 315 0014 054A     		ldr	r2, .L42+4
 316 0016 936A     		ldr	r3, [r2, #40]
 317 0018 0BB1     		cbz	r3, .L38
 318              		.loc 1 215 0
 319 001a D06A     		ldr	r0, [r2, #44]
 320 001c 9847     		blx	r3
 321              	.LVL22:
 322              	.L38:
 323              		.loc 1 218 0
 324 001e BDE80840 		pop	{r3, lr}
 325              		.cfi_restore 14
 326              		.cfi_restore 3
 327              		.cfi_def_cfa_offset 0
 328              		.loc 1 217 0
 329 0022 FFF7FEBF 		b	_port_irq_epilogue
 330              	.LVL23:
 331              	.L43:
 332 0026 00BF     		.align	2
 333              	.L42:
 334 0028 00600240 		.word	1073897472
 335 002c 00000000 		.word	.LANCHOR0
 336              		.cfi_endproc
 337              	.LFE282:
 338              		.size	Vector80, .-Vector80
 339              		.section	.text.Vector84,"ax",%progbits
 340              		.align	1
 341              		.global	Vector84
 342              		.thumb
ARM GAS  /tmp/ccyVQ1Qg.s 			page 7


 343              		.thumb_func
 344              		.type	Vector84, %function
 345              	Vector84:
 346              	.LFB283:
 347              		.loc 1 225 0
 348              		.cfi_startproc
 349              		@ args = 0, pretend = 0, frame = 0
 350              		@ frame_needed = 0, uses_anonymous_args = 0
 351 0000 08B5     		push	{r3, lr}
 352              		.cfi_def_cfa_offset 8
 353              		.cfi_offset 3, -8
 354              		.cfi_offset 14, -4
 355              		.loc 1 228 0
 356 0002 FFF7FEFF 		bl	_stats_increase_irq
 357              	.LVL24:
 358              		.loc 1 230 0
 359 0006 084B     		ldr	r3, .L49
 360 0008 5968     		ldr	r1, [r3, #4]
 361 000a 090C     		lsrs	r1, r1, #16
 362 000c 01F03D01 		and	r1, r1, #61
 363              	.LVL25:
 364              		.loc 1 231 0
 365 0010 0A04     		lsls	r2, r1, #16
 366 0012 DA60     		str	r2, [r3, #12]
 367              		.loc 1 232 0
 368 0014 054A     		ldr	r2, .L49+4
 369 0016 136B     		ldr	r3, [r2, #48]
 370 0018 0BB1     		cbz	r3, .L45
 371              		.loc 1 233 0
 372 001a 506B     		ldr	r0, [r2, #52]
 373 001c 9847     		blx	r3
 374              	.LVL26:
 375              	.L45:
 376              		.loc 1 236 0
 377 001e BDE80840 		pop	{r3, lr}
 378              		.cfi_restore 14
 379              		.cfi_restore 3
 380              		.cfi_def_cfa_offset 0
 381              		.loc 1 235 0
 382 0022 FFF7FEBF 		b	_port_irq_epilogue
 383              	.LVL27:
 384              	.L50:
 385 0026 00BF     		.align	2
 386              	.L49:
 387 0028 00600240 		.word	1073897472
 388 002c 00000000 		.word	.LANCHOR0
 389              		.cfi_endproc
 390              	.LFE283:
 391              		.size	Vector84, .-Vector84
 392              		.section	.text.VectorFC,"ax",%progbits
 393              		.align	1
 394              		.global	VectorFC
 395              		.thumb
 396              		.thumb_func
 397              		.type	VectorFC, %function
 398              	VectorFC:
 399              	.LFB284:
ARM GAS  /tmp/ccyVQ1Qg.s 			page 8


 400              		.loc 1 243 0
 401              		.cfi_startproc
 402              		@ args = 0, pretend = 0, frame = 0
 403              		@ frame_needed = 0, uses_anonymous_args = 0
 404 0000 08B5     		push	{r3, lr}
 405              		.cfi_def_cfa_offset 8
 406              		.cfi_offset 3, -8
 407              		.cfi_offset 14, -4
 408              		.loc 1 246 0
 409 0002 FFF7FEFF 		bl	_stats_increase_irq
 410              	.LVL28:
 411              		.loc 1 248 0
 412 0006 084B     		ldr	r3, .L56
 413 0008 5968     		ldr	r1, [r3, #4]
 414 000a 890D     		lsrs	r1, r1, #22
 415 000c 01F03D01 		and	r1, r1, #61
 416              	.LVL29:
 417              		.loc 1 249 0
 418 0010 8A05     		lsls	r2, r1, #22
 419 0012 DA60     		str	r2, [r3, #12]
 420              		.loc 1 250 0
 421 0014 054A     		ldr	r2, .L56+4
 422 0016 936B     		ldr	r3, [r2, #56]
 423 0018 0BB1     		cbz	r3, .L52
 424              		.loc 1 251 0
 425 001a D06B     		ldr	r0, [r2, #60]
 426 001c 9847     		blx	r3
 427              	.LVL30:
 428              	.L52:
 429              		.loc 1 254 0
 430 001e BDE80840 		pop	{r3, lr}
 431              		.cfi_restore 14
 432              		.cfi_restore 3
 433              		.cfi_def_cfa_offset 0
 434              		.loc 1 253 0
 435 0022 FFF7FEBF 		b	_port_irq_epilogue
 436              	.LVL31:
 437              	.L57:
 438 0026 00BF     		.align	2
 439              	.L56:
 440 0028 00600240 		.word	1073897472
 441 002c 00000000 		.word	.LANCHOR0
 442              		.cfi_endproc
 443              	.LFE284:
 444              		.size	VectorFC, .-VectorFC
 445              		.section	.text.Vector120,"ax",%progbits
 446              		.align	1
 447              		.global	Vector120
 448              		.thumb
 449              		.thumb_func
 450              		.type	Vector120, %function
 451              	Vector120:
 452              	.LFB285:
 453              		.loc 1 261 0
 454              		.cfi_startproc
 455              		@ args = 0, pretend = 0, frame = 0
 456              		@ frame_needed = 0, uses_anonymous_args = 0
ARM GAS  /tmp/ccyVQ1Qg.s 			page 9


 457 0000 08B5     		push	{r3, lr}
 458              		.cfi_def_cfa_offset 8
 459              		.cfi_offset 3, -8
 460              		.cfi_offset 14, -4
 461              		.loc 1 264 0
 462 0002 FFF7FEFF 		bl	_stats_increase_irq
 463              	.LVL32:
 464              		.loc 1 266 0
 465 0006 074B     		ldr	r3, .L63
 466              		.loc 1 268 0
 467 0008 074A     		ldr	r2, .L63+4
 468              		.loc 1 266 0
 469 000a 1968     		ldr	r1, [r3]
 470 000c 01F03D01 		and	r1, r1, #61
 471              	.LVL33:
 472              		.loc 1 267 0
 473 0010 9960     		str	r1, [r3, #8]
 474              		.loc 1 268 0
 475 0012 136C     		ldr	r3, [r2, #64]
 476 0014 0BB1     		cbz	r3, .L59
 477              		.loc 1 269 0
 478 0016 506C     		ldr	r0, [r2, #68]
 479 0018 9847     		blx	r3
 480              	.LVL34:
 481              	.L59:
 482              		.loc 1 272 0
 483 001a BDE80840 		pop	{r3, lr}
 484              		.cfi_restore 14
 485              		.cfi_restore 3
 486              		.cfi_def_cfa_offset 0
 487              		.loc 1 271 0
 488 001e FFF7FEBF 		b	_port_irq_epilogue
 489              	.LVL35:
 490              	.L64:
 491 0022 00BF     		.align	2
 492              	.L63:
 493 0024 00640240 		.word	1073898496
 494 0028 00000000 		.word	.LANCHOR0
 495              		.cfi_endproc
 496              	.LFE285:
 497              		.size	Vector120, .-Vector120
 498              		.section	.text.Vector124,"ax",%progbits
 499              		.align	1
 500              		.global	Vector124
 501              		.thumb
 502              		.thumb_func
 503              		.type	Vector124, %function
 504              	Vector124:
 505              	.LFB286:
 506              		.loc 1 279 0
 507              		.cfi_startproc
 508              		@ args = 0, pretend = 0, frame = 0
 509              		@ frame_needed = 0, uses_anonymous_args = 0
 510 0000 08B5     		push	{r3, lr}
 511              		.cfi_def_cfa_offset 8
 512              		.cfi_offset 3, -8
 513              		.cfi_offset 14, -4
ARM GAS  /tmp/ccyVQ1Qg.s 			page 10


 514              		.loc 1 282 0
 515 0002 FFF7FEFF 		bl	_stats_increase_irq
 516              	.LVL36:
 517              		.loc 1 284 0
 518 0006 084B     		ldr	r3, .L70
 519 0008 1968     		ldr	r1, [r3]
 520 000a 8909     		lsrs	r1, r1, #6
 521 000c 01F03D01 		and	r1, r1, #61
 522              	.LVL37:
 523              		.loc 1 285 0
 524 0010 8A01     		lsls	r2, r1, #6
 525 0012 9A60     		str	r2, [r3, #8]
 526              		.loc 1 286 0
 527 0014 054A     		ldr	r2, .L70+4
 528 0016 936C     		ldr	r3, [r2, #72]
 529 0018 0BB1     		cbz	r3, .L66
 530              		.loc 1 287 0
 531 001a D06C     		ldr	r0, [r2, #76]
 532 001c 9847     		blx	r3
 533              	.LVL38:
 534              	.L66:
 535              		.loc 1 290 0
 536 001e BDE80840 		pop	{r3, lr}
 537              		.cfi_restore 14
 538              		.cfi_restore 3
 539              		.cfi_def_cfa_offset 0
 540              		.loc 1 289 0
 541 0022 FFF7FEBF 		b	_port_irq_epilogue
 542              	.LVL39:
 543              	.L71:
 544 0026 00BF     		.align	2
 545              	.L70:
 546 0028 00640240 		.word	1073898496
 547 002c 00000000 		.word	.LANCHOR0
 548              		.cfi_endproc
 549              	.LFE286:
 550              		.size	Vector124, .-Vector124
 551              		.section	.text.Vector128,"ax",%progbits
 552              		.align	1
 553              		.global	Vector128
 554              		.thumb
 555              		.thumb_func
 556              		.type	Vector128, %function
 557              	Vector128:
 558              	.LFB287:
 559              		.loc 1 297 0
 560              		.cfi_startproc
 561              		@ args = 0, pretend = 0, frame = 0
 562              		@ frame_needed = 0, uses_anonymous_args = 0
 563 0000 08B5     		push	{r3, lr}
 564              		.cfi_def_cfa_offset 8
 565              		.cfi_offset 3, -8
 566              		.cfi_offset 14, -4
 567              		.loc 1 300 0
 568 0002 FFF7FEFF 		bl	_stats_increase_irq
 569              	.LVL40:
 570              		.loc 1 302 0
ARM GAS  /tmp/ccyVQ1Qg.s 			page 11


 571 0006 084B     		ldr	r3, .L77
 572 0008 1968     		ldr	r1, [r3]
 573 000a 090C     		lsrs	r1, r1, #16
 574 000c 01F03D01 		and	r1, r1, #61
 575              	.LVL41:
 576              		.loc 1 303 0
 577 0010 0A04     		lsls	r2, r1, #16
 578 0012 9A60     		str	r2, [r3, #8]
 579              		.loc 1 304 0
 580 0014 054A     		ldr	r2, .L77+4
 581 0016 136D     		ldr	r3, [r2, #80]
 582 0018 0BB1     		cbz	r3, .L73
 583              		.loc 1 305 0
 584 001a 506D     		ldr	r0, [r2, #84]
 585 001c 9847     		blx	r3
 586              	.LVL42:
 587              	.L73:
 588              		.loc 1 308 0
 589 001e BDE80840 		pop	{r3, lr}
 590              		.cfi_restore 14
 591              		.cfi_restore 3
 592              		.cfi_def_cfa_offset 0
 593              		.loc 1 307 0
 594 0022 FFF7FEBF 		b	_port_irq_epilogue
 595              	.LVL43:
 596              	.L78:
 597 0026 00BF     		.align	2
 598              	.L77:
 599 0028 00640240 		.word	1073898496
 600 002c 00000000 		.word	.LANCHOR0
 601              		.cfi_endproc
 602              	.LFE287:
 603              		.size	Vector128, .-Vector128
 604              		.section	.text.Vector12C,"ax",%progbits
 605              		.align	1
 606              		.global	Vector12C
 607              		.thumb
 608              		.thumb_func
 609              		.type	Vector12C, %function
 610              	Vector12C:
 611              	.LFB288:
 612              		.loc 1 315 0
 613              		.cfi_startproc
 614              		@ args = 0, pretend = 0, frame = 0
 615              		@ frame_needed = 0, uses_anonymous_args = 0
 616 0000 08B5     		push	{r3, lr}
 617              		.cfi_def_cfa_offset 8
 618              		.cfi_offset 3, -8
 619              		.cfi_offset 14, -4
 620              		.loc 1 318 0
 621 0002 FFF7FEFF 		bl	_stats_increase_irq
 622              	.LVL44:
 623              		.loc 1 320 0
 624 0006 084B     		ldr	r3, .L84
 625 0008 1968     		ldr	r1, [r3]
 626 000a 890D     		lsrs	r1, r1, #22
 627 000c 01F03D01 		and	r1, r1, #61
ARM GAS  /tmp/ccyVQ1Qg.s 			page 12


 628              	.LVL45:
 629              		.loc 1 321 0
 630 0010 8A05     		lsls	r2, r1, #22
 631 0012 9A60     		str	r2, [r3, #8]
 632              		.loc 1 322 0
 633 0014 054A     		ldr	r2, .L84+4
 634 0016 936D     		ldr	r3, [r2, #88]
 635 0018 0BB1     		cbz	r3, .L80
 636              		.loc 1 323 0
 637 001a D06D     		ldr	r0, [r2, #92]
 638 001c 9847     		blx	r3
 639              	.LVL46:
 640              	.L80:
 641              		.loc 1 326 0
 642 001e BDE80840 		pop	{r3, lr}
 643              		.cfi_restore 14
 644              		.cfi_restore 3
 645              		.cfi_def_cfa_offset 0
 646              		.loc 1 325 0
 647 0022 FFF7FEBF 		b	_port_irq_epilogue
 648              	.LVL47:
 649              	.L85:
 650 0026 00BF     		.align	2
 651              	.L84:
 652 0028 00640240 		.word	1073898496
 653 002c 00000000 		.word	.LANCHOR0
 654              		.cfi_endproc
 655              	.LFE288:
 656              		.size	Vector12C, .-Vector12C
 657              		.section	.text.Vector130,"ax",%progbits
 658              		.align	1
 659              		.global	Vector130
 660              		.thumb
 661              		.thumb_func
 662              		.type	Vector130, %function
 663              	Vector130:
 664              	.LFB289:
 665              		.loc 1 333 0
 666              		.cfi_startproc
 667              		@ args = 0, pretend = 0, frame = 0
 668              		@ frame_needed = 0, uses_anonymous_args = 0
 669 0000 08B5     		push	{r3, lr}
 670              		.cfi_def_cfa_offset 8
 671              		.cfi_offset 3, -8
 672              		.cfi_offset 14, -4
 673              		.loc 1 336 0
 674 0002 FFF7FEFF 		bl	_stats_increase_irq
 675              	.LVL48:
 676              		.loc 1 338 0
 677 0006 074B     		ldr	r3, .L91
 678              		.loc 1 340 0
 679 0008 074A     		ldr	r2, .L91+4
 680              		.loc 1 338 0
 681 000a 5968     		ldr	r1, [r3, #4]
 682 000c 01F03D01 		and	r1, r1, #61
 683              	.LVL49:
 684              		.loc 1 339 0
ARM GAS  /tmp/ccyVQ1Qg.s 			page 13


 685 0010 D960     		str	r1, [r3, #12]
 686              		.loc 1 340 0
 687 0012 136E     		ldr	r3, [r2, #96]
 688 0014 0BB1     		cbz	r3, .L87
 689              		.loc 1 341 0
 690 0016 506E     		ldr	r0, [r2, #100]
 691 0018 9847     		blx	r3
 692              	.LVL50:
 693              	.L87:
 694              		.loc 1 344 0
 695 001a BDE80840 		pop	{r3, lr}
 696              		.cfi_restore 14
 697              		.cfi_restore 3
 698              		.cfi_def_cfa_offset 0
 699              		.loc 1 343 0
 700 001e FFF7FEBF 		b	_port_irq_epilogue
 701              	.LVL51:
 702              	.L92:
 703 0022 00BF     		.align	2
 704              	.L91:
 705 0024 00640240 		.word	1073898496
 706 0028 00000000 		.word	.LANCHOR0
 707              		.cfi_endproc
 708              	.LFE289:
 709              		.size	Vector130, .-Vector130
 710              		.section	.text.Vector150,"ax",%progbits
 711              		.align	1
 712              		.global	Vector150
 713              		.thumb
 714              		.thumb_func
 715              		.type	Vector150, %function
 716              	Vector150:
 717              	.LFB290:
 718              		.loc 1 351 0
 719              		.cfi_startproc
 720              		@ args = 0, pretend = 0, frame = 0
 721              		@ frame_needed = 0, uses_anonymous_args = 0
 722 0000 08B5     		push	{r3, lr}
 723              		.cfi_def_cfa_offset 8
 724              		.cfi_offset 3, -8
 725              		.cfi_offset 14, -4
 726              		.loc 1 354 0
 727 0002 FFF7FEFF 		bl	_stats_increase_irq
 728              	.LVL52:
 729              		.loc 1 356 0
 730 0006 084B     		ldr	r3, .L98
 731 0008 5968     		ldr	r1, [r3, #4]
 732 000a 8909     		lsrs	r1, r1, #6
 733 000c 01F03D01 		and	r1, r1, #61
 734              	.LVL53:
 735              		.loc 1 357 0
 736 0010 8A01     		lsls	r2, r1, #6
 737 0012 DA60     		str	r2, [r3, #12]
 738              		.loc 1 358 0
 739 0014 054A     		ldr	r2, .L98+4
 740 0016 936E     		ldr	r3, [r2, #104]
 741 0018 0BB1     		cbz	r3, .L94
ARM GAS  /tmp/ccyVQ1Qg.s 			page 14


 742              		.loc 1 359 0
 743 001a D06E     		ldr	r0, [r2, #108]
 744 001c 9847     		blx	r3
 745              	.LVL54:
 746              	.L94:
 747              		.loc 1 362 0
 748 001e BDE80840 		pop	{r3, lr}
 749              		.cfi_restore 14
 750              		.cfi_restore 3
 751              		.cfi_def_cfa_offset 0
 752              		.loc 1 361 0
 753 0022 FFF7FEBF 		b	_port_irq_epilogue
 754              	.LVL55:
 755              	.L99:
 756 0026 00BF     		.align	2
 757              	.L98:
 758 0028 00640240 		.word	1073898496
 759 002c 00000000 		.word	.LANCHOR0
 760              		.cfi_endproc
 761              	.LFE290:
 762              		.size	Vector150, .-Vector150
 763              		.section	.text.Vector154,"ax",%progbits
 764              		.align	1
 765              		.global	Vector154
 766              		.thumb
 767              		.thumb_func
 768              		.type	Vector154, %function
 769              	Vector154:
 770              	.LFB291:
 771              		.loc 1 369 0
 772              		.cfi_startproc
 773              		@ args = 0, pretend = 0, frame = 0
 774              		@ frame_needed = 0, uses_anonymous_args = 0
 775 0000 08B5     		push	{r3, lr}
 776              		.cfi_def_cfa_offset 8
 777              		.cfi_offset 3, -8
 778              		.cfi_offset 14, -4
 779              		.loc 1 372 0
 780 0002 FFF7FEFF 		bl	_stats_increase_irq
 781              	.LVL56:
 782              		.loc 1 374 0
 783 0006 084B     		ldr	r3, .L105
 784 0008 5968     		ldr	r1, [r3, #4]
 785 000a 090C     		lsrs	r1, r1, #16
 786 000c 01F03D01 		and	r1, r1, #61
 787              	.LVL57:
 788              		.loc 1 375 0
 789 0010 0A04     		lsls	r2, r1, #16
 790 0012 DA60     		str	r2, [r3, #12]
 791              		.loc 1 376 0
 792 0014 054A     		ldr	r2, .L105+4
 793 0016 136F     		ldr	r3, [r2, #112]
 794 0018 0BB1     		cbz	r3, .L101
 795              		.loc 1 377 0
 796 001a 506F     		ldr	r0, [r2, #116]
 797 001c 9847     		blx	r3
 798              	.LVL58:
ARM GAS  /tmp/ccyVQ1Qg.s 			page 15


 799              	.L101:
 800              		.loc 1 380 0
 801 001e BDE80840 		pop	{r3, lr}
 802              		.cfi_restore 14
 803              		.cfi_restore 3
 804              		.cfi_def_cfa_offset 0
 805              		.loc 1 379 0
 806 0022 FFF7FEBF 		b	_port_irq_epilogue
 807              	.LVL59:
 808              	.L106:
 809 0026 00BF     		.align	2
 810              	.L105:
 811 0028 00640240 		.word	1073898496
 812 002c 00000000 		.word	.LANCHOR0
 813              		.cfi_endproc
 814              	.LFE291:
 815              		.size	Vector154, .-Vector154
 816              		.section	.text.Vector158,"ax",%progbits
 817              		.align	1
 818              		.global	Vector158
 819              		.thumb
 820              		.thumb_func
 821              		.type	Vector158, %function
 822              	Vector158:
 823              	.LFB292:
 824              		.loc 1 387 0
 825              		.cfi_startproc
 826              		@ args = 0, pretend = 0, frame = 0
 827              		@ frame_needed = 0, uses_anonymous_args = 0
 828 0000 08B5     		push	{r3, lr}
 829              		.cfi_def_cfa_offset 8
 830              		.cfi_offset 3, -8
 831              		.cfi_offset 14, -4
 832              		.loc 1 390 0
 833 0002 FFF7FEFF 		bl	_stats_increase_irq
 834              	.LVL60:
 835              		.loc 1 392 0
 836 0006 084B     		ldr	r3, .L112
 837 0008 5968     		ldr	r1, [r3, #4]
 838 000a 890D     		lsrs	r1, r1, #22
 839 000c 01F03D01 		and	r1, r1, #61
 840              	.LVL61:
 841              		.loc 1 393 0
 842 0010 8A05     		lsls	r2, r1, #22
 843 0012 DA60     		str	r2, [r3, #12]
 844              		.loc 1 394 0
 845 0014 054A     		ldr	r2, .L112+4
 846 0016 936F     		ldr	r3, [r2, #120]
 847 0018 0BB1     		cbz	r3, .L108
 848              		.loc 1 395 0
 849 001a D06F     		ldr	r0, [r2, #124]
 850 001c 9847     		blx	r3
 851              	.LVL62:
 852              	.L108:
 853              		.loc 1 398 0
 854 001e BDE80840 		pop	{r3, lr}
 855              		.cfi_restore 14
ARM GAS  /tmp/ccyVQ1Qg.s 			page 16


 856              		.cfi_restore 3
 857              		.cfi_def_cfa_offset 0
 858              		.loc 1 397 0
 859 0022 FFF7FEBF 		b	_port_irq_epilogue
 860              	.LVL63:
 861              	.L113:
 862 0026 00BF     		.align	2
 863              	.L112:
 864 0028 00640240 		.word	1073898496
 865 002c 00000000 		.word	.LANCHOR0
 866              		.cfi_endproc
 867              	.LFE292:
 868              		.size	Vector158, .-Vector158
 869              		.section	.text.dmaInit,"ax",%progbits
 870              		.align	1
 871              		.global	dmaInit
 872              		.thumb
 873              		.thumb_func
 874              		.type	dmaInit, %function
 875              	dmaInit:
 876              	.LFB293:
 877              		.loc 1 409 0
 878              		.cfi_startproc
 879              		@ args = 0, pretend = 0, frame = 0
 880              		@ frame_needed = 0, uses_anonymous_args = 0
 881              		@ link register save eliminated.
 882              		.loc 1 412 0
 883 0000 0C4A     		ldr	r2, .L117
 884 0002 0023     		movs	r3, #0
 885 0004 1360     		str	r3, [r2]
 886              	.LVL64:
 887              	.L115:
 888 0006 0C22     		movs	r2, #12
 889 0008 5A43     		muls	r2, r3, r2
 890              		.loc 1 414 0 discriminator 3
 891 000a 0B49     		ldr	r1, .L117+4
 892 000c 5158     		ldr	r1, [r2, r1]
 893 000e 0022     		movs	r2, #0
 894 0010 0A60     		str	r2, [r1]
 895              		.loc 1 415 0 discriminator 3
 896 0012 0A49     		ldr	r1, .L117+8
 897 0014 41F83320 		str	r2, [r1, r3, lsl #3]
 898              		.loc 1 413 0 discriminator 3
 899 0018 0133     		adds	r3, r3, #1
 900              	.LVL65:
 901 001a 102B     		cmp	r3, #16
 902 001c F3D1     		bne	.L115
 903              		.loc 1 417 0
 904 001e 084A     		ldr	r2, .L117+12
 905 0020 4FF0FF33 		mov	r3, #-1
 906              	.LVL66:
 907 0024 9360     		str	r3, [r2, #8]
 908              		.loc 1 418 0
 909 0026 D360     		str	r3, [r2, #12]
 910              		.loc 1 419 0
 911 0028 C2F80834 		str	r3, [r2, #1032]
 912              		.loc 1 420 0
ARM GAS  /tmp/ccyVQ1Qg.s 			page 17


 913 002c C2F80C34 		str	r3, [r2, #1036]
 914              		.loc 1 419 0
 915 0030 7047     		bx	lr
 916              	.L118:
 917 0032 00BF     		.align	2
 918              	.L117:
 919 0034 00000000 		.word	.LANCHOR1
 920 0038 00000000 		.word	.LANCHOR2
 921 003c 00000000 		.word	.LANCHOR0
 922 0040 00600240 		.word	1073897472
 923              		.cfi_endproc
 924              	.LFE293:
 925              		.size	dmaInit, .-dmaInit
 926              		.section	.text.dmaStreamAllocate,"ax",%progbits
 927              		.align	1
 928              		.global	dmaStreamAllocate
 929              		.thumb
 930              		.thumb_func
 931              		.type	dmaStreamAllocate, %function
 932              	dmaStreamAllocate:
 933              	.LFB294:
 934              		.loc 1 450 0
 935              		.cfi_startproc
 936              		@ args = 0, pretend = 0, frame = 0
 937              		@ frame_needed = 0, uses_anonymous_args = 0
 938              	.LVL67:
 939 0000 F8B5     		push	{r3, r4, r5, r6, r7, lr}
 940              		.cfi_def_cfa_offset 24
 941              		.cfi_offset 3, -24
 942              		.cfi_offset 4, -20
 943              		.cfi_offset 5, -16
 944              		.cfi_offset 6, -12
 945              		.cfi_offset 7, -8
 946              		.cfi_offset 14, -4
 947              		.loc 1 455 0
 948 0002 1F4F     		ldr	r7, .L133
 949 0004 467A     		ldrb	r6, [r0, #9]	@ zero_extendqisi2
 950 0006 3C68     		ldr	r4, [r7]
 951 0008 0125     		movs	r5, #1
 952 000a 05FA06FE 		lsl	lr, r5, r6
 953 000e 1EEA040F 		tst	lr, r4
 954 0012 30D1     		bne	.L124
 955              		.loc 1 459 0
 956 0014 1B4D     		ldr	r5, .L133+4
 957 0016 45F83620 		str	r2, [r5, r6, lsl #3]
 958              		.loc 1 460 0
 959 001a 05EBC605 		add	r5, r5, r6, lsl #3
 960 001e 6B60     		str	r3, [r5, #4]
 961              		.loc 1 461 0
 962 0020 4EEA0403 		orr	r3, lr, r4
 963              	.LVL68:
 964              		.loc 1 464 0
 965 0024 13F0FF0F 		tst	r3, #255
 966              		.loc 1 465 0
 967 0028 18BF     		it	ne
 968 002a 174D     		ldrne	r5, .L133+8
 969              	.LVL69:
ARM GAS  /tmp/ccyVQ1Qg.s 			page 18


 970              		.loc 1 461 0
 971 002c 3B60     		str	r3, [r7]
 972              		.loc 1 465 0
 973 002e 1EBF     		ittt	ne
 974 0030 2C6B     		ldrne	r4, [r5, #48]
 975 0032 44F40014 		orrne	r4, r4, #2097152
 976 0036 2C63     		strne	r4, [r5, #48]
 977              		.loc 1 467 0
 978 0038 13F47F4F 		tst	r3, #65280
 979              		.loc 1 468 0
 980 003c 1FBF     		itttt	ne
 981 003e 124C     		ldrne	r4, .L133+8
 982 0040 236B     		ldrne	r3, [r4, #48]
 983 0042 43F48003 		orrne	r3, r3, #4194304
 984 0046 2363     		strne	r3, [r4, #48]
 985              		.loc 1 472 0
 986 0048 0368     		ldr	r3, [r0]
 987 004a 1C68     		ldr	r4, [r3]
 988 004c 24F01F04 		bic	r4, r4, #31
 989 0050 1C60     		str	r4, [r3]
 990              	.L123:
 991              		.loc 1 472 0 is_stmt 0 discriminator 2
 992 0052 1C68     		ldr	r4, [r3]
 993 0054 14F00104 		ands	r4, r4, #1
 994 0058 FBD1     		bne	.L123
 995              		.loc 1 472 0 discriminator 3
 996 005a 077A     		ldrb	r7, [r0, #8]	@ zero_extendqisi2
 997 005c 4668     		ldr	r6, [r0, #4]
 998              	.LVL70:
 999 005e 3D25     		movs	r5, #61
 1000 0060 BD40     		lsls	r5, r5, r7
 1001 0062 3560     		str	r5, [r6]
 1002              		.loc 1 474 0 is_stmt 1 discriminator 3
 1003 0064 2125     		movs	r5, #33
 1004              		.loc 1 473 0 discriminator 3
 1005 0066 1C60     		str	r4, [r3]
 1006              		.loc 1 474 0 discriminator 3
 1007 0068 5D61     		str	r5, [r3, #20]
 1008              		.loc 1 477 0 discriminator 3
 1009 006a 32B1     		cbz	r2, .L125
 1010              		.loc 1 478 0
 1011 006c 807A     		ldrb	r0, [r0, #10]	@ zero_extendqisi2
 1012              	.LVL71:
 1013 006e FFF7FEFF 		bl	nvicEnableVector
 1014              	.LVL72:
 1015              		.loc 1 481 0
 1016 0072 2046     		mov	r0, r4
 1017 0074 F8BD     		pop	{r3, r4, r5, r6, r7, pc}
 1018              	.LVL73:
 1019              	.L124:
 1020              		.loc 1 456 0
 1021 0076 2846     		mov	r0, r5
 1022              	.LVL74:
 1023 0078 F8BD     		pop	{r3, r4, r5, r6, r7, pc}
 1024              	.LVL75:
 1025              	.L125:
 1026              		.loc 1 481 0
ARM GAS  /tmp/ccyVQ1Qg.s 			page 19


 1027 007a 1046     		mov	r0, r2
 1028              	.LVL76:
 1029              		.loc 1 482 0
 1030 007c F8BD     		pop	{r3, r4, r5, r6, r7, pc}
 1031              	.L134:
 1032 007e 00BF     		.align	2
 1033              	.L133:
 1034 0080 00000000 		.word	.LANCHOR1
 1035 0084 00000000 		.word	.LANCHOR0
 1036 0088 00380240 		.word	1073887232
 1037              		.cfi_endproc
 1038              	.LFE294:
 1039              		.size	dmaStreamAllocate, .-dmaStreamAllocate
 1040              		.section	.text.dmaStreamRelease,"ax",%progbits
 1041              		.align	1
 1042              		.global	dmaStreamRelease
 1043              		.thumb
 1044              		.thumb_func
 1045              		.type	dmaStreamRelease, %function
 1046              	dmaStreamRelease:
 1047              	.LFB295:
 1048              		.loc 1 497 0
 1049              		.cfi_startproc
 1050              		@ args = 0, pretend = 0, frame = 0
 1051              		@ frame_needed = 0, uses_anonymous_args = 0
 1052              	.LVL77:
 1053 0000 10B5     		push	{r4, lr}
 1054              		.cfi_def_cfa_offset 8
 1055              		.cfi_offset 4, -8
 1056              		.cfi_offset 14, -4
 1057              		.loc 1 497 0
 1058 0002 0446     		mov	r4, r0
 1059              		.loc 1 506 0
 1060 0004 807A     		ldrb	r0, [r0, #10]	@ zero_extendqisi2
 1061              	.LVL78:
 1062 0006 FFF7FEFF 		bl	nvicDisableVector
 1063              	.LVL79:
 1064              		.loc 1 509 0
 1065 000a 0C49     		ldr	r1, .L138
 1066 000c 627A     		ldrb	r2, [r4, #9]	@ zero_extendqisi2
 1067 000e 0123     		movs	r3, #1
 1068 0010 9340     		lsls	r3, r3, r2
 1069 0012 0A68     		ldr	r2, [r1]
 1070 0014 22EA0303 		bic	r3, r2, r3
 1071              		.loc 1 512 0
 1072 0018 13F0FF0F 		tst	r3, #255
 1073              		.loc 1 509 0
 1074 001c 0B60     		str	r3, [r1]
 1075              		.loc 1 513 0
 1076 001e 01BF     		itttt	eq
 1077 0020 0749     		ldreq	r1, .L138+4
 1078 0022 0A6B     		ldreq	r2, [r1, #48]
 1079 0024 22F40012 		biceq	r2, r2, #2097152
 1080 0028 0A63     		streq	r2, [r1, #48]
 1081              		.loc 1 515 0
 1082 002a 13F47F4F 		tst	r3, #65280
 1083              		.loc 1 516 0
ARM GAS  /tmp/ccyVQ1Qg.s 			page 20


 1084 002e 01BF     		itttt	eq
 1085 0030 034A     		ldreq	r2, .L138+4
 1086 0032 136B     		ldreq	r3, [r2, #48]
 1087 0034 23F48003 		biceq	r3, r3, #4194304
 1088 0038 1363     		streq	r3, [r2, #48]
 1089 003a 10BD     		pop	{r4, pc}
 1090              	.LVL80:
 1091              	.L139:
 1092              		.align	2
 1093              	.L138:
 1094 003c 00000000 		.word	.LANCHOR1
 1095 0040 00380240 		.word	1073887232
 1096              		.cfi_endproc
 1097              	.LFE295:
 1098              		.size	dmaStreamRelease, .-dmaStreamRelease
 1099              		.global	_stm32_dma_streams
 1100              		.section	.bss.dma_isr_redir,"aw",%nobits
 1101              		.align	2
 1102              		.set	.LANCHOR0,. + 0
 1103              		.type	dma_isr_redir, %object
 1104              		.size	dma_isr_redir, 128
 1105              	dma_isr_redir:
 1106 0000 00000000 		.space	128
 1106      00000000 
 1106      00000000 
 1106      00000000 
 1106      00000000 
 1107              		.section	.rodata._stm32_dma_streams,"a",%progbits
 1108              		.align	2
 1109              		.set	.LANCHOR2,. + 0
 1110              		.type	_stm32_dma_streams, %object
 1111              		.size	_stm32_dma_streams, 192
 1112              	_stm32_dma_streams:
 1113 0000 10600240 		.word	1073897488
 1114 0004 08600240 		.word	1073897480
 1115 0008 00       		.byte	0
 1116 0009 00       		.byte	0
 1117 000a 0B       		.byte	11
 1118 000b 00       		.space	1
 1119 000c 28600240 		.word	1073897512
 1120 0010 08600240 		.word	1073897480
 1121 0014 06       		.byte	6
 1122 0015 01       		.byte	1
 1123 0016 0C       		.byte	12
 1124 0017 00       		.space	1
 1125 0018 40600240 		.word	1073897536
 1126 001c 08600240 		.word	1073897480
 1127 0020 10       		.byte	16
 1128 0021 02       		.byte	2
 1129 0022 0D       		.byte	13
 1130 0023 00       		.space	1
 1131 0024 58600240 		.word	1073897560
 1132 0028 08600240 		.word	1073897480
 1133 002c 16       		.byte	22
 1134 002d 03       		.byte	3
 1135 002e 0E       		.byte	14
 1136 002f 00       		.space	1
ARM GAS  /tmp/ccyVQ1Qg.s 			page 21


 1137 0030 70600240 		.word	1073897584
 1138 0034 0C600240 		.word	1073897484
 1139 0038 00       		.byte	0
 1140 0039 04       		.byte	4
 1141 003a 0F       		.byte	15
 1142 003b 00       		.space	1
 1143 003c 88600240 		.word	1073897608
 1144 0040 0C600240 		.word	1073897484
 1145 0044 06       		.byte	6
 1146 0045 05       		.byte	5
 1147 0046 10       		.byte	16
 1148 0047 00       		.space	1
 1149 0048 A0600240 		.word	1073897632
 1150 004c 0C600240 		.word	1073897484
 1151 0050 10       		.byte	16
 1152 0051 06       		.byte	6
 1153 0052 11       		.byte	17
 1154 0053 00       		.space	1
 1155 0054 B8600240 		.word	1073897656
 1156 0058 0C600240 		.word	1073897484
 1157 005c 16       		.byte	22
 1158 005d 07       		.byte	7
 1159 005e 2F       		.byte	47
 1160 005f 00       		.space	1
 1161 0060 10640240 		.word	1073898512
 1162 0064 08640240 		.word	1073898504
 1163 0068 00       		.byte	0
 1164 0069 08       		.byte	8
 1165 006a 38       		.byte	56
 1166 006b 00       		.space	1
 1167 006c 28640240 		.word	1073898536
 1168 0070 08640240 		.word	1073898504
 1169 0074 06       		.byte	6
 1170 0075 09       		.byte	9
 1171 0076 39       		.byte	57
 1172 0077 00       		.space	1
 1173 0078 40640240 		.word	1073898560
 1174 007c 08640240 		.word	1073898504
 1175 0080 10       		.byte	16
 1176 0081 0A       		.byte	10
 1177 0082 3A       		.byte	58
 1178 0083 00       		.space	1
 1179 0084 58640240 		.word	1073898584
 1180 0088 08640240 		.word	1073898504
 1181 008c 16       		.byte	22
 1182 008d 0B       		.byte	11
 1183 008e 3B       		.byte	59
 1184 008f 00       		.space	1
 1185 0090 70640240 		.word	1073898608
 1186 0094 0C640240 		.word	1073898508
 1187 0098 00       		.byte	0
 1188 0099 0C       		.byte	12
 1189 009a 3C       		.byte	60
 1190 009b 00       		.space	1
 1191 009c 88640240 		.word	1073898632
 1192 00a0 0C640240 		.word	1073898508
 1193 00a4 06       		.byte	6
ARM GAS  /tmp/ccyVQ1Qg.s 			page 22


 1194 00a5 0D       		.byte	13
 1195 00a6 44       		.byte	68
 1196 00a7 00       		.space	1
 1197 00a8 A0640240 		.word	1073898656
 1198 00ac 0C640240 		.word	1073898508
 1199 00b0 10       		.byte	16
 1200 00b1 0E       		.byte	14
 1201 00b2 45       		.byte	69
 1202 00b3 00       		.space	1
 1203 00b4 B8640240 		.word	1073898680
 1204 00b8 0C640240 		.word	1073898508
 1205 00bc 16       		.byte	22
 1206 00bd 0F       		.byte	15
 1207 00be 46       		.byte	70
 1208 00bf 00       		.space	1
 1209              		.section	.bss.dma_streams_mask,"aw",%nobits
 1210              		.align	2
 1211              		.set	.LANCHOR1,. + 0
 1212              		.type	dma_streams_mask, %object
 1213              		.size	dma_streams_mask, 4
 1214              	dma_streams_mask:
 1215 0000 00000000 		.space	4
 1216              		.text
 1217              	.Letext0:
 1218              		.file 2 "/usr/lib/gcc/arm-none-eabi/4.9.3/include/stddef.h"
 1219              		.file 3 "/usr/include/newlib/machine/_default_types.h"
 1220              		.file 4 "/usr/include/newlib/sys/_stdint.h"
 1221              		.file 5 "../../modules/ChibiOS/os/common/ports/ARMCMx/compilers/GCC/chtypes.h"
 1222              		.file 6 "../../modules/ChibiOS/os/rt/include/chsystypes.h"
 1223              		.file 7 "../../modules/ChibiOS/os/rt/include/chschd.h"
 1224              		.file 8 "../../modules/ChibiOS/os/common/ext/CMSIS/ST/STM32F4xx/stm32f407xx.h"
 1225              		.file 9 "../../modules/ChibiOS/os/common/ports/ARMCMx/chcore.h"
 1226              		.file 10 "../../modules/ChibiOS/os/common/ports/ARMCMx/chcore_v7m.h"
 1227              		.file 11 "../../modules/ChibiOS/os/rt/include/chtm.h"
 1228              		.file 12 "../../modules/ChibiOS/os/rt/include/chstats.h"
 1229              		.file 13 "../../modules/ChibiOS/os/rt/include/chsem.h"
 1230              		.file 14 "../../modules/ChibiOS/os/rt/include/chmtx.h"
 1231              		.file 15 "../../modules/ChibiOS/os/hal/ports/STM32/LLD/DMAv2/stm32_dma.h"
 1232              		.file 16 "../../modules/ChibiOS/os/common/ext/CMSIS/include/core_cm4.h"
 1233              		.file 17 "../../modules/ChibiOS/os/hal/ports/common/ARMCMx/nvic.h"