ARM GAS  /tmp/ccyVQ1Qg.s 			page 1


   1              		.syntax unified
   2              		.cpu cortex-m4
   3              		.eabi_attribute 27, 1
   4              		.eabi_attribute 28, 1
   5              		.fpu fpv4-sp-d16
   6              		.eabi_attribute 20, 1
   7              		.eabi_attribute 21, 1
   8              		.eabi_attribute 23, 3
   9              		.eabi_attribute 24, 1
  10              		.eabi_attribute 25, 1
  11              		.eabi_attribute 26, 1
  12              		.eabi_attribute 30, 4
  13              		.eabi_attribute 34, 1
  14              		.eabi_attribute 18, 4
  15              		.thumb
  16              		.file	"stm32_dma.c"
  17              		.text
  18              	.Ltext0:
  19              		.cfi_sections	.debug_frame
  20              		.section	.text.Vector6C,"ax",%progbits
  21              		.align	1
  22              		.global	Vector6C
  23              		.thumb
  24              		.thumb_func
  25              		.type	Vector6C, %function
  26              	Vector6C:
  27              	.LFB277:
  28              		.file 1 "../../modules/ChibiOS/os/hal/ports/STM32/LLD/DMAv2/stm32_dma.c"
  29              		.loc 1 117 0
  30              		.cfi_startproc
  31              		@ args = 0, pretend = 0, frame = 0
  32              		@ frame_needed = 0, uses_anonymous_args = 0
  33 0000 08B5     		push	{r3, lr}
  34              		.cfi_def_cfa_offset 8
  35              		.cfi_offset 3, -8
  36              		.cfi_offset 14, -4
  37              		.loc 1 120 0
  38 0002 FFF7FEFF 		bl	_stats_increase_irq
  39              	.LVL0:
  40              		.loc 1 122 0
  41 0006 074B     		ldr	r3, .L7
  42              		.loc 1 124 0
  43 0008 074A     		ldr	r2, .L7+4
  44              		.loc 1 122 0
  45 000a 1968     		ldr	r1, [r3]
  46 000c 01F03D01 		and	r1, r1, #61
  47              	.LVL1:
  48              		.loc 1 123 0
  49 0010 9960     		str	r1, [r3, #8]
  50              		.loc 1 124 0
  51 0012 1368     		ldr	r3, [r2]
  52 0014 0BB1     		cbz	r3, .L2
  53              		.loc 1 125 0
  54 0016 5068     		ldr	r0, [r2, #4]
  55 0018 9847     		blx	r3
  56              	.LVL2:
  57              	.L2:
ARM GAS  /tmp/ccyVQ1Qg.s 			page 2


  58              		.loc 1 128 0
  59 001a BDE80840 		pop	{r3, lr}
  60              		.cfi_restore 14
  61              		.cfi_restore 3
  62              		.cfi_def_cfa_offset 0
  63              		.loc 1 127 0
  64 001e FFF7FEBF 		b	_port_irq_epilogue
  65              	.LVL3:
  66              	.L8:
  67 0022 00BF     		.align	2
  68              	.L7:
  69 0024 00600240 		.word	1073897472
  70 0028 00000000 		.word	.LANCHOR0
  71              		.cfi_endproc
  72              	.LFE277:
  73              		.size	Vector6C, .-Vector6C
  74              		.section	.text.Vector70,"ax",%progbits
  75              		.align	1
  76              		.global	Vector70
  77              		.thumb
  78              		.thumb_func
  79              		.type	Vector70, %function
  80              	Vector70:
  81              	.LFB278:
  82              		.loc 1 135 0
  83              		.cfi_startproc
  84              		@ args = 0, pretend = 0, frame = 0
  85              		@ frame_needed = 0, uses_anonymous_args = 0
  86 0000 08B5     		push	{r3, lr}
  87              		.cfi_def_cfa_offset 8
  88              		.cfi_offset 3, -8
  89              		.cfi_offset 14, -4
  90              		.loc 1 138 0
  91 0002 FFF7FEFF 		bl	_stats_increase_irq
  92              	.LVL4:
  93              		.loc 1 140 0
  94 0006 084B     		ldr	r3, .L14
  95 0008 1968     		ldr	r1, [r3]
  96 000a 8909     		lsrs	r1, r1, #6
  97 000c 01F03D01 		and	r1, r1, #61
  98              	.LVL5:
  99              		.loc 1 141 0
 100 0010 8A01     		lsls	r2, r1, #6
 101 0012 9A60     		str	r2, [r3, #8]
 102              		.loc 1 142 0
 103 0014 054A     		ldr	r2, .L14+4
 104 0016 9368     		ldr	r3, [r2, #8]
 105 0018 0BB1     		cbz	r3, .L10
 106              		.loc 1 143 0
 107 001a D068     		ldr	r0, [r2, #12]
 108 001c 9847     		blx	r3
 109              	.LVL6:
 110              	.L10:
 111              		.loc 1 146 0
 112 001e BDE80840 		pop	{r3, lr}
 113              		.cfi_restore 14
 114              		.cfi_restore 3
ARM GAS  /tmp/ccyVQ1Qg.s 			page 3


 115              		.cfi_def_cfa_offset 0
 116              		.loc 1 145 0
 117 0022 FFF7FEBF 		b	_port_irq_epilogue
 118              	.LVL7:
 119              	.L15:
 120 0026 00BF     		.align	2
 121              	.L14:
 122 0028 00600240 		.word	1073897472
 123 002c 00000000 		.word	.LANCHOR0
 124              		.cfi_endproc
 125              	.LFE278:
 126              		.size	Vector70, .-Vector70
 127              		.section	.text.Vector74,"ax",%progbits
 128              		.align	1
 129              		.global	Vector74
 130              		.thumb
 131              		.thumb_func
 132              		.type	Vector74, %function
 133              	Vector74:
 134              	.LFB279:
 135              		.loc 1 153 0
 136              		.cfi_startproc
 137              		@ args = 0, pretend = 0, frame = 0
 138              		@ frame_needed = 0, uses_anonymous_args = 0
 139 0000 08B5     		push	{r3, lr}
 140              		.cfi_def_cfa_offset 8
 141              		.cfi_offset 3, -8
 142              		.cfi_offset 14, -4
 143              		.loc 1 156 0
 144 0002 FFF7FEFF 		bl	_stats_increase_irq
 145              	.LVL8:
 146              		.loc 1 158 0
 147 0006 084B     		ldr	r3, .L21
 148 0008 1968     		ldr	r1, [r3]
 149 000a 090C     		lsrs	r1, r1, #16
 150 000c 01F03D01 		and	r1, r1, #61
 151              	.LVL9:
 152              		.loc 1 159 0
 153 0010 0A04     		lsls	r2, r1, #16
 154 0012 9A60     		str	r2, [r3, #8]
 155              		.loc 1 160 0
 156 0014 054A     		ldr	r2, .L21+4
 157 0016 1369     		ldr	r3, [r2, #16]
 158 0018 0BB1     		cbz	r3, .L17
 159              		.loc 1 161 0
 160 001a 5069     		ldr	r0, [r2, #20]
 161 001c 9847     		blx	r3
 162              	.LVL10:
 163              	.L17:
 164              		.loc 1 164 0
 165 001e BDE80840 		pop	{r3, lr}
 166              		.cfi_restore 14
 167              		.cfi_restore 3
 168              		.cfi_def_cfa_offset 0
 169              		.loc 1 163 0
 170 0022 FFF7FEBF 		b	_port_irq_epilogue
 171              	.LVL11:
ARM GAS  /tmp/ccyVQ1Qg.s 			page 4


 172              	.L22:
 173 0026 00BF     		.align	2
 174              	.L21:
 175 0028 00600240 		.word	1073897472
 176 002c 00000000 		.word	.LANCHOR0
 177              		.cfi_endproc
 178              	.LFE279:
 179              		.size	Vector74, .-Vector74
 180              		.section	.text.Vector78,"ax",%progbits
 181              		.align	1
 182              		.global	Vector78
 183              		.thumb
 184              		.thumb_func
 185              		.type	Vector78, %function
 186              	Vector78:
 187              	.LFB280:
 188              		.loc 1 171 0
 189              		.cfi_startproc
 190              		@ args = 0, pretend = 0, frame = 0
 191              		@ frame_needed = 0, uses_anonymous_args = 0
 192 0000 08B5     		push	{r3, lr}
 193              		.cfi_def_cfa_offset 8
 194              		.cfi_offset 3, -8
 195              		.cfi_offset 14, -4
 196              		.loc 1 174 0
 197 0002 FFF7FEFF 		bl	_stats_increase_irq
 198              	.LVL12:
 199              		.loc 1 176 0
 200 0006 084B     		ldr	r3, .L28
 201 0008 1968     		ldr	r1, [r3]
 202 000a 890D     		lsrs	r1, r1, #22
 203 000c 01F03D01 		and	r1, r1, #61
 204              	.LVL13:
 205              		.loc 1 177 0
 206 0010 8A05     		lsls	r2, r1, #22
 207 0012 9A60     		str	r2, [r3, #8]
 208              		.loc 1 178 0
 209 0014 054A     		ldr	r2, .L28+4
 210 0016 9369     		ldr	r3, [r2, #24]
 211 0018 0BB1     		cbz	r3, .L24
 212              		.loc 1 179 0
 213 001a D069     		ldr	r0, [r2, #28]
 214 001c 9847     		blx	r3
 215              	.LVL14:
 216              	.L24:
 217              		.loc 1 182 0
 218 001e BDE80840 		pop	{r3, lr}
 219              		.cfi_restore 14
 220              		.cfi_restore 3
 221              		.cfi_def_cfa_offset 0
 222              		.loc 1 181 0
 223 0022 FFF7FEBF 		b	_port_irq_epilogue
 224              	.LVL15:
 225              	.L29:
 226 0026 00BF     		.align	2
 227              	.L28:
 228 0028 00600240 		.word	1073897472
ARM GAS  /tmp/ccyVQ1Qg.s 			page 5


 229 002c 00000000 		.word	.LANCHOR0
 230              		.cfi_endproc
 231              	.LFE280:
 232              		.size	Vector78, .-Vector78
 233              		.section	.text.Vector7C,"ax",%progbits
 234              		.align	1
 235              		.global	Vector7C
 236              		.thumb
 237              		.thumb_func
 238              		.type	Vector7C, %function
 239              	Vector7C:
 240              	.LFB281:
 241              		.loc 1 189 0
 242              		.cfi_startproc
 243              		@ args = 0, pretend = 0, frame = 0
 244              		@ frame_needed = 0, uses_anonymous_args = 0
 245 0000 08B5     		push	{r3, lr}
 246              		.cfi_def_cfa_offset 8
 247              		.cfi_offset 3, -8
 248              		.cfi_offset 14, -4
 249              		.loc 1 192 0
 250 0002 FFF7FEFF 		bl	_stats_increase_irq
 251              	.LVL16:
 252              		.loc 1 194 0
 253 0006 074B     		ldr	r3, .L35
 254              		.loc 1 196 0
 255 0008 074A     		ldr	r2, .L35+4
 256              		.loc 1 194 0
 257 000a 5968     		ldr	r1, [r3, #4]
 258 000c 01F03D01 		and	r1, r1, #61
 259              	.LVL17:
 260              		.loc 1 195 0
 261 0010 D960     		str	r1, [r3, #12]
 262              		.loc 1 196 0
 263 0012 136A     		ldr	r3, [r2, #32]
 264 0014 0BB1     		cbz	r3, .L31
 265              		.loc 1 197 0
 266 0016 506A     		ldr	r0, [r2, #36]
 267 0018 9847     		blx	r3
 268              	.LVL18:
 269              	.L31:
 270              		.loc 1 200 0
 271 001a BDE80840 		pop	{r3, lr}
 272              		.cfi_restore 14
 273              		.cfi_restore 3
 274              		.cfi_def_cfa_offset 0
 275              		.loc 1 199 0
 276 001e FFF7FEBF 		b	_port_irq_epilogue
 277              	.LVL19:
 278              	.L36:
 279 0022 00BF     		.align	2
 280              	.L35:
 281 0024 00600240 		.word	1073897472
 282 0028 00000000 		.word	.LANCHOR0
 283              		.cfi_endproc
 284              	.LFE281:
 285              		.size	Vector7C, .-Vector7C
ARM GAS  /tmp/ccyVQ1Qg.s 			page 6


 286              		.section	.text.Vector80,"ax",%progbits
 287              		.align	1
 288              		.global	Vector80
 289              		.thumb
 290              		.thumb_func
 291              		.type	Vector80, %function
 292              	Vector80:
 293              	.LFB282:
 294              		.loc 1 207 0
 295              		.cfi_startproc
 296              		@ args = 0, pretend = 0, frame = 0
 297              		@ frame_needed = 0, uses_anonymous_args = 0
 298 0000 08B5     		push	{r3, lr}
 299              		.cfi_def_cfa_offset 8
 300              		.cfi_offset 3, -8
 301              		.cfi_offset 14, -4
 302              		.loc 1 210 0
 303 0002 FFF7FEFF 		bl	_stats_increase_irq
 304              	.LVL20:
 305              		.loc 1 212 0
 306 0006 084B     		ldr	r3, .L42
 307 0008 5968     		ldr	r1, [r3, #4]
 308 000a 8909     		lsrs	r1, r1, #6
 309 000c 01F03D01 		and	r1, r1, #61
 310              	.LVL21:
 311              		.loc 1 213 0
 312 0010 8A01     		lsls	r2, r1, #6
 313 0012 DA60     		str	r2, [r3, #12]
 314              		.loc 1 214 0
 315 0014 054A     		ldr	r2, .L42+4
 316 0016 936A     		ldr	r3, [r2, #40]
 317 0018 0BB1     		cbz	r3, .L38
 318              		.loc 1 215 0
 319 001a D06A     		ldr	r0, [r2, #44]
 320 001c 9847     		blx	r3
 321              	.LVL22:
 322              	.L38:
 323              		.loc 1 218 0
 324 001e BDE80840 		pop	{r3, lr}
 325              		.cfi_restore 14
 326              		.cfi_restore 3
 327              		.cfi_def_cfa_offset 0
 328              		.loc 1 217 0
 329 0022 FFF7FEBF 		b	_port_irq_epilogue
 330              	.LVL23:
 331              	.L43:
 332 0026 00BF     		.align	2
 333              	.L42:
 334 0028 00600240 		.word	1073897472
 335 002c 00000000 		.word	.LANCHOR0
 336              		.cfi_endproc
 337              	.LFE282:
 338              		.size	Vector80, .-Vector80
 339              		.section	.text.Vector84,"ax",%progbits
 340              		.align	1
 341              		.global	Vector84
 342              		.thumb
ARM GAS  /tmp/ccyVQ1Qg.s 			page 7


 343              		.thumb_func
 344              		.type	Vector84, %function
 345              	Vector84:
 346              	.LFB283:
 347              		.loc 1 225 0
 348              		.cfi_startproc
 349              		@ args = 0, pretend = 0, frame = 0
 350              		@ frame_needed = 0, uses_anonymous_args = 0
 351 0000 08B5     		push	{r3, lr}
 352              		.cfi_def_cfa_offset 8
 353              		.cfi_offset 3, -8
 354              		.cfi_offset 14, -4
 355              		.loc 1 228 0
 356 0002 FFF7FEFF 		bl	_stats_increase_irq
 357              	.LVL24:
 358              		.loc 1 230 0
 359 0006 084B     		ldr	r3, .L49
 360 0008 5968     		ldr	r1, [r3, #4]
 361 000a 090C     		lsrs	r1, r1, #16
 362 000c 01F03D01 		and	r1, r1, #61
 363              	.LVL25:
 364              		.loc 1 231 0
 365 0010 0A04     		lsls	r2, r1, #16
 366 0012 DA60     		str	r2, [r3, #12]
 367              		.loc 1 232 0
 368 0014 054A     		ldr	r2, .L49+4
 369 0016 136B     		ldr	r3, [r2, #48]
 370 0018 0BB1     		cbz	r3, .L45
 371              		.loc 1 233 0
 372 001a 506B     		ldr	r0, [r2, #52]
 373 001c 9847     		blx	r3
 374              	.LVL26:
 375              	.L45:
 376              		.loc 1 236 0
 377 001e BDE80840 		pop	{r3, lr}
 378              		.cfi_restore 14
 379              		.cfi_restore 3
 380              		.cfi_def_cfa_offset 0
 381              		.loc 1 235 0
 382 0022 FFF7FEBF 		b	_port_irq_epilogue
 383              	.LVL27:
 384              	.L50:
 385 0026 00BF     		.align	2
 386              	.L49:
 387 0028 00600240 		.word	1073897472
 388 002c 00000000 		.word	.LANCHOR0
 389              		.cfi_endproc
 390              	.LFE283:
 391              		.size	Vector84, .-Vector84
 392              		.section	.text.VectorFC,"ax",%progbits
 393              		.align	1
 394              		.global	VectorFC
 395              		.thumb
 396              		.thumb_func
 397              		.type	VectorFC, %function
 398              	VectorFC:
 399              	.LFB284:
ARM GAS  /tmp/ccyVQ1Qg.s 			page 8


 400              		.loc 1 243 0
 401              		.cfi_startproc
 402              		@ args = 0, pretend = 0, frame = 0
 403              		@ frame_needed = 0, uses_anonymous_args = 0
 404 0000 08B5     		push	{r3, lr}
 405              		.cfi_def_cfa_offset 8
 406              		.cfi_offset 3, -8
 407              		.cfi_offset 14, -4
 408              		.loc 1 246 0
 409 0002 FFF7FEFF 		bl	_stats_increase_irq
 410              	.LVL28:
 411              		.loc 1 248 0
 412 0006 084B     		ldr	r3, .L56
 413 0008 5968     		ldr	r1, [r3, #4]
 414 000a 890D     		lsrs	r1, r1, #22
 415 000c 01F03D01 		and	r1, r1, #61
 416              	.LVL29:
 417              		.loc 1 249 0
 418 0010 8A05     		lsls	r2, r1, #22
 419 0012 DA60     		str	r2, [r3, #12]
 420              		.loc 1 250 0
 421 0014 054A     		ldr	r2, .L56+4
 422 0016 936B     		ldr	r3, [r2, #56]
 423 0018 0BB1     		cbz	r3, .L52
 424              		.loc 1 251 0
 425 001a D06B     		ldr	r0, [r2, #60]
 426 001c 9847     		blx	r3
 427              	.LVL30:
 428              	.L52:
 429              		.loc 1 254 0
 430 001e BDE80840 		pop	{r3, lr}
 431              		.cfi_restore 14
 432              		.cfi_restore 3
 433              		.cfi_def_cfa_offset 0
 434              		.loc 1 253 0
 435 0022 FFF7FEBF 		b	_port_irq_epilogue
 436              	.LVL31:
 437              	.L57:
 438 0026 00BF     		.align	2
 439              	.L56:
 440 0028 00600240 		.word	1073897472
 441 002c 00000000 		.word	.LANCHOR0
 442              		.cfi_endproc
 443              	.LFE284:
 444              		.size	VectorFC, .-VectorFC
 445              		.section	.text.Vector120,"ax",%progbits
 446              		.align	1
 447              		.global	Vector120
 448              		.thumb
 449              		.thumb_func
 450              		.type	Vector120, %function
 451              	Vector120:
 452              	.LFB285:
 453              		.loc 1 261 0
 454              		.cfi_startproc
 455              		@ args = 0, pretend = 0, frame = 0
 456              		@ frame_needed = 0, uses_anonymous_args = 0
ARM GAS  /tmp/ccyVQ1Qg.s 			page 9


 457 0000 08B5     		push	{r3, lr}
 458              		.cfi_def_cfa_offset 8
 459              		.cfi_offset 3, -8
 460              		.cfi_offset 14, -4
 461              		.loc 1 264 0
 462 0002 FFF7FEFF 		bl	_stats_increase_irq
 463              	.LVL32:
 464              		.loc 1 266 0
 465 0006 074B     		ldr	r3, .L63
 466              		.loc 1 268 0
 467 0008 074A     		ldr	r2, .L63+4
 468              		.loc 1 266 0
 469 000a 1968     		ldr	r1, [r3]
 470 000c 01F03D01 		and	r1, r1, #61
 471              	.LVL33:
 472              		.loc 1 267 0
 473 0010 9960     		str	r1, [r3, #8]
 474              		.loc 1 268 0
 475 0012 136C     		ldr	r3, [r2, #64]
 476 0014 0BB1     		cbz	r3, .L59
 477              		.loc 1 269 0
 478 0016 506C     		ldr	r0, [r2, #68]
 479 0018 9847     		blx	r3
 480              	.LVL34:
 481              	.L59:
 482              		.loc 1 272 0
 483 001a BDE80840 		pop	{r3, lr}
 484              		.cfi_restore 14
 485              		.cfi_restore 3
 486              		.cfi_def_cfa_offset 0
 487              		.loc 1 271 0
 488 001e FFF7FEBF 		b	_port_irq_epilogue
 489              	.LVL35:
 490              	.L64:
 491 0022 00BF     		.align	2
 492              	.L63:
 493 0024 00640240 		.word	1073898496
 494 0028 00000000 		.word	.LANCHOR0
 495              		.cfi_endproc
 496              	.LFE285:
 497              		.size	Vector120, .-Vector120
 498              		.section	.text.Vector124,"ax",%progbits
 499              		.align	1
 500              		.global	Vector124
 501              		.thumb
 502              		.thumb_func
 503              		.type	Vector124, %function
 504              	Vector124:
 505              	.LFB286:
 506              		.loc 1 279 0
 507              		.cfi_startproc
 508              		@ args = 0, pretend = 0, frame = 0
 509              		@ frame_needed = 0, uses_anonymous_args = 0
 510 0000 08B5     		push	{r3, lr}
 511              		.cfi_def_cfa_offset 8
 512              		.cfi_offset 3, -8
 513              		.cfi_offset 14, -4
ARM GAS  /tmp/ccyVQ1Qg.s 			page 10


 514              		.loc 1 282 0
 515 0002 FFF7FEFF 		bl	_stats_increase_irq
 516              	.LVL36:
 517              		.loc 1 284 0
 518 0006 084B     		ldr	r3, .L70
 519 0008 1968     		ldr	r1, [r3]
 520 000a 8909     		lsrs	r1, r1, #6
 521 000c 01F03D01 		and	r1, r1, #61
 522              	.LVL37:
 523              		.loc 1 285 0
 524 0010 8A01     		lsls	r2, r1, #6
 525 0012 9A60     		str	r2, [r3, #8]
 526              		.loc 1 286 0
 527 0014 054A     		ldr	r2, .L70+4
 528 0016 936C     		ldr	r3, [r2, #72]
 529 0018 0BB1     		cbz	r3, .L66
 530              		.loc 1 287 0
 531 001a D06C     		ldr	r0, [r2, #76]
 532 001c 9847     		blx	r3
 533              	.LVL38:
 534              	.L66:
 535              		.loc 1 290 0
 536 001e BDE80840 		pop	{r3, lr}
 537              		.cfi_restore 14
 538              		.cfi_restore 3
 539              		.cfi_def_cfa_offset 0
 540              		.loc 1 289 0
 541 0022 FFF7FEBF 		b	_port_irq_epilogue
 542              	.LVL39:
 543              	.L71:
 544 0026 00BF     		.align	2
 545              	.L70:
 546 0028 00640240 		.word	1073898496
 547 002c 00000000 		.word	.LANCHOR0
 548              		.cfi_endproc
 549              	.LFE286:
 550              		.size	Vector124, .-Vector124
 551              		.section	.text.Vector128,"ax",%progbits
 552              		.align	1
 553              		.global	Vector128
 554              		.thumb
 555              		.thumb_func
 556              		.type	Vector128, %function
 557              	Vector128:
 558              	.LFB287:
 559              		.loc 1 297 0
 560              		.cfi_startproc
 561              		@ args = 0, pretend = 0, frame = 0
 562              		@ frame_needed = 0, uses_anonymous_args = 0
 563 0000 08B5     		push	{r3, lr}
 564              		.cfi_def_cfa_offset 8
 565              		.cfi_offset 3, -8
 566              		.cfi_offset 14, -4
 567              		.loc 1 300 0
 568 0002 FFF7FEFF 		bl	_stats_increase_irq
 569              	.LVL40:
 570              		.loc 1 302 0
ARM GAS  /tmp/ccyVQ1Qg.s 			page 11


 571 0006 084B     		ldr	r3, .L77
 572 0008 1968     		ldr	r1, [r3]
 573 000a 090C     		lsrs	r1, r1, #16
 574 000c 01F03D01 		and	r1, r1, #61
 575              	.LVL41:
 576              		.loc 1 303 0
 577 0010 0A04     		lsls	r2, r1, #16
 578 0012 9A60     		str	r2, [r3, #8]
 579              		.loc 1 304 0
 580 0014 054A     		ldr	r2, .L77+4
 581 0016 136D     		ldr	r3, [r2, #80]
 582 0018 0BB1     		cbz	r3, .L73
 583              		.loc 1 305 0
 584 001a 506D     		ldr	r0, [r2, #84]
 585 001c 9847     		blx	r3
 586              	.LVL42:
 587              	.L73:
 588              		.loc 1 308 0
 589 001e BDE80840 		pop	{r3, lr}
 590              		.cfi_restore 14
 591              		.cfi_restore 3
 592              		.cfi_def_cfa_offset 0
 593              		.loc 1 307 0
 594 0022 FFF7FEBF 		b	_port_irq_epilogue
 595              	.LVL43:
 596              	.L78:
 597 0026 00BF     		.align	2
 598              	.L77:
 599 0028 00640240 		.word	1073898496
 600 002c 00000000 		.word	.LANCHOR0
 601              		.cfi_endproc
 602              	.LFE287:
 603              		.size	Vector128, .-Vector128
 604              		.section	.text.Vector12C,"ax",%progbits
 605              		.align	1
 606              		.global	Vector12C
 607              		.thumb
 608              		.thumb_func
 609              		.type	Vector12C, %function
 610              	Vector12C:
 611              	.LFB288:
 612              		.loc 1 315 0
 613              		.cfi_startproc
 614              		@ args = 0, pretend = 0, frame = 0
 615              		@ frame_needed = 0, uses_anonymous_args = 0
 616 0000 08B5     		push	{r3, lr}
 617              		.cfi_def_cfa_offset 8
 618              		.cfi_offset 3, -8
 619              		.cfi_offset 14, -4
 620              		.loc 1 318 0
 621 0002 FFF7FEFF 		bl	_stats_increase_irq
 622              	.LVL44:
 623              		.loc 1 320 0
 624 0006 084B     		ldr	r3, .L84
 625 0008 1968     		ldr	r1, [r3]
 626 000a 890D     		lsrs	r1, r1, #22
 627 000c 01F03D01 		and	r1, r1, #61
ARM GAS  /tmp/ccyVQ1Qg.s 			page 12


 628              	.LVL45:
 629              		.loc 1 321 0
 630 0010 8A05     		lsls	r2, r1, #22
 631 0012 9A60     		str	r2, [r3, #8]
 632              		.loc 1 322 0
 633 0014 054A     		ldr	r2, .L84+4
 634 0016 936D     		ldr	r3, [r2, #88]
 635 0018 0BB1     		cbz	r3, .L80
 636              		.loc 1 323 0
 637 001a D06D     		ldr	r0, [r2, #92]
 638 001c 9847     		blx	r3
 639              	.LVL46:
 640              	.L80:
 641              		.loc 1 326 0
 642 001e BDE80840 		pop	{r3, lr}
 643              		.cfi_restore 14
 644              		.cfi_restore 3
 645              		.cfi_def_cfa_offset 0
 646              		.loc 1 325 0
 647 0022 FFF7FEBF 		b	_port_irq_epilogue
 648              	.LVL47:
 649              	.L85:
 650 0026 00BF     		.align	2
 651              	.L84:
 652 0028 00640240 		.word	1073898496
 653 002c 00000000 		.word	.LANCHOR0
 654              		.cfi_endproc
 655              	.LFE288:
 656              		.size	Vector12C, .-Vector12C
 657              		.section	.text.Vector130,"ax",%progbits
 658              		.align	1
 659              		.global	Vector130
 660              		.thumb
 661              		.thumb_func
 662              		.type	Vector130, %function
 663              	Vector130:
 664              	.LFB289:
 665              		.loc 1 333 0
 666              		.cfi_startproc
 667              		@ args = 0, pretend = 0, frame = 0
 668              		@ frame_needed = 0, uses_anonymous_args = 0
 669 0000 08B5     		push	{r3, lr}
 670              		.cfi_def_cfa_offset 8
 671              		.cfi_offset 3, -8
 672              		.cfi_offset 14, -4
 673              		.loc 1 336 0
 674 0002 FFF7FEFF 		bl	_stats_increase_irq
 675              	.LVL48:
 676              		.loc 1 338 0
 677 0006 074B     		ldr	r3, .L91
 678              		.loc 1 340 0
 679 0008 074A     		ldr	r2, .L91+4
 680              		.loc 1 338 0
 681 000a 5968     		ldr	r1, [r3, #4]
 682 000c 01F03D01 		and	r1, r1, #61
 683              	.LVL49:
 684              		.loc 1 339 0
ARM GAS  /tmp/ccyVQ1Qg.s 			page 13


 685 0010 D960     		str	r1, [r3, #12]
 686              		.loc 1 340 0
 687 0012 136E     		ldr	r3, [r2, #96]
 688 0014 0BB1     		cbz	r3, .L87
 689              		.loc 1 341 0
 690 0016 506E     		ldr	r0, [r2, #100]
 691 0018 9847     		blx	r3
 692              	.LVL50:
 693              	.L87:
 694              		.loc 1 344 0
 695 001a BDE80840 		pop	{r3, lr}
 696              		.cfi_restore 14
 697              		.cfi_restore 3
 698              		.cfi_def_cfa_offset 0
 699              		.loc 1 343 0
 700 001e FFF7FEBF 		b	_port_irq_epilogue
 701              	.LVL51:
 702              	.L92:
 703 0022 00BF     		.align	2
 704              	.L91:
 705 0024 00640240 		.word	1073898496
 706 0028 00000000 		.word	.LANCHOR0
 707              		.cfi_endproc
 708              	.LFE289:
 709              		.size	Vector130, .-Vector130
 710              		.section	.text.Vector150,"ax",%progbits
 711              		.align	1
 712              		.global	Vector150
 713              		.thumb
 714              		.thumb_func
 715              		.type	Vector150, %function
 716              	Vector150:
 717              	.LFB290:
 718              		.loc 1 351 0
 719              		.cfi_startproc
 720              		@ args = 0, pretend = 0, frame = 0
 721              		@ frame_needed = 0, uses_anonymous_args = 0
 722 0000 08B5     		push	{r3, lr}
 723              		.cfi_def_cfa_offset 8
 724              		.cfi_offset 3, -8
 725              		.cfi_offset 14, -4
 726              		.loc 1 354 0
 727 0002 FFF7FEFF 		bl	_stats_increase_irq
 728              	.LVL52:
 729              		.loc 1 356 0
 730 0006 084B     		ldr	r3, .L98
 731 0008 5968     		ldr	r1, [r3, #4]
 732 000a 8909     		lsrs	r1, r1, #6
 733 000c 01F03D01 		and	r1, r1, #61
 734              	.LVL53:
 735              		.loc 1 357 0
 736 0010 8A01     		lsls	r2, r1, #6
 737 0012 DA60     		str	r2, [r3, #12]
 738              		.loc 1 358 0
 739 0014 054A     		ldr	r2, .L98+4
 740 0016 936E     		ldr	r3, [r2, #104]
 741 0018 0BB1     		cbz	r3, .L94
ARM GAS  /tmp/ccyVQ1Qg.s 			page 14


 742              		.loc 1 359 0
 743 001a D06E     		ldr	r0, [r2, #108]
 744 001c 9847     		blx	r3
 745              	.LVL54:
 746              	.L94:
 747              		.loc 1 362 0
 748 001e BDE80840 		pop	{r3, lr}
 749              		.cfi_restore 14
 750              		.cfi_restore 3
 751              		.cfi_def_cfa_offset 0
 752              		.loc 1 361 0
 753 0022 FFF7FEBF 		b	_port_irq_epilogue
 754              	.LVL55:
 755              	.L99:
 756 0026 00BF     		.align	2
 757              	.L98:
 758 0028 00640240 		.word	1073898496
 759 002c 00000000 		.word	.LANCHOR0
 760              		.cfi_endproc
 761              	.LFE290:
 762              		.size	Vector150, .-Vector150
 763              		.section	.text.Vector154,"ax",%progbits
 764              		.align	1
 765              		.global	Vector154
 766              		.thumb
 767              		.thumb_func
 768              		.type	Vector154, %function
 769              	Vector154:
 770              	.LFB291:
 771              		.loc 1 369 0
 772              		.cfi_startproc
 773              		@ args = 0, pretend = 0, frame = 0
 774              		@ frame_needed = 0, uses_anonymous_args = 0
 775 0000 08B5     		push	{r3, lr}
 776              		.cfi_def_cfa_offset 8
 777              		.cfi_offset 3, -8
 778              		.cfi_offset 14, -4
 779              		.loc 1 372 0
 780 0002 FFF7FEFF 		bl	_stats_increase_irq
 781              	.LVL56:
 782              		.loc 1 374 0
 783 0006 084B     		ldr	r3, .L105
 784 0008 5968     		ldr	r1, [r3, #4]
 785 000a 090C     		lsrs	r1, r1, #16
 786 000c 01F03D01 		and	r1, r1, #61
 787              	.LVL57:
 788              		.loc 1 375 0
 789 0010 0A04     		lsls	r2, r1, #16
 790 0012 DA60     		str	r2, [r3, #12]
 791              		.loc 1 376 0
 792 0014 054A     		ldr	r2, .L105+4
 793 0016 136F     		ldr	r3, [r2, #112]
 794 0018 0BB1     		cbz	r3, .L101
 795              		.loc 1 377 0
 796 001a 506F     		ldr	r0, [r2, #116]
 797 001c 9847     		blx	r3
 798              	.LVL58:
ARM GAS  /tmp/ccyVQ1Qg.s 			page 15


 799              	.L101:
 800              		.loc 1 380 0
 801 001e BDE80840 		pop	{r3, lr}
 802              		.cfi_restore 14
 803              		.cfi_restore 3
 804              		.cfi_def_cfa_offset 0
 805              		.loc 1 379 0
 806 0022 FFF7FEBF 		b	_port_irq_epilogue
 807              	.LVL59:
 808              	.L106:
 809 0026 00BF     		.align	2
 810              	.L105:
 811 0028 00640240 		.word	1073898496
 812 002c 00000000 		.word	.LANCHOR0
 813              		.cfi_endproc
 814              	.LFE291:
 815              		.size	Vector154, .-Vector154
 816              		.section	.text.Vector158,"ax",%progbits
 817              		.align	1
 818              		.global	Vector158
 819              		.thumb
 820              		.thumb_func
 821              		.type	Vector158, %function
 822              	Vector158:
 823              	.LFB292:
 824              		.loc 1 387 0
 825              		.cfi_startproc
 826              		@ args = 0, pretend = 0, frame = 0
 827              		@ frame_needed = 0, uses_anonymous_args = 0
 828 0000 08B5     		push	{r3, lr}
 829              		.cfi_def_cfa_offset 8
 830              		.cfi_offset 3, -8
 831              		.cfi_offset 14, -4
 832              		.loc 1 390 0
 833 0002 FFF7FEFF 		bl	_stats_increase_irq
 834              	.LVL60:
 835              		.loc 1 392 0
 836 0006 084B     		ldr	r3, .L112
 837 0008 5968     		ldr	r1, [r3, #4]
 838 000a 890D     		lsrs	r1, r1, #22
 839 000c 01F03D01 		and	r1, r1, #61
 840              	.LVL61:
 841              		.loc 1 393 0
 842 0010 8A05     		lsls	r2, r1, #22
 843 0012 DA60     		str	r2, [r3, #12]
 844              		.loc 1 394 0
 845 0014 054A     		ldr	r2, .L112+4
 846 0016 936F     		ldr	r3, [r2, #120]
 847 0018 0BB1     		cbz	r3, .L108
 848              		.loc 1 395 0
 849 001a D06F     		ldr	r0, [r2, #124]
 850 001c 9847     		blx	r3
 851              	.LVL62:
 852              	.L108:
 853              		.loc 1 398 0
 854 001e BDE80840 		pop	{r3, lr}
 855              		.cfi_restore 14
ARM GAS  /tmp/ccyVQ1Qg.s 			page 16


 856              		.cfi_restore 3
 857              		.cfi_def_cfa_offset 0
 858              		.loc 1 397 0
 859 0022 FFF7FEBF 		b	_port_irq_epilogue
 860              	.LVL63:
 861              	.L113:
 862 0026 00BF     		.align	2
 863              	.L112:
 864 0028 00640240 		.word	1073898496
 865 002c 00000000 		.word	.LANCHOR0
 866              		.cfi_endproc
 867              	.LFE292:
 868              		.size	Vector158, .-Vector158
 869              		.section	.text.dmaInit,"ax",%progbits
 870              		.align	1
 871              		.global	dmaInit
 872              		.thumb
 873              		.thumb_func
 874              		.type	dmaInit, %function
 875              	dmaInit:
 876              	.LFB293:
 877              		.loc 1 409 0
 878              		.cfi_startproc
 879              		@ args = 0, pretend = 0, frame = 0
 880              		@ frame_needed = 0, uses_anonymous_args = 0
 881              		@ link register save eliminated.
 882              		.loc 1 412 0
 883 0000 0C4A     		ldr	r2, .L117
 884 0002 0023     		movs	r3, #0
 885 0004 1360     		str	r3, [r2]
 886              	.LVL64:
 887              	.L115:
 888 0006 0C22     		movs	r2, #12
 889 0008 5A43     		muls	r2, r3, r2
 890              		.loc 1 414 0 discriminator 3
 891 000a 0B49     		ldr	r1, .L117+4
 892 000c 5158     		ldr	r1, [r2, r1]
 893 000e 0022     		movs	r2, #0
 894 0010 0A60     		str	r2, [r1]
 895              		.loc 1 415 0 discriminator 3
 896 0012 0A49     		ldr	r1, .L117+8
 897 0014 41F83320 		str	r2, [r1, r3, lsl #3]
 898              		.loc 1 413 0 discriminator 3
 899 0018 0133     		adds	r3, r3, #1
 900              	.LVL65:
 901 001a 102B     		cmp	r3, #16
 902 001c F3D1     		bne	.L115
 903              		.loc 1 417 0
 904 001e 084A     		ldr	r2, .L117+12
 905 0020 4FF0FF33 		mov	r3, #-1
 906              	.LVL66:
 907 0024 9360     		str	r3, [r2, #8]
 908              		.loc 1 418 0
 909 0026 D360     		str	r3, [r2, #12]
 910              		.loc 1 419 0
 911 0028 C2F80834 		str	r3, [r2, #1032]
 912              		.loc 1 420 0
ARM GAS  /tmp/ccyVQ1Qg.s 			page 17


 913 002c C2F80C34 		str	r3, [r2, #1036]
 914              		.loc 1 419 0
 915 0030 7047     		bx	lr
 916              	.L118:
 917 0032 00BF     		.align	2
 918              	.L117:
 919 0034 00000000 		.word	.LANCHOR1
 920 0038 00000000 		.word	.LANCHOR2
 921 003c 00000000 		.word	.LANCHOR0
 922 0040 00600240 		.word	1073897472
 923              		.cfi_endproc
 924              	.LFE293:
 925              		.size	dmaInit, .-dmaInit
 926              		.section	.text.dmaStreamAllocate,"ax",%progbits
 927              		.align	1
 928              		.global	dmaStreamAllocate
 929              		.thumb
 930              		.thumb_func
 931              		.type	dmaStreamAllocate, %function
 932              	dmaStreamAllocate:
 933              	.LFB294:
 934              		.loc 1 450 0
 935              		.cfi_startproc
 936              		@ args = 0, pretend = 0, frame = 0
 937              		@ frame_needed = 0, uses_anonymous_args = 0
 938              	.LVL67:
 939 0000 F8B5     		push	{r3, r4, r5, r6, r7, lr}
 940              		.cfi_def_cfa_offset 24
 941              		.cfi_offset 3, -24
 942              		.cfi_offset 4, -20
 943              		.cfi_offset 5, -16
 944              		.cfi_offset 6, -12
 945              		.cfi_offset 7, -8
 946              		.cfi_offset 14, -4
 947              		.loc 1 455 0
 948 0002 1F4F     		ldr	r7, .L133
 949 0004 467A     		ldrb	r6, [r0, #9]	@ zero_extendqisi2
 950 0006 3C68     		ldr	r4, [r7]
 951 0008 0125     		movs	r5, #1
 952 000a 05FA06FE 		lsl	lr, r5, r6
 953 000e 1EEA040F 		tst	lr, r4
 954 0012 30D1     		bne	.L124
 955              		.loc 1 459 0
 956 0014 1B4D     		ldr	r5, .L133+4
 957 0016 45F83620 		str	r2, [r5, r6, lsl #3]
 958              		.loc 1 460 0
 959 001a 05EBC605 		add	r5, r5, r6, lsl #3
 960 001e 6B60     		str	r3, [r5, #4]
 961              		.loc 1 461 0
 962 0020 4EEA0403 		orr	r3, lr, r4
 963              	.LVL68:
 964              		.loc 1 464 0
 965 0024 13F0FF0F 		tst	r3, #255
 966              		.loc 1 465 0
 967 0028 18BF     		it	ne
 968 002a 174D     		ldrne	r5, .L133+8
 969              	.LVL69:
ARM GAS  /tmp/ccyVQ1Qg.s 			page 18


 970              		.loc 1 461 0
 971 002c 3B60     		str	r3, [r7]
 972              		.loc 1 465 0
 973 002e 1EBF     		ittt	ne
 974 0030 2C6B     		ldrne	r4, [r5, #48]
 975 0032 44F40014 		orrne	r4, r4, #2097152
 976 0036 2C63     		strne	r4, [r5, #48]
 977              		.loc 1 467 0
 978 0038 13F47F4F 		tst	r3, #65280
 979              		.loc 1 468 0
 980 003c 1FBF     		itttt	ne
 981 003e 124C     		ldrne	r4, .L133+8
 982 0040 236B     		ldrne	r3, [r4, #48]
 983 0042 43F48003 		orrne	r3, r3, #4194304
 984 0046 2363     		strne	r3, [r4, #48]
 985              		.loc 1 472 0
 986 0048 0368     		ldr	r3, [r0]
 987 004a 1C68     		ldr	r4, [r3]
 988 004c 24F01F04 		bic	r4, r4, #31
 989 0050 1C60     		str	r4, [r3]
 990              	.L123:
 991              		.loc 1 472 0 is_stmt 0 discriminator 2
 992 0052 1C68     		ldr	r4, [r3]
 993 0054 14F00104 		ands	r4, r4, #1
 994 0058 FBD1     		bne	.L123
 995              		.loc 1 472 0 discriminator 3
 996 005a 077A     		ldrb	r7, [r0, #8]	@ zero_extendqisi2
 997 005c 4668     		ldr	r6, [r0, #4]
 998              	.LVL70:
 999 005e 3D25     		movs	r5, #61
 1000 0060 BD40     		lsls	r5, r5, r7
 1001 0062 3560     		str	r5, [r6]
 1002              		.loc 1 474 0 is_stmt 1 discriminator 3
 1003 0064 2125     		movs	r5, #33
 1004              		.loc 1 473 0 discriminator 3
 1005 0066 1C60     		str	r4, [r3]
 1006              		.loc 1 474 0 discriminator 3
 1007 0068 5D61     		str	r5, [r3, #20]
 1008              		.loc 1 477 0 discriminator 3
 1009 006a 32B1     		cbz	r2, .L125
 1010              		.loc 1 478 0
 1011 006c 807A     		ldrb	r0, [r0, #10]	@ zero_extendqisi2
 1012              	.LVL71:
 1013 006e FFF7FEFF 		bl	nvicEnableVector
 1014              	.LVL72:
 1015              		.loc 1 481 0
 1016 0072 2046     		mov	r0, r4
 1017 0074 F8BD     		pop	{r3, r4, r5, r6, r7, pc}
 1018              	.LVL73:
 1019              	.L124:
 1020              		.loc 1 456 0
 1021 0076 2846     		mov	r0, r5
 1022              	.LVL74:
 1023 0078 F8BD     		pop	{r3, r4, r5, r6, r7, pc}
 1024              	.LVL75:
 1025              	.L125:
 1026              		.loc 1 481 0
ARM GAS  /tmp/ccyVQ1Qg.s 			page 19


 1027 007a 1046     		mov	r0, r2
 1028              	.LVL76:
 1029              		.loc 1 482 0
 1030 007c F8BD     		pop	{r3, r4, r5, r6, r7, pc}
 1031              	.L134:
 1032 007e 00BF     		.align	2
 1033              	.L133:
 1034 0080 00000000 		.word	.LANCHOR1
 1035 0084 00000000 		.word	.LANCHOR0
 1036 0088 00380240 		.word	1073887232
 1037              		.cfi_endproc
 1038              	.LFE294:
 1039              		.size	dmaStreamAllocate, .-dmaStreamAllocate
 1040              		.section	.text.dmaStreamRelease,"ax",%progbits
 1041              		.align	1
 1042              		.global	dmaStreamRelease
 1043              		.thumb
 1044              		.thumb_func
 1045              		.type	dmaStreamRelease, %function
 1046              	dmaStreamRelease:
 1047              	.LFB295:
 1048              		.loc 1 497 0
 1049              		.cfi_startproc
 1050              		@ args = 0, pretend = 0, frame = 0
 1051              		@ frame_needed = 0, uses_anonymous_args = 0
 1052              	.LVL77:
 1053 0000 10B5     		push	{r4, lr}
 1054              		.cfi_def_cfa_offset 8
 1055              		.cfi_offset 4, -8
 1056              		.cfi_offset 14, -4
 1057              		.loc 1 497 0
 1058 0002 0446     		mov	r4, r0
 1059              		.loc 1 506 0
 1060 0004 807A     		ldrb	r0, [r0, #10]	@ zero_extendqisi2
 1061              	.LVL78:
 1062 0006 FFF7FEFF 		bl	nvicDisableVector
 1063              	.LVL79:
 1064              		.loc 1 509 0
 1065 000a 0C49     		ldr	r1, .L138
 1066 000c 627A     		ldrb	r2, [r4, #9]	@ zero_extendqisi2
 1067 000e 0123     		movs	r3, #1
 1068 0010 9340     		lsls	r3, r3, r2
 1069 0012 0A68     		ldr	r2, [r1]
 1070 0014 22EA0303 		bic	r3, r2, r3
 1071              		.loc 1 512 0
 1072 0018 13F0FF0F 		tst	r3, #255
 1073              		.loc 1 509 0
 1074 001c 0B60     		str	r3, [r1]
 1075              		.loc 1 513 0
 1076 001e 01BF     		itttt	eq
 1077 0020 0749     		ldreq	r1, .L138+4
 1078 0022 0A6B     		ldreq	r2, [r1, #48]
 1079 0024 22F40012 		biceq	r2, r2, #2097152
 1080 0028 0A63     		streq	r2, [r1, #48]
 1081              		.loc 1 515 0
 1082 002a 13F47F4F 		tst	r3, #65280
 1083              		.loc 1 516 0
ARM GAS  /tmp/ccyVQ1Qg.s 			page 20


 1084 002e 01BF     		itttt	eq
 1085 0030 034A     		ldreq	r2, .L138+4
 1086 0032 136B     		ldreq	r3, [r2, #48]
 1087 0034 23F48003 		biceq	r3, r3, #4194304
 1088 0038 1363     		streq	r3, [r2, #48]
 1089 003a 10BD     		pop	{r4, pc}
 1090              	.LVL80:
 1091              	.L139:
 1092              		.align	2
 1093              	.L138:
 1094 003c 00000000 		.word	.LANCHOR1
 1095 0040 00380240 		.word	1073887232
 1096              		.cfi_endproc
 1097              	.LFE295:
 1098              		.size	dmaStreamRelease, .-dmaStreamRelease
 1099              		.global	_stm32_dma_streams
 1100              		.section	.bss.dma_isr_redir,"aw",%nobits
 1101              		.align	2
 1102              		.set	.LANCHOR0,. + 0
 1103              		.type	dma_isr_redir, %object
 1104              		.size	dma_isr_redir, 128
 1105              	dma_isr_redir:
 1106 0000 00000000 		.space	128
 1106      00000000 
 1106      00000000 
 1106      00000000 
 1106      00000000 
 1107              		.section	.rodata._stm32_dma_streams,"a",%progbits
 1108              		.align	2
 1109              		.set	.LANCHOR2,. + 0
 1110              		.type	_stm32_dma_streams, %object
 1111              		.size	_stm32_dma_streams, 192
 1112              	_stm32_dma_streams:
 1113 0000 10600240 		.word	1073897488
 1114 0004 08600240 		.word	1073897480
 1115 0008 00       		.byte	0
 1116 0009 00       		.byte	0
 1117 000a 0B       		.byte	11
 1118 000b 00       		.space	1
 1119 000c 28600240 		.word	1073897512
 1120 0010 08600240 		.word	1073897480
 1121 0014 06       		.byte	6
 1122 0015 01       		.byte	1
 1123 0016 0C       		.byte	12
 1124 0017 00       		.space	1
 1125 0018 40600240 		.word	1073897536
 1126 001c 08600240 		.word	1073897480
 1127 0020 10       		.byte	16
 1128 0021 02       		.byte	2
 1129 0022 0D       		.byte	13
 1130 0023 00       		.space	1
 1131 0024 58600240 		.word	1073897560
 1132 0028 08600240 		.word	1073897480
 1133 002c 16       		.byte	22
 1134 002d 03       		.byte	3
 1135 002e 0E       		.byte	14
 1136 002f 00       		.space	1
ARM GAS  /tmp/ccyVQ1Qg.s 			page 21


 1137 0030 70600240 		.word	1073897584
 1138 0034 0C600240 		.word	1073897484
 1139 0038 00       		.byte	0
 1140 0039 04       		.byte	4
 1141 003a 0F       		.byte	15
 1142 003b 00       		.space	1
 1143 003c 88600240 		.word	1073897608
 1144 0040 0C600240 		.word	1073897484
 1145 0044 06       		.byte	6
 1146 0045 05       		.byte	5
 1147 0046 10       		.byte	16
 1148 0047 00       		.space	1
 1149 0048 A0600240 		.word	1073897632
 1150 004c 0C600240 		.word	1073897484
 1151 0050 10       		.byte	16
 1152 0051 06       		.byte	6
 1153 0052 11       		.byte	17
 1154 0053 00       		.space	1
 1155 0054 B8600240 		.word	1073897656
 1156 0058 0C600240 		.word	1073897484
 1157 005c 16       		.byte	22
 1158 005d 07       		.byte	7
 1159 005e 2F       		.byte	47
 1160 005f 00       		.space	1
 1161 0060 10640240 		.word	1073898512
 1162 0064 08640240 		.word	1073898504
 1163 0068 00       		.byte	0
 1164 0069 08       		.byte	8
 1165 006a 38       		.byte	56
 1166 006b 00       		.space	1
 1167 006c 28640240 		.word	1073898536
 1168 0070 08640240 		.word	1073898504
 1169 0074 06       		.byte	6
 1170 0075 09       		.byte	9
 1171 0076 39       		.byte	57
 1172 0077 00       		.space	1
 1173 0078 40640240 		.word	1073898560
 1174 007c 08640240 		.word	1073898504
 1175 0080 10       		.byte	16
 1176 0081 0A       		.byte	10
 1177 0082 3A       		.byte	58
 1178 0083 00       		.space	1
 1179 0084 58640240 		.word	1073898584
 1180 0088 08640240 		.word	1073898504
 1181 008c 16       		.byte	22
 1182 008d 0B       		.byte	11
 1183 008e 3B       		.byte	59
 1184 008f 00       		.space	1
 1185 0090 70640240 		.word	1073898608
 1186 0094 0C640240 		.word	1073898508
 1187 0098 00       		.byte	0
 1188 0099 0C       		.byte	12
 1189 009a 3C       		.byte	60
 1190 009b 00       		.space	1
 1191 009c 88640240 		.word	1073898632
 1192 00a0 0C640240 		.word	1073898508
 1193 00a4 06       		.byte	6
ARM GAS  /tmp/ccyVQ1Qg.s 			page 22


 1194 00a5 0D       		.byte	13
 1195 00a6 44       		.byte	68
 1196 00a7 00       		.space	1
 1197 00a8 A0640240 		.word	1073898656
 1198 00ac 0C640240 		.word	1073898508
 1199 00b0 10       		.byte	16
 1200 00b1 0E       		.byte	14
 1201 00b2 45       		.byte	69
 1202 00b3 00       		.space	1
 1203 00b4 B8640240 		.word	1073898680
 1204 00b8 0C640240 		.word	1073898508
 1205 00bc 16       		.byte	22
 1206 00bd 0F       		.byte	15
 1207 00be 46       		.byte	70
 1208 00bf 00       		.space	1
 1209              		.section	.bss.dma_streams_mask,"aw",%nobits
 1210              		.align	2
 1211              		.set	.LANCHOR1,. + 0
 1212              		.type	dma_streams_mask, %object
 1213              		.size	dma_streams_mask, 4
 1214              	dma_streams_mask:
 1215 0000 00000000 		.space	4
 1216              		.text
 1217              	.Letext0:
 1218              		.file 2 "/usr/lib/gcc/arm-none-eabi/4.9.3/include/stddef.h"
 1219              		.file 3 "/usr/include/newlib/machine/_default_types.h"
 1220              		.file 4 "/usr/include/newlib/sys/_stdint.h"
 1221              		.file 5 "../../modules/ChibiOS/os/common/ports/ARMCMx/compilers/GCC/chtypes.h"
 1222              		.file 6 "../../modules/ChibiOS/os/rt/include/chsystypes.h"
 1223              		.file 7 "../../modules/ChibiOS/os/rt/include/chschd.h"
 1224              		.file 8 "../../modules/ChibiOS/os/common/ext/CMSIS/ST/STM32F4xx/stm32f407xx.h"
 1225              		.file 9 "../../modules/ChibiOS/os/common/ports/ARMCMx/chcore.h"
 1226              		.file 10 "../../modules/ChibiOS/os/common/ports/ARMCMx/chcore_v7m.h"
 1227              		.file 11 "../../modules/ChibiOS/os/rt/include/chtm.h"
 1228              		.file 12 "../../modules/ChibiOS/os/rt/include/chstats.h"
 1229              		.file 13 "../../modules/ChibiOS/os/rt/include/chsem.h"
 1230              		.file 14 "../../modules/ChibiOS/os/rt/include/chmtx.h"
 1231              		.file 15 "../../modules/ChibiOS/os/hal/ports/STM32/LLD/DMAv2/stm32_dma.h"
 1232              		.file 16 "../../modules/ChibiOS/os/common/ext/CMSIS/include/core_cm4.h"
 1233              		.file 17 "../../modules/ChibiOS/os/hal/ports/common/ARMCMx/nvic.h"
 1234              		.section	.debug_info,"",%progbits
 1235              	.Ldebug_info0:
 1236 0000 CA0F0000 		.4byte	0xfca
 1237 0004 0400     		.2byte	0x4
 1238 0006 00000000 		.4byte	.Ldebug_abbrev0
 1239 000a 04       		.byte	0x4
 1240 000b 01       		.uleb128 0x1
 1241 000c 85020000 		.4byte	.LASF180
 1242 0010 01       		.byte	0x1
 1243 0011 D2040000 		.4byte	.LASF181
 1244 0015 76010000 		.4byte	.LASF182
 1245 0019 00000000 		.4byte	.Ldebug_ranges0+0
 1246 001d 00000000 		.4byte	0
 1247 0021 00000000 		.4byte	.Ldebug_line0
 1248 0025 02       		.uleb128 0x2
 1249 0026 04       		.byte	0x4
 1250 0027 05       		.byte	0x5
ARM GAS  /tmp/ccyVQ1Qg.s 			page 23


 1251 0028 696E7400 		.ascii	"int\000"
 1252 002c 03       		.uleb128 0x3
 1253 002d 21000000 		.4byte	.LASF2
 1254 0031 02       		.byte	0x2
 1255 0032 D4       		.byte	0xd4
 1256 0033 37000000 		.4byte	0x37
 1257 0037 04       		.uleb128 0x4
 1258 0038 04       		.byte	0x4
 1259 0039 07       		.byte	0x7
 1260 003a 78020000 		.4byte	.LASF0
 1261 003e 04       		.uleb128 0x4
 1262 003f 01       		.byte	0x1
 1263 0040 06       		.byte	0x6
 1264 0041 5A010000 		.4byte	.LASF1
 1265 0045 03       		.uleb128 0x3
 1266 0046 4B000000 		.4byte	.LASF3
 1267 004a 03       		.byte	0x3
 1268 004b 1D       		.byte	0x1d
 1269 004c 50000000 		.4byte	0x50
 1270 0050 04       		.uleb128 0x4
 1271 0051 01       		.byte	0x1
 1272 0052 08       		.byte	0x8
 1273 0053 2F060000 		.4byte	.LASF4
 1274 0057 04       		.uleb128 0x4
 1275 0058 02       		.byte	0x2
 1276 0059 05       		.byte	0x5
 1277 005a 3D060000 		.4byte	.LASF5
 1278 005e 04       		.uleb128 0x4
 1279 005f 02       		.byte	0x2
 1280 0060 07       		.byte	0x7
 1281 0061 E0030000 		.4byte	.LASF6
 1282 0065 03       		.uleb128 0x3
 1283 0066 9E040000 		.4byte	.LASF7
 1284 006a 03       		.byte	0x3
 1285 006b 3F       		.byte	0x3f
 1286 006c 70000000 		.4byte	0x70
 1287 0070 04       		.uleb128 0x4
 1288 0071 04       		.byte	0x4
 1289 0072 05       		.byte	0x5
 1290 0073 CB010000 		.4byte	.LASF8
 1291 0077 03       		.uleb128 0x3
 1292 0078 13020000 		.4byte	.LASF9
 1293 007c 03       		.byte	0x3
 1294 007d 41       		.byte	0x41
 1295 007e 82000000 		.4byte	0x82
 1296 0082 04       		.uleb128 0x4
 1297 0083 04       		.byte	0x4
 1298 0084 07       		.byte	0x7
 1299 0085 F4060000 		.4byte	.LASF10
 1300 0089 04       		.uleb128 0x4
 1301 008a 08       		.byte	0x8
 1302 008b 05       		.byte	0x5
 1303 008c 4C010000 		.4byte	.LASF11
 1304 0090 03       		.uleb128 0x3
 1305 0091 90050000 		.4byte	.LASF12
 1306 0095 03       		.byte	0x3
 1307 0096 5B       		.byte	0x5b
ARM GAS  /tmp/ccyVQ1Qg.s 			page 24


 1308 0097 9B000000 		.4byte	0x9b
 1309 009b 04       		.uleb128 0x4
 1310 009c 08       		.byte	0x8
 1311 009d 07       		.byte	0x7
 1312 009e C0000000 		.4byte	.LASF13
 1313 00a2 03       		.uleb128 0x3
 1314 00a3 02080000 		.4byte	.LASF14
 1315 00a7 04       		.byte	0x4
 1316 00a8 14       		.byte	0x14
 1317 00a9 45000000 		.4byte	0x45
 1318 00ad 03       		.uleb128 0x3
 1319 00ae 27060000 		.4byte	.LASF15
 1320 00b2 04       		.byte	0x4
 1321 00b3 1F       		.byte	0x1f
 1322 00b4 65000000 		.4byte	0x65
 1323 00b8 03       		.uleb128 0x3
 1324 00b9 C6070000 		.4byte	.LASF16
 1325 00bd 04       		.byte	0x4
 1326 00be 20       		.byte	0x20
 1327 00bf 77000000 		.4byte	0x77
 1328 00c3 03       		.uleb128 0x3
 1329 00c4 35000000 		.4byte	.LASF17
 1330 00c8 04       		.byte	0x4
 1331 00c9 26       		.byte	0x26
 1332 00ca 90000000 		.4byte	0x90
 1333 00ce 03       		.uleb128 0x3
 1334 00cf B0070000 		.4byte	.LASF18
 1335 00d3 05       		.byte	0x5
 1336 00d4 39       		.byte	0x39
 1337 00d5 B8000000 		.4byte	0xb8
 1338 00d9 03       		.uleb128 0x3
 1339 00da 23010000 		.4byte	.LASF19
 1340 00de 05       		.byte	0x5
 1341 00df 3A       		.byte	0x3a
 1342 00e0 C3000000 		.4byte	0xc3
 1343 00e4 03       		.uleb128 0x3
 1344 00e5 67040000 		.4byte	.LASF20
 1345 00e9 05       		.byte	0x5
 1346 00ea 3C       		.byte	0x3c
 1347 00eb A2000000 		.4byte	0xa2
 1348 00ef 03       		.uleb128 0x3
 1349 00f0 E7010000 		.4byte	.LASF21
 1350 00f4 05       		.byte	0x5
 1351 00f5 3D       		.byte	0x3d
 1352 00f6 A2000000 		.4byte	0xa2
 1353 00fa 03       		.uleb128 0x3
 1354 00fb A6050000 		.4byte	.LASF22
 1355 00ff 05       		.byte	0x5
 1356 0100 3E       		.byte	0x3e
 1357 0101 A2000000 		.4byte	0xa2
 1358 0105 03       		.uleb128 0x3
 1359 0106 07060000 		.4byte	.LASF23
 1360 010a 05       		.byte	0x5
 1361 010b 40       		.byte	0x40
 1362 010c B8000000 		.4byte	0xb8
 1363 0110 03       		.uleb128 0x3
 1364 0111 27040000 		.4byte	.LASF24
ARM GAS  /tmp/ccyVQ1Qg.s 			page 25


 1365 0115 05       		.byte	0x5
 1366 0116 41       		.byte	0x41
 1367 0117 AD000000 		.4byte	0xad
 1368 011b 03       		.uleb128 0x3
 1369 011c 92040000 		.4byte	.LASF25
 1370 0120 05       		.byte	0x5
 1371 0121 43       		.byte	0x43
 1372 0122 B8000000 		.4byte	0xb8
 1373 0126 03       		.uleb128 0x3
 1374 0127 72020000 		.4byte	.LASF26
 1375 012b 05       		.byte	0x5
 1376 012c 45       		.byte	0x45
 1377 012d AD000000 		.4byte	0xad
 1378 0131 03       		.uleb128 0x3
 1379 0132 36040000 		.4byte	.LASF27
 1380 0136 05       		.byte	0x5
 1381 0137 46       		.byte	0x46
 1382 0138 B8000000 		.4byte	0xb8
 1383 013c 03       		.uleb128 0x3
 1384 013d 4A070000 		.4byte	.LASF28
 1385 0141 06       		.byte	0x6
 1386 0142 33       		.byte	0x33
 1387 0143 B8000000 		.4byte	0xb8
 1388 0147 03       		.uleb128 0x3
 1389 0148 3C070000 		.4byte	.LASF29
 1390 014c 06       		.byte	0x6
 1391 014d 3F       		.byte	0x3f
 1392 014e 52010000 		.4byte	0x152
 1393 0152 05       		.uleb128 0x5
 1394 0153 07040000 		.4byte	.LASF48
 1395 0157 60       		.byte	0x60
 1396 0158 07       		.byte	0x7
 1397 0159 9A       		.byte	0x9a
 1398 015a 3D020000 		.4byte	0x23d
 1399 015e 06       		.uleb128 0x6
 1400 015f 4A050000 		.4byte	.LASF30
 1401 0163 07       		.byte	0x7
 1402 0164 9B       		.byte	0x9b
 1403 0165 72020000 		.4byte	0x272
 1404 0169 00       		.byte	0
 1405 016a 06       		.uleb128 0x6
 1406 016b 7A050000 		.4byte	.LASF31
 1407 016f 07       		.byte	0x7
 1408 0170 9C       		.byte	0x9c
 1409 0171 05010000 		.4byte	0x105
 1410 0175 08       		.byte	0x8
 1411 0176 07       		.uleb128 0x7
 1412 0177 63747800 		.ascii	"ctx\000"
 1413 017b 07       		.byte	0x7
 1414 017c 9D       		.byte	0x9d
 1415 017d D4060000 		.4byte	0x6d4
 1416 0181 0C       		.byte	0xc
 1417 0182 06       		.uleb128 0x6
 1418 0183 B3040000 		.4byte	.LASF32
 1419 0187 07       		.byte	0x7
 1420 0188 9F       		.byte	0x9f
 1421 0189 48020000 		.4byte	0x248
ARM GAS  /tmp/ccyVQ1Qg.s 			page 26


 1422 018d 10       		.byte	0x10
 1423 018e 06       		.uleb128 0x6
 1424 018f 0D020000 		.4byte	.LASF33
 1425 0193 07       		.byte	0x7
 1426 0194 A0       		.byte	0xa0
 1427 0195 48020000 		.4byte	0x248
 1428 0199 14       		.byte	0x14
 1429 019a 06       		.uleb128 0x6
 1430 019b 02040000 		.4byte	.LASF34
 1431 019f 07       		.byte	0x7
 1432 01a0 A7       		.byte	0xa7
 1433 01a1 BB090000 		.4byte	0x9bb
 1434 01a5 18       		.byte	0x18
 1435 01a6 06       		.uleb128 0x6
 1436 01a7 06070000 		.4byte	.LASF35
 1437 01ab 07       		.byte	0x7
 1438 01ac B0       		.byte	0xb0
 1439 01ad CD090000 		.4byte	0x9cd
 1440 01b1 1C       		.byte	0x1c
 1441 01b2 06       		.uleb128 0x6
 1442 01b3 BB010000 		.4byte	.LASF36
 1443 01b7 07       		.byte	0x7
 1444 01b8 B5       		.byte	0xb5
 1445 01b9 EF000000 		.4byte	0xef
 1446 01bd 20       		.byte	0x20
 1447 01be 06       		.uleb128 0x6
 1448 01bf 0A080000 		.4byte	.LASF37
 1449 01c3 07       		.byte	0x7
 1450 01c4 B9       		.byte	0xb9
 1451 01c5 E4000000 		.4byte	0xe4
 1452 01c9 21       		.byte	0x21
 1453 01ca 06       		.uleb128 0x6
 1454 01cb 47010000 		.4byte	.LASF38
 1455 01cf 07       		.byte	0x7
 1456 01d0 BE       		.byte	0xbe
 1457 01d1 FA000000 		.4byte	0xfa
 1458 01d5 22       		.byte	0x22
 1459 01d6 08       		.uleb128 0x8
 1460 01d7 7500     		.ascii	"u\000"
 1461 01d9 07       		.byte	0x7
 1462 01da 0F01     		.2byte	0x10f
 1463 01dc F0080000 		.4byte	0x8f0
 1464 01e0 24       		.byte	0x24
 1465 01e1 09       		.uleb128 0x9
 1466 01e2 41020000 		.4byte	.LASF39
 1467 01e6 07       		.byte	0x7
 1468 01e7 1401     		.2byte	0x114
 1469 01e9 4E020000 		.4byte	0x24e
 1470 01ed 28       		.byte	0x28
 1471 01ee 09       		.uleb128 0x9
 1472 01ef B2010000 		.4byte	.LASF40
 1473 01f3 07       		.byte	0x7
 1474 01f4 1A01     		.2byte	0x11a
 1475 01f6 72020000 		.4byte	0x272
 1476 01fa 2C       		.byte	0x2c
 1477 01fb 09       		.uleb128 0x9
 1478 01fc 3D040000 		.4byte	.LASF41
ARM GAS  /tmp/ccyVQ1Qg.s 			page 27


 1479 0200 07       		.byte	0x7
 1480 0201 2001     		.2byte	0x120
 1481 0203 1B010000 		.4byte	0x11b
 1482 0207 34       		.byte	0x34
 1483 0208 09       		.uleb128 0x9
 1484 0209 52080000 		.4byte	.LASF42
 1485 020d 07       		.byte	0x7
 1486 020e 2701     		.2byte	0x127
 1487 0210 B5090000 		.4byte	0x9b5
 1488 0214 38       		.byte	0x38
 1489 0215 09       		.uleb128 0x9
 1490 0216 C9040000 		.4byte	.LASF43
 1491 021a 07       		.byte	0x7
 1492 021b 2B01     		.2byte	0x12b
 1493 021d 05010000 		.4byte	0x105
 1494 0221 3C       		.byte	0x3c
 1495 0222 09       		.uleb128 0x9
 1496 0223 DA030000 		.4byte	.LASF44
 1497 0227 07       		.byte	0x7
 1498 0228 3201     		.2byte	0x132
 1499 022a 25030000 		.4byte	0x325
 1500 022e 40       		.byte	0x40
 1501 022f 09       		.uleb128 0x9
 1502 0230 F5010000 		.4byte	.LASF45
 1503 0234 07       		.byte	0x7
 1504 0235 3801     		.2byte	0x138
 1505 0237 A1080000 		.4byte	0x8a1
 1506 023b 48       		.byte	0x48
 1507 023c 00       		.byte	0
 1508 023d 03       		.uleb128 0x3
 1509 023e 20050000 		.4byte	.LASF46
 1510 0242 06       		.byte	0x6
 1511 0243 44       		.byte	0x44
 1512 0244 48020000 		.4byte	0x248
 1513 0248 0A       		.uleb128 0xa
 1514 0249 04       		.byte	0x4
 1515 024a 47010000 		.4byte	0x147
 1516 024e 03       		.uleb128 0x3
 1517 024f 00000000 		.4byte	.LASF47
 1518 0253 06       		.byte	0x6
 1519 0254 49       		.byte	0x49
 1520 0255 59020000 		.4byte	0x259
 1521 0259 05       		.uleb128 0x5
 1522 025a CE060000 		.4byte	.LASF49
 1523 025e 04       		.byte	0x4
 1524 025f 07       		.byte	0x7
 1525 0260 88       		.byte	0x88
 1526 0261 72020000 		.4byte	0x272
 1527 0265 06       		.uleb128 0x6
 1528 0266 1E010000 		.4byte	.LASF50
 1529 026a 07       		.byte	0x7
 1530 026b 89       		.byte	0x89
 1531 026c 48020000 		.4byte	0x248
 1532 0270 00       		.byte	0
 1533 0271 00       		.byte	0
 1534 0272 03       		.uleb128 0x3
 1535 0273 DE070000 		.4byte	.LASF51
ARM GAS  /tmp/ccyVQ1Qg.s 			page 28


 1536 0277 06       		.byte	0x6
 1537 0278 50       		.byte	0x50
 1538 0279 7D020000 		.4byte	0x27d
 1539 027d 05       		.uleb128 0x5
 1540 027e 66000000 		.4byte	.LASF52
 1541 0282 08       		.byte	0x8
 1542 0283 07       		.byte	0x7
 1543 0284 8F       		.byte	0x8f
 1544 0285 A2020000 		.4byte	0x2a2
 1545 0289 06       		.uleb128 0x6
 1546 028a 1E010000 		.4byte	.LASF50
 1547 028e 07       		.byte	0x7
 1548 028f 90       		.byte	0x90
 1549 0290 48020000 		.4byte	0x248
 1550 0294 00       		.byte	0
 1551 0295 06       		.uleb128 0x6
 1552 0296 55000000 		.4byte	.LASF53
 1553 029a 07       		.byte	0x7
 1554 029b 91       		.byte	0x91
 1555 029c 48020000 		.4byte	0x248
 1556 02a0 04       		.byte	0x4
 1557 02a1 00       		.byte	0
 1558 02a2 03       		.uleb128 0x3
 1559 02a3 0F000000 		.4byte	.LASF54
 1560 02a7 06       		.byte	0x6
 1561 02a8 57       		.byte	0x57
 1562 02a9 AD020000 		.4byte	0x2ad
 1563 02ad 0B       		.uleb128 0xb
 1564 02ae 84040000 		.4byte	.LASF55
 1565 02b2 1C       		.byte	0x1c
 1566 02b3 07       		.byte	0x7
 1567 02b4 6A01     		.2byte	0x16a
 1568 02b6 09030000 		.4byte	0x309
 1569 02ba 09       		.uleb128 0x9
 1570 02bb 4A050000 		.4byte	.LASF30
 1571 02bf 07       		.byte	0x7
 1572 02c0 6B01     		.2byte	0x16b
 1573 02c2 72020000 		.4byte	0x272
 1574 02c6 00       		.byte	0
 1575 02c7 09       		.uleb128 0x9
 1576 02c8 7A050000 		.4byte	.LASF31
 1577 02cc 07       		.byte	0x7
 1578 02cd 6C01     		.2byte	0x16c
 1579 02cf 05010000 		.4byte	0x105
 1580 02d3 08       		.byte	0x8
 1581 02d4 08       		.uleb128 0x8
 1582 02d5 63747800 		.ascii	"ctx\000"
 1583 02d9 07       		.byte	0x7
 1584 02da 6E01     		.2byte	0x16e
 1585 02dc D4060000 		.4byte	0x6d4
 1586 02e0 0C       		.byte	0xc
 1587 02e1 09       		.uleb128 0x9
 1588 02e2 B3040000 		.4byte	.LASF32
 1589 02e6 07       		.byte	0x7
 1590 02e7 7101     		.2byte	0x171
 1591 02e9 48020000 		.4byte	0x248
 1592 02ed 10       		.byte	0x10
ARM GAS  /tmp/ccyVQ1Qg.s 			page 29


 1593 02ee 09       		.uleb128 0x9
 1594 02ef 0D020000 		.4byte	.LASF33
 1595 02f3 07       		.byte	0x7
 1596 02f4 7201     		.2byte	0x172
 1597 02f6 48020000 		.4byte	0x248
 1598 02fa 14       		.byte	0x14
 1599 02fb 09       		.uleb128 0x9
 1600 02fc 88050000 		.4byte	.LASF56
 1601 0300 07       		.byte	0x7
 1602 0301 7501     		.2byte	0x175
 1603 0303 48020000 		.4byte	0x248
 1604 0307 18       		.byte	0x18
 1605 0308 00       		.byte	0
 1606 0309 03       		.uleb128 0x3
 1607 030a 54070000 		.4byte	.LASF57
 1608 030e 06       		.byte	0x6
 1609 030f 5C       		.byte	0x5c
 1610 0310 14030000 		.4byte	0x314
 1611 0314 0A       		.uleb128 0xa
 1612 0315 04       		.byte	0x4
 1613 0316 1A030000 		.4byte	0x31a
 1614 031a 0C       		.uleb128 0xc
 1615 031b 25030000 		.4byte	0x325
 1616 031f 0D       		.uleb128 0xd
 1617 0320 25030000 		.4byte	0x325
 1618 0324 00       		.byte	0
 1619 0325 0E       		.uleb128 0xe
 1620 0326 04       		.byte	0x4
 1621 0327 03       		.uleb128 0x3
 1622 0328 B9040000 		.4byte	.LASF58
 1623 032c 06       		.byte	0x6
 1624 032d 61       		.byte	0x61
 1625 032e 32030000 		.4byte	0x332
 1626 0332 0B       		.uleb128 0xb
 1627 0333 72060000 		.4byte	.LASF59
 1628 0337 14       		.byte	0x14
 1629 0338 07       		.byte	0x7
 1630 0339 4501     		.2byte	0x145
 1631 033b 81030000 		.4byte	0x381
 1632 033f 09       		.uleb128 0x9
 1633 0340 1E010000 		.4byte	.LASF50
 1634 0344 07       		.byte	0x7
 1635 0345 4601     		.2byte	0x146
 1636 0347 D3090000 		.4byte	0x9d3
 1637 034b 00       		.byte	0
 1638 034c 09       		.uleb128 0x9
 1639 034d 55000000 		.4byte	.LASF53
 1640 0351 07       		.byte	0x7
 1641 0352 4701     		.2byte	0x147
 1642 0354 D3090000 		.4byte	0x9d3
 1643 0358 04       		.byte	0x4
 1644 0359 09       		.uleb128 0x9
 1645 035a 28000000 		.4byte	.LASF60
 1646 035e 07       		.byte	0x7
 1647 035f 4801     		.2byte	0x148
 1648 0361 3C010000 		.4byte	0x13c
 1649 0365 08       		.byte	0x8
ARM GAS  /tmp/ccyVQ1Qg.s 			page 30


 1650 0366 09       		.uleb128 0x9
 1651 0367 F0010000 		.4byte	.LASF61
 1652 036b 07       		.byte	0x7
 1653 036c 4901     		.2byte	0x149
 1654 036e 09030000 		.4byte	0x309
 1655 0372 0C       		.byte	0xc
 1656 0373 08       		.uleb128 0x8
 1657 0374 70617200 		.ascii	"par\000"
 1658 0378 07       		.byte	0x7
 1659 0379 4B01     		.2byte	0x14b
 1660 037b 25030000 		.4byte	0x325
 1661 037f 10       		.byte	0x10
 1662 0380 00       		.byte	0
 1663 0381 03       		.uleb128 0x3
 1664 0382 FB000000 		.4byte	.LASF62
 1665 0386 06       		.byte	0x6
 1666 0387 66       		.byte	0x66
 1667 0388 8C030000 		.4byte	0x38c
 1668 038c 0B       		.uleb128 0xb
 1669 038d 33050000 		.4byte	.LASF63
 1670 0391 10       		.byte	0x10
 1671 0392 07       		.byte	0x7
 1672 0393 5501     		.2byte	0x155
 1673 0395 CE030000 		.4byte	0x3ce
 1674 0399 09       		.uleb128 0x9
 1675 039a 1E010000 		.4byte	.LASF50
 1676 039e 07       		.byte	0x7
 1677 039f 5601     		.2byte	0x156
 1678 03a1 D3090000 		.4byte	0x9d3
 1679 03a5 00       		.byte	0
 1680 03a6 09       		.uleb128 0x9
 1681 03a7 55000000 		.4byte	.LASF53
 1682 03ab 07       		.byte	0x7
 1683 03ac 5801     		.2byte	0x158
 1684 03ae D3090000 		.4byte	0x9d3
 1685 03b2 04       		.byte	0x4
 1686 03b3 09       		.uleb128 0x9
 1687 03b4 28000000 		.4byte	.LASF60
 1688 03b8 07       		.byte	0x7
 1689 03b9 5A01     		.2byte	0x15a
 1690 03bb 3C010000 		.4byte	0x13c
 1691 03bf 08       		.byte	0x8
 1692 03c0 09       		.uleb128 0x9
 1693 03c1 47060000 		.4byte	.LASF64
 1694 03c5 07       		.byte	0x7
 1695 03c6 6201     		.2byte	0x162
 1696 03c8 3C010000 		.4byte	0x13c
 1697 03cc 0C       		.byte	0xc
 1698 03cd 00       		.byte	0
 1699 03ce 03       		.uleb128 0x3
 1700 03cf 77000000 		.4byte	.LASF65
 1701 03d3 06       		.byte	0x6
 1702 03d4 6B       		.byte	0x6b
 1703 03d5 D9030000 		.4byte	0x3d9
 1704 03d9 0B       		.uleb128 0xb
 1705 03da 31020000 		.4byte	.LASF66
 1706 03de 04       		.byte	0x4
ARM GAS  /tmp/ccyVQ1Qg.s 			page 31


 1707 03df 07       		.byte	0x7
 1708 03e0 7C01     		.2byte	0x17c
 1709 03e2 F4030000 		.4byte	0x3f4
 1710 03e6 09       		.uleb128 0x9
 1711 03e7 67070000 		.4byte	.LASF67
 1712 03eb 07       		.byte	0x7
 1713 03ec 8401     		.2byte	0x184
 1714 03ee D9090000 		.4byte	0x9d9
 1715 03f2 00       		.byte	0
 1716 03f3 00       		.byte	0
 1717 03f4 03       		.uleb128 0x3
 1718 03f5 A4070000 		.4byte	.LASF68
 1719 03f9 06       		.byte	0x6
 1720 03fa 70       		.byte	0x70
 1721 03fb FF030000 		.4byte	0x3ff
 1722 03ff 0B       		.uleb128 0xb
 1723 0400 C1010000 		.4byte	.LASF69
 1724 0404 D0       		.byte	0xd0
 1725 0405 07       		.byte	0x7
 1726 0406 9C01     		.2byte	0x19c
 1727 0408 5A040000 		.4byte	0x45a
 1728 040c 09       		.uleb128 0x9
 1729 040d FC070000 		.4byte	.LASF70
 1730 0411 07       		.byte	0x7
 1731 0412 A001     		.2byte	0x1a0
 1732 0414 A2020000 		.4byte	0x2a2
 1733 0418 00       		.byte	0
 1734 0419 09       		.uleb128 0x9
 1735 041a 6F010000 		.4byte	.LASF71
 1736 041e 07       		.byte	0x7
 1737 041f A401     		.2byte	0x1a4
 1738 0421 81030000 		.4byte	0x381
 1739 0425 1C       		.byte	0x1c
 1740 0426 08       		.uleb128 0x8
 1741 0427 64626700 		.ascii	"dbg\000"
 1742 042b 07       		.byte	0x7
 1743 042c A801     		.2byte	0x1a8
 1744 042e CE030000 		.4byte	0x3ce
 1745 0432 2C       		.byte	0x2c
 1746 0433 09       		.uleb128 0x9
 1747 0434 1C040000 		.4byte	.LASF72
 1748 0438 07       		.byte	0x7
 1749 0439 AC01     		.2byte	0x1ac
 1750 043b 47010000 		.4byte	0x147
 1751 043f 30       		.byte	0x30
 1752 0440 08       		.uleb128 0x8
 1753 0441 746D00   		.ascii	"tm\000"
 1754 0444 07       		.byte	0x7
 1755 0445 B101     		.2byte	0x1b1
 1756 0447 53080000 		.4byte	0x853
 1757 044b 90       		.byte	0x90
 1758 044c 09       		.uleb128 0x9
 1759 044d 3E000000 		.4byte	.LASF73
 1760 0451 07       		.byte	0x7
 1761 0452 B701     		.2byte	0x1b7
 1762 0454 E5080000 		.4byte	0x8e5
 1763 0458 98       		.byte	0x98
ARM GAS  /tmp/ccyVQ1Qg.s 			page 32


 1764 0459 00       		.byte	0
 1765 045a 04       		.uleb128 0x4
 1766 045b 04       		.byte	0x4
 1767 045c 07       		.byte	0x7
 1768 045d 17050000 		.4byte	.LASF74
 1769 0461 0F       		.uleb128 0xf
 1770 0462 B8000000 		.4byte	0xb8
 1771 0466 10       		.uleb128 0x10
 1772 0467 B8000000 		.4byte	0xb8
 1773 046b 76040000 		.4byte	0x476
 1774 046f 11       		.uleb128 0x11
 1775 0470 5A040000 		.4byte	0x45a
 1776 0474 01       		.byte	0x1
 1777 0475 00       		.byte	0
 1778 0476 12       		.uleb128 0x12
 1779 0477 18       		.byte	0x18
 1780 0478 08       		.byte	0x8
 1781 0479 6B01     		.2byte	0x16b
 1782 047b CD040000 		.4byte	0x4cd
 1783 047f 08       		.uleb128 0x8
 1784 0480 435200   		.ascii	"CR\000"
 1785 0483 08       		.byte	0x8
 1786 0484 6D01     		.2byte	0x16d
 1787 0486 61040000 		.4byte	0x461
 1788 048a 00       		.byte	0
 1789 048b 09       		.uleb128 0x9
 1790 048c 62070000 		.4byte	.LASF75
 1791 0490 08       		.byte	0x8
 1792 0491 6E01     		.2byte	0x16e
 1793 0493 61040000 		.4byte	0x461
 1794 0497 04       		.byte	0x4
 1795 0498 08       		.uleb128 0x8
 1796 0499 50415200 		.ascii	"PAR\000"
 1797 049d 08       		.byte	0x8
 1798 049e 6F01     		.2byte	0x16f
 1799 04a0 61040000 		.4byte	0x461
 1800 04a4 08       		.byte	0x8
 1801 04a5 09       		.uleb128 0x9
 1802 04a6 1C000000 		.4byte	.LASF76
 1803 04aa 08       		.byte	0x8
 1804 04ab 7001     		.2byte	0x170
 1805 04ad 61040000 		.4byte	0x461
 1806 04b1 0C       		.byte	0xc
 1807 04b2 09       		.uleb128 0x9
 1808 04b3 B8070000 		.4byte	.LASF77
 1809 04b7 08       		.byte	0x8
 1810 04b8 7101     		.2byte	0x171
 1811 04ba 61040000 		.4byte	0x461
 1812 04be 10       		.byte	0x10
 1813 04bf 08       		.uleb128 0x8
 1814 04c0 46435200 		.ascii	"FCR\000"
 1815 04c4 08       		.byte	0x8
 1816 04c5 7201     		.2byte	0x172
 1817 04c7 61040000 		.4byte	0x461
 1818 04cb 14       		.byte	0x14
 1819 04cc 00       		.byte	0
 1820 04cd 13       		.uleb128 0x13
ARM GAS  /tmp/ccyVQ1Qg.s 			page 33


 1821 04ce 78070000 		.4byte	.LASF78
 1822 04d2 08       		.byte	0x8
 1823 04d3 7301     		.2byte	0x173
 1824 04d5 76040000 		.4byte	0x476
 1825 04d9 12       		.uleb128 0x12
 1826 04da 10       		.byte	0x10
 1827 04db 08       		.byte	0x8
 1828 04dc 7501     		.2byte	0x175
 1829 04de 17050000 		.4byte	0x517
 1830 04e2 09       		.uleb128 0x9
 1831 04e3 84080000 		.4byte	.LASF79
 1832 04e7 08       		.byte	0x8
 1833 04e8 7701     		.2byte	0x177
 1834 04ea 61040000 		.4byte	0x461
 1835 04ee 00       		.byte	0
 1836 04ef 09       		.uleb128 0x9
 1837 04f0 62040000 		.4byte	.LASF80
 1838 04f4 08       		.byte	0x8
 1839 04f5 7801     		.2byte	0x178
 1840 04f7 61040000 		.4byte	0x461
 1841 04fb 04       		.byte	0x4
 1842 04fc 09       		.uleb128 0x9
 1843 04fd 11050000 		.4byte	.LASF81
 1844 0501 08       		.byte	0x8
 1845 0502 7901     		.2byte	0x179
 1846 0504 61040000 		.4byte	0x461
 1847 0508 08       		.byte	0x8
 1848 0509 09       		.uleb128 0x9
 1849 050a 65080000 		.4byte	.LASF82
 1850 050e 08       		.byte	0x8
 1851 050f 7A01     		.2byte	0x17a
 1852 0511 61040000 		.4byte	0x461
 1853 0515 0C       		.byte	0xc
 1854 0516 00       		.byte	0
 1855 0517 13       		.uleb128 0x13
 1856 0518 66020000 		.4byte	.LASF83
 1857 051c 08       		.byte	0x8
 1858 051d 7B01     		.2byte	0x17b
 1859 051f D9040000 		.4byte	0x4d9
 1860 0523 12       		.uleb128 0x12
 1861 0524 88       		.byte	0x88
 1862 0525 08       		.byte	0x8
 1863 0526 6602     		.2byte	0x266
 1864 0528 B2060000 		.4byte	0x6b2
 1865 052c 08       		.uleb128 0x8
 1866 052d 435200   		.ascii	"CR\000"
 1867 0530 08       		.byte	0x8
 1868 0531 6802     		.2byte	0x268
 1869 0533 61040000 		.4byte	0x461
 1870 0537 00       		.byte	0
 1871 0538 09       		.uleb128 0x9
 1872 0539 FB010000 		.4byte	.LASF84
 1873 053d 08       		.byte	0x8
 1874 053e 6902     		.2byte	0x269
 1875 0540 61040000 		.4byte	0x461
 1876 0544 04       		.byte	0x4
 1877 0545 09       		.uleb128 0x9
ARM GAS  /tmp/ccyVQ1Qg.s 			page 34


 1878 0546 2F080000 		.4byte	.LASF85
 1879 054a 08       		.byte	0x8
 1880 054b 6A02     		.2byte	0x26a
 1881 054d 61040000 		.4byte	0x461
 1882 0551 08       		.byte	0x8
 1883 0552 08       		.uleb128 0x8
 1884 0553 43495200 		.ascii	"CIR\000"
 1885 0557 08       		.byte	0x8
 1886 0558 6B02     		.2byte	0x26b
 1887 055a 61040000 		.4byte	0x461
 1888 055e 0C       		.byte	0xc
 1889 055f 09       		.uleb128 0x9
 1890 0560 66010000 		.4byte	.LASF86
 1891 0564 08       		.byte	0x8
 1892 0565 6C02     		.2byte	0x26c
 1893 0567 61040000 		.4byte	0x461
 1894 056b 10       		.byte	0x10
 1895 056c 09       		.uleb128 0x9
 1896 056d 33070000 		.4byte	.LASF87
 1897 0571 08       		.byte	0x8
 1898 0572 6D02     		.2byte	0x26d
 1899 0574 61040000 		.4byte	0x461
 1900 0578 14       		.byte	0x14
 1901 0579 09       		.uleb128 0x9
 1902 057a 2D040000 		.4byte	.LASF88
 1903 057e 08       		.byte	0x8
 1904 057f 6E02     		.2byte	0x26e
 1905 0581 61040000 		.4byte	0x461
 1906 0585 18       		.byte	0x18
 1907 0586 09       		.uleb128 0x9
 1908 0587 AE050000 		.4byte	.LASF89
 1909 058b 08       		.byte	0x8
 1910 058c 6F02     		.2byte	0x26f
 1911 058e B8000000 		.4byte	0xb8
 1912 0592 1C       		.byte	0x1c
 1913 0593 09       		.uleb128 0x9
 1914 0594 7F050000 		.4byte	.LASF90
 1915 0598 08       		.byte	0x8
 1916 0599 7002     		.2byte	0x270
 1917 059b 61040000 		.4byte	0x461
 1918 059f 20       		.byte	0x20
 1919 05a0 09       		.uleb128 0x9
 1920 05a1 D4010000 		.4byte	.LASF91
 1921 05a5 08       		.byte	0x8
 1922 05a6 7102     		.2byte	0x271
 1923 05a8 61040000 		.4byte	0x461
 1924 05ac 24       		.byte	0x24
 1925 05ad 09       		.uleb128 0x9
 1926 05ae B8050000 		.4byte	.LASF92
 1927 05b2 08       		.byte	0x8
 1928 05b3 7202     		.2byte	0x272
 1929 05b5 66040000 		.4byte	0x466
 1930 05b9 28       		.byte	0x28
 1931 05ba 09       		.uleb128 0x9
 1932 05bb 51020000 		.4byte	.LASF93
 1933 05bf 08       		.byte	0x8
 1934 05c0 7302     		.2byte	0x273
ARM GAS  /tmp/ccyVQ1Qg.s 			page 35


 1935 05c2 61040000 		.4byte	0x461
 1936 05c6 30       		.byte	0x30
 1937 05c7 09       		.uleb128 0x9
 1938 05c8 8B070000 		.4byte	.LASF94
 1939 05cc 08       		.byte	0x8
 1940 05cd 7402     		.2byte	0x274
 1941 05cf 61040000 		.4byte	0x461
 1942 05d3 34       		.byte	0x34
 1943 05d4 09       		.uleb128 0x9
 1944 05d5 B6030000 		.4byte	.LASF95
 1945 05d9 08       		.byte	0x8
 1946 05da 7502     		.2byte	0x275
 1947 05dc 61040000 		.4byte	0x461
 1948 05e0 38       		.byte	0x38
 1949 05e1 09       		.uleb128 0x9
 1950 05e2 C2050000 		.4byte	.LASF96
 1951 05e6 08       		.byte	0x8
 1952 05e7 7602     		.2byte	0x276
 1953 05e9 B8000000 		.4byte	0xb8
 1954 05ed 3C       		.byte	0x3c
 1955 05ee 09       		.uleb128 0x9
 1956 05ef E4060000 		.4byte	.LASF97
 1957 05f3 08       		.byte	0x8
 1958 05f4 7702     		.2byte	0x277
 1959 05f6 61040000 		.4byte	0x461
 1960 05fa 40       		.byte	0x40
 1961 05fb 09       		.uleb128 0x9
 1962 05fc 6A060000 		.4byte	.LASF98
 1963 0600 08       		.byte	0x8
 1964 0601 7802     		.2byte	0x278
 1965 0603 61040000 		.4byte	0x461
 1966 0607 44       		.byte	0x44
 1967 0608 09       		.uleb128 0x9
 1968 0609 CC050000 		.4byte	.LASF99
 1969 060d 08       		.byte	0x8
 1970 060e 7902     		.2byte	0x279
 1971 0610 66040000 		.4byte	0x466
 1972 0614 48       		.byte	0x48
 1973 0615 09       		.uleb128 0x9
 1974 0616 2C010000 		.4byte	.LASF100
 1975 061a 08       		.byte	0x8
 1976 061b 7A02     		.2byte	0x27a
 1977 061d 61040000 		.4byte	0x461
 1978 0621 50       		.byte	0x50
 1979 0622 09       		.uleb128 0x9
 1980 0623 56050000 		.4byte	.LASF101
 1981 0627 08       		.byte	0x8
 1982 0628 7B02     		.2byte	0x27b
 1983 062a 61040000 		.4byte	0x461
 1984 062e 54       		.byte	0x54
 1985 062f 09       		.uleb128 0x9
 1986 0630 50060000 		.4byte	.LASF102
 1987 0634 08       		.byte	0x8
 1988 0635 7C02     		.2byte	0x27c
 1989 0637 61040000 		.4byte	0x461
 1990 063b 58       		.byte	0x58
 1991 063c 09       		.uleb128 0x9
ARM GAS  /tmp/ccyVQ1Qg.s 			page 36


 1992 063d D6050000 		.4byte	.LASF103
 1993 0641 08       		.byte	0x8
 1994 0642 7D02     		.2byte	0x27d
 1995 0644 B8000000 		.4byte	0xb8
 1996 0648 5C       		.byte	0x5c
 1997 0649 09       		.uleb128 0x9
 1998 064a DD010000 		.4byte	.LASF104
 1999 064e 08       		.byte	0x8
 2000 064f 7E02     		.2byte	0x27e
 2001 0651 61040000 		.4byte	0x461
 2002 0655 60       		.byte	0x60
 2003 0656 09       		.uleb128 0x9
 2004 0657 6F040000 		.4byte	.LASF105
 2005 065b 08       		.byte	0x8
 2006 065c 7F02     		.2byte	0x27f
 2007 065e 61040000 		.4byte	0x461
 2008 0662 64       		.byte	0x64
 2009 0663 09       		.uleb128 0x9
 2010 0664 E0050000 		.4byte	.LASF106
 2011 0668 08       		.byte	0x8
 2012 0669 8002     		.2byte	0x280
 2013 066b 66040000 		.4byte	0x466
 2014 066f 68       		.byte	0x68
 2015 0670 09       		.uleb128 0x9
 2016 0671 F7070000 		.4byte	.LASF107
 2017 0675 08       		.byte	0x8
 2018 0676 8102     		.2byte	0x281
 2019 0678 61040000 		.4byte	0x461
 2020 067c 70       		.byte	0x70
 2021 067d 08       		.uleb128 0x8
 2022 067e 43535200 		.ascii	"CSR\000"
 2023 0682 08       		.byte	0x8
 2024 0683 8202     		.2byte	0x282
 2025 0685 61040000 		.4byte	0x461
 2026 0689 74       		.byte	0x74
 2027 068a 09       		.uleb128 0x9
 2028 068b EA050000 		.4byte	.LASF108
 2029 068f 08       		.byte	0x8
 2030 0690 8302     		.2byte	0x283
 2031 0692 66040000 		.4byte	0x466
 2032 0696 78       		.byte	0x78
 2033 0697 09       		.uleb128 0x9
 2034 0698 CF070000 		.4byte	.LASF109
 2035 069c 08       		.byte	0x8
 2036 069d 8402     		.2byte	0x284
 2037 069f 61040000 		.4byte	0x461
 2038 06a3 80       		.byte	0x80
 2039 06a4 09       		.uleb128 0x9
 2040 06a5 11040000 		.4byte	.LASF110
 2041 06a9 08       		.byte	0x8
 2042 06aa 8502     		.2byte	0x285
 2043 06ac 61040000 		.4byte	0x461
 2044 06b0 84       		.byte	0x84
 2045 06b1 00       		.byte	0
 2046 06b2 13       		.uleb128 0x13
 2047 06b3 BE030000 		.4byte	.LASF111
 2048 06b7 08       		.byte	0x8
ARM GAS  /tmp/ccyVQ1Qg.s 			page 37


 2049 06b8 8702     		.2byte	0x287
 2050 06ba 23050000 		.4byte	0x523
 2051 06be 03       		.uleb128 0x3
 2052 06bf 1E020000 		.4byte	.LASF112
 2053 06c3 09       		.byte	0x9
 2054 06c4 65       		.byte	0x65
 2055 06c5 25030000 		.4byte	0x325
 2056 06c9 03       		.uleb128 0x3
 2057 06ca A8040000 		.4byte	.LASF113
 2058 06ce 09       		.byte	0x9
 2059 06cf 6D       		.byte	0x6d
 2060 06d0 C3000000 		.4byte	0xc3
 2061 06d4 05       		.uleb128 0x5
 2062 06d5 59020000 		.4byte	.LASF114
 2063 06d9 04       		.byte	0x4
 2064 06da 09       		.byte	0x9
 2065 06db 89       		.byte	0x89
 2066 06dc EC060000 		.4byte	0x6ec
 2067 06e0 07       		.uleb128 0x7
 2068 06e1 737000   		.ascii	"sp\000"
 2069 06e4 09       		.byte	0x9
 2070 06e5 8A       		.byte	0x8a
 2071 06e6 38080000 		.4byte	0x838
 2072 06ea 00       		.byte	0
 2073 06eb 00       		.byte	0
 2074 06ec 0B       		.uleb128 0xb
 2075 06ed 5A000000 		.4byte	.LASF115
 2076 06f1 64       		.byte	0x64
 2077 06f2 0A       		.byte	0xa
 2078 06f3 5901     		.2byte	0x159
 2079 06f5 38080000 		.4byte	0x838
 2080 06f9 08       		.uleb128 0x8
 2081 06fa 73313600 		.ascii	"s16\000"
 2082 06fe 0A       		.byte	0xa
 2083 06ff 5B01     		.2byte	0x15b
 2084 0701 BE060000 		.4byte	0x6be
 2085 0705 00       		.byte	0
 2086 0706 08       		.uleb128 0x8
 2087 0707 73313700 		.ascii	"s17\000"
 2088 070b 0A       		.byte	0xa
 2089 070c 5C01     		.2byte	0x15c
 2090 070e BE060000 		.4byte	0x6be
 2091 0712 04       		.byte	0x4
 2092 0713 08       		.uleb128 0x8
 2093 0714 73313800 		.ascii	"s18\000"
 2094 0718 0A       		.byte	0xa
 2095 0719 5D01     		.2byte	0x15d
 2096 071b BE060000 		.4byte	0x6be
 2097 071f 08       		.byte	0x8
 2098 0720 08       		.uleb128 0x8
 2099 0721 73313900 		.ascii	"s19\000"
 2100 0725 0A       		.byte	0xa
 2101 0726 5E01     		.2byte	0x15e
 2102 0728 BE060000 		.4byte	0x6be
 2103 072c 0C       		.byte	0xc
 2104 072d 08       		.uleb128 0x8
 2105 072e 73323000 		.ascii	"s20\000"
ARM GAS  /tmp/ccyVQ1Qg.s 			page 38


 2106 0732 0A       		.byte	0xa
 2107 0733 5F01     		.2byte	0x15f
 2108 0735 BE060000 		.4byte	0x6be
 2109 0739 10       		.byte	0x10
 2110 073a 08       		.uleb128 0x8
 2111 073b 73323100 		.ascii	"s21\000"
 2112 073f 0A       		.byte	0xa
 2113 0740 6001     		.2byte	0x160
 2114 0742 BE060000 		.4byte	0x6be
 2115 0746 14       		.byte	0x14
 2116 0747 08       		.uleb128 0x8
 2117 0748 73323200 		.ascii	"s22\000"
 2118 074c 0A       		.byte	0xa
 2119 074d 6101     		.2byte	0x161
 2120 074f BE060000 		.4byte	0x6be
 2121 0753 18       		.byte	0x18
 2122 0754 08       		.uleb128 0x8
 2123 0755 73323300 		.ascii	"s23\000"
 2124 0759 0A       		.byte	0xa
 2125 075a 6201     		.2byte	0x162
 2126 075c BE060000 		.4byte	0x6be
 2127 0760 1C       		.byte	0x1c
 2128 0761 08       		.uleb128 0x8
 2129 0762 73323400 		.ascii	"s24\000"
 2130 0766 0A       		.byte	0xa
 2131 0767 6301     		.2byte	0x163
 2132 0769 BE060000 		.4byte	0x6be
 2133 076d 20       		.byte	0x20
 2134 076e 08       		.uleb128 0x8
 2135 076f 73323500 		.ascii	"s25\000"
 2136 0773 0A       		.byte	0xa
 2137 0774 6401     		.2byte	0x164
 2138 0776 BE060000 		.4byte	0x6be
 2139 077a 24       		.byte	0x24
 2140 077b 08       		.uleb128 0x8
 2141 077c 73323600 		.ascii	"s26\000"
 2142 0780 0A       		.byte	0xa
 2143 0781 6501     		.2byte	0x165
 2144 0783 BE060000 		.4byte	0x6be
 2145 0787 28       		.byte	0x28
 2146 0788 08       		.uleb128 0x8
 2147 0789 73323700 		.ascii	"s27\000"
 2148 078d 0A       		.byte	0xa
 2149 078e 6601     		.2byte	0x166
 2150 0790 BE060000 		.4byte	0x6be
 2151 0794 2C       		.byte	0x2c
 2152 0795 08       		.uleb128 0x8
 2153 0796 73323800 		.ascii	"s28\000"
 2154 079a 0A       		.byte	0xa
 2155 079b 6701     		.2byte	0x167
 2156 079d BE060000 		.4byte	0x6be
 2157 07a1 30       		.byte	0x30
 2158 07a2 08       		.uleb128 0x8
 2159 07a3 73323900 		.ascii	"s29\000"
 2160 07a7 0A       		.byte	0xa
 2161 07a8 6801     		.2byte	0x168
 2162 07aa BE060000 		.4byte	0x6be
ARM GAS  /tmp/ccyVQ1Qg.s 			page 39


 2163 07ae 34       		.byte	0x34
 2164 07af 08       		.uleb128 0x8
 2165 07b0 73333000 		.ascii	"s30\000"
 2166 07b4 0A       		.byte	0xa
 2167 07b5 6901     		.2byte	0x169
 2168 07b7 BE060000 		.4byte	0x6be
 2169 07bb 38       		.byte	0x38
 2170 07bc 08       		.uleb128 0x8
 2171 07bd 73333100 		.ascii	"s31\000"
 2172 07c1 0A       		.byte	0xa
 2173 07c2 6A01     		.2byte	0x16a
 2174 07c4 BE060000 		.4byte	0x6be
 2175 07c8 3C       		.byte	0x3c
 2176 07c9 08       		.uleb128 0x8
 2177 07ca 723400   		.ascii	"r4\000"
 2178 07cd 0A       		.byte	0xa
 2179 07ce 6C01     		.2byte	0x16c
 2180 07d0 BE060000 		.4byte	0x6be
 2181 07d4 40       		.byte	0x40
 2182 07d5 08       		.uleb128 0x8
 2183 07d6 723500   		.ascii	"r5\000"
 2184 07d9 0A       		.byte	0xa
 2185 07da 6D01     		.2byte	0x16d
 2186 07dc BE060000 		.4byte	0x6be
 2187 07e0 44       		.byte	0x44
 2188 07e1 08       		.uleb128 0x8
 2189 07e2 723600   		.ascii	"r6\000"
 2190 07e5 0A       		.byte	0xa
 2191 07e6 6E01     		.2byte	0x16e
 2192 07e8 BE060000 		.4byte	0x6be
 2193 07ec 48       		.byte	0x48
 2194 07ed 08       		.uleb128 0x8
 2195 07ee 723700   		.ascii	"r7\000"
 2196 07f1 0A       		.byte	0xa
 2197 07f2 6F01     		.2byte	0x16f
 2198 07f4 BE060000 		.4byte	0x6be
 2199 07f8 4C       		.byte	0x4c
 2200 07f9 08       		.uleb128 0x8
 2201 07fa 723800   		.ascii	"r8\000"
 2202 07fd 0A       		.byte	0xa
 2203 07fe 7001     		.2byte	0x170
 2204 0800 BE060000 		.4byte	0x6be
 2205 0804 50       		.byte	0x50
 2206 0805 08       		.uleb128 0x8
 2207 0806 723900   		.ascii	"r9\000"
 2208 0809 0A       		.byte	0xa
 2209 080a 7101     		.2byte	0x171
 2210 080c BE060000 		.4byte	0x6be
 2211 0810 54       		.byte	0x54
 2212 0811 08       		.uleb128 0x8
 2213 0812 72313000 		.ascii	"r10\000"
 2214 0816 0A       		.byte	0xa
 2215 0817 7201     		.2byte	0x172
 2216 0819 BE060000 		.4byte	0x6be
 2217 081d 58       		.byte	0x58
 2218 081e 08       		.uleb128 0x8
 2219 081f 72313100 		.ascii	"r11\000"
ARM GAS  /tmp/ccyVQ1Qg.s 			page 40


 2220 0823 0A       		.byte	0xa
 2221 0824 7301     		.2byte	0x173
 2222 0826 BE060000 		.4byte	0x6be
 2223 082a 5C       		.byte	0x5c
 2224 082b 08       		.uleb128 0x8
 2225 082c 6C7200   		.ascii	"lr\000"
 2226 082f 0A       		.byte	0xa
 2227 0830 7401     		.2byte	0x174
 2228 0832 BE060000 		.4byte	0x6be
 2229 0836 60       		.byte	0x60
 2230 0837 00       		.byte	0
 2231 0838 0A       		.uleb128 0xa
 2232 0839 04       		.byte	0x4
 2233 083a EC060000 		.4byte	0x6ec
 2234 083e 14       		.uleb128 0x14
 2235 083f 04       		.byte	0x4
 2236 0840 0B       		.byte	0xb
 2237 0841 38       		.byte	0x38
 2238 0842 53080000 		.4byte	0x853
 2239 0846 06       		.uleb128 0x6
 2240 0847 71070000 		.4byte	.LASF116
 2241 084b 0B       		.byte	0xb
 2242 084c 3C       		.byte	0x3c
 2243 084d CE000000 		.4byte	0xce
 2244 0851 00       		.byte	0
 2245 0852 00       		.byte	0
 2246 0853 03       		.uleb128 0x3
 2247 0854 69050000 		.4byte	.LASF117
 2248 0858 0B       		.byte	0xb
 2249 0859 3D       		.byte	0x3d
 2250 085a 3E080000 		.4byte	0x83e
 2251 085e 14       		.uleb128 0x14
 2252 085f 18       		.byte	0x18
 2253 0860 0B       		.byte	0xb
 2254 0861 48       		.byte	0x48
 2255 0862 A1080000 		.4byte	0x8a1
 2256 0866 06       		.uleb128 0x6
 2257 0867 45070000 		.4byte	.LASF118
 2258 086b 0B       		.byte	0xb
 2259 086c 49       		.byte	0x49
 2260 086d CE000000 		.4byte	0xce
 2261 0871 00       		.byte	0
 2262 0872 06       		.uleb128 0x6
 2263 0873 A7000000 		.4byte	.LASF119
 2264 0877 0B       		.byte	0xb
 2265 0878 4A       		.byte	0x4a
 2266 0879 CE000000 		.4byte	0xce
 2267 087d 04       		.byte	0x4
 2268 087e 06       		.uleb128 0x6
 2269 087f 5D070000 		.4byte	.LASF120
 2270 0883 0B       		.byte	0xb
 2271 0884 4B       		.byte	0x4b
 2272 0885 CE000000 		.4byte	0xce
 2273 0889 08       		.byte	0x8
 2274 088a 07       		.uleb128 0x7
 2275 088b 6E00     		.ascii	"n\000"
 2276 088d 0B       		.byte	0xb
ARM GAS  /tmp/ccyVQ1Qg.s 			page 41


 2277 088e 4C       		.byte	0x4c
 2278 088f 31010000 		.4byte	0x131
 2279 0893 0C       		.byte	0xc
 2280 0894 06       		.uleb128 0x6
 2281 0895 9B050000 		.4byte	.LASF121
 2282 0899 0B       		.byte	0xb
 2283 089a 4D       		.byte	0x4d
 2284 089b D9000000 		.4byte	0xd9
 2285 089f 10       		.byte	0x10
 2286 08a0 00       		.byte	0
 2287 08a1 03       		.uleb128 0x3
 2288 08a2 AD000000 		.4byte	.LASF122
 2289 08a6 0B       		.byte	0xb
 2290 08a7 4E       		.byte	0x4e
 2291 08a8 5E080000 		.4byte	0x85e
 2292 08ac 14       		.uleb128 0x14
 2293 08ad 38       		.byte	0x38
 2294 08ae 0C       		.byte	0xc
 2295 08af 38       		.byte	0x38
 2296 08b0 E5080000 		.4byte	0x8e5
 2297 08b4 06       		.uleb128 0x6
 2298 08b5 A5010000 		.4byte	.LASF123
 2299 08b9 0C       		.byte	0xc
 2300 08ba 39       		.byte	0x39
 2301 08bb 31010000 		.4byte	0x131
 2302 08bf 00       		.byte	0
 2303 08c0 06       		.uleb128 0x6
 2304 08c1 18060000 		.4byte	.LASF124
 2305 08c5 0C       		.byte	0xc
 2306 08c6 3A       		.byte	0x3a
 2307 08c7 31010000 		.4byte	0x131
 2308 08cb 04       		.byte	0x4
 2309 08cc 06       		.uleb128 0x6
 2310 08cd 5A080000 		.4byte	.LASF125
 2311 08d1 0C       		.byte	0xc
 2312 08d2 3B       		.byte	0x3b
 2313 08d3 A1080000 		.4byte	0x8a1
 2314 08d7 08       		.byte	0x8
 2315 08d8 06       		.uleb128 0x6
 2316 08d9 79040000 		.4byte	.LASF126
 2317 08dd 0C       		.byte	0xc
 2318 08de 3D       		.byte	0x3d
 2319 08df A1080000 		.4byte	0x8a1
 2320 08e3 20       		.byte	0x20
 2321 08e4 00       		.byte	0
 2322 08e5 03       		.uleb128 0x3
 2323 08e6 F3030000 		.4byte	.LASF127
 2324 08ea 0C       		.byte	0xc
 2325 08eb 3F       		.byte	0x3f
 2326 08ec AC080000 		.4byte	0x8ac
 2327 08f0 15       		.uleb128 0x15
 2328 08f1 04       		.byte	0x4
 2329 08f2 07       		.byte	0x7
 2330 08f3 D2       		.byte	0xd2
 2331 08f4 53090000 		.4byte	0x953
 2332 08f8 16       		.uleb128 0x16
 2333 08f9 2E000000 		.4byte	.LASF128
ARM GAS  /tmp/ccyVQ1Qg.s 			page 42


 2334 08fd 07       		.byte	0x7
 2335 08fe D9       		.byte	0xd9
 2336 08ff 10010000 		.4byte	0x110
 2337 0903 16       		.uleb128 0x16
 2338 0904 D7000000 		.4byte	.LASF129
 2339 0908 07       		.byte	0x7
 2340 0909 E0       		.byte	0xe0
 2341 090a 10010000 		.4byte	0x110
 2342 090e 16       		.uleb128 0x16
 2343 090f 1E080000 		.4byte	.LASF130
 2344 0913 07       		.byte	0x7
 2345 0914 E7       		.byte	0xe7
 2346 0915 25030000 		.4byte	0x325
 2347 0919 16       		.uleb128 0x16
 2348 091a B0030000 		.4byte	.LASF131
 2349 091e 07       		.byte	0x7
 2350 091f EE       		.byte	0xee
 2351 0920 53090000 		.4byte	0x953
 2352 0924 16       		.uleb128 0x16
 2353 0925 F3000000 		.4byte	.LASF132
 2354 0929 07       		.byte	0x7
 2355 092a F3       		.byte	0xf3
 2356 092b 10010000 		.4byte	0x110
 2357 092f 16       		.uleb128 0x16
 2358 0930 90030000 		.4byte	.LASF133
 2359 0934 07       		.byte	0x7
 2360 0935 FC       		.byte	0xfc
 2361 0936 7E090000 		.4byte	0x97e
 2362 093a 17       		.uleb128 0x17
 2363 093b 2C070000 		.4byte	.LASF134
 2364 093f 07       		.byte	0x7
 2365 0940 0501     		.2byte	0x105
 2366 0942 B5090000 		.4byte	0x9b5
 2367 0946 17       		.uleb128 0x17
 2368 0947 5A060000 		.4byte	.LASF135
 2369 094b 07       		.byte	0x7
 2370 094c 0D01     		.2byte	0x10d
 2371 094e 1B010000 		.4byte	0x11b
 2372 0952 00       		.byte	0
 2373 0953 0A       		.uleb128 0xa
 2374 0954 04       		.byte	0x4
 2375 0955 3D020000 		.4byte	0x23d
 2376 0959 05       		.uleb128 0x5
 2377 095a 8D060000 		.4byte	.LASF136
 2378 095e 0C       		.byte	0xc
 2379 095f 0D       		.byte	0xd
 2380 0960 34       		.byte	0x34
 2381 0961 7E090000 		.4byte	0x97e
 2382 0965 06       		.uleb128 0x6
 2383 0966 4A050000 		.4byte	.LASF30
 2384 096a 0D       		.byte	0xd
 2385 096b 35       		.byte	0x35
 2386 096c 72020000 		.4byte	0x272
 2387 0970 00       		.byte	0
 2388 0971 07       		.uleb128 0x7
 2389 0972 636E7400 		.ascii	"cnt\000"
 2390 0976 0D       		.byte	0xd
ARM GAS  /tmp/ccyVQ1Qg.s 			page 43


 2391 0977 37       		.byte	0x37
 2392 0978 26010000 		.4byte	0x126
 2393 097c 08       		.byte	0x8
 2394 097d 00       		.byte	0
 2395 097e 0A       		.uleb128 0xa
 2396 097f 04       		.byte	0x4
 2397 0980 59090000 		.4byte	0x959
 2398 0984 05       		.uleb128 0x5
 2399 0985 EE070000 		.4byte	.LASF137
 2400 0989 10       		.byte	0x10
 2401 098a 0E       		.byte	0xe
 2402 098b 39       		.byte	0x39
 2403 098c B5090000 		.4byte	0x9b5
 2404 0990 06       		.uleb128 0x6
 2405 0991 4A050000 		.4byte	.LASF30
 2406 0995 0E       		.byte	0xe
 2407 0996 3A       		.byte	0x3a
 2408 0997 72020000 		.4byte	0x272
 2409 099b 00       		.byte	0
 2410 099c 06       		.uleb128 0x6
 2411 099d DE060000 		.4byte	.LASF138
 2412 09a1 0E       		.byte	0xe
 2413 09a2 3C       		.byte	0x3c
 2414 09a3 48020000 		.4byte	0x248
 2415 09a7 08       		.byte	0x8
 2416 09a8 06       		.uleb128 0x6
 2417 09a9 1E010000 		.4byte	.LASF50
 2418 09ad 0E       		.byte	0xe
 2419 09ae 3E       		.byte	0x3e
 2420 09af E9090000 		.4byte	0x9e9
 2421 09b3 0C       		.byte	0xc
 2422 09b4 00       		.byte	0
 2423 09b5 0A       		.uleb128 0xa
 2424 09b6 04       		.byte	0x4
 2425 09b7 84090000 		.4byte	0x984
 2426 09bb 0A       		.uleb128 0xa
 2427 09bc 04       		.byte	0x4
 2428 09bd C1090000 		.4byte	0x9c1
 2429 09c1 18       		.uleb128 0x18
 2430 09c2 C6090000 		.4byte	0x9c6
 2431 09c6 04       		.uleb128 0x4
 2432 09c7 01       		.byte	0x1
 2433 09c8 08       		.byte	0x8
 2434 09c9 0D070000 		.4byte	.LASF139
 2435 09cd 0A       		.uleb128 0xa
 2436 09ce 04       		.byte	0x4
 2437 09cf C9060000 		.4byte	0x6c9
 2438 09d3 0A       		.uleb128 0xa
 2439 09d4 04       		.byte	0x4
 2440 09d5 27030000 		.4byte	0x327
 2441 09d9 0F       		.uleb128 0xf
 2442 09da BB090000 		.4byte	0x9bb
 2443 09de 03       		.uleb128 0x3
 2444 09df 49020000 		.4byte	.LASF140
 2445 09e3 0E       		.byte	0xe
 2446 09e4 34       		.byte	0x34
 2447 09e5 84090000 		.4byte	0x984
ARM GAS  /tmp/ccyVQ1Qg.s 			page 44


 2448 09e9 0A       		.uleb128 0xa
 2449 09ea 04       		.byte	0x4
 2450 09eb DE090000 		.4byte	0x9de
 2451 09ef 04       		.uleb128 0x4
 2452 09f0 01       		.byte	0x1
 2453 09f1 02       		.byte	0x2
 2454 09f2 21060000 		.4byte	.LASF141
 2455 09f6 12       		.uleb128 0x12
 2456 09f7 0C       		.byte	0xc
 2457 09f8 0F       		.byte	0xf
 2458 09f9 6D01     		.2byte	0x16d
 2459 09fb 410A0000 		.4byte	0xa41
 2460 09ff 09       		.uleb128 0x9
 2461 0a00 A0000000 		.4byte	.LASF142
 2462 0a04 0F       		.byte	0xf
 2463 0a05 6E01     		.2byte	0x16e
 2464 0a07 410A0000 		.4byte	0xa41
 2465 0a0b 00       		.byte	0
 2466 0a0c 09       		.uleb128 0x9
 2467 0a0d 9A060000 		.4byte	.LASF143
 2468 0a11 0F       		.byte	0xf
 2469 0a12 6F01     		.2byte	0x16f
 2470 0a14 470A0000 		.4byte	0xa47
 2471 0a18 04       		.byte	0x4
 2472 0a19 09       		.uleb128 0x9
 2473 0a1a CA030000 		.4byte	.LASF144
 2474 0a1e 0F       		.byte	0xf
 2475 0a1f 7001     		.2byte	0x170
 2476 0a21 A2000000 		.4byte	0xa2
 2477 0a25 08       		.byte	0x8
 2478 0a26 09       		.uleb128 0x9
 2479 0a27 27020000 		.4byte	.LASF145
 2480 0a2b 0F       		.byte	0xf
 2481 0a2c 7201     		.2byte	0x172
 2482 0a2e A2000000 		.4byte	0xa2
 2483 0a32 09       		.byte	0x9
 2484 0a33 09       		.uleb128 0x9
 2485 0a34 7D080000 		.4byte	.LASF146
 2486 0a38 0F       		.byte	0xf
 2487 0a39 7301     		.2byte	0x173
 2488 0a3b A2000000 		.4byte	0xa2
 2489 0a3f 0A       		.byte	0xa
 2490 0a40 00       		.byte	0
 2491 0a41 0A       		.uleb128 0xa
 2492 0a42 04       		.byte	0x4
 2493 0a43 CD040000 		.4byte	0x4cd
 2494 0a47 0A       		.uleb128 0xa
 2495 0a48 04       		.byte	0x4
 2496 0a49 61040000 		.4byte	0x461
 2497 0a4d 13       		.uleb128 0x13
 2498 0a4e F4050000 		.4byte	.LASF147
 2499 0a52 0F       		.byte	0xf
 2500 0a53 7401     		.2byte	0x174
 2501 0a55 F6090000 		.4byte	0x9f6
 2502 0a59 13       		.uleb128 0x13
 2503 0a5a A1030000 		.4byte	.LASF148
 2504 0a5e 0F       		.byte	0xf
ARM GAS  /tmp/ccyVQ1Qg.s 			page 45


 2505 0a5f 7D01     		.2byte	0x17d
 2506 0a61 650A0000 		.4byte	0xa65
 2507 0a65 0A       		.uleb128 0xa
 2508 0a66 04       		.byte	0x4
 2509 0a67 6B0A0000 		.4byte	0xa6b
 2510 0a6b 0C       		.uleb128 0xc
 2511 0a6c 7B0A0000 		.4byte	0xa7b
 2512 0a70 0D       		.uleb128 0xd
 2513 0a71 25030000 		.4byte	0x325
 2514 0a75 0D       		.uleb128 0xd
 2515 0a76 B8000000 		.4byte	0xb8
 2516 0a7a 00       		.byte	0
 2517 0a7b 0A       		.uleb128 0xa
 2518 0a7c 04       		.byte	0x4
 2519 0a7d 810A0000 		.4byte	0xa81
 2520 0a81 18       		.uleb128 0x18
 2521 0a82 4D0A0000 		.4byte	0xa4d
 2522 0a86 14       		.uleb128 0x14
 2523 0a87 08       		.byte	0x8
 2524 0a88 01       		.byte	0x1
 2525 0a89 59       		.byte	0x59
 2526 0a8a A70A0000 		.4byte	0xaa7
 2527 0a8e 06       		.uleb128 0x6
 2528 0a8f 60050000 		.4byte	.LASF149
 2529 0a93 01       		.byte	0x1
 2530 0a94 5A       		.byte	0x5a
 2531 0a95 590A0000 		.4byte	0xa59
 2532 0a99 00       		.byte	0
 2533 0a9a 06       		.uleb128 0x6
 2534 0a9b 03020000 		.4byte	.LASF150
 2535 0a9f 01       		.byte	0x1
 2536 0aa0 5B       		.byte	0x5b
 2537 0aa1 25030000 		.4byte	0x325
 2538 0aa5 04       		.byte	0x4
 2539 0aa6 00       		.byte	0
 2540 0aa7 03       		.uleb128 0x3
 2541 0aa8 90000000 		.4byte	.LASF151
 2542 0aac 01       		.byte	0x1
 2543 0aad 5C       		.byte	0x5c
 2544 0aae 860A0000 		.4byte	0xa86
 2545 0ab2 19       		.uleb128 0x19
 2546 0ab3 0F060000 		.4byte	.LASF152
 2547 0ab7 01       		.byte	0x1
 2548 0ab8 75       		.byte	0x75
 2549 0ab9 00000000 		.4byte	.LFB277
 2550 0abd 2C000000 		.4byte	.LFE277-.LFB277
 2551 0ac1 01       		.uleb128 0x1
 2552 0ac2 9C       		.byte	0x9c
 2553 0ac3 E90A0000 		.4byte	0xae9
 2554 0ac7 1A       		.uleb128 0x1a
 2555 0ac8 0A080000 		.4byte	.LASF37
 2556 0acc 01       		.byte	0x1
 2557 0acd 76       		.byte	0x76
 2558 0ace B8000000 		.4byte	0xb8
 2559 0ad2 00000000 		.4byte	.LLST0
 2560 0ad6 1B       		.uleb128 0x1b
 2561 0ad7 06000000 		.4byte	.LVL0
ARM GAS  /tmp/ccyVQ1Qg.s 			page 46


 2562 0adb 9B0F0000 		.4byte	0xf9b
 2563 0adf 1C       		.uleb128 0x1c
 2564 0ae0 22000000 		.4byte	.LVL3
 2565 0ae4 A20F0000 		.4byte	0xfa2
 2566 0ae8 00       		.byte	0
 2567 0ae9 19       		.uleb128 0x19
 2568 0aea 9F060000 		.4byte	.LASF153
 2569 0aee 01       		.byte	0x1
 2570 0aef 87       		.byte	0x87
 2571 0af0 00000000 		.4byte	.LFB278
 2572 0af4 30000000 		.4byte	.LFE278-.LFB278
 2573 0af8 01       		.uleb128 0x1
 2574 0af9 9C       		.byte	0x9c
 2575 0afa 200B0000 		.4byte	0xb20
 2576 0afe 1A       		.uleb128 0x1a
 2577 0aff 0A080000 		.4byte	.LASF37
 2578 0b03 01       		.byte	0x1
 2579 0b04 88       		.byte	0x88
 2580 0b05 B8000000 		.4byte	0xb8
 2581 0b09 13000000 		.4byte	.LLST1
 2582 0b0d 1B       		.uleb128 0x1b
 2583 0b0e 06000000 		.4byte	.LVL4
 2584 0b12 9B0F0000 		.4byte	0xf9b
 2585 0b16 1C       		.uleb128 0x1c
 2586 0b17 26000000 		.4byte	.LVL7
 2587 0b1b A20F0000 		.4byte	0xfa2
 2588 0b1f 00       		.byte	0
 2589 0b20 19       		.uleb128 0x19
 2590 0b21 A8060000 		.4byte	.LASF154
 2591 0b25 01       		.byte	0x1
 2592 0b26 99       		.byte	0x99
 2593 0b27 00000000 		.4byte	.LFB279
 2594 0b2b 30000000 		.4byte	.LFE279-.LFB279
 2595 0b2f 01       		.uleb128 0x1
 2596 0b30 9C       		.byte	0x9c
 2597 0b31 570B0000 		.4byte	0xb57
 2598 0b35 1A       		.uleb128 0x1a
 2599 0b36 0A080000 		.4byte	.LASF37
 2600 0b3a 01       		.byte	0x1
 2601 0b3b 9A       		.byte	0x9a
 2602 0b3c B8000000 		.4byte	0xb8
 2603 0b40 26000000 		.4byte	.LLST2
 2604 0b44 1B       		.uleb128 0x1b
 2605 0b45 06000000 		.4byte	.LVL8
 2606 0b49 9B0F0000 		.4byte	0xf9b
 2607 0b4d 1C       		.uleb128 0x1c
 2608 0b4e 26000000 		.4byte	.LVL11
 2609 0b52 A20F0000 		.4byte	0xfa2
 2610 0b56 00       		.byte	0
 2611 0b57 19       		.uleb128 0x19
 2612 0b58 D1030000 		.4byte	.LASF155
 2613 0b5c 01       		.byte	0x1
 2614 0b5d AB       		.byte	0xab
 2615 0b5e 00000000 		.4byte	.LFB280
 2616 0b62 30000000 		.4byte	.LFE280-.LFB280
 2617 0b66 01       		.uleb128 0x1
 2618 0b67 9C       		.byte	0x9c
ARM GAS  /tmp/ccyVQ1Qg.s 			page 47


 2619 0b68 8E0B0000 		.4byte	0xb8e
 2620 0b6c 1A       		.uleb128 0x1a
 2621 0b6d 0A080000 		.4byte	.LASF37
 2622 0b71 01       		.byte	0x1
 2623 0b72 AC       		.byte	0xac
 2624 0b73 B8000000 		.4byte	0xb8
 2625 0b77 39000000 		.4byte	.LLST3
 2626 0b7b 1B       		.uleb128 0x1b
 2627 0b7c 06000000 		.4byte	.LVL12
 2628 0b80 9B0F0000 		.4byte	0xf9b
 2629 0b84 1C       		.uleb128 0x1c
 2630 0b85 26000000 		.4byte	.LVL15
 2631 0b89 A20F0000 		.4byte	0xfa2
 2632 0b8d 00       		.byte	0
 2633 0b8e 19       		.uleb128 0x19
 2634 0b8f 23070000 		.4byte	.LASF156
 2635 0b93 01       		.byte	0x1
 2636 0b94 BD       		.byte	0xbd
 2637 0b95 00000000 		.4byte	.LFB281
 2638 0b99 2C000000 		.4byte	.LFE281-.LFB281
 2639 0b9d 01       		.uleb128 0x1
 2640 0b9e 9C       		.byte	0x9c
 2641 0b9f C50B0000 		.4byte	0xbc5
 2642 0ba3 1A       		.uleb128 0x1a
 2643 0ba4 0A080000 		.4byte	.LASF37
 2644 0ba8 01       		.byte	0x1
 2645 0ba9 BE       		.byte	0xbe
 2646 0baa B8000000 		.4byte	0xb8
 2647 0bae 4C000000 		.4byte	.LLST4
 2648 0bb2 1B       		.uleb128 0x1b
 2649 0bb3 06000000 		.4byte	.LVL16
 2650 0bb7 9B0F0000 		.4byte	0xf9b
 2651 0bbb 1C       		.uleb128 0x1c
 2652 0bbc 22000000 		.4byte	.LVL19
 2653 0bc0 A20F0000 		.4byte	0xfa2
 2654 0bc4 00       		.byte	0
 2655 0bc5 19       		.uleb128 0x19
 2656 0bc6 BD070000 		.4byte	.LASF157
 2657 0bca 01       		.byte	0x1
 2658 0bcb CF       		.byte	0xcf
 2659 0bcc 00000000 		.4byte	.LFB282
 2660 0bd0 30000000 		.4byte	.LFE282-.LFB282
 2661 0bd4 01       		.uleb128 0x1
 2662 0bd5 9C       		.byte	0x9c
 2663 0bd6 FC0B0000 		.4byte	0xbfc
 2664 0bda 1A       		.uleb128 0x1a
 2665 0bdb 0A080000 		.4byte	.LASF37
 2666 0bdf 01       		.byte	0x1
 2667 0be0 D0       		.byte	0xd0
 2668 0be1 B8000000 		.4byte	0xb8
 2669 0be5 5F000000 		.4byte	.LLST5
 2670 0be9 1B       		.uleb128 0x1b
 2671 0bea 06000000 		.4byte	.LVL20
 2672 0bee 9B0F0000 		.4byte	0xf9b
 2673 0bf2 1C       		.uleb128 0x1c
 2674 0bf3 26000000 		.4byte	.LVL23
 2675 0bf7 A20F0000 		.4byte	0xfa2
ARM GAS  /tmp/ccyVQ1Qg.s 			page 48


 2676 0bfb 00       		.byte	0
 2677 0bfc 19       		.uleb128 0x19
 2678 0bfd D5070000 		.4byte	.LASF158
 2679 0c01 01       		.byte	0x1
 2680 0c02 E1       		.byte	0xe1
 2681 0c03 00000000 		.4byte	.LFB283
 2682 0c07 30000000 		.4byte	.LFE283-.LFB283
 2683 0c0b 01       		.uleb128 0x1
 2684 0c0c 9C       		.byte	0x9c
 2685 0c0d 330C0000 		.4byte	0xc33
 2686 0c11 1A       		.uleb128 0x1a
 2687 0c12 0A080000 		.4byte	.LASF37
 2688 0c16 01       		.byte	0x1
 2689 0c17 E2       		.byte	0xe2
 2690 0c18 B8000000 		.4byte	0xb8
 2691 0c1c 72000000 		.4byte	.LLST6
 2692 0c20 1B       		.uleb128 0x1b
 2693 0c21 06000000 		.4byte	.LVL24
 2694 0c25 9B0F0000 		.4byte	0xf9b
 2695 0c29 1C       		.uleb128 0x1c
 2696 0c2a 26000000 		.4byte	.LVL27
 2697 0c2e A20F0000 		.4byte	0xfa2
 2698 0c32 00       		.byte	0
 2699 0c33 19       		.uleb128 0x19
 2700 0c34 C5060000 		.4byte	.LASF159
 2701 0c38 01       		.byte	0x1
 2702 0c39 F3       		.byte	0xf3
 2703 0c3a 00000000 		.4byte	.LFB284
 2704 0c3e 30000000 		.4byte	.LFE284-.LFB284
 2705 0c42 01       		.uleb128 0x1
 2706 0c43 9C       		.byte	0x9c
 2707 0c44 6A0C0000 		.4byte	0xc6a
 2708 0c48 1A       		.uleb128 0x1a
 2709 0c49 0A080000 		.4byte	.LASF37
 2710 0c4d 01       		.byte	0x1
 2711 0c4e F4       		.byte	0xf4
 2712 0c4f B8000000 		.4byte	0xb8
 2713 0c53 85000000 		.4byte	.LLST7
 2714 0c57 1B       		.uleb128 0x1b
 2715 0c58 06000000 		.4byte	.LVL28
 2716 0c5c 9B0F0000 		.4byte	0xf9b
 2717 0c60 1C       		.uleb128 0x1c
 2718 0c61 26000000 		.4byte	.LVL31
 2719 0c65 A20F0000 		.4byte	0xfa2
 2720 0c69 00       		.byte	0
 2721 0c6a 1D       		.uleb128 0x1d
 2722 0c6b 25080000 		.4byte	.LASF160
 2723 0c6f 01       		.byte	0x1
 2724 0c70 0501     		.2byte	0x105
 2725 0c72 00000000 		.4byte	.LFB285
 2726 0c76 2C000000 		.4byte	.LFE285-.LFB285
 2727 0c7a 01       		.uleb128 0x1
 2728 0c7b 9C       		.byte	0x9c
 2729 0c7c A30C0000 		.4byte	0xca3
 2730 0c80 1E       		.uleb128 0x1e
 2731 0c81 0A080000 		.4byte	.LASF37
 2732 0c85 01       		.byte	0x1
ARM GAS  /tmp/ccyVQ1Qg.s 			page 49


 2733 0c86 0601     		.2byte	0x106
 2734 0c88 B8000000 		.4byte	0xb8
 2735 0c8c 98000000 		.4byte	.LLST8
 2736 0c90 1B       		.uleb128 0x1b
 2737 0c91 06000000 		.4byte	.LVL32
 2738 0c95 9B0F0000 		.4byte	0xf9b
 2739 0c99 1C       		.uleb128 0x1c
 2740 0c9a 22000000 		.4byte	.LVL35
 2741 0c9e A20F0000 		.4byte	0xfa2
 2742 0ca2 00       		.byte	0
 2743 0ca3 1D       		.uleb128 0x1d
 2744 0ca4 34080000 		.4byte	.LASF161
 2745 0ca8 01       		.byte	0x1
 2746 0ca9 1701     		.2byte	0x117
 2747 0cab 00000000 		.4byte	.LFB286
 2748 0caf 30000000 		.4byte	.LFE286-.LFB286
 2749 0cb3 01       		.uleb128 0x1
 2750 0cb4 9C       		.byte	0x9c
 2751 0cb5 DC0C0000 		.4byte	0xcdc
 2752 0cb9 1E       		.uleb128 0x1e
 2753 0cba 0A080000 		.4byte	.LASF37
 2754 0cbe 01       		.byte	0x1
 2755 0cbf 1801     		.2byte	0x118
 2756 0cc1 B8000000 		.4byte	0xb8
 2757 0cc5 AB000000 		.4byte	.LLST9
 2758 0cc9 1B       		.uleb128 0x1b
 2759 0cca 06000000 		.4byte	.LVL36
 2760 0cce 9B0F0000 		.4byte	0xf9b
 2761 0cd2 1C       		.uleb128 0x1c
 2762 0cd3 26000000 		.4byte	.LVL39
 2763 0cd7 A20F0000 		.4byte	0xfa2
 2764 0cdb 00       		.byte	0
 2765 0cdc 1D       		.uleb128 0x1d
 2766 0cdd 3E080000 		.4byte	.LASF162
 2767 0ce1 01       		.byte	0x1
 2768 0ce2 2901     		.2byte	0x129
 2769 0ce4 00000000 		.4byte	.LFB287
 2770 0ce8 30000000 		.4byte	.LFE287-.LFB287
 2771 0cec 01       		.uleb128 0x1
 2772 0ced 9C       		.byte	0x9c
 2773 0cee 150D0000 		.4byte	0xd15
 2774 0cf2 1E       		.uleb128 0x1e
 2775 0cf3 0A080000 		.4byte	.LASF37
 2776 0cf7 01       		.byte	0x1
 2777 0cf8 2A01     		.2byte	0x12a
 2778 0cfa B8000000 		.4byte	0xb8
 2779 0cfe BE000000 		.4byte	.LLST10
 2780 0d02 1B       		.uleb128 0x1b
 2781 0d03 06000000 		.4byte	.LVL40
 2782 0d07 9B0F0000 		.4byte	0xf9b
 2783 0d0b 1C       		.uleb128 0x1c
 2784 0d0c 26000000 		.4byte	.LVL43
 2785 0d10 A20F0000 		.4byte	0xfa2
 2786 0d14 00       		.byte	0
 2787 0d15 1D       		.uleb128 0x1d
 2788 0d16 48080000 		.4byte	.LASF163
 2789 0d1a 01       		.byte	0x1
ARM GAS  /tmp/ccyVQ1Qg.s 			page 50


 2790 0d1b 3B01     		.2byte	0x13b
 2791 0d1d 00000000 		.4byte	.LFB288
 2792 0d21 30000000 		.4byte	.LFE288-.LFB288
 2793 0d25 01       		.uleb128 0x1
 2794 0d26 9C       		.byte	0x9c
 2795 0d27 4E0D0000 		.4byte	0xd4e
 2796 0d2b 1E       		.uleb128 0x1e
 2797 0d2c 0A080000 		.4byte	.LASF37
 2798 0d30 01       		.byte	0x1
 2799 0d31 3C01     		.2byte	0x13c
 2800 0d33 B8000000 		.4byte	0xb8
 2801 0d37 D1000000 		.4byte	.LLST11
 2802 0d3b 1B       		.uleb128 0x1b
 2803 0d3c 06000000 		.4byte	.LVL44
 2804 0d40 9B0F0000 		.4byte	0xf9b
 2805 0d44 1C       		.uleb128 0x1c
 2806 0d45 26000000 		.4byte	.LVL47
 2807 0d49 A20F0000 		.4byte	0xfa2
 2808 0d4d 00       		.byte	0
 2809 0d4e 1D       		.uleb128 0x1d
 2810 0d4f 86000000 		.4byte	.LASF164
 2811 0d53 01       		.byte	0x1
 2812 0d54 4D01     		.2byte	0x14d
 2813 0d56 00000000 		.4byte	.LFB289
 2814 0d5a 2C000000 		.4byte	.LFE289-.LFB289
 2815 0d5e 01       		.uleb128 0x1
 2816 0d5f 9C       		.byte	0x9c
 2817 0d60 870D0000 		.4byte	0xd87
 2818 0d64 1E       		.uleb128 0x1e
 2819 0d65 0A080000 		.4byte	.LASF37
 2820 0d69 01       		.byte	0x1
 2821 0d6a 4E01     		.2byte	0x14e
 2822 0d6c B8000000 		.4byte	0xb8
 2823 0d70 E4000000 		.4byte	.LLST12
 2824 0d74 1B       		.uleb128 0x1b
 2825 0d75 06000000 		.4byte	.LVL48
 2826 0d79 9B0F0000 		.4byte	0xf9b
 2827 0d7d 1C       		.uleb128 0x1c
 2828 0d7e 22000000 		.4byte	.LVL51
 2829 0d82 A20F0000 		.4byte	0xfa2
 2830 0d86 00       		.byte	0
 2831 0d87 1D       		.uleb128 0x1d
 2832 0d88 83060000 		.4byte	.LASF165
 2833 0d8c 01       		.byte	0x1
 2834 0d8d 5F01     		.2byte	0x15f
 2835 0d8f 00000000 		.4byte	.LFB290
 2836 0d93 30000000 		.4byte	.LFE290-.LFB290
 2837 0d97 01       		.uleb128 0x1
 2838 0d98 9C       		.byte	0x9c
 2839 0d99 C00D0000 		.4byte	0xdc0
 2840 0d9d 1E       		.uleb128 0x1e
 2841 0d9e 0A080000 		.4byte	.LASF37
 2842 0da2 01       		.byte	0x1
 2843 0da3 6001     		.2byte	0x160
 2844 0da5 B8000000 		.4byte	0xb8
 2845 0da9 F7000000 		.4byte	.LLST13
 2846 0dad 1B       		.uleb128 0x1b
ARM GAS  /tmp/ccyVQ1Qg.s 			page 51


 2847 0dae 06000000 		.4byte	.LVL52
 2848 0db2 9B0F0000 		.4byte	0xf9b
 2849 0db6 1C       		.uleb128 0x1c
 2850 0db7 26000000 		.4byte	.LVL55
 2851 0dbb A20F0000 		.4byte	0xfa2
 2852 0dbf 00       		.byte	0
 2853 0dc0 1D       		.uleb128 0x1d
 2854 0dc1 86030000 		.4byte	.LASF166
 2855 0dc5 01       		.byte	0x1
 2856 0dc6 7101     		.2byte	0x171
 2857 0dc8 00000000 		.4byte	.LFB291
 2858 0dcc 30000000 		.4byte	.LFE291-.LFB291
 2859 0dd0 01       		.uleb128 0x1
 2860 0dd1 9C       		.byte	0x9c
 2861 0dd2 F90D0000 		.4byte	0xdf9
 2862 0dd6 1E       		.uleb128 0x1e
 2863 0dd7 0A080000 		.4byte	.LASF37
 2864 0ddb 01       		.byte	0x1
 2865 0ddc 7201     		.2byte	0x172
 2866 0dde B8000000 		.4byte	0xb8
 2867 0de2 0A010000 		.4byte	.LLST14
 2868 0de6 1B       		.uleb128 0x1b
 2869 0de7 06000000 		.4byte	.LVL56
 2870 0deb 9B0F0000 		.4byte	0xf9b
 2871 0def 1C       		.uleb128 0x1c
 2872 0df0 26000000 		.4byte	.LVL59
 2873 0df4 A20F0000 		.4byte	0xfa2
 2874 0df8 00       		.byte	0
 2875 0df9 1D       		.uleb128 0x1d
 2876 0dfa 97030000 		.4byte	.LASF167
 2877 0dfe 01       		.byte	0x1
 2878 0dff 8301     		.2byte	0x183
 2879 0e01 00000000 		.4byte	.LFB292
 2880 0e05 30000000 		.4byte	.LFE292-.LFB292
 2881 0e09 01       		.uleb128 0x1
 2882 0e0a 9C       		.byte	0x9c
 2883 0e0b 320E0000 		.4byte	0xe32
 2884 0e0f 1E       		.uleb128 0x1e
 2885 0e10 0A080000 		.4byte	.LASF37
 2886 0e14 01       		.byte	0x1
 2887 0e15 8401     		.2byte	0x184
 2888 0e17 B8000000 		.4byte	0xb8
 2889 0e1b 1D010000 		.4byte	.LLST15
 2890 0e1f 1B       		.uleb128 0x1b
 2891 0e20 06000000 		.4byte	.LVL60
 2892 0e24 9B0F0000 		.4byte	0xf9b
 2893 0e28 1C       		.uleb128 0x1c
 2894 0e29 26000000 		.4byte	.LVL63
 2895 0e2d A20F0000 		.4byte	0xfa2
 2896 0e31 00       		.byte	0
 2897 0e32 1F       		.uleb128 0x1f
 2898 0e33 EC060000 		.4byte	.LASF168
 2899 0e37 01       		.byte	0x1
 2900 0e38 9901     		.2byte	0x199
 2901 0e3a 00000000 		.4byte	.LFB293
 2902 0e3e 44000000 		.4byte	.LFE293-.LFB293
 2903 0e42 01       		.uleb128 0x1
ARM GAS  /tmp/ccyVQ1Qg.s 			page 52


 2904 0e43 9C       		.byte	0x9c
 2905 0e44 570E0000 		.4byte	0xe57
 2906 0e48 20       		.uleb128 0x20
 2907 0e49 6900     		.ascii	"i\000"
 2908 0e4b 01       		.byte	0x1
 2909 0e4c 9A01     		.2byte	0x19a
 2910 0e4e 37000000 		.4byte	0x37
 2911 0e52 30010000 		.4byte	.LLST16
 2912 0e56 00       		.byte	0
 2913 0e57 21       		.uleb128 0x21
 2914 0e58 6B080000 		.4byte	.LASF183
 2915 0e5c 01       		.byte	0x1
 2916 0e5d BF01     		.2byte	0x1bf
 2917 0e5f EF090000 		.4byte	0x9ef
 2918 0e63 00000000 		.4byte	.LFB294
 2919 0e67 8C000000 		.4byte	.LFE294-.LFB294
 2920 0e6b 01       		.uleb128 0x1
 2921 0e6c 9C       		.byte	0x9c
 2922 0e6d C40E0000 		.4byte	0xec4
 2923 0e71 22       		.uleb128 0x22
 2924 0e72 AB010000 		.4byte	.LASF169
 2925 0e76 01       		.byte	0x1
 2926 0e77 BF01     		.2byte	0x1bf
 2927 0e79 7B0A0000 		.4byte	0xa7b
 2928 0e7d 43010000 		.4byte	.LLST17
 2929 0e81 22       		.uleb128 0x22
 2930 0e82 59040000 		.4byte	.LASF170
 2931 0e86 01       		.byte	0x1
 2932 0e87 C001     		.2byte	0x1c0
 2933 0e89 B8000000 		.4byte	0xb8
 2934 0e8d 96010000 		.4byte	.LLST18
 2935 0e91 22       		.uleb128 0x22
 2936 0e92 F0010000 		.4byte	.LASF61
 2937 0e96 01       		.byte	0x1
 2938 0e97 C101     		.2byte	0x1c1
 2939 0e99 590A0000 		.4byte	0xa59
 2940 0e9d C2010000 		.4byte	.LLST19
 2941 0ea1 22       		.uleb128 0x22
 2942 0ea2 50050000 		.4byte	.LASF171
 2943 0ea6 01       		.byte	0x1
 2944 0ea7 C201     		.2byte	0x1c2
 2945 0ea9 25030000 		.4byte	0x325
 2946 0ead EE010000 		.4byte	.LLST20
 2947 0eb1 23       		.uleb128 0x23
 2948 0eb2 61060000 		.4byte	.LASF173
 2949 0eb6 D40E0000 		.4byte	0xed4
 2950 0eba 1B       		.uleb128 0x1b
 2951 0ebb 72000000 		.4byte	.LVL72
 2952 0ebf AA0F0000 		.4byte	0xfaa
 2953 0ec3 00       		.byte	0
 2954 0ec4 10       		.uleb128 0x10
 2955 0ec5 C6090000 		.4byte	0x9c6
 2956 0ec9 D40E0000 		.4byte	0xed4
 2957 0ecd 11       		.uleb128 0x11
 2958 0ece 5A040000 		.4byte	0x45a
 2959 0ed2 11       		.byte	0x11
 2960 0ed3 00       		.byte	0
ARM GAS  /tmp/ccyVQ1Qg.s 			page 53


 2961 0ed4 18       		.uleb128 0x18
 2962 0ed5 C40E0000 		.4byte	0xec4
 2963 0ed9 1F       		.uleb128 0x1f
 2964 0eda 12070000 		.4byte	.LASF172
 2965 0ede 01       		.byte	0x1
 2966 0edf F101     		.2byte	0x1f1
 2967 0ee1 00000000 		.4byte	.LFB295
 2968 0ee5 44000000 		.4byte	.LFE295-.LFB295
 2969 0ee9 01       		.uleb128 0x1
 2970 0eea 9C       		.byte	0x9c
 2971 0eeb 120F0000 		.4byte	0xf12
 2972 0eef 22       		.uleb128 0x22
 2973 0ef0 AB010000 		.4byte	.LASF169
 2974 0ef4 01       		.byte	0x1
 2975 0ef5 F101     		.2byte	0x1f1
 2976 0ef7 7B0A0000 		.4byte	0xa7b
 2977 0efb 48020000 		.4byte	.LLST21
 2978 0eff 23       		.uleb128 0x23
 2979 0f00 61060000 		.4byte	.LASF173
 2980 0f04 220F0000 		.4byte	0xf22
 2981 0f08 1B       		.uleb128 0x1b
 2982 0f09 0A000000 		.4byte	.LVL79
 2983 0f0d C00F0000 		.4byte	0xfc0
 2984 0f11 00       		.byte	0
 2985 0f12 10       		.uleb128 0x10
 2986 0f13 C6090000 		.4byte	0x9c6
 2987 0f17 220F0000 		.4byte	0xf22
 2988 0f1b 11       		.uleb128 0x11
 2989 0f1c 5A040000 		.4byte	0x45a
 2990 0f20 10       		.byte	0x10
 2991 0f21 00       		.byte	0
 2992 0f22 18       		.uleb128 0x18
 2993 0f23 120F0000 		.4byte	0xf12
 2994 0f27 24       		.uleb128 0x24
 2995 0f28 93070000 		.4byte	.LASF174
 2996 0f2c 01       		.byte	0x1
 2997 0f2d 61       		.byte	0x61
 2998 0f2e B8000000 		.4byte	0xb8
 2999 0f32 05       		.uleb128 0x5
 3000 0f33 03       		.byte	0x3
 3001 0f34 00000000 		.4byte	dma_streams_mask
 3002 0f38 10       		.uleb128 0x10
 3003 0f39 A70A0000 		.4byte	0xaa7
 3004 0f3d 480F0000 		.4byte	0xf48
 3005 0f41 11       		.uleb128 0x11
 3006 0f42 5A040000 		.4byte	0x45a
 3007 0f46 0F       		.byte	0xf
 3008 0f47 00       		.byte	0
 3009 0f48 24       		.uleb128 0x24
 3010 0f49 10080000 		.4byte	.LASF175
 3011 0f4d 01       		.byte	0x1
 3012 0f4e 66       		.byte	0x66
 3013 0f4f 380F0000 		.4byte	0xf38
 3014 0f53 05       		.uleb128 0x5
 3015 0f54 03       		.byte	0x3
 3016 0f55 00000000 		.4byte	dma_isr_redir
 3017 0f59 25       		.uleb128 0x25
ARM GAS  /tmp/ccyVQ1Qg.s 			page 54


 3018 0f5a 11010000 		.4byte	.LASF176
 3019 0f5e 10       		.byte	0x10
 3020 0f5f 4407     		.2byte	0x744
 3021 0f61 650F0000 		.4byte	0xf65
 3022 0f65 0F       		.uleb128 0xf
 3023 0f66 AD000000 		.4byte	0xad
 3024 0f6a 26       		.uleb128 0x26
 3025 0f6b 636800   		.ascii	"ch\000"
 3026 0f6e 07       		.byte	0x7
 3027 0f6f D201     		.2byte	0x1d2
 3028 0f71 F4030000 		.4byte	0x3f4
 3029 0f75 10       		.uleb128 0x10
 3030 0f76 4D0A0000 		.4byte	0xa4d
 3031 0f7a 850F0000 		.4byte	0xf85
 3032 0f7e 11       		.uleb128 0x11
 3033 0f7f 5A040000 		.4byte	0x45a
 3034 0f83 0F       		.byte	0xf
 3035 0f84 00       		.byte	0
 3036 0f85 27       		.uleb128 0x27
 3037 0f86 E0000000 		.4byte	.LASF177
 3038 0f8a 01       		.byte	0x1
 3039 0f8b 3F       		.byte	0x3f
 3040 0f8c 960F0000 		.4byte	0xf96
 3041 0f90 05       		.uleb128 0x5
 3042 0f91 03       		.byte	0x3
 3043 0f92 00000000 		.4byte	_stm32_dma_streams
 3044 0f96 18       		.uleb128 0x18
 3045 0f97 750F0000 		.4byte	0xf75
 3046 0f9b 28       		.uleb128 0x28
 3047 0f9c B1060000 		.4byte	.LASF178
 3048 0fa0 0C       		.byte	0xc
 3049 0fa1 4D       		.byte	0x4d
 3050 0fa2 29       		.uleb128 0x29
 3051 0fa3 46040000 		.4byte	.LASF179
 3052 0fa7 0A       		.byte	0xa
 3053 0fa8 EA01     		.2byte	0x1ea
 3054 0faa 2A       		.uleb128 0x2a
 3055 0fab 36010000 		.4byte	.LASF184
 3056 0faf 11       		.byte	0x11
 3057 0fb0 4E       		.byte	0x4e
 3058 0fb1 C00F0000 		.4byte	0xfc0
 3059 0fb5 0D       		.uleb128 0xd
 3060 0fb6 B8000000 		.4byte	0xb8
 3061 0fba 0D       		.uleb128 0xd
 3062 0fbb B8000000 		.4byte	0xb8
 3063 0fbf 00       		.byte	0
 3064 0fc0 2B       		.uleb128 0x2b
 3065 0fc1 74030000 		.4byte	.LASF185
 3066 0fc5 11       		.byte	0x11
 3067 0fc6 4F       		.byte	0x4f
 3068 0fc7 0D       		.uleb128 0xd
 3069 0fc8 B8000000 		.4byte	0xb8
 3070 0fcc 00       		.byte	0
 3071 0fcd 00       		.byte	0
 3072              		.section	.debug_abbrev,"",%progbits
 3073              	.Ldebug_abbrev0:
 3074 0000 01       		.uleb128 0x1
ARM GAS  /tmp/ccyVQ1Qg.s 			page 55


 3075 0001 11       		.uleb128 0x11
 3076 0002 01       		.byte	0x1
 3077 0003 25       		.uleb128 0x25
 3078 0004 0E       		.uleb128 0xe
 3079 0005 13       		.uleb128 0x13
 3080 0006 0B       		.uleb128 0xb
 3081 0007 03       		.uleb128 0x3
 3082 0008 0E       		.uleb128 0xe
 3083 0009 1B       		.uleb128 0x1b
 3084 000a 0E       		.uleb128 0xe
 3085 000b 55       		.uleb128 0x55
 3086 000c 17       		.uleb128 0x17
 3087 000d 11       		.uleb128 0x11
 3088 000e 01       		.uleb128 0x1
 3089 000f 10       		.uleb128 0x10
 3090 0010 17       		.uleb128 0x17
 3091 0011 00       		.byte	0
 3092 0012 00       		.byte	0
 3093 0013 02       		.uleb128 0x2
 3094 0014 24       		.uleb128 0x24
 3095 0015 00       		.byte	0
 3096 0016 0B       		.uleb128 0xb
 3097 0017 0B       		.uleb128 0xb
 3098 0018 3E       		.uleb128 0x3e
 3099 0019 0B       		.uleb128 0xb
 3100 001a 03       		.uleb128 0x3
 3101 001b 08       		.uleb128 0x8
 3102 001c 00       		.byte	0
 3103 001d 00       		.byte	0
 3104 001e 03       		.uleb128 0x3
 3105 001f 16       		.uleb128 0x16
 3106 0020 00       		.byte	0
 3107 0021 03       		.uleb128 0x3
 3108 0022 0E       		.uleb128 0xe
 3109 0023 3A       		.uleb128 0x3a
 3110 0024 0B       		.uleb128 0xb
 3111 0025 3B       		.uleb128 0x3b
 3112 0026 0B       		.uleb128 0xb
 3113 0027 49       		.uleb128 0x49
 3114 0028 13       		.uleb128 0x13
 3115 0029 00       		.byte	0
 3116 002a 00       		.byte	0
 3117 002b 04       		.uleb128 0x4
 3118 002c 24       		.uleb128 0x24
 3119 002d 00       		.byte	0
 3120 002e 0B       		.uleb128 0xb
 3121 002f 0B       		.uleb128 0xb
 3122 0030 3E       		.uleb128 0x3e
 3123 0031 0B       		.uleb128 0xb
 3124 0032 03       		.uleb128 0x3
 3125 0033 0E       		.uleb128 0xe
 3126 0034 00       		.byte	0
 3127 0035 00       		.byte	0
 3128 0036 05       		.uleb128 0x5
 3129 0037 13       		.uleb128 0x13
 3130 0038 01       		.byte	0x1
 3131 0039 03       		.uleb128 0x3
ARM GAS  /tmp/ccyVQ1Qg.s 			page 56


 3132 003a 0E       		.uleb128 0xe
 3133 003b 0B       		.uleb128 0xb
 3134 003c 0B       		.uleb128 0xb
 3135 003d 3A       		.uleb128 0x3a
 3136 003e 0B       		.uleb128 0xb
 3137 003f 3B       		.uleb128 0x3b
 3138 0040 0B       		.uleb128 0xb
 3139 0041 01       		.uleb128 0x1
 3140 0042 13       		.uleb128 0x13
 3141 0043 00       		.byte	0
 3142 0044 00       		.byte	0
 3143 0045 06       		.uleb128 0x6
 3144 0046 0D       		.uleb128 0xd
 3145 0047 00       		.byte	0
 3146 0048 03       		.uleb128 0x3
 3147 0049 0E       		.uleb128 0xe
 3148 004a 3A       		.uleb128 0x3a
 3149 004b 0B       		.uleb128 0xb
 3150 004c 3B       		.uleb128 0x3b
 3151 004d 0B       		.uleb128 0xb
 3152 004e 49       		.uleb128 0x49
 3153 004f 13       		.uleb128 0x13
 3154 0050 38       		.uleb128 0x38
 3155 0051 0B       		.uleb128 0xb
 3156 0052 00       		.byte	0
 3157 0053 00       		.byte	0
 3158 0054 07       		.uleb128 0x7
 3159 0055 0D       		.uleb128 0xd
 3160 0056 00       		.byte	0
 3161 0057 03       		.uleb128 0x3
 3162 0058 08       		.uleb128 0x8
 3163 0059 3A       		.uleb128 0x3a
 3164 005a 0B       		.uleb128 0xb
 3165 005b 3B       		.uleb128 0x3b
 3166 005c 0B       		.uleb128 0xb
 3167 005d 49       		.uleb128 0x49
 3168 005e 13       		.uleb128 0x13
 3169 005f 38       		.uleb128 0x38
 3170 0060 0B       		.uleb128 0xb
 3171 0061 00       		.byte	0
 3172 0062 00       		.byte	0
 3173 0063 08       		.uleb128 0x8
 3174 0064 0D       		.uleb128 0xd
 3175 0065 00       		.byte	0
 3176 0066 03       		.uleb128 0x3
 3177 0067 08       		.uleb128 0x8
 3178 0068 3A       		.uleb128 0x3a
 3179 0069 0B       		.uleb128 0xb
 3180 006a 3B       		.uleb128 0x3b
 3181 006b 05       		.uleb128 0x5
 3182 006c 49       		.uleb128 0x49
 3183 006d 13       		.uleb128 0x13
 3184 006e 38       		.uleb128 0x38
 3185 006f 0B       		.uleb128 0xb
 3186 0070 00       		.byte	0
 3187 0071 00       		.byte	0
 3188 0072 09       		.uleb128 0x9
ARM GAS  /tmp/ccyVQ1Qg.s 			page 57


 3189 0073 0D       		.uleb128 0xd
 3190 0074 00       		.byte	0
 3191 0075 03       		.uleb128 0x3
 3192 0076 0E       		.uleb128 0xe
 3193 0077 3A       		.uleb128 0x3a
 3194 0078 0B       		.uleb128 0xb
 3195 0079 3B       		.uleb128 0x3b
 3196 007a 05       		.uleb128 0x5
 3197 007b 49       		.uleb128 0x49
 3198 007c 13       		.uleb128 0x13
 3199 007d 38       		.uleb128 0x38
 3200 007e 0B       		.uleb128 0xb
 3201 007f 00       		.byte	0
 3202 0080 00       		.byte	0
 3203 0081 0A       		.uleb128 0xa
 3204 0082 0F       		.uleb128 0xf
 3205 0083 00       		.byte	0
 3206 0084 0B       		.uleb128 0xb
 3207 0085 0B       		.uleb128 0xb
 3208 0086 49       		.uleb128 0x49
 3209 0087 13       		.uleb128 0x13
 3210 0088 00       		.byte	0
 3211 0089 00       		.byte	0
 3212 008a 0B       		.uleb128 0xb
 3213 008b 13       		.uleb128 0x13
 3214 008c 01       		.byte	0x1
 3215 008d 03       		.uleb128 0x3
 3216 008e 0E       		.uleb128 0xe
 3217 008f 0B       		.uleb128 0xb
 3218 0090 0B       		.uleb128 0xb
 3219 0091 3A       		.uleb128 0x3a
 3220 0092 0B       		.uleb128 0xb
 3221 0093 3B       		.uleb128 0x3b
 3222 0094 05       		.uleb128 0x5
 3223 0095 01       		.uleb128 0x1
 3224 0096 13       		.uleb128 0x13
 3225 0097 00       		.byte	0
 3226 0098 00       		.byte	0
 3227 0099 0C       		.uleb128 0xc
 3228 009a 15       		.uleb128 0x15
 3229 009b 01       		.byte	0x1
 3230 009c 27       		.uleb128 0x27
 3231 009d 19       		.uleb128 0x19
 3232 009e 01       		.uleb128 0x1
 3233 009f 13       		.uleb128 0x13
 3234 00a0 00       		.byte	0
 3235 00a1 00       		.byte	0
 3236 00a2 0D       		.uleb128 0xd
 3237 00a3 05       		.uleb128 0x5
 3238 00a4 00       		.byte	0
 3239 00a5 49       		.uleb128 0x49
 3240 00a6 13       		.uleb128 0x13
 3241 00a7 00       		.byte	0
 3242 00a8 00       		.byte	0
 3243 00a9 0E       		.uleb128 0xe
 3244 00aa 0F       		.uleb128 0xf
 3245 00ab 00       		.byte	0
ARM GAS  /tmp/ccyVQ1Qg.s 			page 58


 3246 00ac 0B       		.uleb128 0xb
 3247 00ad 0B       		.uleb128 0xb
 3248 00ae 00       		.byte	0
 3249 00af 00       		.byte	0
 3250 00b0 0F       		.uleb128 0xf
 3251 00b1 35       		.uleb128 0x35
 3252 00b2 00       		.byte	0
 3253 00b3 49       		.uleb128 0x49
 3254 00b4 13       		.uleb128 0x13
 3255 00b5 00       		.byte	0
 3256 00b6 00       		.byte	0
 3257 00b7 10       		.uleb128 0x10
 3258 00b8 01       		.uleb128 0x1
 3259 00b9 01       		.byte	0x1
 3260 00ba 49       		.uleb128 0x49
 3261 00bb 13       		.uleb128 0x13
 3262 00bc 01       		.uleb128 0x1
 3263 00bd 13       		.uleb128 0x13
 3264 00be 00       		.byte	0
 3265 00bf 00       		.byte	0
 3266 00c0 11       		.uleb128 0x11
 3267 00c1 21       		.uleb128 0x21
 3268 00c2 00       		.byte	0
 3269 00c3 49       		.uleb128 0x49
 3270 00c4 13       		.uleb128 0x13
 3271 00c5 2F       		.uleb128 0x2f
 3272 00c6 0B       		.uleb128 0xb
 3273 00c7 00       		.byte	0
 3274 00c8 00       		.byte	0
 3275 00c9 12       		.uleb128 0x12
 3276 00ca 13       		.uleb128 0x13
 3277 00cb 01       		.byte	0x1
 3278 00cc 0B       		.uleb128 0xb
 3279 00cd 0B       		.uleb128 0xb
 3280 00ce 3A       		.uleb128 0x3a
 3281 00cf 0B       		.uleb128 0xb
 3282 00d0 3B       		.uleb128 0x3b
 3283 00d1 05       		.uleb128 0x5
 3284 00d2 01       		.uleb128 0x1
 3285 00d3 13       		.uleb128 0x13
 3286 00d4 00       		.byte	0
 3287 00d5 00       		.byte	0
 3288 00d6 13       		.uleb128 0x13
 3289 00d7 16       		.uleb128 0x16
 3290 00d8 00       		.byte	0
 3291 00d9 03       		.uleb128 0x3
 3292 00da 0E       		.uleb128 0xe
 3293 00db 3A       		.uleb128 0x3a
 3294 00dc 0B       		.uleb128 0xb
 3295 00dd 3B       		.uleb128 0x3b
 3296 00de 05       		.uleb128 0x5
 3297 00df 49       		.uleb128 0x49
 3298 00e0 13       		.uleb128 0x13
 3299 00e1 00       		.byte	0
 3300 00e2 00       		.byte	0
 3301 00e3 14       		.uleb128 0x14
 3302 00e4 13       		.uleb128 0x13
ARM GAS  /tmp/ccyVQ1Qg.s 			page 59


 3303 00e5 01       		.byte	0x1
 3304 00e6 0B       		.uleb128 0xb
 3305 00e7 0B       		.uleb128 0xb
 3306 00e8 3A       		.uleb128 0x3a
 3307 00e9 0B       		.uleb128 0xb
 3308 00ea 3B       		.uleb128 0x3b
 3309 00eb 0B       		.uleb128 0xb
 3310 00ec 01       		.uleb128 0x1
 3311 00ed 13       		.uleb128 0x13
 3312 00ee 00       		.byte	0
 3313 00ef 00       		.byte	0
 3314 00f0 15       		.uleb128 0x15
 3315 00f1 17       		.uleb128 0x17
 3316 00f2 01       		.byte	0x1
 3317 00f3 0B       		.uleb128 0xb
 3318 00f4 0B       		.uleb128 0xb
 3319 00f5 3A       		.uleb128 0x3a
 3320 00f6 0B       		.uleb128 0xb
 3321 00f7 3B       		.uleb128 0x3b
 3322 00f8 0B       		.uleb128 0xb
 3323 00f9 01       		.uleb128 0x1
 3324 00fa 13       		.uleb128 0x13
 3325 00fb 00       		.byte	0
 3326 00fc 00       		.byte	0
 3327 00fd 16       		.uleb128 0x16
 3328 00fe 0D       		.uleb128 0xd
 3329 00ff 00       		.byte	0
 3330 0100 03       		.uleb128 0x3
 3331 0101 0E       		.uleb128 0xe
 3332 0102 3A       		.uleb128 0x3a
 3333 0103 0B       		.uleb128 0xb
 3334 0104 3B       		.uleb128 0x3b
 3335 0105 0B       		.uleb128 0xb
 3336 0106 49       		.uleb128 0x49
 3337 0107 13       		.uleb128 0x13
 3338 0108 00       		.byte	0
 3339 0109 00       		.byte	0
 3340 010a 17       		.uleb128 0x17
 3341 010b 0D       		.uleb128 0xd
 3342 010c 00       		.byte	0
 3343 010d 03       		.uleb128 0x3
 3344 010e 0E       		.uleb128 0xe
 3345 010f 3A       		.uleb128 0x3a
 3346 0110 0B       		.uleb128 0xb
 3347 0111 3B       		.uleb128 0x3b
 3348 0112 05       		.uleb128 0x5
 3349 0113 49       		.uleb128 0x49
 3350 0114 13       		.uleb128 0x13
 3351 0115 00       		.byte	0
 3352 0116 00       		.byte	0
 3353 0117 18       		.uleb128 0x18
 3354 0118 26       		.uleb128 0x26
 3355 0119 00       		.byte	0
 3356 011a 49       		.uleb128 0x49
 3357 011b 13       		.uleb128 0x13
 3358 011c 00       		.byte	0
 3359 011d 00       		.byte	0
ARM GAS  /tmp/ccyVQ1Qg.s 			page 60


 3360 011e 19       		.uleb128 0x19
 3361 011f 2E       		.uleb128 0x2e
 3362 0120 01       		.byte	0x1
 3363 0121 3F       		.uleb128 0x3f
 3364 0122 19       		.uleb128 0x19
 3365 0123 03       		.uleb128 0x3
 3366 0124 0E       		.uleb128 0xe
 3367 0125 3A       		.uleb128 0x3a
 3368 0126 0B       		.uleb128 0xb
 3369 0127 3B       		.uleb128 0x3b
 3370 0128 0B       		.uleb128 0xb
 3371 0129 27       		.uleb128 0x27
 3372 012a 19       		.uleb128 0x19
 3373 012b 11       		.uleb128 0x11
 3374 012c 01       		.uleb128 0x1
 3375 012d 12       		.uleb128 0x12
 3376 012e 06       		.uleb128 0x6
 3377 012f 40       		.uleb128 0x40
 3378 0130 18       		.uleb128 0x18
 3379 0131 9642     		.uleb128 0x2116
 3380 0133 19       		.uleb128 0x19
 3381 0134 01       		.uleb128 0x1
 3382 0135 13       		.uleb128 0x13
 3383 0136 00       		.byte	0
 3384 0137 00       		.byte	0
 3385 0138 1A       		.uleb128 0x1a
 3386 0139 34       		.uleb128 0x34
 3387 013a 00       		.byte	0
 3388 013b 03       		.uleb128 0x3
 3389 013c 0E       		.uleb128 0xe
 3390 013d 3A       		.uleb128 0x3a
 3391 013e 0B       		.uleb128 0xb
 3392 013f 3B       		.uleb128 0x3b
 3393 0140 0B       		.uleb128 0xb
 3394 0141 49       		.uleb128 0x49
 3395 0142 13       		.uleb128 0x13
 3396 0143 02       		.uleb128 0x2
 3397 0144 17       		.uleb128 0x17
 3398 0145 00       		.byte	0
 3399 0146 00       		.byte	0
 3400 0147 1B       		.uleb128 0x1b
 3401 0148 898201   		.uleb128 0x4109
 3402 014b 00       		.byte	0
 3403 014c 11       		.uleb128 0x11
 3404 014d 01       		.uleb128 0x1
 3405 014e 31       		.uleb128 0x31
 3406 014f 13       		.uleb128 0x13
 3407 0150 00       		.byte	0
 3408 0151 00       		.byte	0
 3409 0152 1C       		.uleb128 0x1c
 3410 0153 898201   		.uleb128 0x4109
 3411 0156 00       		.byte	0
 3412 0157 11       		.uleb128 0x11
 3413 0158 01       		.uleb128 0x1
 3414 0159 9542     		.uleb128 0x2115
 3415 015b 19       		.uleb128 0x19
 3416 015c 31       		.uleb128 0x31
ARM GAS  /tmp/ccyVQ1Qg.s 			page 61


 3417 015d 13       		.uleb128 0x13
 3418 015e 00       		.byte	0
 3419 015f 00       		.byte	0
 3420 0160 1D       		.uleb128 0x1d
 3421 0161 2E       		.uleb128 0x2e
 3422 0162 01       		.byte	0x1
 3423 0163 3F       		.uleb128 0x3f
 3424 0164 19       		.uleb128 0x19
 3425 0165 03       		.uleb128 0x3
 3426 0166 0E       		.uleb128 0xe
 3427 0167 3A       		.uleb128 0x3a
 3428 0168 0B       		.uleb128 0xb
 3429 0169 3B       		.uleb128 0x3b
 3430 016a 05       		.uleb128 0x5
 3431 016b 27       		.uleb128 0x27
 3432 016c 19       		.uleb128 0x19
 3433 016d 11       		.uleb128 0x11
 3434 016e 01       		.uleb128 0x1
 3435 016f 12       		.uleb128 0x12
 3436 0170 06       		.uleb128 0x6
 3437 0171 40       		.uleb128 0x40
 3438 0172 18       		.uleb128 0x18
 3439 0173 9642     		.uleb128 0x2116
 3440 0175 19       		.uleb128 0x19
 3441 0176 01       		.uleb128 0x1
 3442 0177 13       		.uleb128 0x13
 3443 0178 00       		.byte	0
 3444 0179 00       		.byte	0
 3445 017a 1E       		.uleb128 0x1e
 3446 017b 34       		.uleb128 0x34
 3447 017c 00       		.byte	0
 3448 017d 03       		.uleb128 0x3
 3449 017e 0E       		.uleb128 0xe
 3450 017f 3A       		.uleb128 0x3a
 3451 0180 0B       		.uleb128 0xb
 3452 0181 3B       		.uleb128 0x3b
 3453 0182 05       		.uleb128 0x5
 3454 0183 49       		.uleb128 0x49
 3455 0184 13       		.uleb128 0x13
 3456 0185 02       		.uleb128 0x2
 3457 0186 17       		.uleb128 0x17
 3458 0187 00       		.byte	0
 3459 0188 00       		.byte	0
 3460 0189 1F       		.uleb128 0x1f
 3461 018a 2E       		.uleb128 0x2e
 3462 018b 01       		.byte	0x1
 3463 018c 3F       		.uleb128 0x3f
 3464 018d 19       		.uleb128 0x19
 3465 018e 03       		.uleb128 0x3
 3466 018f 0E       		.uleb128 0xe
 3467 0190 3A       		.uleb128 0x3a
 3468 0191 0B       		.uleb128 0xb
 3469 0192 3B       		.uleb128 0x3b
 3470 0193 05       		.uleb128 0x5
 3471 0194 27       		.uleb128 0x27
 3472 0195 19       		.uleb128 0x19
 3473 0196 11       		.uleb128 0x11
ARM GAS  /tmp/ccyVQ1Qg.s 			page 62


 3474 0197 01       		.uleb128 0x1
 3475 0198 12       		.uleb128 0x12
 3476 0199 06       		.uleb128 0x6
 3477 019a 40       		.uleb128 0x40
 3478 019b 18       		.uleb128 0x18
 3479 019c 9742     		.uleb128 0x2117
 3480 019e 19       		.uleb128 0x19
 3481 019f 01       		.uleb128 0x1
 3482 01a0 13       		.uleb128 0x13
 3483 01a1 00       		.byte	0
 3484 01a2 00       		.byte	0
 3485 01a3 20       		.uleb128 0x20
 3486 01a4 34       		.uleb128 0x34
 3487 01a5 00       		.byte	0
 3488 01a6 03       		.uleb128 0x3
 3489 01a7 08       		.uleb128 0x8
 3490 01a8 3A       		.uleb128 0x3a
 3491 01a9 0B       		.uleb128 0xb
 3492 01aa 3B       		.uleb128 0x3b
 3493 01ab 05       		.uleb128 0x5
 3494 01ac 49       		.uleb128 0x49
 3495 01ad 13       		.uleb128 0x13
 3496 01ae 02       		.uleb128 0x2
 3497 01af 17       		.uleb128 0x17
 3498 01b0 00       		.byte	0
 3499 01b1 00       		.byte	0
 3500 01b2 21       		.uleb128 0x21
 3501 01b3 2E       		.uleb128 0x2e
 3502 01b4 01       		.byte	0x1
 3503 01b5 3F       		.uleb128 0x3f
 3504 01b6 19       		.uleb128 0x19
 3505 01b7 03       		.uleb128 0x3
 3506 01b8 0E       		.uleb128 0xe
 3507 01b9 3A       		.uleb128 0x3a
 3508 01ba 0B       		.uleb128 0xb
 3509 01bb 3B       		.uleb128 0x3b
 3510 01bc 05       		.uleb128 0x5
 3511 01bd 27       		.uleb128 0x27
 3512 01be 19       		.uleb128 0x19
 3513 01bf 49       		.uleb128 0x49
 3514 01c0 13       		.uleb128 0x13
 3515 01c1 11       		.uleb128 0x11
 3516 01c2 01       		.uleb128 0x1
 3517 01c3 12       		.uleb128 0x12
 3518 01c4 06       		.uleb128 0x6
 3519 01c5 40       		.uleb128 0x40
 3520 01c6 18       		.uleb128 0x18
 3521 01c7 9742     		.uleb128 0x2117
 3522 01c9 19       		.uleb128 0x19
 3523 01ca 01       		.uleb128 0x1
 3524 01cb 13       		.uleb128 0x13
 3525 01cc 00       		.byte	0
 3526 01cd 00       		.byte	0
 3527 01ce 22       		.uleb128 0x22
 3528 01cf 05       		.uleb128 0x5
 3529 01d0 00       		.byte	0
 3530 01d1 03       		.uleb128 0x3
ARM GAS  /tmp/ccyVQ1Qg.s 			page 63


 3531 01d2 0E       		.uleb128 0xe
 3532 01d3 3A       		.uleb128 0x3a
 3533 01d4 0B       		.uleb128 0xb
 3534 01d5 3B       		.uleb128 0x3b
 3535 01d6 05       		.uleb128 0x5
 3536 01d7 49       		.uleb128 0x49
 3537 01d8 13       		.uleb128 0x13
 3538 01d9 02       		.uleb128 0x2
 3539 01da 17       		.uleb128 0x17
 3540 01db 00       		.byte	0
 3541 01dc 00       		.byte	0
 3542 01dd 23       		.uleb128 0x23
 3543 01de 34       		.uleb128 0x34
 3544 01df 00       		.byte	0
 3545 01e0 03       		.uleb128 0x3
 3546 01e1 0E       		.uleb128 0xe
 3547 01e2 49       		.uleb128 0x49
 3548 01e3 13       		.uleb128 0x13
 3549 01e4 34       		.uleb128 0x34
 3550 01e5 19       		.uleb128 0x19
 3551 01e6 00       		.byte	0
 3552 01e7 00       		.byte	0
 3553 01e8 24       		.uleb128 0x24
 3554 01e9 34       		.uleb128 0x34
 3555 01ea 00       		.byte	0
 3556 01eb 03       		.uleb128 0x3
 3557 01ec 0E       		.uleb128 0xe
 3558 01ed 3A       		.uleb128 0x3a
 3559 01ee 0B       		.uleb128 0xb
 3560 01ef 3B       		.uleb128 0x3b
 3561 01f0 0B       		.uleb128 0xb
 3562 01f1 49       		.uleb128 0x49
 3563 01f2 13       		.uleb128 0x13
 3564 01f3 02       		.uleb128 0x2
 3565 01f4 18       		.uleb128 0x18
 3566 01f5 00       		.byte	0
 3567 01f6 00       		.byte	0
 3568 01f7 25       		.uleb128 0x25
 3569 01f8 34       		.uleb128 0x34
 3570 01f9 00       		.byte	0
 3571 01fa 03       		.uleb128 0x3
 3572 01fb 0E       		.uleb128 0xe
 3573 01fc 3A       		.uleb128 0x3a
 3574 01fd 0B       		.uleb128 0xb
 3575 01fe 3B       		.uleb128 0x3b
 3576 01ff 05       		.uleb128 0x5
 3577 0200 49       		.uleb128 0x49
 3578 0201 13       		.uleb128 0x13
 3579 0202 3F       		.uleb128 0x3f
 3580 0203 19       		.uleb128 0x19
 3581 0204 3C       		.uleb128 0x3c
 3582 0205 19       		.uleb128 0x19
 3583 0206 00       		.byte	0
 3584 0207 00       		.byte	0
 3585 0208 26       		.uleb128 0x26
 3586 0209 34       		.uleb128 0x34
 3587 020a 00       		.byte	0
ARM GAS  /tmp/ccyVQ1Qg.s 			page 64


 3588 020b 03       		.uleb128 0x3
 3589 020c 08       		.uleb128 0x8
 3590 020d 3A       		.uleb128 0x3a
 3591 020e 0B       		.uleb128 0xb
 3592 020f 3B       		.uleb128 0x3b
 3593 0210 05       		.uleb128 0x5
 3594 0211 49       		.uleb128 0x49
 3595 0212 13       		.uleb128 0x13
 3596 0213 3F       		.uleb128 0x3f
 3597 0214 19       		.uleb128 0x19
 3598 0215 3C       		.uleb128 0x3c
 3599 0216 19       		.uleb128 0x19
 3600 0217 00       		.byte	0
 3601 0218 00       		.byte	0
 3602 0219 27       		.uleb128 0x27
 3603 021a 34       		.uleb128 0x34
 3604 021b 00       		.byte	0
 3605 021c 03       		.uleb128 0x3
 3606 021d 0E       		.uleb128 0xe
 3607 021e 3A       		.uleb128 0x3a
 3608 021f 0B       		.uleb128 0xb
 3609 0220 3B       		.uleb128 0x3b
 3610 0221 0B       		.uleb128 0xb
 3611 0222 49       		.uleb128 0x49
 3612 0223 13       		.uleb128 0x13
 3613 0224 3F       		.uleb128 0x3f
 3614 0225 19       		.uleb128 0x19
 3615 0226 02       		.uleb128 0x2
 3616 0227 18       		.uleb128 0x18
 3617 0228 00       		.byte	0
 3618 0229 00       		.byte	0
 3619 022a 28       		.uleb128 0x28
 3620 022b 2E       		.uleb128 0x2e
 3621 022c 00       		.byte	0
 3622 022d 3F       		.uleb128 0x3f
 3623 022e 19       		.uleb128 0x19
 3624 022f 03       		.uleb128 0x3
 3625 0230 0E       		.uleb128 0xe
 3626 0231 3A       		.uleb128 0x3a
 3627 0232 0B       		.uleb128 0xb
 3628 0233 3B       		.uleb128 0x3b
 3629 0234 0B       		.uleb128 0xb
 3630 0235 27       		.uleb128 0x27
 3631 0236 19       		.uleb128 0x19
 3632 0237 3C       		.uleb128 0x3c
 3633 0238 19       		.uleb128 0x19
 3634 0239 00       		.byte	0
 3635 023a 00       		.byte	0
 3636 023b 29       		.uleb128 0x29
 3637 023c 2E       		.uleb128 0x2e
 3638 023d 00       		.byte	0
 3639 023e 3F       		.uleb128 0x3f
 3640 023f 19       		.uleb128 0x19
 3641 0240 03       		.uleb128 0x3
 3642 0241 0E       		.uleb128 0xe
 3643 0242 3A       		.uleb128 0x3a
 3644 0243 0B       		.uleb128 0xb
ARM GAS  /tmp/ccyVQ1Qg.s 			page 65


 3645 0244 3B       		.uleb128 0x3b
 3646 0245 05       		.uleb128 0x5
 3647 0246 27       		.uleb128 0x27
 3648 0247 19       		.uleb128 0x19
 3649 0248 3C       		.uleb128 0x3c
 3650 0249 19       		.uleb128 0x19
 3651 024a 00       		.byte	0
 3652 024b 00       		.byte	0
 3653 024c 2A       		.uleb128 0x2a
 3654 024d 2E       		.uleb128 0x2e
 3655 024e 01       		.byte	0x1
 3656 024f 3F       		.uleb128 0x3f
 3657 0250 19       		.uleb128 0x19
 3658 0251 03       		.uleb128 0x3
 3659 0252 0E       		.uleb128 0xe
 3660 0253 3A       		.uleb128 0x3a
 3661 0254 0B       		.uleb128 0xb
 3662 0255 3B       		.uleb128 0x3b
 3663 0256 0B       		.uleb128 0xb
 3664 0257 27       		.uleb128 0x27
 3665 0258 19       		.uleb128 0x19
 3666 0259 3C       		.uleb128 0x3c
 3667 025a 19       		.uleb128 0x19
 3668 025b 01       		.uleb128 0x1
 3669 025c 13       		.uleb128 0x13
 3670 025d 00       		.byte	0
 3671 025e 00       		.byte	0
 3672 025f 2B       		.uleb128 0x2b
 3673 0260 2E       		.uleb128 0x2e
 3674 0261 01       		.byte	0x1
 3675 0262 3F       		.uleb128 0x3f
 3676 0263 19       		.uleb128 0x19
 3677 0264 03       		.uleb128 0x3
 3678 0265 0E       		.uleb128 0xe
 3679 0266 3A       		.uleb128 0x3a
 3680 0267 0B       		.uleb128 0xb
 3681 0268 3B       		.uleb128 0x3b
 3682 0269 0B       		.uleb128 0xb
 3683 026a 27       		.uleb128 0x27
 3684 026b 19       		.uleb128 0x19
 3685 026c 3C       		.uleb128 0x3c
 3686 026d 19       		.uleb128 0x19
 3687 026e 00       		.byte	0
 3688 026f 00       		.byte	0
 3689 0270 00       		.byte	0
 3690              		.section	.debug_loc,"",%progbits
 3691              	.Ldebug_loc0:
 3692              	.LLST0:
 3693 0000 10000000 		.4byte	.LVL1
 3694 0004 19000000 		.4byte	.LVL2-1
 3695 0008 0100     		.2byte	0x1
 3696 000a 51       		.byte	0x51
 3697 000b 00000000 		.4byte	0
 3698 000f 00000000 		.4byte	0
 3699              	.LLST1:
 3700 0013 10000000 		.4byte	.LVL5
 3701 0017 1D000000 		.4byte	.LVL6-1
ARM GAS  /tmp/ccyVQ1Qg.s 			page 66


 3702 001b 0100     		.2byte	0x1
 3703 001d 51       		.byte	0x51
 3704 001e 00000000 		.4byte	0
 3705 0022 00000000 		.4byte	0
 3706              	.LLST2:
 3707 0026 10000000 		.4byte	.LVL9
 3708 002a 1D000000 		.4byte	.LVL10-1
 3709 002e 0100     		.2byte	0x1
 3710 0030 51       		.byte	0x51
 3711 0031 00000000 		.4byte	0
 3712 0035 00000000 		.4byte	0
 3713              	.LLST3:
 3714 0039 10000000 		.4byte	.LVL13
 3715 003d 1D000000 		.4byte	.LVL14-1
 3716 0041 0100     		.2byte	0x1
 3717 0043 51       		.byte	0x51
 3718 0044 00000000 		.4byte	0
 3719 0048 00000000 		.4byte	0
 3720              	.LLST4:
 3721 004c 10000000 		.4byte	.LVL17
 3722 0050 19000000 		.4byte	.LVL18-1
 3723 0054 0100     		.2byte	0x1
 3724 0056 51       		.byte	0x51
 3725 0057 00000000 		.4byte	0
 3726 005b 00000000 		.4byte	0
 3727              	.LLST5:
 3728 005f 10000000 		.4byte	.LVL21
 3729 0063 1D000000 		.4byte	.LVL22-1
 3730 0067 0100     		.2byte	0x1
 3731 0069 51       		.byte	0x51
 3732 006a 00000000 		.4byte	0
 3733 006e 00000000 		.4byte	0
 3734              	.LLST6:
 3735 0072 10000000 		.4byte	.LVL25
 3736 0076 1D000000 		.4byte	.LVL26-1
 3737 007a 0100     		.2byte	0x1
 3738 007c 51       		.byte	0x51
 3739 007d 00000000 		.4byte	0
 3740 0081 00000000 		.4byte	0
 3741              	.LLST7:
 3742 0085 10000000 		.4byte	.LVL29
 3743 0089 1D000000 		.4byte	.LVL30-1
 3744 008d 0100     		.2byte	0x1
 3745 008f 51       		.byte	0x51
 3746 0090 00000000 		.4byte	0
 3747 0094 00000000 		.4byte	0
 3748              	.LLST8:
 3749 0098 10000000 		.4byte	.LVL33
 3750 009c 19000000 		.4byte	.LVL34-1
 3751 00a0 0100     		.2byte	0x1
 3752 00a2 51       		.byte	0x51
 3753 00a3 00000000 		.4byte	0
 3754 00a7 00000000 		.4byte	0
 3755              	.LLST9:
 3756 00ab 10000000 		.4byte	.LVL37
 3757 00af 1D000000 		.4byte	.LVL38-1
 3758 00b3 0100     		.2byte	0x1
ARM GAS  /tmp/ccyVQ1Qg.s 			page 67


 3759 00b5 51       		.byte	0x51
 3760 00b6 00000000 		.4byte	0
 3761 00ba 00000000 		.4byte	0
 3762              	.LLST10:
 3763 00be 10000000 		.4byte	.LVL41
 3764 00c2 1D000000 		.4byte	.LVL42-1
 3765 00c6 0100     		.2byte	0x1
 3766 00c8 51       		.byte	0x51
 3767 00c9 00000000 		.4byte	0
 3768 00cd 00000000 		.4byte	0
 3769              	.LLST11:
 3770 00d1 10000000 		.4byte	.LVL45
 3771 00d5 1D000000 		.4byte	.LVL46-1
 3772 00d9 0100     		.2byte	0x1
 3773 00db 51       		.byte	0x51
 3774 00dc 00000000 		.4byte	0
 3775 00e0 00000000 		.4byte	0
 3776              	.LLST12:
 3777 00e4 10000000 		.4byte	.LVL49
 3778 00e8 19000000 		.4byte	.LVL50-1
 3779 00ec 0100     		.2byte	0x1
 3780 00ee 51       		.byte	0x51
 3781 00ef 00000000 		.4byte	0
 3782 00f3 00000000 		.4byte	0
 3783              	.LLST13:
 3784 00f7 10000000 		.4byte	.LVL53
 3785 00fb 1D000000 		.4byte	.LVL54-1
 3786 00ff 0100     		.2byte	0x1
 3787 0101 51       		.byte	0x51
 3788 0102 00000000 		.4byte	0
 3789 0106 00000000 		.4byte	0
 3790              	.LLST14:
 3791 010a 10000000 		.4byte	.LVL57
 3792 010e 1D000000 		.4byte	.LVL58-1
 3793 0112 0100     		.2byte	0x1
 3794 0114 51       		.byte	0x51
 3795 0115 00000000 		.4byte	0
 3796 0119 00000000 		.4byte	0
 3797              	.LLST15:
 3798 011d 10000000 		.4byte	.LVL61
 3799 0121 1D000000 		.4byte	.LVL62-1
 3800 0125 0100     		.2byte	0x1
 3801 0127 51       		.byte	0x51
 3802 0128 00000000 		.4byte	0
 3803 012c 00000000 		.4byte	0
 3804              	.LLST16:
 3805 0130 06000000 		.4byte	.LVL64
 3806 0134 24000000 		.4byte	.LVL66
 3807 0138 0100     		.2byte	0x1
 3808 013a 53       		.byte	0x53
 3809 013b 00000000 		.4byte	0
 3810 013f 00000000 		.4byte	0
 3811              	.LLST17:
 3812 0143 00000000 		.4byte	.LVL67
 3813 0147 6E000000 		.4byte	.LVL71
 3814 014b 0100     		.2byte	0x1
 3815 014d 50       		.byte	0x50
ARM GAS  /tmp/ccyVQ1Qg.s 			page 68


 3816 014e 6E000000 		.4byte	.LVL71
 3817 0152 76000000 		.4byte	.LVL73
 3818 0156 0400     		.2byte	0x4
 3819 0158 F3       		.byte	0xf3
 3820 0159 01       		.uleb128 0x1
 3821 015a 50       		.byte	0x50
 3822 015b 9F       		.byte	0x9f
 3823 015c 76000000 		.4byte	.LVL73
 3824 0160 78000000 		.4byte	.LVL74
 3825 0164 0100     		.2byte	0x1
 3826 0166 50       		.byte	0x50
 3827 0167 78000000 		.4byte	.LVL74
 3828 016b 7A000000 		.4byte	.LVL75
 3829 016f 0400     		.2byte	0x4
 3830 0171 F3       		.byte	0xf3
 3831 0172 01       		.uleb128 0x1
 3832 0173 50       		.byte	0x50
 3833 0174 9F       		.byte	0x9f
 3834 0175 7A000000 		.4byte	.LVL75
 3835 0179 7C000000 		.4byte	.LVL76
 3836 017d 0100     		.2byte	0x1
 3837 017f 50       		.byte	0x50
 3838 0180 7C000000 		.4byte	.LVL76
 3839 0184 8C000000 		.4byte	.LFE294
 3840 0188 0400     		.2byte	0x4
 3841 018a F3       		.byte	0xf3
 3842 018b 01       		.uleb128 0x1
 3843 018c 50       		.byte	0x50
 3844 018d 9F       		.byte	0x9f
 3845 018e 00000000 		.4byte	0
 3846 0192 00000000 		.4byte	0
 3847              	.LLST18:
 3848 0196 00000000 		.4byte	.LVL67
 3849 019a 71000000 		.4byte	.LVL72-1
 3850 019e 0100     		.2byte	0x1
 3851 01a0 51       		.byte	0x51
 3852 01a1 71000000 		.4byte	.LVL72-1
 3853 01a5 76000000 		.4byte	.LVL73
 3854 01a9 0400     		.2byte	0x4
 3855 01ab F3       		.byte	0xf3
 3856 01ac 01       		.uleb128 0x1
 3857 01ad 51       		.byte	0x51
 3858 01ae 9F       		.byte	0x9f
 3859 01af 76000000 		.4byte	.LVL73
 3860 01b3 8C000000 		.4byte	.LFE294
 3861 01b7 0100     		.2byte	0x1
 3862 01b9 51       		.byte	0x51
 3863 01ba 00000000 		.4byte	0
 3864 01be 00000000 		.4byte	0
 3865              	.LLST19:
 3866 01c2 00000000 		.4byte	.LVL67
 3867 01c6 71000000 		.4byte	.LVL72-1
 3868 01ca 0100     		.2byte	0x1
 3869 01cc 52       		.byte	0x52
 3870 01cd 71000000 		.4byte	.LVL72-1
 3871 01d1 76000000 		.4byte	.LVL73
 3872 01d5 0400     		.2byte	0x4
ARM GAS  /tmp/ccyVQ1Qg.s 			page 69


 3873 01d7 F3       		.byte	0xf3
 3874 01d8 01       		.uleb128 0x1
 3875 01d9 52       		.byte	0x52
 3876 01da 9F       		.byte	0x9f
 3877 01db 76000000 		.4byte	.LVL73
 3878 01df 8C000000 		.4byte	.LFE294
 3879 01e3 0100     		.2byte	0x1
 3880 01e5 52       		.byte	0x52
 3881 01e6 00000000 		.4byte	0
 3882 01ea 00000000 		.4byte	0
 3883              	.LLST20:
 3884 01ee 00000000 		.4byte	.LVL67
 3885 01f2 24000000 		.4byte	.LVL68
 3886 01f6 0100     		.2byte	0x1
 3887 01f8 53       		.byte	0x53
 3888 01f9 24000000 		.4byte	.LVL68
 3889 01fd 2C000000 		.4byte	.LVL69
 3890 0201 0200     		.2byte	0x2
 3891 0203 75       		.byte	0x75
 3892 0204 04       		.sleb128 4
 3893 0205 2C000000 		.4byte	.LVL69
 3894 0209 5E000000 		.4byte	.LVL70
 3895 020d 0A00     		.2byte	0xa
 3896 020f 76       		.byte	0x76
 3897 0210 00       		.sleb128 0
 3898 0211 33       		.byte	0x33
 3899 0212 24       		.byte	0x24
 3900 0213 03       		.byte	0x3
 3901 0214 04000000 		.4byte	.LANCHOR0+4
 3902 0218 22       		.byte	0x22
 3903 0219 5E000000 		.4byte	.LVL70
 3904 021d 76000000 		.4byte	.LVL73
 3905 0221 0400     		.2byte	0x4
 3906 0223 F3       		.byte	0xf3
 3907 0224 01       		.uleb128 0x1
 3908 0225 53       		.byte	0x53
 3909 0226 9F       		.byte	0x9f
 3910 0227 76000000 		.4byte	.LVL73
 3911 022b 7A000000 		.4byte	.LVL75
 3912 022f 0100     		.2byte	0x1
 3913 0231 53       		.byte	0x53
 3914 0232 7A000000 		.4byte	.LVL75
 3915 0236 8C000000 		.4byte	.LFE294
 3916 023a 0400     		.2byte	0x4
 3917 023c F3       		.byte	0xf3
 3918 023d 01       		.uleb128 0x1
 3919 023e 53       		.byte	0x53
 3920 023f 9F       		.byte	0x9f
 3921 0240 00000000 		.4byte	0
 3922 0244 00000000 		.4byte	0
 3923              	.LLST21:
 3924 0248 00000000 		.4byte	.LVL77
 3925 024c 06000000 		.4byte	.LVL78
 3926 0250 0100     		.2byte	0x1
 3927 0252 50       		.byte	0x50
 3928 0253 06000000 		.4byte	.LVL78
 3929 0257 3C000000 		.4byte	.LVL80
ARM GAS  /tmp/ccyVQ1Qg.s 			page 70


 3930 025b 0100     		.2byte	0x1
 3931 025d 54       		.byte	0x54
 3932 025e 3C000000 		.4byte	.LVL80
 3933 0262 44000000 		.4byte	.LFE295
 3934 0266 0400     		.2byte	0x4
 3935 0268 F3       		.byte	0xf3
 3936 0269 01       		.uleb128 0x1
 3937 026a 50       		.byte	0x50
 3938 026b 9F       		.byte	0x9f
 3939 026c 00000000 		.4byte	0
 3940 0270 00000000 		.4byte	0
 3941              		.section	.debug_aranges,"",%progbits
 3942 0000 AC000000 		.4byte	0xac
 3943 0004 0200     		.2byte	0x2
 3944 0006 00000000 		.4byte	.Ldebug_info0
 3945 000a 04       		.byte	0x4
 3946 000b 00       		.byte	0
 3947 000c 0000     		.2byte	0
 3948 000e 0000     		.2byte	0
 3949 0010 00000000 		.4byte	.LFB277
 3950 0014 2C000000 		.4byte	.LFE277-.LFB277
 3951 0018 00000000 		.4byte	.LFB278
 3952 001c 30000000 		.4byte	.LFE278-.LFB278
 3953 0020 00000000 		.4byte	.LFB279
 3954 0024 30000000 		.4byte	.LFE279-.LFB279
 3955 0028 00000000 		.4byte	.LFB280
 3956 002c 30000000 		.4byte	.LFE280-.LFB280
 3957 0030 00000000 		.4byte	.LFB281
 3958 0034 2C000000 		.4byte	.LFE281-.LFB281
 3959 0038 00000000 		.4byte	.LFB282
 3960 003c 30000000 		.4byte	.LFE282-.LFB282
 3961 0040 00000000 		.4byte	.LFB283
 3962 0044 30000000 		.4byte	.LFE283-.LFB283
 3963 0048 00000000 		.4byte	.LFB284
 3964 004c 30000000 		.4byte	.LFE284-.LFB284
 3965 0050 00000000 		.4byte	.LFB285
 3966 0054 2C000000 		.4byte	.LFE285-.LFB285
 3967 0058 00000000 		.4byte	.LFB286
 3968 005c 30000000 		.4byte	.LFE286-.LFB286
 3969 0060 00000000 		.4byte	.LFB287
 3970 0064 30000000 		.4byte	.LFE287-.LFB287
 3971 0068 00000000 		.4byte	.LFB288
 3972 006c 30000000 		.4byte	.LFE288-.LFB288
 3973 0070 00000000 		.4byte	.LFB289
 3974 0074 2C000000 		.4byte	.LFE289-.LFB289
 3975 0078 00000000 		.4byte	.LFB290
 3976 007c 30000000 		.4byte	.LFE290-.LFB290
 3977 0080 00000000 		.4byte	.LFB291
 3978 0084 30000000 		.4byte	.LFE291-.LFB291
 3979 0088 00000000 		.4byte	.LFB292
 3980 008c 30000000 		.4byte	.LFE292-.LFB292
 3981 0090 00000000 		.4byte	.LFB293
 3982 0094 44000000 		.4byte	.LFE293-.LFB293
 3983 0098 00000000 		.4byte	.LFB294
 3984 009c 8C000000 		.4byte	.LFE294-.LFB294
 3985 00a0 00000000 		.4byte	.LFB295
 3986 00a4 44000000 		.4byte	.LFE295-.LFB295
ARM GAS  /tmp/ccyVQ1Qg.s 			page 71


 3987 00a8 00000000 		.4byte	0
 3988 00ac 00000000 		.4byte	0
 3989              		.section	.debug_ranges,"",%progbits
 3990              	.Ldebug_ranges0:
 3991 0000 00000000 		.4byte	.LFB277
 3992 0004 2C000000 		.4byte	.LFE277
 3993 0008 00000000 		.4byte	.LFB278
 3994 000c 30000000 		.4byte	.LFE278
 3995 0010 00000000 		.4byte	.LFB279
 3996 0014 30000000 		.4byte	.LFE279
 3997 0018 00000000 		.4byte	.LFB280
 3998 001c 30000000 		.4byte	.LFE280
 3999 0020 00000000 		.4byte	.LFB281
 4000 0024 2C000000 		.4byte	.LFE281
 4001 0028 00000000 		.4byte	.LFB282
 4002 002c 30000000 		.4byte	.LFE282
 4003 0030 00000000 		.4byte	.LFB283
 4004 0034 30000000 		.4byte	.LFE283
 4005 0038 00000000 		.4byte	.LFB284
 4006 003c 30000000 		.4byte	.LFE284
 4007 0040 00000000 		.4byte	.LFB285
 4008 0044 2C000000 		.4byte	.LFE285
 4009 0048 00000000 		.4byte	.LFB286
 4010 004c 30000000 		.4byte	.LFE286
 4011 0050 00000000 		.4byte	.LFB287
 4012 0054 30000000 		.4byte	.LFE287
 4013 0058 00000000 		.4byte	.LFB288
 4014 005c 30000000 		.4byte	.LFE288
 4015 0060 00000000 		.4byte	.LFB289
 4016 0064 2C000000 		.4byte	.LFE289
 4017 0068 00000000 		.4byte	.LFB290
 4018 006c 30000000 		.4byte	.LFE290
 4019 0070 00000000 		.4byte	.LFB291
 4020 0074 30000000 		.4byte	.LFE291
 4021 0078 00000000 		.4byte	.LFB292
 4022 007c 30000000 		.4byte	.LFE292
 4023 0080 00000000 		.4byte	.LFB293
 4024 0084 44000000 		.4byte	.LFE293
 4025 0088 00000000 		.4byte	.LFB294
 4026 008c 8C000000 		.4byte	.LFE294
 4027 0090 00000000 		.4byte	.LFB295
 4028 0094 44000000 		.4byte	.LFE295
 4029 0098 00000000 		.4byte	0
 4030 009c 00000000 		.4byte	0
 4031              		.section	.debug_line,"",%progbits
 4032              	.Ldebug_line0:
 4033 0000 B0040000 		.section	.debug_str,"MS",%progbits,1
 4033      0200AF02 
 4033      00000201 
 4033      FB0E0D00 
 4033      01010101 
 4034              	.LASF47:
 4035 0000 74687265 		.ascii	"threads_list_t\000"
 4035      6164735F 
 4035      6C697374 
 4035      5F7400
 4036              	.LASF54:
ARM GAS  /tmp/ccyVQ1Qg.s 			page 72


 4037 000f 72656164 		.ascii	"ready_list_t\000"
 4037      795F6C69 
 4037      73745F74 
 4037      00
 4038              	.LASF76:
 4039 001c 4D304152 		.ascii	"M0AR\000"
 4039      00
 4040              	.LASF2:
 4041 0021 73697A65 		.ascii	"size_t\000"
 4041      5F7400
 4042              	.LASF60:
 4043 0028 64656C74 		.ascii	"delta\000"
 4043      6100
 4044              	.LASF128:
 4045 002e 7264796D 		.ascii	"rdymsg\000"
 4045      736700
 4046              	.LASF17:
 4047 0035 75696E74 		.ascii	"uint64_t\000"
 4047      36345F74 
 4047      00
 4048              	.LASF73:
 4049 003e 6B65726E 		.ascii	"kernel_stats\000"
 4049      656C5F73 
 4049      74617473 
 4049      00
 4050              	.LASF3:
 4051 004b 5F5F7569 		.ascii	"__uint8_t\000"
 4051      6E74385F 
 4051      7400
 4052              	.LASF53:
 4053 0055 70726576 		.ascii	"prev\000"
 4053      00
 4054              	.LASF115:
 4055 005a 706F7274 		.ascii	"port_intctx\000"
 4055      5F696E74 
 4055      63747800 
 4056              	.LASF52:
 4057 0066 63685F74 		.ascii	"ch_threads_queue\000"
 4057      68726561 
 4057      64735F71 
 4057      75657565 
 4057      00
 4058              	.LASF65:
 4059 0077 73797374 		.ascii	"system_debug_t\000"
 4059      656D5F64 
 4059      65627567 
 4059      5F7400
 4060              	.LASF164:
 4061 0086 56656374 		.ascii	"Vector130\000"
 4061      6F723133 
 4061      3000
 4062              	.LASF151:
 4063 0090 646D615F 		.ascii	"dma_isr_redir_t\000"
 4063      6973725F 
 4063      72656469 
 4063      725F7400 
 4064              	.LASF142:
ARM GAS  /tmp/ccyVQ1Qg.s 			page 73


 4065 00a0 73747265 		.ascii	"stream\000"
 4065      616D00
 4066              	.LASF119:
 4067 00a7 776F7273 		.ascii	"worst\000"
 4067      7400
 4068              	.LASF122:
 4069 00ad 74696D65 		.ascii	"time_measurement_t\000"
 4069      5F6D6561 
 4069      73757265 
 4069      6D656E74 
 4069      5F7400
 4070              	.LASF13:
 4071 00c0 6C6F6E67 		.ascii	"long long unsigned int\000"
 4071      206C6F6E 
 4071      6720756E 
 4071      7369676E 
 4071      65642069 
 4072              	.LASF129:
 4073 00d7 65786974 		.ascii	"exitcode\000"
 4073      636F6465 
 4073      00
 4074              	.LASF177:
 4075 00e0 5F73746D 		.ascii	"_stm32_dma_streams\000"
 4075      33325F64 
 4075      6D615F73 
 4075      74726561 
 4075      6D7300
 4076              	.LASF132:
 4077 00f3 73656E74 		.ascii	"sentmsg\000"
 4077      6D736700 
 4078              	.LASF62:
 4079 00fb 76697274 		.ascii	"virtual_timers_list_t\000"
 4079      75616C5F 
 4079      74696D65 
 4079      72735F6C 
 4079      6973745F 
 4080              	.LASF176:
 4081 0111 49544D5F 		.ascii	"ITM_RxBuffer\000"
 4081      52784275 
 4081      66666572 
 4081      00
 4082              	.LASF50:
 4083 011e 6E657874 		.ascii	"next\000"
 4083      00
 4084              	.LASF19:
 4085 0123 72747469 		.ascii	"rttime_t\000"
 4085      6D655F74 
 4085      00
 4086              	.LASF100:
 4087 012c 41484231 		.ascii	"AHB1LPENR\000"
 4087      4C50454E 
 4087      5200
 4088              	.LASF184:
 4089 0136 6E766963 		.ascii	"nvicEnableVector\000"
 4089      456E6162 
 4089      6C655665 
 4089      63746F72 
ARM GAS  /tmp/ccyVQ1Qg.s 			page 74


 4089      00
 4090              	.LASF38:
 4091 0147 72656673 		.ascii	"refs\000"
 4091      00
 4092              	.LASF11:
 4093 014c 6C6F6E67 		.ascii	"long long int\000"
 4093      206C6F6E 
 4093      6720696E 
 4093      7400
 4094              	.LASF1:
 4095 015a 7369676E 		.ascii	"signed char\000"
 4095      65642063 
 4095      68617200 
 4096              	.LASF86:
 4097 0166 41484231 		.ascii	"AHB1RSTR\000"
 4097      52535452 
 4097      00
 4098              	.LASF71:
 4099 016f 76746C69 		.ascii	"vtlist\000"
 4099      737400
 4100              	.LASF182:
 4101 0176 2F686F6D 		.ascii	"/home/kozinalexey/f4by/ardupilot/build/f4by-ch\000"
 4101      652F6B6F 
 4101      7A696E61 
 4101      6C657865 
 4101      792F6634 
 4102              	.LASF123:
 4103 01a5 6E5F6972 		.ascii	"n_irq\000"
 4103      7100
 4104              	.LASF169:
 4105 01ab 646D6173 		.ascii	"dmastp\000"
 4105      747000
 4106              	.LASF40:
 4107 01b2 6D736771 		.ascii	"msgqueue\000"
 4107      75657565 
 4107      00
 4108              	.LASF36:
 4109 01bb 73746174 		.ascii	"state\000"
 4109      6500
 4110              	.LASF69:
 4111 01c1 63685F73 		.ascii	"ch_system\000"
 4111      79737465 
 4111      6D00
 4112              	.LASF8:
 4113 01cb 6C6F6E67 		.ascii	"long int\000"
 4113      20696E74 
 4113      00
 4114              	.LASF91:
 4115 01d4 41504232 		.ascii	"APB2RSTR\000"
 4115      52535452 
 4115      00
 4116              	.LASF104:
 4117 01dd 41504231 		.ascii	"APB1LPENR\000"
 4117      4C50454E 
 4117      5200
 4118              	.LASF21:
 4119 01e7 74737461 		.ascii	"tstate_t\000"
ARM GAS  /tmp/ccyVQ1Qg.s 			page 75


 4119      74655F74 
 4119      00
 4120              	.LASF61:
 4121 01f0 66756E63 		.ascii	"func\000"
 4121      00
 4122              	.LASF45:
 4123 01f5 73746174 		.ascii	"stats\000"
 4123      7300
 4124              	.LASF84:
 4125 01fb 504C4C43 		.ascii	"PLLCFGR\000"
 4125      46475200 
 4126              	.LASF150:
 4127 0203 646D615F 		.ascii	"dma_param\000"
 4127      70617261 
 4127      6D00
 4128              	.LASF33:
 4129 020d 6F6C6465 		.ascii	"older\000"
 4129      7200
 4130              	.LASF9:
 4131 0213 5F5F7569 		.ascii	"__uint32_t\000"
 4131      6E743332 
 4131      5F7400
 4132              	.LASF112:
 4133 021e 72656761 		.ascii	"regarm_t\000"
 4133      726D5F74 
 4133      00
 4134              	.LASF145:
 4135 0227 73656C66 		.ascii	"selfindex\000"
 4135      696E6465 
 4135      7800
 4136              	.LASF66:
 4137 0231 63685F73 		.ascii	"ch_system_debug\000"
 4137      79737465 
 4137      6D5F6465 
 4137      62756700 
 4138              	.LASF39:
 4139 0241 77616974 		.ascii	"waiting\000"
 4139      696E6700 
 4140              	.LASF140:
 4141 0249 6D757465 		.ascii	"mutex_t\000"
 4141      785F7400 
 4142              	.LASF93:
 4143 0251 41484231 		.ascii	"AHB1ENR\000"
 4143      454E5200 
 4144              	.LASF114:
 4145 0259 706F7274 		.ascii	"port_context\000"
 4145      5F636F6E 
 4145      74657874 
 4145      00
 4146              	.LASF83:
 4147 0266 444D415F 		.ascii	"DMA_TypeDef\000"
 4147      54797065 
 4147      44656600 
 4148              	.LASF26:
 4149 0272 636E745F 		.ascii	"cnt_t\000"
 4149      7400
 4150              	.LASF0:
ARM GAS  /tmp/ccyVQ1Qg.s 			page 76


 4151 0278 756E7369 		.ascii	"unsigned int\000"
 4151      676E6564 
 4151      20696E74 
 4151      00
 4152              	.LASF180:
 4153 0285 474E5520 		.ascii	"GNU C 4.9.3 20150529 (prerelease) -mcpu=cortex-m4 -"
 4153      4320342E 
 4153      392E3320 
 4153      32303135 
 4153      30353239 
 4154 02b8 6D666C6F 		.ascii	"mfloat-abi=hard -mfpu=fpv4-sp-d16 -mno-thumb-interw"
 4154      61742D61 
 4154      62693D68 
 4154      61726420 
 4154      2D6D6670 
 4155 02eb 6F726B20 		.ascii	"ork -mthumb -g -Os -fomit-frame-pointer -falign-fun"
 4155      2D6D7468 
 4155      756D6220 
 4155      2D67202D 
 4155      4F73202D 
 4156 031e 6374696F 		.ascii	"ctions=16 -ffunction-sections -fdata-sections -fno-"
 4156      6E733D31 
 4156      36202D66 
 4156      66756E63 
 4156      74696F6E 
 4157 0351 636F6D6D 		.ascii	"common -fsingle-precision-constant\000"
 4157      6F6E202D 
 4157      6673696E 
 4157      676C652D 
 4157      70726563 
 4158              	.LASF185:
 4159 0374 6E766963 		.ascii	"nvicDisableVector\000"
 4159      44697361 
 4159      626C6556 
 4159      6563746F 
 4159      7200
 4160              	.LASF166:
 4161 0386 56656374 		.ascii	"Vector154\000"
 4161      6F723135 
 4161      3400
 4162              	.LASF133:
 4163 0390 77747365 		.ascii	"wtsemp\000"
 4163      6D7000
 4164              	.LASF167:
 4165 0397 56656374 		.ascii	"Vector158\000"
 4165      6F723135 
 4165      3800
 4166              	.LASF148:
 4167 03a1 73746D33 		.ascii	"stm32_dmaisr_t\000"
 4167      325F646D 
 4167      61697372 
 4167      5F7400
 4168              	.LASF131:
 4169 03b0 77747472 		.ascii	"wttrp\000"
 4169      7000
 4170              	.LASF95:
 4171 03b6 41484233 		.ascii	"AHB3ENR\000"
ARM GAS  /tmp/ccyVQ1Qg.s 			page 77


 4171      454E5200 
 4172              	.LASF111:
 4173 03be 5243435F 		.ascii	"RCC_TypeDef\000"
 4173      54797065 
 4173      44656600 
 4174              	.LASF144:
 4175 03ca 69736869 		.ascii	"ishift\000"
 4175      667400
 4176              	.LASF155:
 4177 03d1 56656374 		.ascii	"Vector78\000"
 4177      6F723738 
 4177      00
 4178              	.LASF44:
 4179 03da 6D706F6F 		.ascii	"mpool\000"
 4179      6C00
 4180              	.LASF6:
 4181 03e0 73686F72 		.ascii	"short unsigned int\000"
 4181      7420756E 
 4181      7369676E 
 4181      65642069 
 4181      6E7400
 4182              	.LASF127:
 4183 03f3 6B65726E 		.ascii	"kernel_stats_t\000"
 4183      656C5F73 
 4183      74617473 
 4183      5F7400
 4184              	.LASF34:
 4185 0402 6E616D65 		.ascii	"name\000"
 4185      00
 4186              	.LASF48:
 4187 0407 63685F74 		.ascii	"ch_thread\000"
 4187      68726561 
 4187      6400
 4188              	.LASF110:
 4189 0411 504C4C49 		.ascii	"PLLI2SCFGR\000"
 4189      32534346 
 4189      475200
 4190              	.LASF72:
 4191 041c 6D61696E 		.ascii	"mainthread\000"
 4191      74687265 
 4191      616400
 4192              	.LASF24:
 4193 0427 6D73675F 		.ascii	"msg_t\000"
 4193      7400
 4194              	.LASF88:
 4195 042d 41484233 		.ascii	"AHB3RSTR\000"
 4195      52535452 
 4195      00
 4196              	.LASF27:
 4197 0436 75636E74 		.ascii	"ucnt_t\000"
 4197      5F7400
 4198              	.LASF41:
 4199 043d 6570656E 		.ascii	"epending\000"
 4199      64696E67 
 4199      00
 4200              	.LASF179:
 4201 0446 5F706F72 		.ascii	"_port_irq_epilogue\000"
ARM GAS  /tmp/ccyVQ1Qg.s 			page 78


 4201      745F6972 
 4201      715F6570 
 4201      696C6F67 
 4201      756500
 4202              	.LASF170:
 4203 0459 7072696F 		.ascii	"priority\000"
 4203      72697479 
 4203      00
 4204              	.LASF80:
 4205 0462 48495352 		.ascii	"HISR\000"
 4205      00
 4206              	.LASF20:
 4207 0467 746D6F64 		.ascii	"tmode_t\000"
 4207      655F7400 
 4208              	.LASF105:
 4209 046f 41504232 		.ascii	"APB2LPENR\000"
 4209      4C50454E 
 4209      5200
 4210              	.LASF126:
 4211 0479 6D5F6372 		.ascii	"m_crit_isr\000"
 4211      69745F69 
 4211      737200
 4212              	.LASF55:
 4213 0484 63685F72 		.ascii	"ch_ready_list\000"
 4213      65616479 
 4213      5F6C6973 
 4213      7400
 4214              	.LASF25:
 4215 0492 6576656E 		.ascii	"eventmask_t\000"
 4215      746D6173 
 4215      6B5F7400 
 4216              	.LASF7:
 4217 049e 5F5F696E 		.ascii	"__int32_t\000"
 4217      7433325F 
 4217      7400
 4218              	.LASF113:
 4219 04a8 73746B61 		.ascii	"stkalign_t\000"
 4219      6C69676E 
 4219      5F7400
 4220              	.LASF32:
 4221 04b3 6E657765 		.ascii	"newer\000"
 4221      7200
 4222              	.LASF58:
 4223 04b9 76697274 		.ascii	"virtual_timer_t\000"
 4223      75616C5F 
 4223      74696D65 
 4223      725F7400 
 4224              	.LASF43:
 4225 04c9 7265616C 		.ascii	"realprio\000"
 4225      7072696F 
 4225      00
 4226              	.LASF181:
 4227 04d2 2E2E2F2E 		.ascii	"../../modules/ChibiOS/os/hal/ports/STM32/LLD/DMAv2/"
 4227      2E2F6D6F 
 4227      64756C65 
 4227      732F4368 
 4227      6962694F 
ARM GAS  /tmp/ccyVQ1Qg.s 			page 79


 4228 0505 73746D33 		.ascii	"stm32_dma.c\000"
 4228      325F646D 
 4228      612E6300 
 4229              	.LASF81:
 4230 0511 4C494643 		.ascii	"LIFCR\000"
 4230      5200
 4231              	.LASF74:
 4232 0517 73697A65 		.ascii	"sizetype\000"
 4232      74797065 
 4232      00
 4233              	.LASF46:
 4234 0520 74687265 		.ascii	"thread_reference_t\000"
 4234      61645F72 
 4234      65666572 
 4234      656E6365 
 4234      5F7400
 4235              	.LASF63:
 4236 0533 63685F76 		.ascii	"ch_virtual_timers_list\000"
 4236      69727475 
 4236      616C5F74 
 4236      696D6572 
 4236      735F6C69 
 4237              	.LASF30:
 4238 054a 71756575 		.ascii	"queue\000"
 4238      6500
 4239              	.LASF171:
 4240 0550 70617261 		.ascii	"param\000"
 4240      6D00
 4241              	.LASF101:
 4242 0556 41484232 		.ascii	"AHB2LPENR\000"
 4242      4C50454E 
 4242      5200
 4243              	.LASF149:
 4244 0560 646D615F 		.ascii	"dma_func\000"
 4244      66756E63 
 4244      00
 4245              	.LASF117:
 4246 0569 746D5F63 		.ascii	"tm_calibration_t\000"
 4246      616C6962 
 4246      72617469 
 4246      6F6E5F74 
 4246      00
 4247              	.LASF31:
 4248 057a 7072696F 		.ascii	"prio\000"
 4248      00
 4249              	.LASF90:
 4250 057f 41504231 		.ascii	"APB1RSTR\000"
 4250      52535452 
 4250      00
 4251              	.LASF56:
 4252 0588 63757272 		.ascii	"current\000"
 4252      656E7400 
 4253              	.LASF12:
 4254 0590 5F5F7569 		.ascii	"__uint64_t\000"
 4254      6E743634 
 4254      5F7400
 4255              	.LASF121:
ARM GAS  /tmp/ccyVQ1Qg.s 			page 80


 4256 059b 63756D75 		.ascii	"cumulative\000"
 4256      6C617469 
 4256      766500
 4257              	.LASF22:
 4258 05a6 74726566 		.ascii	"trefs_t\000"
 4258      735F7400 
 4259              	.LASF89:
 4260 05ae 52455345 		.ascii	"RESERVED0\000"
 4260      52564544 
 4260      3000
 4261              	.LASF92:
 4262 05b8 52455345 		.ascii	"RESERVED1\000"
 4262      52564544 
 4262      3100
 4263              	.LASF96:
 4264 05c2 52455345 		.ascii	"RESERVED2\000"
 4264      52564544 
 4264      3200
 4265              	.LASF99:
 4266 05cc 52455345 		.ascii	"RESERVED3\000"
 4266      52564544 
 4266      3300
 4267              	.LASF103:
 4268 05d6 52455345 		.ascii	"RESERVED4\000"
 4268      52564544 
 4268      3400
 4269              	.LASF106:
 4270 05e0 52455345 		.ascii	"RESERVED5\000"
 4270      52564544 
 4270      3500
 4271              	.LASF108:
 4272 05ea 52455345 		.ascii	"RESERVED6\000"
 4272      52564544 
 4272      3600
 4273              	.LASF147:
 4274 05f4 73746D33 		.ascii	"stm32_dma_stream_t\000"
 4274      325F646D 
 4274      615F7374 
 4274      7265616D 
 4274      5F7400
 4275              	.LASF23:
 4276 0607 74707269 		.ascii	"tprio_t\000"
 4276      6F5F7400 
 4277              	.LASF152:
 4278 060f 56656374 		.ascii	"Vector6C\000"
 4278      6F723643 
 4278      00
 4279              	.LASF124:
 4280 0618 6E5F6374 		.ascii	"n_ctxswc\000"
 4280      78737763 
 4280      00
 4281              	.LASF141:
 4282 0621 5F426F6F 		.ascii	"_Bool\000"
 4282      6C00
 4283              	.LASF15:
 4284 0627 696E7433 		.ascii	"int32_t\000"
 4284      325F7400 
ARM GAS  /tmp/ccyVQ1Qg.s 			page 81


 4285              	.LASF4:
 4286 062f 756E7369 		.ascii	"unsigned char\000"
 4286      676E6564 
 4286      20636861 
 4286      7200
 4287              	.LASF5:
 4288 063d 73686F72 		.ascii	"short int\000"
 4288      7420696E 
 4288      7400
 4289              	.LASF64:
 4290 0647 6C617374 		.ascii	"lasttime\000"
 4290      74696D65 
 4290      00
 4291              	.LASF102:
 4292 0650 41484233 		.ascii	"AHB3LPENR\000"
 4292      4C50454E 
 4292      5200
 4293              	.LASF135:
 4294 065a 65776D61 		.ascii	"ewmask\000"
 4294      736B00
 4295              	.LASF173:
 4296 0661 5F5F6675 		.ascii	"__func__\000"
 4296      6E635F5F 
 4296      00
 4297              	.LASF98:
 4298 066a 41504232 		.ascii	"APB2ENR\000"
 4298      454E5200 
 4299              	.LASF59:
 4300 0672 63685F76 		.ascii	"ch_virtual_timer\000"
 4300      69727475 
 4300      616C5F74 
 4300      696D6572 
 4300      00
 4301              	.LASF165:
 4302 0683 56656374 		.ascii	"Vector150\000"
 4302      6F723135 
 4302      3000
 4303              	.LASF136:
 4304 068d 63685F73 		.ascii	"ch_semaphore\000"
 4304      656D6170 
 4304      686F7265 
 4304      00
 4305              	.LASF143:
 4306 069a 69666372 		.ascii	"ifcr\000"
 4306      00
 4307              	.LASF153:
 4308 069f 56656374 		.ascii	"Vector70\000"
 4308      6F723730 
 4308      00
 4309              	.LASF154:
 4310 06a8 56656374 		.ascii	"Vector74\000"
 4310      6F723734 
 4310      00
 4311              	.LASF178:
 4312 06b1 5F737461 		.ascii	"_stats_increase_irq\000"
 4312      74735F69 
 4312      6E637265 
ARM GAS  /tmp/ccyVQ1Qg.s 			page 82


 4312      6173655F 
 4312      69727100 
 4313              	.LASF159:
 4314 06c5 56656374 		.ascii	"VectorFC\000"
 4314      6F724643 
 4314      00
 4315              	.LASF49:
 4316 06ce 63685F74 		.ascii	"ch_threads_list\000"
 4316      68726561 
 4316      64735F6C 
 4316      69737400 
 4317              	.LASF138:
 4318 06de 6F776E65 		.ascii	"owner\000"
 4318      7200
 4319              	.LASF97:
 4320 06e4 41504231 		.ascii	"APB1ENR\000"
 4320      454E5200 
 4321              	.LASF168:
 4322 06ec 646D6149 		.ascii	"dmaInit\000"
 4322      6E697400 
 4323              	.LASF10:
 4324 06f4 6C6F6E67 		.ascii	"long unsigned int\000"
 4324      20756E73 
 4324      69676E65 
 4324      6420696E 
 4324      7400
 4325              	.LASF35:
 4326 0706 77616261 		.ascii	"wabase\000"
 4326      736500
 4327              	.LASF139:
 4328 070d 63686172 		.ascii	"char\000"
 4328      00
 4329              	.LASF172:
 4330 0712 646D6153 		.ascii	"dmaStreamRelease\000"
 4330      74726561 
 4330      6D52656C 
 4330      65617365 
 4330      00
 4331              	.LASF156:
 4332 0723 56656374 		.ascii	"Vector7C\000"
 4332      6F723743 
 4332      00
 4333              	.LASF134:
 4334 072c 77746D74 		.ascii	"wtmtxp\000"
 4334      787000
 4335              	.LASF87:
 4336 0733 41484232 		.ascii	"AHB2RSTR\000"
 4336      52535452 
 4336      00
 4337              	.LASF29:
 4338 073c 74687265 		.ascii	"thread_t\000"
 4338      61645F74 
 4338      00
 4339              	.LASF118:
 4340 0745 62657374 		.ascii	"best\000"
 4340      00
 4341              	.LASF28:
ARM GAS  /tmp/ccyVQ1Qg.s 			page 83


 4342 074a 73797374 		.ascii	"systime_t\000"
 4342      696D655F 
 4342      7400
 4343              	.LASF57:
 4344 0754 76746675 		.ascii	"vtfunc_t\000"
 4344      6E635F74 
 4344      00
 4345              	.LASF120:
 4346 075d 6C617374 		.ascii	"last\000"
 4346      00
 4347              	.LASF75:
 4348 0762 4E445452 		.ascii	"NDTR\000"
 4348      00
 4349              	.LASF67:
 4350 0767 70616E69 		.ascii	"panic_msg\000"
 4350      635F6D73 
 4350      6700
 4351              	.LASF116:
 4352 0771 6F666673 		.ascii	"offset\000"
 4352      657400
 4353              	.LASF78:
 4354 0778 444D415F 		.ascii	"DMA_Stream_TypeDef\000"
 4354      53747265 
 4354      616D5F54 
 4354      79706544 
 4354      656600
 4355              	.LASF94:
 4356 078b 41484232 		.ascii	"AHB2ENR\000"
 4356      454E5200 
 4357              	.LASF174:
 4358 0793 646D615F 		.ascii	"dma_streams_mask\000"
 4358      73747265 
 4358      616D735F 
 4358      6D61736B 
 4358      00
 4359              	.LASF68:
 4360 07a4 63685F73 		.ascii	"ch_system_t\000"
 4360      79737465 
 4360      6D5F7400 
 4361              	.LASF18:
 4362 07b0 7274636E 		.ascii	"rtcnt_t\000"
 4362      745F7400 
 4363              	.LASF77:
 4364 07b8 4D314152 		.ascii	"M1AR\000"
 4364      00
 4365              	.LASF157:
 4366 07bd 56656374 		.ascii	"Vector80\000"
 4366      6F723830 
 4366      00
 4367              	.LASF16:
 4368 07c6 75696E74 		.ascii	"uint32_t\000"
 4368      33325F74 
 4368      00
 4369              	.LASF109:
 4370 07cf 53534347 		.ascii	"SSCGR\000"
 4370      5200
 4371              	.LASF158:
ARM GAS  /tmp/ccyVQ1Qg.s 			page 84


 4372 07d5 56656374 		.ascii	"Vector84\000"
 4372      6F723834 
 4372      00
 4373              	.LASF51:
 4374 07de 74687265 		.ascii	"threads_queue_t\000"
 4374      6164735F 
 4374      71756575 
 4374      655F7400 
 4375              	.LASF137:
 4376 07ee 63685F6D 		.ascii	"ch_mutex\000"
 4376      75746578 
 4376      00
 4377              	.LASF107:
 4378 07f7 42444352 		.ascii	"BDCR\000"
 4378      00
 4379              	.LASF70:
 4380 07fc 726C6973 		.ascii	"rlist\000"
 4380      7400
 4381              	.LASF14:
 4382 0802 75696E74 		.ascii	"uint8_t\000"
 4382      385F7400 
 4383              	.LASF37:
 4384 080a 666C6167 		.ascii	"flags\000"
 4384      7300
 4385              	.LASF175:
 4386 0810 646D615F 		.ascii	"dma_isr_redir\000"
 4386      6973725F 
 4386      72656469 
 4386      7200
 4387              	.LASF130:
 4388 081e 77746F62 		.ascii	"wtobjp\000"
 4388      6A7000
 4389              	.LASF160:
 4390 0825 56656374 		.ascii	"Vector120\000"
 4390      6F723132 
 4390      3000
 4391              	.LASF85:
 4392 082f 43464752 		.ascii	"CFGR\000"
 4392      00
 4393              	.LASF161:
 4394 0834 56656374 		.ascii	"Vector124\000"
 4394      6F723132 
 4394      3400
 4395              	.LASF162:
 4396 083e 56656374 		.ascii	"Vector128\000"
 4396      6F723132 
 4396      3800
 4397              	.LASF163:
 4398 0848 56656374 		.ascii	"Vector12C\000"
 4398      6F723132 
 4398      4300
 4399              	.LASF42:
 4400 0852 6D74786C 		.ascii	"mtxlist\000"
 4400      69737400 
 4401              	.LASF125:
 4402 085a 6D5F6372 		.ascii	"m_crit_thd\000"
 4402      69745F74 
ARM GAS  /tmp/ccyVQ1Qg.s 			page 85


 4402      686400
 4403              	.LASF82:
 4404 0865 48494643 		.ascii	"HIFCR\000"
 4404      5200
 4405              	.LASF183:
 4406 086b 646D6153 		.ascii	"dmaStreamAllocate\000"
 4406      74726561 
 4406      6D416C6C 
 4406      6F636174 
 4406      6500
 4407              	.LASF146:
 4408 087d 76656374 		.ascii	"vector\000"
 4408      6F7200
 4409              	.LASF79:
 4410 0884 4C495352 		.ascii	"LISR\000"
 4410      00
 4411              		.ident	"GCC: (15:4.9.3+svn231177-1) 4.9.3 20150529 (prerelease)"
ARM GAS  /tmp/ccyVQ1Qg.s 			page 86


DEFINED SYMBOLS
                            *ABS*:0000000000000000 stm32_dma.c
     /tmp/ccyVQ1Qg.s:21     .text.Vector6C:0000000000000000 $t
     /tmp/ccyVQ1Qg.s:26     .text.Vector6C:0000000000000000 Vector6C
     /tmp/ccyVQ1Qg.s:69     .text.Vector6C:0000000000000024 $d
     /tmp/ccyVQ1Qg.s:75     .text.Vector70:0000000000000000 $t
     /tmp/ccyVQ1Qg.s:80     .text.Vector70:0000000000000000 Vector70
     /tmp/ccyVQ1Qg.s:122    .text.Vector70:0000000000000028 $d
     /tmp/ccyVQ1Qg.s:128    .text.Vector74:0000000000000000 $t
     /tmp/ccyVQ1Qg.s:133    .text.Vector74:0000000000000000 Vector74
     /tmp/ccyVQ1Qg.s:175    .text.Vector74:0000000000000028 $d
     /tmp/ccyVQ1Qg.s:181    .text.Vector78:0000000000000000 $t
     /tmp/ccyVQ1Qg.s:186    .text.Vector78:0000000000000000 Vector78
     /tmp/ccyVQ1Qg.s:228    .text.Vector78:0000000000000028 $d
     /tmp/ccyVQ1Qg.s:234    .text.Vector7C:0000000000000000 $t
     /tmp/ccyVQ1Qg.s:239    .text.Vector7C:0000000000000000 Vector7C
     /tmp/ccyVQ1Qg.s:281    .text.Vector7C:0000000000000024 $d
     /tmp/ccyVQ1Qg.s:287    .text.Vector80:0000000000000000 $t
     /tmp/ccyVQ1Qg.s:292    .text.Vector80:0000000000000000 Vector80
     /tmp/ccyVQ1Qg.s:334    .text.Vector80:0000000000000028 $d
     /tmp/ccyVQ1Qg.s:340    .text.Vector84:0000000000000000 $t
     /tmp/ccyVQ1Qg.s:345    .text.Vector84:0000000000000000 Vector84
     /tmp/ccyVQ1Qg.s:387    .text.Vector84:0000000000000028 $d
     /tmp/ccyVQ1Qg.s:393    .text.VectorFC:0000000000000000 $t
     /tmp/ccyVQ1Qg.s:398    .text.VectorFC:0000000000000000 VectorFC
     /tmp/ccyVQ1Qg.s:440    .text.VectorFC:0000000000000028 $d
     /tmp/ccyVQ1Qg.s:446    .text.Vector120:0000000000000000 $t
     /tmp/ccyVQ1Qg.s:451    .text.Vector120:0000000000000000 Vector120
     /tmp/ccyVQ1Qg.s:493    .text.Vector120:0000000000000024 $d
     /tmp/ccyVQ1Qg.s:499    .text.Vector124:0000000000000000 $t
     /tmp/ccyVQ1Qg.s:504    .text.Vector124:0000000000000000 Vector124
     /tmp/ccyVQ1Qg.s:546    .text.Vector124:0000000000000028 $d
     /tmp/ccyVQ1Qg.s:552    .text.Vector128:0000000000000000 $t
     /tmp/ccyVQ1Qg.s:557    .text.Vector128:0000000000000000 Vector128
     /tmp/ccyVQ1Qg.s:599    .text.Vector128:0000000000000028 $d
     /tmp/ccyVQ1Qg.s:605    .text.Vector12C:0000000000000000 $t
     /tmp/ccyVQ1Qg.s:610    .text.Vector12C:0000000000000000 Vector12C
     /tmp/ccyVQ1Qg.s:652    .text.Vector12C:0000000000000028 $d
     /tmp/ccyVQ1Qg.s:658    .text.Vector130:0000000000000000 $t
     /tmp/ccyVQ1Qg.s:663    .text.Vector130:0000000000000000 Vector130
     /tmp/ccyVQ1Qg.s:705    .text.Vector130:0000000000000024 $d
     /tmp/ccyVQ1Qg.s:711    .text.Vector150:0000000000000000 $t
     /tmp/ccyVQ1Qg.s:716    .text.Vector150:0000000000000000 Vector150
     /tmp/ccyVQ1Qg.s:758    .text.Vector150:0000000000000028 $d
     /tmp/ccyVQ1Qg.s:764    .text.Vector154:0000000000000000 $t
     /tmp/ccyVQ1Qg.s:769    .text.Vector154:0000000000000000 Vector154
     /tmp/ccyVQ1Qg.s:811    .text.Vector154:0000000000000028 $d
     /tmp/ccyVQ1Qg.s:817    .text.Vector158:0000000000000000 $t
     /tmp/ccyVQ1Qg.s:822    .text.Vector158:0000000000000000 Vector158
     /tmp/ccyVQ1Qg.s:864    .text.Vector158:0000000000000028 $d
     /tmp/ccyVQ1Qg.s:870    .text.dmaInit:0000000000000000 $t
     /tmp/ccyVQ1Qg.s:875    .text.dmaInit:0000000000000000 dmaInit
     /tmp/ccyVQ1Qg.s:919    .text.dmaInit:0000000000000034 $d
     /tmp/ccyVQ1Qg.s:927    .text.dmaStreamAllocate:0000000000000000 $t
     /tmp/ccyVQ1Qg.s:932    .text.dmaStreamAllocate:0000000000000000 dmaStreamAllocate
     /tmp/ccyVQ1Qg.s:1034   .text.dmaStreamAllocate:0000000000000080 $d
     /tmp/ccyVQ1Qg.s:1041   .text.dmaStreamRelease:0000000000000000 $t
ARM GAS  /tmp/ccyVQ1Qg.s 			page 87


     /tmp/ccyVQ1Qg.s:1046   .text.dmaStreamRelease:0000000000000000 dmaStreamRelease
     /tmp/ccyVQ1Qg.s:1094   .text.dmaStreamRelease:000000000000003c $d
     /tmp/ccyVQ1Qg.s:1112   .rodata._stm32_dma_streams:0000000000000000 _stm32_dma_streams
     /tmp/ccyVQ1Qg.s:1101   .bss.dma_isr_redir:0000000000000000 $d
     /tmp/ccyVQ1Qg.s:1105   .bss.dma_isr_redir:0000000000000000 dma_isr_redir
     /tmp/ccyVQ1Qg.s:1108   .rodata._stm32_dma_streams:0000000000000000 $d
     /tmp/ccyVQ1Qg.s:1210   .bss.dma_streams_mask:0000000000000000 $d
     /tmp/ccyVQ1Qg.s:1214   .bss.dma_streams_mask:0000000000000000 dma_streams_mask
                     .debug_frame:0000000000000010 $d

UNDEFINED SYMBOLS
_stats_increase_irq
_port_irq_epilogue
nvicEnableVector
nvicDisableVector
