ARM GAS  /tmp/ccGoki3r.s 			page 1


   1              		.syntax unified
   2              		.cpu cortex-m4
   3              		.eabi_attribute 27, 1
   4              		.eabi_attribute 28, 1
   5              		.fpu fpv4-sp-d16
   6              		.eabi_attribute 20, 1
   7              		.eabi_attribute 21, 1
   8              		.eabi_attribute 23, 3
   9              		.eabi_attribute 24, 1
  10              		.eabi_attribute 25, 1
  11              		.eabi_attribute 26, 1
  12              		.eabi_attribute 30, 4
  13              		.eabi_attribute 34, 1
  14              		.eabi_attribute 18, 4
  15              		.thumb
  16              		.file	"stubs.c"
  17              		.text
  18              	.Ltext0:
  19              		.cfi_sections	.debug_frame
  20              		.section	.text._read,"ax",%progbits
  21              		.align	1
  22              		.global	_read
  23              		.thumb
  24              		.thumb_func
  25              		.type	_read, %function
  26              	_read:
  27              	.LFB246:
  28              		.file 1 "../../libraries/AP_HAL_ChibiOS/hwdef/common/stubs.c"
  29              		.loc 1 90 0
  30              		.cfi_startproc
  31              		@ args = 0, pretend = 0, frame = 0
  32              		@ frame_needed = 0, uses_anonymous_args = 0
  33              		@ link register save eliminated.
  34              	.LVL0:
  35              		.loc 1 103 0
  36 0000 1623     		movs	r3, #22
  37              	.LVL1:
  38 0002 0360     		str	r3, [r0]
  39              		.loc 1 106 0
  40 0004 4FF0FF30 		mov	r0, #-1
  41              	.LVL2:
  42 0008 7047     		bx	lr
  43              		.cfi_endproc
  44              	.LFE246:
  45              		.size	_read, .-_read
  46              		.section	.text._lseek,"ax",%progbits
  47              		.align	1
  48              		.global	_lseek
  49              		.thumb
  50              		.thumb_func
  51              		.type	_lseek, %function
  52              	_lseek:
  53              	.LFB247:
  54              		.loc 1 112 0
  55              		.cfi_startproc
  56              		@ args = 0, pretend = 0, frame = 0
  57              		@ frame_needed = 0, uses_anonymous_args = 0
ARM GAS  /tmp/ccGoki3r.s 			page 2


  58              		@ link register save eliminated.
  59              	.LVL3:
  60              		.loc 1 119 0
  61 0000 0020     		movs	r0, #0
  62              	.LVL4:
  63 0002 7047     		bx	lr
  64              		.cfi_endproc
  65              	.LFE247:
  66              		.size	_lseek, .-_lseek
  67              		.section	.text._write,"ax",%progbits
  68              		.align	1
  69              		.global	_write
  70              		.thumb
  71              		.thumb_func
  72              		.type	_write, %function
  73              	_write:
  74              	.LFB248:
  75              		.loc 1 125 0
  76              		.cfi_startproc
  77              		@ args = 0, pretend = 0, frame = 0
  78              		@ frame_needed = 0, uses_anonymous_args = 0
  79              		@ link register save eliminated.
  80              	.LVL5:
  81              		.loc 1 137 0
  82 0000 1846     		mov	r0, r3
  83              	.LVL6:
  84 0002 7047     		bx	lr
  85              		.cfi_endproc
  86              	.LFE248:
  87              		.size	_write, .-_write
  88              		.section	.text._close,"ax",%progbits
  89              		.align	1
  90              		.global	_close
  91              		.thumb
  92              		.thumb_func
  93              		.type	_close, %function
  94              	_close:
  95              	.LFB249:
  96              		.loc 1 143 0
  97              		.cfi_startproc
  98              		@ args = 0, pretend = 0, frame = 0
  99              		@ frame_needed = 0, uses_anonymous_args = 0
 100              		@ link register save eliminated.
 101              	.LVL7:
 102              		.loc 1 148 0
 103 0000 0020     		movs	r0, #0
 104              	.LVL8:
 105 0002 7047     		bx	lr
 106              		.cfi_endproc
 107              	.LFE249:
 108              		.size	_close, .-_close
 109              		.section	.text._sbrk,"ax",%progbits
 110              		.align	1
 111              		.global	_sbrk
 112              		.thumb
 113              		.thumb_func
 114              		.type	_sbrk, %function
ARM GAS  /tmp/ccGoki3r.s 			page 3


 115              	_sbrk:
 116              	.LFB250:
 117              		.loc 1 154 0
 118              		.cfi_startproc
 119              		@ args = 0, pretend = 0, frame = 0
 120              		@ frame_needed = 0, uses_anonymous_args = 0
 121              	.LVL9:
 122 0000 10B5     		push	{r4, lr}
 123              		.cfi_def_cfa_offset 8
 124              		.cfi_offset 4, -8
 125              		.cfi_offset 14, -4
 126              	.LBB4:
 127              	.LBB5:
 128              		.file 2 "../../modules/ChibiOS/os/common/oslib/include/chheap.h"
 129              		.loc 2 157 0
 130 0002 0822     		movs	r2, #8
 131              	.LBE5:
 132              	.LBE4:
 133              		.loc 1 154 0
 134 0004 0446     		mov	r4, r0
 135              	.LVL10:
 136              	.LBB7:
 137              	.LBB6:
 138              		.loc 2 157 0
 139 0006 0020     		movs	r0, #0
 140              	.LVL11:
 141 0008 FFF7FEFF 		bl	chHeapAllocAligned
 142              	.LVL12:
 143              	.LBE6:
 144              	.LBE7:
 145              		.loc 1 160 0
 146 000c 18B9     		cbnz	r0, .L6
 147              		.loc 1 161 0
 148 000e 0C23     		movs	r3, #12
 149 0010 2360     		str	r3, [r4]
 150              		.loc 1 162 0
 151 0012 4FF0FF30 		mov	r0, #-1
 152              	.L6:
 153              		.loc 1 170 0
 154 0016 10BD     		pop	{r4, pc}
 155              		.cfi_endproc
 156              	.LFE250:
 157              		.size	_sbrk, .-_sbrk
 158              		.section	.text._fstat,"ax",%progbits
 159              		.align	1
 160              		.global	_fstat
 161              		.thumb
 162              		.thumb_func
 163              		.type	_fstat, %function
 164              	_fstat:
 165              	.LFB251:
 166              		.loc 1 177 0
 167              		.cfi_startproc
 168              		@ args = 0, pretend = 0, frame = 0
 169              		@ frame_needed = 0, uses_anonymous_args = 0
 170              	.LVL13:
 171 0000 10B5     		push	{r4, lr}
ARM GAS  /tmp/ccGoki3r.s 			page 4


 172              		.cfi_def_cfa_offset 8
 173              		.cfi_offset 4, -8
 174              		.cfi_offset 14, -4
 175              		.loc 1 181 0
 176 0002 1046     		mov	r0, r2
 177              	.LVL14:
 178              		.loc 1 177 0
 179 0004 1446     		mov	r4, r2
 180              		.loc 1 181 0
 181 0006 0021     		movs	r1, #0
 182              	.LVL15:
 183 0008 3C22     		movs	r2, #60
 184              	.LVL16:
 185 000a FFF7FEFF 		bl	memset
 186              	.LVL17:
 187              		.loc 1 182 0
 188 000e 4FF40053 		mov	r3, #8192
 189 0012 6360     		str	r3, [r4, #4]
 190              		.loc 1 184 0
 191 0014 0020     		movs	r0, #0
 192 0016 10BD     		pop	{r4, pc}
 193              		.cfi_endproc
 194              	.LFE251:
 195              		.size	_fstat, .-_fstat
 196              		.section	.text._isatty,"ax",%progbits
 197              		.align	1
 198              		.global	_isatty
 199              		.thumb
 200              		.thumb_func
 201              		.type	_isatty, %function
 202              	_isatty:
 203              	.LFB252:
 204              		.loc 1 190 0
 205              		.cfi_startproc
 206              		@ args = 0, pretend = 0, frame = 0
 207              		@ frame_needed = 0, uses_anonymous_args = 0
 208              		@ link register save eliminated.
 209              	.LVL18:
 210              		.loc 1 195 0
 211 0000 0120     		movs	r0, #1
 212              	.LVL19:
 213 0002 7047     		bx	lr
 214              		.cfi_endproc
 215              	.LFE252:
 216              		.size	_isatty, .-_isatty
 217              		.section	.text._getpid,"ax",%progbits
 218              		.align	1
 219              		.global	_getpid
 220              		.thumb
 221              		.thumb_func
 222              		.type	_getpid, %function
 223              	_getpid:
 224              	.LFB253:
 225              		.loc 1 199 0
 226              		.cfi_startproc
 227              		@ args = 0, pretend = 0, frame = 0
 228              		@ frame_needed = 0, uses_anonymous_args = 0
ARM GAS  /tmp/ccGoki3r.s 			page 5


 229              		@ link register save eliminated.
 230              		.loc 1 201 0
 231 0000 0020     		movs	r0, #0
 232 0002 7047     		bx	lr
 233              		.cfi_endproc
 234              	.LFE253:
 235              		.size	_getpid, .-_getpid
 236              		.section	.text._exit,"ax",%progbits
 237              		.align	1
 238              		.global	_exit
 239              		.thumb
 240              		.thumb_func
 241              		.type	_exit, %function
 242              	_exit:
 243              	.LFB254:
 244              		.loc 1 205 0
 245              		.cfi_startproc
 246              		@ Volatile: function does not return.
 247              		@ args = 0, pretend = 0, frame = 0
 248              		@ frame_needed = 0, uses_anonymous_args = 0
 249              		@ link register save eliminated.
 250              	.LVL20:
 251              	.L13:
 252              		.loc 1 207 0 discriminator 1
 253 0000 FEE7     		b	.L13
 254              		.cfi_endproc
 255              	.LFE254:
 256              		.size	_exit, .-_exit
 257              		.section	.text._fini,"ax",%progbits
 258              		.align	1
 259              		.global	_fini
 260              		.thumb
 261              		.thumb_func
 262              		.type	_fini, %function
 263              	_fini:
 264              	.LFB255:
 265              		.loc 1 212 0
 266              		.cfi_startproc
 267              		@ args = 0, pretend = 0, frame = 0
 268              		@ frame_needed = 0, uses_anonymous_args = 0
 269              		@ link register save eliminated.
 270 0000 7047     		bx	lr
 271              		.cfi_endproc
 272              	.LFE255:
 273              		.size	_fini, .-_fini
 274              		.section	.text._kill,"ax",%progbits
 275              		.align	1
 276              		.global	_kill
 277              		.thumb
 278              		.thumb_func
 279              		.type	_kill, %function
 280              	_kill:
 281              	.LFB256:
 282              		.loc 1 217 0
 283              		.cfi_startproc
 284              		@ args = 0, pretend = 0, frame = 0
 285              		@ frame_needed = 0, uses_anonymous_args = 0
ARM GAS  /tmp/ccGoki3r.s 			page 6


 286              		@ link register save eliminated.
 287              	.LVL21:
 288              		.loc 1 220 0
 289 0000 4FF0FF30 		mov	r0, #-1
 290              	.LVL22:
 291 0004 7047     		bx	lr
 292              		.cfi_endproc
 293              	.LFE256:
 294              		.size	_kill, .-_kill
 295              		.global	_before_main
 296              		.section	.data._before_main,"aw",%progbits
 297              		.type	_before_main, %object
 298              		.size	_before_main, 1
 299              	_before_main:
 300 0000 01       		.byte	1
 301              		.text
 302              	.Letext0:
 303              		.file 3 "/usr/include/newlib/machine/_default_types.h"
 304              		.file 4 "/usr/lib/gcc/arm-none-eabi/4.9.3/include/stddef.h"
 305              		.file 5 "/usr/include/newlib/sys/lock.h"
 306              		.file 6 "/usr/include/newlib/sys/_types.h"
 307              		.file 7 "/usr/include/newlib/sys/_stdint.h"
 308              		.file 8 "/usr/include/newlib/sys/types.h"
 309              		.file 9 "/usr/include/newlib/sys/reent.h"
 310              		.file 10 "/usr/include/newlib/sys/stat.h"
 311              		.file 11 "../../modules/ChibiOS/os/common/ports/ARMCMx/compilers/GCC/chtypes.h"
 312              		.file 12 "../../modules/ChibiOS/os/rt/include/chsystypes.h"
 313              		.file 13 "../../modules/ChibiOS/os/rt/include/chschd.h"
 314              		.file 14 "../../modules/ChibiOS/os/common/ports/ARMCMx/chcore.h"
 315              		.file 15 "../../modules/ChibiOS/os/common/ports/ARMCMx/chcore_v7m.h"
 316              		.file 16 "../../modules/ChibiOS/os/rt/include/chtm.h"
 317              		.file 17 "../../modules/ChibiOS/os/rt/include/chstats.h"
 318              		.file 18 "../../modules/ChibiOS/os/rt/include/chsem.h"
 319              		.file 19 "../../modules/ChibiOS/os/rt/include/chmtx.h"
 320              		.file 20 "../../modules/ChibiOS/os/common/oslib/include/chmemcore.h"
 321              		.file 21 "../../modules/ChibiOS/os/common/ext/CMSIS/include/core_cm4.h"
 322              		.file 22 "/usr/include/newlib/sys/unistd.h"
 323              		.section	.debug_info,"",%progbits
 324              	.Ldebug_info0:
 325 0000 2B150000 		.4byte	0x152b
 326 0004 0400     		.2byte	0x4
 327 0006 00000000 		.4byte	.Ldebug_abbrev0
 328 000a 04       		.byte	0x4
 329 000b 01       		.uleb128 0x1
 330 000c 6E070000 		.4byte	.LASF265
 331 0010 01       		.byte	0x1
 332 0011 9F050000 		.4byte	.LASF266
 333 0015 9F060000 		.4byte	.LASF267
 334 0019 18000000 		.4byte	.Ldebug_ranges0+0x18
 335 001d 00000000 		.4byte	0
 336 0021 00000000 		.4byte	.Ldebug_line0
 337 0025 02       		.uleb128 0x2
 338 0026 01       		.byte	0x1
 339 0027 06       		.byte	0x6
 340 0028 10020000 		.4byte	.LASF0
 341 002c 03       		.uleb128 0x3
 342 002d 3A010000 		.4byte	.LASF4
ARM GAS  /tmp/ccGoki3r.s 			page 7


 343 0031 03       		.byte	0x3
 344 0032 1D       		.byte	0x1d
 345 0033 37000000 		.4byte	0x37
 346 0037 02       		.uleb128 0x2
 347 0038 01       		.byte	0x1
 348 0039 08       		.byte	0x8
 349 003a 62020000 		.4byte	.LASF1
 350 003e 02       		.uleb128 0x2
 351 003f 02       		.byte	0x2
 352 0040 05       		.byte	0x5
 353 0041 74090000 		.4byte	.LASF2
 354 0045 02       		.uleb128 0x2
 355 0046 02       		.byte	0x2
 356 0047 07       		.byte	0x7
 357 0048 750A0000 		.4byte	.LASF3
 358 004c 03       		.uleb128 0x3
 359 004d BB0A0000 		.4byte	.LASF5
 360 0051 03       		.byte	0x3
 361 0052 3F       		.byte	0x3f
 362 0053 57000000 		.4byte	0x57
 363 0057 02       		.uleb128 0x2
 364 0058 04       		.byte	0x4
 365 0059 05       		.byte	0x5
 366 005a 74010000 		.4byte	.LASF6
 367 005e 03       		.uleb128 0x3
 368 005f C0040000 		.4byte	.LASF7
 369 0063 03       		.byte	0x3
 370 0064 41       		.byte	0x41
 371 0065 69000000 		.4byte	0x69
 372 0069 02       		.uleb128 0x2
 373 006a 04       		.byte	0x4
 374 006b 07       		.byte	0x7
 375 006c 9F030000 		.4byte	.LASF8
 376 0070 02       		.uleb128 0x2
 377 0071 08       		.byte	0x8
 378 0072 05       		.byte	0x5
 379 0073 DE040000 		.4byte	.LASF9
 380 0077 03       		.uleb128 0x3
 381 0078 89030000 		.4byte	.LASF10
 382 007c 03       		.byte	0x3
 383 007d 5B       		.byte	0x5b
 384 007e 82000000 		.4byte	0x82
 385 0082 02       		.uleb128 0x2
 386 0083 08       		.byte	0x8
 387 0084 07       		.byte	0x7
 388 0085 57070000 		.4byte	.LASF11
 389 0089 04       		.uleb128 0x4
 390 008a 04       		.byte	0x4
 391 008b 05       		.byte	0x5
 392 008c 696E7400 		.ascii	"int\000"
 393 0090 02       		.uleb128 0x2
 394 0091 04       		.byte	0x4
 395 0092 07       		.byte	0x7
 396 0093 6F050000 		.4byte	.LASF12
 397 0097 03       		.uleb128 0x3
 398 0098 0C000000 		.4byte	.LASF13
 399 009c 04       		.byte	0x4
ARM GAS  /tmp/ccGoki3r.s 			page 8


 400 009d D4       		.byte	0xd4
 401 009e 90000000 		.4byte	0x90
 402 00a2 03       		.uleb128 0x3
 403 00a3 01040000 		.4byte	.LASF14
 404 00a7 05       		.byte	0x5
 405 00a8 07       		.byte	0x7
 406 00a9 89000000 		.4byte	0x89
 407 00ad 03       		.uleb128 0x3
 408 00ae 5D0A0000 		.4byte	.LASF15
 409 00b2 06       		.byte	0x6
 410 00b3 10       		.byte	0x10
 411 00b4 57000000 		.4byte	0x57
 412 00b8 03       		.uleb128 0x3
 413 00b9 44010000 		.4byte	.LASF16
 414 00bd 06       		.byte	0x6
 415 00be 14       		.byte	0x14
 416 00bf 3E000000 		.4byte	0x3e
 417 00c3 03       		.uleb128 0x3
 418 00c4 020A0000 		.4byte	.LASF17
 419 00c8 06       		.byte	0x6
 420 00c9 18       		.byte	0x18
 421 00ca 45000000 		.4byte	0x45
 422 00ce 03       		.uleb128 0x3
 423 00cf B5000000 		.4byte	.LASF18
 424 00d3 06       		.byte	0x6
 425 00d4 1B       		.byte	0x1b
 426 00d5 45000000 		.4byte	0x45
 427 00d9 03       		.uleb128 0x3
 428 00da 17070000 		.4byte	.LASF19
 429 00de 06       		.byte	0x6
 430 00df 27       		.byte	0x27
 431 00e0 57000000 		.4byte	0x57
 432 00e4 05       		.uleb128 0x5
 433 00e5 0D090000 		.4byte	.LASF20
 434 00e9 04       		.byte	0x4
 435 00ea 6101     		.2byte	0x161
 436 00ec 90000000 		.4byte	0x90
 437 00f0 06       		.uleb128 0x6
 438 00f1 04       		.byte	0x4
 439 00f2 06       		.byte	0x6
 440 00f3 4A       		.byte	0x4a
 441 00f4 0F010000 		.4byte	0x10f
 442 00f8 07       		.uleb128 0x7
 443 00f9 2B010000 		.4byte	.LASF21
 444 00fd 06       		.byte	0x6
 445 00fe 4C       		.byte	0x4c
 446 00ff E4000000 		.4byte	0xe4
 447 0103 07       		.uleb128 0x7
 448 0104 1F070000 		.4byte	.LASF22
 449 0108 06       		.byte	0x6
 450 0109 4D       		.byte	0x4d
 451 010a 0F010000 		.4byte	0x10f
 452 010e 00       		.byte	0
 453 010f 08       		.uleb128 0x8
 454 0110 37000000 		.4byte	0x37
 455 0114 1F010000 		.4byte	0x11f
 456 0118 09       		.uleb128 0x9
ARM GAS  /tmp/ccGoki3r.s 			page 9


 457 0119 1F010000 		.4byte	0x11f
 458 011d 03       		.byte	0x3
 459 011e 00       		.byte	0
 460 011f 02       		.uleb128 0x2
 461 0120 04       		.byte	0x4
 462 0121 07       		.byte	0x7
 463 0122 13000000 		.4byte	.LASF23
 464 0126 0A       		.uleb128 0xa
 465 0127 08       		.byte	0x8
 466 0128 06       		.byte	0x6
 467 0129 47       		.byte	0x47
 468 012a 47010000 		.4byte	0x147
 469 012e 0B       		.uleb128 0xb
 470 012f 58060000 		.4byte	.LASF24
 471 0133 06       		.byte	0x6
 472 0134 49       		.byte	0x49
 473 0135 89000000 		.4byte	0x89
 474 0139 00       		.byte	0
 475 013a 0B       		.uleb128 0xb
 476 013b 1C000000 		.4byte	.LASF25
 477 013f 06       		.byte	0x6
 478 0140 4E       		.byte	0x4e
 479 0141 F0000000 		.4byte	0xf0
 480 0145 04       		.byte	0x4
 481 0146 00       		.byte	0
 482 0147 03       		.uleb128 0x3
 483 0148 F0080000 		.4byte	.LASF26
 484 014c 06       		.byte	0x6
 485 014d 4F       		.byte	0x4f
 486 014e 26010000 		.4byte	0x126
 487 0152 03       		.uleb128 0x3
 488 0153 DB080000 		.4byte	.LASF27
 489 0157 06       		.byte	0x6
 490 0158 53       		.byte	0x53
 491 0159 A2000000 		.4byte	0xa2
 492 015d 0C       		.uleb128 0xc
 493 015e 04       		.byte	0x4
 494 015f 03       		.uleb128 0x3
 495 0160 23020000 		.4byte	.LASF28
 496 0164 07       		.byte	0x7
 497 0165 14       		.byte	0x14
 498 0166 2C000000 		.4byte	0x2c
 499 016a 03       		.uleb128 0x3
 500 016b 61000000 		.4byte	.LASF29
 501 016f 07       		.byte	0x7
 502 0170 1F       		.byte	0x1f
 503 0171 4C000000 		.4byte	0x4c
 504 0175 03       		.uleb128 0x3
 505 0176 4C0A0000 		.4byte	.LASF30
 506 017a 07       		.byte	0x7
 507 017b 20       		.byte	0x20
 508 017c 5E000000 		.4byte	0x5e
 509 0180 03       		.uleb128 0x3
 510 0181 7E090000 		.4byte	.LASF31
 511 0185 07       		.byte	0x7
 512 0186 26       		.byte	0x26
 513 0187 77000000 		.4byte	0x77
ARM GAS  /tmp/ccGoki3r.s 			page 10


 514 018b 03       		.uleb128 0x3
 515 018c F4000000 		.4byte	.LASF32
 516 0190 08       		.byte	0x8
 517 0191 7C       		.byte	0x7c
 518 0192 57000000 		.4byte	0x57
 519 0196 03       		.uleb128 0x3
 520 0197 7C050000 		.4byte	.LASF33
 521 019b 08       		.byte	0x8
 522 019c 85       		.byte	0x85
 523 019d A1010000 		.4byte	0x1a1
 524 01a1 0D       		.uleb128 0xd
 525 01a2 04       		.byte	0x4
 526 01a3 A7010000 		.4byte	0x1a7
 527 01a7 02       		.uleb128 0x2
 528 01a8 01       		.byte	0x1
 529 01a9 08       		.byte	0x8
 530 01aa B6020000 		.4byte	.LASF34
 531 01ae 03       		.uleb128 0x3
 532 01af 94030000 		.4byte	.LASF35
 533 01b3 08       		.byte	0x8
 534 01b4 8E       		.byte	0x8e
 535 01b5 45000000 		.4byte	0x45
 536 01b9 03       		.uleb128 0x3
 537 01ba 69060000 		.4byte	.LASF36
 538 01be 08       		.byte	0x8
 539 01bf AB       		.byte	0xab
 540 01c0 AD000000 		.4byte	0xad
 541 01c4 03       		.uleb128 0x3
 542 01c5 A7000000 		.4byte	.LASF37
 543 01c9 08       		.byte	0x8
 544 01ca AC       		.byte	0xac
 545 01cb B8000000 		.4byte	0xb8
 546 01cf 03       		.uleb128 0x3
 547 01d0 4C010000 		.4byte	.LASF38
 548 01d4 08       		.byte	0x8
 549 01d5 AD       		.byte	0xad
 550 01d6 C3000000 		.4byte	0xc3
 551 01da 03       		.uleb128 0x3
 552 01db F30A0000 		.4byte	.LASF39
 553 01df 08       		.byte	0x8
 554 01e0 AE       		.byte	0xae
 555 01e1 CE000000 		.4byte	0xce
 556 01e5 03       		.uleb128 0x3
 557 01e6 D3050000 		.4byte	.LASF40
 558 01ea 08       		.byte	0x8
 559 01eb B4       		.byte	0xb4
 560 01ec 89000000 		.4byte	0x89
 561 01f0 03       		.uleb128 0x3
 562 01f1 6F060000 		.4byte	.LASF41
 563 01f5 08       		.byte	0x8
 564 01f6 CC       		.byte	0xcc
 565 01f7 90000000 		.4byte	0x90
 566 01fb 03       		.uleb128 0x3
 567 01fc AD000000 		.4byte	.LASF42
 568 0200 08       		.byte	0x8
 569 0201 D1       		.byte	0xd1
 570 0202 45000000 		.4byte	0x45
ARM GAS  /tmp/ccGoki3r.s 			page 11


 571 0206 03       		.uleb128 0x3
 572 0207 3E0A0000 		.4byte	.LASF43
 573 020b 09       		.byte	0x9
 574 020c 16       		.byte	0x16
 575 020d 69000000 		.4byte	0x69
 576 0211 0E       		.uleb128 0xe
 577 0212 63040000 		.4byte	.LASF48
 578 0216 18       		.byte	0x18
 579 0217 09       		.byte	0x9
 580 0218 2D       		.byte	0x2d
 581 0219 64020000 		.4byte	0x264
 582 021d 0B       		.uleb128 0xb
 583 021e 14090000 		.4byte	.LASF44
 584 0222 09       		.byte	0x9
 585 0223 2F       		.byte	0x2f
 586 0224 64020000 		.4byte	0x264
 587 0228 00       		.byte	0
 588 0229 0F       		.uleb128 0xf
 589 022a 5F6B00   		.ascii	"_k\000"
 590 022d 09       		.byte	0x9
 591 022e 30       		.byte	0x30
 592 022f 89000000 		.4byte	0x89
 593 0233 04       		.byte	0x4
 594 0234 0B       		.uleb128 0xb
 595 0235 7B040000 		.4byte	.LASF45
 596 0239 09       		.byte	0x9
 597 023a 30       		.byte	0x30
 598 023b 89000000 		.4byte	0x89
 599 023f 08       		.byte	0x8
 600 0240 0B       		.uleb128 0xb
 601 0241 4C050000 		.4byte	.LASF46
 602 0245 09       		.byte	0x9
 603 0246 30       		.byte	0x30
 604 0247 89000000 		.4byte	0x89
 605 024b 0C       		.byte	0xc
 606 024c 0B       		.uleb128 0xb
 607 024d 3F030000 		.4byte	.LASF47
 608 0251 09       		.byte	0x9
 609 0252 30       		.byte	0x30
 610 0253 89000000 		.4byte	0x89
 611 0257 10       		.byte	0x10
 612 0258 0F       		.uleb128 0xf
 613 0259 5F7800   		.ascii	"_x\000"
 614 025c 09       		.byte	0x9
 615 025d 31       		.byte	0x31
 616 025e 6A020000 		.4byte	0x26a
 617 0262 14       		.byte	0x14
 618 0263 00       		.byte	0
 619 0264 0D       		.uleb128 0xd
 620 0265 04       		.byte	0x4
 621 0266 11020000 		.4byte	0x211
 622 026a 08       		.uleb128 0x8
 623 026b 06020000 		.4byte	0x206
 624 026f 7A020000 		.4byte	0x27a
 625 0273 09       		.uleb128 0x9
 626 0274 1F010000 		.4byte	0x11f
 627 0278 00       		.byte	0
ARM GAS  /tmp/ccGoki3r.s 			page 12


 628 0279 00       		.byte	0
 629 027a 0E       		.uleb128 0xe
 630 027b C5000000 		.4byte	.LASF49
 631 027f 24       		.byte	0x24
 632 0280 09       		.byte	0x9
 633 0281 35       		.byte	0x35
 634 0282 F3020000 		.4byte	0x2f3
 635 0286 0B       		.uleb128 0xb
 636 0287 E1000000 		.4byte	.LASF50
 637 028b 09       		.byte	0x9
 638 028c 37       		.byte	0x37
 639 028d 89000000 		.4byte	0x89
 640 0291 00       		.byte	0
 641 0292 0B       		.uleb128 0xb
 642 0293 F90A0000 		.4byte	.LASF51
 643 0297 09       		.byte	0x9
 644 0298 38       		.byte	0x38
 645 0299 89000000 		.4byte	0x89
 646 029d 04       		.byte	0x4
 647 029e 0B       		.uleb128 0xb
 648 029f 880A0000 		.4byte	.LASF52
 649 02a3 09       		.byte	0x9
 650 02a4 39       		.byte	0x39
 651 02a5 89000000 		.4byte	0x89
 652 02a9 08       		.byte	0x8
 653 02aa 0B       		.uleb128 0xb
 654 02ab D9050000 		.4byte	.LASF53
 655 02af 09       		.byte	0x9
 656 02b0 3A       		.byte	0x3a
 657 02b1 89000000 		.4byte	0x89
 658 02b5 0C       		.byte	0xc
 659 02b6 0B       		.uleb128 0xb
 660 02b7 D5010000 		.4byte	.LASF54
 661 02bb 09       		.byte	0x9
 662 02bc 3B       		.byte	0x3b
 663 02bd 89000000 		.4byte	0x89
 664 02c1 10       		.byte	0x10
 665 02c2 0B       		.uleb128 0xb
 666 02c3 B7090000 		.4byte	.LASF55
 667 02c7 09       		.byte	0x9
 668 02c8 3C       		.byte	0x3c
 669 02c9 89000000 		.4byte	0x89
 670 02cd 14       		.byte	0x14
 671 02ce 0B       		.uleb128 0xb
 672 02cf 95060000 		.4byte	.LASF56
 673 02d3 09       		.byte	0x9
 674 02d4 3D       		.byte	0x3d
 675 02d5 89000000 		.4byte	0x89
 676 02d9 18       		.byte	0x18
 677 02da 0B       		.uleb128 0xb
 678 02db E0060000 		.4byte	.LASF57
 679 02df 09       		.byte	0x9
 680 02e0 3E       		.byte	0x3e
 681 02e1 89000000 		.4byte	0x89
 682 02e5 1C       		.byte	0x1c
 683 02e6 0B       		.uleb128 0xb
 684 02e7 E30A0000 		.4byte	.LASF58
ARM GAS  /tmp/ccGoki3r.s 			page 13


 685 02eb 09       		.byte	0x9
 686 02ec 3F       		.byte	0x3f
 687 02ed 89000000 		.4byte	0x89
 688 02f1 20       		.byte	0x20
 689 02f2 00       		.byte	0
 690 02f3 10       		.uleb128 0x10
 691 02f4 58010000 		.4byte	.LASF59
 692 02f8 0801     		.2byte	0x108
 693 02fa 09       		.byte	0x9
 694 02fb 48       		.byte	0x48
 695 02fc 33030000 		.4byte	0x333
 696 0300 0B       		.uleb128 0xb
 697 0301 CC0A0000 		.4byte	.LASF60
 698 0305 09       		.byte	0x9
 699 0306 49       		.byte	0x49
 700 0307 33030000 		.4byte	0x333
 701 030b 00       		.byte	0
 702 030c 0B       		.uleb128 0xb
 703 030d 5D080000 		.4byte	.LASF61
 704 0311 09       		.byte	0x9
 705 0312 4A       		.byte	0x4a
 706 0313 33030000 		.4byte	0x333
 707 0317 80       		.byte	0x80
 708 0318 11       		.uleb128 0x11
 709 0319 9E090000 		.4byte	.LASF62
 710 031d 09       		.byte	0x9
 711 031e 4C       		.byte	0x4c
 712 031f 06020000 		.4byte	0x206
 713 0323 0001     		.2byte	0x100
 714 0325 11       		.uleb128 0x11
 715 0326 EA090000 		.4byte	.LASF63
 716 032a 09       		.byte	0x9
 717 032b 4F       		.byte	0x4f
 718 032c 06020000 		.4byte	0x206
 719 0330 0401     		.2byte	0x104
 720 0332 00       		.byte	0
 721 0333 08       		.uleb128 0x8
 722 0334 5D010000 		.4byte	0x15d
 723 0338 43030000 		.4byte	0x343
 724 033c 09       		.uleb128 0x9
 725 033d 1F010000 		.4byte	0x11f
 726 0341 1F       		.byte	0x1f
 727 0342 00       		.byte	0
 728 0343 10       		.uleb128 0x10
 729 0344 50060000 		.4byte	.LASF64
 730 0348 9001     		.2byte	0x190
 731 034a 09       		.byte	0x9
 732 034b 5B       		.byte	0x5b
 733 034c 81030000 		.4byte	0x381
 734 0350 0B       		.uleb128 0xb
 735 0351 14090000 		.4byte	.LASF44
 736 0355 09       		.byte	0x9
 737 0356 5C       		.byte	0x5c
 738 0357 81030000 		.4byte	0x381
 739 035b 00       		.byte	0
 740 035c 0B       		.uleb128 0xb
 741 035d D6090000 		.4byte	.LASF65
ARM GAS  /tmp/ccGoki3r.s 			page 14


 742 0361 09       		.byte	0x9
 743 0362 5D       		.byte	0x5d
 744 0363 89000000 		.4byte	0x89
 745 0367 04       		.byte	0x4
 746 0368 0B       		.uleb128 0xb
 747 0369 C2020000 		.4byte	.LASF66
 748 036d 09       		.byte	0x9
 749 036e 5F       		.byte	0x5f
 750 036f 87030000 		.4byte	0x387
 751 0373 08       		.byte	0x8
 752 0374 0B       		.uleb128 0xb
 753 0375 58010000 		.4byte	.LASF59
 754 0379 09       		.byte	0x9
 755 037a 60       		.byte	0x60
 756 037b F3020000 		.4byte	0x2f3
 757 037f 88       		.byte	0x88
 758 0380 00       		.byte	0
 759 0381 0D       		.uleb128 0xd
 760 0382 04       		.byte	0x4
 761 0383 43030000 		.4byte	0x343
 762 0387 08       		.uleb128 0x8
 763 0388 97030000 		.4byte	0x397
 764 038c 97030000 		.4byte	0x397
 765 0390 09       		.uleb128 0x9
 766 0391 1F010000 		.4byte	0x11f
 767 0395 1F       		.byte	0x1f
 768 0396 00       		.byte	0
 769 0397 0D       		.uleb128 0xd
 770 0398 04       		.byte	0x4
 771 0399 9D030000 		.4byte	0x39d
 772 039d 12       		.uleb128 0x12
 773 039e 0E       		.uleb128 0xe
 774 039f E3090000 		.4byte	.LASF67
 775 03a3 08       		.byte	0x8
 776 03a4 09       		.byte	0x9
 777 03a5 73       		.byte	0x73
 778 03a6 C3030000 		.4byte	0x3c3
 779 03aa 0B       		.uleb128 0xb
 780 03ab 9F080000 		.4byte	.LASF68
 781 03af 09       		.byte	0x9
 782 03b0 74       		.byte	0x74
 783 03b1 C3030000 		.4byte	0x3c3
 784 03b5 00       		.byte	0
 785 03b6 0B       		.uleb128 0xb
 786 03b7 95010000 		.4byte	.LASF69
 787 03bb 09       		.byte	0x9
 788 03bc 75       		.byte	0x75
 789 03bd 89000000 		.4byte	0x89
 790 03c1 04       		.byte	0x4
 791 03c2 00       		.byte	0
 792 03c3 0D       		.uleb128 0xd
 793 03c4 04       		.byte	0x4
 794 03c5 37000000 		.4byte	0x37
 795 03c9 0E       		.uleb128 0xe
 796 03ca B1030000 		.4byte	.LASF70
 797 03ce 68       		.byte	0x68
 798 03cf 09       		.byte	0x9
ARM GAS  /tmp/ccGoki3r.s 			page 15


 799 03d0 B3       		.byte	0xb3
 800 03d1 F3040000 		.4byte	0x4f3
 801 03d5 0F       		.uleb128 0xf
 802 03d6 5F7000   		.ascii	"_p\000"
 803 03d9 09       		.byte	0x9
 804 03da B4       		.byte	0xb4
 805 03db C3030000 		.4byte	0x3c3
 806 03df 00       		.byte	0
 807 03e0 0F       		.uleb128 0xf
 808 03e1 5F7200   		.ascii	"_r\000"
 809 03e4 09       		.byte	0x9
 810 03e5 B5       		.byte	0xb5
 811 03e6 89000000 		.4byte	0x89
 812 03ea 04       		.byte	0x4
 813 03eb 0F       		.uleb128 0xf
 814 03ec 5F7700   		.ascii	"_w\000"
 815 03ef 09       		.byte	0x9
 816 03f0 B6       		.byte	0xb6
 817 03f1 89000000 		.4byte	0x89
 818 03f5 08       		.byte	0x8
 819 03f6 0B       		.uleb128 0xb
 820 03f7 2F060000 		.4byte	.LASF71
 821 03fb 09       		.byte	0x9
 822 03fc B7       		.byte	0xb7
 823 03fd 3E000000 		.4byte	0x3e
 824 0401 0C       		.byte	0xc
 825 0402 0B       		.uleb128 0xb
 826 0403 52010000 		.4byte	.LASF72
 827 0407 09       		.byte	0x9
 828 0408 B8       		.byte	0xb8
 829 0409 3E000000 		.4byte	0x3e
 830 040d 0E       		.byte	0xe
 831 040e 0F       		.uleb128 0xf
 832 040f 5F626600 		.ascii	"_bf\000"
 833 0413 09       		.byte	0x9
 834 0414 B9       		.byte	0xb9
 835 0415 9E030000 		.4byte	0x39e
 836 0419 10       		.byte	0x10
 837 041a 0B       		.uleb128 0xb
 838 041b C1090000 		.4byte	.LASF73
 839 041f 09       		.byte	0x9
 840 0420 BA       		.byte	0xba
 841 0421 89000000 		.4byte	0x89
 842 0425 18       		.byte	0x18
 843 0426 0B       		.uleb128 0xb
 844 0427 30030000 		.4byte	.LASF74
 845 042b 09       		.byte	0x9
 846 042c C1       		.byte	0xc1
 847 042d 5D010000 		.4byte	0x15d
 848 0431 1C       		.byte	0x1c
 849 0432 0B       		.uleb128 0xb
 850 0433 39000000 		.4byte	.LASF75
 851 0437 09       		.byte	0x9
 852 0438 C3       		.byte	0xc3
 853 0439 49060000 		.4byte	0x649
 854 043d 20       		.byte	0x20
 855 043e 0B       		.uleb128 0xb
ARM GAS  /tmp/ccGoki3r.s 			page 16


 856 043f 5A000000 		.4byte	.LASF76
 857 0443 09       		.byte	0x9
 858 0444 C5       		.byte	0xc5
 859 0445 78060000 		.4byte	0x678
 860 0449 24       		.byte	0x24
 861 044a 0B       		.uleb128 0xb
 862 044b 0A070000 		.4byte	.LASF77
 863 044f 09       		.byte	0x9
 864 0450 C8       		.byte	0xc8
 865 0451 9C060000 		.4byte	0x69c
 866 0455 28       		.byte	0x28
 867 0456 0B       		.uleb128 0xb
 868 0457 C7020000 		.4byte	.LASF78
 869 045b 09       		.byte	0x9
 870 045c C9       		.byte	0xc9
 871 045d B6060000 		.4byte	0x6b6
 872 0461 2C       		.byte	0x2c
 873 0462 0F       		.uleb128 0xf
 874 0463 5F756200 		.ascii	"_ub\000"
 875 0467 09       		.byte	0x9
 876 0468 CC       		.byte	0xcc
 877 0469 9E030000 		.4byte	0x39e
 878 046d 30       		.byte	0x30
 879 046e 0F       		.uleb128 0xf
 880 046f 5F757000 		.ascii	"_up\000"
 881 0473 09       		.byte	0x9
 882 0474 CD       		.byte	0xcd
 883 0475 C3030000 		.4byte	0x3c3
 884 0479 38       		.byte	0x38
 885 047a 0F       		.uleb128 0xf
 886 047b 5F757200 		.ascii	"_ur\000"
 887 047f 09       		.byte	0x9
 888 0480 CE       		.byte	0xce
 889 0481 89000000 		.4byte	0x89
 890 0485 3C       		.byte	0x3c
 891 0486 0B       		.uleb128 0xb
 892 0487 F7050000 		.4byte	.LASF79
 893 048b 09       		.byte	0x9
 894 048c D1       		.byte	0xd1
 895 048d BC060000 		.4byte	0x6bc
 896 0491 40       		.byte	0x40
 897 0492 0B       		.uleb128 0xb
 898 0493 DB000000 		.4byte	.LASF80
 899 0497 09       		.byte	0x9
 900 0498 D2       		.byte	0xd2
 901 0499 CC060000 		.4byte	0x6cc
 902 049d 43       		.byte	0x43
 903 049e 0F       		.uleb128 0xf
 904 049f 5F6C6200 		.ascii	"_lb\000"
 905 04a3 09       		.byte	0x9
 906 04a4 D5       		.byte	0xd5
 907 04a5 9E030000 		.4byte	0x39e
 908 04a9 44       		.byte	0x44
 909 04aa 0B       		.uleb128 0xb
 910 04ab 96080000 		.4byte	.LASF81
 911 04af 09       		.byte	0x9
 912 04b0 D8       		.byte	0xd8
ARM GAS  /tmp/ccGoki3r.s 			page 17


 913 04b1 89000000 		.4byte	0x89
 914 04b5 4C       		.byte	0x4c
 915 04b6 0B       		.uleb128 0xb
 916 04b7 5C030000 		.4byte	.LASF82
 917 04bb 09       		.byte	0x9
 918 04bc D9       		.byte	0xd9
 919 04bd AD000000 		.4byte	0xad
 920 04c1 50       		.byte	0x50
 921 04c2 0B       		.uleb128 0xb
 922 04c3 1A090000 		.4byte	.LASF83
 923 04c7 09       		.byte	0x9
 924 04c8 DC       		.byte	0xdc
 925 04c9 11050000 		.4byte	0x511
 926 04cd 54       		.byte	0x54
 927 04ce 0B       		.uleb128 0xb
 928 04cf 01010000 		.4byte	.LASF84
 929 04d3 09       		.byte	0x9
 930 04d4 E0       		.byte	0xe0
 931 04d5 52010000 		.4byte	0x152
 932 04d9 58       		.byte	0x58
 933 04da 0B       		.uleb128 0xb
 934 04db 13060000 		.4byte	.LASF85
 935 04df 09       		.byte	0x9
 936 04e0 E2       		.byte	0xe2
 937 04e1 47010000 		.4byte	0x147
 938 04e5 5C       		.byte	0x5c
 939 04e6 0B       		.uleb128 0xb
 940 04e7 C4030000 		.4byte	.LASF86
 941 04eb 09       		.byte	0x9
 942 04ec E3       		.byte	0xe3
 943 04ed 89000000 		.4byte	0x89
 944 04f1 64       		.byte	0x64
 945 04f2 00       		.byte	0
 946 04f3 13       		.uleb128 0x13
 947 04f4 89000000 		.4byte	0x89
 948 04f8 11050000 		.4byte	0x511
 949 04fc 14       		.uleb128 0x14
 950 04fd 11050000 		.4byte	0x511
 951 0501 14       		.uleb128 0x14
 952 0502 5D010000 		.4byte	0x15d
 953 0506 14       		.uleb128 0x14
 954 0507 A1010000 		.4byte	0x1a1
 955 050b 14       		.uleb128 0x14
 956 050c 89000000 		.4byte	0x89
 957 0510 00       		.byte	0
 958 0511 0D       		.uleb128 0xd
 959 0512 04       		.byte	0x4
 960 0513 17050000 		.4byte	0x517
 961 0517 15       		.uleb128 0x15
 962 0518 93020000 		.4byte	.LASF87
 963 051c 2804     		.2byte	0x428
 964 051e 09       		.byte	0x9
 965 051f 3902     		.2byte	0x239
 966 0521 49060000 		.4byte	0x649
 967 0525 16       		.uleb128 0x16
 968 0526 13040000 		.4byte	.LASF88
 969 052a 09       		.byte	0x9
ARM GAS  /tmp/ccGoki3r.s 			page 18


 970 052b 3B02     		.2byte	0x23b
 971 052d 89000000 		.4byte	0x89
 972 0531 00       		.byte	0
 973 0532 16       		.uleb128 0x16
 974 0533 DE020000 		.4byte	.LASF89
 975 0537 09       		.byte	0x9
 976 0538 4002     		.2byte	0x240
 977 053a 23070000 		.4byte	0x723
 978 053e 04       		.byte	0x4
 979 053f 16       		.uleb128 0x16
 980 0540 88080000 		.4byte	.LASF90
 981 0544 09       		.byte	0x9
 982 0545 4002     		.2byte	0x240
 983 0547 23070000 		.4byte	0x723
 984 054b 08       		.byte	0x8
 985 054c 16       		.uleb128 0x16
 986 054d FD050000 		.4byte	.LASF91
 987 0551 09       		.byte	0x9
 988 0552 4002     		.2byte	0x240
 989 0554 23070000 		.4byte	0x723
 990 0558 0C       		.byte	0xc
 991 0559 16       		.uleb128 0x16
 992 055a D1090000 		.4byte	.LASF92
 993 055e 09       		.byte	0x9
 994 055f 4202     		.2byte	0x242
 995 0561 89000000 		.4byte	0x89
 996 0565 10       		.byte	0x10
 997 0566 16       		.uleb128 0x16
 998 0567 CB040000 		.4byte	.LASF93
 999 056b 09       		.byte	0x9
 1000 056c 4302     		.2byte	0x243
 1001 056e 05090000 		.4byte	0x905
 1002 0572 14       		.byte	0x14
 1003 0573 16       		.uleb128 0x16
 1004 0574 E3010000 		.4byte	.LASF94
 1005 0578 09       		.byte	0x9
 1006 0579 4502     		.2byte	0x245
 1007 057b 89000000 		.4byte	0x89
 1008 057f 30       		.byte	0x30
 1009 0580 16       		.uleb128 0x16
 1010 0581 13050000 		.4byte	.LASF95
 1011 0585 09       		.byte	0x9
 1012 0586 4602     		.2byte	0x246
 1013 0588 6D060000 		.4byte	0x66d
 1014 058c 34       		.byte	0x34
 1015 058d 16       		.uleb128 0x16
 1016 058e B9030000 		.4byte	.LASF96
 1017 0592 09       		.byte	0x9
 1018 0593 4802     		.2byte	0x248
 1019 0595 89000000 		.4byte	0x89
 1020 0599 38       		.byte	0x38
 1021 059a 16       		.uleb128 0x16
 1022 059b 89040000 		.4byte	.LASF97
 1023 059f 09       		.byte	0x9
 1024 05a0 4A02     		.2byte	0x24a
 1025 05a2 20090000 		.4byte	0x920
 1026 05a6 3C       		.byte	0x3c
ARM GAS  /tmp/ccGoki3r.s 			page 19


 1027 05a7 16       		.uleb128 0x16
 1028 05a8 550A0000 		.4byte	.LASF98
 1029 05ac 09       		.byte	0x9
 1030 05ad 4D02     		.2byte	0x24d
 1031 05af 64020000 		.4byte	0x264
 1032 05b3 40       		.byte	0x40
 1033 05b4 16       		.uleb128 0x16
 1034 05b5 8B010000 		.4byte	.LASF99
 1035 05b9 09       		.byte	0x9
 1036 05ba 4E02     		.2byte	0x24e
 1037 05bc 89000000 		.4byte	0x89
 1038 05c0 44       		.byte	0x44
 1039 05c1 16       		.uleb128 0x16
 1040 05c2 9A030000 		.4byte	.LASF100
 1041 05c6 09       		.byte	0x9
 1042 05c7 4F02     		.2byte	0x24f
 1043 05c9 64020000 		.4byte	0x264
 1044 05cd 48       		.byte	0x48
 1045 05ce 16       		.uleb128 0x16
 1046 05cf 23050000 		.4byte	.LASF101
 1047 05d3 09       		.byte	0x9
 1048 05d4 5002     		.2byte	0x250
 1049 05d6 26090000 		.4byte	0x926
 1050 05da 4C       		.byte	0x4c
 1051 05db 16       		.uleb128 0x16
 1052 05dc 76000000 		.4byte	.LASF102
 1053 05e0 09       		.byte	0x9
 1054 05e1 5302     		.2byte	0x253
 1055 05e3 89000000 		.4byte	0x89
 1056 05e7 50       		.byte	0x50
 1057 05e8 16       		.uleb128 0x16
 1058 05e9 64030000 		.4byte	.LASF103
 1059 05ed 09       		.byte	0x9
 1060 05ee 5402     		.2byte	0x254
 1061 05f0 A1010000 		.4byte	0x1a1
 1062 05f4 54       		.byte	0x54
 1063 05f5 16       		.uleb128 0x16
 1064 05f6 F2050000 		.4byte	.LASF104
 1065 05fa 09       		.byte	0x9
 1066 05fb 7702     		.2byte	0x277
 1067 05fd E3080000 		.4byte	0x8e3
 1068 0601 58       		.byte	0x58
 1069 0602 17       		.uleb128 0x17
 1070 0603 50060000 		.4byte	.LASF64
 1071 0607 09       		.byte	0x9
 1072 0608 7B02     		.2byte	0x27b
 1073 060a 81030000 		.4byte	0x381
 1074 060e 4801     		.2byte	0x148
 1075 0610 17       		.uleb128 0x17
 1076 0611 93040000 		.4byte	.LASF105
 1077 0615 09       		.byte	0x9
 1078 0616 7C02     		.2byte	0x27c
 1079 0618 43030000 		.4byte	0x343
 1080 061c 4C01     		.2byte	0x14c
 1081 061e 17       		.uleb128 0x17
 1082 061f 52030000 		.4byte	.LASF106
 1083 0623 09       		.byte	0x9
ARM GAS  /tmp/ccGoki3r.s 			page 20


 1084 0624 8002     		.2byte	0x280
 1085 0626 37090000 		.4byte	0x937
 1086 062a DC02     		.2byte	0x2dc
 1087 062c 17       		.uleb128 0x17
 1088 062d F3040000 		.4byte	.LASF107
 1089 0631 09       		.byte	0x9
 1090 0632 8502     		.2byte	0x285
 1091 0634 E8060000 		.4byte	0x6e8
 1092 0638 E002     		.2byte	0x2e0
 1093 063a 17       		.uleb128 0x17
 1094 063b 2E000000 		.4byte	.LASF108
 1095 063f 09       		.byte	0x9
 1096 0640 8602     		.2byte	0x286
 1097 0642 43090000 		.4byte	0x943
 1098 0646 EC02     		.2byte	0x2ec
 1099 0648 00       		.byte	0
 1100 0649 0D       		.uleb128 0xd
 1101 064a 04       		.byte	0x4
 1102 064b F3040000 		.4byte	0x4f3
 1103 064f 13       		.uleb128 0x13
 1104 0650 89000000 		.4byte	0x89
 1105 0654 6D060000 		.4byte	0x66d
 1106 0658 14       		.uleb128 0x14
 1107 0659 11050000 		.4byte	0x511
 1108 065d 14       		.uleb128 0x14
 1109 065e 5D010000 		.4byte	0x15d
 1110 0662 14       		.uleb128 0x14
 1111 0663 6D060000 		.4byte	0x66d
 1112 0667 14       		.uleb128 0x14
 1113 0668 89000000 		.4byte	0x89
 1114 066c 00       		.byte	0
 1115 066d 0D       		.uleb128 0xd
 1116 066e 04       		.byte	0x4
 1117 066f 73060000 		.4byte	0x673
 1118 0673 18       		.uleb128 0x18
 1119 0674 A7010000 		.4byte	0x1a7
 1120 0678 0D       		.uleb128 0xd
 1121 0679 04       		.byte	0x4
 1122 067a 4F060000 		.4byte	0x64f
 1123 067e 13       		.uleb128 0x13
 1124 067f D9000000 		.4byte	0xd9
 1125 0683 9C060000 		.4byte	0x69c
 1126 0687 14       		.uleb128 0x14
 1127 0688 11050000 		.4byte	0x511
 1128 068c 14       		.uleb128 0x14
 1129 068d 5D010000 		.4byte	0x15d
 1130 0691 14       		.uleb128 0x14
 1131 0692 D9000000 		.4byte	0xd9
 1132 0696 14       		.uleb128 0x14
 1133 0697 89000000 		.4byte	0x89
 1134 069b 00       		.byte	0
 1135 069c 0D       		.uleb128 0xd
 1136 069d 04       		.byte	0x4
 1137 069e 7E060000 		.4byte	0x67e
 1138 06a2 13       		.uleb128 0x13
 1139 06a3 89000000 		.4byte	0x89
 1140 06a7 B6060000 		.4byte	0x6b6
ARM GAS  /tmp/ccGoki3r.s 			page 21


 1141 06ab 14       		.uleb128 0x14
 1142 06ac 11050000 		.4byte	0x511
 1143 06b0 14       		.uleb128 0x14
 1144 06b1 5D010000 		.4byte	0x15d
 1145 06b5 00       		.byte	0
 1146 06b6 0D       		.uleb128 0xd
 1147 06b7 04       		.byte	0x4
 1148 06b8 A2060000 		.4byte	0x6a2
 1149 06bc 08       		.uleb128 0x8
 1150 06bd 37000000 		.4byte	0x37
 1151 06c1 CC060000 		.4byte	0x6cc
 1152 06c5 09       		.uleb128 0x9
 1153 06c6 1F010000 		.4byte	0x11f
 1154 06ca 02       		.byte	0x2
 1155 06cb 00       		.byte	0
 1156 06cc 08       		.uleb128 0x8
 1157 06cd 37000000 		.4byte	0x37
 1158 06d1 DC060000 		.4byte	0x6dc
 1159 06d5 09       		.uleb128 0x9
 1160 06d6 1F010000 		.4byte	0x11f
 1161 06da 00       		.byte	0
 1162 06db 00       		.byte	0
 1163 06dc 05       		.uleb128 0x5
 1164 06dd E4080000 		.4byte	.LASF109
 1165 06e1 09       		.byte	0x9
 1166 06e2 1D01     		.2byte	0x11d
 1167 06e4 C9030000 		.4byte	0x3c9
 1168 06e8 19       		.uleb128 0x19
 1169 06e9 39050000 		.4byte	.LASF110
 1170 06ed 0C       		.byte	0xc
 1171 06ee 09       		.byte	0x9
 1172 06ef 2101     		.2byte	0x121
 1173 06f1 1D070000 		.4byte	0x71d
 1174 06f5 16       		.uleb128 0x16
 1175 06f6 14090000 		.4byte	.LASF44
 1176 06fa 09       		.byte	0x9
 1177 06fb 2301     		.2byte	0x123
 1178 06fd 1D070000 		.4byte	0x71d
 1179 0701 00       		.byte	0
 1180 0702 16       		.uleb128 0x16
 1181 0703 EC040000 		.4byte	.LASF111
 1182 0707 09       		.byte	0x9
 1183 0708 2401     		.2byte	0x124
 1184 070a 89000000 		.4byte	0x89
 1185 070e 04       		.byte	0x4
 1186 070f 16       		.uleb128 0x16
 1187 0710 2D050000 		.4byte	.LASF112
 1188 0714 09       		.byte	0x9
 1189 0715 2501     		.2byte	0x125
 1190 0717 23070000 		.4byte	0x723
 1191 071b 08       		.byte	0x8
 1192 071c 00       		.byte	0
 1193 071d 0D       		.uleb128 0xd
 1194 071e 04       		.byte	0x4
 1195 071f E8060000 		.4byte	0x6e8
 1196 0723 0D       		.uleb128 0xd
 1197 0724 04       		.byte	0x4
ARM GAS  /tmp/ccGoki3r.s 			page 22


 1198 0725 DC060000 		.4byte	0x6dc
 1199 0729 19       		.uleb128 0x19
 1200 072a 80080000 		.4byte	.LASF113
 1201 072e 0E       		.byte	0xe
 1202 072f 09       		.byte	0x9
 1203 0730 3D01     		.2byte	0x13d
 1204 0732 5E070000 		.4byte	0x75e
 1205 0736 16       		.uleb128 0x16
 1206 0737 04070000 		.4byte	.LASF114
 1207 073b 09       		.byte	0x9
 1208 073c 3E01     		.2byte	0x13e
 1209 073e 5E070000 		.4byte	0x75e
 1210 0742 00       		.byte	0
 1211 0743 16       		.uleb128 0x16
 1212 0744 0D010000 		.4byte	.LASF115
 1213 0748 09       		.byte	0x9
 1214 0749 3F01     		.2byte	0x13f
 1215 074b 5E070000 		.4byte	0x75e
 1216 074f 06       		.byte	0x6
 1217 0750 16       		.uleb128 0x16
 1218 0751 700A0000 		.4byte	.LASF116
 1219 0755 09       		.byte	0x9
 1220 0756 4001     		.2byte	0x140
 1221 0758 45000000 		.4byte	0x45
 1222 075c 0C       		.byte	0xc
 1223 075d 00       		.byte	0
 1224 075e 08       		.uleb128 0x8
 1225 075f 45000000 		.4byte	0x45
 1226 0763 6E070000 		.4byte	0x76e
 1227 0767 09       		.uleb128 0x9
 1228 0768 1F010000 		.4byte	0x11f
 1229 076c 02       		.byte	0x2
 1230 076d 00       		.byte	0
 1231 076e 1A       		.uleb128 0x1a
 1232 076f D0       		.byte	0xd0
 1233 0770 09       		.byte	0x9
 1234 0771 5802     		.2byte	0x258
 1235 0773 6F080000 		.4byte	0x86f
 1236 0777 16       		.uleb128 0x16
 1237 0778 03020000 		.4byte	.LASF117
 1238 077c 09       		.byte	0x9
 1239 077d 5A02     		.2byte	0x25a
 1240 077f 90000000 		.4byte	0x90
 1241 0783 00       		.byte	0
 1242 0784 16       		.uleb128 0x16
 1243 0785 B4080000 		.4byte	.LASF118
 1244 0789 09       		.byte	0x9
 1245 078a 5B02     		.2byte	0x25b
 1246 078c A1010000 		.4byte	0x1a1
 1247 0790 04       		.byte	0x4
 1248 0791 16       		.uleb128 0x16
 1249 0792 69000000 		.4byte	.LASF119
 1250 0796 09       		.byte	0x9
 1251 0797 5C02     		.2byte	0x25c
 1252 0799 6F080000 		.4byte	0x86f
 1253 079d 08       		.byte	0x8
 1254 079e 16       		.uleb128 0x16
ARM GAS  /tmp/ccGoki3r.s 			page 23


 1255 079f 9B010000 		.4byte	.LASF120
 1256 07a3 09       		.byte	0x9
 1257 07a4 5D02     		.2byte	0x25d
 1258 07a6 7A020000 		.4byte	0x27a
 1259 07aa 24       		.byte	0x24
 1260 07ab 16       		.uleb128 0x16
 1261 07ac 04050000 		.4byte	.LASF121
 1262 07b0 09       		.byte	0x9
 1263 07b1 5E02     		.2byte	0x25e
 1264 07b3 89000000 		.4byte	0x89
 1265 07b7 48       		.byte	0x48
 1266 07b8 16       		.uleb128 0x16
 1267 07b9 24060000 		.4byte	.LASF122
 1268 07bd 09       		.byte	0x9
 1269 07be 5F02     		.2byte	0x25f
 1270 07c0 82000000 		.4byte	0x82
 1271 07c4 50       		.byte	0x50
 1272 07c5 16       		.uleb128 0x16
 1273 07c6 01090000 		.4byte	.LASF123
 1274 07ca 09       		.byte	0x9
 1275 07cb 6002     		.2byte	0x260
 1276 07cd 29070000 		.4byte	0x729
 1277 07d1 58       		.byte	0x58
 1278 07d2 16       		.uleb128 0x16
 1279 07d3 67090000 		.4byte	.LASF124
 1280 07d7 09       		.byte	0x9
 1281 07d8 6102     		.2byte	0x261
 1282 07da 47010000 		.4byte	0x147
 1283 07de 68       		.byte	0x68
 1284 07df 16       		.uleb128 0x16
 1285 07e0 37070000 		.4byte	.LASF125
 1286 07e4 09       		.byte	0x9
 1287 07e5 6202     		.2byte	0x262
 1288 07e7 47010000 		.4byte	0x147
 1289 07eb 70       		.byte	0x70
 1290 07ec 16       		.uleb128 0x16
 1291 07ed 05060000 		.4byte	.LASF126
 1292 07f1 09       		.byte	0x9
 1293 07f2 6302     		.2byte	0x263
 1294 07f4 47010000 		.4byte	0x147
 1295 07f8 78       		.byte	0x78
 1296 07f9 16       		.uleb128 0x16
 1297 07fa EA000000 		.4byte	.LASF127
 1298 07fe 09       		.byte	0x9
 1299 07ff 6402     		.2byte	0x264
 1300 0801 7F080000 		.4byte	0x87f
 1301 0805 80       		.byte	0x80
 1302 0806 16       		.uleb128 0x16
 1303 0807 47040000 		.4byte	.LASF128
 1304 080b 09       		.byte	0x9
 1305 080c 6502     		.2byte	0x265
 1306 080e 8F080000 		.4byte	0x88f
 1307 0812 88       		.byte	0x88
 1308 0813 16       		.uleb128 0x16
 1309 0814 020B0000 		.4byte	.LASF129
 1310 0818 09       		.byte	0x9
 1311 0819 6602     		.2byte	0x266
ARM GAS  /tmp/ccGoki3r.s 			page 24


 1312 081b 89000000 		.4byte	0x89
 1313 081f A0       		.byte	0xa0
 1314 0820 16       		.uleb128 0x16
 1315 0821 66010000 		.4byte	.LASF130
 1316 0825 09       		.byte	0x9
 1317 0826 6702     		.2byte	0x267
 1318 0828 47010000 		.4byte	0x147
 1319 082c A4       		.byte	0xa4
 1320 082d 16       		.uleb128 0x16
 1321 082e C1080000 		.4byte	.LASF131
 1322 0832 09       		.byte	0x9
 1323 0833 6802     		.2byte	0x268
 1324 0835 47010000 		.4byte	0x147
 1325 0839 AC       		.byte	0xac
 1326 083a 16       		.uleb128 0x16
 1327 083b 9E0A0000 		.4byte	.LASF132
 1328 083f 09       		.byte	0x9
 1329 0840 6902     		.2byte	0x269
 1330 0842 47010000 		.4byte	0x147
 1331 0846 B4       		.byte	0xb4
 1332 0847 16       		.uleb128 0x16
 1333 0848 D40A0000 		.4byte	.LASF133
 1334 084c 09       		.byte	0x9
 1335 084d 6A02     		.2byte	0x26a
 1336 084f 47010000 		.4byte	0x147
 1337 0853 BC       		.byte	0xbc
 1338 0854 16       		.uleb128 0x16
 1339 0855 CA000000 		.4byte	.LASF134
 1340 0859 09       		.byte	0x9
 1341 085a 6B02     		.2byte	0x26b
 1342 085c 47010000 		.4byte	0x147
 1343 0860 C4       		.byte	0xc4
 1344 0861 16       		.uleb128 0x16
 1345 0862 91050000 		.4byte	.LASF135
 1346 0866 09       		.byte	0x9
 1347 0867 6C02     		.2byte	0x26c
 1348 0869 89000000 		.4byte	0x89
 1349 086d CC       		.byte	0xcc
 1350 086e 00       		.byte	0
 1351 086f 08       		.uleb128 0x8
 1352 0870 A7010000 		.4byte	0x1a7
 1353 0874 7F080000 		.4byte	0x87f
 1354 0878 09       		.uleb128 0x9
 1355 0879 1F010000 		.4byte	0x11f
 1356 087d 19       		.byte	0x19
 1357 087e 00       		.byte	0
 1358 087f 08       		.uleb128 0x8
 1359 0880 A7010000 		.4byte	0x1a7
 1360 0884 8F080000 		.4byte	0x88f
 1361 0888 09       		.uleb128 0x9
 1362 0889 1F010000 		.4byte	0x11f
 1363 088d 07       		.byte	0x7
 1364 088e 00       		.byte	0
 1365 088f 08       		.uleb128 0x8
 1366 0890 A7010000 		.4byte	0x1a7
 1367 0894 9F080000 		.4byte	0x89f
 1368 0898 09       		.uleb128 0x9
ARM GAS  /tmp/ccGoki3r.s 			page 25


 1369 0899 1F010000 		.4byte	0x11f
 1370 089d 17       		.byte	0x17
 1371 089e 00       		.byte	0
 1372 089f 1A       		.uleb128 0x1a
 1373 08a0 F0       		.byte	0xf0
 1374 08a1 09       		.byte	0x9
 1375 08a2 7102     		.2byte	0x271
 1376 08a4 C3080000 		.4byte	0x8c3
 1377 08a8 16       		.uleb128 0x16
 1378 08a9 0A0A0000 		.4byte	.LASF136
 1379 08ad 09       		.byte	0x9
 1380 08ae 7402     		.2byte	0x274
 1381 08b0 C3080000 		.4byte	0x8c3
 1382 08b4 00       		.byte	0
 1383 08b5 16       		.uleb128 0x16
 1384 08b6 FB040000 		.4byte	.LASF137
 1385 08ba 09       		.byte	0x9
 1386 08bb 7502     		.2byte	0x275
 1387 08bd D3080000 		.4byte	0x8d3
 1388 08c1 78       		.byte	0x78
 1389 08c2 00       		.byte	0
 1390 08c3 08       		.uleb128 0x8
 1391 08c4 C3030000 		.4byte	0x3c3
 1392 08c8 D3080000 		.4byte	0x8d3
 1393 08cc 09       		.uleb128 0x9
 1394 08cd 1F010000 		.4byte	0x11f
 1395 08d1 1D       		.byte	0x1d
 1396 08d2 00       		.byte	0
 1397 08d3 08       		.uleb128 0x8
 1398 08d4 90000000 		.4byte	0x90
 1399 08d8 E3080000 		.4byte	0x8e3
 1400 08dc 09       		.uleb128 0x9
 1401 08dd 1F010000 		.4byte	0x11f
 1402 08e1 1D       		.byte	0x1d
 1403 08e2 00       		.byte	0
 1404 08e3 1B       		.uleb128 0x1b
 1405 08e4 F0       		.byte	0xf0
 1406 08e5 09       		.byte	0x9
 1407 08e6 5602     		.2byte	0x256
 1408 08e8 05090000 		.4byte	0x905
 1409 08ec 1C       		.uleb128 0x1c
 1410 08ed 93020000 		.4byte	.LASF87
 1411 08f1 09       		.byte	0x9
 1412 08f2 6D02     		.2byte	0x26d
 1413 08f4 6E070000 		.4byte	0x76e
 1414 08f8 1C       		.uleb128 0x1c
 1415 08f9 BD000000 		.4byte	.LASF138
 1416 08fd 09       		.byte	0x9
 1417 08fe 7602     		.2byte	0x276
 1418 0900 9F080000 		.4byte	0x89f
 1419 0904 00       		.byte	0
 1420 0905 08       		.uleb128 0x8
 1421 0906 A7010000 		.4byte	0x1a7
 1422 090a 15090000 		.4byte	0x915
 1423 090e 09       		.uleb128 0x9
 1424 090f 1F010000 		.4byte	0x11f
 1425 0913 18       		.byte	0x18
ARM GAS  /tmp/ccGoki3r.s 			page 26


 1426 0914 00       		.byte	0
 1427 0915 1D       		.uleb128 0x1d
 1428 0916 20090000 		.4byte	0x920
 1429 091a 14       		.uleb128 0x14
 1430 091b 11050000 		.4byte	0x511
 1431 091f 00       		.byte	0
 1432 0920 0D       		.uleb128 0xd
 1433 0921 04       		.byte	0x4
 1434 0922 15090000 		.4byte	0x915
 1435 0926 0D       		.uleb128 0xd
 1436 0927 04       		.byte	0x4
 1437 0928 64020000 		.4byte	0x264
 1438 092c 1D       		.uleb128 0x1d
 1439 092d 37090000 		.4byte	0x937
 1440 0931 14       		.uleb128 0x14
 1441 0932 89000000 		.4byte	0x89
 1442 0936 00       		.byte	0
 1443 0937 0D       		.uleb128 0xd
 1444 0938 04       		.byte	0x4
 1445 0939 3D090000 		.4byte	0x93d
 1446 093d 0D       		.uleb128 0xd
 1447 093e 04       		.byte	0x4
 1448 093f 2C090000 		.4byte	0x92c
 1449 0943 08       		.uleb128 0x8
 1450 0944 DC060000 		.4byte	0x6dc
 1451 0948 53090000 		.4byte	0x953
 1452 094c 09       		.uleb128 0x9
 1453 094d 1F010000 		.4byte	0x11f
 1454 0951 02       		.byte	0x2
 1455 0952 00       		.byte	0
 1456 0953 0E       		.uleb128 0xe
 1457 0954 9C040000 		.4byte	.LASF139
 1458 0958 3C       		.byte	0x3c
 1459 0959 0A       		.byte	0xa
 1460 095a 1B       		.byte	0x1b
 1461 095b 2C0A0000 		.4byte	0xa2c
 1462 095f 0B       		.uleb128 0xb
 1463 0960 10070000 		.4byte	.LASF140
 1464 0964 0A       		.byte	0xa
 1465 0965 1D       		.byte	0x1d
 1466 0966 C4010000 		.4byte	0x1c4
 1467 096a 00       		.byte	0
 1468 096b 0B       		.uleb128 0xb
 1469 096c C50A0000 		.4byte	.LASF141
 1470 0970 0A       		.byte	0xa
 1471 0971 1E       		.byte	0x1e
 1472 0972 AE010000 		.4byte	0x1ae
 1473 0976 02       		.byte	0x2
 1474 0977 0B       		.uleb128 0xb
 1475 0978 FA090000 		.4byte	.LASF142
 1476 097c 0A       		.byte	0xa
 1477 097d 1F       		.byte	0x1f
 1478 097e F0010000 		.4byte	0x1f0
 1479 0982 04       		.byte	0x4
 1480 0983 0B       		.uleb128 0xb
 1481 0984 60060000 		.4byte	.LASF143
 1482 0988 0A       		.byte	0xa
ARM GAS  /tmp/ccGoki3r.s 			page 27


 1483 0989 20       		.byte	0x20
 1484 098a FB010000 		.4byte	0x1fb
 1485 098e 08       		.byte	0x8
 1486 098f 0B       		.uleb128 0xb
 1487 0990 35020000 		.4byte	.LASF144
 1488 0994 0A       		.byte	0xa
 1489 0995 21       		.byte	0x21
 1490 0996 CF010000 		.4byte	0x1cf
 1491 099a 0A       		.byte	0xa
 1492 099b 0B       		.uleb128 0xb
 1493 099c 6C030000 		.4byte	.LASF145
 1494 09a0 0A       		.byte	0xa
 1495 09a1 22       		.byte	0x22
 1496 09a2 DA010000 		.4byte	0x1da
 1497 09a6 0C       		.byte	0xc
 1498 09a7 0B       		.uleb128 0xb
 1499 09a8 79020000 		.4byte	.LASF146
 1500 09ac 0A       		.byte	0xa
 1501 09ad 23       		.byte	0x23
 1502 09ae C4010000 		.4byte	0x1c4
 1503 09b2 0E       		.byte	0xe
 1504 09b3 0B       		.uleb128 0xb
 1505 09b4 CC030000 		.4byte	.LASF147
 1506 09b8 0A       		.byte	0xa
 1507 09b9 24       		.byte	0x24
 1508 09ba B9010000 		.4byte	0x1b9
 1509 09be 10       		.byte	0x10
 1510 09bf 0B       		.uleb128 0xb
 1511 09c0 D7060000 		.4byte	.LASF148
 1512 09c4 0A       		.byte	0xa
 1513 09c5 32       		.byte	0x32
 1514 09c6 8B010000 		.4byte	0x18b
 1515 09ca 14       		.byte	0x14
 1516 09cb 0B       		.uleb128 0xb
 1517 09cc 2B020000 		.4byte	.LASF149
 1518 09d0 0A       		.byte	0xa
 1519 09d1 33       		.byte	0x33
 1520 09d2 57000000 		.4byte	0x57
 1521 09d6 18       		.byte	0x18
 1522 09d7 0B       		.uleb128 0xb
 1523 09d8 35090000 		.4byte	.LASF150
 1524 09dc 0A       		.byte	0xa
 1525 09dd 34       		.byte	0x34
 1526 09de 8B010000 		.4byte	0x18b
 1527 09e2 1C       		.byte	0x1c
 1528 09e3 0B       		.uleb128 0xb
 1529 09e4 3D040000 		.4byte	.LASF151
 1530 09e8 0A       		.byte	0xa
 1531 09e9 35       		.byte	0x35
 1532 09ea 57000000 		.4byte	0x57
 1533 09ee 20       		.byte	0x20
 1534 09ef 0B       		.uleb128 0xb
 1535 09f0 0A030000 		.4byte	.LASF152
 1536 09f4 0A       		.byte	0xa
 1537 09f5 36       		.byte	0x36
 1538 09f6 8B010000 		.4byte	0x18b
 1539 09fa 24       		.byte	0x24
ARM GAS  /tmp/ccGoki3r.s 			page 28


 1540 09fb 0B       		.uleb128 0xb
 1541 09fc 3C020000 		.4byte	.LASF153
 1542 0a00 0A       		.byte	0xa
 1543 0a01 37       		.byte	0x37
 1544 0a02 57000000 		.4byte	0x57
 1545 0a06 28       		.byte	0x28
 1546 0a07 0B       		.uleb128 0xb
 1547 0a08 A1040000 		.4byte	.LASF154
 1548 0a0c 0A       		.byte	0xa
 1549 0a0d 38       		.byte	0x38
 1550 0a0e 57000000 		.4byte	0x57
 1551 0a12 2C       		.byte	0x2c
 1552 0a13 0B       		.uleb128 0xb
 1553 0a14 47000000 		.4byte	.LASF155
 1554 0a18 0A       		.byte	0xa
 1555 0a19 39       		.byte	0x39
 1556 0a1a 57000000 		.4byte	0x57
 1557 0a1e 30       		.byte	0x30
 1558 0a1f 0B       		.uleb128 0xb
 1559 0a20 46020000 		.4byte	.LASF156
 1560 0a24 0A       		.byte	0xa
 1561 0a25 3A       		.byte	0x3a
 1562 0a26 2C0A0000 		.4byte	0xa2c
 1563 0a2a 34       		.byte	0x34
 1564 0a2b 00       		.byte	0
 1565 0a2c 08       		.uleb128 0x8
 1566 0a2d 57000000 		.4byte	0x57
 1567 0a31 3C0A0000 		.4byte	0xa3c
 1568 0a35 09       		.uleb128 0x9
 1569 0a36 1F010000 		.4byte	0x11f
 1570 0a3a 01       		.byte	0x1
 1571 0a3b 00       		.byte	0
 1572 0a3c 03       		.uleb128 0x3
 1573 0a3d 84050000 		.4byte	.LASF157
 1574 0a41 0B       		.byte	0xb
 1575 0a42 39       		.byte	0x39
 1576 0a43 75010000 		.4byte	0x175
 1577 0a47 03       		.uleb128 0x3
 1578 0a48 B3010000 		.4byte	.LASF158
 1579 0a4c 0B       		.byte	0xb
 1580 0a4d 3A       		.byte	0x3a
 1581 0a4e 80010000 		.4byte	0x180
 1582 0a52 03       		.uleb128 0x3
 1583 0a53 2D090000 		.4byte	.LASF159
 1584 0a57 0B       		.byte	0xb
 1585 0a58 3C       		.byte	0x3c
 1586 0a59 5F010000 		.4byte	0x15f
 1587 0a5d 03       		.uleb128 0x3
 1588 0a5e AA010000 		.4byte	.LASF160
 1589 0a62 0B       		.byte	0xb
 1590 0a63 3D       		.byte	0x3d
 1591 0a64 5F010000 		.4byte	0x15f
 1592 0a68 03       		.uleb128 0x3
 1593 0a69 02030000 		.4byte	.LASF161
 1594 0a6d 0B       		.byte	0xb
 1595 0a6e 3E       		.byte	0x3e
 1596 0a6f 5F010000 		.4byte	0x15f
ARM GAS  /tmp/ccGoki3r.s 			page 29


 1597 0a73 03       		.uleb128 0x3
 1598 0a74 3F000000 		.4byte	.LASF162
 1599 0a78 0B       		.byte	0xb
 1600 0a79 40       		.byte	0x40
 1601 0a7a 75010000 		.4byte	0x175
 1602 0a7e 03       		.uleb128 0x3
 1603 0a7f 69080000 		.4byte	.LASF163
 1604 0a83 0B       		.byte	0xb
 1605 0a84 41       		.byte	0x41
 1606 0a85 6A010000 		.4byte	0x16a
 1607 0a89 03       		.uleb128 0x3
 1608 0a8a 50020000 		.4byte	.LASF164
 1609 0a8e 0B       		.byte	0xb
 1610 0a8f 43       		.byte	0x43
 1611 0a90 75010000 		.4byte	0x175
 1612 0a94 03       		.uleb128 0x3
 1613 0a95 1E030000 		.4byte	.LASF165
 1614 0a99 0B       		.byte	0xb
 1615 0a9a 45       		.byte	0x45
 1616 0a9b 6A010000 		.4byte	0x16a
 1617 0a9f 03       		.uleb128 0x3
 1618 0aa0 5C040000 		.4byte	.LASF166
 1619 0aa4 0B       		.byte	0xb
 1620 0aa5 46       		.byte	0x46
 1621 0aa6 75010000 		.4byte	0x175
 1622 0aaa 03       		.uleb128 0x3
 1623 0aab 24000000 		.4byte	.LASF167
 1624 0aaf 0C       		.byte	0xc
 1625 0ab0 33       		.byte	0x33
 1626 0ab1 75010000 		.4byte	0x175
 1627 0ab5 03       		.uleb128 0x3
 1628 0ab6 CE060000 		.4byte	.LASF168
 1629 0aba 0C       		.byte	0xc
 1630 0abb 3F       		.byte	0x3f
 1631 0abc C00A0000 		.4byte	0xac0
 1632 0ac0 0E       		.uleb128 0xe
 1633 0ac1 E1030000 		.4byte	.LASF169
 1634 0ac5 60       		.byte	0x60
 1635 0ac6 0D       		.byte	0xd
 1636 0ac7 9A       		.byte	0x9a
 1637 0ac8 AB0B0000 		.4byte	0xbab
 1638 0acc 0B       		.uleb128 0xb
 1639 0acd A5080000 		.4byte	.LASF170
 1640 0ad1 0D       		.byte	0xd
 1641 0ad2 9B       		.byte	0x9b
 1642 0ad3 E00B0000 		.4byte	0xbe0
 1643 0ad7 00       		.byte	0
 1644 0ad8 0B       		.uleb128 0xb
 1645 0ad9 26010000 		.4byte	.LASF171
 1646 0add 0D       		.byte	0xd
 1647 0ade 9C       		.byte	0x9c
 1648 0adf 730A0000 		.4byte	0xa73
 1649 0ae3 08       		.byte	0x8
 1650 0ae4 0F       		.uleb128 0xf
 1651 0ae5 63747800 		.ascii	"ctx\000"
 1652 0ae9 0D       		.byte	0xd
 1653 0aea 9D       		.byte	0x9d
ARM GAS  /tmp/ccGoki3r.s 			page 30


 1654 0aeb DC0D0000 		.4byte	0xddc
 1655 0aef 0C       		.byte	0xc
 1656 0af0 0B       		.uleb128 0xb
 1657 0af1 460A0000 		.4byte	.LASF172
 1658 0af5 0D       		.byte	0xd
 1659 0af6 9F       		.byte	0x9f
 1660 0af7 B60B0000 		.4byte	0xbb6
 1661 0afb 10       		.byte	0x10
 1662 0afc 0B       		.uleb128 0xb
 1663 0afd 37040000 		.4byte	.LASF173
 1664 0b01 0D       		.byte	0xd
 1665 0b02 A0       		.byte	0xa0
 1666 0b03 B60B0000 		.4byte	0xbb6
 1667 0b07 14       		.byte	0x14
 1668 0b08 0B       		.uleb128 0xb
 1669 0b09 4F090000 		.4byte	.LASF174
 1670 0b0d 0D       		.byte	0xd
 1671 0b0e A7       		.byte	0xa7
 1672 0b0f 6D060000 		.4byte	0x66d
 1673 0b13 18       		.byte	0x18
 1674 0b14 0B       		.uleb128 0xb
 1675 0b15 06090000 		.4byte	.LASF175
 1676 0b19 0D       		.byte	0xd
 1677 0b1a B0       		.byte	0xb0
 1678 0b1b C3100000 		.4byte	0x10c3
 1679 0b1f 1C       		.byte	0x1c
 1680 0b20 0B       		.uleb128 0xb
 1681 0b21 FB000000 		.4byte	.LASF176
 1682 0b25 0D       		.byte	0xd
 1683 0b26 B5       		.byte	0xb5
 1684 0b27 5D0A0000 		.4byte	0xa5d
 1685 0b2b 20       		.byte	0x20
 1686 0b2c 0B       		.uleb128 0xb
 1687 0b2d E5020000 		.4byte	.LASF177
 1688 0b31 0D       		.byte	0xd
 1689 0b32 B9       		.byte	0xb9
 1690 0b33 520A0000 		.4byte	0xa52
 1691 0b37 21       		.byte	0x21
 1692 0b38 0B       		.uleb128 0xb
 1693 0b39 8C050000 		.4byte	.LASF178
 1694 0b3d 0D       		.byte	0xd
 1695 0b3e BE       		.byte	0xbe
 1696 0b3f 680A0000 		.4byte	0xa68
 1697 0b43 22       		.byte	0x22
 1698 0b44 1E       		.uleb128 0x1e
 1699 0b45 7500     		.ascii	"u\000"
 1700 0b47 0D       		.byte	0xd
 1701 0b48 0F01     		.2byte	0x10f
 1702 0b4a F80F0000 		.4byte	0xff8
 1703 0b4e 24       		.byte	0x24
 1704 0b4f 16       		.uleb128 0x16
 1705 0b50 DB090000 		.4byte	.LASF179
 1706 0b54 0D       		.byte	0xd
 1707 0b55 1401     		.2byte	0x114
 1708 0b57 BC0B0000 		.4byte	0xbbc
 1709 0b5b 28       		.byte	0x28
 1710 0b5c 16       		.uleb128 0x16
ARM GAS  /tmp/ccGoki3r.s 			page 31


 1711 0b5d 95090000 		.4byte	.LASF180
 1712 0b61 0D       		.byte	0xd
 1713 0b62 1A01     		.2byte	0x11a
 1714 0b64 E00B0000 		.4byte	0xbe0
 1715 0b68 2C       		.byte	0x2c
 1716 0b69 16       		.uleb128 0x16
 1717 0b6a AB080000 		.4byte	.LASF181
 1718 0b6e 0D       		.byte	0xd
 1719 0b6f 2001     		.2byte	0x120
 1720 0b71 890A0000 		.4byte	0xa89
 1721 0b75 34       		.byte	0x34
 1722 0b76 16       		.uleb128 0x16
 1723 0b77 D6040000 		.4byte	.LASF182
 1724 0b7b 0D       		.byte	0xd
 1725 0b7c 2701     		.2byte	0x127
 1726 0b7e BD100000 		.4byte	0x10bd
 1727 0b82 38       		.byte	0x38
 1728 0b83 16       		.uleb128 0x16
 1729 0b84 53040000 		.4byte	.LASF183
 1730 0b88 0D       		.byte	0xd
 1731 0b89 2B01     		.2byte	0x12b
 1732 0b8b 730A0000 		.4byte	0xa73
 1733 0b8f 3C       		.byte	0x3c
 1734 0b90 16       		.uleb128 0x16
 1735 0b91 F6020000 		.4byte	.LASF184
 1736 0b95 0D       		.byte	0xd
 1737 0b96 3201     		.2byte	0x132
 1738 0b98 5D010000 		.4byte	0x15d
 1739 0b9c 40       		.byte	0x40
 1740 0b9d 16       		.uleb128 0x16
 1741 0b9e 07010000 		.4byte	.LASF185
 1742 0ba2 0D       		.byte	0xd
 1743 0ba3 3801     		.2byte	0x138
 1744 0ba5 A90F0000 		.4byte	0xfa9
 1745 0ba9 48       		.byte	0x48
 1746 0baa 00       		.byte	0
 1747 0bab 03       		.uleb128 0x3
 1748 0bac 3D060000 		.4byte	.LASF186
 1749 0bb0 0C       		.byte	0xc
 1750 0bb1 44       		.byte	0x44
 1751 0bb2 B60B0000 		.4byte	0xbb6
 1752 0bb6 0D       		.uleb128 0xd
 1753 0bb7 04       		.byte	0x4
 1754 0bb8 B50A0000 		.4byte	0xab5
 1755 0bbc 03       		.uleb128 0x3
 1756 0bbd 1E0A0000 		.4byte	.LASF187
 1757 0bc1 0C       		.byte	0xc
 1758 0bc2 49       		.byte	0x49
 1759 0bc3 C70B0000 		.4byte	0xbc7
 1760 0bc7 0E       		.uleb128 0xe
 1761 0bc8 6B040000 		.4byte	.LASF188
 1762 0bcc 04       		.byte	0x4
 1763 0bcd 0D       		.byte	0xd
 1764 0bce 88       		.byte	0x88
 1765 0bcf E00B0000 		.4byte	0xbe0
 1766 0bd3 0B       		.uleb128 0xb
 1767 0bd4 EE0A0000 		.4byte	.LASF189
ARM GAS  /tmp/ccGoki3r.s 			page 32


 1768 0bd8 0D       		.byte	0xd
 1769 0bd9 89       		.byte	0x89
 1770 0bda B60B0000 		.4byte	0xbb6
 1771 0bde 00       		.byte	0
 1772 0bdf 00       		.byte	0
 1773 0be0 03       		.uleb128 0x3
 1774 0be1 BC010000 		.4byte	.LASF190
 1775 0be5 0C       		.byte	0xc
 1776 0be6 50       		.byte	0x50
 1777 0be7 EB0B0000 		.4byte	0xbeb
 1778 0beb 0E       		.uleb128 0xe
 1779 0bec 6F080000 		.4byte	.LASF191
 1780 0bf0 08       		.byte	0x8
 1781 0bf1 0D       		.byte	0xd
 1782 0bf2 8F       		.byte	0x8f
 1783 0bf3 100C0000 		.4byte	0xc10
 1784 0bf7 0B       		.uleb128 0xb
 1785 0bf8 EE0A0000 		.4byte	.LASF189
 1786 0bfc 0D       		.byte	0xd
 1787 0bfd 90       		.byte	0x90
 1788 0bfe B60B0000 		.4byte	0xbb6
 1789 0c02 00       		.byte	0
 1790 0c03 0B       		.uleb128 0xb
 1791 0c04 B60A0000 		.4byte	.LASF192
 1792 0c08 0D       		.byte	0xd
 1793 0c09 91       		.byte	0x91
 1794 0c0a B60B0000 		.4byte	0xbb6
 1795 0c0e 04       		.byte	0x4
 1796 0c0f 00       		.byte	0
 1797 0c10 03       		.uleb128 0x3
 1798 0c11 2A040000 		.4byte	.LASF193
 1799 0c15 0C       		.byte	0xc
 1800 0c16 57       		.byte	0x57
 1801 0c17 1B0C0000 		.4byte	0xc1b
 1802 0c1b 19       		.uleb128 0x19
 1803 0c1c 44030000 		.4byte	.LASF194
 1804 0c20 1C       		.byte	0x1c
 1805 0c21 0D       		.byte	0xd
 1806 0c22 6A01     		.2byte	0x16a
 1807 0c24 770C0000 		.4byte	0xc77
 1808 0c28 16       		.uleb128 0x16
 1809 0c29 A5080000 		.4byte	.LASF170
 1810 0c2d 0D       		.byte	0xd
 1811 0c2e 6B01     		.2byte	0x16b
 1812 0c30 E00B0000 		.4byte	0xbe0
 1813 0c34 00       		.byte	0
 1814 0c35 16       		.uleb128 0x16
 1815 0c36 26010000 		.4byte	.LASF171
 1816 0c3a 0D       		.byte	0xd
 1817 0c3b 6C01     		.2byte	0x16c
 1818 0c3d 730A0000 		.4byte	0xa73
 1819 0c41 08       		.byte	0x8
 1820 0c42 1E       		.uleb128 0x1e
 1821 0c43 63747800 		.ascii	"ctx\000"
 1822 0c47 0D       		.byte	0xd
 1823 0c48 6E01     		.2byte	0x16e
 1824 0c4a DC0D0000 		.4byte	0xddc
ARM GAS  /tmp/ccGoki3r.s 			page 33


 1825 0c4e 0C       		.byte	0xc
 1826 0c4f 16       		.uleb128 0x16
 1827 0c50 460A0000 		.4byte	.LASF172
 1828 0c54 0D       		.byte	0xd
 1829 0c55 7101     		.2byte	0x171
 1830 0c57 B60B0000 		.4byte	0xbb6
 1831 0c5b 10       		.byte	0x10
 1832 0c5c 16       		.uleb128 0x16
 1833 0c5d 37040000 		.4byte	.LASF173
 1834 0c61 0D       		.byte	0xd
 1835 0c62 7201     		.2byte	0x172
 1836 0c64 B60B0000 		.4byte	0xbb6
 1837 0c68 14       		.byte	0x14
 1838 0c69 16       		.uleb128 0x16
 1839 0c6a 1C060000 		.4byte	.LASF195
 1840 0c6e 0D       		.byte	0xd
 1841 0c6f 7501     		.2byte	0x175
 1842 0c71 B60B0000 		.4byte	0xbb6
 1843 0c75 18       		.byte	0x18
 1844 0c76 00       		.byte	0
 1845 0c77 03       		.uleb128 0x3
 1846 0c78 7E000000 		.4byte	.LASF196
 1847 0c7c 0C       		.byte	0xc
 1848 0c7d 5C       		.byte	0x5c
 1849 0c7e 820C0000 		.4byte	0xc82
 1850 0c82 0D       		.uleb128 0xd
 1851 0c83 04       		.byte	0x4
 1852 0c84 880C0000 		.4byte	0xc88
 1853 0c88 1D       		.uleb128 0x1d
 1854 0c89 930C0000 		.4byte	0xc93
 1855 0c8d 14       		.uleb128 0x14
 1856 0c8e 5D010000 		.4byte	0x15d
 1857 0c92 00       		.byte	0
 1858 0c93 03       		.uleb128 0x3
 1859 0c94 1A040000 		.4byte	.LASF197
 1860 0c98 0C       		.byte	0xc
 1861 0c99 61       		.byte	0x61
 1862 0c9a 9E0C0000 		.4byte	0xc9e
 1863 0c9e 19       		.uleb128 0x19
 1864 0c9f 26070000 		.4byte	.LASF198
 1865 0ca3 14       		.byte	0x14
 1866 0ca4 0D       		.byte	0xd
 1867 0ca5 4501     		.2byte	0x145
 1868 0ca7 ED0C0000 		.4byte	0xced
 1869 0cab 16       		.uleb128 0x16
 1870 0cac EE0A0000 		.4byte	.LASF189
 1871 0cb0 0D       		.byte	0xd
 1872 0cb1 4601     		.2byte	0x146
 1873 0cb3 C9100000 		.4byte	0x10c9
 1874 0cb7 00       		.byte	0
 1875 0cb8 16       		.uleb128 0x16
 1876 0cb9 B60A0000 		.4byte	.LASF192
 1877 0cbd 0D       		.byte	0xd
 1878 0cbe 4701     		.2byte	0x147
 1879 0cc0 C9100000 		.4byte	0x10c9
 1880 0cc4 04       		.byte	0x4
 1881 0cc5 16       		.uleb128 0x16
ARM GAS  /tmp/ccGoki3r.s 			page 34


 1882 0cc6 90080000 		.4byte	.LASF199
 1883 0cca 0D       		.byte	0xd
 1884 0ccb 4801     		.2byte	0x148
 1885 0ccd AA0A0000 		.4byte	0xaaa
 1886 0cd1 08       		.byte	0x8
 1887 0cd2 16       		.uleb128 0x16
 1888 0cd3 87090000 		.4byte	.LASF200
 1889 0cd7 0D       		.byte	0xd
 1890 0cd8 4901     		.2byte	0x149
 1891 0cda 770C0000 		.4byte	0xc77
 1892 0cde 0C       		.byte	0xc
 1893 0cdf 1E       		.uleb128 0x1e
 1894 0ce0 70617200 		.ascii	"par\000"
 1895 0ce4 0D       		.byte	0xd
 1896 0ce5 4B01     		.2byte	0x14b
 1897 0ce7 5D010000 		.4byte	0x15d
 1898 0ceb 10       		.byte	0x10
 1899 0cec 00       		.byte	0
 1900 0ced 03       		.uleb128 0x3
 1901 0cee EB030000 		.4byte	.LASF201
 1902 0cf2 0C       		.byte	0xc
 1903 0cf3 66       		.byte	0x66
 1904 0cf4 F80C0000 		.4byte	0xcf8
 1905 0cf8 19       		.uleb128 0x19
 1906 0cf9 90000000 		.4byte	.LASF202
 1907 0cfd 10       		.byte	0x10
 1908 0cfe 0D       		.byte	0xd
 1909 0cff 5501     		.2byte	0x155
 1910 0d01 3A0D0000 		.4byte	0xd3a
 1911 0d05 16       		.uleb128 0x16
 1912 0d06 EE0A0000 		.4byte	.LASF189
 1913 0d0a 0D       		.byte	0xd
 1914 0d0b 5601     		.2byte	0x156
 1915 0d0d C9100000 		.4byte	0x10c9
 1916 0d11 00       		.byte	0
 1917 0d12 16       		.uleb128 0x16
 1918 0d13 B60A0000 		.4byte	.LASF192
 1919 0d17 0D       		.byte	0xd
 1920 0d18 5801     		.2byte	0x158
 1921 0d1a C9100000 		.4byte	0x10c9
 1922 0d1e 04       		.byte	0x4
 1923 0d1f 16       		.uleb128 0x16
 1924 0d20 90080000 		.4byte	.LASF199
 1925 0d24 0D       		.byte	0xd
 1926 0d25 5A01     		.2byte	0x15a
 1927 0d27 AA0A0000 		.4byte	0xaaa
 1928 0d2b 08       		.byte	0x8
 1929 0d2c 16       		.uleb128 0x16
 1930 0d2d 70020000 		.4byte	.LASF203
 1931 0d31 0D       		.byte	0xd
 1932 0d32 6201     		.2byte	0x162
 1933 0d34 AA0A0000 		.4byte	0xaaa
 1934 0d38 0C       		.byte	0xc
 1935 0d39 00       		.byte	0
 1936 0d3a 03       		.uleb128 0x3
 1937 0d3b 9A020000 		.4byte	.LASF204
 1938 0d3f 0C       		.byte	0xc
ARM GAS  /tmp/ccGoki3r.s 			page 35


 1939 0d40 6B       		.byte	0x6b
 1940 0d41 450D0000 		.4byte	0xd45
 1941 0d45 19       		.uleb128 0x19
 1942 0d46 A7090000 		.4byte	.LASF205
 1943 0d4a 04       		.byte	0x4
 1944 0d4b 0D       		.byte	0xd
 1945 0d4c 7C01     		.2byte	0x17c
 1946 0d4e 600D0000 		.4byte	0xd60
 1947 0d52 16       		.uleb128 0x16
 1948 0d53 89020000 		.4byte	.LASF206
 1949 0d57 0D       		.byte	0xd
 1950 0d58 8401     		.2byte	0x184
 1951 0d5a CF100000 		.4byte	0x10cf
 1952 0d5e 00       		.byte	0
 1953 0d5f 00       		.byte	0
 1954 0d60 03       		.uleb128 0x3
 1955 0d61 920A0000 		.4byte	.LASF207
 1956 0d65 0C       		.byte	0xc
 1957 0d66 70       		.byte	0x70
 1958 0d67 6B0D0000 		.4byte	0xd6b
 1959 0d6b 19       		.uleb128 0x19
 1960 0d6c 340A0000 		.4byte	.LASF208
 1961 0d70 D0       		.byte	0xd0
 1962 0d71 0D       		.byte	0xd
 1963 0d72 9C01     		.2byte	0x19c
 1964 0d74 C60D0000 		.4byte	0xdc6
 1965 0d78 16       		.uleb128 0x16
 1966 0d79 27090000 		.4byte	.LASF209
 1967 0d7d 0D       		.byte	0xd
 1968 0d7e A001     		.2byte	0x1a0
 1969 0d80 100C0000 		.4byte	0xc10
 1970 0d84 00       		.byte	0
 1971 0d85 16       		.uleb128 0x16
 1972 0d86 CA090000 		.4byte	.LASF210
 1973 0d8a 0D       		.byte	0xd
 1974 0d8b A401     		.2byte	0x1a4
 1975 0d8d ED0C0000 		.4byte	0xced
 1976 0d91 1C       		.byte	0x1c
 1977 0d92 1E       		.uleb128 0x1e
 1978 0d93 64626700 		.ascii	"dbg\000"
 1979 0d97 0D       		.byte	0xd
 1980 0d98 A801     		.2byte	0x1a8
 1981 0d9a 3A0D0000 		.4byte	0xd3a
 1982 0d9e 2C       		.byte	0x2c
 1983 0d9f 16       		.uleb128 0x16
 1984 0da0 D0080000 		.4byte	.LASF211
 1985 0da4 0D       		.byte	0xd
 1986 0da5 AC01     		.2byte	0x1ac
 1987 0da7 B50A0000 		.4byte	0xab5
 1988 0dab 30       		.byte	0x30
 1989 0dac 1E       		.uleb128 0x1e
 1990 0dad 746D00   		.ascii	"tm\000"
 1991 0db0 0D       		.byte	0xd
 1992 0db1 B101     		.2byte	0x1b1
 1993 0db3 5B0F0000 		.4byte	0xf5b
 1994 0db7 90       		.byte	0x90
 1995 0db8 16       		.uleb128 0x16
ARM GAS  /tmp/ccGoki3r.s 			page 36


 1996 0db9 45070000 		.4byte	.LASF212
 1997 0dbd 0D       		.byte	0xd
 1998 0dbe B701     		.2byte	0x1b7
 1999 0dc0 ED0F0000 		.4byte	0xfed
 2000 0dc4 98       		.byte	0x98
 2001 0dc5 00       		.byte	0
 2002 0dc6 03       		.uleb128 0x3
 2003 0dc7 CC010000 		.4byte	.LASF213
 2004 0dcb 0E       		.byte	0xe
 2005 0dcc 65       		.byte	0x65
 2006 0dcd 5D010000 		.4byte	0x15d
 2007 0dd1 03       		.uleb128 0x3
 2008 0dd2 EB020000 		.4byte	.LASF214
 2009 0dd6 0E       		.byte	0xe
 2010 0dd7 6D       		.byte	0x6d
 2011 0dd8 80010000 		.4byte	0x180
 2012 0ddc 0E       		.uleb128 0xe
 2013 0ddd 110A0000 		.4byte	.LASF215
 2014 0de1 04       		.byte	0x4
 2015 0de2 0E       		.byte	0xe
 2016 0de3 89       		.byte	0x89
 2017 0de4 F40D0000 		.4byte	0xdf4
 2018 0de8 0F       		.uleb128 0xf
 2019 0de9 737000   		.ascii	"sp\000"
 2020 0dec 0E       		.byte	0xe
 2021 0ded 8A       		.byte	0x8a
 2022 0dee 400F0000 		.4byte	0xf40
 2023 0df2 00       		.byte	0
 2024 0df3 00       		.byte	0
 2025 0df4 19       		.uleb128 0x19
 2026 0df5 F2060000 		.4byte	.LASF216
 2027 0df9 64       		.byte	0x64
 2028 0dfa 0F       		.byte	0xf
 2029 0dfb 5901     		.2byte	0x159
 2030 0dfd 400F0000 		.4byte	0xf40
 2031 0e01 1E       		.uleb128 0x1e
 2032 0e02 73313600 		.ascii	"s16\000"
 2033 0e06 0F       		.byte	0xf
 2034 0e07 5B01     		.2byte	0x15b
 2035 0e09 C60D0000 		.4byte	0xdc6
 2036 0e0d 00       		.byte	0
 2037 0e0e 1E       		.uleb128 0x1e
 2038 0e0f 73313700 		.ascii	"s17\000"
 2039 0e13 0F       		.byte	0xf
 2040 0e14 5C01     		.2byte	0x15c
 2041 0e16 C60D0000 		.4byte	0xdc6
 2042 0e1a 04       		.byte	0x4
 2043 0e1b 1E       		.uleb128 0x1e
 2044 0e1c 73313800 		.ascii	"s18\000"
 2045 0e20 0F       		.byte	0xf
 2046 0e21 5D01     		.2byte	0x15d
 2047 0e23 C60D0000 		.4byte	0xdc6
 2048 0e27 08       		.byte	0x8
 2049 0e28 1E       		.uleb128 0x1e
 2050 0e29 73313900 		.ascii	"s19\000"
 2051 0e2d 0F       		.byte	0xf
 2052 0e2e 5E01     		.2byte	0x15e
ARM GAS  /tmp/ccGoki3r.s 			page 37


 2053 0e30 C60D0000 		.4byte	0xdc6
 2054 0e34 0C       		.byte	0xc
 2055 0e35 1E       		.uleb128 0x1e
 2056 0e36 73323000 		.ascii	"s20\000"
 2057 0e3a 0F       		.byte	0xf
 2058 0e3b 5F01     		.2byte	0x15f
 2059 0e3d C60D0000 		.4byte	0xdc6
 2060 0e41 10       		.byte	0x10
 2061 0e42 1E       		.uleb128 0x1e
 2062 0e43 73323100 		.ascii	"s21\000"
 2063 0e47 0F       		.byte	0xf
 2064 0e48 6001     		.2byte	0x160
 2065 0e4a C60D0000 		.4byte	0xdc6
 2066 0e4e 14       		.byte	0x14
 2067 0e4f 1E       		.uleb128 0x1e
 2068 0e50 73323200 		.ascii	"s22\000"
 2069 0e54 0F       		.byte	0xf
 2070 0e55 6101     		.2byte	0x161
 2071 0e57 C60D0000 		.4byte	0xdc6
 2072 0e5b 18       		.byte	0x18
 2073 0e5c 1E       		.uleb128 0x1e
 2074 0e5d 73323300 		.ascii	"s23\000"
 2075 0e61 0F       		.byte	0xf
 2076 0e62 6201     		.2byte	0x162
 2077 0e64 C60D0000 		.4byte	0xdc6
 2078 0e68 1C       		.byte	0x1c
 2079 0e69 1E       		.uleb128 0x1e
 2080 0e6a 73323400 		.ascii	"s24\000"
 2081 0e6e 0F       		.byte	0xf
 2082 0e6f 6301     		.2byte	0x163
 2083 0e71 C60D0000 		.4byte	0xdc6
 2084 0e75 20       		.byte	0x20
 2085 0e76 1E       		.uleb128 0x1e
 2086 0e77 73323500 		.ascii	"s25\000"
 2087 0e7b 0F       		.byte	0xf
 2088 0e7c 6401     		.2byte	0x164
 2089 0e7e C60D0000 		.4byte	0xdc6
 2090 0e82 24       		.byte	0x24
 2091 0e83 1E       		.uleb128 0x1e
 2092 0e84 73323600 		.ascii	"s26\000"
 2093 0e88 0F       		.byte	0xf
 2094 0e89 6501     		.2byte	0x165
 2095 0e8b C60D0000 		.4byte	0xdc6
 2096 0e8f 28       		.byte	0x28
 2097 0e90 1E       		.uleb128 0x1e
 2098 0e91 73323700 		.ascii	"s27\000"
 2099 0e95 0F       		.byte	0xf
 2100 0e96 6601     		.2byte	0x166
 2101 0e98 C60D0000 		.4byte	0xdc6
 2102 0e9c 2C       		.byte	0x2c
 2103 0e9d 1E       		.uleb128 0x1e
 2104 0e9e 73323800 		.ascii	"s28\000"
 2105 0ea2 0F       		.byte	0xf
 2106 0ea3 6701     		.2byte	0x167
 2107 0ea5 C60D0000 		.4byte	0xdc6
 2108 0ea9 30       		.byte	0x30
 2109 0eaa 1E       		.uleb128 0x1e
ARM GAS  /tmp/ccGoki3r.s 			page 38


 2110 0eab 73323900 		.ascii	"s29\000"
 2111 0eaf 0F       		.byte	0xf
 2112 0eb0 6801     		.2byte	0x168
 2113 0eb2 C60D0000 		.4byte	0xdc6
 2114 0eb6 34       		.byte	0x34
 2115 0eb7 1E       		.uleb128 0x1e
 2116 0eb8 73333000 		.ascii	"s30\000"
 2117 0ebc 0F       		.byte	0xf
 2118 0ebd 6901     		.2byte	0x169
 2119 0ebf C60D0000 		.4byte	0xdc6
 2120 0ec3 38       		.byte	0x38
 2121 0ec4 1E       		.uleb128 0x1e
 2122 0ec5 73333100 		.ascii	"s31\000"
 2123 0ec9 0F       		.byte	0xf
 2124 0eca 6A01     		.2byte	0x16a
 2125 0ecc C60D0000 		.4byte	0xdc6
 2126 0ed0 3C       		.byte	0x3c
 2127 0ed1 1E       		.uleb128 0x1e
 2128 0ed2 723400   		.ascii	"r4\000"
 2129 0ed5 0F       		.byte	0xf
 2130 0ed6 6C01     		.2byte	0x16c
 2131 0ed8 C60D0000 		.4byte	0xdc6
 2132 0edc 40       		.byte	0x40
 2133 0edd 1E       		.uleb128 0x1e
 2134 0ede 723500   		.ascii	"r5\000"
 2135 0ee1 0F       		.byte	0xf
 2136 0ee2 6D01     		.2byte	0x16d
 2137 0ee4 C60D0000 		.4byte	0xdc6
 2138 0ee8 44       		.byte	0x44
 2139 0ee9 1E       		.uleb128 0x1e
 2140 0eea 723600   		.ascii	"r6\000"
 2141 0eed 0F       		.byte	0xf
 2142 0eee 6E01     		.2byte	0x16e
 2143 0ef0 C60D0000 		.4byte	0xdc6
 2144 0ef4 48       		.byte	0x48
 2145 0ef5 1E       		.uleb128 0x1e
 2146 0ef6 723700   		.ascii	"r7\000"
 2147 0ef9 0F       		.byte	0xf
 2148 0efa 6F01     		.2byte	0x16f
 2149 0efc C60D0000 		.4byte	0xdc6
 2150 0f00 4C       		.byte	0x4c
 2151 0f01 1E       		.uleb128 0x1e
 2152 0f02 723800   		.ascii	"r8\000"
 2153 0f05 0F       		.byte	0xf
 2154 0f06 7001     		.2byte	0x170
 2155 0f08 C60D0000 		.4byte	0xdc6
 2156 0f0c 50       		.byte	0x50
 2157 0f0d 1E       		.uleb128 0x1e
 2158 0f0e 723900   		.ascii	"r9\000"
 2159 0f11 0F       		.byte	0xf
 2160 0f12 7101     		.2byte	0x171
 2161 0f14 C60D0000 		.4byte	0xdc6
 2162 0f18 54       		.byte	0x54
 2163 0f19 1E       		.uleb128 0x1e
 2164 0f1a 72313000 		.ascii	"r10\000"
 2165 0f1e 0F       		.byte	0xf
 2166 0f1f 7201     		.2byte	0x172
ARM GAS  /tmp/ccGoki3r.s 			page 39


 2167 0f21 C60D0000 		.4byte	0xdc6
 2168 0f25 58       		.byte	0x58
 2169 0f26 1E       		.uleb128 0x1e
 2170 0f27 72313100 		.ascii	"r11\000"
 2171 0f2b 0F       		.byte	0xf
 2172 0f2c 7301     		.2byte	0x173
 2173 0f2e C60D0000 		.4byte	0xdc6
 2174 0f32 5C       		.byte	0x5c
 2175 0f33 1E       		.uleb128 0x1e
 2176 0f34 6C7200   		.ascii	"lr\000"
 2177 0f37 0F       		.byte	0xf
 2178 0f38 7401     		.2byte	0x174
 2179 0f3a C60D0000 		.4byte	0xdc6
 2180 0f3e 60       		.byte	0x60
 2181 0f3f 00       		.byte	0
 2182 0f40 0D       		.uleb128 0xd
 2183 0f41 04       		.byte	0x4
 2184 0f42 F40D0000 		.4byte	0xdf4
 2185 0f46 0A       		.uleb128 0xa
 2186 0f47 04       		.byte	0x4
 2187 0f48 10       		.byte	0x10
 2188 0f49 38       		.byte	0x38
 2189 0f4a 5B0F0000 		.4byte	0xf5b
 2190 0f4e 0B       		.uleb128 0xb
 2191 0f4f 36060000 		.4byte	.LASF217
 2192 0f53 10       		.byte	0x10
 2193 0f54 3C       		.byte	0x3c
 2194 0f55 3C0A0000 		.4byte	0xa3c
 2195 0f59 00       		.byte	0
 2196 0f5a 00       		.byte	0
 2197 0f5b 03       		.uleb128 0x3
 2198 0f5c 3E090000 		.4byte	.LASF218
 2199 0f60 10       		.byte	0x10
 2200 0f61 3D       		.byte	0x3d
 2201 0f62 460F0000 		.4byte	0xf46
 2202 0f66 0A       		.uleb128 0xa
 2203 0f67 18       		.byte	0x18
 2204 0f68 10       		.byte	0x10
 2205 0f69 48       		.byte	0x48
 2206 0f6a A90F0000 		.4byte	0xfa9
 2207 0f6e 0B       		.uleb128 0xb
 2208 0f6f EB080000 		.4byte	.LASF219
 2209 0f73 10       		.byte	0x10
 2210 0f74 49       		.byte	0x49
 2211 0f75 3C0A0000 		.4byte	0xa3c
 2212 0f79 00       		.byte	0
 2213 0f7a 0B       		.uleb128 0xb
 2214 0f7b FC020000 		.4byte	.LASF220
 2215 0f7f 10       		.byte	0x10
 2216 0f80 4A       		.byte	0x4a
 2217 0f81 3C0A0000 		.4byte	0xa3c
 2218 0f85 04       		.byte	0x4
 2219 0f86 0B       		.uleb128 0xb
 2220 0f87 160B0000 		.4byte	.LASF221
 2221 0f8b 10       		.byte	0x10
 2222 0f8c 4B       		.byte	0x4b
 2223 0f8d 3C0A0000 		.4byte	0xa3c
ARM GAS  /tmp/ccGoki3r.s 			page 40


 2224 0f91 08       		.byte	0x8
 2225 0f92 0F       		.uleb128 0xf
 2226 0f93 6E00     		.ascii	"n\000"
 2227 0f95 10       		.byte	0x10
 2228 0f96 4C       		.byte	0x4c
 2229 0f97 9F0A0000 		.4byte	0xa9f
 2230 0f9b 0C       		.byte	0xc
 2231 0f9c 0B       		.uleb128 0xb
 2232 0f9d 73030000 		.4byte	.LASF222
 2233 0fa1 10       		.byte	0x10
 2234 0fa2 4D       		.byte	0x4d
 2235 0fa3 470A0000 		.4byte	0xa47
 2236 0fa7 10       		.byte	0x10
 2237 0fa8 00       		.byte	0
 2238 0fa9 03       		.uleb128 0x3
 2239 0faa 13010000 		.4byte	.LASF223
 2240 0fae 10       		.byte	0x10
 2241 0faf 4E       		.byte	0x4e
 2242 0fb0 660F0000 		.4byte	0xf66
 2243 0fb4 0A       		.uleb128 0xa
 2244 0fb5 38       		.byte	0x38
 2245 0fb6 11       		.byte	0x11
 2246 0fb7 38       		.byte	0x38
 2247 0fb8 ED0F0000 		.4byte	0xfed
 2248 0fbc 0B       		.uleb128 0xb
 2249 0fbd 83040000 		.4byte	.LASF224
 2250 0fc1 11       		.byte	0x11
 2251 0fc2 39       		.byte	0x39
 2252 0fc3 9F0A0000 		.4byte	0xa9f
 2253 0fc7 00       		.byte	0
 2254 0fc8 0B       		.uleb128 0xb
 2255 0fc9 D5020000 		.4byte	.LASF225
 2256 0fcd 11       		.byte	0x11
 2257 0fce 3A       		.byte	0x3a
 2258 0fcf 9F0A0000 		.4byte	0xa9f
 2259 0fd3 04       		.byte	0x4
 2260 0fd4 0B       		.uleb128 0xb
 2261 0fd5 7E030000 		.4byte	.LASF226
 2262 0fd9 11       		.byte	0x11
 2263 0fda 3B       		.byte	0x3b
 2264 0fdb A90F0000 		.4byte	0xfa9
 2265 0fdf 08       		.byte	0x8
 2266 0fe0 0B       		.uleb128 0xb
 2267 0fe1 64050000 		.4byte	.LASF227
 2268 0fe5 11       		.byte	0x11
 2269 0fe6 3D       		.byte	0x3d
 2270 0fe7 A90F0000 		.4byte	0xfa9
 2271 0feb 20       		.byte	0x20
 2272 0fec 00       		.byte	0
 2273 0fed 03       		.uleb128 0x3
 2274 0fee E3050000 		.4byte	.LASF228
 2275 0ff2 11       		.byte	0x11
 2276 0ff3 3F       		.byte	0x3f
 2277 0ff4 B40F0000 		.4byte	0xfb4
 2278 0ff8 06       		.uleb128 0x6
 2279 0ff9 04       		.byte	0x4
 2280 0ffa 0D       		.byte	0xd
ARM GAS  /tmp/ccGoki3r.s 			page 41


 2281 0ffb D2       		.byte	0xd2
 2282 0ffc 5B100000 		.4byte	0x105b
 2283 1000 07       		.uleb128 0x7
 2284 1001 690A0000 		.4byte	.LASF229
 2285 1005 0D       		.byte	0xd
 2286 1006 D9       		.byte	0xd9
 2287 1007 7E0A0000 		.4byte	0xa7e
 2288 100b 07       		.uleb128 0x7
 2289 100c 31010000 		.4byte	.LASF230
 2290 1010 0D       		.byte	0xd
 2291 1011 E0       		.byte	0xe0
 2292 1012 7E0A0000 		.4byte	0xa7e
 2293 1016 07       		.uleb128 0x7
 2294 1017 CE020000 		.4byte	.LASF231
 2295 101b 0D       		.byte	0xd
 2296 101c E7       		.byte	0xe7
 2297 101d 5D010000 		.4byte	0x15d
 2298 1021 07       		.uleb128 0x7
 2299 1022 5C020000 		.4byte	.LASF232
 2300 1026 0D       		.byte	0xd
 2301 1027 EE       		.byte	0xee
 2302 1028 5B100000 		.4byte	0x105b
 2303 102c 07       		.uleb128 0x7
 2304 102d EA060000 		.4byte	.LASF233
 2305 1031 0D       		.byte	0xd
 2306 1032 F3       		.byte	0xf3
 2307 1033 7E0A0000 		.4byte	0xa7e
 2308 1037 07       		.uleb128 0x7
 2309 1038 0F0B0000 		.4byte	.LASF234
 2310 103c 0D       		.byte	0xd
 2311 103d FC       		.byte	0xfc
 2312 103e 86100000 		.4byte	0x1086
 2313 1042 1C       		.uleb128 0x1c
 2314 1043 38030000 		.4byte	.LASF235
 2315 1047 0D       		.byte	0xd
 2316 1048 0501     		.2byte	0x105
 2317 104a BD100000 		.4byte	0x10bd
 2318 104e 1C       		.uleb128 0x1c
 2319 104f 1C020000 		.4byte	.LASF236
 2320 1053 0D       		.byte	0xd
 2321 1054 0D01     		.2byte	0x10d
 2322 1056 890A0000 		.4byte	0xa89
 2323 105a 00       		.byte	0
 2324 105b 0D       		.uleb128 0xd
 2325 105c 04       		.byte	0x4
 2326 105d AB0B0000 		.4byte	0xbab
 2327 1061 0E       		.uleb128 0xe
 2328 1062 D4030000 		.4byte	.LASF237
 2329 1066 0C       		.byte	0xc
 2330 1067 12       		.byte	0x12
 2331 1068 34       		.byte	0x34
 2332 1069 86100000 		.4byte	0x1086
 2333 106d 0B       		.uleb128 0xb
 2334 106e A5080000 		.4byte	.LASF170
 2335 1072 12       		.byte	0x12
 2336 1073 35       		.byte	0x35
 2337 1074 E00B0000 		.4byte	0xbe0
ARM GAS  /tmp/ccGoki3r.s 			page 42


 2338 1078 00       		.byte	0
 2339 1079 0F       		.uleb128 0xf
 2340 107a 636E7400 		.ascii	"cnt\000"
 2341 107e 12       		.byte	0x12
 2342 107f 37       		.byte	0x37
 2343 1080 940A0000 		.4byte	0xa94
 2344 1084 08       		.byte	0x8
 2345 1085 00       		.byte	0
 2346 1086 0D       		.uleb128 0xd
 2347 1087 04       		.byte	0x4
 2348 1088 61100000 		.4byte	0x1061
 2349 108c 0E       		.uleb128 0xe
 2350 108d 8C090000 		.4byte	.LASF238
 2351 1091 10       		.byte	0x10
 2352 1092 13       		.byte	0x13
 2353 1093 39       		.byte	0x39
 2354 1094 BD100000 		.4byte	0x10bd
 2355 1098 0B       		.uleb128 0xb
 2356 1099 A5080000 		.4byte	.LASF170
 2357 109d 13       		.byte	0x13
 2358 109e 3A       		.byte	0x3a
 2359 109f E00B0000 		.4byte	0xbe0
 2360 10a3 00       		.byte	0
 2361 10a4 0B       		.uleb128 0xb
 2362 10a5 33000000 		.4byte	.LASF239
 2363 10a9 13       		.byte	0x13
 2364 10aa 3C       		.byte	0x3c
 2365 10ab B60B0000 		.4byte	0xbb6
 2366 10af 08       		.byte	0x8
 2367 10b0 0B       		.uleb128 0xb
 2368 10b1 EE0A0000 		.4byte	.LASF189
 2369 10b5 13       		.byte	0x13
 2370 10b6 3E       		.byte	0x3e
 2371 10b7 DF100000 		.4byte	0x10df
 2372 10bb 0C       		.byte	0xc
 2373 10bc 00       		.byte	0
 2374 10bd 0D       		.uleb128 0xd
 2375 10be 04       		.byte	0x4
 2376 10bf 8C100000 		.4byte	0x108c
 2377 10c3 0D       		.uleb128 0xd
 2378 10c4 04       		.byte	0x4
 2379 10c5 D10D0000 		.4byte	0xdd1
 2380 10c9 0D       		.uleb128 0xd
 2381 10ca 04       		.byte	0x4
 2382 10cb 930C0000 		.4byte	0xc93
 2383 10cf 1F       		.uleb128 0x1f
 2384 10d0 6D060000 		.4byte	0x66d
 2385 10d4 03       		.uleb128 0x3
 2386 10d5 F2090000 		.4byte	.LASF240
 2387 10d9 13       		.byte	0x13
 2388 10da 34       		.byte	0x34
 2389 10db 8C100000 		.4byte	0x108c
 2390 10df 0D       		.uleb128 0xd
 2391 10e0 04       		.byte	0x4
 2392 10e1 D4100000 		.4byte	0x10d4
 2393 10e5 02       		.uleb128 0x2
 2394 10e6 01       		.byte	0x1
ARM GAS  /tmp/ccGoki3r.s 			page 43


 2395 10e7 02       		.byte	0x2
 2396 10e8 B0020000 		.4byte	.LASF241
 2397 10ec 03       		.uleb128 0x3
 2398 10ed 7B060000 		.4byte	.LASF242
 2399 10f1 14       		.byte	0x14
 2400 10f2 47       		.byte	0x47
 2401 10f3 F7100000 		.4byte	0x10f7
 2402 10f7 0D       		.uleb128 0xd
 2403 10f8 04       		.byte	0x4
 2404 10f9 FD100000 		.4byte	0x10fd
 2405 10fd 13       		.uleb128 0x13
 2406 10fe 5D010000 		.4byte	0x15d
 2407 1102 11110000 		.4byte	0x1111
 2408 1106 14       		.uleb128 0x14
 2409 1107 97000000 		.4byte	0x97
 2410 110b 14       		.uleb128 0x14
 2411 110c 90000000 		.4byte	0x90
 2412 1110 00       		.byte	0
 2413 1111 03       		.uleb128 0x3
 2414 1112 7D010000 		.4byte	.LASF243
 2415 1116 02       		.byte	0x2
 2416 1117 48       		.byte	0x48
 2417 1118 1C110000 		.4byte	0x111c
 2418 111c 0E       		.uleb128 0xe
 2419 111d 00000000 		.4byte	.LASF244
 2420 1121 20       		.byte	0x20
 2421 1122 02       		.byte	0x2
 2422 1123 61       		.byte	0x61
 2423 1124 4D110000 		.4byte	0x114d
 2424 1128 0B       		.uleb128 0xb
 2425 1129 51000000 		.4byte	.LASF245
 2426 112d 02       		.byte	0x2
 2427 112e 62       		.byte	0x62
 2428 112f EC100000 		.4byte	0x10ec
 2429 1133 00       		.byte	0
 2430 1134 0B       		.uleb128 0xb
 2431 1135 A9020000 		.4byte	.LASF246
 2432 1139 02       		.byte	0x2
 2433 113a 64       		.byte	0x64
 2434 113b 4D110000 		.4byte	0x114d
 2435 113f 08       		.byte	0x8
 2436 1140 0F       		.uleb128 0xf
 2437 1141 6D747800 		.ascii	"mtx\000"
 2438 1145 02       		.byte	0x2
 2439 1146 66       		.byte	0x66
 2440 1147 D4100000 		.4byte	0x10d4
 2441 114b 10       		.byte	0x10
 2442 114c 00       		.byte	0
 2443 114d 03       		.uleb128 0x3
 2444 114e B2040000 		.4byte	.LASF247
 2445 1152 02       		.byte	0x2
 2446 1153 4D       		.byte	0x4d
 2447 1154 58110000 		.4byte	0x1158
 2448 1158 20       		.uleb128 0x20
 2449 1159 52050000 		.4byte	.LASF268
 2450 115d 08       		.byte	0x8
 2451 115e 02       		.byte	0x2
ARM GAS  /tmp/ccGoki3r.s 			page 44


 2452 115f 52       		.byte	0x52
 2453 1160 86110000 		.4byte	0x1186
 2454 1164 07       		.uleb128 0x7
 2455 1165 33050000 		.4byte	.LASF248
 2456 1169 02       		.byte	0x2
 2457 116a 53       		.byte	0x53
 2458 116b D10D0000 		.4byte	0xdd1
 2459 116f 07       		.uleb128 0x7
 2460 1170 640A0000 		.4byte	.LASF249
 2461 1174 02       		.byte	0x2
 2462 1175 57       		.byte	0x57
 2463 1176 86110000 		.4byte	0x1186
 2464 117a 07       		.uleb128 0x7
 2465 117b 76060000 		.4byte	.LASF250
 2466 117f 02       		.byte	0x2
 2467 1180 5B       		.byte	0x5b
 2468 1181 AD110000 		.4byte	0x11ad
 2469 1185 00       		.byte	0
 2470 1186 0A       		.uleb128 0xa
 2471 1187 08       		.byte	0x8
 2472 1188 02       		.byte	0x2
 2473 1189 54       		.byte	0x54
 2474 118a A7110000 		.4byte	0x11a7
 2475 118e 0B       		.uleb128 0xb
 2476 118f EE0A0000 		.4byte	.LASF189
 2477 1193 02       		.byte	0x2
 2478 1194 55       		.byte	0x55
 2479 1195 A7110000 		.4byte	0x11a7
 2480 1199 00       		.byte	0
 2481 119a 0B       		.uleb128 0xb
 2482 119b 18030000 		.4byte	.LASF251
 2483 119f 02       		.byte	0x2
 2484 11a0 56       		.byte	0x56
 2485 11a1 97000000 		.4byte	0x97
 2486 11a5 04       		.byte	0x4
 2487 11a6 00       		.byte	0
 2488 11a7 0D       		.uleb128 0xd
 2489 11a8 04       		.byte	0x4
 2490 11a9 4D110000 		.4byte	0x114d
 2491 11ad 0A       		.uleb128 0xa
 2492 11ae 08       		.byte	0x8
 2493 11af 02       		.byte	0x2
 2494 11b0 58       		.byte	0x58
 2495 11b1 CE110000 		.4byte	0x11ce
 2496 11b5 0B       		.uleb128 0xb
 2497 11b6 DE010000 		.4byte	.LASF252
 2498 11ba 02       		.byte	0x2
 2499 11bb 59       		.byte	0x59
 2500 11bc CE110000 		.4byte	0x11ce
 2501 11c0 00       		.byte	0
 2502 11c1 0B       		.uleb128 0xb
 2503 11c2 52070000 		.4byte	.LASF253
 2504 11c6 02       		.byte	0x2
 2505 11c7 5A       		.byte	0x5a
 2506 11c8 97000000 		.4byte	0x97
 2507 11cc 04       		.byte	0x4
 2508 11cd 00       		.byte	0
ARM GAS  /tmp/ccGoki3r.s 			page 45


 2509 11ce 0D       		.uleb128 0xd
 2510 11cf 04       		.byte	0x4
 2511 11d0 11110000 		.4byte	0x1111
 2512 11d4 21       		.uleb128 0x21
 2513 11d5 24030000 		.4byte	.LASF269
 2514 11d9 02       		.byte	0x2
 2515 11da 9B       		.byte	0x9b
 2516 11db 5D010000 		.4byte	0x15d
 2517 11df 03       		.byte	0x3
 2518 11e0 FB110000 		.4byte	0x11fb
 2519 11e4 22       		.uleb128 0x22
 2520 11e5 FB080000 		.4byte	.LASF254
 2521 11e9 02       		.byte	0x2
 2522 11ea 9B       		.byte	0x9b
 2523 11eb CE110000 		.4byte	0x11ce
 2524 11ef 22       		.uleb128 0x22
 2525 11f0 52070000 		.4byte	.LASF253
 2526 11f4 02       		.byte	0x2
 2527 11f5 9B       		.byte	0x9b
 2528 11f6 97000000 		.4byte	0x97
 2529 11fa 00       		.byte	0
 2530 11fb 23       		.uleb128 0x23
 2531 11fc 39000000 		.4byte	.LASF75
 2532 1200 01       		.byte	0x1
 2533 1201 59       		.byte	0x59
 2534 1202 89000000 		.4byte	0x89
 2535 1206 00000000 		.4byte	.LFB246
 2536 120a 0A000000 		.4byte	.LFE246-.LFB246
 2537 120e 01       		.uleb128 0x1
 2538 120f 9C       		.byte	0x9c
 2539 1210 4B120000 		.4byte	0x124b
 2540 1214 24       		.uleb128 0x24
 2541 1215 7200     		.ascii	"r\000"
 2542 1217 01       		.byte	0x1
 2543 1218 59       		.byte	0x59
 2544 1219 11050000 		.4byte	0x511
 2545 121d 00000000 		.4byte	.LLST0
 2546 1221 25       		.uleb128 0x25
 2547 1222 13030000 		.4byte	.LASF255
 2548 1226 01       		.byte	0x1
 2549 1227 59       		.byte	0x59
 2550 1228 89000000 		.4byte	0x89
 2551 122c 01       		.uleb128 0x1
 2552 122d 51       		.byte	0x51
 2553 122e 26       		.uleb128 0x26
 2554 122f 70747200 		.ascii	"ptr\000"
 2555 1233 01       		.byte	0x1
 2556 1234 59       		.byte	0x59
 2557 1235 A1010000 		.4byte	0x1a1
 2558 1239 01       		.uleb128 0x1
 2559 123a 52       		.byte	0x52
 2560 123b 24       		.uleb128 0x24
 2561 123c 6C656E00 		.ascii	"len\000"
 2562 1240 01       		.byte	0x1
 2563 1241 59       		.byte	0x59
 2564 1242 89000000 		.4byte	0x89
 2565 1246 21000000 		.4byte	.LLST1
ARM GAS  /tmp/ccGoki3r.s 			page 46


 2566 124a 00       		.byte	0
 2567 124b 23       		.uleb128 0x23
 2568 124c AF0A0000 		.4byte	.LASF256
 2569 1250 01       		.byte	0x1
 2570 1251 6F       		.byte	0x6f
 2571 1252 89000000 		.4byte	0x89
 2572 1256 00000000 		.4byte	.LFB247
 2573 125a 04000000 		.4byte	.LFE247-.LFB247
 2574 125e 01       		.uleb128 0x1
 2575 125f 9C       		.byte	0x9c
 2576 1260 99120000 		.4byte	0x1299
 2577 1264 24       		.uleb128 0x24
 2578 1265 7200     		.ascii	"r\000"
 2579 1267 01       		.byte	0x1
 2580 1268 6F       		.byte	0x6f
 2581 1269 11050000 		.4byte	0x511
 2582 126d 42000000 		.4byte	.LLST2
 2583 1271 25       		.uleb128 0x25
 2584 1272 13030000 		.4byte	.LASF255
 2585 1276 01       		.byte	0x1
 2586 1277 6F       		.byte	0x6f
 2587 1278 89000000 		.4byte	0x89
 2588 127c 01       		.uleb128 0x1
 2589 127d 51       		.byte	0x51
 2590 127e 26       		.uleb128 0x26
 2591 127f 70747200 		.ascii	"ptr\000"
 2592 1283 01       		.byte	0x1
 2593 1284 6F       		.byte	0x6f
 2594 1285 89000000 		.4byte	0x89
 2595 1289 01       		.uleb128 0x1
 2596 128a 52       		.byte	0x52
 2597 128b 26       		.uleb128 0x26
 2598 128c 64697200 		.ascii	"dir\000"
 2599 1290 01       		.byte	0x1
 2600 1291 6F       		.byte	0x6f
 2601 1292 89000000 		.4byte	0x89
 2602 1296 01       		.uleb128 0x1
 2603 1297 53       		.byte	0x53
 2604 1298 00       		.byte	0
 2605 1299 23       		.uleb128 0x23
 2606 129a 5A000000 		.4byte	.LASF76
 2607 129e 01       		.byte	0x1
 2608 129f 7C       		.byte	0x7c
 2609 12a0 89000000 		.4byte	0x89
 2610 12a4 00000000 		.4byte	.LFB248
 2611 12a8 04000000 		.4byte	.LFE248-.LFB248
 2612 12ac 01       		.uleb128 0x1
 2613 12ad 9C       		.byte	0x9c
 2614 12ae E7120000 		.4byte	0x12e7
 2615 12b2 24       		.uleb128 0x24
 2616 12b3 7200     		.ascii	"r\000"
 2617 12b5 01       		.byte	0x1
 2618 12b6 7C       		.byte	0x7c
 2619 12b7 11050000 		.4byte	0x511
 2620 12bb 63000000 		.4byte	.LLST3
 2621 12bf 25       		.uleb128 0x25
 2622 12c0 13030000 		.4byte	.LASF255
ARM GAS  /tmp/ccGoki3r.s 			page 47


 2623 12c4 01       		.byte	0x1
 2624 12c5 7C       		.byte	0x7c
 2625 12c6 89000000 		.4byte	0x89
 2626 12ca 01       		.uleb128 0x1
 2627 12cb 51       		.byte	0x51
 2628 12cc 26       		.uleb128 0x26
 2629 12cd 70747200 		.ascii	"ptr\000"
 2630 12d1 01       		.byte	0x1
 2631 12d2 7C       		.byte	0x7c
 2632 12d3 A1010000 		.4byte	0x1a1
 2633 12d7 01       		.uleb128 0x1
 2634 12d8 52       		.byte	0x52
 2635 12d9 26       		.uleb128 0x26
 2636 12da 6C656E00 		.ascii	"len\000"
 2637 12de 01       		.byte	0x1
 2638 12df 7C       		.byte	0x7c
 2639 12e0 89000000 		.4byte	0x89
 2640 12e4 01       		.uleb128 0x1
 2641 12e5 53       		.byte	0x53
 2642 12e6 00       		.byte	0
 2643 12e7 23       		.uleb128 0x23
 2644 12e8 C7020000 		.4byte	.LASF78
 2645 12ec 01       		.byte	0x1
 2646 12ed 8E       		.byte	0x8e
 2647 12ee 89000000 		.4byte	0x89
 2648 12f2 00000000 		.4byte	.LFB249
 2649 12f6 04000000 		.4byte	.LFE249-.LFB249
 2650 12fa 01       		.uleb128 0x1
 2651 12fb 9C       		.byte	0x9c
 2652 12fc 1B130000 		.4byte	0x131b
 2653 1300 24       		.uleb128 0x24
 2654 1301 7200     		.ascii	"r\000"
 2655 1303 01       		.byte	0x1
 2656 1304 8E       		.byte	0x8e
 2657 1305 11050000 		.4byte	0x511
 2658 1309 84000000 		.4byte	.LLST4
 2659 130d 25       		.uleb128 0x25
 2660 130e 13030000 		.4byte	.LASF255
 2661 1312 01       		.byte	0x1
 2662 1313 8E       		.byte	0x8e
 2663 1314 89000000 		.4byte	0x89
 2664 1318 01       		.uleb128 0x1
 2665 1319 51       		.byte	0x51
 2666 131a 00       		.byte	0
 2667 131b 23       		.uleb128 0x23
 2668 131c AC040000 		.4byte	.LASF257
 2669 1320 01       		.byte	0x1
 2670 1321 99       		.byte	0x99
 2671 1322 96010000 		.4byte	0x196
 2672 1326 00000000 		.4byte	.LFB250
 2673 132a 18000000 		.4byte	.LFE250-.LFB250
 2674 132e 01       		.uleb128 0x1
 2675 132f 9C       		.byte	0x9c
 2676 1330 9D130000 		.4byte	0x139d
 2677 1334 24       		.uleb128 0x24
 2678 1335 7200     		.ascii	"r\000"
 2679 1337 01       		.byte	0x1
ARM GAS  /tmp/ccGoki3r.s 			page 48


 2680 1338 99       		.byte	0x99
 2681 1339 11050000 		.4byte	0x511
 2682 133d A5000000 		.4byte	.LLST5
 2683 1341 27       		.uleb128 0x27
 2684 1342 9A050000 		.4byte	.LASF258
 2685 1346 01       		.byte	0x1
 2686 1347 99       		.byte	0x99
 2687 1348 89000000 		.4byte	0x89
 2688 134c C3000000 		.4byte	.LLST6
 2689 1350 28       		.uleb128 0x28
 2690 1351 7000     		.ascii	"p\000"
 2691 1353 01       		.byte	0x1
 2692 1354 9C       		.byte	0x9c
 2693 1355 5D010000 		.4byte	0x15d
 2694 1359 29       		.uleb128 0x29
 2695 135a 87000000 		.4byte	.LASF270
 2696 135e AD130000 		.4byte	0x13ad
 2697 1362 2A       		.uleb128 0x2a
 2698 1363 D4110000 		.4byte	0x11d4
 2699 1367 02000000 		.4byte	.LBB4
 2700 136b 00000000 		.4byte	.Ldebug_ranges0+0
 2701 136f 01       		.byte	0x1
 2702 1370 9F       		.byte	0x9f
 2703 1371 2B       		.uleb128 0x2b
 2704 1372 E4110000 		.4byte	0x11e4
 2705 1376 00       		.byte	0
 2706 1377 2C       		.uleb128 0x2c
 2707 1378 EF110000 		.4byte	0x11ef
 2708 137c E4000000 		.4byte	.LLST7
 2709 1380 2D       		.uleb128 0x2d
 2710 1381 0C000000 		.4byte	.LVL12
 2711 1385 F6140000 		.4byte	0x14f6
 2712 1389 2E       		.uleb128 0x2e
 2713 138a 01       		.uleb128 0x1
 2714 138b 52       		.byte	0x52
 2715 138c 01       		.uleb128 0x1
 2716 138d 38       		.byte	0x38
 2717 138e 2E       		.uleb128 0x2e
 2718 138f 01       		.uleb128 0x1
 2719 1390 51       		.byte	0x51
 2720 1391 03       		.uleb128 0x3
 2721 1392 F3       		.byte	0xf3
 2722 1393 01       		.uleb128 0x1
 2723 1394 51       		.byte	0x51
 2724 1395 2E       		.uleb128 0x2e
 2725 1396 01       		.uleb128 0x1
 2726 1397 50       		.byte	0x50
 2727 1398 01       		.uleb128 0x1
 2728 1399 30       		.byte	0x30
 2729 139a 00       		.byte	0
 2730 139b 00       		.byte	0
 2731 139c 00       		.byte	0
 2732 139d 08       		.uleb128 0x8
 2733 139e A7010000 		.4byte	0x1a7
 2734 13a2 AD130000 		.4byte	0x13ad
 2735 13a6 09       		.uleb128 0x9
 2736 13a7 1F010000 		.4byte	0x11f
ARM GAS  /tmp/ccGoki3r.s 			page 49


 2737 13ab 05       		.byte	0x5
 2738 13ac 00       		.byte	0
 2739 13ad 18       		.uleb128 0x18
 2740 13ae 9D130000 		.4byte	0x139d
 2741 13b2 23       		.uleb128 0x23
 2742 13b3 20090000 		.4byte	.LASF259
 2743 13b7 01       		.byte	0x1
 2744 13b8 B0       		.byte	0xb0
 2745 13b9 89000000 		.4byte	0x89
 2746 13bd 00000000 		.4byte	.LFB251
 2747 13c1 18000000 		.4byte	.LFE251-.LFB251
 2748 13c5 01       		.uleb128 0x1
 2749 13c6 9C       		.byte	0x9c
 2750 13c7 11140000 		.4byte	0x1411
 2751 13cb 24       		.uleb128 0x24
 2752 13cc 7200     		.ascii	"r\000"
 2753 13ce 01       		.byte	0x1
 2754 13cf B0       		.byte	0xb0
 2755 13d0 11050000 		.4byte	0x511
 2756 13d4 05010000 		.4byte	.LLST8
 2757 13d8 27       		.uleb128 0x27
 2758 13d9 13030000 		.4byte	.LASF255
 2759 13dd 01       		.byte	0x1
 2760 13de B0       		.byte	0xb0
 2761 13df 89000000 		.4byte	0x89
 2762 13e3 26010000 		.4byte	.LLST9
 2763 13e7 24       		.uleb128 0x24
 2764 13e8 737400   		.ascii	"st\000"
 2765 13eb 01       		.byte	0x1
 2766 13ec B0       		.byte	0xb0
 2767 13ed 11140000 		.4byte	0x1411
 2768 13f1 47010000 		.4byte	.LLST10
 2769 13f5 2D       		.uleb128 0x2d
 2770 13f6 0E000000 		.4byte	.LVL17
 2771 13fa 15150000 		.4byte	0x1515
 2772 13fe 2E       		.uleb128 0x2e
 2773 13ff 01       		.uleb128 0x1
 2774 1400 52       		.byte	0x52
 2775 1401 02       		.uleb128 0x2
 2776 1402 08       		.byte	0x8
 2777 1403 3C       		.byte	0x3c
 2778 1404 2E       		.uleb128 0x2e
 2779 1405 01       		.uleb128 0x1
 2780 1406 51       		.byte	0x51
 2781 1407 01       		.uleb128 0x1
 2782 1408 30       		.byte	0x30
 2783 1409 2E       		.uleb128 0x2e
 2784 140a 01       		.uleb128 0x1
 2785 140b 50       		.byte	0x50
 2786 140c 02       		.uleb128 0x2
 2787 140d 74       		.byte	0x74
 2788 140e 00       		.sleb128 0
 2789 140f 00       		.byte	0
 2790 1410 00       		.byte	0
 2791 1411 0D       		.uleb128 0xd
 2792 1412 04       		.byte	0x4
 2793 1413 53090000 		.4byte	0x953
ARM GAS  /tmp/ccGoki3r.s 			page 50


 2794 1417 23       		.uleb128 0x23
 2795 1418 FB010000 		.4byte	.LASF260
 2796 141c 01       		.byte	0x1
 2797 141d BD       		.byte	0xbd
 2798 141e 89000000 		.4byte	0x89
 2799 1422 00000000 		.4byte	.LFB252
 2800 1426 04000000 		.4byte	.LFE252-.LFB252
 2801 142a 01       		.uleb128 0x1
 2802 142b 9C       		.byte	0x9c
 2803 142c 4A140000 		.4byte	0x144a
 2804 1430 24       		.uleb128 0x24
 2805 1431 7200     		.ascii	"r\000"
 2806 1433 01       		.byte	0x1
 2807 1434 BD       		.byte	0xbd
 2808 1435 11050000 		.4byte	0x511
 2809 1439 70010000 		.4byte	.LLST11
 2810 143d 26       		.uleb128 0x26
 2811 143e 666400   		.ascii	"fd\000"
 2812 1441 01       		.byte	0x1
 2813 1442 BD       		.byte	0xbd
 2814 1443 89000000 		.4byte	0x89
 2815 1447 01       		.uleb128 0x1
 2816 1448 51       		.byte	0x51
 2817 1449 00       		.byte	0
 2818 144a 2F       		.uleb128 0x2f
 2819 144b 81020000 		.4byte	.LASF271
 2820 144f 01       		.byte	0x1
 2821 1450 C6       		.byte	0xc6
 2822 1451 E5010000 		.4byte	0x1e5
 2823 1455 00000000 		.4byte	.LFB253
 2824 1459 04000000 		.4byte	.LFE253-.LFB253
 2825 145d 01       		.uleb128 0x1
 2826 145e 9C       		.byte	0x9c
 2827 145f 30       		.uleb128 0x30
 2828 1460 5E050000 		.4byte	.LASF272
 2829 1464 16       		.byte	0x16
 2830 1465 12       		.byte	0x12
 2831 1466 00000000 		.4byte	.LFB254
 2832 146a 02000000 		.4byte	.LFE254-.LFB254
 2833 146e 01       		.uleb128 0x1
 2834 146f 9C       		.byte	0x9c
 2835 1470 82140000 		.4byte	0x1482
 2836 1474 25       		.uleb128 0x25
 2837 1475 2D0A0000 		.4byte	.LASF261
 2838 1479 01       		.byte	0x1
 2839 147a CC       		.byte	0xcc
 2840 147b 89000000 		.4byte	0x89
 2841 147f 01       		.uleb128 0x1
 2842 1480 50       		.byte	0x50
 2843 1481 00       		.byte	0
 2844 1482 31       		.uleb128 0x31
 2845 1483 F5010000 		.4byte	.LASF273
 2846 1487 01       		.byte	0x1
 2847 1488 D3       		.byte	0xd3
 2848 1489 00000000 		.4byte	.LFB255
 2849 148d 02000000 		.4byte	.LFE255-.LFB255
 2850 1491 01       		.uleb128 0x1
ARM GAS  /tmp/ccGoki3r.s 			page 51


 2851 1492 9C       		.byte	0x9c
 2852 1493 23       		.uleb128 0x23
 2853 1494 FE060000 		.4byte	.LASF262
 2854 1498 01       		.byte	0x1
 2855 1499 D8       		.byte	0xd8
 2856 149a 89000000 		.4byte	0x89
 2857 149e 00000000 		.4byte	.LFB256
 2858 14a2 06000000 		.4byte	.LFE256-.LFB256
 2859 14a6 01       		.uleb128 0x1
 2860 14a7 9C       		.byte	0x9c
 2861 14a8 C9140000 		.4byte	0x14c9
 2862 14ac 24       		.uleb128 0x24
 2863 14ad 70696400 		.ascii	"pid\000"
 2864 14b1 01       		.byte	0x1
 2865 14b2 D8       		.byte	0xd8
 2866 14b3 89000000 		.4byte	0x89
 2867 14b7 91010000 		.4byte	.LLST12
 2868 14bb 26       		.uleb128 0x26
 2869 14bc 73696700 		.ascii	"sig\000"
 2870 14c0 01       		.byte	0x1
 2871 14c1 D8       		.byte	0xd8
 2872 14c2 89000000 		.4byte	0x89
 2873 14c6 01       		.uleb128 0x1
 2874 14c7 51       		.byte	0x51
 2875 14c8 00       		.byte	0
 2876 14c9 32       		.uleb128 0x32
 2877 14ca 3F050000 		.4byte	.LASF263
 2878 14ce 15       		.byte	0x15
 2879 14cf 4407     		.2byte	0x744
 2880 14d1 D5140000 		.4byte	0x14d5
 2881 14d5 1F       		.uleb128 0x1f
 2882 14d6 6A010000 		.4byte	0x16a
 2883 14da 33       		.uleb128 0x33
 2884 14db 636800   		.ascii	"ch\000"
 2885 14de 0D       		.byte	0xd
 2886 14df D201     		.2byte	0x1d2
 2887 14e1 600D0000 		.4byte	0xd60
 2888 14e5 34       		.uleb128 0x34
 2889 14e6 88060000 		.4byte	.LASF264
 2890 14ea 01       		.byte	0x1
 2891 14eb 54       		.byte	0x54
 2892 14ec 5F010000 		.4byte	0x15f
 2893 14f0 05       		.uleb128 0x5
 2894 14f1 03       		.byte	0x3
 2895 14f2 00000000 		.4byte	_before_main
 2896 14f6 35       		.uleb128 0x35
 2897 14f7 54090000 		.4byte	.LASF274
 2898 14fb 02       		.byte	0x2
 2899 14fc 80       		.byte	0x80
 2900 14fd 5D010000 		.4byte	0x15d
 2901 1501 15150000 		.4byte	0x1515
 2902 1505 14       		.uleb128 0x14
 2903 1506 CE110000 		.4byte	0x11ce
 2904 150a 14       		.uleb128 0x14
 2905 150b 97000000 		.4byte	0x97
 2906 150f 14       		.uleb128 0x14
 2907 1510 90000000 		.4byte	0x90
ARM GAS  /tmp/ccGoki3r.s 			page 52


 2908 1514 00       		.byte	0
 2909 1515 36       		.uleb128 0x36
 2910 1516 BB020000 		.4byte	.LASF275
 2911 151a 5D010000 		.4byte	0x15d
 2912 151e 14       		.uleb128 0x14
 2913 151f 5D010000 		.4byte	0x15d
 2914 1523 14       		.uleb128 0x14
 2915 1524 89000000 		.4byte	0x89
 2916 1528 14       		.uleb128 0x14
 2917 1529 1F010000 		.4byte	0x11f
 2918 152d 00       		.byte	0
 2919 152e 00       		.byte	0
 2920              		.section	.debug_abbrev,"",%progbits
 2921              	.Ldebug_abbrev0:
 2922 0000 01       		.uleb128 0x1
 2923 0001 11       		.uleb128 0x11
 2924 0002 01       		.byte	0x1
 2925 0003 25       		.uleb128 0x25
 2926 0004 0E       		.uleb128 0xe
 2927 0005 13       		.uleb128 0x13
 2928 0006 0B       		.uleb128 0xb
 2929 0007 03       		.uleb128 0x3
 2930 0008 0E       		.uleb128 0xe
 2931 0009 1B       		.uleb128 0x1b
 2932 000a 0E       		.uleb128 0xe
 2933 000b 55       		.uleb128 0x55
 2934 000c 17       		.uleb128 0x17
 2935 000d 11       		.uleb128 0x11
 2936 000e 01       		.uleb128 0x1
 2937 000f 10       		.uleb128 0x10
 2938 0010 17       		.uleb128 0x17
 2939 0011 00       		.byte	0
 2940 0012 00       		.byte	0
 2941 0013 02       		.uleb128 0x2
 2942 0014 24       		.uleb128 0x24
 2943 0015 00       		.byte	0
 2944 0016 0B       		.uleb128 0xb
 2945 0017 0B       		.uleb128 0xb
 2946 0018 3E       		.uleb128 0x3e
 2947 0019 0B       		.uleb128 0xb
 2948 001a 03       		.uleb128 0x3
 2949 001b 0E       		.uleb128 0xe
 2950 001c 00       		.byte	0
 2951 001d 00       		.byte	0
 2952 001e 03       		.uleb128 0x3
 2953 001f 16       		.uleb128 0x16
 2954 0020 00       		.byte	0
 2955 0021 03       		.uleb128 0x3
 2956 0022 0E       		.uleb128 0xe
 2957 0023 3A       		.uleb128 0x3a
 2958 0024 0B       		.uleb128 0xb
 2959 0025 3B       		.uleb128 0x3b
 2960 0026 0B       		.uleb128 0xb
 2961 0027 49       		.uleb128 0x49
 2962 0028 13       		.uleb128 0x13
 2963 0029 00       		.byte	0
 2964 002a 00       		.byte	0
ARM GAS  /tmp/ccGoki3r.s 			page 53


 2965 002b 04       		.uleb128 0x4
 2966 002c 24       		.uleb128 0x24
 2967 002d 00       		.byte	0
 2968 002e 0B       		.uleb128 0xb
 2969 002f 0B       		.uleb128 0xb
 2970 0030 3E       		.uleb128 0x3e
 2971 0031 0B       		.uleb128 0xb
 2972 0032 03       		.uleb128 0x3
 2973 0033 08       		.uleb128 0x8
 2974 0034 00       		.byte	0
 2975 0035 00       		.byte	0
 2976 0036 05       		.uleb128 0x5
 2977 0037 16       		.uleb128 0x16
 2978 0038 00       		.byte	0
 2979 0039 03       		.uleb128 0x3
 2980 003a 0E       		.uleb128 0xe
 2981 003b 3A       		.uleb128 0x3a
 2982 003c 0B       		.uleb128 0xb
 2983 003d 3B       		.uleb128 0x3b
 2984 003e 05       		.uleb128 0x5
 2985 003f 49       		.uleb128 0x49
 2986 0040 13       		.uleb128 0x13
 2987 0041 00       		.byte	0
 2988 0042 00       		.byte	0
 2989 0043 06       		.uleb128 0x6
 2990 0044 17       		.uleb128 0x17
 2991 0045 01       		.byte	0x1
 2992 0046 0B       		.uleb128 0xb
 2993 0047 0B       		.uleb128 0xb
 2994 0048 3A       		.uleb128 0x3a
 2995 0049 0B       		.uleb128 0xb
 2996 004a 3B       		.uleb128 0x3b
 2997 004b 0B       		.uleb128 0xb
 2998 004c 01       		.uleb128 0x1
 2999 004d 13       		.uleb128 0x13
 3000 004e 00       		.byte	0
 3001 004f 00       		.byte	0
 3002 0050 07       		.uleb128 0x7
 3003 0051 0D       		.uleb128 0xd
 3004 0052 00       		.byte	0
 3005 0053 03       		.uleb128 0x3
 3006 0054 0E       		.uleb128 0xe
 3007 0055 3A       		.uleb128 0x3a
 3008 0056 0B       		.uleb128 0xb
 3009 0057 3B       		.uleb128 0x3b
 3010 0058 0B       		.uleb128 0xb
 3011 0059 49       		.uleb128 0x49
 3012 005a 13       		.uleb128 0x13
 3013 005b 00       		.byte	0
 3014 005c 00       		.byte	0
 3015 005d 08       		.uleb128 0x8
 3016 005e 01       		.uleb128 0x1
 3017 005f 01       		.byte	0x1
 3018 0060 49       		.uleb128 0x49
 3019 0061 13       		.uleb128 0x13
 3020 0062 01       		.uleb128 0x1
 3021 0063 13       		.uleb128 0x13
ARM GAS  /tmp/ccGoki3r.s 			page 54


 3022 0064 00       		.byte	0
 3023 0065 00       		.byte	0
 3024 0066 09       		.uleb128 0x9
 3025 0067 21       		.uleb128 0x21
 3026 0068 00       		.byte	0
 3027 0069 49       		.uleb128 0x49
 3028 006a 13       		.uleb128 0x13
 3029 006b 2F       		.uleb128 0x2f
 3030 006c 0B       		.uleb128 0xb
 3031 006d 00       		.byte	0
 3032 006e 00       		.byte	0
 3033 006f 0A       		.uleb128 0xa
 3034 0070 13       		.uleb128 0x13
 3035 0071 01       		.byte	0x1
 3036 0072 0B       		.uleb128 0xb
 3037 0073 0B       		.uleb128 0xb
 3038 0074 3A       		.uleb128 0x3a
 3039 0075 0B       		.uleb128 0xb
 3040 0076 3B       		.uleb128 0x3b
 3041 0077 0B       		.uleb128 0xb
 3042 0078 01       		.uleb128 0x1
 3043 0079 13       		.uleb128 0x13
 3044 007a 00       		.byte	0
 3045 007b 00       		.byte	0
 3046 007c 0B       		.uleb128 0xb
 3047 007d 0D       		.uleb128 0xd
 3048 007e 00       		.byte	0
 3049 007f 03       		.uleb128 0x3
 3050 0080 0E       		.uleb128 0xe
 3051 0081 3A       		.uleb128 0x3a
 3052 0082 0B       		.uleb128 0xb
 3053 0083 3B       		.uleb128 0x3b
 3054 0084 0B       		.uleb128 0xb
 3055 0085 49       		.uleb128 0x49
 3056 0086 13       		.uleb128 0x13
 3057 0087 38       		.uleb128 0x38
 3058 0088 0B       		.uleb128 0xb
 3059 0089 00       		.byte	0
 3060 008a 00       		.byte	0
 3061 008b 0C       		.uleb128 0xc
 3062 008c 0F       		.uleb128 0xf
 3063 008d 00       		.byte	0
 3064 008e 0B       		.uleb128 0xb
 3065 008f 0B       		.uleb128 0xb
 3066 0090 00       		.byte	0
 3067 0091 00       		.byte	0
 3068 0092 0D       		.uleb128 0xd
 3069 0093 0F       		.uleb128 0xf
 3070 0094 00       		.byte	0
 3071 0095 0B       		.uleb128 0xb
 3072 0096 0B       		.uleb128 0xb
 3073 0097 49       		.uleb128 0x49
 3074 0098 13       		.uleb128 0x13
 3075 0099 00       		.byte	0
 3076 009a 00       		.byte	0
 3077 009b 0E       		.uleb128 0xe
 3078 009c 13       		.uleb128 0x13
ARM GAS  /tmp/ccGoki3r.s 			page 55


 3079 009d 01       		.byte	0x1
 3080 009e 03       		.uleb128 0x3
 3081 009f 0E       		.uleb128 0xe
 3082 00a0 0B       		.uleb128 0xb
 3083 00a1 0B       		.uleb128 0xb
 3084 00a2 3A       		.uleb128 0x3a
 3085 00a3 0B       		.uleb128 0xb
 3086 00a4 3B       		.uleb128 0x3b
 3087 00a5 0B       		.uleb128 0xb
 3088 00a6 01       		.uleb128 0x1
 3089 00a7 13       		.uleb128 0x13
 3090 00a8 00       		.byte	0
 3091 00a9 00       		.byte	0
 3092 00aa 0F       		.uleb128 0xf
 3093 00ab 0D       		.uleb128 0xd
 3094 00ac 00       		.byte	0
 3095 00ad 03       		.uleb128 0x3
 3096 00ae 08       		.uleb128 0x8
 3097 00af 3A       		.uleb128 0x3a
 3098 00b0 0B       		.uleb128 0xb
 3099 00b1 3B       		.uleb128 0x3b
 3100 00b2 0B       		.uleb128 0xb
 3101 00b3 49       		.uleb128 0x49
 3102 00b4 13       		.uleb128 0x13
 3103 00b5 38       		.uleb128 0x38
 3104 00b6 0B       		.uleb128 0xb
 3105 00b7 00       		.byte	0
 3106 00b8 00       		.byte	0
 3107 00b9 10       		.uleb128 0x10
 3108 00ba 13       		.uleb128 0x13
 3109 00bb 01       		.byte	0x1
 3110 00bc 03       		.uleb128 0x3
 3111 00bd 0E       		.uleb128 0xe
 3112 00be 0B       		.uleb128 0xb
 3113 00bf 05       		.uleb128 0x5
 3114 00c0 3A       		.uleb128 0x3a
 3115 00c1 0B       		.uleb128 0xb
 3116 00c2 3B       		.uleb128 0x3b
 3117 00c3 0B       		.uleb128 0xb
 3118 00c4 01       		.uleb128 0x1
 3119 00c5 13       		.uleb128 0x13
 3120 00c6 00       		.byte	0
 3121 00c7 00       		.byte	0
 3122 00c8 11       		.uleb128 0x11
 3123 00c9 0D       		.uleb128 0xd
 3124 00ca 00       		.byte	0
 3125 00cb 03       		.uleb128 0x3
 3126 00cc 0E       		.uleb128 0xe
 3127 00cd 3A       		.uleb128 0x3a
 3128 00ce 0B       		.uleb128 0xb
 3129 00cf 3B       		.uleb128 0x3b
 3130 00d0 0B       		.uleb128 0xb
 3131 00d1 49       		.uleb128 0x49
 3132 00d2 13       		.uleb128 0x13
 3133 00d3 38       		.uleb128 0x38
 3134 00d4 05       		.uleb128 0x5
 3135 00d5 00       		.byte	0
ARM GAS  /tmp/ccGoki3r.s 			page 56


 3136 00d6 00       		.byte	0
 3137 00d7 12       		.uleb128 0x12
 3138 00d8 15       		.uleb128 0x15
 3139 00d9 00       		.byte	0
 3140 00da 27       		.uleb128 0x27
 3141 00db 19       		.uleb128 0x19
 3142 00dc 00       		.byte	0
 3143 00dd 00       		.byte	0
 3144 00de 13       		.uleb128 0x13
 3145 00df 15       		.uleb128 0x15
 3146 00e0 01       		.byte	0x1
 3147 00e1 27       		.uleb128 0x27
 3148 00e2 19       		.uleb128 0x19
 3149 00e3 49       		.uleb128 0x49
 3150 00e4 13       		.uleb128 0x13
 3151 00e5 01       		.uleb128 0x1
 3152 00e6 13       		.uleb128 0x13
 3153 00e7 00       		.byte	0
 3154 00e8 00       		.byte	0
 3155 00e9 14       		.uleb128 0x14
 3156 00ea 05       		.uleb128 0x5
 3157 00eb 00       		.byte	0
 3158 00ec 49       		.uleb128 0x49
 3159 00ed 13       		.uleb128 0x13
 3160 00ee 00       		.byte	0
 3161 00ef 00       		.byte	0
 3162 00f0 15       		.uleb128 0x15
 3163 00f1 13       		.uleb128 0x13
 3164 00f2 01       		.byte	0x1
 3165 00f3 03       		.uleb128 0x3
 3166 00f4 0E       		.uleb128 0xe
 3167 00f5 0B       		.uleb128 0xb
 3168 00f6 05       		.uleb128 0x5
 3169 00f7 3A       		.uleb128 0x3a
 3170 00f8 0B       		.uleb128 0xb
 3171 00f9 3B       		.uleb128 0x3b
 3172 00fa 05       		.uleb128 0x5
 3173 00fb 01       		.uleb128 0x1
 3174 00fc 13       		.uleb128 0x13
 3175 00fd 00       		.byte	0
 3176 00fe 00       		.byte	0
 3177 00ff 16       		.uleb128 0x16
 3178 0100 0D       		.uleb128 0xd
 3179 0101 00       		.byte	0
 3180 0102 03       		.uleb128 0x3
 3181 0103 0E       		.uleb128 0xe
 3182 0104 3A       		.uleb128 0x3a
 3183 0105 0B       		.uleb128 0xb
 3184 0106 3B       		.uleb128 0x3b
 3185 0107 05       		.uleb128 0x5
 3186 0108 49       		.uleb128 0x49
 3187 0109 13       		.uleb128 0x13
 3188 010a 38       		.uleb128 0x38
 3189 010b 0B       		.uleb128 0xb
 3190 010c 00       		.byte	0
 3191 010d 00       		.byte	0
 3192 010e 17       		.uleb128 0x17
ARM GAS  /tmp/ccGoki3r.s 			page 57


 3193 010f 0D       		.uleb128 0xd
 3194 0110 00       		.byte	0
 3195 0111 03       		.uleb128 0x3
 3196 0112 0E       		.uleb128 0xe
 3197 0113 3A       		.uleb128 0x3a
 3198 0114 0B       		.uleb128 0xb
 3199 0115 3B       		.uleb128 0x3b
 3200 0116 05       		.uleb128 0x5
 3201 0117 49       		.uleb128 0x49
 3202 0118 13       		.uleb128 0x13
 3203 0119 38       		.uleb128 0x38
 3204 011a 05       		.uleb128 0x5
 3205 011b 00       		.byte	0
 3206 011c 00       		.byte	0
 3207 011d 18       		.uleb128 0x18
 3208 011e 26       		.uleb128 0x26
 3209 011f 00       		.byte	0
 3210 0120 49       		.uleb128 0x49
 3211 0121 13       		.uleb128 0x13
 3212 0122 00       		.byte	0
 3213 0123 00       		.byte	0
 3214 0124 19       		.uleb128 0x19
 3215 0125 13       		.uleb128 0x13
 3216 0126 01       		.byte	0x1
 3217 0127 03       		.uleb128 0x3
 3218 0128 0E       		.uleb128 0xe
 3219 0129 0B       		.uleb128 0xb
 3220 012a 0B       		.uleb128 0xb
 3221 012b 3A       		.uleb128 0x3a
 3222 012c 0B       		.uleb128 0xb
 3223 012d 3B       		.uleb128 0x3b
 3224 012e 05       		.uleb128 0x5
 3225 012f 01       		.uleb128 0x1
 3226 0130 13       		.uleb128 0x13
 3227 0131 00       		.byte	0
 3228 0132 00       		.byte	0
 3229 0133 1A       		.uleb128 0x1a
 3230 0134 13       		.uleb128 0x13
 3231 0135 01       		.byte	0x1
 3232 0136 0B       		.uleb128 0xb
 3233 0137 0B       		.uleb128 0xb
 3234 0138 3A       		.uleb128 0x3a
 3235 0139 0B       		.uleb128 0xb
 3236 013a 3B       		.uleb128 0x3b
 3237 013b 05       		.uleb128 0x5
 3238 013c 01       		.uleb128 0x1
 3239 013d 13       		.uleb128 0x13
 3240 013e 00       		.byte	0
 3241 013f 00       		.byte	0
 3242 0140 1B       		.uleb128 0x1b
 3243 0141 17       		.uleb128 0x17
 3244 0142 01       		.byte	0x1
 3245 0143 0B       		.uleb128 0xb
 3246 0144 0B       		.uleb128 0xb
 3247 0145 3A       		.uleb128 0x3a
 3248 0146 0B       		.uleb128 0xb
 3249 0147 3B       		.uleb128 0x3b
ARM GAS  /tmp/ccGoki3r.s 			page 58


 3250 0148 05       		.uleb128 0x5
 3251 0149 01       		.uleb128 0x1
 3252 014a 13       		.uleb128 0x13
 3253 014b 00       		.byte	0
 3254 014c 00       		.byte	0
 3255 014d 1C       		.uleb128 0x1c
 3256 014e 0D       		.uleb128 0xd
 3257 014f 00       		.byte	0
 3258 0150 03       		.uleb128 0x3
 3259 0151 0E       		.uleb128 0xe
 3260 0152 3A       		.uleb128 0x3a
 3261 0153 0B       		.uleb128 0xb
 3262 0154 3B       		.uleb128 0x3b
 3263 0155 05       		.uleb128 0x5
 3264 0156 49       		.uleb128 0x49
 3265 0157 13       		.uleb128 0x13
 3266 0158 00       		.byte	0
 3267 0159 00       		.byte	0
 3268 015a 1D       		.uleb128 0x1d
 3269 015b 15       		.uleb128 0x15
 3270 015c 01       		.byte	0x1
 3271 015d 27       		.uleb128 0x27
 3272 015e 19       		.uleb128 0x19
 3273 015f 01       		.uleb128 0x1
 3274 0160 13       		.uleb128 0x13
 3275 0161 00       		.byte	0
 3276 0162 00       		.byte	0
 3277 0163 1E       		.uleb128 0x1e
 3278 0164 0D       		.uleb128 0xd
 3279 0165 00       		.byte	0
 3280 0166 03       		.uleb128 0x3
 3281 0167 08       		.uleb128 0x8
 3282 0168 3A       		.uleb128 0x3a
 3283 0169 0B       		.uleb128 0xb
 3284 016a 3B       		.uleb128 0x3b
 3285 016b 05       		.uleb128 0x5
 3286 016c 49       		.uleb128 0x49
 3287 016d 13       		.uleb128 0x13
 3288 016e 38       		.uleb128 0x38
 3289 016f 0B       		.uleb128 0xb
 3290 0170 00       		.byte	0
 3291 0171 00       		.byte	0
 3292 0172 1F       		.uleb128 0x1f
 3293 0173 35       		.uleb128 0x35
 3294 0174 00       		.byte	0
 3295 0175 49       		.uleb128 0x49
 3296 0176 13       		.uleb128 0x13
 3297 0177 00       		.byte	0
 3298 0178 00       		.byte	0
 3299 0179 20       		.uleb128 0x20
 3300 017a 17       		.uleb128 0x17
 3301 017b 01       		.byte	0x1
 3302 017c 03       		.uleb128 0x3
 3303 017d 0E       		.uleb128 0xe
 3304 017e 0B       		.uleb128 0xb
 3305 017f 0B       		.uleb128 0xb
 3306 0180 3A       		.uleb128 0x3a
ARM GAS  /tmp/ccGoki3r.s 			page 59


 3307 0181 0B       		.uleb128 0xb
 3308 0182 3B       		.uleb128 0x3b
 3309 0183 0B       		.uleb128 0xb
 3310 0184 01       		.uleb128 0x1
 3311 0185 13       		.uleb128 0x13
 3312 0186 00       		.byte	0
 3313 0187 00       		.byte	0
 3314 0188 21       		.uleb128 0x21
 3315 0189 2E       		.uleb128 0x2e
 3316 018a 01       		.byte	0x1
 3317 018b 03       		.uleb128 0x3
 3318 018c 0E       		.uleb128 0xe
 3319 018d 3A       		.uleb128 0x3a
 3320 018e 0B       		.uleb128 0xb
 3321 018f 3B       		.uleb128 0x3b
 3322 0190 0B       		.uleb128 0xb
 3323 0191 27       		.uleb128 0x27
 3324 0192 19       		.uleb128 0x19
 3325 0193 49       		.uleb128 0x49
 3326 0194 13       		.uleb128 0x13
 3327 0195 20       		.uleb128 0x20
 3328 0196 0B       		.uleb128 0xb
 3329 0197 01       		.uleb128 0x1
 3330 0198 13       		.uleb128 0x13
 3331 0199 00       		.byte	0
 3332 019a 00       		.byte	0
 3333 019b 22       		.uleb128 0x22
 3334 019c 05       		.uleb128 0x5
 3335 019d 00       		.byte	0
 3336 019e 03       		.uleb128 0x3
 3337 019f 0E       		.uleb128 0xe
 3338 01a0 3A       		.uleb128 0x3a
 3339 01a1 0B       		.uleb128 0xb
 3340 01a2 3B       		.uleb128 0x3b
 3341 01a3 0B       		.uleb128 0xb
 3342 01a4 49       		.uleb128 0x49
 3343 01a5 13       		.uleb128 0x13
 3344 01a6 00       		.byte	0
 3345 01a7 00       		.byte	0
 3346 01a8 23       		.uleb128 0x23
 3347 01a9 2E       		.uleb128 0x2e
 3348 01aa 01       		.byte	0x1
 3349 01ab 3F       		.uleb128 0x3f
 3350 01ac 19       		.uleb128 0x19
 3351 01ad 03       		.uleb128 0x3
 3352 01ae 0E       		.uleb128 0xe
 3353 01af 3A       		.uleb128 0x3a
 3354 01b0 0B       		.uleb128 0xb
 3355 01b1 3B       		.uleb128 0x3b
 3356 01b2 0B       		.uleb128 0xb
 3357 01b3 27       		.uleb128 0x27
 3358 01b4 19       		.uleb128 0x19
 3359 01b5 49       		.uleb128 0x49
 3360 01b6 13       		.uleb128 0x13
 3361 01b7 11       		.uleb128 0x11
 3362 01b8 01       		.uleb128 0x1
 3363 01b9 12       		.uleb128 0x12
ARM GAS  /tmp/ccGoki3r.s 			page 60


 3364 01ba 06       		.uleb128 0x6
 3365 01bb 40       		.uleb128 0x40
 3366 01bc 18       		.uleb128 0x18
 3367 01bd 9742     		.uleb128 0x2117
 3368 01bf 19       		.uleb128 0x19
 3369 01c0 01       		.uleb128 0x1
 3370 01c1 13       		.uleb128 0x13
 3371 01c2 00       		.byte	0
 3372 01c3 00       		.byte	0
 3373 01c4 24       		.uleb128 0x24
 3374 01c5 05       		.uleb128 0x5
 3375 01c6 00       		.byte	0
 3376 01c7 03       		.uleb128 0x3
 3377 01c8 08       		.uleb128 0x8
 3378 01c9 3A       		.uleb128 0x3a
 3379 01ca 0B       		.uleb128 0xb
 3380 01cb 3B       		.uleb128 0x3b
 3381 01cc 0B       		.uleb128 0xb
 3382 01cd 49       		.uleb128 0x49
 3383 01ce 13       		.uleb128 0x13
 3384 01cf 02       		.uleb128 0x2
 3385 01d0 17       		.uleb128 0x17
 3386 01d1 00       		.byte	0
 3387 01d2 00       		.byte	0
 3388 01d3 25       		.uleb128 0x25
 3389 01d4 05       		.uleb128 0x5
 3390 01d5 00       		.byte	0
 3391 01d6 03       		.uleb128 0x3
 3392 01d7 0E       		.uleb128 0xe
 3393 01d8 3A       		.uleb128 0x3a
 3394 01d9 0B       		.uleb128 0xb
 3395 01da 3B       		.uleb128 0x3b
 3396 01db 0B       		.uleb128 0xb
 3397 01dc 49       		.uleb128 0x49
 3398 01dd 13       		.uleb128 0x13
 3399 01de 02       		.uleb128 0x2
 3400 01df 18       		.uleb128 0x18
 3401 01e0 00       		.byte	0
 3402 01e1 00       		.byte	0
 3403 01e2 26       		.uleb128 0x26
 3404 01e3 05       		.uleb128 0x5
 3405 01e4 00       		.byte	0
 3406 01e5 03       		.uleb128 0x3
 3407 01e6 08       		.uleb128 0x8
 3408 01e7 3A       		.uleb128 0x3a
 3409 01e8 0B       		.uleb128 0xb
 3410 01e9 3B       		.uleb128 0x3b
 3411 01ea 0B       		.uleb128 0xb
 3412 01eb 49       		.uleb128 0x49
 3413 01ec 13       		.uleb128 0x13
 3414 01ed 02       		.uleb128 0x2
 3415 01ee 18       		.uleb128 0x18
 3416 01ef 00       		.byte	0
 3417 01f0 00       		.byte	0
 3418 01f1 27       		.uleb128 0x27
 3419 01f2 05       		.uleb128 0x5
 3420 01f3 00       		.byte	0
ARM GAS  /tmp/ccGoki3r.s 			page 61


 3421 01f4 03       		.uleb128 0x3
 3422 01f5 0E       		.uleb128 0xe
 3423 01f6 3A       		.uleb128 0x3a
 3424 01f7 0B       		.uleb128 0xb
 3425 01f8 3B       		.uleb128 0x3b
 3426 01f9 0B       		.uleb128 0xb
 3427 01fa 49       		.uleb128 0x49
 3428 01fb 13       		.uleb128 0x13
 3429 01fc 02       		.uleb128 0x2
 3430 01fd 17       		.uleb128 0x17
 3431 01fe 00       		.byte	0
 3432 01ff 00       		.byte	0
 3433 0200 28       		.uleb128 0x28
 3434 0201 34       		.uleb128 0x34
 3435 0202 00       		.byte	0
 3436 0203 03       		.uleb128 0x3
 3437 0204 08       		.uleb128 0x8
 3438 0205 3A       		.uleb128 0x3a
 3439 0206 0B       		.uleb128 0xb
 3440 0207 3B       		.uleb128 0x3b
 3441 0208 0B       		.uleb128 0xb
 3442 0209 49       		.uleb128 0x49
 3443 020a 13       		.uleb128 0x13
 3444 020b 00       		.byte	0
 3445 020c 00       		.byte	0
 3446 020d 29       		.uleb128 0x29
 3447 020e 34       		.uleb128 0x34
 3448 020f 00       		.byte	0
 3449 0210 03       		.uleb128 0x3
 3450 0211 0E       		.uleb128 0xe
 3451 0212 49       		.uleb128 0x49
 3452 0213 13       		.uleb128 0x13
 3453 0214 34       		.uleb128 0x34
 3454 0215 19       		.uleb128 0x19
 3455 0216 00       		.byte	0
 3456 0217 00       		.byte	0
 3457 0218 2A       		.uleb128 0x2a
 3458 0219 1D       		.uleb128 0x1d
 3459 021a 01       		.byte	0x1
 3460 021b 31       		.uleb128 0x31
 3461 021c 13       		.uleb128 0x13
 3462 021d 52       		.uleb128 0x52
 3463 021e 01       		.uleb128 0x1
 3464 021f 55       		.uleb128 0x55
 3465 0220 17       		.uleb128 0x17
 3466 0221 58       		.uleb128 0x58
 3467 0222 0B       		.uleb128 0xb
 3468 0223 59       		.uleb128 0x59
 3469 0224 0B       		.uleb128 0xb
 3470 0225 00       		.byte	0
 3471 0226 00       		.byte	0
 3472 0227 2B       		.uleb128 0x2b
 3473 0228 05       		.uleb128 0x5
 3474 0229 00       		.byte	0
 3475 022a 31       		.uleb128 0x31
 3476 022b 13       		.uleb128 0x13
 3477 022c 1C       		.uleb128 0x1c
ARM GAS  /tmp/ccGoki3r.s 			page 62


 3478 022d 0B       		.uleb128 0xb
 3479 022e 00       		.byte	0
 3480 022f 00       		.byte	0
 3481 0230 2C       		.uleb128 0x2c
 3482 0231 05       		.uleb128 0x5
 3483 0232 00       		.byte	0
 3484 0233 31       		.uleb128 0x31
 3485 0234 13       		.uleb128 0x13
 3486 0235 02       		.uleb128 0x2
 3487 0236 17       		.uleb128 0x17
 3488 0237 00       		.byte	0
 3489 0238 00       		.byte	0
 3490 0239 2D       		.uleb128 0x2d
 3491 023a 898201   		.uleb128 0x4109
 3492 023d 01       		.byte	0x1
 3493 023e 11       		.uleb128 0x11
 3494 023f 01       		.uleb128 0x1
 3495 0240 31       		.uleb128 0x31
 3496 0241 13       		.uleb128 0x13
 3497 0242 00       		.byte	0
 3498 0243 00       		.byte	0
 3499 0244 2E       		.uleb128 0x2e
 3500 0245 8A8201   		.uleb128 0x410a
 3501 0248 00       		.byte	0
 3502 0249 02       		.uleb128 0x2
 3503 024a 18       		.uleb128 0x18
 3504 024b 9142     		.uleb128 0x2111
 3505 024d 18       		.uleb128 0x18
 3506 024e 00       		.byte	0
 3507 024f 00       		.byte	0
 3508 0250 2F       		.uleb128 0x2f
 3509 0251 2E       		.uleb128 0x2e
 3510 0252 00       		.byte	0
 3511 0253 3F       		.uleb128 0x3f
 3512 0254 19       		.uleb128 0x19
 3513 0255 03       		.uleb128 0x3
 3514 0256 0E       		.uleb128 0xe
 3515 0257 3A       		.uleb128 0x3a
 3516 0258 0B       		.uleb128 0xb
 3517 0259 3B       		.uleb128 0x3b
 3518 025a 0B       		.uleb128 0xb
 3519 025b 27       		.uleb128 0x27
 3520 025c 19       		.uleb128 0x19
 3521 025d 49       		.uleb128 0x49
 3522 025e 13       		.uleb128 0x13
 3523 025f 11       		.uleb128 0x11
 3524 0260 01       		.uleb128 0x1
 3525 0261 12       		.uleb128 0x12
 3526 0262 06       		.uleb128 0x6
 3527 0263 40       		.uleb128 0x40
 3528 0264 18       		.uleb128 0x18
 3529 0265 9742     		.uleb128 0x2117
 3530 0267 19       		.uleb128 0x19
 3531 0268 00       		.byte	0
 3532 0269 00       		.byte	0
 3533 026a 30       		.uleb128 0x30
 3534 026b 2E       		.uleb128 0x2e
ARM GAS  /tmp/ccGoki3r.s 			page 63


 3535 026c 01       		.byte	0x1
 3536 026d 3F       		.uleb128 0x3f
 3537 026e 19       		.uleb128 0x19
 3538 026f 03       		.uleb128 0x3
 3539 0270 0E       		.uleb128 0xe
 3540 0271 3A       		.uleb128 0x3a
 3541 0272 0B       		.uleb128 0xb
 3542 0273 3B       		.uleb128 0x3b
 3543 0274 0B       		.uleb128 0xb
 3544 0275 27       		.uleb128 0x27
 3545 0276 19       		.uleb128 0x19
 3546 0277 11       		.uleb128 0x11
 3547 0278 01       		.uleb128 0x1
 3548 0279 12       		.uleb128 0x12
 3549 027a 06       		.uleb128 0x6
 3550 027b 40       		.uleb128 0x40
 3551 027c 18       		.uleb128 0x18
 3552 027d 9742     		.uleb128 0x2117
 3553 027f 19       		.uleb128 0x19
 3554 0280 01       		.uleb128 0x1
 3555 0281 13       		.uleb128 0x13
 3556 0282 00       		.byte	0
 3557 0283 00       		.byte	0
 3558 0284 31       		.uleb128 0x31
 3559 0285 2E       		.uleb128 0x2e
 3560 0286 00       		.byte	0
 3561 0287 3F       		.uleb128 0x3f
 3562 0288 19       		.uleb128 0x19
 3563 0289 03       		.uleb128 0x3
 3564 028a 0E       		.uleb128 0xe
 3565 028b 3A       		.uleb128 0x3a
 3566 028c 0B       		.uleb128 0xb
 3567 028d 3B       		.uleb128 0x3b
 3568 028e 0B       		.uleb128 0xb
 3569 028f 27       		.uleb128 0x27
 3570 0290 19       		.uleb128 0x19
 3571 0291 11       		.uleb128 0x11
 3572 0292 01       		.uleb128 0x1
 3573 0293 12       		.uleb128 0x12
 3574 0294 06       		.uleb128 0x6
 3575 0295 40       		.uleb128 0x40
 3576 0296 18       		.uleb128 0x18
 3577 0297 9742     		.uleb128 0x2117
 3578 0299 19       		.uleb128 0x19
 3579 029a 00       		.byte	0
 3580 029b 00       		.byte	0
 3581 029c 32       		.uleb128 0x32
 3582 029d 34       		.uleb128 0x34
 3583 029e 00       		.byte	0
 3584 029f 03       		.uleb128 0x3
 3585 02a0 0E       		.uleb128 0xe
 3586 02a1 3A       		.uleb128 0x3a
 3587 02a2 0B       		.uleb128 0xb
 3588 02a3 3B       		.uleb128 0x3b
 3589 02a4 05       		.uleb128 0x5
 3590 02a5 49       		.uleb128 0x49
 3591 02a6 13       		.uleb128 0x13
ARM GAS  /tmp/ccGoki3r.s 			page 64


 3592 02a7 3F       		.uleb128 0x3f
 3593 02a8 19       		.uleb128 0x19
 3594 02a9 3C       		.uleb128 0x3c
 3595 02aa 19       		.uleb128 0x19
 3596 02ab 00       		.byte	0
 3597 02ac 00       		.byte	0
 3598 02ad 33       		.uleb128 0x33
 3599 02ae 34       		.uleb128 0x34
 3600 02af 00       		.byte	0
 3601 02b0 03       		.uleb128 0x3
 3602 02b1 08       		.uleb128 0x8
 3603 02b2 3A       		.uleb128 0x3a
 3604 02b3 0B       		.uleb128 0xb
 3605 02b4 3B       		.uleb128 0x3b
 3606 02b5 05       		.uleb128 0x5
 3607 02b6 49       		.uleb128 0x49
 3608 02b7 13       		.uleb128 0x13
 3609 02b8 3F       		.uleb128 0x3f
 3610 02b9 19       		.uleb128 0x19
 3611 02ba 3C       		.uleb128 0x3c
 3612 02bb 19       		.uleb128 0x19
 3613 02bc 00       		.byte	0
 3614 02bd 00       		.byte	0
 3615 02be 34       		.uleb128 0x34
 3616 02bf 34       		.uleb128 0x34
 3617 02c0 00       		.byte	0
 3618 02c1 03       		.uleb128 0x3
 3619 02c2 0E       		.uleb128 0xe
 3620 02c3 3A       		.uleb128 0x3a
 3621 02c4 0B       		.uleb128 0xb
 3622 02c5 3B       		.uleb128 0x3b
 3623 02c6 0B       		.uleb128 0xb
 3624 02c7 49       		.uleb128 0x49
 3625 02c8 13       		.uleb128 0x13
 3626 02c9 3F       		.uleb128 0x3f
 3627 02ca 19       		.uleb128 0x19
 3628 02cb 02       		.uleb128 0x2
 3629 02cc 18       		.uleb128 0x18
 3630 02cd 00       		.byte	0
 3631 02ce 00       		.byte	0
 3632 02cf 35       		.uleb128 0x35
 3633 02d0 2E       		.uleb128 0x2e
 3634 02d1 01       		.byte	0x1
 3635 02d2 3F       		.uleb128 0x3f
 3636 02d3 19       		.uleb128 0x19
 3637 02d4 03       		.uleb128 0x3
 3638 02d5 0E       		.uleb128 0xe
 3639 02d6 3A       		.uleb128 0x3a
 3640 02d7 0B       		.uleb128 0xb
 3641 02d8 3B       		.uleb128 0x3b
 3642 02d9 0B       		.uleb128 0xb
 3643 02da 27       		.uleb128 0x27
 3644 02db 19       		.uleb128 0x19
 3645 02dc 49       		.uleb128 0x49
 3646 02dd 13       		.uleb128 0x13
 3647 02de 3C       		.uleb128 0x3c
 3648 02df 19       		.uleb128 0x19
ARM GAS  /tmp/ccGoki3r.s 			page 65


 3649 02e0 01       		.uleb128 0x1
 3650 02e1 13       		.uleb128 0x13
 3651 02e2 00       		.byte	0
 3652 02e3 00       		.byte	0
 3653 02e4 36       		.uleb128 0x36
 3654 02e5 2E       		.uleb128 0x2e
 3655 02e6 01       		.byte	0x1
 3656 02e7 3F       		.uleb128 0x3f
 3657 02e8 19       		.uleb128 0x19
 3658 02e9 03       		.uleb128 0x3
 3659 02ea 0E       		.uleb128 0xe
 3660 02eb 27       		.uleb128 0x27
 3661 02ec 19       		.uleb128 0x19
 3662 02ed 49       		.uleb128 0x49
 3663 02ee 13       		.uleb128 0x13
 3664 02ef 34       		.uleb128 0x34
 3665 02f0 19       		.uleb128 0x19
 3666 02f1 3C       		.uleb128 0x3c
 3667 02f2 19       		.uleb128 0x19
 3668 02f3 00       		.byte	0
 3669 02f4 00       		.byte	0
 3670 02f5 00       		.byte	0
 3671              		.section	.debug_loc,"",%progbits
 3672              	.Ldebug_loc0:
 3673              	.LLST0:
 3674 0000 00000000 		.4byte	.LVL0
 3675 0004 08000000 		.4byte	.LVL2
 3676 0008 0100     		.2byte	0x1
 3677 000a 50       		.byte	0x50
 3678 000b 08000000 		.4byte	.LVL2
 3679 000f 0A000000 		.4byte	.LFE246
 3680 0013 0400     		.2byte	0x4
 3681 0015 F3       		.byte	0xf3
 3682 0016 01       		.uleb128 0x1
 3683 0017 50       		.byte	0x50
 3684 0018 9F       		.byte	0x9f
 3685 0019 00000000 		.4byte	0
 3686 001d 00000000 		.4byte	0
 3687              	.LLST1:
 3688 0021 00000000 		.4byte	.LVL0
 3689 0025 02000000 		.4byte	.LVL1
 3690 0029 0100     		.2byte	0x1
 3691 002b 53       		.byte	0x53
 3692 002c 02000000 		.4byte	.LVL1
 3693 0030 0A000000 		.4byte	.LFE246
 3694 0034 0400     		.2byte	0x4
 3695 0036 F3       		.byte	0xf3
 3696 0037 01       		.uleb128 0x1
 3697 0038 53       		.byte	0x53
 3698 0039 9F       		.byte	0x9f
 3699 003a 00000000 		.4byte	0
 3700 003e 00000000 		.4byte	0
 3701              	.LLST2:
 3702 0042 00000000 		.4byte	.LVL3
 3703 0046 02000000 		.4byte	.LVL4
 3704 004a 0100     		.2byte	0x1
 3705 004c 50       		.byte	0x50
ARM GAS  /tmp/ccGoki3r.s 			page 66


 3706 004d 02000000 		.4byte	.LVL4
 3707 0051 04000000 		.4byte	.LFE247
 3708 0055 0400     		.2byte	0x4
 3709 0057 F3       		.byte	0xf3
 3710 0058 01       		.uleb128 0x1
 3711 0059 50       		.byte	0x50
 3712 005a 9F       		.byte	0x9f
 3713 005b 00000000 		.4byte	0
 3714 005f 00000000 		.4byte	0
 3715              	.LLST3:
 3716 0063 00000000 		.4byte	.LVL5
 3717 0067 02000000 		.4byte	.LVL6
 3718 006b 0100     		.2byte	0x1
 3719 006d 50       		.byte	0x50
 3720 006e 02000000 		.4byte	.LVL6
 3721 0072 04000000 		.4byte	.LFE248
 3722 0076 0400     		.2byte	0x4
 3723 0078 F3       		.byte	0xf3
 3724 0079 01       		.uleb128 0x1
 3725 007a 50       		.byte	0x50
 3726 007b 9F       		.byte	0x9f
 3727 007c 00000000 		.4byte	0
 3728 0080 00000000 		.4byte	0
 3729              	.LLST4:
 3730 0084 00000000 		.4byte	.LVL7
 3731 0088 02000000 		.4byte	.LVL8
 3732 008c 0100     		.2byte	0x1
 3733 008e 50       		.byte	0x50
 3734 008f 02000000 		.4byte	.LVL8
 3735 0093 04000000 		.4byte	.LFE249
 3736 0097 0400     		.2byte	0x4
 3737 0099 F3       		.byte	0xf3
 3738 009a 01       		.uleb128 0x1
 3739 009b 50       		.byte	0x50
 3740 009c 9F       		.byte	0x9f
 3741 009d 00000000 		.4byte	0
 3742 00a1 00000000 		.4byte	0
 3743              	.LLST5:
 3744 00a5 00000000 		.4byte	.LVL9
 3745 00a9 08000000 		.4byte	.LVL11
 3746 00ad 0100     		.2byte	0x1
 3747 00af 50       		.byte	0x50
 3748 00b0 08000000 		.4byte	.LVL11
 3749 00b4 18000000 		.4byte	.LFE250
 3750 00b8 0100     		.2byte	0x1
 3751 00ba 54       		.byte	0x54
 3752 00bb 00000000 		.4byte	0
 3753 00bf 00000000 		.4byte	0
 3754              	.LLST6:
 3755 00c3 00000000 		.4byte	.LVL9
 3756 00c7 0B000000 		.4byte	.LVL12-1
 3757 00cb 0100     		.2byte	0x1
 3758 00cd 51       		.byte	0x51
 3759 00ce 0B000000 		.4byte	.LVL12-1
 3760 00d2 18000000 		.4byte	.LFE250
 3761 00d6 0400     		.2byte	0x4
 3762 00d8 F3       		.byte	0xf3
ARM GAS  /tmp/ccGoki3r.s 			page 67


 3763 00d9 01       		.uleb128 0x1
 3764 00da 51       		.byte	0x51
 3765 00db 9F       		.byte	0x9f
 3766 00dc 00000000 		.4byte	0
 3767 00e0 00000000 		.4byte	0
 3768              	.LLST7:
 3769 00e4 06000000 		.4byte	.LVL10
 3770 00e8 0B000000 		.4byte	.LVL12-1
 3771 00ec 0100     		.2byte	0x1
 3772 00ee 51       		.byte	0x51
 3773 00ef 0B000000 		.4byte	.LVL12-1
 3774 00f3 18000000 		.4byte	.LFE250
 3775 00f7 0400     		.2byte	0x4
 3776 00f9 F3       		.byte	0xf3
 3777 00fa 01       		.uleb128 0x1
 3778 00fb 51       		.byte	0x51
 3779 00fc 9F       		.byte	0x9f
 3780 00fd 00000000 		.4byte	0
 3781 0101 00000000 		.4byte	0
 3782              	.LLST8:
 3783 0105 00000000 		.4byte	.LVL13
 3784 0109 04000000 		.4byte	.LVL14
 3785 010d 0100     		.2byte	0x1
 3786 010f 50       		.byte	0x50
 3787 0110 04000000 		.4byte	.LVL14
 3788 0114 18000000 		.4byte	.LFE251
 3789 0118 0400     		.2byte	0x4
 3790 011a F3       		.byte	0xf3
 3791 011b 01       		.uleb128 0x1
 3792 011c 50       		.byte	0x50
 3793 011d 9F       		.byte	0x9f
 3794 011e 00000000 		.4byte	0
 3795 0122 00000000 		.4byte	0
 3796              	.LLST9:
 3797 0126 00000000 		.4byte	.LVL13
 3798 012a 08000000 		.4byte	.LVL15
 3799 012e 0100     		.2byte	0x1
 3800 0130 51       		.byte	0x51
 3801 0131 08000000 		.4byte	.LVL15
 3802 0135 18000000 		.4byte	.LFE251
 3803 0139 0400     		.2byte	0x4
 3804 013b F3       		.byte	0xf3
 3805 013c 01       		.uleb128 0x1
 3806 013d 51       		.byte	0x51
 3807 013e 9F       		.byte	0x9f
 3808 013f 00000000 		.4byte	0
 3809 0143 00000000 		.4byte	0
 3810              	.LLST10:
 3811 0147 00000000 		.4byte	.LVL13
 3812 014b 0A000000 		.4byte	.LVL16
 3813 014f 0100     		.2byte	0x1
 3814 0151 52       		.byte	0x52
 3815 0152 0A000000 		.4byte	.LVL16
 3816 0156 0D000000 		.4byte	.LVL17-1
 3817 015a 0100     		.2byte	0x1
 3818 015c 50       		.byte	0x50
 3819 015d 0D000000 		.4byte	.LVL17-1
ARM GAS  /tmp/ccGoki3r.s 			page 68


 3820 0161 18000000 		.4byte	.LFE251
 3821 0165 0100     		.2byte	0x1
 3822 0167 54       		.byte	0x54
 3823 0168 00000000 		.4byte	0
 3824 016c 00000000 		.4byte	0
 3825              	.LLST11:
 3826 0170 00000000 		.4byte	.LVL18
 3827 0174 02000000 		.4byte	.LVL19
 3828 0178 0100     		.2byte	0x1
 3829 017a 50       		.byte	0x50
 3830 017b 02000000 		.4byte	.LVL19
 3831 017f 04000000 		.4byte	.LFE252
 3832 0183 0400     		.2byte	0x4
 3833 0185 F3       		.byte	0xf3
 3834 0186 01       		.uleb128 0x1
 3835 0187 50       		.byte	0x50
 3836 0188 9F       		.byte	0x9f
 3837 0189 00000000 		.4byte	0
 3838 018d 00000000 		.4byte	0
 3839              	.LLST12:
 3840 0191 00000000 		.4byte	.LVL21
 3841 0195 04000000 		.4byte	.LVL22
 3842 0199 0100     		.2byte	0x1
 3843 019b 50       		.byte	0x50
 3844 019c 04000000 		.4byte	.LVL22
 3845 01a0 06000000 		.4byte	.LFE256
 3846 01a4 0400     		.2byte	0x4
 3847 01a6 F3       		.byte	0xf3
 3848 01a7 01       		.uleb128 0x1
 3849 01a8 50       		.byte	0x50
 3850 01a9 9F       		.byte	0x9f
 3851 01aa 00000000 		.4byte	0
 3852 01ae 00000000 		.4byte	0
 3853              		.section	.debug_aranges,"",%progbits
 3854 0000 6C000000 		.4byte	0x6c
 3855 0004 0200     		.2byte	0x2
 3856 0006 00000000 		.4byte	.Ldebug_info0
 3857 000a 04       		.byte	0x4
 3858 000b 00       		.byte	0
 3859 000c 0000     		.2byte	0
 3860 000e 0000     		.2byte	0
 3861 0010 00000000 		.4byte	.LFB246
 3862 0014 0A000000 		.4byte	.LFE246-.LFB246
 3863 0018 00000000 		.4byte	.LFB247
 3864 001c 04000000 		.4byte	.LFE247-.LFB247
 3865 0020 00000000 		.4byte	.LFB248
 3866 0024 04000000 		.4byte	.LFE248-.LFB248
 3867 0028 00000000 		.4byte	.LFB249
 3868 002c 04000000 		.4byte	.LFE249-.LFB249
 3869 0030 00000000 		.4byte	.LFB250
 3870 0034 18000000 		.4byte	.LFE250-.LFB250
 3871 0038 00000000 		.4byte	.LFB251
 3872 003c 18000000 		.4byte	.LFE251-.LFB251
 3873 0040 00000000 		.4byte	.LFB252
 3874 0044 04000000 		.4byte	.LFE252-.LFB252
 3875 0048 00000000 		.4byte	.LFB253
 3876 004c 04000000 		.4byte	.LFE253-.LFB253
ARM GAS  /tmp/ccGoki3r.s 			page 69


 3877 0050 00000000 		.4byte	.LFB254
 3878 0054 02000000 		.4byte	.LFE254-.LFB254
 3879 0058 00000000 		.4byte	.LFB255
 3880 005c 02000000 		.4byte	.LFE255-.LFB255
 3881 0060 00000000 		.4byte	.LFB256
 3882 0064 06000000 		.4byte	.LFE256-.LFB256
 3883 0068 00000000 		.4byte	0
 3884 006c 00000000 		.4byte	0
 3885              		.section	.debug_ranges,"",%progbits
 3886              	.Ldebug_ranges0:
 3887 0000 02000000 		.4byte	.LBB4
 3888 0004 04000000 		.4byte	.LBE4
 3889 0008 06000000 		.4byte	.LBB7
 3890 000c 0C000000 		.4byte	.LBE7
 3891 0010 00000000 		.4byte	0
 3892 0014 00000000 		.4byte	0
 3893 0018 00000000 		.4byte	.LFB246
 3894 001c 0A000000 		.4byte	.LFE246
 3895 0020 00000000 		.4byte	.LFB247
 3896 0024 04000000 		.4byte	.LFE247
 3897 0028 00000000 		.4byte	.LFB248
 3898 002c 04000000 		.4byte	.LFE248
 3899 0030 00000000 		.4byte	.LFB249
 3900 0034 04000000 		.4byte	.LFE249
 3901 0038 00000000 		.4byte	.LFB250
 3902 003c 18000000 		.4byte	.LFE250
 3903 0040 00000000 		.4byte	.LFB251
 3904 0044 18000000 		.4byte	.LFE251
 3905 0048 00000000 		.4byte	.LFB252
 3906 004c 04000000 		.4byte	.LFE252
 3907 0050 00000000 		.4byte	.LFB253
 3908 0054 04000000 		.4byte	.LFE253
 3909 0058 00000000 		.4byte	.LFB254
 3910 005c 02000000 		.4byte	.LFE254
 3911 0060 00000000 		.4byte	.LFB255
 3912 0064 02000000 		.4byte	.LFE255
 3913 0068 00000000 		.4byte	.LFB256
 3914 006c 06000000 		.4byte	.LFE256
 3915 0070 00000000 		.4byte	0
 3916 0074 00000000 		.4byte	0
 3917              		.section	.debug_line,"",%progbits
 3918              	.Ldebug_line0:
 3919 0000 78030000 		.section	.debug_str,"MS",%progbits,1
 3919      02009D02 
 3919      00000201 
 3919      FB0E0D00 
 3919      01010101 
 3920              	.LASF244:
 3921 0000 6D656D6F 		.ascii	"memory_heap\000"
 3921      72795F68 
 3921      65617000 
 3922              	.LASF13:
 3923 000c 73697A65 		.ascii	"size_t\000"
 3923      5F7400
 3924              	.LASF23:
 3925 0013 73697A65 		.ascii	"sizetype\000"
 3925      74797065 
ARM GAS  /tmp/ccGoki3r.s 			page 70


 3925      00
 3926              	.LASF25:
 3927 001c 5F5F7661 		.ascii	"__value\000"
 3927      6C756500 
 3928              	.LASF167:
 3929 0024 73797374 		.ascii	"systime_t\000"
 3929      696D655F 
 3929      7400
 3930              	.LASF108:
 3931 002e 5F5F7366 		.ascii	"__sf\000"
 3931      00
 3932              	.LASF239:
 3933 0033 6F776E65 		.ascii	"owner\000"
 3933      7200
 3934              	.LASF75:
 3935 0039 5F726561 		.ascii	"_read\000"
 3935      6400
 3936              	.LASF162:
 3937 003f 74707269 		.ascii	"tprio_t\000"
 3937      6F5F7400 
 3938              	.LASF155:
 3939 0047 73745F62 		.ascii	"st_blocks\000"
 3939      6C6F636B 
 3939      7300
 3940              	.LASF245:
 3941 0051 70726F76 		.ascii	"provider\000"
 3941      69646572 
 3941      00
 3942              	.LASF76:
 3943 005a 5F777269 		.ascii	"_write\000"
 3943      746500
 3944              	.LASF29:
 3945 0061 696E7433 		.ascii	"int32_t\000"
 3945      325F7400 
 3946              	.LASF119:
 3947 0069 5F617363 		.ascii	"_asctime_buf\000"
 3947      74696D65 
 3947      5F627566 
 3947      00
 3948              	.LASF102:
 3949 0076 5F637674 		.ascii	"_cvtlen\000"
 3949      6C656E00 
 3950              	.LASF196:
 3951 007e 76746675 		.ascii	"vtfunc_t\000"
 3951      6E635F74 
 3951      00
 3952              	.LASF270:
 3953 0087 5F5F6675 		.ascii	"__func__\000"
 3953      6E635F5F 
 3953      00
 3954              	.LASF202:
 3955 0090 63685F76 		.ascii	"ch_virtual_timers_list\000"
 3955      69727475 
 3955      616C5F74 
 3955      696D6572 
 3955      735F6C69 
 3956              	.LASF37:
ARM GAS  /tmp/ccGoki3r.s 			page 71


 3957 00a7 6465765F 		.ascii	"dev_t\000"
 3957      7400
 3958              	.LASF42:
 3959 00ad 6E6C696E 		.ascii	"nlink_t\000"
 3959      6B5F7400 
 3960              	.LASF18:
 3961 00b5 5F5F6769 		.ascii	"__gid_t\000"
 3961      645F7400 
 3962              	.LASF138:
 3963 00bd 5F756E75 		.ascii	"_unused\000"
 3963      73656400 
 3964              	.LASF49:
 3965 00c5 5F5F746D 		.ascii	"__tm\000"
 3965      00
 3966              	.LASF134:
 3967 00ca 5F776373 		.ascii	"_wcsrtombs_state\000"
 3967      72746F6D 
 3967      62735F73 
 3967      74617465 
 3967      00
 3968              	.LASF80:
 3969 00db 5F6E6275 		.ascii	"_nbuf\000"
 3969      6600
 3970              	.LASF50:
 3971 00e1 5F5F746D 		.ascii	"__tm_sec\000"
 3971      5F736563 
 3971      00
 3972              	.LASF127:
 3973 00ea 5F6C3634 		.ascii	"_l64a_buf\000"
 3973      615F6275 
 3973      6600
 3974              	.LASF32:
 3975 00f4 74696D65 		.ascii	"time_t\000"
 3975      5F7400
 3976              	.LASF176:
 3977 00fb 73746174 		.ascii	"state\000"
 3977      6500
 3978              	.LASF84:
 3979 0101 5F6C6F63 		.ascii	"_lock\000"
 3979      6B00
 3980              	.LASF185:
 3981 0107 73746174 		.ascii	"stats\000"
 3981      7300
 3982              	.LASF115:
 3983 010d 5F6D756C 		.ascii	"_mult\000"
 3983      7400
 3984              	.LASF223:
 3985 0113 74696D65 		.ascii	"time_measurement_t\000"
 3985      5F6D6561 
 3985      73757265 
 3985      6D656E74 
 3985      5F7400
 3986              	.LASF171:
 3987 0126 7072696F 		.ascii	"prio\000"
 3987      00
 3988              	.LASF21:
 3989 012b 5F5F7763 		.ascii	"__wch\000"
ARM GAS  /tmp/ccGoki3r.s 			page 72


 3989      6800
 3990              	.LASF230:
 3991 0131 65786974 		.ascii	"exitcode\000"
 3991      636F6465 
 3991      00
 3992              	.LASF4:
 3993 013a 5F5F7569 		.ascii	"__uint8_t\000"
 3993      6E74385F 
 3993      7400
 3994              	.LASF16:
 3995 0144 5F5F6465 		.ascii	"__dev_t\000"
 3995      765F7400 
 3996              	.LASF38:
 3997 014c 7569645F 		.ascii	"uid_t\000"
 3997      7400
 3998              	.LASF72:
 3999 0152 5F66696C 		.ascii	"_file\000"
 3999      6500
 4000              	.LASF59:
 4001 0158 5F6F6E5F 		.ascii	"_on_exit_args\000"
 4001      65786974 
 4001      5F617267 
 4001      7300
 4002              	.LASF130:
 4003 0166 5F6D6272 		.ascii	"_mbrlen_state\000"
 4003      6C656E5F 
 4003      73746174 
 4003      6500
 4004              	.LASF6:
 4005 0174 6C6F6E67 		.ascii	"long int\000"
 4005      20696E74 
 4005      00
 4006              	.LASF243:
 4007 017d 6D656D6F 		.ascii	"memory_heap_t\000"
 4007      72795F68 
 4007      6561705F 
 4007      7400
 4008              	.LASF99:
 4009 018b 5F726573 		.ascii	"_result_k\000"
 4009      756C745F 
 4009      6B00
 4010              	.LASF69:
 4011 0195 5F73697A 		.ascii	"_size\000"
 4011      6500
 4012              	.LASF120:
 4013 019b 5F6C6F63 		.ascii	"_localtime_buf\000"
 4013      616C7469 
 4013      6D655F62 
 4013      756600
 4014              	.LASF160:
 4015 01aa 74737461 		.ascii	"tstate_t\000"
 4015      74655F74 
 4015      00
 4016              	.LASF158:
 4017 01b3 72747469 		.ascii	"rttime_t\000"
 4017      6D655F74 
 4017      00
ARM GAS  /tmp/ccGoki3r.s 			page 73


 4018              	.LASF190:
 4019 01bc 74687265 		.ascii	"threads_queue_t\000"
 4019      6164735F 
 4019      71756575 
 4019      655F7400 
 4020              	.LASF213:
 4021 01cc 72656761 		.ascii	"regarm_t\000"
 4021      726D5F74 
 4021      00
 4022              	.LASF54:
 4023 01d5 5F5F746D 		.ascii	"__tm_mon\000"
 4023      5F6D6F6E 
 4023      00
 4024              	.LASF252:
 4025 01de 68656170 		.ascii	"heap\000"
 4025      00
 4026              	.LASF94:
 4027 01e3 5F637572 		.ascii	"_current_category\000"
 4027      72656E74 
 4027      5F636174 
 4027      65676F72 
 4027      7900
 4028              	.LASF273:
 4029 01f5 5F66696E 		.ascii	"_fini\000"
 4029      6900
 4030              	.LASF260:
 4031 01fb 5F697361 		.ascii	"_isatty\000"
 4031      74747900 
 4032              	.LASF117:
 4033 0203 5F756E75 		.ascii	"_unused_rand\000"
 4033      7365645F 
 4033      72616E64 
 4033      00
 4034              	.LASF0:
 4035 0210 7369676E 		.ascii	"signed char\000"
 4035      65642063 
 4035      68617200 
 4036              	.LASF236:
 4037 021c 65776D61 		.ascii	"ewmask\000"
 4037      736B00
 4038              	.LASF28:
 4039 0223 75696E74 		.ascii	"uint8_t\000"
 4039      385F7400 
 4040              	.LASF149:
 4041 022b 73745F73 		.ascii	"st_spare1\000"
 4041      70617265 
 4041      3100
 4042              	.LASF144:
 4043 0235 73745F75 		.ascii	"st_uid\000"
 4043      696400
 4044              	.LASF153:
 4045 023c 73745F73 		.ascii	"st_spare3\000"
 4045      70617265 
 4045      3300
 4046              	.LASF156:
 4047 0246 73745F73 		.ascii	"st_spare4\000"
 4047      70617265 
ARM GAS  /tmp/ccGoki3r.s 			page 74


 4047      3400
 4048              	.LASF164:
 4049 0250 6576656E 		.ascii	"eventmask_t\000"
 4049      746D6173 
 4049      6B5F7400 
 4050              	.LASF232:
 4051 025c 77747472 		.ascii	"wttrp\000"
 4051      7000
 4052              	.LASF1:
 4053 0262 756E7369 		.ascii	"unsigned char\000"
 4053      676E6564 
 4053      20636861 
 4053      7200
 4054              	.LASF203:
 4055 0270 6C617374 		.ascii	"lasttime\000"
 4055      74696D65 
 4055      00
 4056              	.LASF146:
 4057 0279 73745F72 		.ascii	"st_rdev\000"
 4057      64657600 
 4058              	.LASF271:
 4059 0281 5F676574 		.ascii	"_getpid\000"
 4059      70696400 
 4060              	.LASF206:
 4061 0289 70616E69 		.ascii	"panic_msg\000"
 4061      635F6D73 
 4061      6700
 4062              	.LASF87:
 4063 0293 5F726565 		.ascii	"_reent\000"
 4063      6E7400
 4064              	.LASF204:
 4065 029a 73797374 		.ascii	"system_debug_t\000"
 4065      656D5F64 
 4065      65627567 
 4065      5F7400
 4066              	.LASF246:
 4067 02a9 68656164 		.ascii	"header\000"
 4067      657200
 4068              	.LASF241:
 4069 02b0 5F426F6F 		.ascii	"_Bool\000"
 4069      6C00
 4070              	.LASF34:
 4071 02b6 63686172 		.ascii	"char\000"
 4071      00
 4072              	.LASF275:
 4073 02bb 6D656D73 		.ascii	"memset\000"
 4073      657400
 4074              	.LASF66:
 4075 02c2 5F666E73 		.ascii	"_fns\000"
 4075      00
 4076              	.LASF78:
 4077 02c7 5F636C6F 		.ascii	"_close\000"
 4077      736500
 4078              	.LASF231:
 4079 02ce 77746F62 		.ascii	"wtobjp\000"
 4079      6A7000
 4080              	.LASF225:
ARM GAS  /tmp/ccGoki3r.s 			page 75


 4081 02d5 6E5F6374 		.ascii	"n_ctxswc\000"
 4081      78737763 
 4081      00
 4082              	.LASF89:
 4083 02de 5F737464 		.ascii	"_stdin\000"
 4083      696E00
 4084              	.LASF177:
 4085 02e5 666C6167 		.ascii	"flags\000"
 4085      7300
 4086              	.LASF214:
 4087 02eb 73746B61 		.ascii	"stkalign_t\000"
 4087      6C69676E 
 4087      5F7400
 4088              	.LASF184:
 4089 02f6 6D706F6F 		.ascii	"mpool\000"
 4089      6C00
 4090              	.LASF220:
 4091 02fc 776F7273 		.ascii	"worst\000"
 4091      7400
 4092              	.LASF161:
 4093 0302 74726566 		.ascii	"trefs_t\000"
 4093      735F7400 
 4094              	.LASF152:
 4095 030a 73745F63 		.ascii	"st_ctime\000"
 4095      74696D65 
 4095      00
 4096              	.LASF255:
 4097 0313 66696C65 		.ascii	"file\000"
 4097      00
 4098              	.LASF251:
 4099 0318 70616765 		.ascii	"pages\000"
 4099      7300
 4100              	.LASF165:
 4101 031e 636E745F 		.ascii	"cnt_t\000"
 4101      7400
 4102              	.LASF269:
 4103 0324 63684865 		.ascii	"chHeapAlloc\000"
 4103      6170416C 
 4103      6C6F6300 
 4104              	.LASF74:
 4105 0330 5F636F6F 		.ascii	"_cookie\000"
 4105      6B696500 
 4106              	.LASF235:
 4107 0338 77746D74 		.ascii	"wtmtxp\000"
 4107      787000
 4108              	.LASF47:
 4109 033f 5F776473 		.ascii	"_wds\000"
 4109      00
 4110              	.LASF194:
 4111 0344 63685F72 		.ascii	"ch_ready_list\000"
 4111      65616479 
 4111      5F6C6973 
 4111      7400
 4112              	.LASF106:
 4113 0352 5F736967 		.ascii	"_sig_func\000"
 4113      5F66756E 
 4113      6300
ARM GAS  /tmp/ccGoki3r.s 			page 76


 4114              	.LASF82:
 4115 035c 5F6F6666 		.ascii	"_offset\000"
 4115      73657400 
 4116              	.LASF103:
 4117 0364 5F637674 		.ascii	"_cvtbuf\000"
 4117      62756600 
 4118              	.LASF145:
 4119 036c 73745F67 		.ascii	"st_gid\000"
 4119      696400
 4120              	.LASF222:
 4121 0373 63756D75 		.ascii	"cumulative\000"
 4121      6C617469 
 4121      766500
 4122              	.LASF226:
 4123 037e 6D5F6372 		.ascii	"m_crit_thd\000"
 4123      69745F74 
 4123      686400
 4124              	.LASF10:
 4125 0389 5F5F7569 		.ascii	"__uint64_t\000"
 4125      6E743634 
 4125      5F7400
 4126              	.LASF35:
 4127 0394 696E6F5F 		.ascii	"ino_t\000"
 4127      7400
 4128              	.LASF100:
 4129 039a 5F703573 		.ascii	"_p5s\000"
 4129      00
 4130              	.LASF8:
 4131 039f 6C6F6E67 		.ascii	"long unsigned int\000"
 4131      20756E73 
 4131      69676E65 
 4131      6420696E 
 4131      7400
 4132              	.LASF70:
 4133 03b1 5F5F7346 		.ascii	"__sFILE\000"
 4133      494C4500 
 4134              	.LASF96:
 4135 03b9 5F5F7364 		.ascii	"__sdidinit\000"
 4135      6964696E 
 4135      697400
 4136              	.LASF86:
 4137 03c4 5F666C61 		.ascii	"_flags2\000"
 4137      67733200 
 4138              	.LASF147:
 4139 03cc 73745F73 		.ascii	"st_size\000"
 4139      697A6500 
 4140              	.LASF237:
 4141 03d4 63685F73 		.ascii	"ch_semaphore\000"
 4141      656D6170 
 4141      686F7265 
 4141      00
 4142              	.LASF169:
 4143 03e1 63685F74 		.ascii	"ch_thread\000"
 4143      68726561 
 4143      6400
 4144              	.LASF201:
 4145 03eb 76697274 		.ascii	"virtual_timers_list_t\000"
ARM GAS  /tmp/ccGoki3r.s 			page 77


 4145      75616C5F 
 4145      74696D65 
 4145      72735F6C 
 4145      6973745F 
 4146              	.LASF14:
 4147 0401 5F4C4F43 		.ascii	"_LOCK_RECURSIVE_T\000"
 4147      4B5F5245 
 4147      43555253 
 4147      4956455F 
 4147      5400
 4148              	.LASF88:
 4149 0413 5F657272 		.ascii	"_errno\000"
 4149      6E6F00
 4150              	.LASF197:
 4151 041a 76697274 		.ascii	"virtual_timer_t\000"
 4151      75616C5F 
 4151      74696D65 
 4151      725F7400 
 4152              	.LASF193:
 4153 042a 72656164 		.ascii	"ready_list_t\000"
 4153      795F6C69 
 4153      73745F74 
 4153      00
 4154              	.LASF173:
 4155 0437 6F6C6465 		.ascii	"older\000"
 4155      7200
 4156              	.LASF151:
 4157 043d 73745F73 		.ascii	"st_spare2\000"
 4157      70617265 
 4157      3200
 4158              	.LASF128:
 4159 0447 5F736967 		.ascii	"_signal_buf\000"
 4159      6E616C5F 
 4159      62756600 
 4160              	.LASF183:
 4161 0453 7265616C 		.ascii	"realprio\000"
 4161      7072696F 
 4161      00
 4162              	.LASF166:
 4163 045c 75636E74 		.ascii	"ucnt_t\000"
 4163      5F7400
 4164              	.LASF48:
 4165 0463 5F426967 		.ascii	"_Bigint\000"
 4165      696E7400 
 4166              	.LASF188:
 4167 046b 63685F74 		.ascii	"ch_threads_list\000"
 4167      68726561 
 4167      64735F6C 
 4167      69737400 
 4168              	.LASF45:
 4169 047b 5F6D6178 		.ascii	"_maxwds\000"
 4169      77647300 
 4170              	.LASF224:
 4171 0483 6E5F6972 		.ascii	"n_irq\000"
 4171      7100
 4172              	.LASF97:
 4173 0489 5F5F636C 		.ascii	"__cleanup\000"
ARM GAS  /tmp/ccGoki3r.s 			page 78


 4173      65616E75 
 4173      7000
 4174              	.LASF105:
 4175 0493 5F617465 		.ascii	"_atexit0\000"
 4175      78697430 
 4175      00
 4176              	.LASF139:
 4177 049c 73746174 		.ascii	"stat\000"
 4177      00
 4178              	.LASF154:
 4179 04a1 73745F62 		.ascii	"st_blksize\000"
 4179      6C6B7369 
 4179      7A6500
 4180              	.LASF257:
 4181 04ac 5F736272 		.ascii	"_sbrk\000"
 4181      6B00
 4182              	.LASF247:
 4183 04b2 68656170 		.ascii	"heap_header_t\000"
 4183      5F686561 
 4183      6465725F 
 4183      7400
 4184              	.LASF7:
 4185 04c0 5F5F7569 		.ascii	"__uint32_t\000"
 4185      6E743332 
 4185      5F7400
 4186              	.LASF93:
 4187 04cb 5F656D65 		.ascii	"_emergency\000"
 4187      7267656E 
 4187      637900
 4188              	.LASF182:
 4189 04d6 6D74786C 		.ascii	"mtxlist\000"
 4189      69737400 
 4190              	.LASF9:
 4191 04de 6C6F6E67 		.ascii	"long long int\000"
 4191      206C6F6E 
 4191      6720696E 
 4191      7400
 4192              	.LASF111:
 4193 04ec 5F6E696F 		.ascii	"_niobs\000"
 4193      627300
 4194              	.LASF107:
 4195 04f3 5F5F7367 		.ascii	"__sglue\000"
 4195      6C756500 
 4196              	.LASF137:
 4197 04fb 5F6E6D61 		.ascii	"_nmalloc\000"
 4197      6C6C6F63 
 4197      00
 4198              	.LASF121:
 4199 0504 5F67616D 		.ascii	"_gamma_signgam\000"
 4199      6D615F73 
 4199      69676E67 
 4199      616D00
 4200              	.LASF95:
 4201 0513 5F637572 		.ascii	"_current_locale\000"
 4201      72656E74 
 4201      5F6C6F63 
 4201      616C6500 
ARM GAS  /tmp/ccGoki3r.s 			page 79


 4202              	.LASF101:
 4203 0523 5F667265 		.ascii	"_freelist\000"
 4203      656C6973 
 4203      7400
 4204              	.LASF112:
 4205 052d 5F696F62 		.ascii	"_iobs\000"
 4205      7300
 4206              	.LASF248:
 4207 0533 616C6967 		.ascii	"align\000"
 4207      6E00
 4208              	.LASF110:
 4209 0539 5F676C75 		.ascii	"_glue\000"
 4209      6500
 4210              	.LASF263:
 4211 053f 49544D5F 		.ascii	"ITM_RxBuffer\000"
 4211      52784275 
 4211      66666572 
 4211      00
 4212              	.LASF46:
 4213 054c 5F736967 		.ascii	"_sign\000"
 4213      6E00
 4214              	.LASF268:
 4215 0552 68656170 		.ascii	"heap_header\000"
 4215      5F686561 
 4215      64657200 
 4216              	.LASF272:
 4217 055e 5F657869 		.ascii	"_exit\000"
 4217      7400
 4218              	.LASF227:
 4219 0564 6D5F6372 		.ascii	"m_crit_isr\000"
 4219      69745F69 
 4219      737200
 4220              	.LASF12:
 4221 056f 756E7369 		.ascii	"unsigned int\000"
 4221      676E6564 
 4221      20696E74 
 4221      00
 4222              	.LASF33:
 4223 057c 63616464 		.ascii	"caddr_t\000"
 4223      725F7400 
 4224              	.LASF157:
 4225 0584 7274636E 		.ascii	"rtcnt_t\000"
 4225      745F7400 
 4226              	.LASF178:
 4227 058c 72656673 		.ascii	"refs\000"
 4227      00
 4228              	.LASF135:
 4229 0591 5F685F65 		.ascii	"_h_errno\000"
 4229      72726E6F 
 4229      00
 4230              	.LASF258:
 4231 059a 696E6372 		.ascii	"incr\000"
 4231      00
 4232              	.LASF266:
 4233 059f 2E2E2F2E 		.ascii	"../../libraries/AP_HAL_ChibiOS/hwdef/common/stubs.c"
 4233      2E2F6C69 
 4233      62726172 
ARM GAS  /tmp/ccGoki3r.s 			page 80


 4233      6965732F 
 4233      41505F48 
 4234 05d2 00       		.ascii	"\000"
 4235              	.LASF40:
 4236 05d3 7069645F 		.ascii	"pid_t\000"
 4236      7400
 4237              	.LASF53:
 4238 05d9 5F5F746D 		.ascii	"__tm_mday\000"
 4238      5F6D6461 
 4238      7900
 4239              	.LASF228:
 4240 05e3 6B65726E 		.ascii	"kernel_stats_t\000"
 4240      656C5F73 
 4240      74617473 
 4240      5F7400
 4241              	.LASF104:
 4242 05f2 5F6E6577 		.ascii	"_new\000"
 4242      00
 4243              	.LASF79:
 4244 05f7 5F756275 		.ascii	"_ubuf\000"
 4244      6600
 4245              	.LASF91:
 4246 05fd 5F737464 		.ascii	"_stderr\000"
 4246      65727200 
 4247              	.LASF126:
 4248 0605 5F776374 		.ascii	"_wctomb_state\000"
 4248      6F6D625F 
 4248      73746174 
 4248      6500
 4249              	.LASF85:
 4250 0613 5F6D6273 		.ascii	"_mbstate\000"
 4250      74617465 
 4250      00
 4251              	.LASF195:
 4252 061c 63757272 		.ascii	"current\000"
 4252      656E7400 
 4253              	.LASF122:
 4254 0624 5F72616E 		.ascii	"_rand_next\000"
 4254      645F6E65 
 4254      787400
 4255              	.LASF71:
 4256 062f 5F666C61 		.ascii	"_flags\000"
 4256      677300
 4257              	.LASF217:
 4258 0636 6F666673 		.ascii	"offset\000"
 4258      657400
 4259              	.LASF186:
 4260 063d 74687265 		.ascii	"thread_reference_t\000"
 4260      61645F72 
 4260      65666572 
 4260      656E6365 
 4260      5F7400
 4261              	.LASF64:
 4262 0650 5F617465 		.ascii	"_atexit\000"
 4262      78697400 
 4263              	.LASF24:
 4264 0658 5F5F636F 		.ascii	"__count\000"
ARM GAS  /tmp/ccGoki3r.s 			page 81


 4264      756E7400 
 4265              	.LASF143:
 4266 0660 73745F6E 		.ascii	"st_nlink\000"
 4266      6C696E6B 
 4266      00
 4267              	.LASF36:
 4268 0669 6F66665F 		.ascii	"off_t\000"
 4268      7400
 4269              	.LASF41:
 4270 066f 6D6F6465 		.ascii	"mode_t\000"
 4270      5F7400
 4271              	.LASF250:
 4272 0676 75736564 		.ascii	"used\000"
 4272      00
 4273              	.LASF242:
 4274 067b 6D656D67 		.ascii	"memgetfunc_t\000"
 4274      65746675 
 4274      6E635F74 
 4274      00
 4275              	.LASF264:
 4276 0688 5F626566 		.ascii	"_before_main\000"
 4276      6F72655F 
 4276      6D61696E 
 4276      00
 4277              	.LASF56:
 4278 0695 5F5F746D 		.ascii	"__tm_wday\000"
 4278      5F776461 
 4278      7900
 4279              	.LASF267:
 4280 069f 2F686F6D 		.ascii	"/home/kozinalexey/f4by/ardupilot/build/f4by-ch\000"
 4280      652F6B6F 
 4280      7A696E61 
 4280      6C657865 
 4280      792F6634 
 4281              	.LASF168:
 4282 06ce 74687265 		.ascii	"thread_t\000"
 4282      61645F74 
 4282      00
 4283              	.LASF148:
 4284 06d7 73745F61 		.ascii	"st_atime\000"
 4284      74696D65 
 4284      00
 4285              	.LASF57:
 4286 06e0 5F5F746D 		.ascii	"__tm_yday\000"
 4286      5F796461 
 4286      7900
 4287              	.LASF233:
 4288 06ea 73656E74 		.ascii	"sentmsg\000"
 4288      6D736700 
 4289              	.LASF216:
 4290 06f2 706F7274 		.ascii	"port_intctx\000"
 4290      5F696E74 
 4290      63747800 
 4291              	.LASF262:
 4292 06fe 5F6B696C 		.ascii	"_kill\000"
 4292      6C00
 4293              	.LASF114:
ARM GAS  /tmp/ccGoki3r.s 			page 82


 4294 0704 5F736565 		.ascii	"_seed\000"
 4294      6400
 4295              	.LASF77:
 4296 070a 5F736565 		.ascii	"_seek\000"
 4296      6B00
 4297              	.LASF140:
 4298 0710 73745F64 		.ascii	"st_dev\000"
 4298      657600
 4299              	.LASF19:
 4300 0717 5F66706F 		.ascii	"_fpos_t\000"
 4300      735F7400 
 4301              	.LASF22:
 4302 071f 5F5F7763 		.ascii	"__wchb\000"
 4302      686200
 4303              	.LASF198:
 4304 0726 63685F76 		.ascii	"ch_virtual_timer\000"
 4304      69727475 
 4304      616C5F74 
 4304      696D6572 
 4304      00
 4305              	.LASF125:
 4306 0737 5F6D6274 		.ascii	"_mbtowc_state\000"
 4306      6F77635F 
 4306      73746174 
 4306      6500
 4307              	.LASF212:
 4308 0745 6B65726E 		.ascii	"kernel_stats\000"
 4308      656C5F73 
 4308      74617473 
 4308      00
 4309              	.LASF253:
 4310 0752 73697A65 		.ascii	"size\000"
 4310      00
 4311              	.LASF11:
 4312 0757 6C6F6E67 		.ascii	"long long unsigned int\000"
 4312      206C6F6E 
 4312      6720756E 
 4312      7369676E 
 4312      65642069 
 4313              	.LASF265:
 4314 076e 474E5520 		.ascii	"GNU C 4.9.3 20150529 (prerelease) -mcpu=cortex-m4 -"
 4314      4320342E 
 4314      392E3320 
 4314      32303135 
 4314      30353239 
 4315 07a1 6D666C6F 		.ascii	"mfloat-abi=hard -mfpu=fpv4-sp-d16 -mno-thumb-interw"
 4315      61742D61 
 4315      62693D68 
 4315      61726420 
 4315      2D6D6670 
 4316 07d4 6F726B20 		.ascii	"ork -mthumb -g -Os -fomit-frame-pointer -falign-fun"
 4316      2D6D7468 
 4316      756D6220 
 4316      2D67202D 
 4316      4F73202D 
 4317 0807 6374696F 		.ascii	"ctions=16 -ffunction-sections -fdata-sections -fno-"
 4317      6E733D31 
ARM GAS  /tmp/ccGoki3r.s 			page 83


 4317      36202D66 
 4317      66756E63 
 4317      74696F6E 
 4318 083a 636F6D6D 		.ascii	"common -fsingle-precision-constant\000"
 4318      6F6E202D 
 4318      6673696E 
 4318      676C652D 
 4318      70726563 
 4319              	.LASF61:
 4320 085d 5F64736F 		.ascii	"_dso_handle\000"
 4320      5F68616E 
 4320      646C6500 
 4321              	.LASF163:
 4322 0869 6D73675F 		.ascii	"msg_t\000"
 4322      7400
 4323              	.LASF191:
 4324 086f 63685F74 		.ascii	"ch_threads_queue\000"
 4324      68726561 
 4324      64735F71 
 4324      75657565 
 4324      00
 4325              	.LASF113:
 4326 0880 5F72616E 		.ascii	"_rand48\000"
 4326      64343800 
 4327              	.LASF90:
 4328 0888 5F737464 		.ascii	"_stdout\000"
 4328      6F757400 
 4329              	.LASF199:
 4330 0890 64656C74 		.ascii	"delta\000"
 4330      6100
 4331              	.LASF81:
 4332 0896 5F626C6B 		.ascii	"_blksize\000"
 4332      73697A65 
 4332      00
 4333              	.LASF68:
 4334 089f 5F626173 		.ascii	"_base\000"
 4334      6500
 4335              	.LASF170:
 4336 08a5 71756575 		.ascii	"queue\000"
 4336      6500
 4337              	.LASF181:
 4338 08ab 6570656E 		.ascii	"epending\000"
 4338      64696E67 
 4338      00
 4339              	.LASF118:
 4340 08b4 5F737472 		.ascii	"_strtok_last\000"
 4340      746F6B5F 
 4340      6C617374 
 4340      00
 4341              	.LASF131:
 4342 08c1 5F6D6272 		.ascii	"_mbrtowc_state\000"
 4342      746F7763 
 4342      5F737461 
 4342      746500
 4343              	.LASF211:
 4344 08d0 6D61696E 		.ascii	"mainthread\000"
 4344      74687265 
ARM GAS  /tmp/ccGoki3r.s 			page 84


 4344      616400
 4345              	.LASF27:
 4346 08db 5F666C6F 		.ascii	"_flock_t\000"
 4346      636B5F74 
 4346      00
 4347              	.LASF109:
 4348 08e4 5F5F4649 		.ascii	"__FILE\000"
 4348      4C4500
 4349              	.LASF219:
 4350 08eb 62657374 		.ascii	"best\000"
 4350      00
 4351              	.LASF26:
 4352 08f0 5F6D6273 		.ascii	"_mbstate_t\000"
 4352      74617465 
 4352      5F7400
 4353              	.LASF254:
 4354 08fb 68656170 		.ascii	"heapp\000"
 4354      7000
 4355              	.LASF123:
 4356 0901 5F723438 		.ascii	"_r48\000"
 4356      00
 4357              	.LASF175:
 4358 0906 77616261 		.ascii	"wabase\000"
 4358      736500
 4359              	.LASF20:
 4360 090d 77696E74 		.ascii	"wint_t\000"
 4360      5F7400
 4361              	.LASF44:
 4362 0914 5F6E6578 		.ascii	"_next\000"
 4362      7400
 4363              	.LASF83:
 4364 091a 5F646174 		.ascii	"_data\000"
 4364      6100
 4365              	.LASF259:
 4366 0920 5F667374 		.ascii	"_fstat\000"
 4366      617400
 4367              	.LASF209:
 4368 0927 726C6973 		.ascii	"rlist\000"
 4368      7400
 4369              	.LASF159:
 4370 092d 746D6F64 		.ascii	"tmode_t\000"
 4370      655F7400 
 4371              	.LASF150:
 4372 0935 73745F6D 		.ascii	"st_mtime\000"
 4372      74696D65 
 4372      00
 4373              	.LASF218:
 4374 093e 746D5F63 		.ascii	"tm_calibration_t\000"
 4374      616C6962 
 4374      72617469 
 4374      6F6E5F74 
 4374      00
 4375              	.LASF174:
 4376 094f 6E616D65 		.ascii	"name\000"
 4376      00
 4377              	.LASF274:
 4378 0954 63684865 		.ascii	"chHeapAllocAligned\000"
ARM GAS  /tmp/ccGoki3r.s 			page 85


 4378      6170416C 
 4378      6C6F6341 
 4378      6C69676E 
 4378      656400
 4379              	.LASF124:
 4380 0967 5F6D626C 		.ascii	"_mblen_state\000"
 4380      656E5F73 
 4380      74617465 
 4380      00
 4381              	.LASF2:
 4382 0974 73686F72 		.ascii	"short int\000"
 4382      7420696E 
 4382      7400
 4383              	.LASF31:
 4384 097e 75696E74 		.ascii	"uint64_t\000"
 4384      36345F74 
 4384      00
 4385              	.LASF200:
 4386 0987 66756E63 		.ascii	"func\000"
 4386      00
 4387              	.LASF238:
 4388 098c 63685F6D 		.ascii	"ch_mutex\000"
 4388      75746578 
 4388      00
 4389              	.LASF180:
 4390 0995 6D736771 		.ascii	"msgqueue\000"
 4390      75657565 
 4390      00
 4391              	.LASF62:
 4392 099e 5F666E74 		.ascii	"_fntypes\000"
 4392      79706573 
 4392      00
 4393              	.LASF205:
 4394 09a7 63685F73 		.ascii	"ch_system_debug\000"
 4394      79737465 
 4394      6D5F6465 
 4394      62756700 
 4395              	.LASF55:
 4396 09b7 5F5F746D 		.ascii	"__tm_year\000"
 4396      5F796561 
 4396      7200
 4397              	.LASF73:
 4398 09c1 5F6C6266 		.ascii	"_lbfsize\000"
 4398      73697A65 
 4398      00
 4399              	.LASF210:
 4400 09ca 76746C69 		.ascii	"vtlist\000"
 4400      737400
 4401              	.LASF92:
 4402 09d1 5F696E63 		.ascii	"_inc\000"
 4402      00
 4403              	.LASF65:
 4404 09d6 5F696E64 		.ascii	"_ind\000"
 4404      00
 4405              	.LASF179:
 4406 09db 77616974 		.ascii	"waiting\000"
 4406      696E6700 
ARM GAS  /tmp/ccGoki3r.s 			page 86


 4407              	.LASF67:
 4408 09e3 5F5F7362 		.ascii	"__sbuf\000"
 4408      756600
 4409              	.LASF63:
 4410 09ea 5F69735F 		.ascii	"_is_cxa\000"
 4410      63786100 
 4411              	.LASF240:
 4412 09f2 6D757465 		.ascii	"mutex_t\000"
 4412      785F7400 
 4413              	.LASF142:
 4414 09fa 73745F6D 		.ascii	"st_mode\000"
 4414      6F646500 
 4415              	.LASF17:
 4416 0a02 5F5F7569 		.ascii	"__uid_t\000"
 4416      645F7400 
 4417              	.LASF136:
 4418 0a0a 5F6E6578 		.ascii	"_nextf\000"
 4418      746600
 4419              	.LASF215:
 4420 0a11 706F7274 		.ascii	"port_context\000"
 4420      5F636F6E 
 4420      74657874 
 4420      00
 4421              	.LASF187:
 4422 0a1e 74687265 		.ascii	"threads_list_t\000"
 4422      6164735F 
 4422      6C697374 
 4422      5F7400
 4423              	.LASF261:
 4424 0a2d 73746174 		.ascii	"status\000"
 4424      757300
 4425              	.LASF208:
 4426 0a34 63685F73 		.ascii	"ch_system\000"
 4426      79737465 
 4426      6D00
 4427              	.LASF43:
 4428 0a3e 5F5F554C 		.ascii	"__ULong\000"
 4428      6F6E6700 
 4429              	.LASF172:
 4430 0a46 6E657765 		.ascii	"newer\000"
 4430      7200
 4431              	.LASF30:
 4432 0a4c 75696E74 		.ascii	"uint32_t\000"
 4432      33325F74 
 4432      00
 4433              	.LASF98:
 4434 0a55 5F726573 		.ascii	"_result\000"
 4434      756C7400 
 4435              	.LASF15:
 4436 0a5d 5F6F6666 		.ascii	"_off_t\000"
 4436      5F7400
 4437              	.LASF249:
 4438 0a64 66726565 		.ascii	"free\000"
 4438      00
 4439              	.LASF229:
 4440 0a69 7264796D 		.ascii	"rdymsg\000"
 4440      736700
ARM GAS  /tmp/ccGoki3r.s 			page 87


 4441              	.LASF116:
 4442 0a70 5F616464 		.ascii	"_add\000"
 4442      00
 4443              	.LASF3:
 4444 0a75 73686F72 		.ascii	"short unsigned int\000"
 4444      7420756E 
 4444      7369676E 
 4444      65642069 
 4444      6E7400
 4445              	.LASF52:
 4446 0a88 5F5F746D 		.ascii	"__tm_hour\000"
 4446      5F686F75 
 4446      7200
 4447              	.LASF207:
 4448 0a92 63685F73 		.ascii	"ch_system_t\000"
 4448      79737465 
 4448      6D5F7400 
 4449              	.LASF132:
 4450 0a9e 5F6D6273 		.ascii	"_mbsrtowcs_state\000"
 4450      72746F77 
 4450      63735F73 
 4450      74617465 
 4450      00
 4451              	.LASF256:
 4452 0aaf 5F6C7365 		.ascii	"_lseek\000"
 4452      656B00
 4453              	.LASF192:
 4454 0ab6 70726576 		.ascii	"prev\000"
 4454      00
 4455              	.LASF5:
 4456 0abb 5F5F696E 		.ascii	"__int32_t\000"
 4456      7433325F 
 4456      7400
 4457              	.LASF141:
 4458 0ac5 73745F69 		.ascii	"st_ino\000"
 4458      6E6F00
 4459              	.LASF60:
 4460 0acc 5F666E61 		.ascii	"_fnargs\000"
 4460      72677300 
 4461              	.LASF133:
 4462 0ad4 5F776372 		.ascii	"_wcrtomb_state\000"
 4462      746F6D62 
 4462      5F737461 
 4462      746500
 4463              	.LASF58:
 4464 0ae3 5F5F746D 		.ascii	"__tm_isdst\000"
 4464      5F697364 
 4464      737400
 4465              	.LASF189:
 4466 0aee 6E657874 		.ascii	"next\000"
 4466      00
 4467              	.LASF39:
 4468 0af3 6769645F 		.ascii	"gid_t\000"
 4468      7400
 4469              	.LASF51:
 4470 0af9 5F5F746D 		.ascii	"__tm_min\000"
 4470      5F6D696E 
ARM GAS  /tmp/ccGoki3r.s 			page 88


 4470      00
 4471              	.LASF129:
 4472 0b02 5F676574 		.ascii	"_getdate_err\000"
 4472      64617465 
 4472      5F657272 
 4472      00
 4473              	.LASF234:
 4474 0b0f 77747365 		.ascii	"wtsemp\000"
 4474      6D7000
 4475              	.LASF221:
 4476 0b16 6C617374 		.ascii	"last\000"
 4476      00
 4477              		.ident	"GCC: (15:4.9.3+svn231177-1) 4.9.3 20150529 (prerelease)"
ARM GAS  /tmp/ccGoki3r.s 			page 89


DEFINED SYMBOLS
                            *ABS*:0000000000000000 stubs.c
     /tmp/ccGoki3r.s:21     .text._read:0000000000000000 $t
     /tmp/ccGoki3r.s:26     .text._read:0000000000000000 _read
     /tmp/ccGoki3r.s:47     .text._lseek:0000000000000000 $t
     /tmp/ccGoki3r.s:52     .text._lseek:0000000000000000 _lseek
     /tmp/ccGoki3r.s:68     .text._write:0000000000000000 $t
     /tmp/ccGoki3r.s:73     .text._write:0000000000000000 _write
     /tmp/ccGoki3r.s:89     .text._close:0000000000000000 $t
     /tmp/ccGoki3r.s:94     .text._close:0000000000000000 _close
     /tmp/ccGoki3r.s:110    .text._sbrk:0000000000000000 $t
     /tmp/ccGoki3r.s:115    .text._sbrk:0000000000000000 _sbrk
     /tmp/ccGoki3r.s:159    .text._fstat:0000000000000000 $t
     /tmp/ccGoki3r.s:164    .text._fstat:0000000000000000 _fstat
     /tmp/ccGoki3r.s:197    .text._isatty:0000000000000000 $t
     /tmp/ccGoki3r.s:202    .text._isatty:0000000000000000 _isatty
     /tmp/ccGoki3r.s:218    .text._getpid:0000000000000000 $t
     /tmp/ccGoki3r.s:223    .text._getpid:0000000000000000 _getpid
     /tmp/ccGoki3r.s:237    .text._exit:0000000000000000 $t
     /tmp/ccGoki3r.s:242    .text._exit:0000000000000000 _exit
     /tmp/ccGoki3r.s:258    .text._fini:0000000000000000 $t
     /tmp/ccGoki3r.s:263    .text._fini:0000000000000000 _fini
     /tmp/ccGoki3r.s:275    .text._kill:0000000000000000 $t
     /tmp/ccGoki3r.s:280    .text._kill:0000000000000000 _kill
     /tmp/ccGoki3r.s:299    .data._before_main:0000000000000000 _before_main
                     .debug_frame:0000000000000010 $d

UNDEFINED SYMBOLS
chHeapAllocAligned
memset
