ARM GAS  /tmp/ccBJxKEZ.s 			page 1


   1              		.syntax unified
   2              		.cpu cortex-m4
   3              		.eabi_attribute 27, 1
   4              		.eabi_attribute 28, 1
   5              		.fpu fpv4-sp-d16
   6              		.eabi_attribute 20, 1
   7              		.eabi_attribute 21, 1
   8              		.eabi_attribute 23, 3
   9              		.eabi_attribute 24, 1
  10              		.eabi_attribute 25, 1
  11              		.eabi_attribute 26, 1
  12              		.eabi_attribute 30, 4
  13              		.eabi_attribute 34, 1
  14              		.eabi_attribute 18, 4
  15              		.thumb
  16              		.file	"syscalls_cpp.cpp"
  17              		.text
  18              	.Ltext0:
  19              		.cfi_sections	.debug_frame
  20              		.section	.text._exit,"ax",%progbits
  21              		.align	1
  22              		.global	_exit
  23              		.thumb
  24              		.thumb_func
  25              		.type	_exit, %function
  26              	_exit:
  27              		.fnstart
  28              	.LFB277:
  29              		.file 1 "../../modules/ChibiOS/os/various/cpp_wrappers/syscalls_cpp.cpp"
  30              		.loc 1 12 0
  31              		.cfi_startproc
  32              		@ args = 0, pretend = 0, frame = 0
  33              		@ frame_needed = 0, uses_anonymous_args = 0
  34              	.LVL0:
  35 0000 08B5     		push	{r3, lr}
  36              		.save {r3, lr}
  37              		.cfi_def_cfa_offset 8
  38              		.cfi_offset 3, -8
  39              		.cfi_offset 14, -4
  40              	.LBB6:
  41              	.LBB7:
  42              		.file 2 "../../modules/ChibiOS/os/hal/osal/rt/osal.h"
  43              		.loc 2 462 0
  44 0002 0248     		ldr	r0, .L4
  45              	.LVL1:
  46 0004 FFF7FEFF 		bl	chSysHalt
  47              	.LVL2:
  48              	.L2:
  49              	.LBE7:
  50              	.LBE6:
  51              		.loc 1 12 0 discriminator 1
  52 0008 FEE7     		b	.L2
  53              	.L5:
  54 000a 00BF     		.align	2
  55              	.L4:
  56 000c 00000000 		.word	.LC0
  57              		.cfi_endproc
ARM GAS  /tmp/ccBJxKEZ.s 			page 2


  58              	.LFE277:
  59              		.fnend
  60              		.size	_exit, .-_exit
  61              		.section	.text._kill,"ax",%progbits
  62              		.align	1
  63              		.global	_kill
  64              		.thumb
  65              		.thumb_func
  66              		.type	_kill, %function
  67              	_kill:
  68              		.fnstart
  69              	.LFB278:
  70              		.loc 1 20 0
  71              		.cfi_startproc
  72              		@ args = 0, pretend = 0, frame = 0
  73              		@ frame_needed = 0, uses_anonymous_args = 0
  74              		@ link register save eliminated.
  75              	.LVL3:
  76              		.loc 1 23 0
  77 0000 024B     		ldr	r3, .L7
  78 0002 1622     		movs	r2, #22
  79 0004 1A60     		str	r2, [r3]
  80              		.loc 1 25 0
  81 0006 4FF0FF30 		mov	r0, #-1
  82              	.LVL4:
  83 000a 7047     		bx	lr
  84              	.L8:
  85              		.align	2
  86              	.L7:
  87 000c 00000000 		.word	errno
  88              		.cfi_endproc
  89              	.LFE278:
  90              		.cantunwind
  91              		.fnend
  92              		.size	_kill, .-_kill
  93              		.section	.text._open_r,"ax",%progbits
  94              		.align	1
  95              		.global	_open_r
  96              		.thumb
  97              		.thumb_func
  98              		.type	_open_r, %function
  99              	_open_r:
 100              		.fnstart
 101              	.LFB279:
 102              		.loc 1 27 0
 103              		.cfi_startproc
 104              		@ args = 0, pretend = 0, frame = 0
 105              		@ frame_needed = 0, uses_anonymous_args = 0
 106              		@ link register save eliminated.
 107 0000 7047     		bx	lr
 108              		.cfi_endproc
 109              	.LFE279:
 110              		.cantunwind
 111              		.fnend
 112              		.size	_open_r, .-_open_r
 113              		.section	.text.__cxa_pure_virtual,"ax",%progbits
 114              		.align	1
ARM GAS  /tmp/ccBJxKEZ.s 			page 3


 115              		.global	__cxa_pure_virtual
 116              		.thumb
 117              		.thumb_func
 118              		.type	__cxa_pure_virtual, %function
 119              	__cxa_pure_virtual:
 120              		.fnstart
 121              	.LFB280:
 122              		.loc 1 31 0
 123              		.cfi_startproc
 124              		@ args = 0, pretend = 0, frame = 0
 125              		@ frame_needed = 0, uses_anonymous_args = 0
 126              		@ link register save eliminated.
 127              	.LVL5:
 128              	.LBB8:
 129              	.LBB9:
 130              		.loc 2 462 0
 131 0000 0148     		ldr	r0, .L11
 132 0002 FFF7FEBF 		b	chSysHalt
 133              	.LVL6:
 134              	.L12:
 135 0006 00BF     		.align	2
 136              	.L11:
 137 0008 0B000000 		.word	.LC1
 138              	.LBE9:
 139              	.LBE8:
 140              		.cfi_endproc
 141              	.LFE280:
 142              		.cantunwind
 143              		.fnend
 144              		.size	__cxa_pure_virtual, .-__cxa_pure_virtual
 145              		.global	__dso_handle
 146              		.section	.bss.__dso_handle,"aw",%nobits
 147              		.align	2
 148              		.type	__dso_handle, %object
 149              		.size	__dso_handle, 4
 150              	__dso_handle:
 151 0000 00000000 		.space	4
 152              		.section	.rodata.str1.1,"aMS",%progbits,1
 153              	.LC0:
 154 0000 556E7265 		.ascii	"Unrealized\000"
 154      616C697A 
 154      656400
 155              	.LC1:
 156 000b 50757265 		.ascii	"Pure virtual function call.\000"
 156      20766972 
 156      7475616C 
 156      2066756E 
 156      6374696F 
 157              		.text
 158              	.Letext0:
 159              		.file 3 "/usr/include/newlib/machine/_default_types.h"
 160              		.file 4 "/usr/include/newlib/sys/_stdint.h"
 161              		.file 5 "../../modules/ChibiOS/os/common/ports/ARMCMx/compilers/GCC/chtypes.h"
 162              		.file 6 "../../modules/ChibiOS/os/rt/include/chsystypes.h"
 163              		.file 7 "../../modules/ChibiOS/os/rt/include/chschd.h"
 164              		.file 8 "../../modules/ChibiOS/os/common/ext/CMSIS/ST/STM32F4xx/stm32f4xx.h"
 165              		.file 9 "../../modules/ChibiOS/os/common/ports/ARMCMx/chcore.h"
ARM GAS  /tmp/ccBJxKEZ.s 			page 4


 166              		.file 10 "../../modules/ChibiOS/os/common/ports/ARMCMx/chcore_v7m.h"
 167              		.file 11 "../../modules/ChibiOS/os/rt/include/chtm.h"
 168              		.file 12 "../../modules/ChibiOS/os/rt/include/chstats.h"
 169              		.file 13 "../../modules/ChibiOS/os/rt/include/chsem.h"
 170              		.file 14 "../../modules/ChibiOS/os/rt/include/chmtx.h"
 171              		.file 15 "../../modules/ChibiOS/os/common/ext/CMSIS/include/core_cm4.h"
 172              		.file 16 "../../modules/ChibiOS/os/various/cpp_wrappers/syscalls_cpp.hpp"
 173              		.file 17 "../../modules/ChibiOS/os/rt/include/chsys.h"
 174              		.section	.debug_info,"",%progbits
 175              	.Ldebug_info0:
 176 0000 43090000 		.4byte	0x943
 177 0004 0400     		.2byte	0x4
 178 0006 00000000 		.4byte	.Ldebug_abbrev0
 179 000a 04       		.byte	0x4
 180 000b 01       		.uleb128 0x1
 181 000c 00000000 		.4byte	.LASF124
 182 0010 04       		.byte	0x4
 183 0011 96040000 		.4byte	.LASF125
 184 0015 24020000 		.4byte	.LASF126
 185 0019 00000000 		.4byte	.Ldebug_ranges0+0
 186 001d 00000000 		.4byte	0
 187 0021 00000000 		.4byte	.Ldebug_line0
 188 0025 02       		.uleb128 0x2
 189 0026 01       		.byte	0x1
 190 0027 06       		.byte	0x6
 191 0028 11020000 		.4byte	.LASF0
 192 002c 03       		.uleb128 0x3
 193 002d 43010000 		.4byte	.LASF4
 194 0031 03       		.byte	0x3
 195 0032 1D       		.byte	0x1d
 196 0033 37000000 		.4byte	0x37
 197 0037 02       		.uleb128 0x2
 198 0038 01       		.byte	0x1
 199 0039 08       		.byte	0x8
 200 003a 88040000 		.4byte	.LASF1
 201 003e 02       		.uleb128 0x2
 202 003f 02       		.byte	0x2
 203 0040 05       		.byte	0x5
 204 0041 D5040000 		.4byte	.LASF2
 205 0045 02       		.uleb128 0x2
 206 0046 02       		.byte	0x2
 207 0047 07       		.byte	0x7
 208 0048 E3050000 		.4byte	.LASF3
 209 004c 03       		.uleb128 0x3
 210 004d 83030000 		.4byte	.LASF5
 211 0051 03       		.byte	0x3
 212 0052 3F       		.byte	0x3f
 213 0053 57000000 		.4byte	0x57
 214 0057 02       		.uleb128 0x2
 215 0058 04       		.byte	0x4
 216 0059 05       		.byte	0x5
 217 005a 62020000 		.4byte	.LASF6
 218 005e 03       		.uleb128 0x3
 219 005f 98020000 		.4byte	.LASF7
 220 0063 03       		.byte	0x3
 221 0064 41       		.byte	0x41
 222 0065 69000000 		.4byte	0x69
ARM GAS  /tmp/ccBJxKEZ.s 			page 5


 223 0069 02       		.uleb128 0x2
 224 006a 04       		.byte	0x4
 225 006b 07       		.byte	0x7
 226 006c 66050000 		.4byte	.LASF8
 227 0070 02       		.uleb128 0x2
 228 0071 08       		.byte	0x8
 229 0072 05       		.byte	0x5
 230 0073 03020000 		.4byte	.LASF9
 231 0077 03       		.uleb128 0x3
 232 0078 36040000 		.4byte	.LASF10
 233 007c 03       		.byte	0x3
 234 007d 5B       		.byte	0x5b
 235 007e 82000000 		.4byte	0x82
 236 0082 02       		.uleb128 0x2
 237 0083 08       		.byte	0x8
 238 0084 07       		.byte	0x7
 239 0085 9F010000 		.4byte	.LASF11
 240 0089 04       		.uleb128 0x4
 241 008a 04       		.byte	0x4
 242 008b 05       		.byte	0x5
 243 008c 696E7400 		.ascii	"int\000"
 244 0090 02       		.uleb128 0x2
 245 0091 04       		.byte	0x4
 246 0092 07       		.byte	0x7
 247 0093 DC020000 		.4byte	.LASF12
 248 0097 03       		.uleb128 0x3
 249 0098 37060000 		.4byte	.LASF13
 250 009c 04       		.byte	0x4
 251 009d 14       		.byte	0x14
 252 009e 2C000000 		.4byte	0x2c
 253 00a2 03       		.uleb128 0x3
 254 00a3 80040000 		.4byte	.LASF14
 255 00a7 04       		.byte	0x4
 256 00a8 1F       		.byte	0x1f
 257 00a9 4C000000 		.4byte	0x4c
 258 00ad 03       		.uleb128 0x3
 259 00ae 25050000 		.4byte	.LASF15
 260 00b2 04       		.byte	0x4
 261 00b3 20       		.byte	0x20
 262 00b4 5E000000 		.4byte	0x5e
 263 00b8 03       		.uleb128 0x3
 264 00b9 2D010000 		.4byte	.LASF16
 265 00bd 04       		.byte	0x4
 266 00be 26       		.byte	0x26
 267 00bf 77000000 		.4byte	0x77
 268 00c3 03       		.uleb128 0x3
 269 00c4 F6050000 		.4byte	.LASF17
 270 00c8 05       		.byte	0x5
 271 00c9 39       		.byte	0x39
 272 00ca AD000000 		.4byte	0xad
 273 00ce 03       		.uleb128 0x3
 274 00cf FA010000 		.4byte	.LASF18
 275 00d3 05       		.byte	0x5
 276 00d4 3A       		.byte	0x3a
 277 00d5 B8000000 		.4byte	0xb8
 278 00d9 03       		.uleb128 0x3
 279 00da 51030000 		.4byte	.LASF19
ARM GAS  /tmp/ccBJxKEZ.s 			page 6


 280 00de 05       		.byte	0x5
 281 00df 3C       		.byte	0x3c
 282 00e0 97000000 		.4byte	0x97
 283 00e4 03       		.uleb128 0x3
 284 00e5 72020000 		.4byte	.LASF20
 285 00e9 05       		.byte	0x5
 286 00ea 3D       		.byte	0x3d
 287 00eb 97000000 		.4byte	0x97
 288 00ef 03       		.uleb128 0x3
 289 00f0 4C040000 		.4byte	.LASF21
 290 00f4 05       		.byte	0x5
 291 00f5 3E       		.byte	0x3e
 292 00f6 97000000 		.4byte	0x97
 293 00fa 03       		.uleb128 0x3
 294 00fb 6F040000 		.4byte	.LASF22
 295 00ff 05       		.byte	0x5
 296 0100 40       		.byte	0x40
 297 0101 AD000000 		.4byte	0xad
 298 0105 03       		.uleb128 0x3
 299 0106 26030000 		.4byte	.LASF23
 300 010a 05       		.byte	0x5
 301 010b 41       		.byte	0x41
 302 010c A2000000 		.4byte	0xa2
 303 0110 03       		.uleb128 0x3
 304 0111 77030000 		.4byte	.LASF24
 305 0115 05       		.byte	0x5
 306 0116 43       		.byte	0x43
 307 0117 AD000000 		.4byte	0xad
 308 011b 03       		.uleb128 0x3
 309 011c D6020000 		.4byte	.LASF25
 310 0120 05       		.byte	0x5
 311 0121 45       		.byte	0x45
 312 0122 A2000000 		.4byte	0xa2
 313 0126 03       		.uleb128 0x3
 314 0127 31030000 		.4byte	.LASF26
 315 012b 05       		.byte	0x5
 316 012c 46       		.byte	0x46
 317 012d AD000000 		.4byte	0xad
 318 0131 03       		.uleb128 0x3
 319 0132 B0050000 		.4byte	.LASF27
 320 0136 06       		.byte	0x6
 321 0137 33       		.byte	0x33
 322 0138 AD000000 		.4byte	0xad
 323 013c 03       		.uleb128 0x3
 324 013d A2050000 		.4byte	.LASF28
 325 0141 06       		.byte	0x6
 326 0142 3F       		.byte	0x3f
 327 0143 47010000 		.4byte	0x147
 328 0147 05       		.uleb128 0x5
 329 0148 1C030000 		.4byte	.LASF55
 330 014c 60       		.byte	0x60
 331 014d 07       		.byte	0x7
 332 014e 9A       		.byte	0x9a
 333 014f 95020000 		.4byte	0x295
 334 0153 06       		.uleb128 0x6
 335 0154 04       		.byte	0x4
 336 0155 07       		.byte	0x7
ARM GAS  /tmp/ccBJxKEZ.s 			page 7


 337 0156 D2       		.byte	0xd2
 338 0157 B6010000 		.4byte	0x1b6
 339 015b 07       		.uleb128 0x7
 340 015c 00050000 		.4byte	.LASF29
 341 0160 07       		.byte	0x7
 342 0161 D9       		.byte	0xd9
 343 0162 05010000 		.4byte	0x105
 344 0166 07       		.uleb128 0x7
 345 0167 B6010000 		.4byte	.LASF30
 346 016b 07       		.byte	0x7
 347 016c E0       		.byte	0xe0
 348 016d 05010000 		.4byte	0x105
 349 0171 07       		.uleb128 0x7
 350 0172 5E060000 		.4byte	.LASF31
 351 0176 07       		.byte	0x7
 352 0177 E7       		.byte	0xe7
 353 0178 7D030000 		.4byte	0x37d
 354 017c 07       		.uleb128 0x7
 355 017d 16010000 		.4byte	.LASF32
 356 0181 07       		.byte	0x7
 357 0182 EE       		.byte	0xee
 358 0183 63070000 		.4byte	0x763
 359 0187 07       		.uleb128 0x7
 360 0188 CA010000 		.4byte	.LASF33
 361 018c 07       		.byte	0x7
 362 018d F3       		.byte	0xf3
 363 018e 05010000 		.4byte	0x105
 364 0192 07       		.uleb128 0x7
 365 0193 E9020000 		.4byte	.LASF34
 366 0197 07       		.byte	0x7
 367 0198 FC       		.byte	0xfc
 368 0199 8E070000 		.4byte	0x78e
 369 019d 08       		.uleb128 0x8
 370 019e 2E050000 		.4byte	.LASF35
 371 01a2 07       		.byte	0x7
 372 01a3 0501     		.2byte	0x105
 373 01a5 C5070000 		.4byte	0x7c5
 374 01a9 08       		.uleb128 0x8
 375 01aa E8040000 		.4byte	.LASF36
 376 01ae 07       		.byte	0x7
 377 01af 0D01     		.2byte	0x10d
 378 01b1 10010000 		.4byte	0x110
 379 01b5 00       		.byte	0
 380 01b6 09       		.uleb128 0x9
 381 01b7 F6020000 		.4byte	.LASF37
 382 01bb 07       		.byte	0x7
 383 01bc 9B       		.byte	0x9b
 384 01bd CA020000 		.4byte	0x2ca
 385 01c1 00       		.byte	0
 386 01c2 09       		.uleb128 0x9
 387 01c3 29040000 		.4byte	.LASF38
 388 01c7 07       		.byte	0x7
 389 01c8 9C       		.byte	0x9c
 390 01c9 FA000000 		.4byte	0xfa
 391 01cd 08       		.byte	0x8
 392 01ce 0A       		.uleb128 0xa
 393 01cf 63747800 		.ascii	"ctx\000"
ARM GAS  /tmp/ccBJxKEZ.s 			page 8


 394 01d3 07       		.byte	0x7
 395 01d4 9D       		.byte	0x9d
 396 01d5 3B050000 		.4byte	0x53b
 397 01d9 0C       		.byte	0xc
 398 01da 09       		.uleb128 0x9
 399 01db 9E030000 		.4byte	.LASF39
 400 01df 07       		.byte	0x7
 401 01e0 9F       		.byte	0x9f
 402 01e1 A0020000 		.4byte	0x2a0
 403 01e5 10       		.byte	0x10
 404 01e6 09       		.uleb128 0x9
 405 01e7 90050000 		.4byte	.LASF40
 406 01eb 07       		.byte	0x7
 407 01ec A0       		.byte	0xa0
 408 01ed A0020000 		.4byte	0x2a0
 409 01f1 14       		.byte	0x14
 410 01f2 09       		.uleb128 0x9
 411 01f3 17030000 		.4byte	.LASF41
 412 01f7 07       		.byte	0x7
 413 01f8 A7       		.byte	0xa7
 414 01f9 CB070000 		.4byte	0x7cb
 415 01fd 18       		.byte	0x18
 416 01fe 09       		.uleb128 0x9
 417 01ff 78050000 		.4byte	.LASF42
 418 0203 07       		.byte	0x7
 419 0204 B0       		.byte	0xb0
 420 0205 DD070000 		.4byte	0x7dd
 421 0209 1C       		.byte	0x1c
 422 020a 09       		.uleb128 0x9
 423 020b 5C020000 		.4byte	.LASF43
 424 020f 07       		.byte	0x7
 425 0210 B5       		.byte	0xb5
 426 0211 E4000000 		.4byte	0xe4
 427 0215 20       		.byte	0x20
 428 0216 09       		.uleb128 0x9
 429 0217 47060000 		.4byte	.LASF44
 430 021b 07       		.byte	0x7
 431 021c B9       		.byte	0xb9
 432 021d D9000000 		.4byte	0xd9
 433 0221 21       		.byte	0x21
 434 0222 09       		.uleb128 0x9
 435 0223 54040000 		.4byte	.LASF45
 436 0227 07       		.byte	0x7
 437 0228 BE       		.byte	0xbe
 438 0229 EF000000 		.4byte	0xef
 439 022d 22       		.byte	0x22
 440 022e 0B       		.uleb128 0xb
 441 022f 7500     		.ascii	"u\000"
 442 0231 07       		.byte	0x7
 443 0232 0F01     		.2byte	0x10f
 444 0234 53010000 		.4byte	0x153
 445 0238 24       		.byte	0x24
 446 0239 0C       		.uleb128 0xc
 447 023a C6020000 		.4byte	.LASF46
 448 023e 07       		.byte	0x7
 449 023f 1401     		.2byte	0x114
 450 0241 A6020000 		.4byte	0x2a6
ARM GAS  /tmp/ccBJxKEZ.s 			page 9


 451 0245 28       		.byte	0x28
 452 0246 0C       		.uleb128 0xc
 453 0247 53020000 		.4byte	.LASF47
 454 024b 07       		.byte	0x7
 455 024c 1A01     		.2byte	0x11a
 456 024e CA020000 		.4byte	0x2ca
 457 0252 2C       		.byte	0x2c
 458 0253 0C       		.uleb128 0xc
 459 0254 0E060000 		.4byte	.LASF48
 460 0258 07       		.byte	0x7
 461 0259 2001     		.2byte	0x120
 462 025b 10010000 		.4byte	0x110
 463 025f 34       		.byte	0x34
 464 0260 0C       		.uleb128 0xc
 465 0261 74060000 		.4byte	.LASF49
 466 0265 07       		.byte	0x7
 467 0266 2701     		.2byte	0x127
 468 0268 C5070000 		.4byte	0x7c5
 469 026c 38       		.byte	0x38
 470 026d 0C       		.uleb128 0xc
 471 026e A4030000 		.4byte	.LASF50
 472 0272 07       		.byte	0x7
 473 0273 2B01     		.2byte	0x12b
 474 0275 FA000000 		.4byte	0xfa
 475 0279 3C       		.byte	0x3c
 476 027a 0C       		.uleb128 0xc
 477 027b FC020000 		.4byte	.LASF51
 478 027f 07       		.byte	0x7
 479 0280 3201     		.2byte	0x132
 480 0282 7D030000 		.4byte	0x37d
 481 0286 40       		.byte	0x40
 482 0287 0C       		.uleb128 0xc
 483 0288 80020000 		.4byte	.LASF52
 484 028c 07       		.byte	0x7
 485 028d 3801     		.2byte	0x138
 486 028f 10070000 		.4byte	0x710
 487 0293 48       		.byte	0x48
 488 0294 00       		.byte	0
 489 0295 03       		.uleb128 0x3
 490 0296 B6030000 		.4byte	.LASF53
 491 029a 06       		.byte	0x6
 492 029b 44       		.byte	0x44
 493 029c A0020000 		.4byte	0x2a0
 494 02a0 0D       		.uleb128 0xd
 495 02a1 04       		.byte	0x4
 496 02a2 3C010000 		.4byte	0x13c
 497 02a6 03       		.uleb128 0x3
 498 02a7 65060000 		.4byte	.LASF54
 499 02ab 06       		.byte	0x6
 500 02ac 49       		.byte	0x49
 501 02ad B1020000 		.4byte	0x2b1
 502 02b1 05       		.uleb128 0x5
 503 02b2 35050000 		.4byte	.LASF56
 504 02b6 04       		.byte	0x4
 505 02b7 07       		.byte	0x7
 506 02b8 88       		.byte	0x88
 507 02b9 CA020000 		.4byte	0x2ca
ARM GAS  /tmp/ccBJxKEZ.s 			page 10


 508 02bd 09       		.uleb128 0x9
 509 02be F5010000 		.4byte	.LASF57
 510 02c2 07       		.byte	0x7
 511 02c3 89       		.byte	0x89
 512 02c4 A0020000 		.4byte	0x2a0
 513 02c8 00       		.byte	0
 514 02c9 00       		.byte	0
 515 02ca 03       		.uleb128 0x3
 516 02cb FE050000 		.4byte	.LASF58
 517 02cf 06       		.byte	0x6
 518 02d0 50       		.byte	0x50
 519 02d1 D5020000 		.4byte	0x2d5
 520 02d5 05       		.uleb128 0x5
 521 02d6 5E010000 		.4byte	.LASF59
 522 02da 08       		.byte	0x8
 523 02db 07       		.byte	0x7
 524 02dc 8F       		.byte	0x8f
 525 02dd FA020000 		.4byte	0x2fa
 526 02e1 09       		.uleb128 0x9
 527 02e2 F5010000 		.4byte	.LASF57
 528 02e6 07       		.byte	0x7
 529 02e7 90       		.byte	0x90
 530 02e8 A0020000 		.4byte	0x2a0
 531 02ec 00       		.byte	0
 532 02ed 09       		.uleb128 0x9
 533 02ee 4D010000 		.4byte	.LASF60
 534 02f2 07       		.byte	0x7
 535 02f3 91       		.byte	0x91
 536 02f4 A0020000 		.4byte	0x2a0
 537 02f8 04       		.byte	0x4
 538 02f9 00       		.byte	0
 539 02fa 03       		.uleb128 0x3
 540 02fb FB000000 		.4byte	.LASF61
 541 02ff 06       		.byte	0x6
 542 0300 57       		.byte	0x57
 543 0301 05030000 		.4byte	0x305
 544 0305 0E       		.uleb128 0xe
 545 0306 69030000 		.4byte	.LASF62
 546 030a 1C       		.byte	0x1c
 547 030b 07       		.byte	0x7
 548 030c 6A01     		.2byte	0x16a
 549 030e 61030000 		.4byte	0x361
 550 0312 0C       		.uleb128 0xc
 551 0313 F6020000 		.4byte	.LASF37
 552 0317 07       		.byte	0x7
 553 0318 6B01     		.2byte	0x16b
 554 031a CA020000 		.4byte	0x2ca
 555 031e 00       		.byte	0
 556 031f 0C       		.uleb128 0xc
 557 0320 29040000 		.4byte	.LASF38
 558 0324 07       		.byte	0x7
 559 0325 6C01     		.2byte	0x16c
 560 0327 FA000000 		.4byte	0xfa
 561 032b 08       		.byte	0x8
 562 032c 0B       		.uleb128 0xb
 563 032d 63747800 		.ascii	"ctx\000"
 564 0331 07       		.byte	0x7
ARM GAS  /tmp/ccBJxKEZ.s 			page 11


 565 0332 6E01     		.2byte	0x16e
 566 0334 3B050000 		.4byte	0x53b
 567 0338 0C       		.byte	0xc
 568 0339 0C       		.uleb128 0xc
 569 033a 9E030000 		.4byte	.LASF39
 570 033e 07       		.byte	0x7
 571 033f 7101     		.2byte	0x171
 572 0341 A0020000 		.4byte	0x2a0
 573 0345 10       		.byte	0x10
 574 0346 0C       		.uleb128 0xc
 575 0347 90050000 		.4byte	.LASF40
 576 034b 07       		.byte	0x7
 577 034c 7201     		.2byte	0x172
 578 034e A0020000 		.4byte	0x2a0
 579 0352 14       		.byte	0x14
 580 0353 0C       		.uleb128 0xc
 581 0354 2E040000 		.4byte	.LASF63
 582 0358 07       		.byte	0x7
 583 0359 7501     		.2byte	0x175
 584 035b A0020000 		.4byte	0x2a0
 585 035f 18       		.byte	0x18
 586 0360 00       		.byte	0
 587 0361 03       		.uleb128 0x3
 588 0362 BA050000 		.4byte	.LASF64
 589 0366 06       		.byte	0x6
 590 0367 5C       		.byte	0x5c
 591 0368 6C030000 		.4byte	0x36c
 592 036c 0D       		.uleb128 0xd
 593 036d 04       		.byte	0x4
 594 036e 72030000 		.4byte	0x372
 595 0372 0F       		.uleb128 0xf
 596 0373 7D030000 		.4byte	0x37d
 597 0377 10       		.uleb128 0x10
 598 0378 7D030000 		.4byte	0x37d
 599 037c 00       		.byte	0
 600 037d 11       		.uleb128 0x11
 601 037e 04       		.byte	0x4
 602 037f 03       		.uleb128 0x3
 603 0380 59040000 		.4byte	.LASF65
 604 0384 06       		.byte	0x6
 605 0385 61       		.byte	0x61
 606 0386 8A030000 		.4byte	0x38a
 607 038a 0E       		.uleb128 0xe
 608 038b 07050000 		.4byte	.LASF66
 609 038f 14       		.byte	0x14
 610 0390 07       		.byte	0x7
 611 0391 4501     		.2byte	0x145
 612 0393 D9030000 		.4byte	0x3d9
 613 0397 0C       		.uleb128 0xc
 614 0398 F5010000 		.4byte	.LASF57
 615 039c 07       		.byte	0x7
 616 039d 4601     		.2byte	0x146
 617 039f E3070000 		.4byte	0x7e3
 618 03a3 00       		.byte	0
 619 03a4 0C       		.uleb128 0xc
 620 03a5 4D010000 		.4byte	.LASF60
 621 03a9 07       		.byte	0x7
ARM GAS  /tmp/ccBJxKEZ.s 			page 12


 622 03aa 4701     		.2byte	0x147
 623 03ac E3070000 		.4byte	0x7e3
 624 03b0 04       		.byte	0x4
 625 03b1 0C       		.uleb128 0xc
 626 03b2 1C010000 		.4byte	.LASF67
 627 03b6 07       		.byte	0x7
 628 03b7 4801     		.2byte	0x148
 629 03b9 31010000 		.4byte	0x131
 630 03bd 08       		.byte	0x8
 631 03be 0C       		.uleb128 0xc
 632 03bf 7B020000 		.4byte	.LASF68
 633 03c3 07       		.byte	0x7
 634 03c4 4901     		.2byte	0x149
 635 03c6 61030000 		.4byte	0x361
 636 03ca 0C       		.byte	0xc
 637 03cb 0B       		.uleb128 0xb
 638 03cc 70617200 		.ascii	"par\000"
 639 03d0 07       		.byte	0x7
 640 03d1 4B01     		.2byte	0x14b
 641 03d3 7D030000 		.4byte	0x37d
 642 03d7 10       		.byte	0x10
 643 03d8 00       		.byte	0
 644 03d9 03       		.uleb128 0x3
 645 03da D2010000 		.4byte	.LASF69
 646 03de 06       		.byte	0x6
 647 03df 66       		.byte	0x66
 648 03e0 E4030000 		.4byte	0x3e4
 649 03e4 0E       		.uleb128 0xe
 650 03e5 C9030000 		.4byte	.LASF70
 651 03e9 10       		.byte	0x10
 652 03ea 07       		.byte	0x7
 653 03eb 5501     		.2byte	0x155
 654 03ed 26040000 		.4byte	0x426
 655 03f1 0C       		.uleb128 0xc
 656 03f2 F5010000 		.4byte	.LASF57
 657 03f6 07       		.byte	0x7
 658 03f7 5601     		.2byte	0x156
 659 03f9 E3070000 		.4byte	0x7e3
 660 03fd 00       		.byte	0
 661 03fe 0C       		.uleb128 0xc
 662 03ff 4D010000 		.4byte	.LASF60
 663 0403 07       		.byte	0x7
 664 0404 5801     		.2byte	0x158
 665 0406 E3070000 		.4byte	0x7e3
 666 040a 04       		.byte	0x4
 667 040b 0C       		.uleb128 0xc
 668 040c 1C010000 		.4byte	.LASF67
 669 0410 07       		.byte	0x7
 670 0411 5A01     		.2byte	0x15a
 671 0413 31010000 		.4byte	0x131
 672 0417 08       		.byte	0x8
 673 0418 0C       		.uleb128 0xc
 674 0419 DF040000 		.4byte	.LASF71
 675 041d 07       		.byte	0x7
 676 041e 6201     		.2byte	0x162
 677 0420 31010000 		.4byte	0x131
 678 0424 0C       		.byte	0xc
ARM GAS  /tmp/ccBJxKEZ.s 			page 13


 679 0425 00       		.byte	0
 680 0426 03       		.uleb128 0x3
 681 0427 6F010000 		.4byte	.LASF72
 682 042b 06       		.byte	0x6
 683 042c 6B       		.byte	0x6b
 684 042d 31040000 		.4byte	0x431
 685 0431 0E       		.uleb128 0xe
 686 0432 B6020000 		.4byte	.LASF73
 687 0436 04       		.byte	0x4
 688 0437 07       		.byte	0x7
 689 0438 7C01     		.2byte	0x17c
 690 043a 4C040000 		.4byte	0x44c
 691 043e 0C       		.uleb128 0xc
 692 043f C3050000 		.4byte	.LASF74
 693 0443 07       		.byte	0x7
 694 0444 8401     		.2byte	0x184
 695 0446 E9070000 		.4byte	0x7e9
 696 044a 00       		.byte	0
 697 044b 00       		.byte	0
 698 044c 03       		.uleb128 0x3
 699 044d 45030000 		.4byte	.LASF75
 700 0451 06       		.byte	0x6
 701 0452 70       		.byte	0x70
 702 0453 57040000 		.4byte	0x457
 703 0457 0E       		.uleb128 0xe
 704 0458 EF040000 		.4byte	.LASF76
 705 045c D0       		.byte	0xd0
 706 045d 07       		.byte	0x7
 707 045e 9C01     		.2byte	0x19c
 708 0460 B2040000 		.4byte	0x4b2
 709 0464 0C       		.uleb128 0xc
 710 0465 31060000 		.4byte	.LASF77
 711 0469 07       		.byte	0x7
 712 046a A001     		.2byte	0x1a0
 713 046c FA020000 		.4byte	0x2fa
 714 0470 00       		.byte	0
 715 0471 0C       		.uleb128 0xc
 716 0472 1D020000 		.4byte	.LASF78
 717 0476 07       		.byte	0x7
 718 0477 A401     		.2byte	0x1a4
 719 0479 D9030000 		.4byte	0x3d9
 720 047d 1C       		.byte	0x1c
 721 047e 0B       		.uleb128 0xb
 722 047f 64626700 		.ascii	"dbg\000"
 723 0483 07       		.byte	0x7
 724 0484 A801     		.2byte	0x1a8
 725 0486 26040000 		.4byte	0x426
 726 048a 2C       		.byte	0x2c
 727 048b 0C       		.uleb128 0xc
 728 048c BF010000 		.4byte	.LASF79
 729 0490 07       		.byte	0x7
 730 0491 AC01     		.2byte	0x1ac
 731 0493 3C010000 		.4byte	0x13c
 732 0497 30       		.byte	0x30
 733 0498 0B       		.uleb128 0xb
 734 0499 746D00   		.ascii	"tm\000"
 735 049c 07       		.byte	0x7
ARM GAS  /tmp/ccBJxKEZ.s 			page 14


 736 049d B101     		.2byte	0x1b1
 737 049f BE060000 		.4byte	0x6be
 738 04a3 90       		.byte	0x90
 739 04a4 0C       		.uleb128 0xc
 740 04a5 36010000 		.4byte	.LASF80
 741 04a9 07       		.byte	0x7
 742 04aa B701     		.2byte	0x1b7
 743 04ac 58070000 		.4byte	0x758
 744 04b0 98       		.byte	0x98
 745 04b1 00       		.byte	0
 746 04b2 02       		.uleb128 0x2
 747 04b3 04       		.byte	0x4
 748 04b4 07       		.byte	0x7
 749 04b5 AD030000 		.4byte	.LASF81
 750 04b9 12       		.uleb128 0x12
 751 04ba 01       		.byte	0x1
 752 04bb 08       		.byte	0x8
 753 04bc C5       		.byte	0xc5
 754 04bd 38030000 		.4byte	.LASF84
 755 04c1 D2040000 		.4byte	0x4d2
 756 04c5 13       		.uleb128 0x13
 757 04c6 69040000 		.4byte	.LASF82
 758 04ca 00       		.sleb128 0
 759 04cb 14       		.uleb128 0x14
 760 04cc 53455400 		.ascii	"SET\000"
 761 04d0 01       		.sleb128 1
 762 04d1 00       		.byte	0
 763 04d2 03       		.uleb128 0x3
 764 04d3 22010000 		.4byte	.LASF83
 765 04d7 08       		.byte	0x8
 766 04d8 C8       		.byte	0xc8
 767 04d9 B9040000 		.4byte	0x4b9
 768 04dd 12       		.uleb128 0x12
 769 04de 01       		.byte	0x1
 770 04df 08       		.byte	0x8
 771 04e0 CB       		.byte	0xcb
 772 04e1 86020000 		.4byte	.LASF85
 773 04e5 F6040000 		.4byte	0x4f6
 774 04e9 13       		.uleb128 0x13
 775 04ea 84010000 		.4byte	.LASF86
 776 04ee 00       		.sleb128 0
 777 04ef 13       		.uleb128 0x13
 778 04f0 6B020000 		.4byte	.LASF87
 779 04f4 01       		.sleb128 1
 780 04f5 00       		.byte	0
 781 04f6 03       		.uleb128 0x3
 782 04f7 08040000 		.4byte	.LASF88
 783 04fb 08       		.byte	0x8
 784 04fc CE       		.byte	0xce
 785 04fd DD040000 		.4byte	0x4dd
 786 0501 12       		.uleb128 0x12
 787 0502 01       		.byte	0x1
 788 0503 08       		.byte	0x8
 789 0504 D2       		.byte	0xd2
 790 0505 08010000 		.4byte	.LASF89
 791 0509 1A050000 		.4byte	0x51a
 792 050d 13       		.uleb128 0x13
ARM GAS  /tmp/ccBJxKEZ.s 			page 15


 793 050e E0030000 		.4byte	.LASF90
 794 0512 00       		.sleb128 0
 795 0513 13       		.uleb128 0x13
 796 0514 3F060000 		.4byte	.LASF91
 797 0518 01       		.sleb128 1
 798 0519 00       		.byte	0
 799 051a 03       		.uleb128 0x3
 800 051b 96050000 		.4byte	.LASF92
 801 051f 08       		.byte	0x8
 802 0520 D5       		.byte	0xd5
 803 0521 01050000 		.4byte	0x501
 804 0525 03       		.uleb128 0x3
 805 0526 A3020000 		.4byte	.LASF93
 806 052a 09       		.byte	0x9
 807 052b 65       		.byte	0x65
 808 052c 7D030000 		.4byte	0x37d
 809 0530 03       		.uleb128 0x3
 810 0531 93030000 		.4byte	.LASF94
 811 0535 09       		.byte	0x9
 812 0536 6D       		.byte	0x6d
 813 0537 B8000000 		.4byte	0xb8
 814 053b 05       		.uleb128 0x5
 815 053c FB030000 		.4byte	.LASF95
 816 0540 04       		.byte	0x4
 817 0541 09       		.byte	0x9
 818 0542 89       		.byte	0x89
 819 0543 53050000 		.4byte	0x553
 820 0547 0A       		.uleb128 0xa
 821 0548 737000   		.ascii	"sp\000"
 822 054b 09       		.byte	0x9
 823 054c 8A       		.byte	0x8a
 824 054d 9F060000 		.4byte	0x69f
 825 0551 00       		.byte	0
 826 0552 00       		.byte	0
 827 0553 0E       		.uleb128 0xe
 828 0554 52010000 		.4byte	.LASF96
 829 0558 64       		.byte	0x64
 830 0559 0A       		.byte	0xa
 831 055a 5901     		.2byte	0x159
 832 055c 9F060000 		.4byte	0x69f
 833 0560 0B       		.uleb128 0xb
 834 0561 73313600 		.ascii	"s16\000"
 835 0565 0A       		.byte	0xa
 836 0566 5B01     		.2byte	0x15b
 837 0568 25050000 		.4byte	0x525
 838 056c 00       		.byte	0
 839 056d 0B       		.uleb128 0xb
 840 056e 73313700 		.ascii	"s17\000"
 841 0572 0A       		.byte	0xa
 842 0573 5C01     		.2byte	0x15c
 843 0575 25050000 		.4byte	0x525
 844 0579 04       		.byte	0x4
 845 057a 0B       		.uleb128 0xb
 846 057b 73313800 		.ascii	"s18\000"
 847 057f 0A       		.byte	0xa
 848 0580 5D01     		.2byte	0x15d
 849 0582 25050000 		.4byte	0x525
ARM GAS  /tmp/ccBJxKEZ.s 			page 16


 850 0586 08       		.byte	0x8
 851 0587 0B       		.uleb128 0xb
 852 0588 73313900 		.ascii	"s19\000"
 853 058c 0A       		.byte	0xa
 854 058d 5E01     		.2byte	0x15e
 855 058f 25050000 		.4byte	0x525
 856 0593 0C       		.byte	0xc
 857 0594 0B       		.uleb128 0xb
 858 0595 73323000 		.ascii	"s20\000"
 859 0599 0A       		.byte	0xa
 860 059a 5F01     		.2byte	0x15f
 861 059c 25050000 		.4byte	0x525
 862 05a0 10       		.byte	0x10
 863 05a1 0B       		.uleb128 0xb
 864 05a2 73323100 		.ascii	"s21\000"
 865 05a6 0A       		.byte	0xa
 866 05a7 6001     		.2byte	0x160
 867 05a9 25050000 		.4byte	0x525
 868 05ad 14       		.byte	0x14
 869 05ae 0B       		.uleb128 0xb
 870 05af 73323200 		.ascii	"s22\000"
 871 05b3 0A       		.byte	0xa
 872 05b4 6101     		.2byte	0x161
 873 05b6 25050000 		.4byte	0x525
 874 05ba 18       		.byte	0x18
 875 05bb 0B       		.uleb128 0xb
 876 05bc 73323300 		.ascii	"s23\000"
 877 05c0 0A       		.byte	0xa
 878 05c1 6201     		.2byte	0x162
 879 05c3 25050000 		.4byte	0x525
 880 05c7 1C       		.byte	0x1c
 881 05c8 0B       		.uleb128 0xb
 882 05c9 73323400 		.ascii	"s24\000"
 883 05cd 0A       		.byte	0xa
 884 05ce 6301     		.2byte	0x163
 885 05d0 25050000 		.4byte	0x525
 886 05d4 20       		.byte	0x20
 887 05d5 0B       		.uleb128 0xb
 888 05d6 73323500 		.ascii	"s25\000"
 889 05da 0A       		.byte	0xa
 890 05db 6401     		.2byte	0x164
 891 05dd 25050000 		.4byte	0x525
 892 05e1 24       		.byte	0x24
 893 05e2 0B       		.uleb128 0xb
 894 05e3 73323600 		.ascii	"s26\000"
 895 05e7 0A       		.byte	0xa
 896 05e8 6501     		.2byte	0x165
 897 05ea 25050000 		.4byte	0x525
 898 05ee 28       		.byte	0x28
 899 05ef 0B       		.uleb128 0xb
 900 05f0 73323700 		.ascii	"s27\000"
 901 05f4 0A       		.byte	0xa
 902 05f5 6601     		.2byte	0x166
 903 05f7 25050000 		.4byte	0x525
 904 05fb 2C       		.byte	0x2c
 905 05fc 0B       		.uleb128 0xb
 906 05fd 73323800 		.ascii	"s28\000"
ARM GAS  /tmp/ccBJxKEZ.s 			page 17


 907 0601 0A       		.byte	0xa
 908 0602 6701     		.2byte	0x167
 909 0604 25050000 		.4byte	0x525
 910 0608 30       		.byte	0x30
 911 0609 0B       		.uleb128 0xb
 912 060a 73323900 		.ascii	"s29\000"
 913 060e 0A       		.byte	0xa
 914 060f 6801     		.2byte	0x168
 915 0611 25050000 		.4byte	0x525
 916 0615 34       		.byte	0x34
 917 0616 0B       		.uleb128 0xb
 918 0617 73333000 		.ascii	"s30\000"
 919 061b 0A       		.byte	0xa
 920 061c 6901     		.2byte	0x169
 921 061e 25050000 		.4byte	0x525
 922 0622 38       		.byte	0x38
 923 0623 0B       		.uleb128 0xb
 924 0624 73333100 		.ascii	"s31\000"
 925 0628 0A       		.byte	0xa
 926 0629 6A01     		.2byte	0x16a
 927 062b 25050000 		.4byte	0x525
 928 062f 3C       		.byte	0x3c
 929 0630 0B       		.uleb128 0xb
 930 0631 723400   		.ascii	"r4\000"
 931 0634 0A       		.byte	0xa
 932 0635 6C01     		.2byte	0x16c
 933 0637 25050000 		.4byte	0x525
 934 063b 40       		.byte	0x40
 935 063c 0B       		.uleb128 0xb
 936 063d 723500   		.ascii	"r5\000"
 937 0640 0A       		.byte	0xa
 938 0641 6D01     		.2byte	0x16d
 939 0643 25050000 		.4byte	0x525
 940 0647 44       		.byte	0x44
 941 0648 0B       		.uleb128 0xb
 942 0649 723600   		.ascii	"r6\000"
 943 064c 0A       		.byte	0xa
 944 064d 6E01     		.2byte	0x16e
 945 064f 25050000 		.4byte	0x525
 946 0653 48       		.byte	0x48
 947 0654 0B       		.uleb128 0xb
 948 0655 723700   		.ascii	"r7\000"
 949 0658 0A       		.byte	0xa
 950 0659 6F01     		.2byte	0x16f
 951 065b 25050000 		.4byte	0x525
 952 065f 4C       		.byte	0x4c
 953 0660 0B       		.uleb128 0xb
 954 0661 723800   		.ascii	"r8\000"
 955 0664 0A       		.byte	0xa
 956 0665 7001     		.2byte	0x170
 957 0667 25050000 		.4byte	0x525
 958 066b 50       		.byte	0x50
 959 066c 0B       		.uleb128 0xb
 960 066d 723900   		.ascii	"r9\000"
 961 0670 0A       		.byte	0xa
 962 0671 7101     		.2byte	0x171
 963 0673 25050000 		.4byte	0x525
ARM GAS  /tmp/ccBJxKEZ.s 			page 18


 964 0677 54       		.byte	0x54
 965 0678 0B       		.uleb128 0xb
 966 0679 72313000 		.ascii	"r10\000"
 967 067d 0A       		.byte	0xa
 968 067e 7201     		.2byte	0x172
 969 0680 25050000 		.4byte	0x525
 970 0684 58       		.byte	0x58
 971 0685 0B       		.uleb128 0xb
 972 0686 72313100 		.ascii	"r11\000"
 973 068a 0A       		.byte	0xa
 974 068b 7301     		.2byte	0x173
 975 068d 25050000 		.4byte	0x525
 976 0691 5C       		.byte	0x5c
 977 0692 0B       		.uleb128 0xb
 978 0693 6C7200   		.ascii	"lr\000"
 979 0696 0A       		.byte	0xa
 980 0697 7401     		.2byte	0x174
 981 0699 25050000 		.4byte	0x525
 982 069d 60       		.byte	0x60
 983 069e 00       		.byte	0
 984 069f 0D       		.uleb128 0xd
 985 06a0 04       		.byte	0x4
 986 06a1 53050000 		.4byte	0x553
 987 06a5 15       		.uleb128 0x15
 988 06a6 04       		.byte	0x4
 989 06a7 0B       		.byte	0xb
 990 06a8 38       		.byte	0x38
 991 06a9 17060000 		.4byte	.LASF99
 992 06ad BE060000 		.4byte	0x6be
 993 06b1 09       		.uleb128 0x9
 994 06b2 CD050000 		.4byte	.LASF97
 995 06b6 0B       		.byte	0xb
 996 06b7 3C       		.byte	0x3c
 997 06b8 C3000000 		.4byte	0xc3
 998 06bc 00       		.byte	0
 999 06bd 00       		.byte	0
 1000 06be 03       		.uleb128 0x3
 1001 06bf 18040000 		.4byte	.LASF98
 1002 06c3 0B       		.byte	0xb
 1003 06c4 3D       		.byte	0x3d
 1004 06c5 A5060000 		.4byte	0x6a5
 1005 06c9 15       		.uleb128 0x15
 1006 06ca 18       		.byte	0x18
 1007 06cb 0B       		.byte	0xb
 1008 06cc 48       		.byte	0x48
 1009 06cd E6030000 		.4byte	.LASF100
 1010 06d1 10070000 		.4byte	0x710
 1011 06d5 09       		.uleb128 0x9
 1012 06d6 AB050000 		.4byte	.LASF101
 1013 06da 0B       		.byte	0xb
 1014 06db 49       		.byte	0x49
 1015 06dc C3000000 		.4byte	0xc3
 1016 06e0 00       		.byte	0
 1017 06e1 09       		.uleb128 0x9
 1018 06e2 7E010000 		.4byte	.LASF102
 1019 06e6 0B       		.byte	0xb
 1020 06e7 4A       		.byte	0x4a
ARM GAS  /tmp/ccBJxKEZ.s 			page 19


 1021 06e8 C3000000 		.4byte	0xc3
 1022 06ec 04       		.byte	0x4
 1023 06ed 09       		.uleb128 0x9
 1024 06ee 2C030000 		.4byte	.LASF103
 1025 06f2 0B       		.byte	0xb
 1026 06f3 4B       		.byte	0x4b
 1027 06f4 C3000000 		.4byte	0xc3
 1028 06f8 08       		.byte	0x8
 1029 06f9 0A       		.uleb128 0xa
 1030 06fa 6E00     		.ascii	"n\000"
 1031 06fc 0B       		.byte	0xb
 1032 06fd 4C       		.byte	0x4c
 1033 06fe 26010000 		.4byte	0x126
 1034 0702 0C       		.byte	0xc
 1035 0703 09       		.uleb128 0x9
 1036 0704 41040000 		.4byte	.LASF104
 1037 0708 0B       		.byte	0xb
 1038 0709 4D       		.byte	0x4d
 1039 070a CE000000 		.4byte	0xce
 1040 070e 10       		.byte	0x10
 1041 070f 00       		.byte	0
 1042 0710 03       		.uleb128 0x3
 1043 0711 8C010000 		.4byte	.LASF105
 1044 0715 0B       		.byte	0xb
 1045 0716 4E       		.byte	0x4e
 1046 0717 C9060000 		.4byte	0x6c9
 1047 071b 15       		.uleb128 0x15
 1048 071c 38       		.byte	0x38
 1049 071d 0C       		.byte	0xc
 1050 071e 38       		.byte	0x38
 1051 071f 4D060000 		.4byte	.LASF106
 1052 0723 58070000 		.4byte	0x758
 1053 0727 09       		.uleb128 0x9
 1054 0728 F0020000 		.4byte	.LASF107
 1055 072c 0C       		.byte	0xc
 1056 072d 39       		.byte	0x39
 1057 072e 26010000 		.4byte	0x126
 1058 0732 00       		.byte	0
 1059 0733 09       		.uleb128 0x9
 1060 0734 77040000 		.4byte	.LASF108
 1061 0738 0C       		.byte	0xc
 1062 0739 3A       		.byte	0x3a
 1063 073a 26010000 		.4byte	0x126
 1064 073e 04       		.byte	0x4
 1065 073f 09       		.uleb128 0x9
 1066 0740 89060000 		.4byte	.LASF109
 1067 0744 0C       		.byte	0xc
 1068 0745 3B       		.byte	0x3b
 1069 0746 10070000 		.4byte	0x710
 1070 074a 08       		.byte	0x8
 1071 074b 09       		.uleb128 0x9
 1072 074c 5E030000 		.4byte	.LASF110
 1073 0750 0C       		.byte	0xc
 1074 0751 3D       		.byte	0x3d
 1075 0752 10070000 		.4byte	0x710
 1076 0756 20       		.byte	0x20
 1077 0757 00       		.byte	0
ARM GAS  /tmp/ccBJxKEZ.s 			page 20


 1078 0758 03       		.uleb128 0x3
 1079 0759 08030000 		.4byte	.LASF111
 1080 075d 0C       		.byte	0xc
 1081 075e 3F       		.byte	0x3f
 1082 075f 1B070000 		.4byte	0x71b
 1083 0763 0D       		.uleb128 0xd
 1084 0764 04       		.byte	0x4
 1085 0765 95020000 		.4byte	0x295
 1086 0769 05       		.uleb128 0x5
 1087 076a 18050000 		.4byte	.LASF112
 1088 076e 0C       		.byte	0xc
 1089 076f 0D       		.byte	0xd
 1090 0770 34       		.byte	0x34
 1091 0771 8E070000 		.4byte	0x78e
 1092 0775 09       		.uleb128 0x9
 1093 0776 F6020000 		.4byte	.LASF37
 1094 077a 0D       		.byte	0xd
 1095 077b 35       		.byte	0x35
 1096 077c CA020000 		.4byte	0x2ca
 1097 0780 00       		.byte	0
 1098 0781 0A       		.uleb128 0xa
 1099 0782 636E7400 		.ascii	"cnt\000"
 1100 0786 0D       		.byte	0xd
 1101 0787 37       		.byte	0x37
 1102 0788 1B010000 		.4byte	0x11b
 1103 078c 08       		.byte	0x8
 1104 078d 00       		.byte	0
 1105 078e 0D       		.uleb128 0xd
 1106 078f 04       		.byte	0x4
 1107 0790 69070000 		.4byte	0x769
 1108 0794 05       		.uleb128 0x5
 1109 0795 D4050000 		.4byte	.LASF113
 1110 0799 10       		.byte	0x10
 1111 079a 0E       		.byte	0xe
 1112 079b 39       		.byte	0x39
 1113 079c C5070000 		.4byte	0x7c5
 1114 07a0 09       		.uleb128 0x9
 1115 07a1 F6020000 		.4byte	.LASF37
 1116 07a5 0E       		.byte	0xe
 1117 07a6 3A       		.byte	0x3a
 1118 07a7 CA020000 		.4byte	0x2ca
 1119 07ab 00       		.byte	0
 1120 07ac 09       		.uleb128 0x9
 1121 07ad 45050000 		.4byte	.LASF114
 1122 07b1 0E       		.byte	0xe
 1123 07b2 3C       		.byte	0x3c
 1124 07b3 A0020000 		.4byte	0x2a0
 1125 07b7 08       		.byte	0x8
 1126 07b8 09       		.uleb128 0x9
 1127 07b9 F5010000 		.4byte	.LASF57
 1128 07bd 0E       		.byte	0xe
 1129 07be 3E       		.byte	0x3e
 1130 07bf F9070000 		.4byte	0x7f9
 1131 07c3 0C       		.byte	0xc
 1132 07c4 00       		.byte	0
 1133 07c5 0D       		.uleb128 0xd
 1134 07c6 04       		.byte	0x4
ARM GAS  /tmp/ccBJxKEZ.s 			page 21


 1135 07c7 94070000 		.4byte	0x794
 1136 07cb 0D       		.uleb128 0xd
 1137 07cc 04       		.byte	0x4
 1138 07cd D1070000 		.4byte	0x7d1
 1139 07d1 16       		.uleb128 0x16
 1140 07d2 D6070000 		.4byte	0x7d6
 1141 07d6 02       		.uleb128 0x2
 1142 07d7 01       		.byte	0x1
 1143 07d8 08       		.byte	0x8
 1144 07d9 8B050000 		.4byte	.LASF115
 1145 07dd 0D       		.uleb128 0xd
 1146 07de 04       		.byte	0x4
 1147 07df 30050000 		.4byte	0x530
 1148 07e3 0D       		.uleb128 0xd
 1149 07e4 04       		.byte	0x4
 1150 07e5 7F030000 		.4byte	0x37f
 1151 07e9 17       		.uleb128 0x17
 1152 07ea CB070000 		.4byte	0x7cb
 1153 07ee 03       		.uleb128 0x3
 1154 07ef CE020000 		.4byte	.LASF116
 1155 07f3 0E       		.byte	0xe
 1156 07f4 34       		.byte	0x34
 1157 07f5 94070000 		.4byte	0x794
 1158 07f9 0D       		.uleb128 0xd
 1159 07fa 04       		.byte	0x4
 1160 07fb EE070000 		.4byte	0x7ee
 1161 07ff 02       		.uleb128 0x2
 1162 0800 01       		.byte	0x1
 1163 0801 02       		.byte	0x2
 1164 0802 59030000 		.4byte	.LASF117
 1165 0806 18       		.uleb128 0x18
 1166 0807 7F050000 		.4byte	.LASF127
 1167 080b 02       		.byte	0x2
 1168 080c CC01     		.2byte	0x1cc
 1169 080e 03       		.byte	0x3
 1170 080f 20080000 		.4byte	0x820
 1171 0813 19       		.uleb128 0x19
 1172 0814 F9040000 		.4byte	.LASF128
 1173 0818 02       		.byte	0x2
 1174 0819 CC01     		.2byte	0x1cc
 1175 081b CB070000 		.4byte	0x7cb
 1176 081f 00       		.byte	0
 1177 0820 1A       		.uleb128 0x1a
 1178 0821 02030000 		.4byte	.LASF119
 1179 0825 01       		.byte	0x1
 1180 0826 0C       		.byte	0xc
 1181 0827 00000000 		.4byte	.LFB277
 1182 082b 10000000 		.4byte	.LFE277-.LFB277
 1183 082f 01       		.uleb128 0x1
 1184 0830 9C       		.byte	0x9c
 1185 0831 74080000 		.4byte	0x874
 1186 0835 1B       		.uleb128 0x1b
 1187 0836 2A060000 		.4byte	.LASF118
 1188 083a 01       		.byte	0x1
 1189 083b 0C       		.byte	0xc
 1190 083c 89000000 		.4byte	0x89
 1191 0840 00000000 		.4byte	.LLST0
ARM GAS  /tmp/ccBJxKEZ.s 			page 22


 1192 0844 1C       		.uleb128 0x1c
 1193 0845 06080000 		.4byte	0x806
 1194 0849 02000000 		.4byte	.LBB6
 1195 084d 06000000 		.4byte	.LBE6-.LBB6
 1196 0851 01       		.byte	0x1
 1197 0852 0E       		.byte	0xe
 1198 0853 1D       		.uleb128 0x1d
 1199 0854 13080000 		.4byte	0x813
 1200 0858 06       		.uleb128 0x6
 1201 0859 03       		.byte	0x3
 1202 085a 00000000 		.4byte	.LC0
 1203 085e 9F       		.byte	0x9f
 1204 085f 1E       		.uleb128 0x1e
 1205 0860 08000000 		.4byte	.LVL2
 1206 0864 38090000 		.4byte	0x938
 1207 0868 1F       		.uleb128 0x1f
 1208 0869 01       		.uleb128 0x1
 1209 086a 50       		.byte	0x50
 1210 086b 05       		.uleb128 0x5
 1211 086c 03       		.byte	0x3
 1212 086d 00000000 		.4byte	.LC0
 1213 0871 00       		.byte	0
 1214 0872 00       		.byte	0
 1215 0873 00       		.byte	0
 1216 0874 20       		.uleb128 0x20
 1217 0875 DD050000 		.4byte	.LASF129
 1218 0879 01       		.byte	0x1
 1219 087a 14       		.byte	0x14
 1220 087b 89000000 		.4byte	0x89
 1221 087f 00000000 		.4byte	.LFB278
 1222 0883 10000000 		.4byte	.LFE278-.LFB278
 1223 0887 01       		.uleb128 0x1
 1224 0888 9C       		.byte	0x9c
 1225 0889 AA080000 		.4byte	0x8aa
 1226 088d 21       		.uleb128 0x21
 1227 088e 70696400 		.ascii	"pid\000"
 1228 0892 01       		.byte	0x1
 1229 0893 14       		.byte	0x14
 1230 0894 89000000 		.4byte	0x89
 1231 0898 21000000 		.4byte	.LLST1
 1232 089c 22       		.uleb128 0x22
 1233 089d 73696700 		.ascii	"sig\000"
 1234 08a1 01       		.byte	0x1
 1235 08a2 14       		.byte	0x14
 1236 08a3 89000000 		.4byte	0x89
 1237 08a7 01       		.uleb128 0x1
 1238 08a8 51       		.byte	0x51
 1239 08a9 00       		.byte	0
 1240 08aa 23       		.uleb128 0x23
 1241 08ab 5E050000 		.4byte	.LASF130
 1242 08af 01       		.byte	0x1
 1243 08b0 1B       		.byte	0x1b
 1244 08b1 00000000 		.4byte	.LFB279
 1245 08b5 02000000 		.4byte	.LFE279-.LFB279
 1246 08b9 01       		.uleb128 0x1
 1247 08ba 9C       		.byte	0x9c
 1248 08bb 1A       		.uleb128 0x1a
ARM GAS  /tmp/ccBJxKEZ.s 			page 23


 1249 08bc 4B050000 		.4byte	.LASF120
 1250 08c0 01       		.byte	0x1
 1251 08c1 1F       		.byte	0x1f
 1252 08c2 00000000 		.4byte	.LFB280
 1253 08c6 0C000000 		.4byte	.LFE280-.LFB280
 1254 08ca 01       		.uleb128 0x1
 1255 08cb 9C       		.byte	0x9c
 1256 08cc 00090000 		.4byte	0x900
 1257 08d0 1C       		.uleb128 0x1c
 1258 08d1 06080000 		.4byte	0x806
 1259 08d5 00000000 		.4byte	.LBB8
 1260 08d9 0C000000 		.4byte	.LBE8-.LBB8
 1261 08dd 01       		.byte	0x1
 1262 08de 20       		.byte	0x20
 1263 08df 1D       		.uleb128 0x1d
 1264 08e0 13080000 		.4byte	0x813
 1265 08e4 06       		.uleb128 0x6
 1266 08e5 03       		.byte	0x3
 1267 08e6 0B000000 		.4byte	.LC1
 1268 08ea 9F       		.byte	0x9f
 1269 08eb 24       		.uleb128 0x24
 1270 08ec 06000000 		.4byte	.LVL6
 1271 08f0 38090000 		.4byte	0x938
 1272 08f4 1F       		.uleb128 0x1f
 1273 08f5 01       		.uleb128 0x1
 1274 08f6 50       		.byte	0x50
 1275 08f7 05       		.uleb128 0x5
 1276 08f8 03       		.byte	0x3
 1277 08f9 0B000000 		.4byte	.LC1
 1278 08fd 00       		.byte	0
 1279 08fe 00       		.byte	0
 1280 08ff 00       		.byte	0
 1281 0900 25       		.uleb128 0x25
 1282 0901 E8010000 		.4byte	.LASF121
 1283 0905 0F       		.byte	0xf
 1284 0906 4407     		.2byte	0x744
 1285 0908 0C090000 		.4byte	0x90c
 1286 090c 17       		.uleb128 0x17
 1287 090d A2000000 		.4byte	0xa2
 1288 0911 26       		.uleb128 0x26
 1289 0912 636800   		.ascii	"ch\000"
 1290 0915 07       		.byte	0x7
 1291 0916 D201     		.2byte	0x1d2
 1292 0918 4C040000 		.4byte	0x44c
 1293 091c 27       		.uleb128 0x27
 1294 091d 8D030000 		.4byte	.LASF122
 1295 0921 01       		.byte	0x1
 1296 0922 13       		.byte	0x13
 1297 0923 89000000 		.4byte	0x89
 1298 0927 28       		.uleb128 0x28
 1299 0928 7C060000 		.4byte	.LASF123
 1300 092c 10       		.byte	0x10
 1301 092d 0B       		.byte	0xb
 1302 092e 7D030000 		.4byte	0x37d
 1303 0932 05       		.uleb128 0x5
 1304 0933 03       		.byte	0x3
 1305 0934 00000000 		.4byte	__dso_handle
ARM GAS  /tmp/ccBJxKEZ.s 			page 24


 1306 0938 29       		.uleb128 0x29
 1307 0939 AC020000 		.4byte	.LASF131
 1308 093d 11       		.byte	0x11
 1309 093e 3201     		.2byte	0x132
 1310 0940 10       		.uleb128 0x10
 1311 0941 CB070000 		.4byte	0x7cb
 1312 0945 00       		.byte	0
 1313 0946 00       		.byte	0
 1314              		.section	.debug_abbrev,"",%progbits
 1315              	.Ldebug_abbrev0:
 1316 0000 01       		.uleb128 0x1
 1317 0001 11       		.uleb128 0x11
 1318 0002 01       		.byte	0x1
 1319 0003 25       		.uleb128 0x25
 1320 0004 0E       		.uleb128 0xe
 1321 0005 13       		.uleb128 0x13
 1322 0006 0B       		.uleb128 0xb
 1323 0007 03       		.uleb128 0x3
 1324 0008 0E       		.uleb128 0xe
 1325 0009 1B       		.uleb128 0x1b
 1326 000a 0E       		.uleb128 0xe
 1327 000b 55       		.uleb128 0x55
 1328 000c 17       		.uleb128 0x17
 1329 000d 11       		.uleb128 0x11
 1330 000e 01       		.uleb128 0x1
 1331 000f 10       		.uleb128 0x10
 1332 0010 17       		.uleb128 0x17
 1333 0011 00       		.byte	0
 1334 0012 00       		.byte	0
 1335 0013 02       		.uleb128 0x2
 1336 0014 24       		.uleb128 0x24
 1337 0015 00       		.byte	0
 1338 0016 0B       		.uleb128 0xb
 1339 0017 0B       		.uleb128 0xb
 1340 0018 3E       		.uleb128 0x3e
 1341 0019 0B       		.uleb128 0xb
 1342 001a 03       		.uleb128 0x3
 1343 001b 0E       		.uleb128 0xe
 1344 001c 00       		.byte	0
 1345 001d 00       		.byte	0
 1346 001e 03       		.uleb128 0x3
 1347 001f 16       		.uleb128 0x16
 1348 0020 00       		.byte	0
 1349 0021 03       		.uleb128 0x3
 1350 0022 0E       		.uleb128 0xe
 1351 0023 3A       		.uleb128 0x3a
 1352 0024 0B       		.uleb128 0xb
 1353 0025 3B       		.uleb128 0x3b
 1354 0026 0B       		.uleb128 0xb
 1355 0027 49       		.uleb128 0x49
 1356 0028 13       		.uleb128 0x13
 1357 0029 00       		.byte	0
 1358 002a 00       		.byte	0
 1359 002b 04       		.uleb128 0x4
 1360 002c 24       		.uleb128 0x24
 1361 002d 00       		.byte	0
 1362 002e 0B       		.uleb128 0xb
ARM GAS  /tmp/ccBJxKEZ.s 			page 25


 1363 002f 0B       		.uleb128 0xb
 1364 0030 3E       		.uleb128 0x3e
 1365 0031 0B       		.uleb128 0xb
 1366 0032 03       		.uleb128 0x3
 1367 0033 08       		.uleb128 0x8
 1368 0034 00       		.byte	0
 1369 0035 00       		.byte	0
 1370 0036 05       		.uleb128 0x5
 1371 0037 13       		.uleb128 0x13
 1372 0038 01       		.byte	0x1
 1373 0039 03       		.uleb128 0x3
 1374 003a 0E       		.uleb128 0xe
 1375 003b 0B       		.uleb128 0xb
 1376 003c 0B       		.uleb128 0xb
 1377 003d 3A       		.uleb128 0x3a
 1378 003e 0B       		.uleb128 0xb
 1379 003f 3B       		.uleb128 0x3b
 1380 0040 0B       		.uleb128 0xb
 1381 0041 01       		.uleb128 0x1
 1382 0042 13       		.uleb128 0x13
 1383 0043 00       		.byte	0
 1384 0044 00       		.byte	0
 1385 0045 06       		.uleb128 0x6
 1386 0046 17       		.uleb128 0x17
 1387 0047 01       		.byte	0x1
 1388 0048 0B       		.uleb128 0xb
 1389 0049 0B       		.uleb128 0xb
 1390 004a 3A       		.uleb128 0x3a
 1391 004b 0B       		.uleb128 0xb
 1392 004c 3B       		.uleb128 0x3b
 1393 004d 0B       		.uleb128 0xb
 1394 004e 01       		.uleb128 0x1
 1395 004f 13       		.uleb128 0x13
 1396 0050 00       		.byte	0
 1397 0051 00       		.byte	0
 1398 0052 07       		.uleb128 0x7
 1399 0053 0D       		.uleb128 0xd
 1400 0054 00       		.byte	0
 1401 0055 03       		.uleb128 0x3
 1402 0056 0E       		.uleb128 0xe
 1403 0057 3A       		.uleb128 0x3a
 1404 0058 0B       		.uleb128 0xb
 1405 0059 3B       		.uleb128 0x3b
 1406 005a 0B       		.uleb128 0xb
 1407 005b 49       		.uleb128 0x49
 1408 005c 13       		.uleb128 0x13
 1409 005d 00       		.byte	0
 1410 005e 00       		.byte	0
 1411 005f 08       		.uleb128 0x8
 1412 0060 0D       		.uleb128 0xd
 1413 0061 00       		.byte	0
 1414 0062 03       		.uleb128 0x3
 1415 0063 0E       		.uleb128 0xe
 1416 0064 3A       		.uleb128 0x3a
 1417 0065 0B       		.uleb128 0xb
 1418 0066 3B       		.uleb128 0x3b
 1419 0067 05       		.uleb128 0x5
ARM GAS  /tmp/ccBJxKEZ.s 			page 26


 1420 0068 49       		.uleb128 0x49
 1421 0069 13       		.uleb128 0x13
 1422 006a 00       		.byte	0
 1423 006b 00       		.byte	0
 1424 006c 09       		.uleb128 0x9
 1425 006d 0D       		.uleb128 0xd
 1426 006e 00       		.byte	0
 1427 006f 03       		.uleb128 0x3
 1428 0070 0E       		.uleb128 0xe
 1429 0071 3A       		.uleb128 0x3a
 1430 0072 0B       		.uleb128 0xb
 1431 0073 3B       		.uleb128 0x3b
 1432 0074 0B       		.uleb128 0xb
 1433 0075 49       		.uleb128 0x49
 1434 0076 13       		.uleb128 0x13
 1435 0077 38       		.uleb128 0x38
 1436 0078 0B       		.uleb128 0xb
 1437 0079 00       		.byte	0
 1438 007a 00       		.byte	0
 1439 007b 0A       		.uleb128 0xa
 1440 007c 0D       		.uleb128 0xd
 1441 007d 00       		.byte	0
 1442 007e 03       		.uleb128 0x3
 1443 007f 08       		.uleb128 0x8
 1444 0080 3A       		.uleb128 0x3a
 1445 0081 0B       		.uleb128 0xb
 1446 0082 3B       		.uleb128 0x3b
 1447 0083 0B       		.uleb128 0xb
 1448 0084 49       		.uleb128 0x49
 1449 0085 13       		.uleb128 0x13
 1450 0086 38       		.uleb128 0x38
 1451 0087 0B       		.uleb128 0xb
 1452 0088 00       		.byte	0
 1453 0089 00       		.byte	0
 1454 008a 0B       		.uleb128 0xb
 1455 008b 0D       		.uleb128 0xd
 1456 008c 00       		.byte	0
 1457 008d 03       		.uleb128 0x3
 1458 008e 08       		.uleb128 0x8
 1459 008f 3A       		.uleb128 0x3a
 1460 0090 0B       		.uleb128 0xb
 1461 0091 3B       		.uleb128 0x3b
 1462 0092 05       		.uleb128 0x5
 1463 0093 49       		.uleb128 0x49
 1464 0094 13       		.uleb128 0x13
 1465 0095 38       		.uleb128 0x38
 1466 0096 0B       		.uleb128 0xb
 1467 0097 00       		.byte	0
 1468 0098 00       		.byte	0
 1469 0099 0C       		.uleb128 0xc
 1470 009a 0D       		.uleb128 0xd
 1471 009b 00       		.byte	0
 1472 009c 03       		.uleb128 0x3
 1473 009d 0E       		.uleb128 0xe
 1474 009e 3A       		.uleb128 0x3a
 1475 009f 0B       		.uleb128 0xb
 1476 00a0 3B       		.uleb128 0x3b
ARM GAS  /tmp/ccBJxKEZ.s 			page 27


 1477 00a1 05       		.uleb128 0x5
 1478 00a2 49       		.uleb128 0x49
 1479 00a3 13       		.uleb128 0x13
 1480 00a4 38       		.uleb128 0x38
 1481 00a5 0B       		.uleb128 0xb
 1482 00a6 00       		.byte	0
 1483 00a7 00       		.byte	0
 1484 00a8 0D       		.uleb128 0xd
 1485 00a9 0F       		.uleb128 0xf
 1486 00aa 00       		.byte	0
 1487 00ab 0B       		.uleb128 0xb
 1488 00ac 0B       		.uleb128 0xb
 1489 00ad 49       		.uleb128 0x49
 1490 00ae 13       		.uleb128 0x13
 1491 00af 00       		.byte	0
 1492 00b0 00       		.byte	0
 1493 00b1 0E       		.uleb128 0xe
 1494 00b2 13       		.uleb128 0x13
 1495 00b3 01       		.byte	0x1
 1496 00b4 03       		.uleb128 0x3
 1497 00b5 0E       		.uleb128 0xe
 1498 00b6 0B       		.uleb128 0xb
 1499 00b7 0B       		.uleb128 0xb
 1500 00b8 3A       		.uleb128 0x3a
 1501 00b9 0B       		.uleb128 0xb
 1502 00ba 3B       		.uleb128 0x3b
 1503 00bb 05       		.uleb128 0x5
 1504 00bc 01       		.uleb128 0x1
 1505 00bd 13       		.uleb128 0x13
 1506 00be 00       		.byte	0
 1507 00bf 00       		.byte	0
 1508 00c0 0F       		.uleb128 0xf
 1509 00c1 15       		.uleb128 0x15
 1510 00c2 01       		.byte	0x1
 1511 00c3 01       		.uleb128 0x1
 1512 00c4 13       		.uleb128 0x13
 1513 00c5 00       		.byte	0
 1514 00c6 00       		.byte	0
 1515 00c7 10       		.uleb128 0x10
 1516 00c8 05       		.uleb128 0x5
 1517 00c9 00       		.byte	0
 1518 00ca 49       		.uleb128 0x49
 1519 00cb 13       		.uleb128 0x13
 1520 00cc 00       		.byte	0
 1521 00cd 00       		.byte	0
 1522 00ce 11       		.uleb128 0x11
 1523 00cf 0F       		.uleb128 0xf
 1524 00d0 00       		.byte	0
 1525 00d1 0B       		.uleb128 0xb
 1526 00d2 0B       		.uleb128 0xb
 1527 00d3 00       		.byte	0
 1528 00d4 00       		.byte	0
 1529 00d5 12       		.uleb128 0x12
 1530 00d6 04       		.uleb128 0x4
 1531 00d7 01       		.byte	0x1
 1532 00d8 0B       		.uleb128 0xb
 1533 00d9 0B       		.uleb128 0xb
ARM GAS  /tmp/ccBJxKEZ.s 			page 28


 1534 00da 3A       		.uleb128 0x3a
 1535 00db 0B       		.uleb128 0xb
 1536 00dc 3B       		.uleb128 0x3b
 1537 00dd 0B       		.uleb128 0xb
 1538 00de 6E       		.uleb128 0x6e
 1539 00df 0E       		.uleb128 0xe
 1540 00e0 01       		.uleb128 0x1
 1541 00e1 13       		.uleb128 0x13
 1542 00e2 00       		.byte	0
 1543 00e3 00       		.byte	0
 1544 00e4 13       		.uleb128 0x13
 1545 00e5 28       		.uleb128 0x28
 1546 00e6 00       		.byte	0
 1547 00e7 03       		.uleb128 0x3
 1548 00e8 0E       		.uleb128 0xe
 1549 00e9 1C       		.uleb128 0x1c
 1550 00ea 0D       		.uleb128 0xd
 1551 00eb 00       		.byte	0
 1552 00ec 00       		.byte	0
 1553 00ed 14       		.uleb128 0x14
 1554 00ee 28       		.uleb128 0x28
 1555 00ef 00       		.byte	0
 1556 00f0 03       		.uleb128 0x3
 1557 00f1 08       		.uleb128 0x8
 1558 00f2 1C       		.uleb128 0x1c
 1559 00f3 0D       		.uleb128 0xd
 1560 00f4 00       		.byte	0
 1561 00f5 00       		.byte	0
 1562 00f6 15       		.uleb128 0x15
 1563 00f7 13       		.uleb128 0x13
 1564 00f8 01       		.byte	0x1
 1565 00f9 0B       		.uleb128 0xb
 1566 00fa 0B       		.uleb128 0xb
 1567 00fb 3A       		.uleb128 0x3a
 1568 00fc 0B       		.uleb128 0xb
 1569 00fd 3B       		.uleb128 0x3b
 1570 00fe 0B       		.uleb128 0xb
 1571 00ff 6E       		.uleb128 0x6e
 1572 0100 0E       		.uleb128 0xe
 1573 0101 01       		.uleb128 0x1
 1574 0102 13       		.uleb128 0x13
 1575 0103 00       		.byte	0
 1576 0104 00       		.byte	0
 1577 0105 16       		.uleb128 0x16
 1578 0106 26       		.uleb128 0x26
 1579 0107 00       		.byte	0
 1580 0108 49       		.uleb128 0x49
 1581 0109 13       		.uleb128 0x13
 1582 010a 00       		.byte	0
 1583 010b 00       		.byte	0
 1584 010c 17       		.uleb128 0x17
 1585 010d 35       		.uleb128 0x35
 1586 010e 00       		.byte	0
 1587 010f 49       		.uleb128 0x49
 1588 0110 13       		.uleb128 0x13
 1589 0111 00       		.byte	0
 1590 0112 00       		.byte	0
ARM GAS  /tmp/ccBJxKEZ.s 			page 29


 1591 0113 18       		.uleb128 0x18
 1592 0114 2E       		.uleb128 0x2e
 1593 0115 01       		.byte	0x1
 1594 0116 03       		.uleb128 0x3
 1595 0117 0E       		.uleb128 0xe
 1596 0118 3A       		.uleb128 0x3a
 1597 0119 0B       		.uleb128 0xb
 1598 011a 3B       		.uleb128 0x3b
 1599 011b 05       		.uleb128 0x5
 1600 011c 20       		.uleb128 0x20
 1601 011d 0B       		.uleb128 0xb
 1602 011e 01       		.uleb128 0x1
 1603 011f 13       		.uleb128 0x13
 1604 0120 00       		.byte	0
 1605 0121 00       		.byte	0
 1606 0122 19       		.uleb128 0x19
 1607 0123 05       		.uleb128 0x5
 1608 0124 00       		.byte	0
 1609 0125 03       		.uleb128 0x3
 1610 0126 0E       		.uleb128 0xe
 1611 0127 3A       		.uleb128 0x3a
 1612 0128 0B       		.uleb128 0xb
 1613 0129 3B       		.uleb128 0x3b
 1614 012a 05       		.uleb128 0x5
 1615 012b 49       		.uleb128 0x49
 1616 012c 13       		.uleb128 0x13
 1617 012d 00       		.byte	0
 1618 012e 00       		.byte	0
 1619 012f 1A       		.uleb128 0x1a
 1620 0130 2E       		.uleb128 0x2e
 1621 0131 01       		.byte	0x1
 1622 0132 3F       		.uleb128 0x3f
 1623 0133 19       		.uleb128 0x19
 1624 0134 03       		.uleb128 0x3
 1625 0135 0E       		.uleb128 0xe
 1626 0136 3A       		.uleb128 0x3a
 1627 0137 0B       		.uleb128 0xb
 1628 0138 3B       		.uleb128 0x3b
 1629 0139 0B       		.uleb128 0xb
 1630 013a 11       		.uleb128 0x11
 1631 013b 01       		.uleb128 0x1
 1632 013c 12       		.uleb128 0x12
 1633 013d 06       		.uleb128 0x6
 1634 013e 40       		.uleb128 0x40
 1635 013f 18       		.uleb128 0x18
 1636 0140 9742     		.uleb128 0x2117
 1637 0142 19       		.uleb128 0x19
 1638 0143 01       		.uleb128 0x1
 1639 0144 13       		.uleb128 0x13
 1640 0145 00       		.byte	0
 1641 0146 00       		.byte	0
 1642 0147 1B       		.uleb128 0x1b
 1643 0148 05       		.uleb128 0x5
 1644 0149 00       		.byte	0
 1645 014a 03       		.uleb128 0x3
 1646 014b 0E       		.uleb128 0xe
 1647 014c 3A       		.uleb128 0x3a
ARM GAS  /tmp/ccBJxKEZ.s 			page 30


 1648 014d 0B       		.uleb128 0xb
 1649 014e 3B       		.uleb128 0x3b
 1650 014f 0B       		.uleb128 0xb
 1651 0150 49       		.uleb128 0x49
 1652 0151 13       		.uleb128 0x13
 1653 0152 02       		.uleb128 0x2
 1654 0153 17       		.uleb128 0x17
 1655 0154 00       		.byte	0
 1656 0155 00       		.byte	0
 1657 0156 1C       		.uleb128 0x1c
 1658 0157 1D       		.uleb128 0x1d
 1659 0158 01       		.byte	0x1
 1660 0159 31       		.uleb128 0x31
 1661 015a 13       		.uleb128 0x13
 1662 015b 11       		.uleb128 0x11
 1663 015c 01       		.uleb128 0x1
 1664 015d 12       		.uleb128 0x12
 1665 015e 06       		.uleb128 0x6
 1666 015f 58       		.uleb128 0x58
 1667 0160 0B       		.uleb128 0xb
 1668 0161 59       		.uleb128 0x59
 1669 0162 0B       		.uleb128 0xb
 1670 0163 00       		.byte	0
 1671 0164 00       		.byte	0
 1672 0165 1D       		.uleb128 0x1d
 1673 0166 05       		.uleb128 0x5
 1674 0167 00       		.byte	0
 1675 0168 31       		.uleb128 0x31
 1676 0169 13       		.uleb128 0x13
 1677 016a 02       		.uleb128 0x2
 1678 016b 18       		.uleb128 0x18
 1679 016c 00       		.byte	0
 1680 016d 00       		.byte	0
 1681 016e 1E       		.uleb128 0x1e
 1682 016f 898201   		.uleb128 0x4109
 1683 0172 01       		.byte	0x1
 1684 0173 11       		.uleb128 0x11
 1685 0174 01       		.uleb128 0x1
 1686 0175 31       		.uleb128 0x31
 1687 0176 13       		.uleb128 0x13
 1688 0177 00       		.byte	0
 1689 0178 00       		.byte	0
 1690 0179 1F       		.uleb128 0x1f
 1691 017a 8A8201   		.uleb128 0x410a
 1692 017d 00       		.byte	0
 1693 017e 02       		.uleb128 0x2
 1694 017f 18       		.uleb128 0x18
 1695 0180 9142     		.uleb128 0x2111
 1696 0182 18       		.uleb128 0x18
 1697 0183 00       		.byte	0
 1698 0184 00       		.byte	0
 1699 0185 20       		.uleb128 0x20
 1700 0186 2E       		.uleb128 0x2e
 1701 0187 01       		.byte	0x1
 1702 0188 3F       		.uleb128 0x3f
 1703 0189 19       		.uleb128 0x19
 1704 018a 03       		.uleb128 0x3
ARM GAS  /tmp/ccBJxKEZ.s 			page 31


 1705 018b 0E       		.uleb128 0xe
 1706 018c 3A       		.uleb128 0x3a
 1707 018d 0B       		.uleb128 0xb
 1708 018e 3B       		.uleb128 0x3b
 1709 018f 0B       		.uleb128 0xb
 1710 0190 49       		.uleb128 0x49
 1711 0191 13       		.uleb128 0x13
 1712 0192 11       		.uleb128 0x11
 1713 0193 01       		.uleb128 0x1
 1714 0194 12       		.uleb128 0x12
 1715 0195 06       		.uleb128 0x6
 1716 0196 40       		.uleb128 0x40
 1717 0197 18       		.uleb128 0x18
 1718 0198 9742     		.uleb128 0x2117
 1719 019a 19       		.uleb128 0x19
 1720 019b 01       		.uleb128 0x1
 1721 019c 13       		.uleb128 0x13
 1722 019d 00       		.byte	0
 1723 019e 00       		.byte	0
 1724 019f 21       		.uleb128 0x21
 1725 01a0 05       		.uleb128 0x5
 1726 01a1 00       		.byte	0
 1727 01a2 03       		.uleb128 0x3
 1728 01a3 08       		.uleb128 0x8
 1729 01a4 3A       		.uleb128 0x3a
 1730 01a5 0B       		.uleb128 0xb
 1731 01a6 3B       		.uleb128 0x3b
 1732 01a7 0B       		.uleb128 0xb
 1733 01a8 49       		.uleb128 0x49
 1734 01a9 13       		.uleb128 0x13
 1735 01aa 02       		.uleb128 0x2
 1736 01ab 17       		.uleb128 0x17
 1737 01ac 00       		.byte	0
 1738 01ad 00       		.byte	0
 1739 01ae 22       		.uleb128 0x22
 1740 01af 05       		.uleb128 0x5
 1741 01b0 00       		.byte	0
 1742 01b1 03       		.uleb128 0x3
 1743 01b2 08       		.uleb128 0x8
 1744 01b3 3A       		.uleb128 0x3a
 1745 01b4 0B       		.uleb128 0xb
 1746 01b5 3B       		.uleb128 0x3b
 1747 01b6 0B       		.uleb128 0xb
 1748 01b7 49       		.uleb128 0x49
 1749 01b8 13       		.uleb128 0x13
 1750 01b9 02       		.uleb128 0x2
 1751 01ba 18       		.uleb128 0x18
 1752 01bb 00       		.byte	0
 1753 01bc 00       		.byte	0
 1754 01bd 23       		.uleb128 0x23
 1755 01be 2E       		.uleb128 0x2e
 1756 01bf 00       		.byte	0
 1757 01c0 3F       		.uleb128 0x3f
 1758 01c1 19       		.uleb128 0x19
 1759 01c2 03       		.uleb128 0x3
 1760 01c3 0E       		.uleb128 0xe
 1761 01c4 3A       		.uleb128 0x3a
ARM GAS  /tmp/ccBJxKEZ.s 			page 32


 1762 01c5 0B       		.uleb128 0xb
 1763 01c6 3B       		.uleb128 0x3b
 1764 01c7 0B       		.uleb128 0xb
 1765 01c8 11       		.uleb128 0x11
 1766 01c9 01       		.uleb128 0x1
 1767 01ca 12       		.uleb128 0x12
 1768 01cb 06       		.uleb128 0x6
 1769 01cc 40       		.uleb128 0x40
 1770 01cd 18       		.uleb128 0x18
 1771 01ce 9742     		.uleb128 0x2117
 1772 01d0 19       		.uleb128 0x19
 1773 01d1 00       		.byte	0
 1774 01d2 00       		.byte	0
 1775 01d3 24       		.uleb128 0x24
 1776 01d4 898201   		.uleb128 0x4109
 1777 01d7 01       		.byte	0x1
 1778 01d8 11       		.uleb128 0x11
 1779 01d9 01       		.uleb128 0x1
 1780 01da 9542     		.uleb128 0x2115
 1781 01dc 19       		.uleb128 0x19
 1782 01dd 31       		.uleb128 0x31
 1783 01de 13       		.uleb128 0x13
 1784 01df 00       		.byte	0
 1785 01e0 00       		.byte	0
 1786 01e1 25       		.uleb128 0x25
 1787 01e2 34       		.uleb128 0x34
 1788 01e3 00       		.byte	0
 1789 01e4 03       		.uleb128 0x3
 1790 01e5 0E       		.uleb128 0xe
 1791 01e6 3A       		.uleb128 0x3a
 1792 01e7 0B       		.uleb128 0xb
 1793 01e8 3B       		.uleb128 0x3b
 1794 01e9 05       		.uleb128 0x5
 1795 01ea 49       		.uleb128 0x49
 1796 01eb 13       		.uleb128 0x13
 1797 01ec 3F       		.uleb128 0x3f
 1798 01ed 19       		.uleb128 0x19
 1799 01ee 3C       		.uleb128 0x3c
 1800 01ef 19       		.uleb128 0x19
 1801 01f0 00       		.byte	0
 1802 01f1 00       		.byte	0
 1803 01f2 26       		.uleb128 0x26
 1804 01f3 34       		.uleb128 0x34
 1805 01f4 00       		.byte	0
 1806 01f5 03       		.uleb128 0x3
 1807 01f6 08       		.uleb128 0x8
 1808 01f7 3A       		.uleb128 0x3a
 1809 01f8 0B       		.uleb128 0xb
 1810 01f9 3B       		.uleb128 0x3b
 1811 01fa 05       		.uleb128 0x5
 1812 01fb 49       		.uleb128 0x49
 1813 01fc 13       		.uleb128 0x13
 1814 01fd 3F       		.uleb128 0x3f
 1815 01fe 19       		.uleb128 0x19
 1816 01ff 3C       		.uleb128 0x3c
 1817 0200 19       		.uleb128 0x19
 1818 0201 00       		.byte	0
ARM GAS  /tmp/ccBJxKEZ.s 			page 33


 1819 0202 00       		.byte	0
 1820 0203 27       		.uleb128 0x27
 1821 0204 34       		.uleb128 0x34
 1822 0205 00       		.byte	0
 1823 0206 03       		.uleb128 0x3
 1824 0207 0E       		.uleb128 0xe
 1825 0208 3A       		.uleb128 0x3a
 1826 0209 0B       		.uleb128 0xb
 1827 020a 3B       		.uleb128 0x3b
 1828 020b 0B       		.uleb128 0xb
 1829 020c 49       		.uleb128 0x49
 1830 020d 13       		.uleb128 0x13
 1831 020e 3F       		.uleb128 0x3f
 1832 020f 19       		.uleb128 0x19
 1833 0210 3C       		.uleb128 0x3c
 1834 0211 19       		.uleb128 0x19
 1835 0212 00       		.byte	0
 1836 0213 00       		.byte	0
 1837 0214 28       		.uleb128 0x28
 1838 0215 34       		.uleb128 0x34
 1839 0216 00       		.byte	0
 1840 0217 03       		.uleb128 0x3
 1841 0218 0E       		.uleb128 0xe
 1842 0219 3A       		.uleb128 0x3a
 1843 021a 0B       		.uleb128 0xb
 1844 021b 3B       		.uleb128 0x3b
 1845 021c 0B       		.uleb128 0xb
 1846 021d 49       		.uleb128 0x49
 1847 021e 13       		.uleb128 0x13
 1848 021f 3F       		.uleb128 0x3f
 1849 0220 19       		.uleb128 0x19
 1850 0221 02       		.uleb128 0x2
 1851 0222 18       		.uleb128 0x18
 1852 0223 00       		.byte	0
 1853 0224 00       		.byte	0
 1854 0225 29       		.uleb128 0x29
 1855 0226 2E       		.uleb128 0x2e
 1856 0227 01       		.byte	0x1
 1857 0228 3F       		.uleb128 0x3f
 1858 0229 19       		.uleb128 0x19
 1859 022a 03       		.uleb128 0x3
 1860 022b 0E       		.uleb128 0xe
 1861 022c 3A       		.uleb128 0x3a
 1862 022d 0B       		.uleb128 0xb
 1863 022e 3B       		.uleb128 0x3b
 1864 022f 05       		.uleb128 0x5
 1865 0230 3C       		.uleb128 0x3c
 1866 0231 19       		.uleb128 0x19
 1867 0232 00       		.byte	0
 1868 0233 00       		.byte	0
 1869 0234 00       		.byte	0
 1870              		.section	.debug_loc,"",%progbits
 1871              	.Ldebug_loc0:
 1872              	.LLST0:
 1873 0000 00000000 		.4byte	.LVL0
 1874 0004 04000000 		.4byte	.LVL1
 1875 0008 0100     		.2byte	0x1
ARM GAS  /tmp/ccBJxKEZ.s 			page 34


 1876 000a 50       		.byte	0x50
 1877 000b 04000000 		.4byte	.LVL1
 1878 000f 10000000 		.4byte	.LFE277
 1879 0013 0400     		.2byte	0x4
 1880 0015 F3       		.byte	0xf3
 1881 0016 01       		.uleb128 0x1
 1882 0017 50       		.byte	0x50
 1883 0018 9F       		.byte	0x9f
 1884 0019 00000000 		.4byte	0
 1885 001d 00000000 		.4byte	0
 1886              	.LLST1:
 1887 0021 00000000 		.4byte	.LVL3
 1888 0025 0A000000 		.4byte	.LVL4
 1889 0029 0100     		.2byte	0x1
 1890 002b 50       		.byte	0x50
 1891 002c 0A000000 		.4byte	.LVL4
 1892 0030 10000000 		.4byte	.LFE278
 1893 0034 0400     		.2byte	0x4
 1894 0036 F3       		.byte	0xf3
 1895 0037 01       		.uleb128 0x1
 1896 0038 50       		.byte	0x50
 1897 0039 9F       		.byte	0x9f
 1898 003a 00000000 		.4byte	0
 1899 003e 00000000 		.4byte	0
 1900              		.section	.debug_aranges,"",%progbits
 1901 0000 34000000 		.4byte	0x34
 1902 0004 0200     		.2byte	0x2
 1903 0006 00000000 		.4byte	.Ldebug_info0
 1904 000a 04       		.byte	0x4
 1905 000b 00       		.byte	0
 1906 000c 0000     		.2byte	0
 1907 000e 0000     		.2byte	0
 1908 0010 00000000 		.4byte	.LFB277
 1909 0014 10000000 		.4byte	.LFE277-.LFB277
 1910 0018 00000000 		.4byte	.LFB278
 1911 001c 10000000 		.4byte	.LFE278-.LFB278
 1912 0020 00000000 		.4byte	.LFB279
 1913 0024 02000000 		.4byte	.LFE279-.LFB279
 1914 0028 00000000 		.4byte	.LFB280
 1915 002c 0C000000 		.4byte	.LFE280-.LFB280
 1916 0030 00000000 		.4byte	0
 1917 0034 00000000 		.4byte	0
 1918              		.section	.debug_ranges,"",%progbits
 1919              	.Ldebug_ranges0:
 1920 0000 00000000 		.4byte	.LFB277
 1921 0004 10000000 		.4byte	.LFE277
 1922 0008 00000000 		.4byte	.LFB278
 1923 000c 10000000 		.4byte	.LFE278
 1924 0010 00000000 		.4byte	.LFB279
 1925 0014 02000000 		.4byte	.LFE279
 1926 0018 00000000 		.4byte	.LFB280
 1927 001c 0C000000 		.4byte	.LFE280
 1928 0020 00000000 		.4byte	0
 1929 0024 00000000 		.4byte	0
 1930              		.section	.debug_line,"",%progbits
 1931              	.Ldebug_line0:
 1932 0000 D6020000 		.section	.debug_str,"MS",%progbits,1
ARM GAS  /tmp/ccBJxKEZ.s 			page 35


 1932      02007C02 
 1932      00000201 
 1932      FB0E0D00 
 1932      01010101 
 1933              	.LASF124:
 1934 0000 474E5520 		.ascii	"GNU C++ 4.9.3 20150529 (prerelease) -mcpu=cortex-m4"
 1934      432B2B20 
 1934      342E392E 
 1934      33203230 
 1934      31353035 
 1935 0033 202D6D66 		.ascii	" -mfloat-abi=hard -mfpu=fpv4-sp-d16 -mno-thumb-inte"
 1935      6C6F6174 
 1935      2D616269 
 1935      3D686172 
 1935      64202D6D 
 1936 0066 72776F72 		.ascii	"rwork -mthumb -g -Os -fomit-frame-pointer -falign-f"
 1936      6B202D6D 
 1936      7468756D 
 1936      62202D67 
 1936      202D4F73 
 1937 0099 756E6374 		.ascii	"unctions=16 -ffunction-sections -fdata-sections -fn"
 1937      696F6E73 
 1937      3D313620 
 1937      2D666675 
 1937      6E637469 
 1938 00cc 6F2D636F 		.ascii	"o-common -fsingle-precision-constant -fno-rtti\000"
 1938      6D6D6F6E 
 1938      202D6673 
 1938      696E676C 
 1938      652D7072 
 1939              	.LASF61:
 1940 00fb 72656164 		.ascii	"ready_list_t\000"
 1940      795F6C69 
 1940      73745F74 
 1940      00
 1941              	.LASF89:
 1942 0108 31314572 		.ascii	"11ErrorStatus\000"
 1942      726F7253 
 1942      74617475 
 1942      7300
 1943              	.LASF32:
 1944 0116 77747472 		.ascii	"wttrp\000"
 1944      7000
 1945              	.LASF67:
 1946 011c 64656C74 		.ascii	"delta\000"
 1946      6100
 1947              	.LASF83:
 1948 0122 466C6167 		.ascii	"FlagStatus\000"
 1948      53746174 
 1948      757300
 1949              	.LASF16:
 1950 012d 75696E74 		.ascii	"uint64_t\000"
 1950      36345F74 
 1950      00
 1951              	.LASF80:
 1952 0136 6B65726E 		.ascii	"kernel_stats\000"
 1952      656C5F73 
ARM GAS  /tmp/ccBJxKEZ.s 			page 36


 1952      74617473 
 1952      00
 1953              	.LASF4:
 1954 0143 5F5F7569 		.ascii	"__uint8_t\000"
 1954      6E74385F 
 1954      7400
 1955              	.LASF60:
 1956 014d 70726576 		.ascii	"prev\000"
 1956      00
 1957              	.LASF96:
 1958 0152 706F7274 		.ascii	"port_intctx\000"
 1958      5F696E74 
 1958      63747800 
 1959              	.LASF59:
 1960 015e 63685F74 		.ascii	"ch_threads_queue\000"
 1960      68726561 
 1960      64735F71 
 1960      75657565 
 1960      00
 1961              	.LASF72:
 1962 016f 73797374 		.ascii	"system_debug_t\000"
 1962      656D5F64 
 1962      65627567 
 1962      5F7400
 1963              	.LASF102:
 1964 017e 776F7273 		.ascii	"worst\000"
 1964      7400
 1965              	.LASF86:
 1966 0184 44495341 		.ascii	"DISABLE\000"
 1966      424C4500 
 1967              	.LASF105:
 1968 018c 74696D65 		.ascii	"time_measurement_t\000"
 1968      5F6D6561 
 1968      73757265 
 1968      6D656E74 
 1968      5F7400
 1969              	.LASF11:
 1970 019f 6C6F6E67 		.ascii	"long long unsigned int\000"
 1970      206C6F6E 
 1970      6720756E 
 1970      7369676E 
 1970      65642069 
 1971              	.LASF30:
 1972 01b6 65786974 		.ascii	"exitcode\000"
 1972      636F6465 
 1972      00
 1973              	.LASF79:
 1974 01bf 6D61696E 		.ascii	"mainthread\000"
 1974      74687265 
 1974      616400
 1975              	.LASF33:
 1976 01ca 73656E74 		.ascii	"sentmsg\000"
 1976      6D736700 
 1977              	.LASF69:
 1978 01d2 76697274 		.ascii	"virtual_timers_list_t\000"
 1978      75616C5F 
 1978      74696D65 
ARM GAS  /tmp/ccBJxKEZ.s 			page 37


 1978      72735F6C 
 1978      6973745F 
 1979              	.LASF121:
 1980 01e8 49544D5F 		.ascii	"ITM_RxBuffer\000"
 1980      52784275 
 1980      66666572 
 1980      00
 1981              	.LASF57:
 1982 01f5 6E657874 		.ascii	"next\000"
 1982      00
 1983              	.LASF18:
 1984 01fa 72747469 		.ascii	"rttime_t\000"
 1984      6D655F74 
 1984      00
 1985              	.LASF9:
 1986 0203 6C6F6E67 		.ascii	"long long int\000"
 1986      206C6F6E 
 1986      6720696E 
 1986      7400
 1987              	.LASF0:
 1988 0211 7369676E 		.ascii	"signed char\000"
 1988      65642063 
 1988      68617200 
 1989              	.LASF78:
 1990 021d 76746C69 		.ascii	"vtlist\000"
 1990      737400
 1991              	.LASF126:
 1992 0224 2F686F6D 		.ascii	"/home/kozinalexey/f4by/ardupilot/build/f4by-ch\000"
 1992      652F6B6F 
 1992      7A696E61 
 1992      6C657865 
 1992      792F6634 
 1993              	.LASF47:
 1994 0253 6D736771 		.ascii	"msgqueue\000"
 1994      75657565 
 1994      00
 1995              	.LASF43:
 1996 025c 73746174 		.ascii	"state\000"
 1996      6500
 1997              	.LASF6:
 1998 0262 6C6F6E67 		.ascii	"long int\000"
 1998      20696E74 
 1998      00
 1999              	.LASF87:
 2000 026b 454E4142 		.ascii	"ENABLE\000"
 2000      4C4500
 2001              	.LASF20:
 2002 0272 74737461 		.ascii	"tstate_t\000"
 2002      74655F74 
 2002      00
 2003              	.LASF68:
 2004 027b 66756E63 		.ascii	"func\000"
 2004      00
 2005              	.LASF52:
 2006 0280 73746174 		.ascii	"stats\000"
 2006      7300
 2007              	.LASF85:
ARM GAS  /tmp/ccBJxKEZ.s 			page 38


 2008 0286 31354675 		.ascii	"15FunctionalState\000"
 2008      6E637469 
 2008      6F6E616C 
 2008      53746174 
 2008      6500
 2009              	.LASF7:
 2010 0298 5F5F7569 		.ascii	"__uint32_t\000"
 2010      6E743332 
 2010      5F7400
 2011              	.LASF93:
 2012 02a3 72656761 		.ascii	"regarm_t\000"
 2012      726D5F74 
 2012      00
 2013              	.LASF131:
 2014 02ac 63685379 		.ascii	"chSysHalt\000"
 2014      7348616C 
 2014      7400
 2015              	.LASF73:
 2016 02b6 63685F73 		.ascii	"ch_system_debug\000"
 2016      79737465 
 2016      6D5F6465 
 2016      62756700 
 2017              	.LASF46:
 2018 02c6 77616974 		.ascii	"waiting\000"
 2018      696E6700 
 2019              	.LASF116:
 2020 02ce 6D757465 		.ascii	"mutex_t\000"
 2020      785F7400 
 2021              	.LASF25:
 2022 02d6 636E745F 		.ascii	"cnt_t\000"
 2022      7400
 2023              	.LASF12:
 2024 02dc 756E7369 		.ascii	"unsigned int\000"
 2024      676E6564 
 2024      20696E74 
 2024      00
 2025              	.LASF34:
 2026 02e9 77747365 		.ascii	"wtsemp\000"
 2026      6D7000
 2027              	.LASF107:
 2028 02f0 6E5F6972 		.ascii	"n_irq\000"
 2028      7100
 2029              	.LASF37:
 2030 02f6 71756575 		.ascii	"queue\000"
 2030      6500
 2031              	.LASF51:
 2032 02fc 6D706F6F 		.ascii	"mpool\000"
 2032      6C00
 2033              	.LASF119:
 2034 0302 5F657869 		.ascii	"_exit\000"
 2034      7400
 2035              	.LASF111:
 2036 0308 6B65726E 		.ascii	"kernel_stats_t\000"
 2036      656C5F73 
 2036      74617473 
 2036      5F7400
 2037              	.LASF41:
ARM GAS  /tmp/ccBJxKEZ.s 			page 39


 2038 0317 6E616D65 		.ascii	"name\000"
 2038      00
 2039              	.LASF55:
 2040 031c 63685F74 		.ascii	"ch_thread\000"
 2040      68726561 
 2040      6400
 2041              	.LASF23:
 2042 0326 6D73675F 		.ascii	"msg_t\000"
 2042      7400
 2043              	.LASF103:
 2044 032c 6C617374 		.ascii	"last\000"
 2044      00
 2045              	.LASF26:
 2046 0331 75636E74 		.ascii	"ucnt_t\000"
 2046      5F7400
 2047              	.LASF84:
 2048 0338 3130466C 		.ascii	"10FlagStatus\000"
 2048      61675374 
 2048      61747573 
 2048      00
 2049              	.LASF75:
 2050 0345 63685F73 		.ascii	"ch_system_t\000"
 2050      79737465 
 2050      6D5F7400 
 2051              	.LASF19:
 2052 0351 746D6F64 		.ascii	"tmode_t\000"
 2052      655F7400 
 2053              	.LASF117:
 2054 0359 626F6F6C 		.ascii	"bool\000"
 2054      00
 2055              	.LASF110:
 2056 035e 6D5F6372 		.ascii	"m_crit_isr\000"
 2056      69745F69 
 2056      737200
 2057              	.LASF62:
 2058 0369 63685F72 		.ascii	"ch_ready_list\000"
 2058      65616479 
 2058      5F6C6973 
 2058      7400
 2059              	.LASF24:
 2060 0377 6576656E 		.ascii	"eventmask_t\000"
 2060      746D6173 
 2060      6B5F7400 
 2061              	.LASF5:
 2062 0383 5F5F696E 		.ascii	"__int32_t\000"
 2062      7433325F 
 2062      7400
 2063              	.LASF122:
 2064 038d 6572726E 		.ascii	"errno\000"
 2064      6F00
 2065              	.LASF94:
 2066 0393 73746B61 		.ascii	"stkalign_t\000"
 2066      6C69676E 
 2066      5F7400
 2067              	.LASF39:
 2068 039e 6E657765 		.ascii	"newer\000"
 2068      7200
ARM GAS  /tmp/ccBJxKEZ.s 			page 40


 2069              	.LASF50:
 2070 03a4 7265616C 		.ascii	"realprio\000"
 2070      7072696F 
 2070      00
 2071              	.LASF81:
 2072 03ad 73697A65 		.ascii	"sizetype\000"
 2072      74797065 
 2072      00
 2073              	.LASF53:
 2074 03b6 74687265 		.ascii	"thread_reference_t\000"
 2074      61645F72 
 2074      65666572 
 2074      656E6365 
 2074      5F7400
 2075              	.LASF70:
 2076 03c9 63685F76 		.ascii	"ch_virtual_timers_list\000"
 2076      69727475 
 2076      616C5F74 
 2076      696D6572 
 2076      735F6C69 
 2077              	.LASF90:
 2078 03e0 4552524F 		.ascii	"ERROR\000"
 2078      5200
 2079              	.LASF100:
 2080 03e6 31387469 		.ascii	"18time_measurement_t\000"
 2080      6D655F6D 
 2080      65617375 
 2080      72656D65 
 2080      6E745F74 
 2081              	.LASF95:
 2082 03fb 706F7274 		.ascii	"port_context\000"
 2082      5F636F6E 
 2082      74657874 
 2082      00
 2083              	.LASF88:
 2084 0408 46756E63 		.ascii	"FunctionalState\000"
 2084      74696F6E 
 2084      616C5374 
 2084      61746500 
 2085              	.LASF98:
 2086 0418 746D5F63 		.ascii	"tm_calibration_t\000"
 2086      616C6962 
 2086      72617469 
 2086      6F6E5F74 
 2086      00
 2087              	.LASF38:
 2088 0429 7072696F 		.ascii	"prio\000"
 2088      00
 2089              	.LASF63:
 2090 042e 63757272 		.ascii	"current\000"
 2090      656E7400 
 2091              	.LASF10:
 2092 0436 5F5F7569 		.ascii	"__uint64_t\000"
 2092      6E743634 
 2092      5F7400
 2093              	.LASF104:
 2094 0441 63756D75 		.ascii	"cumulative\000"
ARM GAS  /tmp/ccBJxKEZ.s 			page 41


 2094      6C617469 
 2094      766500
 2095              	.LASF21:
 2096 044c 74726566 		.ascii	"trefs_t\000"
 2096      735F7400 
 2097              	.LASF45:
 2098 0454 72656673 		.ascii	"refs\000"
 2098      00
 2099              	.LASF65:
 2100 0459 76697274 		.ascii	"virtual_timer_t\000"
 2100      75616C5F 
 2100      74696D65 
 2100      725F7400 
 2101              	.LASF82:
 2102 0469 52455345 		.ascii	"RESET\000"
 2102      5400
 2103              	.LASF22:
 2104 046f 74707269 		.ascii	"tprio_t\000"
 2104      6F5F7400 
 2105              	.LASF108:
 2106 0477 6E5F6374 		.ascii	"n_ctxswc\000"
 2106      78737763 
 2106      00
 2107              	.LASF14:
 2108 0480 696E7433 		.ascii	"int32_t\000"
 2108      325F7400 
 2109              	.LASF1:
 2110 0488 756E7369 		.ascii	"unsigned char\000"
 2110      676E6564 
 2110      20636861 
 2110      7200
 2111              	.LASF125:
 2112 0496 2E2E2F2E 		.ascii	"../../modules/ChibiOS/os/various/cpp_wrappers/sysca"
 2112      2E2F6D6F 
 2112      64756C65 
 2112      732F4368 
 2112      6962694F 
 2113 04c9 6C6C735F 		.ascii	"lls_cpp.cpp\000"
 2113      6370702E 
 2113      63707000 
 2114              	.LASF2:
 2115 04d5 73686F72 		.ascii	"short int\000"
 2115      7420696E 
 2115      7400
 2116              	.LASF71:
 2117 04df 6C617374 		.ascii	"lasttime\000"
 2117      74696D65 
 2117      00
 2118              	.LASF36:
 2119 04e8 65776D61 		.ascii	"ewmask\000"
 2119      736B00
 2120              	.LASF76:
 2121 04ef 63685F73 		.ascii	"ch_system\000"
 2121      79737465 
 2121      6D00
 2122              	.LASF128:
 2123 04f9 72656173 		.ascii	"reason\000"
ARM GAS  /tmp/ccBJxKEZ.s 			page 42


 2123      6F6E00
 2124              	.LASF29:
 2125 0500 7264796D 		.ascii	"rdymsg\000"
 2125      736700
 2126              	.LASF66:
 2127 0507 63685F76 		.ascii	"ch_virtual_timer\000"
 2127      69727475 
 2127      616C5F74 
 2127      696D6572 
 2127      00
 2128              	.LASF112:
 2129 0518 63685F73 		.ascii	"ch_semaphore\000"
 2129      656D6170 
 2129      686F7265 
 2129      00
 2130              	.LASF15:
 2131 0525 75696E74 		.ascii	"uint32_t\000"
 2131      33325F74 
 2131      00
 2132              	.LASF35:
 2133 052e 77746D74 		.ascii	"wtmtxp\000"
 2133      787000
 2134              	.LASF56:
 2135 0535 63685F74 		.ascii	"ch_threads_list\000"
 2135      68726561 
 2135      64735F6C 
 2135      69737400 
 2136              	.LASF114:
 2137 0545 6F776E65 		.ascii	"owner\000"
 2137      7200
 2138              	.LASF120:
 2139 054b 5F5F6378 		.ascii	"__cxa_pure_virtual\000"
 2139      615F7075 
 2139      72655F76 
 2139      69727475 
 2139      616C00
 2140              	.LASF130:
 2141 055e 5F6F7065 		.ascii	"_open_r\000"
 2141      6E5F7200 
 2142              	.LASF8:
 2143 0566 6C6F6E67 		.ascii	"long unsigned int\000"
 2143      20756E73 
 2143      69676E65 
 2143      6420696E 
 2143      7400
 2144              	.LASF42:
 2145 0578 77616261 		.ascii	"wabase\000"
 2145      736500
 2146              	.LASF127:
 2147 057f 6F73616C 		.ascii	"osalSysHalt\000"
 2147      53797348 
 2147      616C7400 
 2148              	.LASF115:
 2149 058b 63686172 		.ascii	"char\000"
 2149      00
 2150              	.LASF40:
 2151 0590 6F6C6465 		.ascii	"older\000"
ARM GAS  /tmp/ccBJxKEZ.s 			page 43


 2151      7200
 2152              	.LASF92:
 2153 0596 4572726F 		.ascii	"ErrorStatus\000"
 2153      72537461 
 2153      74757300 
 2154              	.LASF28:
 2155 05a2 74687265 		.ascii	"thread_t\000"
 2155      61645F74 
 2155      00
 2156              	.LASF101:
 2157 05ab 62657374 		.ascii	"best\000"
 2157      00
 2158              	.LASF27:
 2159 05b0 73797374 		.ascii	"systime_t\000"
 2159      696D655F 
 2159      7400
 2160              	.LASF64:
 2161 05ba 76746675 		.ascii	"vtfunc_t\000"
 2161      6E635F74 
 2161      00
 2162              	.LASF74:
 2163 05c3 70616E69 		.ascii	"panic_msg\000"
 2163      635F6D73 
 2163      6700
 2164              	.LASF97:
 2165 05cd 6F666673 		.ascii	"offset\000"
 2165      657400
 2166              	.LASF113:
 2167 05d4 63685F6D 		.ascii	"ch_mutex\000"
 2167      75746578 
 2167      00
 2168              	.LASF129:
 2169 05dd 5F6B696C 		.ascii	"_kill\000"
 2169      6C00
 2170              	.LASF3:
 2171 05e3 73686F72 		.ascii	"short unsigned int\000"
 2171      7420756E 
 2171      7369676E 
 2171      65642069 
 2171      6E7400
 2172              	.LASF17:
 2173 05f6 7274636E 		.ascii	"rtcnt_t\000"
 2173      745F7400 
 2174              	.LASF58:
 2175 05fe 74687265 		.ascii	"threads_queue_t\000"
 2175      6164735F 
 2175      71756575 
 2175      655F7400 
 2176              	.LASF48:
 2177 060e 6570656E 		.ascii	"epending\000"
 2177      64696E67 
 2177      00
 2178              	.LASF99:
 2179 0617 3136746D 		.ascii	"16tm_calibration_t\000"
 2179      5F63616C 
 2179      69627261 
 2179      74696F6E 
ARM GAS  /tmp/ccBJxKEZ.s 			page 44


 2179      5F7400
 2180              	.LASF118:
 2181 062a 73746174 		.ascii	"status\000"
 2181      757300
 2182              	.LASF77:
 2183 0631 726C6973 		.ascii	"rlist\000"
 2183      7400
 2184              	.LASF13:
 2185 0637 75696E74 		.ascii	"uint8_t\000"
 2185      385F7400 
 2186              	.LASF91:
 2187 063f 53554343 		.ascii	"SUCCESS\000"
 2187      45535300 
 2188              	.LASF44:
 2189 0647 666C6167 		.ascii	"flags\000"
 2189      7300
 2190              	.LASF106:
 2191 064d 31346B65 		.ascii	"14kernel_stats_t\000"
 2191      726E656C 
 2191      5F737461 
 2191      74735F74 
 2191      00
 2192              	.LASF31:
 2193 065e 77746F62 		.ascii	"wtobjp\000"
 2193      6A7000
 2194              	.LASF54:
 2195 0665 74687265 		.ascii	"threads_list_t\000"
 2195      6164735F 
 2195      6C697374 
 2195      5F7400
 2196              	.LASF49:
 2197 0674 6D74786C 		.ascii	"mtxlist\000"
 2197      69737400 
 2198              	.LASF123:
 2199 067c 5F5F6473 		.ascii	"__dso_handle\000"
 2199      6F5F6861 
 2199      6E646C65 
 2199      00
 2200              	.LASF109:
 2201 0689 6D5F6372 		.ascii	"m_crit_thd\000"
 2201      69745F74 
 2201      686400
 2202              		.ident	"GCC: (15:4.9.3+svn231177-1) 4.9.3 20150529 (prerelease)"
ARM GAS  /tmp/ccBJxKEZ.s 			page 45


DEFINED SYMBOLS
                            *ABS*:0000000000000000 syscalls_cpp.cpp
     /tmp/ccBJxKEZ.s:21     .text._exit:0000000000000000 $t
     /tmp/ccBJxKEZ.s:26     .text._exit:0000000000000000 _exit
     /tmp/ccBJxKEZ.s:56     .text._exit:000000000000000c $d
            .ARM.extab.text._exit:0000000000000000 $d
            .ARM.exidx.text._exit:0000000000000000 $d
     /tmp/ccBJxKEZ.s:62     .text._kill:0000000000000000 $t
     /tmp/ccBJxKEZ.s:67     .text._kill:0000000000000000 _kill
     /tmp/ccBJxKEZ.s:87     .text._kill:000000000000000c $d
            .ARM.exidx.text._kill:0000000000000000 $d
     /tmp/ccBJxKEZ.s:94     .text._open_r:0000000000000000 $t
     /tmp/ccBJxKEZ.s:99     .text._open_r:0000000000000000 _open_r
          .ARM.exidx.text._open_r:0000000000000000 $d
     /tmp/ccBJxKEZ.s:114    .text.__cxa_pure_virtual:0000000000000000 $t
     /tmp/ccBJxKEZ.s:119    .text.__cxa_pure_virtual:0000000000000000 __cxa_pure_virtual
     /tmp/ccBJxKEZ.s:137    .text.__cxa_pure_virtual:0000000000000008 $d
.ARM.exidx.text.__cxa_pure_virtual:0000000000000000 $d
     /tmp/ccBJxKEZ.s:150    .bss.__dso_handle:0000000000000000 __dso_handle
     /tmp/ccBJxKEZ.s:147    .bss.__dso_handle:0000000000000000 $d
                     .debug_frame:0000000000000010 $d

UNDEFINED SYMBOLS
chSysHalt
__aeabi_unwind_cpp_pr1
errno
