ARM GAS  /tmp/ccBJxKEZ.s 			page 1


   1              		.syntax unified
   2              		.cpu cortex-m4
   3              		.eabi_attribute 27, 1
   4              		.eabi_attribute 28, 1
   5              		.fpu fpv4-sp-d16
   6              		.eabi_attribute 20, 1
   7              		.eabi_attribute 21, 1
   8              		.eabi_attribute 23, 3
   9              		.eabi_attribute 24, 1
  10              		.eabi_attribute 25, 1
  11              		.eabi_attribute 26, 1
  12              		.eabi_attribute 30, 4
  13              		.eabi_attribute 34, 1
  14              		.eabi_attribute 18, 4
  15              		.thumb
  16              		.file	"syscalls_cpp.cpp"
  17              		.text
  18              	.Ltext0:
  19              		.cfi_sections	.debug_frame
  20              		.section	.text._exit,"ax",%progbits
  21              		.align	1
  22              		.global	_exit
  23              		.thumb
  24              		.thumb_func
  25              		.type	_exit, %function
  26              	_exit:
  27              		.fnstart
  28              	.LFB277:
  29              		.file 1 "../../modules/ChibiOS/os/various/cpp_wrappers/syscalls_cpp.cpp"
  30              		.loc 1 12 0
  31              		.cfi_startproc
  32              		@ args = 0, pretend = 0, frame = 0
  33              		@ frame_needed = 0, uses_anonymous_args = 0
  34              	.LVL0:
  35 0000 08B5     		push	{r3, lr}
  36              		.save {r3, lr}
  37              		.cfi_def_cfa_offset 8
  38              		.cfi_offset 3, -8
  39              		.cfi_offset 14, -4
  40              	.LBB6:
  41              	.LBB7:
  42              		.file 2 "../../modules/ChibiOS/os/hal/osal/rt/osal.h"
  43              		.loc 2 462 0
  44 0002 0248     		ldr	r0, .L4
  45              	.LVL1:
  46 0004 FFF7FEFF 		bl	chSysHalt
  47              	.LVL2:
  48              	.L2:
  49              	.LBE7:
  50              	.LBE6:
  51              		.loc 1 12 0 discriminator 1
  52 0008 FEE7     		b	.L2
  53              	.L5:
  54 000a 00BF     		.align	2
  55              	.L4:
  56 000c 00000000 		.word	.LC0
  57              		.cfi_endproc
ARM GAS  /tmp/ccBJxKEZ.s 			page 2


  58              	.LFE277:
  59              		.fnend
  60              		.size	_exit, .-_exit
  61              		.section	.text._kill,"ax",%progbits
  62              		.align	1
  63              		.global	_kill
  64              		.thumb
  65              		.thumb_func
  66              		.type	_kill, %function
  67              	_kill:
  68              		.fnstart
  69              	.LFB278:
  70              		.loc 1 20 0
  71              		.cfi_startproc
  72              		@ args = 0, pretend = 0, frame = 0
  73              		@ frame_needed = 0, uses_anonymous_args = 0
  74              		@ link register save eliminated.
  75              	.LVL3:
  76              		.loc 1 23 0
  77 0000 024B     		ldr	r3, .L7
  78 0002 1622     		movs	r2, #22
  79 0004 1A60     		str	r2, [r3]
  80              		.loc 1 25 0
  81 0006 4FF0FF30 		mov	r0, #-1
  82              	.LVL4:
  83 000a 7047     		bx	lr
  84              	.L8:
  85              		.align	2
  86              	.L7:
  87 000c 00000000 		.word	errno
  88              		.cfi_endproc
  89              	.LFE278:
  90              		.cantunwind
  91              		.fnend
  92              		.size	_kill, .-_kill
  93              		.section	.text._open_r,"ax",%progbits
  94              		.align	1
  95              		.global	_open_r
  96              		.thumb
  97              		.thumb_func
  98              		.type	_open_r, %function
  99              	_open_r:
 100              		.fnstart
 101              	.LFB279:
 102              		.loc 1 27 0
 103              		.cfi_startproc
 104              		@ args = 0, pretend = 0, frame = 0
 105              		@ frame_needed = 0, uses_anonymous_args = 0
 106              		@ link register save eliminated.
 107 0000 7047     		bx	lr
 108              		.cfi_endproc
 109              	.LFE279:
 110              		.cantunwind
 111              		.fnend
 112              		.size	_open_r, .-_open_r
 113              		.section	.text.__cxa_pure_virtual,"ax",%progbits
 114              		.align	1
ARM GAS  /tmp/ccBJxKEZ.s 			page 3


 115              		.global	__cxa_pure_virtual
 116              		.thumb
 117              		.thumb_func
 118              		.type	__cxa_pure_virtual, %function
 119              	__cxa_pure_virtual:
 120              		.fnstart
 121              	.LFB280:
 122              		.loc 1 31 0
 123              		.cfi_startproc
 124              		@ args = 0, pretend = 0, frame = 0
 125              		@ frame_needed = 0, uses_anonymous_args = 0
 126              		@ link register save eliminated.
 127              	.LVL5:
 128              	.LBB8:
 129              	.LBB9:
 130              		.loc 2 462 0
 131 0000 0148     		ldr	r0, .L11
 132 0002 FFF7FEBF 		b	chSysHalt
 133              	.LVL6:
 134              	.L12:
 135 0006 00BF     		.align	2
 136              	.L11:
 137 0008 0B000000 		.word	.LC1
 138              	.LBE9:
 139              	.LBE8:
 140              		.cfi_endproc
 141              	.LFE280:
 142              		.cantunwind
 143              		.fnend
 144              		.size	__cxa_pure_virtual, .-__cxa_pure_virtual
 145              		.global	__dso_handle
 146              		.section	.bss.__dso_handle,"aw",%nobits
 147              		.align	2
 148              		.type	__dso_handle, %object
 149              		.size	__dso_handle, 4
 150              	__dso_handle:
 151 0000 00000000 		.space	4
 152              		.section	.rodata.str1.1,"aMS",%progbits,1
 153              	.LC0:
 154 0000 556E7265 		.ascii	"Unrealized\000"
 154      616C697A 
 154      656400
 155              	.LC1:
 156 000b 50757265 		.ascii	"Pure virtual function call.\000"
 156      20766972 
 156      7475616C 
 156      2066756E 
 156      6374696F 
 157              		.text
 158              	.Letext0:
 159              		.file 3 "/usr/include/newlib/machine/_default_types.h"
 160              		.file 4 "/usr/include/newlib/sys/_stdint.h"
 161              		.file 5 "../../modules/ChibiOS/os/common/ports/ARMCMx/compilers/GCC/chtypes.h"
 162              		.file 6 "../../modules/ChibiOS/os/rt/include/chsystypes.h"
 163              		.file 7 "../../modules/ChibiOS/os/rt/include/chschd.h"
 164              		.file 8 "../../modules/ChibiOS/os/common/ext/CMSIS/ST/STM32F4xx/stm32f4xx.h"
 165              		.file 9 "../../modules/ChibiOS/os/common/ports/ARMCMx/chcore.h"
ARM GAS  /tmp/ccBJxKEZ.s 			page 4


 166              		.file 10 "../../modules/ChibiOS/os/common/ports/ARMCMx/chcore_v7m.h"
 167              		.file 11 "../../modules/ChibiOS/os/rt/include/chtm.h"
 168              		.file 12 "../../modules/ChibiOS/os/rt/include/chstats.h"
 169              		.file 13 "../../modules/ChibiOS/os/rt/include/chsem.h"
 170              		.file 14 "../../modules/ChibiOS/os/rt/include/chmtx.h"
 171              		.file 15 "../../modules/ChibiOS/os/common/ext/CMSIS/include/core_cm4.h"
 172              		.file 16 "../../modules/ChibiOS/os/various/cpp_wrappers/syscalls_cpp.hpp"
 173              		.file 17 "../../modules/ChibiOS/os/rt/include/chsys.h"