ARM GAS  /tmp/ccZRGtbW.s 			page 1


   1              		.syntax unified
   2              		.cpu cortex-m4
   3              		.eabi_attribute 27, 1
   4              		.eabi_attribute 28, 1
   5              		.fpu fpv4-sp-d16
   6              		.eabi_attribute 20, 1
   7              		.eabi_attribute 21, 1
   8              		.eabi_attribute 23, 3
   9              		.eabi_attribute 24, 1
  10              		.eabi_attribute 25, 1
  11              		.eabi_attribute 26, 1
  12              		.eabi_attribute 30, 4
  13              		.eabi_attribute 34, 1
  14              		.eabi_attribute 18, 4
  15              		.thumb
  16              		.file	"usbcfg.c"
  17              		.text
  18              	.Ltext0:
  19              		.cfi_sections	.debug_frame
  20              		.section	.text.get_descriptor,"ax",%progbits
  21              		.align	1
  22              		.thumb
  23              		.thumb_func
  24              		.type	get_descriptor, %function
  25              	get_descriptor:
  26              	.LFB280:
  27              		.file 1 "../../libraries/AP_HAL_ChibiOS/hwdef/common/usbcfg.c"
  28              		.loc 1 268 0
  29              		.cfi_startproc
  30              		@ args = 0, pretend = 0, frame = 0
  31              		@ frame_needed = 0, uses_anonymous_args = 0
  32              		@ link register save eliminated.
  33              	.LVL0:
  34              		.loc 1 272 0
  35 0000 0229     		cmp	r1, #2
  36 0002 06D0     		beq	.L3
  37 0004 0329     		cmp	r1, #3
  38 0006 06D0     		beq	.L4
  39 0008 0129     		cmp	r1, #1
  40              		.loc 1 282 0
  41 000a 0648     		ldr	r0, .L9
  42              	.LVL1:
  43 000c 18BF     		it	ne
  44 000e 0020     		movne	r0, #0
  45 0010 7047     		bx	lr
  46              	.LVL2:
  47              	.L3:
  48              		.loc 1 276 0
  49 0012 0548     		ldr	r0, .L9+4
  50              	.LVL3:
  51 0014 7047     		bx	lr
  52              	.LVL4:
  53              	.L4:
  54              		.loc 1 278 0
  55 0016 032A     		cmp	r2, #3
  56              		.loc 1 279 0
  57 0018 9ABF     		itte	ls
ARM GAS  /tmp/ccZRGtbW.s 			page 2


  58 001a 044B     		ldrls	r3, .L9+8
  59              	.LVL5:
  60 001c 03EBC200 		addls	r0, r3, r2, lsl #3
  61              	.LVL6:
  62              		.loc 1 282 0
  63 0020 0020     		movhi	r0, #0
  64              		.loc 1 283 0
  65 0022 7047     		bx	lr
  66              	.L10:
  67              		.align	2
  68              	.L9:
  69 0024 00000000 		.word	.LANCHOR0
  70 0028 00000000 		.word	.LANCHOR1
  71 002c 00000000 		.word	.LANCHOR2
  72              		.cfi_endproc
  73              	.LFE280:
  74              		.size	get_descriptor, .-get_descriptor
  75              		.section	.text.setup_usb_string,"ax",%progbits
  76              		.align	1
  77              		.thumb
  78              		.thumb_func
  79              		.type	setup_usb_string, %function
  80              	setup_usb_string:
  81              	.LFB278:
  82              		.loc 1 233 0
  83              		.cfi_startproc
  84              		@ args = 0, pretend = 0, frame = 0
  85              		@ frame_needed = 0, uses_anonymous_args = 0
  86              	.LVL7:
  87 0000 2DE9F843 		push	{r3, r4, r5, r6, r7, r8, r9, lr}
  88              		.cfi_def_cfa_offset 32
  89              		.cfi_offset 3, -32
  90              		.cfi_offset 4, -28
  91              		.cfi_offset 5, -24
  92              		.cfi_offset 6, -20
  93              		.cfi_offset 7, -16
  94              		.cfi_offset 8, -12
  95              		.cfi_offset 9, -8
  96              		.cfi_offset 14, -4
  97              		.loc 1 233 0
  98 0004 8046     		mov	r8, r0
  99              	.LBB32:
 100              	.LBB33:
 101              		.loc 1 192 0
 102 0006 0846     		mov	r0, r1
 103              	.LVL8:
 104              	.LBE33:
 105              	.LBE32:
 106              		.loc 1 233 0
 107 0008 0F46     		mov	r7, r1
 108              	.LBB37:
 109              	.LBB36:
 110              		.loc 1 192 0
 111 000a FFF7FEFF 		bl	strlen
 112              	.LVL9:
 113              		.loc 1 196 0
 114 000e 3949     		ldr	r1, .L28
ARM GAS  /tmp/ccZRGtbW.s 			page 3


 115              		.loc 1 192 0
 116 0010 C4B2     		uxtb	r4, r0
 117              	.LVL10:
 118              		.loc 1 196 0
 119 0012 3846     		mov	r0, r7
 120 0014 FFF7FEFF 		bl	strstr
 121              	.LVL11:
 122 0018 08B1     		cbz	r0, .L12
 123              		.loc 1 197 0
 124 001a 1034     		adds	r4, r4, #16
 125              	.LVL12:
 126 001c E4B2     		uxtb	r4, r4
 127              	.LVL13:
 128              	.L12:
 129              		.loc 1 199 0
 130 001e 601C     		adds	r0, r4, #1
 131 0020 FFF7FEFF 		bl	malloc
 132              	.LVL14:
 133 0024 3D46     		mov	r5, r7
 134 0026 0646     		mov	r6, r0
 135              	.LVL15:
 136 0028 0446     		mov	r4, r0
 137              	.LVL16:
 138              	.L13:
 139              		.loc 1 201 0
 140 002a 95F80090 		ldrb	r9, [r5]	@ zero_extendqisi2
 141 002e B9F1000F 		cmp	r9, #0
 142 0032 33D0     		beq	.L26
 143              	.LVL17:
 144              	.LBB34:
 145              		.loc 1 203 0
 146 0034 B9F1250F 		cmp	r9, #37
 147 0038 2BD1     		bne	.L14
 148              		.loc 1 204 0
 149 003a 2846     		mov	r0, r5
 150 003c 2E49     		ldr	r1, .L28+4
 151 003e FFF7FEFF 		bl	strcmp
 152              	.LVL18:
 153 0042 48B9     		cbnz	r0, .L15
 154              		.loc 1 205 0
 155 0044 2D4B     		ldr	r3, .L28+8
 156 0046 1A68     		ldr	r2, [r3]	@ unaligned
 157 0048 2260     		str	r2, [r4]	@ unaligned
 158 004a 9A88     		ldrh	r2, [r3, #4]	@ unaligned
 159 004c 9B79     		ldrb	r3, [r3, #6]	@ zero_extendqisi2
 160 004e A280     		strh	r2, [r4, #4]	@ unaligned
 161 0050 A371     		strb	r3, [r4, #6]
 162              		.loc 1 206 0
 163 0052 0735     		adds	r5, r5, #7
 164              	.LVL19:
 165              		.loc 1 207 0
 166 0054 0734     		adds	r4, r4, #7
 167              	.LVL20:
 168 0056 E8E7     		b	.L13
 169              	.L15:
 170              		.loc 1 210 0
 171 0058 2846     		mov	r0, r5
ARM GAS  /tmp/ccZRGtbW.s 			page 4


 172 005a 2649     		ldr	r1, .L28
 173 005c FFF7FEFF 		bl	strcmp
 174              	.LVL21:
 175 0060 B8B9     		cbnz	r0, .L14
 176 0062 2749     		ldr	r1, .L28+12
 177 0064 A31C     		adds	r3, r4, #2
 178              	.LVL22:
 179              	.L17:
 180              	.LBB35:
 181              		.loc 1 215 0
 182 0066 11F8012F 		ldrb	r2, [r1, #1]!	@ zero_extendqisi2
 183              	.LVL23:
 184 006a 2648     		ldr	r0, .L28+16
 185 006c 4FEA121E 		lsr	lr, r2, #4
 186              		.loc 1 216 0
 187 0070 02F00F02 		and	r2, r2, #15
 188              		.loc 1 215 0
 189 0074 1EF800E0 		ldrb	lr, [lr, r0]	@ zero_extendqisi2
 190              		.loc 1 216 0
 191 0078 125C     		ldrb	r2, [r2, r0]	@ zero_extendqisi2
 192 007a 03F8012C 		strb	r2, [r3, #-1]
 193              		.loc 1 214 0
 194 007e 224A     		ldr	r2, .L28+20
 195              		.loc 1 215 0
 196 0080 03F802EC 		strb	lr, [r3, #-2]
 197              	.LVL24:
 198              		.loc 1 214 0
 199 0084 9142     		cmp	r1, r2
 200 0086 03F10203 		add	r3, r3, #2
 201              	.LVL25:
 202 008a ECD1     		bne	.L17
 203 008c 1834     		adds	r4, r4, #24
 204              		.loc 1 218 0
 205 008e 0835     		adds	r5, r5, #8
 206              	.LVL26:
 207 0090 CBE7     		b	.L13
 208              	.LVL27:
 209              	.L14:
 210              	.LBE35:
 211              		.loc 1 222 0
 212 0092 84F80090 		strb	r9, [r4]
 213 0096 0135     		adds	r5, r5, #1
 214              	.LVL28:
 215 0098 0134     		adds	r4, r4, #1
 216              	.LVL29:
 217 009a C6E7     		b	.L13
 218              	.LVL30:
 219              	.L26:
 220              	.LBE34:
 221              		.loc 1 224 0
 222 009c 84F80090 		strb	r9, [r4]
 223              	.LBE36:
 224              	.LBE37:
 225              		.loc 1 235 0
 226 00a0 3046     		mov	r0, r6
 227 00a2 FFF7FEFF 		bl	strlen
 228              	.LVL31:
ARM GAS  /tmp/ccZRGtbW.s 			page 5


 229 00a6 C5B2     		uxtb	r5, r0
 230              	.LVL32:
 231              		.loc 1 236 0
 232 00a8 6C1C     		adds	r4, r5, #1
 233              	.LVL33:
 234 00aa 6400     		lsls	r4, r4, #1
 235 00ac C8F80040 		str	r4, [r8]
 236              		.loc 1 237 0
 237 00b0 0120     		movs	r0, #1
 238 00b2 2146     		mov	r1, r4
 239 00b4 FFF7FEFF 		bl	calloc
 240              	.LVL34:
 241              		.loc 1 240 0
 242 00b8 0323     		movs	r3, #3
 243              		.loc 1 238 0
 244 00ba C8F80400 		str	r0, [r8, #4]
 245              		.loc 1 239 0
 246 00be 0470     		strb	r4, [r0]
 247              		.loc 1 240 0
 248 00c0 4370     		strb	r3, [r0, #1]
 249              	.LVL35:
 250              		.loc 1 242 0
 251 00c2 3246     		mov	r2, r6
 252 00c4 0230     		adds	r0, r0, #2
 253              	.LVL36:
 254              	.L19:
 255 00c6 931B     		subs	r3, r2, r6
 256              		.loc 1 242 0 is_stmt 0 discriminator 1
 257 00c8 DBB2     		uxtb	r3, r3
 258 00ca AB42     		cmp	r3, r5
 259 00cc 00F10200 		add	r0, r0, #2
 260 00d0 07D2     		bcs	.L27
 261              		.loc 1 243 0 is_stmt 1 discriminator 3
 262 00d2 12F8013B 		ldrb	r3, [r2], #1	@ zero_extendqisi2
 263              	.LVL37:
 264 00d6 00F8023C 		strb	r3, [r0, #-2]
 265              		.loc 1 244 0 discriminator 3
 266 00da 0023     		movs	r3, #0
 267 00dc 00F8013C 		strb	r3, [r0, #-1]
 268 00e0 F1E7     		b	.L19
 269              	.LVL38:
 270              	.L27:
 271              		.loc 1 246 0
 272 00e2 BE42     		cmp	r6, r7
 273 00e4 04D0     		beq	.L11
 274              		.loc 1 247 0
 275 00e6 3046     		mov	r0, r6
 276              		.loc 1 249 0
 277 00e8 BDE8F843 		pop	{r3, r4, r5, r6, r7, r8, r9, lr}
 278              		.cfi_remember_state
 279              		.cfi_restore 14
 280              		.cfi_restore 9
 281              		.cfi_restore 8
 282              		.cfi_restore 7
 283              		.cfi_restore 6
 284              		.cfi_restore 5
 285              		.cfi_restore 4
ARM GAS  /tmp/ccZRGtbW.s 			page 6


 286              		.cfi_restore 3
 287              		.cfi_def_cfa_offset 0
 288              	.LVL39:
 289              		.loc 1 247 0
 290 00ec FFF7FEBF 		b	free
 291              	.LVL40:
 292              	.L11:
 293              		.cfi_restore_state
 294 00f0 BDE8F883 		pop	{r3, r4, r5, r6, r7, r8, r9, pc}
 295              	.LVL41:
 296              	.L29:
 297              		.align	2
 298              	.L28:
 299 00f4 00000000 		.word	.LC0
 300 00f8 09000000 		.word	.LC1
 301 00fc 11000000 		.word	.LC2
 302 0100 0F7AFF1F 		.word	536836623
 303 0104 19000000 		.word	.LC3
 304 0108 1B7AFF1F 		.word	536836635
 305              		.cfi_endproc
 306              	.LFE278:
 307              		.size	setup_usb_string, .-setup_usb_string
 308              		.section	.text.sof_handler,"ax",%progbits
 309              		.align	1
 310              		.thumb
 311              		.thumb_func
 312              		.type	sof_handler, %function
 313              	sof_handler:
 314              	.LFB282:
 315              		.loc 1 384 0
 316              		.cfi_startproc
 317              		@ args = 0, pretend = 0, frame = 0
 318              		@ frame_needed = 0, uses_anonymous_args = 0
 319              	.LVL42:
 320 0000 08B5     		push	{r3, lr}
 321              		.cfi_def_cfa_offset 8
 322              		.cfi_offset 3, -8
 323              		.cfi_offset 14, -4
 324              	.LBB54:
 325              	.LBB55:
 326              	.LBB56:
 327              	.LBB57:
 328              	.LBB58:
 329              	.LBB59:
 330              	.LBB60:
 331              		.file 2 "../../modules/ChibiOS/os/common/ext/CMSIS/include/cmsis_gcc.h"
 332              		.loc 2 264 0
 333 0002 2023     		movs	r3, #32
 334              	@ 264 "../../modules/ChibiOS/os/common/ext/CMSIS/include/cmsis_gcc.h" 1
 335 0004 83F31188 		MSR basepri, r3
 336              	@ 0 "" 2
 337              		.thumb
 338              	.LBE60:
 339              	.LBE59:
 340              	.LBE58:
 341              	.LBE57:
 342              		.file 3 "../../modules/ChibiOS/os/rt/include/chsys.h"
ARM GAS  /tmp/ccZRGtbW.s 			page 7


 343              		.loc 3 417 0
 344 0008 FFF7FEFF 		bl	_stats_start_measure_crit_isr
 345              	.LVL43:
 346              	.LBE56:
 347              	.LBE55:
 348              	.LBE54:
 349              		.loc 1 389 0
 350 000c 0448     		ldr	r0, .L31
 351 000e FFF7FEFF 		bl	sduSOFHookI
 352              	.LVL44:
 353              	.LBB61:
 354              	.LBB62:
 355              	.LBB63:
 356              		.loc 3 437 0
 357 0012 FFF7FEFF 		bl	_stats_stop_measure_crit_isr
 358              	.LVL45:
 359              	.LBB64:
 360              	.LBB65:
 361              	.LBB66:
 362              	.LBB67:
 363              		.loc 2 264 0
 364 0016 0023     		movs	r3, #0
 365              	@ 264 "../../modules/ChibiOS/os/common/ext/CMSIS/include/cmsis_gcc.h" 1
 366 0018 83F31188 		MSR basepri, r3
 367              	@ 0 "" 2
 368              		.thumb
 369 001c 08BD     		pop	{r3, pc}
 370              	.L32:
 371 001e 00BF     		.align	2
 372              	.L31:
 373 0020 00000000 		.word	.LANCHOR3
 374              	.LBE67:
 375              	.LBE66:
 376              	.LBE65:
 377              	.LBE64:
 378              	.LBE63:
 379              	.LBE62:
 380              	.LBE61:
 381              		.cfi_endproc
 382              	.LFE282:
 383              		.size	sof_handler, .-sof_handler
 384              		.section	.text.usb_event,"ax",%progbits
 385              		.align	1
 386              		.thumb
 387              		.thumb_func
 388              		.type	usb_event, %function
 389              	usb_event:
 390              	.LFB281:
 391              		.loc 1 335 0
 392              		.cfi_startproc
 393              		@ args = 0, pretend = 0, frame = 0
 394              		@ frame_needed = 0, uses_anonymous_args = 0
 395              	.LVL46:
 396 0000 10B5     		push	{r4, lr}
 397              		.cfi_def_cfa_offset 8
 398              		.cfi_offset 4, -8
 399              		.cfi_offset 14, -4
ARM GAS  /tmp/ccZRGtbW.s 			page 8


 400              		.loc 1 335 0
 401 0002 0446     		mov	r4, r0
 402              		.loc 1 338 0
 403 0004 0529     		cmp	r1, #5
 404 0006 2DD8     		bhi	.L33
 405 0008 DFE801F0 		tbb	[pc, r1]
 406              	.L36:
 407 000c 16       		.byte	(.L35-.L36)/2
 408 000d 2C       		.byte	(.L33-.L36)/2
 409 000e 03       		.byte	(.L37-.L36)/2
 410 000f 16       		.byte	(.L35-.L36)/2
 411 0010 16       		.byte	(.L35-.L36)/2
 412 0011 1F       		.byte	(.L38-.L36)/2
 413              		.p2align 1
 414              	.L37:
 415              	.LVL47:
 416              	.LBB106:
 417              	.LBB107:
 418              	.LBB108:
 419              	.LBB109:
 420              	.LBB110:
 421              	.LBB111:
 422              	.LBB112:
 423              	.LBB113:
 424              		.loc 2 264 0
 425 0012 2023     		movs	r3, #32
 426              	@ 264 "../../modules/ChibiOS/os/common/ext/CMSIS/include/cmsis_gcc.h" 1
 427 0014 83F31188 		MSR basepri, r3
 428              	@ 0 "" 2
 429              		.thumb
 430              	.LBE113:
 431              	.LBE112:
 432              	.LBE111:
 433              	.LBE110:
 434              		.loc 3 417 0
 435 0018 FFF7FEFF 		bl	_stats_start_measure_crit_isr
 436              	.LVL48:
 437              	.LBE109:
 438              	.LBE108:
 439              		.loc 1 347 0
 440 001c 2046     		mov	r0, r4
 441 001e 0121     		movs	r1, #1
 442 0020 114A     		ldr	r2, .L40
 443 0022 FFF7FEFF 		bl	usbInitEndpointI
 444              	.LVL49:
 445              		.loc 1 348 0
 446 0026 2046     		mov	r0, r4
 447 0028 0221     		movs	r1, #2
 448 002a 104A     		ldr	r2, .L40+4
 449 002c FFF7FEFF 		bl	usbInitEndpointI
 450              	.LVL50:
 451              		.loc 1 351 0
 452 0030 0F48     		ldr	r0, .L40+8
 453 0032 FFF7FEFF 		bl	sduConfigureHookI
 454              	.LVL51:
 455 0036 10E0     		b	.L39
 456              	.LVL52:
ARM GAS  /tmp/ccZRGtbW.s 			page 9


 457              	.L35:
 458              	.LBE107:
 459              	.LBE106:
 460              	.LBB114:
 461              	.LBB115:
 462              	.LBB116:
 463              	.LBB117:
 464              	.LBB118:
 465              	.LBB119:
 466              		.loc 2 264 0
 467 0038 2023     		movs	r3, #32
 468              	@ 264 "../../modules/ChibiOS/os/common/ext/CMSIS/include/cmsis_gcc.h" 1
 469 003a 83F31188 		MSR basepri, r3
 470              	@ 0 "" 2
 471              		.thumb
 472              	.LBE119:
 473              	.LBE118:
 474              	.LBE117:
 475              	.LBE116:
 476              		.loc 3 417 0
 477 003e FFF7FEFF 		bl	_stats_start_measure_crit_isr
 478              	.LVL53:
 479              	.LBE115:
 480              	.LBE114:
 481              		.loc 1 363 0
 482 0042 0B48     		ldr	r0, .L40+8
 483 0044 FFF7FEFF 		bl	sduSuspendHookI
 484              	.LVL54:
 485 0048 07E0     		b	.L39
 486              	.LVL55:
 487              	.L38:
 488              	.LBB120:
 489              	.LBB121:
 490              	.LBB122:
 491              	.LBB123:
 492              	.LBB124:
 493              	.LBB125:
 494              		.loc 2 264 0
 495 004a 2023     		movs	r3, #32
 496              	@ 264 "../../modules/ChibiOS/os/common/ext/CMSIS/include/cmsis_gcc.h" 1
 497 004c 83F31188 		MSR basepri, r3
 498              	@ 0 "" 2
 499              		.thumb
 500              	.LBE125:
 501              	.LBE124:
 502              	.LBE123:
 503              	.LBE122:
 504              		.loc 3 417 0
 505 0050 FFF7FEFF 		bl	_stats_start_measure_crit_isr
 506              	.LVL56:
 507              	.LBE121:
 508              	.LBE120:
 509              		.loc 1 371 0
 510 0054 0648     		ldr	r0, .L40+8
 511 0056 FFF7FEFF 		bl	sduWakeupHookI
 512              	.LVL57:
 513              	.L39:
ARM GAS  /tmp/ccZRGtbW.s 			page 10


 514              	.LBB126:
 515              	.LBB127:
 516              		.loc 3 437 0
 517 005a FFF7FEFF 		bl	_stats_stop_measure_crit_isr
 518              	.LVL58:
 519              	.LBB128:
 520              	.LBB129:
 521              	.LBB130:
 522              	.LBB131:
 523              		.loc 2 264 0
 524 005e 0023     		movs	r3, #0
 525              	@ 264 "../../modules/ChibiOS/os/common/ext/CMSIS/include/cmsis_gcc.h" 1
 526 0060 83F31188 		MSR basepri, r3
 527              	@ 0 "" 2
 528              	.LVL59:
 529              		.thumb
 530              	.L33:
 531 0064 10BD     		pop	{r4, pc}
 532              	.LVL60:
 533              	.L41:
 534 0066 00BF     		.align	2
 535              	.L40:
 536 0068 00000000 		.word	.LANCHOR4
 537 006c 00000000 		.word	.LANCHOR5
 538 0070 00000000 		.word	.LANCHOR3
 539              	.LBE131:
 540              	.LBE130:
 541              	.LBE129:
 542              	.LBE128:
 543              	.LBE127:
 544              	.LBE126:
 545              		.cfi_endproc
 546              	.LFE281:
 547              		.size	usb_event, .-usb_event
 548              		.section	.text.setup_usb_strings,"ax",%progbits
 549              		.align	1
 550              		.global	setup_usb_strings
 551              		.thumb
 552              		.thumb_func
 553              		.type	setup_usb_strings, %function
 554              	setup_usb_strings:
 555              	.LFB279:
 556              		.loc 1 255 0
 557              		.cfi_startproc
 558              		@ args = 0, pretend = 0, frame = 0
 559              		@ frame_needed = 0, uses_anonymous_args = 0
 560 0000 10B5     		push	{r4, lr}
 561              		.cfi_def_cfa_offset 8
 562              		.cfi_offset 4, -8
 563              		.cfi_offset 14, -4
 564              		.loc 1 256 0
 565 0002 094C     		ldr	r4, .L43
 566 0004 0949     		ldr	r1, .L43+4
 567 0006 04F10800 		add	r0, r4, #8
 568 000a FFF7FEFF 		bl	setup_usb_string
 569              	.LVL61:
 570              		.loc 1 257 0
ARM GAS  /tmp/ccZRGtbW.s 			page 11


 571 000e 04F11000 		add	r0, r4, #16
 572 0012 0749     		ldr	r1, .L43+8
 573 0014 FFF7FEFF 		bl	setup_usb_string
 574              	.LVL62:
 575              		.loc 1 258 0
 576 0018 04F11800 		add	r0, r4, #24
 577 001c 0549     		ldr	r1, .L43+12
 578              		.loc 1 259 0
 579 001e BDE81040 		pop	{r4, lr}
 580              		.cfi_restore 14
 581              		.cfi_restore 4
 582              		.cfi_def_cfa_offset 0
 583              		.loc 1 258 0
 584 0022 FFF7FEBF 		b	setup_usb_string
 585              	.LVL63:
 586              	.L44:
 587 0026 00BF     		.align	2
 588              	.L43:
 589 0028 00000000 		.word	.LANCHOR2
 590 002c 2A000000 		.word	.LC4
 591 0030 09000000 		.word	.LC1
 592 0034 00000000 		.word	.LC0
 593              		.cfi_endproc
 594              	.LFE279:
 595              		.size	setup_usb_strings, .-setup_usb_strings
 596              		.global	serusbcfg
 597              		.global	usbcfg
 598              		.global	SDU1
 599              		.section	.rodata.ep1config,"a",%progbits
 600              		.align	2
 601              		.set	.LANCHOR4,. + 0
 602              		.type	ep1config, %object
 603              		.size	ep1config, 36
 604              	ep1config:
 605 0000 02000000 		.word	2
 606 0004 00000000 		.word	0
 607 0008 00000000 		.word	sduDataTransmitted
 608 000c 00000000 		.word	sduDataReceived
 609 0010 4000     		.short	64
 610 0012 4000     		.short	64
 611 0014 00000000 		.word	ep1instate
 612 0018 00000000 		.word	ep1outstate
 613 001c 0200     		.short	2
 614 001e 0000     		.space	2
 615 0020 00000000 		.word	0
 616              		.section	.bss.ep2instate,"aw",%nobits
 617              		.align	2
 618              		.type	ep2instate, %object
 619              		.size	ep2instate, 16
 620              	ep2instate:
 621 0000 00000000 		.space	16
 621      00000000 
 621      00000000 
 621      00000000 
 622              		.section	.bss.SDU1,"aw",%nobits
 623              		.align	2
 624              		.set	.LANCHOR3,. + 0
ARM GAS  /tmp/ccZRGtbW.s 			page 12


 625              		.type	SDU1, %object
 626              		.size	SDU1, 1168
 627              	SDU1:
 628 0000 00000000 		.space	1168
 628      00000000 
 628      00000000 
 628      00000000 
 628      00000000 
 629              		.section	.bss.ep1instate,"aw",%nobits
 630              		.align	2
 631              		.type	ep1instate, %object
 632              		.size	ep1instate, 16
 633              	ep1instate:
 634 0000 00000000 		.space	16
 634      00000000 
 634      00000000 
 634      00000000 
 635              		.section	.data.vcom_strings,"aw",%progbits
 636              		.align	2
 637              		.set	.LANCHOR2,. + 0
 638              		.type	vcom_strings, %object
 639              		.size	vcom_strings, 32
 640              	vcom_strings:
 641 0000 04000000 		.word	4
 642 0004 00000000 		.word	vcom_string0
 643 0008 00000000 		.word	0
 644 000c 00000000 		.word	0
 645 0010 00000000 		.word	0
 646 0014 00000000 		.word	0
 647 0018 00000000 		.word	0
 648 001c 00000000 		.word	0
 649              		.section	.rodata.vcom_configuration_descriptor,"a",%progbits
 650              		.align	2
 651              		.set	.LANCHOR1,. + 0
 652              		.type	vcom_configuration_descriptor, %object
 653              		.size	vcom_configuration_descriptor, 8
 654              	vcom_configuration_descriptor:
 655 0000 43000000 		.word	67
 656 0004 00000000 		.word	vcom_configuration_descriptor_data
 657              		.section	.rodata.ep2config,"a",%progbits
 658              		.align	2
 659              		.set	.LANCHOR5,. + 0
 660              		.type	ep2config, %object
 661              		.size	ep2config, 36
 662              	ep2config:
 663 0000 03000000 		.word	3
 664 0004 00000000 		.word	0
 665 0008 00000000 		.word	sduInterruptTransmitted
 666 000c 00000000 		.word	0
 667 0010 1000     		.short	16
 668 0012 0000     		.short	0
 669 0014 00000000 		.word	ep2instate
 670 0018 00000000 		.word	0
 671 001c 0100     		.short	1
 672 001e 0000     		.space	2
 673 0020 00000000 		.word	0
 674              		.section	.rodata.str1.1,"aMS",%progbits,1
ARM GAS  /tmp/ccZRGtbW.s 			page 13


 675              	.LC0:
 676 0000 25534552 		.ascii	"%SERIAL%\000"
 676      49414C25 
 676      00
 677              	.LC1:
 678 0009 25424F41 		.ascii	"%BOARD%\000"
 678      52442500 
 679              	.LC2:
 680 0011 66346279 		.ascii	"f4by-ch\000"
 680      2D636800 
 681              	.LC3:
 682 0019 30313233 		.ascii	"0123456789ABCDEF\000"
 682      34353637 
 682      38394142 
 682      43444546 
 682      00
 683              	.LC4:
 684 002a 53776966 		.ascii	"Swift-Flyer\000"
 684      742D466C 
 684      79657200 
 685              		.section	.rodata.usbcfg,"a",%progbits
 686              		.align	2
 687              		.type	usbcfg, %object
 688              		.size	usbcfg, 16
 689              	usbcfg:
 690 0000 00000000 		.word	usb_event
 691 0004 00000000 		.word	get_descriptor
 692 0008 00000000 		.word	sduRequestsHook
 693 000c 00000000 		.word	sof_handler
 694              		.section	.rodata.vcom_configuration_descriptor_data,"a",%progbits
 695              		.type	vcom_configuration_descriptor_data, %object
 696              		.size	vcom_configuration_descriptor_data, 67
 697              	vcom_configuration_descriptor_data:
 698 0000 09       		.byte	9
 699 0001 02       		.byte	2
 700 0002 43       		.byte	67
 701 0003 00       		.byte	0
 702 0004 02       		.byte	2
 703 0005 01       		.byte	1
 704 0006 00       		.byte	0
 705 0007 C0       		.byte	-64
 706 0008 32       		.byte	50
 707 0009 09       		.byte	9
 708 000a 04       		.byte	4
 709 000b 00       		.byte	0
 710 000c 00       		.byte	0
 711 000d 01       		.byte	1
 712 000e 02       		.byte	2
 713 000f 02       		.byte	2
 714 0010 01       		.byte	1
 715 0011 00       		.byte	0
 716 0012 05       		.byte	5
 717 0013 24       		.byte	36
 718 0014 00       		.byte	0
 719 0015 10       		.byte	16
 720 0016 01       		.byte	1
 721 0017 05       		.byte	5
ARM GAS  /tmp/ccZRGtbW.s 			page 14


 722 0018 24       		.byte	36
 723 0019 01       		.byte	1
 724 001a 00       		.byte	0
 725 001b 01       		.byte	1
 726 001c 04       		.byte	4
 727 001d 24       		.byte	36
 728 001e 02       		.byte	2
 729 001f 02       		.byte	2
 730 0020 05       		.byte	5
 731 0021 24       		.byte	36
 732 0022 06       		.byte	6
 733 0023 00       		.byte	0
 734 0024 01       		.byte	1
 735 0025 07       		.byte	7
 736 0026 05       		.byte	5
 737 0027 82       		.byte	-126
 738 0028 03       		.byte	3
 739 0029 08       		.byte	8
 740 002a 00       		.byte	0
 741 002b FF       		.byte	-1
 742 002c 09       		.byte	9
 743 002d 04       		.byte	4
 744 002e 01       		.byte	1
 745 002f 00       		.byte	0
 746 0030 02       		.byte	2
 747 0031 0A       		.byte	10
 748 0032 00       		.byte	0
 749 0033 00       		.byte	0
 750 0034 00       		.byte	0
 751 0035 07       		.byte	7
 752 0036 05       		.byte	5
 753 0037 01       		.byte	1
 754 0038 02       		.byte	2
 755 0039 40       		.byte	64
 756 003a 00       		.byte	0
 757 003b 00       		.byte	0
 758 003c 07       		.byte	7
 759 003d 05       		.byte	5
 760 003e 81       		.byte	-127
 761 003f 02       		.byte	2
 762 0040 40       		.byte	64
 763 0041 00       		.byte	0
 764 0042 00       		.byte	0
 765              		.section	.rodata.vcom_device_descriptor_data,"a",%progbits
 766              		.type	vcom_device_descriptor_data, %object
 767              		.size	vcom_device_descriptor_data, 18
 768              	vcom_device_descriptor_data:
 769 0000 12       		.byte	18
 770 0001 01       		.byte	1
 771 0002 10       		.byte	16
 772 0003 01       		.byte	1
 773 0004 02       		.byte	2
 774 0005 00       		.byte	0
 775 0006 00       		.byte	0
 776 0007 40       		.byte	64
 777 0008 AC       		.byte	-84
 778 0009 27       		.byte	39
ARM GAS  /tmp/ccZRGtbW.s 			page 15


 779 000a 01       		.byte	1
 780 000b 02       		.byte	2
 781 000c 00       		.byte	0
 782 000d 02       		.byte	2
 783 000e 01       		.byte	1
 784 000f 02       		.byte	2
 785 0010 03       		.byte	3
 786 0011 01       		.byte	1
 787              		.section	.bss.ep1outstate,"aw",%nobits
 788              		.align	2
 789              		.type	ep1outstate, %object
 790              		.size	ep1outstate, 16
 791              	ep1outstate:
 792 0000 00000000 		.space	16
 792      00000000 
 792      00000000 
 792      00000000 
 793              		.section	.rodata.vcom_string0,"a",%progbits
 794              		.type	vcom_string0, %object
 795              		.size	vcom_string0, 4
 796              	vcom_string0:
 797 0000 04       		.byte	4
 798 0001 03       		.byte	3
 799 0002 09       		.byte	9
 800 0003 04       		.byte	4
 801              		.section	.rodata.serusbcfg,"a",%progbits
 802              		.align	2
 803              		.type	serusbcfg, %object
 804              		.size	serusbcfg, 8
 805              	serusbcfg:
 806 0000 00000000 		.word	USBD1
 807 0004 01       		.byte	1
 808 0005 01       		.byte	1
 809 0006 02       		.byte	2
 810 0007 00       		.space	1
 811              		.section	.rodata.vcom_device_descriptor,"a",%progbits
 812              		.align	2
 813              		.set	.LANCHOR0,. + 0
 814              		.type	vcom_device_descriptor, %object
 815              		.size	vcom_device_descriptor, 8
 816              	vcom_device_descriptor:
 817 0000 12000000 		.word	18
 818 0004 00000000 		.word	vcom_device_descriptor_data
 819              		.text
 820              	.Letext0:
 821              		.file 4 "/usr/lib/gcc/arm-none-eabi/4.9.3/include/stddef.h"
 822              		.file 5 "/usr/include/newlib/machine/_default_types.h"
 823              		.file 6 "/usr/include/newlib/sys/_stdint.h"
 824              		.file 7 "../../modules/ChibiOS/os/common/ports/ARMCMx/compilers/GCC/chtypes.h"
 825              		.file 8 "../../modules/ChibiOS/os/rt/include/chsystypes.h"
 826              		.file 9 "../../modules/ChibiOS/os/rt/include/chschd.h"
 827              		.file 10 "../../modules/ChibiOS/os/common/ports/ARMCMx/chcore.h"
 828              		.file 11 "../../modules/ChibiOS/os/common/ports/ARMCMx/chcore_v7m.h"
 829              		.file 12 "../../modules/ChibiOS/os/rt/include/chtm.h"
 830              		.file 13 "../../modules/ChibiOS/os/rt/include/chstats.h"
 831              		.file 14 "../../modules/ChibiOS/os/rt/include/chsem.h"
 832              		.file 15 "../../modules/ChibiOS/os/rt/include/chmtx.h"
ARM GAS  /tmp/ccZRGtbW.s 			page 16


 833              		.file 16 "../../modules/ChibiOS/os/rt/include/chevents.h"
 834              		.file 17 "../../modules/ChibiOS/os/hal/include/hal_buffers.h"
 835              		.file 18 "../../modules/ChibiOS/os/hal/include/hal_usb.h"
 836              		.file 19 "../../modules/ChibiOS/os/hal/ports/STM32/LLD/OTGv1/hal_usb_lld.h"
 837              		.file 20 "../../modules/ChibiOS/os/hal/ports/STM32/LLD/OTGv1/stm32_otg.h"
 838              		.file 21 "../../modules/ChibiOS/os/hal/include/hal_serial_usb.h"
 839              		.file 22 "../../modules/ChibiOS/os/hal/osal/rt/osal.h"
 840              		.file 23 "../../modules/ChibiOS/os/common/ext/CMSIS/include/core_cm4.h"
 841              		.file 24 "/usr/include/newlib/string.h"
 842              		.file 25 "/usr/include/newlib/stdlib.h"