ARM GAS  /tmp/ccZyUS7l.s 			page 1


   1              		.syntax unified
   2              		.cpu cortex-m4
   3              		.eabi_attribute 27, 1
   4              		.eabi_attribute 28, 1
   5              		.fpu fpv4-sp-d16
   6              		.eabi_attribute 20, 1
   7              		.eabi_attribute 21, 1
   8              		.eabi_attribute 23, 3
   9              		.eabi_attribute 24, 1
  10              		.eabi_attribute 25, 1
  11              		.eabi_attribute 26, 1
  12              		.eabi_attribute 30, 4
  13              		.eabi_attribute 34, 1
  14              		.eabi_attribute 18, 4
  15              		.thumb
  16              		.file	"vectors.c"
  17              		.text
  18              	.Ltext0:
  19              		.cfi_sections	.debug_frame
  20              		.section	.text._unhandled_exception,"ax",%progbits
  21              		.align	1
  22              		.global	_unhandled_exception
  23              		.thumb
  24              		.thumb_func
  25              		.type	_unhandled_exception, %function
  26              	_unhandled_exception:
  27              	.LFB124:
  28              		.file 1 "../../modules/ChibiOS/os/common/startup/ARMCMx/compilers/GCC/vectors.c"
  29              		.loc 1 132 0
  30              		.cfi_startproc
  31              		@ args = 0, pretend = 0, frame = 0
  32              		@ frame_needed = 0, uses_anonymous_args = 0
  33              		@ link register save eliminated.
  34              		.loc 1 134 0
  35              	@ 134 "../../modules/ChibiOS/os/common/startup/ARMCMx/compilers/GCC/vectors.c" 1
  36 0000 1EF0040F 		 tst lr, #4                                                
  37 0004 0CBF     	 ite eq                                                    
  38 0006 EFF30880 	 mrseq r0, msp                                             
  39 000a EFF30980 	 mrsne r0, psp                                             
  40 000e 8169     	 ldr r1, [r0, #24]                                         
  41 0010 004A     	 ldr r2, handler2_address_const                            
  42 0012 1047     	 bx r2                                                     
  43 0014 00000000 	 handler2_address_const: .word prvGetRegistersFromStack    
  44              	
  45              	@ 0 "" 2
  46              		.thumb
  47 0018 7047     		bx	lr
  48              		.cfi_endproc
  49              	.LFE124:
  50              		.size	_unhandled_exception, .-_unhandled_exception
  51              		.weak	NMI_Handler
  52              		.thumb_set NMI_Handler,_unhandled_exception
  53              		.weak	HardFault_Handler
  54              		.thumb_set HardFault_Handler,_unhandled_exception
  55              		.weak	MemManage_Handler
  56              		.thumb_set MemManage_Handler,_unhandled_exception
  57              		.weak	BusFault_Handler
ARM GAS  /tmp/ccZyUS7l.s 			page 2


  58              		.thumb_set BusFault_Handler,_unhandled_exception
  59              		.weak	UsageFault_Handler
  60              		.thumb_set UsageFault_Handler,_unhandled_exception
  61              		.weak	Vector1C
  62              		.thumb_set Vector1C,_unhandled_exception
  63              		.weak	Vector20
  64              		.thumb_set Vector20,_unhandled_exception
  65              		.weak	Vector24
  66              		.thumb_set Vector24,_unhandled_exception
  67              		.weak	Vector28
  68              		.thumb_set Vector28,_unhandled_exception
  69              		.weak	SVC_Handler
  70              		.thumb_set SVC_Handler,_unhandled_exception
  71              		.weak	DebugMon_Handler
  72              		.thumb_set DebugMon_Handler,_unhandled_exception
  73              		.weak	Vector34
  74              		.thumb_set Vector34,_unhandled_exception
  75              		.weak	PendSV_Handler
  76              		.thumb_set PendSV_Handler,_unhandled_exception
  77              		.weak	SysTick_Handler
  78              		.thumb_set SysTick_Handler,_unhandled_exception
  79              		.weak	Vector40
  80              		.thumb_set Vector40,_unhandled_exception
  81              		.weak	Vector44
  82              		.thumb_set Vector44,_unhandled_exception
  83              		.weak	Vector48
  84              		.thumb_set Vector48,_unhandled_exception
  85              		.weak	Vector4C
  86              		.thumb_set Vector4C,_unhandled_exception
  87              		.weak	Vector50
  88              		.thumb_set Vector50,_unhandled_exception
  89              		.weak	Vector54
  90              		.thumb_set Vector54,_unhandled_exception
  91              		.weak	Vector58
  92              		.thumb_set Vector58,_unhandled_exception
  93              		.weak	Vector5C
  94              		.thumb_set Vector5C,_unhandled_exception
  95              		.weak	Vector60
  96              		.thumb_set Vector60,_unhandled_exception
  97              		.weak	Vector64
  98              		.thumb_set Vector64,_unhandled_exception
  99              		.weak	Vector68
 100              		.thumb_set Vector68,_unhandled_exception
 101              		.weak	Vector6C
 102              		.thumb_set Vector6C,_unhandled_exception
 103              		.weak	Vector70
 104              		.thumb_set Vector70,_unhandled_exception
 105              		.weak	Vector74
 106              		.thumb_set Vector74,_unhandled_exception
 107              		.weak	Vector78
 108              		.thumb_set Vector78,_unhandled_exception
 109              		.weak	Vector7C
 110              		.thumb_set Vector7C,_unhandled_exception
 111              		.weak	Vector80
 112              		.thumb_set Vector80,_unhandled_exception
 113              		.weak	Vector84
 114              		.thumb_set Vector84,_unhandled_exception
ARM GAS  /tmp/ccZyUS7l.s 			page 3


 115              		.weak	Vector88
 116              		.thumb_set Vector88,_unhandled_exception
 117              		.weak	Vector8C
 118              		.thumb_set Vector8C,_unhandled_exception
 119              		.weak	Vector90
 120              		.thumb_set Vector90,_unhandled_exception
 121              		.weak	Vector94
 122              		.thumb_set Vector94,_unhandled_exception
 123              		.weak	Vector98
 124              		.thumb_set Vector98,_unhandled_exception
 125              		.weak	Vector9C
 126              		.thumb_set Vector9C,_unhandled_exception
 127              		.weak	VectorA0
 128              		.thumb_set VectorA0,_unhandled_exception
 129              		.weak	VectorA4
 130              		.thumb_set VectorA4,_unhandled_exception
 131              		.weak	VectorA8
 132              		.thumb_set VectorA8,_unhandled_exception
 133              		.weak	VectorAC
 134              		.thumb_set VectorAC,_unhandled_exception
 135              		.weak	VectorB0
 136              		.thumb_set VectorB0,_unhandled_exception
 137              		.weak	VectorB4
 138              		.thumb_set VectorB4,_unhandled_exception
 139              		.weak	VectorB8
 140              		.thumb_set VectorB8,_unhandled_exception
 141              		.weak	VectorBC
 142              		.thumb_set VectorBC,_unhandled_exception
 143              		.weak	VectorC0
 144              		.thumb_set VectorC0,_unhandled_exception
 145              		.weak	VectorC4
 146              		.thumb_set VectorC4,_unhandled_exception
 147              		.weak	VectorC8
 148              		.thumb_set VectorC8,_unhandled_exception
 149              		.weak	VectorCC
 150              		.thumb_set VectorCC,_unhandled_exception
 151              		.weak	VectorD0
 152              		.thumb_set VectorD0,_unhandled_exception
 153              		.weak	VectorD4
 154              		.thumb_set VectorD4,_unhandled_exception
 155              		.weak	VectorD8
 156              		.thumb_set VectorD8,_unhandled_exception
 157              		.weak	VectorDC
 158              		.thumb_set VectorDC,_unhandled_exception
 159              		.weak	VectorE0
 160              		.thumb_set VectorE0,_unhandled_exception
 161              		.weak	VectorE4
 162              		.thumb_set VectorE4,_unhandled_exception
 163              		.weak	VectorE8
 164              		.thumb_set VectorE8,_unhandled_exception
 165              		.weak	VectorEC
 166              		.thumb_set VectorEC,_unhandled_exception
 167              		.weak	VectorF0
 168              		.thumb_set VectorF0,_unhandled_exception
 169              		.weak	VectorF4
 170              		.thumb_set VectorF4,_unhandled_exception
 171              		.weak	VectorF8
ARM GAS  /tmp/ccZyUS7l.s 			page 4


 172              		.thumb_set VectorF8,_unhandled_exception
 173              		.weak	VectorFC
 174              		.thumb_set VectorFC,_unhandled_exception
 175              		.weak	Vector100
 176              		.thumb_set Vector100,_unhandled_exception
 177              		.weak	Vector104
 178              		.thumb_set Vector104,_unhandled_exception
 179              		.weak	Vector108
 180              		.thumb_set Vector108,_unhandled_exception
 181              		.weak	Vector10C
 182              		.thumb_set Vector10C,_unhandled_exception
 183              		.weak	Vector110
 184              		.thumb_set Vector110,_unhandled_exception
 185              		.weak	Vector114
 186              		.thumb_set Vector114,_unhandled_exception
 187              		.weak	Vector118
 188              		.thumb_set Vector118,_unhandled_exception
 189              		.weak	Vector11C
 190              		.thumb_set Vector11C,_unhandled_exception
 191              		.weak	Vector120
 192              		.thumb_set Vector120,_unhandled_exception
 193              		.weak	Vector124
 194              		.thumb_set Vector124,_unhandled_exception
 195              		.weak	Vector128
 196              		.thumb_set Vector128,_unhandled_exception
 197              		.weak	Vector12C
 198              		.thumb_set Vector12C,_unhandled_exception
 199              		.weak	Vector130
 200              		.thumb_set Vector130,_unhandled_exception
 201              		.weak	Vector134
 202              		.thumb_set Vector134,_unhandled_exception
 203              		.weak	Vector138
 204              		.thumb_set Vector138,_unhandled_exception
 205              		.weak	Vector13C
 206              		.thumb_set Vector13C,_unhandled_exception
 207              		.weak	Vector140
 208              		.thumb_set Vector140,_unhandled_exception
 209              		.weak	Vector144
 210              		.thumb_set Vector144,_unhandled_exception
 211              		.weak	Vector148
 212              		.thumb_set Vector148,_unhandled_exception
 213              		.weak	Vector14C
 214              		.thumb_set Vector14C,_unhandled_exception
 215              		.weak	Vector150
 216              		.thumb_set Vector150,_unhandled_exception
 217              		.weak	Vector154
 218              		.thumb_set Vector154,_unhandled_exception
 219              		.weak	Vector158
 220              		.thumb_set Vector158,_unhandled_exception
 221              		.weak	Vector15C
 222              		.thumb_set Vector15C,_unhandled_exception
 223              		.weak	Vector160
 224              		.thumb_set Vector160,_unhandled_exception
 225              		.weak	Vector164
 226              		.thumb_set Vector164,_unhandled_exception
 227              		.weak	Vector168
 228              		.thumb_set Vector168,_unhandled_exception
ARM GAS  /tmp/ccZyUS7l.s 			page 5


 229              		.weak	Vector16C
 230              		.thumb_set Vector16C,_unhandled_exception
 231              		.weak	Vector170
 232              		.thumb_set Vector170,_unhandled_exception
 233              		.weak	Vector174
 234              		.thumb_set Vector174,_unhandled_exception
 235              		.weak	Vector178
 236              		.thumb_set Vector178,_unhandled_exception
 237              		.weak	Vector17C
 238              		.thumb_set Vector17C,_unhandled_exception
 239              		.weak	Vector180
 240              		.thumb_set Vector180,_unhandled_exception
 241              		.weak	Vector184
 242              		.thumb_set Vector184,_unhandled_exception
 243              		.weak	Vector188
 244              		.thumb_set Vector188,_unhandled_exception
 245              		.weak	Vector18C
 246              		.thumb_set Vector18C,_unhandled_exception
 247              		.weak	Vector190
 248              		.thumb_set Vector190,_unhandled_exception
 249              		.weak	Vector194
 250              		.thumb_set Vector194,_unhandled_exception
 251              		.weak	Vector198
 252              		.thumb_set Vector198,_unhandled_exception
 253              		.weak	Vector19C
 254              		.thumb_set Vector19C,_unhandled_exception
 255              		.weak	Vector1A0
 256              		.thumb_set Vector1A0,_unhandled_exception
 257              		.weak	Vector1A4
 258              		.thumb_set Vector1A4,_unhandled_exception
 259              		.weak	Vector1A8
 260              		.thumb_set Vector1A8,_unhandled_exception
 261              		.weak	Vector1AC
 262              		.thumb_set Vector1AC,_unhandled_exception
 263              		.weak	Vector1B0
 264              		.thumb_set Vector1B0,_unhandled_exception
 265              		.weak	Vector1B4
 266              		.thumb_set Vector1B4,_unhandled_exception
 267              		.weak	Vector1B8
 268              		.thumb_set Vector1B8,_unhandled_exception
 269              		.weak	Vector1BC
 270              		.thumb_set Vector1BC,_unhandled_exception
 271              		.weak	Vector1C0
 272              		.thumb_set Vector1C0,_unhandled_exception
 273              		.weak	Vector1C4
 274              		.thumb_set Vector1C4,_unhandled_exception
 275              		.weak	Vector1C8
 276              		.thumb_set Vector1C8,_unhandled_exception
 277              		.weak	Vector1CC
 278              		.thumb_set Vector1CC,_unhandled_exception
 279              		.weak	Vector1D0
 280              		.thumb_set Vector1D0,_unhandled_exception
 281              		.weak	Vector1D4
 282              		.thumb_set Vector1D4,_unhandled_exception
 283              		.weak	Vector1D8
 284              		.thumb_set Vector1D8,_unhandled_exception
 285              		.weak	Vector1DC
ARM GAS  /tmp/ccZyUS7l.s 			page 6


 286              		.thumb_set Vector1DC,_unhandled_exception
 287              		.section	.text.prvGetRegistersFromStack,"ax",%progbits
 288              		.align	1
 289              		.global	prvGetRegistersFromStack
 290              		.thumb
 291              		.thumb_func
 292              		.type	prvGetRegistersFromStack, %function
 293              	prvGetRegistersFromStack:
 294              	.LFB123:
 295              		.loc 1 73 0
 296              		.cfi_startproc
 297              		@ args = 0, pretend = 0, frame = 0
 298              		@ frame_needed = 0, uses_anonymous_args = 0
 299              		@ link register save eliminated.
 300              	.LVL0:
 301              		.loc 1 75 0
 302 0000 204B     		ldr	r3, .L8
 303 0002 0268     		ldr	r2, [r0]
 304 0004 1A60     		str	r2, [r3]
 305              		.loc 1 76 0
 306 0006 204B     		ldr	r3, .L8+4
 307 0008 4268     		ldr	r2, [r0, #4]
 308 000a 1A60     		str	r2, [r3]
 309              		.loc 1 77 0
 310 000c 1F4B     		ldr	r3, .L8+8
 311 000e 8268     		ldr	r2, [r0, #8]
 312 0010 1A60     		str	r2, [r3]
 313              		.loc 1 78 0
 314 0012 1F4B     		ldr	r3, .L8+12
 315 0014 C268     		ldr	r2, [r0, #12]
 316 0016 1A60     		str	r2, [r3]
 317              		.loc 1 79 0
 318 0018 1E4B     		ldr	r3, .L8+16
 319 001a 0269     		ldr	r2, [r0, #16]
 320 001c 1A60     		str	r2, [r3]
 321              		.loc 1 80 0
 322 001e 1E4B     		ldr	r3, .L8+20
 323 0020 4269     		ldr	r2, [r0, #20]
 324 0022 1A60     		str	r2, [r3]
 325              		.loc 1 81 0
 326 0024 1D4B     		ldr	r3, .L8+24
 327 0026 8269     		ldr	r2, [r0, #24]
 328 0028 1A60     		str	r2, [r3]
 329              		.loc 1 82 0
 330 002a 1D4B     		ldr	r3, .L8+28
 331 002c C269     		ldr	r2, [r0, #28]
 332 002e 1A60     		str	r2, [r3]
 333              		.loc 1 85 0
 334 0030 1C4B     		ldr	r3, .L8+32
 335              		.loc 1 86 0
 336 0032 1D49     		ldr	r1, .L8+36
 337              		.loc 1 85 0
 338 0034 1A68     		ldr	r2, [r3]
 339 0036 1D4B     		ldr	r3, .L8+40
 340 0038 1A60     		str	r2, [r3]
 341              		.loc 1 86 0
 342 003a 1A68     		ldr	r2, [r3]
ARM GAS  /tmp/ccZyUS7l.s 			page 7


 343 003c 120A     		lsrs	r2, r2, #8
 344 003e 0A70     		strb	r2, [r1]
 345              		.loc 1 87 0
 346 0040 1A68     		ldr	r2, [r3]
 347 0042 1B4B     		ldr	r3, .L8+44
 348 0044 1A70     		strb	r2, [r3]
 349              		.loc 1 90 0
 350 0046 1B4B     		ldr	r3, .L8+48
 351 0048 1A68     		ldr	r2, [r3]
 352 004a 1B4B     		ldr	r3, .L8+52
 353 004c 1A60     		str	r2, [r3]
 354              		.loc 1 93 0
 355 004e 1B4B     		ldr	r3, .L8+56
 356 0050 1A68     		ldr	r2, [r3]
 357 0052 1B4B     		ldr	r3, .L8+60
 358 0054 1A60     		str	r2, [r3]
 359              		.loc 1 96 0
 360 0056 1B4B     		ldr	r3, .L8+64
 361 0058 1A68     		ldr	r2, [r3]
 362 005a 1B4B     		ldr	r3, .L8+68
 363 005c 1A60     		str	r2, [r3]
 364              		.loc 1 101 0
 365 005e 1B4B     		ldr	r3, .L8+72
 366 0060 1A68     		ldr	r2, [r3]
 367 0062 1B4B     		ldr	r3, .L8+76
 368 0064 1A60     		str	r2, [r3]
 369              		.loc 1 103 0
 370 0066 1B4B     		ldr	r3, .L8+80
 371 0068 1A68     		ldr	r2, [r3]
 372 006a 1B4B     		ldr	r3, .L8+84
 373 006c 1A60     		str	r2, [r3]
 374              		.loc 1 105 0
 375 006e 1B4B     		ldr	r3, .L8+88
 376 0070 5A6A     		ldr	r2, [r3, #36]
 377 0072 1B4B     		ldr	r3, .L8+92
 378 0074 1A60     		str	r2, [r3]
 379              		.loc 1 107 0
 380 0076 1B4B     		ldr	r3, .L8+96
 381 0078 1B68     		ldr	r3, [r3]
 382 007a DB07     		lsls	r3, r3, #31
 383 007c 01D5     		bpl	.L3
 384              	.LVL1:
 385              	.LBB2:
 386              		.loc 1 109 0
 387              	@ 109 "../../modules/ChibiOS/os/common/startup/ARMCMx/compilers/GCC/vectors.c" 1
 388 007e 00BE     		BKPT #0
 389              	
 390              	@ 0 "" 2
 391              		.thumb
 392              	.L4:
 393 0080 FEE7     		b	.L4
 394              	.LVL2:
 395              	.L3:
 396              	.LBE2:
 397              		.loc 1 118 0 discriminator 1
 398 0082 FEE7     		b	.L3
 399              	.L9:
ARM GAS  /tmp/ccZyUS7l.s 			page 8


 400              		.align	2
 401              	.L8:
 402 0084 00000000 		.word	.LANCHOR0
 403 0088 00000000 		.word	.LANCHOR1
 404 008c 00000000 		.word	.LANCHOR2
 405 0090 00000000 		.word	.LANCHOR3
 406 0094 00000000 		.word	.LANCHOR4
 407 0098 00000000 		.word	.LANCHOR5
 408 009c 00000000 		.word	.LANCHOR6
 409 00a0 00000000 		.word	.LANCHOR7
 410 00a4 28ED00E0 		.word	-536810200
 411 00a8 00000000 		.word	.LANCHOR9
 412 00ac 00000000 		.word	.LANCHOR8
 413 00b0 00000000 		.word	.LANCHOR10
 414 00b4 2CED00E0 		.word	-536810196
 415 00b8 00000000 		.word	.LANCHOR11
 416 00bc 30ED00E0 		.word	-536810192
 417 00c0 00000000 		.word	.LANCHOR12
 418 00c4 3CED00E0 		.word	-536810180
 419 00c8 00000000 		.word	.LANCHOR13
 420 00cc 34ED00E0 		.word	-536810188
 421 00d0 00000000 		.word	.LANCHOR14
 422 00d4 38ED00E0 		.word	-536810184
 423 00d8 00000000 		.word	.LANCHOR15
 424 00dc 00ED00E0 		.word	-536810240
 425 00e0 00000000 		.word	.LANCHOR16
 426 00e4 F0ED00E0 		.word	-536810000
 427              		.cfi_endproc
 428              	.LFE123:
 429              		.size	prvGetRegistersFromStack, .-prvGetRegistersFromStack
 430              		.global	_vectors
 431              		.global	postmortem_MMSR
 432              		.global	postmortem_BFSR
 433              		.global	postmortem_SCB_SHCSR
 434              		.global	postmortem_MMAR
 435              		.global	postmortem_BFAR
 436              		.global	postmortem_AFSR
 437              		.global	postmortem_DFSR
 438              		.global	postmortem_HFSR
 439              		.global	postmortem_CFSR
 440              		.global	postmortem_psr
 441              		.global	postmortem_pc
 442              		.global	postmortem_lr
 443              		.global	postmortem_r12
 444              		.global	postmortem_r3
 445              		.global	postmortem_r2
 446              		.global	postmortem_r1
 447              		.global	postmortem_r0
 448              		.section	.bss.postmortem_lr,"aw",%nobits
 449              		.align	2
 450              		.set	.LANCHOR5,. + 0
 451              		.type	postmortem_lr, %object
 452              		.size	postmortem_lr, 4
 453              	postmortem_lr:
 454 0000 00000000 		.space	4
 455              		.section	.bss.postmortem_MMSR,"aw",%nobits
 456              		.set	.LANCHOR10,. + 0
ARM GAS  /tmp/ccZyUS7l.s 			page 9


 457              		.type	postmortem_MMSR, %object
 458              		.size	postmortem_MMSR, 1
 459              	postmortem_MMSR:
 460 0000 00       		.space	1
 461              		.section	.bss.postmortem_SCB_SHCSR,"aw",%nobits
 462              		.align	2
 463              		.set	.LANCHOR16,. + 0
 464              		.type	postmortem_SCB_SHCSR, %object
 465              		.size	postmortem_SCB_SHCSR, 4
 466              	postmortem_SCB_SHCSR:
 467 0000 00000000 		.space	4
 468              		.section	.bss.postmortem_pc,"aw",%nobits
 469              		.align	2
 470              		.set	.LANCHOR6,. + 0
 471              		.type	postmortem_pc, %object
 472              		.size	postmortem_pc, 4
 473              	postmortem_pc:
 474 0000 00000000 		.space	4
 475              		.section	.vectors,"aw",%progbits
 476              		.align	7
 477              		.type	_vectors, %object
 478              		.size	_vectors, 480
 479              	_vectors:
 480 0000 00000000 		.word	__main_stack_end__
 481 0004 00000000 		.word	Reset_Handler
 482 0008 00000000 		.word	NMI_Handler
 483 000c 00000000 		.word	HardFault_Handler
 484 0010 00000000 		.word	MemManage_Handler
 485 0014 00000000 		.word	BusFault_Handler
 486 0018 00000000 		.word	UsageFault_Handler
 487 001c 00000000 		.word	Vector1C
 488 0020 00000000 		.word	Vector20
 489 0024 00000000 		.word	Vector24
 490 0028 00000000 		.word	Vector28
 491 002c 00000000 		.word	SVC_Handler
 492 0030 00000000 		.word	DebugMon_Handler
 493 0034 00000000 		.word	Vector34
 494 0038 00000000 		.word	PendSV_Handler
 495 003c 00000000 		.word	SysTick_Handler
 496 0040 00000000 		.word	Vector40
 497 0044 00000000 		.word	Vector44
 498 0048 00000000 		.word	Vector48
 499 004c 00000000 		.word	Vector4C
 500 0050 00000000 		.word	Vector50
 501 0054 00000000 		.word	Vector54
 502 0058 00000000 		.word	Vector58
 503 005c 00000000 		.word	Vector5C
 504 0060 00000000 		.word	Vector60
 505 0064 00000000 		.word	Vector64
 506 0068 00000000 		.word	Vector68
 507 006c 00000000 		.word	Vector6C
 508 0070 00000000 		.word	Vector70
 509 0074 00000000 		.word	Vector74
 510 0078 00000000 		.word	Vector78
 511 007c 00000000 		.word	Vector7C
 512 0080 00000000 		.word	Vector80
 513 0084 00000000 		.word	Vector84
ARM GAS  /tmp/ccZyUS7l.s 			page 10


 514 0088 00000000 		.word	Vector88
 515 008c 00000000 		.word	Vector8C
 516 0090 00000000 		.word	Vector90
 517 0094 00000000 		.word	Vector94
 518 0098 00000000 		.word	Vector98
 519 009c 00000000 		.word	Vector9C
 520 00a0 00000000 		.word	VectorA0
 521 00a4 00000000 		.word	VectorA4
 522 00a8 00000000 		.word	VectorA8
 523 00ac 00000000 		.word	VectorAC
 524 00b0 00000000 		.word	VectorB0
 525 00b4 00000000 		.word	VectorB4
 526 00b8 00000000 		.word	VectorB8
 527 00bc 00000000 		.word	VectorBC
 528 00c0 00000000 		.word	VectorC0
 529 00c4 00000000 		.word	VectorC4
 530 00c8 00000000 		.word	VectorC8
 531 00cc 00000000 		.word	VectorCC
 532 00d0 00000000 		.word	VectorD0
 533 00d4 00000000 		.word	VectorD4
 534 00d8 00000000 		.word	VectorD8
 535 00dc 00000000 		.word	VectorDC
 536 00e0 00000000 		.word	VectorE0
 537 00e4 00000000 		.word	VectorE4
 538 00e8 00000000 		.word	VectorE8
 539 00ec 00000000 		.word	VectorEC
 540 00f0 00000000 		.word	VectorF0
 541 00f4 00000000 		.word	VectorF4
 542 00f8 00000000 		.word	VectorF8
 543 00fc 00000000 		.word	VectorFC
 544 0100 00000000 		.word	Vector100
 545 0104 00000000 		.word	Vector104
 546 0108 00000000 		.word	Vector108
 547 010c 00000000 		.word	Vector10C
 548 0110 00000000 		.word	Vector110
 549 0114 00000000 		.word	Vector114
 550 0118 00000000 		.word	Vector118
 551 011c 00000000 		.word	Vector11C
 552 0120 00000000 		.word	Vector120
 553 0124 00000000 		.word	Vector124
 554 0128 00000000 		.word	Vector128
 555 012c 00000000 		.word	Vector12C
 556 0130 00000000 		.word	Vector130
 557 0134 00000000 		.word	Vector134
 558 0138 00000000 		.word	Vector138
 559 013c 00000000 		.word	Vector13C
 560 0140 00000000 		.word	Vector140
 561 0144 00000000 		.word	Vector144
 562 0148 00000000 		.word	Vector148
 563 014c 00000000 		.word	Vector14C
 564 0150 00000000 		.word	Vector150
 565 0154 00000000 		.word	Vector154
 566 0158 00000000 		.word	Vector158
 567 015c 00000000 		.word	Vector15C
 568 0160 00000000 		.word	Vector160
 569 0164 00000000 		.word	Vector164
 570 0168 00000000 		.word	Vector168
ARM GAS  /tmp/ccZyUS7l.s 			page 11


 571 016c 00000000 		.word	Vector16C
 572 0170 00000000 		.word	Vector170
 573 0174 00000000 		.word	Vector174
 574 0178 00000000 		.word	Vector178
 575 017c 00000000 		.word	Vector17C
 576 0180 00000000 		.word	Vector180
 577 0184 00000000 		.word	Vector184
 578 0188 00000000 		.word	Vector188
 579 018c 00000000 		.word	Vector18C
 580 0190 00000000 		.word	Vector190
 581 0194 00000000 		.word	Vector194
 582 0198 00000000 		.word	Vector198
 583 019c 00000000 		.word	Vector19C
 584 01a0 00000000 		.word	Vector1A0
 585 01a4 00000000 		.word	Vector1A4
 586 01a8 00000000 		.word	Vector1A8
 587 01ac 00000000 		.word	Vector1AC
 588 01b0 00000000 		.word	Vector1B0
 589 01b4 00000000 		.word	Vector1B4
 590 01b8 00000000 		.word	Vector1B8
 591 01bc 00000000 		.word	Vector1BC
 592 01c0 00000000 		.word	Vector1C0
 593 01c4 00000000 		.word	Vector1C4
 594 01c8 00000000 		.word	Vector1C8
 595 01cc 00000000 		.word	Vector1CC
 596 01d0 00000000 		.word	Vector1D0
 597 01d4 00000000 		.word	Vector1D4
 598 01d8 00000000 		.word	Vector1D8
 599 01dc 00000000 		.word	Vector1DC
 600              		.section	.bss.postmortem_r12,"aw",%nobits
 601              		.align	2
 602              		.set	.LANCHOR4,. + 0
 603              		.type	postmortem_r12, %object
 604              		.size	postmortem_r12, 4
 605              	postmortem_r12:
 606 0000 00000000 		.space	4
 607              		.section	.bss.postmortem_BFAR,"aw",%nobits
 608              		.align	2
 609              		.set	.LANCHOR15,. + 0
 610              		.type	postmortem_BFAR, %object
 611              		.size	postmortem_BFAR, 4
 612              	postmortem_BFAR:
 613 0000 00000000 		.space	4
 614              		.section	.bss.postmortem_psr,"aw",%nobits
 615              		.align	2
 616              		.set	.LANCHOR7,. + 0
 617              		.type	postmortem_psr, %object
 618              		.size	postmortem_psr, 4
 619              	postmortem_psr:
 620 0000 00000000 		.space	4
 621              		.section	.bss.postmortem_AFSR,"aw",%nobits
 622              		.align	2
 623              		.set	.LANCHOR13,. + 0
 624              		.type	postmortem_AFSR, %object
 625              		.size	postmortem_AFSR, 4
 626              	postmortem_AFSR:
 627 0000 00000000 		.space	4
ARM GAS  /tmp/ccZyUS7l.s 			page 12


 628              		.section	.bss.postmortem_BFSR,"aw",%nobits
 629              		.set	.LANCHOR9,. + 0
 630              		.type	postmortem_BFSR, %object
 631              		.size	postmortem_BFSR, 1
 632              	postmortem_BFSR:
 633 0000 00       		.space	1
 634              		.section	.bss.postmortem_CFSR,"aw",%nobits
 635              		.align	2
 636              		.set	.LANCHOR8,. + 0
 637              		.type	postmortem_CFSR, %object
 638              		.size	postmortem_CFSR, 4
 639              	postmortem_CFSR:
 640 0000 00000000 		.space	4
 641              		.section	.bss.postmortem_DFSR,"aw",%nobits
 642              		.align	2
 643              		.set	.LANCHOR12,. + 0
 644              		.type	postmortem_DFSR, %object
 645              		.size	postmortem_DFSR, 4
 646              	postmortem_DFSR:
 647 0000 00000000 		.space	4
 648              		.section	.bss.postmortem_MMAR,"aw",%nobits
 649              		.align	2
 650              		.set	.LANCHOR14,. + 0
 651              		.type	postmortem_MMAR, %object
 652              		.size	postmortem_MMAR, 4
 653              	postmortem_MMAR:
 654 0000 00000000 		.space	4
 655              		.section	.bss.postmortem_HFSR,"aw",%nobits
 656              		.align	2
 657              		.set	.LANCHOR11,. + 0
 658              		.type	postmortem_HFSR, %object
 659              		.size	postmortem_HFSR, 4
 660              	postmortem_HFSR:
 661 0000 00000000 		.space	4
 662              		.section	.bss.postmortem_r0,"aw",%nobits
 663              		.align	2
 664              		.set	.LANCHOR0,. + 0
 665              		.type	postmortem_r0, %object
 666              		.size	postmortem_r0, 4
 667              	postmortem_r0:
 668 0000 00000000 		.space	4
 669              		.section	.bss.postmortem_r1,"aw",%nobits
 670              		.align	2
 671              		.set	.LANCHOR1,. + 0
 672              		.type	postmortem_r1, %object
 673              		.size	postmortem_r1, 4
 674              	postmortem_r1:
 675 0000 00000000 		.space	4
 676              		.section	.bss.postmortem_r2,"aw",%nobits
 677              		.align	2
 678              		.set	.LANCHOR2,. + 0
 679              		.type	postmortem_r2, %object
 680              		.size	postmortem_r2, 4
 681              	postmortem_r2:
 682 0000 00000000 		.space	4
 683              		.section	.bss.postmortem_r3,"aw",%nobits
 684              		.align	2
ARM GAS  /tmp/ccZyUS7l.s 			page 13


 685              		.set	.LANCHOR3,. + 0
 686              		.type	postmortem_r3, %object
 687              		.size	postmortem_r3, 4
 688              	postmortem_r3:
 689 0000 00000000 		.space	4
 690              		.text
 691              	.Letext0:
 692              		.file 2 "/usr/include/newlib/machine/_default_types.h"
 693              		.file 3 "/usr/include/newlib/sys/_stdint.h"
 694              		.file 4 "../../modules/ChibiOS/os/common/ext/CMSIS/include/core_cm4.h"
 695              		.file 5 "../../modules/ChibiOS/os/common/startup/ARMCMx/compilers/GCC/vectors.h"
 696              		.section	.debug_info,"",%progbits
 697              	.Ldebug_info0:
 698 0000 34050000 		.4byte	0x534
 699 0004 0400     		.2byte	0x4
 700 0006 00000000 		.4byte	.Ldebug_abbrev0
 701 000a 04       		.byte	0x4
 702 000b 01       		.uleb128 0x1
 703 000c BB020000 		.4byte	.LASF76
 704 0010 01       		.byte	0x1
 705 0011 95040000 		.4byte	.LASF77
 706 0015 4D010000 		.4byte	.LASF78
 707 0019 00000000 		.4byte	.Ldebug_ranges0+0
 708 001d 00000000 		.4byte	0
 709 0021 00000000 		.4byte	.Ldebug_line0
 710 0025 02       		.uleb128 0x2
 711 0026 01       		.byte	0x1
 712 0027 06       		.byte	0x6
 713 0028 37020000 		.4byte	.LASF0
 714 002c 03       		.uleb128 0x3
 715 002d CA010000 		.4byte	.LASF4
 716 0031 02       		.byte	0x2
 717 0032 1D       		.byte	0x1d
 718 0033 37000000 		.4byte	0x37
 719 0037 02       		.uleb128 0x2
 720 0038 01       		.byte	0x1
 721 0039 08       		.byte	0x8
 722 003a F2010000 		.4byte	.LASF1
 723 003e 02       		.uleb128 0x2
 724 003f 02       		.byte	0x2
 725 0040 05       		.byte	0x5
 726 0041 41000000 		.4byte	.LASF2
 727 0045 02       		.uleb128 0x2
 728 0046 02       		.byte	0x2
 729 0047 07       		.byte	0x7
 730 0048 C2030000 		.4byte	.LASF3
 731 004c 03       		.uleb128 0x3
 732 004d 39040000 		.4byte	.LASF5
 733 0051 02       		.byte	0x2
 734 0052 3F       		.byte	0x3f
 735 0053 57000000 		.4byte	0x57
 736 0057 02       		.uleb128 0x2
 737 0058 04       		.byte	0x4
 738 0059 05       		.byte	0x5
 739 005a 9F010000 		.4byte	.LASF6
 740 005e 03       		.uleb128 0x3
 741 005f 20040000 		.4byte	.LASF7
ARM GAS  /tmp/ccZyUS7l.s 			page 14


 742 0063 02       		.byte	0x2
 743 0064 41       		.byte	0x41
 744 0065 69000000 		.4byte	0x69
 745 0069 02       		.uleb128 0x2
 746 006a 04       		.byte	0x4
 747 006b 07       		.byte	0x7
 748 006c 0E040000 		.4byte	.LASF8
 749 0070 02       		.uleb128 0x2
 750 0071 08       		.byte	0x8
 751 0072 05       		.byte	0x5
 752 0073 39010000 		.4byte	.LASF9
 753 0077 02       		.uleb128 0x2
 754 0078 08       		.byte	0x8
 755 0079 07       		.byte	0x7
 756 007a 43020000 		.4byte	.LASF10
 757 007e 04       		.uleb128 0x4
 758 007f 04       		.byte	0x4
 759 0080 05       		.byte	0x5
 760 0081 696E7400 		.ascii	"int\000"
 761 0085 02       		.uleb128 0x2
 762 0086 04       		.byte	0x4
 763 0087 07       		.byte	0x7
 764 0088 75020000 		.4byte	.LASF11
 765 008c 03       		.uleb128 0x3
 766 008d C5000000 		.4byte	.LASF12
 767 0091 03       		.byte	0x3
 768 0092 14       		.byte	0x14
 769 0093 2C000000 		.4byte	0x2c
 770 0097 03       		.uleb128 0x3
 771 0098 AA030000 		.4byte	.LASF13
 772 009c 03       		.byte	0x3
 773 009d 1F       		.byte	0x1f
 774 009e 4C000000 		.4byte	0x4c
 775 00a2 03       		.uleb128 0x3
 776 00a3 5A020000 		.4byte	.LASF14
 777 00a7 03       		.byte	0x3
 778 00a8 20       		.byte	0x20
 779 00a9 5E000000 		.4byte	0x5e
 780 00ad 02       		.uleb128 0x2
 781 00ae 04       		.byte	0x4
 782 00af 07       		.byte	0x7
 783 00b0 4B000000 		.4byte	.LASF15
 784 00b4 05       		.uleb128 0x5
 785 00b5 A2000000 		.4byte	0xa2
 786 00b9 06       		.uleb128 0x6
 787 00ba 8C       		.byte	0x8c
 788 00bb 04       		.byte	0x4
 789 00bc E501     		.2byte	0x1e5
 790 00be D4010000 		.4byte	0x1d4
 791 00c2 07       		.uleb128 0x7
 792 00c3 77000000 		.4byte	.LASF16
 793 00c7 04       		.byte	0x4
 794 00c8 E701     		.2byte	0x1e7
 795 00ca D4010000 		.4byte	0x1d4
 796 00ce 00       		.byte	0
 797 00cf 07       		.uleb128 0x7
 798 00d0 1F010000 		.4byte	.LASF17
ARM GAS  /tmp/ccZyUS7l.s 			page 15


 799 00d4 04       		.byte	0x4
 800 00d5 E801     		.2byte	0x1e8
 801 00d7 B4000000 		.4byte	0xb4
 802 00db 04       		.byte	0x4
 803 00dc 07       		.uleb128 0x7
 804 00dd B6020000 		.4byte	.LASF18
 805 00e1 04       		.byte	0x4
 806 00e2 E901     		.2byte	0x1e9
 807 00e4 B4000000 		.4byte	0xb4
 808 00e8 08       		.byte	0x8
 809 00e9 07       		.uleb128 0x7
 810 00ea 0A020000 		.4byte	.LASF19
 811 00ee 04       		.byte	0x4
 812 00ef EA01     		.2byte	0x1ea
 813 00f1 B4000000 		.4byte	0xb4
 814 00f5 0C       		.byte	0xc
 815 00f6 08       		.uleb128 0x8
 816 00f7 53435200 		.ascii	"SCR\000"
 817 00fb 04       		.byte	0x4
 818 00fc EB01     		.2byte	0x1eb
 819 00fe B4000000 		.4byte	0xb4
 820 0102 10       		.byte	0x10
 821 0103 08       		.uleb128 0x8
 822 0104 43435200 		.ascii	"CCR\000"
 823 0108 04       		.byte	0x4
 824 0109 EC01     		.2byte	0x1ec
 825 010b B4000000 		.4byte	0xb4
 826 010f 14       		.byte	0x14
 827 0110 08       		.uleb128 0x8
 828 0111 53485000 		.ascii	"SHP\000"
 829 0115 04       		.byte	0x4
 830 0116 ED01     		.2byte	0x1ed
 831 0118 E9010000 		.4byte	0x1e9
 832 011c 18       		.byte	0x18
 833 011d 07       		.uleb128 0x7
 834 011e 82020000 		.4byte	.LASF20
 835 0122 04       		.byte	0x4
 836 0123 EE01     		.2byte	0x1ee
 837 0125 B4000000 		.4byte	0xb4
 838 0129 24       		.byte	0x24
 839 012a 07       		.uleb128 0x7
 840 012b D4010000 		.4byte	.LASF21
 841 012f 04       		.byte	0x4
 842 0130 EF01     		.2byte	0x1ef
 843 0132 B4000000 		.4byte	0xb4
 844 0136 28       		.byte	0x28
 845 0137 07       		.uleb128 0x7
 846 0138 EA030000 		.4byte	.LASF22
 847 013c 04       		.byte	0x4
 848 013d F001     		.2byte	0x1f0
 849 013f B4000000 		.4byte	0xb4
 850 0143 2C       		.byte	0x2c
 851 0144 07       		.uleb128 0x7
 852 0145 D5030000 		.4byte	.LASF23
 853 0149 04       		.byte	0x4
 854 014a F101     		.2byte	0x1f1
 855 014c B4000000 		.4byte	0xb4
ARM GAS  /tmp/ccZyUS7l.s 			page 16


 856 0150 30       		.byte	0x30
 857 0151 07       		.uleb128 0x7
 858 0152 88020000 		.4byte	.LASF24
 859 0156 04       		.byte	0x4
 860 0157 F201     		.2byte	0x1f2
 861 0159 B4000000 		.4byte	0xb4
 862 015d 34       		.byte	0x34
 863 015e 07       		.uleb128 0x7
 864 015f 8B010000 		.4byte	.LASF25
 865 0163 04       		.byte	0x4
 866 0164 F301     		.2byte	0x1f3
 867 0166 B4000000 		.4byte	0xb4
 868 016a 38       		.byte	0x38
 869 016b 07       		.uleb128 0x7
 870 016c 90040000 		.4byte	.LASF26
 871 0170 04       		.byte	0x4
 872 0171 F401     		.2byte	0x1f4
 873 0173 B4000000 		.4byte	0xb4
 874 0177 3C       		.byte	0x3c
 875 0178 08       		.uleb128 0x8
 876 0179 50465200 		.ascii	"PFR\000"
 877 017d 04       		.byte	0x4
 878 017e F501     		.2byte	0x1f5
 879 0180 FE010000 		.4byte	0x1fe
 880 0184 40       		.byte	0x40
 881 0185 08       		.uleb128 0x8
 882 0186 44465200 		.ascii	"DFR\000"
 883 018a 04       		.byte	0x4
 884 018b F601     		.2byte	0x1f6
 885 018d D4010000 		.4byte	0x1d4
 886 0191 48       		.byte	0x48
 887 0192 08       		.uleb128 0x8
 888 0193 41445200 		.ascii	"ADR\000"
 889 0197 04       		.byte	0x4
 890 0198 F701     		.2byte	0x1f7
 891 019a D4010000 		.4byte	0x1d4
 892 019e 4C       		.byte	0x4c
 893 019f 07       		.uleb128 0x7
 894 01a0 EF030000 		.4byte	.LASF27
 895 01a4 04       		.byte	0x4
 896 01a5 F801     		.2byte	0x1f8
 897 01a7 18020000 		.4byte	0x218
 898 01ab 50       		.byte	0x50
 899 01ac 07       		.uleb128 0x7
 900 01ad 32020000 		.4byte	.LASF28
 901 01b1 04       		.byte	0x4
 902 01b2 F901     		.2byte	0x1f9
 903 01b4 32020000 		.4byte	0x232
 904 01b8 60       		.byte	0x60
 905 01b9 07       		.uleb128 0x7
 906 01ba F4030000 		.4byte	.LASF29
 907 01be 04       		.byte	0x4
 908 01bf FA01     		.2byte	0x1fa
 909 01c1 22020000 		.4byte	0x222
 910 01c5 74       		.byte	0x74
 911 01c6 07       		.uleb128 0x7
 912 01c7 09050000 		.4byte	.LASF30
ARM GAS  /tmp/ccZyUS7l.s 			page 17


 913 01cb 04       		.byte	0x4
 914 01cc FB01     		.2byte	0x1fb
 915 01ce B4000000 		.4byte	0xb4
 916 01d2 88       		.byte	0x88
 917 01d3 00       		.byte	0
 918 01d4 09       		.uleb128 0x9
 919 01d5 B4000000 		.4byte	0xb4
 920 01d9 0A       		.uleb128 0xa
 921 01da 8C000000 		.4byte	0x8c
 922 01de E9010000 		.4byte	0x1e9
 923 01e2 0B       		.uleb128 0xb
 924 01e3 AD000000 		.4byte	0xad
 925 01e7 0B       		.byte	0xb
 926 01e8 00       		.byte	0
 927 01e9 05       		.uleb128 0x5
 928 01ea D9010000 		.4byte	0x1d9
 929 01ee 0A       		.uleb128 0xa
 930 01ef A2000000 		.4byte	0xa2
 931 01f3 FE010000 		.4byte	0x1fe
 932 01f7 0B       		.uleb128 0xb
 933 01f8 AD000000 		.4byte	0xad
 934 01fc 01       		.byte	0x1
 935 01fd 00       		.byte	0
 936 01fe 09       		.uleb128 0x9
 937 01ff 03020000 		.4byte	0x203
 938 0203 05       		.uleb128 0x5
 939 0204 EE010000 		.4byte	0x1ee
 940 0208 0A       		.uleb128 0xa
 941 0209 A2000000 		.4byte	0xa2
 942 020d 18020000 		.4byte	0x218
 943 0211 0B       		.uleb128 0xb
 944 0212 AD000000 		.4byte	0xad
 945 0216 03       		.byte	0x3
 946 0217 00       		.byte	0
 947 0218 09       		.uleb128 0x9
 948 0219 1D020000 		.4byte	0x21d
 949 021d 05       		.uleb128 0x5
 950 021e 08020000 		.4byte	0x208
 951 0222 0A       		.uleb128 0xa
 952 0223 A2000000 		.4byte	0xa2
 953 0227 32020000 		.4byte	0x232
 954 022b 0B       		.uleb128 0xb
 955 022c AD000000 		.4byte	0xad
 956 0230 04       		.byte	0x4
 957 0231 00       		.byte	0
 958 0232 09       		.uleb128 0x9
 959 0233 37020000 		.4byte	0x237
 960 0237 05       		.uleb128 0x5
 961 0238 22020000 		.4byte	0x222
 962 023c 0C       		.uleb128 0xc
 963 023d 10020000 		.4byte	.LASF31
 964 0241 04       		.byte	0x4
 965 0242 FC01     		.2byte	0x1fc
 966 0244 B9000000 		.4byte	0xb9
 967 0248 06       		.uleb128 0x6
 968 0249 10       		.byte	0x10
 969 024a 04       		.byte	0x4
ARM GAS  /tmp/ccZyUS7l.s 			page 18


 970 024b 7C05     		.2byte	0x57c
 971 024d 86020000 		.4byte	0x286
 972 0251 07       		.uleb128 0x7
 973 0252 F8000000 		.4byte	.LASF32
 974 0256 04       		.byte	0x4
 975 0257 7E05     		.2byte	0x57e
 976 0259 B4000000 		.4byte	0xb4
 977 025d 00       		.byte	0
 978 025e 07       		.uleb128 0x7
 979 025f DD000000 		.4byte	.LASF33
 980 0263 04       		.byte	0x4
 981 0264 7F05     		.2byte	0x57f
 982 0266 B4000000 		.4byte	0xb4
 983 026a 04       		.byte	0x4
 984 026b 07       		.uleb128 0x7
 985 026c 47010000 		.4byte	.LASF34
 986 0270 04       		.byte	0x4
 987 0271 8005     		.2byte	0x580
 988 0273 B4000000 		.4byte	0xb4
 989 0277 08       		.byte	0x8
 990 0278 07       		.uleb128 0x7
 991 0279 32000000 		.4byte	.LASF35
 992 027d 04       		.byte	0x4
 993 027e 8105     		.2byte	0x581
 994 0280 B4000000 		.4byte	0xb4
 995 0284 0C       		.byte	0xc
 996 0285 00       		.byte	0
 997 0286 0C       		.uleb128 0xc
 998 0287 90010000 		.4byte	.LASF36
 999 028b 04       		.byte	0x4
 1000 028c 8205     		.2byte	0x582
 1001 028e 48020000 		.4byte	0x248
 1002 0292 03       		.uleb128 0x3
 1003 0293 00000000 		.4byte	.LASF37
 1004 0297 05       		.byte	0x5
 1005 0298 3C       		.byte	0x3c
 1006 0299 9D020000 		.4byte	0x29d
 1007 029d 0D       		.uleb128 0xd
 1008 029e 04       		.byte	0x4
 1009 029f A3020000 		.4byte	0x2a3
 1010 02a3 0E       		.uleb128 0xe
 1011 02a4 0F       		.uleb128 0xf
 1012 02a5 E001     		.2byte	0x1e0
 1013 02a7 05       		.byte	0x5
 1014 02a8 41       		.byte	0x41
 1015 02a9 7A030000 		.4byte	0x37a
 1016 02ad 10       		.uleb128 0x10
 1017 02ae 0F050000 		.4byte	.LASF38
 1018 02b2 05       		.byte	0x5
 1019 02b3 42       		.byte	0x42
 1020 02b4 7A030000 		.4byte	0x37a
 1021 02b8 00       		.byte	0
 1022 02b9 10       		.uleb128 0x10
 1023 02ba 2B040000 		.4byte	.LASF39
 1024 02be 05       		.byte	0x5
 1025 02bf 43       		.byte	0x43
 1026 02c0 92020000 		.4byte	0x292
ARM GAS  /tmp/ccZyUS7l.s 			page 19


 1027 02c4 04       		.byte	0x4
 1028 02c5 10       		.uleb128 0x10
 1029 02c6 84040000 		.4byte	.LASF40
 1030 02ca 05       		.byte	0x5
 1031 02cb 44       		.byte	0x44
 1032 02cc 92020000 		.4byte	0x292
 1033 02d0 08       		.byte	0x8
 1034 02d1 10       		.uleb128 0x10
 1035 02d2 63020000 		.4byte	.LASF41
 1036 02d6 05       		.byte	0x5
 1037 02d7 45       		.byte	0x45
 1038 02d8 92020000 		.4byte	0x292
 1039 02dc 0C       		.byte	0xc
 1040 02dd 10       		.uleb128 0x10
 1041 02de 0D000000 		.4byte	.LASF42
 1042 02e2 05       		.byte	0x5
 1043 02e3 46       		.byte	0x46
 1044 02e4 92020000 		.4byte	0x292
 1045 02e8 10       		.byte	0x10
 1046 02e9 10       		.uleb128 0x10
 1047 02ea 96020000 		.4byte	.LASF43
 1048 02ee 05       		.byte	0x5
 1049 02ef 47       		.byte	0x47
 1050 02f0 92020000 		.4byte	0x292
 1051 02f4 14       		.byte	0x14
 1052 02f5 10       		.uleb128 0x10
 1053 02f6 A8010000 		.4byte	.LASF44
 1054 02fa 05       		.byte	0x5
 1055 02fb 48       		.byte	0x48
 1056 02fc 92020000 		.4byte	0x292
 1057 0300 18       		.byte	0x18
 1058 0301 10       		.uleb128 0x10
 1059 0302 38000000 		.4byte	.LASF45
 1060 0306 05       		.byte	0x5
 1061 0307 49       		.byte	0x49
 1062 0308 92020000 		.4byte	0x292
 1063 030c 1C       		.byte	0x1c
 1064 030d 10       		.uleb128 0x10
 1065 030e 54000000 		.4byte	.LASF46
 1066 0312 05       		.byte	0x5
 1067 0313 4A       		.byte	0x4a
 1068 0314 92020000 		.4byte	0x292
 1069 0318 20       		.byte	0x20
 1070 0319 10       		.uleb128 0x10
 1071 031a 5D000000 		.4byte	.LASF47
 1072 031e 05       		.byte	0x5
 1073 031f 4B       		.byte	0x4b
 1074 0320 92020000 		.4byte	0x292
 1075 0324 24       		.byte	0x24
 1076 0325 10       		.uleb128 0x10
 1077 0326 6E000000 		.4byte	.LASF48
 1078 032a 05       		.byte	0x5
 1079 032b 4C       		.byte	0x4c
 1080 032c 92020000 		.4byte	0x292
 1081 0330 28       		.byte	0x28
 1082 0331 10       		.uleb128 0x10
 1083 0332 13010000 		.4byte	.LASF49
ARM GAS  /tmp/ccZyUS7l.s 			page 20


 1084 0336 05       		.byte	0x5
 1085 0337 4D       		.byte	0x4d
 1086 0338 92020000 		.4byte	0x292
 1087 033c 2C       		.byte	0x2c
 1088 033d 10       		.uleb128 0x10
 1089 033e 24010000 		.4byte	.LASF50
 1090 0342 05       		.byte	0x5
 1091 0343 4E       		.byte	0x4e
 1092 0344 92020000 		.4byte	0x292
 1093 0348 30       		.byte	0x30
 1094 0349 10       		.uleb128 0x10
 1095 034a D9010000 		.4byte	.LASF51
 1096 034e 05       		.byte	0x5
 1097 034f 4F       		.byte	0x4f
 1098 0350 92020000 		.4byte	0x292
 1099 0354 34       		.byte	0x34
 1100 0355 10       		.uleb128 0x10
 1101 0356 A7020000 		.4byte	.LASF52
 1102 035a 05       		.byte	0x5
 1103 035b 50       		.byte	0x50
 1104 035c 92020000 		.4byte	0x292
 1105 0360 38       		.byte	0x38
 1106 0361 10       		.uleb128 0x10
 1107 0362 B2030000 		.4byte	.LASF53
 1108 0366 05       		.byte	0x5
 1109 0367 51       		.byte	0x51
 1110 0368 92020000 		.4byte	0x292
 1111 036c 3C       		.byte	0x3c
 1112 036d 10       		.uleb128 0x10
 1113 036e 66000000 		.4byte	.LASF54
 1114 0372 05       		.byte	0x5
 1115 0373 52       		.byte	0x52
 1116 0374 80030000 		.4byte	0x380
 1117 0378 40       		.byte	0x40
 1118 0379 00       		.byte	0
 1119 037a 0D       		.uleb128 0xd
 1120 037b 04       		.byte	0x4
 1121 037c A2000000 		.4byte	0xa2
 1122 0380 0A       		.uleb128 0xa
 1123 0381 92020000 		.4byte	0x292
 1124 0385 90030000 		.4byte	0x390
 1125 0389 0B       		.uleb128 0xb
 1126 038a AD000000 		.4byte	0xad
 1127 038e 67       		.byte	0x67
 1128 038f 00       		.byte	0
 1129 0390 03       		.uleb128 0x3
 1130 0391 00020000 		.4byte	.LASF55
 1131 0395 05       		.byte	0x5
 1132 0396 53       		.byte	0x53
 1133 0397 A4020000 		.4byte	0x2a4
 1134 039b 11       		.uleb128 0x11
 1135 039c FE000000 		.4byte	.LASF79
 1136 03a0 01       		.byte	0x1
 1137 03a1 84       		.byte	0x84
 1138 03a2 00000000 		.4byte	.LFB124
 1139 03a6 1A000000 		.4byte	.LFE124-.LFB124
 1140 03aa 01       		.uleb128 0x1
ARM GAS  /tmp/ccZyUS7l.s 			page 21


 1141 03ab 9C       		.byte	0x9c
 1142 03ac 12       		.uleb128 0x12
 1143 03ad 19020000 		.4byte	.LASF80
 1144 03b1 01       		.byte	0x1
 1145 03b2 49       		.byte	0x49
 1146 03b3 00000000 		.4byte	.LFB123
 1147 03b7 E8000000 		.4byte	.LFE123-.LFB123
 1148 03bb 01       		.uleb128 0x1
 1149 03bc 9C       		.byte	0x9c
 1150 03bd E8030000 		.4byte	0x3e8
 1151 03c1 13       		.uleb128 0x13
 1152 03c2 43040000 		.4byte	.LASF81
 1153 03c6 01       		.byte	0x1
 1154 03c7 49       		.byte	0x49
 1155 03c8 7A030000 		.4byte	0x37a
 1156 03cc 01       		.uleb128 0x1
 1157 03cd 50       		.byte	0x50
 1158 03ce 14       		.uleb128 0x14
 1159 03cf 7E000000 		.4byte	.LBB2
 1160 03d3 04000000 		.4byte	.LBE2-.LBB2
 1161 03d7 15       		.uleb128 0x15
 1162 03d8 8E020000 		.4byte	.LASF82
 1163 03dc 01       		.byte	0x1
 1164 03dd 6C       		.byte	0x6c
 1165 03de 8C000000 		.4byte	0x8c
 1166 03e2 00000000 		.4byte	.LLST0
 1167 03e6 00       		.byte	0
 1168 03e7 00       		.byte	0
 1169 03e8 16       		.uleb128 0x16
 1170 03e9 EC040000 		.4byte	.LASF56
 1171 03ed 04       		.byte	0x4
 1172 03ee 4407     		.2byte	0x744
 1173 03f0 F4030000 		.4byte	0x3f4
 1174 03f4 05       		.uleb128 0x5
 1175 03f5 97000000 		.4byte	0x97
 1176 03f9 17       		.uleb128 0x17
 1177 03fa 1A050000 		.4byte	.LASF57
 1178 03fe 01       		.byte	0x1
 1179 03ff 1602     		.2byte	0x216
 1180 0401 90030000 		.4byte	0x390
 1181 0405 05       		.uleb128 0x5
 1182 0406 03       		.byte	0x3
 1183 0407 00000000 		.4byte	_vectors
 1184 040b 18       		.uleb128 0x18
 1185 040c 8D000000 		.4byte	.LASF58
 1186 0410 01       		.byte	0x1
 1187 0411 2C       		.byte	0x2c
 1188 0412 B4000000 		.4byte	0xb4
 1189 0416 05       		.uleb128 0x5
 1190 0417 03       		.byte	0x3
 1191 0418 00000000 		.4byte	postmortem_r0
 1192 041c 18       		.uleb128 0x18
 1193 041d 9B000000 		.4byte	.LASF59
 1194 0421 01       		.byte	0x1
 1195 0422 2D       		.byte	0x2d
 1196 0423 B4000000 		.4byte	0xb4
 1197 0427 05       		.uleb128 0x5
ARM GAS  /tmp/ccZyUS7l.s 			page 22


 1198 0428 03       		.byte	0x3
 1199 0429 00000000 		.4byte	postmortem_r1
 1200 042d 18       		.uleb128 0x18
 1201 042e A9000000 		.4byte	.LASF60
 1202 0432 01       		.byte	0x1
 1203 0433 2E       		.byte	0x2e
 1204 0434 B4000000 		.4byte	0xb4
 1205 0438 05       		.uleb128 0x5
 1206 0439 03       		.byte	0x3
 1207 043a 00000000 		.4byte	postmortem_r2
 1208 043e 18       		.uleb128 0x18
 1209 043f B7000000 		.4byte	.LASF61
 1210 0443 01       		.byte	0x1
 1211 0444 2F       		.byte	0x2f
 1212 0445 B4000000 		.4byte	0xb4
 1213 0449 05       		.uleb128 0x5
 1214 044a 03       		.byte	0x3
 1215 044b 00000000 		.4byte	postmortem_r3
 1216 044f 18       		.uleb128 0x18
 1217 0450 BB010000 		.4byte	.LASF62
 1218 0454 01       		.byte	0x1
 1219 0455 30       		.byte	0x30
 1220 0456 B4000000 		.4byte	0xb4
 1221 045a 05       		.uleb128 0x5
 1222 045b 03       		.byte	0x3
 1223 045c 00000000 		.4byte	postmortem_r12
 1224 0460 18       		.uleb128 0x18
 1225 0461 58040000 		.4byte	.LASF63
 1226 0465 01       		.byte	0x1
 1227 0466 31       		.byte	0x31
 1228 0467 B4000000 		.4byte	0xb4
 1229 046b 05       		.uleb128 0x5
 1230 046c 03       		.byte	0x3
 1231 046d 00000000 		.4byte	postmortem_lr
 1232 0471 18       		.uleb128 0x18
 1233 0472 66040000 		.4byte	.LASF64
 1234 0476 01       		.byte	0x1
 1235 0477 32       		.byte	0x32
 1236 0478 B4000000 		.4byte	0xb4
 1237 047c 05       		.uleb128 0x5
 1238 047d 03       		.byte	0x3
 1239 047e 00000000 		.4byte	postmortem_pc
 1240 0482 18       		.uleb128 0x18
 1241 0483 7C010000 		.4byte	.LASF65
 1242 0487 01       		.byte	0x1
 1243 0488 33       		.byte	0x33
 1244 0489 B4000000 		.4byte	0xb4
 1245 048d 05       		.uleb128 0x5
 1246 048e 03       		.byte	0x3
 1247 048f 00000000 		.4byte	postmortem_psr
 1248 0493 18       		.uleb128 0x18
 1249 0494 F9040000 		.4byte	.LASF66
 1250 0498 01       		.byte	0x1
 1251 0499 34       		.byte	0x34
 1252 049a B4000000 		.4byte	0xb4
 1253 049e 05       		.uleb128 0x5
 1254 049f 03       		.byte	0x3
ARM GAS  /tmp/ccZyUS7l.s 			page 23


 1255 04a0 00000000 		.4byte	postmortem_CFSR
 1256 04a4 18       		.uleb128 0x18
 1257 04a5 CD000000 		.4byte	.LASF67
 1258 04a9 01       		.byte	0x1
 1259 04aa 35       		.byte	0x35
 1260 04ab B4000000 		.4byte	0xb4
 1261 04af 05       		.uleb128 0x5
 1262 04b0 03       		.byte	0x3
 1263 04b1 00000000 		.4byte	postmortem_HFSR
 1264 04b5 18       		.uleb128 0x18
 1265 04b6 7D000000 		.4byte	.LASF68
 1266 04ba 01       		.byte	0x1
 1267 04bb 36       		.byte	0x36
 1268 04bc B4000000 		.4byte	0xb4
 1269 04c0 05       		.uleb128 0x5
 1270 04c1 03       		.byte	0x3
 1271 04c2 00000000 		.4byte	postmortem_DFSR
 1272 04c6 18       		.uleb128 0x18
 1273 04c7 E2010000 		.4byte	.LASF69
 1274 04cb 01       		.byte	0x1
 1275 04cc 37       		.byte	0x37
 1276 04cd B4000000 		.4byte	0xb4
 1277 04d1 05       		.uleb128 0x5
 1278 04d2 03       		.byte	0x3
 1279 04d3 00000000 		.4byte	postmortem_AFSR
 1280 04d7 18       		.uleb128 0x18
 1281 04d8 74040000 		.4byte	.LASF70
 1282 04dc 01       		.byte	0x1
 1283 04dd 38       		.byte	0x38
 1284 04de B4000000 		.4byte	0xb4
 1285 04e2 05       		.uleb128 0x5
 1286 04e3 03       		.byte	0x3
 1287 04e4 00000000 		.4byte	postmortem_BFAR
 1288 04e8 18       		.uleb128 0x18
 1289 04e9 DC040000 		.4byte	.LASF71
 1290 04ed 01       		.byte	0x1
 1291 04ee 39       		.byte	0x39
 1292 04ef B4000000 		.4byte	0xb4
 1293 04f3 05       		.uleb128 0x5
 1294 04f4 03       		.byte	0x3
 1295 04f5 00000000 		.4byte	postmortem_MMAR
 1296 04f9 18       		.uleb128 0x18
 1297 04fa E3000000 		.4byte	.LASF72
 1298 04fe 01       		.byte	0x1
 1299 04ff 3A       		.byte	0x3a
 1300 0500 B4000000 		.4byte	0xb4
 1301 0504 05       		.uleb128 0x5
 1302 0505 03       		.byte	0x3
 1303 0506 00000000 		.4byte	postmortem_SCB_SHCSR
 1304 050a 18       		.uleb128 0x18
 1305 050b DA030000 		.4byte	.LASF73
 1306 050f 01       		.byte	0x1
 1307 0510 3C       		.byte	0x3c
 1308 0511 8C000000 		.4byte	0x8c
 1309 0515 05       		.uleb128 0x5
 1310 0516 03       		.byte	0x3
 1311 0517 00000000 		.4byte	postmortem_BFSR
ARM GAS  /tmp/ccZyUS7l.s 			page 24


 1312 051b 18       		.uleb128 0x18
 1313 051c FE030000 		.4byte	.LASF74
 1314 0520 01       		.byte	0x1
 1315 0521 3D       		.byte	0x3d
 1316 0522 8C000000 		.4byte	0x8c
 1317 0526 05       		.uleb128 0x5
 1318 0527 03       		.byte	0x3
 1319 0528 00000000 		.4byte	postmortem_MMSR
 1320 052c 19       		.uleb128 0x19
 1321 052d 1F000000 		.4byte	.LASF75
 1322 0531 01       		.byte	0x1
 1323 0532 93       		.byte	0x93
 1324 0533 A2000000 		.4byte	0xa2
 1325 0537 00       		.byte	0
 1326              		.section	.debug_abbrev,"",%progbits
 1327              	.Ldebug_abbrev0:
 1328 0000 01       		.uleb128 0x1
 1329 0001 11       		.uleb128 0x11
 1330 0002 01       		.byte	0x1
 1331 0003 25       		.uleb128 0x25
 1332 0004 0E       		.uleb128 0xe
 1333 0005 13       		.uleb128 0x13
 1334 0006 0B       		.uleb128 0xb
 1335 0007 03       		.uleb128 0x3
 1336 0008 0E       		.uleb128 0xe
 1337 0009 1B       		.uleb128 0x1b
 1338 000a 0E       		.uleb128 0xe
 1339 000b 55       		.uleb128 0x55
 1340 000c 17       		.uleb128 0x17
 1341 000d 11       		.uleb128 0x11
 1342 000e 01       		.uleb128 0x1
 1343 000f 10       		.uleb128 0x10
 1344 0010 17       		.uleb128 0x17
 1345 0011 00       		.byte	0
 1346 0012 00       		.byte	0
 1347 0013 02       		.uleb128 0x2
 1348 0014 24       		.uleb128 0x24
 1349 0015 00       		.byte	0
 1350 0016 0B       		.uleb128 0xb
 1351 0017 0B       		.uleb128 0xb
 1352 0018 3E       		.uleb128 0x3e
 1353 0019 0B       		.uleb128 0xb
 1354 001a 03       		.uleb128 0x3
 1355 001b 0E       		.uleb128 0xe
 1356 001c 00       		.byte	0
 1357 001d 00       		.byte	0
 1358 001e 03       		.uleb128 0x3
 1359 001f 16       		.uleb128 0x16
 1360 0020 00       		.byte	0
 1361 0021 03       		.uleb128 0x3
 1362 0022 0E       		.uleb128 0xe
 1363 0023 3A       		.uleb128 0x3a
 1364 0024 0B       		.uleb128 0xb
 1365 0025 3B       		.uleb128 0x3b
 1366 0026 0B       		.uleb128 0xb
 1367 0027 49       		.uleb128 0x49
 1368 0028 13       		.uleb128 0x13
ARM GAS  /tmp/ccZyUS7l.s 			page 25


 1369 0029 00       		.byte	0
 1370 002a 00       		.byte	0
 1371 002b 04       		.uleb128 0x4
 1372 002c 24       		.uleb128 0x24
 1373 002d 00       		.byte	0
 1374 002e 0B       		.uleb128 0xb
 1375 002f 0B       		.uleb128 0xb
 1376 0030 3E       		.uleb128 0x3e
 1377 0031 0B       		.uleb128 0xb
 1378 0032 03       		.uleb128 0x3
 1379 0033 08       		.uleb128 0x8
 1380 0034 00       		.byte	0
 1381 0035 00       		.byte	0
 1382 0036 05       		.uleb128 0x5
 1383 0037 35       		.uleb128 0x35
 1384 0038 00       		.byte	0
 1385 0039 49       		.uleb128 0x49
 1386 003a 13       		.uleb128 0x13
 1387 003b 00       		.byte	0
 1388 003c 00       		.byte	0
 1389 003d 06       		.uleb128 0x6
 1390 003e 13       		.uleb128 0x13
 1391 003f 01       		.byte	0x1
 1392 0040 0B       		.uleb128 0xb
 1393 0041 0B       		.uleb128 0xb
 1394 0042 3A       		.uleb128 0x3a
 1395 0043 0B       		.uleb128 0xb
 1396 0044 3B       		.uleb128 0x3b
 1397 0045 05       		.uleb128 0x5
 1398 0046 01       		.uleb128 0x1
 1399 0047 13       		.uleb128 0x13
 1400 0048 00       		.byte	0
 1401 0049 00       		.byte	0
 1402 004a 07       		.uleb128 0x7
 1403 004b 0D       		.uleb128 0xd
 1404 004c 00       		.byte	0
 1405 004d 03       		.uleb128 0x3
 1406 004e 0E       		.uleb128 0xe
 1407 004f 3A       		.uleb128 0x3a
 1408 0050 0B       		.uleb128 0xb
 1409 0051 3B       		.uleb128 0x3b
 1410 0052 05       		.uleb128 0x5
 1411 0053 49       		.uleb128 0x49
 1412 0054 13       		.uleb128 0x13
 1413 0055 38       		.uleb128 0x38
 1414 0056 0B       		.uleb128 0xb
 1415 0057 00       		.byte	0
 1416 0058 00       		.byte	0
 1417 0059 08       		.uleb128 0x8
 1418 005a 0D       		.uleb128 0xd
 1419 005b 00       		.byte	0
 1420 005c 03       		.uleb128 0x3
 1421 005d 08       		.uleb128 0x8
 1422 005e 3A       		.uleb128 0x3a
 1423 005f 0B       		.uleb128 0xb
 1424 0060 3B       		.uleb128 0x3b
 1425 0061 05       		.uleb128 0x5
ARM GAS  /tmp/ccZyUS7l.s 			page 26


 1426 0062 49       		.uleb128 0x49
 1427 0063 13       		.uleb128 0x13
 1428 0064 38       		.uleb128 0x38
 1429 0065 0B       		.uleb128 0xb
 1430 0066 00       		.byte	0
 1431 0067 00       		.byte	0
 1432 0068 09       		.uleb128 0x9
 1433 0069 26       		.uleb128 0x26
 1434 006a 00       		.byte	0
 1435 006b 49       		.uleb128 0x49
 1436 006c 13       		.uleb128 0x13
 1437 006d 00       		.byte	0
 1438 006e 00       		.byte	0
 1439 006f 0A       		.uleb128 0xa
 1440 0070 01       		.uleb128 0x1
 1441 0071 01       		.byte	0x1
 1442 0072 49       		.uleb128 0x49
 1443 0073 13       		.uleb128 0x13
 1444 0074 01       		.uleb128 0x1
 1445 0075 13       		.uleb128 0x13
 1446 0076 00       		.byte	0
 1447 0077 00       		.byte	0
 1448 0078 0B       		.uleb128 0xb
 1449 0079 21       		.uleb128 0x21
 1450 007a 00       		.byte	0
 1451 007b 49       		.uleb128 0x49
 1452 007c 13       		.uleb128 0x13
 1453 007d 2F       		.uleb128 0x2f
 1454 007e 0B       		.uleb128 0xb
 1455 007f 00       		.byte	0
 1456 0080 00       		.byte	0
 1457 0081 0C       		.uleb128 0xc
 1458 0082 16       		.uleb128 0x16
 1459 0083 00       		.byte	0
 1460 0084 03       		.uleb128 0x3
 1461 0085 0E       		.uleb128 0xe
 1462 0086 3A       		.uleb128 0x3a
 1463 0087 0B       		.uleb128 0xb
 1464 0088 3B       		.uleb128 0x3b
 1465 0089 05       		.uleb128 0x5
 1466 008a 49       		.uleb128 0x49
 1467 008b 13       		.uleb128 0x13
 1468 008c 00       		.byte	0
 1469 008d 00       		.byte	0
 1470 008e 0D       		.uleb128 0xd
 1471 008f 0F       		.uleb128 0xf
 1472 0090 00       		.byte	0
 1473 0091 0B       		.uleb128 0xb
 1474 0092 0B       		.uleb128 0xb
 1475 0093 49       		.uleb128 0x49
 1476 0094 13       		.uleb128 0x13
 1477 0095 00       		.byte	0
 1478 0096 00       		.byte	0
 1479 0097 0E       		.uleb128 0xe
 1480 0098 15       		.uleb128 0x15
 1481 0099 00       		.byte	0
 1482 009a 27       		.uleb128 0x27
ARM GAS  /tmp/ccZyUS7l.s 			page 27


 1483 009b 19       		.uleb128 0x19
 1484 009c 00       		.byte	0
 1485 009d 00       		.byte	0
 1486 009e 0F       		.uleb128 0xf
 1487 009f 13       		.uleb128 0x13
 1488 00a0 01       		.byte	0x1
 1489 00a1 0B       		.uleb128 0xb
 1490 00a2 05       		.uleb128 0x5
 1491 00a3 3A       		.uleb128 0x3a
 1492 00a4 0B       		.uleb128 0xb
 1493 00a5 3B       		.uleb128 0x3b
 1494 00a6 0B       		.uleb128 0xb
 1495 00a7 01       		.uleb128 0x1
 1496 00a8 13       		.uleb128 0x13
 1497 00a9 00       		.byte	0
 1498 00aa 00       		.byte	0
 1499 00ab 10       		.uleb128 0x10
 1500 00ac 0D       		.uleb128 0xd
 1501 00ad 00       		.byte	0
 1502 00ae 03       		.uleb128 0x3
 1503 00af 0E       		.uleb128 0xe
 1504 00b0 3A       		.uleb128 0x3a
 1505 00b1 0B       		.uleb128 0xb
 1506 00b2 3B       		.uleb128 0x3b
 1507 00b3 0B       		.uleb128 0xb
 1508 00b4 49       		.uleb128 0x49
 1509 00b5 13       		.uleb128 0x13
 1510 00b6 38       		.uleb128 0x38
 1511 00b7 0B       		.uleb128 0xb
 1512 00b8 00       		.byte	0
 1513 00b9 00       		.byte	0
 1514 00ba 11       		.uleb128 0x11
 1515 00bb 2E       		.uleb128 0x2e
 1516 00bc 00       		.byte	0
 1517 00bd 3F       		.uleb128 0x3f
 1518 00be 19       		.uleb128 0x19
 1519 00bf 03       		.uleb128 0x3
 1520 00c0 0E       		.uleb128 0xe
 1521 00c1 3A       		.uleb128 0x3a
 1522 00c2 0B       		.uleb128 0xb
 1523 00c3 3B       		.uleb128 0x3b
 1524 00c4 0B       		.uleb128 0xb
 1525 00c5 27       		.uleb128 0x27
 1526 00c6 19       		.uleb128 0x19
 1527 00c7 11       		.uleb128 0x11
 1528 00c8 01       		.uleb128 0x1
 1529 00c9 12       		.uleb128 0x12
 1530 00ca 06       		.uleb128 0x6
 1531 00cb 40       		.uleb128 0x40
 1532 00cc 18       		.uleb128 0x18
 1533 00cd 9742     		.uleb128 0x2117
 1534 00cf 19       		.uleb128 0x19
 1535 00d0 00       		.byte	0
 1536 00d1 00       		.byte	0
 1537 00d2 12       		.uleb128 0x12
 1538 00d3 2E       		.uleb128 0x2e
 1539 00d4 01       		.byte	0x1
ARM GAS  /tmp/ccZyUS7l.s 			page 28


 1540 00d5 3F       		.uleb128 0x3f
 1541 00d6 19       		.uleb128 0x19
 1542 00d7 03       		.uleb128 0x3
 1543 00d8 0E       		.uleb128 0xe
 1544 00d9 3A       		.uleb128 0x3a
 1545 00da 0B       		.uleb128 0xb
 1546 00db 3B       		.uleb128 0x3b
 1547 00dc 0B       		.uleb128 0xb
 1548 00dd 27       		.uleb128 0x27
 1549 00de 19       		.uleb128 0x19
 1550 00df 11       		.uleb128 0x11
 1551 00e0 01       		.uleb128 0x1
 1552 00e1 12       		.uleb128 0x12
 1553 00e2 06       		.uleb128 0x6
 1554 00e3 40       		.uleb128 0x40
 1555 00e4 18       		.uleb128 0x18
 1556 00e5 9742     		.uleb128 0x2117
 1557 00e7 19       		.uleb128 0x19
 1558 00e8 01       		.uleb128 0x1
 1559 00e9 13       		.uleb128 0x13
 1560 00ea 00       		.byte	0
 1561 00eb 00       		.byte	0
 1562 00ec 13       		.uleb128 0x13
 1563 00ed 05       		.uleb128 0x5
 1564 00ee 00       		.byte	0
 1565 00ef 03       		.uleb128 0x3
 1566 00f0 0E       		.uleb128 0xe
 1567 00f1 3A       		.uleb128 0x3a
 1568 00f2 0B       		.uleb128 0xb
 1569 00f3 3B       		.uleb128 0x3b
 1570 00f4 0B       		.uleb128 0xb
 1571 00f5 49       		.uleb128 0x49
 1572 00f6 13       		.uleb128 0x13
 1573 00f7 02       		.uleb128 0x2
 1574 00f8 18       		.uleb128 0x18
 1575 00f9 00       		.byte	0
 1576 00fa 00       		.byte	0
 1577 00fb 14       		.uleb128 0x14
 1578 00fc 0B       		.uleb128 0xb
 1579 00fd 01       		.byte	0x1
 1580 00fe 11       		.uleb128 0x11
 1581 00ff 01       		.uleb128 0x1
 1582 0100 12       		.uleb128 0x12
 1583 0101 06       		.uleb128 0x6
 1584 0102 00       		.byte	0
 1585 0103 00       		.byte	0
 1586 0104 15       		.uleb128 0x15
 1587 0105 34       		.uleb128 0x34
 1588 0106 00       		.byte	0
 1589 0107 03       		.uleb128 0x3
 1590 0108 0E       		.uleb128 0xe
 1591 0109 3A       		.uleb128 0x3a
 1592 010a 0B       		.uleb128 0xb
 1593 010b 3B       		.uleb128 0x3b
 1594 010c 0B       		.uleb128 0xb
 1595 010d 49       		.uleb128 0x49
 1596 010e 13       		.uleb128 0x13
ARM GAS  /tmp/ccZyUS7l.s 			page 29


 1597 010f 02       		.uleb128 0x2
 1598 0110 17       		.uleb128 0x17
 1599 0111 00       		.byte	0
 1600 0112 00       		.byte	0
 1601 0113 16       		.uleb128 0x16
 1602 0114 34       		.uleb128 0x34
 1603 0115 00       		.byte	0
 1604 0116 03       		.uleb128 0x3
 1605 0117 0E       		.uleb128 0xe
 1606 0118 3A       		.uleb128 0x3a
 1607 0119 0B       		.uleb128 0xb
 1608 011a 3B       		.uleb128 0x3b
 1609 011b 05       		.uleb128 0x5
 1610 011c 49       		.uleb128 0x49
 1611 011d 13       		.uleb128 0x13
 1612 011e 3F       		.uleb128 0x3f
 1613 011f 19       		.uleb128 0x19
 1614 0120 3C       		.uleb128 0x3c
 1615 0121 19       		.uleb128 0x19
 1616 0122 00       		.byte	0
 1617 0123 00       		.byte	0
 1618 0124 17       		.uleb128 0x17
 1619 0125 34       		.uleb128 0x34
 1620 0126 00       		.byte	0
 1621 0127 03       		.uleb128 0x3
 1622 0128 0E       		.uleb128 0xe
 1623 0129 3A       		.uleb128 0x3a
 1624 012a 0B       		.uleb128 0xb
 1625 012b 3B       		.uleb128 0x3b
 1626 012c 05       		.uleb128 0x5
 1627 012d 49       		.uleb128 0x49
 1628 012e 13       		.uleb128 0x13
 1629 012f 3F       		.uleb128 0x3f
 1630 0130 19       		.uleb128 0x19
 1631 0131 02       		.uleb128 0x2
 1632 0132 18       		.uleb128 0x18
 1633 0133 00       		.byte	0
 1634 0134 00       		.byte	0
 1635 0135 18       		.uleb128 0x18
 1636 0136 34       		.uleb128 0x34
 1637 0137 00       		.byte	0
 1638 0138 03       		.uleb128 0x3
 1639 0139 0E       		.uleb128 0xe
 1640 013a 3A       		.uleb128 0x3a
 1641 013b 0B       		.uleb128 0xb
 1642 013c 3B       		.uleb128 0x3b
 1643 013d 0B       		.uleb128 0xb
 1644 013e 49       		.uleb128 0x49
 1645 013f 13       		.uleb128 0x13
 1646 0140 3F       		.uleb128 0x3f
 1647 0141 19       		.uleb128 0x19
 1648 0142 02       		.uleb128 0x2
 1649 0143 18       		.uleb128 0x18
 1650 0144 00       		.byte	0
 1651 0145 00       		.byte	0
 1652 0146 19       		.uleb128 0x19
 1653 0147 34       		.uleb128 0x34
ARM GAS  /tmp/ccZyUS7l.s 			page 30


 1654 0148 00       		.byte	0
 1655 0149 03       		.uleb128 0x3
 1656 014a 0E       		.uleb128 0xe
 1657 014b 3A       		.uleb128 0x3a
 1658 014c 0B       		.uleb128 0xb
 1659 014d 3B       		.uleb128 0x3b
 1660 014e 0B       		.uleb128 0xb
 1661 014f 49       		.uleb128 0x49
 1662 0150 13       		.uleb128 0x13
 1663 0151 3F       		.uleb128 0x3f
 1664 0152 19       		.uleb128 0x19
 1665 0153 3C       		.uleb128 0x3c
 1666 0154 19       		.uleb128 0x19
 1667 0155 00       		.byte	0
 1668 0156 00       		.byte	0
 1669 0157 00       		.byte	0
 1670              		.section	.debug_loc,"",%progbits
 1671              	.Ldebug_loc0:
 1672              	.LLST0:
 1673 0000 7E000000 		.4byte	.LVL1
 1674 0004 82000000 		.4byte	.LVL2
 1675 0008 0200     		.2byte	0x2
 1676 000a 30       		.byte	0x30
 1677 000b 9F       		.byte	0x9f
 1678 000c 00000000 		.4byte	0
 1679 0010 00000000 		.4byte	0
 1680              		.section	.debug_aranges,"",%progbits
 1681 0000 24000000 		.4byte	0x24
 1682 0004 0200     		.2byte	0x2
 1683 0006 00000000 		.4byte	.Ldebug_info0
 1684 000a 04       		.byte	0x4
 1685 000b 00       		.byte	0
 1686 000c 0000     		.2byte	0
 1687 000e 0000     		.2byte	0
 1688 0010 00000000 		.4byte	.LFB124
 1689 0014 1A000000 		.4byte	.LFE124-.LFB124
 1690 0018 00000000 		.4byte	.LFB123
 1691 001c E8000000 		.4byte	.LFE123-.LFB123
 1692 0020 00000000 		.4byte	0
 1693 0024 00000000 		.4byte	0
 1694              		.section	.debug_ranges,"",%progbits
 1695              	.Ldebug_ranges0:
 1696 0000 00000000 		.4byte	.LFB124
 1697 0004 1A000000 		.4byte	.LFE124
 1698 0008 00000000 		.4byte	.LFB123
 1699 000c E8000000 		.4byte	.LFE123
 1700 0010 00000000 		.4byte	0
 1701 0014 00000000 		.4byte	0
 1702              		.section	.debug_line,"",%progbits
 1703              	.Ldebug_line0:
 1704 0000 42010000 		.section	.debug_str,"MS",%progbits,1
 1704      0200FF00 
 1704      00000201 
 1704      FB0E0D00 
 1704      01010101 
 1705              	.LASF37:
 1706 0000 6972715F 		.ascii	"irq_vector_t\000"
ARM GAS  /tmp/ccZyUS7l.s 			page 31


 1706      76656374 
 1706      6F725F74 
 1706      00
 1707              	.LASF42:
 1708 000d 6D656D6D 		.ascii	"memmanage_handler\000"
 1708      616E6167 
 1708      655F6861 
 1708      6E646C65 
 1708      7200
 1709              	.LASF75:
 1710 001f 5F5F6D61 		.ascii	"__main_stack_end__\000"
 1710      696E5F73 
 1710      7461636B 
 1710      5F656E64 
 1710      5F5F00
 1711              	.LASF35:
 1712 0032 44454D43 		.ascii	"DEMCR\000"
 1712      5200
 1713              	.LASF45:
 1714 0038 76656374 		.ascii	"vector1c\000"
 1714      6F723163 
 1714      00
 1715              	.LASF2:
 1716 0041 73686F72 		.ascii	"short int\000"
 1716      7420696E 
 1716      7400
 1717              	.LASF15:
 1718 004b 73697A65 		.ascii	"sizetype\000"
 1718      74797065 
 1718      00
 1719              	.LASF46:
 1720 0054 76656374 		.ascii	"vector20\000"
 1720      6F723230 
 1720      00
 1721              	.LASF47:
 1722 005d 76656374 		.ascii	"vector24\000"
 1722      6F723234 
 1722      00
 1723              	.LASF54:
 1724 0066 76656374 		.ascii	"vectors\000"
 1724      6F727300 
 1725              	.LASF48:
 1726 006e 76656374 		.ascii	"vector28\000"
 1726      6F723238 
 1726      00
 1727              	.LASF16:
 1728 0077 43505549 		.ascii	"CPUID\000"
 1728      4400
 1729              	.LASF68:
 1730 007d 706F7374 		.ascii	"postmortem_DFSR\000"
 1730      6D6F7274 
 1730      656D5F44 
 1730      46535200 
 1731              	.LASF58:
 1732 008d 706F7374 		.ascii	"postmortem_r0\000"
 1732      6D6F7274 
 1732      656D5F72 
ARM GAS  /tmp/ccZyUS7l.s 			page 32


 1732      3000
 1733              	.LASF59:
 1734 009b 706F7374 		.ascii	"postmortem_r1\000"
 1734      6D6F7274 
 1734      656D5F72 
 1734      3100
 1735              	.LASF60:
 1736 00a9 706F7374 		.ascii	"postmortem_r2\000"
 1736      6D6F7274 
 1736      656D5F72 
 1736      3200
 1737              	.LASF61:
 1738 00b7 706F7374 		.ascii	"postmortem_r3\000"
 1738      6D6F7274 
 1738      656D5F72 
 1738      3300
 1739              	.LASF12:
 1740 00c5 75696E74 		.ascii	"uint8_t\000"
 1740      385F7400 
 1741              	.LASF67:
 1742 00cd 706F7374 		.ascii	"postmortem_HFSR\000"
 1742      6D6F7274 
 1742      656D5F48 
 1742      46535200 
 1743              	.LASF33:
 1744 00dd 44435253 		.ascii	"DCRSR\000"
 1744      5200
 1745              	.LASF72:
 1746 00e3 706F7374 		.ascii	"postmortem_SCB_SHCSR\000"
 1746      6D6F7274 
 1746      656D5F53 
 1746      43425F53 
 1746      48435352 
 1747              	.LASF32:
 1748 00f8 44484353 		.ascii	"DHCSR\000"
 1748      5200
 1749              	.LASF79:
 1750 00fe 5F756E68 		.ascii	"_unhandled_exception\000"
 1750      616E646C 
 1750      65645F65 
 1750      78636570 
 1750      74696F6E 
 1751              	.LASF49:
 1752 0113 7376635F 		.ascii	"svc_handler\000"
 1752      68616E64 
 1752      6C657200 
 1753              	.LASF17:
 1754 011f 49435352 		.ascii	"ICSR\000"
 1754      00
 1755              	.LASF50:
 1756 0124 64656275 		.ascii	"debugmonitor_handler\000"
 1756      676D6F6E 
 1756      69746F72 
 1756      5F68616E 
 1756      646C6572 
 1757              	.LASF9:
 1758 0139 6C6F6E67 		.ascii	"long long int\000"
ARM GAS  /tmp/ccZyUS7l.s 			page 33


 1758      206C6F6E 
 1758      6720696E 
 1758      7400
 1759              	.LASF34:
 1760 0147 44435244 		.ascii	"DCRDR\000"
 1760      5200
 1761              	.LASF78:
 1762 014d 2F686F6D 		.ascii	"/home/kozinalexey/f4by/ardupilot/build/f4by-ch\000"
 1762      652F6B6F 
 1762      7A696E61 
 1762      6C657865 
 1762      792F6634 
 1763              	.LASF65:
 1764 017c 706F7374 		.ascii	"postmortem_psr\000"
 1764      6D6F7274 
 1764      656D5F70 
 1764      737200
 1765              	.LASF25:
 1766 018b 42464152 		.ascii	"BFAR\000"
 1766      00
 1767              	.LASF36:
 1768 0190 436F7265 		.ascii	"CoreDebug_Type\000"
 1768      44656275 
 1768      675F5479 
 1768      706500
 1769              	.LASF6:
 1770 019f 6C6F6E67 		.ascii	"long int\000"
 1770      20696E74 
 1770      00
 1771              	.LASF44:
 1772 01a8 75736167 		.ascii	"usagefault_handler\000"
 1772      65666175 
 1772      6C745F68 
 1772      616E646C 
 1772      657200
 1773              	.LASF62:
 1774 01bb 706F7374 		.ascii	"postmortem_r12\000"
 1774      6D6F7274 
 1774      656D5F72 
 1774      313200
 1775              	.LASF4:
 1776 01ca 5F5F7569 		.ascii	"__uint8_t\000"
 1776      6E74385F 
 1776      7400
 1777              	.LASF21:
 1778 01d4 43465352 		.ascii	"CFSR\000"
 1778      00
 1779              	.LASF51:
 1780 01d9 76656374 		.ascii	"vector34\000"
 1780      6F723334 
 1780      00
 1781              	.LASF69:
 1782 01e2 706F7374 		.ascii	"postmortem_AFSR\000"
 1782      6D6F7274 
 1782      656D5F41 
 1782      46535200 
 1783              	.LASF1:
ARM GAS  /tmp/ccZyUS7l.s 			page 34


 1784 01f2 756E7369 		.ascii	"unsigned char\000"
 1784      676E6564 
 1784      20636861 
 1784      7200
 1785              	.LASF55:
 1786 0200 76656374 		.ascii	"vectors_t\000"
 1786      6F72735F 
 1786      7400
 1787              	.LASF19:
 1788 020a 41495243 		.ascii	"AIRCR\000"
 1788      5200
 1789              	.LASF31:
 1790 0210 5343425F 		.ascii	"SCB_Type\000"
 1790      54797065 
 1790      00
 1791              	.LASF80:
 1792 0219 70727647 		.ascii	"prvGetRegistersFromStack\000"
 1792      65745265 
 1792      67697374 
 1792      65727346 
 1792      726F6D53 
 1793              	.LASF28:
 1794 0232 49534152 		.ascii	"ISAR\000"
 1794      00
 1795              	.LASF0:
 1796 0237 7369676E 		.ascii	"signed char\000"
 1796      65642063 
 1796      68617200 
 1797              	.LASF10:
 1798 0243 6C6F6E67 		.ascii	"long long unsigned int\000"
 1798      206C6F6E 
 1798      6720756E 
 1798      7369676E 
 1798      65642069 
 1799              	.LASF14:
 1800 025a 75696E74 		.ascii	"uint32_t\000"
 1800      33325F74 
 1800      00
 1801              	.LASF41:
 1802 0263 68617264 		.ascii	"hardfault_handler\000"
 1802      6661756C 
 1802      745F6861 
 1802      6E646C65 
 1802      7200
 1803              	.LASF11:
 1804 0275 756E7369 		.ascii	"unsigned int\000"
 1804      676E6564 
 1804      20696E74 
 1804      00
 1805              	.LASF20:
 1806 0282 53484353 		.ascii	"SHCSR\000"
 1806      5200
 1807              	.LASF24:
 1808 0288 4D4D4641 		.ascii	"MMFAR\000"
 1808      5200
 1809              	.LASF82:
 1810 028e 73746570 		.ascii	"stepOut\000"
ARM GAS  /tmp/ccZyUS7l.s 			page 35


 1810      4F757400 
 1811              	.LASF43:
 1812 0296 62757366 		.ascii	"busfault_handler\000"
 1812      61756C74 
 1812      5F68616E 
 1812      646C6572 
 1812      00
 1813              	.LASF52:
 1814 02a7 70656E64 		.ascii	"pendsv_handler\000"
 1814      73765F68 
 1814      616E646C 
 1814      657200
 1815              	.LASF18:
 1816 02b6 56544F52 		.ascii	"VTOR\000"
 1816      00
 1817              	.LASF76:
 1818 02bb 474E5520 		.ascii	"GNU C 4.9.3 20150529 (prerelease) -mcpu=cortex-m4 -"
 1818      4320342E 
 1818      392E3320 
 1818      32303135 
 1818      30353239 
 1819 02ee 6D666C6F 		.ascii	"mfloat-abi=hard -mfpu=fpv4-sp-d16 -mno-thumb-interw"
 1819      61742D61 
 1819      62693D68 
 1819      61726420 
 1819      2D6D6670 
 1820 0321 6F726B20 		.ascii	"ork -mthumb -g -Os -fomit-frame-pointer -falign-fun"
 1820      2D6D7468 
 1820      756D6220 
 1820      2D67202D 
 1820      4F73202D 
 1821 0354 6374696F 		.ascii	"ctions=16 -ffunction-sections -fdata-sections -fno-"
 1821      6E733D31 
 1821      36202D66 
 1821      66756E63 
 1821      74696F6E 
 1822 0387 636F6D6D 		.ascii	"common -fsingle-precision-constant\000"
 1822      6F6E202D 
 1822      6673696E 
 1822      676C652D 
 1822      70726563 
 1823              	.LASF13:
 1824 03aa 696E7433 		.ascii	"int32_t\000"
 1824      325F7400 
 1825              	.LASF53:
 1826 03b2 73797374 		.ascii	"systick_handler\000"
 1826      69636B5F 
 1826      68616E64 
 1826      6C657200 
 1827              	.LASF3:
 1828 03c2 73686F72 		.ascii	"short unsigned int\000"
 1828      7420756E 
 1828      7369676E 
 1828      65642069 
 1828      6E7400
 1829              	.LASF23:
 1830 03d5 44465352 		.ascii	"DFSR\000"
ARM GAS  /tmp/ccZyUS7l.s 			page 36


 1830      00
 1831              	.LASF73:
 1832 03da 706F7374 		.ascii	"postmortem_BFSR\000"
 1832      6D6F7274 
 1832      656D5F42 
 1832      46535200 
 1833              	.LASF22:
 1834 03ea 48465352 		.ascii	"HFSR\000"
 1834      00
 1835              	.LASF27:
 1836 03ef 4D4D4652 		.ascii	"MMFR\000"
 1836      00
 1837              	.LASF29:
 1838 03f4 52455345 		.ascii	"RESERVED0\000"
 1838      52564544 
 1838      3000
 1839              	.LASF74:
 1840 03fe 706F7374 		.ascii	"postmortem_MMSR\000"
 1840      6D6F7274 
 1840      656D5F4D 
 1840      4D535200 
 1841              	.LASF8:
 1842 040e 6C6F6E67 		.ascii	"long unsigned int\000"
 1842      20756E73 
 1842      69676E65 
 1842      6420696E 
 1842      7400
 1843              	.LASF7:
 1844 0420 5F5F7569 		.ascii	"__uint32_t\000"
 1844      6E743332 
 1844      5F7400
 1845              	.LASF39:
 1846 042b 72657365 		.ascii	"reset_handler\000"
 1846      745F6861 
 1846      6E646C65 
 1846      7200
 1847              	.LASF5:
 1848 0439 5F5F696E 		.ascii	"__int32_t\000"
 1848      7433325F 
 1848      7400
 1849              	.LASF81:
 1850 0443 70756C46 		.ascii	"pulFaultStackAddress\000"
 1850      61756C74 
 1850      53746163 
 1850      6B416464 
 1850      72657373 
 1851              	.LASF63:
 1852 0458 706F7374 		.ascii	"postmortem_lr\000"
 1852      6D6F7274 
 1852      656D5F6C 
 1852      7200
 1853              	.LASF64:
 1854 0466 706F7374 		.ascii	"postmortem_pc\000"
 1854      6D6F7274 
 1854      656D5F70 
 1854      6300
 1855              	.LASF70:
ARM GAS  /tmp/ccZyUS7l.s 			page 37


 1856 0474 706F7374 		.ascii	"postmortem_BFAR\000"
 1856      6D6F7274 
 1856      656D5F42 
 1856      46415200 
 1857              	.LASF40:
 1858 0484 6E6D695F 		.ascii	"nmi_handler\000"
 1858      68616E64 
 1858      6C657200 
 1859              	.LASF26:
 1860 0490 41465352 		.ascii	"AFSR\000"
 1860      00
 1861              	.LASF77:
 1862 0495 2E2E2F2E 		.ascii	"../../modules/ChibiOS/os/common/startup/ARMCMx/comp"
 1862      2E2F6D6F 
 1862      64756C65 
 1862      732F4368 
 1862      6962694F 
 1863 04c8 696C6572 		.ascii	"ilers/GCC/vectors.c\000"
 1863      732F4743 
 1863      432F7665 
 1863      63746F72 
 1863      732E6300 
 1864              	.LASF71:
 1865 04dc 706F7374 		.ascii	"postmortem_MMAR\000"
 1865      6D6F7274 
 1865      656D5F4D 
 1865      4D415200 
 1866              	.LASF56:
 1867 04ec 49544D5F 		.ascii	"ITM_RxBuffer\000"
 1867      52784275 
 1867      66666572 
 1867      00
 1868              	.LASF66:
 1869 04f9 706F7374 		.ascii	"postmortem_CFSR\000"
 1869      6D6F7274 
 1869      656D5F43 
 1869      46535200 
 1870              	.LASF30:
 1871 0509 43504143 		.ascii	"CPACR\000"
 1871      5200
 1872              	.LASF38:
 1873 050f 696E6974 		.ascii	"init_stack\000"
 1873      5F737461 
 1873      636B00
 1874              	.LASF57:
 1875 051a 5F766563 		.ascii	"_vectors\000"
 1875      746F7273 
 1875      00
 1876              		.ident	"GCC: (15:4.9.3+svn231177-1) 4.9.3 20150529 (prerelease)"
ARM GAS  /tmp/ccZyUS7l.s 			page 38


DEFINED SYMBOLS
                            *ABS*:0000000000000000 vectors.c
     /tmp/ccZyUS7l.s:21     .text._unhandled_exception:0000000000000000 $t
     /tmp/ccZyUS7l.s:26     .text._unhandled_exception:0000000000000000 _unhandled_exception
     /tmp/ccZyUS7l.s:43     .text._unhandled_exception:0000000000000014 handler2_address_const
     /tmp/ccZyUS7l.s:43     .text._unhandled_exception:0000000000000014 $d
     /tmp/ccZyUS7l.s:293    .text.prvGetRegistersFromStack:0000000000000000 prvGetRegistersFromStack
     /tmp/ccZyUS7l.s:47     .text._unhandled_exception:0000000000000018 $t
     /tmp/ccZyUS7l.s:26     .text._unhandled_exception:0000000000000000 NMI_Handler
     /tmp/ccZyUS7l.s:26     .text._unhandled_exception:0000000000000000 HardFault_Handler
     /tmp/ccZyUS7l.s:26     .text._unhandled_exception:0000000000000000 MemManage_Handler
     /tmp/ccZyUS7l.s:26     .text._unhandled_exception:0000000000000000 BusFault_Handler
     /tmp/ccZyUS7l.s:26     .text._unhandled_exception:0000000000000000 UsageFault_Handler
     /tmp/ccZyUS7l.s:26     .text._unhandled_exception:0000000000000000 Vector1C
     /tmp/ccZyUS7l.s:26     .text._unhandled_exception:0000000000000000 Vector20
     /tmp/ccZyUS7l.s:26     .text._unhandled_exception:0000000000000000 Vector24
     /tmp/ccZyUS7l.s:26     .text._unhandled_exception:0000000000000000 Vector28
     /tmp/ccZyUS7l.s:26     .text._unhandled_exception:0000000000000000 SVC_Handler
     /tmp/ccZyUS7l.s:26     .text._unhandled_exception:0000000000000000 DebugMon_Handler
     /tmp/ccZyUS7l.s:26     .text._unhandled_exception:0000000000000000 Vector34
     /tmp/ccZyUS7l.s:26     .text._unhandled_exception:0000000000000000 PendSV_Handler
     /tmp/ccZyUS7l.s:26     .text._unhandled_exception:0000000000000000 SysTick_Handler
     /tmp/ccZyUS7l.s:26     .text._unhandled_exception:0000000000000000 Vector40
     /tmp/ccZyUS7l.s:26     .text._unhandled_exception:0000000000000000 Vector44
     /tmp/ccZyUS7l.s:26     .text._unhandled_exception:0000000000000000 Vector48
     /tmp/ccZyUS7l.s:26     .text._unhandled_exception:0000000000000000 Vector4C
     /tmp/ccZyUS7l.s:26     .text._unhandled_exception:0000000000000000 Vector50
     /tmp/ccZyUS7l.s:26     .text._unhandled_exception:0000000000000000 Vector54
     /tmp/ccZyUS7l.s:26     .text._unhandled_exception:0000000000000000 Vector58
     /tmp/ccZyUS7l.s:26     .text._unhandled_exception:0000000000000000 Vector5C
     /tmp/ccZyUS7l.s:26     .text._unhandled_exception:0000000000000000 Vector60
     /tmp/ccZyUS7l.s:26     .text._unhandled_exception:0000000000000000 Vector64
     /tmp/ccZyUS7l.s:26     .text._unhandled_exception:0000000000000000 Vector68
     /tmp/ccZyUS7l.s:26     .text._unhandled_exception:0000000000000000 Vector6C
     /tmp/ccZyUS7l.s:26     .text._unhandled_exception:0000000000000000 Vector70
     /tmp/ccZyUS7l.s:26     .text._unhandled_exception:0000000000000000 Vector74
     /tmp/ccZyUS7l.s:26     .text._unhandled_exception:0000000000000000 Vector78
     /tmp/ccZyUS7l.s:26     .text._unhandled_exception:0000000000000000 Vector7C
     /tmp/ccZyUS7l.s:26     .text._unhandled_exception:0000000000000000 Vector80
     /tmp/ccZyUS7l.s:26     .text._unhandled_exception:0000000000000000 Vector84
     /tmp/ccZyUS7l.s:26     .text._unhandled_exception:0000000000000000 Vector88
     /tmp/ccZyUS7l.s:26     .text._unhandled_exception:0000000000000000 Vector8C
     /tmp/ccZyUS7l.s:26     .text._unhandled_exception:0000000000000000 Vector90
     /tmp/ccZyUS7l.s:26     .text._unhandled_exception:0000000000000000 Vector94
     /tmp/ccZyUS7l.s:26     .text._unhandled_exception:0000000000000000 Vector98
     /tmp/ccZyUS7l.s:26     .text._unhandled_exception:0000000000000000 Vector9C
     /tmp/ccZyUS7l.s:26     .text._unhandled_exception:0000000000000000 VectorA0
     /tmp/ccZyUS7l.s:26     .text._unhandled_exception:0000000000000000 VectorA4
     /tmp/ccZyUS7l.s:26     .text._unhandled_exception:0000000000000000 VectorA8
     /tmp/ccZyUS7l.s:26     .text._unhandled_exception:0000000000000000 VectorAC
     /tmp/ccZyUS7l.s:26     .text._unhandled_exception:0000000000000000 VectorB0
     /tmp/ccZyUS7l.s:26     .text._unhandled_exception:0000000000000000 VectorB4
     /tmp/ccZyUS7l.s:26     .text._unhandled_exception:0000000000000000 VectorB8
     /tmp/ccZyUS7l.s:26     .text._unhandled_exception:0000000000000000 VectorBC
     /tmp/ccZyUS7l.s:26     .text._unhandled_exception:0000000000000000 VectorC0
     /tmp/ccZyUS7l.s:26     .text._unhandled_exception:0000000000000000 VectorC4
     /tmp/ccZyUS7l.s:26     .text._unhandled_exception:0000000000000000 VectorC8
ARM GAS  /tmp/ccZyUS7l.s 			page 39


     /tmp/ccZyUS7l.s:26     .text._unhandled_exception:0000000000000000 VectorCC
     /tmp/ccZyUS7l.s:26     .text._unhandled_exception:0000000000000000 VectorD0
     /tmp/ccZyUS7l.s:26     .text._unhandled_exception:0000000000000000 VectorD4
     /tmp/ccZyUS7l.s:26     .text._unhandled_exception:0000000000000000 VectorD8
     /tmp/ccZyUS7l.s:26     .text._unhandled_exception:0000000000000000 VectorDC
     /tmp/ccZyUS7l.s:26     .text._unhandled_exception:0000000000000000 VectorE0
     /tmp/ccZyUS7l.s:26     .text._unhandled_exception:0000000000000000 VectorE4
     /tmp/ccZyUS7l.s:26     .text._unhandled_exception:0000000000000000 VectorE8
     /tmp/ccZyUS7l.s:26     .text._unhandled_exception:0000000000000000 VectorEC
     /tmp/ccZyUS7l.s:26     .text._unhandled_exception:0000000000000000 VectorF0
     /tmp/ccZyUS7l.s:26     .text._unhandled_exception:0000000000000000 VectorF4
     /tmp/ccZyUS7l.s:26     .text._unhandled_exception:0000000000000000 VectorF8
     /tmp/ccZyUS7l.s:26     .text._unhandled_exception:0000000000000000 VectorFC
     /tmp/ccZyUS7l.s:26     .text._unhandled_exception:0000000000000000 Vector100
     /tmp/ccZyUS7l.s:26     .text._unhandled_exception:0000000000000000 Vector104
     /tmp/ccZyUS7l.s:26     .text._unhandled_exception:0000000000000000 Vector108
     /tmp/ccZyUS7l.s:26     .text._unhandled_exception:0000000000000000 Vector10C
     /tmp/ccZyUS7l.s:26     .text._unhandled_exception:0000000000000000 Vector110
     /tmp/ccZyUS7l.s:26     .text._unhandled_exception:0000000000000000 Vector114
     /tmp/ccZyUS7l.s:26     .text._unhandled_exception:0000000000000000 Vector118
     /tmp/ccZyUS7l.s:26     .text._unhandled_exception:0000000000000000 Vector11C
     /tmp/ccZyUS7l.s:26     .text._unhandled_exception:0000000000000000 Vector120
     /tmp/ccZyUS7l.s:26     .text._unhandled_exception:0000000000000000 Vector124
     /tmp/ccZyUS7l.s:26     .text._unhandled_exception:0000000000000000 Vector128
     /tmp/ccZyUS7l.s:26     .text._unhandled_exception:0000000000000000 Vector12C
     /tmp/ccZyUS7l.s:26     .text._unhandled_exception:0000000000000000 Vector130
     /tmp/ccZyUS7l.s:26     .text._unhandled_exception:0000000000000000 Vector134
     /tmp/ccZyUS7l.s:26     .text._unhandled_exception:0000000000000000 Vector138
     /tmp/ccZyUS7l.s:26     .text._unhandled_exception:0000000000000000 Vector13C
     /tmp/ccZyUS7l.s:26     .text._unhandled_exception:0000000000000000 Vector140
     /tmp/ccZyUS7l.s:26     .text._unhandled_exception:0000000000000000 Vector144
     /tmp/ccZyUS7l.s:26     .text._unhandled_exception:0000000000000000 Vector148
     /tmp/ccZyUS7l.s:26     .text._unhandled_exception:0000000000000000 Vector14C
     /tmp/ccZyUS7l.s:26     .text._unhandled_exception:0000000000000000 Vector150
     /tmp/ccZyUS7l.s:26     .text._unhandled_exception:0000000000000000 Vector154
     /tmp/ccZyUS7l.s:26     .text._unhandled_exception:0000000000000000 Vector158
     /tmp/ccZyUS7l.s:26     .text._unhandled_exception:0000000000000000 Vector15C
     /tmp/ccZyUS7l.s:26     .text._unhandled_exception:0000000000000000 Vector160
     /tmp/ccZyUS7l.s:26     .text._unhandled_exception:0000000000000000 Vector164
     /tmp/ccZyUS7l.s:26     .text._unhandled_exception:0000000000000000 Vector168
     /tmp/ccZyUS7l.s:26     .text._unhandled_exception:0000000000000000 Vector16C
     /tmp/ccZyUS7l.s:26     .text._unhandled_exception:0000000000000000 Vector170
     /tmp/ccZyUS7l.s:26     .text._unhandled_exception:0000000000000000 Vector174
     /tmp/ccZyUS7l.s:26     .text._unhandled_exception:0000000000000000 Vector178
     /tmp/ccZyUS7l.s:26     .text._unhandled_exception:0000000000000000 Vector17C
     /tmp/ccZyUS7l.s:26     .text._unhandled_exception:0000000000000000 Vector180
     /tmp/ccZyUS7l.s:26     .text._unhandled_exception:0000000000000000 Vector184
     /tmp/ccZyUS7l.s:26     .text._unhandled_exception:0000000000000000 Vector188
     /tmp/ccZyUS7l.s:26     .text._unhandled_exception:0000000000000000 Vector18C
     /tmp/ccZyUS7l.s:26     .text._unhandled_exception:0000000000000000 Vector190
     /tmp/ccZyUS7l.s:26     .text._unhandled_exception:0000000000000000 Vector194
     /tmp/ccZyUS7l.s:26     .text._unhandled_exception:0000000000000000 Vector198
     /tmp/ccZyUS7l.s:26     .text._unhandled_exception:0000000000000000 Vector19C
     /tmp/ccZyUS7l.s:26     .text._unhandled_exception:0000000000000000 Vector1A0
     /tmp/ccZyUS7l.s:26     .text._unhandled_exception:0000000000000000 Vector1A4
     /tmp/ccZyUS7l.s:26     .text._unhandled_exception:0000000000000000 Vector1A8
     /tmp/ccZyUS7l.s:26     .text._unhandled_exception:0000000000000000 Vector1AC
ARM GAS  /tmp/ccZyUS7l.s 			page 40


     /tmp/ccZyUS7l.s:26     .text._unhandled_exception:0000000000000000 Vector1B0
     /tmp/ccZyUS7l.s:26     .text._unhandled_exception:0000000000000000 Vector1B4
     /tmp/ccZyUS7l.s:26     .text._unhandled_exception:0000000000000000 Vector1B8
     /tmp/ccZyUS7l.s:26     .text._unhandled_exception:0000000000000000 Vector1BC
     /tmp/ccZyUS7l.s:26     .text._unhandled_exception:0000000000000000 Vector1C0
     /tmp/ccZyUS7l.s:26     .text._unhandled_exception:0000000000000000 Vector1C4
     /tmp/ccZyUS7l.s:26     .text._unhandled_exception:0000000000000000 Vector1C8
     /tmp/ccZyUS7l.s:26     .text._unhandled_exception:0000000000000000 Vector1CC
     /tmp/ccZyUS7l.s:26     .text._unhandled_exception:0000000000000000 Vector1D0
     /tmp/ccZyUS7l.s:26     .text._unhandled_exception:0000000000000000 Vector1D4
     /tmp/ccZyUS7l.s:26     .text._unhandled_exception:0000000000000000 Vector1D8
     /tmp/ccZyUS7l.s:26     .text._unhandled_exception:0000000000000000 Vector1DC
     /tmp/ccZyUS7l.s:288    .text.prvGetRegistersFromStack:0000000000000000 $t
     /tmp/ccZyUS7l.s:402    .text.prvGetRegistersFromStack:0000000000000084 $d
     /tmp/ccZyUS7l.s:479    .vectors:0000000000000000 _vectors
     /tmp/ccZyUS7l.s:459    .bss.postmortem_MMSR:0000000000000000 postmortem_MMSR
     /tmp/ccZyUS7l.s:632    .bss.postmortem_BFSR:0000000000000000 postmortem_BFSR
     /tmp/ccZyUS7l.s:466    .bss.postmortem_SCB_SHCSR:0000000000000000 postmortem_SCB_SHCSR
     /tmp/ccZyUS7l.s:653    .bss.postmortem_MMAR:0000000000000000 postmortem_MMAR
     /tmp/ccZyUS7l.s:612    .bss.postmortem_BFAR:0000000000000000 postmortem_BFAR
     /tmp/ccZyUS7l.s:626    .bss.postmortem_AFSR:0000000000000000 postmortem_AFSR
     /tmp/ccZyUS7l.s:646    .bss.postmortem_DFSR:0000000000000000 postmortem_DFSR
     /tmp/ccZyUS7l.s:660    .bss.postmortem_HFSR:0000000000000000 postmortem_HFSR
     /tmp/ccZyUS7l.s:639    .bss.postmortem_CFSR:0000000000000000 postmortem_CFSR
     /tmp/ccZyUS7l.s:619    .bss.postmortem_psr:0000000000000000 postmortem_psr
     /tmp/ccZyUS7l.s:473    .bss.postmortem_pc:0000000000000000 postmortem_pc
     /tmp/ccZyUS7l.s:453    .bss.postmortem_lr:0000000000000000 postmortem_lr
     /tmp/ccZyUS7l.s:605    .bss.postmortem_r12:0000000000000000 postmortem_r12
     /tmp/ccZyUS7l.s:688    .bss.postmortem_r3:0000000000000000 postmortem_r3
     /tmp/ccZyUS7l.s:681    .bss.postmortem_r2:0000000000000000 postmortem_r2
     /tmp/ccZyUS7l.s:674    .bss.postmortem_r1:0000000000000000 postmortem_r1
     /tmp/ccZyUS7l.s:667    .bss.postmortem_r0:0000000000000000 postmortem_r0
     /tmp/ccZyUS7l.s:449    .bss.postmortem_lr:0000000000000000 $d
     /tmp/ccZyUS7l.s:460    .bss.postmortem_MMSR:0000000000000000 $d
     /tmp/ccZyUS7l.s:462    .bss.postmortem_SCB_SHCSR:0000000000000000 $d
     /tmp/ccZyUS7l.s:469    .bss.postmortem_pc:0000000000000000 $d
     /tmp/ccZyUS7l.s:476    .vectors:0000000000000000 $d
     /tmp/ccZyUS7l.s:601    .bss.postmortem_r12:0000000000000000 $d
     /tmp/ccZyUS7l.s:608    .bss.postmortem_BFAR:0000000000000000 $d
     /tmp/ccZyUS7l.s:615    .bss.postmortem_psr:0000000000000000 $d
     /tmp/ccZyUS7l.s:622    .bss.postmortem_AFSR:0000000000000000 $d
     /tmp/ccZyUS7l.s:633    .bss.postmortem_BFSR:0000000000000000 $d
     /tmp/ccZyUS7l.s:635    .bss.postmortem_CFSR:0000000000000000 $d
     /tmp/ccZyUS7l.s:642    .bss.postmortem_DFSR:0000000000000000 $d
     /tmp/ccZyUS7l.s:649    .bss.postmortem_MMAR:0000000000000000 $d
     /tmp/ccZyUS7l.s:656    .bss.postmortem_HFSR:0000000000000000 $d
     /tmp/ccZyUS7l.s:663    .bss.postmortem_r0:0000000000000000 $d
     /tmp/ccZyUS7l.s:670    .bss.postmortem_r1:0000000000000000 $d
     /tmp/ccZyUS7l.s:677    .bss.postmortem_r2:0000000000000000 $d
     /tmp/ccZyUS7l.s:684    .bss.postmortem_r3:0000000000000000 $d
                     .debug_frame:0000000000000010 $d

UNDEFINED SYMBOLS
__main_stack_end__
Reset_Handler
