ARM GAS  /tmp/ccncHhri.s 			page 1


   1              		.syntax unified
   2              		.cpu cortex-m4
   3              		.eabi_attribute 27, 1
   4              		.eabi_attribute 28, 1
   5              		.fpu fpv4-sp-d16
   6              		.eabi_attribute 20, 1
   7              		.eabi_attribute 21, 1
   8              		.eabi_attribute 23, 3
   9              		.eabi_attribute 24, 1
  10              		.eabi_attribute 25, 1
  11              		.eabi_attribute 26, 1
  12              		.eabi_attribute 30, 4
  13              		.eabi_attribute 34, 1
  14              		.eabi_attribute 18, 4
  15              		.thumb
  16              		.file	"board.c"
  17              		.text
  18              	.Ltext0:
  19              		.cfi_sections	.debug_frame
  20              		.section	.text.gpio_init,"ax",%progbits
  21              		.align	1
  22              		.thumb
  23              		.thumb_func
  24              		.type	gpio_init, %function
  25              	gpio_init:
  26              	.LFB323:
  27              		.file 1 "../../libraries/AP_HAL_ChibiOS/hwdef/common/board.c"
  28              		.loc 1 158 0
  29              		.cfi_startproc
  30              		@ args = 0, pretend = 0, frame = 0
  31              		@ frame_needed = 0, uses_anonymous_args = 0
  32              		@ link register save eliminated.
  33              	.LVL0:
  34              		.loc 1 160 0
  35 0000 4B68     		ldr	r3, [r1, #4]
  36 0002 4360     		str	r3, [r0, #4]
  37              		.loc 1 161 0
  38 0004 8B68     		ldr	r3, [r1, #8]
  39 0006 8360     		str	r3, [r0, #8]
  40              		.loc 1 162 0
  41 0008 CB68     		ldr	r3, [r1, #12]
  42 000a C360     		str	r3, [r0, #12]
  43              		.loc 1 163 0
  44 000c 0B69     		ldr	r3, [r1, #16]
  45 000e 4361     		str	r3, [r0, #20]
  46              		.loc 1 164 0
  47 0010 4B69     		ldr	r3, [r1, #20]
  48 0012 0362     		str	r3, [r0, #32]
  49              		.loc 1 165 0
  50 0014 8B69     		ldr	r3, [r1, #24]
  51 0016 4362     		str	r3, [r0, #36]
  52              		.loc 1 166 0
  53 0018 0B68     		ldr	r3, [r1]
  54 001a 0360     		str	r3, [r0]
  55 001c 7047     		bx	lr
  56              		.cfi_endproc
  57              	.LFE323:
ARM GAS  /tmp/ccncHhri.s 			page 2


  58              		.size	gpio_init, .-gpio_init
  59              		.section	.text.__early_init,"ax",%progbits
  60              		.align	1
  61              		.global	__early_init
  62              		.thumb
  63              		.thumb_func
  64              		.type	__early_init, %function
  65              	__early_init:
  66              	.LFB325:
  67              		.loc 1 224 0
  68              		.cfi_startproc
  69              		@ args = 0, pretend = 0, frame = 0
  70              		@ frame_needed = 0, uses_anonymous_args = 0
  71              	.LBB4:
  72              	.LBB5:
  73              		.loc 1 177 0
  74 0000 224B     		ldr	r3, .L3
  75              		.loc 1 183 0
  76 0002 2348     		ldr	r0, .L3+4
  77              		.loc 1 177 0
  78 0004 1969     		ldr	r1, [r3, #16]
  79 0006 40F2FF12 		movw	r2, #511
  80 000a 1143     		orrs	r1, r1, r2
  81              	.LBE5:
  82              	.LBE4:
  83              		.loc 1 224 0
  84 000c 10B5     		push	{r4, lr}
  85              		.cfi_def_cfa_offset 8
  86              		.cfi_offset 4, -8
  87              		.cfi_offset 14, -4
  88              	.LBB7:
  89              	.LBB6:
  90              		.loc 1 177 0
  91 000e 1961     		str	r1, [r3, #16]
  92 0010 1969     		ldr	r1, [r3, #16]
  93              		.loc 1 183 0
  94 0012 204C     		ldr	r4, .L3+8
  95              		.loc 1 177 0
  96 0014 21F4FF71 		bic	r1, r1, #510
  97 0018 21F00101 		bic	r1, r1, #1
  98 001c 1961     		str	r1, [r3, #16]
  99 001e 1969     		ldr	r1, [r3, #16]
 100              		.loc 1 178 0
 101 0020 196B     		ldr	r1, [r3, #48]
 102 0022 1143     		orrs	r1, r1, r2
 103 0024 1963     		str	r1, [r3, #48]
 104 0026 196D     		ldr	r1, [r3, #80]
 105 0028 0A43     		orrs	r2, r2, r1
 106 002a 1A65     		str	r2, [r3, #80]
 107              		.loc 1 183 0
 108 002c 2146     		mov	r1, r4
 109              		.loc 1 178 0
 110 002e 1B6D     		ldr	r3, [r3, #80]
 111              		.loc 1 183 0
 112 0030 FFF7FEFF 		bl	gpio_init
 113              	.LVL1:
 114              		.loc 1 186 0
ARM GAS  /tmp/ccncHhri.s 			page 3


 115 0034 04F11C01 		add	r1, r4, #28
 116 0038 1748     		ldr	r0, .L3+12
 117 003a FFF7FEFF 		bl	gpio_init
 118              	.LVL2:
 119              		.loc 1 189 0
 120 003e 04F13801 		add	r1, r4, #56
 121 0042 1648     		ldr	r0, .L3+16
 122 0044 FFF7FEFF 		bl	gpio_init
 123              	.LVL3:
 124              		.loc 1 192 0
 125 0048 04F15401 		add	r1, r4, #84
 126 004c 1448     		ldr	r0, .L3+20
 127 004e FFF7FEFF 		bl	gpio_init
 128              	.LVL4:
 129              		.loc 1 195 0
 130 0052 04F17001 		add	r1, r4, #112
 131 0056 1348     		ldr	r0, .L3+24
 132 0058 FFF7FEFF 		bl	gpio_init
 133              	.LVL5:
 134              		.loc 1 198 0
 135 005c 04F18C01 		add	r1, r4, #140
 136 0060 1148     		ldr	r0, .L3+28
 137 0062 FFF7FEFF 		bl	gpio_init
 138              	.LVL6:
 139              		.loc 1 201 0
 140 0066 04F1A801 		add	r1, r4, #168
 141 006a 1048     		ldr	r0, .L3+32
 142 006c FFF7FEFF 		bl	gpio_init
 143              	.LVL7:
 144              		.loc 1 204 0
 145 0070 04F1C401 		add	r1, r4, #196
 146 0074 0E48     		ldr	r0, .L3+36
 147 0076 FFF7FEFF 		bl	gpio_init
 148              	.LVL8:
 149              		.loc 1 207 0
 150 007a 04F1E001 		add	r1, r4, #224
 151 007e 0D48     		ldr	r0, .L3+40
 152 0080 FFF7FEFF 		bl	gpio_init
 153              	.LVL9:
 154              	.LBE6:
 155              	.LBE7:
 156              		.loc 1 232 0
 157 0084 BDE81040 		pop	{r4, lr}
 158              		.cfi_restore 14
 159              		.cfi_restore 4
 160              		.cfi_def_cfa_offset 0
 161              		.loc 1 228 0
 162 0088 FFF7FEBF 		b	stm32_clock_init
 163              	.LVL10:
 164              	.L4:
 165              		.align	2
 166              	.L3:
 167 008c 00380240 		.word	1073887232
 168 0090 00000240 		.word	1073872896
 169 0094 00000000 		.word	.LANCHOR0
 170 0098 00040240 		.word	1073873920
 171 009c 00080240 		.word	1073874944
ARM GAS  /tmp/ccncHhri.s 			page 4


 172 00a0 000C0240 		.word	1073875968
 173 00a4 00100240 		.word	1073876992
 174 00a8 00140240 		.word	1073878016
 175 00ac 00180240 		.word	1073879040
 176 00b0 001C0240 		.word	1073880064
 177 00b4 00200240 		.word	1073881088
 178              		.cfi_endproc
 179              	.LFE325:
 180              		.size	__early_init, .-__early_init
 181              		.section	.text.__late_init,"ax",%progbits
 182              		.align	1
 183              		.global	__late_init
 184              		.thumb
 185              		.thumb_func
 186              		.type	__late_init, %function
 187              	__late_init:
 188              	.LFB326:
 189              		.loc 1 234 0
 190              		.cfi_startproc
 191              		@ args = 0, pretend = 0, frame = 0
 192              		@ frame_needed = 0, uses_anonymous_args = 0
 193 0000 08B5     		push	{r3, lr}
 194              		.cfi_def_cfa_offset 8
 195              		.cfi_offset 3, -8
 196              		.cfi_offset 14, -4
 197              		.loc 1 235 0
 198 0002 FFF7FEFF 		bl	halInit
 199              	.LVL11:
 200              		.loc 1 236 0
 201 0006 FFF7FEFF 		bl	chSysInit
 202              	.LVL12:
 203              		.loc 1 237 0
 204 000a FFF7FEFF 		bl	stm32_watchdog_save_reason
 205              	.LVL13:
 206              		.loc 1 239 0
 207 000e FFF7FEFF 		bl	stm32_watchdog_clear_reason
 208              	.LVL14:
 209              		.loc 1 242 0
 210 0012 FFF7FEFF 		bl	malloc_init
 211              	.LVL15:
 212              		.loc 1 247 0
 213 0016 BDE80840 		pop	{r3, lr}
 214              		.cfi_restore 14
 215              		.cfi_restore 3
 216              		.cfi_def_cfa_offset 0
 217              		.loc 1 245 0
 218 001a FFF7FEBF 		b	setup_usb_strings
 219              	.LVL16:
 220              		.cfi_endproc
 221              	.LFE326:
 222              		.size	__late_init, .-__late_init
 223              		.section	.text.mmc_lld_is_card_inserted,"ax",%progbits
 224              		.align	1
 225              		.global	mmc_lld_is_card_inserted
 226              		.thumb
 227              		.thumb_func
 228              		.type	mmc_lld_is_card_inserted, %function
ARM GAS  /tmp/ccncHhri.s 			page 5


 229              	mmc_lld_is_card_inserted:
 230              	.LFB327:
 231              		.loc 1 272 0
 232              		.cfi_startproc
 233              		@ args = 0, pretend = 0, frame = 0
 234              		@ frame_needed = 0, uses_anonymous_args = 0
 235              		@ link register save eliminated.
 236              	.LVL17:
 237              		.loc 1 276 0
 238 0000 0120     		movs	r0, #1
 239              	.LVL18:
 240 0002 7047     		bx	lr
 241              		.cfi_endproc
 242              	.LFE327:
 243              		.size	mmc_lld_is_card_inserted, .-mmc_lld_is_card_inserted
 244              		.section	.text.mmc_lld_is_write_protected,"ax",%progbits
 245              		.align	1
 246              		.global	mmc_lld_is_write_protected
 247              		.thumb
 248              		.thumb_func
 249              		.type	mmc_lld_is_write_protected, %function
 250              	mmc_lld_is_write_protected:
 251              	.LFB328:
 252              		.loc 1 281 0
 253              		.cfi_startproc
 254              		@ args = 0, pretend = 0, frame = 0
 255              		@ frame_needed = 0, uses_anonymous_args = 0
 256              		@ link register save eliminated.
 257              	.LVL19:
 258              		.loc 1 285 0
 259 0000 0020     		movs	r0, #0
 260              	.LVL20:
 261 0002 7047     		bx	lr
 262              		.cfi_endproc
 263              	.LFE328:
 264              		.size	mmc_lld_is_write_protected, .-mmc_lld_is_write_protected
 265              		.section	.text.boardInit,"ax",%progbits
 266              		.align	1
 267              		.global	boardInit
 268              		.thumb
 269              		.thumb_func
 270              		.type	boardInit, %function
 271              	boardInit:
 272              	.LFB329:
 273              		.loc 1 292 0
 274              		.cfi_startproc
 275              		@ args = 0, pretend = 0, frame = 0
 276              		@ frame_needed = 0, uses_anonymous_args = 0
 277              		@ link register save eliminated.
 278 0000 7047     		bx	lr
 279              		.cfi_endproc
 280              	.LFE329:
 281              		.size	boardInit, .-boardInit
 282              		.section	.rodata.gpio_default_config,"a",%progbits
 283              		.align	2
 284              		.set	.LANCHOR0,. + 0
 285              		.type	gpio_default_config, %object
ARM GAS  /tmp/ccncHhri.s 			page 6


 286              		.size	gpio_default_config, 252
 287              	gpio_default_config:
 288 0000 AAA9802A 		.word	713075114
 289 0004 00020000 		.word	512
 290 0008 AAAAAAAA 		.word	-1431655766
 291 000c 00010000 		.word	256
 292 0010 FFFF0000 		.word	65535
 293 0014 11115055 		.word	1431310609
 294 0018 00A00A00 		.word	696320
 295 001c 00A0AAA9 		.word	-1448435712
 296 0020 000F0000 		.word	3840
 297 0024 AAAAAAA8 		.word	-1465210198
 298 0028 05500001 		.word	16797701
 299 002c FFFF0000 		.word	65535
 300 0030 00000077 		.word	1996488704
 301 0034 44445055 		.word	1431323716
 302 0038 FF8FA002 		.word	44077055
 303 003c 00000000 		.word	0
 304 0040 AAAAAAAA 		.word	-1431655766
 305 0044 00405001 		.word	22036480
 306 0048 7FFF0000 		.word	65407
 307 004c 00000030 		.word	805306368
 308 0050 00880800 		.word	559104
 309 0054 20280AAA 		.word	-1442174944
 310 0058 00000000 		.word	0
 311 005c AAAAAAAA 		.word	-1431655766
 312 0060 10140500 		.word	332816
 313 0064 FFFF0000 		.word	65535
 314 0068 00087007 		.word	124782592
 315 006c 77002222 		.word	572653687
 316 0070 55088868 		.word	1753745493
 317 0074 00000000 		.word	0
 318 0078 AAAAAAAA 		.word	-1431655766
 319 007c 00000040 		.word	1073741824
 320 0080 FFFF0000 		.word	65535
 321 0084 00003000 		.word	3145728
 322 0088 10101001 		.word	17829904
 323 008c 00000000 		.word	0
 324 0090 00000000 		.word	0
 325 0094 AAAAAAAA 		.word	-1431655766
 326 0098 00000000 		.word	0
 327 009c FFFF0000 		.word	65535
 328 00a0 00000000 		.word	0
 329 00a4 00000000 		.word	0
 330 00a8 00000000 		.word	0
 331 00ac 00000000 		.word	0
 332 00b0 AAAAAAAA 		.word	-1431655766
 333 00b4 00000000 		.word	0
 334 00b8 FFFF0000 		.word	65535
 335 00bc 00000000 		.word	0
 336 00c0 00000000 		.word	0
 337 00c4 00000000 		.word	0
 338 00c8 00000000 		.word	0
 339 00cc 0A000000 		.word	10
 340 00d0 00000000 		.word	0
 341 00d4 03000000 		.word	3
 342 00d8 00000000 		.word	0
ARM GAS  /tmp/ccncHhri.s 			page 7


 343 00dc 00000000 		.word	0
 344 00e0 00000000 		.word	0
 345 00e4 00000000 		.word	0
 346 00e8 00000000 		.word	0
 347 00ec 00000000 		.word	0
 348 00f0 00000000 		.word	0
 349 00f4 00000000 		.word	0
 350 00f8 00000000 		.word	0
 351              		.text
 352              	.Letext0:
 353              		.file 2 "/usr/lib/gcc/arm-none-eabi/4.9.3/include/stddef.h"
 354              		.file 3 "/usr/include/newlib/machine/_default_types.h"
 355              		.file 4 "/usr/include/newlib/sys/_stdint.h"
 356              		.file 5 "/usr/include/newlib/stdint.h"
 357              		.file 6 "../../modules/ChibiOS/os/common/ports/ARMCMx/compilers/GCC/chtypes.h"
 358              		.file 7 "../../modules/ChibiOS/os/rt/include/chsystypes.h"
 359              		.file 8 "../../modules/ChibiOS/os/rt/include/chschd.h"
 360              		.file 9 "../../modules/ChibiOS/os/rt/include/chtime.h"
 361              		.file 10 "../../modules/ChibiOS/os/common/ext/ST/STM32F4xx/stm32f407xx.h"
 362              		.file 11 "../../modules/ChibiOS/os/common/ports/ARMCMx/chcore.h"
 363              		.file 12 "../../modules/ChibiOS/os/common/ports/ARMCMx/chcore_v7m.h"
 364              		.file 13 "../../modules/ChibiOS/os/rt/include/chtm.h"
 365              		.file 14 "../../modules/ChibiOS/os/rt/include/chstats.h"
 366              		.file 15 "../../modules/ChibiOS/os/rt/include/chsem.h"
 367              		.file 16 "../../modules/ChibiOS/os/rt/include/chmtx.h"
 368              		.file 17 "../../modules/ChibiOS/os/hal/ports/STM32/LLD/DMAv2/stm32_dma.h"
 369              		.file 18 "../../modules/ChibiOS/os/hal/include/hal_ioblock.h"
 370              		.file 19 "../../modules/ChibiOS/os/hal/ports/STM32/LLD/GPIOv2/stm32_gpio.h"
 371              		.file 20 "../../modules/ChibiOS/os/hal/ports/STM32/LLD/GPIOv2/hal_pal_lld.h"
 372              		.file 21 "../../modules/ChibiOS/os/hal/include/hal_spi.h"
 373              		.file 22 "../../modules/ChibiOS/os/hal/include/hal_mmc_spi.h"
 374              		.file 23 "../../modules/ChibiOS/os/hal/ports/STM32/STM32F4xx/hal_lld_type1.h"
 375              		.file 24 "../../modules/ChibiOS/os/hal/include/hal.h"
 376              		.file 25 "../../modules/ChibiOS/os/rt/include/chsys.h"
 377              		.file 26 "../../libraries/AP_HAL_ChibiOS/hwdef/common/watchdog.h"
 378              		.file 27 "../../libraries/AP_HAL_ChibiOS/hwdef/common/stm32_util.h"
 379              		.file 28 "../../libraries/AP_HAL_ChibiOS/hwdef/common/usbcfg.h"
 380              		.file 29 "../../modules/ChibiOS/os/common/ext/ARM/CMSIS/Core/Include/core_cm4.h"