ARM GAS  /tmp/ccazp6NW.s 			page 1


   1              		.syntax unified
   2              		.cpu cortex-m4
   3              		.eabi_attribute 27, 1
   4              		.eabi_attribute 28, 1
   5              		.fpu fpv4-sp-d16
   6              		.eabi_attribute 20, 1
   7              		.eabi_attribute 21, 1
   8              		.eabi_attribute 23, 3
   9              		.eabi_attribute 24, 1
  10              		.eabi_attribute 25, 1
  11              		.eabi_attribute 26, 1
  12              		.eabi_attribute 30, 4
  13              		.eabi_attribute 34, 1
  14              		.eabi_attribute 18, 4
  15              		.thumb
  16              		.file	"bouncebuffer.c"
  17              		.text
  18              	.Ltext0:
  19              		.cfi_sections	.debug_frame
  20              		.section	.text.bouncebuffer_init,"ax",%progbits
  21              		.align	1
  22              		.global	bouncebuffer_init
  23              		.thumb
  24              		.thumb_func
  25              		.type	bouncebuffer_init, %function
  26              	bouncebuffer_init:
  27              	.LFB323:
  28              		.file 1 "../../libraries/AP_HAL_ChibiOS/hwdef/common/bouncebuffer.c"
  29              		.loc 1 40 0
  30              		.cfi_startproc
  31              		@ args = 0, pretend = 0, frame = 0
  32              		@ frame_needed = 0, uses_anonymous_args = 0
  33              	.LVL0:
  34 0000 F8B5     		push	{r3, r4, r5, r6, r7, lr}
  35              		.cfi_def_cfa_offset 24
  36              		.cfi_offset 3, -24
  37              		.cfi_offset 4, -20
  38              		.cfi_offset 5, -16
  39              		.cfi_offset 6, -12
  40              		.cfi_offset 7, -8
  41              		.cfi_offset 14, -4
  42              		.loc 1 40 0
  43 0002 0646     		mov	r6, r0
  44 0004 0C46     		mov	r4, r1
  45              		.loc 1 41 0
  46 0006 0120     		movs	r0, #1
  47              	.LVL1:
  48 0008 1021     		movs	r1, #16
  49              	.LVL2:
  50              		.loc 1 40 0
  51 000a 1746     		mov	r7, r2
  52              		.loc 1 41 0
  53 000c FFF7FEFF 		bl	calloc
  54              	.LVL3:
  55 0010 0546     		mov	r5, r0
  56 0012 3060     		str	r0, [r6]
  57              		.loc 1 43 0
ARM GAS  /tmp/ccazp6NW.s 			page 2


  58 0014 4773     		strb	r7, [r0, #13]
  59              		.loc 1 44 0
  60 0016 4CB1     		cbz	r4, .L1
  61              		.loc 1 45 0
  62 0018 2046     		mov	r0, r4
  63 001a 17B1     		cbz	r7, .L3
  64              		.loc 1 45 0 is_stmt 0 discriminator 1
  65 001c FFF7FEFF 		bl	malloc_sdcard_dma
  66              	.LVL4:
  67 0020 01E0     		b	.L4
  68              	.LVL5:
  69              	.L3:
  70              		.loc 1 45 0 discriminator 2
  71 0022 FFF7FEFF 		bl	malloc_dma
  72              	.LVL6:
  73              	.L4:
  74              		.loc 1 47 0 is_stmt 1 discriminator 4
  75 0026 3368     		ldr	r3, [r6]
  76              		.loc 1 45 0 discriminator 4
  77 0028 2860     		str	r0, [r5]
  78              		.loc 1 47 0 discriminator 4
  79 002a 9C60     		str	r4, [r3, #8]
  80              	.L1:
  81 002c F8BD     		pop	{r3, r4, r5, r6, r7, pc}
  82              		.cfi_endproc
  83              	.LFE323:
  84              		.size	bouncebuffer_init, .-bouncebuffer_init
  85              		.section	.text.bouncebuffer_setup_read,"ax",%progbits
  86              		.align	1
  87              		.global	bouncebuffer_setup_read
  88              		.thumb
  89              		.thumb_func
  90              		.type	bouncebuffer_setup_read, %function
  91              	bouncebuffer_setup_read:
  92              	.LFB324:
  93              		.loc 1 57 0
  94              		.cfi_startproc
  95              		@ args = 0, pretend = 0, frame = 0
  96              		@ frame_needed = 0, uses_anonymous_args = 0
  97              	.LVL7:
  98 0000 70B5     		push	{r4, r5, r6, lr}
  99              		.cfi_def_cfa_offset 16
 100              		.cfi_offset 4, -16
 101              		.cfi_offset 5, -12
 102              		.cfi_offset 6, -8
 103              		.cfi_offset 14, -4
 104              		.loc 1 57 0
 105 0002 0E46     		mov	r6, r1
 106 0004 1546     		mov	r5, r2
 107              		.loc 1 58 0
 108 0006 0446     		mov	r4, r0
 109 0008 D8B1     		cbz	r0, .L9
 110              		.loc 1 58 0 is_stmt 0 discriminator 1
 111 000a 0A68     		ldr	r2, [r1]
 112              	.LVL8:
 113 000c 0D4B     		ldr	r3, .L24
 114 000e 1340     		ands	r3, r3, r2
ARM GAS  /tmp/ccazp6NW.s 			page 3


 115 0010 B3F1005F 		cmp	r3, #536870912
 116 0014 15D0     		beq	.L9
 117              		.loc 1 64 0 is_stmt 1
 118 0016 8368     		ldr	r3, [r0, #8]
 119              		.loc 1 63 0
 120 0018 4260     		str	r2, [r0, #4]
 121              		.loc 1 64 0
 122 001a AB42     		cmp	r3, r5
 123 001c 0DD2     		bcs	.L11
 124              		.loc 1 65 0
 125 001e 13B1     		cbz	r3, .L12
 126              		.loc 1 66 0
 127 0020 0068     		ldr	r0, [r0]
 128              	.LVL9:
 129 0022 FFF7FEFF 		bl	free
 130              	.LVL10:
 131              	.L12:
 132              		.loc 1 68 0
 133 0026 637B     		ldrb	r3, [r4, #13]	@ zero_extendqisi2
 134 0028 2846     		mov	r0, r5
 135 002a 13B1     		cbz	r3, .L13
 136              	.LVL11:
 137              		.loc 1 68 0 is_stmt 0 discriminator 1
 138 002c FFF7FEFF 		bl	malloc_sdcard_dma
 139              	.LVL12:
 140 0030 01E0     		b	.L14
 141              	.LVL13:
 142              	.L13:
 143              		.loc 1 68 0 discriminator 2
 144 0032 FFF7FEFF 		bl	malloc_dma
 145              	.LVL14:
 146              	.L14:
 147              		.loc 1 68 0 discriminator 4
 148 0036 2060     		str	r0, [r4]
 149              		.loc 1 70 0 is_stmt 1 discriminator 4
 150 0038 A560     		str	r5, [r4, #8]
 151              	.L11:
 152              		.loc 1 72 0
 153 003a 2368     		ldr	r3, [r4]
 154 003c 3360     		str	r3, [r6]
 155              		.loc 1 77 0
 156 003e 0123     		movs	r3, #1
 157 0040 2373     		strb	r3, [r4, #12]
 158              	.L9:
 159 0042 70BD     		pop	{r4, r5, r6, pc}
 160              	.LVL15:
 161              	.L25:
 162              		.align	2
 163              	.L24:
 164 0044 010000F0 		.word	-268435455
 165              		.cfi_endproc
 166              	.LFE324:
 167              		.size	bouncebuffer_setup_read, .-bouncebuffer_setup_read
 168              		.section	.text.bouncebuffer_finish_read,"ax",%progbits
 169              		.align	1
 170              		.global	bouncebuffer_finish_read
 171              		.thumb
ARM GAS  /tmp/ccazp6NW.s 			page 4


 172              		.thumb_func
 173              		.type	bouncebuffer_finish_read, %function
 174              	bouncebuffer_finish_read:
 175              	.LFB325:
 176              		.loc 1 84 0
 177              		.cfi_startproc
 178              		@ args = 0, pretend = 0, frame = 0
 179              		@ frame_needed = 0, uses_anonymous_args = 0
 180              	.LVL16:
 181 0000 38B5     		push	{r3, r4, r5, lr}
 182              		.cfi_def_cfa_offset 16
 183              		.cfi_offset 3, -16
 184              		.cfi_offset 4, -12
 185              		.cfi_offset 5, -8
 186              		.cfi_offset 14, -4
 187              		.loc 1 85 0
 188 0002 0446     		mov	r4, r0
 189 0004 40B1     		cbz	r0, .L26
 190              		.loc 1 85 0 is_stmt 0 discriminator 1
 191 0006 0368     		ldr	r3, [r0]
 192 0008 9942     		cmp	r1, r3
 193 000a 05D1     		bne	.L26
 194              		.loc 1 87 0 is_stmt 1
 195 000c 4068     		ldr	r0, [r0, #4]
 196              	.LVL17:
 197 000e 08B1     		cbz	r0, .L28
 198              		.loc 1 88 0
 199 0010 FFF7FEFF 		bl	memcpy
 200              	.LVL18:
 201              	.L28:
 202              		.loc 1 90 0
 203 0014 0023     		movs	r3, #0
 204 0016 2373     		strb	r3, [r4, #12]
 205              	.L26:
 206 0018 38BD     		pop	{r3, r4, r5, pc}
 207              		.cfi_endproc
 208              	.LFE325:
 209              		.size	bouncebuffer_finish_read, .-bouncebuffer_finish_read
 210              		.section	.text.bouncebuffer_setup_write,"ax",%progbits
 211              		.align	1
 212              		.global	bouncebuffer_setup_write
 213              		.thumb
 214              		.thumb_func
 215              		.type	bouncebuffer_setup_write, %function
 216              	bouncebuffer_setup_write:
 217              	.LFB326:
 218              		.loc 1 99 0
 219              		.cfi_startproc
 220              		@ args = 0, pretend = 0, frame = 0
 221              		@ frame_needed = 0, uses_anonymous_args = 0
 222              	.LVL19:
 223 0000 70B5     		push	{r4, r5, r6, lr}
 224              		.cfi_def_cfa_offset 16
 225              		.cfi_offset 4, -16
 226              		.cfi_offset 5, -12
 227              		.cfi_offset 6, -8
 228              		.cfi_offset 14, -4
ARM GAS  /tmp/ccazp6NW.s 			page 5


 229              		.loc 1 99 0
 230 0002 0E46     		mov	r6, r1
 231 0004 1546     		mov	r5, r2
 232              		.loc 1 100 0
 233 0006 0446     		mov	r4, r0
 234 0008 00B3     		cbz	r0, .L35
 235              		.loc 1 100 0 is_stmt 0 discriminator 1
 236 000a 0A68     		ldr	r2, [r1]
 237              	.LVL20:
 238 000c 104B     		ldr	r3, .L54
 239 000e 1340     		ands	r3, r3, r2
 240 0010 B3F1005F 		cmp	r3, #536870912
 241 0014 1AD0     		beq	.L35
 242              		.loc 1 105 0 is_stmt 1
 243 0016 8368     		ldr	r3, [r0, #8]
 244 0018 AB42     		cmp	r3, r5
 245 001a 0DD2     		bcs	.L37
 246              		.loc 1 106 0
 247 001c 13B1     		cbz	r3, .L38
 248              		.loc 1 107 0
 249 001e 0068     		ldr	r0, [r0]
 250              	.LVL21:
 251 0020 FFF7FEFF 		bl	free
 252              	.LVL22:
 253              	.L38:
 254              		.loc 1 109 0
 255 0024 637B     		ldrb	r3, [r4, #13]	@ zero_extendqisi2
 256 0026 2846     		mov	r0, r5
 257 0028 13B1     		cbz	r3, .L39
 258              	.LVL23:
 259              		.loc 1 109 0 is_stmt 0 discriminator 1
 260 002a FFF7FEFF 		bl	malloc_sdcard_dma
 261              	.LVL24:
 262 002e 01E0     		b	.L40
 263              	.LVL25:
 264              	.L39:
 265              		.loc 1 109 0 discriminator 2
 266 0030 FFF7FEFF 		bl	malloc_dma
 267              	.LVL26:
 268              	.L40:
 269              		.loc 1 109 0 discriminator 4
 270 0034 2060     		str	r0, [r4]
 271              		.loc 1 111 0 is_stmt 1 discriminator 4
 272 0036 A560     		str	r5, [r4, #8]
 273              	.L37:
 274              		.loc 1 113 0
 275 0038 3168     		ldr	r1, [r6]
 276 003a 19B1     		cbz	r1, .L41
 277              		.loc 1 114 0
 278 003c 2068     		ldr	r0, [r4]
 279 003e 2A46     		mov	r2, r5
 280 0040 FFF7FEFF 		bl	memcpy
 281              	.LVL27:
 282              	.L41:
 283              		.loc 1 116 0
 284 0044 2368     		ldr	r3, [r4]
 285 0046 3360     		str	r3, [r6]
ARM GAS  /tmp/ccazp6NW.s 			page 6


 286              		.loc 1 121 0
 287 0048 0123     		movs	r3, #1
 288 004a 2373     		strb	r3, [r4, #12]
 289              	.L35:
 290 004c 70BD     		pop	{r4, r5, r6, pc}
 291              	.LVL28:
 292              	.L55:
 293 004e 00BF     		.align	2
 294              	.L54:
 295 0050 010000F0 		.word	-268435455
 296              		.cfi_endproc
 297              	.LFE326:
 298              		.size	bouncebuffer_setup_write, .-bouncebuffer_setup_write
 299              		.section	.text.bouncebuffer_finish_write,"ax",%progbits
 300              		.align	1
 301              		.global	bouncebuffer_finish_write
 302              		.thumb
 303              		.thumb_func
 304              		.type	bouncebuffer_finish_write, %function
 305              	bouncebuffer_finish_write:
 306              	.LFB327:
 307              		.loc 1 129 0
 308              		.cfi_startproc
 309              		@ args = 0, pretend = 0, frame = 0
 310              		@ frame_needed = 0, uses_anonymous_args = 0
 311              		@ link register save eliminated.
 312              	.LVL29:
 313              		.loc 1 130 0
 314 0000 20B1     		cbz	r0, .L56
 315              		.loc 1 130 0 is_stmt 0 discriminator 1
 316 0002 0368     		ldr	r3, [r0]
 317 0004 9942     		cmp	r1, r3
 318              		.loc 1 132 0 is_stmt 1 discriminator 1
 319 0006 04BF     		itt	eq
 320 0008 0023     		moveq	r3, #0
 321 000a 0373     		strbeq	r3, [r0, #12]
 322              	.L56:
 323 000c 7047     		bx	lr
 324              		.cfi_endproc
 325              	.LFE327:
 326              		.size	bouncebuffer_finish_write, .-bouncebuffer_finish_write
 327              		.text
 328              	.Letext0:
 329              		.file 2 "/usr/lib/gcc/arm-none-eabi/4.9.3/include/stddef.h"
 330              		.file 3 "/usr/include/newlib/machine/_default_types.h"
 331              		.file 4 "/usr/include/newlib/sys/_stdint.h"
 332              		.file 5 "../../modules/ChibiOS/os/common/ports/ARMCMx/compilers/GCC/chtypes.h"
 333              		.file 6 "../../modules/ChibiOS/os/rt/include/chsystypes.h"
 334              		.file 7 "../../modules/ChibiOS/os/rt/include/chschd.h"
 335              		.file 8 "../../modules/ChibiOS/os/rt/include/chtime.h"
 336              		.file 9 "../../modules/ChibiOS/os/common/ports/ARMCMx/chcore.h"
 337              		.file 10 "../../modules/ChibiOS/os/common/ports/ARMCMx/chcore_v7m.h"
 338              		.file 11 "../../modules/ChibiOS/os/rt/include/chtm.h"
 339              		.file 12 "../../modules/ChibiOS/os/rt/include/chstats.h"
 340              		.file 13 "../../modules/ChibiOS/os/rt/include/chsem.h"
 341              		.file 14 "../../modules/ChibiOS/os/rt/include/chmtx.h"
 342              		.file 15 "../../libraries/AP_HAL_ChibiOS/hwdef/common/bouncebuffer.h"
ARM GAS  /tmp/ccazp6NW.s 			page 7


 343              		.file 16 "../../libraries/AP_HAL_ChibiOS/hwdef/common/stdio.h"
 344              		.file 17 "../../libraries/AP_HAL_ChibiOS/hwdef/common/stm32_util.h"
 345              		.file 18 "../../modules/ChibiOS/os/common/ext/ARM/CMSIS/Core/Include/core_cm4.h"