ARM GAS  /tmp/ccUbWPqb.s 			page 1


   1              		.syntax unified
   2              		.cpu cortex-m4
   3              		.eabi_attribute 27, 1
   4              		.eabi_attribute 28, 1
   5              		.fpu fpv4-sp-d16
   6              		.eabi_attribute 20, 1
   7              		.eabi_attribute 21, 1
   8              		.eabi_attribute 23, 3
   9              		.eabi_attribute 24, 1
  10              		.eabi_attribute 25, 1
  11              		.eabi_attribute 26, 1
  12              		.eabi_attribute 30, 6
  13              		.eabi_attribute 34, 1
  14              		.eabi_attribute 18, 4
  15              		.thumb
  16              		.file	"ch.cpp"
  17              		.text
  18              	.Ltext0:
  19              		.cfi_sections	.debug_frame
  20              		.section	.text._ZL19chSysGetIdleThreadXv,"ax",%progbits
  21              		.align	2
  22              		.p2align 4,,15
  23              		.thumb
  24              		.thumb_func
  25              		.type	_ZL19chSysGetIdleThreadXv, %function
  26              	_ZL19chSysGetIdleThreadXv:
  27              		.fnstart
  28              	.LFB190:
  29              		.file 1 "../../modules/ChibiOS/os/rt/include/chsys.h"
  30              		.loc 1 461 0
  31              		.cfi_startproc
  32              		@ args = 0, pretend = 0, frame = 0
  33              		@ frame_needed = 0, uses_anonymous_args = 0
  34              		@ link register save eliminated.
  35              		.loc 1 463 0
  36 0000 014B     		ldr	r3, .L3
  37 0002 5B68     		ldr	r3, [r3, #4]
  38              		.loc 1 464 0
  39 0004 1846     		mov	r0, r3
  40 0006 7047     		bx	lr
  41              	.L4:
  42              		.align	2
  43              	.L3:
  44 0008 00000000 		.word	ch
  45              		.cfi_endproc
  46              	.LFE190:
  47              		.cantunwind
  48              		.fnend
  49              		.size	_ZL19chSysGetIdleThreadXv, .-_ZL19chSysGetIdleThreadXv
  50              		.section	.text._ZN10chibios_rt15ThreadReferenceC2EP9ch_thread,"axG",%progbits,_ZN10chibios_rt15Thr
  51              		.align	2
  52              		.p2align 4,,15
  53              		.weak	_ZN10chibios_rt15ThreadReferenceC2EP9ch_thread
  54              		.thumb
  55              		.thumb_func
  56              		.type	_ZN10chibios_rt15ThreadReferenceC2EP9ch_thread, %function
  57              	_ZN10chibios_rt15ThreadReferenceC2EP9ch_thread:
ARM GAS  /tmp/ccUbWPqb.s 			page 2


  58              		.fnstart
  59              	.LFB329:
  60              		.file 2 "../../modules/ChibiOS/os/various/cpp_wrappers/ch.hpp"
  61              		.loc 2 622 0
  62              		.cfi_startproc
  63              		@ args = 0, pretend = 0, frame = 8
  64              		@ frame_needed = 0, uses_anonymous_args = 0
  65              		@ link register save eliminated.
  66 0000 82B0     		sub	sp, sp, #8
  67              		.cfi_def_cfa_offset 8
  68 0002 0190     		str	r0, [sp, #4]
  69 0004 0091     		str	r1, [sp]
  70              	.LBB2:
  71              		.loc 2 622 0
  72 0006 019B     		ldr	r3, [sp, #4]
  73 0008 009A     		ldr	r2, [sp]
  74 000a 1A60     		str	r2, [r3]
  75              	.LBE2:
  76              		.loc 2 624 0
  77 000c 019B     		ldr	r3, [sp, #4]
  78 000e 1846     		mov	r0, r3
  79 0010 02B0     		add	sp, sp, #8
  80              		.cfi_def_cfa_offset 0
  81              		@ sp needed
  82 0012 7047     		bx	lr
  83              		.cfi_endproc
  84              	.LFE329:
  85              		.cantunwind
  86              		.fnend
  87              		.size	_ZN10chibios_rt15ThreadReferenceC2EP9ch_thread, .-_ZN10chibios_rt15ThreadReferenceC2EP9ch_th
  88              		.weak	_ZN10chibios_rt15ThreadReferenceC1EP9ch_thread
  89              		.thumb_set _ZN10chibios_rt15ThreadReferenceC1EP9ch_thread,_ZN10chibios_rt15ThreadReferenceC2EP9ch_
  90              		.section	.text._ZN10chibios_rt6System14getIdleThreadXEv,"ax",%progbits
  91              		.align	2
  92              		.p2align 4,,15
  93              		.global	_ZN10chibios_rt6System14getIdleThreadXEv
  94              		.thumb
  95              		.thumb_func
  96              		.type	_ZN10chibios_rt6System14getIdleThreadXEv, %function
  97              	_ZN10chibios_rt6System14getIdleThreadXEv:
  98              		.fnstart
  99              	.LFB486:
 100              		.file 3 "../../modules/ChibiOS/os/various/cpp_wrappers/ch.cpp"
 101              		.loc 3 29 0
 102              		.cfi_startproc
 103              		@ args = 0, pretend = 0, frame = 8
 104              		@ frame_needed = 0, uses_anonymous_args = 0
 105 0000 00B5     		push	{lr}
 106              		.cfi_def_cfa_offset 4
 107              		.cfi_offset 14, -4
 108 0002 83B0     		sub	sp, sp, #12
 109              		.cfi_def_cfa_offset 16
 110              		.loc 3 31 0
 111 0004 FFF7FEFF 		bl	_ZL19chSysGetIdleThreadXv
 112 0008 0246     		mov	r2, r0
 113 000a 01AB     		add	r3, sp, #4
 114 000c 1846     		mov	r0, r3
ARM GAS  /tmp/ccUbWPqb.s 			page 3


 115 000e 1146     		mov	r1, r2
 116 0010 FFF7FEFF 		bl	_ZN10chibios_rt15ThreadReferenceC1EP9ch_thread
 117 0014 019B     		ldr	r3, [sp, #4]
 118              		.loc 3 32 0
 119 0016 1846     		mov	r0, r3
 120 0018 03B0     		add	sp, sp, #12
 121              		.cfi_def_cfa_offset 4
 122              		@ sp needed
 123 001a 5DF804FB 		ldr	pc, [sp], #4
 124              		.cfi_endproc
 125              	.LFE486:
 126              		.cantunwind
 127              		.fnend
 128              		.size	_ZN10chibios_rt6System14getIdleThreadXEv, .-_ZN10chibios_rt6System14getIdleThreadXEv
 129 001e 00BF     		.section	.text._ZN10chibios_rt10_thd_startEPv,"ax",%progbits
 130              		.align	2
 131              		.p2align 4,,15
 132              		.global	_ZN10chibios_rt10_thd_startEPv
 133              		.thumb
 134              		.thumb_func
 135              		.type	_ZN10chibios_rt10_thd_startEPv, %function
 136              	_ZN10chibios_rt10_thd_startEPv:
 137              		.fnstart
 138              	.LFB487:
 139              		.loc 3 39 0
 140              		.cfi_startproc
 141              		@ args = 0, pretend = 0, frame = 8
 142              		@ frame_needed = 0, uses_anonymous_args = 0
 143 0000 00B5     		push	{lr}
 144              		.save {lr}
 145              		.cfi_def_cfa_offset 4
 146              		.cfi_offset 14, -4
 147              		.pad #12
 148 0002 83B0     		sub	sp, sp, #12
 149              		.cfi_def_cfa_offset 16
 150 0004 0190     		str	r0, [sp, #4]
 151              		.loc 3 41 0
 152 0006 019B     		ldr	r3, [sp, #4]
 153 0008 1B68     		ldr	r3, [r3]
 154 000a 1B68     		ldr	r3, [r3]
 155 000c 0198     		ldr	r0, [sp, #4]
 156 000e 9847     		blx	r3
 157              		.loc 3 42 0
 158 0010 03B0     		add	sp, sp, #12
 159              		.cfi_def_cfa_offset 4
 160              		@ sp needed
 161 0012 5DF804FB 		ldr	pc, [sp], #4
 162              		.cfi_endproc
 163              	.LFE487:
 164              		.fnend
 165              		.size	_ZN10chibios_rt10_thd_startEPv, .-_ZN10chibios_rt10_thd_startEPv
 166 0016 00BF     		.text
 167              	.Letext0:
 168              		.file 4 "/usr/include/newlib/machine/_default_types.h"
 169              		.file 5 "/usr/include/newlib/sys/_stdint.h"
 170              		.file 6 "../../modules/ChibiOS/os/common/ports/ARMCMx/compilers/GCC/chtypes.h"
 171              		.file 7 "../../modules/ChibiOS/os/rt/include/chsystypes.h"
ARM GAS  /tmp/ccUbWPqb.s 			page 4


 172              		.file 8 "../../modules/ChibiOS/os/rt/include/chschd.h"
 173              		.file 9 "../../modules/ChibiOS/os/rt/include/chtime.h"
 174              		.file 10 "../../modules/ChibiOS/os/common/ports/ARMCMx/chcore.h"
 175              		.file 11 "../../modules/ChibiOS/os/common/ports/ARMCMx/chcore_v7m.h"
 176              		.file 12 "../../modules/ChibiOS/os/rt/include/chtm.h"
 177              		.file 13 "../../modules/ChibiOS/os/rt/include/chstats.h"
 178              		.file 14 "../../modules/ChibiOS/os/rt/include/chsem.h"
 179              		.file 15 "../../modules/ChibiOS/os/rt/include/chmtx.h"
 180              		.file 16 "../../modules/ChibiOS/os/rt/include/chevents.h"
 181              		.file 17 "../../modules/ChibiOS/os/common/ext/ARM/CMSIS/Core/Include/core_cm4.h"