ARM GAS  /tmp/ccUbWPqb.s 			page 1


   1              		.syntax unified
   2              		.cpu cortex-m4
   3              		.eabi_attribute 27, 1
   4              		.eabi_attribute 28, 1
   5              		.fpu fpv4-sp-d16
   6              		.eabi_attribute 20, 1
   7              		.eabi_attribute 21, 1
   8              		.eabi_attribute 23, 3
   9              		.eabi_attribute 24, 1
  10              		.eabi_attribute 25, 1
  11              		.eabi_attribute 26, 1
  12              		.eabi_attribute 30, 6
  13              		.eabi_attribute 34, 1
  14              		.eabi_attribute 18, 4
  15              		.thumb
  16              		.file	"ch.cpp"
  17              		.text
  18              	.Ltext0:
  19              		.cfi_sections	.debug_frame
  20              		.section	.text._ZL19chSysGetIdleThreadXv,"ax",%progbits
  21              		.align	2
  22              		.p2align 4,,15
  23              		.thumb
  24              		.thumb_func
  25              		.type	_ZL19chSysGetIdleThreadXv, %function
  26              	_ZL19chSysGetIdleThreadXv:
  27              		.fnstart
  28              	.LFB190:
  29              		.file 1 "../../modules/ChibiOS/os/rt/include/chsys.h"
  30              		.loc 1 461 0
  31              		.cfi_startproc
  32              		@ args = 0, pretend = 0, frame = 0
  33              		@ frame_needed = 0, uses_anonymous_args = 0
  34              		@ link register save eliminated.
  35              		.loc 1 463 0
  36 0000 014B     		ldr	r3, .L3
  37 0002 5B68     		ldr	r3, [r3, #4]
  38              		.loc 1 464 0
  39 0004 1846     		mov	r0, r3
  40 0006 7047     		bx	lr
  41              	.L4:
  42              		.align	2
  43              	.L3:
  44 0008 00000000 		.word	ch
  45              		.cfi_endproc
  46              	.LFE190:
  47              		.cantunwind
  48              		.fnend
  49              		.size	_ZL19chSysGetIdleThreadXv, .-_ZL19chSysGetIdleThreadXv
  50              		.section	.text._ZN10chibios_rt15ThreadReferenceC2EP9ch_thread,"axG",%progbits,_ZN10chibios_rt15Thr
  51              		.align	2
  52              		.p2align 4,,15
  53              		.weak	_ZN10chibios_rt15ThreadReferenceC2EP9ch_thread
  54              		.thumb
  55              		.thumb_func
  56              		.type	_ZN10chibios_rt15ThreadReferenceC2EP9ch_thread, %function
  57              	_ZN10chibios_rt15ThreadReferenceC2EP9ch_thread:
ARM GAS  /tmp/ccUbWPqb.s 			page 2


  58              		.fnstart
  59              	.LFB329:
  60              		.file 2 "../../modules/ChibiOS/os/various/cpp_wrappers/ch.hpp"
  61              		.loc 2 622 0
  62              		.cfi_startproc
  63              		@ args = 0, pretend = 0, frame = 8
  64              		@ frame_needed = 0, uses_anonymous_args = 0
  65              		@ link register save eliminated.
  66 0000 82B0     		sub	sp, sp, #8
  67              		.cfi_def_cfa_offset 8
  68 0002 0190     		str	r0, [sp, #4]
  69 0004 0091     		str	r1, [sp]
  70              	.LBB2:
  71              		.loc 2 622 0
  72 0006 019B     		ldr	r3, [sp, #4]
  73 0008 009A     		ldr	r2, [sp]
  74 000a 1A60     		str	r2, [r3]
  75              	.LBE2:
  76              		.loc 2 624 0
  77 000c 019B     		ldr	r3, [sp, #4]
  78 000e 1846     		mov	r0, r3
  79 0010 02B0     		add	sp, sp, #8
  80              		.cfi_def_cfa_offset 0
  81              		@ sp needed
  82 0012 7047     		bx	lr
  83              		.cfi_endproc
  84              	.LFE329:
  85              		.cantunwind
  86              		.fnend
  87              		.size	_ZN10chibios_rt15ThreadReferenceC2EP9ch_thread, .-_ZN10chibios_rt15ThreadReferenceC2EP9ch_th
  88              		.weak	_ZN10chibios_rt15ThreadReferenceC1EP9ch_thread
  89              		.thumb_set _ZN10chibios_rt15ThreadReferenceC1EP9ch_thread,_ZN10chibios_rt15ThreadReferenceC2EP9ch_
  90              		.section	.text._ZN10chibios_rt6System14getIdleThreadXEv,"ax",%progbits
  91              		.align	2
  92              		.p2align 4,,15
  93              		.global	_ZN10chibios_rt6System14getIdleThreadXEv
  94              		.thumb
  95              		.thumb_func
  96              		.type	_ZN10chibios_rt6System14getIdleThreadXEv, %function
  97              	_ZN10chibios_rt6System14getIdleThreadXEv:
  98              		.fnstart
  99              	.LFB486:
 100              		.file 3 "../../modules/ChibiOS/os/various/cpp_wrappers/ch.cpp"
 101              		.loc 3 29 0
 102              		.cfi_startproc
 103              		@ args = 0, pretend = 0, frame = 8
 104              		@ frame_needed = 0, uses_anonymous_args = 0
 105 0000 00B5     		push	{lr}
 106              		.cfi_def_cfa_offset 4
 107              		.cfi_offset 14, -4
 108 0002 83B0     		sub	sp, sp, #12
 109              		.cfi_def_cfa_offset 16
 110              		.loc 3 31 0
 111 0004 FFF7FEFF 		bl	_ZL19chSysGetIdleThreadXv
 112 0008 0246     		mov	r2, r0
 113 000a 01AB     		add	r3, sp, #4
 114 000c 1846     		mov	r0, r3
ARM GAS  /tmp/ccUbWPqb.s 			page 3


 115 000e 1146     		mov	r1, r2
 116 0010 FFF7FEFF 		bl	_ZN10chibios_rt15ThreadReferenceC1EP9ch_thread
 117 0014 019B     		ldr	r3, [sp, #4]
 118              		.loc 3 32 0
 119 0016 1846     		mov	r0, r3
 120 0018 03B0     		add	sp, sp, #12
 121              		.cfi_def_cfa_offset 4
 122              		@ sp needed
 123 001a 5DF804FB 		ldr	pc, [sp], #4
 124              		.cfi_endproc
 125              	.LFE486:
 126              		.cantunwind
 127              		.fnend
 128              		.size	_ZN10chibios_rt6System14getIdleThreadXEv, .-_ZN10chibios_rt6System14getIdleThreadXEv
 129 001e 00BF     		.section	.text._ZN10chibios_rt10_thd_startEPv,"ax",%progbits
 130              		.align	2
 131              		.p2align 4,,15
 132              		.global	_ZN10chibios_rt10_thd_startEPv
 133              		.thumb
 134              		.thumb_func
 135              		.type	_ZN10chibios_rt10_thd_startEPv, %function
 136              	_ZN10chibios_rt10_thd_startEPv:
 137              		.fnstart
 138              	.LFB487:
 139              		.loc 3 39 0
 140              		.cfi_startproc
 141              		@ args = 0, pretend = 0, frame = 8
 142              		@ frame_needed = 0, uses_anonymous_args = 0
 143 0000 00B5     		push	{lr}
 144              		.save {lr}
 145              		.cfi_def_cfa_offset 4
 146              		.cfi_offset 14, -4
 147              		.pad #12
 148 0002 83B0     		sub	sp, sp, #12
 149              		.cfi_def_cfa_offset 16
 150 0004 0190     		str	r0, [sp, #4]
 151              		.loc 3 41 0
 152 0006 019B     		ldr	r3, [sp, #4]
 153 0008 1B68     		ldr	r3, [r3]
 154 000a 1B68     		ldr	r3, [r3]
 155 000c 0198     		ldr	r0, [sp, #4]
 156 000e 9847     		blx	r3
 157              		.loc 3 42 0
 158 0010 03B0     		add	sp, sp, #12
 159              		.cfi_def_cfa_offset 4
 160              		@ sp needed
 161 0012 5DF804FB 		ldr	pc, [sp], #4
 162              		.cfi_endproc
 163              	.LFE487:
 164              		.fnend
 165              		.size	_ZN10chibios_rt10_thd_startEPv, .-_ZN10chibios_rt10_thd_startEPv
 166 0016 00BF     		.text
 167              	.Letext0:
 168              		.file 4 "/usr/include/newlib/machine/_default_types.h"
 169              		.file 5 "/usr/include/newlib/sys/_stdint.h"
 170              		.file 6 "../../modules/ChibiOS/os/common/ports/ARMCMx/compilers/GCC/chtypes.h"
 171              		.file 7 "../../modules/ChibiOS/os/rt/include/chsystypes.h"
ARM GAS  /tmp/ccUbWPqb.s 			page 4


 172              		.file 8 "../../modules/ChibiOS/os/rt/include/chschd.h"
 173              		.file 9 "../../modules/ChibiOS/os/rt/include/chtime.h"
 174              		.file 10 "../../modules/ChibiOS/os/common/ports/ARMCMx/chcore.h"
 175              		.file 11 "../../modules/ChibiOS/os/common/ports/ARMCMx/chcore_v7m.h"
 176              		.file 12 "../../modules/ChibiOS/os/rt/include/chtm.h"
 177              		.file 13 "../../modules/ChibiOS/os/rt/include/chstats.h"
 178              		.file 14 "../../modules/ChibiOS/os/rt/include/chsem.h"
 179              		.file 15 "../../modules/ChibiOS/os/rt/include/chmtx.h"
 180              		.file 16 "../../modules/ChibiOS/os/rt/include/chevents.h"
 181              		.file 17 "../../modules/ChibiOS/os/common/ext/ARM/CMSIS/Core/Include/core_cm4.h"
 182              		.section	.debug_info,"",%progbits
 183              	.Ldebug_info0:
 184 0000 320F0000 		.4byte	0xf32
 185 0004 0400     		.2byte	0x4
 186 0006 00000000 		.4byte	.Ldebug_abbrev0
 187 000a 04       		.byte	0x4
 188 000b 01       		.uleb128 0x1
 189 000c 25040000 		.4byte	.LASF226
 190 0010 04       		.byte	0x4
 191 0011 EB030000 		.4byte	.LASF227
 192 0015 35070000 		.4byte	.LASF228
 193 0019 00000000 		.4byte	.Ldebug_ranges0+0
 194 001d 00000000 		.4byte	0
 195 0021 00000000 		.4byte	.Ldebug_line0
 196 0025 02       		.uleb128 0x2
 197 0026 04       		.byte	0x4
 198 0027 05       		.byte	0x5
 199 0028 696E7400 		.ascii	"int\000"
 200 002c 03       		.uleb128 0x3
 201 002d 04       		.byte	0x4
 202 002e 07       		.byte	0x7
 203 002f 600B0000 		.4byte	.LASF0
 204 0033 03       		.uleb128 0x3
 205 0034 08       		.byte	0x8
 206 0035 05       		.byte	0x5
 207 0036 79090000 		.4byte	.LASF1
 208 003a 03       		.uleb128 0x3
 209 003b 08       		.byte	0x8
 210 003c 04       		.byte	0x4
 211 003d B70C0000 		.4byte	.LASF2
 212 0041 04       		.uleb128 0x4
 213 0042 DA050000 		.4byte	.LASF229
 214 0046 03       		.uleb128 0x3
 215 0047 01       		.byte	0x1
 216 0048 06       		.byte	0x6
 217 0049 C6020000 		.4byte	.LASF3
 218 004d 05       		.uleb128 0x5
 219 004e 62010000 		.4byte	.LASF7
 220 0052 04       		.byte	0x4
 221 0053 1D       		.byte	0x1d
 222 0054 58000000 		.4byte	0x58
 223 0058 03       		.uleb128 0x3
 224 0059 01       		.byte	0x1
 225 005a 08       		.byte	0x8
 226 005b 42030000 		.4byte	.LASF4
 227 005f 03       		.uleb128 0x3
 228 0060 02       		.byte	0x2
ARM GAS  /tmp/ccUbWPqb.s 			page 5


 229 0061 05       		.byte	0x5
 230 0062 28100000 		.4byte	.LASF5
 231 0066 03       		.uleb128 0x3
 232 0067 02       		.byte	0x2
 233 0068 07       		.byte	0x7
 234 0069 12120000 		.4byte	.LASF6
 235 006d 05       		.uleb128 0x5
 236 006e 98120000 		.4byte	.LASF8
 237 0072 04       		.byte	0x4
 238 0073 3F       		.byte	0x3f
 239 0074 78000000 		.4byte	0x78
 240 0078 03       		.uleb128 0x3
 241 0079 04       		.byte	0x4
 242 007a 05       		.byte	0x5
 243 007b 72010000 		.4byte	.LASF9
 244 007f 05       		.uleb128 0x5
 245 0080 66090000 		.4byte	.LASF10
 246 0084 04       		.byte	0x4
 247 0085 41       		.byte	0x41
 248 0086 8A000000 		.4byte	0x8a
 249 008a 03       		.uleb128 0x3
 250 008b 04       		.byte	0x4
 251 008c 07       		.byte	0x7
 252 008d BF070000 		.4byte	.LASF11
 253 0091 05       		.uleb128 0x5
 254 0092 B4070000 		.4byte	.LASF12
 255 0096 04       		.byte	0x4
 256 0097 5B       		.byte	0x5b
 257 0098 9C000000 		.4byte	0x9c
 258 009c 03       		.uleb128 0x3
 259 009d 08       		.byte	0x8
 260 009e 07       		.byte	0x7
 261 009f D00D0000 		.4byte	.LASF13
 262 00a3 05       		.uleb128 0x5
 263 00a4 D9020000 		.4byte	.LASF14
 264 00a8 05       		.byte	0x5
 265 00a9 14       		.byte	0x14
 266 00aa 4D000000 		.4byte	0x4d
 267 00ae 05       		.uleb128 0x5
 268 00af 5C000000 		.4byte	.LASF15
 269 00b3 05       		.byte	0x5
 270 00b4 1F       		.byte	0x1f
 271 00b5 6D000000 		.4byte	0x6d
 272 00b9 05       		.uleb128 0x5
 273 00ba 8F110000 		.4byte	.LASF16
 274 00be 05       		.byte	0x5
 275 00bf 20       		.byte	0x20
 276 00c0 7F000000 		.4byte	0x7f
 277 00c4 05       		.uleb128 0x5
 278 00c5 32100000 		.4byte	.LASF17
 279 00c9 05       		.byte	0x5
 280 00ca 26       		.byte	0x26
 281 00cb 91000000 		.4byte	0x91
 282 00cf 05       		.uleb128 0x5
 283 00d0 6D0B0000 		.4byte	.LASF18
 284 00d4 06       		.byte	0x6
 285 00d5 27       		.byte	0x27
ARM GAS  /tmp/ccUbWPqb.s 			page 6


 286 00d6 B9000000 		.4byte	0xb9
 287 00da 05       		.uleb128 0x5
 288 00db 14020000 		.4byte	.LASF19
 289 00df 06       		.byte	0x6
 290 00e0 28       		.byte	0x28
 291 00e1 C4000000 		.4byte	0xc4
 292 00e5 05       		.uleb128 0x5
 293 00e6 95030000 		.4byte	.LASF20
 294 00ea 06       		.byte	0x6
 295 00eb 29       		.byte	0x29
 296 00ec B9000000 		.4byte	0xb9
 297 00f0 05       		.uleb128 0x5
 298 00f1 A10F0000 		.4byte	.LASF21
 299 00f5 06       		.byte	0x6
 300 00f6 2A       		.byte	0x2a
 301 00f7 A3000000 		.4byte	0xa3
 302 00fb 05       		.uleb128 0x5
 303 00fc 0B020000 		.4byte	.LASF22
 304 0100 06       		.byte	0x6
 305 0101 2B       		.byte	0x2b
 306 0102 A3000000 		.4byte	0xa3
 307 0106 05       		.uleb128 0x5
 308 0107 27110000 		.4byte	.LASF23
 309 010b 06       		.byte	0x6
 310 010c 2C       		.byte	0x2c
 311 010d A3000000 		.4byte	0xa3
 312 0111 05       		.uleb128 0x5
 313 0112 54000000 		.4byte	.LASF24
 314 0116 06       		.byte	0x6
 315 0117 2E       		.byte	0x2e
 316 0118 B9000000 		.4byte	0xb9
 317 011c 05       		.uleb128 0x5
 318 011d F30D0000 		.4byte	.LASF25
 319 0121 06       		.byte	0x6
 320 0122 2F       		.byte	0x2f
 321 0123 AE000000 		.4byte	0xae
 322 0127 05       		.uleb128 0x5
 323 0128 930E0000 		.4byte	.LASF26
 324 012c 06       		.byte	0x6
 325 012d 30       		.byte	0x30
 326 012e AE000000 		.4byte	0xae
 327 0132 05       		.uleb128 0x5
 328 0133 04030000 		.4byte	.LASF27
 329 0137 06       		.byte	0x6
 330 0138 31       		.byte	0x31
 331 0139 B9000000 		.4byte	0xb9
 332 013d 05       		.uleb128 0x5
 333 013e B7060000 		.4byte	.LASF28
 334 0142 06       		.byte	0x6
 335 0143 33       		.byte	0x33
 336 0144 AE000000 		.4byte	0xae
 337 0148 05       		.uleb128 0x5
 338 0149 0A090000 		.4byte	.LASF29
 339 014d 06       		.byte	0x6
 340 014e 34       		.byte	0x34
 341 014f B9000000 		.4byte	0xb9
 342 0153 05       		.uleb128 0x5
ARM GAS  /tmp/ccUbWPqb.s 			page 7


 343 0154 AE0C0000 		.4byte	.LASF30
 344 0158 07       		.byte	0x7
 345 0159 34       		.byte	0x34
 346 015a 5E010000 		.4byte	0x15e
 347 015e 06       		.uleb128 0x6
 348 015f 02080000 		.4byte	.LASF57
 349 0163 60       		.byte	0x60
 350 0164 08       		.byte	0x8
 351 0165 8E       		.byte	0x8e
 352 0166 AB020000 		.4byte	0x2ab
 353 016a 07       		.uleb128 0x7
 354 016b 04       		.byte	0x4
 355 016c 08       		.byte	0x8
 356 016d C6       		.byte	0xc6
 357 016e CC010000 		.4byte	0x1cc
 358 0172 08       		.uleb128 0x8
 359 0173 0B120000 		.4byte	.LASF31
 360 0177 08       		.byte	0x8
 361 0178 CD       		.byte	0xcd
 362 0179 1C010000 		.4byte	0x11c
 363 017d 08       		.uleb128 0x8
 364 017e 31010000 		.4byte	.LASF32
 365 0182 08       		.byte	0x8
 366 0183 D4       		.byte	0xd4
 367 0184 1C010000 		.4byte	0x11c
 368 0188 08       		.uleb128 0x8
 369 0189 89050000 		.4byte	.LASF33
 370 018d 08       		.byte	0x8
 371 018e DB       		.byte	0xdb
 372 018f 93030000 		.4byte	0x393
 373 0193 08       		.uleb128 0x8
 374 0194 3C030000 		.4byte	.LASF34
 375 0198 08       		.byte	0x8
 376 0199 E2       		.byte	0xe2
 377 019a 23070000 		.4byte	0x723
 378 019e 08       		.uleb128 0x8
 379 019f 1D0D0000 		.4byte	.LASF35
 380 01a3 08       		.byte	0x8
 381 01a4 E7       		.byte	0xe7
 382 01a5 1C010000 		.4byte	0x11c
 383 01a9 08       		.uleb128 0x8
 384 01aa 3D000000 		.4byte	.LASF36
 385 01ae 08       		.byte	0x8
 386 01af F0       		.byte	0xf0
 387 01b0 4E070000 		.4byte	0x74e
 388 01b4 08       		.uleb128 0x8
 389 01b5 2E070000 		.4byte	.LASF37
 390 01b9 08       		.byte	0x8
 391 01ba F9       		.byte	0xf9
 392 01bb 85070000 		.4byte	0x785
 393 01bf 09       		.uleb128 0x9
 394 01c0 D2020000 		.4byte	.LASF38
 395 01c4 08       		.byte	0x8
 396 01c5 0101     		.2byte	0x101
 397 01c7 32010000 		.4byte	0x132
 398 01cb 00       		.byte	0
 399 01cc 0A       		.uleb128 0xa
ARM GAS  /tmp/ccUbWPqb.s 			page 8


 400 01cd A20E0000 		.4byte	.LASF39
 401 01d1 08       		.byte	0x8
 402 01d2 8F       		.byte	0x8f
 403 01d3 E0020000 		.4byte	0x2e0
 404 01d7 00       		.byte	0
 405 01d8 0A       		.uleb128 0xa
 406 01d9 2C010000 		.4byte	.LASF40
 407 01dd 08       		.byte	0x8
 408 01de 90       		.byte	0x90
 409 01df 11010000 		.4byte	0x111
 410 01e3 08       		.byte	0x8
 411 01e4 0B       		.uleb128 0xb
 412 01e5 63747800 		.ascii	"ctx\000"
 413 01e9 08       		.byte	0x8
 414 01ea 91       		.byte	0x91
 415 01eb FB040000 		.4byte	0x4fb
 416 01ef 0C       		.byte	0xc
 417 01f0 0A       		.uleb128 0xa
 418 01f1 89110000 		.4byte	.LASF41
 419 01f5 08       		.byte	0x8
 420 01f6 93       		.byte	0x93
 421 01f7 B6020000 		.4byte	0x2b6
 422 01fb 10       		.byte	0x10
 423 01fc 0A       		.uleb128 0xa
 424 01fd FB080000 		.4byte	.LASF42
 425 0201 08       		.byte	0x8
 426 0202 94       		.byte	0x94
 427 0203 B6020000 		.4byte	0x2b6
 428 0207 14       		.byte	0x14
 429 0208 0A       		.uleb128 0xa
 430 0209 14100000 		.4byte	.LASF43
 431 020d 08       		.byte	0x8
 432 020e 9B       		.byte	0x9b
 433 020f 8B070000 		.4byte	0x78b
 434 0213 18       		.byte	0x18
 435 0214 0A       		.uleb128 0xa
 436 0215 600F0000 		.4byte	.LASF44
 437 0219 08       		.byte	0x8
 438 021a A4       		.byte	0xa4
 439 021b 9D070000 		.4byte	0x79d
 440 021f 1C       		.byte	0x1c
 441 0220 0A       		.uleb128 0xa
 442 0221 CA000000 		.4byte	.LASF45
 443 0225 08       		.byte	0x8
 444 0226 A9       		.byte	0xa9
 445 0227 FB000000 		.4byte	0xfb
 446 022b 20       		.byte	0x20
 447 022c 0A       		.uleb128 0xa
 448 022d D4050000 		.4byte	.LASF46
 449 0231 08       		.byte	0x8
 450 0232 AD       		.byte	0xad
 451 0233 F0000000 		.4byte	0xf0
 452 0237 21       		.byte	0x21
 453 0238 0A       		.uleb128 0xa
 454 0239 9D0E0000 		.4byte	.LASF47
 455 023d 08       		.byte	0x8
 456 023e B2       		.byte	0xb2
ARM GAS  /tmp/ccUbWPqb.s 			page 9


 457 023f 06010000 		.4byte	0x106
 458 0243 22       		.byte	0x22
 459 0244 0C       		.uleb128 0xc
 460 0245 7500     		.ascii	"u\000"
 461 0247 08       		.byte	0x8
 462 0248 0301     		.2byte	0x103
 463 024a 6A010000 		.4byte	0x16a
 464 024e 24       		.byte	0x24
 465 024f 0D       		.uleb128 0xd
 466 0250 0C110000 		.4byte	.LASF48
 467 0254 08       		.byte	0x8
 468 0255 0801     		.2byte	0x108
 469 0257 BC020000 		.4byte	0x2bc
 470 025b 28       		.byte	0x28
 471 025c 0D       		.uleb128 0xd
 472 025d BD100000 		.4byte	.LASF49
 473 0261 08       		.byte	0x8
 474 0262 0E01     		.2byte	0x10e
 475 0264 E0020000 		.4byte	0x2e0
 476 0268 2C       		.byte	0x2c
 477 0269 0D       		.uleb128 0xd
 478 026a A80E0000 		.4byte	.LASF50
 479 026e 08       		.byte	0x8
 480 026f 1401     		.2byte	0x114
 481 0271 32010000 		.4byte	0x132
 482 0275 34       		.byte	0x34
 483 0276 0D       		.uleb128 0xd
 484 0277 71090000 		.4byte	.LASF51
 485 027b 08       		.byte	0x8
 486 027c 1B01     		.2byte	0x11b
 487 027e 85070000 		.4byte	0x785
 488 0282 38       		.byte	0x38
 489 0283 0D       		.uleb128 0xd
 490 0284 01090000 		.4byte	.LASF52
 491 0288 08       		.byte	0x8
 492 0289 1F01     		.2byte	0x11f
 493 028b 11010000 		.4byte	0x111
 494 028f 3C       		.byte	0x3c
 495 0290 0D       		.uleb128 0xd
 496 0291 51060000 		.4byte	.LASF53
 497 0295 08       		.byte	0x8
 498 0296 2601     		.2byte	0x126
 499 0298 93030000 		.4byte	0x393
 500 029c 40       		.byte	0x40
 501 029d 0D       		.uleb128 0xd
 502 029e E4000000 		.4byte	.LASF54
 503 02a2 08       		.byte	0x8
 504 02a3 2C01     		.2byte	0x12c
 505 02a5 D0060000 		.4byte	0x6d0
 506 02a9 48       		.byte	0x48
 507 02aa 00       		.byte	0
 508 02ab 05       		.uleb128 0x5
 509 02ac C30C0000 		.4byte	.LASF55
 510 02b0 07       		.byte	0x7
 511 02b1 39       		.byte	0x39
 512 02b2 B6020000 		.4byte	0x2b6
 513 02b6 0E       		.uleb128 0xe
ARM GAS  /tmp/ccUbWPqb.s 			page 10


 514 02b7 04       		.byte	0x4
 515 02b8 53010000 		.4byte	0x153
 516 02bc 05       		.uleb128 0x5
 517 02bd 3C110000 		.4byte	.LASF56
 518 02c1 07       		.byte	0x7
 519 02c2 3E       		.byte	0x3e
 520 02c3 C7020000 		.4byte	0x2c7
 521 02c7 06       		.uleb128 0x6
 522 02c8 24090000 		.4byte	.LASF58
 523 02cc 04       		.byte	0x4
 524 02cd 08       		.byte	0x8
 525 02ce 7C       		.byte	0x7c
 526 02cf E0020000 		.4byte	0x2e0
 527 02d3 0A       		.uleb128 0xa
 528 02d4 DC120000 		.4byte	.LASF59
 529 02d8 08       		.byte	0x8
 530 02d9 7D       		.byte	0x7d
 531 02da B6020000 		.4byte	0x2b6
 532 02de 00       		.byte	0
 533 02df 00       		.byte	0
 534 02e0 05       		.uleb128 0x5
 535 02e1 22020000 		.4byte	.LASF60
 536 02e5 07       		.byte	0x7
 537 02e6 45       		.byte	0x45
 538 02e7 EB020000 		.4byte	0x2eb
 539 02eb 06       		.uleb128 0x6
 540 02ec 080E0000 		.4byte	.LASF61
 541 02f0 08       		.byte	0x8
 542 02f1 08       		.byte	0x8
 543 02f2 83       		.byte	0x83
 544 02f3 10030000 		.4byte	0x310
 545 02f7 0A       		.uleb128 0xa
 546 02f8 DC120000 		.4byte	.LASF59
 547 02fc 08       		.byte	0x8
 548 02fd 84       		.byte	0x84
 549 02fe B6020000 		.4byte	0x2b6
 550 0302 00       		.byte	0
 551 0303 0A       		.uleb128 0xa
 552 0304 F2120000 		.4byte	.LASF62
 553 0308 08       		.byte	0x8
 554 0309 85       		.byte	0x85
 555 030a B6020000 		.4byte	0x2b6
 556 030e 04       		.byte	0x4
 557 030f 00       		.byte	0
 558 0310 05       		.uleb128 0x5
 559 0311 EE080000 		.4byte	.LASF63
 560 0315 07       		.byte	0x7
 561 0316 4C       		.byte	0x4c
 562 0317 1B030000 		.4byte	0x31b
 563 031b 0F       		.uleb128 0xf
 564 031c 61070000 		.4byte	.LASF64
 565 0320 1C       		.byte	0x1c
 566 0321 08       		.byte	0x8
 567 0322 5E01     		.2byte	0x15e
 568 0324 77030000 		.4byte	0x377
 569 0328 0D       		.uleb128 0xd
 570 0329 A20E0000 		.4byte	.LASF39
ARM GAS  /tmp/ccUbWPqb.s 			page 11


 571 032d 08       		.byte	0x8
 572 032e 5F01     		.2byte	0x15f
 573 0330 E0020000 		.4byte	0x2e0
 574 0334 00       		.byte	0
 575 0335 0D       		.uleb128 0xd
 576 0336 2C010000 		.4byte	.LASF40
 577 033a 08       		.byte	0x8
 578 033b 6001     		.2byte	0x160
 579 033d 11010000 		.4byte	0x111
 580 0341 08       		.byte	0x8
 581 0342 0C       		.uleb128 0xc
 582 0343 63747800 		.ascii	"ctx\000"
 583 0347 08       		.byte	0x8
 584 0348 6201     		.2byte	0x162
 585 034a FB040000 		.4byte	0x4fb
 586 034e 0C       		.byte	0xc
 587 034f 0D       		.uleb128 0xd
 588 0350 89110000 		.4byte	.LASF41
 589 0354 08       		.byte	0x8
 590 0355 6501     		.2byte	0x165
 591 0357 B6020000 		.4byte	0x2b6
 592 035b 10       		.byte	0x10
 593 035c 0D       		.uleb128 0xd
 594 035d FB080000 		.4byte	.LASF42
 595 0361 08       		.byte	0x8
 596 0362 6601     		.2byte	0x166
 597 0364 B6020000 		.4byte	0x2b6
 598 0368 14       		.byte	0x14
 599 0369 0D       		.uleb128 0xd
 600 036a E20B0000 		.4byte	.LASF65
 601 036e 08       		.byte	0x8
 602 036f 6901     		.2byte	0x169
 603 0371 B6020000 		.4byte	0x2b6
 604 0375 18       		.byte	0x18
 605 0376 00       		.byte	0
 606 0377 05       		.uleb128 0x5
 607 0378 64000000 		.4byte	.LASF66
 608 037c 07       		.byte	0x7
 609 037d 51       		.byte	0x51
 610 037e 82030000 		.4byte	0x382
 611 0382 0E       		.uleb128 0xe
 612 0383 04       		.byte	0x4
 613 0384 88030000 		.4byte	0x388
 614 0388 10       		.uleb128 0x10
 615 0389 93030000 		.4byte	0x393
 616 038d 11       		.uleb128 0x11
 617 038e 93030000 		.4byte	0x393
 618 0392 00       		.byte	0
 619 0393 12       		.uleb128 0x12
 620 0394 04       		.byte	0x4
 621 0395 05       		.uleb128 0x5
 622 0396 DE080000 		.4byte	.LASF67
 623 039a 07       		.byte	0x7
 624 039b 56       		.byte	0x56
 625 039c A0030000 		.4byte	0x3a0
 626 03a0 0F       		.uleb128 0xf
 627 03a1 750D0000 		.4byte	.LASF68
ARM GAS  /tmp/ccUbWPqb.s 			page 12


 628 03a5 14       		.byte	0x14
 629 03a6 08       		.byte	0x8
 630 03a7 3901     		.2byte	0x139
 631 03a9 EF030000 		.4byte	0x3ef
 632 03ad 0D       		.uleb128 0xd
 633 03ae DC120000 		.4byte	.LASF59
 634 03b2 08       		.byte	0x8
 635 03b3 3A01     		.2byte	0x13a
 636 03b5 A3070000 		.4byte	0x7a3
 637 03b9 00       		.byte	0
 638 03ba 0D       		.uleb128 0xd
 639 03bb F2120000 		.4byte	.LASF62
 640 03bf 08       		.byte	0x8
 641 03c0 3B01     		.2byte	0x13b
 642 03c2 A3070000 		.4byte	0x7a3
 643 03c6 04       		.byte	0x4
 644 03c7 0D       		.uleb128 0xd
 645 03c8 7F0E0000 		.4byte	.LASF69
 646 03cc 08       		.byte	0x8
 647 03cd 3C01     		.2byte	0x13c
 648 03cf D3040000 		.4byte	0x4d3
 649 03d3 08       		.byte	0x8
 650 03d4 0D       		.uleb128 0xd
 651 03d5 3B100000 		.4byte	.LASF70
 652 03d9 08       		.byte	0x8
 653 03da 3D01     		.2byte	0x13d
 654 03dc 77030000 		.4byte	0x377
 655 03e0 0C       		.byte	0xc
 656 03e1 0C       		.uleb128 0xc
 657 03e2 70617200 		.ascii	"par\000"
 658 03e6 08       		.byte	0x8
 659 03e7 3F01     		.2byte	0x13f
 660 03e9 93030000 		.4byte	0x393
 661 03ed 10       		.byte	0x10
 662 03ee 00       		.byte	0
 663 03ef 05       		.uleb128 0x5
 664 03f0 3E080000 		.4byte	.LASF71
 665 03f4 07       		.byte	0x7
 666 03f5 5B       		.byte	0x5b
 667 03f6 FA030000 		.4byte	0x3fa
 668 03fa 0F       		.uleb128 0xf
 669 03fb 6D000000 		.4byte	.LASF72
 670 03ff 10       		.byte	0x10
 671 0400 08       		.byte	0x8
 672 0401 4901     		.2byte	0x149
 673 0403 3C040000 		.4byte	0x43c
 674 0407 0D       		.uleb128 0xd
 675 0408 DC120000 		.4byte	.LASF59
 676 040c 08       		.byte	0x8
 677 040d 4A01     		.2byte	0x14a
 678 040f A3070000 		.4byte	0x7a3
 679 0413 00       		.byte	0
 680 0414 0D       		.uleb128 0xd
 681 0415 F2120000 		.4byte	.LASF62
 682 0419 08       		.byte	0x8
 683 041a 4C01     		.2byte	0x14c
 684 041c A3070000 		.4byte	0x7a3
ARM GAS  /tmp/ccUbWPqb.s 			page 13


 685 0420 04       		.byte	0x4
 686 0421 0D       		.uleb128 0xd
 687 0422 7F0E0000 		.4byte	.LASF69
 688 0426 08       		.byte	0x8
 689 0427 4E01     		.2byte	0x14e
 690 0429 D3040000 		.4byte	0x4d3
 691 042d 08       		.byte	0x8
 692 042e 0D       		.uleb128 0xd
 693 042f 50030000 		.4byte	.LASF73
 694 0433 08       		.byte	0x8
 695 0434 5601     		.2byte	0x156
 696 0436 C8040000 		.4byte	0x4c8
 697 043a 0C       		.byte	0xc
 698 043b 00       		.byte	0
 699 043c 05       		.uleb128 0x5
 700 043d 9E030000 		.4byte	.LASF74
 701 0441 07       		.byte	0x7
 702 0442 60       		.byte	0x60
 703 0443 47040000 		.4byte	0x447
 704 0447 0F       		.uleb128 0xf
 705 0448 CC100000 		.4byte	.LASF75
 706 044c 04       		.byte	0x4
 707 044d 08       		.byte	0x8
 708 044e 7001     		.2byte	0x170
 709 0450 62040000 		.4byte	0x462
 710 0454 0D       		.uleb128 0xd
 711 0455 59030000 		.4byte	.LASF76
 712 0459 08       		.byte	0x8
 713 045a 7801     		.2byte	0x178
 714 045c A9070000 		.4byte	0x7a9
 715 0460 00       		.byte	0
 716 0461 00       		.byte	0
 717 0462 05       		.uleb128 0x5
 718 0463 25120000 		.4byte	.LASF77
 719 0467 07       		.byte	0x7
 720 0468 65       		.byte	0x65
 721 0469 6D040000 		.4byte	0x46d
 722 046d 0F       		.uleb128 0xf
 723 046e 57110000 		.4byte	.LASF78
 724 0472 D0       		.byte	0xd0
 725 0473 08       		.byte	0x8
 726 0474 9001     		.2byte	0x190
 727 0476 C8040000 		.4byte	0x4c8
 728 047a 0D       		.uleb128 0xd
 729 047b 9B0F0000 		.4byte	.LASF79
 730 047f 08       		.byte	0x8
 731 0480 9401     		.2byte	0x194
 732 0482 10030000 		.4byte	0x310
 733 0486 00       		.byte	0
 734 0487 0D       		.uleb128 0xd
 735 0488 05110000 		.4byte	.LASF80
 736 048c 08       		.byte	0x8
 737 048d 9801     		.2byte	0x198
 738 048f EF030000 		.4byte	0x3ef
 739 0493 1C       		.byte	0x1c
 740 0494 0C       		.uleb128 0xc
 741 0495 64626700 		.ascii	"dbg\000"
ARM GAS  /tmp/ccUbWPqb.s 			page 14


 742 0499 08       		.byte	0x8
 743 049a 9C01     		.2byte	0x19c
 744 049c 3C040000 		.4byte	0x43c
 745 04a0 2C       		.byte	0x2c
 746 04a1 0D       		.uleb128 0xd
 747 04a2 D20E0000 		.4byte	.LASF81
 748 04a6 08       		.byte	0x8
 749 04a7 A001     		.2byte	0x1a0
 750 04a9 53010000 		.4byte	0x153
 751 04ad 30       		.byte	0x30
 752 04ae 0C       		.uleb128 0xc
 753 04af 746D00   		.ascii	"tm\000"
 754 04b2 08       		.byte	0x8
 755 04b3 A501     		.2byte	0x1a5
 756 04b5 7E060000 		.4byte	0x67e
 757 04b9 90       		.byte	0x90
 758 04ba 0D       		.uleb128 0xd
 759 04bb 990D0000 		.4byte	.LASF82
 760 04bf 08       		.byte	0x8
 761 04c0 AB01     		.2byte	0x1ab
 762 04c2 18070000 		.4byte	0x718
 763 04c6 98       		.byte	0x98
 764 04c7 00       		.byte	0
 765 04c8 05       		.uleb128 0x5
 766 04c9 44000000 		.4byte	.LASF83
 767 04cd 09       		.byte	0x9
 768 04ce 6D       		.byte	0x6d
 769 04cf B9000000 		.4byte	0xb9
 770 04d3 05       		.uleb128 0x5
 771 04d4 B2090000 		.4byte	.LASF84
 772 04d8 09       		.byte	0x9
 773 04d9 79       		.byte	0x79
 774 04da B9000000 		.4byte	0xb9
 775 04de 03       		.uleb128 0x3
 776 04df 04       		.byte	0x4
 777 04e0 07       		.byte	0x7
 778 04e1 34000000 		.4byte	.LASF85
 779 04e5 05       		.uleb128 0x5
 780 04e6 60020000 		.4byte	.LASF86
 781 04ea 0A       		.byte	0xa
 782 04eb 65       		.byte	0x65
 783 04ec 93030000 		.4byte	0x393
 784 04f0 05       		.uleb128 0x5
 785 04f1 18060000 		.4byte	.LASF87
 786 04f5 0A       		.byte	0xa
 787 04f6 6D       		.byte	0x6d
 788 04f7 C4000000 		.4byte	0xc4
 789 04fb 06       		.uleb128 0x6
 790 04fc 2F110000 		.4byte	.LASF88
 791 0500 04       		.byte	0x4
 792 0501 0A       		.byte	0xa
 793 0502 89       		.byte	0x89
 794 0503 13050000 		.4byte	0x513
 795 0507 0B       		.uleb128 0xb
 796 0508 737000   		.ascii	"sp\000"
 797 050b 0A       		.byte	0xa
 798 050c 8A       		.byte	0x8a
ARM GAS  /tmp/ccUbWPqb.s 			page 15


 799 050d 5F060000 		.4byte	0x65f
 800 0511 00       		.byte	0
 801 0512 00       		.byte	0
 802 0513 0F       		.uleb128 0xf
 803 0514 490D0000 		.4byte	.LASF89
 804 0518 64       		.byte	0x64
 805 0519 0B       		.byte	0xb
 806 051a 5901     		.2byte	0x159
 807 051c 5F060000 		.4byte	0x65f
 808 0520 0C       		.uleb128 0xc
 809 0521 73313600 		.ascii	"s16\000"
 810 0525 0B       		.byte	0xb
 811 0526 5B01     		.2byte	0x15b
 812 0528 E5040000 		.4byte	0x4e5
 813 052c 00       		.byte	0
 814 052d 0C       		.uleb128 0xc
 815 052e 73313700 		.ascii	"s17\000"
 816 0532 0B       		.byte	0xb
 817 0533 5C01     		.2byte	0x15c
 818 0535 E5040000 		.4byte	0x4e5
 819 0539 04       		.byte	0x4
 820 053a 0C       		.uleb128 0xc
 821 053b 73313800 		.ascii	"s18\000"
 822 053f 0B       		.byte	0xb
 823 0540 5D01     		.2byte	0x15d
 824 0542 E5040000 		.4byte	0x4e5
 825 0546 08       		.byte	0x8
 826 0547 0C       		.uleb128 0xc
 827 0548 73313900 		.ascii	"s19\000"
 828 054c 0B       		.byte	0xb
 829 054d 5E01     		.2byte	0x15e
 830 054f E5040000 		.4byte	0x4e5
 831 0553 0C       		.byte	0xc
 832 0554 0C       		.uleb128 0xc
 833 0555 73323000 		.ascii	"s20\000"
 834 0559 0B       		.byte	0xb
 835 055a 5F01     		.2byte	0x15f
 836 055c E5040000 		.4byte	0x4e5
 837 0560 10       		.byte	0x10
 838 0561 0C       		.uleb128 0xc
 839 0562 73323100 		.ascii	"s21\000"
 840 0566 0B       		.byte	0xb
 841 0567 6001     		.2byte	0x160
 842 0569 E5040000 		.4byte	0x4e5
 843 056d 14       		.byte	0x14
 844 056e 0C       		.uleb128 0xc
 845 056f 73323200 		.ascii	"s22\000"
 846 0573 0B       		.byte	0xb
 847 0574 6101     		.2byte	0x161
 848 0576 E5040000 		.4byte	0x4e5
 849 057a 18       		.byte	0x18
 850 057b 0C       		.uleb128 0xc
 851 057c 73323300 		.ascii	"s23\000"
 852 0580 0B       		.byte	0xb
 853 0581 6201     		.2byte	0x162
 854 0583 E5040000 		.4byte	0x4e5
 855 0587 1C       		.byte	0x1c
ARM GAS  /tmp/ccUbWPqb.s 			page 16


 856 0588 0C       		.uleb128 0xc
 857 0589 73323400 		.ascii	"s24\000"
 858 058d 0B       		.byte	0xb
 859 058e 6301     		.2byte	0x163
 860 0590 E5040000 		.4byte	0x4e5
 861 0594 20       		.byte	0x20
 862 0595 0C       		.uleb128 0xc
 863 0596 73323500 		.ascii	"s25\000"
 864 059a 0B       		.byte	0xb
 865 059b 6401     		.2byte	0x164
 866 059d E5040000 		.4byte	0x4e5
 867 05a1 24       		.byte	0x24
 868 05a2 0C       		.uleb128 0xc
 869 05a3 73323600 		.ascii	"s26\000"
 870 05a7 0B       		.byte	0xb
 871 05a8 6501     		.2byte	0x165
 872 05aa E5040000 		.4byte	0x4e5
 873 05ae 28       		.byte	0x28
 874 05af 0C       		.uleb128 0xc
 875 05b0 73323700 		.ascii	"s27\000"
 876 05b4 0B       		.byte	0xb
 877 05b5 6601     		.2byte	0x166
 878 05b7 E5040000 		.4byte	0x4e5
 879 05bb 2C       		.byte	0x2c
 880 05bc 0C       		.uleb128 0xc
 881 05bd 73323800 		.ascii	"s28\000"
 882 05c1 0B       		.byte	0xb
 883 05c2 6701     		.2byte	0x167
 884 05c4 E5040000 		.4byte	0x4e5
 885 05c8 30       		.byte	0x30
 886 05c9 0C       		.uleb128 0xc
 887 05ca 73323900 		.ascii	"s29\000"
 888 05ce 0B       		.byte	0xb
 889 05cf 6801     		.2byte	0x168
 890 05d1 E5040000 		.4byte	0x4e5
 891 05d5 34       		.byte	0x34
 892 05d6 0C       		.uleb128 0xc
 893 05d7 73333000 		.ascii	"s30\000"
 894 05db 0B       		.byte	0xb
 895 05dc 6901     		.2byte	0x169
 896 05de E5040000 		.4byte	0x4e5
 897 05e2 38       		.byte	0x38
 898 05e3 0C       		.uleb128 0xc
 899 05e4 73333100 		.ascii	"s31\000"
 900 05e8 0B       		.byte	0xb
 901 05e9 6A01     		.2byte	0x16a
 902 05eb E5040000 		.4byte	0x4e5
 903 05ef 3C       		.byte	0x3c
 904 05f0 0C       		.uleb128 0xc
 905 05f1 723400   		.ascii	"r4\000"
 906 05f4 0B       		.byte	0xb
 907 05f5 6C01     		.2byte	0x16c
 908 05f7 E5040000 		.4byte	0x4e5
 909 05fb 40       		.byte	0x40
 910 05fc 0C       		.uleb128 0xc
 911 05fd 723500   		.ascii	"r5\000"
 912 0600 0B       		.byte	0xb
ARM GAS  /tmp/ccUbWPqb.s 			page 17


 913 0601 6D01     		.2byte	0x16d
 914 0603 E5040000 		.4byte	0x4e5
 915 0607 44       		.byte	0x44
 916 0608 0C       		.uleb128 0xc
 917 0609 723600   		.ascii	"r6\000"
 918 060c 0B       		.byte	0xb
 919 060d 6E01     		.2byte	0x16e
 920 060f E5040000 		.4byte	0x4e5
 921 0613 48       		.byte	0x48
 922 0614 0C       		.uleb128 0xc
 923 0615 723700   		.ascii	"r7\000"
 924 0618 0B       		.byte	0xb
 925 0619 6F01     		.2byte	0x16f
 926 061b E5040000 		.4byte	0x4e5
 927 061f 4C       		.byte	0x4c
 928 0620 0C       		.uleb128 0xc
 929 0621 723800   		.ascii	"r8\000"
 930 0624 0B       		.byte	0xb
 931 0625 7001     		.2byte	0x170
 932 0627 E5040000 		.4byte	0x4e5
 933 062b 50       		.byte	0x50
 934 062c 0C       		.uleb128 0xc
 935 062d 723900   		.ascii	"r9\000"
 936 0630 0B       		.byte	0xb
 937 0631 7101     		.2byte	0x171
 938 0633 E5040000 		.4byte	0x4e5
 939 0637 54       		.byte	0x54
 940 0638 0C       		.uleb128 0xc
 941 0639 72313000 		.ascii	"r10\000"
 942 063d 0B       		.byte	0xb
 943 063e 7201     		.2byte	0x172
 944 0640 E5040000 		.4byte	0x4e5
 945 0644 58       		.byte	0x58
 946 0645 0C       		.uleb128 0xc
 947 0646 72313100 		.ascii	"r11\000"
 948 064a 0B       		.byte	0xb
 949 064b 7301     		.2byte	0x173
 950 064d E5040000 		.4byte	0x4e5
 951 0651 5C       		.byte	0x5c
 952 0652 0C       		.uleb128 0xc
 953 0653 6C7200   		.ascii	"lr\000"
 954 0656 0B       		.byte	0xb
 955 0657 7401     		.2byte	0x174
 956 0659 E5040000 		.4byte	0x4e5
 957 065d 60       		.byte	0x60
 958 065e 00       		.byte	0
 959 065f 0E       		.uleb128 0xe
 960 0660 04       		.byte	0x4
 961 0661 13050000 		.4byte	0x513
 962 0665 13       		.uleb128 0x13
 963 0666 04       		.byte	0x4
 964 0667 0C       		.byte	0xc
 965 0668 38       		.byte	0x38
 966 0669 860D0000 		.4byte	.LASF92
 967 066d 7E060000 		.4byte	0x67e
 968 0671 0A       		.uleb128 0xa
 969 0672 EA0B0000 		.4byte	.LASF90
ARM GAS  /tmp/ccUbWPqb.s 			page 18


 970 0676 0C       		.byte	0xc
 971 0677 3C       		.byte	0x3c
 972 0678 CF000000 		.4byte	0xcf
 973 067c 00       		.byte	0
 974 067d 00       		.byte	0
 975 067e 05       		.uleb128 0x5
 976 067f 03100000 		.4byte	.LASF91
 977 0683 0C       		.byte	0xc
 978 0684 3D       		.byte	0x3d
 979 0685 65060000 		.4byte	0x665
 980 0689 13       		.uleb128 0x13
 981 068a 18       		.byte	0x18
 982 068b 0C       		.byte	0xc
 983 068c 48       		.byte	0x48
 984 068d BC110000 		.4byte	.LASF93
 985 0691 D0060000 		.4byte	0x6d0
 986 0695 0A       		.uleb128 0xa
 987 0696 F40E0000 		.4byte	.LASF94
 988 069a 0C       		.byte	0xc
 989 069b 49       		.byte	0x49
 990 069c CF000000 		.4byte	0xcf
 991 06a0 00       		.byte	0
 992 06a1 0A       		.uleb128 0xa
 993 06a2 7D060000 		.4byte	.LASF95
 994 06a6 0C       		.byte	0xc
 995 06a7 4A       		.byte	0x4a
 996 06a8 CF000000 		.4byte	0xcf
 997 06ac 04       		.byte	0x4
 998 06ad 0A       		.uleb128 0xa
 999 06ae F7120000 		.4byte	.LASF96
 1000 06b2 0C       		.byte	0xc
 1001 06b3 4B       		.byte	0x4b
 1002 06b4 CF000000 		.4byte	0xcf
 1003 06b8 08       		.byte	0x8
 1004 06b9 0B       		.uleb128 0xb
 1005 06ba 6E00     		.ascii	"n\000"
 1006 06bc 0C       		.byte	0xc
 1007 06bd 4C       		.byte	0x4c
 1008 06be 48010000 		.4byte	0x148
 1009 06c2 0C       		.byte	0xc
 1010 06c3 0A       		.uleb128 0xa
 1011 06c4 BB020000 		.4byte	.LASF97
 1012 06c8 0C       		.byte	0xc
 1013 06c9 4D       		.byte	0x4d
 1014 06ca DA000000 		.4byte	0xda
 1015 06ce 10       		.byte	0x10
 1016 06cf 00       		.byte	0
 1017 06d0 05       		.uleb128 0x5
 1018 06d1 0C0B0000 		.4byte	.LASF98
 1019 06d5 0C       		.byte	0xc
 1020 06d6 4E       		.byte	0x4e
 1021 06d7 89060000 		.4byte	0x689
 1022 06db 13       		.uleb128 0x13
 1023 06dc 38       		.byte	0x38
 1024 06dd 0D       		.byte	0xd
 1025 06de 38       		.byte	0x38
 1026 06df 750B0000 		.4byte	.LASF99
ARM GAS  /tmp/ccUbWPqb.s 			page 19


 1027 06e3 18070000 		.4byte	0x718
 1028 06e7 0A       		.uleb128 0xa
 1029 06e8 34090000 		.4byte	.LASF100
 1030 06ec 0D       		.byte	0xd
 1031 06ed 39       		.byte	0x39
 1032 06ee 48010000 		.4byte	0x148
 1033 06f2 00       		.byte	0
 1034 06f3 0A       		.uleb128 0xa
 1035 06f4 BA050000 		.4byte	.LASF101
 1036 06f8 0D       		.byte	0xd
 1037 06f9 3A       		.byte	0x3a
 1038 06fa 48010000 		.4byte	0x148
 1039 06fe 04       		.byte	0x4
 1040 06ff 0A       		.uleb128 0xa
 1041 0700 A9070000 		.4byte	.LASF102
 1042 0704 0D       		.byte	0xd
 1043 0705 3B       		.byte	0x3b
 1044 0706 D0060000 		.4byte	0x6d0
 1045 070a 08       		.byte	0x8
 1046 070b 0A       		.uleb128 0xa
 1047 070c 550B0000 		.4byte	.LASF103
 1048 0710 0D       		.byte	0xd
 1049 0711 3D       		.byte	0x3d
 1050 0712 D0060000 		.4byte	0x6d0
 1051 0716 20       		.byte	0x20
 1052 0717 00       		.byte	0
 1053 0718 05       		.uleb128 0x5
 1054 0719 860B0000 		.4byte	.LASF104
 1055 071d 0D       		.byte	0xd
 1056 071e 3F       		.byte	0x3f
 1057 071f DB060000 		.4byte	0x6db
 1058 0723 0E       		.uleb128 0xe
 1059 0724 04       		.byte	0x4
 1060 0725 AB020000 		.4byte	0x2ab
 1061 0729 06       		.uleb128 0x6
 1062 072a F5070000 		.4byte	.LASF105
 1063 072e 0C       		.byte	0xc
 1064 072f 0E       		.byte	0xe
 1065 0730 34       		.byte	0x34
 1066 0731 4E070000 		.4byte	0x74e
 1067 0735 0A       		.uleb128 0xa
 1068 0736 A20E0000 		.4byte	.LASF39
 1069 073a 0E       		.byte	0xe
 1070 073b 35       		.byte	0x35
 1071 073c E0020000 		.4byte	0x2e0
 1072 0740 00       		.byte	0
 1073 0741 0B       		.uleb128 0xb
 1074 0742 636E7400 		.ascii	"cnt\000"
 1075 0746 0E       		.byte	0xe
 1076 0747 37       		.byte	0x37
 1077 0748 3D010000 		.4byte	0x13d
 1078 074c 08       		.byte	0x8
 1079 074d 00       		.byte	0
 1080 074e 0E       		.uleb128 0xe
 1081 074f 04       		.byte	0x4
 1082 0750 29070000 		.4byte	0x729
 1083 0754 06       		.uleb128 0x6
ARM GAS  /tmp/ccUbWPqb.s 			page 20


 1084 0755 40100000 		.4byte	.LASF106
 1085 0759 10       		.byte	0x10
 1086 075a 0F       		.byte	0xf
 1087 075b 39       		.byte	0x39
 1088 075c 85070000 		.4byte	0x785
 1089 0760 0A       		.uleb128 0xa
 1090 0761 A20E0000 		.4byte	.LASF39
 1091 0765 0F       		.byte	0xf
 1092 0766 3A       		.byte	0x3a
 1093 0767 E0020000 		.4byte	0x2e0
 1094 076b 00       		.byte	0
 1095 076c 0A       		.uleb128 0xa
 1096 076d 4E000000 		.4byte	.LASF107
 1097 0771 0F       		.byte	0xf
 1098 0772 3C       		.byte	0x3c
 1099 0773 B6020000 		.4byte	0x2b6
 1100 0777 08       		.byte	0x8
 1101 0778 0A       		.uleb128 0xa
 1102 0779 DC120000 		.4byte	.LASF59
 1103 077d 0F       		.byte	0xf
 1104 077e 3E       		.byte	0x3e
 1105 077f B9070000 		.4byte	0x7b9
 1106 0783 0C       		.byte	0xc
 1107 0784 00       		.byte	0
 1108 0785 0E       		.uleb128 0xe
 1109 0786 04       		.byte	0x4
 1110 0787 54070000 		.4byte	0x754
 1111 078b 0E       		.uleb128 0xe
 1112 078c 04       		.byte	0x4
 1113 078d 91070000 		.4byte	0x791
 1114 0791 14       		.uleb128 0x14
 1115 0792 96070000 		.4byte	0x796
 1116 0796 03       		.uleb128 0x3
 1117 0797 01       		.byte	0x1
 1118 0798 08       		.byte	0x8
 1119 0799 20040000 		.4byte	.LASF108
 1120 079d 0E       		.uleb128 0xe
 1121 079e 04       		.byte	0x4
 1122 079f F0040000 		.4byte	0x4f0
 1123 07a3 0E       		.uleb128 0xe
 1124 07a4 04       		.byte	0x4
 1125 07a5 95030000 		.4byte	0x395
 1126 07a9 15       		.uleb128 0x15
 1127 07aa 8B070000 		.4byte	0x78b
 1128 07ae 05       		.uleb128 0x5
 1129 07af 1F110000 		.4byte	.LASF109
 1130 07b3 0F       		.byte	0xf
 1131 07b4 34       		.byte	0x34
 1132 07b5 54070000 		.4byte	0x754
 1133 07b9 0E       		.uleb128 0xe
 1134 07ba 04       		.byte	0x4
 1135 07bb AE070000 		.4byte	0x7ae
 1136 07bf 05       		.uleb128 0x5
 1137 07c0 B60F0000 		.4byte	.LASF110
 1138 07c4 10       		.byte	0x10
 1139 07c5 53       		.byte	0x53
 1140 07c6 CA070000 		.4byte	0x7ca
ARM GAS  /tmp/ccUbWPqb.s 			page 21


 1141 07ca 0E       		.uleb128 0xe
 1142 07cb 04       		.byte	0x4
 1143 07cc D0070000 		.4byte	0x7d0
 1144 07d0 10       		.uleb128 0x10
 1145 07d1 DB070000 		.4byte	0x7db
 1146 07d5 11       		.uleb128 0x11
 1147 07d6 27010000 		.4byte	0x127
 1148 07da 00       		.byte	0
 1149 07db 03       		.uleb128 0x3
 1150 07dc 01       		.byte	0x1
 1151 07dd 02       		.byte	0x2
 1152 07de 810C0000 		.4byte	.LASF111
 1153 07e2 16       		.uleb128 0x16
 1154 07e3 BF000000 		.4byte	.LASF230
 1155 07e7 02       		.byte	0x2
 1156 07e8 21       		.byte	0x21
 1157 07e9 380E0000 		.4byte	0xe38
 1158 07ed 17       		.uleb128 0x17
 1159 07ee 8E030000 		.4byte	.LASF151
 1160 07f2 01       		.byte	0x1
 1161 07f3 02       		.byte	0x2
 1162 07f4 2C       		.byte	0x2c
 1163 07f5 69090000 		.4byte	0x969
 1164 07f9 18       		.uleb128 0x18
 1165 07fa 770F0000 		.4byte	.LASF112
 1166 07fe 02       		.byte	0x2
 1167 07ff 3A       		.byte	0x3a
 1168 0800 69020000 		.4byte	.LASF114
 1169 0804 01       		.byte	0x1
 1170 0805 19       		.uleb128 0x19
 1171 0806 DD0E0000 		.4byte	.LASF132
 1172 080a 02       		.byte	0x2
 1173 080b 4B       		.byte	0x4b
 1174 080c 550D0000 		.4byte	.LASF231
 1175 0810 01       		.byte	0x1
 1176 0811 1B080000 		.4byte	0x81b
 1177 0815 11       		.uleb128 0x11
 1178 0816 8B070000 		.4byte	0x78b
 1179 081a 00       		.byte	0
 1180 081b 1A       		.uleb128 0x1a
 1181 081c A90B0000 		.4byte	.LASF136
 1182 0820 02       		.byte	0x2
 1183 0821 69       		.byte	0x69
 1184 0822 90050000 		.4byte	.LASF232
 1185 0826 DB070000 		.4byte	0x7db
 1186 082a 01       		.byte	0x1
 1187 082b 35080000 		.4byte	0x835
 1188 082f 11       		.uleb128 0x11
 1189 0830 2C000000 		.4byte	0x2c
 1190 0834 00       		.byte	0
 1191 0835 18       		.uleb128 0x18
 1192 0836 D90A0000 		.4byte	.LASF113
 1193 083a 02       		.byte	0x2
 1194 083b 76       		.byte	0x76
 1195 083c B4080000 		.4byte	.LASF115
 1196 0840 01       		.byte	0x1
 1197 0841 18       		.uleb128 0x18
ARM GAS  /tmp/ccUbWPqb.s 			page 22


 1198 0842 E10A0000 		.4byte	.LASF116
 1199 0846 02       		.byte	0x2
 1200 0847 86       		.byte	0x86
 1201 0848 E1110000 		.4byte	.LASF117
 1202 084c 01       		.byte	0x1
 1203 084d 18       		.uleb128 0x18
 1204 084e EB090000 		.4byte	.LASF118
 1205 0852 02       		.byte	0x2
 1206 0853 94       		.byte	0x94
 1207 0854 8E0C0000 		.4byte	.LASF119
 1208 0858 01       		.byte	0x1
 1209 0859 18       		.uleb128 0x18
 1210 085a 84050000 		.4byte	.LASF120
 1211 085e 02       		.byte	0x2
 1212 085f 9E       		.byte	0x9e
 1213 0860 EE060000 		.4byte	.LASF121
 1214 0864 01       		.byte	0x1
 1215 0865 18       		.uleb128 0x18
 1216 0866 FE100000 		.4byte	.LASF122
 1217 086a 02       		.byte	0x2
 1218 086b A8       		.byte	0xa8
 1219 086c 49100000 		.4byte	.LASF123
 1220 0870 01       		.byte	0x1
 1221 0871 18       		.uleb128 0x18
 1222 0872 E70D0000 		.4byte	.LASF124
 1223 0876 02       		.byte	0x2
 1224 0877 B9       		.byte	0xb9
 1225 0878 57060000 		.4byte	.LASF125
 1226 087c 01       		.byte	0x1
 1227 087d 18       		.uleb128 0x18
 1228 087e 850E0000 		.4byte	.LASF126
 1229 0882 02       		.byte	0x2
 1230 0883 CB       		.byte	0xcb
 1231 0884 3A010000 		.4byte	.LASF127
 1232 0888 01       		.byte	0x1
 1233 0889 18       		.uleb128 0x18
 1234 088a E20E0000 		.4byte	.LASF128
 1235 088e 02       		.byte	0x2
 1236 088f D7       		.byte	0xd7
 1237 0890 DF010000 		.4byte	.LASF129
 1238 0894 01       		.byte	0x1
 1239 0895 18       		.uleb128 0x18
 1240 0896 950B0000 		.4byte	.LASF130
 1241 089a 02       		.byte	0x2
 1242 089b E3       		.byte	0xe3
 1243 089c AD030000 		.4byte	.LASF131
 1244 08a0 01       		.byte	0x1
 1245 08a1 1B       		.uleb128 0x1b
 1246 08a2 F2090000 		.4byte	.LASF134
 1247 08a6 02       		.byte	0x2
 1248 08a7 F5       		.byte	0xf5
 1249 08a8 10030000 		.4byte	.LASF233
 1250 08ac E5000000 		.4byte	0xe5
 1251 08b0 01       		.byte	0x1
 1252 08b1 1C       		.uleb128 0x1c
 1253 08b2 F90D0000 		.4byte	.LASF133
 1254 08b6 02       		.byte	0x2
ARM GAS  /tmp/ccUbWPqb.s 			page 23


 1255 08b7 0301     		.2byte	0x103
 1256 08b9 B90B0000 		.4byte	.LASF139
 1257 08bd 01       		.byte	0x1
 1258 08be C8080000 		.4byte	0x8c8
 1259 08c2 11       		.uleb128 0x11
 1260 08c3 E5000000 		.4byte	0xe5
 1261 08c7 00       		.byte	0
 1262 08c8 1D       		.uleb128 0x1d
 1263 08c9 D0000000 		.4byte	.LASF135
 1264 08cd 02       		.byte	0x2
 1265 08ce 1301     		.2byte	0x113
 1266 08d0 32020000 		.4byte	.LASF142
 1267 08d4 CF000000 		.4byte	0xcf
 1268 08d8 01       		.byte	0x1
 1269 08d9 1E       		.uleb128 0x1e
 1270 08da 2C0C0000 		.4byte	.LASF137
 1271 08de 02       		.byte	0x2
 1272 08df 2A01     		.2byte	0x12a
 1273 08e1 07000000 		.4byte	.LASF147
 1274 08e5 DB070000 		.4byte	0x7db
 1275 08e9 01       		.byte	0x1
 1276 08ea FE080000 		.4byte	0x8fe
 1277 08ee 11       		.uleb128 0x11
 1278 08ef CF000000 		.4byte	0xcf
 1279 08f3 11       		.uleb128 0x11
 1280 08f4 CF000000 		.4byte	0xcf
 1281 08f8 11       		.uleb128 0x11
 1282 08f9 CF000000 		.4byte	0xcf
 1283 08fd 00       		.byte	0
 1284 08fe 1C       		.uleb128 0x1c
 1285 08ff CF120000 		.4byte	.LASF138
 1286 0903 02       		.byte	0x2
 1287 0904 3C01     		.2byte	0x13c
 1288 0906 71120000 		.4byte	.LASF140
 1289 090a 01       		.byte	0x1
 1290 090b 15090000 		.4byte	0x915
 1291 090f 11       		.uleb128 0x11
 1292 0910 CF000000 		.4byte	0xcf
 1293 0914 00       		.byte	0
 1294 0915 1D       		.uleb128 0x1d
 1295 0916 860C0000 		.4byte	.LASF141
 1296 091a 02       		.byte	0x2
 1297 091b 4A01     		.2byte	0x14a
 1298 091d B10E0000 		.4byte	.LASF143
 1299 0921 C8040000 		.4byte	0x4c8
 1300 0925 01       		.byte	0x1
 1301 0926 1D       		.uleb128 0x1d
 1302 0927 3A090000 		.4byte	.LASF144
 1303 092b 02       		.byte	0x2
 1304 092c 5701     		.2byte	0x157
 1305 092e 0C070000 		.4byte	.LASF145
 1306 0932 C8040000 		.4byte	0x4c8
 1307 0936 01       		.byte	0x1
 1308 0937 1E       		.uleb128 0x1e
 1309 0938 11090000 		.4byte	.LASF146
 1310 093c 02       		.byte	0x2
 1311 093d 6901     		.2byte	0x169
ARM GAS  /tmp/ccUbWPqb.s 			page 24


 1312 093f 170A0000 		.4byte	.LASF148
 1313 0943 DB070000 		.4byte	0x7db
 1314 0947 01       		.byte	0x1
 1315 0948 57090000 		.4byte	0x957
 1316 094c 11       		.uleb128 0x11
 1317 094d C8040000 		.4byte	0x4c8
 1318 0951 11       		.uleb128 0x11
 1319 0952 C8040000 		.4byte	0x4c8
 1320 0956 00       		.byte	0
 1321 0957 1D       		.uleb128 0x1d
 1322 0958 31060000 		.4byte	.LASF149
 1323 095c 02       		.byte	0x2
 1324 095d 7B01     		.2byte	0x17b
 1325 095f 64080000 		.4byte	.LASF150
 1326 0963 69090000 		.4byte	0x969
 1327 0967 01       		.byte	0x1
 1328 0968 00       		.byte	0
 1329 0969 1F       		.uleb128 0x1f
 1330 096a 61120000 		.4byte	.LASF152
 1331 096e 04       		.byte	0x4
 1332 096f 02       		.byte	0x2
 1333 0970 5002     		.2byte	0x250
 1334 0972 2F0B0000 		.4byte	0xb2f
 1335 0976 0D       		.uleb128 0xd
 1336 0977 54080000 		.4byte	.LASF153
 1337 097b 02       		.byte	0x2
 1338 097c 5402     		.2byte	0x254
 1339 097e B6020000 		.4byte	0x2b6
 1340 0982 00       		.byte	0
 1341 0983 20       		.uleb128 0x20
 1342 0984 61120000 		.4byte	.LASF152
 1343 0988 02       		.byte	0x2
 1344 0989 6302     		.2byte	0x263
 1345 098b 380E0000 		.4byte	0xe38
 1346 098f 01       		.byte	0x1
 1347 0990 98090000 		.4byte	0x998
 1348 0994 9E090000 		.4byte	0x99e
 1349 0998 21       		.uleb128 0x21
 1350 0999 380E0000 		.4byte	0xe38
 1351 099d 00       		.byte	0
 1352 099e 20       		.uleb128 0x20
 1353 099f 61120000 		.4byte	.LASF152
 1354 09a3 02       		.byte	0x2
 1355 09a4 6E02     		.2byte	0x26e
 1356 09a6 380E0000 		.4byte	0xe38
 1357 09aa 01       		.byte	0x1
 1358 09ab B3090000 		.4byte	0x9b3
 1359 09af BE090000 		.4byte	0x9be
 1360 09b3 21       		.uleb128 0x21
 1361 09b4 380E0000 		.4byte	0xe38
 1362 09b8 11       		.uleb128 0x11
 1363 09b9 B6020000 		.4byte	0x2b6
 1364 09bd 00       		.byte	0
 1365 09be 22       		.uleb128 0x22
 1366 09bf 250F0000 		.4byte	.LASF154
 1367 09c3 02       		.byte	0x2
 1368 09c4 7902     		.2byte	0x279
ARM GAS  /tmp/ccUbWPqb.s 			page 25


 1369 09c6 87090000 		.4byte	.LASF156
 1370 09ca DB070000 		.4byte	0x7db
 1371 09ce 01       		.byte	0x1
 1372 09cf D7090000 		.4byte	0x9d7
 1373 09d3 DD090000 		.4byte	0x9dd
 1374 09d7 21       		.uleb128 0x21
 1375 09d8 3E0E0000 		.4byte	0xe3e
 1376 09dc 00       		.byte	0
 1377 09dd 22       		.uleb128 0x22
 1378 09de 02120000 		.4byte	.LASF155
 1379 09e2 02       		.byte	0x2
 1380 09e3 8102     		.2byte	0x281
 1381 09e5 F90E0000 		.4byte	.LASF157
 1382 09e9 B6020000 		.4byte	0x2b6
 1383 09ed 01       		.byte	0x1
 1384 09ee F6090000 		.4byte	0x9f6
 1385 09f2 FC090000 		.4byte	0x9fc
 1386 09f6 21       		.uleb128 0x21
 1387 09f7 380E0000 		.4byte	0xe38
 1388 09fb 00       		.byte	0
 1389 09fc 23       		.uleb128 0x23
 1390 09fd E1020000 		.4byte	.LASF158
 1391 0a01 02       		.byte	0x2
 1392 0a02 9002     		.2byte	0x290
 1393 0a04 1F0B0000 		.4byte	.LASF159
 1394 0a08 01       		.byte	0x1
 1395 0a09 110A0000 		.4byte	0xa11
 1396 0a0d 170A0000 		.4byte	0xa17
 1397 0a11 21       		.uleb128 0x21
 1398 0a12 3E0E0000 		.4byte	0xe3e
 1399 0a16 00       		.byte	0
 1400 0a17 22       		.uleb128 0x22
 1401 0a18 00000000 		.4byte	.LASF160
 1402 0a1c 02       		.byte	0x2
 1403 0a1d 9F02     		.2byte	0x29f
 1404 0a1f C0090000 		.4byte	.LASF161
 1405 0a23 69090000 		.4byte	0x969
 1406 0a27 01       		.byte	0x1
 1407 0a28 300A0000 		.4byte	0xa30
 1408 0a2c 360A0000 		.4byte	0xa36
 1409 0a30 21       		.uleb128 0x21
 1410 0a31 3E0E0000 		.4byte	0xe3e
 1411 0a35 00       		.byte	0
 1412 0a36 23       		.uleb128 0x23
 1413 0a37 D9110000 		.4byte	.LASF162
 1414 0a3b 02       		.byte	0x2
 1415 0a3c B302     		.2byte	0x2b3
 1416 0a3e 84000000 		.4byte	.LASF163
 1417 0a42 01       		.byte	0x1
 1418 0a43 4B0A0000 		.4byte	0xa4b
 1419 0a47 510A0000 		.4byte	0xa51
 1420 0a4b 21       		.uleb128 0x21
 1421 0a4c 380E0000 		.4byte	0xe38
 1422 0a50 00       		.byte	0
 1423 0a51 22       		.uleb128 0x22
 1424 0a52 CE0A0000 		.4byte	.LASF164
 1425 0a56 02       		.byte	0x2
ARM GAS  /tmp/ccUbWPqb.s 			page 26


 1426 0a57 DA02     		.2byte	0x2da
 1427 0a59 87020000 		.4byte	.LASF165
 1428 0a5d 1C010000 		.4byte	0x11c
 1429 0a61 01       		.byte	0x1
 1430 0a62 6A0A0000 		.4byte	0xa6a
 1431 0a66 700A0000 		.4byte	0xa70
 1432 0a6a 21       		.uleb128 0x21
 1433 0a6b 380E0000 		.4byte	0xe38
 1434 0a6f 00       		.byte	0
 1435 0a70 22       		.uleb128 0x22
 1436 0a71 AF020000 		.4byte	.LASF166
 1437 0a75 02       		.byte	0x2
 1438 0a76 EC02     		.2byte	0x2ec
 1439 0a78 190E0000 		.4byte	.LASF167
 1440 0a7c 1C010000 		.4byte	0x11c
 1441 0a80 01       		.byte	0x1
 1442 0a81 890A0000 		.4byte	0xa89
 1443 0a85 940A0000 		.4byte	0xa94
 1444 0a89 21       		.uleb128 0x21
 1445 0a8a 3E0E0000 		.4byte	0xe3e
 1446 0a8e 11       		.uleb128 0x11
 1447 0a8f 1C010000 		.4byte	0x11c
 1448 0a93 00       		.byte	0
 1449 0a94 22       		.uleb128 0x22
 1450 0a95 C3050000 		.4byte	.LASF168
 1451 0a99 02       		.byte	0x2
 1452 0a9a F902     		.2byte	0x2f9
 1453 0a9c A9010000 		.4byte	.LASF169
 1454 0aa0 DB070000 		.4byte	0x7db
 1455 0aa4 01       		.byte	0x1
 1456 0aa5 AD0A0000 		.4byte	0xaad
 1457 0aa9 B30A0000 		.4byte	0xab3
 1458 0aad 21       		.uleb128 0x21
 1459 0aae 3E0E0000 		.4byte	0xe3e
 1460 0ab2 00       		.byte	0
 1461 0ab3 22       		.uleb128 0x22
 1462 0ab4 9E070000 		.4byte	.LASF170
 1463 0ab8 02       		.byte	0x2
 1464 0ab9 0503     		.2byte	0x305
 1465 0abb 3D0C0000 		.4byte	.LASF171
 1466 0abf 1C010000 		.4byte	0x11c
 1467 0ac3 01       		.byte	0x1
 1468 0ac4 CC0A0000 		.4byte	0xacc
 1469 0ac8 D20A0000 		.4byte	0xad2
 1470 0acc 21       		.uleb128 0x21
 1471 0acd 3E0E0000 		.4byte	0xe3e
 1472 0ad1 00       		.byte	0
 1473 0ad2 23       		.uleb128 0x23
 1474 0ad3 19100000 		.4byte	.LASF172
 1475 0ad7 02       		.byte	0x2
 1476 0ad8 1203     		.2byte	0x312
 1477 0ada F9000000 		.4byte	.LASF173
 1478 0ade 01       		.byte	0x1
 1479 0adf E70A0000 		.4byte	0xae7
 1480 0ae3 F20A0000 		.4byte	0xaf2
 1481 0ae7 21       		.uleb128 0x21
 1482 0ae8 380E0000 		.4byte	0xe38
ARM GAS  /tmp/ccUbWPqb.s 			page 27


 1483 0aec 11       		.uleb128 0x11
 1484 0aed 1C010000 		.4byte	0x11c
 1485 0af1 00       		.byte	0
 1486 0af2 23       		.uleb128 0x23
 1487 0af3 9C010000 		.4byte	.LASF174
 1488 0af7 02       		.byte	0x2
 1489 0af8 2203     		.2byte	0x322
 1490 0afa 0C080000 		.4byte	.LASF175
 1491 0afe 01       		.byte	0x1
 1492 0aff 070B0000 		.4byte	0xb07
 1493 0b03 120B0000 		.4byte	0xb12
 1494 0b07 21       		.uleb128 0x21
 1495 0b08 3E0E0000 		.4byte	0xe3e
 1496 0b0c 11       		.uleb128 0x11
 1497 0b0d 32010000 		.4byte	0x132
 1498 0b11 00       		.byte	0
 1499 0b12 24       		.uleb128 0x24
 1500 0b13 23060000 		.4byte	.LASF176
 1501 0b17 02       		.byte	0x2
 1502 0b18 2E03     		.2byte	0x32e
 1503 0b1a 6A0A0000 		.4byte	.LASF177
 1504 0b1e 01       		.byte	0x1
 1505 0b1f 230B0000 		.4byte	0xb23
 1506 0b23 21       		.uleb128 0x21
 1507 0b24 3E0E0000 		.4byte	0xe3e
 1508 0b28 11       		.uleb128 0x11
 1509 0b29 32010000 		.4byte	0x132
 1510 0b2d 00       		.byte	0
 1511 0b2e 00       		.byte	0
 1512 0b2f 14       		.uleb128 0x14
 1513 0b30 69090000 		.4byte	0x969
 1514 0b34 25       		.uleb128 0x25
 1515 0b35 670F0000 		.4byte	.LASF180
 1516 0b39 04       		.byte	0x4
 1517 0b3a 02       		.byte	0x2
 1518 0b3b 8803     		.2byte	0x388
 1519 0b3d 340B0000 		.4byte	0xb34
 1520 0b41 210E0000 		.4byte	0xe21
 1521 0b45 26       		.uleb128 0x26
 1522 0b46 E1120000 		.4byte	.LASF178
 1523 0b4a 4F0E0000 		.4byte	0xe4f
 1524 0b4e 00       		.byte	0
 1525 0b4f 01       		.byte	0x1
 1526 0b50 27       		.uleb128 0x27
 1527 0b51 F70F0000 		.4byte	.LASF179
 1528 0b55 93030000 		.4byte	0x393
 1529 0b59 01       		.byte	0x1
 1530 0b5a 620B0000 		.4byte	0xb62
 1531 0b5e 6D0B0000 		.4byte	0xb6d
 1532 0b62 21       		.uleb128 0x21
 1533 0b63 5F0E0000 		.4byte	0xe5f
 1534 0b67 21       		.uleb128 0x21
 1535 0b68 25000000 		.4byte	0x25
 1536 0b6c 00       		.byte	0
 1537 0b6d 27       		.uleb128 0x27
 1538 0b6e 670F0000 		.4byte	.LASF180
 1539 0b72 5F0E0000 		.4byte	0xe5f
ARM GAS  /tmp/ccUbWPqb.s 			page 28


 1540 0b76 01       		.byte	0x1
 1541 0b77 7F0B0000 		.4byte	0xb7f
 1542 0b7b 8A0B0000 		.4byte	0xb8a
 1543 0b7f 21       		.uleb128 0x21
 1544 0b80 5F0E0000 		.4byte	0xe5f
 1545 0b84 11       		.uleb128 0x11
 1546 0b85 650E0000 		.4byte	0xe65
 1547 0b89 00       		.byte	0
 1548 0b8a 27       		.uleb128 0x27
 1549 0b8b 670F0000 		.4byte	.LASF180
 1550 0b8f 5F0E0000 		.4byte	0xe5f
 1551 0b93 01       		.byte	0x1
 1552 0b94 9C0B0000 		.4byte	0xb9c
 1553 0b98 A70B0000 		.4byte	0xba7
 1554 0b9c 21       		.uleb128 0x21
 1555 0b9d 5F0E0000 		.4byte	0xe5f
 1556 0ba1 11       		.uleb128 0x11
 1557 0ba2 6B0E0000 		.4byte	0xe6b
 1558 0ba6 00       		.byte	0
 1559 0ba7 20       		.uleb128 0x20
 1560 0ba8 670F0000 		.4byte	.LASF180
 1561 0bac 02       		.byte	0x2
 1562 0bad 8F03     		.2byte	0x38f
 1563 0baf 5F0E0000 		.4byte	0xe5f
 1564 0bb3 01       		.byte	0x1
 1565 0bb4 BC0B0000 		.4byte	0xbbc
 1566 0bb8 C20B0000 		.4byte	0xbc2
 1567 0bbc 21       		.uleb128 0x21
 1568 0bbd 5F0E0000 		.4byte	0xe5f
 1569 0bc1 00       		.byte	0
 1570 0bc2 28       		.uleb128 0x28
 1571 0bc3 1D020000 		.4byte	.LASF234
 1572 0bc7 02       		.byte	0x2
 1573 0bc8 9A03     		.2byte	0x39a
 1574 0bca 43090000 		.4byte	.LASF235
 1575 0bce 01       		.byte	0x1
 1576 0bcf 02       		.uleb128 0x2
 1577 0bd0 10       		.byte	0x10
 1578 0bd1 00       		.uleb128 0
 1579 0bd2 340B0000 		.4byte	0xb34
 1580 0bd6 01       		.byte	0x1
 1581 0bd7 DF0B0000 		.4byte	0xbdf
 1582 0bdb E50B0000 		.4byte	0xbe5
 1583 0bdf 21       		.uleb128 0x21
 1584 0be0 5F0E0000 		.4byte	0xe5f
 1585 0be4 00       		.byte	0
 1586 0be5 29       		.uleb128 0x29
 1587 0be6 C6100000 		.4byte	.LASF236
 1588 0bea 02       		.byte	0x2
 1589 0beb A503     		.2byte	0x3a5
 1590 0bed AA0A0000 		.4byte	.LASF237
 1591 0bf1 69090000 		.4byte	0x969
 1592 0bf5 01       		.byte	0x1
 1593 0bf6 02       		.uleb128 0x2
 1594 0bf7 10       		.byte	0x10
 1595 0bf8 01       		.uleb128 0x1
 1596 0bf9 340B0000 		.4byte	0xb34
ARM GAS  /tmp/ccUbWPqb.s 			page 29


 1597 0bfd 01       		.byte	0x1
 1598 0bfe 060C0000 		.4byte	0xc06
 1599 0c02 110C0000 		.4byte	0xc11
 1600 0c06 21       		.uleb128 0x21
 1601 0c07 5F0E0000 		.4byte	0xe5f
 1602 0c0b 11       		.uleb128 0x11
 1603 0c0c 11010000 		.4byte	0x111
 1604 0c10 00       		.byte	0
 1605 0c11 1D       		.uleb128 0x1d
 1606 0c12 D5080000 		.4byte	.LASF181
 1607 0c16 02       		.byte	0x2
 1608 0c17 AE03     		.2byte	0x3ae
 1609 0c19 8D080000 		.4byte	.LASF182
 1610 0c1d 69090000 		.4byte	0x969
 1611 0c21 01       		.byte	0x1
 1612 0c22 1C       		.uleb128 0x1c
 1613 0c23 D1110000 		.4byte	.LASF183
 1614 0c27 02       		.byte	0x2
 1615 0c28 BC03     		.2byte	0x3bc
 1616 0c2a 95100000 		.4byte	.LASF184
 1617 0c2e 01       		.byte	0x1
 1618 0c2f 390C0000 		.4byte	0xc39
 1619 0c33 11       		.uleb128 0x11
 1620 0c34 8B070000 		.4byte	0x78b
 1621 0c38 00       		.byte	0
 1622 0c39 1E       		.uleb128 0x1e
 1623 0c3a 500A0000 		.4byte	.LASF185
 1624 0c3e 02       		.byte	0x2
 1625 0c3f CD03     		.2byte	0x3cd
 1626 0c41 63030000 		.4byte	.LASF186
 1627 0c45 11010000 		.4byte	0x111
 1628 0c49 01       		.byte	0x1
 1629 0c4a 540C0000 		.4byte	0xc54
 1630 0c4e 11       		.uleb128 0x11
 1631 0c4f 11010000 		.4byte	0x111
 1632 0c53 00       		.byte	0
 1633 0c54 1D       		.uleb128 0x1d
 1634 0c55 A90F0000 		.4byte	.LASF187
 1635 0c59 02       		.byte	0x2
 1636 0c5a DA03     		.2byte	0x3da
 1637 0c5c EC050000 		.4byte	.LASF188
 1638 0c60 11010000 		.4byte	0x111
 1639 0c64 01       		.byte	0x1
 1640 0c65 1C       		.uleb128 0x1c
 1641 0c66 720F0000 		.4byte	.LASF189
 1642 0c6a 02       		.byte	0x2
 1643 0c6b ED03     		.2byte	0x3ed
 1644 0c6d E90A0000 		.4byte	.LASF190
 1645 0c71 01       		.byte	0x1
 1646 0c72 7C0C0000 		.4byte	0xc7c
 1647 0c76 11       		.uleb128 0x11
 1648 0c77 1C010000 		.4byte	0x11c
 1649 0c7b 00       		.byte	0
 1650 0c7c 1C       		.uleb128 0x1c
 1651 0c7d D30A0000 		.4byte	.LASF191
 1652 0c81 02       		.byte	0x2
 1653 0c82 0004     		.2byte	0x400
ARM GAS  /tmp/ccUbWPqb.s 			page 30


 1654 0c84 D1070000 		.4byte	.LASF192
 1655 0c88 01       		.byte	0x1
 1656 0c89 930C0000 		.4byte	0xc93
 1657 0c8d 11       		.uleb128 0x11
 1658 0c8e 1C010000 		.4byte	0x11c
 1659 0c92 00       		.byte	0
 1660 0c93 1D       		.uleb128 0x1d
 1661 0c94 DB030000 		.4byte	.LASF193
 1662 0c98 02       		.byte	0x2
 1663 0c99 0F04     		.2byte	0x40f
 1664 0c9b 6F070000 		.4byte	.LASF194
 1665 0c9f DB070000 		.4byte	0x7db
 1666 0ca3 01       		.byte	0x1
 1667 0ca4 1C       		.uleb128 0x1c
 1668 0ca5 BD060000 		.4byte	.LASF195
 1669 0ca9 02       		.byte	0x2
 1670 0caa 2004     		.2byte	0x420
 1671 0cac 250D0000 		.4byte	.LASF196
 1672 0cb0 01       		.byte	0x1
 1673 0cb1 BB0C0000 		.4byte	0xcbb
 1674 0cb5 11       		.uleb128 0x11
 1675 0cb6 D3040000 		.4byte	0x4d3
 1676 0cba 00       		.byte	0
 1677 0cbb 1C       		.uleb128 0x1c
 1678 0cbc 14110000 		.4byte	.LASF197
 1679 0cc0 02       		.byte	0x2
 1680 0cc1 2D04     		.2byte	0x42d
 1681 0cc3 A60D0000 		.4byte	.LASF198
 1682 0cc7 01       		.byte	0x1
 1683 0cc8 D20C0000 		.4byte	0xcd2
 1684 0ccc 11       		.uleb128 0x11
 1685 0ccd C8040000 		.4byte	0x4c8
 1686 0cd1 00       		.byte	0
 1687 0cd2 1E       		.uleb128 0x1e
 1688 0cd3 040A0000 		.4byte	.LASF199
 1689 0cd7 02       		.byte	0x2
 1690 0cd8 4004     		.2byte	0x440
 1691 0cda D60C0000 		.4byte	.LASF200
 1692 0cde C8040000 		.4byte	0x4c8
 1693 0ce2 01       		.byte	0x1
 1694 0ce3 F20C0000 		.4byte	0xcf2
 1695 0ce7 11       		.uleb128 0x11
 1696 0ce8 C8040000 		.4byte	0x4c8
 1697 0cec 11       		.uleb128 0x11
 1698 0ced C8040000 		.4byte	0x4c8
 1699 0cf1 00       		.byte	0
 1700 0cf2 2A       		.uleb128 0x2a
 1701 0cf3 6C010000 		.4byte	.LASF201
 1702 0cf7 02       		.byte	0x2
 1703 0cf8 4C04     		.2byte	0x44c
 1704 0cfa 98110000 		.4byte	.LASF223
 1705 0cfe 01       		.byte	0x1
 1706 0cff 1D       		.uleb128 0x1d
 1707 0d00 4B110000 		.4byte	.LASF202
 1708 0d04 02       		.byte	0x2
 1709 0d05 5C04     		.2byte	0x45c
 1710 0d07 C3060000 		.4byte	.LASF203
ARM GAS  /tmp/ccUbWPqb.s 			page 31


 1711 0d0b 69090000 		.4byte	0x969
 1712 0d0f 01       		.byte	0x1
 1713 0d10 1E       		.uleb128 0x1e
 1714 0d11 F2020000 		.4byte	.LASF204
 1715 0d15 02       		.byte	0x2
 1716 0d16 6B04     		.2byte	0x46b
 1717 0d18 FB0B0000 		.4byte	.LASF205
 1718 0d1c 32010000 		.4byte	0x132
 1719 0d20 01       		.byte	0x1
 1720 0d21 2B0D0000 		.4byte	0xd2b
 1721 0d25 11       		.uleb128 0x11
 1722 0d26 32010000 		.4byte	0x132
 1723 0d2a 00       		.byte	0
 1724 0d2b 1E       		.uleb128 0x1e
 1725 0d2c F10B0000 		.4byte	.LASF206
 1726 0d30 02       		.byte	0x2
 1727 0d31 7A04     		.2byte	0x47a
 1728 0d33 61110000 		.4byte	.LASF207
 1729 0d37 32010000 		.4byte	0x132
 1730 0d3b 01       		.byte	0x1
 1731 0d3c 460D0000 		.4byte	0xd46
 1732 0d40 11       		.uleb128 0x11
 1733 0d41 32010000 		.4byte	0x132
 1734 0d45 00       		.byte	0
 1735 0d46 1E       		.uleb128 0x1e
 1736 0d47 7B010000 		.4byte	.LASF208
 1737 0d4b 02       		.byte	0x2
 1738 0d4c 9004     		.2byte	0x490
 1739 0d4e 58050000 		.4byte	.LASF209
 1740 0d52 32010000 		.4byte	0x132
 1741 0d56 01       		.byte	0x1
 1742 0d57 610D0000 		.4byte	0xd61
 1743 0d5b 11       		.uleb128 0x11
 1744 0d5c 32010000 		.4byte	0x132
 1745 0d60 00       		.byte	0
 1746 0d61 1E       		.uleb128 0x1e
 1747 0d62 DC100000 		.4byte	.LASF210
 1748 0d66 02       		.byte	0x2
 1749 0d67 A104     		.2byte	0x4a1
 1750 0d69 69100000 		.4byte	.LASF211
 1751 0d6d 32010000 		.4byte	0x132
 1752 0d71 01       		.byte	0x1
 1753 0d72 7C0D0000 		.4byte	0xd7c
 1754 0d76 11       		.uleb128 0x11
 1755 0d77 32010000 		.4byte	0x132
 1756 0d7b 00       		.byte	0
 1757 0d7c 1E       		.uleb128 0x1e
 1758 0d7d 5C0A0000 		.4byte	.LASF212
 1759 0d81 02       		.byte	0x2
 1760 0d82 B104     		.2byte	0x4b1
 1761 0d84 A2120000 		.4byte	.LASF213
 1762 0d88 32010000 		.4byte	0x132
 1763 0d8c 01       		.byte	0x1
 1764 0d8d 970D0000 		.4byte	0xd97
 1765 0d91 11       		.uleb128 0x11
 1766 0d92 32010000 		.4byte	0x132
 1767 0d96 00       		.byte	0
ARM GAS  /tmp/ccUbWPqb.s 			page 32


 1768 0d97 1E       		.uleb128 0x1e
 1769 0d98 6D0C0000 		.4byte	.LASF214
 1770 0d9c 02       		.byte	0x2
 1771 0d9d CC04     		.2byte	0x4cc
 1772 0d9f 2C0F0000 		.4byte	.LASF215
 1773 0da3 32010000 		.4byte	0x132
 1774 0da7 01       		.byte	0x1
 1775 0da8 B70D0000 		.4byte	0xdb7
 1776 0dac 11       		.uleb128 0x11
 1777 0dad 32010000 		.4byte	0x132
 1778 0db1 11       		.uleb128 0x11
 1779 0db2 D3040000 		.4byte	0x4d3
 1780 0db6 00       		.byte	0
 1781 0db7 1E       		.uleb128 0x1e
 1782 0db8 090D0000 		.4byte	.LASF216
 1783 0dbc 02       		.byte	0x2
 1784 0dbd E104     		.2byte	0x4e1
 1785 0dbf 83060000 		.4byte	.LASF217
 1786 0dc3 32010000 		.4byte	0x132
 1787 0dc7 01       		.byte	0x1
 1788 0dc8 D70D0000 		.4byte	0xdd7
 1789 0dcc 11       		.uleb128 0x11
 1790 0dcd 32010000 		.4byte	0x132
 1791 0dd1 11       		.uleb128 0x11
 1792 0dd2 D3040000 		.4byte	0x4d3
 1793 0dd6 00       		.byte	0
 1794 0dd7 1E       		.uleb128 0x1e
 1795 0dd8 E9100000 		.4byte	.LASF218
 1796 0ddc 02       		.byte	0x2
 1797 0ddd F504     		.2byte	0x4f5
 1798 0ddf C20F0000 		.4byte	.LASF219
 1799 0de3 32010000 		.4byte	0x132
 1800 0de7 01       		.byte	0x1
 1801 0de8 F70D0000 		.4byte	0xdf7
 1802 0dec 11       		.uleb128 0x11
 1803 0ded 32010000 		.4byte	0x132
 1804 0df1 11       		.uleb128 0x11
 1805 0df2 D3040000 		.4byte	0x4d3
 1806 0df6 00       		.byte	0
 1807 0df7 1C       		.uleb128 0x1c
 1808 0df8 EA000000 		.4byte	.LASF220
 1809 0dfc 02       		.byte	0x2
 1810 0dfd 0505     		.2byte	0x505
 1811 0dff 4A0E0000 		.4byte	.LASF221
 1812 0e03 01       		.byte	0x1
 1813 0e04 130E0000 		.4byte	0xe13
 1814 0e08 11       		.uleb128 0x11
 1815 0e09 710E0000 		.4byte	0xe71
 1816 0e0d 11       		.uleb128 0x11
 1817 0e0e 32010000 		.4byte	0x132
 1818 0e12 00       		.byte	0
 1819 0e13 2A       		.uleb128 0x2a
 1820 0e14 40060000 		.4byte	.LASF222
 1821 0e18 02       		.byte	0x2
 1822 0e19 1805     		.2byte	0x518
 1823 0e1b 31120000 		.4byte	.LASF224
 1824 0e1f 01       		.byte	0x1
ARM GAS  /tmp/ccUbWPqb.s 			page 33


 1825 0e20 00       		.byte	0
 1826 0e21 14       		.uleb128 0x14
 1827 0e22 340B0000 		.4byte	0xb34
 1828 0e26 2B       		.uleb128 0x2b
 1829 0e27 450A0000 		.4byte	.LASF238
 1830 0e2b 03       		.byte	0x3
 1831 0e2c 27       		.byte	0x27
 1832 0e2d 7C0F0000 		.4byte	.LASF239
 1833 0e31 11       		.uleb128 0x11
 1834 0e32 93030000 		.4byte	0x393
 1835 0e36 00       		.byte	0
 1836 0e37 00       		.byte	0
 1837 0e38 0E       		.uleb128 0xe
 1838 0e39 04       		.byte	0x4
 1839 0e3a 69090000 		.4byte	0x969
 1840 0e3e 0E       		.uleb128 0xe
 1841 0e3f 04       		.byte	0x4
 1842 0e40 2F0B0000 		.4byte	0xb2f
 1843 0e44 2C       		.uleb128 0x2c
 1844 0e45 25000000 		.4byte	0x25
 1845 0e49 4F0E0000 		.4byte	0xe4f
 1846 0e4d 2D       		.uleb128 0x2d
 1847 0e4e 00       		.byte	0
 1848 0e4f 0E       		.uleb128 0xe
 1849 0e50 04       		.byte	0x4
 1850 0e51 550E0000 		.4byte	0xe55
 1851 0e55 2E       		.uleb128 0x2e
 1852 0e56 04       		.byte	0x4
 1853 0e57 AF000000 		.4byte	.LASF240
 1854 0e5b 440E0000 		.4byte	0xe44
 1855 0e5f 0E       		.uleb128 0xe
 1856 0e60 04       		.byte	0x4
 1857 0e61 340B0000 		.4byte	0xb34
 1858 0e65 2F       		.uleb128 0x2f
 1859 0e66 04       		.byte	0x4
 1860 0e67 340B0000 		.4byte	0xb34
 1861 0e6b 30       		.uleb128 0x30
 1862 0e6c 04       		.byte	0x4
 1863 0e6d 210E0000 		.4byte	0xe21
 1864 0e71 0E       		.uleb128 0xe
 1865 0e72 04       		.byte	0x4
 1866 0e73 770E0000 		.4byte	0xe77
 1867 0e77 14       		.uleb128 0x14
 1868 0e78 BF070000 		.4byte	0x7bf
 1869 0e7c 31       		.uleb128 0x31
 1870 0e7d 88010000 		.4byte	.LASF241
 1871 0e81 01       		.byte	0x1
 1872 0e82 CD01     		.2byte	0x1cd
 1873 0e84 B6020000 		.4byte	0x2b6
 1874 0e88 00000000 		.4byte	.LFB190
 1875 0e8c 0C000000 		.4byte	.LFE190-.LFB190
 1876 0e90 01       		.uleb128 0x1
 1877 0e91 9C       		.byte	0x9c
 1878 0e92 32       		.uleb128 0x32
 1879 0e93 9E090000 		.4byte	0x99e
 1880 0e97 02       		.byte	0x2
 1881 0e98 A00E0000 		.4byte	0xea0
ARM GAS  /tmp/ccUbWPqb.s 			page 34


 1882 0e9c B50E0000 		.4byte	0xeb5
 1883 0ea0 33       		.uleb128 0x33
 1884 0ea1 5F080000 		.4byte	.LASF242
 1885 0ea5 B50E0000 		.4byte	0xeb5
 1886 0ea9 34       		.uleb128 0x34
 1887 0eaa 747000   		.ascii	"tp\000"
 1888 0ead 02       		.byte	0x2
 1889 0eae 6E02     		.2byte	0x26e
 1890 0eb0 B6020000 		.4byte	0x2b6
 1891 0eb4 00       		.byte	0
 1892 0eb5 14       		.uleb128 0x14
 1893 0eb6 380E0000 		.4byte	0xe38
 1894 0eba 35       		.uleb128 0x35
 1895 0ebb 920E0000 		.4byte	0xe92
 1896 0ebf 29050000 		.4byte	.LASF243
 1897 0ec3 00000000 		.4byte	.LFB329
 1898 0ec7 14000000 		.4byte	.LFE329-.LFB329
 1899 0ecb 01       		.uleb128 0x1
 1900 0ecc 9C       		.byte	0x9c
 1901 0ecd D50E0000 		.4byte	0xed5
 1902 0ed1 E60E0000 		.4byte	0xee6
 1903 0ed5 36       		.uleb128 0x36
 1904 0ed6 A00E0000 		.4byte	0xea0
 1905 0eda 02       		.uleb128 0x2
 1906 0edb 91       		.byte	0x91
 1907 0edc 7C       		.sleb128 -4
 1908 0edd 36       		.uleb128 0x36
 1909 0ede A90E0000 		.4byte	0xea9
 1910 0ee2 02       		.uleb128 0x2
 1911 0ee3 91       		.byte	0x91
 1912 0ee4 78       		.sleb128 -8
 1913 0ee5 00       		.byte	0
 1914 0ee6 37       		.uleb128 0x37
 1915 0ee7 57090000 		.4byte	0x957
 1916 0eeb 03       		.byte	0x3
 1917 0eec 1D       		.byte	0x1d
 1918 0eed 00000000 		.4byte	.LFB486
 1919 0ef1 1E000000 		.4byte	.LFE486-.LFB486
 1920 0ef5 01       		.uleb128 0x1
 1921 0ef6 9C       		.byte	0x9c
 1922 0ef7 38       		.uleb128 0x38
 1923 0ef8 260E0000 		.4byte	0xe26
 1924 0efc 00000000 		.4byte	.LFB487
 1925 0f00 16000000 		.4byte	.LFE487-.LFB487
 1926 0f04 01       		.uleb128 0x1
 1927 0f05 9C       		.byte	0x9c
 1928 0f06 190F0000 		.4byte	0xf19
 1929 0f0a 39       		.uleb128 0x39
 1930 0f0b 61726700 		.ascii	"arg\000"
 1931 0f0f 03       		.byte	0x3
 1932 0f10 27       		.byte	0x27
 1933 0f11 93030000 		.4byte	0x393
 1934 0f15 02       		.uleb128 0x2
 1935 0f16 91       		.byte	0x91
 1936 0f17 74       		.sleb128 -12
 1937 0f18 00       		.byte	0
 1938 0f19 3A       		.uleb128 0x3a
ARM GAS  /tmp/ccUbWPqb.s 			page 35


 1939 0f1a 9D0A0000 		.4byte	.LASF225
 1940 0f1e 11       		.byte	0x11
 1941 0f1f 0408     		.2byte	0x804
 1942 0f21 250F0000 		.4byte	0xf25
 1943 0f25 15       		.uleb128 0x15
 1944 0f26 AE000000 		.4byte	0xae
 1945 0f2a 3B       		.uleb128 0x3b
 1946 0f2b 636800   		.ascii	"ch\000"
 1947 0f2e 08       		.byte	0x8
 1948 0f2f C701     		.2byte	0x1c7
 1949 0f31 62040000 		.4byte	0x462
 1950 0f35 00       		.byte	0
 1951              		.section	.debug_abbrev,"",%progbits
 1952              	.Ldebug_abbrev0:
 1953 0000 01       		.uleb128 0x1
 1954 0001 11       		.uleb128 0x11
 1955 0002 01       		.byte	0x1
 1956 0003 25       		.uleb128 0x25
 1957 0004 0E       		.uleb128 0xe
 1958 0005 13       		.uleb128 0x13
 1959 0006 0B       		.uleb128 0xb
 1960 0007 03       		.uleb128 0x3
 1961 0008 0E       		.uleb128 0xe
 1962 0009 1B       		.uleb128 0x1b
 1963 000a 0E       		.uleb128 0xe
 1964 000b 55       		.uleb128 0x55
 1965 000c 17       		.uleb128 0x17
 1966 000d 11       		.uleb128 0x11
 1967 000e 01       		.uleb128 0x1
 1968 000f 10       		.uleb128 0x10
 1969 0010 17       		.uleb128 0x17
 1970 0011 00       		.byte	0
 1971 0012 00       		.byte	0
 1972 0013 02       		.uleb128 0x2
 1973 0014 24       		.uleb128 0x24
 1974 0015 00       		.byte	0
 1975 0016 0B       		.uleb128 0xb
 1976 0017 0B       		.uleb128 0xb
 1977 0018 3E       		.uleb128 0x3e
 1978 0019 0B       		.uleb128 0xb
 1979 001a 03       		.uleb128 0x3
 1980 001b 08       		.uleb128 0x8
 1981 001c 00       		.byte	0
 1982 001d 00       		.byte	0
 1983 001e 03       		.uleb128 0x3
 1984 001f 24       		.uleb128 0x24
 1985 0020 00       		.byte	0
 1986 0021 0B       		.uleb128 0xb
 1987 0022 0B       		.uleb128 0xb
 1988 0023 3E       		.uleb128 0x3e
 1989 0024 0B       		.uleb128 0xb
 1990 0025 03       		.uleb128 0x3
 1991 0026 0E       		.uleb128 0xe
 1992 0027 00       		.byte	0
 1993 0028 00       		.byte	0
 1994 0029 04       		.uleb128 0x4
 1995 002a 3B       		.uleb128 0x3b
ARM GAS  /tmp/ccUbWPqb.s 			page 36


 1996 002b 00       		.byte	0
 1997 002c 03       		.uleb128 0x3
 1998 002d 0E       		.uleb128 0xe
 1999 002e 00       		.byte	0
 2000 002f 00       		.byte	0
 2001 0030 05       		.uleb128 0x5
 2002 0031 16       		.uleb128 0x16
 2003 0032 00       		.byte	0
 2004 0033 03       		.uleb128 0x3
 2005 0034 0E       		.uleb128 0xe
 2006 0035 3A       		.uleb128 0x3a
 2007 0036 0B       		.uleb128 0xb
 2008 0037 3B       		.uleb128 0x3b
 2009 0038 0B       		.uleb128 0xb
 2010 0039 49       		.uleb128 0x49
 2011 003a 13       		.uleb128 0x13
 2012 003b 00       		.byte	0
 2013 003c 00       		.byte	0
 2014 003d 06       		.uleb128 0x6
 2015 003e 13       		.uleb128 0x13
 2016 003f 01       		.byte	0x1
 2017 0040 03       		.uleb128 0x3
 2018 0041 0E       		.uleb128 0xe
 2019 0042 0B       		.uleb128 0xb
 2020 0043 0B       		.uleb128 0xb
 2021 0044 3A       		.uleb128 0x3a
 2022 0045 0B       		.uleb128 0xb
 2023 0046 3B       		.uleb128 0x3b
 2024 0047 0B       		.uleb128 0xb
 2025 0048 01       		.uleb128 0x1
 2026 0049 13       		.uleb128 0x13
 2027 004a 00       		.byte	0
 2028 004b 00       		.byte	0
 2029 004c 07       		.uleb128 0x7
 2030 004d 17       		.uleb128 0x17
 2031 004e 01       		.byte	0x1
 2032 004f 0B       		.uleb128 0xb
 2033 0050 0B       		.uleb128 0xb
 2034 0051 3A       		.uleb128 0x3a
 2035 0052 0B       		.uleb128 0xb
 2036 0053 3B       		.uleb128 0x3b
 2037 0054 0B       		.uleb128 0xb
 2038 0055 01       		.uleb128 0x1
 2039 0056 13       		.uleb128 0x13
 2040 0057 00       		.byte	0
 2041 0058 00       		.byte	0
 2042 0059 08       		.uleb128 0x8
 2043 005a 0D       		.uleb128 0xd
 2044 005b 00       		.byte	0
 2045 005c 03       		.uleb128 0x3
 2046 005d 0E       		.uleb128 0xe
 2047 005e 3A       		.uleb128 0x3a
 2048 005f 0B       		.uleb128 0xb
 2049 0060 3B       		.uleb128 0x3b
 2050 0061 0B       		.uleb128 0xb
 2051 0062 49       		.uleb128 0x49
 2052 0063 13       		.uleb128 0x13
ARM GAS  /tmp/ccUbWPqb.s 			page 37


 2053 0064 00       		.byte	0
 2054 0065 00       		.byte	0
 2055 0066 09       		.uleb128 0x9
 2056 0067 0D       		.uleb128 0xd
 2057 0068 00       		.byte	0
 2058 0069 03       		.uleb128 0x3
 2059 006a 0E       		.uleb128 0xe
 2060 006b 3A       		.uleb128 0x3a
 2061 006c 0B       		.uleb128 0xb
 2062 006d 3B       		.uleb128 0x3b
 2063 006e 05       		.uleb128 0x5
 2064 006f 49       		.uleb128 0x49
 2065 0070 13       		.uleb128 0x13
 2066 0071 00       		.byte	0
 2067 0072 00       		.byte	0
 2068 0073 0A       		.uleb128 0xa
 2069 0074 0D       		.uleb128 0xd
 2070 0075 00       		.byte	0
 2071 0076 03       		.uleb128 0x3
 2072 0077 0E       		.uleb128 0xe
 2073 0078 3A       		.uleb128 0x3a
 2074 0079 0B       		.uleb128 0xb
 2075 007a 3B       		.uleb128 0x3b
 2076 007b 0B       		.uleb128 0xb
 2077 007c 49       		.uleb128 0x49
 2078 007d 13       		.uleb128 0x13
 2079 007e 38       		.uleb128 0x38
 2080 007f 0B       		.uleb128 0xb
 2081 0080 00       		.byte	0
 2082 0081 00       		.byte	0
 2083 0082 0B       		.uleb128 0xb
 2084 0083 0D       		.uleb128 0xd
 2085 0084 00       		.byte	0
 2086 0085 03       		.uleb128 0x3
 2087 0086 08       		.uleb128 0x8
 2088 0087 3A       		.uleb128 0x3a
 2089 0088 0B       		.uleb128 0xb
 2090 0089 3B       		.uleb128 0x3b
 2091 008a 0B       		.uleb128 0xb
 2092 008b 49       		.uleb128 0x49
 2093 008c 13       		.uleb128 0x13
 2094 008d 38       		.uleb128 0x38
 2095 008e 0B       		.uleb128 0xb
 2096 008f 00       		.byte	0
 2097 0090 00       		.byte	0
 2098 0091 0C       		.uleb128 0xc
 2099 0092 0D       		.uleb128 0xd
 2100 0093 00       		.byte	0
 2101 0094 03       		.uleb128 0x3
 2102 0095 08       		.uleb128 0x8
 2103 0096 3A       		.uleb128 0x3a
 2104 0097 0B       		.uleb128 0xb
 2105 0098 3B       		.uleb128 0x3b
 2106 0099 05       		.uleb128 0x5
 2107 009a 49       		.uleb128 0x49
 2108 009b 13       		.uleb128 0x13
 2109 009c 38       		.uleb128 0x38
ARM GAS  /tmp/ccUbWPqb.s 			page 38


 2110 009d 0B       		.uleb128 0xb
 2111 009e 00       		.byte	0
 2112 009f 00       		.byte	0
 2113 00a0 0D       		.uleb128 0xd
 2114 00a1 0D       		.uleb128 0xd
 2115 00a2 00       		.byte	0
 2116 00a3 03       		.uleb128 0x3
 2117 00a4 0E       		.uleb128 0xe
 2118 00a5 3A       		.uleb128 0x3a
 2119 00a6 0B       		.uleb128 0xb
 2120 00a7 3B       		.uleb128 0x3b
 2121 00a8 05       		.uleb128 0x5
 2122 00a9 49       		.uleb128 0x49
 2123 00aa 13       		.uleb128 0x13
 2124 00ab 38       		.uleb128 0x38
 2125 00ac 0B       		.uleb128 0xb
 2126 00ad 00       		.byte	0
 2127 00ae 00       		.byte	0
 2128 00af 0E       		.uleb128 0xe
 2129 00b0 0F       		.uleb128 0xf
 2130 00b1 00       		.byte	0
 2131 00b2 0B       		.uleb128 0xb
 2132 00b3 0B       		.uleb128 0xb
 2133 00b4 49       		.uleb128 0x49
 2134 00b5 13       		.uleb128 0x13
 2135 00b6 00       		.byte	0
 2136 00b7 00       		.byte	0
 2137 00b8 0F       		.uleb128 0xf
 2138 00b9 13       		.uleb128 0x13
 2139 00ba 01       		.byte	0x1
 2140 00bb 03       		.uleb128 0x3
 2141 00bc 0E       		.uleb128 0xe
 2142 00bd 0B       		.uleb128 0xb
 2143 00be 0B       		.uleb128 0xb
 2144 00bf 3A       		.uleb128 0x3a
 2145 00c0 0B       		.uleb128 0xb
 2146 00c1 3B       		.uleb128 0x3b
 2147 00c2 05       		.uleb128 0x5
 2148 00c3 01       		.uleb128 0x1
 2149 00c4 13       		.uleb128 0x13
 2150 00c5 00       		.byte	0
 2151 00c6 00       		.byte	0
 2152 00c7 10       		.uleb128 0x10
 2153 00c8 15       		.uleb128 0x15
 2154 00c9 01       		.byte	0x1
 2155 00ca 01       		.uleb128 0x1
 2156 00cb 13       		.uleb128 0x13
 2157 00cc 00       		.byte	0
 2158 00cd 00       		.byte	0
 2159 00ce 11       		.uleb128 0x11
 2160 00cf 05       		.uleb128 0x5
 2161 00d0 00       		.byte	0
 2162 00d1 49       		.uleb128 0x49
 2163 00d2 13       		.uleb128 0x13
 2164 00d3 00       		.byte	0
 2165 00d4 00       		.byte	0
 2166 00d5 12       		.uleb128 0x12
ARM GAS  /tmp/ccUbWPqb.s 			page 39


 2167 00d6 0F       		.uleb128 0xf
 2168 00d7 00       		.byte	0
 2169 00d8 0B       		.uleb128 0xb
 2170 00d9 0B       		.uleb128 0xb
 2171 00da 00       		.byte	0
 2172 00db 00       		.byte	0
 2173 00dc 13       		.uleb128 0x13
 2174 00dd 13       		.uleb128 0x13
 2175 00de 01       		.byte	0x1
 2176 00df 0B       		.uleb128 0xb
 2177 00e0 0B       		.uleb128 0xb
 2178 00e1 3A       		.uleb128 0x3a
 2179 00e2 0B       		.uleb128 0xb
 2180 00e3 3B       		.uleb128 0x3b
 2181 00e4 0B       		.uleb128 0xb
 2182 00e5 6E       		.uleb128 0x6e
 2183 00e6 0E       		.uleb128 0xe
 2184 00e7 01       		.uleb128 0x1
 2185 00e8 13       		.uleb128 0x13
 2186 00e9 00       		.byte	0
 2187 00ea 00       		.byte	0
 2188 00eb 14       		.uleb128 0x14
 2189 00ec 26       		.uleb128 0x26
 2190 00ed 00       		.byte	0
 2191 00ee 49       		.uleb128 0x49
 2192 00ef 13       		.uleb128 0x13
 2193 00f0 00       		.byte	0
 2194 00f1 00       		.byte	0
 2195 00f2 15       		.uleb128 0x15
 2196 00f3 35       		.uleb128 0x35
 2197 00f4 00       		.byte	0
 2198 00f5 49       		.uleb128 0x49
 2199 00f6 13       		.uleb128 0x13
 2200 00f7 00       		.byte	0
 2201 00f8 00       		.byte	0
 2202 00f9 16       		.uleb128 0x16
 2203 00fa 39       		.uleb128 0x39
 2204 00fb 01       		.byte	0x1
 2205 00fc 03       		.uleb128 0x3
 2206 00fd 0E       		.uleb128 0xe
 2207 00fe 3A       		.uleb128 0x3a
 2208 00ff 0B       		.uleb128 0xb
 2209 0100 3B       		.uleb128 0x3b
 2210 0101 0B       		.uleb128 0xb
 2211 0102 01       		.uleb128 0x1
 2212 0103 13       		.uleb128 0x13
 2213 0104 00       		.byte	0
 2214 0105 00       		.byte	0
 2215 0106 17       		.uleb128 0x17
 2216 0107 02       		.uleb128 0x2
 2217 0108 01       		.byte	0x1
 2218 0109 03       		.uleb128 0x3
 2219 010a 0E       		.uleb128 0xe
 2220 010b 0B       		.uleb128 0xb
 2221 010c 0B       		.uleb128 0xb
 2222 010d 3A       		.uleb128 0x3a
 2223 010e 0B       		.uleb128 0xb
ARM GAS  /tmp/ccUbWPqb.s 			page 40


 2224 010f 3B       		.uleb128 0x3b
 2225 0110 0B       		.uleb128 0xb
 2226 0111 01       		.uleb128 0x1
 2227 0112 13       		.uleb128 0x13
 2228 0113 00       		.byte	0
 2229 0114 00       		.byte	0
 2230 0115 18       		.uleb128 0x18
 2231 0116 2E       		.uleb128 0x2e
 2232 0117 00       		.byte	0
 2233 0118 3F       		.uleb128 0x3f
 2234 0119 19       		.uleb128 0x19
 2235 011a 03       		.uleb128 0x3
 2236 011b 0E       		.uleb128 0xe
 2237 011c 3A       		.uleb128 0x3a
 2238 011d 0B       		.uleb128 0xb
 2239 011e 3B       		.uleb128 0x3b
 2240 011f 0B       		.uleb128 0xb
 2241 0120 6E       		.uleb128 0x6e
 2242 0121 0E       		.uleb128 0xe
 2243 0122 32       		.uleb128 0x32
 2244 0123 0B       		.uleb128 0xb
 2245 0124 3C       		.uleb128 0x3c
 2246 0125 19       		.uleb128 0x19
 2247 0126 00       		.byte	0
 2248 0127 00       		.byte	0
 2249 0128 19       		.uleb128 0x19
 2250 0129 2E       		.uleb128 0x2e
 2251 012a 01       		.byte	0x1
 2252 012b 3F       		.uleb128 0x3f
 2253 012c 19       		.uleb128 0x19
 2254 012d 03       		.uleb128 0x3
 2255 012e 0E       		.uleb128 0xe
 2256 012f 3A       		.uleb128 0x3a
 2257 0130 0B       		.uleb128 0xb
 2258 0131 3B       		.uleb128 0x3b
 2259 0132 0B       		.uleb128 0xb
 2260 0133 6E       		.uleb128 0x6e
 2261 0134 0E       		.uleb128 0xe
 2262 0135 32       		.uleb128 0x32
 2263 0136 0B       		.uleb128 0xb
 2264 0137 3C       		.uleb128 0x3c
 2265 0138 19       		.uleb128 0x19
 2266 0139 01       		.uleb128 0x1
 2267 013a 13       		.uleb128 0x13
 2268 013b 00       		.byte	0
 2269 013c 00       		.byte	0
 2270 013d 1A       		.uleb128 0x1a
 2271 013e 2E       		.uleb128 0x2e
 2272 013f 01       		.byte	0x1
 2273 0140 3F       		.uleb128 0x3f
 2274 0141 19       		.uleb128 0x19
 2275 0142 03       		.uleb128 0x3
 2276 0143 0E       		.uleb128 0xe
 2277 0144 3A       		.uleb128 0x3a
 2278 0145 0B       		.uleb128 0xb
 2279 0146 3B       		.uleb128 0x3b
 2280 0147 0B       		.uleb128 0xb
ARM GAS  /tmp/ccUbWPqb.s 			page 41


 2281 0148 6E       		.uleb128 0x6e
 2282 0149 0E       		.uleb128 0xe
 2283 014a 49       		.uleb128 0x49
 2284 014b 13       		.uleb128 0x13
 2285 014c 32       		.uleb128 0x32
 2286 014d 0B       		.uleb128 0xb
 2287 014e 3C       		.uleb128 0x3c
 2288 014f 19       		.uleb128 0x19
 2289 0150 01       		.uleb128 0x1
 2290 0151 13       		.uleb128 0x13
 2291 0152 00       		.byte	0
 2292 0153 00       		.byte	0
 2293 0154 1B       		.uleb128 0x1b
 2294 0155 2E       		.uleb128 0x2e
 2295 0156 00       		.byte	0
 2296 0157 3F       		.uleb128 0x3f
 2297 0158 19       		.uleb128 0x19
 2298 0159 03       		.uleb128 0x3
 2299 015a 0E       		.uleb128 0xe
 2300 015b 3A       		.uleb128 0x3a
 2301 015c 0B       		.uleb128 0xb
 2302 015d 3B       		.uleb128 0x3b
 2303 015e 0B       		.uleb128 0xb
 2304 015f 6E       		.uleb128 0x6e
 2305 0160 0E       		.uleb128 0xe
 2306 0161 49       		.uleb128 0x49
 2307 0162 13       		.uleb128 0x13
 2308 0163 32       		.uleb128 0x32
 2309 0164 0B       		.uleb128 0xb
 2310 0165 3C       		.uleb128 0x3c
 2311 0166 19       		.uleb128 0x19
 2312 0167 00       		.byte	0
 2313 0168 00       		.byte	0
 2314 0169 1C       		.uleb128 0x1c
 2315 016a 2E       		.uleb128 0x2e
 2316 016b 01       		.byte	0x1
 2317 016c 3F       		.uleb128 0x3f
 2318 016d 19       		.uleb128 0x19
 2319 016e 03       		.uleb128 0x3
 2320 016f 0E       		.uleb128 0xe
 2321 0170 3A       		.uleb128 0x3a
 2322 0171 0B       		.uleb128 0xb
 2323 0172 3B       		.uleb128 0x3b
 2324 0173 05       		.uleb128 0x5
 2325 0174 6E       		.uleb128 0x6e
 2326 0175 0E       		.uleb128 0xe
 2327 0176 32       		.uleb128 0x32
 2328 0177 0B       		.uleb128 0xb
 2329 0178 3C       		.uleb128 0x3c
 2330 0179 19       		.uleb128 0x19
 2331 017a 01       		.uleb128 0x1
 2332 017b 13       		.uleb128 0x13
 2333 017c 00       		.byte	0
 2334 017d 00       		.byte	0
 2335 017e 1D       		.uleb128 0x1d
 2336 017f 2E       		.uleb128 0x2e
 2337 0180 00       		.byte	0
ARM GAS  /tmp/ccUbWPqb.s 			page 42


 2338 0181 3F       		.uleb128 0x3f
 2339 0182 19       		.uleb128 0x19
 2340 0183 03       		.uleb128 0x3
 2341 0184 0E       		.uleb128 0xe
 2342 0185 3A       		.uleb128 0x3a
 2343 0186 0B       		.uleb128 0xb
 2344 0187 3B       		.uleb128 0x3b
 2345 0188 05       		.uleb128 0x5
 2346 0189 6E       		.uleb128 0x6e
 2347 018a 0E       		.uleb128 0xe
 2348 018b 49       		.uleb128 0x49
 2349 018c 13       		.uleb128 0x13
 2350 018d 32       		.uleb128 0x32
 2351 018e 0B       		.uleb128 0xb
 2352 018f 3C       		.uleb128 0x3c
 2353 0190 19       		.uleb128 0x19
 2354 0191 00       		.byte	0
 2355 0192 00       		.byte	0
 2356 0193 1E       		.uleb128 0x1e
 2357 0194 2E       		.uleb128 0x2e
 2358 0195 01       		.byte	0x1
 2359 0196 3F       		.uleb128 0x3f
 2360 0197 19       		.uleb128 0x19
 2361 0198 03       		.uleb128 0x3
 2362 0199 0E       		.uleb128 0xe
 2363 019a 3A       		.uleb128 0x3a
 2364 019b 0B       		.uleb128 0xb
 2365 019c 3B       		.uleb128 0x3b
 2366 019d 05       		.uleb128 0x5
 2367 019e 6E       		.uleb128 0x6e
 2368 019f 0E       		.uleb128 0xe
 2369 01a0 49       		.uleb128 0x49
 2370 01a1 13       		.uleb128 0x13
 2371 01a2 32       		.uleb128 0x32
 2372 01a3 0B       		.uleb128 0xb
 2373 01a4 3C       		.uleb128 0x3c
 2374 01a5 19       		.uleb128 0x19
 2375 01a6 01       		.uleb128 0x1
 2376 01a7 13       		.uleb128 0x13
 2377 01a8 00       		.byte	0
 2378 01a9 00       		.byte	0
 2379 01aa 1F       		.uleb128 0x1f
 2380 01ab 02       		.uleb128 0x2
 2381 01ac 01       		.byte	0x1
 2382 01ad 03       		.uleb128 0x3
 2383 01ae 0E       		.uleb128 0xe
 2384 01af 0B       		.uleb128 0xb
 2385 01b0 0B       		.uleb128 0xb
 2386 01b1 3A       		.uleb128 0x3a
 2387 01b2 0B       		.uleb128 0xb
 2388 01b3 3B       		.uleb128 0x3b
 2389 01b4 05       		.uleb128 0x5
 2390 01b5 01       		.uleb128 0x1
 2391 01b6 13       		.uleb128 0x13
 2392 01b7 00       		.byte	0
 2393 01b8 00       		.byte	0
 2394 01b9 20       		.uleb128 0x20
ARM GAS  /tmp/ccUbWPqb.s 			page 43


 2395 01ba 2E       		.uleb128 0x2e
 2396 01bb 01       		.byte	0x1
 2397 01bc 3F       		.uleb128 0x3f
 2398 01bd 19       		.uleb128 0x19
 2399 01be 03       		.uleb128 0x3
 2400 01bf 0E       		.uleb128 0xe
 2401 01c0 3A       		.uleb128 0x3a
 2402 01c1 0B       		.uleb128 0xb
 2403 01c2 3B       		.uleb128 0x3b
 2404 01c3 05       		.uleb128 0x5
 2405 01c4 49       		.uleb128 0x49
 2406 01c5 13       		.uleb128 0x13
 2407 01c6 32       		.uleb128 0x32
 2408 01c7 0B       		.uleb128 0xb
 2409 01c8 3C       		.uleb128 0x3c
 2410 01c9 19       		.uleb128 0x19
 2411 01ca 64       		.uleb128 0x64
 2412 01cb 13       		.uleb128 0x13
 2413 01cc 01       		.uleb128 0x1
 2414 01cd 13       		.uleb128 0x13
 2415 01ce 00       		.byte	0
 2416 01cf 00       		.byte	0
 2417 01d0 21       		.uleb128 0x21
 2418 01d1 05       		.uleb128 0x5
 2419 01d2 00       		.byte	0
 2420 01d3 49       		.uleb128 0x49
 2421 01d4 13       		.uleb128 0x13
 2422 01d5 34       		.uleb128 0x34
 2423 01d6 19       		.uleb128 0x19
 2424 01d7 00       		.byte	0
 2425 01d8 00       		.byte	0
 2426 01d9 22       		.uleb128 0x22
 2427 01da 2E       		.uleb128 0x2e
 2428 01db 01       		.byte	0x1
 2429 01dc 3F       		.uleb128 0x3f
 2430 01dd 19       		.uleb128 0x19
 2431 01de 03       		.uleb128 0x3
 2432 01df 0E       		.uleb128 0xe
 2433 01e0 3A       		.uleb128 0x3a
 2434 01e1 0B       		.uleb128 0xb
 2435 01e2 3B       		.uleb128 0x3b
 2436 01e3 05       		.uleb128 0x5
 2437 01e4 6E       		.uleb128 0x6e
 2438 01e5 0E       		.uleb128 0xe
 2439 01e6 49       		.uleb128 0x49
 2440 01e7 13       		.uleb128 0x13
 2441 01e8 32       		.uleb128 0x32
 2442 01e9 0B       		.uleb128 0xb
 2443 01ea 3C       		.uleb128 0x3c
 2444 01eb 19       		.uleb128 0x19
 2445 01ec 64       		.uleb128 0x64
 2446 01ed 13       		.uleb128 0x13
 2447 01ee 01       		.uleb128 0x1
 2448 01ef 13       		.uleb128 0x13
 2449 01f0 00       		.byte	0
 2450 01f1 00       		.byte	0
 2451 01f2 23       		.uleb128 0x23
ARM GAS  /tmp/ccUbWPqb.s 			page 44


 2452 01f3 2E       		.uleb128 0x2e
 2453 01f4 01       		.byte	0x1
 2454 01f5 3F       		.uleb128 0x3f
 2455 01f6 19       		.uleb128 0x19
 2456 01f7 03       		.uleb128 0x3
 2457 01f8 0E       		.uleb128 0xe
 2458 01f9 3A       		.uleb128 0x3a
 2459 01fa 0B       		.uleb128 0xb
 2460 01fb 3B       		.uleb128 0x3b
 2461 01fc 05       		.uleb128 0x5
 2462 01fd 6E       		.uleb128 0x6e
 2463 01fe 0E       		.uleb128 0xe
 2464 01ff 32       		.uleb128 0x32
 2465 0200 0B       		.uleb128 0xb
 2466 0201 3C       		.uleb128 0x3c
 2467 0202 19       		.uleb128 0x19
 2468 0203 64       		.uleb128 0x64
 2469 0204 13       		.uleb128 0x13
 2470 0205 01       		.uleb128 0x1
 2471 0206 13       		.uleb128 0x13
 2472 0207 00       		.byte	0
 2473 0208 00       		.byte	0
 2474 0209 24       		.uleb128 0x24
 2475 020a 2E       		.uleb128 0x2e
 2476 020b 01       		.byte	0x1
 2477 020c 3F       		.uleb128 0x3f
 2478 020d 19       		.uleb128 0x19
 2479 020e 03       		.uleb128 0x3
 2480 020f 0E       		.uleb128 0xe
 2481 0210 3A       		.uleb128 0x3a
 2482 0211 0B       		.uleb128 0xb
 2483 0212 3B       		.uleb128 0x3b
 2484 0213 05       		.uleb128 0x5
 2485 0214 6E       		.uleb128 0x6e
 2486 0215 0E       		.uleb128 0xe
 2487 0216 32       		.uleb128 0x32
 2488 0217 0B       		.uleb128 0xb
 2489 0218 3C       		.uleb128 0x3c
 2490 0219 19       		.uleb128 0x19
 2491 021a 64       		.uleb128 0x64
 2492 021b 13       		.uleb128 0x13
 2493 021c 00       		.byte	0
 2494 021d 00       		.byte	0
 2495 021e 25       		.uleb128 0x25
 2496 021f 02       		.uleb128 0x2
 2497 0220 01       		.byte	0x1
 2498 0221 03       		.uleb128 0x3
 2499 0222 0E       		.uleb128 0xe
 2500 0223 0B       		.uleb128 0xb
 2501 0224 0B       		.uleb128 0xb
 2502 0225 3A       		.uleb128 0x3a
 2503 0226 0B       		.uleb128 0xb
 2504 0227 3B       		.uleb128 0x3b
 2505 0228 05       		.uleb128 0x5
 2506 0229 1D       		.uleb128 0x1d
 2507 022a 13       		.uleb128 0x13
 2508 022b 01       		.uleb128 0x1
ARM GAS  /tmp/ccUbWPqb.s 			page 45


 2509 022c 13       		.uleb128 0x13
 2510 022d 00       		.byte	0
 2511 022e 00       		.byte	0
 2512 022f 26       		.uleb128 0x26
 2513 0230 0D       		.uleb128 0xd
 2514 0231 00       		.byte	0
 2515 0232 03       		.uleb128 0x3
 2516 0233 0E       		.uleb128 0xe
 2517 0234 49       		.uleb128 0x49
 2518 0235 13       		.uleb128 0x13
 2519 0236 38       		.uleb128 0x38
 2520 0237 0B       		.uleb128 0xb
 2521 0238 34       		.uleb128 0x34
 2522 0239 19       		.uleb128 0x19
 2523 023a 32       		.uleb128 0x32
 2524 023b 0B       		.uleb128 0xb
 2525 023c 00       		.byte	0
 2526 023d 00       		.byte	0
 2527 023e 27       		.uleb128 0x27
 2528 023f 2E       		.uleb128 0x2e
 2529 0240 01       		.byte	0x1
 2530 0241 3F       		.uleb128 0x3f
 2531 0242 19       		.uleb128 0x19
 2532 0243 03       		.uleb128 0x3
 2533 0244 0E       		.uleb128 0xe
 2534 0245 49       		.uleb128 0x49
 2535 0246 13       		.uleb128 0x13
 2536 0247 34       		.uleb128 0x34
 2537 0248 19       		.uleb128 0x19
 2538 0249 32       		.uleb128 0x32
 2539 024a 0B       		.uleb128 0xb
 2540 024b 3C       		.uleb128 0x3c
 2541 024c 19       		.uleb128 0x19
 2542 024d 64       		.uleb128 0x64
 2543 024e 13       		.uleb128 0x13
 2544 024f 01       		.uleb128 0x1
 2545 0250 13       		.uleb128 0x13
 2546 0251 00       		.byte	0
 2547 0252 00       		.byte	0
 2548 0253 28       		.uleb128 0x28
 2549 0254 2E       		.uleb128 0x2e
 2550 0255 01       		.byte	0x1
 2551 0256 3F       		.uleb128 0x3f
 2552 0257 19       		.uleb128 0x19
 2553 0258 03       		.uleb128 0x3
 2554 0259 0E       		.uleb128 0xe
 2555 025a 3A       		.uleb128 0x3a
 2556 025b 0B       		.uleb128 0xb
 2557 025c 3B       		.uleb128 0x3b
 2558 025d 05       		.uleb128 0x5
 2559 025e 6E       		.uleb128 0x6e
 2560 025f 0E       		.uleb128 0xe
 2561 0260 4C       		.uleb128 0x4c
 2562 0261 0B       		.uleb128 0xb
 2563 0262 4D       		.uleb128 0x4d
 2564 0263 18       		.uleb128 0x18
 2565 0264 1D       		.uleb128 0x1d
ARM GAS  /tmp/ccUbWPqb.s 			page 46


 2566 0265 13       		.uleb128 0x13
 2567 0266 32       		.uleb128 0x32
 2568 0267 0B       		.uleb128 0xb
 2569 0268 3C       		.uleb128 0x3c
 2570 0269 19       		.uleb128 0x19
 2571 026a 64       		.uleb128 0x64
 2572 026b 13       		.uleb128 0x13
 2573 026c 01       		.uleb128 0x1
 2574 026d 13       		.uleb128 0x13
 2575 026e 00       		.byte	0
 2576 026f 00       		.byte	0
 2577 0270 29       		.uleb128 0x29
 2578 0271 2E       		.uleb128 0x2e
 2579 0272 01       		.byte	0x1
 2580 0273 3F       		.uleb128 0x3f
 2581 0274 19       		.uleb128 0x19
 2582 0275 03       		.uleb128 0x3
 2583 0276 0E       		.uleb128 0xe
 2584 0277 3A       		.uleb128 0x3a
 2585 0278 0B       		.uleb128 0xb
 2586 0279 3B       		.uleb128 0x3b
 2587 027a 05       		.uleb128 0x5
 2588 027b 6E       		.uleb128 0x6e
 2589 027c 0E       		.uleb128 0xe
 2590 027d 49       		.uleb128 0x49
 2591 027e 13       		.uleb128 0x13
 2592 027f 4C       		.uleb128 0x4c
 2593 0280 0B       		.uleb128 0xb
 2594 0281 4D       		.uleb128 0x4d
 2595 0282 18       		.uleb128 0x18
 2596 0283 1D       		.uleb128 0x1d
 2597 0284 13       		.uleb128 0x13
 2598 0285 32       		.uleb128 0x32
 2599 0286 0B       		.uleb128 0xb
 2600 0287 3C       		.uleb128 0x3c
 2601 0288 19       		.uleb128 0x19
 2602 0289 64       		.uleb128 0x64
 2603 028a 13       		.uleb128 0x13
 2604 028b 01       		.uleb128 0x1
 2605 028c 13       		.uleb128 0x13
 2606 028d 00       		.byte	0
 2607 028e 00       		.byte	0
 2608 028f 2A       		.uleb128 0x2a
 2609 0290 2E       		.uleb128 0x2e
 2610 0291 00       		.byte	0
 2611 0292 3F       		.uleb128 0x3f
 2612 0293 19       		.uleb128 0x19
 2613 0294 03       		.uleb128 0x3
 2614 0295 0E       		.uleb128 0xe
 2615 0296 3A       		.uleb128 0x3a
 2616 0297 0B       		.uleb128 0xb
 2617 0298 3B       		.uleb128 0x3b
 2618 0299 05       		.uleb128 0x5
 2619 029a 6E       		.uleb128 0x6e
 2620 029b 0E       		.uleb128 0xe
 2621 029c 32       		.uleb128 0x32
 2622 029d 0B       		.uleb128 0xb
ARM GAS  /tmp/ccUbWPqb.s 			page 47


 2623 029e 3C       		.uleb128 0x3c
 2624 029f 19       		.uleb128 0x19
 2625 02a0 00       		.byte	0
 2626 02a1 00       		.byte	0
 2627 02a2 2B       		.uleb128 0x2b
 2628 02a3 2E       		.uleb128 0x2e
 2629 02a4 01       		.byte	0x1
 2630 02a5 3F       		.uleb128 0x3f
 2631 02a6 19       		.uleb128 0x19
 2632 02a7 03       		.uleb128 0x3
 2633 02a8 0E       		.uleb128 0xe
 2634 02a9 3A       		.uleb128 0x3a
 2635 02aa 0B       		.uleb128 0xb
 2636 02ab 3B       		.uleb128 0x3b
 2637 02ac 0B       		.uleb128 0xb
 2638 02ad 6E       		.uleb128 0x6e
 2639 02ae 0E       		.uleb128 0xe
 2640 02af 3C       		.uleb128 0x3c
 2641 02b0 19       		.uleb128 0x19
 2642 02b1 00       		.byte	0
 2643 02b2 00       		.byte	0
 2644 02b3 2C       		.uleb128 0x2c
 2645 02b4 15       		.uleb128 0x15
 2646 02b5 01       		.byte	0x1
 2647 02b6 49       		.uleb128 0x49
 2648 02b7 13       		.uleb128 0x13
 2649 02b8 01       		.uleb128 0x1
 2650 02b9 13       		.uleb128 0x13
 2651 02ba 00       		.byte	0
 2652 02bb 00       		.byte	0
 2653 02bc 2D       		.uleb128 0x2d
 2654 02bd 18       		.uleb128 0x18
 2655 02be 00       		.byte	0
 2656 02bf 00       		.byte	0
 2657 02c0 00       		.byte	0
 2658 02c1 2E       		.uleb128 0x2e
 2659 02c2 0F       		.uleb128 0xf
 2660 02c3 00       		.byte	0
 2661 02c4 0B       		.uleb128 0xb
 2662 02c5 0B       		.uleb128 0xb
 2663 02c6 03       		.uleb128 0x3
 2664 02c7 0E       		.uleb128 0xe
 2665 02c8 49       		.uleb128 0x49
 2666 02c9 13       		.uleb128 0x13
 2667 02ca 00       		.byte	0
 2668 02cb 00       		.byte	0
 2669 02cc 2F       		.uleb128 0x2f
 2670 02cd 42       		.uleb128 0x42
 2671 02ce 00       		.byte	0
 2672 02cf 0B       		.uleb128 0xb
 2673 02d0 0B       		.uleb128 0xb
 2674 02d1 49       		.uleb128 0x49
 2675 02d2 13       		.uleb128 0x13
 2676 02d3 00       		.byte	0
 2677 02d4 00       		.byte	0
 2678 02d5 30       		.uleb128 0x30
 2679 02d6 10       		.uleb128 0x10
ARM GAS  /tmp/ccUbWPqb.s 			page 48


 2680 02d7 00       		.byte	0
 2681 02d8 0B       		.uleb128 0xb
 2682 02d9 0B       		.uleb128 0xb
 2683 02da 49       		.uleb128 0x49
 2684 02db 13       		.uleb128 0x13
 2685 02dc 00       		.byte	0
 2686 02dd 00       		.byte	0
 2687 02de 31       		.uleb128 0x31
 2688 02df 2E       		.uleb128 0x2e
 2689 02e0 00       		.byte	0
 2690 02e1 03       		.uleb128 0x3
 2691 02e2 0E       		.uleb128 0xe
 2692 02e3 3A       		.uleb128 0x3a
 2693 02e4 0B       		.uleb128 0xb
 2694 02e5 3B       		.uleb128 0x3b
 2695 02e6 05       		.uleb128 0x5
 2696 02e7 49       		.uleb128 0x49
 2697 02e8 13       		.uleb128 0x13
 2698 02e9 11       		.uleb128 0x11
 2699 02ea 01       		.uleb128 0x1
 2700 02eb 12       		.uleb128 0x12
 2701 02ec 06       		.uleb128 0x6
 2702 02ed 40       		.uleb128 0x40
 2703 02ee 18       		.uleb128 0x18
 2704 02ef 9742     		.uleb128 0x2117
 2705 02f1 19       		.uleb128 0x19
 2706 02f2 00       		.byte	0
 2707 02f3 00       		.byte	0
 2708 02f4 32       		.uleb128 0x32
 2709 02f5 2E       		.uleb128 0x2e
 2710 02f6 01       		.byte	0x1
 2711 02f7 47       		.uleb128 0x47
 2712 02f8 13       		.uleb128 0x13
 2713 02f9 20       		.uleb128 0x20
 2714 02fa 0B       		.uleb128 0xb
 2715 02fb 64       		.uleb128 0x64
 2716 02fc 13       		.uleb128 0x13
 2717 02fd 01       		.uleb128 0x1
 2718 02fe 13       		.uleb128 0x13
 2719 02ff 00       		.byte	0
 2720 0300 00       		.byte	0
 2721 0301 33       		.uleb128 0x33
 2722 0302 05       		.uleb128 0x5
 2723 0303 00       		.byte	0
 2724 0304 03       		.uleb128 0x3
 2725 0305 0E       		.uleb128 0xe
 2726 0306 49       		.uleb128 0x49
 2727 0307 13       		.uleb128 0x13
 2728 0308 34       		.uleb128 0x34
 2729 0309 19       		.uleb128 0x19
 2730 030a 00       		.byte	0
 2731 030b 00       		.byte	0
 2732 030c 34       		.uleb128 0x34
 2733 030d 05       		.uleb128 0x5
 2734 030e 00       		.byte	0
 2735 030f 03       		.uleb128 0x3
 2736 0310 08       		.uleb128 0x8
ARM GAS  /tmp/ccUbWPqb.s 			page 49


 2737 0311 3A       		.uleb128 0x3a
 2738 0312 0B       		.uleb128 0xb
 2739 0313 3B       		.uleb128 0x3b
 2740 0314 05       		.uleb128 0x5
 2741 0315 49       		.uleb128 0x49
 2742 0316 13       		.uleb128 0x13
 2743 0317 00       		.byte	0
 2744 0318 00       		.byte	0
 2745 0319 35       		.uleb128 0x35
 2746 031a 2E       		.uleb128 0x2e
 2747 031b 01       		.byte	0x1
 2748 031c 31       		.uleb128 0x31
 2749 031d 13       		.uleb128 0x13
 2750 031e 6E       		.uleb128 0x6e
 2751 031f 0E       		.uleb128 0xe
 2752 0320 11       		.uleb128 0x11
 2753 0321 01       		.uleb128 0x1
 2754 0322 12       		.uleb128 0x12
 2755 0323 06       		.uleb128 0x6
 2756 0324 40       		.uleb128 0x40
 2757 0325 18       		.uleb128 0x18
 2758 0326 64       		.uleb128 0x64
 2759 0327 13       		.uleb128 0x13
 2760 0328 9742     		.uleb128 0x2117
 2761 032a 19       		.uleb128 0x19
 2762 032b 01       		.uleb128 0x1
 2763 032c 13       		.uleb128 0x13
 2764 032d 00       		.byte	0
 2765 032e 00       		.byte	0
 2766 032f 36       		.uleb128 0x36
 2767 0330 05       		.uleb128 0x5
 2768 0331 00       		.byte	0
 2769 0332 31       		.uleb128 0x31
 2770 0333 13       		.uleb128 0x13
 2771 0334 02       		.uleb128 0x2
 2772 0335 18       		.uleb128 0x18
 2773 0336 00       		.byte	0
 2774 0337 00       		.byte	0
 2775 0338 37       		.uleb128 0x37
 2776 0339 2E       		.uleb128 0x2e
 2777 033a 00       		.byte	0
 2778 033b 47       		.uleb128 0x47
 2779 033c 13       		.uleb128 0x13
 2780 033d 3A       		.uleb128 0x3a
 2781 033e 0B       		.uleb128 0xb
 2782 033f 3B       		.uleb128 0x3b
 2783 0340 0B       		.uleb128 0xb
 2784 0341 11       		.uleb128 0x11
 2785 0342 01       		.uleb128 0x1
 2786 0343 12       		.uleb128 0x12
 2787 0344 06       		.uleb128 0x6
 2788 0345 40       		.uleb128 0x40
 2789 0346 18       		.uleb128 0x18
 2790 0347 9642     		.uleb128 0x2116
 2791 0349 19       		.uleb128 0x19
 2792 034a 00       		.byte	0
 2793 034b 00       		.byte	0
ARM GAS  /tmp/ccUbWPqb.s 			page 50


 2794 034c 38       		.uleb128 0x38
 2795 034d 2E       		.uleb128 0x2e
 2796 034e 01       		.byte	0x1
 2797 034f 47       		.uleb128 0x47
 2798 0350 13       		.uleb128 0x13
 2799 0351 11       		.uleb128 0x11
 2800 0352 01       		.uleb128 0x1
 2801 0353 12       		.uleb128 0x12
 2802 0354 06       		.uleb128 0x6
 2803 0355 40       		.uleb128 0x40
 2804 0356 18       		.uleb128 0x18
 2805 0357 9642     		.uleb128 0x2116
 2806 0359 19       		.uleb128 0x19
 2807 035a 01       		.uleb128 0x1
 2808 035b 13       		.uleb128 0x13
 2809 035c 00       		.byte	0
 2810 035d 00       		.byte	0
 2811 035e 39       		.uleb128 0x39
 2812 035f 05       		.uleb128 0x5
 2813 0360 00       		.byte	0
 2814 0361 03       		.uleb128 0x3
 2815 0362 08       		.uleb128 0x8
 2816 0363 3A       		.uleb128 0x3a
 2817 0364 0B       		.uleb128 0xb
 2818 0365 3B       		.uleb128 0x3b
 2819 0366 0B       		.uleb128 0xb
 2820 0367 49       		.uleb128 0x49
 2821 0368 13       		.uleb128 0x13
 2822 0369 02       		.uleb128 0x2
 2823 036a 18       		.uleb128 0x18
 2824 036b 00       		.byte	0
 2825 036c 00       		.byte	0
 2826 036d 3A       		.uleb128 0x3a
 2827 036e 34       		.uleb128 0x34
 2828 036f 00       		.byte	0
 2829 0370 03       		.uleb128 0x3
 2830 0371 0E       		.uleb128 0xe
 2831 0372 3A       		.uleb128 0x3a
 2832 0373 0B       		.uleb128 0xb
 2833 0374 3B       		.uleb128 0x3b
 2834 0375 05       		.uleb128 0x5
 2835 0376 49       		.uleb128 0x49
 2836 0377 13       		.uleb128 0x13
 2837 0378 3F       		.uleb128 0x3f
 2838 0379 19       		.uleb128 0x19
 2839 037a 3C       		.uleb128 0x3c
 2840 037b 19       		.uleb128 0x19
 2841 037c 00       		.byte	0
 2842 037d 00       		.byte	0
 2843 037e 3B       		.uleb128 0x3b
 2844 037f 34       		.uleb128 0x34
 2845 0380 00       		.byte	0
 2846 0381 03       		.uleb128 0x3
 2847 0382 08       		.uleb128 0x8
 2848 0383 3A       		.uleb128 0x3a
 2849 0384 0B       		.uleb128 0xb
 2850 0385 3B       		.uleb128 0x3b
ARM GAS  /tmp/ccUbWPqb.s 			page 51


 2851 0386 05       		.uleb128 0x5
 2852 0387 49       		.uleb128 0x49
 2853 0388 13       		.uleb128 0x13
 2854 0389 3F       		.uleb128 0x3f
 2855 038a 19       		.uleb128 0x19
 2856 038b 3C       		.uleb128 0x3c
 2857 038c 19       		.uleb128 0x19
 2858 038d 00       		.byte	0
 2859 038e 00       		.byte	0
 2860 038f 00       		.byte	0
 2861              		.section	.debug_aranges,"",%progbits
 2862 0000 34000000 		.4byte	0x34
 2863 0004 0200     		.2byte	0x2
 2864 0006 00000000 		.4byte	.Ldebug_info0
 2865 000a 04       		.byte	0x4
 2866 000b 00       		.byte	0
 2867 000c 0000     		.2byte	0
 2868 000e 0000     		.2byte	0
 2869 0010 00000000 		.4byte	.LFB190
 2870 0014 0C000000 		.4byte	.LFE190-.LFB190
 2871 0018 00000000 		.4byte	.LFB329
 2872 001c 14000000 		.4byte	.LFE329-.LFB329
 2873 0020 00000000 		.4byte	.LFB486
 2874 0024 1E000000 		.4byte	.LFE486-.LFB486
 2875 0028 00000000 		.4byte	.LFB487
 2876 002c 16000000 		.4byte	.LFE487-.LFB487
 2877 0030 00000000 		.4byte	0
 2878 0034 00000000 		.4byte	0
 2879              		.section	.debug_ranges,"",%progbits
 2880              	.Ldebug_ranges0:
 2881 0000 00000000 		.4byte	.LFB190
 2882 0004 0C000000 		.4byte	.LFE190
 2883 0008 00000000 		.4byte	.LFB329
 2884 000c 14000000 		.4byte	.LFE329
 2885 0010 00000000 		.4byte	.LFB486
 2886 0014 1E000000 		.4byte	.LFE486
 2887 0018 00000000 		.4byte	.LFB487
 2888 001c 16000000 		.4byte	.LFE487
 2889 0020 00000000 		.4byte	0
 2890 0024 00000000 		.4byte	0
 2891              		.section	.debug_line,"",%progbits
 2892              	.Ldebug_line0:
 2893 0000 68020000 		.section	.debug_str,"MS",%progbits,1
 2893      02001602 
 2893      00000201 
 2893      FB0E0D00 
 2893      01010101 
 2894              	.LASF160:
 2895 0000 61646452 		.ascii	"addRef\000"
 2895      656600
 2896              	.LASF147:
 2897 0007 5F5A4E31 		.ascii	"_ZN10chibios_rt6System16isCounterWithinXEmmm\000"
 2897      30636869 
 2897      62696F73 
 2897      5F727436 
 2897      53797374 
 2898              	.LASF85:
ARM GAS  /tmp/ccUbWPqb.s 			page 52


 2899 0034 73697A65 		.ascii	"sizetype\000"
 2899      74797065 
 2899      00
 2900              	.LASF36:
 2901 003d 77747365 		.ascii	"wtsemp\000"
 2901      6D7000
 2902              	.LASF83:
 2903 0044 73797374 		.ascii	"systime_t\000"
 2903      696D655F 
 2903      7400
 2904              	.LASF107:
 2905 004e 6F776E65 		.ascii	"owner\000"
 2905      7200
 2906              	.LASF24:
 2907 0054 74707269 		.ascii	"tprio_t\000"
 2907      6F5F7400 
 2908              	.LASF15:
 2909 005c 696E7433 		.ascii	"int32_t\000"
 2909      325F7400 
 2910              	.LASF66:
 2911 0064 76746675 		.ascii	"vtfunc_t\000"
 2911      6E635F74 
 2911      00
 2912              	.LASF72:
 2913 006d 63685F76 		.ascii	"ch_virtual_timers_list\000"
 2913      69727475 
 2913      616C5F74 
 2913      696D6572 
 2913      735F6C69 
 2914              	.LASF163:
 2915 0084 5F5A4E31 		.ascii	"_ZN10chibios_rt15ThreadReference7releaseEv\000"
 2915      30636869 
 2915      62696F73 
 2915      5F727431 
 2915      35546872 
 2916              	.LASF240:
 2917 00af 5F5F7674 		.ascii	"__vtbl_ptr_type\000"
 2917      626C5F70 
 2917      74725F74 
 2917      79706500 
 2918              	.LASF230:
 2919 00bf 63686962 		.ascii	"chibios_rt\000"
 2919      696F735F 
 2919      727400
 2920              	.LASF45:
 2921 00ca 73746174 		.ascii	"state\000"
 2921      6500
 2922              	.LASF135:
 2923 00d0 67657452 		.ascii	"getRealtimeCounterX\000"
 2923      65616C74 
 2923      696D6543 
 2923      6F756E74 
 2923      65725800 
 2924              	.LASF54:
 2925 00e4 73746174 		.ascii	"stats\000"
 2925      7300
 2926              	.LASF220:
ARM GAS  /tmp/ccUbWPqb.s 			page 53


 2927 00ea 64697370 		.ascii	"dispatchEvents\000"
 2927      61746368 
 2927      4576656E 
 2927      747300
 2928              	.LASF173:
 2929 00f9 5F5A4E31 		.ascii	"_ZN10chibios_rt15ThreadReference14releaseMessageEl\000"
 2929      30636869 
 2929      62696F73 
 2929      5F727431 
 2929      35546872 
 2930              	.LASF40:
 2931 012c 7072696F 		.ascii	"prio\000"
 2931      00
 2932              	.LASF32:
 2933 0131 65786974 		.ascii	"exitcode\000"
 2933      636F6465 
 2933      00
 2934              	.LASF127:
 2935 013a 5F5A4E31 		.ascii	"_ZN10chibios_rt6System13unlockFromIsrEv\000"
 2935      30636869 
 2935      62696F73 
 2935      5F727436 
 2935      53797374 
 2936              	.LASF7:
 2937 0162 5F5F7569 		.ascii	"__uint8_t\000"
 2937      6E74385F 
 2937      7400
 2938              	.LASF201:
 2939 016c 7969656C 		.ascii	"yield\000"
 2939      6400
 2940              	.LASF9:
 2941 0172 6C6F6E67 		.ascii	"long int\000"
 2941      20696E74 
 2941      00
 2942              	.LASF208:
 2943 017b 77616974 		.ascii	"waitOneEvent\000"
 2943      4F6E6545 
 2943      76656E74 
 2943      00
 2944              	.LASF241:
 2945 0188 63685379 		.ascii	"chSysGetIdleThreadX\000"
 2945      73476574 
 2945      49646C65 
 2945      54687265 
 2945      61645800 
 2946              	.LASF174:
 2947 019c 7369676E 		.ascii	"signalEvents\000"
 2947      616C4576 
 2947      656E7473 
 2947      00
 2948              	.LASF169:
 2949 01a9 5F5A4E4B 		.ascii	"_ZNK10chibios_rt15ThreadReference16isPendingMessage"
 2949      31306368 
 2949      6962696F 
 2949      735F7274 
 2949      31355468 
 2950 01dc 457600   		.ascii	"Ev\000"
ARM GAS  /tmp/ccUbWPqb.s 			page 54


 2951              	.LASF129:
 2952 01df 5F5A4E31 		.ascii	"_ZN10chibios_rt6System17unconditionalLockEv\000"
 2952      30636869 
 2952      62696F73 
 2952      5F727436 
 2952      53797374 
 2953              	.LASF22:
 2954 020b 74737461 		.ascii	"tstate_t\000"
 2954      74655F74 
 2954      00
 2955              	.LASF19:
 2956 0214 72747469 		.ascii	"rttime_t\000"
 2956      6D655F74 
 2956      00
 2957              	.LASF234:
 2958 021d 6D61696E 		.ascii	"main\000"
 2958      00
 2959              	.LASF60:
 2960 0222 74687265 		.ascii	"threads_queue_t\000"
 2960      6164735F 
 2960      71756575 
 2960      655F7400 
 2961              	.LASF142:
 2962 0232 5F5A4E31 		.ascii	"_ZN10chibios_rt6System19getRealtimeCounterXEv\000"
 2962      30636869 
 2962      62696F73 
 2962      5F727436 
 2962      53797374 
 2963              	.LASF86:
 2964 0260 72656761 		.ascii	"regarm_t\000"
 2964      726D5F74 
 2964      00
 2965              	.LASF114:
 2966 0269 5F5A4E31 		.ascii	"_ZN10chibios_rt6System4initEv\000"
 2966      30636869 
 2966      62696F73 
 2966      5F727436 
 2966      53797374 
 2967              	.LASF165:
 2968 0287 5F5A4E31 		.ascii	"_ZN10chibios_rt15ThreadReference4waitEv\000"
 2968      30636869 
 2968      62696F73 
 2968      5F727431 
 2968      35546872 
 2969              	.LASF166:
 2970 02af 73656E64 		.ascii	"sendMessage\000"
 2970      4D657373 
 2970      61676500 
 2971              	.LASF97:
 2972 02bb 63756D75 		.ascii	"cumulative\000"
 2972      6C617469 
 2972      766500
 2973              	.LASF3:
 2974 02c6 7369676E 		.ascii	"signed char\000"
 2974      65642063 
 2974      68617200 
 2975              	.LASF38:
ARM GAS  /tmp/ccUbWPqb.s 			page 55


 2976 02d2 65776D61 		.ascii	"ewmask\000"
 2976      736B00
 2977              	.LASF14:
 2978 02d9 75696E74 		.ascii	"uint8_t\000"
 2978      385F7400 
 2979              	.LASF158:
 2980 02e1 72657175 		.ascii	"requestTerminate\000"
 2980      65737454 
 2980      65726D69 
 2980      6E617465 
 2980      00
 2981              	.LASF204:
 2982 02f2 67657441 		.ascii	"getAndClearEvents\000"
 2982      6E64436C 
 2982      65617245 
 2982      76656E74 
 2982      7300
 2983              	.LASF27:
 2984 0304 6576656E 		.ascii	"eventmask_t\000"
 2984      746D6173 
 2984      6B5F7400 
 2985              	.LASF233:
 2986 0310 5F5A4E31 		.ascii	"_ZN10chibios_rt6System17getStatusAndLockXEv\000"
 2986      30636869 
 2986      62696F73 
 2986      5F727436 
 2986      53797374 
 2987              	.LASF34:
 2988 033c 77747472 		.ascii	"wttrp\000"
 2988      7000
 2989              	.LASF4:
 2990 0342 756E7369 		.ascii	"unsigned char\000"
 2990      676E6564 
 2990      20636861 
 2990      7200
 2991              	.LASF73:
 2992 0350 6C617374 		.ascii	"lasttime\000"
 2992      74696D65 
 2992      00
 2993              	.LASF76:
 2994 0359 70616E69 		.ascii	"panic_msg\000"
 2994      635F6D73 
 2994      6700
 2995              	.LASF186:
 2996 0363 5F5A4E31 		.ascii	"_ZN10chibios_rt10BaseThread11setPriorityEm\000"
 2996      30636869 
 2996      62696F73 
 2996      5F727431 
 2996      30426173 
 2997              	.LASF151:
 2998 038e 53797374 		.ascii	"System\000"
 2998      656D00
 2999              	.LASF20:
 3000 0395 73797373 		.ascii	"syssts_t\000"
 3000      74735F74 
 3000      00
 3001              	.LASF74:
ARM GAS  /tmp/ccUbWPqb.s 			page 56


 3002 039e 73797374 		.ascii	"system_debug_t\000"
 3002      656D5F64 
 3002      65627567 
 3002      5F7400
 3003              	.LASF131:
 3004 03ad 5F5A4E31 		.ascii	"_ZN10chibios_rt6System19unconditionalUnlockEv\000"
 3004      30636869 
 3004      62696F73 
 3004      5F727436 
 3004      53797374 
 3005              	.LASF193:
 3006 03db 73686F75 		.ascii	"shouldTerminate\000"
 3006      6C645465 
 3006      726D696E 
 3006      61746500 
 3007              	.LASF227:
 3008 03eb 2E2E2F2E 		.ascii	"../../modules/ChibiOS/os/various/cpp_wrappers/ch.cp"
 3008      2E2F6D6F 
 3008      64756C65 
 3008      732F4368 
 3008      6962694F 
 3009 041e 7000     		.ascii	"p\000"
 3010              	.LASF108:
 3011 0420 63686172 		.ascii	"char\000"
 3011      00
 3012              	.LASF226:
 3013 0425 474E5520 		.ascii	"GNU C++ 4.9.3 20150529 (prerelease) -mcpu=cortex-m4"
 3013      432B2B20 
 3013      342E392E 
 3013      33203230 
 3013      31353035 
 3014 0458 202D6D66 		.ascii	" -mfloat-abi=hard -mfpu=fpv4-sp-d16 -mno-thumb-inte"
 3014      6C6F6174 
 3014      2D616269 
 3014      3D686172 
 3014      64202D6D 
 3015 048b 72776F72 		.ascii	"rwork -mthumb -g -std=gnu++11 -fomit-frame-pointer "
 3015      6B202D6D 
 3015      7468756D 
 3015      62202D67 
 3015      202D7374 
 3016 04be 2D66616C 		.ascii	"-falign-functions=16 -ffunction-sections -fdata-sec"
 3016      69676E2D 
 3016      66756E63 
 3016      74696F6E 
 3016      733D3136 
 3017 04f1 74696F6E 		.ascii	"tions -fno-common -fsingle-precision-constant -fno-"
 3017      73202D66 
 3017      6E6F2D63 
 3017      6F6D6D6F 
 3017      6E202D66 
 3018 0524 72747469 		.ascii	"rtti\000"
 3018      00
 3019              	.LASF243:
 3020 0529 5F5A4E31 		.ascii	"_ZN10chibios_rt15ThreadReferenceC2EP9ch_thread\000"
 3020      30636869 
 3020      62696F73 
ARM GAS  /tmp/ccUbWPqb.s 			page 57


 3020      5F727431 
 3020      35546872 
 3021              	.LASF209:
 3022 0558 5F5A4E31 		.ascii	"_ZN10chibios_rt10BaseThread12waitOneEventEm\000"
 3022      30636869 
 3022      62696F73 
 3022      5F727431 
 3022      30426173 
 3023              	.LASF120:
 3024 0584 6C6F636B 		.ascii	"lock\000"
 3024      00
 3025              	.LASF33:
 3026 0589 77746F62 		.ascii	"wtobjp\000"
 3026      6A7000
 3027              	.LASF232:
 3028 0590 5F5A4E31 		.ascii	"_ZN10chibios_rt6System15integrityCheckIEj\000"
 3028      30636869 
 3028      62696F73 
 3028      5F727436 
 3028      53797374 
 3029              	.LASF101:
 3030 05ba 6E5F6374 		.ascii	"n_ctxswc\000"
 3030      78737763 
 3030      00
 3031              	.LASF168:
 3032 05c3 69735065 		.ascii	"isPendingMessage\000"
 3032      6E64696E 
 3032      674D6573 
 3032      73616765 
 3032      00
 3033              	.LASF46:
 3034 05d4 666C6167 		.ascii	"flags\000"
 3034      7300
 3035              	.LASF229:
 3036 05da 6465636C 		.ascii	"decltype(nullptr)\000"
 3036      74797065 
 3036      286E756C 
 3036      6C707472 
 3036      2900
 3037              	.LASF188:
 3038 05ec 5F5A4E31 		.ascii	"_ZN10chibios_rt10BaseThread12getPriorityXEv\000"
 3038      30636869 
 3038      62696F73 
 3038      5F727431 
 3038      30426173 
 3039              	.LASF87:
 3040 0618 73746B61 		.ascii	"stkalign_t\000"
 3040      6C69676E 
 3040      5F7400
 3041              	.LASF176:
 3042 0623 7369676E 		.ascii	"signalEventsI\000"
 3042      616C4576 
 3042      656E7473 
 3042      4900
 3043              	.LASF149:
 3044 0631 67657449 		.ascii	"getIdleThreadX\000"
 3044      646C6554 
ARM GAS  /tmp/ccUbWPqb.s 			page 58


 3044      68726561 
 3044      645800
 3045              	.LASF222:
 3046 0640 756E6C6F 		.ascii	"unlockAllMutexes\000"
 3046      636B416C 
 3046      6C4D7574 
 3046      65786573 
 3046      00
 3047              	.LASF53:
 3048 0651 6D706F6F 		.ascii	"mpool\000"
 3048      6C00
 3049              	.LASF125:
 3050 0657 5F5A4E31 		.ascii	"_ZN10chibios_rt6System11lockFromIsrEv\000"
 3050      30636869 
 3050      62696F73 
 3050      5F727436 
 3050      53797374 
 3051              	.LASF95:
 3052 067d 776F7273 		.ascii	"worst\000"
 3052      7400
 3053              	.LASF217:
 3054 0683 5F5A4E31 		.ascii	"_ZN10chibios_rt10BaseThread19waitAnyEventTimeoutEmm"
 3054      30636869 
 3054      62696F73 
 3054      5F727431 
 3054      30426173 
 3055 06b6 00       		.ascii	"\000"
 3056              	.LASF28:
 3057 06b7 636E745F 		.ascii	"cnt_t\000"
 3057      7400
 3058              	.LASF195:
 3059 06bd 736C6565 		.ascii	"sleep\000"
 3059      7000
 3060              	.LASF203:
 3061 06c3 5F5A4E31 		.ascii	"_ZN10chibios_rt10BaseThread11waitMessageEv\000"
 3061      30636869 
 3061      62696F73 
 3061      5F727431 
 3061      30426173 
 3062              	.LASF121:
 3063 06ee 5F5A4E31 		.ascii	"_ZN10chibios_rt6System4lockEv\000"
 3063      30636869 
 3063      62696F73 
 3063      5F727436 
 3063      53797374 
 3064              	.LASF145:
 3065 070c 5F5A4E31 		.ascii	"_ZN10chibios_rt6System8getTimeXEv\000"
 3065      30636869 
 3065      62696F73 
 3065      5F727436 
 3065      53797374 
 3066              	.LASF37:
 3067 072e 77746D74 		.ascii	"wtmtxp\000"
 3067      787000
 3068              	.LASF228:
 3069 0735 2F686F6D 		.ascii	"/home/kozinalexey/f4by/ardupilot/build/F4BY\000"
 3069      652F6B6F 
ARM GAS  /tmp/ccUbWPqb.s 			page 59


 3069      7A696E61 
 3069      6C657865 
 3069      792F6634 
 3070              	.LASF64:
 3071 0761 63685F72 		.ascii	"ch_ready_list\000"
 3071      65616479 
 3071      5F6C6973 
 3071      7400
 3072              	.LASF194:
 3073 076f 5F5A4E31 		.ascii	"_ZN10chibios_rt10BaseThread15shouldTerminateEv\000"
 3073      30636869 
 3073      62696F73 
 3073      5F727431 
 3073      30426173 
 3074              	.LASF170:
 3075 079e 6765744D 		.ascii	"getMessage\000"
 3075      65737361 
 3075      676500
 3076              	.LASF102:
 3077 07a9 6D5F6372 		.ascii	"m_crit_thd\000"
 3077      69745F74 
 3077      686400
 3078              	.LASF12:
 3079 07b4 5F5F7569 		.ascii	"__uint64_t\000"
 3079      6E743634 
 3079      5F7400
 3080              	.LASF11:
 3081 07bf 6C6F6E67 		.ascii	"long unsigned int\000"
 3081      20756E73 
 3081      69676E65 
 3081      6420696E 
 3081      7400
 3082              	.LASF192:
 3083 07d1 5F5A4E31 		.ascii	"_ZN10chibios_rt10BaseThread5exitSEl\000"
 3083      30636869 
 3083      62696F73 
 3083      5F727431 
 3083      30426173 
 3084              	.LASF105:
 3085 07f5 63685F73 		.ascii	"ch_semaphore\000"
 3085      656D6170 
 3085      686F7265 
 3085      00
 3086              	.LASF57:
 3087 0802 63685F74 		.ascii	"ch_thread\000"
 3087      68726561 
 3087      6400
 3088              	.LASF175:
 3089 080c 5F5A4E4B 		.ascii	"_ZNK10chibios_rt15ThreadReference12signalEventsEm\000"
 3089      31306368 
 3089      6962696F 
 3089      735F7274 
 3089      31355468 
 3090              	.LASF71:
 3091 083e 76697274 		.ascii	"virtual_timers_list_t\000"
 3091      75616C5F 
 3091      74696D65 
ARM GAS  /tmp/ccUbWPqb.s 			page 60


 3091      72735F6C 
 3091      6973745F 
 3092              	.LASF153:
 3093 0854 74687265 		.ascii	"thread_ref\000"
 3093      61645F72 
 3093      656600
 3094              	.LASF242:
 3095 085f 74686973 		.ascii	"this\000"
 3095      00
 3096              	.LASF150:
 3097 0864 5F5A4E31 		.ascii	"_ZN10chibios_rt6System14getIdleThreadXEv\000"
 3097      30636869 
 3097      62696F73 
 3097      5F727436 
 3097      53797374 
 3098              	.LASF182:
 3099 088d 5F5A4E31 		.ascii	"_ZN10chibios_rt10BaseThread8getSelfXEv\000"
 3099      30636869 
 3099      62696F73 
 3099      5F727431 
 3099      30426173 
 3100              	.LASF115:
 3101 08b4 5F5A4E31 		.ascii	"_ZN10chibios_rt6System7disableEv\000"
 3101      30636869 
 3101      62696F73 
 3101      5F727436 
 3101      53797374 
 3102              	.LASF181:
 3103 08d5 67657453 		.ascii	"getSelfX\000"
 3103      656C6658 
 3103      00
 3104              	.LASF67:
 3105 08de 76697274 		.ascii	"virtual_timer_t\000"
 3105      75616C5F 
 3105      74696D65 
 3105      725F7400 
 3106              	.LASF63:
 3107 08ee 72656164 		.ascii	"ready_list_t\000"
 3107      795F6C69 
 3107      73745F74 
 3107      00
 3108              	.LASF42:
 3109 08fb 6F6C6465 		.ascii	"older\000"
 3109      7200
 3110              	.LASF52:
 3111 0901 7265616C 		.ascii	"realprio\000"
 3111      7072696F 
 3111      00
 3112              	.LASF29:
 3113 090a 75636E74 		.ascii	"ucnt_t\000"
 3113      5F7400
 3114              	.LASF146:
 3115 0911 69735379 		.ascii	"isSystemTimeWithin\000"
 3115      7374656D 
 3115      54696D65 
 3115      57697468 
 3115      696E00
ARM GAS  /tmp/ccUbWPqb.s 			page 61


 3116              	.LASF58:
 3117 0924 63685F74 		.ascii	"ch_threads_list\000"
 3117      68726561 
 3117      64735F6C 
 3117      69737400 
 3118              	.LASF100:
 3119 0934 6E5F6972 		.ascii	"n_irq\000"
 3119      7100
 3120              	.LASF144:
 3121 093a 67657454 		.ascii	"getTimeX\000"
 3121      696D6558 
 3121      00
 3122              	.LASF235:
 3123 0943 5F5A4E31 		.ascii	"_ZN10chibios_rt10BaseThread4mainEv\000"
 3123      30636869 
 3123      62696F73 
 3123      5F727431 
 3123      30426173 
 3124              	.LASF10:
 3125 0966 5F5F7569 		.ascii	"__uint32_t\000"
 3125      6E743332 
 3125      5F7400
 3126              	.LASF51:
 3127 0971 6D74786C 		.ascii	"mtxlist\000"
 3127      69737400 
 3128              	.LASF1:
 3129 0979 6C6F6E67 		.ascii	"long long int\000"
 3129      206C6F6E 
 3129      6720696E 
 3129      7400
 3130              	.LASF156:
 3131 0987 5F5A4E4B 		.ascii	"_ZNK10chibios_rt15ThreadReference6isNullEv\000"
 3131      31306368 
 3131      6962696F 
 3131      735F7274 
 3131      31355468 
 3132              	.LASF84:
 3133 09b2 73797369 		.ascii	"sysinterval_t\000"
 3133      6E746572 
 3133      76616C5F 
 3133      7400
 3134              	.LASF161:
 3135 09c0 5F5A4E4B 		.ascii	"_ZNK10chibios_rt15ThreadReference6addRefEv\000"
 3135      31306368 
 3135      6962696F 
 3135      735F7274 
 3135      31355468 
 3136              	.LASF118:
 3137 09eb 656E6162 		.ascii	"enable\000"
 3137      6C6500
 3138              	.LASF134:
 3139 09f2 67657453 		.ascii	"getStatusAndLockX\000"
 3139      74617475 
 3139      73416E64 
 3139      4C6F636B 
 3139      5800
 3140              	.LASF199:
ARM GAS  /tmp/ccUbWPqb.s 			page 62


 3141 0a04 736C6565 		.ascii	"sleepUntilWindowed\000"
 3141      70556E74 
 3141      696C5769 
 3141      6E646F77 
 3141      656400
 3142              	.LASF148:
 3143 0a17 5F5A4E31 		.ascii	"_ZN10chibios_rt6System18isSystemTimeWithinEmm\000"
 3143      30636869 
 3143      62696F73 
 3143      5F727436 
 3143      53797374 
 3144              	.LASF238:
 3145 0a45 5F746864 		.ascii	"_thd_start\000"
 3145      5F737461 
 3145      727400
 3146              	.LASF185:
 3147 0a50 73657450 		.ascii	"setPriority\000"
 3147      72696F72 
 3147      69747900 
 3148              	.LASF212:
 3149 0a5c 77616974 		.ascii	"waitAllEvents\000"
 3149      416C6C45 
 3149      76656E74 
 3149      7300
 3150              	.LASF177:
 3151 0a6a 5F5A4E4B 		.ascii	"_ZNK10chibios_rt15ThreadReference13signalEventsIEm\000"
 3151      31306368 
 3151      6962696F 
 3151      735F7274 
 3151      31355468 
 3152              	.LASF225:
 3153 0a9d 49544D5F 		.ascii	"ITM_RxBuffer\000"
 3153      52784275 
 3153      66666572 
 3153      00
 3154              	.LASF237:
 3155 0aaa 5F5A4E31 		.ascii	"_ZN10chibios_rt10BaseThread5startEm\000"
 3155      30636869 
 3155      62696F73 
 3155      5F727431 
 3155      30426173 
 3156              	.LASF164:
 3157 0ace 77616974 		.ascii	"wait\000"
 3157      00
 3158              	.LASF191:
 3159 0ad3 65786974 		.ascii	"exitS\000"
 3159      5300
 3160              	.LASF113:
 3161 0ad9 64697361 		.ascii	"disable\000"
 3161      626C6500 
 3162              	.LASF116:
 3163 0ae1 73757370 		.ascii	"suspend\000"
 3163      656E6400 
 3164              	.LASF190:
 3165 0ae9 5F5A4E31 		.ascii	"_ZN10chibios_rt10BaseThread4exitEl\000"
 3165      30636869 
 3165      62696F73 
ARM GAS  /tmp/ccUbWPqb.s 			page 63


 3165      5F727431 
 3165      30426173 
 3166              	.LASF98:
 3167 0b0c 74696D65 		.ascii	"time_measurement_t\000"
 3167      5F6D6561 
 3167      73757265 
 3167      6D656E74 
 3167      5F7400
 3168              	.LASF159:
 3169 0b1f 5F5A4E4B 		.ascii	"_ZNK10chibios_rt15ThreadReference16requestTerminate"
 3169      31306368 
 3169      6962696F 
 3169      735F7274 
 3169      31355468 
 3170 0b52 457600   		.ascii	"Ev\000"
 3171              	.LASF103:
 3172 0b55 6D5F6372 		.ascii	"m_crit_isr\000"
 3172      69745F69 
 3172      737200
 3173              	.LASF0:
 3174 0b60 756E7369 		.ascii	"unsigned int\000"
 3174      676E6564 
 3174      20696E74 
 3174      00
 3175              	.LASF18:
 3176 0b6d 7274636E 		.ascii	"rtcnt_t\000"
 3176      745F7400 
 3177              	.LASF99:
 3178 0b75 31346B65 		.ascii	"14kernel_stats_t\000"
 3178      726E656C 
 3178      5F737461 
 3178      74735F74 
 3178      00
 3179              	.LASF104:
 3180 0b86 6B65726E 		.ascii	"kernel_stats_t\000"
 3180      656C5F73 
 3180      74617473 
 3180      5F7400
 3181              	.LASF130:
 3182 0b95 756E636F 		.ascii	"unconditionalUnlock\000"
 3182      6E646974 
 3182      696F6E61 
 3182      6C556E6C 
 3182      6F636B00 
 3183              	.LASF136:
 3184 0ba9 696E7465 		.ascii	"integrityCheckI\000"
 3184      67726974 
 3184      79436865 
 3184      636B4900 
 3185              	.LASF139:
 3186 0bb9 5F5A4E31 		.ascii	"_ZN10chibios_rt6System14restoreStatusXEm\000"
 3186      30636869 
 3186      62696F73 
 3186      5F727436 
 3186      53797374 
 3187              	.LASF65:
 3188 0be2 63757272 		.ascii	"current\000"
ARM GAS  /tmp/ccUbWPqb.s 			page 64


 3188      656E7400 
 3189              	.LASF90:
 3190 0bea 6F666673 		.ascii	"offset\000"
 3190      657400
 3191              	.LASF206:
 3192 0bf1 61646445 		.ascii	"addEvents\000"
 3192      76656E74 
 3192      7300
 3193              	.LASF205:
 3194 0bfb 5F5A4E31 		.ascii	"_ZN10chibios_rt10BaseThread17getAndClearEventsEm\000"
 3194      30636869 
 3194      62696F73 
 3194      5F727431 
 3194      30426173 
 3195              	.LASF137:
 3196 0c2c 6973436F 		.ascii	"isCounterWithinX\000"
 3196      756E7465 
 3196      72576974 
 3196      68696E58 
 3196      00
 3197              	.LASF171:
 3198 0c3d 5F5A4E4B 		.ascii	"_ZNK10chibios_rt15ThreadReference10getMessageEv\000"
 3198      31306368 
 3198      6962696F 
 3198      735F7274 
 3198      31355468 
 3199              	.LASF214:
 3200 0c6d 77616974 		.ascii	"waitOneEventTimeout\000"
 3200      4F6E6545 
 3200      76656E74 
 3200      54696D65 
 3200      6F757400 
 3201              	.LASF111:
 3202 0c81 626F6F6C 		.ascii	"bool\000"
 3202      00
 3203              	.LASF141:
 3204 0c86 67657454 		.ascii	"getTime\000"
 3204      696D6500 
 3205              	.LASF119:
 3206 0c8e 5F5A4E31 		.ascii	"_ZN10chibios_rt6System6enableEv\000"
 3206      30636869 
 3206      62696F73 
 3206      5F727436 
 3206      53797374 
 3207              	.LASF30:
 3208 0cae 74687265 		.ascii	"thread_t\000"
 3208      61645F74 
 3208      00
 3209              	.LASF2:
 3210 0cb7 6C6F6E67 		.ascii	"long double\000"
 3210      20646F75 
 3210      626C6500 
 3211              	.LASF55:
 3212 0cc3 74687265 		.ascii	"thread_reference_t\000"
 3212      61645F72 
 3212      65666572 
 3212      656E6365 
ARM GAS  /tmp/ccUbWPqb.s 			page 65


 3212      5F7400
 3213              	.LASF200:
 3214 0cd6 5F5A4E31 		.ascii	"_ZN10chibios_rt10BaseThread18sleepUntilWindowedEmm\000"
 3214      30636869 
 3214      62696F73 
 3214      5F727431 
 3214      30426173 
 3215              	.LASF216:
 3216 0d09 77616974 		.ascii	"waitAnyEventTimeout\000"
 3216      416E7945 
 3216      76656E74 
 3216      54696D65 
 3216      6F757400 
 3217              	.LASF35:
 3218 0d1d 73656E74 		.ascii	"sentmsg\000"
 3218      6D736700 
 3219              	.LASF196:
 3220 0d25 5F5A4E31 		.ascii	"_ZN10chibios_rt10BaseThread5sleepEm\000"
 3220      30636869 
 3220      62696F73 
 3220      5F727431 
 3220      30426173 
 3221              	.LASF89:
 3222 0d49 706F7274 		.ascii	"port_intctx\000"
 3222      5F696E74 
 3222      63747800 
 3223              	.LASF231:
 3224 0d55 5F5A4E31 		.ascii	"_ZN10chibios_rt6System4haltEPKc\000"
 3224      30636869 
 3224      62696F73 
 3224      5F727436 
 3224      53797374 
 3225              	.LASF68:
 3226 0d75 63685F76 		.ascii	"ch_virtual_timer\000"
 3226      69727475 
 3226      616C5F74 
 3226      696D6572 
 3226      00
 3227              	.LASF92:
 3228 0d86 3136746D 		.ascii	"16tm_calibration_t\000"
 3228      5F63616C 
 3228      69627261 
 3228      74696F6E 
 3228      5F7400
 3229              	.LASF82:
 3230 0d99 6B65726E 		.ascii	"kernel_stats\000"
 3230      656C5F73 
 3230      74617473 
 3230      00
 3231              	.LASF198:
 3232 0da6 5F5A4E31 		.ascii	"_ZN10chibios_rt10BaseThread10sleepUntilEm\000"
 3232      30636869 
 3232      62696F73 
 3232      5F727431 
 3232      30426173 
 3233              	.LASF13:
 3234 0dd0 6C6F6E67 		.ascii	"long long unsigned int\000"
ARM GAS  /tmp/ccUbWPqb.s 			page 66


 3234      206C6F6E 
 3234      6720756E 
 3234      7369676E 
 3234      65642069 
 3235              	.LASF124:
 3236 0de7 6C6F636B 		.ascii	"lockFromIsr\000"
 3236      46726F6D 
 3236      49737200 
 3237              	.LASF25:
 3238 0df3 6D73675F 		.ascii	"msg_t\000"
 3238      7400
 3239              	.LASF133:
 3240 0df9 72657374 		.ascii	"restoreStatusX\000"
 3240      6F726553 
 3240      74617475 
 3240      735800
 3241              	.LASF61:
 3242 0e08 63685F74 		.ascii	"ch_threads_queue\000"
 3242      68726561 
 3242      64735F71 
 3242      75657565 
 3242      00
 3243              	.LASF167:
 3244 0e19 5F5A4E4B 		.ascii	"_ZNK10chibios_rt15ThreadReference11sendMessageEl\000"
 3244      31306368 
 3244      6962696F 
 3244      735F7274 
 3244      31355468 
 3245              	.LASF221:
 3246 0e4a 5F5A4E31 		.ascii	"_ZN10chibios_rt10BaseThread14dispatchEventsEPKPFvlE"
 3246      30636869 
 3246      62696F73 
 3246      5F727431 
 3246      30426173 
 3247 0e7d 6D00     		.ascii	"m\000"
 3248              	.LASF69:
 3249 0e7f 64656C74 		.ascii	"delta\000"
 3249      6100
 3250              	.LASF126:
 3251 0e85 756E6C6F 		.ascii	"unlockFromIsr\000"
 3251      636B4672 
 3251      6F6D4973 
 3251      7200
 3252              	.LASF26:
 3253 0e93 6576656E 		.ascii	"eventid_t\000"
 3253      7469645F 
 3253      7400
 3254              	.LASF47:
 3255 0e9d 72656673 		.ascii	"refs\000"
 3255      00
 3256              	.LASF39:
 3257 0ea2 71756575 		.ascii	"queue\000"
 3257      6500
 3258              	.LASF50:
 3259 0ea8 6570656E 		.ascii	"epending\000"
 3259      64696E67 
 3259      00
ARM GAS  /tmp/ccUbWPqb.s 			page 67


 3260              	.LASF143:
 3261 0eb1 5F5A4E31 		.ascii	"_ZN10chibios_rt6System7getTimeEv\000"
 3261      30636869 
 3261      62696F73 
 3261      5F727436 
 3261      53797374 
 3262              	.LASF81:
 3263 0ed2 6D61696E 		.ascii	"mainthread\000"
 3263      74687265 
 3263      616400
 3264              	.LASF132:
 3265 0edd 68616C74 		.ascii	"halt\000"
 3265      00
 3266              	.LASF128:
 3267 0ee2 756E636F 		.ascii	"unconditionalLock\000"
 3267      6E646974 
 3267      696F6E61 
 3267      6C4C6F63 
 3267      6B00
 3268              	.LASF94:
 3269 0ef4 62657374 		.ascii	"best\000"
 3269      00
 3270              	.LASF157:
 3271 0ef9 5F5A4E31 		.ascii	"_ZN10chibios_rt15ThreadReference8getInnerEv\000"
 3271      30636869 
 3271      62696F73 
 3271      5F727431 
 3271      35546872 
 3272              	.LASF154:
 3273 0f25 69734E75 		.ascii	"isNull\000"
 3273      6C6C00
 3274              	.LASF215:
 3275 0f2c 5F5A4E31 		.ascii	"_ZN10chibios_rt10BaseThread19waitOneEventTimeoutEmm"
 3275      30636869 
 3275      62696F73 
 3275      5F727431 
 3275      30426173 
 3276 0f5f 00       		.ascii	"\000"
 3277              	.LASF44:
 3278 0f60 77616261 		.ascii	"wabase\000"
 3278      736500
 3279              	.LASF180:
 3280 0f67 42617365 		.ascii	"BaseThread\000"
 3280      54687265 
 3280      616400
 3281              	.LASF189:
 3282 0f72 65786974 		.ascii	"exit\000"
 3282      00
 3283              	.LASF112:
 3284 0f77 696E6974 		.ascii	"init\000"
 3284      00
 3285              	.LASF239:
 3286 0f7c 5F5A4E31 		.ascii	"_ZN10chibios_rt10_thd_startEPv\000"
 3286      30636869 
 3286      62696F73 
 3286      5F727431 
 3286      305F7468 
ARM GAS  /tmp/ccUbWPqb.s 			page 68


 3287              	.LASF79:
 3288 0f9b 726C6973 		.ascii	"rlist\000"
 3288      7400
 3289              	.LASF21:
 3290 0fa1 746D6F64 		.ascii	"tmode_t\000"
 3290      655F7400 
 3291              	.LASF187:
 3292 0fa9 67657450 		.ascii	"getPriorityX\000"
 3292      72696F72 
 3292      69747958 
 3292      00
 3293              	.LASF110:
 3294 0fb6 65766861 		.ascii	"evhandler_t\000"
 3294      6E646C65 
 3294      725F7400 
 3295              	.LASF219:
 3296 0fc2 5F5A4E31 		.ascii	"_ZN10chibios_rt10BaseThread20waitAllEventsTimeoutEm"
 3296      30636869 
 3296      62696F73 
 3296      5F727431 
 3296      30426173 
 3297 0ff5 6D00     		.ascii	"m\000"
 3298              	.LASF179:
 3299 0ff7 7E426173 		.ascii	"~BaseThread\000"
 3299      65546872 
 3299      65616400 
 3300              	.LASF91:
 3301 1003 746D5F63 		.ascii	"tm_calibration_t\000"
 3301      616C6962 
 3301      72617469 
 3301      6F6E5F74 
 3301      00
 3302              	.LASF43:
 3303 1014 6E616D65 		.ascii	"name\000"
 3303      00
 3304              	.LASF172:
 3305 1019 72656C65 		.ascii	"releaseMessage\000"
 3305      6173654D 
 3305      65737361 
 3305      676500
 3306              	.LASF5:
 3307 1028 73686F72 		.ascii	"short int\000"
 3307      7420696E 
 3307      7400
 3308              	.LASF17:
 3309 1032 75696E74 		.ascii	"uint64_t\000"
 3309      36345F74 
 3309      00
 3310              	.LASF70:
 3311 103b 66756E63 		.ascii	"func\000"
 3311      00
 3312              	.LASF106:
 3313 1040 63685F6D 		.ascii	"ch_mutex\000"
 3313      75746578 
 3313      00
 3314              	.LASF123:
 3315 1049 5F5A4E31 		.ascii	"_ZN10chibios_rt6System6unlockEv\000"
ARM GAS  /tmp/ccUbWPqb.s 			page 69


 3315      30636869 
 3315      62696F73 
 3315      5F727436 
 3315      53797374 
 3316              	.LASF211:
 3317 1069 5F5A4E31 		.ascii	"_ZN10chibios_rt10BaseThread12waitAnyEventEm\000"
 3317      30636869 
 3317      62696F73 
 3317      5F727431 
 3317      30426173 
 3318              	.LASF184:
 3319 1095 5F5A4E31 		.ascii	"_ZN10chibios_rt10BaseThread7setNameEPKc\000"
 3319      30636869 
 3319      62696F73 
 3319      5F727431 
 3319      30426173 
 3320              	.LASF49:
 3321 10bd 6D736771 		.ascii	"msgqueue\000"
 3321      75657565 
 3321      00
 3322              	.LASF236:
 3323 10c6 73746172 		.ascii	"start\000"
 3323      7400
 3324              	.LASF75:
 3325 10cc 63685F73 		.ascii	"ch_system_debug\000"
 3325      79737465 
 3325      6D5F6465 
 3325      62756700 
 3326              	.LASF210:
 3327 10dc 77616974 		.ascii	"waitAnyEvent\000"
 3327      416E7945 
 3327      76656E74 
 3327      00
 3328              	.LASF218:
 3329 10e9 77616974 		.ascii	"waitAllEventsTimeout\000"
 3329      416C6C45 
 3329      76656E74 
 3329      7354696D 
 3329      656F7574 
 3330              	.LASF122:
 3331 10fe 756E6C6F 		.ascii	"unlock\000"
 3331      636B00
 3332              	.LASF80:
 3333 1105 76746C69 		.ascii	"vtlist\000"
 3333      737400
 3334              	.LASF48:
 3335 110c 77616974 		.ascii	"waiting\000"
 3335      696E6700 
 3336              	.LASF197:
 3337 1114 736C6565 		.ascii	"sleepUntil\000"
 3337      70556E74 
 3337      696C00
 3338              	.LASF109:
 3339 111f 6D757465 		.ascii	"mutex_t\000"
 3339      785F7400 
 3340              	.LASF23:
 3341 1127 74726566 		.ascii	"trefs_t\000"
ARM GAS  /tmp/ccUbWPqb.s 			page 70


 3341      735F7400 
 3342              	.LASF88:
 3343 112f 706F7274 		.ascii	"port_context\000"
 3343      5F636F6E 
 3343      74657874 
 3343      00
 3344              	.LASF56:
 3345 113c 74687265 		.ascii	"threads_list_t\000"
 3345      6164735F 
 3345      6C697374 
 3345      5F7400
 3346              	.LASF202:
 3347 114b 77616974 		.ascii	"waitMessage\000"
 3347      4D657373 
 3347      61676500 
 3348              	.LASF78:
 3349 1157 63685F73 		.ascii	"ch_system\000"
 3349      79737465 
 3349      6D00
 3350              	.LASF207:
 3351 1161 5F5A4E31 		.ascii	"_ZN10chibios_rt10BaseThread9addEventsEm\000"
 3351      30636869 
 3351      62696F73 
 3351      5F727431 
 3351      30426173 
 3352              	.LASF41:
 3353 1189 6E657765 		.ascii	"newer\000"
 3353      7200
 3354              	.LASF16:
 3355 118f 75696E74 		.ascii	"uint32_t\000"
 3355      33325F74 
 3355      00
 3356              	.LASF223:
 3357 1198 5F5A4E31 		.ascii	"_ZN10chibios_rt10BaseThread5yieldEv\000"
 3357      30636869 
 3357      62696F73 
 3357      5F727431 
 3357      30426173 
 3358              	.LASF93:
 3359 11bc 31387469 		.ascii	"18time_measurement_t\000"
 3359      6D655F6D 
 3359      65617375 
 3359      72656D65 
 3359      6E745F74 
 3360              	.LASF183:
 3361 11d1 7365744E 		.ascii	"setName\000"
 3361      616D6500 
 3362              	.LASF162:
 3363 11d9 72656C65 		.ascii	"release\000"
 3363      61736500 
 3364              	.LASF117:
 3365 11e1 5F5A4E31 		.ascii	"_ZN10chibios_rt6System7suspendEv\000"
 3365      30636869 
 3365      62696F73 
 3365      5F727436 
 3365      53797374 
 3366              	.LASF155:
ARM GAS  /tmp/ccUbWPqb.s 			page 71


 3367 1202 67657449 		.ascii	"getInner\000"
 3367      6E6E6572 
 3367      00
 3368              	.LASF31:
 3369 120b 7264796D 		.ascii	"rdymsg\000"
 3369      736700
 3370              	.LASF6:
 3371 1212 73686F72 		.ascii	"short unsigned int\000"
 3371      7420756E 
 3371      7369676E 
 3371      65642069 
 3371      6E7400
 3372              	.LASF77:
 3373 1225 63685F73 		.ascii	"ch_system_t\000"
 3373      79737465 
 3373      6D5F7400 
 3374              	.LASF224:
 3375 1231 5F5A4E31 		.ascii	"_ZN10chibios_rt10BaseThread16unlockAllMutexesEv\000"
 3375      30636869 
 3375      62696F73 
 3375      5F727431 
 3375      30426173 
 3376              	.LASF152:
 3377 1261 54687265 		.ascii	"ThreadReference\000"
 3377      61645265 
 3377      66657265 
 3377      6E636500 
 3378              	.LASF140:
 3379 1271 5F5A4E31 		.ascii	"_ZN10chibios_rt6System12polledDelayXEm\000"
 3379      30636869 
 3379      62696F73 
 3379      5F727436 
 3379      53797374 
 3380              	.LASF8:
 3381 1298 5F5F696E 		.ascii	"__int32_t\000"
 3381      7433325F 
 3381      7400
 3382              	.LASF213:
 3383 12a2 5F5A4E31 		.ascii	"_ZN10chibios_rt10BaseThread13waitAllEventsEm\000"
 3383      30636869 
 3383      62696F73 
 3383      5F727431 
 3383      30426173 
 3384              	.LASF138:
 3385 12cf 706F6C6C 		.ascii	"polledDelayX\000"
 3385      65644465 
 3385      6C617958 
 3385      00
 3386              	.LASF59:
 3387 12dc 6E657874 		.ascii	"next\000"
 3387      00
 3388              	.LASF178:
 3389 12e1 5F767074 		.ascii	"_vptr.BaseThread\000"
 3389      722E4261 
 3389      73655468 
 3389      72656164 
 3389      00
ARM GAS  /tmp/ccUbWPqb.s 			page 72


 3390              	.LASF62:
 3391 12f2 70726576 		.ascii	"prev\000"
 3391      00
 3392              	.LASF96:
 3393 12f7 6C617374 		.ascii	"last\000"
 3393      00
 3394              		.ident	"GCC: (15:4.9.3+svn231177-1) 4.9.3 20150529 (prerelease)"
ARM GAS  /tmp/ccUbWPqb.s 			page 73


DEFINED SYMBOLS
                            *ABS*:0000000000000000 ch.cpp
     /tmp/ccUbWPqb.s:21     .text._ZL19chSysGetIdleThreadXv:0000000000000000 $t
     /tmp/ccUbWPqb.s:26     .text._ZL19chSysGetIdleThreadXv:0000000000000000 _ZL19chSysGetIdleThreadXv
     /tmp/ccUbWPqb.s:44     .text._ZL19chSysGetIdleThreadXv:0000000000000008 $d
.ARM.exidx.text._ZL19chSysGetIdleThreadXv:0000000000000000 $d
     /tmp/ccUbWPqb.s:51     .text._ZN10chibios_rt15ThreadReferenceC2EP9ch_thread:0000000000000000 $t
     /tmp/ccUbWPqb.s:57     .text._ZN10chibios_rt15ThreadReferenceC2EP9ch_thread:0000000000000000 _ZN10chibios_rt15ThreadReferenceC2EP9ch_thread
.ARM.exidx.text._ZN10chibios_rt15ThreadReferenceC2EP9ch_thread:0000000000000000 $d
     /tmp/ccUbWPqb.s:57     .text._ZN10chibios_rt15ThreadReferenceC2EP9ch_thread:0000000000000000 _ZN10chibios_rt15ThreadReferenceC1EP9ch_thread
     /tmp/ccUbWPqb.s:91     .text._ZN10chibios_rt6System14getIdleThreadXEv:0000000000000000 $t
     /tmp/ccUbWPqb.s:97     .text._ZN10chibios_rt6System14getIdleThreadXEv:0000000000000000 _ZN10chibios_rt6System14getIdleThreadXEv
.ARM.exidx.text._ZN10chibios_rt6System14getIdleThreadXEv:0000000000000000 $d
     /tmp/ccUbWPqb.s:130    .text._ZN10chibios_rt10_thd_startEPv:0000000000000000 $t
     /tmp/ccUbWPqb.s:136    .text._ZN10chibios_rt10_thd_startEPv:0000000000000000 _ZN10chibios_rt10_thd_startEPv
.ARM.exidx.text._ZN10chibios_rt10_thd_startEPv:0000000000000000 $d
                     .debug_frame:0000000000000010 $d
                           .group:0000000000000000 _ZN10chibios_rt15ThreadReferenceC5EP9ch_thread

UNDEFINED SYMBOLS
ch
__aeabi_unwind_cpp_pr0
