ARM GAS  /tmp/cc8shE1s.s 			page 1


   1              		.syntax unified
   2              		.cpu cortex-m4
   3              		.eabi_attribute 27, 1
   4              		.eabi_attribute 28, 1
   5              		.fpu fpv4-sp-d16
   6              		.eabi_attribute 20, 1
   7              		.eabi_attribute 21, 1
   8              		.eabi_attribute 23, 3
   9              		.eabi_attribute 24, 1
  10              		.eabi_attribute 25, 1
  11              		.eabi_attribute 26, 1
  12              		.eabi_attribute 30, 4
  13              		.eabi_attribute 34, 1
  14              		.eabi_attribute 18, 4
  15              		.thumb
  16              		.file	"chcore_v7m.c"
  17              		.text
  18              	.Ltext0:
  19              		.cfi_sections	.debug_frame
  20              		.section	.text.SVC_Handler,"ax",%progbits
  21              		.align	1
  22              		.global	SVC_Handler
  23              		.thumb
  24              		.thumb_func
  25              		.type	SVC_Handler, %function
  26              	SVC_Handler:
  27              	.LFB290:
  28              		.file 1 "../../modules/ChibiOS/os/common/ports/ARMCMx/chcore_v7m.c"
  29              		.loc 1 62 0
  30              		.cfi_startproc
  31              		@ args = 0, pretend = 0, frame = 0
  32              		@ frame_needed = 0, uses_anonymous_args = 0
  33              		@ link register save eliminated.
  34              		.loc 1 68 0
  35 0000 064A     		ldr	r2, .L2
  36 0002 5368     		ldr	r3, [r2, #4]
  37 0004 23F00103 		bic	r3, r3, #1
  38 0008 5360     		str	r3, [r2, #4]
  39              	.LBB40:
  40              	.LBB41:
  41              		.file 2 "../../modules/ChibiOS/os/common/ext/ARM/CMSIS/Core/Include/cmsis_gcc.h"
  42              		.loc 2 251 0
  43              	@ 251 "../../modules/ChibiOS/os/common/ext/ARM/CMSIS/Core/Include/cmsis_gcc.h" 1
  44 000a EFF30983 		MRS r3, psp
  45              	@ 0 "" 2
  46              	.LVL0:
  47              		.thumb
  48              	.LBE41:
  49              	.LBE40:
  50              		.loc 1 76 0
  51 000e 6833     		adds	r3, r3, #104
  52              	.LVL1:
  53              	.LBB42:
  54              	.LBB43:
  55              		.loc 2 279 0
  56              	@ 279 "../../modules/ChibiOS/os/common/ext/ARM/CMSIS/Core/Include/cmsis_gcc.h" 1
  57 0010 83F30988 		MSR psp, r3
ARM GAS  /tmp/cc8shE1s.s 			page 2


  58              	@ 0 "" 2
  59              	.LVL2:
  60              		.thumb
  61              	.LBE43:
  62              	.LBE42:
  63              	.LBB44:
  64              	.LBB45:
  65              	.LBB46:
  66              	.LBB47:
  67              		.loc 2 493 0
  68 0014 0023     		movs	r3, #0
  69              	.LVL3:
  70              	@ 493 "../../modules/ChibiOS/os/common/ext/ARM/CMSIS/Core/Include/cmsis_gcc.h" 1
  71 0016 83F31188 		MSR basepri, r3
  72              	@ 0 "" 2
  73              		.thumb
  74 001a 7047     		bx	lr
  75              	.L3:
  76              		.align	2
  77              	.L2:
  78 001c 30EF00E0 		.word	-536809680
  79              	.LBE47:
  80              	.LBE46:
  81              	.LBE45:
  82              	.LBE44:
  83              		.cfi_endproc
  84              	.LFE290:
  85              		.size	SVC_Handler, .-SVC_Handler
  86              		.section	.text._port_irq_epilogue,"ax",%progbits
  87              		.align	1
  88              		.global	_port_irq_epilogue
  89              		.thumb
  90              		.thumb_func
  91              		.type	_port_irq_epilogue, %function
  92              	_port_irq_epilogue:
  93              	.LFB291:
  94              		.loc 1 122 0
  95              		.cfi_startproc
  96              		@ args = 0, pretend = 0, frame = 0
  97              		@ frame_needed = 0, uses_anonymous_args = 0
  98              	.LVL4:
  99 0000 10B5     		push	{r4, lr}
 100              		.cfi_def_cfa_offset 8
 101              		.cfi_offset 4, -8
 102              		.cfi_offset 14, -4
 103              	.LBB48:
 104              	.LBB49:
 105              	.LBB50:
 106              	.LBB51:
 107              		.loc 2 493 0
 108 0002 2023     		movs	r3, #32
 109              	@ 493 "../../modules/ChibiOS/os/common/ext/ARM/CMSIS/Core/Include/cmsis_gcc.h" 1
 110 0004 83F31188 		MSR basepri, r3
 111              	@ 0 "" 2
 112              		.thumb
 113              	.LBE51:
 114              	.LBE50:
ARM GAS  /tmp/cc8shE1s.s 			page 3


 115              	.LBE49:
 116              	.LBE48:
 117              		.loc 1 125 0
 118 0008 104B     		ldr	r3, .L10
 119 000a 5B68     		ldr	r3, [r3, #4]
 120 000c 13F40063 		ands	r3, r3, #2048
 121 0010 18D0     		beq	.L5
 122              	.LBB52:
 123              	.LBB53:
 124              	.LBB54:
 125              		.loc 2 778 0
 126              	@ 778 "../../modules/ChibiOS/os/common/ext/ARM/CMSIS/Core/Include/cmsis_gcc.h" 1
 127 0012 F1EE103A 		VMRS r3, fpscr
 128              	@ 0 "" 2
 129              	.LVL5:
 130              		.thumb
 131              	.LBE54:
 132              	.LBE53:
 133              	.LBB55:
 134              	.LBB56:
 135              		.loc 2 251 0
 136              	@ 251 "../../modules/ChibiOS/os/common/ext/ARM/CMSIS/Core/Include/cmsis_gcc.h" 1
 137 0016 EFF30984 		MRS r4, psp
 138              	@ 0 "" 2
 139              	.LVL6:
 140              		.thumb
 141              	.LBE56:
 142              	.LBE55:
 143              		.loc 1 141 0
 144 001a 4FF08073 		mov	r3, #16777216
 145 001e 44F84C3C 		str	r3, [r4, #-76]
 146              		.loc 1 143 0
 147 0022 0B4B     		ldr	r3, .L10+4
 148 0024 DB68     		ldr	r3, [r3, #12]
 149 0026 44F8083C 		str	r3, [r4, #-8]
 150              	.LVL7:
 151              		.loc 1 138 0
 152 002a A4F16803 		sub	r3, r4, #104
 153              	.LVL8:
 154              	.LBB57:
 155              	.LBB58:
 156              		.loc 2 279 0
 157              	@ 279 "../../modules/ChibiOS/os/common/ext/ARM/CMSIS/Core/Include/cmsis_gcc.h" 1
 158 002e 83F30988 		MSR psp, r3
 159              	@ 0 "" 2
 160              		.thumb
 161              	.LBE58:
 162              	.LBE57:
 163              		.loc 1 151 0
 164 0032 FFF7FEFF 		bl	chSchIsPreemptionRequired
 165              	.LVL9:
 166 0036 08B1     		cbz	r0, .L6
 167              		.loc 1 153 0
 168 0038 064B     		ldr	r3, .L10+8
 169 003a 00E0     		b	.L8
 170              	.L6:
 171              		.loc 1 158 0
ARM GAS  /tmp/cc8shE1s.s 			page 4


 172 003c 064B     		ldr	r3, .L10+12
 173              	.L8:
 174 003e 44F8503C 		str	r3, [r4, #-80]
 175 0042 10BD     		pop	{r4, pc}
 176              	.LVL10:
 177              	.L5:
 178              	.LBE52:
 179              	.LBB59:
 180              	.LBB60:
 181              	.LBB61:
 182              	.LBB62:
 183              		.loc 2 493 0
 184              	@ 493 "../../modules/ChibiOS/os/common/ext/ARM/CMSIS/Core/Include/cmsis_gcc.h" 1
 185 0044 83F31188 		MSR basepri, r3
 186              	@ 0 "" 2
 187              		.thumb
 188 0048 10BD     		pop	{r4, pc}
 189              	.L11:
 190 004a 00BF     		.align	2
 191              	.L10:
 192 004c 00ED00E0 		.word	-536810240
 193 0050 30EF00E0 		.word	-536809680
 194 0054 00000000 		.word	_port_switch_from_isr
 195 0058 00000000 		.word	_port_exit_from_isr
 196              	.LBE62:
 197              	.LBE61:
 198              	.LBE60:
 199              	.LBE59:
 200              		.cfi_endproc
 201              	.LFE291:
 202              		.size	_port_irq_epilogue, .-_port_irq_epilogue
 203              		.text
 204              	.Letext0:
 205              		.file 3 "/usr/include/newlib/machine/_default_types.h"
 206              		.file 4 "/usr/include/newlib/sys/_stdint.h"
 207              		.file 5 "../../modules/ChibiOS/os/common/ports/ARMCMx/compilers/GCC/chtypes.h"
 208              		.file 6 "../../modules/ChibiOS/os/rt/include/chsystypes.h"
 209              		.file 7 "../../modules/ChibiOS/os/rt/include/chschd.h"
 210              		.file 8 "../../modules/ChibiOS/os/rt/include/chtime.h"
 211              		.file 9 "../../modules/ChibiOS/os/common/ext/ARM/CMSIS/Core/Include/core_cm4.h"
 212              		.file 10 "../../modules/ChibiOS/os/common/ports/ARMCMx/chcore.h"
 213              		.file 11 "../../modules/ChibiOS/os/common/ports/ARMCMx/chcore_v7m.h"
 214              		.file 12 "../../modules/ChibiOS/os/rt/include/chtm.h"
 215              		.file 13 "../../modules/ChibiOS/os/rt/include/chstats.h"
 216              		.file 14 "../../modules/ChibiOS/os/rt/include/chsem.h"
 217              		.file 15 "../../modules/ChibiOS/os/rt/include/chmtx.h"
 218              		.section	.debug_info,"",%progbits
 219              	.Ldebug_info0:
 220 0000 660D0000 		.4byte	0xd66
 221 0004 0400     		.2byte	0x4
 222 0006 00000000 		.4byte	.Ldebug_abbrev0
 223 000a 04       		.byte	0x4
 224 000b 01       		.uleb128 0x1
 225 000c 73020000 		.4byte	.LASF147
 226 0010 01       		.byte	0x1
 227 0011 7A060000 		.4byte	.LASF148
 228 0015 F9050000 		.4byte	.LASF149
ARM GAS  /tmp/cc8shE1s.s 			page 5


 229 0019 00000000 		.4byte	.Ldebug_ranges0+0
 230 001d 00000000 		.4byte	0
 231 0021 00000000 		.4byte	.Ldebug_line0
 232 0025 02       		.uleb128 0x2
 233 0026 04       		.byte	0x4
 234 0027 05       		.byte	0x5
 235 0028 696E7400 		.ascii	"int\000"
 236 002c 03       		.uleb128 0x3
 237 002d 04       		.byte	0x4
 238 002e 07       		.byte	0x7
 239 002f D9010000 		.4byte	.LASF0
 240 0033 03       		.uleb128 0x3
 241 0034 01       		.byte	0x1
 242 0035 06       		.byte	0x6
 243 0036 3D000000 		.4byte	.LASF1
 244 003a 04       		.uleb128 0x4
 245 003b 49000000 		.4byte	.LASF5
 246 003f 03       		.byte	0x3
 247 0040 1D       		.byte	0x1d
 248 0041 45000000 		.4byte	0x45
 249 0045 03       		.uleb128 0x3
 250 0046 01       		.byte	0x1
 251 0047 08       		.byte	0x8
 252 0048 B6040000 		.4byte	.LASF2
 253 004c 03       		.uleb128 0x3
 254 004d 02       		.byte	0x2
 255 004e 05       		.byte	0x5
 256 004f DC040000 		.4byte	.LASF3
 257 0053 03       		.uleb128 0x3
 258 0054 02       		.byte	0x2
 259 0055 07       		.byte	0x7
 260 0056 E6050000 		.4byte	.LASF4
 261 005a 04       		.uleb128 0x4
 262 005b 9E030000 		.4byte	.LASF6
 263 005f 03       		.byte	0x3
 264 0060 3F       		.byte	0x3f
 265 0061 65000000 		.4byte	0x65
 266 0065 03       		.uleb128 0x3
 267 0066 04       		.byte	0x4
 268 0067 05       		.byte	0x5
 269 0068 42010000 		.4byte	.LASF7
 270 006c 04       		.uleb128 0x4
 271 006d 79010000 		.4byte	.LASF8
 272 0071 03       		.byte	0x3
 273 0072 41       		.byte	0x41
 274 0073 77000000 		.4byte	0x77
 275 0077 03       		.uleb128 0x3
 276 0078 04       		.byte	0x4
 277 0079 07       		.byte	0x7
 278 007a 6D050000 		.4byte	.LASF9
 279 007e 03       		.uleb128 0x3
 280 007f 08       		.byte	0x8
 281 0080 05       		.byte	0x5
 282 0081 AE010000 		.4byte	.LASF10
 283 0085 04       		.uleb128 0x4
 284 0086 42040000 		.4byte	.LASF11
 285 008a 03       		.byte	0x3
ARM GAS  /tmp/cc8shE1s.s 			page 6


 286 008b 5B       		.byte	0x5b
 287 008c 90000000 		.4byte	0x90
 288 0090 03       		.uleb128 0x3
 289 0091 08       		.byte	0x8
 290 0092 07       		.byte	0x7
 291 0093 FC000000 		.4byte	.LASF12
 292 0097 04       		.uleb128 0x4
 293 0098 B4060000 		.4byte	.LASF13
 294 009c 04       		.byte	0x4
 295 009d 14       		.byte	0x14
 296 009e 3A000000 		.4byte	0x3a
 297 00a2 04       		.uleb128 0x4
 298 00a3 AE040000 		.4byte	.LASF14
 299 00a7 04       		.byte	0x4
 300 00a8 1F       		.byte	0x1f
 301 00a9 5A000000 		.4byte	0x5a
 302 00ad 04       		.uleb128 0x4
 303 00ae 42050000 		.4byte	.LASF15
 304 00b2 04       		.byte	0x4
 305 00b3 20       		.byte	0x20
 306 00b4 6C000000 		.4byte	0x6c
 307 00b8 04       		.uleb128 0x4
 308 00b9 27000000 		.4byte	.LASF16
 309 00bd 04       		.byte	0x4
 310 00be 26       		.byte	0x26
 311 00bf 85000000 		.4byte	0x85
 312 00c3 04       		.uleb128 0x4
 313 00c4 25060000 		.4byte	.LASF17
 314 00c8 05       		.byte	0x5
 315 00c9 27       		.byte	0x27
 316 00ca AD000000 		.4byte	0xad
 317 00ce 04       		.uleb128 0x4
 318 00cf F3000000 		.4byte	.LASF18
 319 00d3 05       		.byte	0x5
 320 00d4 28       		.byte	0x28
 321 00d5 B8000000 		.4byte	0xb8
 322 00d9 04       		.uleb128 0x4
 323 00da 62030000 		.4byte	.LASF19
 324 00de 05       		.byte	0x5
 325 00df 2A       		.byte	0x2a
 326 00e0 97000000 		.4byte	0x97
 327 00e4 04       		.uleb128 0x4
 328 00e5 4B010000 		.4byte	.LASF20
 329 00e9 05       		.byte	0x5
 330 00ea 2B       		.byte	0x2b
 331 00eb 97000000 		.4byte	0x97
 332 00ef 04       		.uleb128 0x4
 333 00f0 64040000 		.4byte	.LASF21
 334 00f4 05       		.byte	0x5
 335 00f5 2C       		.byte	0x2c
 336 00f6 97000000 		.4byte	0x97
 337 00fa 04       		.uleb128 0x4
 338 00fb 8B040000 		.4byte	.LASF22
 339 00ff 05       		.byte	0x5
 340 0100 2E       		.byte	0x2e
 341 0101 AD000000 		.4byte	0xad
 342 0105 04       		.uleb128 0x4
ARM GAS  /tmp/cc8shE1s.s 			page 7


 343 0106 39020000 		.4byte	.LASF23
 344 010a 05       		.byte	0x5
 345 010b 2F       		.byte	0x2f
 346 010c A2000000 		.4byte	0xa2
 347 0110 04       		.uleb128 0x4
 348 0111 83030000 		.4byte	.LASF24
 349 0115 05       		.byte	0x5
 350 0116 31       		.byte	0x31
 351 0117 AD000000 		.4byte	0xad
 352 011b 04       		.uleb128 0x4
 353 011c CA010000 		.4byte	.LASF25
 354 0120 05       		.byte	0x5
 355 0121 33       		.byte	0x33
 356 0122 A2000000 		.4byte	0xa2
 357 0126 04       		.uleb128 0x4
 358 0127 4A020000 		.4byte	.LASF26
 359 012b 05       		.byte	0x5
 360 012c 34       		.byte	0x34
 361 012d AD000000 		.4byte	0xad
 362 0131 04       		.uleb128 0x4
 363 0132 A6050000 		.4byte	.LASF27
 364 0136 06       		.byte	0x6
 365 0137 34       		.byte	0x34
 366 0138 3C010000 		.4byte	0x13c
 367 013c 05       		.uleb128 0x5
 368 013d 25020000 		.4byte	.LASF46
 369 0141 60       		.byte	0x60
 370 0142 07       		.byte	0x7
 371 0143 8E       		.byte	0x8e
 372 0144 27020000 		.4byte	0x227
 373 0148 06       		.uleb128 0x6
 374 0149 FB030000 		.4byte	.LASF28
 375 014d 07       		.byte	0x7
 376 014e 8F       		.byte	0x8f
 377 014f 5C020000 		.4byte	0x25c
 378 0153 00       		.byte	0
 379 0154 06       		.uleb128 0x6
 380 0155 30040000 		.4byte	.LASF29
 381 0159 07       		.byte	0x7
 382 015a 90       		.byte	0x90
 383 015b FA000000 		.4byte	0xfa
 384 015f 08       		.byte	0x8
 385 0160 07       		.uleb128 0x7
 386 0161 63747800 		.ascii	"ctx\000"
 387 0165 07       		.byte	0x7
 388 0166 91       		.byte	0x91
 389 0167 7F060000 		.4byte	0x67f
 390 016b 0C       		.byte	0xc
 391 016c 06       		.uleb128 0x6
 392 016d B3030000 		.4byte	.LASF30
 393 0171 07       		.byte	0x7
 394 0172 93       		.byte	0x93
 395 0173 32020000 		.4byte	0x232
 396 0177 10       		.byte	0x10
 397 0178 06       		.uleb128 0x6
 398 0179 8B050000 		.4byte	.LASF31
 399 017d 07       		.byte	0x7
ARM GAS  /tmp/cc8shE1s.s 			page 8


 400 017e 94       		.byte	0x94
 401 017f 32020000 		.4byte	0x232
 402 0183 14       		.byte	0x14
 403 0184 06       		.uleb128 0x6
 404 0185 20020000 		.4byte	.LASF32
 405 0189 07       		.byte	0x7
 406 018a 9B       		.byte	0x9b
 407 018b B60A0000 		.4byte	0xab6
 408 018f 18       		.byte	0x18
 409 0190 06       		.uleb128 0x6
 410 0191 7F050000 		.4byte	.LASF33
 411 0195 07       		.byte	0x7
 412 0196 A4       		.byte	0xa4
 413 0197 C80A0000 		.4byte	0xac8
 414 019b 1C       		.byte	0x1c
 415 019c 06       		.uleb128 0x6
 416 019d 3C010000 		.4byte	.LASF34
 417 01a1 07       		.byte	0x7
 418 01a2 A9       		.byte	0xa9
 419 01a3 E4000000 		.4byte	0xe4
 420 01a7 20       		.byte	0x20
 421 01a8 06       		.uleb128 0x6
 422 01a9 BC060000 		.4byte	.LASF35
 423 01ad 07       		.byte	0x7
 424 01ae AD       		.byte	0xad
 425 01af D9000000 		.4byte	0xd9
 426 01b3 21       		.byte	0x21
 427 01b4 06       		.uleb128 0x6
 428 01b5 D7040000 		.4byte	.LASF36
 429 01b9 07       		.byte	0x7
 430 01ba B2       		.byte	0xb2
 431 01bb EF000000 		.4byte	0xef
 432 01bf 22       		.byte	0x22
 433 01c0 08       		.uleb128 0x8
 434 01c1 7500     		.ascii	"u\000"
 435 01c3 07       		.byte	0x7
 436 01c4 0301     		.2byte	0x103
 437 01c6 EC090000 		.4byte	0x9ec
 438 01ca 24       		.byte	0x24
 439 01cb 09       		.uleb128 0x9
 440 01cc A6010000 		.4byte	.LASF37
 441 01d0 07       		.byte	0x7
 442 01d1 0801     		.2byte	0x108
 443 01d3 38020000 		.4byte	0x238
 444 01d7 28       		.byte	0x28
 445 01d8 09       		.uleb128 0x9
 446 01d9 33010000 		.4byte	.LASF38
 447 01dd 07       		.byte	0x7
 448 01de 0E01     		.2byte	0x10e
 449 01e0 5C020000 		.4byte	0x25c
 450 01e4 2C       		.byte	0x2c
 451 01e5 09       		.uleb128 0x9
 452 01e6 51020000 		.4byte	.LASF39
 453 01ea 07       		.byte	0x7
 454 01eb 1401     		.2byte	0x114
 455 01ed 10010000 		.4byte	0x110
 456 01f1 34       		.byte	0x34
ARM GAS  /tmp/cc8shE1s.s 			page 9


 457 01f2 09       		.uleb128 0x9
 458 01f3 D4060000 		.4byte	.LASF40
 459 01f7 07       		.byte	0x7
 460 01f8 1B01     		.2byte	0x11b
 461 01fa B00A0000 		.4byte	0xab0
 462 01fe 38       		.byte	0x38
 463 01ff 09       		.uleb128 0x9
 464 0200 B9030000 		.4byte	.LASF41
 465 0204 07       		.byte	0x7
 466 0205 1F01     		.2byte	0x11f
 467 0207 FA000000 		.4byte	0xfa
 468 020b 3C       		.byte	0x3c
 469 020c 09       		.uleb128 0x9
 470 020d 02020000 		.4byte	.LASF42
 471 0211 07       		.byte	0x7
 472 0212 2601     		.2byte	0x126
 473 0214 0F030000 		.4byte	0x30f
 474 0218 40       		.byte	0x40
 475 0219 09       		.uleb128 0x9
 476 021a 59010000 		.4byte	.LASF43
 477 021e 07       		.byte	0x7
 478 021f 2C01     		.2byte	0x12c
 479 0221 9D090000 		.4byte	0x99d
 480 0225 48       		.byte	0x48
 481 0226 00       		.byte	0
 482 0227 04       		.uleb128 0x4
 483 0228 D1030000 		.4byte	.LASF44
 484 022c 06       		.byte	0x6
 485 022d 39       		.byte	0x39
 486 022e 32020000 		.4byte	0x232
 487 0232 0A       		.uleb128 0xa
 488 0233 04       		.byte	0x4
 489 0234 31010000 		.4byte	0x131
 490 0238 04       		.uleb128 0x4
 491 0239 84000000 		.4byte	.LASF45
 492 023d 06       		.byte	0x6
 493 023e 3E       		.byte	0x3e
 494 023f 43020000 		.4byte	0x243
 495 0243 05       		.uleb128 0x5
 496 0244 57050000 		.4byte	.LASF47
 497 0248 04       		.byte	0x4
 498 0249 07       		.byte	0x7
 499 024a 7C       		.byte	0x7c
 500 024b 5C020000 		.4byte	0x25c
 501 024f 06       		.uleb128 0x6
 502 0250 EE000000 		.4byte	.LASF48
 503 0254 07       		.byte	0x7
 504 0255 7D       		.byte	0x7d
 505 0256 32020000 		.4byte	0x232
 506 025a 00       		.byte	0
 507 025b 00       		.byte	0
 508 025c 04       		.uleb128 0x4
 509 025d 4A060000 		.4byte	.LASF49
 510 0261 06       		.byte	0x6
 511 0262 45       		.byte	0x45
 512 0263 67020000 		.4byte	0x267
 513 0267 05       		.uleb128 0x5
ARM GAS  /tmp/cc8shE1s.s 			page 10


 514 0268 64000000 		.4byte	.LASF50
 515 026c 08       		.byte	0x8
 516 026d 07       		.byte	0x7
 517 026e 83       		.byte	0x83
 518 026f 8C020000 		.4byte	0x28c
 519 0273 06       		.uleb128 0x6
 520 0274 EE000000 		.4byte	.LASF48
 521 0278 07       		.byte	0x7
 522 0279 84       		.byte	0x84
 523 027a 32020000 		.4byte	0x232
 524 027e 00       		.byte	0
 525 027f 06       		.uleb128 0x6
 526 0280 53000000 		.4byte	.LASF51
 527 0284 07       		.byte	0x7
 528 0285 85       		.byte	0x85
 529 0286 32020000 		.4byte	0x232
 530 028a 04       		.byte	0x4
 531 028b 00       		.byte	0
 532 028c 04       		.uleb128 0x4
 533 028d 00000000 		.4byte	.LASF52
 534 0291 06       		.byte	0x6
 535 0292 4C       		.byte	0x4c
 536 0293 97020000 		.4byte	0x297
 537 0297 0B       		.uleb128 0xb
 538 0298 75030000 		.4byte	.LASF53
 539 029c 1C       		.byte	0x1c
 540 029d 07       		.byte	0x7
 541 029e 5E01     		.2byte	0x15e
 542 02a0 F3020000 		.4byte	0x2f3
 543 02a4 09       		.uleb128 0x9
 544 02a5 FB030000 		.4byte	.LASF28
 545 02a9 07       		.byte	0x7
 546 02aa 5F01     		.2byte	0x15f
 547 02ac 5C020000 		.4byte	0x25c
 548 02b0 00       		.byte	0
 549 02b1 09       		.uleb128 0x9
 550 02b2 30040000 		.4byte	.LASF29
 551 02b6 07       		.byte	0x7
 552 02b7 6001     		.2byte	0x160
 553 02b9 FA000000 		.4byte	0xfa
 554 02bd 08       		.byte	0x8
 555 02be 08       		.uleb128 0x8
 556 02bf 63747800 		.ascii	"ctx\000"
 557 02c3 07       		.byte	0x7
 558 02c4 6201     		.2byte	0x162
 559 02c6 7F060000 		.4byte	0x67f
 560 02ca 0C       		.byte	0xc
 561 02cb 09       		.uleb128 0x9
 562 02cc B3030000 		.4byte	.LASF30
 563 02d0 07       		.byte	0x7
 564 02d1 6501     		.2byte	0x165
 565 02d3 32020000 		.4byte	0x232
 566 02d7 10       		.byte	0x10
 567 02d8 09       		.uleb128 0x9
 568 02d9 8B050000 		.4byte	.LASF31
 569 02dd 07       		.byte	0x7
 570 02de 6601     		.2byte	0x166
ARM GAS  /tmp/cc8shE1s.s 			page 11


 571 02e0 32020000 		.4byte	0x232
 572 02e4 14       		.byte	0x14
 573 02e5 09       		.uleb128 0x9
 574 02e6 35040000 		.4byte	.LASF54
 575 02ea 07       		.byte	0x7
 576 02eb 6901     		.2byte	0x169
 577 02ed 32020000 		.4byte	0x232
 578 02f1 18       		.byte	0x18
 579 02f2 00       		.byte	0
 580 02f3 04       		.uleb128 0x4
 581 02f4 BE050000 		.4byte	.LASF55
 582 02f8 06       		.byte	0x6
 583 02f9 51       		.byte	0x51
 584 02fa FE020000 		.4byte	0x2fe
 585 02fe 0A       		.uleb128 0xa
 586 02ff 04       		.byte	0x4
 587 0300 04030000 		.4byte	0x304
 588 0304 0C       		.uleb128 0xc
 589 0305 0F030000 		.4byte	0x30f
 590 0309 0D       		.uleb128 0xd
 591 030a 0F030000 		.4byte	0x30f
 592 030e 00       		.byte	0
 593 030f 0E       		.uleb128 0xe
 594 0310 04       		.byte	0x4
 595 0311 04       		.uleb128 0x4
 596 0312 7B040000 		.4byte	.LASF56
 597 0316 06       		.byte	0x6
 598 0317 56       		.byte	0x56
 599 0318 1C030000 		.4byte	0x31c
 600 031c 0B       		.uleb128 0xb
 601 031d 24050000 		.4byte	.LASF57
 602 0321 14       		.byte	0x14
 603 0322 07       		.byte	0x7
 604 0323 3901     		.2byte	0x139
 605 0325 6B030000 		.4byte	0x36b
 606 0329 09       		.uleb128 0x9
 607 032a EE000000 		.4byte	.LASF48
 608 032e 07       		.byte	0x7
 609 032f 3A01     		.2byte	0x13a
 610 0331 CE0A0000 		.4byte	0xace
 611 0335 00       		.byte	0
 612 0336 09       		.uleb128 0x9
 613 0337 53000000 		.4byte	.LASF51
 614 033b 07       		.byte	0x7
 615 033c 3B01     		.2byte	0x13b
 616 033e CE0A0000 		.4byte	0xace
 617 0342 04       		.byte	0x4
 618 0343 09       		.uleb128 0x9
 619 0344 13000000 		.4byte	.LASF58
 620 0348 07       		.byte	0x7
 621 0349 3C01     		.2byte	0x13c
 622 034b 4F040000 		.4byte	0x44f
 623 034f 08       		.byte	0x8
 624 0350 09       		.uleb128 0x9
 625 0351 54010000 		.4byte	.LASF59
 626 0355 07       		.byte	0x7
 627 0356 3D01     		.2byte	0x13d
ARM GAS  /tmp/cc8shE1s.s 			page 12


 628 0358 F3020000 		.4byte	0x2f3
 629 035c 0C       		.byte	0xc
 630 035d 08       		.uleb128 0x8
 631 035e 70617200 		.ascii	"par\000"
 632 0362 07       		.byte	0x7
 633 0363 3F01     		.2byte	0x13f
 634 0365 0F030000 		.4byte	0x30f
 635 0369 10       		.byte	0x10
 636 036a 00       		.byte	0
 637 036b 04       		.uleb128 0x4
 638 036c D2000000 		.4byte	.LASF60
 639 0370 06       		.byte	0x6
 640 0371 5B       		.byte	0x5b
 641 0372 76030000 		.4byte	0x376
 642 0376 0B       		.uleb128 0xb
 643 0377 E4030000 		.4byte	.LASF61
 644 037b 10       		.byte	0x10
 645 037c 07       		.byte	0x7
 646 037d 4901     		.2byte	0x149
 647 037f B8030000 		.4byte	0x3b8
 648 0383 09       		.uleb128 0x9
 649 0384 EE000000 		.4byte	.LASF48
 650 0388 07       		.byte	0x7
 651 0389 4A01     		.2byte	0x14a
 652 038b CE0A0000 		.4byte	0xace
 653 038f 00       		.byte	0
 654 0390 09       		.uleb128 0x9
 655 0391 53000000 		.4byte	.LASF51
 656 0395 07       		.byte	0x7
 657 0396 4C01     		.2byte	0x14c
 658 0398 CE0A0000 		.4byte	0xace
 659 039c 04       		.byte	0x4
 660 039d 09       		.uleb128 0x9
 661 039e 13000000 		.4byte	.LASF58
 662 03a2 07       		.byte	0x7
 663 03a3 4E01     		.2byte	0x14e
 664 03a5 4F040000 		.4byte	0x44f
 665 03a9 08       		.byte	0x8
 666 03aa 09       		.uleb128 0x9
 667 03ab E6040000 		.4byte	.LASF62
 668 03af 07       		.byte	0x7
 669 03b0 5601     		.2byte	0x156
 670 03b2 44040000 		.4byte	0x444
 671 03b6 0C       		.byte	0xc
 672 03b7 00       		.byte	0
 673 03b8 04       		.uleb128 0x4
 674 03b9 75000000 		.4byte	.LASF63
 675 03bd 06       		.byte	0x6
 676 03be 60       		.byte	0x60
 677 03bf C3030000 		.4byte	0x3c3
 678 03c3 0B       		.uleb128 0xb
 679 03c4 96010000 		.4byte	.LASF64
 680 03c8 04       		.byte	0x4
 681 03c9 07       		.byte	0x7
 682 03ca 7001     		.2byte	0x170
 683 03cc DE030000 		.4byte	0x3de
 684 03d0 09       		.uleb128 0x9
ARM GAS  /tmp/cc8shE1s.s 			page 13


 685 03d1 D5050000 		.4byte	.LASF65
 686 03d5 07       		.byte	0x7
 687 03d6 7801     		.2byte	0x178
 688 03d8 D40A0000 		.4byte	0xad4
 689 03dc 00       		.byte	0
 690 03dd 00       		.byte	0
 691 03de 04       		.uleb128 0x4
 692 03df 63060000 		.4byte	.LASF66
 693 03e3 06       		.byte	0x6
 694 03e4 65       		.byte	0x65
 695 03e5 E9030000 		.4byte	0x3e9
 696 03e9 0B       		.uleb128 0xb
 697 03ea FB040000 		.4byte	.LASF67
 698 03ee D0       		.byte	0xd0
 699 03ef 07       		.byte	0x7
 700 03f0 9001     		.2byte	0x190
 701 03f2 44040000 		.4byte	0x444
 702 03f6 09       		.uleb128 0x9
 703 03f7 74060000 		.4byte	.LASF68
 704 03fb 07       		.byte	0x7
 705 03fc 9401     		.2byte	0x194
 706 03fe 8C020000 		.4byte	0x28c
 707 0402 00       		.byte	0
 708 0403 09       		.uleb128 0x9
 709 0404 20010000 		.4byte	.LASF69
 710 0408 07       		.byte	0x7
 711 0409 9801     		.2byte	0x198
 712 040b 6B030000 		.4byte	0x36b
 713 040f 1C       		.byte	0x1c
 714 0410 08       		.uleb128 0x8
 715 0411 64626700 		.ascii	"dbg\000"
 716 0415 07       		.byte	0x7
 717 0416 9C01     		.2byte	0x19c
 718 0418 B8030000 		.4byte	0x3b8
 719 041c 2C       		.byte	0x2c
 720 041d 09       		.uleb128 0x9
 721 041e BF000000 		.4byte	.LASF70
 722 0422 07       		.byte	0x7
 723 0423 A001     		.2byte	0x1a0
 724 0425 31010000 		.4byte	0x131
 725 0429 30       		.byte	0x30
 726 042a 08       		.uleb128 0x8
 727 042b 746D00   		.ascii	"tm\000"
 728 042e 07       		.byte	0x7
 729 042f A501     		.2byte	0x1a5
 730 0431 4F090000 		.4byte	0x94f
 731 0435 90       		.byte	0x90
 732 0436 09       		.uleb128 0x9
 733 0437 30000000 		.4byte	.LASF71
 734 043b 07       		.byte	0x7
 735 043c AB01     		.2byte	0x1ab
 736 043e E1090000 		.4byte	0x9e1
 737 0442 98       		.byte	0x98
 738 0443 00       		.byte	0
 739 0444 04       		.uleb128 0x4
 740 0445 B4050000 		.4byte	.LASF72
 741 0449 08       		.byte	0x8
ARM GAS  /tmp/cc8shE1s.s 			page 14


 742 044a 6D       		.byte	0x6d
 743 044b AD000000 		.4byte	0xad
 744 044f 04       		.uleb128 0x4
 745 0450 BC010000 		.4byte	.LASF73
 746 0454 08       		.byte	0x8
 747 0455 79       		.byte	0x79
 748 0456 AD000000 		.4byte	0xad
 749 045a 03       		.uleb128 0x3
 750 045b 04       		.byte	0x4
 751 045c 07       		.byte	0x7
 752 045d C8030000 		.4byte	.LASF74
 753 0461 0F       		.uleb128 0xf
 754 0462 AD000000 		.4byte	0xad
 755 0466 10       		.uleb128 0x10
 756 0467 8C       		.byte	0x8c
 757 0468 09       		.byte	0x9
 758 0469 B801     		.2byte	0x1b8
 759 046b 81050000 		.4byte	0x581
 760 046f 09       		.uleb128 0x9
 761 0470 E8000000 		.4byte	.LASF75
 762 0474 09       		.byte	0x9
 763 0475 BA01     		.2byte	0x1ba
 764 0477 81050000 		.4byte	0x581
 765 047b 00       		.byte	0
 766 047c 09       		.uleb128 0x9
 767 047d 34020000 		.4byte	.LASF76
 768 0481 09       		.byte	0x9
 769 0482 BB01     		.2byte	0x1bb
 770 0484 61040000 		.4byte	0x461
 771 0488 04       		.byte	0x4
 772 0489 09       		.uleb128 0x9
 773 048a FD010000 		.4byte	.LASF77
 774 048e 09       		.byte	0x9
 775 048f BC01     		.2byte	0x1bc
 776 0491 61040000 		.4byte	0x461
 777 0495 08       		.byte	0x8
 778 0496 09       		.uleb128 0x9
 779 0497 3F020000 		.4byte	.LASF78
 780 049b 09       		.byte	0x9
 781 049c BD01     		.2byte	0x1bd
 782 049e 61040000 		.4byte	0x461
 783 04a2 0C       		.byte	0xc
 784 04a3 08       		.uleb128 0x8
 785 04a4 53435200 		.ascii	"SCR\000"
 786 04a8 09       		.byte	0x9
 787 04a9 BE01     		.2byte	0x1be
 788 04ab 61040000 		.4byte	0x461
 789 04af 10       		.byte	0x10
 790 04b0 08       		.uleb128 0x8
 791 04b1 43435200 		.ascii	"CCR\000"
 792 04b5 09       		.byte	0x9
 793 04b6 BF01     		.2byte	0x1bf
 794 04b8 61040000 		.4byte	0x461
 795 04bc 14       		.byte	0x14
 796 04bd 08       		.uleb128 0x8
 797 04be 53485000 		.ascii	"SHP\000"
 798 04c2 09       		.byte	0x9
ARM GAS  /tmp/cc8shE1s.s 			page 15


 799 04c3 C001     		.2byte	0x1c0
 800 04c5 96050000 		.4byte	0x596
 801 04c9 18       		.byte	0x18
 802 04ca 09       		.uleb128 0x9
 803 04cb C4040000 		.4byte	.LASF79
 804 04cf 09       		.byte	0x9
 805 04d0 C101     		.2byte	0x1c1
 806 04d2 61040000 		.4byte	0x461
 807 04d6 24       		.byte	0x24
 808 04d7 09       		.uleb128 0x9
 809 04d8 01040000 		.4byte	.LASF80
 810 04dc 09       		.byte	0x9
 811 04dd C201     		.2byte	0x1c2
 812 04df 61040000 		.4byte	0x461
 813 04e3 28       		.byte	0x28
 814 04e4 09       		.uleb128 0x9
 815 04e5 CF060000 		.4byte	.LASF81
 816 04e9 09       		.byte	0x9
 817 04ea C301     		.2byte	0x1c3
 818 04ec 61040000 		.4byte	0x461
 819 04f0 2C       		.byte	0x2c
 820 04f1 09       		.uleb128 0x9
 821 04f2 45020000 		.4byte	.LASF82
 822 04f6 09       		.byte	0x9
 823 04f7 C401     		.2byte	0x1c4
 824 04f9 61040000 		.4byte	0x461
 825 04fd 30       		.byte	0x30
 826 04fe 09       		.uleb128 0x9
 827 04ff 5A020000 		.4byte	.LASF83
 828 0503 09       		.byte	0x9
 829 0504 C501     		.2byte	0x1c5
 830 0506 61040000 		.4byte	0x461
 831 050a 34       		.byte	0x34
 832 050b 09       		.uleb128 0x9
 833 050c 2F020000 		.4byte	.LASF84
 834 0510 09       		.byte	0x9
 835 0511 C601     		.2byte	0x1c6
 836 0513 61040000 		.4byte	0x461
 837 0517 38       		.byte	0x38
 838 0518 09       		.uleb128 0x9
 839 0519 52050000 		.4byte	.LASF85
 840 051d 09       		.byte	0x9
 841 051e C701     		.2byte	0x1c7
 842 0520 61040000 		.4byte	0x461
 843 0524 3C       		.byte	0x3c
 844 0525 08       		.uleb128 0x8
 845 0526 50465200 		.ascii	"PFR\000"
 846 052a 09       		.byte	0x9
 847 052b C801     		.2byte	0x1c8
 848 052d AB050000 		.4byte	0x5ab
 849 0531 40       		.byte	0x40
 850 0532 08       		.uleb128 0x8
 851 0533 44465200 		.ascii	"DFR\000"
 852 0537 09       		.byte	0x9
 853 0538 C901     		.2byte	0x1c9
 854 053a 81050000 		.4byte	0x581
 855 053e 48       		.byte	0x48
ARM GAS  /tmp/cc8shE1s.s 			page 16


 856 053f 08       		.uleb128 0x8
 857 0540 41445200 		.ascii	"ADR\000"
 858 0544 09       		.byte	0x9
 859 0545 CA01     		.2byte	0x1ca
 860 0547 81050000 		.4byte	0x581
 861 054b 4C       		.byte	0x4c
 862 054c 09       		.uleb128 0x9
 863 054d 6F060000 		.4byte	.LASF86
 864 0551 09       		.byte	0x9
 865 0552 CB01     		.2byte	0x1cb
 866 0554 C5050000 		.4byte	0x5c5
 867 0558 50       		.byte	0x50
 868 0559 09       		.uleb128 0x9
 869 055a 13010000 		.4byte	.LASF87
 870 055e 09       		.byte	0x9
 871 055f CC01     		.2byte	0x1cc
 872 0561 DF050000 		.4byte	0x5df
 873 0565 60       		.byte	0x60
 874 0566 09       		.uleb128 0x9
 875 0567 6C040000 		.4byte	.LASF88
 876 056b 09       		.byte	0x9
 877 056c CD01     		.2byte	0x1cd
 878 056e CF050000 		.4byte	0x5cf
 879 0572 74       		.byte	0x74
 880 0573 09       		.uleb128 0x9
 881 0574 C9060000 		.4byte	.LASF89
 882 0578 09       		.byte	0x9
 883 0579 CE01     		.2byte	0x1ce
 884 057b 61040000 		.4byte	0x461
 885 057f 88       		.byte	0x88
 886 0580 00       		.byte	0
 887 0581 11       		.uleb128 0x11
 888 0582 61040000 		.4byte	0x461
 889 0586 12       		.uleb128 0x12
 890 0587 97000000 		.4byte	0x97
 891 058b 96050000 		.4byte	0x596
 892 058f 13       		.uleb128 0x13
 893 0590 5A040000 		.4byte	0x45a
 894 0594 0B       		.byte	0xb
 895 0595 00       		.byte	0
 896 0596 0F       		.uleb128 0xf
 897 0597 86050000 		.4byte	0x586
 898 059b 12       		.uleb128 0x12
 899 059c AD000000 		.4byte	0xad
 900 05a0 AB050000 		.4byte	0x5ab
 901 05a4 13       		.uleb128 0x13
 902 05a5 5A040000 		.4byte	0x45a
 903 05a9 01       		.byte	0x1
 904 05aa 00       		.byte	0
 905 05ab 11       		.uleb128 0x11
 906 05ac B0050000 		.4byte	0x5b0
 907 05b0 0F       		.uleb128 0xf
 908 05b1 9B050000 		.4byte	0x59b
 909 05b5 12       		.uleb128 0x12
 910 05b6 AD000000 		.4byte	0xad
 911 05ba C5050000 		.4byte	0x5c5
 912 05be 13       		.uleb128 0x13
ARM GAS  /tmp/cc8shE1s.s 			page 17


 913 05bf 5A040000 		.4byte	0x45a
 914 05c3 03       		.byte	0x3
 915 05c4 00       		.byte	0
 916 05c5 11       		.uleb128 0x11
 917 05c6 CA050000 		.4byte	0x5ca
 918 05ca 0F       		.uleb128 0xf
 919 05cb B5050000 		.4byte	0x5b5
 920 05cf 12       		.uleb128 0x12
 921 05d0 AD000000 		.4byte	0xad
 922 05d4 DF050000 		.4byte	0x5df
 923 05d8 13       		.uleb128 0x13
 924 05d9 5A040000 		.4byte	0x45a
 925 05dd 04       		.byte	0x4
 926 05de 00       		.byte	0
 927 05df 11       		.uleb128 0x11
 928 05e0 E4050000 		.4byte	0x5e4
 929 05e4 0F       		.uleb128 0xf
 930 05e5 CF050000 		.4byte	0x5cf
 931 05e9 14       		.uleb128 0x14
 932 05ea 8D010000 		.4byte	.LASF90
 933 05ee 09       		.byte	0x9
 934 05ef CF01     		.2byte	0x1cf
 935 05f1 66040000 		.4byte	0x466
 936 05f5 12       		.uleb128 0x12
 937 05f6 AD000000 		.4byte	0xad
 938 05fa 05060000 		.4byte	0x605
 939 05fe 13       		.uleb128 0x13
 940 05ff 5A040000 		.4byte	0x45a
 941 0603 00       		.byte	0
 942 0604 00       		.byte	0
 943 0605 10       		.uleb128 0x10
 944 0606 18       		.byte	0x18
 945 0607 09       		.byte	0x9
 946 0608 2705     		.2byte	0x527
 947 060a 5D060000 		.4byte	0x65d
 948 060e 09       		.uleb128 0x9
 949 060f 6C040000 		.4byte	.LASF88
 950 0613 09       		.byte	0x9
 951 0614 2905     		.2byte	0x529
 952 0616 F5050000 		.4byte	0x5f5
 953 061a 00       		.byte	0
 954 061b 09       		.uleb128 0x9
 955 061c C2030000 		.4byte	.LASF91
 956 0620 09       		.byte	0x9
 957 0621 2A05     		.2byte	0x52a
 958 0623 61040000 		.4byte	0x461
 959 0627 04       		.byte	0x4
 960 0628 09       		.uleb128 0x9
 961 0629 12050000 		.4byte	.LASF92
 962 062d 09       		.byte	0x9
 963 062e 2B05     		.2byte	0x52b
 964 0630 61040000 		.4byte	0x461
 965 0634 08       		.byte	0x8
 966 0635 09       		.uleb128 0x9
 967 0636 20000000 		.4byte	.LASF93
 968 063a 09       		.byte	0x9
 969 063b 2C05     		.2byte	0x52c
ARM GAS  /tmp/cc8shE1s.s 			page 18


 970 063d 61040000 		.4byte	0x461
 971 0641 0C       		.byte	0xc
 972 0642 09       		.uleb128 0x9
 973 0643 58040000 		.4byte	.LASF94
 974 0647 09       		.byte	0x9
 975 0648 2D05     		.2byte	0x52d
 976 064a 81050000 		.4byte	0x581
 977 064e 10       		.byte	0x10
 978 064f 09       		.uleb128 0x9
 979 0650 5E040000 		.4byte	.LASF95
 980 0654 09       		.byte	0x9
 981 0655 2E05     		.2byte	0x52e
 982 0657 81050000 		.4byte	0x581
 983 065b 14       		.byte	0x14
 984 065c 00       		.byte	0
 985 065d 14       		.uleb128 0x14
 986 065e D0010000 		.4byte	.LASF96
 987 0662 09       		.byte	0x9
 988 0663 2F05     		.2byte	0x52f
 989 0665 05060000 		.4byte	0x605
 990 0669 04       		.uleb128 0x4
 991 066a 84010000 		.4byte	.LASF97
 992 066e 0A       		.byte	0xa
 993 066f 65       		.byte	0x65
 994 0670 0F030000 		.4byte	0x30f
 995 0674 04       		.uleb128 0x4
 996 0675 A8030000 		.4byte	.LASF98
 997 0679 0A       		.byte	0xa
 998 067a 6D       		.byte	0x6d
 999 067b B8000000 		.4byte	0xb8
 1000 067f 05       		.uleb128 0x5
 1001 0680 06040000 		.4byte	.LASF99
 1002 0684 04       		.byte	0x4
 1003 0685 0A       		.byte	0xa
 1004 0686 89       		.byte	0x89
 1005 0687 97060000 		.4byte	0x697
 1006 068b 07       		.uleb128 0x7
 1007 068c 737000   		.ascii	"sp\000"
 1008 068f 0A       		.byte	0xa
 1009 0690 8A       		.byte	0x8a
 1010 0691 E3070000 		.4byte	0x7e3
 1011 0695 00       		.byte	0
 1012 0696 00       		.byte	0
 1013 0697 0B       		.uleb128 0xb
 1014 0698 58000000 		.4byte	.LASF100
 1015 069c 64       		.byte	0x64
 1016 069d 0B       		.byte	0xb
 1017 069e 5901     		.2byte	0x159
 1018 06a0 E3070000 		.4byte	0x7e3
 1019 06a4 08       		.uleb128 0x8
 1020 06a5 73313600 		.ascii	"s16\000"
 1021 06a9 0B       		.byte	0xb
 1022 06aa 5B01     		.2byte	0x15b
 1023 06ac 69060000 		.4byte	0x669
 1024 06b0 00       		.byte	0
 1025 06b1 08       		.uleb128 0x8
 1026 06b2 73313700 		.ascii	"s17\000"
ARM GAS  /tmp/cc8shE1s.s 			page 19


 1027 06b6 0B       		.byte	0xb
 1028 06b7 5C01     		.2byte	0x15c
 1029 06b9 69060000 		.4byte	0x669
 1030 06bd 04       		.byte	0x4
 1031 06be 08       		.uleb128 0x8
 1032 06bf 73313800 		.ascii	"s18\000"
 1033 06c3 0B       		.byte	0xb
 1034 06c4 5D01     		.2byte	0x15d
 1035 06c6 69060000 		.4byte	0x669
 1036 06ca 08       		.byte	0x8
 1037 06cb 08       		.uleb128 0x8
 1038 06cc 73313900 		.ascii	"s19\000"
 1039 06d0 0B       		.byte	0xb
 1040 06d1 5E01     		.2byte	0x15e
 1041 06d3 69060000 		.4byte	0x669
 1042 06d7 0C       		.byte	0xc
 1043 06d8 08       		.uleb128 0x8
 1044 06d9 73323000 		.ascii	"s20\000"
 1045 06dd 0B       		.byte	0xb
 1046 06de 5F01     		.2byte	0x15f
 1047 06e0 69060000 		.4byte	0x669
 1048 06e4 10       		.byte	0x10
 1049 06e5 08       		.uleb128 0x8
 1050 06e6 73323100 		.ascii	"s21\000"
 1051 06ea 0B       		.byte	0xb
 1052 06eb 6001     		.2byte	0x160
 1053 06ed 69060000 		.4byte	0x669
 1054 06f1 14       		.byte	0x14
 1055 06f2 08       		.uleb128 0x8
 1056 06f3 73323200 		.ascii	"s22\000"
 1057 06f7 0B       		.byte	0xb
 1058 06f8 6101     		.2byte	0x161
 1059 06fa 69060000 		.4byte	0x669
 1060 06fe 18       		.byte	0x18
 1061 06ff 08       		.uleb128 0x8
 1062 0700 73323300 		.ascii	"s23\000"
 1063 0704 0B       		.byte	0xb
 1064 0705 6201     		.2byte	0x162
 1065 0707 69060000 		.4byte	0x669
 1066 070b 1C       		.byte	0x1c
 1067 070c 08       		.uleb128 0x8
 1068 070d 73323400 		.ascii	"s24\000"
 1069 0711 0B       		.byte	0xb
 1070 0712 6301     		.2byte	0x163
 1071 0714 69060000 		.4byte	0x669
 1072 0718 20       		.byte	0x20
 1073 0719 08       		.uleb128 0x8
 1074 071a 73323500 		.ascii	"s25\000"
 1075 071e 0B       		.byte	0xb
 1076 071f 6401     		.2byte	0x164
 1077 0721 69060000 		.4byte	0x669
 1078 0725 24       		.byte	0x24
 1079 0726 08       		.uleb128 0x8
 1080 0727 73323600 		.ascii	"s26\000"
 1081 072b 0B       		.byte	0xb
 1082 072c 6501     		.2byte	0x165
 1083 072e 69060000 		.4byte	0x669
ARM GAS  /tmp/cc8shE1s.s 			page 20


 1084 0732 28       		.byte	0x28
 1085 0733 08       		.uleb128 0x8
 1086 0734 73323700 		.ascii	"s27\000"
 1087 0738 0B       		.byte	0xb
 1088 0739 6601     		.2byte	0x166
 1089 073b 69060000 		.4byte	0x669
 1090 073f 2C       		.byte	0x2c
 1091 0740 08       		.uleb128 0x8
 1092 0741 73323800 		.ascii	"s28\000"
 1093 0745 0B       		.byte	0xb
 1094 0746 6701     		.2byte	0x167
 1095 0748 69060000 		.4byte	0x669
 1096 074c 30       		.byte	0x30
 1097 074d 08       		.uleb128 0x8
 1098 074e 73323900 		.ascii	"s29\000"
 1099 0752 0B       		.byte	0xb
 1100 0753 6801     		.2byte	0x168
 1101 0755 69060000 		.4byte	0x669
 1102 0759 34       		.byte	0x34
 1103 075a 08       		.uleb128 0x8
 1104 075b 73333000 		.ascii	"s30\000"
 1105 075f 0B       		.byte	0xb
 1106 0760 6901     		.2byte	0x169
 1107 0762 69060000 		.4byte	0x669
 1108 0766 38       		.byte	0x38
 1109 0767 08       		.uleb128 0x8
 1110 0768 73333100 		.ascii	"s31\000"
 1111 076c 0B       		.byte	0xb
 1112 076d 6A01     		.2byte	0x16a
 1113 076f 69060000 		.4byte	0x669
 1114 0773 3C       		.byte	0x3c
 1115 0774 08       		.uleb128 0x8
 1116 0775 723400   		.ascii	"r4\000"
 1117 0778 0B       		.byte	0xb
 1118 0779 6C01     		.2byte	0x16c
 1119 077b 69060000 		.4byte	0x669
 1120 077f 40       		.byte	0x40
 1121 0780 08       		.uleb128 0x8
 1122 0781 723500   		.ascii	"r5\000"
 1123 0784 0B       		.byte	0xb
 1124 0785 6D01     		.2byte	0x16d
 1125 0787 69060000 		.4byte	0x669
 1126 078b 44       		.byte	0x44
 1127 078c 08       		.uleb128 0x8
 1128 078d 723600   		.ascii	"r6\000"
 1129 0790 0B       		.byte	0xb
 1130 0791 6E01     		.2byte	0x16e
 1131 0793 69060000 		.4byte	0x669
 1132 0797 48       		.byte	0x48
 1133 0798 08       		.uleb128 0x8
 1134 0799 723700   		.ascii	"r7\000"
 1135 079c 0B       		.byte	0xb
 1136 079d 6F01     		.2byte	0x16f
 1137 079f 69060000 		.4byte	0x669
 1138 07a3 4C       		.byte	0x4c
 1139 07a4 08       		.uleb128 0x8
 1140 07a5 723800   		.ascii	"r8\000"
ARM GAS  /tmp/cc8shE1s.s 			page 21


 1141 07a8 0B       		.byte	0xb
 1142 07a9 7001     		.2byte	0x170
 1143 07ab 69060000 		.4byte	0x669
 1144 07af 50       		.byte	0x50
 1145 07b0 08       		.uleb128 0x8
 1146 07b1 723900   		.ascii	"r9\000"
 1147 07b4 0B       		.byte	0xb
 1148 07b5 7101     		.2byte	0x171
 1149 07b7 69060000 		.4byte	0x669
 1150 07bb 54       		.byte	0x54
 1151 07bc 08       		.uleb128 0x8
 1152 07bd 72313000 		.ascii	"r10\000"
 1153 07c1 0B       		.byte	0xb
 1154 07c2 7201     		.2byte	0x172
 1155 07c4 69060000 		.4byte	0x669
 1156 07c8 58       		.byte	0x58
 1157 07c9 08       		.uleb128 0x8
 1158 07ca 72313100 		.ascii	"r11\000"
 1159 07ce 0B       		.byte	0xb
 1160 07cf 7301     		.2byte	0x173
 1161 07d1 69060000 		.4byte	0x669
 1162 07d5 5C       		.byte	0x5c
 1163 07d6 08       		.uleb128 0x8
 1164 07d7 6C7200   		.ascii	"lr\000"
 1165 07da 0B       		.byte	0xb
 1166 07db 7401     		.2byte	0x174
 1167 07dd 69060000 		.4byte	0x669
 1168 07e1 60       		.byte	0x60
 1169 07e2 00       		.byte	0
 1170 07e3 0A       		.uleb128 0xa
 1171 07e4 04       		.byte	0x4
 1172 07e5 97060000 		.4byte	0x697
 1173 07e9 0B       		.uleb128 0xb
 1174 07ea 13040000 		.4byte	.LASF101
 1175 07ee 68       		.byte	0x68
 1176 07ef 0B       		.byte	0xb
 1177 07f0 3A01     		.2byte	0x13a
 1178 07f2 3A090000 		.4byte	0x93a
 1179 07f6 08       		.uleb128 0x8
 1180 07f7 723000   		.ascii	"r0\000"
 1181 07fa 0B       		.byte	0xb
 1182 07fb 3B01     		.2byte	0x13b
 1183 07fd 69060000 		.4byte	0x669
 1184 0801 00       		.byte	0
 1185 0802 08       		.uleb128 0x8
 1186 0803 723100   		.ascii	"r1\000"
 1187 0806 0B       		.byte	0xb
 1188 0807 3C01     		.2byte	0x13c
 1189 0809 69060000 		.4byte	0x669
 1190 080d 04       		.byte	0x4
 1191 080e 08       		.uleb128 0x8
 1192 080f 723200   		.ascii	"r2\000"
 1193 0812 0B       		.byte	0xb
 1194 0813 3D01     		.2byte	0x13d
 1195 0815 69060000 		.4byte	0x669
 1196 0819 08       		.byte	0x8
 1197 081a 08       		.uleb128 0x8
ARM GAS  /tmp/cc8shE1s.s 			page 22


 1198 081b 723300   		.ascii	"r3\000"
 1199 081e 0B       		.byte	0xb
 1200 081f 3E01     		.2byte	0x13e
 1201 0821 69060000 		.4byte	0x669
 1202 0825 0C       		.byte	0xc
 1203 0826 08       		.uleb128 0x8
 1204 0827 72313200 		.ascii	"r12\000"
 1205 082b 0B       		.byte	0xb
 1206 082c 3F01     		.2byte	0x13f
 1207 082e 69060000 		.4byte	0x669
 1208 0832 10       		.byte	0x10
 1209 0833 09       		.uleb128 0x9
 1210 0834 0B050000 		.4byte	.LASF102
 1211 0838 0B       		.byte	0xb
 1212 0839 4001     		.2byte	0x140
 1213 083b 69060000 		.4byte	0x669
 1214 083f 14       		.byte	0x14
 1215 0840 08       		.uleb128 0x8
 1216 0841 706300   		.ascii	"pc\000"
 1217 0844 0B       		.byte	0xb
 1218 0845 4101     		.2byte	0x141
 1219 0847 69060000 		.4byte	0x669
 1220 084b 18       		.byte	0x18
 1221 084c 09       		.uleb128 0x9
 1222 084d EF040000 		.4byte	.LASF103
 1223 0851 0B       		.byte	0xb
 1224 0852 4201     		.2byte	0x142
 1225 0854 69060000 		.4byte	0x669
 1226 0858 1C       		.byte	0x1c
 1227 0859 08       		.uleb128 0x8
 1228 085a 733000   		.ascii	"s0\000"
 1229 085d 0B       		.byte	0xb
 1230 085e 4401     		.2byte	0x144
 1231 0860 69060000 		.4byte	0x669
 1232 0864 20       		.byte	0x20
 1233 0865 08       		.uleb128 0x8
 1234 0866 733100   		.ascii	"s1\000"
 1235 0869 0B       		.byte	0xb
 1236 086a 4501     		.2byte	0x145
 1237 086c 69060000 		.4byte	0x669
 1238 0870 24       		.byte	0x24
 1239 0871 08       		.uleb128 0x8
 1240 0872 733200   		.ascii	"s2\000"
 1241 0875 0B       		.byte	0xb
 1242 0876 4601     		.2byte	0x146
 1243 0878 69060000 		.4byte	0x669
 1244 087c 28       		.byte	0x28
 1245 087d 08       		.uleb128 0x8
 1246 087e 733300   		.ascii	"s3\000"
 1247 0881 0B       		.byte	0xb
 1248 0882 4701     		.2byte	0x147
 1249 0884 69060000 		.4byte	0x669
 1250 0888 2C       		.byte	0x2c
 1251 0889 08       		.uleb128 0x8
 1252 088a 733400   		.ascii	"s4\000"
 1253 088d 0B       		.byte	0xb
 1254 088e 4801     		.2byte	0x148
ARM GAS  /tmp/cc8shE1s.s 			page 23


 1255 0890 69060000 		.4byte	0x669
 1256 0894 30       		.byte	0x30
 1257 0895 08       		.uleb128 0x8
 1258 0896 733500   		.ascii	"s5\000"
 1259 0899 0B       		.byte	0xb
 1260 089a 4901     		.2byte	0x149
 1261 089c 69060000 		.4byte	0x669
 1262 08a0 34       		.byte	0x34
 1263 08a1 08       		.uleb128 0x8
 1264 08a2 733600   		.ascii	"s6\000"
 1265 08a5 0B       		.byte	0xb
 1266 08a6 4A01     		.2byte	0x14a
 1267 08a8 69060000 		.4byte	0x669
 1268 08ac 38       		.byte	0x38
 1269 08ad 08       		.uleb128 0x8
 1270 08ae 733700   		.ascii	"s7\000"
 1271 08b1 0B       		.byte	0xb
 1272 08b2 4B01     		.2byte	0x14b
 1273 08b4 69060000 		.4byte	0x669
 1274 08b8 3C       		.byte	0x3c
 1275 08b9 08       		.uleb128 0x8
 1276 08ba 733800   		.ascii	"s8\000"
 1277 08bd 0B       		.byte	0xb
 1278 08be 4C01     		.2byte	0x14c
 1279 08c0 69060000 		.4byte	0x669
 1280 08c4 40       		.byte	0x40
 1281 08c5 08       		.uleb128 0x8
 1282 08c6 733900   		.ascii	"s9\000"
 1283 08c9 0B       		.byte	0xb
 1284 08ca 4D01     		.2byte	0x14d
 1285 08cc 69060000 		.4byte	0x669
 1286 08d0 44       		.byte	0x44
 1287 08d1 08       		.uleb128 0x8
 1288 08d2 73313000 		.ascii	"s10\000"
 1289 08d6 0B       		.byte	0xb
 1290 08d7 4E01     		.2byte	0x14e
 1291 08d9 69060000 		.4byte	0x669
 1292 08dd 48       		.byte	0x48
 1293 08de 08       		.uleb128 0x8
 1294 08df 73313100 		.ascii	"s11\000"
 1295 08e3 0B       		.byte	0xb
 1296 08e4 4F01     		.2byte	0x14f
 1297 08e6 69060000 		.4byte	0x669
 1298 08ea 4C       		.byte	0x4c
 1299 08eb 08       		.uleb128 0x8
 1300 08ec 73313200 		.ascii	"s12\000"
 1301 08f0 0B       		.byte	0xb
 1302 08f1 5001     		.2byte	0x150
 1303 08f3 69060000 		.4byte	0x669
 1304 08f7 50       		.byte	0x50
 1305 08f8 08       		.uleb128 0x8
 1306 08f9 73313300 		.ascii	"s13\000"
 1307 08fd 0B       		.byte	0xb
 1308 08fe 5101     		.2byte	0x151
 1309 0900 69060000 		.4byte	0x669
 1310 0904 54       		.byte	0x54
 1311 0905 08       		.uleb128 0x8
ARM GAS  /tmp/cc8shE1s.s 			page 24


 1312 0906 73313400 		.ascii	"s14\000"
 1313 090a 0B       		.byte	0xb
 1314 090b 5201     		.2byte	0x152
 1315 090d 69060000 		.4byte	0x669
 1316 0911 58       		.byte	0x58
 1317 0912 08       		.uleb128 0x8
 1318 0913 73313500 		.ascii	"s15\000"
 1319 0917 0B       		.byte	0xb
 1320 0918 5301     		.2byte	0x153
 1321 091a 69060000 		.4byte	0x669
 1322 091e 5C       		.byte	0x5c
 1323 091f 09       		.uleb128 0x9
 1324 0920 05050000 		.4byte	.LASF104
 1325 0924 0B       		.byte	0xb
 1326 0925 5401     		.2byte	0x154
 1327 0927 69060000 		.4byte	0x669
 1328 092b 60       		.byte	0x60
 1329 092c 09       		.uleb128 0x9
 1330 092d 08020000 		.4byte	.LASF105
 1331 0931 0B       		.byte	0xb
 1332 0932 5501     		.2byte	0x155
 1333 0934 69060000 		.4byte	0x669
 1334 0938 64       		.byte	0x64
 1335 0939 00       		.byte	0
 1336 093a 15       		.uleb128 0x15
 1337 093b 04       		.byte	0x4
 1338 093c 0C       		.byte	0xc
 1339 093d 38       		.byte	0x38
 1340 093e 4F090000 		.4byte	0x94f
 1341 0942 06       		.uleb128 0x6
 1342 0943 DF050000 		.4byte	.LASF106
 1343 0947 0C       		.byte	0xc
 1344 0948 3C       		.byte	0x3c
 1345 0949 C3000000 		.4byte	0xc3
 1346 094d 00       		.byte	0
 1347 094e 00       		.byte	0
 1348 094f 04       		.uleb128 0x4
 1349 0950 1F040000 		.4byte	.LASF107
 1350 0954 0C       		.byte	0xc
 1351 0955 3D       		.byte	0x3d
 1352 0956 3A090000 		.4byte	0x93a
 1353 095a 15       		.uleb128 0x15
 1354 095b 18       		.byte	0x18
 1355 095c 0C       		.byte	0xc
 1356 095d 48       		.byte	0x48
 1357 095e 9D090000 		.4byte	0x99d
 1358 0962 06       		.uleb128 0x6
 1359 0963 AF050000 		.4byte	.LASF108
 1360 0967 0C       		.byte	0xc
 1361 0968 49       		.byte	0x49
 1362 0969 C3000000 		.4byte	0xc3
 1363 096d 00       		.byte	0
 1364 096e 06       		.uleb128 0x6
 1365 096f 9D000000 		.4byte	.LASF109
 1366 0973 0C       		.byte	0xc
 1367 0974 4A       		.byte	0x4a
 1368 0975 C3000000 		.4byte	0xc3
ARM GAS  /tmp/cc8shE1s.s 			page 25


 1369 0979 04       		.byte	0x4
 1370 097a 06       		.uleb128 0x6
 1371 097b 3D040000 		.4byte	.LASF110
 1372 097f 0C       		.byte	0xc
 1373 0980 4B       		.byte	0x4b
 1374 0981 C3000000 		.4byte	0xc3
 1375 0985 08       		.byte	0x8
 1376 0986 07       		.uleb128 0x7
 1377 0987 6E00     		.ascii	"n\000"
 1378 0989 0C       		.byte	0xc
 1379 098a 4C       		.byte	0x4c
 1380 098b 26010000 		.4byte	0x126
 1381 098f 0C       		.byte	0xc
 1382 0990 06       		.uleb128 0x6
 1383 0991 4D040000 		.4byte	.LASF111
 1384 0995 0C       		.byte	0xc
 1385 0996 4D       		.byte	0x4d
 1386 0997 CE000000 		.4byte	0xce
 1387 099b 10       		.byte	0x10
 1388 099c 00       		.byte	0
 1389 099d 04       		.uleb128 0x4
 1390 099e A3000000 		.4byte	.LASF112
 1391 09a2 0C       		.byte	0xc
 1392 09a3 4E       		.byte	0x4e
 1393 09a4 5A090000 		.4byte	0x95a
 1394 09a8 15       		.uleb128 0x15
 1395 09a9 38       		.byte	0x38
 1396 09aa 0D       		.byte	0xd
 1397 09ab 38       		.byte	0x38
 1398 09ac E1090000 		.4byte	0x9e1
 1399 09b0 06       		.uleb128 0x6
 1400 09b1 F7010000 		.4byte	.LASF113
 1401 09b5 0D       		.byte	0xd
 1402 09b6 39       		.byte	0x39
 1403 09b7 26010000 		.4byte	0x126
 1404 09bb 00       		.byte	0
 1405 09bc 06       		.uleb128 0x6
 1406 09bd 9F040000 		.4byte	.LASF114
 1407 09c1 0D       		.byte	0xd
 1408 09c2 3A       		.byte	0x3a
 1409 09c3 26010000 		.4byte	0x126
 1410 09c7 04       		.byte	0x4
 1411 09c8 06       		.uleb128 0x6
 1412 09c9 E4060000 		.4byte	.LASF115
 1413 09cd 0D       		.byte	0xd
 1414 09ce 3B       		.byte	0x3b
 1415 09cf 9D090000 		.4byte	0x99d
 1416 09d3 08       		.byte	0x8
 1417 09d4 06       		.uleb128 0x6
 1418 09d5 6A030000 		.4byte	.LASF116
 1419 09d9 0D       		.byte	0xd
 1420 09da 3D       		.byte	0x3d
 1421 09db 9D090000 		.4byte	0x99d
 1422 09df 20       		.byte	0x20
 1423 09e0 00       		.byte	0
 1424 09e1 04       		.uleb128 0x4
 1425 09e2 11020000 		.4byte	.LASF117
ARM GAS  /tmp/cc8shE1s.s 			page 26


 1426 09e6 0D       		.byte	0xd
 1427 09e7 3F       		.byte	0x3f
 1428 09e8 A8090000 		.4byte	0x9a8
 1429 09ec 16       		.uleb128 0x16
 1430 09ed 04       		.byte	0x4
 1431 09ee 07       		.byte	0x7
 1432 09ef C6       		.byte	0xc6
 1433 09f0 4E0A0000 		.4byte	0xa4e
 1434 09f4 17       		.uleb128 0x17
 1435 09f5 19000000 		.4byte	.LASF118
 1436 09f9 07       		.byte	0x7
 1437 09fa CD       		.byte	0xcd
 1438 09fb 05010000 		.4byte	0x105
 1439 09ff 17       		.uleb128 0x17
 1440 0a00 B6000000 		.4byte	.LASF119
 1441 0a04 07       		.byte	0x7
 1442 0a05 D4       		.byte	0xd4
 1443 0a06 05010000 		.4byte	0x105
 1444 0a0a 17       		.uleb128 0x17
 1445 0a0b C2060000 		.4byte	.LASF120
 1446 0a0f 07       		.byte	0x7
 1447 0a10 DB       		.byte	0xdb
 1448 0a11 0F030000 		.4byte	0x30f
 1449 0a15 17       		.uleb128 0x17
 1450 0a16 0D000000 		.4byte	.LASF121
 1451 0a1a 07       		.byte	0x7
 1452 0a1b E2       		.byte	0xe2
 1453 0a1c 4E0A0000 		.4byte	0xa4e
 1454 0a20 17       		.uleb128 0x17
 1455 0a21 CA000000 		.4byte	.LASF122
 1456 0a25 07       		.byte	0x7
 1457 0a26 E7       		.byte	0xe7
 1458 0a27 05010000 		.4byte	0x105
 1459 0a2b 17       		.uleb128 0x17
 1460 0a2c F0010000 		.4byte	.LASF123
 1461 0a30 07       		.byte	0x7
 1462 0a31 F0       		.byte	0xf0
 1463 0a32 790A0000 		.4byte	0xa79
 1464 0a36 17       		.uleb128 0x17
 1465 0a37 4B050000 		.4byte	.LASF124
 1466 0a3b 07       		.byte	0x7
 1467 0a3c F9       		.byte	0xf9
 1468 0a3d B00A0000 		.4byte	0xab0
 1469 0a41 18       		.uleb128 0x18
 1470 0a42 F4040000 		.4byte	.LASF125
 1471 0a46 07       		.byte	0x7
 1472 0a47 0101     		.2byte	0x101
 1473 0a49 10010000 		.4byte	0x110
 1474 0a4d 00       		.byte	0
 1475 0a4e 0A       		.uleb128 0xa
 1476 0a4f 04       		.byte	0x4
 1477 0a50 27020000 		.4byte	0x227
 1478 0a54 05       		.uleb128 0x5
 1479 0a55 35050000 		.4byte	.LASF126
 1480 0a59 0C       		.byte	0xc
 1481 0a5a 0E       		.byte	0xe
 1482 0a5b 34       		.byte	0x34
ARM GAS  /tmp/cc8shE1s.s 			page 27


 1483 0a5c 790A0000 		.4byte	0xa79
 1484 0a60 06       		.uleb128 0x6
 1485 0a61 FB030000 		.4byte	.LASF28
 1486 0a65 0E       		.byte	0xe
 1487 0a66 35       		.byte	0x35
 1488 0a67 5C020000 		.4byte	0x25c
 1489 0a6b 00       		.byte	0
 1490 0a6c 07       		.uleb128 0x7
 1491 0a6d 636E7400 		.ascii	"cnt\000"
 1492 0a71 0E       		.byte	0xe
 1493 0a72 37       		.byte	0x37
 1494 0a73 1B010000 		.4byte	0x11b
 1495 0a77 08       		.byte	0x8
 1496 0a78 00       		.byte	0
 1497 0a79 0A       		.uleb128 0xa
 1498 0a7a 04       		.byte	0x4
 1499 0a7b 540A0000 		.4byte	0xa54
 1500 0a7f 05       		.uleb128 0x5
 1501 0a80 5A060000 		.4byte	.LASF127
 1502 0a84 10       		.byte	0x10
 1503 0a85 0F       		.byte	0xf
 1504 0a86 39       		.byte	0x39
 1505 0a87 B00A0000 		.4byte	0xab0
 1506 0a8b 06       		.uleb128 0x6
 1507 0a8c FB030000 		.4byte	.LASF28
 1508 0a90 0F       		.byte	0xf
 1509 0a91 3A       		.byte	0x3a
 1510 0a92 5C020000 		.4byte	0x25c
 1511 0a96 00       		.byte	0
 1512 0a97 06       		.uleb128 0x6
 1513 0a98 67050000 		.4byte	.LASF128
 1514 0a9c 0F       		.byte	0xf
 1515 0a9d 3C       		.byte	0x3c
 1516 0a9e 32020000 		.4byte	0x232
 1517 0aa2 08       		.byte	0x8
 1518 0aa3 06       		.uleb128 0x6
 1519 0aa4 EE000000 		.4byte	.LASF48
 1520 0aa8 0F       		.byte	0xf
 1521 0aa9 3E       		.byte	0x3e
 1522 0aaa E40A0000 		.4byte	0xae4
 1523 0aae 0C       		.byte	0xc
 1524 0aaf 00       		.byte	0
 1525 0ab0 0A       		.uleb128 0xa
 1526 0ab1 04       		.byte	0x4
 1527 0ab2 7F0A0000 		.4byte	0xa7f
 1528 0ab6 0A       		.uleb128 0xa
 1529 0ab7 04       		.byte	0x4
 1530 0ab8 BC0A0000 		.4byte	0xabc
 1531 0abc 11       		.uleb128 0x11
 1532 0abd C10A0000 		.4byte	0xac1
 1533 0ac1 03       		.uleb128 0x3
 1534 0ac2 01       		.byte	0x1
 1535 0ac3 08       		.byte	0x8
 1536 0ac4 86050000 		.4byte	.LASF129
 1537 0ac8 0A       		.uleb128 0xa
 1538 0ac9 04       		.byte	0x4
 1539 0aca 74060000 		.4byte	0x674
ARM GAS  /tmp/cc8shE1s.s 			page 28


 1540 0ace 0A       		.uleb128 0xa
 1541 0acf 04       		.byte	0x4
 1542 0ad0 11030000 		.4byte	0x311
 1543 0ad4 0F       		.uleb128 0xf
 1544 0ad5 B60A0000 		.4byte	0xab6
 1545 0ad9 04       		.uleb128 0x4
 1546 0ada DC060000 		.4byte	.LASF130
 1547 0ade 0F       		.byte	0xf
 1548 0adf 34       		.byte	0x34
 1549 0ae0 7F0A0000 		.4byte	0xa7f
 1550 0ae4 0A       		.uleb128 0xa
 1551 0ae5 04       		.byte	0x4
 1552 0ae6 D90A0000 		.4byte	0xad9
 1553 0aea 03       		.uleb128 0x3
 1554 0aeb 01       		.byte	0x1
 1555 0aec 02       		.byte	0x2
 1556 0aed A8040000 		.4byte	.LASF131
 1557 0af1 19       		.uleb128 0x19
 1558 0af2 C7050000 		.4byte	.LASF134
 1559 0af6 02       		.byte	0x2
 1560 0af7 EB01     		.2byte	0x1eb
 1561 0af9 03       		.byte	0x3
 1562 0afa 0B0B0000 		.4byte	0xb0b
 1563 0afe 1A       		.uleb128 0x1a
 1564 0aff 18010000 		.4byte	.LASF136
 1565 0b03 02       		.byte	0x2
 1566 0b04 EB01     		.2byte	0x1eb
 1567 0b06 AD000000 		.4byte	0xad
 1568 0b0a 00       		.byte	0
 1569 0b0b 1B       		.uleb128 0x1b
 1570 0b0c 93000000 		.4byte	.LASF132
 1571 0b10 0B       		.byte	0xb
 1572 0b11 5A02     		.2byte	0x25a
 1573 0b13 03       		.byte	0x3
 1574 0b14 1B       		.uleb128 0x1b
 1575 0b15 27010000 		.4byte	.LASF133
 1576 0b19 0B       		.byte	0xb
 1577 0b1a 7202     		.2byte	0x272
 1578 0b1c 03       		.byte	0x3
 1579 0b1d 1C       		.uleb128 0x1c
 1580 0b1e 40060000 		.4byte	.LASF140
 1581 0b22 02       		.byte	0x2
 1582 0b23 F7       		.byte	0xf7
 1583 0b24 AD000000 		.4byte	0xad
 1584 0b28 03       		.byte	0x3
 1585 0b29 390B0000 		.4byte	0xb39
 1586 0b2d 1D       		.uleb128 0x1d
 1587 0b2e EF060000 		.4byte	.LASF142
 1588 0b32 02       		.byte	0x2
 1589 0b33 F9       		.byte	0xf9
 1590 0b34 AD000000 		.4byte	0xad
 1591 0b38 00       		.byte	0
 1592 0b39 19       		.uleb128 0x19
 1593 0b3a E6010000 		.4byte	.LASF135
 1594 0b3e 02       		.byte	0x2
 1595 0b3f 1501     		.2byte	0x115
 1596 0b41 03       		.byte	0x3
ARM GAS  /tmp/cc8shE1s.s 			page 29


 1597 0b42 530B0000 		.4byte	0xb53
 1598 0b46 1A       		.uleb128 0x1a
 1599 0b47 8F030000 		.4byte	.LASF137
 1600 0b4b 02       		.byte	0x2
 1601 0b4c 1501     		.2byte	0x115
 1602 0b4e AD000000 		.4byte	0xad
 1603 0b52 00       		.byte	0
 1604 0b53 1B       		.uleb128 0x1b
 1605 0b54 91050000 		.4byte	.LASF138
 1606 0b58 0B       		.byte	0xb
 1607 0b59 8C02     		.2byte	0x28c
 1608 0b5b 03       		.byte	0x3
 1609 0b5c 1B       		.uleb128 0x1b
 1610 0b5d 2D060000 		.4byte	.LASF139
 1611 0b61 0B       		.byte	0xb
 1612 0b62 8102     		.2byte	0x281
 1613 0b64 03       		.byte	0x3
 1614 0b65 1E       		.uleb128 0x1e
 1615 0b66 93040000 		.4byte	.LASF141
 1616 0b6a 02       		.byte	0x2
 1617 0b6b FE02     		.2byte	0x2fe
 1618 0b6d AD000000 		.4byte	0xad
 1619 0b71 03       		.byte	0x3
 1620 0b72 830B0000 		.4byte	0xb83
 1621 0b76 1F       		.uleb128 0x1f
 1622 0b77 EF060000 		.4byte	.LASF142
 1623 0b7b 02       		.byte	0x2
 1624 0b7c 0803     		.2byte	0x308
 1625 0b7e AD000000 		.4byte	0xad
 1626 0b82 00       		.byte	0
 1627 0b83 20       		.uleb128 0x20
 1628 0b84 18050000 		.4byte	.LASF143
 1629 0b88 01       		.byte	0x1
 1630 0b89 3E       		.byte	0x3e
 1631 0b8a 00000000 		.4byte	.LFB290
 1632 0b8e 20000000 		.4byte	.LFE290-.LFB290
 1633 0b92 01       		.uleb128 0x1
 1634 0b93 9C       		.byte	0x9c
 1635 0b94 240C0000 		.4byte	0xc24
 1636 0b98 21       		.uleb128 0x21
 1637 0b99 76040000 		.4byte	.LASF145
 1638 0b9d 01       		.byte	0x1
 1639 0b9e 40       		.byte	0x40
 1640 0b9f 240C0000 		.4byte	0xc24
 1641 0ba3 00000000 		.4byte	.LLST0
 1642 0ba7 22       		.uleb128 0x22
 1643 0ba8 1D0B0000 		.4byte	0xb1d
 1644 0bac 0A000000 		.4byte	.LBB40
 1645 0bb0 04000000 		.4byte	.LBE40-.LBB40
 1646 0bb4 01       		.byte	0x1
 1647 0bb5 48       		.byte	0x48
 1648 0bb6 CE0B0000 		.4byte	0xbce
 1649 0bba 23       		.uleb128 0x23
 1650 0bbb 0A000000 		.4byte	.LBB41
 1651 0bbf 04000000 		.4byte	.LBE41-.LBB41
 1652 0bc3 24       		.uleb128 0x24
 1653 0bc4 2D0B0000 		.4byte	0xb2d
ARM GAS  /tmp/cc8shE1s.s 			page 30


 1654 0bc8 21000000 		.4byte	.LLST1
 1655 0bcc 00       		.byte	0
 1656 0bcd 00       		.byte	0
 1657 0bce 22       		.uleb128 0x22
 1658 0bcf 390B0000 		.4byte	0xb39
 1659 0bd3 10000000 		.4byte	.LBB42
 1660 0bd7 04000000 		.4byte	.LBE42-.LBB42
 1661 0bdb 01       		.byte	0x1
 1662 0bdc 4F       		.byte	0x4f
 1663 0bdd EB0B0000 		.4byte	0xbeb
 1664 0be1 25       		.uleb128 0x25
 1665 0be2 460B0000 		.4byte	0xb46
 1666 0be6 00000000 		.4byte	.LLST0
 1667 0bea 00       		.byte	0
 1668 0beb 26       		.uleb128 0x26
 1669 0bec 530B0000 		.4byte	0xb53
 1670 0bf0 14000000 		.4byte	.LBB44
 1671 0bf4 0C000000 		.4byte	.LBE44-.LBB44
 1672 0bf8 01       		.byte	0x1
 1673 0bf9 52       		.byte	0x52
 1674 0bfa 27       		.uleb128 0x27
 1675 0bfb 140B0000 		.4byte	0xb14
 1676 0bff 14000000 		.4byte	.LBB45
 1677 0c03 0C000000 		.4byte	.LBE45-.LBB45
 1678 0c07 0B       		.byte	0xb
 1679 0c08 8E02     		.2byte	0x28e
 1680 0c0a 27       		.uleb128 0x27
 1681 0c0b F10A0000 		.4byte	0xaf1
 1682 0c0f 14000000 		.4byte	.LBB46
 1683 0c13 0C000000 		.4byte	.LBE46-.LBB46
 1684 0c17 0B       		.byte	0xb
 1685 0c18 7502     		.2byte	0x275
 1686 0c1a 28       		.uleb128 0x28
 1687 0c1b FE0A0000 		.4byte	0xafe
 1688 0c1f 00       		.byte	0
 1689 0c20 00       		.byte	0
 1690 0c21 00       		.byte	0
 1691 0c22 00       		.byte	0
 1692 0c23 00       		.byte	0
 1693 0c24 0A       		.uleb128 0xa
 1694 0c25 04       		.byte	0x4
 1695 0c26 E9070000 		.4byte	0x7e9
 1696 0c2a 20       		.uleb128 0x20
 1697 0c2b 60020000 		.4byte	.LASF144
 1698 0c2f 01       		.byte	0x1
 1699 0c30 7A       		.byte	0x7a
 1700 0c31 00000000 		.4byte	.LFB291
 1701 0c35 5C000000 		.4byte	.LFE291-.LFB291
 1702 0c39 01       		.uleb128 0x1
 1703 0c3a 9C       		.byte	0x9c
 1704 0c3b 410D0000 		.4byte	0xd41
 1705 0c3f 22       		.uleb128 0x22
 1706 0c40 5C0B0000 		.4byte	0xb5c
 1707 0c44 02000000 		.4byte	.LBB48
 1708 0c48 06000000 		.4byte	.LBE48-.LBB48
 1709 0c4c 01       		.byte	0x1
 1710 0c4d 7C       		.byte	0x7c
ARM GAS  /tmp/cc8shE1s.s 			page 31


 1711 0c4e 7B0C0000 		.4byte	0xc7b
 1712 0c52 27       		.uleb128 0x27
 1713 0c53 0B0B0000 		.4byte	0xb0b
 1714 0c57 02000000 		.4byte	.LBB49
 1715 0c5b 06000000 		.4byte	.LBE49-.LBB49
 1716 0c5f 0B       		.byte	0xb
 1717 0c60 8302     		.2byte	0x283
 1718 0c62 27       		.uleb128 0x27
 1719 0c63 F10A0000 		.4byte	0xaf1
 1720 0c67 02000000 		.4byte	.LBB50
 1721 0c6b 06000000 		.4byte	.LBE50-.LBB50
 1722 0c6f 0B       		.byte	0xb
 1723 0c70 6202     		.2byte	0x262
 1724 0c72 28       		.uleb128 0x28
 1725 0c73 FE0A0000 		.4byte	0xafe
 1726 0c77 20       		.byte	0x20
 1727 0c78 00       		.byte	0
 1728 0c79 00       		.byte	0
 1729 0c7a 00       		.byte	0
 1730 0c7b 29       		.uleb128 0x29
 1731 0c7c 12000000 		.4byte	.LBB52
 1732 0c80 32000000 		.4byte	.LBE52-.LBB52
 1733 0c84 080D0000 		.4byte	0xd08
 1734 0c88 21       		.uleb128 0x21
 1735 0c89 76040000 		.4byte	.LASF145
 1736 0c8d 01       		.byte	0x1
 1737 0c8e 7E       		.byte	0x7e
 1738 0c8f 240C0000 		.4byte	0xc24
 1739 0c93 42000000 		.4byte	.LLST3
 1740 0c97 22       		.uleb128 0x22
 1741 0c98 650B0000 		.4byte	0xb65
 1742 0c9c 12000000 		.4byte	.LBB53
 1743 0ca0 04000000 		.4byte	.LBE53-.LBB53
 1744 0ca4 01       		.byte	0x1
 1745 0ca5 82       		.byte	0x82
 1746 0ca6 BA0C0000 		.4byte	0xcba
 1747 0caa 23       		.uleb128 0x23
 1748 0cab 12000000 		.4byte	.LBB54
 1749 0caf 04000000 		.4byte	.LBE54-.LBB54
 1750 0cb3 2A       		.uleb128 0x2a
 1751 0cb4 760B0000 		.4byte	0xb76
 1752 0cb8 00       		.byte	0
 1753 0cb9 00       		.byte	0
 1754 0cba 22       		.uleb128 0x22
 1755 0cbb 1D0B0000 		.4byte	0xb1d
 1756 0cbf 16000000 		.4byte	.LBB55
 1757 0cc3 04000000 		.4byte	.LBE55-.LBB55
 1758 0cc7 01       		.byte	0x1
 1759 0cc8 86       		.byte	0x86
 1760 0cc9 E10C0000 		.4byte	0xce1
 1761 0ccd 23       		.uleb128 0x23
 1762 0cce 16000000 		.4byte	.LBB56
 1763 0cd2 04000000 		.4byte	.LBE56-.LBB56
 1764 0cd6 24       		.uleb128 0x24
 1765 0cd7 2D0B0000 		.4byte	0xb2d
 1766 0cdb 71000000 		.4byte	.LLST4
 1767 0cdf 00       		.byte	0
ARM GAS  /tmp/cc8shE1s.s 			page 32


 1768 0ce0 00       		.byte	0
 1769 0ce1 22       		.uleb128 0x22
 1770 0ce2 390B0000 		.4byte	0xb39
 1771 0ce6 2E000000 		.4byte	.LBB57
 1772 0cea 04000000 		.4byte	.LBE57-.LBB57
 1773 0cee 01       		.byte	0x1
 1774 0cef 93       		.byte	0x93
 1775 0cf0 FE0C0000 		.4byte	0xcfe
 1776 0cf4 25       		.uleb128 0x25
 1777 0cf5 460B0000 		.4byte	0xb46
 1778 0cf9 84000000 		.4byte	.LLST5
 1779 0cfd 00       		.byte	0
 1780 0cfe 2B       		.uleb128 0x2b
 1781 0cff 36000000 		.4byte	.LVL9
 1782 0d03 5D0D0000 		.4byte	0xd5d
 1783 0d07 00       		.byte	0
 1784 0d08 26       		.uleb128 0x26
 1785 0d09 530B0000 		.4byte	0xb53
 1786 0d0d 44000000 		.4byte	.LBB59
 1787 0d11 18000000 		.4byte	.LBE59-.LBB59
 1788 0d15 01       		.byte	0x1
 1789 0d16 A5       		.byte	0xa5
 1790 0d17 27       		.uleb128 0x27
 1791 0d18 140B0000 		.4byte	0xb14
 1792 0d1c 44000000 		.4byte	.LBB60
 1793 0d20 18000000 		.4byte	.LBE60-.LBB60
 1794 0d24 0B       		.byte	0xb
 1795 0d25 8E02     		.2byte	0x28e
 1796 0d27 27       		.uleb128 0x27
 1797 0d28 F10A0000 		.4byte	0xaf1
 1798 0d2c 44000000 		.4byte	.LBB61
 1799 0d30 18000000 		.4byte	.LBE61-.LBB61
 1800 0d34 0B       		.byte	0xb
 1801 0d35 7502     		.2byte	0x275
 1802 0d37 28       		.uleb128 0x28
 1803 0d38 FE0A0000 		.4byte	0xafe
 1804 0d3c 00       		.byte	0
 1805 0d3d 00       		.byte	0
 1806 0d3e 00       		.byte	0
 1807 0d3f 00       		.byte	0
 1808 0d40 00       		.byte	0
 1809 0d41 2C       		.uleb128 0x2c
 1810 0d42 CA040000 		.4byte	.LASF146
 1811 0d46 09       		.byte	0x9
 1812 0d47 0408     		.2byte	0x804
 1813 0d49 4D0D0000 		.4byte	0xd4d
 1814 0d4d 0F       		.uleb128 0xf
 1815 0d4e A2000000 		.4byte	0xa2
 1816 0d52 2D       		.uleb128 0x2d
 1817 0d53 636800   		.ascii	"ch\000"
 1818 0d56 07       		.byte	0x7
 1819 0d57 C701     		.2byte	0x1c7
 1820 0d59 DE030000 		.4byte	0x3de
 1821 0d5d 2E       		.uleb128 0x2e
 1822 0d5e 5F010000 		.4byte	.LASF150
 1823 0d62 07       		.byte	0x7
 1824 0d63 D701     		.2byte	0x1d7
ARM GAS  /tmp/cc8shE1s.s 			page 33


 1825 0d65 EA0A0000 		.4byte	0xaea
 1826 0d69 00       		.byte	0
 1827              		.section	.debug_abbrev,"",%progbits
 1828              	.Ldebug_abbrev0:
 1829 0000 01       		.uleb128 0x1
 1830 0001 11       		.uleb128 0x11
 1831 0002 01       		.byte	0x1
 1832 0003 25       		.uleb128 0x25
 1833 0004 0E       		.uleb128 0xe
 1834 0005 13       		.uleb128 0x13
 1835 0006 0B       		.uleb128 0xb
 1836 0007 03       		.uleb128 0x3
 1837 0008 0E       		.uleb128 0xe
 1838 0009 1B       		.uleb128 0x1b
 1839 000a 0E       		.uleb128 0xe
 1840 000b 55       		.uleb128 0x55
 1841 000c 17       		.uleb128 0x17
 1842 000d 11       		.uleb128 0x11
 1843 000e 01       		.uleb128 0x1
 1844 000f 10       		.uleb128 0x10
 1845 0010 17       		.uleb128 0x17
 1846 0011 00       		.byte	0
 1847 0012 00       		.byte	0
 1848 0013 02       		.uleb128 0x2
 1849 0014 24       		.uleb128 0x24
 1850 0015 00       		.byte	0
 1851 0016 0B       		.uleb128 0xb
 1852 0017 0B       		.uleb128 0xb
 1853 0018 3E       		.uleb128 0x3e
 1854 0019 0B       		.uleb128 0xb
 1855 001a 03       		.uleb128 0x3
 1856 001b 08       		.uleb128 0x8
 1857 001c 00       		.byte	0
 1858 001d 00       		.byte	0
 1859 001e 03       		.uleb128 0x3
 1860 001f 24       		.uleb128 0x24
 1861 0020 00       		.byte	0
 1862 0021 0B       		.uleb128 0xb
 1863 0022 0B       		.uleb128 0xb
 1864 0023 3E       		.uleb128 0x3e
 1865 0024 0B       		.uleb128 0xb
 1866 0025 03       		.uleb128 0x3
 1867 0026 0E       		.uleb128 0xe
 1868 0027 00       		.byte	0
 1869 0028 00       		.byte	0
 1870 0029 04       		.uleb128 0x4
 1871 002a 16       		.uleb128 0x16
 1872 002b 00       		.byte	0
 1873 002c 03       		.uleb128 0x3
 1874 002d 0E       		.uleb128 0xe
 1875 002e 3A       		.uleb128 0x3a
 1876 002f 0B       		.uleb128 0xb
 1877 0030 3B       		.uleb128 0x3b
 1878 0031 0B       		.uleb128 0xb
 1879 0032 49       		.uleb128 0x49
 1880 0033 13       		.uleb128 0x13
 1881 0034 00       		.byte	0
ARM GAS  /tmp/cc8shE1s.s 			page 34


 1882 0035 00       		.byte	0
 1883 0036 05       		.uleb128 0x5
 1884 0037 13       		.uleb128 0x13
 1885 0038 01       		.byte	0x1
 1886 0039 03       		.uleb128 0x3
 1887 003a 0E       		.uleb128 0xe
 1888 003b 0B       		.uleb128 0xb
 1889 003c 0B       		.uleb128 0xb
 1890 003d 3A       		.uleb128 0x3a
 1891 003e 0B       		.uleb128 0xb
 1892 003f 3B       		.uleb128 0x3b
 1893 0040 0B       		.uleb128 0xb
 1894 0041 01       		.uleb128 0x1
 1895 0042 13       		.uleb128 0x13
 1896 0043 00       		.byte	0
 1897 0044 00       		.byte	0
 1898 0045 06       		.uleb128 0x6
 1899 0046 0D       		.uleb128 0xd
 1900 0047 00       		.byte	0
 1901 0048 03       		.uleb128 0x3
 1902 0049 0E       		.uleb128 0xe
 1903 004a 3A       		.uleb128 0x3a
 1904 004b 0B       		.uleb128 0xb
 1905 004c 3B       		.uleb128 0x3b
 1906 004d 0B       		.uleb128 0xb
 1907 004e 49       		.uleb128 0x49
 1908 004f 13       		.uleb128 0x13
 1909 0050 38       		.uleb128 0x38
 1910 0051 0B       		.uleb128 0xb
 1911 0052 00       		.byte	0
 1912 0053 00       		.byte	0
 1913 0054 07       		.uleb128 0x7
 1914 0055 0D       		.uleb128 0xd
 1915 0056 00       		.byte	0
 1916 0057 03       		.uleb128 0x3
 1917 0058 08       		.uleb128 0x8
 1918 0059 3A       		.uleb128 0x3a
 1919 005a 0B       		.uleb128 0xb
 1920 005b 3B       		.uleb128 0x3b
 1921 005c 0B       		.uleb128 0xb
 1922 005d 49       		.uleb128 0x49
 1923 005e 13       		.uleb128 0x13
 1924 005f 38       		.uleb128 0x38
 1925 0060 0B       		.uleb128 0xb
 1926 0061 00       		.byte	0
 1927 0062 00       		.byte	0
 1928 0063 08       		.uleb128 0x8
 1929 0064 0D       		.uleb128 0xd
 1930 0065 00       		.byte	0
 1931 0066 03       		.uleb128 0x3
 1932 0067 08       		.uleb128 0x8
 1933 0068 3A       		.uleb128 0x3a
 1934 0069 0B       		.uleb128 0xb
 1935 006a 3B       		.uleb128 0x3b
 1936 006b 05       		.uleb128 0x5
 1937 006c 49       		.uleb128 0x49
 1938 006d 13       		.uleb128 0x13
ARM GAS  /tmp/cc8shE1s.s 			page 35


 1939 006e 38       		.uleb128 0x38
 1940 006f 0B       		.uleb128 0xb
 1941 0070 00       		.byte	0
 1942 0071 00       		.byte	0
 1943 0072 09       		.uleb128 0x9
 1944 0073 0D       		.uleb128 0xd
 1945 0074 00       		.byte	0
 1946 0075 03       		.uleb128 0x3
 1947 0076 0E       		.uleb128 0xe
 1948 0077 3A       		.uleb128 0x3a
 1949 0078 0B       		.uleb128 0xb
 1950 0079 3B       		.uleb128 0x3b
 1951 007a 05       		.uleb128 0x5
 1952 007b 49       		.uleb128 0x49
 1953 007c 13       		.uleb128 0x13
 1954 007d 38       		.uleb128 0x38
 1955 007e 0B       		.uleb128 0xb
 1956 007f 00       		.byte	0
 1957 0080 00       		.byte	0
 1958 0081 0A       		.uleb128 0xa
 1959 0082 0F       		.uleb128 0xf
 1960 0083 00       		.byte	0
 1961 0084 0B       		.uleb128 0xb
 1962 0085 0B       		.uleb128 0xb
 1963 0086 49       		.uleb128 0x49
 1964 0087 13       		.uleb128 0x13
 1965 0088 00       		.byte	0
 1966 0089 00       		.byte	0
 1967 008a 0B       		.uleb128 0xb
 1968 008b 13       		.uleb128 0x13
 1969 008c 01       		.byte	0x1
 1970 008d 03       		.uleb128 0x3
 1971 008e 0E       		.uleb128 0xe
 1972 008f 0B       		.uleb128 0xb
 1973 0090 0B       		.uleb128 0xb
 1974 0091 3A       		.uleb128 0x3a
 1975 0092 0B       		.uleb128 0xb
 1976 0093 3B       		.uleb128 0x3b
 1977 0094 05       		.uleb128 0x5
 1978 0095 01       		.uleb128 0x1
 1979 0096 13       		.uleb128 0x13
 1980 0097 00       		.byte	0
 1981 0098 00       		.byte	0
 1982 0099 0C       		.uleb128 0xc
 1983 009a 15       		.uleb128 0x15
 1984 009b 01       		.byte	0x1
 1985 009c 27       		.uleb128 0x27
 1986 009d 19       		.uleb128 0x19
 1987 009e 01       		.uleb128 0x1
 1988 009f 13       		.uleb128 0x13
 1989 00a0 00       		.byte	0
 1990 00a1 00       		.byte	0
 1991 00a2 0D       		.uleb128 0xd
 1992 00a3 05       		.uleb128 0x5
 1993 00a4 00       		.byte	0
 1994 00a5 49       		.uleb128 0x49
 1995 00a6 13       		.uleb128 0x13
ARM GAS  /tmp/cc8shE1s.s 			page 36


 1996 00a7 00       		.byte	0
 1997 00a8 00       		.byte	0
 1998 00a9 0E       		.uleb128 0xe
 1999 00aa 0F       		.uleb128 0xf
 2000 00ab 00       		.byte	0
 2001 00ac 0B       		.uleb128 0xb
 2002 00ad 0B       		.uleb128 0xb
 2003 00ae 00       		.byte	0
 2004 00af 00       		.byte	0
 2005 00b0 0F       		.uleb128 0xf
 2006 00b1 35       		.uleb128 0x35
 2007 00b2 00       		.byte	0
 2008 00b3 49       		.uleb128 0x49
 2009 00b4 13       		.uleb128 0x13
 2010 00b5 00       		.byte	0
 2011 00b6 00       		.byte	0
 2012 00b7 10       		.uleb128 0x10
 2013 00b8 13       		.uleb128 0x13
 2014 00b9 01       		.byte	0x1
 2015 00ba 0B       		.uleb128 0xb
 2016 00bb 0B       		.uleb128 0xb
 2017 00bc 3A       		.uleb128 0x3a
 2018 00bd 0B       		.uleb128 0xb
 2019 00be 3B       		.uleb128 0x3b
 2020 00bf 05       		.uleb128 0x5
 2021 00c0 01       		.uleb128 0x1
 2022 00c1 13       		.uleb128 0x13
 2023 00c2 00       		.byte	0
 2024 00c3 00       		.byte	0
 2025 00c4 11       		.uleb128 0x11
 2026 00c5 26       		.uleb128 0x26
 2027 00c6 00       		.byte	0
 2028 00c7 49       		.uleb128 0x49
 2029 00c8 13       		.uleb128 0x13
 2030 00c9 00       		.byte	0
 2031 00ca 00       		.byte	0
 2032 00cb 12       		.uleb128 0x12
 2033 00cc 01       		.uleb128 0x1
 2034 00cd 01       		.byte	0x1
 2035 00ce 49       		.uleb128 0x49
 2036 00cf 13       		.uleb128 0x13
 2037 00d0 01       		.uleb128 0x1
 2038 00d1 13       		.uleb128 0x13
 2039 00d2 00       		.byte	0
 2040 00d3 00       		.byte	0
 2041 00d4 13       		.uleb128 0x13
 2042 00d5 21       		.uleb128 0x21
 2043 00d6 00       		.byte	0
 2044 00d7 49       		.uleb128 0x49
 2045 00d8 13       		.uleb128 0x13
 2046 00d9 2F       		.uleb128 0x2f
 2047 00da 0B       		.uleb128 0xb
 2048 00db 00       		.byte	0
 2049 00dc 00       		.byte	0
 2050 00dd 14       		.uleb128 0x14
 2051 00de 16       		.uleb128 0x16
 2052 00df 00       		.byte	0
ARM GAS  /tmp/cc8shE1s.s 			page 37


 2053 00e0 03       		.uleb128 0x3
 2054 00e1 0E       		.uleb128 0xe
 2055 00e2 3A       		.uleb128 0x3a
 2056 00e3 0B       		.uleb128 0xb
 2057 00e4 3B       		.uleb128 0x3b
 2058 00e5 05       		.uleb128 0x5
 2059 00e6 49       		.uleb128 0x49
 2060 00e7 13       		.uleb128 0x13
 2061 00e8 00       		.byte	0
 2062 00e9 00       		.byte	0
 2063 00ea 15       		.uleb128 0x15
 2064 00eb 13       		.uleb128 0x13
 2065 00ec 01       		.byte	0x1
 2066 00ed 0B       		.uleb128 0xb
 2067 00ee 0B       		.uleb128 0xb
 2068 00ef 3A       		.uleb128 0x3a
 2069 00f0 0B       		.uleb128 0xb
 2070 00f1 3B       		.uleb128 0x3b
 2071 00f2 0B       		.uleb128 0xb
 2072 00f3 01       		.uleb128 0x1
 2073 00f4 13       		.uleb128 0x13
 2074 00f5 00       		.byte	0
 2075 00f6 00       		.byte	0
 2076 00f7 16       		.uleb128 0x16
 2077 00f8 17       		.uleb128 0x17
 2078 00f9 01       		.byte	0x1
 2079 00fa 0B       		.uleb128 0xb
 2080 00fb 0B       		.uleb128 0xb
 2081 00fc 3A       		.uleb128 0x3a
 2082 00fd 0B       		.uleb128 0xb
 2083 00fe 3B       		.uleb128 0x3b
 2084 00ff 0B       		.uleb128 0xb
 2085 0100 01       		.uleb128 0x1
 2086 0101 13       		.uleb128 0x13
 2087 0102 00       		.byte	0
 2088 0103 00       		.byte	0
 2089 0104 17       		.uleb128 0x17
 2090 0105 0D       		.uleb128 0xd
 2091 0106 00       		.byte	0
 2092 0107 03       		.uleb128 0x3
 2093 0108 0E       		.uleb128 0xe
 2094 0109 3A       		.uleb128 0x3a
 2095 010a 0B       		.uleb128 0xb
 2096 010b 3B       		.uleb128 0x3b
 2097 010c 0B       		.uleb128 0xb
 2098 010d 49       		.uleb128 0x49
 2099 010e 13       		.uleb128 0x13
 2100 010f 00       		.byte	0
 2101 0110 00       		.byte	0
 2102 0111 18       		.uleb128 0x18
 2103 0112 0D       		.uleb128 0xd
 2104 0113 00       		.byte	0
 2105 0114 03       		.uleb128 0x3
 2106 0115 0E       		.uleb128 0xe
 2107 0116 3A       		.uleb128 0x3a
 2108 0117 0B       		.uleb128 0xb
 2109 0118 3B       		.uleb128 0x3b
ARM GAS  /tmp/cc8shE1s.s 			page 38


 2110 0119 05       		.uleb128 0x5
 2111 011a 49       		.uleb128 0x49
 2112 011b 13       		.uleb128 0x13
 2113 011c 00       		.byte	0
 2114 011d 00       		.byte	0
 2115 011e 19       		.uleb128 0x19
 2116 011f 2E       		.uleb128 0x2e
 2117 0120 01       		.byte	0x1
 2118 0121 03       		.uleb128 0x3
 2119 0122 0E       		.uleb128 0xe
 2120 0123 3A       		.uleb128 0x3a
 2121 0124 0B       		.uleb128 0xb
 2122 0125 3B       		.uleb128 0x3b
 2123 0126 05       		.uleb128 0x5
 2124 0127 27       		.uleb128 0x27
 2125 0128 19       		.uleb128 0x19
 2126 0129 20       		.uleb128 0x20
 2127 012a 0B       		.uleb128 0xb
 2128 012b 01       		.uleb128 0x1
 2129 012c 13       		.uleb128 0x13
 2130 012d 00       		.byte	0
 2131 012e 00       		.byte	0
 2132 012f 1A       		.uleb128 0x1a
 2133 0130 05       		.uleb128 0x5
 2134 0131 00       		.byte	0
 2135 0132 03       		.uleb128 0x3
 2136 0133 0E       		.uleb128 0xe
 2137 0134 3A       		.uleb128 0x3a
 2138 0135 0B       		.uleb128 0xb
 2139 0136 3B       		.uleb128 0x3b
 2140 0137 05       		.uleb128 0x5
 2141 0138 49       		.uleb128 0x49
 2142 0139 13       		.uleb128 0x13
 2143 013a 00       		.byte	0
 2144 013b 00       		.byte	0
 2145 013c 1B       		.uleb128 0x1b
 2146 013d 2E       		.uleb128 0x2e
 2147 013e 00       		.byte	0
 2148 013f 03       		.uleb128 0x3
 2149 0140 0E       		.uleb128 0xe
 2150 0141 3A       		.uleb128 0x3a
 2151 0142 0B       		.uleb128 0xb
 2152 0143 3B       		.uleb128 0x3b
 2153 0144 05       		.uleb128 0x5
 2154 0145 27       		.uleb128 0x27
 2155 0146 19       		.uleb128 0x19
 2156 0147 20       		.uleb128 0x20
 2157 0148 0B       		.uleb128 0xb
 2158 0149 00       		.byte	0
 2159 014a 00       		.byte	0
 2160 014b 1C       		.uleb128 0x1c
 2161 014c 2E       		.uleb128 0x2e
 2162 014d 01       		.byte	0x1
 2163 014e 03       		.uleb128 0x3
 2164 014f 0E       		.uleb128 0xe
 2165 0150 3A       		.uleb128 0x3a
 2166 0151 0B       		.uleb128 0xb
ARM GAS  /tmp/cc8shE1s.s 			page 39


 2167 0152 3B       		.uleb128 0x3b
 2168 0153 0B       		.uleb128 0xb
 2169 0154 27       		.uleb128 0x27
 2170 0155 19       		.uleb128 0x19
 2171 0156 49       		.uleb128 0x49
 2172 0157 13       		.uleb128 0x13
 2173 0158 20       		.uleb128 0x20
 2174 0159 0B       		.uleb128 0xb
 2175 015a 01       		.uleb128 0x1
 2176 015b 13       		.uleb128 0x13
 2177 015c 00       		.byte	0
 2178 015d 00       		.byte	0
 2179 015e 1D       		.uleb128 0x1d
 2180 015f 34       		.uleb128 0x34
 2181 0160 00       		.byte	0
 2182 0161 03       		.uleb128 0x3
 2183 0162 0E       		.uleb128 0xe
 2184 0163 3A       		.uleb128 0x3a
 2185 0164 0B       		.uleb128 0xb
 2186 0165 3B       		.uleb128 0x3b
 2187 0166 0B       		.uleb128 0xb
 2188 0167 49       		.uleb128 0x49
 2189 0168 13       		.uleb128 0x13
 2190 0169 00       		.byte	0
 2191 016a 00       		.byte	0
 2192 016b 1E       		.uleb128 0x1e
 2193 016c 2E       		.uleb128 0x2e
 2194 016d 01       		.byte	0x1
 2195 016e 03       		.uleb128 0x3
 2196 016f 0E       		.uleb128 0xe
 2197 0170 3A       		.uleb128 0x3a
 2198 0171 0B       		.uleb128 0xb
 2199 0172 3B       		.uleb128 0x3b
 2200 0173 05       		.uleb128 0x5
 2201 0174 27       		.uleb128 0x27
 2202 0175 19       		.uleb128 0x19
 2203 0176 49       		.uleb128 0x49
 2204 0177 13       		.uleb128 0x13
 2205 0178 20       		.uleb128 0x20
 2206 0179 0B       		.uleb128 0xb
 2207 017a 01       		.uleb128 0x1
 2208 017b 13       		.uleb128 0x13
 2209 017c 00       		.byte	0
 2210 017d 00       		.byte	0
 2211 017e 1F       		.uleb128 0x1f
 2212 017f 34       		.uleb128 0x34
 2213 0180 00       		.byte	0
 2214 0181 03       		.uleb128 0x3
 2215 0182 0E       		.uleb128 0xe
 2216 0183 3A       		.uleb128 0x3a
 2217 0184 0B       		.uleb128 0xb
 2218 0185 3B       		.uleb128 0x3b
 2219 0186 05       		.uleb128 0x5
 2220 0187 49       		.uleb128 0x49
 2221 0188 13       		.uleb128 0x13
 2222 0189 00       		.byte	0
 2223 018a 00       		.byte	0
ARM GAS  /tmp/cc8shE1s.s 			page 40


 2224 018b 20       		.uleb128 0x20
 2225 018c 2E       		.uleb128 0x2e
 2226 018d 01       		.byte	0x1
 2227 018e 3F       		.uleb128 0x3f
 2228 018f 19       		.uleb128 0x19
 2229 0190 03       		.uleb128 0x3
 2230 0191 0E       		.uleb128 0xe
 2231 0192 3A       		.uleb128 0x3a
 2232 0193 0B       		.uleb128 0xb
 2233 0194 3B       		.uleb128 0x3b
 2234 0195 0B       		.uleb128 0xb
 2235 0196 27       		.uleb128 0x27
 2236 0197 19       		.uleb128 0x19
 2237 0198 11       		.uleb128 0x11
 2238 0199 01       		.uleb128 0x1
 2239 019a 12       		.uleb128 0x12
 2240 019b 06       		.uleb128 0x6
 2241 019c 40       		.uleb128 0x40
 2242 019d 18       		.uleb128 0x18
 2243 019e 9742     		.uleb128 0x2117
 2244 01a0 19       		.uleb128 0x19
 2245 01a1 01       		.uleb128 0x1
 2246 01a2 13       		.uleb128 0x13
 2247 01a3 00       		.byte	0
 2248 01a4 00       		.byte	0
 2249 01a5 21       		.uleb128 0x21
 2250 01a6 34       		.uleb128 0x34
 2251 01a7 00       		.byte	0
 2252 01a8 03       		.uleb128 0x3
 2253 01a9 0E       		.uleb128 0xe
 2254 01aa 3A       		.uleb128 0x3a
 2255 01ab 0B       		.uleb128 0xb
 2256 01ac 3B       		.uleb128 0x3b
 2257 01ad 0B       		.uleb128 0xb
 2258 01ae 49       		.uleb128 0x49
 2259 01af 13       		.uleb128 0x13
 2260 01b0 02       		.uleb128 0x2
 2261 01b1 17       		.uleb128 0x17
 2262 01b2 00       		.byte	0
 2263 01b3 00       		.byte	0
 2264 01b4 22       		.uleb128 0x22
 2265 01b5 1D       		.uleb128 0x1d
 2266 01b6 01       		.byte	0x1
 2267 01b7 31       		.uleb128 0x31
 2268 01b8 13       		.uleb128 0x13
 2269 01b9 11       		.uleb128 0x11
 2270 01ba 01       		.uleb128 0x1
 2271 01bb 12       		.uleb128 0x12
 2272 01bc 06       		.uleb128 0x6
 2273 01bd 58       		.uleb128 0x58
 2274 01be 0B       		.uleb128 0xb
 2275 01bf 59       		.uleb128 0x59
 2276 01c0 0B       		.uleb128 0xb
 2277 01c1 01       		.uleb128 0x1
 2278 01c2 13       		.uleb128 0x13
 2279 01c3 00       		.byte	0
 2280 01c4 00       		.byte	0
ARM GAS  /tmp/cc8shE1s.s 			page 41


 2281 01c5 23       		.uleb128 0x23
 2282 01c6 0B       		.uleb128 0xb
 2283 01c7 01       		.byte	0x1
 2284 01c8 11       		.uleb128 0x11
 2285 01c9 01       		.uleb128 0x1
 2286 01ca 12       		.uleb128 0x12
 2287 01cb 06       		.uleb128 0x6
 2288 01cc 00       		.byte	0
 2289 01cd 00       		.byte	0
 2290 01ce 24       		.uleb128 0x24
 2291 01cf 34       		.uleb128 0x34
 2292 01d0 00       		.byte	0
 2293 01d1 31       		.uleb128 0x31
 2294 01d2 13       		.uleb128 0x13
 2295 01d3 02       		.uleb128 0x2
 2296 01d4 17       		.uleb128 0x17
 2297 01d5 00       		.byte	0
 2298 01d6 00       		.byte	0
 2299 01d7 25       		.uleb128 0x25
 2300 01d8 05       		.uleb128 0x5
 2301 01d9 00       		.byte	0
 2302 01da 31       		.uleb128 0x31
 2303 01db 13       		.uleb128 0x13
 2304 01dc 02       		.uleb128 0x2
 2305 01dd 17       		.uleb128 0x17
 2306 01de 00       		.byte	0
 2307 01df 00       		.byte	0
 2308 01e0 26       		.uleb128 0x26
 2309 01e1 1D       		.uleb128 0x1d
 2310 01e2 01       		.byte	0x1
 2311 01e3 31       		.uleb128 0x31
 2312 01e4 13       		.uleb128 0x13
 2313 01e5 11       		.uleb128 0x11
 2314 01e6 01       		.uleb128 0x1
 2315 01e7 12       		.uleb128 0x12
 2316 01e8 06       		.uleb128 0x6
 2317 01e9 58       		.uleb128 0x58
 2318 01ea 0B       		.uleb128 0xb
 2319 01eb 59       		.uleb128 0x59
 2320 01ec 0B       		.uleb128 0xb
 2321 01ed 00       		.byte	0
 2322 01ee 00       		.byte	0
 2323 01ef 27       		.uleb128 0x27
 2324 01f0 1D       		.uleb128 0x1d
 2325 01f1 01       		.byte	0x1
 2326 01f2 31       		.uleb128 0x31
 2327 01f3 13       		.uleb128 0x13
 2328 01f4 11       		.uleb128 0x11
 2329 01f5 01       		.uleb128 0x1
 2330 01f6 12       		.uleb128 0x12
 2331 01f7 06       		.uleb128 0x6
 2332 01f8 58       		.uleb128 0x58
 2333 01f9 0B       		.uleb128 0xb
 2334 01fa 59       		.uleb128 0x59
 2335 01fb 05       		.uleb128 0x5
 2336 01fc 00       		.byte	0
 2337 01fd 00       		.byte	0
ARM GAS  /tmp/cc8shE1s.s 			page 42


 2338 01fe 28       		.uleb128 0x28
 2339 01ff 05       		.uleb128 0x5
 2340 0200 00       		.byte	0
 2341 0201 31       		.uleb128 0x31
 2342 0202 13       		.uleb128 0x13
 2343 0203 1C       		.uleb128 0x1c
 2344 0204 0B       		.uleb128 0xb
 2345 0205 00       		.byte	0
 2346 0206 00       		.byte	0
 2347 0207 29       		.uleb128 0x29
 2348 0208 0B       		.uleb128 0xb
 2349 0209 01       		.byte	0x1
 2350 020a 11       		.uleb128 0x11
 2351 020b 01       		.uleb128 0x1
 2352 020c 12       		.uleb128 0x12
 2353 020d 06       		.uleb128 0x6
 2354 020e 01       		.uleb128 0x1
 2355 020f 13       		.uleb128 0x13
 2356 0210 00       		.byte	0
 2357 0211 00       		.byte	0
 2358 0212 2A       		.uleb128 0x2a
 2359 0213 34       		.uleb128 0x34
 2360 0214 00       		.byte	0
 2361 0215 31       		.uleb128 0x31
 2362 0216 13       		.uleb128 0x13
 2363 0217 00       		.byte	0
 2364 0218 00       		.byte	0
 2365 0219 2B       		.uleb128 0x2b
 2366 021a 898201   		.uleb128 0x4109
 2367 021d 00       		.byte	0
 2368 021e 11       		.uleb128 0x11
 2369 021f 01       		.uleb128 0x1
 2370 0220 31       		.uleb128 0x31
 2371 0221 13       		.uleb128 0x13
 2372 0222 00       		.byte	0
 2373 0223 00       		.byte	0
 2374 0224 2C       		.uleb128 0x2c
 2375 0225 34       		.uleb128 0x34
 2376 0226 00       		.byte	0
 2377 0227 03       		.uleb128 0x3
 2378 0228 0E       		.uleb128 0xe
 2379 0229 3A       		.uleb128 0x3a
 2380 022a 0B       		.uleb128 0xb
 2381 022b 3B       		.uleb128 0x3b
 2382 022c 05       		.uleb128 0x5
 2383 022d 49       		.uleb128 0x49
 2384 022e 13       		.uleb128 0x13
 2385 022f 3F       		.uleb128 0x3f
 2386 0230 19       		.uleb128 0x19
 2387 0231 3C       		.uleb128 0x3c
 2388 0232 19       		.uleb128 0x19
 2389 0233 00       		.byte	0
 2390 0234 00       		.byte	0
 2391 0235 2D       		.uleb128 0x2d
 2392 0236 34       		.uleb128 0x34
 2393 0237 00       		.byte	0
 2394 0238 03       		.uleb128 0x3
ARM GAS  /tmp/cc8shE1s.s 			page 43


 2395 0239 08       		.uleb128 0x8
 2396 023a 3A       		.uleb128 0x3a
 2397 023b 0B       		.uleb128 0xb
 2398 023c 3B       		.uleb128 0x3b
 2399 023d 05       		.uleb128 0x5
 2400 023e 49       		.uleb128 0x49
 2401 023f 13       		.uleb128 0x13
 2402 0240 3F       		.uleb128 0x3f
 2403 0241 19       		.uleb128 0x19
 2404 0242 3C       		.uleb128 0x3c
 2405 0243 19       		.uleb128 0x19
 2406 0244 00       		.byte	0
 2407 0245 00       		.byte	0
 2408 0246 2E       		.uleb128 0x2e
 2409 0247 2E       		.uleb128 0x2e
 2410 0248 00       		.byte	0
 2411 0249 3F       		.uleb128 0x3f
 2412 024a 19       		.uleb128 0x19
 2413 024b 03       		.uleb128 0x3
 2414 024c 0E       		.uleb128 0xe
 2415 024d 3A       		.uleb128 0x3a
 2416 024e 0B       		.uleb128 0xb
 2417 024f 3B       		.uleb128 0x3b
 2418 0250 05       		.uleb128 0x5
 2419 0251 27       		.uleb128 0x27
 2420 0252 19       		.uleb128 0x19
 2421 0253 49       		.uleb128 0x49
 2422 0254 13       		.uleb128 0x13
 2423 0255 3C       		.uleb128 0x3c
 2424 0256 19       		.uleb128 0x19
 2425 0257 00       		.byte	0
 2426 0258 00       		.byte	0
 2427 0259 00       		.byte	0
 2428              		.section	.debug_loc,"",%progbits
 2429              	.Ldebug_loc0:
 2430              	.LLST0:
 2431 0000 0E000000 		.4byte	.LVL0
 2432 0004 10000000 		.4byte	.LVL1
 2433 0008 0400     		.2byte	0x4
 2434 000a 73       		.byte	0x73
 2435 000b E800     		.sleb128 104
 2436 000d 9F       		.byte	0x9f
 2437 000e 10000000 		.4byte	.LVL1
 2438 0012 16000000 		.4byte	.LVL3
 2439 0016 0100     		.2byte	0x1
 2440 0018 53       		.byte	0x53
 2441 0019 00000000 		.4byte	0
 2442 001d 00000000 		.4byte	0
 2443              	.LLST1:
 2444 0021 0E000000 		.4byte	.LVL0
 2445 0025 10000000 		.4byte	.LVL1
 2446 0029 0100     		.2byte	0x1
 2447 002b 53       		.byte	0x53
 2448 002c 10000000 		.4byte	.LVL1
 2449 0030 16000000 		.4byte	.LVL3
 2450 0034 0400     		.2byte	0x4
 2451 0036 73       		.byte	0x73
ARM GAS  /tmp/cc8shE1s.s 			page 44


 2452 0037 987F     		.sleb128 -104
 2453 0039 9F       		.byte	0x9f
 2454 003a 00000000 		.4byte	0
 2455 003e 00000000 		.4byte	0
 2456              	.LLST3:
 2457 0042 1A000000 		.4byte	.LVL6
 2458 0046 2E000000 		.4byte	.LVL8
 2459 004a 0400     		.2byte	0x4
 2460 004c 74       		.byte	0x74
 2461 004d 987F     		.sleb128 -104
 2462 004f 9F       		.byte	0x9f
 2463 0050 2E000000 		.4byte	.LVL8
 2464 0054 35000000 		.4byte	.LVL9-1
 2465 0058 0100     		.2byte	0x1
 2466 005a 53       		.byte	0x53
 2467 005b 35000000 		.4byte	.LVL9-1
 2468 005f 44000000 		.4byte	.LVL10
 2469 0063 0400     		.2byte	0x4
 2470 0065 74       		.byte	0x74
 2471 0066 987F     		.sleb128 -104
 2472 0068 9F       		.byte	0x9f
 2473 0069 00000000 		.4byte	0
 2474 006d 00000000 		.4byte	0
 2475              	.LLST4:
 2476 0071 1A000000 		.4byte	.LVL6
 2477 0075 44000000 		.4byte	.LVL10
 2478 0079 0100     		.2byte	0x1
 2479 007b 54       		.byte	0x54
 2480 007c 00000000 		.4byte	0
 2481 0080 00000000 		.4byte	0
 2482              	.LLST5:
 2483 0084 2A000000 		.4byte	.LVL7
 2484 0088 2E000000 		.4byte	.LVL8
 2485 008c 0400     		.2byte	0x4
 2486 008e 74       		.byte	0x74
 2487 008f 987F     		.sleb128 -104
 2488 0091 9F       		.byte	0x9f
 2489 0092 2E000000 		.4byte	.LVL8
 2490 0096 35000000 		.4byte	.LVL9-1
 2491 009a 0100     		.2byte	0x1
 2492 009c 53       		.byte	0x53
 2493 009d 35000000 		.4byte	.LVL9-1
 2494 00a1 44000000 		.4byte	.LVL10
 2495 00a5 0400     		.2byte	0x4
 2496 00a7 74       		.byte	0x74
 2497 00a8 987F     		.sleb128 -104
 2498 00aa 9F       		.byte	0x9f
 2499 00ab 00000000 		.4byte	0
 2500 00af 00000000 		.4byte	0
 2501              		.section	.debug_aranges,"",%progbits
 2502 0000 24000000 		.4byte	0x24
 2503 0004 0200     		.2byte	0x2
 2504 0006 00000000 		.4byte	.Ldebug_info0
 2505 000a 04       		.byte	0x4
 2506 000b 00       		.byte	0
 2507 000c 0000     		.2byte	0
 2508 000e 0000     		.2byte	0
ARM GAS  /tmp/cc8shE1s.s 			page 45


 2509 0010 00000000 		.4byte	.LFB290
 2510 0014 20000000 		.4byte	.LFE290-.LFB290
 2511 0018 00000000 		.4byte	.LFB291
 2512 001c 5C000000 		.4byte	.LFE291-.LFB291
 2513 0020 00000000 		.4byte	0
 2514 0024 00000000 		.4byte	0
 2515              		.section	.debug_ranges,"",%progbits
 2516              	.Ldebug_ranges0:
 2517 0000 00000000 		.4byte	.LFB290
 2518 0004 20000000 		.4byte	.LFE290
 2519 0008 00000000 		.4byte	.LFB291
 2520 000c 5C000000 		.4byte	.LFE291
 2521 0010 00000000 		.4byte	0
 2522 0014 00000000 		.4byte	0
 2523              		.section	.debug_line,"",%progbits
 2524              	.Ldebug_line0:
 2525 0000 48020000 		.section	.debug_str,"MS",%progbits,1
 2525      0200DA01 
 2525      00000201 
 2525      FB0E0D00 
 2525      01010101 
 2526              	.LASF52:
 2527 0000 72656164 		.ascii	"ready_list_t\000"
 2527      795F6C69 
 2527      73745F74 
 2527      00
 2528              	.LASF121:
 2529 000d 77747472 		.ascii	"wttrp\000"
 2529      7000
 2530              	.LASF58:
 2531 0013 64656C74 		.ascii	"delta\000"
 2531      6100
 2532              	.LASF118:
 2533 0019 7264796D 		.ascii	"rdymsg\000"
 2533      736700
 2534              	.LASF93:
 2535 0020 46504453 		.ascii	"FPDSCR\000"
 2535      435200
 2536              	.LASF16:
 2537 0027 75696E74 		.ascii	"uint64_t\000"
 2537      36345F74 
 2537      00
 2538              	.LASF71:
 2539 0030 6B65726E 		.ascii	"kernel_stats\000"
 2539      656C5F73 
 2539      74617473 
 2539      00
 2540              	.LASF1:
 2541 003d 7369676E 		.ascii	"signed char\000"
 2541      65642063 
 2541      68617200 
 2542              	.LASF5:
 2543 0049 5F5F7569 		.ascii	"__uint8_t\000"
 2543      6E74385F 
 2543      7400
 2544              	.LASF51:
 2545 0053 70726576 		.ascii	"prev\000"
ARM GAS  /tmp/cc8shE1s.s 			page 46


 2545      00
 2546              	.LASF100:
 2547 0058 706F7274 		.ascii	"port_intctx\000"
 2547      5F696E74 
 2547      63747800 
 2548              	.LASF50:
 2549 0064 63685F74 		.ascii	"ch_threads_queue\000"
 2549      68726561 
 2549      64735F71 
 2549      75657565 
 2549      00
 2550              	.LASF63:
 2551 0075 73797374 		.ascii	"system_debug_t\000"
 2551      656D5F64 
 2551      65627567 
 2551      5F7400
 2552              	.LASF45:
 2553 0084 74687265 		.ascii	"threads_list_t\000"
 2553      6164735F 
 2553      6C697374 
 2553      5F7400
 2554              	.LASF132:
 2555 0093 706F7274 		.ascii	"port_lock\000"
 2555      5F6C6F63 
 2555      6B00
 2556              	.LASF109:
 2557 009d 776F7273 		.ascii	"worst\000"
 2557      7400
 2558              	.LASF112:
 2559 00a3 74696D65 		.ascii	"time_measurement_t\000"
 2559      5F6D6561 
 2559      73757265 
 2559      6D656E74 
 2559      5F7400
 2560              	.LASF119:
 2561 00b6 65786974 		.ascii	"exitcode\000"
 2561      636F6465 
 2561      00
 2562              	.LASF70:
 2563 00bf 6D61696E 		.ascii	"mainthread\000"
 2563      74687265 
 2563      616400
 2564              	.LASF122:
 2565 00ca 73656E74 		.ascii	"sentmsg\000"
 2565      6D736700 
 2566              	.LASF60:
 2567 00d2 76697274 		.ascii	"virtual_timers_list_t\000"
 2567      75616C5F 
 2567      74696D65 
 2567      72735F6C 
 2567      6973745F 
 2568              	.LASF75:
 2569 00e8 43505549 		.ascii	"CPUID\000"
 2569      4400
 2570              	.LASF48:
 2571 00ee 6E657874 		.ascii	"next\000"
 2571      00
ARM GAS  /tmp/cc8shE1s.s 			page 47


 2572              	.LASF18:
 2573 00f3 72747469 		.ascii	"rttime_t\000"
 2573      6D655F74 
 2573      00
 2574              	.LASF12:
 2575 00fc 6C6F6E67 		.ascii	"long long unsigned int\000"
 2575      206C6F6E 
 2575      6720756E 
 2575      7369676E 
 2575      65642069 
 2576              	.LASF87:
 2577 0113 49534152 		.ascii	"ISAR\000"
 2577      00
 2578              	.LASF136:
 2579 0118 62617365 		.ascii	"basePri\000"
 2579      50726900 
 2580              	.LASF69:
 2581 0120 76746C69 		.ascii	"vtlist\000"
 2581      737400
 2582              	.LASF133:
 2583 0127 706F7274 		.ascii	"port_unlock\000"
 2583      5F756E6C 
 2583      6F636B00 
 2584              	.LASF38:
 2585 0133 6D736771 		.ascii	"msgqueue\000"
 2585      75657565 
 2585      00
 2586              	.LASF34:
 2587 013c 73746174 		.ascii	"state\000"
 2587      6500
 2588              	.LASF7:
 2589 0142 6C6F6E67 		.ascii	"long int\000"
 2589      20696E74 
 2589      00
 2590              	.LASF20:
 2591 014b 74737461 		.ascii	"tstate_t\000"
 2591      74655F74 
 2591      00
 2592              	.LASF59:
 2593 0154 66756E63 		.ascii	"func\000"
 2593      00
 2594              	.LASF43:
 2595 0159 73746174 		.ascii	"stats\000"
 2595      7300
 2596              	.LASF150:
 2597 015f 63685363 		.ascii	"chSchIsPreemptionRequired\000"
 2597      68497350 
 2597      7265656D 
 2597      7074696F 
 2597      6E526571 
 2598              	.LASF8:
 2599 0179 5F5F7569 		.ascii	"__uint32_t\000"
 2599      6E743332 
 2599      5F7400
 2600              	.LASF97:
 2601 0184 72656761 		.ascii	"regarm_t\000"
 2601      726D5F74 
ARM GAS  /tmp/cc8shE1s.s 			page 48


 2601      00
 2602              	.LASF90:
 2603 018d 5343425F 		.ascii	"SCB_Type\000"
 2603      54797065 
 2603      00
 2604              	.LASF64:
 2605 0196 63685F73 		.ascii	"ch_system_debug\000"
 2605      79737465 
 2605      6D5F6465 
 2605      62756700 
 2606              	.LASF37:
 2607 01a6 77616974 		.ascii	"waiting\000"
 2607      696E6700 
 2608              	.LASF10:
 2609 01ae 6C6F6E67 		.ascii	"long long int\000"
 2609      206C6F6E 
 2609      6720696E 
 2609      7400
 2610              	.LASF73:
 2611 01bc 73797369 		.ascii	"sysinterval_t\000"
 2611      6E746572 
 2611      76616C5F 
 2611      7400
 2612              	.LASF25:
 2613 01ca 636E745F 		.ascii	"cnt_t\000"
 2613      7400
 2614              	.LASF96:
 2615 01d0 4650555F 		.ascii	"FPU_Type\000"
 2615      54797065 
 2615      00
 2616              	.LASF0:
 2617 01d9 756E7369 		.ascii	"unsigned int\000"
 2617      676E6564 
 2617      20696E74 
 2617      00
 2618              	.LASF135:
 2619 01e6 5F5F7365 		.ascii	"__set_PSP\000"
 2619      745F5053 
 2619      5000
 2620              	.LASF123:
 2621 01f0 77747365 		.ascii	"wtsemp\000"
 2621      6D7000
 2622              	.LASF113:
 2623 01f7 6E5F6972 		.ascii	"n_irq\000"
 2623      7100
 2624              	.LASF77:
 2625 01fd 56544F52 		.ascii	"VTOR\000"
 2625      00
 2626              	.LASF42:
 2627 0202 6D706F6F 		.ascii	"mpool\000"
 2627      6C00
 2628              	.LASF105:
 2629 0208 72657365 		.ascii	"reserved\000"
 2629      72766564 
 2629      00
 2630              	.LASF117:
 2631 0211 6B65726E 		.ascii	"kernel_stats_t\000"
ARM GAS  /tmp/cc8shE1s.s 			page 49


 2631      656C5F73 
 2631      74617473 
 2631      5F7400
 2632              	.LASF32:
 2633 0220 6E616D65 		.ascii	"name\000"
 2633      00
 2634              	.LASF46:
 2635 0225 63685F74 		.ascii	"ch_thread\000"
 2635      68726561 
 2635      6400
 2636              	.LASF84:
 2637 022f 42464152 		.ascii	"BFAR\000"
 2637      00
 2638              	.LASF76:
 2639 0234 49435352 		.ascii	"ICSR\000"
 2639      00
 2640              	.LASF23:
 2641 0239 6D73675F 		.ascii	"msg_t\000"
 2641      7400
 2642              	.LASF78:
 2643 023f 41495243 		.ascii	"AIRCR\000"
 2643      5200
 2644              	.LASF82:
 2645 0245 44465352 		.ascii	"DFSR\000"
 2645      00
 2646              	.LASF26:
 2647 024a 75636E74 		.ascii	"ucnt_t\000"
 2647      5F7400
 2648              	.LASF39:
 2649 0251 6570656E 		.ascii	"epending\000"
 2649      64696E67 
 2649      00
 2650              	.LASF83:
 2651 025a 4D4D4641 		.ascii	"MMFAR\000"
 2651      5200
 2652              	.LASF144:
 2653 0260 5F706F72 		.ascii	"_port_irq_epilogue\000"
 2653      745F6972 
 2653      715F6570 
 2653      696C6F67 
 2653      756500
 2654              	.LASF147:
 2655 0273 474E5520 		.ascii	"GNU C 4.9.3 20150529 (prerelease) -mcpu=cortex-m4 -"
 2655      4320342E 
 2655      392E3320 
 2655      32303135 
 2655      30353239 
 2656 02a6 6D666C6F 		.ascii	"mfloat-abi=hard -mfpu=fpv4-sp-d16 -mno-thumb-interw"
 2656      61742D61 
 2656      62693D68 
 2656      61726420 
 2656      2D6D6670 
 2657 02d9 6F726B20 		.ascii	"ork -mthumb -g -Os -fomit-frame-pointer -falign-fun"
 2657      2D6D7468 
 2657      756D6220 
 2657      2D67202D 
 2657      4F73202D 
ARM GAS  /tmp/cc8shE1s.s 			page 50


 2658 030c 6374696F 		.ascii	"ctions=16 -ffunction-sections -fdata-sections -fno-"
 2658      6E733D31 
 2658      36202D66 
 2658      66756E63 
 2658      74696F6E 
 2659 033f 636F6D6D 		.ascii	"common -fsingle-precision-constant\000"
 2659      6F6E202D 
 2659      6673696E 
 2659      676C652D 
 2659      70726563 
 2660              	.LASF19:
 2661 0362 746D6F64 		.ascii	"tmode_t\000"
 2661      655F7400 
 2662              	.LASF116:
 2663 036a 6D5F6372 		.ascii	"m_crit_isr\000"
 2663      69745F69 
 2663      737200
 2664              	.LASF53:
 2665 0375 63685F72 		.ascii	"ch_ready_list\000"
 2665      65616479 
 2665      5F6C6973 
 2665      7400
 2666              	.LASF24:
 2667 0383 6576656E 		.ascii	"eventmask_t\000"
 2667      746D6173 
 2667      6B5F7400 
 2668              	.LASF137:
 2669 038f 746F704F 		.ascii	"topOfProcStack\000"
 2669      6650726F 
 2669      63537461 
 2669      636B00
 2670              	.LASF6:
 2671 039e 5F5F696E 		.ascii	"__int32_t\000"
 2671      7433325F 
 2671      7400
 2672              	.LASF98:
 2673 03a8 73746B61 		.ascii	"stkalign_t\000"
 2673      6C69676E 
 2673      5F7400
 2674              	.LASF30:
 2675 03b3 6E657765 		.ascii	"newer\000"
 2675      7200
 2676              	.LASF41:
 2677 03b9 7265616C 		.ascii	"realprio\000"
 2677      7072696F 
 2677      00
 2678              	.LASF91:
 2679 03c2 46504343 		.ascii	"FPCCR\000"
 2679      5200
 2680              	.LASF74:
 2681 03c8 73697A65 		.ascii	"sizetype\000"
 2681      74797065 
 2681      00
 2682              	.LASF44:
 2683 03d1 74687265 		.ascii	"thread_reference_t\000"
 2683      61645F72 
 2683      65666572 
ARM GAS  /tmp/cc8shE1s.s 			page 51


 2683      656E6365 
 2683      5F7400
 2684              	.LASF61:
 2685 03e4 63685F76 		.ascii	"ch_virtual_timers_list\000"
 2685      69727475 
 2685      616C5F74 
 2685      696D6572 
 2685      735F6C69 
 2686              	.LASF28:
 2687 03fb 71756575 		.ascii	"queue\000"
 2687      6500
 2688              	.LASF80:
 2689 0401 43465352 		.ascii	"CFSR\000"
 2689      00
 2690              	.LASF99:
 2691 0406 706F7274 		.ascii	"port_context\000"
 2691      5F636F6E 
 2691      74657874 
 2691      00
 2692              	.LASF101:
 2693 0413 706F7274 		.ascii	"port_extctx\000"
 2693      5F657874 
 2693      63747800 
 2694              	.LASF107:
 2695 041f 746D5F63 		.ascii	"tm_calibration_t\000"
 2695      616C6962 
 2695      72617469 
 2695      6F6E5F74 
 2695      00
 2696              	.LASF29:
 2697 0430 7072696F 		.ascii	"prio\000"
 2697      00
 2698              	.LASF54:
 2699 0435 63757272 		.ascii	"current\000"
 2699      656E7400 
 2700              	.LASF110:
 2701 043d 6C617374 		.ascii	"last\000"
 2701      00
 2702              	.LASF11:
 2703 0442 5F5F7569 		.ascii	"__uint64_t\000"
 2703      6E743634 
 2703      5F7400
 2704              	.LASF111:
 2705 044d 63756D75 		.ascii	"cumulative\000"
 2705      6C617469 
 2705      766500
 2706              	.LASF94:
 2707 0458 4D564652 		.ascii	"MVFR0\000"
 2707      3000
 2708              	.LASF95:
 2709 045e 4D564652 		.ascii	"MVFR1\000"
 2709      3100
 2710              	.LASF21:
 2711 0464 74726566 		.ascii	"trefs_t\000"
 2711      735F7400 
 2712              	.LASF88:
 2713 046c 52455345 		.ascii	"RESERVED0\000"
ARM GAS  /tmp/cc8shE1s.s 			page 52


 2713      52564544 
 2713      3000
 2714              	.LASF145:
 2715 0476 63747870 		.ascii	"ctxp\000"
 2715      00
 2716              	.LASF56:
 2717 047b 76697274 		.ascii	"virtual_timer_t\000"
 2717      75616C5F 
 2717      74696D65 
 2717      725F7400 
 2718              	.LASF22:
 2719 048b 74707269 		.ascii	"tprio_t\000"
 2719      6F5F7400 
 2720              	.LASF141:
 2721 0493 5F5F6765 		.ascii	"__get_FPSCR\000"
 2721      745F4650 
 2721      53435200 
 2722              	.LASF114:
 2723 049f 6E5F6374 		.ascii	"n_ctxswc\000"
 2723      78737763 
 2723      00
 2724              	.LASF131:
 2725 04a8 5F426F6F 		.ascii	"_Bool\000"
 2725      6C00
 2726              	.LASF14:
 2727 04ae 696E7433 		.ascii	"int32_t\000"
 2727      325F7400 
 2728              	.LASF2:
 2729 04b6 756E7369 		.ascii	"unsigned char\000"
 2729      676E6564 
 2729      20636861 
 2729      7200
 2730              	.LASF79:
 2731 04c4 53484353 		.ascii	"SHCSR\000"
 2731      5200
 2732              	.LASF146:
 2733 04ca 49544D5F 		.ascii	"ITM_RxBuffer\000"
 2733      52784275 
 2733      66666572 
 2733      00
 2734              	.LASF36:
 2735 04d7 72656673 		.ascii	"refs\000"
 2735      00
 2736              	.LASF3:
 2737 04dc 73686F72 		.ascii	"short int\000"
 2737      7420696E 
 2737      7400
 2738              	.LASF62:
 2739 04e6 6C617374 		.ascii	"lasttime\000"
 2739      74696D65 
 2739      00
 2740              	.LASF103:
 2741 04ef 78707372 		.ascii	"xpsr\000"
 2741      00
 2742              	.LASF125:
 2743 04f4 65776D61 		.ascii	"ewmask\000"
 2743      736B00
ARM GAS  /tmp/cc8shE1s.s 			page 53


 2744              	.LASF67:
 2745 04fb 63685F73 		.ascii	"ch_system\000"
 2745      79737465 
 2745      6D00
 2746              	.LASF104:
 2747 0505 66707363 		.ascii	"fpscr\000"
 2747      7200
 2748              	.LASF102:
 2749 050b 6C725F74 		.ascii	"lr_thd\000"
 2749      686400
 2750              	.LASF92:
 2751 0512 46504341 		.ascii	"FPCAR\000"
 2751      5200
 2752              	.LASF143:
 2753 0518 5356435F 		.ascii	"SVC_Handler\000"
 2753      48616E64 
 2753      6C657200 
 2754              	.LASF57:
 2755 0524 63685F76 		.ascii	"ch_virtual_timer\000"
 2755      69727475 
 2755      616C5F74 
 2755      696D6572 
 2755      00
 2756              	.LASF126:
 2757 0535 63685F73 		.ascii	"ch_semaphore\000"
 2757      656D6170 
 2757      686F7265 
 2757      00
 2758              	.LASF15:
 2759 0542 75696E74 		.ascii	"uint32_t\000"
 2759      33325F74 
 2759      00
 2760              	.LASF124:
 2761 054b 77746D74 		.ascii	"wtmtxp\000"
 2761      787000
 2762              	.LASF85:
 2763 0552 41465352 		.ascii	"AFSR\000"
 2763      00
 2764              	.LASF47:
 2765 0557 63685F74 		.ascii	"ch_threads_list\000"
 2765      68726561 
 2765      64735F6C 
 2765      69737400 
 2766              	.LASF128:
 2767 0567 6F776E65 		.ascii	"owner\000"
 2767      7200
 2768              	.LASF9:
 2769 056d 6C6F6E67 		.ascii	"long unsigned int\000"
 2769      20756E73 
 2769      69676E65 
 2769      6420696E 
 2769      7400
 2770              	.LASF33:
 2771 057f 77616261 		.ascii	"wabase\000"
 2771      736500
 2772              	.LASF129:
 2773 0586 63686172 		.ascii	"char\000"
ARM GAS  /tmp/cc8shE1s.s 			page 54


 2773      00
 2774              	.LASF31:
 2775 058b 6F6C6465 		.ascii	"older\000"
 2775      7200
 2776              	.LASF138:
 2777 0591 706F7274 		.ascii	"port_unlock_from_isr\000"
 2777      5F756E6C 
 2777      6F636B5F 
 2777      66726F6D 
 2777      5F697372 
 2778              	.LASF27:
 2779 05a6 74687265 		.ascii	"thread_t\000"
 2779      61645F74 
 2779      00
 2780              	.LASF108:
 2781 05af 62657374 		.ascii	"best\000"
 2781      00
 2782              	.LASF72:
 2783 05b4 73797374 		.ascii	"systime_t\000"
 2783      696D655F 
 2783      7400
 2784              	.LASF55:
 2785 05be 76746675 		.ascii	"vtfunc_t\000"
 2785      6E635F74 
 2785      00
 2786              	.LASF134:
 2787 05c7 5F5F7365 		.ascii	"__set_BASEPRI\000"
 2787      745F4241 
 2787      53455052 
 2787      4900
 2788              	.LASF65:
 2789 05d5 70616E69 		.ascii	"panic_msg\000"
 2789      635F6D73 
 2789      6700
 2790              	.LASF106:
 2791 05df 6F666673 		.ascii	"offset\000"
 2791      657400
 2792              	.LASF4:
 2793 05e6 73686F72 		.ascii	"short unsigned int\000"
 2793      7420756E 
 2793      7369676E 
 2793      65642069 
 2793      6E7400
 2794              	.LASF149:
 2795 05f9 2F686F6D 		.ascii	"/home/kozinalexey/f4by/ardupilot/build/F4BY\000"
 2795      652F6B6F 
 2795      7A696E61 
 2795      6C657865 
 2795      792F6634 
 2796              	.LASF17:
 2797 0625 7274636E 		.ascii	"rtcnt_t\000"
 2797      745F7400 
 2798              	.LASF139:
 2799 062d 706F7274 		.ascii	"port_lock_from_isr\000"
 2799      5F6C6F63 
 2799      6B5F6672 
 2799      6F6D5F69 
ARM GAS  /tmp/cc8shE1s.s 			page 55


 2799      737200
 2800              	.LASF140:
 2801 0640 5F5F6765 		.ascii	"__get_PSP\000"
 2801      745F5053 
 2801      5000
 2802              	.LASF49:
 2803 064a 74687265 		.ascii	"threads_queue_t\000"
 2803      6164735F 
 2803      71756575 
 2803      655F7400 
 2804              	.LASF127:
 2805 065a 63685F6D 		.ascii	"ch_mutex\000"
 2805      75746578 
 2805      00
 2806              	.LASF66:
 2807 0663 63685F73 		.ascii	"ch_system_t\000"
 2807      79737465 
 2807      6D5F7400 
 2808              	.LASF86:
 2809 066f 4D4D4652 		.ascii	"MMFR\000"
 2809      00
 2810              	.LASF68:
 2811 0674 726C6973 		.ascii	"rlist\000"
 2811      7400
 2812              	.LASF148:
 2813 067a 2E2E2F2E 		.ascii	"../../modules/ChibiOS/os/common/ports/ARMCMx/chcore"
 2813      2E2F6D6F 
 2813      64756C65 
 2813      732F4368 
 2813      6962694F 
 2814 06ad 5F76376D 		.ascii	"_v7m.c\000"
 2814      2E6300
 2815              	.LASF13:
 2816 06b4 75696E74 		.ascii	"uint8_t\000"
 2816      385F7400 
 2817              	.LASF35:
 2818 06bc 666C6167 		.ascii	"flags\000"
 2818      7300
 2819              	.LASF120:
 2820 06c2 77746F62 		.ascii	"wtobjp\000"
 2820      6A7000
 2821              	.LASF89:
 2822 06c9 43504143 		.ascii	"CPACR\000"
 2822      5200
 2823              	.LASF81:
 2824 06cf 48465352 		.ascii	"HFSR\000"
 2824      00
 2825              	.LASF40:
 2826 06d4 6D74786C 		.ascii	"mtxlist\000"
 2826      69737400 
 2827              	.LASF130:
 2828 06dc 6D757465 		.ascii	"mutex_t\000"
 2828      785F7400 
 2829              	.LASF115:
 2830 06e4 6D5F6372 		.ascii	"m_crit_thd\000"
 2830      69745F74 
 2830      686400
ARM GAS  /tmp/cc8shE1s.s 			page 56


 2831              	.LASF142:
 2832 06ef 72657375 		.ascii	"result\000"
 2832      6C7400
 2833              		.ident	"GCC: (15:4.9.3+svn231177-1) 4.9.3 20150529 (prerelease)"
ARM GAS  /tmp/cc8shE1s.s 			page 57


DEFINED SYMBOLS
                            *ABS*:0000000000000000 chcore_v7m.c
     /tmp/cc8shE1s.s:21     .text.SVC_Handler:0000000000000000 $t
     /tmp/cc8shE1s.s:26     .text.SVC_Handler:0000000000000000 SVC_Handler
     /tmp/cc8shE1s.s:78     .text.SVC_Handler:000000000000001c $d
     /tmp/cc8shE1s.s:87     .text._port_irq_epilogue:0000000000000000 $t
     /tmp/cc8shE1s.s:92     .text._port_irq_epilogue:0000000000000000 _port_irq_epilogue
     /tmp/cc8shE1s.s:192    .text._port_irq_epilogue:000000000000004c $d
                     .debug_frame:0000000000000010 $d

UNDEFINED SYMBOLS
chSchIsPreemptionRequired
_port_switch_from_isr
_port_exit_from_isr
