ARM GAS  /tmp/cc5gG173.s 			page 1


   1              		.syntax unified
   2              		.cpu cortex-m4
   3              		.eabi_attribute 27, 1
   4              		.eabi_attribute 28, 1
   5              		.fpu fpv4-sp-d16
   6              		.eabi_attribute 20, 1
   7              		.eabi_attribute 21, 1
   8              		.eabi_attribute 23, 3
   9              		.eabi_attribute 24, 1
  10              		.eabi_attribute 25, 1
  11              		.eabi_attribute 26, 1
  12              		.eabi_attribute 30, 4
  13              		.eabi_attribute 34, 1
  14              		.eabi_attribute 18, 4
  15              		.thumb
  16              		.file	"chcond.c"
  17              		.text
  18              	.Ltext0:
  19              		.cfi_sections	.debug_frame
  20              		.section	.text.queue_prio_insert,"ax",%progbits
  21              		.align	1
  22              		.thumb
  23              		.thumb_func
  24              		.type	queue_prio_insert, %function
  25              	queue_prio_insert:
  26              	.LFB172:
  27              		.file 1 "../../modules/ChibiOS/os/rt/include/chschd.h"
  28              		.loc 1 586 0
  29              		.cfi_startproc
  30              		@ args = 0, pretend = 0, frame = 0
  31              		@ frame_needed = 0, uses_anonymous_args = 0
  32              	.LVL0:
  33 0000 10B5     		push	{r4, lr}
  34              		.cfi_def_cfa_offset 8
  35              		.cfi_offset 4, -8
  36              		.cfi_offset 14, -4
  37              		.loc 1 586 0
  38 0002 0B46     		mov	r3, r1
  39              	.LVL1:
  40              	.L3:
  41              		.loc 1 590 0 discriminator 2
  42 0004 1B68     		ldr	r3, [r3]
  43              	.LVL2:
  44              		.loc 1 591 0 discriminator 2
  45 0006 8B42     		cmp	r3, r1
  46 0008 04D0     		beq	.L2
  47              		.loc 1 591 0 is_stmt 0 discriminator 1
  48 000a 9C68     		ldr	r4, [r3, #8]
  49 000c 8268     		ldr	r2, [r0, #8]
  50 000e 9442     		cmp	r4, r2
  51 0010 F8D2     		bcs	.L3
  52 0012 1946     		mov	r1, r3
  53              	.LVL3:
  54              	.L2:
  55              		.loc 1 593 0 is_stmt 1
  56 0014 4B68     		ldr	r3, [r1, #4]
  57              	.LVL4:
ARM GAS  /tmp/cc5gG173.s 			page 2


  58              		.loc 1 592 0
  59 0016 0160     		str	r1, [r0]
  60              		.loc 1 593 0
  61 0018 4360     		str	r3, [r0, #4]
  62              		.loc 1 594 0
  63 001a 1860     		str	r0, [r3]
  64              		.loc 1 595 0
  65 001c 4860     		str	r0, [r1, #4]
  66 001e 10BD     		pop	{r4, pc}
  67              		.cfi_endproc
  68              	.LFE172:
  69              		.size	queue_prio_insert, .-queue_prio_insert
  70              		.section	.text.chCondObjectInit,"ax",%progbits
  71              		.align	1
  72              		.global	chCondObjectInit
  73              		.thumb
  74              		.thumb_func
  75              		.type	chCondObjectInit, %function
  76              	chCondObjectInit:
  77              	.LFB290:
  78              		.file 2 "../../modules/ChibiOS/os/rt/src/chcond.c"
  79              		.loc 2 75 0
  80              		.cfi_startproc
  81              		@ args = 0, pretend = 0, frame = 0
  82              		@ frame_needed = 0, uses_anonymous_args = 0
  83              		@ link register save eliminated.
  84              	.LVL5:
  85              	.LBB39:
  86              	.LBB40:
  87              		.loc 1 539 0
  88 0000 0060     		str	r0, [r0]
  89              		.loc 1 540 0
  90 0002 4060     		str	r0, [r0, #4]
  91 0004 7047     		bx	lr
  92              	.LBE40:
  93              	.LBE39:
  94              		.cfi_endproc
  95              	.LFE290:
  96              		.size	chCondObjectInit, .-chCondObjectInit
  97              		.section	.text.chCondSignal,"ax",%progbits
  98              		.align	1
  99              		.global	chCondSignal
 100              		.thumb
 101              		.thumb_func
 102              		.type	chCondSignal, %function
 103              	chCondSignal:
 104              	.LFB291:
 105              		.loc 2 89 0
 106              		.cfi_startproc
 107              		@ args = 0, pretend = 0, frame = 0
 108              		@ frame_needed = 0, uses_anonymous_args = 0
 109              	.LVL6:
 110 0000 10B5     		push	{r4, lr}
 111              		.cfi_def_cfa_offset 8
 112              		.cfi_offset 4, -8
 113              		.cfi_offset 14, -4
 114              	.LBB55:
ARM GAS  /tmp/cc5gG173.s 			page 3


 115              	.LBB56:
 116              	.LBB57:
 117              	.LBB58:
 118              	.LBB59:
 119              		.file 3 "../../modules/ChibiOS/os/common/ext/ARM/CMSIS/Core/Include/cmsis_gcc.h"
 120              		.loc 3 493 0
 121 0002 2023     		movs	r3, #32
 122              	.LBE59:
 123              	.LBE58:
 124              	.LBE57:
 125              	.LBE56:
 126              	.LBE55:
 127              		.loc 2 89 0
 128 0004 0446     		mov	r4, r0
 129              	.LBB64:
 130              	.LBB63:
 131              	.LBB62:
 132              	.LBB61:
 133              	.LBB60:
 134              		.loc 3 493 0
 135              	@ 493 "../../modules/ChibiOS/os/common/ext/ARM/CMSIS/Core/Include/cmsis_gcc.h" 1
 136 0006 83F31188 		MSR basepri, r3
 137              	@ 0 "" 2
 138              		.thumb
 139              	.LBE60:
 140              	.LBE61:
 141              	.LBE62:
 142              		.file 4 "../../modules/ChibiOS/os/rt/include/chsys.h"
 143              		.loc 4 356 0
 144 000a FFF7FEFF 		bl	_stats_start_measure_crit_thd
 145              	.LVL7:
 146              	.LBE63:
 147              	.LBE64:
 148              	.LBB65:
 149              	.LBB66:
 150              		.loc 1 566 0
 151 000e 2068     		ldr	r0, [r4]
 152              	.LBE66:
 153              	.LBE65:
 154              		.loc 2 94 0
 155 0010 A042     		cmp	r0, r4
 156 0012 05D0     		beq	.L8
 157              	.LVL8:
 158              	.LBB67:
 159              	.LBB68:
 160              		.loc 1 609 0
 161 0014 0368     		ldr	r3, [r0]
 162 0016 2360     		str	r3, [r4]
 163              	.LBE68:
 164              	.LBE67:
 165              		.loc 2 95 0
 166 0018 0021     		movs	r1, #0
 167              	.LBB70:
 168              	.LBB69:
 169              		.loc 1 610 0
 170 001a 5C60     		str	r4, [r3, #4]
 171              	.LBE69:
ARM GAS  /tmp/cc5gG173.s 			page 4


 172              	.LBE70:
 173              		.loc 2 95 0
 174 001c FFF7FEFF 		bl	chSchWakeupS
 175              	.LVL9:
 176              	.L8:
 177              	.LBB71:
 178              	.LBB72:
 179              		.loc 4 368 0
 180 0020 FFF7FEFF 		bl	_stats_stop_measure_crit_thd
 181              	.LVL10:
 182              	.LBB73:
 183              	.LBB74:
 184              	.LBB75:
 185              		.loc 3 493 0
 186 0024 0023     		movs	r3, #0
 187              	@ 493 "../../modules/ChibiOS/os/common/ext/ARM/CMSIS/Core/Include/cmsis_gcc.h" 1
 188 0026 83F31188 		MSR basepri, r3
 189              	@ 0 "" 2
 190              		.thumb
 191 002a 10BD     		pop	{r4, pc}
 192              	.LBE75:
 193              	.LBE74:
 194              	.LBE73:
 195              	.LBE72:
 196              	.LBE71:
 197              		.cfi_endproc
 198              	.LFE291:
 199              		.size	chCondSignal, .-chCondSignal
 200              		.section	.text.chCondSignalI,"ax",%progbits
 201              		.align	1
 202              		.global	chCondSignalI
 203              		.thumb
 204              		.thumb_func
 205              		.type	chCondSignalI, %function
 206              	chCondSignalI:
 207              	.LFB292:
 208              		.loc 2 111 0
 209              		.cfi_startproc
 210              		@ args = 0, pretend = 0, frame = 0
 211              		@ frame_needed = 0, uses_anonymous_args = 0
 212              		@ link register save eliminated.
 213              	.LVL11:
 214              	.LBB76:
 215              	.LBB77:
 216              		.loc 1 566 0
 217 0000 0368     		ldr	r3, [r0]
 218              	.LBE77:
 219              	.LBE76:
 220              		.loc 2 116 0
 221 0002 8342     		cmp	r3, r0
 222 0004 07D0     		beq	.L9
 223              	.LVL12:
 224              	.LBB78:
 225              	.LBB79:
 226              	.LBB80:
 227              		.loc 1 609 0
 228 0006 1A68     		ldr	r2, [r3]
ARM GAS  /tmp/cc5gG173.s 			page 5


 229 0008 0260     		str	r2, [r0]
 230              		.loc 1 610 0
 231 000a 5060     		str	r0, [r2, #4]
 232              	.LBE80:
 233              	.LBE79:
 234              		.loc 2 118 0
 235 000c 0022     		movs	r2, #0
 236 000e 5A62     		str	r2, [r3, #36]
 237              		.loc 2 119 0
 238 0010 1846     		mov	r0, r3
 239              	.LVL13:
 240 0012 FFF7FEBF 		b	chSchReadyI
 241              	.LVL14:
 242              	.L9:
 243 0016 7047     		bx	lr
 244              	.LBE78:
 245              		.cfi_endproc
 246              	.LFE292:
 247              		.size	chCondSignalI, .-chCondSignalI
 248              		.section	.text.chCondBroadcastI,"ax",%progbits
 249              		.align	1
 250              		.global	chCondBroadcastI
 251              		.thumb
 252              		.thumb_func
 253              		.type	chCondBroadcastI, %function
 254              	chCondBroadcastI:
 255              	.LFB294:
 256              		.loc 2 149 0
 257              		.cfi_startproc
 258              		@ args = 0, pretend = 0, frame = 0
 259              		@ frame_needed = 0, uses_anonymous_args = 0
 260              	.LVL15:
 261 0000 10B5     		push	{r4, lr}
 262              		.cfi_def_cfa_offset 8
 263              		.cfi_offset 4, -8
 264              		.cfi_offset 14, -4
 265 0002 0446     		mov	r4, r0
 266              	.LVL16:
 267              	.L12:
 268              	.LBB81:
 269              	.LBB82:
 270              		.loc 1 566 0
 271 0004 2068     		ldr	r0, [r4]
 272              	.LBE82:
 273              	.LBE81:
 274              		.loc 2 157 0
 275 0006 A042     		cmp	r0, r4
 276 0008 08D0     		beq	.L14
 277              	.LVL17:
 278              	.LBB83:
 279              	.LBB84:
 280              		.loc 1 609 0
 281 000a 0368     		ldr	r3, [r0]
 282 000c 2360     		str	r3, [r4]
 283              		.loc 1 610 0
 284 000e 5C60     		str	r4, [r3, #4]
 285              	.LBE84:
ARM GAS  /tmp/cc5gG173.s 			page 6


 286              	.LBE83:
 287              		.loc 2 158 0
 288 0010 FFF7FEFF 		bl	chSchReadyI
 289              	.LVL18:
 290 0014 6FF00103 		mvn	r3, #1
 291 0018 4362     		str	r3, [r0, #36]
 292 001a F3E7     		b	.L12
 293              	.LVL19:
 294              	.L14:
 295              		.loc 2 160 0
 296 001c 10BD     		pop	{r4, pc}
 297              		.cfi_endproc
 298              	.LFE294:
 299              		.size	chCondBroadcastI, .-chCondBroadcastI
 300              		.section	.text.chCondBroadcast,"ax",%progbits
 301              		.align	1
 302              		.global	chCondBroadcast
 303              		.thumb
 304              		.thumb_func
 305              		.type	chCondBroadcast, %function
 306              	chCondBroadcast:
 307              	.LFB293:
 308              		.loc 2 130 0
 309              		.cfi_startproc
 310              		@ args = 0, pretend = 0, frame = 0
 311              		@ frame_needed = 0, uses_anonymous_args = 0
 312              	.LVL20:
 313 0000 10B5     		push	{r4, lr}
 314              		.cfi_def_cfa_offset 8
 315              		.cfi_offset 4, -8
 316              		.cfi_offset 14, -4
 317              	.LBB95:
 318              	.LBB96:
 319              	.LBB97:
 320              	.LBB98:
 321              	.LBB99:
 322              		.loc 3 493 0
 323 0002 2023     		movs	r3, #32
 324              	.LBE99:
 325              	.LBE98:
 326              	.LBE97:
 327              	.LBE96:
 328              	.LBE95:
 329              		.loc 2 130 0
 330 0004 0446     		mov	r4, r0
 331              	.LBB104:
 332              	.LBB103:
 333              	.LBB102:
 334              	.LBB101:
 335              	.LBB100:
 336              		.loc 3 493 0
 337              	@ 493 "../../modules/ChibiOS/os/common/ext/ARM/CMSIS/Core/Include/cmsis_gcc.h" 1
 338 0006 83F31188 		MSR basepri, r3
 339              	@ 0 "" 2
 340              		.thumb
 341              	.LBE100:
 342              	.LBE101:
ARM GAS  /tmp/cc5gG173.s 			page 7


 343              	.LBE102:
 344              		.loc 4 356 0
 345 000a FFF7FEFF 		bl	_stats_start_measure_crit_thd
 346              	.LVL21:
 347              	.LBE103:
 348              	.LBE104:
 349              		.loc 2 133 0
 350 000e 2046     		mov	r0, r4
 351 0010 FFF7FEFF 		bl	chCondBroadcastI
 352              	.LVL22:
 353              		.loc 2 134 0
 354 0014 FFF7FEFF 		bl	chSchRescheduleS
 355              	.LVL23:
 356              	.LBB105:
 357              	.LBB106:
 358              		.loc 4 368 0
 359 0018 FFF7FEFF 		bl	_stats_stop_measure_crit_thd
 360              	.LVL24:
 361              	.LBB107:
 362              	.LBB108:
 363              	.LBB109:
 364              		.loc 3 493 0
 365 001c 0023     		movs	r3, #0
 366              	@ 493 "../../modules/ChibiOS/os/common/ext/ARM/CMSIS/Core/Include/cmsis_gcc.h" 1
 367 001e 83F31188 		MSR basepri, r3
 368              	@ 0 "" 2
 369              		.thumb
 370 0022 10BD     		pop	{r4, pc}
 371              	.LBE109:
 372              	.LBE108:
 373              	.LBE107:
 374              	.LBE106:
 375              	.LBE105:
 376              		.cfi_endproc
 377              	.LFE293:
 378              		.size	chCondBroadcast, .-chCondBroadcast
 379              		.section	.text.chCondWaitS,"ax",%progbits
 380              		.align	1
 381              		.global	chCondWaitS
 382              		.thumb
 383              		.thumb_func
 384              		.type	chCondWaitS, %function
 385              	chCondWaitS:
 386              	.LFB296:
 387              		.loc 2 205 0
 388              		.cfi_startproc
 389              		@ args = 0, pretend = 0, frame = 0
 390              		@ frame_needed = 0, uses_anonymous_args = 0
 391              	.LVL25:
 392              		.loc 2 206 0
 393 0000 0A4B     		ldr	r3, .L17
 394              		.loc 2 205 0
 395 0002 70B5     		push	{r4, r5, r6, lr}
 396              		.cfi_def_cfa_offset 16
 397              		.cfi_offset 4, -16
 398              		.cfi_offset 5, -12
 399              		.cfi_offset 6, -8
ARM GAS  /tmp/cc5gG173.s 			page 8


 400              		.cfi_offset 14, -4
 401              		.loc 2 206 0
 402 0004 9C69     		ldr	r4, [r3, #24]
 403              	.LVL26:
 404              	.LBB110:
 405              	.LBB111:
 406              		.file 5 "../../modules/ChibiOS/os/rt/include/chmtx.h"
 407              		.loc 5 161 0
 408 0006 A56B     		ldr	r5, [r4, #56]
 409              	.LBE111:
 410              	.LBE110:
 411              		.loc 2 205 0
 412 0008 0646     		mov	r6, r0
 413              		.loc 2 215 0
 414 000a 2846     		mov	r0, r5
 415              	.LVL27:
 416 000c FFF7FEFF 		bl	chMtxUnlockS
 417              	.LVL28:
 418              		.loc 2 220 0
 419 0010 3146     		mov	r1, r6
 420              		.loc 2 219 0
 421 0012 6662     		str	r6, [r4, #36]
 422              		.loc 2 220 0
 423 0014 2046     		mov	r0, r4
 424 0016 FFF7FEFF 		bl	queue_prio_insert
 425              	.LVL29:
 426              		.loc 2 221 0
 427 001a 0720     		movs	r0, #7
 428 001c FFF7FEFF 		bl	chSchGoSleepS
 429              	.LVL30:
 430              		.loc 2 222 0
 431 0020 646A     		ldr	r4, [r4, #36]
 432              	.LVL31:
 433              		.loc 2 223 0
 434 0022 2846     		mov	r0, r5
 435 0024 FFF7FEFF 		bl	chMtxLockS
 436              	.LVL32:
 437              		.loc 2 226 0
 438 0028 2046     		mov	r0, r4
 439 002a 70BD     		pop	{r4, r5, r6, pc}
 440              	.LVL33:
 441              	.L18:
 442              		.align	2
 443              	.L17:
 444 002c 00000000 		.word	ch
 445              		.cfi_endproc
 446              	.LFE296:
 447              		.size	chCondWaitS, .-chCondWaitS
 448              		.section	.text.chCondWait,"ax",%progbits
 449              		.align	1
 450              		.global	chCondWait
 451              		.thumb
 452              		.thumb_func
 453              		.type	chCondWait, %function
 454              	chCondWait:
 455              	.LFB295:
 456              		.loc 2 179 0
ARM GAS  /tmp/cc5gG173.s 			page 9


 457              		.cfi_startproc
 458              		@ args = 0, pretend = 0, frame = 0
 459              		@ frame_needed = 0, uses_anonymous_args = 0
 460              	.LVL34:
 461 0000 10B5     		push	{r4, lr}
 462              		.cfi_def_cfa_offset 8
 463              		.cfi_offset 4, -8
 464              		.cfi_offset 14, -4
 465              	.LBB122:
 466              	.LBB123:
 467              	.LBB124:
 468              	.LBB125:
 469              	.LBB126:
 470              		.loc 3 493 0
 471 0002 2023     		movs	r3, #32
 472              	.LBE126:
 473              	.LBE125:
 474              	.LBE124:
 475              	.LBE123:
 476              	.LBE122:
 477              		.loc 2 179 0
 478 0004 0446     		mov	r4, r0
 479              	.LBB131:
 480              	.LBB130:
 481              	.LBB129:
 482              	.LBB128:
 483              	.LBB127:
 484              		.loc 3 493 0
 485              	@ 493 "../../modules/ChibiOS/os/common/ext/ARM/CMSIS/Core/Include/cmsis_gcc.h" 1
 486 0006 83F31188 		MSR basepri, r3
 487              	@ 0 "" 2
 488              		.thumb
 489              	.LBE127:
 490              	.LBE128:
 491              	.LBE129:
 492              		.loc 4 356 0
 493 000a FFF7FEFF 		bl	_stats_start_measure_crit_thd
 494              	.LVL35:
 495              	.LBE130:
 496              	.LBE131:
 497              		.loc 2 183 0
 498 000e 2046     		mov	r0, r4
 499 0010 FFF7FEFF 		bl	chCondWaitS
 500              	.LVL36:
 501 0014 0446     		mov	r4, r0
 502              	.LVL37:
 503              	.LBB132:
 504              	.LBB133:
 505              		.loc 4 368 0
 506 0016 FFF7FEFF 		bl	_stats_stop_measure_crit_thd
 507              	.LVL38:
 508              	.LBB134:
 509              	.LBB135:
 510              	.LBB136:
 511              		.loc 3 493 0
 512 001a 0023     		movs	r3, #0
 513              	@ 493 "../../modules/ChibiOS/os/common/ext/ARM/CMSIS/Core/Include/cmsis_gcc.h" 1
ARM GAS  /tmp/cc5gG173.s 			page 10


 514 001c 83F31188 		MSR basepri, r3
 515              	@ 0 "" 2
 516              		.thumb
 517              	.LBE136:
 518              	.LBE135:
 519              	.LBE134:
 520              	.LBE133:
 521              	.LBE132:
 522              		.loc 2 186 0
 523 0020 2046     		mov	r0, r4
 524 0022 10BD     		pop	{r4, pc}
 525              		.cfi_endproc
 526              	.LFE295:
 527              		.size	chCondWait, .-chCondWait
 528              		.section	.text.chCondWaitTimeoutS,"ax",%progbits
 529              		.align	1
 530              		.global	chCondWaitTimeoutS
 531              		.thumb
 532              		.thumb_func
 533              		.type	chCondWaitTimeoutS, %function
 534              	chCondWaitTimeoutS:
 535              	.LFB298:
 536              		.loc 2 295 0
 537              		.cfi_startproc
 538              		@ args = 0, pretend = 0, frame = 0
 539              		@ frame_needed = 0, uses_anonymous_args = 0
 540              	.LVL39:
 541 0000 F8B5     		push	{r3, r4, r5, r6, r7, lr}
 542              		.cfi_def_cfa_offset 24
 543              		.cfi_offset 3, -24
 544              		.cfi_offset 4, -20
 545              		.cfi_offset 5, -16
 546              		.cfi_offset 6, -12
 547              		.cfi_offset 7, -8
 548              		.cfi_offset 14, -4
 549              	.LBB137:
 550              	.LBB138:
 551              	.LBB139:
 552              	.LBB140:
 553              		.file 6 "../../modules/ChibiOS/os/rt/include/chthreads.h"
 554              		.loc 6 274 0
 555 0002 0C4E     		ldr	r6, .L25
 556              	.LBE140:
 557              	.LBE139:
 558              		.loc 5 161 0
 559 0004 B369     		ldr	r3, [r6, #24]
 560 0006 9D6B     		ldr	r5, [r3, #56]
 561              	.LBE138:
 562              	.LBE137:
 563              		.loc 2 295 0
 564 0008 0446     		mov	r4, r0
 565              		.loc 2 304 0
 566 000a 2846     		mov	r0, r5
 567              	.LVL40:
 568              		.loc 2 295 0
 569 000c 0F46     		mov	r7, r1
 570              		.loc 2 304 0
ARM GAS  /tmp/cc5gG173.s 			page 11


 571 000e FFF7FEFF 		bl	chMtxUnlockS
 572              	.LVL41:
 573              		.loc 2 308 0
 574 0012 B069     		ldr	r0, [r6, #24]
 575              		.loc 2 309 0
 576 0014 2146     		mov	r1, r4
 577              		.loc 2 308 0
 578 0016 4462     		str	r4, [r0, #36]
 579              		.loc 2 309 0
 580 0018 FFF7FEFF 		bl	queue_prio_insert
 581              	.LVL42:
 582              		.loc 2 310 0
 583 001c 0720     		movs	r0, #7
 584 001e 3946     		mov	r1, r7
 585 0020 FFF7FEFF 		bl	chSchGoSleepTimeoutS
 586              	.LVL43:
 587              		.loc 2 311 0
 588 0024 431C     		adds	r3, r0, #1
 589              		.loc 2 310 0
 590 0026 0446     		mov	r4, r0
 591              	.LVL44:
 592              		.loc 2 311 0
 593 0028 02D0     		beq	.L21
 594              		.loc 2 312 0
 595 002a 2846     		mov	r0, r5
 596              	.LVL45:
 597 002c FFF7FEFF 		bl	chMtxLockS
 598              	.LVL46:
 599              	.L21:
 600              		.loc 2 316 0
 601 0030 2046     		mov	r0, r4
 602 0032 F8BD     		pop	{r3, r4, r5, r6, r7, pc}
 603              	.LVL47:
 604              	.L26:
 605              		.align	2
 606              	.L25:
 607 0034 00000000 		.word	ch
 608              		.cfi_endproc
 609              	.LFE298:
 610              		.size	chCondWaitTimeoutS, .-chCondWaitTimeoutS
 611              		.section	.text.chCondWaitTimeout,"ax",%progbits
 612              		.align	1
 613              		.global	chCondWaitTimeout
 614              		.thumb
 615              		.thumb_func
 616              		.type	chCondWaitTimeout, %function
 617              	chCondWaitTimeout:
 618              	.LFB297:
 619              		.loc 2 257 0
 620              		.cfi_startproc
 621              		@ args = 0, pretend = 0, frame = 0
 622              		@ frame_needed = 0, uses_anonymous_args = 0
 623              	.LVL48:
 624 0000 38B5     		push	{r3, r4, r5, lr}
 625              		.cfi_def_cfa_offset 16
 626              		.cfi_offset 3, -16
 627              		.cfi_offset 4, -12
ARM GAS  /tmp/cc5gG173.s 			page 12


 628              		.cfi_offset 5, -8
 629              		.cfi_offset 14, -4
 630              		.loc 2 257 0
 631 0002 0546     		mov	r5, r0
 632 0004 0C46     		mov	r4, r1
 633              	.LBB151:
 634              	.LBB152:
 635              	.LBB153:
 636              	.LBB154:
 637              	.LBB155:
 638              		.loc 3 493 0
 639 0006 2023     		movs	r3, #32
 640              	@ 493 "../../modules/ChibiOS/os/common/ext/ARM/CMSIS/Core/Include/cmsis_gcc.h" 1
 641 0008 83F31188 		MSR basepri, r3
 642              	@ 0 "" 2
 643              		.thumb
 644              	.LBE155:
 645              	.LBE154:
 646              	.LBE153:
 647              		.loc 4 356 0
 648 000c FFF7FEFF 		bl	_stats_start_measure_crit_thd
 649              	.LVL49:
 650              	.LBE152:
 651              	.LBE151:
 652              		.loc 2 261 0
 653 0010 2146     		mov	r1, r4
 654 0012 2846     		mov	r0, r5
 655 0014 FFF7FEFF 		bl	chCondWaitTimeoutS
 656              	.LVL50:
 657 0018 0446     		mov	r4, r0
 658              	.LVL51:
 659              	.LBB156:
 660              	.LBB157:
 661              		.loc 4 368 0
 662 001a FFF7FEFF 		bl	_stats_stop_measure_crit_thd
 663              	.LVL52:
 664              	.LBB158:
 665              	.LBB159:
 666              	.LBB160:
 667              		.loc 3 493 0
 668 001e 0023     		movs	r3, #0
 669              	@ 493 "../../modules/ChibiOS/os/common/ext/ARM/CMSIS/Core/Include/cmsis_gcc.h" 1
 670 0020 83F31188 		MSR basepri, r3
 671              	@ 0 "" 2
 672              		.thumb
 673              	.LBE160:
 674              	.LBE159:
 675              	.LBE158:
 676              	.LBE157:
 677              	.LBE156:
 678              		.loc 2 265 0
 679 0024 2046     		mov	r0, r4
 680 0026 38BD     		pop	{r3, r4, r5, pc}
 681              		.cfi_endproc
 682              	.LFE297:
 683              		.size	chCondWaitTimeout, .-chCondWaitTimeout
 684              		.text
ARM GAS  /tmp/cc5gG173.s 			page 13


 685              	.Letext0:
 686              		.file 7 "/usr/include/newlib/machine/_default_types.h"
 687              		.file 8 "/usr/include/newlib/sys/_stdint.h"
 688              		.file 9 "../../modules/ChibiOS/os/common/ports/ARMCMx/compilers/GCC/chtypes.h"
 689              		.file 10 "../../modules/ChibiOS/os/rt/include/chsystypes.h"
 690              		.file 11 "../../modules/ChibiOS/os/rt/include/chtime.h"
 691              		.file 12 "../../modules/ChibiOS/os/common/ports/ARMCMx/chcore.h"
 692              		.file 13 "../../modules/ChibiOS/os/common/ports/ARMCMx/chcore_v7m.h"
 693              		.file 14 "../../modules/ChibiOS/os/rt/include/chtm.h"
 694              		.file 15 "../../modules/ChibiOS/os/rt/include/chstats.h"
 695              		.file 16 "../../modules/ChibiOS/os/rt/include/chsem.h"
 696              		.file 17 "../../modules/ChibiOS/os/rt/include/chcond.h"
 697              		.file 18 "../../modules/ChibiOS/os/common/ext/ARM/CMSIS/Core/Include/core_cm4.h"
 698              		.section	.debug_info,"",%progbits
 699              	.Ldebug_info0:
 700 0000 D1100000 		.4byte	0x10d1
 701 0004 0400     		.2byte	0x4
 702 0006 00000000 		.4byte	.Ldebug_abbrev0
 703 000a 04       		.byte	0x4
 704 000b 01       		.uleb128 0x1
 705 000c 19020000 		.4byte	.LASF138
 706 0010 01       		.byte	0x1
 707 0011 88060000 		.4byte	.LASF139
 708 0015 23060000 		.4byte	.LASF140
 709 0019 A8000000 		.4byte	.Ldebug_ranges0+0xa8
 710 001d 00000000 		.4byte	0
 711 0021 00000000 		.4byte	.Ldebug_line0
 712 0025 02       		.uleb128 0x2
 713 0026 04       		.byte	0x4
 714 0027 05       		.byte	0x5
 715 0028 696E7400 		.ascii	"int\000"
 716 002c 03       		.uleb128 0x3
 717 002d 04       		.byte	0x4
 718 002e 07       		.byte	0x7
 719 002f 0C020000 		.4byte	.LASF0
 720 0033 03       		.uleb128 0x3
 721 0034 01       		.byte	0x1
 722 0035 06       		.byte	0x6
 723 0036 22010000 		.4byte	.LASF1
 724 003a 04       		.uleb128 0x4
 725 003b 36000000 		.4byte	.LASF5
 726 003f 07       		.byte	0x7
 727 0040 1D       		.byte	0x1d
 728 0041 45000000 		.4byte	0x45
 729 0045 03       		.uleb128 0x3
 730 0046 01       		.byte	0x1
 731 0047 08       		.byte	0x8
 732 0048 E3040000 		.4byte	.LASF2
 733 004c 03       		.uleb128 0x3
 734 004d 02       		.byte	0x2
 735 004e 05       		.byte	0x5
 736 004f F1040000 		.4byte	.LASF3
 737 0053 03       		.uleb128 0x3
 738 0054 02       		.byte	0x2
 739 0055 07       		.byte	0x7
 740 0056 29030000 		.4byte	.LASF4
 741 005a 04       		.uleb128 0x4
ARM GAS  /tmp/cc5gG173.s 			page 14


 742 005b AE030000 		.4byte	.LASF6
 743 005f 07       		.byte	0x7
 744 0060 3F       		.byte	0x3f
 745 0061 65000000 		.4byte	0x65
 746 0065 03       		.uleb128 0x3
 747 0066 04       		.byte	0x4
 748 0067 05       		.byte	0x5
 749 0068 6D010000 		.4byte	.LASF7
 750 006c 04       		.uleb128 0x4
 751 006d AA010000 		.4byte	.LASF8
 752 0071 07       		.byte	0x7
 753 0072 41       		.byte	0x41
 754 0073 77000000 		.4byte	0x77
 755 0077 03       		.uleb128 0x3
 756 0078 04       		.byte	0x4
 757 0079 07       		.byte	0x7
 758 007a 99050000 		.4byte	.LASF9
 759 007e 03       		.uleb128 0x3
 760 007f 08       		.byte	0x8
 761 0080 05       		.byte	0x5
 762 0081 14010000 		.4byte	.LASF10
 763 0085 04       		.uleb128 0x4
 764 0086 8C040000 		.4byte	.LASF11
 765 008a 07       		.byte	0x7
 766 008b 5B       		.byte	0x5b
 767 008c 90000000 		.4byte	0x90
 768 0090 03       		.uleb128 0x3
 769 0091 08       		.byte	0x8
 770 0092 07       		.byte	0x7
 771 0093 B0000000 		.4byte	.LASF12
 772 0097 04       		.uleb128 0x4
 773 0098 CE060000 		.4byte	.LASF13
 774 009c 08       		.byte	0x8
 775 009d 14       		.byte	0x14
 776 009e 3A000000 		.4byte	0x3a
 777 00a2 04       		.uleb128 0x4
 778 00a3 DB040000 		.4byte	.LASF14
 779 00a7 08       		.byte	0x8
 780 00a8 1F       		.byte	0x1f
 781 00a9 5A000000 		.4byte	0x5a
 782 00ad 04       		.uleb128 0x4
 783 00ae 54050000 		.4byte	.LASF15
 784 00b2 08       		.byte	0x8
 785 00b3 20       		.byte	0x20
 786 00b4 6C000000 		.4byte	0x6c
 787 00b8 04       		.uleb128 0x4
 788 00b9 20000000 		.4byte	.LASF16
 789 00bd 08       		.byte	0x8
 790 00be 26       		.byte	0x26
 791 00bf 85000000 		.4byte	0x85
 792 00c3 04       		.uleb128 0x4
 793 00c4 4F060000 		.4byte	.LASF17
 794 00c8 09       		.byte	0x9
 795 00c9 27       		.byte	0x27
 796 00ca AD000000 		.4byte	0xad
 797 00ce 04       		.uleb128 0x4
 798 00cf 0B010000 		.4byte	.LASF18
ARM GAS  /tmp/cc5gG173.s 			page 15


 799 00d3 09       		.byte	0x9
 800 00d4 28       		.byte	0x28
 801 00d5 B8000000 		.4byte	0xb8
 802 00d9 04       		.uleb128 0x4
 803 00da 81030000 		.4byte	.LASF19
 804 00de 09       		.byte	0x9
 805 00df 2A       		.byte	0x2a
 806 00e0 97000000 		.4byte	0x97
 807 00e4 04       		.uleb128 0x4
 808 00e5 76010000 		.4byte	.LASF20
 809 00e9 09       		.byte	0x9
 810 00ea 2B       		.byte	0x2b
 811 00eb 97000000 		.4byte	0x97
 812 00ef 04       		.uleb128 0x4
 813 00f0 A2040000 		.4byte	.LASF21
 814 00f4 09       		.byte	0x9
 815 00f5 2C       		.byte	0x2c
 816 00f6 97000000 		.4byte	0x97
 817 00fa 04       		.uleb128 0x4
 818 00fb BF040000 		.4byte	.LASF22
 819 00ff 09       		.byte	0x9
 820 0100 2E       		.byte	0x2e
 821 0101 AD000000 		.4byte	0xad
 822 0105 04       		.uleb128 0x4
 823 0106 5A030000 		.4byte	.LASF23
 824 010a 09       		.byte	0x9
 825 010b 2F       		.byte	0x2f
 826 010c A2000000 		.4byte	0xa2
 827 0110 04       		.uleb128 0x4
 828 0111 A2030000 		.4byte	.LASF24
 829 0115 09       		.byte	0x9
 830 0116 31       		.byte	0x31
 831 0117 AD000000 		.4byte	0xad
 832 011b 04       		.uleb128 0x4
 833 011c F9010000 		.4byte	.LASF25
 834 0120 09       		.byte	0x9
 835 0121 33       		.byte	0x33
 836 0122 A2000000 		.4byte	0xa2
 837 0126 04       		.uleb128 0x4
 838 0127 65030000 		.4byte	.LASF26
 839 012b 09       		.byte	0x9
 840 012c 34       		.byte	0x34
 841 012d AD000000 		.4byte	0xad
 842 0131 04       		.uleb128 0x4
 843 0132 B1060000 		.4byte	.LASF27
 844 0136 0A       		.byte	0xa
 845 0137 34       		.byte	0x34
 846 0138 3C010000 		.4byte	0x13c
 847 013c 05       		.uleb128 0x5
 848 013d 4B030000 		.4byte	.LASF46
 849 0141 60       		.byte	0x60
 850 0142 01       		.byte	0x1
 851 0143 8E       		.byte	0x8e
 852 0144 27020000 		.4byte	0x227
 853 0148 06       		.uleb128 0x6
 854 0149 1D030000 		.4byte	.LASF28
 855 014d 01       		.byte	0x1
ARM GAS  /tmp/cc5gG173.s 			page 16


 856 014e 8F       		.byte	0x8f
 857 014f 5C020000 		.4byte	0x25c
 858 0153 00       		.byte	0
 859 0154 06       		.uleb128 0x6
 860 0155 6F040000 		.4byte	.LASF29
 861 0159 01       		.byte	0x1
 862 015a 90       		.byte	0x90
 863 015b FA000000 		.4byte	0xfa
 864 015f 08       		.byte	0x8
 865 0160 07       		.uleb128 0x7
 866 0161 63747800 		.ascii	"ctx\000"
 867 0165 01       		.byte	0x1
 868 0166 91       		.byte	0x91
 869 0167 77040000 		.4byte	0x477
 870 016b 0C       		.byte	0xc
 871 016c 06       		.uleb128 0x6
 872 016d C3030000 		.4byte	.LASF30
 873 0171 01       		.byte	0x1
 874 0172 93       		.byte	0x93
 875 0173 32020000 		.4byte	0x232
 876 0177 10       		.byte	0x10
 877 0178 06       		.uleb128 0x6
 878 0179 B7050000 		.4byte	.LASF31
 879 017d 01       		.byte	0x1
 880 017e 94       		.byte	0x94
 881 017f 32020000 		.4byte	0x232
 882 0183 14       		.byte	0x14
 883 0184 06       		.uleb128 0x6
 884 0185 55030000 		.4byte	.LASF32
 885 0189 01       		.byte	0x1
 886 018a 9B       		.byte	0x9b
 887 018b 5D070000 		.4byte	0x75d
 888 018f 18       		.byte	0x18
 889 0190 06       		.uleb128 0x6
 890 0191 AB050000 		.4byte	.LASF33
 891 0195 01       		.byte	0x1
 892 0196 A4       		.byte	0xa4
 893 0197 6F070000 		.4byte	0x76f
 894 019b 1C       		.byte	0x1c
 895 019c 06       		.uleb128 0x6
 896 019d 67010000 		.4byte	.LASF34
 897 01a1 01       		.byte	0x1
 898 01a2 A9       		.byte	0xa9
 899 01a3 E4000000 		.4byte	0xe4
 900 01a7 20       		.byte	0x20
 901 01a8 06       		.uleb128 0x6
 902 01a9 D6060000 		.4byte	.LASF35
 903 01ad 01       		.byte	0x1
 904 01ae AD       		.byte	0xad
 905 01af D9000000 		.4byte	0xd9
 906 01b3 21       		.byte	0x21
 907 01b4 06       		.uleb128 0x6
 908 01b5 AA040000 		.4byte	.LASF36
 909 01b9 01       		.byte	0x1
 910 01ba B2       		.byte	0xb2
 911 01bb EF000000 		.4byte	0xef
 912 01bf 22       		.byte	0x22
ARM GAS  /tmp/cc5gG173.s 			page 17


 913 01c0 08       		.uleb128 0x8
 914 01c1 7500     		.ascii	"u\000"
 915 01c3 01       		.byte	0x1
 916 01c4 0301     		.2byte	0x103
 917 01c6 93060000 		.4byte	0x693
 918 01ca 24       		.byte	0x24
 919 01cb 09       		.uleb128 0x9
 920 01cc CE010000 		.4byte	.LASF37
 921 01d0 01       		.byte	0x1
 922 01d1 0801     		.2byte	0x108
 923 01d3 38020000 		.4byte	0x238
 924 01d7 28       		.byte	0x28
 925 01d8 09       		.uleb128 0x9
 926 01d9 5E010000 		.4byte	.LASF38
 927 01dd 01       		.byte	0x1
 928 01de 0E01     		.2byte	0x10e
 929 01e0 5C020000 		.4byte	0x25c
 930 01e4 2C       		.byte	0x2c
 931 01e5 09       		.uleb128 0x9
 932 01e6 6C030000 		.4byte	.LASF39
 933 01ea 01       		.byte	0x1
 934 01eb 1401     		.2byte	0x114
 935 01ed 10010000 		.4byte	0x110
 936 01f1 34       		.byte	0x34
 937 01f2 09       		.uleb128 0x9
 938 01f3 60070000 		.4byte	.LASF40
 939 01f7 01       		.byte	0x1
 940 01f8 1B01     		.2byte	0x11b
 941 01fa 57070000 		.4byte	0x757
 942 01fe 38       		.byte	0x38
 943 01ff 09       		.uleb128 0x9
 944 0200 C9030000 		.4byte	.LASF41
 945 0204 01       		.byte	0x1
 946 0205 1F01     		.2byte	0x11f
 947 0207 FA000000 		.4byte	0xfa
 948 020b 3C       		.byte	0x3c
 949 020c 09       		.uleb128 0x9
 950 020d 23030000 		.4byte	.LASF42
 951 0211 01       		.byte	0x1
 952 0212 2601     		.2byte	0x126
 953 0214 0F030000 		.4byte	0x30f
 954 0218 40       		.byte	0x40
 955 0219 09       		.uleb128 0x9
 956 021a 93010000 		.4byte	.LASF43
 957 021e 01       		.byte	0x1
 958 021f 2C01     		.2byte	0x12c
 959 0221 44060000 		.4byte	0x644
 960 0225 48       		.byte	0x48
 961 0226 00       		.byte	0
 962 0227 04       		.uleb128 0x4
 963 0228 F8030000 		.4byte	.LASF44
 964 022c 0A       		.byte	0xa
 965 022d 39       		.byte	0x39
 966 022e 32020000 		.4byte	0x232
 967 0232 0A       		.uleb128 0xa
 968 0233 04       		.byte	0x4
 969 0234 31010000 		.4byte	0x131
ARM GAS  /tmp/cc5gG173.s 			page 18


 970 0238 04       		.uleb128 0x4
 971 0239 13070000 		.4byte	.LASF45
 972 023d 0A       		.byte	0xa
 973 023e 3E       		.byte	0x3e
 974 023f 43020000 		.4byte	0x243
 975 0243 05       		.uleb128 0x5
 976 0244 70050000 		.4byte	.LASF47
 977 0248 04       		.byte	0x4
 978 0249 01       		.byte	0x1
 979 024a 7C       		.byte	0x7c
 980 024b 5C020000 		.4byte	0x25c
 981 024f 06       		.uleb128 0x6
 982 0250 06010000 		.4byte	.LASF48
 983 0254 01       		.byte	0x1
 984 0255 7D       		.byte	0x7d
 985 0256 32020000 		.4byte	0x232
 986 025a 00       		.byte	0
 987 025b 00       		.byte	0
 988 025c 04       		.uleb128 0x4
 989 025d 6F060000 		.4byte	.LASF49
 990 0261 0A       		.byte	0xa
 991 0262 45       		.byte	0x45
 992 0263 67020000 		.4byte	0x267
 993 0267 05       		.uleb128 0x5
 994 0268 51000000 		.4byte	.LASF50
 995 026c 08       		.byte	0x8
 996 026d 01       		.byte	0x1
 997 026e 83       		.byte	0x83
 998 026f 8C020000 		.4byte	0x28c
 999 0273 06       		.uleb128 0x6
 1000 0274 06010000 		.4byte	.LASF48
 1001 0278 01       		.byte	0x1
 1002 0279 84       		.byte	0x84
 1003 027a 32020000 		.4byte	0x232
 1004 027e 00       		.byte	0
 1005 027f 06       		.uleb128 0x6
 1006 0280 40000000 		.4byte	.LASF51
 1007 0284 01       		.byte	0x1
 1008 0285 85       		.byte	0x85
 1009 0286 32020000 		.4byte	0x232
 1010 028a 04       		.byte	0x4
 1011 028b 00       		.byte	0
 1012 028c 04       		.uleb128 0x4
 1013 028d 00000000 		.4byte	.LASF52
 1014 0291 0A       		.byte	0xa
 1015 0292 4C       		.byte	0x4c
 1016 0293 97020000 		.4byte	0x297
 1017 0297 0B       		.uleb128 0xb
 1018 0298 94030000 		.4byte	.LASF53
 1019 029c 1C       		.byte	0x1c
 1020 029d 01       		.byte	0x1
 1021 029e 5E01     		.2byte	0x15e
 1022 02a0 F3020000 		.4byte	0x2f3
 1023 02a4 09       		.uleb128 0x9
 1024 02a5 1D030000 		.4byte	.LASF28
 1025 02a9 01       		.byte	0x1
 1026 02aa 5F01     		.2byte	0x15f
ARM GAS  /tmp/cc5gG173.s 			page 19


 1027 02ac 5C020000 		.4byte	0x25c
 1028 02b0 00       		.byte	0
 1029 02b1 09       		.uleb128 0x9
 1030 02b2 6F040000 		.4byte	.LASF29
 1031 02b6 01       		.byte	0x1
 1032 02b7 6001     		.2byte	0x160
 1033 02b9 FA000000 		.4byte	0xfa
 1034 02bd 08       		.byte	0x8
 1035 02be 08       		.uleb128 0x8
 1036 02bf 63747800 		.ascii	"ctx\000"
 1037 02c3 01       		.byte	0x1
 1038 02c4 6201     		.2byte	0x162
 1039 02c6 77040000 		.4byte	0x477
 1040 02ca 0C       		.byte	0xc
 1041 02cb 09       		.uleb128 0x9
 1042 02cc C3030000 		.4byte	.LASF30
 1043 02d0 01       		.byte	0x1
 1044 02d1 6501     		.2byte	0x165
 1045 02d3 32020000 		.4byte	0x232
 1046 02d7 10       		.byte	0x10
 1047 02d8 09       		.uleb128 0x9
 1048 02d9 B7050000 		.4byte	.LASF31
 1049 02dd 01       		.byte	0x1
 1050 02de 6601     		.2byte	0x166
 1051 02e0 32020000 		.4byte	0x232
 1052 02e4 14       		.byte	0x14
 1053 02e5 09       		.uleb128 0x9
 1054 02e6 84040000 		.4byte	.LASF54
 1055 02ea 01       		.byte	0x1
 1056 02eb 6901     		.2byte	0x169
 1057 02ed 32020000 		.4byte	0x232
 1058 02f1 18       		.byte	0x18
 1059 02f2 00       		.byte	0
 1060 02f3 04       		.uleb128 0x4
 1061 02f4 FB050000 		.4byte	.LASF55
 1062 02f8 0A       		.byte	0xa
 1063 02f9 51       		.byte	0x51
 1064 02fa FE020000 		.4byte	0x2fe
 1065 02fe 0A       		.uleb128 0xa
 1066 02ff 04       		.byte	0x4
 1067 0300 04030000 		.4byte	0x304
 1068 0304 0C       		.uleb128 0xc
 1069 0305 0F030000 		.4byte	0x30f
 1070 0309 0D       		.uleb128 0xd
 1071 030a 0F030000 		.4byte	0x30f
 1072 030e 00       		.byte	0
 1073 030f 0E       		.uleb128 0xe
 1074 0310 04       		.byte	0x4
 1075 0311 04       		.uleb128 0x4
 1076 0312 AF040000 		.4byte	.LASF56
 1077 0316 0A       		.byte	0xa
 1078 0317 56       		.byte	0x56
 1079 0318 1C030000 		.4byte	0x31c
 1080 031c 0B       		.uleb128 0xb
 1081 031d 28050000 		.4byte	.LASF57
 1082 0321 14       		.byte	0x14
 1083 0322 01       		.byte	0x1
ARM GAS  /tmp/cc5gG173.s 			page 20


 1084 0323 3901     		.2byte	0x139
 1085 0325 6B030000 		.4byte	0x36b
 1086 0329 09       		.uleb128 0x9
 1087 032a 06010000 		.4byte	.LASF48
 1088 032e 01       		.byte	0x1
 1089 032f 3A01     		.2byte	0x13a
 1090 0331 75070000 		.4byte	0x775
 1091 0335 00       		.byte	0
 1092 0336 09       		.uleb128 0x9
 1093 0337 40000000 		.4byte	.LASF51
 1094 033b 01       		.byte	0x1
 1095 033c 3B01     		.2byte	0x13b
 1096 033e 75070000 		.4byte	0x775
 1097 0342 04       		.byte	0x4
 1098 0343 09       		.uleb128 0x9
 1099 0344 13000000 		.4byte	.LASF58
 1100 0348 01       		.byte	0x1
 1101 0349 3C01     		.2byte	0x13c
 1102 034b 4F040000 		.4byte	0x44f
 1103 034f 08       		.byte	0x8
 1104 0350 09       		.uleb128 0x9
 1105 0351 8E010000 		.4byte	.LASF59
 1106 0355 01       		.byte	0x1
 1107 0356 3D01     		.2byte	0x13d
 1108 0358 F3020000 		.4byte	0x2f3
 1109 035c 0C       		.byte	0xc
 1110 035d 08       		.uleb128 0x8
 1111 035e 70617200 		.ascii	"par\000"
 1112 0362 01       		.byte	0x1
 1113 0363 3F01     		.2byte	0x13f
 1114 0365 0F030000 		.4byte	0x30f
 1115 0369 10       		.byte	0x10
 1116 036a 00       		.byte	0
 1117 036b 04       		.uleb128 0x4
 1118 036c E3000000 		.4byte	.LASF60
 1119 0370 0A       		.byte	0xa
 1120 0371 5B       		.byte	0x5b
 1121 0372 76030000 		.4byte	0x376
 1122 0376 0B       		.uleb128 0xb
 1123 0377 0B040000 		.4byte	.LASF61
 1124 037b 10       		.byte	0x10
 1125 037c 01       		.byte	0x1
 1126 037d 4901     		.2byte	0x149
 1127 037f B8030000 		.4byte	0x3b8
 1128 0383 09       		.uleb128 0x9
 1129 0384 06010000 		.4byte	.LASF48
 1130 0388 01       		.byte	0x1
 1131 0389 4A01     		.2byte	0x14a
 1132 038b 75070000 		.4byte	0x775
 1133 038f 00       		.byte	0
 1134 0390 09       		.uleb128 0x9
 1135 0391 40000000 		.4byte	.LASF51
 1136 0395 01       		.byte	0x1
 1137 0396 4C01     		.2byte	0x14c
 1138 0398 75070000 		.4byte	0x775
 1139 039c 04       		.byte	0x4
 1140 039d 09       		.uleb128 0x9
ARM GAS  /tmp/cc5gG173.s 			page 21


 1141 039e 13000000 		.4byte	.LASF58
 1142 03a2 01       		.byte	0x1
 1143 03a3 4E01     		.2byte	0x14e
 1144 03a5 4F040000 		.4byte	0x44f
 1145 03a9 08       		.byte	0x8
 1146 03aa 09       		.uleb128 0x9
 1147 03ab FB040000 		.4byte	.LASF62
 1148 03af 01       		.byte	0x1
 1149 03b0 5601     		.2byte	0x156
 1150 03b2 44040000 		.4byte	0x444
 1151 03b6 0C       		.byte	0xc
 1152 03b7 00       		.byte	0
 1153 03b8 04       		.uleb128 0x4
 1154 03b9 62000000 		.4byte	.LASF63
 1155 03bd 0A       		.byte	0xa
 1156 03be 60       		.byte	0x60
 1157 03bf C3030000 		.4byte	0x3c3
 1158 03c3 0B       		.uleb128 0xb
 1159 03c4 BE010000 		.4byte	.LASF64
 1160 03c8 04       		.byte	0x4
 1161 03c9 01       		.byte	0x1
 1162 03ca 7001     		.2byte	0x170
 1163 03cc DE030000 		.4byte	0x3de
 1164 03d0 09       		.uleb128 0x9
 1165 03d1 12060000 		.4byte	.LASF65
 1166 03d5 01       		.byte	0x1
 1167 03d6 7801     		.2byte	0x178
 1168 03d8 7B070000 		.4byte	0x77b
 1169 03dc 00       		.byte	0
 1170 03dd 00       		.byte	0
 1171 03de 04       		.uleb128 0x4
 1172 03df 75030000 		.4byte	.LASF66
 1173 03e3 0A       		.byte	0xa
 1174 03e4 65       		.byte	0x65
 1175 03e5 E9030000 		.4byte	0x3e9
 1176 03e9 0B       		.uleb128 0xb
 1177 03ea 0B050000 		.4byte	.LASF67
 1178 03ee D0       		.byte	0xd0
 1179 03ef 01       		.byte	0x1
 1180 03f0 9001     		.2byte	0x190
 1181 03f2 44040000 		.4byte	0x444
 1182 03f6 09       		.uleb128 0x9
 1183 03f7 BA060000 		.4byte	.LASF68
 1184 03fb 01       		.byte	0x1
 1185 03fc 9401     		.2byte	0x194
 1186 03fe 8C020000 		.4byte	0x28c
 1187 0402 00       		.byte	0
 1188 0403 09       		.uleb128 0x9
 1189 0404 4B010000 		.4byte	.LASF69
 1190 0408 01       		.byte	0x1
 1191 0409 9801     		.2byte	0x198
 1192 040b 6B030000 		.4byte	0x36b
 1193 040f 1C       		.byte	0x1c
 1194 0410 08       		.uleb128 0x8
 1195 0411 64626700 		.ascii	"dbg\000"
 1196 0415 01       		.byte	0x1
 1197 0416 9C01     		.2byte	0x19c
ARM GAS  /tmp/cc5gG173.s 			page 22


 1198 0418 B8030000 		.4byte	0x3b8
 1199 041c 2C       		.byte	0x2c
 1200 041d 09       		.uleb128 0x9
 1201 041e D0000000 		.4byte	.LASF70
 1202 0422 01       		.byte	0x1
 1203 0423 A001     		.2byte	0x1a0
 1204 0425 31010000 		.4byte	0x131
 1205 0429 30       		.byte	0x30
 1206 042a 08       		.uleb128 0x8
 1207 042b 746D00   		.ascii	"tm\000"
 1208 042e 01       		.byte	0x1
 1209 042f A501     		.2byte	0x1a5
 1210 0431 F6050000 		.4byte	0x5f6
 1211 0435 90       		.byte	0x90
 1212 0436 09       		.uleb128 0x9
 1213 0437 29000000 		.4byte	.LASF71
 1214 043b 01       		.byte	0x1
 1215 043c AB01     		.2byte	0x1ab
 1216 043e 88060000 		.4byte	0x688
 1217 0442 98       		.byte	0x98
 1218 0443 00       		.byte	0
 1219 0444 04       		.uleb128 0x4
 1220 0445 F1050000 		.4byte	.LASF72
 1221 0449 0B       		.byte	0xb
 1222 044a 6D       		.byte	0x6d
 1223 044b AD000000 		.4byte	0xad
 1224 044f 04       		.uleb128 0x4
 1225 0450 EB010000 		.4byte	.LASF73
 1226 0454 0B       		.byte	0xb
 1227 0455 79       		.byte	0x79
 1228 0456 AD000000 		.4byte	0xad
 1229 045a 03       		.uleb128 0x3
 1230 045b 04       		.byte	0x4
 1231 045c 07       		.byte	0x7
 1232 045d EF030000 		.4byte	.LASF74
 1233 0461 04       		.uleb128 0x4
 1234 0462 B5010000 		.4byte	.LASF75
 1235 0466 0C       		.byte	0xc
 1236 0467 65       		.byte	0x65
 1237 0468 0F030000 		.4byte	0x30f
 1238 046c 04       		.uleb128 0x4
 1239 046d B8030000 		.4byte	.LASF76
 1240 0471 0C       		.byte	0xc
 1241 0472 6D       		.byte	0x6d
 1242 0473 B8000000 		.4byte	0xb8
 1243 0477 05       		.uleb128 0x5
 1244 0478 51040000 		.4byte	.LASF77
 1245 047c 04       		.byte	0x4
 1246 047d 0C       		.byte	0xc
 1247 047e 89       		.byte	0x89
 1248 047f 8F040000 		.4byte	0x48f
 1249 0483 07       		.uleb128 0x7
 1250 0484 737000   		.ascii	"sp\000"
 1251 0487 0C       		.byte	0xc
 1252 0488 8A       		.byte	0x8a
 1253 0489 DB050000 		.4byte	0x5db
 1254 048d 00       		.byte	0
ARM GAS  /tmp/cc5gG173.s 			page 23


 1255 048e 00       		.byte	0
 1256 048f 0B       		.uleb128 0xb
 1257 0490 45000000 		.4byte	.LASF78
 1258 0494 64       		.byte	0x64
 1259 0495 0D       		.byte	0xd
 1260 0496 5901     		.2byte	0x159
 1261 0498 DB050000 		.4byte	0x5db
 1262 049c 08       		.uleb128 0x8
 1263 049d 73313600 		.ascii	"s16\000"
 1264 04a1 0D       		.byte	0xd
 1265 04a2 5B01     		.2byte	0x15b
 1266 04a4 61040000 		.4byte	0x461
 1267 04a8 00       		.byte	0
 1268 04a9 08       		.uleb128 0x8
 1269 04aa 73313700 		.ascii	"s17\000"
 1270 04ae 0D       		.byte	0xd
 1271 04af 5C01     		.2byte	0x15c
 1272 04b1 61040000 		.4byte	0x461
 1273 04b5 04       		.byte	0x4
 1274 04b6 08       		.uleb128 0x8
 1275 04b7 73313800 		.ascii	"s18\000"
 1276 04bb 0D       		.byte	0xd
 1277 04bc 5D01     		.2byte	0x15d
 1278 04be 61040000 		.4byte	0x461
 1279 04c2 08       		.byte	0x8
 1280 04c3 08       		.uleb128 0x8
 1281 04c4 73313900 		.ascii	"s19\000"
 1282 04c8 0D       		.byte	0xd
 1283 04c9 5E01     		.2byte	0x15e
 1284 04cb 61040000 		.4byte	0x461
 1285 04cf 0C       		.byte	0xc
 1286 04d0 08       		.uleb128 0x8
 1287 04d1 73323000 		.ascii	"s20\000"
 1288 04d5 0D       		.byte	0xd
 1289 04d6 5F01     		.2byte	0x15f
 1290 04d8 61040000 		.4byte	0x461
 1291 04dc 10       		.byte	0x10
 1292 04dd 08       		.uleb128 0x8
 1293 04de 73323100 		.ascii	"s21\000"
 1294 04e2 0D       		.byte	0xd
 1295 04e3 6001     		.2byte	0x160
 1296 04e5 61040000 		.4byte	0x461
 1297 04e9 14       		.byte	0x14
 1298 04ea 08       		.uleb128 0x8
 1299 04eb 73323200 		.ascii	"s22\000"
 1300 04ef 0D       		.byte	0xd
 1301 04f0 6101     		.2byte	0x161
 1302 04f2 61040000 		.4byte	0x461
 1303 04f6 18       		.byte	0x18
 1304 04f7 08       		.uleb128 0x8
 1305 04f8 73323300 		.ascii	"s23\000"
 1306 04fc 0D       		.byte	0xd
 1307 04fd 6201     		.2byte	0x162
 1308 04ff 61040000 		.4byte	0x461
 1309 0503 1C       		.byte	0x1c
 1310 0504 08       		.uleb128 0x8
 1311 0505 73323400 		.ascii	"s24\000"
ARM GAS  /tmp/cc5gG173.s 			page 24


 1312 0509 0D       		.byte	0xd
 1313 050a 6301     		.2byte	0x163
 1314 050c 61040000 		.4byte	0x461
 1315 0510 20       		.byte	0x20
 1316 0511 08       		.uleb128 0x8
 1317 0512 73323500 		.ascii	"s25\000"
 1318 0516 0D       		.byte	0xd
 1319 0517 6401     		.2byte	0x164
 1320 0519 61040000 		.4byte	0x461
 1321 051d 24       		.byte	0x24
 1322 051e 08       		.uleb128 0x8
 1323 051f 73323600 		.ascii	"s26\000"
 1324 0523 0D       		.byte	0xd
 1325 0524 6501     		.2byte	0x165
 1326 0526 61040000 		.4byte	0x461
 1327 052a 28       		.byte	0x28
 1328 052b 08       		.uleb128 0x8
 1329 052c 73323700 		.ascii	"s27\000"
 1330 0530 0D       		.byte	0xd
 1331 0531 6601     		.2byte	0x166
 1332 0533 61040000 		.4byte	0x461
 1333 0537 2C       		.byte	0x2c
 1334 0538 08       		.uleb128 0x8
 1335 0539 73323800 		.ascii	"s28\000"
 1336 053d 0D       		.byte	0xd
 1337 053e 6701     		.2byte	0x167
 1338 0540 61040000 		.4byte	0x461
 1339 0544 30       		.byte	0x30
 1340 0545 08       		.uleb128 0x8
 1341 0546 73323900 		.ascii	"s29\000"
 1342 054a 0D       		.byte	0xd
 1343 054b 6801     		.2byte	0x168
 1344 054d 61040000 		.4byte	0x461
 1345 0551 34       		.byte	0x34
 1346 0552 08       		.uleb128 0x8
 1347 0553 73333000 		.ascii	"s30\000"
 1348 0557 0D       		.byte	0xd
 1349 0558 6901     		.2byte	0x169
 1350 055a 61040000 		.4byte	0x461
 1351 055e 38       		.byte	0x38
 1352 055f 08       		.uleb128 0x8
 1353 0560 73333100 		.ascii	"s31\000"
 1354 0564 0D       		.byte	0xd
 1355 0565 6A01     		.2byte	0x16a
 1356 0567 61040000 		.4byte	0x461
 1357 056b 3C       		.byte	0x3c
 1358 056c 08       		.uleb128 0x8
 1359 056d 723400   		.ascii	"r4\000"
 1360 0570 0D       		.byte	0xd
 1361 0571 6C01     		.2byte	0x16c
 1362 0573 61040000 		.4byte	0x461
 1363 0577 40       		.byte	0x40
 1364 0578 08       		.uleb128 0x8
 1365 0579 723500   		.ascii	"r5\000"
 1366 057c 0D       		.byte	0xd
 1367 057d 6D01     		.2byte	0x16d
 1368 057f 61040000 		.4byte	0x461
ARM GAS  /tmp/cc5gG173.s 			page 25


 1369 0583 44       		.byte	0x44
 1370 0584 08       		.uleb128 0x8
 1371 0585 723600   		.ascii	"r6\000"
 1372 0588 0D       		.byte	0xd
 1373 0589 6E01     		.2byte	0x16e
 1374 058b 61040000 		.4byte	0x461
 1375 058f 48       		.byte	0x48
 1376 0590 08       		.uleb128 0x8
 1377 0591 723700   		.ascii	"r7\000"
 1378 0594 0D       		.byte	0xd
 1379 0595 6F01     		.2byte	0x16f
 1380 0597 61040000 		.4byte	0x461
 1381 059b 4C       		.byte	0x4c
 1382 059c 08       		.uleb128 0x8
 1383 059d 723800   		.ascii	"r8\000"
 1384 05a0 0D       		.byte	0xd
 1385 05a1 7001     		.2byte	0x170
 1386 05a3 61040000 		.4byte	0x461
 1387 05a7 50       		.byte	0x50
 1388 05a8 08       		.uleb128 0x8
 1389 05a9 723900   		.ascii	"r9\000"
 1390 05ac 0D       		.byte	0xd
 1391 05ad 7101     		.2byte	0x171
 1392 05af 61040000 		.4byte	0x461
 1393 05b3 54       		.byte	0x54
 1394 05b4 08       		.uleb128 0x8
 1395 05b5 72313000 		.ascii	"r10\000"
 1396 05b9 0D       		.byte	0xd
 1397 05ba 7201     		.2byte	0x172
 1398 05bc 61040000 		.4byte	0x461
 1399 05c0 58       		.byte	0x58
 1400 05c1 08       		.uleb128 0x8
 1401 05c2 72313100 		.ascii	"r11\000"
 1402 05c6 0D       		.byte	0xd
 1403 05c7 7301     		.2byte	0x173
 1404 05c9 61040000 		.4byte	0x461
 1405 05cd 5C       		.byte	0x5c
 1406 05ce 08       		.uleb128 0x8
 1407 05cf 6C7200   		.ascii	"lr\000"
 1408 05d2 0D       		.byte	0xd
 1409 05d3 7401     		.2byte	0x174
 1410 05d5 61040000 		.4byte	0x461
 1411 05d9 60       		.byte	0x60
 1412 05da 00       		.byte	0
 1413 05db 0A       		.uleb128 0xa
 1414 05dc 04       		.byte	0x4
 1415 05dd 8F040000 		.4byte	0x48f
 1416 05e1 0F       		.uleb128 0xf
 1417 05e2 04       		.byte	0x4
 1418 05e3 0E       		.byte	0xe
 1419 05e4 38       		.byte	0x38
 1420 05e5 F6050000 		.4byte	0x5f6
 1421 05e9 06       		.uleb128 0x6
 1422 05ea 1C060000 		.4byte	.LASF79
 1423 05ee 0E       		.byte	0xe
 1424 05ef 3C       		.byte	0x3c
 1425 05f0 C3000000 		.4byte	0xc3
ARM GAS  /tmp/cc5gG173.s 			page 26


 1426 05f4 00       		.byte	0
 1427 05f5 00       		.byte	0
 1428 05f6 04       		.uleb128 0x4
 1429 05f7 5E040000 		.4byte	.LASF80
 1430 05fb 0E       		.byte	0xe
 1431 05fc 3D       		.byte	0x3d
 1432 05fd E1050000 		.4byte	0x5e1
 1433 0601 0F       		.uleb128 0xf
 1434 0602 18       		.byte	0x18
 1435 0603 0E       		.byte	0xe
 1436 0604 48       		.byte	0x48
 1437 0605 44060000 		.4byte	0x644
 1438 0609 06       		.uleb128 0x6
 1439 060a DA050000 		.4byte	.LASF81
 1440 060e 0E       		.byte	0xe
 1441 060f 49       		.byte	0x49
 1442 0610 C3000000 		.4byte	0xc3
 1443 0614 00       		.byte	0
 1444 0615 06       		.uleb128 0x6
 1445 0616 86000000 		.4byte	.LASF82
 1446 061a 0E       		.byte	0xe
 1447 061b 4A       		.byte	0x4a
 1448 061c C3000000 		.4byte	0xc3
 1449 0620 04       		.byte	0x4
 1450 0621 06       		.uleb128 0x6
 1451 0622 60030000 		.4byte	.LASF83
 1452 0626 0E       		.byte	0xe
 1453 0627 4B       		.byte	0x4b
 1454 0628 C3000000 		.4byte	0xc3
 1455 062c 08       		.byte	0x8
 1456 062d 07       		.uleb128 0x7
 1457 062e 6E00     		.ascii	"n\000"
 1458 0630 0E       		.byte	0xe
 1459 0631 4C       		.byte	0x4c
 1460 0632 26010000 		.4byte	0x126
 1461 0636 0C       		.byte	0xc
 1462 0637 06       		.uleb128 0x6
 1463 0638 97040000 		.4byte	.LASF84
 1464 063c 0E       		.byte	0xe
 1465 063d 4D       		.byte	0x4d
 1466 063e CE000000 		.4byte	0xce
 1467 0642 10       		.byte	0x10
 1468 0643 00       		.byte	0
 1469 0644 04       		.uleb128 0x4
 1470 0645 8C000000 		.4byte	.LASF85
 1471 0649 0E       		.byte	0xe
 1472 064a 4E       		.byte	0x4e
 1473 064b 01060000 		.4byte	0x601
 1474 064f 0F       		.uleb128 0xf
 1475 0650 38       		.byte	0x38
 1476 0651 0F       		.byte	0xf
 1477 0652 38       		.byte	0x38
 1478 0653 88060000 		.4byte	0x688
 1479 0657 06       		.uleb128 0x6
 1480 0658 17030000 		.4byte	.LASF86
 1481 065c 0F       		.byte	0xf
 1482 065d 39       		.byte	0x39
ARM GAS  /tmp/cc5gG173.s 			page 27


 1483 065e 26010000 		.4byte	0x126
 1484 0662 00       		.byte	0
 1485 0663 06       		.uleb128 0x6
 1486 0664 48040000 		.4byte	.LASF87
 1487 0668 0F       		.byte	0xf
 1488 0669 3A       		.byte	0x3a
 1489 066a 26010000 		.4byte	0x126
 1490 066e 04       		.byte	0x4
 1491 066f 06       		.uleb128 0x6
 1492 0670 68070000 		.4byte	.LASF88
 1493 0674 0F       		.byte	0xf
 1494 0675 3B       		.byte	0x3b
 1495 0676 44060000 		.4byte	0x644
 1496 067a 08       		.byte	0x8
 1497 067b 06       		.uleb128 0x6
 1498 067c 89030000 		.4byte	.LASF89
 1499 0680 0F       		.byte	0xf
 1500 0681 3D       		.byte	0x3d
 1501 0682 44060000 		.4byte	0x644
 1502 0686 20       		.byte	0x20
 1503 0687 00       		.byte	0
 1504 0688 04       		.uleb128 0x4
 1505 0689 3C030000 		.4byte	.LASF90
 1506 068d 0F       		.byte	0xf
 1507 068e 3F       		.byte	0x3f
 1508 068f 4F060000 		.4byte	0x64f
 1509 0693 10       		.uleb128 0x10
 1510 0694 04       		.byte	0x4
 1511 0695 01       		.byte	0x1
 1512 0696 C6       		.byte	0xc6
 1513 0697 F5060000 		.4byte	0x6f5
 1514 069b 11       		.uleb128 0x11
 1515 069c 19000000 		.4byte	.LASF91
 1516 06a0 01       		.byte	0x1
 1517 06a1 CD       		.byte	0xcd
 1518 06a2 05010000 		.4byte	0x105
 1519 06a6 11       		.uleb128 0x11
 1520 06a7 C7000000 		.4byte	.LASF92
 1521 06ab 01       		.byte	0x1
 1522 06ac D4       		.byte	0xd4
 1523 06ad 05010000 		.4byte	0x105
 1524 06b1 11       		.uleb128 0x11
 1525 06b2 FA060000 		.4byte	.LASF93
 1526 06b6 01       		.byte	0x1
 1527 06b7 DB       		.byte	0xdb
 1528 06b8 0F030000 		.4byte	0x30f
 1529 06bc 11       		.uleb128 0x11
 1530 06bd 0D000000 		.4byte	.LASF94
 1531 06c1 01       		.byte	0x1
 1532 06c2 E2       		.byte	0xe2
 1533 06c3 F5060000 		.4byte	0x6f5
 1534 06c7 11       		.uleb128 0x11
 1535 06c8 DB000000 		.4byte	.LASF95
 1536 06cc 01       		.byte	0x1
 1537 06cd E7       		.byte	0xe7
 1538 06ce 05010000 		.4byte	0x105
 1539 06d2 11       		.uleb128 0x11
ARM GAS  /tmp/cc5gG173.s 			page 28


 1540 06d3 08030000 		.4byte	.LASF96
 1541 06d7 01       		.byte	0x1
 1542 06d8 F0       		.byte	0xf0
 1543 06d9 20070000 		.4byte	0x720
 1544 06dd 11       		.uleb128 0x11
 1545 06de 5D050000 		.4byte	.LASF97
 1546 06e2 01       		.byte	0x1
 1547 06e3 F9       		.byte	0xf9
 1548 06e4 57070000 		.4byte	0x757
 1549 06e8 12       		.uleb128 0x12
 1550 06e9 04050000 		.4byte	.LASF98
 1551 06ed 01       		.byte	0x1
 1552 06ee 0101     		.2byte	0x101
 1553 06f0 10010000 		.4byte	0x110
 1554 06f4 00       		.byte	0
 1555 06f5 0A       		.uleb128 0xa
 1556 06f6 04       		.byte	0x4
 1557 06f7 27020000 		.4byte	0x227
 1558 06fb 05       		.uleb128 0x5
 1559 06fc 39050000 		.4byte	.LASF99
 1560 0700 0C       		.byte	0xc
 1561 0701 10       		.byte	0x10
 1562 0702 34       		.byte	0x34
 1563 0703 20070000 		.4byte	0x720
 1564 0707 06       		.uleb128 0x6
 1565 0708 1D030000 		.4byte	.LASF28
 1566 070c 10       		.byte	0x10
 1567 070d 35       		.byte	0x35
 1568 070e 5C020000 		.4byte	0x25c
 1569 0712 00       		.byte	0
 1570 0713 07       		.uleb128 0x7
 1571 0714 636E7400 		.ascii	"cnt\000"
 1572 0718 10       		.byte	0x10
 1573 0719 37       		.byte	0x37
 1574 071a 1B010000 		.4byte	0x11b
 1575 071e 08       		.byte	0x8
 1576 071f 00       		.byte	0
 1577 0720 0A       		.uleb128 0xa
 1578 0721 04       		.byte	0x4
 1579 0722 FB060000 		.4byte	0x6fb
 1580 0726 05       		.uleb128 0x5
 1581 0727 7F060000 		.4byte	.LASF100
 1582 072b 10       		.byte	0x10
 1583 072c 05       		.byte	0x5
 1584 072d 39       		.byte	0x39
 1585 072e 57070000 		.4byte	0x757
 1586 0732 06       		.uleb128 0x6
 1587 0733 1D030000 		.4byte	.LASF28
 1588 0737 05       		.byte	0x5
 1589 0738 3A       		.byte	0x3a
 1590 0739 5C020000 		.4byte	0x25c
 1591 073d 00       		.byte	0
 1592 073e 06       		.uleb128 0x6
 1593 073f 80050000 		.4byte	.LASF101
 1594 0743 05       		.byte	0x5
 1595 0744 3C       		.byte	0x3c
 1596 0745 32020000 		.4byte	0x232
ARM GAS  /tmp/cc5gG173.s 			page 29


 1597 0749 08       		.byte	0x8
 1598 074a 06       		.uleb128 0x6
 1599 074b 06010000 		.4byte	.LASF48
 1600 074f 05       		.byte	0x5
 1601 0750 3E       		.byte	0x3e
 1602 0751 8B070000 		.4byte	0x78b
 1603 0755 0C       		.byte	0xc
 1604 0756 00       		.byte	0
 1605 0757 0A       		.uleb128 0xa
 1606 0758 04       		.byte	0x4
 1607 0759 26070000 		.4byte	0x726
 1608 075d 0A       		.uleb128 0xa
 1609 075e 04       		.byte	0x4
 1610 075f 63070000 		.4byte	0x763
 1611 0763 13       		.uleb128 0x13
 1612 0764 68070000 		.4byte	0x768
 1613 0768 03       		.uleb128 0x3
 1614 0769 01       		.byte	0x1
 1615 076a 08       		.byte	0x8
 1616 076b B2050000 		.4byte	.LASF102
 1617 076f 0A       		.uleb128 0xa
 1618 0770 04       		.byte	0x4
 1619 0771 6C040000 		.4byte	0x46c
 1620 0775 0A       		.uleb128 0xa
 1621 0776 04       		.byte	0x4
 1622 0777 11030000 		.4byte	0x311
 1623 077b 14       		.uleb128 0x14
 1624 077c 5D070000 		.4byte	0x75d
 1625 0780 04       		.uleb128 0x4
 1626 0781 D6010000 		.4byte	.LASF103
 1627 0785 05       		.byte	0x5
 1628 0786 34       		.byte	0x34
 1629 0787 26070000 		.4byte	0x726
 1630 078b 0A       		.uleb128 0xa
 1631 078c 04       		.byte	0x4
 1632 078d 80070000 		.4byte	0x780
 1633 0791 05       		.uleb128 0x5
 1634 0792 22040000 		.4byte	.LASF104
 1635 0796 08       		.byte	0x8
 1636 0797 11       		.byte	0x11
 1637 0798 3B       		.byte	0x3b
 1638 0799 AA070000 		.4byte	0x7aa
 1639 079d 06       		.uleb128 0x6
 1640 079e 1D030000 		.4byte	.LASF28
 1641 07a2 11       		.byte	0x11
 1642 07a3 3C       		.byte	0x3c
 1643 07a4 5C020000 		.4byte	0x25c
 1644 07a8 00       		.byte	0
 1645 07a9 00       		.byte	0
 1646 07aa 04       		.uleb128 0x4
 1647 07ab 2E010000 		.4byte	.LASF105
 1648 07af 11       		.byte	0x11
 1649 07b0 3E       		.byte	0x3e
 1650 07b1 91070000 		.4byte	0x791
 1651 07b5 03       		.uleb128 0x3
 1652 07b6 01       		.byte	0x1
 1653 07b7 02       		.byte	0x2
ARM GAS  /tmp/cc5gG173.s 			page 30


 1654 07b8 D5040000 		.4byte	.LASF106
 1655 07bc 15       		.uleb128 0x15
 1656 07bd 04060000 		.4byte	.LASF109
 1657 07c1 03       		.byte	0x3
 1658 07c2 EB01     		.2byte	0x1eb
 1659 07c4 03       		.byte	0x3
 1660 07c5 D6070000 		.4byte	0x7d6
 1661 07c9 16       		.uleb128 0x16
 1662 07ca 43010000 		.4byte	.LASF111
 1663 07ce 03       		.byte	0x3
 1664 07cf EB01     		.2byte	0x1eb
 1665 07d1 AD000000 		.4byte	0xad
 1666 07d5 00       		.byte	0
 1667 07d6 17       		.uleb128 0x17
 1668 07d7 C0060000 		.4byte	.LASF114
 1669 07db 06       		.byte	0x6
 1670 07dc 1001     		.2byte	0x110
 1671 07de 32020000 		.4byte	0x232
 1672 07e2 03       		.byte	0x3
 1673 07e3 18       		.uleb128 0x18
 1674 07e4 7C000000 		.4byte	.LASF107
 1675 07e8 0D       		.byte	0xd
 1676 07e9 5A02     		.2byte	0x25a
 1677 07eb 03       		.byte	0x3
 1678 07ec 18       		.uleb128 0x18
 1679 07ed 52010000 		.4byte	.LASF108
 1680 07f1 0D       		.byte	0xd
 1681 07f2 7202     		.2byte	0x272
 1682 07f4 03       		.byte	0x3
 1683 07f5 15       		.uleb128 0x15
 1684 07f6 71000000 		.4byte	.LASF110
 1685 07fa 01       		.byte	0x1
 1686 07fb 1902     		.2byte	0x219
 1687 07fd 03       		.byte	0x3
 1688 07fe 0F080000 		.4byte	0x80f
 1689 0802 19       		.uleb128 0x19
 1690 0803 74717000 		.ascii	"tqp\000"
 1691 0807 01       		.byte	0x1
 1692 0808 1902     		.2byte	0x219
 1693 080a 0F080000 		.4byte	0x80f
 1694 080e 00       		.byte	0
 1695 080f 0A       		.uleb128 0xa
 1696 0810 04       		.byte	0x4
 1697 0811 5C020000 		.4byte	0x25c
 1698 0815 1A       		.uleb128 0x1a
 1699 0816 7F010000 		.4byte	.LASF112
 1700 081a 01       		.byte	0x1
 1701 081b 3402     		.2byte	0x234
 1702 081d B5070000 		.4byte	0x7b5
 1703 0821 03       		.byte	0x3
 1704 0822 33080000 		.4byte	0x833
 1705 0826 19       		.uleb128 0x19
 1706 0827 74717000 		.ascii	"tqp\000"
 1707 082b 01       		.byte	0x1
 1708 082c 3402     		.2byte	0x234
 1709 082e 33080000 		.4byte	0x833
 1710 0832 00       		.byte	0
ARM GAS  /tmp/cc5gG173.s 			page 31


 1711 0833 0A       		.uleb128 0xa
 1712 0834 04       		.byte	0x4
 1713 0835 39080000 		.4byte	0x839
 1714 0839 13       		.uleb128 0x13
 1715 083a 5C020000 		.4byte	0x25c
 1716 083e 1A       		.uleb128 0x1a
 1717 083f DF050000 		.4byte	.LASF113
 1718 0843 01       		.byte	0x1
 1719 0844 5E02     		.2byte	0x25e
 1720 0846 32020000 		.4byte	0x232
 1721 084a 03       		.byte	0x3
 1722 084b 67080000 		.4byte	0x867
 1723 084f 19       		.uleb128 0x19
 1724 0850 74717000 		.ascii	"tqp\000"
 1725 0854 01       		.byte	0x1
 1726 0855 5E02     		.2byte	0x25e
 1727 0857 0F080000 		.4byte	0x80f
 1728 085b 1B       		.uleb128 0x1b
 1729 085c 747000   		.ascii	"tp\000"
 1730 085f 01       		.byte	0x1
 1731 0860 5F02     		.2byte	0x25f
 1732 0862 32020000 		.4byte	0x232
 1733 0866 00       		.byte	0
 1734 0867 1C       		.uleb128 0x1c
 1735 0868 86050000 		.4byte	.LASF115
 1736 086c 05       		.byte	0x5
 1737 086d 9F       		.byte	0x9f
 1738 086e 8B070000 		.4byte	0x78b
 1739 0872 03       		.byte	0x3
 1740 0873 1D       		.uleb128 0x1d
 1741 0874 4E070000 		.4byte	.LASF141
 1742 0878 01       		.byte	0x1
 1743 0879 4A02     		.2byte	0x24a
 1744 087b 00000000 		.4byte	.LFB172
 1745 087f 20000000 		.4byte	.LFE172-.LFB172
 1746 0883 01       		.uleb128 0x1
 1747 0884 9C       		.byte	0x9c
 1748 0885 B6080000 		.4byte	0x8b6
 1749 0889 1E       		.uleb128 0x1e
 1750 088a 747000   		.ascii	"tp\000"
 1751 088d 01       		.byte	0x1
 1752 088e 4A02     		.2byte	0x24a
 1753 0890 32020000 		.4byte	0x232
 1754 0894 01       		.uleb128 0x1
 1755 0895 50       		.byte	0x50
 1756 0896 1F       		.uleb128 0x1f
 1757 0897 74717000 		.ascii	"tqp\000"
 1758 089b 01       		.byte	0x1
 1759 089c 4A02     		.2byte	0x24a
 1760 089e 0F080000 		.4byte	0x80f
 1761 08a2 00000000 		.4byte	.LLST0
 1762 08a6 20       		.uleb128 0x20
 1763 08a7 637000   		.ascii	"cp\000"
 1764 08aa 01       		.byte	0x1
 1765 08ab 4C02     		.2byte	0x24c
 1766 08ad 32020000 		.4byte	0x232
 1767 08b1 21000000 		.4byte	.LLST1
ARM GAS  /tmp/cc5gG173.s 			page 32


 1768 08b5 00       		.byte	0
 1769 08b6 21       		.uleb128 0x21
 1770 08b7 C9050000 		.4byte	.LASF119
 1771 08bb 02       		.byte	0x2
 1772 08bc 4B       		.byte	0x4b
 1773 08bd 00000000 		.4byte	.LFB290
 1774 08c1 06000000 		.4byte	.LFE290-.LFB290
 1775 08c5 01       		.uleb128 0x1
 1776 08c6 9C       		.byte	0x9c
 1777 08c7 F8080000 		.4byte	0x8f8
 1778 08cb 22       		.uleb128 0x22
 1779 08cc 637000   		.ascii	"cp\000"
 1780 08cf 02       		.byte	0x2
 1781 08d0 4B       		.byte	0x4b
 1782 08d1 F8080000 		.4byte	0x8f8
 1783 08d5 01       		.uleb128 0x1
 1784 08d6 50       		.byte	0x50
 1785 08d7 23       		.uleb128 0x23
 1786 08d8 15050000 		.4byte	.LASF118
 1787 08dc 0E090000 		.4byte	0x90e
 1788 08e0 24       		.uleb128 0x24
 1789 08e1 F5070000 		.4byte	0x7f5
 1790 08e5 00000000 		.4byte	.LBB39
 1791 08e9 06000000 		.4byte	.LBE39-.LBB39
 1792 08ed 02       		.byte	0x2
 1793 08ee 4F       		.byte	0x4f
 1794 08ef 25       		.uleb128 0x25
 1795 08f0 02080000 		.4byte	0x802
 1796 08f4 01       		.uleb128 0x1
 1797 08f5 50       		.byte	0x50
 1798 08f6 00       		.byte	0
 1799 08f7 00       		.byte	0
 1800 08f8 0A       		.uleb128 0xa
 1801 08f9 04       		.byte	0x4
 1802 08fa AA070000 		.4byte	0x7aa
 1803 08fe 26       		.uleb128 0x26
 1804 08ff 68070000 		.4byte	0x768
 1805 0903 0E090000 		.4byte	0x90e
 1806 0907 27       		.uleb128 0x27
 1807 0908 5A040000 		.4byte	0x45a
 1808 090c 10       		.byte	0x10
 1809 090d 00       		.byte	0
 1810 090e 13       		.uleb128 0x13
 1811 090f FE080000 		.4byte	0x8fe
 1812 0913 18       		.uleb128 0x18
 1813 0914 1E050000 		.4byte	.LASF116
 1814 0918 04       		.byte	0x4
 1815 0919 6101     		.2byte	0x161
 1816 091b 03       		.byte	0x3
 1817 091c 15       		.uleb128 0x15
 1818 091d 37070000 		.4byte	.LASF117
 1819 0921 04       		.byte	0x4
 1820 0922 6D01     		.2byte	0x16d
 1821 0924 03       		.byte	0x3
 1822 0925 37090000 		.4byte	0x937
 1823 0929 28       		.uleb128 0x28
 1824 092a 15050000 		.4byte	.LASF118
ARM GAS  /tmp/cc5gG173.s 			page 33


 1825 092e 47090000 		.4byte	0x947
 1826 0932 37070000 		.4byte	.LASF117
 1827 0936 00       		.byte	0
 1828 0937 26       		.uleb128 0x26
 1829 0938 68070000 		.4byte	0x768
 1830 093c 47090000 		.4byte	0x947
 1831 0940 27       		.uleb128 0x27
 1832 0941 5A040000 		.4byte	0x45a
 1833 0945 0B       		.byte	0xb
 1834 0946 00       		.byte	0
 1835 0947 13       		.uleb128 0x13
 1836 0948 37090000 		.4byte	0x937
 1837 094c 21       		.uleb128 0x21
 1838 094d DE010000 		.4byte	.LASF120
 1839 0951 02       		.byte	0x2
 1840 0952 59       		.byte	0x59
 1841 0953 00000000 		.4byte	.LFB291
 1842 0957 2C000000 		.4byte	.LFE291-.LFB291
 1843 095b 01       		.uleb128 0x1
 1844 095c 9C       		.byte	0x9c
 1845 095d 700A0000 		.4byte	0xa70
 1846 0961 29       		.uleb128 0x29
 1847 0962 637000   		.ascii	"cp\000"
 1848 0965 02       		.byte	0x2
 1849 0966 59       		.byte	0x59
 1850 0967 F8080000 		.4byte	0x8f8
 1851 096b 3F000000 		.4byte	.LLST2
 1852 096f 23       		.uleb128 0x23
 1853 0970 15050000 		.4byte	.LASF118
 1854 0974 800A0000 		.4byte	0xa80
 1855 0978 2A       		.uleb128 0x2a
 1856 0979 13090000 		.4byte	0x913
 1857 097d 02000000 		.4byte	.LBB55
 1858 0981 00000000 		.4byte	.Ldebug_ranges0+0
 1859 0985 02       		.byte	0x2
 1860 0986 5D       		.byte	0x5d
 1861 0987 C1090000 		.4byte	0x9c1
 1862 098b 2B       		.uleb128 0x2b
 1863 098c E3070000 		.4byte	0x7e3
 1864 0990 02000000 		.4byte	.LBB57
 1865 0994 18000000 		.4byte	.Ldebug_ranges0+0x18
 1866 0998 04       		.byte	0x4
 1867 0999 6301     		.2byte	0x163
 1868 099b B7090000 		.4byte	0x9b7
 1869 099f 2C       		.uleb128 0x2c
 1870 09a0 BC070000 		.4byte	0x7bc
 1871 09a4 02000000 		.4byte	.LBB58
 1872 09a8 18000000 		.4byte	.Ldebug_ranges0+0x18
 1873 09ac 0D       		.byte	0xd
 1874 09ad 6202     		.2byte	0x262
 1875 09af 2D       		.uleb128 0x2d
 1876 09b0 C9070000 		.4byte	0x7c9
 1877 09b4 20       		.byte	0x20
 1878 09b5 00       		.byte	0
 1879 09b6 00       		.byte	0
 1880 09b7 2E       		.uleb128 0x2e
 1881 09b8 0E000000 		.4byte	.LVL7
ARM GAS  /tmp/cc5gG173.s 			page 34


 1882 09bc 46100000 		.4byte	0x1046
 1883 09c0 00       		.byte	0
 1884 09c1 2F       		.uleb128 0x2f
 1885 09c2 15080000 		.4byte	0x815
 1886 09c6 0E000000 		.4byte	.LBB65
 1887 09ca 02000000 		.4byte	.LBE65-.LBB65
 1888 09ce 02       		.byte	0x2
 1889 09cf 5E       		.byte	0x5e
 1890 09d0 DC090000 		.4byte	0x9dc
 1891 09d4 25       		.uleb128 0x25
 1892 09d5 26080000 		.4byte	0x826
 1893 09d9 01       		.uleb128 0x1
 1894 09da 54       		.byte	0x54
 1895 09db 00       		.byte	0
 1896 09dc 2A       		.uleb128 0x2a
 1897 09dd 3E080000 		.4byte	0x83e
 1898 09e1 14000000 		.4byte	.LBB67
 1899 09e5 30000000 		.4byte	.Ldebug_ranges0+0x30
 1900 09e9 02       		.byte	0x2
 1901 09ea 5F       		.byte	0x5f
 1902 09eb 080A0000 		.4byte	0xa08
 1903 09ef 30       		.uleb128 0x30
 1904 09f0 4F080000 		.4byte	0x84f
 1905 09f4 5D000000 		.4byte	.LLST3
 1906 09f8 31       		.uleb128 0x31
 1907 09f9 30000000 		.4byte	.Ldebug_ranges0+0x30
 1908 09fd 32       		.uleb128 0x32
 1909 09fe 5B080000 		.4byte	0x85b
 1910 0a02 70000000 		.4byte	.LLST4
 1911 0a06 00       		.byte	0
 1912 0a07 00       		.byte	0
 1913 0a08 2F       		.uleb128 0x2f
 1914 0a09 1C090000 		.4byte	0x91c
 1915 0a0d 20000000 		.4byte	.LBB71
 1916 0a11 0C000000 		.4byte	.LBE71-.LBB71
 1917 0a15 02       		.byte	0x2
 1918 0a16 61       		.byte	0x61
 1919 0a17 600A0000 		.4byte	0xa60
 1920 0a1b 33       		.uleb128 0x33
 1921 0a1c 20000000 		.4byte	.LBB72
 1922 0a20 0C000000 		.4byte	.LBE72-.LBB72
 1923 0a24 34       		.uleb128 0x34
 1924 0a25 29090000 		.4byte	0x929
 1925 0a29 35       		.uleb128 0x35
 1926 0a2a EC070000 		.4byte	0x7ec
 1927 0a2e 24000000 		.4byte	.LBB73
 1928 0a32 08000000 		.4byte	.LBE73-.LBB73
 1929 0a36 04       		.byte	0x4
 1930 0a37 7A01     		.2byte	0x17a
 1931 0a39 550A0000 		.4byte	0xa55
 1932 0a3d 36       		.uleb128 0x36
 1933 0a3e BC070000 		.4byte	0x7bc
 1934 0a42 24000000 		.4byte	.LBB74
 1935 0a46 08000000 		.4byte	.LBE74-.LBB74
 1936 0a4a 0D       		.byte	0xd
 1937 0a4b 7502     		.2byte	0x275
 1938 0a4d 2D       		.uleb128 0x2d
ARM GAS  /tmp/cc5gG173.s 			page 35


 1939 0a4e C9070000 		.4byte	0x7c9
 1940 0a52 00       		.byte	0
 1941 0a53 00       		.byte	0
 1942 0a54 00       		.byte	0
 1943 0a55 2E       		.uleb128 0x2e
 1944 0a56 24000000 		.4byte	.LVL10
 1945 0a5a 4D100000 		.4byte	0x104d
 1946 0a5e 00       		.byte	0
 1947 0a5f 00       		.byte	0
 1948 0a60 37       		.uleb128 0x37
 1949 0a61 20000000 		.4byte	.LVL9
 1950 0a65 54100000 		.4byte	0x1054
 1951 0a69 38       		.uleb128 0x38
 1952 0a6a 01       		.uleb128 0x1
 1953 0a6b 51       		.byte	0x51
 1954 0a6c 01       		.uleb128 0x1
 1955 0a6d 30       		.byte	0x30
 1956 0a6e 00       		.byte	0
 1957 0a6f 00       		.byte	0
 1958 0a70 26       		.uleb128 0x26
 1959 0a71 68070000 		.4byte	0x768
 1960 0a75 800A0000 		.4byte	0xa80
 1961 0a79 27       		.uleb128 0x27
 1962 0a7a 5A040000 		.4byte	0x45a
 1963 0a7e 0C       		.byte	0xc
 1964 0a7f 00       		.byte	0
 1965 0a80 13       		.uleb128 0x13
 1966 0a81 700A0000 		.4byte	0xa70
 1967 0a85 21       		.uleb128 0x21
 1968 0a86 C7040000 		.4byte	.LASF121
 1969 0a8a 02       		.byte	0x2
 1970 0a8b 6F       		.byte	0x6f
 1971 0a8c 00000000 		.4byte	.LFB292
 1972 0a90 18000000 		.4byte	.LFE292-.LFB292
 1973 0a94 01       		.uleb128 0x1
 1974 0a95 9C       		.byte	0x9c
 1975 0a96 1C0B0000 		.4byte	0xb1c
 1976 0a9a 29       		.uleb128 0x29
 1977 0a9b 637000   		.ascii	"cp\000"
 1978 0a9e 02       		.byte	0x2
 1979 0a9f 6F       		.byte	0x6f
 1980 0aa0 F8080000 		.4byte	0x8f8
 1981 0aa4 83000000 		.4byte	.LLST5
 1982 0aa8 23       		.uleb128 0x23
 1983 0aa9 15050000 		.4byte	.LASF118
 1984 0aad 2C0B0000 		.4byte	0xb2c
 1985 0ab1 2F       		.uleb128 0x2f
 1986 0ab2 15080000 		.4byte	0x815
 1987 0ab6 00000000 		.4byte	.LBB76
 1988 0aba 02000000 		.4byte	.LBE76-.LBB76
 1989 0abe 02       		.byte	0x2
 1990 0abf 74       		.byte	0x74
 1991 0ac0 CE0A0000 		.4byte	0xace
 1992 0ac4 30       		.uleb128 0x30
 1993 0ac5 26080000 		.4byte	0x826
 1994 0ac9 83000000 		.4byte	.LLST5
 1995 0acd 00       		.byte	0
ARM GAS  /tmp/cc5gG173.s 			page 36


 1996 0ace 33       		.uleb128 0x33
 1997 0acf 06000000 		.4byte	.LBB78
 1998 0ad3 12000000 		.4byte	.LBE78-.LBB78
 1999 0ad7 39       		.uleb128 0x39
 2000 0ad8 747000   		.ascii	"tp\000"
 2001 0adb 02       		.byte	0x2
 2002 0adc 75       		.byte	0x75
 2003 0add 32020000 		.4byte	0x232
 2004 0ae1 2F       		.uleb128 0x2f
 2005 0ae2 3E080000 		.4byte	0x83e
 2006 0ae6 06000000 		.4byte	.LBB79
 2007 0aea 06000000 		.4byte	.LBE79-.LBB79
 2008 0aee 02       		.byte	0x2
 2009 0aef 75       		.byte	0x75
 2010 0af0 110B0000 		.4byte	0xb11
 2011 0af4 30       		.uleb128 0x30
 2012 0af5 4F080000 		.4byte	0x84f
 2013 0af9 AF000000 		.4byte	.LLST7
 2014 0afd 33       		.uleb128 0x33
 2015 0afe 06000000 		.4byte	.LBB80
 2016 0b02 06000000 		.4byte	.LBE80-.LBB80
 2017 0b06 32       		.uleb128 0x32
 2018 0b07 5B080000 		.4byte	0x85b
 2019 0b0b D0000000 		.4byte	.LLST8
 2020 0b0f 00       		.byte	0
 2021 0b10 00       		.byte	0
 2022 0b11 3A       		.uleb128 0x3a
 2023 0b12 16000000 		.4byte	.LVL14
 2024 0b16 6B100000 		.4byte	0x106b
 2025 0b1a 00       		.byte	0
 2026 0b1b 00       		.byte	0
 2027 0b1c 26       		.uleb128 0x26
 2028 0b1d 68070000 		.4byte	0x768
 2029 0b21 2C0B0000 		.4byte	0xb2c
 2030 0b25 27       		.uleb128 0x27
 2031 0b26 5A040000 		.4byte	0x45a
 2032 0b2a 0D       		.byte	0xd
 2033 0b2b 00       		.byte	0
 2034 0b2c 13       		.uleb128 0x13
 2035 0b2d 1C0B0000 		.4byte	0xb1c
 2036 0b31 21       		.uleb128 0x21
 2037 0b32 9F000000 		.4byte	.LASF122
 2038 0b36 02       		.byte	0x2
 2039 0b37 95       		.byte	0x95
 2040 0b38 00000000 		.4byte	.LFB294
 2041 0b3c 1E000000 		.4byte	.LFE294-.LFB294
 2042 0b40 01       		.uleb128 0x1
 2043 0b41 9C       		.byte	0x9c
 2044 0b42 B20B0000 		.4byte	0xbb2
 2045 0b46 29       		.uleb128 0x29
 2046 0b47 637000   		.ascii	"cp\000"
 2047 0b4a 02       		.byte	0x2
 2048 0b4b 95       		.byte	0x95
 2049 0b4c F8080000 		.4byte	0x8f8
 2050 0b50 E3000000 		.4byte	.LLST9
 2051 0b54 23       		.uleb128 0x23
 2052 0b55 15050000 		.4byte	.LASF118
ARM GAS  /tmp/cc5gG173.s 			page 37


 2053 0b59 B20B0000 		.4byte	0xbb2
 2054 0b5d 2F       		.uleb128 0x2f
 2055 0b5e 15080000 		.4byte	0x815
 2056 0b62 04000000 		.4byte	.LBB81
 2057 0b66 02000000 		.4byte	.LBE81-.LBB81
 2058 0b6a 02       		.byte	0x2
 2059 0b6b 9D       		.byte	0x9d
 2060 0b6c 780B0000 		.4byte	0xb78
 2061 0b70 25       		.uleb128 0x25
 2062 0b71 26080000 		.4byte	0x826
 2063 0b75 01       		.uleb128 0x1
 2064 0b76 54       		.byte	0x54
 2065 0b77 00       		.byte	0
 2066 0b78 2F       		.uleb128 0x2f
 2067 0b79 3E080000 		.4byte	0x83e
 2068 0b7d 0A000000 		.4byte	.LBB83
 2069 0b81 06000000 		.4byte	.LBE83-.LBB83
 2070 0b85 02       		.byte	0x2
 2071 0b86 9E       		.byte	0x9e
 2072 0b87 A80B0000 		.4byte	0xba8
 2073 0b8b 30       		.uleb128 0x30
 2074 0b8c 4F080000 		.4byte	0x84f
 2075 0b90 01010000 		.4byte	.LLST10
 2076 0b94 33       		.uleb128 0x33
 2077 0b95 0A000000 		.4byte	.LBB84
 2078 0b99 06000000 		.4byte	.LBE84-.LBB84
 2079 0b9d 32       		.uleb128 0x32
 2080 0b9e 5B080000 		.4byte	0x85b
 2081 0ba2 14010000 		.4byte	.LLST11
 2082 0ba6 00       		.byte	0
 2083 0ba7 00       		.byte	0
 2084 0ba8 2E       		.uleb128 0x2e
 2085 0ba9 14000000 		.4byte	.LVL18
 2086 0bad 6B100000 		.4byte	0x106b
 2087 0bb1 00       		.byte	0
 2088 0bb2 13       		.uleb128 0x13
 2089 0bb3 FE080000 		.4byte	0x8fe
 2090 0bb7 21       		.uleb128 0x21
 2091 0bb8 74040000 		.4byte	.LASF123
 2092 0bbc 02       		.byte	0x2
 2093 0bbd 82       		.byte	0x82
 2094 0bbe 00000000 		.4byte	.LFB293
 2095 0bc2 24000000 		.4byte	.LFE293-.LFB293
 2096 0bc6 01       		.uleb128 0x1
 2097 0bc7 9C       		.byte	0x9c
 2098 0bc8 990C0000 		.4byte	0xc99
 2099 0bcc 29       		.uleb128 0x29
 2100 0bcd 637000   		.ascii	"cp\000"
 2101 0bd0 02       		.byte	0x2
 2102 0bd1 82       		.byte	0x82
 2103 0bd2 F8080000 		.4byte	0x8f8
 2104 0bd6 27010000 		.4byte	.LLST12
 2105 0bda 2A       		.uleb128 0x2a
 2106 0bdb 13090000 		.4byte	0x913
 2107 0bdf 02000000 		.4byte	.LBB95
 2108 0be3 48000000 		.4byte	.Ldebug_ranges0+0x48
 2109 0be7 02       		.byte	0x2
ARM GAS  /tmp/cc5gG173.s 			page 38


 2110 0be8 84       		.byte	0x84
 2111 0be9 230C0000 		.4byte	0xc23
 2112 0bed 2B       		.uleb128 0x2b
 2113 0bee E3070000 		.4byte	0x7e3
 2114 0bf2 02000000 		.4byte	.LBB97
 2115 0bf6 60000000 		.4byte	.Ldebug_ranges0+0x60
 2116 0bfa 04       		.byte	0x4
 2117 0bfb 6301     		.2byte	0x163
 2118 0bfd 190C0000 		.4byte	0xc19
 2119 0c01 2C       		.uleb128 0x2c
 2120 0c02 BC070000 		.4byte	0x7bc
 2121 0c06 02000000 		.4byte	.LBB98
 2122 0c0a 60000000 		.4byte	.Ldebug_ranges0+0x60
 2123 0c0e 0D       		.byte	0xd
 2124 0c0f 6202     		.2byte	0x262
 2125 0c11 2D       		.uleb128 0x2d
 2126 0c12 C9070000 		.4byte	0x7c9
 2127 0c16 20       		.byte	0x20
 2128 0c17 00       		.byte	0
 2129 0c18 00       		.byte	0
 2130 0c19 2E       		.uleb128 0x2e
 2131 0c1a 0E000000 		.4byte	.LVL21
 2132 0c1e 46100000 		.4byte	0x1046
 2133 0c22 00       		.byte	0
 2134 0c23 2F       		.uleb128 0x2f
 2135 0c24 1C090000 		.4byte	0x91c
 2136 0c28 18000000 		.4byte	.LBB105
 2137 0c2c 0C000000 		.4byte	.LBE105-.LBB105
 2138 0c30 02       		.byte	0x2
 2139 0c31 87       		.byte	0x87
 2140 0c32 7B0C0000 		.4byte	0xc7b
 2141 0c36 33       		.uleb128 0x33
 2142 0c37 18000000 		.4byte	.LBB106
 2143 0c3b 0C000000 		.4byte	.LBE106-.LBB106
 2144 0c3f 34       		.uleb128 0x34
 2145 0c40 29090000 		.4byte	0x929
 2146 0c44 35       		.uleb128 0x35
 2147 0c45 EC070000 		.4byte	0x7ec
 2148 0c49 1C000000 		.4byte	.LBB107
 2149 0c4d 08000000 		.4byte	.LBE107-.LBB107
 2150 0c51 04       		.byte	0x4
 2151 0c52 7A01     		.2byte	0x17a
 2152 0c54 700C0000 		.4byte	0xc70
 2153 0c58 36       		.uleb128 0x36
 2154 0c59 BC070000 		.4byte	0x7bc
 2155 0c5d 1C000000 		.4byte	.LBB108
 2156 0c61 08000000 		.4byte	.LBE108-.LBB108
 2157 0c65 0D       		.byte	0xd
 2158 0c66 7502     		.2byte	0x275
 2159 0c68 2D       		.uleb128 0x2d
 2160 0c69 C9070000 		.4byte	0x7c9
 2161 0c6d 00       		.byte	0
 2162 0c6e 00       		.byte	0
 2163 0c6f 00       		.byte	0
 2164 0c70 2E       		.uleb128 0x2e
 2165 0c71 1C000000 		.4byte	.LVL24
 2166 0c75 4D100000 		.4byte	0x104d
ARM GAS  /tmp/cc5gG173.s 			page 39


 2167 0c79 00       		.byte	0
 2168 0c7a 00       		.byte	0
 2169 0c7b 3B       		.uleb128 0x3b
 2170 0c7c 14000000 		.4byte	.LVL22
 2171 0c80 310B0000 		.4byte	0xb31
 2172 0c84 8F0C0000 		.4byte	0xc8f
 2173 0c88 38       		.uleb128 0x38
 2174 0c89 01       		.uleb128 0x1
 2175 0c8a 50       		.byte	0x50
 2176 0c8b 02       		.uleb128 0x2
 2177 0c8c 74       		.byte	0x74
 2178 0c8d 00       		.sleb128 0
 2179 0c8e 00       		.byte	0
 2180 0c8f 2E       		.uleb128 0x2e
 2181 0c90 18000000 		.4byte	.LVL23
 2182 0c94 81100000 		.4byte	0x1081
 2183 0c98 00       		.byte	0
 2184 0c99 3C       		.uleb128 0x3c
 2185 0c9a BD050000 		.4byte	.LASF124
 2186 0c9e 02       		.byte	0x2
 2187 0c9f CD       		.byte	0xcd
 2188 0ca0 05010000 		.4byte	0x105
 2189 0ca4 00000000 		.4byte	.LFB296
 2190 0ca8 30000000 		.4byte	.LFE296-.LFB296
 2191 0cac 01       		.uleb128 0x1
 2192 0cad 9C       		.byte	0x9c
 2193 0cae 520D0000 		.4byte	0xd52
 2194 0cb2 29       		.uleb128 0x29
 2195 0cb3 637000   		.ascii	"cp\000"
 2196 0cb6 02       		.byte	0x2
 2197 0cb7 CD       		.byte	0xcd
 2198 0cb8 F8080000 		.4byte	0x8f8
 2199 0cbc 45010000 		.4byte	.LLST13
 2200 0cc0 3D       		.uleb128 0x3d
 2201 0cc1 63747000 		.ascii	"ctp\000"
 2202 0cc5 02       		.byte	0x2
 2203 0cc6 CE       		.byte	0xce
 2204 0cc7 32020000 		.4byte	0x232
 2205 0ccb 71010000 		.4byte	.LLST14
 2206 0ccf 39       		.uleb128 0x39
 2207 0cd0 6D7000   		.ascii	"mp\000"
 2208 0cd3 02       		.byte	0x2
 2209 0cd4 CF       		.byte	0xcf
 2210 0cd5 8B070000 		.4byte	0x78b
 2211 0cd9 3D       		.uleb128 0x3d
 2212 0cda 6D736700 		.ascii	"msg\000"
 2213 0cde 02       		.byte	0x2
 2214 0cdf D0       		.byte	0xd0
 2215 0ce0 05010000 		.4byte	0x105
 2216 0ce4 84010000 		.4byte	.LLST15
 2217 0ce8 23       		.uleb128 0x23
 2218 0ce9 15050000 		.4byte	.LASF118
 2219 0ced 520D0000 		.4byte	0xd52
 2220 0cf1 3E       		.uleb128 0x3e
 2221 0cf2 67080000 		.4byte	0x867
 2222 0cf6 06000000 		.4byte	.LBB110
 2223 0cfa 02000000 		.4byte	.LBE110-.LBB110
ARM GAS  /tmp/cc5gG173.s 			page 40


 2224 0cfe 02       		.byte	0x2
 2225 0cff CF       		.byte	0xcf
 2226 0d00 3B       		.uleb128 0x3b
 2227 0d01 10000000 		.4byte	.LVL28
 2228 0d05 89100000 		.4byte	0x1089
 2229 0d09 140D0000 		.4byte	0xd14
 2230 0d0d 38       		.uleb128 0x38
 2231 0d0e 01       		.uleb128 0x1
 2232 0d0f 50       		.byte	0x50
 2233 0d10 02       		.uleb128 0x2
 2234 0d11 75       		.byte	0x75
 2235 0d12 00       		.sleb128 0
 2236 0d13 00       		.byte	0
 2237 0d14 3B       		.uleb128 0x3b
 2238 0d15 1A000000 		.4byte	.LVL29
 2239 0d19 73080000 		.4byte	0x873
 2240 0d1d 2E0D0000 		.4byte	0xd2e
 2241 0d21 38       		.uleb128 0x38
 2242 0d22 01       		.uleb128 0x1
 2243 0d23 51       		.byte	0x51
 2244 0d24 02       		.uleb128 0x2
 2245 0d25 76       		.byte	0x76
 2246 0d26 00       		.sleb128 0
 2247 0d27 38       		.uleb128 0x38
 2248 0d28 01       		.uleb128 0x1
 2249 0d29 50       		.byte	0x50
 2250 0d2a 02       		.uleb128 0x2
 2251 0d2b 74       		.byte	0x74
 2252 0d2c 00       		.sleb128 0
 2253 0d2d 00       		.byte	0
 2254 0d2e 3B       		.uleb128 0x3b
 2255 0d2f 20000000 		.4byte	.LVL30
 2256 0d33 9A100000 		.4byte	0x109a
 2257 0d37 410D0000 		.4byte	0xd41
 2258 0d3b 38       		.uleb128 0x38
 2259 0d3c 01       		.uleb128 0x1
 2260 0d3d 50       		.byte	0x50
 2261 0d3e 01       		.uleb128 0x1
 2262 0d3f 37       		.byte	0x37
 2263 0d40 00       		.byte	0
 2264 0d41 37       		.uleb128 0x37
 2265 0d42 28000000 		.4byte	.LVL32
 2266 0d46 AC100000 		.4byte	0x10ac
 2267 0d4a 38       		.uleb128 0x38
 2268 0d4b 01       		.uleb128 0x1
 2269 0d4c 50       		.byte	0x50
 2270 0d4d 02       		.uleb128 0x2
 2271 0d4e 75       		.byte	0x75
 2272 0d4f 00       		.sleb128 0
 2273 0d50 00       		.byte	0
 2274 0d51 00       		.byte	0
 2275 0d52 13       		.uleb128 0x13
 2276 0d53 37090000 		.4byte	0x937
 2277 0d57 3C       		.uleb128 0x3c
 2278 0d58 57060000 		.4byte	.LASF125
 2279 0d5c 02       		.byte	0x2
 2280 0d5d B3       		.byte	0xb3
ARM GAS  /tmp/cc5gG173.s 			page 41


 2281 0d5e 05010000 		.4byte	0x105
 2282 0d62 00000000 		.4byte	.LFB295
 2283 0d66 24000000 		.4byte	.LFE295-.LFB295
 2284 0d6a 01       		.uleb128 0x1
 2285 0d6b 9C       		.byte	0x9c
 2286 0d6c 3F0E0000 		.4byte	0xe3f
 2287 0d70 29       		.uleb128 0x29
 2288 0d71 637000   		.ascii	"cp\000"
 2289 0d74 02       		.byte	0x2
 2290 0d75 B3       		.byte	0xb3
 2291 0d76 F8080000 		.4byte	0x8f8
 2292 0d7a A2010000 		.4byte	.LLST16
 2293 0d7e 3D       		.uleb128 0x3d
 2294 0d7f 6D736700 		.ascii	"msg\000"
 2295 0d83 02       		.byte	0x2
 2296 0d84 B4       		.byte	0xb4
 2297 0d85 05010000 		.4byte	0x105
 2298 0d89 CE010000 		.4byte	.LLST17
 2299 0d8d 2A       		.uleb128 0x2a
 2300 0d8e 13090000 		.4byte	0x913
 2301 0d92 02000000 		.4byte	.LBB122
 2302 0d96 78000000 		.4byte	.Ldebug_ranges0+0x78
 2303 0d9a 02       		.byte	0x2
 2304 0d9b B6       		.byte	0xb6
 2305 0d9c D60D0000 		.4byte	0xdd6
 2306 0da0 2B       		.uleb128 0x2b
 2307 0da1 E3070000 		.4byte	0x7e3
 2308 0da5 02000000 		.4byte	.LBB124
 2309 0da9 90000000 		.4byte	.Ldebug_ranges0+0x90
 2310 0dad 04       		.byte	0x4
 2311 0dae 6301     		.2byte	0x163
 2312 0db0 CC0D0000 		.4byte	0xdcc
 2313 0db4 2C       		.uleb128 0x2c
 2314 0db5 BC070000 		.4byte	0x7bc
 2315 0db9 02000000 		.4byte	.LBB125
 2316 0dbd 90000000 		.4byte	.Ldebug_ranges0+0x90
 2317 0dc1 0D       		.byte	0xd
 2318 0dc2 6202     		.2byte	0x262
 2319 0dc4 2D       		.uleb128 0x2d
 2320 0dc5 C9070000 		.4byte	0x7c9
 2321 0dc9 20       		.byte	0x20
 2322 0dca 00       		.byte	0
 2323 0dcb 00       		.byte	0
 2324 0dcc 2E       		.uleb128 0x2e
 2325 0dcd 0E000000 		.4byte	.LVL35
 2326 0dd1 46100000 		.4byte	0x1046
 2327 0dd5 00       		.byte	0
 2328 0dd6 2F       		.uleb128 0x2f
 2329 0dd7 1C090000 		.4byte	0x91c
 2330 0ddb 16000000 		.4byte	.LBB132
 2331 0ddf 0A000000 		.4byte	.LBE132-.LBB132
 2332 0de3 02       		.byte	0x2
 2333 0de4 B8       		.byte	0xb8
 2334 0de5 2E0E0000 		.4byte	0xe2e
 2335 0de9 33       		.uleb128 0x33
 2336 0dea 16000000 		.4byte	.LBB133
 2337 0dee 0A000000 		.4byte	.LBE133-.LBB133
ARM GAS  /tmp/cc5gG173.s 			page 42


 2338 0df2 34       		.uleb128 0x34
 2339 0df3 29090000 		.4byte	0x929
 2340 0df7 35       		.uleb128 0x35
 2341 0df8 EC070000 		.4byte	0x7ec
 2342 0dfc 1A000000 		.4byte	.LBB134
 2343 0e00 06000000 		.4byte	.LBE134-.LBB134
 2344 0e04 04       		.byte	0x4
 2345 0e05 7A01     		.2byte	0x17a
 2346 0e07 230E0000 		.4byte	0xe23
 2347 0e0b 36       		.uleb128 0x36
 2348 0e0c BC070000 		.4byte	0x7bc
 2349 0e10 1A000000 		.4byte	.LBB135
 2350 0e14 06000000 		.4byte	.LBE135-.LBB135
 2351 0e18 0D       		.byte	0xd
 2352 0e19 7502     		.2byte	0x275
 2353 0e1b 2D       		.uleb128 0x2d
 2354 0e1c C9070000 		.4byte	0x7c9
 2355 0e20 00       		.byte	0
 2356 0e21 00       		.byte	0
 2357 0e22 00       		.byte	0
 2358 0e23 2E       		.uleb128 0x2e
 2359 0e24 1A000000 		.4byte	.LVL38
 2360 0e28 4D100000 		.4byte	0x104d
 2361 0e2c 00       		.byte	0
 2362 0e2d 00       		.byte	0
 2363 0e2e 37       		.uleb128 0x37
 2364 0e2f 14000000 		.4byte	.LVL36
 2365 0e33 990C0000 		.4byte	0xc99
 2366 0e37 38       		.uleb128 0x38
 2367 0e38 01       		.uleb128 0x1
 2368 0e39 50       		.byte	0x50
 2369 0e3a 02       		.uleb128 0x2
 2370 0e3b 74       		.byte	0x74
 2371 0e3c 00       		.sleb128 0
 2372 0e3d 00       		.byte	0
 2373 0e3e 00       		.byte	0
 2374 0e3f 3F       		.uleb128 0x3f
 2375 0e40 35040000 		.4byte	.LASF126
 2376 0e44 02       		.byte	0x2
 2377 0e45 2701     		.2byte	0x127
 2378 0e47 05010000 		.4byte	0x105
 2379 0e4b 00000000 		.4byte	.LFB298
 2380 0e4f 38000000 		.4byte	.LFE298-.LFB298
 2381 0e53 01       		.uleb128 0x1
 2382 0e54 9C       		.byte	0x9c
 2383 0e55 120F0000 		.4byte	0xf12
 2384 0e59 1F       		.uleb128 0x1f
 2385 0e5a 637000   		.ascii	"cp\000"
 2386 0e5d 02       		.byte	0x2
 2387 0e5e 2701     		.2byte	0x127
 2388 0e60 F8080000 		.4byte	0x8f8
 2389 0e64 EC010000 		.4byte	.LLST18
 2390 0e68 40       		.uleb128 0x40
 2391 0e69 0F030000 		.4byte	.LASF127
 2392 0e6d 02       		.byte	0x2
 2393 0e6e 2701     		.2byte	0x127
 2394 0e70 4F040000 		.4byte	0x44f
ARM GAS  /tmp/cc5gG173.s 			page 43


 2395 0e74 18020000 		.4byte	.LLST19
 2396 0e78 1B       		.uleb128 0x1b
 2397 0e79 6D7000   		.ascii	"mp\000"
 2398 0e7c 02       		.byte	0x2
 2399 0e7d 2801     		.2byte	0x128
 2400 0e7f 8B070000 		.4byte	0x78b
 2401 0e83 20       		.uleb128 0x20
 2402 0e84 6D736700 		.ascii	"msg\000"
 2403 0e88 02       		.byte	0x2
 2404 0e89 2901     		.2byte	0x129
 2405 0e8b 05010000 		.4byte	0x105
 2406 0e8f 44020000 		.4byte	.LLST20
 2407 0e93 23       		.uleb128 0x23
 2408 0e94 15050000 		.4byte	.LASF118
 2409 0e98 220F0000 		.4byte	0xf22
 2410 0e9c 35       		.uleb128 0x35
 2411 0e9d 67080000 		.4byte	0x867
 2412 0ea1 02000000 		.4byte	.LBB137
 2413 0ea5 06000000 		.4byte	.LBE137-.LBB137
 2414 0ea9 02       		.byte	0x2
 2415 0eaa 2801     		.2byte	0x128
 2416 0eac C00E0000 		.4byte	0xec0
 2417 0eb0 3E       		.uleb128 0x3e
 2418 0eb1 D6070000 		.4byte	0x7d6
 2419 0eb5 02000000 		.4byte	.LBB139
 2420 0eb9 02000000 		.4byte	.LBE139-.LBB139
 2421 0ebd 05       		.byte	0x5
 2422 0ebe A1       		.byte	0xa1
 2423 0ebf 00       		.byte	0
 2424 0ec0 3B       		.uleb128 0x3b
 2425 0ec1 12000000 		.4byte	.LVL41
 2426 0ec5 89100000 		.4byte	0x1089
 2427 0ec9 D40E0000 		.4byte	0xed4
 2428 0ecd 38       		.uleb128 0x38
 2429 0ece 01       		.uleb128 0x1
 2430 0ecf 50       		.byte	0x50
 2431 0ed0 02       		.uleb128 0x2
 2432 0ed1 75       		.byte	0x75
 2433 0ed2 00       		.sleb128 0
 2434 0ed3 00       		.byte	0
 2435 0ed4 3B       		.uleb128 0x3b
 2436 0ed5 1C000000 		.4byte	.LVL42
 2437 0ed9 73080000 		.4byte	0x873
 2438 0edd E80E0000 		.4byte	0xee8
 2439 0ee1 38       		.uleb128 0x38
 2440 0ee2 01       		.uleb128 0x1
 2441 0ee3 51       		.byte	0x51
 2442 0ee4 02       		.uleb128 0x2
 2443 0ee5 74       		.byte	0x74
 2444 0ee6 00       		.sleb128 0
 2445 0ee7 00       		.byte	0
 2446 0ee8 3B       		.uleb128 0x3b
 2447 0ee9 24000000 		.4byte	.LVL43
 2448 0eed BD100000 		.4byte	0x10bd
 2449 0ef1 010F0000 		.4byte	0xf01
 2450 0ef5 38       		.uleb128 0x38
 2451 0ef6 01       		.uleb128 0x1
ARM GAS  /tmp/cc5gG173.s 			page 44


 2452 0ef7 51       		.byte	0x51
 2453 0ef8 02       		.uleb128 0x2
 2454 0ef9 77       		.byte	0x77
 2455 0efa 00       		.sleb128 0
 2456 0efb 38       		.uleb128 0x38
 2457 0efc 01       		.uleb128 0x1
 2458 0efd 50       		.byte	0x50
 2459 0efe 01       		.uleb128 0x1
 2460 0eff 37       		.byte	0x37
 2461 0f00 00       		.byte	0
 2462 0f01 37       		.uleb128 0x37
 2463 0f02 30000000 		.4byte	.LVL46
 2464 0f06 AC100000 		.4byte	0x10ac
 2465 0f0a 38       		.uleb128 0x38
 2466 0f0b 01       		.uleb128 0x1
 2467 0f0c 50       		.byte	0x50
 2468 0f0d 02       		.uleb128 0x2
 2469 0f0e 75       		.byte	0x75
 2470 0f0f 00       		.sleb128 0
 2471 0f10 00       		.byte	0
 2472 0f11 00       		.byte	0
 2473 0f12 26       		.uleb128 0x26
 2474 0f13 68070000 		.4byte	0x768
 2475 0f17 220F0000 		.4byte	0xf22
 2476 0f1b 27       		.uleb128 0x27
 2477 0f1c 5A040000 		.4byte	0x45a
 2478 0f20 12       		.byte	0x12
 2479 0f21 00       		.byte	0
 2480 0f22 13       		.uleb128 0x13
 2481 0f23 120F0000 		.4byte	0xf12
 2482 0f27 3F       		.uleb128 0x3f
 2483 0f28 01070000 		.4byte	.LASF128
 2484 0f2c 02       		.byte	0x2
 2485 0f2d 0101     		.2byte	0x101
 2486 0f2f 05010000 		.4byte	0x105
 2487 0f33 00000000 		.4byte	.LFB297
 2488 0f37 28000000 		.4byte	.LFE297-.LFB297
 2489 0f3b 01       		.uleb128 0x1
 2490 0f3c 9C       		.byte	0x9c
 2491 0f3d 2A100000 		.4byte	0x102a
 2492 0f41 1F       		.uleb128 0x1f
 2493 0f42 637000   		.ascii	"cp\000"
 2494 0f45 02       		.byte	0x2
 2495 0f46 0101     		.2byte	0x101
 2496 0f48 F8080000 		.4byte	0x8f8
 2497 0f4c 6D020000 		.4byte	.LLST21
 2498 0f50 40       		.uleb128 0x40
 2499 0f51 0F030000 		.4byte	.LASF127
 2500 0f55 02       		.byte	0x2
 2501 0f56 0101     		.2byte	0x101
 2502 0f58 4F040000 		.4byte	0x44f
 2503 0f5c 8B020000 		.4byte	.LLST22
 2504 0f60 20       		.uleb128 0x20
 2505 0f61 6D736700 		.ascii	"msg\000"
 2506 0f65 02       		.byte	0x2
 2507 0f66 0201     		.2byte	0x102
 2508 0f68 05010000 		.4byte	0x105
ARM GAS  /tmp/cc5gG173.s 			page 45


 2509 0f6c B7020000 		.4byte	.LLST23
 2510 0f70 35       		.uleb128 0x35
 2511 0f71 13090000 		.4byte	0x913
 2512 0f75 06000000 		.4byte	.LBB151
 2513 0f79 0A000000 		.4byte	.LBE151-.LBB151
 2514 0f7d 02       		.byte	0x2
 2515 0f7e 0401     		.2byte	0x104
 2516 0f80 BA0F0000 		.4byte	0xfba
 2517 0f84 35       		.uleb128 0x35
 2518 0f85 E3070000 		.4byte	0x7e3
 2519 0f89 06000000 		.4byte	.LBB153
 2520 0f8d 06000000 		.4byte	.LBE153-.LBB153
 2521 0f91 04       		.byte	0x4
 2522 0f92 6301     		.2byte	0x163
 2523 0f94 B00F0000 		.4byte	0xfb0
 2524 0f98 36       		.uleb128 0x36
 2525 0f99 BC070000 		.4byte	0x7bc
 2526 0f9d 06000000 		.4byte	.LBB154
 2527 0fa1 06000000 		.4byte	.LBE154-.LBB154
 2528 0fa5 0D       		.byte	0xd
 2529 0fa6 6202     		.2byte	0x262
 2530 0fa8 2D       		.uleb128 0x2d
 2531 0fa9 C9070000 		.4byte	0x7c9
 2532 0fad 20       		.byte	0x20
 2533 0fae 00       		.byte	0
 2534 0faf 00       		.byte	0
 2535 0fb0 2E       		.uleb128 0x2e
 2536 0fb1 10000000 		.4byte	.LVL49
 2537 0fb5 46100000 		.4byte	0x1046
 2538 0fb9 00       		.byte	0
 2539 0fba 35       		.uleb128 0x35
 2540 0fbb 1C090000 		.4byte	0x91c
 2541 0fbf 1A000000 		.4byte	.LBB156
 2542 0fc3 0A000000 		.4byte	.LBE156-.LBB156
 2543 0fc7 02       		.byte	0x2
 2544 0fc8 0601     		.2byte	0x106
 2545 0fca 13100000 		.4byte	0x1013
 2546 0fce 33       		.uleb128 0x33
 2547 0fcf 1A000000 		.4byte	.LBB157
 2548 0fd3 0A000000 		.4byte	.LBE157-.LBB157
 2549 0fd7 34       		.uleb128 0x34
 2550 0fd8 29090000 		.4byte	0x929
 2551 0fdc 35       		.uleb128 0x35
 2552 0fdd EC070000 		.4byte	0x7ec
 2553 0fe1 1E000000 		.4byte	.LBB158
 2554 0fe5 06000000 		.4byte	.LBE158-.LBB158
 2555 0fe9 04       		.byte	0x4
 2556 0fea 7A01     		.2byte	0x17a
 2557 0fec 08100000 		.4byte	0x1008
 2558 0ff0 36       		.uleb128 0x36
 2559 0ff1 BC070000 		.4byte	0x7bc
 2560 0ff5 1E000000 		.4byte	.LBB159
 2561 0ff9 06000000 		.4byte	.LBE159-.LBB159
 2562 0ffd 0D       		.byte	0xd
 2563 0ffe 7502     		.2byte	0x275
 2564 1000 2D       		.uleb128 0x2d
 2565 1001 C9070000 		.4byte	0x7c9
ARM GAS  /tmp/cc5gG173.s 			page 46


 2566 1005 00       		.byte	0
 2567 1006 00       		.byte	0
 2568 1007 00       		.byte	0
 2569 1008 2E       		.uleb128 0x2e
 2570 1009 1E000000 		.4byte	.LVL52
 2571 100d 4D100000 		.4byte	0x104d
 2572 1011 00       		.byte	0
 2573 1012 00       		.byte	0
 2574 1013 37       		.uleb128 0x37
 2575 1014 18000000 		.4byte	.LVL50
 2576 1018 3F0E0000 		.4byte	0xe3f
 2577 101c 38       		.uleb128 0x38
 2578 101d 01       		.uleb128 0x1
 2579 101e 51       		.byte	0x51
 2580 101f 02       		.uleb128 0x2
 2581 1020 74       		.byte	0x74
 2582 1021 00       		.sleb128 0
 2583 1022 38       		.uleb128 0x38
 2584 1023 01       		.uleb128 0x1
 2585 1024 50       		.byte	0x50
 2586 1025 02       		.uleb128 0x2
 2587 1026 75       		.byte	0x75
 2588 1027 00       		.sleb128 0
 2589 1028 00       		.byte	0
 2590 1029 00       		.byte	0
 2591 102a 41       		.uleb128 0x41
 2592 102b F9000000 		.4byte	.LASF129
 2593 102f 12       		.byte	0x12
 2594 1030 0408     		.2byte	0x804
 2595 1032 36100000 		.4byte	0x1036
 2596 1036 14       		.uleb128 0x14
 2597 1037 A2000000 		.4byte	0xa2
 2598 103b 42       		.uleb128 0x42
 2599 103c 636800   		.ascii	"ch\000"
 2600 103f 01       		.byte	0x1
 2601 1040 C701     		.2byte	0x1c7
 2602 1042 DE030000 		.4byte	0x3de
 2603 1046 43       		.uleb128 0x43
 2604 1047 DC060000 		.4byte	.LASF130
 2605 104b 0F       		.byte	0xf
 2606 104c 4F       		.byte	0x4f
 2607 104d 43       		.uleb128 0x43
 2608 104e D2030000 		.4byte	.LASF131
 2609 1052 0F       		.byte	0xf
 2610 1053 50       		.byte	0x50
 2611 1054 44       		.uleb128 0x44
 2612 1055 62060000 		.4byte	.LASF133
 2613 1059 01       		.byte	0x1
 2614 105a D501     		.2byte	0x1d5
 2615 105c 6B100000 		.4byte	0x106b
 2616 1060 0D       		.uleb128 0xd
 2617 1061 32020000 		.4byte	0x232
 2618 1065 0D       		.uleb128 0xd
 2619 1066 05010000 		.4byte	0x105
 2620 106a 00       		.byte	0
 2621 106b 45       		.uleb128 0x45
 2622 106c 64050000 		.4byte	.LASF142
ARM GAS  /tmp/cc5gG173.s 			page 47


 2623 1070 01       		.byte	0x1
 2624 1071 D101     		.2byte	0x1d1
 2625 1073 32020000 		.4byte	0x232
 2626 1077 81100000 		.4byte	0x1081
 2627 107b 0D       		.uleb128 0xd
 2628 107c 32020000 		.4byte	0x232
 2629 1080 00       		.byte	0
 2630 1081 46       		.uleb128 0x46
 2631 1082 99010000 		.4byte	.LASF132
 2632 1086 01       		.byte	0x1
 2633 1087 D601     		.2byte	0x1d6
 2634 1089 47       		.uleb128 0x47
 2635 108a FF010000 		.4byte	.LASF134
 2636 108e 05       		.byte	0x5
 2637 108f 6C       		.byte	0x6c
 2638 1090 9A100000 		.4byte	0x109a
 2639 1094 0D       		.uleb128 0xd
 2640 1095 8B070000 		.4byte	0x78b
 2641 1099 00       		.byte	0
 2642 109a 44       		.uleb128 0x44
 2643 109b 46050000 		.4byte	.LASF135
 2644 109f 01       		.byte	0x1
 2645 10a0 D301     		.2byte	0x1d3
 2646 10a2 AC100000 		.4byte	0x10ac
 2647 10a6 0D       		.uleb128 0xd
 2648 10a7 E4000000 		.4byte	0xe4
 2649 10ab 00       		.byte	0
 2650 10ac 47       		.uleb128 0x47
 2651 10ad 43070000 		.4byte	.LASF136
 2652 10b1 05       		.byte	0x5
 2653 10b2 68       		.byte	0x68
 2654 10b3 BD100000 		.4byte	0x10bd
 2655 10b7 0D       		.uleb128 0xd
 2656 10b8 8B070000 		.4byte	0x78b
 2657 10bc 00       		.byte	0
 2658 10bd 48       		.uleb128 0x48
 2659 10be 22070000 		.4byte	.LASF137
 2660 10c2 01       		.byte	0x1
 2661 10c3 D401     		.2byte	0x1d4
 2662 10c5 05010000 		.4byte	0x105
 2663 10c9 0D       		.uleb128 0xd
 2664 10ca E4000000 		.4byte	0xe4
 2665 10ce 0D       		.uleb128 0xd
 2666 10cf 4F040000 		.4byte	0x44f
 2667 10d3 00       		.byte	0
 2668 10d4 00       		.byte	0
 2669              		.section	.debug_abbrev,"",%progbits
 2670              	.Ldebug_abbrev0:
 2671 0000 01       		.uleb128 0x1
 2672 0001 11       		.uleb128 0x11
 2673 0002 01       		.byte	0x1
 2674 0003 25       		.uleb128 0x25
 2675 0004 0E       		.uleb128 0xe
 2676 0005 13       		.uleb128 0x13
 2677 0006 0B       		.uleb128 0xb
 2678 0007 03       		.uleb128 0x3
 2679 0008 0E       		.uleb128 0xe
ARM GAS  /tmp/cc5gG173.s 			page 48


 2680 0009 1B       		.uleb128 0x1b
 2681 000a 0E       		.uleb128 0xe
 2682 000b 55       		.uleb128 0x55
 2683 000c 17       		.uleb128 0x17
 2684 000d 11       		.uleb128 0x11
 2685 000e 01       		.uleb128 0x1
 2686 000f 10       		.uleb128 0x10
 2687 0010 17       		.uleb128 0x17
 2688 0011 00       		.byte	0
 2689 0012 00       		.byte	0
 2690 0013 02       		.uleb128 0x2
 2691 0014 24       		.uleb128 0x24
 2692 0015 00       		.byte	0
 2693 0016 0B       		.uleb128 0xb
 2694 0017 0B       		.uleb128 0xb
 2695 0018 3E       		.uleb128 0x3e
 2696 0019 0B       		.uleb128 0xb
 2697 001a 03       		.uleb128 0x3
 2698 001b 08       		.uleb128 0x8
 2699 001c 00       		.byte	0
 2700 001d 00       		.byte	0
 2701 001e 03       		.uleb128 0x3
 2702 001f 24       		.uleb128 0x24
 2703 0020 00       		.byte	0
 2704 0021 0B       		.uleb128 0xb
 2705 0022 0B       		.uleb128 0xb
 2706 0023 3E       		.uleb128 0x3e
 2707 0024 0B       		.uleb128 0xb
 2708 0025 03       		.uleb128 0x3
 2709 0026 0E       		.uleb128 0xe
 2710 0027 00       		.byte	0
 2711 0028 00       		.byte	0
 2712 0029 04       		.uleb128 0x4
 2713 002a 16       		.uleb128 0x16
 2714 002b 00       		.byte	0
 2715 002c 03       		.uleb128 0x3
 2716 002d 0E       		.uleb128 0xe
 2717 002e 3A       		.uleb128 0x3a
 2718 002f 0B       		.uleb128 0xb
 2719 0030 3B       		.uleb128 0x3b
 2720 0031 0B       		.uleb128 0xb
 2721 0032 49       		.uleb128 0x49
 2722 0033 13       		.uleb128 0x13
 2723 0034 00       		.byte	0
 2724 0035 00       		.byte	0
 2725 0036 05       		.uleb128 0x5
 2726 0037 13       		.uleb128 0x13
 2727 0038 01       		.byte	0x1
 2728 0039 03       		.uleb128 0x3
 2729 003a 0E       		.uleb128 0xe
 2730 003b 0B       		.uleb128 0xb
 2731 003c 0B       		.uleb128 0xb
 2732 003d 3A       		.uleb128 0x3a
 2733 003e 0B       		.uleb128 0xb
 2734 003f 3B       		.uleb128 0x3b
 2735 0040 0B       		.uleb128 0xb
 2736 0041 01       		.uleb128 0x1
ARM GAS  /tmp/cc5gG173.s 			page 49


 2737 0042 13       		.uleb128 0x13
 2738 0043 00       		.byte	0
 2739 0044 00       		.byte	0
 2740 0045 06       		.uleb128 0x6
 2741 0046 0D       		.uleb128 0xd
 2742 0047 00       		.byte	0
 2743 0048 03       		.uleb128 0x3
 2744 0049 0E       		.uleb128 0xe
 2745 004a 3A       		.uleb128 0x3a
 2746 004b 0B       		.uleb128 0xb
 2747 004c 3B       		.uleb128 0x3b
 2748 004d 0B       		.uleb128 0xb
 2749 004e 49       		.uleb128 0x49
 2750 004f 13       		.uleb128 0x13
 2751 0050 38       		.uleb128 0x38
 2752 0051 0B       		.uleb128 0xb
 2753 0052 00       		.byte	0
 2754 0053 00       		.byte	0
 2755 0054 07       		.uleb128 0x7
 2756 0055 0D       		.uleb128 0xd
 2757 0056 00       		.byte	0
 2758 0057 03       		.uleb128 0x3
 2759 0058 08       		.uleb128 0x8
 2760 0059 3A       		.uleb128 0x3a
 2761 005a 0B       		.uleb128 0xb
 2762 005b 3B       		.uleb128 0x3b
 2763 005c 0B       		.uleb128 0xb
 2764 005d 49       		.uleb128 0x49
 2765 005e 13       		.uleb128 0x13
 2766 005f 38       		.uleb128 0x38
 2767 0060 0B       		.uleb128 0xb
 2768 0061 00       		.byte	0
 2769 0062 00       		.byte	0
 2770 0063 08       		.uleb128 0x8
 2771 0064 0D       		.uleb128 0xd
 2772 0065 00       		.byte	0
 2773 0066 03       		.uleb128 0x3
 2774 0067 08       		.uleb128 0x8
 2775 0068 3A       		.uleb128 0x3a
 2776 0069 0B       		.uleb128 0xb
 2777 006a 3B       		.uleb128 0x3b
 2778 006b 05       		.uleb128 0x5
 2779 006c 49       		.uleb128 0x49
 2780 006d 13       		.uleb128 0x13
 2781 006e 38       		.uleb128 0x38
 2782 006f 0B       		.uleb128 0xb
 2783 0070 00       		.byte	0
 2784 0071 00       		.byte	0
 2785 0072 09       		.uleb128 0x9
 2786 0073 0D       		.uleb128 0xd
 2787 0074 00       		.byte	0
 2788 0075 03       		.uleb128 0x3
 2789 0076 0E       		.uleb128 0xe
 2790 0077 3A       		.uleb128 0x3a
 2791 0078 0B       		.uleb128 0xb
 2792 0079 3B       		.uleb128 0x3b
 2793 007a 05       		.uleb128 0x5
ARM GAS  /tmp/cc5gG173.s 			page 50


 2794 007b 49       		.uleb128 0x49
 2795 007c 13       		.uleb128 0x13
 2796 007d 38       		.uleb128 0x38
 2797 007e 0B       		.uleb128 0xb
 2798 007f 00       		.byte	0
 2799 0080 00       		.byte	0
 2800 0081 0A       		.uleb128 0xa
 2801 0082 0F       		.uleb128 0xf
 2802 0083 00       		.byte	0
 2803 0084 0B       		.uleb128 0xb
 2804 0085 0B       		.uleb128 0xb
 2805 0086 49       		.uleb128 0x49
 2806 0087 13       		.uleb128 0x13
 2807 0088 00       		.byte	0
 2808 0089 00       		.byte	0
 2809 008a 0B       		.uleb128 0xb
 2810 008b 13       		.uleb128 0x13
 2811 008c 01       		.byte	0x1
 2812 008d 03       		.uleb128 0x3
 2813 008e 0E       		.uleb128 0xe
 2814 008f 0B       		.uleb128 0xb
 2815 0090 0B       		.uleb128 0xb
 2816 0091 3A       		.uleb128 0x3a
 2817 0092 0B       		.uleb128 0xb
 2818 0093 3B       		.uleb128 0x3b
 2819 0094 05       		.uleb128 0x5
 2820 0095 01       		.uleb128 0x1
 2821 0096 13       		.uleb128 0x13
 2822 0097 00       		.byte	0
 2823 0098 00       		.byte	0
 2824 0099 0C       		.uleb128 0xc
 2825 009a 15       		.uleb128 0x15
 2826 009b 01       		.byte	0x1
 2827 009c 27       		.uleb128 0x27
 2828 009d 19       		.uleb128 0x19
 2829 009e 01       		.uleb128 0x1
 2830 009f 13       		.uleb128 0x13
 2831 00a0 00       		.byte	0
 2832 00a1 00       		.byte	0
 2833 00a2 0D       		.uleb128 0xd
 2834 00a3 05       		.uleb128 0x5
 2835 00a4 00       		.byte	0
 2836 00a5 49       		.uleb128 0x49
 2837 00a6 13       		.uleb128 0x13
 2838 00a7 00       		.byte	0
 2839 00a8 00       		.byte	0
 2840 00a9 0E       		.uleb128 0xe
 2841 00aa 0F       		.uleb128 0xf
 2842 00ab 00       		.byte	0
 2843 00ac 0B       		.uleb128 0xb
 2844 00ad 0B       		.uleb128 0xb
 2845 00ae 00       		.byte	0
 2846 00af 00       		.byte	0
 2847 00b0 0F       		.uleb128 0xf
 2848 00b1 13       		.uleb128 0x13
 2849 00b2 01       		.byte	0x1
 2850 00b3 0B       		.uleb128 0xb
ARM GAS  /tmp/cc5gG173.s 			page 51


 2851 00b4 0B       		.uleb128 0xb
 2852 00b5 3A       		.uleb128 0x3a
 2853 00b6 0B       		.uleb128 0xb
 2854 00b7 3B       		.uleb128 0x3b
 2855 00b8 0B       		.uleb128 0xb
 2856 00b9 01       		.uleb128 0x1
 2857 00ba 13       		.uleb128 0x13
 2858 00bb 00       		.byte	0
 2859 00bc 00       		.byte	0
 2860 00bd 10       		.uleb128 0x10
 2861 00be 17       		.uleb128 0x17
 2862 00bf 01       		.byte	0x1
 2863 00c0 0B       		.uleb128 0xb
 2864 00c1 0B       		.uleb128 0xb
 2865 00c2 3A       		.uleb128 0x3a
 2866 00c3 0B       		.uleb128 0xb
 2867 00c4 3B       		.uleb128 0x3b
 2868 00c5 0B       		.uleb128 0xb
 2869 00c6 01       		.uleb128 0x1
 2870 00c7 13       		.uleb128 0x13
 2871 00c8 00       		.byte	0
 2872 00c9 00       		.byte	0
 2873 00ca 11       		.uleb128 0x11
 2874 00cb 0D       		.uleb128 0xd
 2875 00cc 00       		.byte	0
 2876 00cd 03       		.uleb128 0x3
 2877 00ce 0E       		.uleb128 0xe
 2878 00cf 3A       		.uleb128 0x3a
 2879 00d0 0B       		.uleb128 0xb
 2880 00d1 3B       		.uleb128 0x3b
 2881 00d2 0B       		.uleb128 0xb
 2882 00d3 49       		.uleb128 0x49
 2883 00d4 13       		.uleb128 0x13
 2884 00d5 00       		.byte	0
 2885 00d6 00       		.byte	0
 2886 00d7 12       		.uleb128 0x12
 2887 00d8 0D       		.uleb128 0xd
 2888 00d9 00       		.byte	0
 2889 00da 03       		.uleb128 0x3
 2890 00db 0E       		.uleb128 0xe
 2891 00dc 3A       		.uleb128 0x3a
 2892 00dd 0B       		.uleb128 0xb
 2893 00de 3B       		.uleb128 0x3b
 2894 00df 05       		.uleb128 0x5
 2895 00e0 49       		.uleb128 0x49
 2896 00e1 13       		.uleb128 0x13
 2897 00e2 00       		.byte	0
 2898 00e3 00       		.byte	0
 2899 00e4 13       		.uleb128 0x13
 2900 00e5 26       		.uleb128 0x26
 2901 00e6 00       		.byte	0
 2902 00e7 49       		.uleb128 0x49
 2903 00e8 13       		.uleb128 0x13
 2904 00e9 00       		.byte	0
 2905 00ea 00       		.byte	0
 2906 00eb 14       		.uleb128 0x14
 2907 00ec 35       		.uleb128 0x35
ARM GAS  /tmp/cc5gG173.s 			page 52


 2908 00ed 00       		.byte	0
 2909 00ee 49       		.uleb128 0x49
 2910 00ef 13       		.uleb128 0x13
 2911 00f0 00       		.byte	0
 2912 00f1 00       		.byte	0
 2913 00f2 15       		.uleb128 0x15
 2914 00f3 2E       		.uleb128 0x2e
 2915 00f4 01       		.byte	0x1
 2916 00f5 03       		.uleb128 0x3
 2917 00f6 0E       		.uleb128 0xe
 2918 00f7 3A       		.uleb128 0x3a
 2919 00f8 0B       		.uleb128 0xb
 2920 00f9 3B       		.uleb128 0x3b
 2921 00fa 05       		.uleb128 0x5
 2922 00fb 27       		.uleb128 0x27
 2923 00fc 19       		.uleb128 0x19
 2924 00fd 20       		.uleb128 0x20
 2925 00fe 0B       		.uleb128 0xb
 2926 00ff 01       		.uleb128 0x1
 2927 0100 13       		.uleb128 0x13
 2928 0101 00       		.byte	0
 2929 0102 00       		.byte	0
 2930 0103 16       		.uleb128 0x16
 2931 0104 05       		.uleb128 0x5
 2932 0105 00       		.byte	0
 2933 0106 03       		.uleb128 0x3
 2934 0107 0E       		.uleb128 0xe
 2935 0108 3A       		.uleb128 0x3a
 2936 0109 0B       		.uleb128 0xb
 2937 010a 3B       		.uleb128 0x3b
 2938 010b 05       		.uleb128 0x5
 2939 010c 49       		.uleb128 0x49
 2940 010d 13       		.uleb128 0x13
 2941 010e 00       		.byte	0
 2942 010f 00       		.byte	0
 2943 0110 17       		.uleb128 0x17
 2944 0111 2E       		.uleb128 0x2e
 2945 0112 00       		.byte	0
 2946 0113 03       		.uleb128 0x3
 2947 0114 0E       		.uleb128 0xe
 2948 0115 3A       		.uleb128 0x3a
 2949 0116 0B       		.uleb128 0xb
 2950 0117 3B       		.uleb128 0x3b
 2951 0118 05       		.uleb128 0x5
 2952 0119 27       		.uleb128 0x27
 2953 011a 19       		.uleb128 0x19
 2954 011b 49       		.uleb128 0x49
 2955 011c 13       		.uleb128 0x13
 2956 011d 20       		.uleb128 0x20
 2957 011e 0B       		.uleb128 0xb
 2958 011f 00       		.byte	0
 2959 0120 00       		.byte	0
 2960 0121 18       		.uleb128 0x18
 2961 0122 2E       		.uleb128 0x2e
 2962 0123 00       		.byte	0
 2963 0124 03       		.uleb128 0x3
 2964 0125 0E       		.uleb128 0xe
ARM GAS  /tmp/cc5gG173.s 			page 53


 2965 0126 3A       		.uleb128 0x3a
 2966 0127 0B       		.uleb128 0xb
 2967 0128 3B       		.uleb128 0x3b
 2968 0129 05       		.uleb128 0x5
 2969 012a 27       		.uleb128 0x27
 2970 012b 19       		.uleb128 0x19
 2971 012c 20       		.uleb128 0x20
 2972 012d 0B       		.uleb128 0xb
 2973 012e 00       		.byte	0
 2974 012f 00       		.byte	0
 2975 0130 19       		.uleb128 0x19
 2976 0131 05       		.uleb128 0x5
 2977 0132 00       		.byte	0
 2978 0133 03       		.uleb128 0x3
 2979 0134 08       		.uleb128 0x8
 2980 0135 3A       		.uleb128 0x3a
 2981 0136 0B       		.uleb128 0xb
 2982 0137 3B       		.uleb128 0x3b
 2983 0138 05       		.uleb128 0x5
 2984 0139 49       		.uleb128 0x49
 2985 013a 13       		.uleb128 0x13
 2986 013b 00       		.byte	0
 2987 013c 00       		.byte	0
 2988 013d 1A       		.uleb128 0x1a
 2989 013e 2E       		.uleb128 0x2e
 2990 013f 01       		.byte	0x1
 2991 0140 03       		.uleb128 0x3
 2992 0141 0E       		.uleb128 0xe
 2993 0142 3A       		.uleb128 0x3a
 2994 0143 0B       		.uleb128 0xb
 2995 0144 3B       		.uleb128 0x3b
 2996 0145 05       		.uleb128 0x5
 2997 0146 27       		.uleb128 0x27
 2998 0147 19       		.uleb128 0x19
 2999 0148 49       		.uleb128 0x49
 3000 0149 13       		.uleb128 0x13
 3001 014a 20       		.uleb128 0x20
 3002 014b 0B       		.uleb128 0xb
 3003 014c 01       		.uleb128 0x1
 3004 014d 13       		.uleb128 0x13
 3005 014e 00       		.byte	0
 3006 014f 00       		.byte	0
 3007 0150 1B       		.uleb128 0x1b
 3008 0151 34       		.uleb128 0x34
 3009 0152 00       		.byte	0
 3010 0153 03       		.uleb128 0x3
 3011 0154 08       		.uleb128 0x8
 3012 0155 3A       		.uleb128 0x3a
 3013 0156 0B       		.uleb128 0xb
 3014 0157 3B       		.uleb128 0x3b
 3015 0158 05       		.uleb128 0x5
 3016 0159 49       		.uleb128 0x49
 3017 015a 13       		.uleb128 0x13
 3018 015b 00       		.byte	0
 3019 015c 00       		.byte	0
 3020 015d 1C       		.uleb128 0x1c
 3021 015e 2E       		.uleb128 0x2e
ARM GAS  /tmp/cc5gG173.s 			page 54


 3022 015f 00       		.byte	0
 3023 0160 03       		.uleb128 0x3
 3024 0161 0E       		.uleb128 0xe
 3025 0162 3A       		.uleb128 0x3a
 3026 0163 0B       		.uleb128 0xb
 3027 0164 3B       		.uleb128 0x3b
 3028 0165 0B       		.uleb128 0xb
 3029 0166 27       		.uleb128 0x27
 3030 0167 19       		.uleb128 0x19
 3031 0168 49       		.uleb128 0x49
 3032 0169 13       		.uleb128 0x13
 3033 016a 20       		.uleb128 0x20
 3034 016b 0B       		.uleb128 0xb
 3035 016c 00       		.byte	0
 3036 016d 00       		.byte	0
 3037 016e 1D       		.uleb128 0x1d
 3038 016f 2E       		.uleb128 0x2e
 3039 0170 01       		.byte	0x1
 3040 0171 03       		.uleb128 0x3
 3041 0172 0E       		.uleb128 0xe
 3042 0173 3A       		.uleb128 0x3a
 3043 0174 0B       		.uleb128 0xb
 3044 0175 3B       		.uleb128 0x3b
 3045 0176 05       		.uleb128 0x5
 3046 0177 27       		.uleb128 0x27
 3047 0178 19       		.uleb128 0x19
 3048 0179 11       		.uleb128 0x11
 3049 017a 01       		.uleb128 0x1
 3050 017b 12       		.uleb128 0x12
 3051 017c 06       		.uleb128 0x6
 3052 017d 40       		.uleb128 0x40
 3053 017e 18       		.uleb128 0x18
 3054 017f 9742     		.uleb128 0x2117
 3055 0181 19       		.uleb128 0x19
 3056 0182 01       		.uleb128 0x1
 3057 0183 13       		.uleb128 0x13
 3058 0184 00       		.byte	0
 3059 0185 00       		.byte	0
 3060 0186 1E       		.uleb128 0x1e
 3061 0187 05       		.uleb128 0x5
 3062 0188 00       		.byte	0
 3063 0189 03       		.uleb128 0x3
 3064 018a 08       		.uleb128 0x8
 3065 018b 3A       		.uleb128 0x3a
 3066 018c 0B       		.uleb128 0xb
 3067 018d 3B       		.uleb128 0x3b
 3068 018e 05       		.uleb128 0x5
 3069 018f 49       		.uleb128 0x49
 3070 0190 13       		.uleb128 0x13
 3071 0191 02       		.uleb128 0x2
 3072 0192 18       		.uleb128 0x18
 3073 0193 00       		.byte	0
 3074 0194 00       		.byte	0
 3075 0195 1F       		.uleb128 0x1f
 3076 0196 05       		.uleb128 0x5
 3077 0197 00       		.byte	0
 3078 0198 03       		.uleb128 0x3
ARM GAS  /tmp/cc5gG173.s 			page 55


 3079 0199 08       		.uleb128 0x8
 3080 019a 3A       		.uleb128 0x3a
 3081 019b 0B       		.uleb128 0xb
 3082 019c 3B       		.uleb128 0x3b
 3083 019d 05       		.uleb128 0x5
 3084 019e 49       		.uleb128 0x49
 3085 019f 13       		.uleb128 0x13
 3086 01a0 02       		.uleb128 0x2
 3087 01a1 17       		.uleb128 0x17
 3088 01a2 00       		.byte	0
 3089 01a3 00       		.byte	0
 3090 01a4 20       		.uleb128 0x20
 3091 01a5 34       		.uleb128 0x34
 3092 01a6 00       		.byte	0
 3093 01a7 03       		.uleb128 0x3
 3094 01a8 08       		.uleb128 0x8
 3095 01a9 3A       		.uleb128 0x3a
 3096 01aa 0B       		.uleb128 0xb
 3097 01ab 3B       		.uleb128 0x3b
 3098 01ac 05       		.uleb128 0x5
 3099 01ad 49       		.uleb128 0x49
 3100 01ae 13       		.uleb128 0x13
 3101 01af 02       		.uleb128 0x2
 3102 01b0 17       		.uleb128 0x17
 3103 01b1 00       		.byte	0
 3104 01b2 00       		.byte	0
 3105 01b3 21       		.uleb128 0x21
 3106 01b4 2E       		.uleb128 0x2e
 3107 01b5 01       		.byte	0x1
 3108 01b6 3F       		.uleb128 0x3f
 3109 01b7 19       		.uleb128 0x19
 3110 01b8 03       		.uleb128 0x3
 3111 01b9 0E       		.uleb128 0xe
 3112 01ba 3A       		.uleb128 0x3a
 3113 01bb 0B       		.uleb128 0xb
 3114 01bc 3B       		.uleb128 0x3b
 3115 01bd 0B       		.uleb128 0xb
 3116 01be 27       		.uleb128 0x27
 3117 01bf 19       		.uleb128 0x19
 3118 01c0 11       		.uleb128 0x11
 3119 01c1 01       		.uleb128 0x1
 3120 01c2 12       		.uleb128 0x12
 3121 01c3 06       		.uleb128 0x6
 3122 01c4 40       		.uleb128 0x40
 3123 01c5 18       		.uleb128 0x18
 3124 01c6 9742     		.uleb128 0x2117
 3125 01c8 19       		.uleb128 0x19
 3126 01c9 01       		.uleb128 0x1
 3127 01ca 13       		.uleb128 0x13
 3128 01cb 00       		.byte	0
 3129 01cc 00       		.byte	0
 3130 01cd 22       		.uleb128 0x22
 3131 01ce 05       		.uleb128 0x5
 3132 01cf 00       		.byte	0
 3133 01d0 03       		.uleb128 0x3
 3134 01d1 08       		.uleb128 0x8
 3135 01d2 3A       		.uleb128 0x3a
ARM GAS  /tmp/cc5gG173.s 			page 56


 3136 01d3 0B       		.uleb128 0xb
 3137 01d4 3B       		.uleb128 0x3b
 3138 01d5 0B       		.uleb128 0xb
 3139 01d6 49       		.uleb128 0x49
 3140 01d7 13       		.uleb128 0x13
 3141 01d8 02       		.uleb128 0x2
 3142 01d9 18       		.uleb128 0x18
 3143 01da 00       		.byte	0
 3144 01db 00       		.byte	0
 3145 01dc 23       		.uleb128 0x23
 3146 01dd 34       		.uleb128 0x34
 3147 01de 00       		.byte	0
 3148 01df 03       		.uleb128 0x3
 3149 01e0 0E       		.uleb128 0xe
 3150 01e1 49       		.uleb128 0x49
 3151 01e2 13       		.uleb128 0x13
 3152 01e3 34       		.uleb128 0x34
 3153 01e4 19       		.uleb128 0x19
 3154 01e5 00       		.byte	0
 3155 01e6 00       		.byte	0
 3156 01e7 24       		.uleb128 0x24
 3157 01e8 1D       		.uleb128 0x1d
 3158 01e9 01       		.byte	0x1
 3159 01ea 31       		.uleb128 0x31
 3160 01eb 13       		.uleb128 0x13
 3161 01ec 11       		.uleb128 0x11
 3162 01ed 01       		.uleb128 0x1
 3163 01ee 12       		.uleb128 0x12
 3164 01ef 06       		.uleb128 0x6
 3165 01f0 58       		.uleb128 0x58
 3166 01f1 0B       		.uleb128 0xb
 3167 01f2 59       		.uleb128 0x59
 3168 01f3 0B       		.uleb128 0xb
 3169 01f4 00       		.byte	0
 3170 01f5 00       		.byte	0
 3171 01f6 25       		.uleb128 0x25
 3172 01f7 05       		.uleb128 0x5
 3173 01f8 00       		.byte	0
 3174 01f9 31       		.uleb128 0x31
 3175 01fa 13       		.uleb128 0x13
 3176 01fb 02       		.uleb128 0x2
 3177 01fc 18       		.uleb128 0x18
 3178 01fd 00       		.byte	0
 3179 01fe 00       		.byte	0
 3180 01ff 26       		.uleb128 0x26
 3181 0200 01       		.uleb128 0x1
 3182 0201 01       		.byte	0x1
 3183 0202 49       		.uleb128 0x49
 3184 0203 13       		.uleb128 0x13
 3185 0204 01       		.uleb128 0x1
 3186 0205 13       		.uleb128 0x13
 3187 0206 00       		.byte	0
 3188 0207 00       		.byte	0
 3189 0208 27       		.uleb128 0x27
 3190 0209 21       		.uleb128 0x21
 3191 020a 00       		.byte	0
 3192 020b 49       		.uleb128 0x49
ARM GAS  /tmp/cc5gG173.s 			page 57


 3193 020c 13       		.uleb128 0x13
 3194 020d 2F       		.uleb128 0x2f
 3195 020e 0B       		.uleb128 0xb
 3196 020f 00       		.byte	0
 3197 0210 00       		.byte	0
 3198 0211 28       		.uleb128 0x28
 3199 0212 34       		.uleb128 0x34
 3200 0213 00       		.byte	0
 3201 0214 03       		.uleb128 0x3
 3202 0215 0E       		.uleb128 0xe
 3203 0216 49       		.uleb128 0x49
 3204 0217 13       		.uleb128 0x13
 3205 0218 34       		.uleb128 0x34
 3206 0219 19       		.uleb128 0x19
 3207 021a 1C       		.uleb128 0x1c
 3208 021b 0E       		.uleb128 0xe
 3209 021c 00       		.byte	0
 3210 021d 00       		.byte	0
 3211 021e 29       		.uleb128 0x29
 3212 021f 05       		.uleb128 0x5
 3213 0220 00       		.byte	0
 3214 0221 03       		.uleb128 0x3
 3215 0222 08       		.uleb128 0x8
 3216 0223 3A       		.uleb128 0x3a
 3217 0224 0B       		.uleb128 0xb
 3218 0225 3B       		.uleb128 0x3b
 3219 0226 0B       		.uleb128 0xb
 3220 0227 49       		.uleb128 0x49
 3221 0228 13       		.uleb128 0x13
 3222 0229 02       		.uleb128 0x2
 3223 022a 17       		.uleb128 0x17
 3224 022b 00       		.byte	0
 3225 022c 00       		.byte	0
 3226 022d 2A       		.uleb128 0x2a
 3227 022e 1D       		.uleb128 0x1d
 3228 022f 01       		.byte	0x1
 3229 0230 31       		.uleb128 0x31
 3230 0231 13       		.uleb128 0x13
 3231 0232 52       		.uleb128 0x52
 3232 0233 01       		.uleb128 0x1
 3233 0234 55       		.uleb128 0x55
 3234 0235 17       		.uleb128 0x17
 3235 0236 58       		.uleb128 0x58
 3236 0237 0B       		.uleb128 0xb
 3237 0238 59       		.uleb128 0x59
 3238 0239 0B       		.uleb128 0xb
 3239 023a 01       		.uleb128 0x1
 3240 023b 13       		.uleb128 0x13
 3241 023c 00       		.byte	0
 3242 023d 00       		.byte	0
 3243 023e 2B       		.uleb128 0x2b
 3244 023f 1D       		.uleb128 0x1d
 3245 0240 01       		.byte	0x1
 3246 0241 31       		.uleb128 0x31
 3247 0242 13       		.uleb128 0x13
 3248 0243 52       		.uleb128 0x52
 3249 0244 01       		.uleb128 0x1
ARM GAS  /tmp/cc5gG173.s 			page 58


 3250 0245 55       		.uleb128 0x55
 3251 0246 17       		.uleb128 0x17
 3252 0247 58       		.uleb128 0x58
 3253 0248 0B       		.uleb128 0xb
 3254 0249 59       		.uleb128 0x59
 3255 024a 05       		.uleb128 0x5
 3256 024b 01       		.uleb128 0x1
 3257 024c 13       		.uleb128 0x13
 3258 024d 00       		.byte	0
 3259 024e 00       		.byte	0
 3260 024f 2C       		.uleb128 0x2c
 3261 0250 1D       		.uleb128 0x1d
 3262 0251 01       		.byte	0x1
 3263 0252 31       		.uleb128 0x31
 3264 0253 13       		.uleb128 0x13
 3265 0254 52       		.uleb128 0x52
 3266 0255 01       		.uleb128 0x1
 3267 0256 55       		.uleb128 0x55
 3268 0257 17       		.uleb128 0x17
 3269 0258 58       		.uleb128 0x58
 3270 0259 0B       		.uleb128 0xb
 3271 025a 59       		.uleb128 0x59
 3272 025b 05       		.uleb128 0x5
 3273 025c 00       		.byte	0
 3274 025d 00       		.byte	0
 3275 025e 2D       		.uleb128 0x2d
 3276 025f 05       		.uleb128 0x5
 3277 0260 00       		.byte	0
 3278 0261 31       		.uleb128 0x31
 3279 0262 13       		.uleb128 0x13
 3280 0263 1C       		.uleb128 0x1c
 3281 0264 0B       		.uleb128 0xb
 3282 0265 00       		.byte	0
 3283 0266 00       		.byte	0
 3284 0267 2E       		.uleb128 0x2e
 3285 0268 898201   		.uleb128 0x4109
 3286 026b 00       		.byte	0
 3287 026c 11       		.uleb128 0x11
 3288 026d 01       		.uleb128 0x1
 3289 026e 31       		.uleb128 0x31
 3290 026f 13       		.uleb128 0x13
 3291 0270 00       		.byte	0
 3292 0271 00       		.byte	0
 3293 0272 2F       		.uleb128 0x2f
 3294 0273 1D       		.uleb128 0x1d
 3295 0274 01       		.byte	0x1
 3296 0275 31       		.uleb128 0x31
 3297 0276 13       		.uleb128 0x13
 3298 0277 11       		.uleb128 0x11
 3299 0278 01       		.uleb128 0x1
 3300 0279 12       		.uleb128 0x12
 3301 027a 06       		.uleb128 0x6
 3302 027b 58       		.uleb128 0x58
 3303 027c 0B       		.uleb128 0xb
 3304 027d 59       		.uleb128 0x59
 3305 027e 0B       		.uleb128 0xb
 3306 027f 01       		.uleb128 0x1
ARM GAS  /tmp/cc5gG173.s 			page 59


 3307 0280 13       		.uleb128 0x13
 3308 0281 00       		.byte	0
 3309 0282 00       		.byte	0
 3310 0283 30       		.uleb128 0x30
 3311 0284 05       		.uleb128 0x5
 3312 0285 00       		.byte	0
 3313 0286 31       		.uleb128 0x31
 3314 0287 13       		.uleb128 0x13
 3315 0288 02       		.uleb128 0x2
 3316 0289 17       		.uleb128 0x17
 3317 028a 00       		.byte	0
 3318 028b 00       		.byte	0
 3319 028c 31       		.uleb128 0x31
 3320 028d 0B       		.uleb128 0xb
 3321 028e 01       		.byte	0x1
 3322 028f 55       		.uleb128 0x55
 3323 0290 17       		.uleb128 0x17
 3324 0291 00       		.byte	0
 3325 0292 00       		.byte	0
 3326 0293 32       		.uleb128 0x32
 3327 0294 34       		.uleb128 0x34
 3328 0295 00       		.byte	0
 3329 0296 31       		.uleb128 0x31
 3330 0297 13       		.uleb128 0x13
 3331 0298 02       		.uleb128 0x2
 3332 0299 17       		.uleb128 0x17
 3333 029a 00       		.byte	0
 3334 029b 00       		.byte	0
 3335 029c 33       		.uleb128 0x33
 3336 029d 0B       		.uleb128 0xb
 3337 029e 01       		.byte	0x1
 3338 029f 11       		.uleb128 0x11
 3339 02a0 01       		.uleb128 0x1
 3340 02a1 12       		.uleb128 0x12
 3341 02a2 06       		.uleb128 0x6
 3342 02a3 00       		.byte	0
 3343 02a4 00       		.byte	0
 3344 02a5 34       		.uleb128 0x34
 3345 02a6 34       		.uleb128 0x34
 3346 02a7 00       		.byte	0
 3347 02a8 31       		.uleb128 0x31
 3348 02a9 13       		.uleb128 0x13
 3349 02aa 00       		.byte	0
 3350 02ab 00       		.byte	0
 3351 02ac 35       		.uleb128 0x35
 3352 02ad 1D       		.uleb128 0x1d
 3353 02ae 01       		.byte	0x1
 3354 02af 31       		.uleb128 0x31
 3355 02b0 13       		.uleb128 0x13
 3356 02b1 11       		.uleb128 0x11
 3357 02b2 01       		.uleb128 0x1
 3358 02b3 12       		.uleb128 0x12
 3359 02b4 06       		.uleb128 0x6
 3360 02b5 58       		.uleb128 0x58
 3361 02b6 0B       		.uleb128 0xb
 3362 02b7 59       		.uleb128 0x59
 3363 02b8 05       		.uleb128 0x5
ARM GAS  /tmp/cc5gG173.s 			page 60


 3364 02b9 01       		.uleb128 0x1
 3365 02ba 13       		.uleb128 0x13
 3366 02bb 00       		.byte	0
 3367 02bc 00       		.byte	0
 3368 02bd 36       		.uleb128 0x36
 3369 02be 1D       		.uleb128 0x1d
 3370 02bf 01       		.byte	0x1
 3371 02c0 31       		.uleb128 0x31
 3372 02c1 13       		.uleb128 0x13
 3373 02c2 11       		.uleb128 0x11
 3374 02c3 01       		.uleb128 0x1
 3375 02c4 12       		.uleb128 0x12
 3376 02c5 06       		.uleb128 0x6
 3377 02c6 58       		.uleb128 0x58
 3378 02c7 0B       		.uleb128 0xb
 3379 02c8 59       		.uleb128 0x59
 3380 02c9 05       		.uleb128 0x5
 3381 02ca 00       		.byte	0
 3382 02cb 00       		.byte	0
 3383 02cc 37       		.uleb128 0x37
 3384 02cd 898201   		.uleb128 0x4109
 3385 02d0 01       		.byte	0x1
 3386 02d1 11       		.uleb128 0x11
 3387 02d2 01       		.uleb128 0x1
 3388 02d3 31       		.uleb128 0x31
 3389 02d4 13       		.uleb128 0x13
 3390 02d5 00       		.byte	0
 3391 02d6 00       		.byte	0
 3392 02d7 38       		.uleb128 0x38
 3393 02d8 8A8201   		.uleb128 0x410a
 3394 02db 00       		.byte	0
 3395 02dc 02       		.uleb128 0x2
 3396 02dd 18       		.uleb128 0x18
 3397 02de 9142     		.uleb128 0x2111
 3398 02e0 18       		.uleb128 0x18
 3399 02e1 00       		.byte	0
 3400 02e2 00       		.byte	0
 3401 02e3 39       		.uleb128 0x39
 3402 02e4 34       		.uleb128 0x34
 3403 02e5 00       		.byte	0
 3404 02e6 03       		.uleb128 0x3
 3405 02e7 08       		.uleb128 0x8
 3406 02e8 3A       		.uleb128 0x3a
 3407 02e9 0B       		.uleb128 0xb
 3408 02ea 3B       		.uleb128 0x3b
 3409 02eb 0B       		.uleb128 0xb
 3410 02ec 49       		.uleb128 0x49
 3411 02ed 13       		.uleb128 0x13
 3412 02ee 00       		.byte	0
 3413 02ef 00       		.byte	0
 3414 02f0 3A       		.uleb128 0x3a
 3415 02f1 898201   		.uleb128 0x4109
 3416 02f4 00       		.byte	0
 3417 02f5 11       		.uleb128 0x11
 3418 02f6 01       		.uleb128 0x1
 3419 02f7 9542     		.uleb128 0x2115
 3420 02f9 19       		.uleb128 0x19
ARM GAS  /tmp/cc5gG173.s 			page 61


 3421 02fa 31       		.uleb128 0x31
 3422 02fb 13       		.uleb128 0x13
 3423 02fc 00       		.byte	0
 3424 02fd 00       		.byte	0
 3425 02fe 3B       		.uleb128 0x3b
 3426 02ff 898201   		.uleb128 0x4109
 3427 0302 01       		.byte	0x1
 3428 0303 11       		.uleb128 0x11
 3429 0304 01       		.uleb128 0x1
 3430 0305 31       		.uleb128 0x31
 3431 0306 13       		.uleb128 0x13
 3432 0307 01       		.uleb128 0x1
 3433 0308 13       		.uleb128 0x13
 3434 0309 00       		.byte	0
 3435 030a 00       		.byte	0
 3436 030b 3C       		.uleb128 0x3c
 3437 030c 2E       		.uleb128 0x2e
 3438 030d 01       		.byte	0x1
 3439 030e 3F       		.uleb128 0x3f
 3440 030f 19       		.uleb128 0x19
 3441 0310 03       		.uleb128 0x3
 3442 0311 0E       		.uleb128 0xe
 3443 0312 3A       		.uleb128 0x3a
 3444 0313 0B       		.uleb128 0xb
 3445 0314 3B       		.uleb128 0x3b
 3446 0315 0B       		.uleb128 0xb
 3447 0316 27       		.uleb128 0x27
 3448 0317 19       		.uleb128 0x19
 3449 0318 49       		.uleb128 0x49
 3450 0319 13       		.uleb128 0x13
 3451 031a 11       		.uleb128 0x11
 3452 031b 01       		.uleb128 0x1
 3453 031c 12       		.uleb128 0x12
 3454 031d 06       		.uleb128 0x6
 3455 031e 40       		.uleb128 0x40
 3456 031f 18       		.uleb128 0x18
 3457 0320 9742     		.uleb128 0x2117
 3458 0322 19       		.uleb128 0x19
 3459 0323 01       		.uleb128 0x1
 3460 0324 13       		.uleb128 0x13
 3461 0325 00       		.byte	0
 3462 0326 00       		.byte	0
 3463 0327 3D       		.uleb128 0x3d
 3464 0328 34       		.uleb128 0x34
 3465 0329 00       		.byte	0
 3466 032a 03       		.uleb128 0x3
 3467 032b 08       		.uleb128 0x8
 3468 032c 3A       		.uleb128 0x3a
 3469 032d 0B       		.uleb128 0xb
 3470 032e 3B       		.uleb128 0x3b
 3471 032f 0B       		.uleb128 0xb
 3472 0330 49       		.uleb128 0x49
 3473 0331 13       		.uleb128 0x13
 3474 0332 02       		.uleb128 0x2
 3475 0333 17       		.uleb128 0x17
 3476 0334 00       		.byte	0
 3477 0335 00       		.byte	0
ARM GAS  /tmp/cc5gG173.s 			page 62


 3478 0336 3E       		.uleb128 0x3e
 3479 0337 1D       		.uleb128 0x1d
 3480 0338 00       		.byte	0
 3481 0339 31       		.uleb128 0x31
 3482 033a 13       		.uleb128 0x13
 3483 033b 11       		.uleb128 0x11
 3484 033c 01       		.uleb128 0x1
 3485 033d 12       		.uleb128 0x12
 3486 033e 06       		.uleb128 0x6
 3487 033f 58       		.uleb128 0x58
 3488 0340 0B       		.uleb128 0xb
 3489 0341 59       		.uleb128 0x59
 3490 0342 0B       		.uleb128 0xb
 3491 0343 00       		.byte	0
 3492 0344 00       		.byte	0
 3493 0345 3F       		.uleb128 0x3f
 3494 0346 2E       		.uleb128 0x2e
 3495 0347 01       		.byte	0x1
 3496 0348 3F       		.uleb128 0x3f
 3497 0349 19       		.uleb128 0x19
 3498 034a 03       		.uleb128 0x3
 3499 034b 0E       		.uleb128 0xe
 3500 034c 3A       		.uleb128 0x3a
 3501 034d 0B       		.uleb128 0xb
 3502 034e 3B       		.uleb128 0x3b
 3503 034f 05       		.uleb128 0x5
 3504 0350 27       		.uleb128 0x27
 3505 0351 19       		.uleb128 0x19
 3506 0352 49       		.uleb128 0x49
 3507 0353 13       		.uleb128 0x13
 3508 0354 11       		.uleb128 0x11
 3509 0355 01       		.uleb128 0x1
 3510 0356 12       		.uleb128 0x12
 3511 0357 06       		.uleb128 0x6
 3512 0358 40       		.uleb128 0x40
 3513 0359 18       		.uleb128 0x18
 3514 035a 9742     		.uleb128 0x2117
 3515 035c 19       		.uleb128 0x19
 3516 035d 01       		.uleb128 0x1
 3517 035e 13       		.uleb128 0x13
 3518 035f 00       		.byte	0
 3519 0360 00       		.byte	0
 3520 0361 40       		.uleb128 0x40
 3521 0362 05       		.uleb128 0x5
 3522 0363 00       		.byte	0
 3523 0364 03       		.uleb128 0x3
 3524 0365 0E       		.uleb128 0xe
 3525 0366 3A       		.uleb128 0x3a
 3526 0367 0B       		.uleb128 0xb
 3527 0368 3B       		.uleb128 0x3b
 3528 0369 05       		.uleb128 0x5
 3529 036a 49       		.uleb128 0x49
 3530 036b 13       		.uleb128 0x13
 3531 036c 02       		.uleb128 0x2
 3532 036d 17       		.uleb128 0x17
 3533 036e 00       		.byte	0
 3534 036f 00       		.byte	0
ARM GAS  /tmp/cc5gG173.s 			page 63


 3535 0370 41       		.uleb128 0x41
 3536 0371 34       		.uleb128 0x34
 3537 0372 00       		.byte	0
 3538 0373 03       		.uleb128 0x3
 3539 0374 0E       		.uleb128 0xe
 3540 0375 3A       		.uleb128 0x3a
 3541 0376 0B       		.uleb128 0xb
 3542 0377 3B       		.uleb128 0x3b
 3543 0378 05       		.uleb128 0x5
 3544 0379 49       		.uleb128 0x49
 3545 037a 13       		.uleb128 0x13
 3546 037b 3F       		.uleb128 0x3f
 3547 037c 19       		.uleb128 0x19
 3548 037d 3C       		.uleb128 0x3c
 3549 037e 19       		.uleb128 0x19
 3550 037f 00       		.byte	0
 3551 0380 00       		.byte	0
 3552 0381 42       		.uleb128 0x42
 3553 0382 34       		.uleb128 0x34
 3554 0383 00       		.byte	0
 3555 0384 03       		.uleb128 0x3
 3556 0385 08       		.uleb128 0x8
 3557 0386 3A       		.uleb128 0x3a
 3558 0387 0B       		.uleb128 0xb
 3559 0388 3B       		.uleb128 0x3b
 3560 0389 05       		.uleb128 0x5
 3561 038a 49       		.uleb128 0x49
 3562 038b 13       		.uleb128 0x13
 3563 038c 3F       		.uleb128 0x3f
 3564 038d 19       		.uleb128 0x19
 3565 038e 3C       		.uleb128 0x3c
 3566 038f 19       		.uleb128 0x19
 3567 0390 00       		.byte	0
 3568 0391 00       		.byte	0
 3569 0392 43       		.uleb128 0x43
 3570 0393 2E       		.uleb128 0x2e
 3571 0394 00       		.byte	0
 3572 0395 3F       		.uleb128 0x3f
 3573 0396 19       		.uleb128 0x19
 3574 0397 03       		.uleb128 0x3
 3575 0398 0E       		.uleb128 0xe
 3576 0399 3A       		.uleb128 0x3a
 3577 039a 0B       		.uleb128 0xb
 3578 039b 3B       		.uleb128 0x3b
 3579 039c 0B       		.uleb128 0xb
 3580 039d 27       		.uleb128 0x27
 3581 039e 19       		.uleb128 0x19
 3582 039f 3C       		.uleb128 0x3c
 3583 03a0 19       		.uleb128 0x19
 3584 03a1 00       		.byte	0
 3585 03a2 00       		.byte	0
 3586 03a3 44       		.uleb128 0x44
 3587 03a4 2E       		.uleb128 0x2e
 3588 03a5 01       		.byte	0x1
 3589 03a6 3F       		.uleb128 0x3f
 3590 03a7 19       		.uleb128 0x19
 3591 03a8 03       		.uleb128 0x3
ARM GAS  /tmp/cc5gG173.s 			page 64


 3592 03a9 0E       		.uleb128 0xe
 3593 03aa 3A       		.uleb128 0x3a
 3594 03ab 0B       		.uleb128 0xb
 3595 03ac 3B       		.uleb128 0x3b
 3596 03ad 05       		.uleb128 0x5
 3597 03ae 27       		.uleb128 0x27
 3598 03af 19       		.uleb128 0x19
 3599 03b0 3C       		.uleb128 0x3c
 3600 03b1 19       		.uleb128 0x19
 3601 03b2 01       		.uleb128 0x1
 3602 03b3 13       		.uleb128 0x13
 3603 03b4 00       		.byte	0
 3604 03b5 00       		.byte	0
 3605 03b6 45       		.uleb128 0x45
 3606 03b7 2E       		.uleb128 0x2e
 3607 03b8 01       		.byte	0x1
 3608 03b9 3F       		.uleb128 0x3f
 3609 03ba 19       		.uleb128 0x19
 3610 03bb 03       		.uleb128 0x3
 3611 03bc 0E       		.uleb128 0xe
 3612 03bd 3A       		.uleb128 0x3a
 3613 03be 0B       		.uleb128 0xb
 3614 03bf 3B       		.uleb128 0x3b
 3615 03c0 05       		.uleb128 0x5
 3616 03c1 27       		.uleb128 0x27
 3617 03c2 19       		.uleb128 0x19
 3618 03c3 49       		.uleb128 0x49
 3619 03c4 13       		.uleb128 0x13
 3620 03c5 3C       		.uleb128 0x3c
 3621 03c6 19       		.uleb128 0x19
 3622 03c7 01       		.uleb128 0x1
 3623 03c8 13       		.uleb128 0x13
 3624 03c9 00       		.byte	0
 3625 03ca 00       		.byte	0
 3626 03cb 46       		.uleb128 0x46
 3627 03cc 2E       		.uleb128 0x2e
 3628 03cd 00       		.byte	0
 3629 03ce 3F       		.uleb128 0x3f
 3630 03cf 19       		.uleb128 0x19
 3631 03d0 03       		.uleb128 0x3
 3632 03d1 0E       		.uleb128 0xe
 3633 03d2 3A       		.uleb128 0x3a
 3634 03d3 0B       		.uleb128 0xb
 3635 03d4 3B       		.uleb128 0x3b
 3636 03d5 05       		.uleb128 0x5
 3637 03d6 27       		.uleb128 0x27
 3638 03d7 19       		.uleb128 0x19
 3639 03d8 3C       		.uleb128 0x3c
 3640 03d9 19       		.uleb128 0x19
 3641 03da 00       		.byte	0
 3642 03db 00       		.byte	0
 3643 03dc 47       		.uleb128 0x47
 3644 03dd 2E       		.uleb128 0x2e
 3645 03de 01       		.byte	0x1
 3646 03df 3F       		.uleb128 0x3f
 3647 03e0 19       		.uleb128 0x19
 3648 03e1 03       		.uleb128 0x3
ARM GAS  /tmp/cc5gG173.s 			page 65


 3649 03e2 0E       		.uleb128 0xe
 3650 03e3 3A       		.uleb128 0x3a
 3651 03e4 0B       		.uleb128 0xb
 3652 03e5 3B       		.uleb128 0x3b
 3653 03e6 0B       		.uleb128 0xb
 3654 03e7 27       		.uleb128 0x27
 3655 03e8 19       		.uleb128 0x19
 3656 03e9 3C       		.uleb128 0x3c
 3657 03ea 19       		.uleb128 0x19
 3658 03eb 01       		.uleb128 0x1
 3659 03ec 13       		.uleb128 0x13
 3660 03ed 00       		.byte	0
 3661 03ee 00       		.byte	0
 3662 03ef 48       		.uleb128 0x48
 3663 03f0 2E       		.uleb128 0x2e
 3664 03f1 01       		.byte	0x1
 3665 03f2 3F       		.uleb128 0x3f
 3666 03f3 19       		.uleb128 0x19
 3667 03f4 03       		.uleb128 0x3
 3668 03f5 0E       		.uleb128 0xe
 3669 03f6 3A       		.uleb128 0x3a
 3670 03f7 0B       		.uleb128 0xb
 3671 03f8 3B       		.uleb128 0x3b
 3672 03f9 05       		.uleb128 0x5
 3673 03fa 27       		.uleb128 0x27
 3674 03fb 19       		.uleb128 0x19
 3675 03fc 49       		.uleb128 0x49
 3676 03fd 13       		.uleb128 0x13
 3677 03fe 3C       		.uleb128 0x3c
 3678 03ff 19       		.uleb128 0x19
 3679 0400 00       		.byte	0
 3680 0401 00       		.byte	0
 3681 0402 00       		.byte	0
 3682              		.section	.debug_loc,"",%progbits
 3683              	.Ldebug_loc0:
 3684              	.LLST0:
 3685 0000 00000000 		.4byte	.LVL0
 3686 0004 14000000 		.4byte	.LVL3
 3687 0008 0100     		.2byte	0x1
 3688 000a 51       		.byte	0x51
 3689 000b 14000000 		.4byte	.LVL3
 3690 000f 20000000 		.4byte	.LFE172
 3691 0013 0400     		.2byte	0x4
 3692 0015 F3       		.byte	0xf3
 3693 0016 01       		.uleb128 0x1
 3694 0017 51       		.byte	0x51
 3695 0018 9F       		.byte	0x9f
 3696 0019 00000000 		.4byte	0
 3697 001d 00000000 		.4byte	0
 3698              	.LLST1:
 3699 0021 00000000 		.4byte	.LVL0
 3700 0025 04000000 		.4byte	.LVL1
 3701 0029 0100     		.2byte	0x1
 3702 002b 51       		.byte	0x51
 3703 002c 04000000 		.4byte	.LVL1
 3704 0030 16000000 		.4byte	.LVL4
 3705 0034 0100     		.2byte	0x1
ARM GAS  /tmp/cc5gG173.s 			page 66


 3706 0036 53       		.byte	0x53
 3707 0037 00000000 		.4byte	0
 3708 003b 00000000 		.4byte	0
 3709              	.LLST2:
 3710 003f 00000000 		.4byte	.LVL6
 3711 0043 0D000000 		.4byte	.LVL7-1
 3712 0047 0100     		.2byte	0x1
 3713 0049 50       		.byte	0x50
 3714 004a 0D000000 		.4byte	.LVL7-1
 3715 004e 2C000000 		.4byte	.LFE291
 3716 0052 0100     		.2byte	0x1
 3717 0054 54       		.byte	0x54
 3718 0055 00000000 		.4byte	0
 3719 0059 00000000 		.4byte	0
 3720              	.LLST3:
 3721 005d 14000000 		.4byte	.LVL8
 3722 0061 20000000 		.4byte	.LVL9
 3723 0065 0100     		.2byte	0x1
 3724 0067 54       		.byte	0x54
 3725 0068 00000000 		.4byte	0
 3726 006c 00000000 		.4byte	0
 3727              	.LLST4:
 3728 0070 14000000 		.4byte	.LVL8
 3729 0074 1F000000 		.4byte	.LVL9-1
 3730 0078 0100     		.2byte	0x1
 3731 007a 50       		.byte	0x50
 3732 007b 00000000 		.4byte	0
 3733 007f 00000000 		.4byte	0
 3734              	.LLST5:
 3735 0083 00000000 		.4byte	.LVL11
 3736 0087 12000000 		.4byte	.LVL13
 3737 008b 0100     		.2byte	0x1
 3738 008d 50       		.byte	0x50
 3739 008e 12000000 		.4byte	.LVL13
 3740 0092 16000000 		.4byte	.LVL14
 3741 0096 0400     		.2byte	0x4
 3742 0098 F3       		.byte	0xf3
 3743 0099 01       		.uleb128 0x1
 3744 009a 50       		.byte	0x50
 3745 009b 9F       		.byte	0x9f
 3746 009c 16000000 		.4byte	.LVL14
 3747 00a0 18000000 		.4byte	.LFE292
 3748 00a4 0100     		.2byte	0x1
 3749 00a6 50       		.byte	0x50
 3750 00a7 00000000 		.4byte	0
 3751 00ab 00000000 		.4byte	0
 3752              	.LLST7:
 3753 00af 06000000 		.4byte	.LVL12
 3754 00b3 12000000 		.4byte	.LVL13
 3755 00b7 0100     		.2byte	0x1
 3756 00b9 50       		.byte	0x50
 3757 00ba 12000000 		.4byte	.LVL13
 3758 00be 16000000 		.4byte	.LVL14
 3759 00c2 0400     		.2byte	0x4
 3760 00c4 F3       		.byte	0xf3
 3761 00c5 01       		.uleb128 0x1
 3762 00c6 50       		.byte	0x50
ARM GAS  /tmp/cc5gG173.s 			page 67


 3763 00c7 9F       		.byte	0x9f
 3764 00c8 00000000 		.4byte	0
 3765 00cc 00000000 		.4byte	0
 3766              	.LLST8:
 3767 00d0 06000000 		.4byte	.LVL12
 3768 00d4 15000000 		.4byte	.LVL14-1
 3769 00d8 0100     		.2byte	0x1
 3770 00da 53       		.byte	0x53
 3771 00db 00000000 		.4byte	0
 3772 00df 00000000 		.4byte	0
 3773              	.LLST9:
 3774 00e3 00000000 		.4byte	.LVL15
 3775 00e7 04000000 		.4byte	.LVL16
 3776 00eb 0100     		.2byte	0x1
 3777 00ed 50       		.byte	0x50
 3778 00ee 04000000 		.4byte	.LVL16
 3779 00f2 1E000000 		.4byte	.LFE294
 3780 00f6 0100     		.2byte	0x1
 3781 00f8 54       		.byte	0x54
 3782 00f9 00000000 		.4byte	0
 3783 00fd 00000000 		.4byte	0
 3784              	.LLST10:
 3785 0101 0A000000 		.4byte	.LVL17
 3786 0105 1C000000 		.4byte	.LVL19
 3787 0109 0100     		.2byte	0x1
 3788 010b 54       		.byte	0x54
 3789 010c 00000000 		.4byte	0
 3790 0110 00000000 		.4byte	0
 3791              	.LLST11:
 3792 0114 0A000000 		.4byte	.LVL17
 3793 0118 13000000 		.4byte	.LVL18-1
 3794 011c 0100     		.2byte	0x1
 3795 011e 50       		.byte	0x50
 3796 011f 00000000 		.4byte	0
 3797 0123 00000000 		.4byte	0
 3798              	.LLST12:
 3799 0127 00000000 		.4byte	.LVL20
 3800 012b 0D000000 		.4byte	.LVL21-1
 3801 012f 0100     		.2byte	0x1
 3802 0131 50       		.byte	0x50
 3803 0132 0D000000 		.4byte	.LVL21-1
 3804 0136 24000000 		.4byte	.LFE293
 3805 013a 0100     		.2byte	0x1
 3806 013c 54       		.byte	0x54
 3807 013d 00000000 		.4byte	0
 3808 0141 00000000 		.4byte	0
 3809              	.LLST13:
 3810 0145 00000000 		.4byte	.LVL25
 3811 0149 0C000000 		.4byte	.LVL27
 3812 014d 0100     		.2byte	0x1
 3813 014f 50       		.byte	0x50
 3814 0150 0C000000 		.4byte	.LVL27
 3815 0154 2C000000 		.4byte	.LVL33
 3816 0158 0100     		.2byte	0x1
 3817 015a 56       		.byte	0x56
 3818 015b 2C000000 		.4byte	.LVL33
 3819 015f 30000000 		.4byte	.LFE296
ARM GAS  /tmp/cc5gG173.s 			page 68


 3820 0163 0400     		.2byte	0x4
 3821 0165 F3       		.byte	0xf3
 3822 0166 01       		.uleb128 0x1
 3823 0167 50       		.byte	0x50
 3824 0168 9F       		.byte	0x9f
 3825 0169 00000000 		.4byte	0
 3826 016d 00000000 		.4byte	0
 3827              	.LLST14:
 3828 0171 06000000 		.4byte	.LVL26
 3829 0175 22000000 		.4byte	.LVL31
 3830 0179 0100     		.2byte	0x1
 3831 017b 54       		.byte	0x54
 3832 017c 00000000 		.4byte	0
 3833 0180 00000000 		.4byte	0
 3834              	.LLST15:
 3835 0184 22000000 		.4byte	.LVL31
 3836 0188 2C000000 		.4byte	.LVL33
 3837 018c 0100     		.2byte	0x1
 3838 018e 54       		.byte	0x54
 3839 018f 2C000000 		.4byte	.LVL33
 3840 0193 30000000 		.4byte	.LFE296
 3841 0197 0100     		.2byte	0x1
 3842 0199 50       		.byte	0x50
 3843 019a 00000000 		.4byte	0
 3844 019e 00000000 		.4byte	0
 3845              	.LLST16:
 3846 01a2 00000000 		.4byte	.LVL34
 3847 01a6 0D000000 		.4byte	.LVL35-1
 3848 01aa 0100     		.2byte	0x1
 3849 01ac 50       		.byte	0x50
 3850 01ad 0D000000 		.4byte	.LVL35-1
 3851 01b1 16000000 		.4byte	.LVL37
 3852 01b5 0100     		.2byte	0x1
 3853 01b7 54       		.byte	0x54
 3854 01b8 16000000 		.4byte	.LVL37
 3855 01bc 24000000 		.4byte	.LFE295
 3856 01c0 0400     		.2byte	0x4
 3857 01c2 F3       		.byte	0xf3
 3858 01c3 01       		.uleb128 0x1
 3859 01c4 50       		.byte	0x50
 3860 01c5 9F       		.byte	0x9f
 3861 01c6 00000000 		.4byte	0
 3862 01ca 00000000 		.4byte	0
 3863              	.LLST17:
 3864 01ce 16000000 		.4byte	.LVL37
 3865 01d2 19000000 		.4byte	.LVL38-1
 3866 01d6 0100     		.2byte	0x1
 3867 01d8 50       		.byte	0x50
 3868 01d9 19000000 		.4byte	.LVL38-1
 3869 01dd 24000000 		.4byte	.LFE295
 3870 01e1 0100     		.2byte	0x1
 3871 01e3 54       		.byte	0x54
 3872 01e4 00000000 		.4byte	0
 3873 01e8 00000000 		.4byte	0
 3874              	.LLST18:
 3875 01ec 00000000 		.4byte	.LVL39
 3876 01f0 0C000000 		.4byte	.LVL40
ARM GAS  /tmp/cc5gG173.s 			page 69


 3877 01f4 0100     		.2byte	0x1
 3878 01f6 50       		.byte	0x50
 3879 01f7 0C000000 		.4byte	.LVL40
 3880 01fb 28000000 		.4byte	.LVL44
 3881 01ff 0100     		.2byte	0x1
 3882 0201 54       		.byte	0x54
 3883 0202 28000000 		.4byte	.LVL44
 3884 0206 38000000 		.4byte	.LFE298
 3885 020a 0400     		.2byte	0x4
 3886 020c F3       		.byte	0xf3
 3887 020d 01       		.uleb128 0x1
 3888 020e 50       		.byte	0x50
 3889 020f 9F       		.byte	0x9f
 3890 0210 00000000 		.4byte	0
 3891 0214 00000000 		.4byte	0
 3892              	.LLST19:
 3893 0218 00000000 		.4byte	.LVL39
 3894 021c 11000000 		.4byte	.LVL41-1
 3895 0220 0100     		.2byte	0x1
 3896 0222 51       		.byte	0x51
 3897 0223 11000000 		.4byte	.LVL41-1
 3898 0227 34000000 		.4byte	.LVL47
 3899 022b 0100     		.2byte	0x1
 3900 022d 57       		.byte	0x57
 3901 022e 34000000 		.4byte	.LVL47
 3902 0232 38000000 		.4byte	.LFE298
 3903 0236 0400     		.2byte	0x4
 3904 0238 F3       		.byte	0xf3
 3905 0239 01       		.uleb128 0x1
 3906 023a 51       		.byte	0x51
 3907 023b 9F       		.byte	0x9f
 3908 023c 00000000 		.4byte	0
 3909 0240 00000000 		.4byte	0
 3910              	.LLST20:
 3911 0244 28000000 		.4byte	.LVL44
 3912 0248 2C000000 		.4byte	.LVL45
 3913 024c 0100     		.2byte	0x1
 3914 024e 50       		.byte	0x50
 3915 024f 2C000000 		.4byte	.LVL45
 3916 0253 34000000 		.4byte	.LVL47
 3917 0257 0100     		.2byte	0x1
 3918 0259 54       		.byte	0x54
 3919 025a 34000000 		.4byte	.LVL47
 3920 025e 38000000 		.4byte	.LFE298
 3921 0262 0100     		.2byte	0x1
 3922 0264 50       		.byte	0x50
 3923 0265 00000000 		.4byte	0
 3924 0269 00000000 		.4byte	0
 3925              	.LLST21:
 3926 026d 00000000 		.4byte	.LVL48
 3927 0271 0F000000 		.4byte	.LVL49-1
 3928 0275 0100     		.2byte	0x1
 3929 0277 50       		.byte	0x50
 3930 0278 0F000000 		.4byte	.LVL49-1
 3931 027c 28000000 		.4byte	.LFE297
 3932 0280 0100     		.2byte	0x1
 3933 0282 55       		.byte	0x55
ARM GAS  /tmp/cc5gG173.s 			page 70


 3934 0283 00000000 		.4byte	0
 3935 0287 00000000 		.4byte	0
 3936              	.LLST22:
 3937 028b 00000000 		.4byte	.LVL48
 3938 028f 0F000000 		.4byte	.LVL49-1
 3939 0293 0100     		.2byte	0x1
 3940 0295 51       		.byte	0x51
 3941 0296 0F000000 		.4byte	.LVL49-1
 3942 029a 1A000000 		.4byte	.LVL51
 3943 029e 0100     		.2byte	0x1
 3944 02a0 54       		.byte	0x54
 3945 02a1 1A000000 		.4byte	.LVL51
 3946 02a5 28000000 		.4byte	.LFE297
 3947 02a9 0400     		.2byte	0x4
 3948 02ab F3       		.byte	0xf3
 3949 02ac 01       		.uleb128 0x1
 3950 02ad 51       		.byte	0x51
 3951 02ae 9F       		.byte	0x9f
 3952 02af 00000000 		.4byte	0
 3953 02b3 00000000 		.4byte	0
 3954              	.LLST23:
 3955 02b7 1A000000 		.4byte	.LVL51
 3956 02bb 1D000000 		.4byte	.LVL52-1
 3957 02bf 0100     		.2byte	0x1
 3958 02c1 50       		.byte	0x50
 3959 02c2 1D000000 		.4byte	.LVL52-1
 3960 02c6 28000000 		.4byte	.LFE297
 3961 02ca 0100     		.2byte	0x1
 3962 02cc 54       		.byte	0x54
 3963 02cd 00000000 		.4byte	0
 3964 02d1 00000000 		.4byte	0
 3965              		.section	.debug_aranges,"",%progbits
 3966 0000 64000000 		.4byte	0x64
 3967 0004 0200     		.2byte	0x2
 3968 0006 00000000 		.4byte	.Ldebug_info0
 3969 000a 04       		.byte	0x4
 3970 000b 00       		.byte	0
 3971 000c 0000     		.2byte	0
 3972 000e 0000     		.2byte	0
 3973 0010 00000000 		.4byte	.LFB172
 3974 0014 20000000 		.4byte	.LFE172-.LFB172
 3975 0018 00000000 		.4byte	.LFB290
 3976 001c 06000000 		.4byte	.LFE290-.LFB290
 3977 0020 00000000 		.4byte	.LFB291
 3978 0024 2C000000 		.4byte	.LFE291-.LFB291
 3979 0028 00000000 		.4byte	.LFB292
 3980 002c 18000000 		.4byte	.LFE292-.LFB292
 3981 0030 00000000 		.4byte	.LFB294
 3982 0034 1E000000 		.4byte	.LFE294-.LFB294
 3983 0038 00000000 		.4byte	.LFB293
 3984 003c 24000000 		.4byte	.LFE293-.LFB293
 3985 0040 00000000 		.4byte	.LFB296
 3986 0044 30000000 		.4byte	.LFE296-.LFB296
 3987 0048 00000000 		.4byte	.LFB295
 3988 004c 24000000 		.4byte	.LFE295-.LFB295
 3989 0050 00000000 		.4byte	.LFB298
 3990 0054 38000000 		.4byte	.LFE298-.LFB298
ARM GAS  /tmp/cc5gG173.s 			page 71


 3991 0058 00000000 		.4byte	.LFB297
 3992 005c 28000000 		.4byte	.LFE297-.LFB297
 3993 0060 00000000 		.4byte	0
 3994 0064 00000000 		.4byte	0
 3995              		.section	.debug_ranges,"",%progbits
 3996              	.Ldebug_ranges0:
 3997 0000 02000000 		.4byte	.LBB55
 3998 0004 04000000 		.4byte	.LBE55
 3999 0008 06000000 		.4byte	.LBB64
 4000 000c 0E000000 		.4byte	.LBE64
 4001 0010 00000000 		.4byte	0
 4002 0014 00000000 		.4byte	0
 4003 0018 02000000 		.4byte	.LBB57
 4004 001c 04000000 		.4byte	.LBE57
 4005 0020 06000000 		.4byte	.LBB62
 4006 0024 0A000000 		.4byte	.LBE62
 4007 0028 00000000 		.4byte	0
 4008 002c 00000000 		.4byte	0
 4009 0030 14000000 		.4byte	.LBB67
 4010 0034 18000000 		.4byte	.LBE67
 4011 0038 1A000000 		.4byte	.LBB70
 4012 003c 1C000000 		.4byte	.LBE70
 4013 0040 00000000 		.4byte	0
 4014 0044 00000000 		.4byte	0
 4015 0048 02000000 		.4byte	.LBB95
 4016 004c 04000000 		.4byte	.LBE95
 4017 0050 06000000 		.4byte	.LBB104
 4018 0054 0E000000 		.4byte	.LBE104
 4019 0058 00000000 		.4byte	0
 4020 005c 00000000 		.4byte	0
 4021 0060 02000000 		.4byte	.LBB97
 4022 0064 04000000 		.4byte	.LBE97
 4023 0068 06000000 		.4byte	.LBB102
 4024 006c 0A000000 		.4byte	.LBE102
 4025 0070 00000000 		.4byte	0
 4026 0074 00000000 		.4byte	0
 4027 0078 02000000 		.4byte	.LBB122
 4028 007c 04000000 		.4byte	.LBE122
 4029 0080 06000000 		.4byte	.LBB131
 4030 0084 0E000000 		.4byte	.LBE131
 4031 0088 00000000 		.4byte	0
 4032 008c 00000000 		.4byte	0
 4033 0090 02000000 		.4byte	.LBB124
 4034 0094 04000000 		.4byte	.LBE124
 4035 0098 06000000 		.4byte	.LBB129
 4036 009c 0A000000 		.4byte	.LBE129
 4037 00a0 00000000 		.4byte	0
 4038 00a4 00000000 		.4byte	0
 4039 00a8 00000000 		.4byte	.LFB172
 4040 00ac 20000000 		.4byte	.LFE172
 4041 00b0 00000000 		.4byte	.LFB290
 4042 00b4 06000000 		.4byte	.LFE290
 4043 00b8 00000000 		.4byte	.LFB291
 4044 00bc 2C000000 		.4byte	.LFE291
 4045 00c0 00000000 		.4byte	.LFB292
 4046 00c4 18000000 		.4byte	.LFE292
 4047 00c8 00000000 		.4byte	.LFB294
ARM GAS  /tmp/cc5gG173.s 			page 72


 4048 00cc 1E000000 		.4byte	.LFE294
 4049 00d0 00000000 		.4byte	.LFB293
 4050 00d4 24000000 		.4byte	.LFE293
 4051 00d8 00000000 		.4byte	.LFB296
 4052 00dc 30000000 		.4byte	.LFE296
 4053 00e0 00000000 		.4byte	.LFB295
 4054 00e4 24000000 		.4byte	.LFE295
 4055 00e8 00000000 		.4byte	.LFB298
 4056 00ec 38000000 		.4byte	.LFE298
 4057 00f0 00000000 		.4byte	.LFB297
 4058 00f4 28000000 		.4byte	.LFE297
 4059 00f8 00000000 		.4byte	0
 4060 00fc 00000000 		.4byte	0
 4061              		.section	.debug_line,"",%progbits
 4062              	.Ldebug_line0:
 4063 0000 29040000 		.section	.debug_str,"MS",%progbits,1
 4063      02001C02 
 4063      00000201 
 4063      FB0E0D00 
 4063      01010101 
 4064              	.LASF52:
 4065 0000 72656164 		.ascii	"ready_list_t\000"
 4065      795F6C69 
 4065      73745F74 
 4065      00
 4066              	.LASF94:
 4067 000d 77747472 		.ascii	"wttrp\000"
 4067      7000
 4068              	.LASF58:
 4069 0013 64656C74 		.ascii	"delta\000"
 4069      6100
 4070              	.LASF91:
 4071 0019 7264796D 		.ascii	"rdymsg\000"
 4071      736700
 4072              	.LASF16:
 4073 0020 75696E74 		.ascii	"uint64_t\000"
 4073      36345F74 
 4073      00
 4074              	.LASF71:
 4075 0029 6B65726E 		.ascii	"kernel_stats\000"
 4075      656C5F73 
 4075      74617473 
 4075      00
 4076              	.LASF5:
 4077 0036 5F5F7569 		.ascii	"__uint8_t\000"
 4077      6E74385F 
 4077      7400
 4078              	.LASF51:
 4079 0040 70726576 		.ascii	"prev\000"
 4079      00
 4080              	.LASF78:
 4081 0045 706F7274 		.ascii	"port_intctx\000"
 4081      5F696E74 
 4081      63747800 
 4082              	.LASF50:
 4083 0051 63685F74 		.ascii	"ch_threads_queue\000"
 4083      68726561 
ARM GAS  /tmp/cc5gG173.s 			page 73


 4083      64735F71 
 4083      75657565 
 4083      00
 4084              	.LASF63:
 4085 0062 73797374 		.ascii	"system_debug_t\000"
 4085      656D5F64 
 4085      65627567 
 4085      5F7400
 4086              	.LASF110:
 4087 0071 71756575 		.ascii	"queue_init\000"
 4087      655F696E 
 4087      697400
 4088              	.LASF107:
 4089 007c 706F7274 		.ascii	"port_lock\000"
 4089      5F6C6F63 
 4089      6B00
 4090              	.LASF82:
 4091 0086 776F7273 		.ascii	"worst\000"
 4091      7400
 4092              	.LASF85:
 4093 008c 74696D65 		.ascii	"time_measurement_t\000"
 4093      5F6D6561 
 4093      73757265 
 4093      6D656E74 
 4093      5F7400
 4094              	.LASF122:
 4095 009f 6368436F 		.ascii	"chCondBroadcastI\000"
 4095      6E644272 
 4095      6F616463 
 4095      61737449 
 4095      00
 4096              	.LASF12:
 4097 00b0 6C6F6E67 		.ascii	"long long unsigned int\000"
 4097      206C6F6E 
 4097      6720756E 
 4097      7369676E 
 4097      65642069 
 4098              	.LASF92:
 4099 00c7 65786974 		.ascii	"exitcode\000"
 4099      636F6465 
 4099      00
 4100              	.LASF70:
 4101 00d0 6D61696E 		.ascii	"mainthread\000"
 4101      74687265 
 4101      616400
 4102              	.LASF95:
 4103 00db 73656E74 		.ascii	"sentmsg\000"
 4103      6D736700 
 4104              	.LASF60:
 4105 00e3 76697274 		.ascii	"virtual_timers_list_t\000"
 4105      75616C5F 
 4105      74696D65 
 4105      72735F6C 
 4105      6973745F 
 4106              	.LASF129:
 4107 00f9 49544D5F 		.ascii	"ITM_RxBuffer\000"
 4107      52784275 
ARM GAS  /tmp/cc5gG173.s 			page 74


 4107      66666572 
 4107      00
 4108              	.LASF48:
 4109 0106 6E657874 		.ascii	"next\000"
 4109      00
 4110              	.LASF18:
 4111 010b 72747469 		.ascii	"rttime_t\000"
 4111      6D655F74 
 4111      00
 4112              	.LASF10:
 4113 0114 6C6F6E67 		.ascii	"long long int\000"
 4113      206C6F6E 
 4113      6720696E 
 4113      7400
 4114              	.LASF1:
 4115 0122 7369676E 		.ascii	"signed char\000"
 4115      65642063 
 4115      68617200 
 4116              	.LASF105:
 4117 012e 636F6E64 		.ascii	"condition_variable_t\000"
 4117      6974696F 
 4117      6E5F7661 
 4117      72696162 
 4117      6C655F74 
 4118              	.LASF111:
 4119 0143 62617365 		.ascii	"basePri\000"
 4119      50726900 
 4120              	.LASF69:
 4121 014b 76746C69 		.ascii	"vtlist\000"
 4121      737400
 4122              	.LASF108:
 4123 0152 706F7274 		.ascii	"port_unlock\000"
 4123      5F756E6C 
 4123      6F636B00 
 4124              	.LASF38:
 4125 015e 6D736771 		.ascii	"msgqueue\000"
 4125      75657565 
 4125      00
 4126              	.LASF34:
 4127 0167 73746174 		.ascii	"state\000"
 4127      6500
 4128              	.LASF7:
 4129 016d 6C6F6E67 		.ascii	"long int\000"
 4129      20696E74 
 4129      00
 4130              	.LASF20:
 4131 0176 74737461 		.ascii	"tstate_t\000"
 4131      74655F74 
 4131      00
 4132              	.LASF112:
 4133 017f 71756575 		.ascii	"queue_notempty\000"
 4133      655F6E6F 
 4133      74656D70 
 4133      747900
 4134              	.LASF59:
 4135 018e 66756E63 		.ascii	"func\000"
 4135      00
ARM GAS  /tmp/cc5gG173.s 			page 75


 4136              	.LASF43:
 4137 0193 73746174 		.ascii	"stats\000"
 4137      7300
 4138              	.LASF132:
 4139 0199 63685363 		.ascii	"chSchRescheduleS\000"
 4139      68526573 
 4139      63686564 
 4139      756C6553 
 4139      00
 4140              	.LASF8:
 4141 01aa 5F5F7569 		.ascii	"__uint32_t\000"
 4141      6E743332 
 4141      5F7400
 4142              	.LASF75:
 4143 01b5 72656761 		.ascii	"regarm_t\000"
 4143      726D5F74 
 4143      00
 4144              	.LASF64:
 4145 01be 63685F73 		.ascii	"ch_system_debug\000"
 4145      79737465 
 4145      6D5F6465 
 4145      62756700 
 4146              	.LASF37:
 4147 01ce 77616974 		.ascii	"waiting\000"
 4147      696E6700 
 4148              	.LASF103:
 4149 01d6 6D757465 		.ascii	"mutex_t\000"
 4149      785F7400 
 4150              	.LASF120:
 4151 01de 6368436F 		.ascii	"chCondSignal\000"
 4151      6E645369 
 4151      676E616C 
 4151      00
 4152              	.LASF73:
 4153 01eb 73797369 		.ascii	"sysinterval_t\000"
 4153      6E746572 
 4153      76616C5F 
 4153      7400
 4154              	.LASF25:
 4155 01f9 636E745F 		.ascii	"cnt_t\000"
 4155      7400
 4156              	.LASF134:
 4157 01ff 63684D74 		.ascii	"chMtxUnlockS\000"
 4157      78556E6C 
 4157      6F636B53 
 4157      00
 4158              	.LASF0:
 4159 020c 756E7369 		.ascii	"unsigned int\000"
 4159      676E6564 
 4159      20696E74 
 4159      00
 4160              	.LASF138:
 4161 0219 474E5520 		.ascii	"GNU C 4.9.3 20150529 (prerelease) -mcpu=cortex-m4 -"
 4161      4320342E 
 4161      392E3320 
 4161      32303135 
 4161      30353239 
ARM GAS  /tmp/cc5gG173.s 			page 76


 4162 024c 6D666C6F 		.ascii	"mfloat-abi=hard -mfpu=fpv4-sp-d16 -mno-thumb-interw"
 4162      61742D61 
 4162      62693D68 
 4162      61726420 
 4162      2D6D6670 
 4163 027f 6F726B20 		.ascii	"ork -mthumb -g -Os -fomit-frame-pointer -falign-fun"
 4163      2D6D7468 
 4163      756D6220 
 4163      2D67202D 
 4163      4F73202D 
 4164 02b2 6374696F 		.ascii	"ctions=16 -ffunction-sections -fdata-sections -fno-"
 4164      6E733D31 
 4164      36202D66 
 4164      66756E63 
 4164      74696F6E 
 4165 02e5 636F6D6D 		.ascii	"common -fsingle-precision-constant\000"
 4165      6F6E202D 
 4165      6673696E 
 4165      676C652D 
 4165      70726563 
 4166              	.LASF96:
 4167 0308 77747365 		.ascii	"wtsemp\000"
 4167      6D7000
 4168              	.LASF127:
 4169 030f 74696D65 		.ascii	"timeout\000"
 4169      6F757400 
 4170              	.LASF86:
 4171 0317 6E5F6972 		.ascii	"n_irq\000"
 4171      7100
 4172              	.LASF28:
 4173 031d 71756575 		.ascii	"queue\000"
 4173      6500
 4174              	.LASF42:
 4175 0323 6D706F6F 		.ascii	"mpool\000"
 4175      6C00
 4176              	.LASF4:
 4177 0329 73686F72 		.ascii	"short unsigned int\000"
 4177      7420756E 
 4177      7369676E 
 4177      65642069 
 4177      6E7400
 4178              	.LASF90:
 4179 033c 6B65726E 		.ascii	"kernel_stats_t\000"
 4179      656C5F73 
 4179      74617473 
 4179      5F7400
 4180              	.LASF46:
 4181 034b 63685F74 		.ascii	"ch_thread\000"
 4181      68726561 
 4181      6400
 4182              	.LASF32:
 4183 0355 6E616D65 		.ascii	"name\000"
 4183      00
 4184              	.LASF23:
 4185 035a 6D73675F 		.ascii	"msg_t\000"
 4185      7400
 4186              	.LASF83:
ARM GAS  /tmp/cc5gG173.s 			page 77


 4187 0360 6C617374 		.ascii	"last\000"
 4187      00
 4188              	.LASF26:
 4189 0365 75636E74 		.ascii	"ucnt_t\000"
 4189      5F7400
 4190              	.LASF39:
 4191 036c 6570656E 		.ascii	"epending\000"
 4191      64696E67 
 4191      00
 4192              	.LASF66:
 4193 0375 63685F73 		.ascii	"ch_system_t\000"
 4193      79737465 
 4193      6D5F7400 
 4194              	.LASF19:
 4195 0381 746D6F64 		.ascii	"tmode_t\000"
 4195      655F7400 
 4196              	.LASF89:
 4197 0389 6D5F6372 		.ascii	"m_crit_isr\000"
 4197      69745F69 
 4197      737200
 4198              	.LASF53:
 4199 0394 63685F72 		.ascii	"ch_ready_list\000"
 4199      65616479 
 4199      5F6C6973 
 4199      7400
 4200              	.LASF24:
 4201 03a2 6576656E 		.ascii	"eventmask_t\000"
 4201      746D6173 
 4201      6B5F7400 
 4202              	.LASF6:
 4203 03ae 5F5F696E 		.ascii	"__int32_t\000"
 4203      7433325F 
 4203      7400
 4204              	.LASF76:
 4205 03b8 73746B61 		.ascii	"stkalign_t\000"
 4205      6C69676E 
 4205      5F7400
 4206              	.LASF30:
 4207 03c3 6E657765 		.ascii	"newer\000"
 4207      7200
 4208              	.LASF41:
 4209 03c9 7265616C 		.ascii	"realprio\000"
 4209      7072696F 
 4209      00
 4210              	.LASF131:
 4211 03d2 5F737461 		.ascii	"_stats_stop_measure_crit_thd\000"
 4211      74735F73 
 4211      746F705F 
 4211      6D656173 
 4211      7572655F 
 4212              	.LASF74:
 4213 03ef 73697A65 		.ascii	"sizetype\000"
 4213      74797065 
 4213      00
 4214              	.LASF44:
 4215 03f8 74687265 		.ascii	"thread_reference_t\000"
 4215      61645F72 
ARM GAS  /tmp/cc5gG173.s 			page 78


 4215      65666572 
 4215      656E6365 
 4215      5F7400
 4216              	.LASF61:
 4217 040b 63685F76 		.ascii	"ch_virtual_timers_list\000"
 4217      69727475 
 4217      616C5F74 
 4217      696D6572 
 4217      735F6C69 
 4218              	.LASF104:
 4219 0422 636F6E64 		.ascii	"condition_variable\000"
 4219      6974696F 
 4219      6E5F7661 
 4219      72696162 
 4219      6C6500
 4220              	.LASF126:
 4221 0435 6368436F 		.ascii	"chCondWaitTimeoutS\000"
 4221      6E645761 
 4221      69745469 
 4221      6D656F75 
 4221      745300
 4222              	.LASF87:
 4223 0448 6E5F6374 		.ascii	"n_ctxswc\000"
 4223      78737763 
 4223      00
 4224              	.LASF77:
 4225 0451 706F7274 		.ascii	"port_context\000"
 4225      5F636F6E 
 4225      74657874 
 4225      00
 4226              	.LASF80:
 4227 045e 746D5F63 		.ascii	"tm_calibration_t\000"
 4227      616C6962 
 4227      72617469 
 4227      6F6E5F74 
 4227      00
 4228              	.LASF29:
 4229 046f 7072696F 		.ascii	"prio\000"
 4229      00
 4230              	.LASF123:
 4231 0474 6368436F 		.ascii	"chCondBroadcast\000"
 4231      6E644272 
 4231      6F616463 
 4231      61737400 
 4232              	.LASF54:
 4233 0484 63757272 		.ascii	"current\000"
 4233      656E7400 
 4234              	.LASF11:
 4235 048c 5F5F7569 		.ascii	"__uint64_t\000"
 4235      6E743634 
 4235      5F7400
 4236              	.LASF84:
 4237 0497 63756D75 		.ascii	"cumulative\000"
 4237      6C617469 
 4237      766500
 4238              	.LASF21:
 4239 04a2 74726566 		.ascii	"trefs_t\000"
ARM GAS  /tmp/cc5gG173.s 			page 79


 4239      735F7400 
 4240              	.LASF36:
 4241 04aa 72656673 		.ascii	"refs\000"
 4241      00
 4242              	.LASF56:
 4243 04af 76697274 		.ascii	"virtual_timer_t\000"
 4243      75616C5F 
 4243      74696D65 
 4243      725F7400 
 4244              	.LASF22:
 4245 04bf 74707269 		.ascii	"tprio_t\000"
 4245      6F5F7400 
 4246              	.LASF121:
 4247 04c7 6368436F 		.ascii	"chCondSignalI\000"
 4247      6E645369 
 4247      676E616C 
 4247      4900
 4248              	.LASF106:
 4249 04d5 5F426F6F 		.ascii	"_Bool\000"
 4249      6C00
 4250              	.LASF14:
 4251 04db 696E7433 		.ascii	"int32_t\000"
 4251      325F7400 
 4252              	.LASF2:
 4253 04e3 756E7369 		.ascii	"unsigned char\000"
 4253      676E6564 
 4253      20636861 
 4253      7200
 4254              	.LASF3:
 4255 04f1 73686F72 		.ascii	"short int\000"
 4255      7420696E 
 4255      7400
 4256              	.LASF62:
 4257 04fb 6C617374 		.ascii	"lasttime\000"
 4257      74696D65 
 4257      00
 4258              	.LASF98:
 4259 0504 65776D61 		.ascii	"ewmask\000"
 4259      736B00
 4260              	.LASF67:
 4261 050b 63685F73 		.ascii	"ch_system\000"
 4261      79737465 
 4261      6D00
 4262              	.LASF118:
 4263 0515 5F5F6675 		.ascii	"__func__\000"
 4263      6E635F5F 
 4263      00
 4264              	.LASF116:
 4265 051e 63685379 		.ascii	"chSysLock\000"
 4265      734C6F63 
 4265      6B00
 4266              	.LASF57:
 4267 0528 63685F76 		.ascii	"ch_virtual_timer\000"
 4267      69727475 
 4267      616C5F74 
 4267      696D6572 
 4267      00
ARM GAS  /tmp/cc5gG173.s 			page 80


 4268              	.LASF99:
 4269 0539 63685F73 		.ascii	"ch_semaphore\000"
 4269      656D6170 
 4269      686F7265 
 4269      00
 4270              	.LASF135:
 4271 0546 63685363 		.ascii	"chSchGoSleepS\000"
 4271      68476F53 
 4271      6C656570 
 4271      5300
 4272              	.LASF15:
 4273 0554 75696E74 		.ascii	"uint32_t\000"
 4273      33325F74 
 4273      00
 4274              	.LASF97:
 4275 055d 77746D74 		.ascii	"wtmtxp\000"
 4275      787000
 4276              	.LASF142:
 4277 0564 63685363 		.ascii	"chSchReadyI\000"
 4277      68526561 
 4277      64794900 
 4278              	.LASF47:
 4279 0570 63685F74 		.ascii	"ch_threads_list\000"
 4279      68726561 
 4279      64735F6C 
 4279      69737400 
 4280              	.LASF101:
 4281 0580 6F776E65 		.ascii	"owner\000"
 4281      7200
 4282              	.LASF115:
 4283 0586 63684D74 		.ascii	"chMtxGetNextMutexX\000"
 4283      78476574 
 4283      4E657874 
 4283      4D757465 
 4283      785800
 4284              	.LASF9:
 4285 0599 6C6F6E67 		.ascii	"long unsigned int\000"
 4285      20756E73 
 4285      69676E65 
 4285      6420696E 
 4285      7400
 4286              	.LASF33:
 4287 05ab 77616261 		.ascii	"wabase\000"
 4287      736500
 4288              	.LASF102:
 4289 05b2 63686172 		.ascii	"char\000"
 4289      00
 4290              	.LASF31:
 4291 05b7 6F6C6465 		.ascii	"older\000"
 4291      7200
 4292              	.LASF124:
 4293 05bd 6368436F 		.ascii	"chCondWaitS\000"
 4293      6E645761 
 4293      69745300 
 4294              	.LASF119:
 4295 05c9 6368436F 		.ascii	"chCondObjectInit\000"
 4295      6E644F62 
ARM GAS  /tmp/cc5gG173.s 			page 81


 4295      6A656374 
 4295      496E6974 
 4295      00
 4296              	.LASF81:
 4297 05da 62657374 		.ascii	"best\000"
 4297      00
 4298              	.LASF113:
 4299 05df 71756575 		.ascii	"queue_fifo_remove\000"
 4299      655F6669 
 4299      666F5F72 
 4299      656D6F76 
 4299      6500
 4300              	.LASF72:
 4301 05f1 73797374 		.ascii	"systime_t\000"
 4301      696D655F 
 4301      7400
 4302              	.LASF55:
 4303 05fb 76746675 		.ascii	"vtfunc_t\000"
 4303      6E635F74 
 4303      00
 4304              	.LASF109:
 4305 0604 5F5F7365 		.ascii	"__set_BASEPRI\000"
 4305      745F4241 
 4305      53455052 
 4305      4900
 4306              	.LASF65:
 4307 0612 70616E69 		.ascii	"panic_msg\000"
 4307      635F6D73 
 4307      6700
 4308              	.LASF79:
 4309 061c 6F666673 		.ascii	"offset\000"
 4309      657400
 4310              	.LASF140:
 4311 0623 2F686F6D 		.ascii	"/home/kozinalexey/f4by/ardupilot/build/F4BY\000"
 4311      652F6B6F 
 4311      7A696E61 
 4311      6C657865 
 4311      792F6634 
 4312              	.LASF17:
 4313 064f 7274636E 		.ascii	"rtcnt_t\000"
 4313      745F7400 
 4314              	.LASF125:
 4315 0657 6368436F 		.ascii	"chCondWait\000"
 4315      6E645761 
 4315      697400
 4316              	.LASF133:
 4317 0662 63685363 		.ascii	"chSchWakeupS\000"
 4317      6857616B 
 4317      65757053 
 4317      00
 4318              	.LASF49:
 4319 066f 74687265 		.ascii	"threads_queue_t\000"
 4319      6164735F 
 4319      71756575 
 4319      655F7400 
 4320              	.LASF100:
 4321 067f 63685F6D 		.ascii	"ch_mutex\000"
ARM GAS  /tmp/cc5gG173.s 			page 82


 4321      75746578 
 4321      00
 4322              	.LASF139:
 4323 0688 2E2E2F2E 		.ascii	"../../modules/ChibiOS/os/rt/src/chcond.c\000"
 4323      2E2F6D6F 
 4323      64756C65 
 4323      732F4368 
 4323      6962694F 
 4324              	.LASF27:
 4325 06b1 74687265 		.ascii	"thread_t\000"
 4325      61645F74 
 4325      00
 4326              	.LASF68:
 4327 06ba 726C6973 		.ascii	"rlist\000"
 4327      7400
 4328              	.LASF114:
 4329 06c0 63685468 		.ascii	"chThdGetSelfX\000"
 4329      64476574 
 4329      53656C66 
 4329      5800
 4330              	.LASF13:
 4331 06ce 75696E74 		.ascii	"uint8_t\000"
 4331      385F7400 
 4332              	.LASF35:
 4333 06d6 666C6167 		.ascii	"flags\000"
 4333      7300
 4334              	.LASF130:
 4335 06dc 5F737461 		.ascii	"_stats_start_measure_crit_thd\000"
 4335      74735F73 
 4335      74617274 
 4335      5F6D6561 
 4335      73757265 
 4336              	.LASF93:
 4337 06fa 77746F62 		.ascii	"wtobjp\000"
 4337      6A7000
 4338              	.LASF128:
 4339 0701 6368436F 		.ascii	"chCondWaitTimeout\000"
 4339      6E645761 
 4339      69745469 
 4339      6D656F75 
 4339      7400
 4340              	.LASF45:
 4341 0713 74687265 		.ascii	"threads_list_t\000"
 4341      6164735F 
 4341      6C697374 
 4341      5F7400
 4342              	.LASF137:
 4343 0722 63685363 		.ascii	"chSchGoSleepTimeoutS\000"
 4343      68476F53 
 4343      6C656570 
 4343      54696D65 
 4343      6F757453 
 4344              	.LASF117:
 4345 0737 63685379 		.ascii	"chSysUnlock\000"
 4345      73556E6C 
 4345      6F636B00 
 4346              	.LASF136:
ARM GAS  /tmp/cc5gG173.s 			page 83


 4347 0743 63684D74 		.ascii	"chMtxLockS\000"
 4347      784C6F63 
 4347      6B5300
 4348              	.LASF141:
 4349 074e 71756575 		.ascii	"queue_prio_insert\000"
 4349      655F7072 
 4349      696F5F69 
 4349      6E736572 
 4349      7400
 4350              	.LASF40:
 4351 0760 6D74786C 		.ascii	"mtxlist\000"
 4351      69737400 
 4352              	.LASF88:
 4353 0768 6D5F6372 		.ascii	"m_crit_thd\000"
 4353      69745F74 
 4353      686400
 4354              		.ident	"GCC: (15:4.9.3+svn231177-1) 4.9.3 20150529 (prerelease)"
ARM GAS  /tmp/cc5gG173.s 			page 84


DEFINED SYMBOLS
                            *ABS*:0000000000000000 chcond.c
     /tmp/cc5gG173.s:21     .text.queue_prio_insert:0000000000000000 $t
     /tmp/cc5gG173.s:25     .text.queue_prio_insert:0000000000000000 queue_prio_insert
     /tmp/cc5gG173.s:71     .text.chCondObjectInit:0000000000000000 $t
     /tmp/cc5gG173.s:76     .text.chCondObjectInit:0000000000000000 chCondObjectInit
     /tmp/cc5gG173.s:98     .text.chCondSignal:0000000000000000 $t
     /tmp/cc5gG173.s:103    .text.chCondSignal:0000000000000000 chCondSignal
     /tmp/cc5gG173.s:201    .text.chCondSignalI:0000000000000000 $t
     /tmp/cc5gG173.s:206    .text.chCondSignalI:0000000000000000 chCondSignalI
     /tmp/cc5gG173.s:249    .text.chCondBroadcastI:0000000000000000 $t
     /tmp/cc5gG173.s:254    .text.chCondBroadcastI:0000000000000000 chCondBroadcastI
     /tmp/cc5gG173.s:301    .text.chCondBroadcast:0000000000000000 $t
     /tmp/cc5gG173.s:306    .text.chCondBroadcast:0000000000000000 chCondBroadcast
     /tmp/cc5gG173.s:380    .text.chCondWaitS:0000000000000000 $t
     /tmp/cc5gG173.s:385    .text.chCondWaitS:0000000000000000 chCondWaitS
     /tmp/cc5gG173.s:444    .text.chCondWaitS:000000000000002c $d
     /tmp/cc5gG173.s:449    .text.chCondWait:0000000000000000 $t
     /tmp/cc5gG173.s:454    .text.chCondWait:0000000000000000 chCondWait
     /tmp/cc5gG173.s:529    .text.chCondWaitTimeoutS:0000000000000000 $t
     /tmp/cc5gG173.s:534    .text.chCondWaitTimeoutS:0000000000000000 chCondWaitTimeoutS
     /tmp/cc5gG173.s:607    .text.chCondWaitTimeoutS:0000000000000034 $d
     /tmp/cc5gG173.s:612    .text.chCondWaitTimeout:0000000000000000 $t
     /tmp/cc5gG173.s:617    .text.chCondWaitTimeout:0000000000000000 chCondWaitTimeout
                     .debug_frame:0000000000000010 $d

UNDEFINED SYMBOLS
_stats_start_measure_crit_thd
chSchWakeupS
_stats_stop_measure_crit_thd
chSchReadyI
chSchRescheduleS
chMtxUnlockS
chSchGoSleepS
chMtxLockS
ch
chSchGoSleepTimeoutS
