ARM GAS  /tmp/ccYGmlHj.s 			page 1


   1              		.syntax unified
   2              		.cpu cortex-m4
   3              		.eabi_attribute 27, 1
   4              		.eabi_attribute 28, 1
   5              		.fpu fpv4-sp-d16
   6              		.eabi_attribute 20, 1
   7              		.eabi_attribute 21, 1
   8              		.eabi_attribute 23, 3
   9              		.eabi_attribute 24, 1
  10              		.eabi_attribute 25, 1
  11              		.eabi_attribute 26, 1
  12              		.eabi_attribute 30, 4
  13              		.eabi_attribute 34, 1
  14              		.eabi_attribute 18, 4
  15              		.thumb
  16              		.file	"chevents.c"
  17              		.text
  18              	.Ltext0:
  19              		.cfi_sections	.debug_frame
  20              		.section	.text.chSysLock,"ax",%progbits
  21              		.align	1
  22              		.thumb
  23              		.thumb_func
  24              		.type	chSysLock, %function
  25              	chSysLock:
  26              	.LFB184:
  27              		.file 1 "../../modules/ChibiOS/os/rt/include/chsys.h"
  28              		.loc 1 353 0
  29              		.cfi_startproc
  30              		@ args = 0, pretend = 0, frame = 0
  31              		@ frame_needed = 0, uses_anonymous_args = 0
  32              		@ link register save eliminated.
  33              	.LVL0:
  34              	.LBB14:
  35              	.LBB15:
  36              	.LBB16:
  37              		.file 2 "../../modules/ChibiOS/os/common/ext/ARM/CMSIS/Core/Include/cmsis_gcc.h"
  38              		.loc 2 493 0
  39 0000 2023     		movs	r3, #32
  40              	@ 493 "../../modules/ChibiOS/os/common/ext/ARM/CMSIS/Core/Include/cmsis_gcc.h" 1
  41 0002 83F31188 		MSR basepri, r3
  42              	@ 0 "" 2
  43              		.thumb
  44              	.LBE16:
  45              	.LBE15:
  46              	.LBE14:
  47              		.loc 1 356 0
  48 0006 FFF7FEBF 		b	_stats_start_measure_crit_thd
  49              	.LVL1:
  50              		.cfi_endproc
  51              	.LFE184:
  52              		.size	chSysLock, .-chSysLock
  53              		.section	.text.chSysUnlock,"ax",%progbits
  54              		.align	1
  55              		.thumb
  56              		.thumb_func
  57              		.type	chSysUnlock, %function
ARM GAS  /tmp/ccYGmlHj.s 			page 2


  58              	chSysUnlock:
  59              	.LFB185:
  60              		.loc 1 365 0
  61              		.cfi_startproc
  62              		@ args = 0, pretend = 0, frame = 0
  63              		@ frame_needed = 0, uses_anonymous_args = 0
  64 0000 08B5     		push	{r3, lr}
  65              		.cfi_def_cfa_offset 8
  66              		.cfi_offset 3, -8
  67              		.cfi_offset 14, -4
  68              		.loc 1 368 0
  69 0002 FFF7FEFF 		bl	_stats_stop_measure_crit_thd
  70              	.LVL2:
  71              	.LBB17:
  72              	.LBB18:
  73              	.LBB19:
  74              		.loc 2 493 0
  75 0006 0023     		movs	r3, #0
  76              	@ 493 "../../modules/ChibiOS/os/common/ext/ARM/CMSIS/Core/Include/cmsis_gcc.h" 1
  77 0008 83F31188 		MSR basepri, r3
  78              	@ 0 "" 2
  79              		.thumb
  80 000c 08BD     		pop	{r3, pc}
  81              	.LBE19:
  82              	.LBE18:
  83              	.LBE17:
  84              		.cfi_endproc
  85              	.LFE185:
  86              		.size	chSysUnlock, .-chSysUnlock
  87              		.section	.text.chEvtRegisterMaskWithFlags,"ax",%progbits
  88              		.align	1
  89              		.global	chEvtRegisterMaskWithFlags
  90              		.thumb
  91              		.thumb_func
  92              		.type	chEvtRegisterMaskWithFlags, %function
  93              	chEvtRegisterMaskWithFlags:
  94              	.LFB290:
  95              		.file 3 "../../modules/ChibiOS/os/rt/src/chevents.c"
  96              		.loc 3 106 0
  97              		.cfi_startproc
  98              		@ args = 0, pretend = 0, frame = 0
  99              		@ frame_needed = 0, uses_anonymous_args = 0
 100              	.LVL3:
 101 0000 F8B5     		push	{r3, r4, r5, r6, r7, lr}
 102              		.cfi_def_cfa_offset 24
 103              		.cfi_offset 3, -24
 104              		.cfi_offset 4, -20
 105              		.cfi_offset 5, -16
 106              		.cfi_offset 6, -12
 107              		.cfi_offset 7, -8
 108              		.cfi_offset 14, -4
 109              		.loc 3 106 0
 110 0002 0546     		mov	r5, r0
 111 0004 0C46     		mov	r4, r1
 112 0006 1E46     		mov	r6, r3
 113 0008 1746     		mov	r7, r2
 114              		.loc 3 110 0
ARM GAS  /tmp/ccYGmlHj.s 			page 3


 115 000a FFF7FEFF 		bl	chSysLock
 116              	.LVL4:
 117              		.loc 3 111 0
 118 000e 2B68     		ldr	r3, [r5]
 119 0010 2360     		str	r3, [r4]
 120              		.loc 3 113 0
 121 0012 064B     		ldr	r3, .L4
 122              		.loc 3 112 0
 123 0014 2C60     		str	r4, [r5]
 124              		.loc 3 113 0
 125 0016 9B69     		ldr	r3, [r3, #24]
 126 0018 6360     		str	r3, [r4, #4]
 127              		.loc 3 115 0
 128 001a 0023     		movs	r3, #0
 129              		.loc 3 114 0
 130 001c A760     		str	r7, [r4, #8]
 131              		.loc 3 115 0
 132 001e E360     		str	r3, [r4, #12]
 133              		.loc 3 116 0
 134 0020 2661     		str	r6, [r4, #16]
 135              		.loc 3 118 0
 136 0022 BDE8F840 		pop	{r3, r4, r5, r6, r7, lr}
 137              		.cfi_restore 14
 138              		.cfi_restore 7
 139              		.cfi_restore 6
 140              		.cfi_restore 5
 141              		.cfi_restore 4
 142              		.cfi_restore 3
 143              		.cfi_def_cfa_offset 0
 144              	.LVL5:
 145              		.loc 3 117 0
 146 0026 FFF7FEBF 		b	chSysUnlock
 147              	.LVL6:
 148              	.L5:
 149 002a 00BF     		.align	2
 150              	.L4:
 151 002c 00000000 		.word	ch
 152              		.cfi_endproc
 153              	.LFE290:
 154              		.size	chEvtRegisterMaskWithFlags, .-chEvtRegisterMaskWithFlags
 155              		.section	.text.chEvtUnregister,"ax",%progbits
 156              		.align	1
 157              		.global	chEvtUnregister
 158              		.thumb
 159              		.thumb_func
 160              		.type	chEvtUnregister, %function
 161              	chEvtUnregister:
 162              	.LFB291:
 163              		.loc 3 133 0
 164              		.cfi_startproc
 165              		@ args = 0, pretend = 0, frame = 0
 166              		@ frame_needed = 0, uses_anonymous_args = 0
 167              	.LVL7:
 168 0000 38B5     		push	{r3, r4, r5, lr}
 169              		.cfi_def_cfa_offset 16
 170              		.cfi_offset 3, -16
 171              		.cfi_offset 4, -12
ARM GAS  /tmp/ccYGmlHj.s 			page 4


 172              		.cfi_offset 5, -8
 173              		.cfi_offset 14, -4
 174              		.loc 3 133 0
 175 0002 0446     		mov	r4, r0
 176              	.LVL8:
 177 0004 0D46     		mov	r5, r1
 178              		.loc 3 141 0
 179 0006 FFF7FEFF 		bl	chSysLock
 180              	.LVL9:
 181              		.loc 3 139 0
 182 000a 2246     		mov	r2, r4
 183              	.LVL10:
 184              	.L7:
 185              		.loc 3 143 0
 186 000c 1368     		ldr	r3, [r2]
 187 000e A342     		cmp	r3, r4
 188 0010 06D0     		beq	.L8
 189              		.loc 3 145 0
 190 0012 AB42     		cmp	r3, r5
 191 0014 02D1     		bne	.L10
 192              		.loc 3 146 0
 193 0016 2B68     		ldr	r3, [r5]
 194 0018 1360     		str	r3, [r2]
 195              		.loc 3 147 0
 196 001a 01E0     		b	.L8
 197              	.L10:
 198 001c 1A46     		mov	r2, r3
 199              	.LVL11:
 200 001e F5E7     		b	.L7
 201              	.LVL12:
 202              	.L8:
 203              		.loc 3 152 0
 204 0020 BDE83840 		pop	{r3, r4, r5, lr}
 205              		.cfi_restore 14
 206              		.cfi_restore 5
 207              		.cfi_restore 4
 208              		.cfi_restore 3
 209              		.cfi_def_cfa_offset 0
 210              	.LVL13:
 211              		.loc 3 151 0
 212 0024 FFF7FEBF 		b	chSysUnlock
 213              	.LVL14:
 214              		.cfi_endproc
 215              	.LFE291:
 216              		.size	chEvtUnregister, .-chEvtUnregister
 217              		.section	.text.chEvtGetAndClearEventsI,"ax",%progbits
 218              		.align	1
 219              		.global	chEvtGetAndClearEventsI
 220              		.thumb
 221              		.thumb_func
 222              		.type	chEvtGetAndClearEventsI, %function
 223              	chEvtGetAndClearEventsI:
 224              	.LFB292:
 225              		.loc 3 162 0
 226              		.cfi_startproc
 227              		@ args = 0, pretend = 0, frame = 0
 228              		@ frame_needed = 0, uses_anonymous_args = 0
ARM GAS  /tmp/ccYGmlHj.s 			page 5


 229              		@ link register save eliminated.
 230              	.LVL15:
 231              		.loc 3 165 0
 232 0000 034B     		ldr	r3, .L13
 233 0002 9A69     		ldr	r2, [r3, #24]
 234 0004 536B     		ldr	r3, [r2, #52]
 235              	.LVL16:
 236              		.loc 3 166 0
 237 0006 23EA0001 		bic	r1, r3, r0
 238 000a 5163     		str	r1, [r2, #52]
 239              		.loc 3 169 0
 240 000c 1840     		ands	r0, r0, r3
 241              	.LVL17:
 242 000e 7047     		bx	lr
 243              	.L14:
 244              		.align	2
 245              	.L13:
 246 0010 00000000 		.word	ch
 247              		.cfi_endproc
 248              	.LFE292:
 249              		.size	chEvtGetAndClearEventsI, .-chEvtGetAndClearEventsI
 250              		.section	.text.chEvtGetAndClearEvents,"ax",%progbits
 251              		.align	1
 252              		.global	chEvtGetAndClearEvents
 253              		.thumb
 254              		.thumb_func
 255              		.type	chEvtGetAndClearEvents, %function
 256              	chEvtGetAndClearEvents:
 257              	.LFB293:
 258              		.loc 3 179 0
 259              		.cfi_startproc
 260              		@ args = 0, pretend = 0, frame = 0
 261              		@ frame_needed = 0, uses_anonymous_args = 0
 262              	.LVL18:
 263 0000 10B5     		push	{r4, lr}
 264              		.cfi_def_cfa_offset 8
 265              		.cfi_offset 4, -8
 266              		.cfi_offset 14, -4
 267              		.loc 3 179 0
 268 0002 0446     		mov	r4, r0
 269              		.loc 3 182 0
 270 0004 FFF7FEFF 		bl	chSysLock
 271              	.LVL19:
 272              		.loc 3 183 0
 273 0008 2046     		mov	r0, r4
 274 000a FFF7FEFF 		bl	chEvtGetAndClearEventsI
 275              	.LVL20:
 276 000e 0446     		mov	r4, r0
 277              	.LVL21:
 278              		.loc 3 184 0
 279 0010 FFF7FEFF 		bl	chSysUnlock
 280              	.LVL22:
 281              		.loc 3 187 0
 282 0014 2046     		mov	r0, r4
 283 0016 10BD     		pop	{r4, pc}
 284              		.cfi_endproc
 285              	.LFE293:
ARM GAS  /tmp/ccYGmlHj.s 			page 6


 286              		.size	chEvtGetAndClearEvents, .-chEvtGetAndClearEvents
 287              		.section	.text.chEvtAddEvents,"ax",%progbits
 288              		.align	1
 289              		.global	chEvtAddEvents
 290              		.thumb
 291              		.thumb_func
 292              		.type	chEvtAddEvents, %function
 293              	chEvtAddEvents:
 294              	.LFB294:
 295              		.loc 3 198 0
 296              		.cfi_startproc
 297              		@ args = 0, pretend = 0, frame = 0
 298              		@ frame_needed = 0, uses_anonymous_args = 0
 299              	.LVL23:
 300 0000 10B5     		push	{r4, lr}
 301              		.cfi_def_cfa_offset 8
 302              		.cfi_offset 4, -8
 303              		.cfi_offset 14, -4
 304              		.loc 3 198 0
 305 0002 0446     		mov	r4, r0
 306              		.loc 3 201 0
 307 0004 FFF7FEFF 		bl	chSysLock
 308              	.LVL24:
 309              	.LBB22:
 310              	.LBB23:
 311              		.file 4 "../../modules/ChibiOS/os/rt/include/chevents.h"
 312              		.loc 4 271 0
 313 0008 044B     		ldr	r3, .L17
 314 000a 9A69     		ldr	r2, [r3, #24]
 315 000c 536B     		ldr	r3, [r2, #52]
 316 000e 1C43     		orrs	r4, r4, r3
 317              	.LVL25:
 318 0010 5463     		str	r4, [r2, #52]
 319              	.LBE23:
 320              	.LBE22:
 321              		.loc 3 203 0
 322 0012 FFF7FEFF 		bl	chSysUnlock
 323              	.LVL26:
 324              		.loc 3 206 0
 325 0016 2046     		mov	r0, r4
 326 0018 10BD     		pop	{r4, pc}
 327              	.L18:
 328 001a 00BF     		.align	2
 329              	.L17:
 330 001c 00000000 		.word	ch
 331              		.cfi_endproc
 332              	.LFE294:
 333              		.size	chEvtAddEvents, .-chEvtAddEvents
 334              		.section	.text.chEvtGetAndClearFlags,"ax",%progbits
 335              		.align	1
 336              		.global	chEvtGetAndClearFlags
 337              		.thumb
 338              		.thumb_func
 339              		.type	chEvtGetAndClearFlags, %function
 340              	chEvtGetAndClearFlags:
 341              	.LFB296:
 342              		.loc 3 257 0
ARM GAS  /tmp/ccYGmlHj.s 			page 7


 343              		.cfi_startproc
 344              		@ args = 0, pretend = 0, frame = 0
 345              		@ frame_needed = 0, uses_anonymous_args = 0
 346              	.LVL27:
 347 0000 38B5     		push	{r3, r4, r5, lr}
 348              		.cfi_def_cfa_offset 16
 349              		.cfi_offset 3, -16
 350              		.cfi_offset 4, -12
 351              		.cfi_offset 5, -8
 352              		.cfi_offset 14, -4
 353              		.loc 3 257 0
 354 0002 0446     		mov	r4, r0
 355              		.loc 3 260 0
 356 0004 FFF7FEFF 		bl	chSysLock
 357              	.LVL28:
 358              		.loc 3 262 0
 359 0008 0023     		movs	r3, #0
 360              		.loc 3 261 0
 361 000a E568     		ldr	r5, [r4, #12]
 362              	.LVL29:
 363              		.loc 3 262 0
 364 000c E360     		str	r3, [r4, #12]
 365              		.loc 3 263 0
 366 000e FFF7FEFF 		bl	chSysUnlock
 367              	.LVL30:
 368              		.loc 3 265 0
 369 0012 2069     		ldr	r0, [r4, #16]
 370              		.loc 3 266 0
 371 0014 2840     		ands	r0, r0, r5
 372 0016 38BD     		pop	{r3, r4, r5, pc}
 373              		.cfi_endproc
 374              	.LFE296:
 375              		.size	chEvtGetAndClearFlags, .-chEvtGetAndClearFlags
 376              		.section	.text.chEvtSignalI,"ax",%progbits
 377              		.align	1
 378              		.global	chEvtSignalI
 379              		.thumb
 380              		.thumb_func
 381              		.type	chEvtSignalI, %function
 382              	chEvtSignalI:
 383              	.LFB298:
 384              		.loc 3 298 0
 385              		.cfi_startproc
 386              		@ args = 0, pretend = 0, frame = 0
 387              		@ frame_needed = 0, uses_anonymous_args = 0
 388              		@ link register save eliminated.
 389              	.LVL31:
 390              		.loc 3 303 0
 391 0000 436B     		ldr	r3, [r0, #52]
 392 0002 1943     		orrs	r1, r1, r3
 393              	.LVL32:
 394              		.loc 3 305 0
 395 0004 90F82030 		ldrb	r3, [r0, #32]	@ zero_extendqisi2
 396              		.loc 3 303 0
 397 0008 4163     		str	r1, [r0, #52]
 398              		.loc 3 305 0
 399 000a 0A2B     		cmp	r3, #10
ARM GAS  /tmp/ccYGmlHj.s 			page 8


 400 000c 03D1     		bne	.L21
 401              		.loc 3 306 0 discriminator 1
 402 000e 436A     		ldr	r3, [r0, #36]
 403              		.loc 3 305 0 discriminator 1
 404 0010 1942     		tst	r1, r3
 405 0012 06D1     		bne	.L22
 406 0014 7047     		bx	lr
 407              	.L21:
 408              		.loc 3 306 0
 409 0016 0B2B     		cmp	r3, #11
 410 0018 07D1     		bne	.L20
 411              		.loc 3 308 0
 412 001a 436A     		ldr	r3, [r0, #36]
 413 001c 1940     		ands	r1, r1, r3
 414              		.loc 3 307 0
 415 001e 9942     		cmp	r1, r3
 416 0020 03D1     		bne	.L20
 417              	.L22:
 418              		.loc 3 309 0
 419 0022 0023     		movs	r3, #0
 420 0024 4362     		str	r3, [r0, #36]
 421              		.loc 3 310 0
 422 0026 FFF7FEBF 		b	chSchReadyI
 423              	.LVL33:
 424              	.L20:
 425 002a 7047     		bx	lr
 426              		.cfi_endproc
 427              	.LFE298:
 428              		.size	chEvtSignalI, .-chEvtSignalI
 429              		.section	.text.chEvtBroadcastFlagsI,"ax",%progbits
 430              		.align	1
 431              		.global	chEvtBroadcastFlagsI
 432              		.thumb
 433              		.thumb_func
 434              		.type	chEvtBroadcastFlagsI, %function
 435              	chEvtBroadcastFlagsI:
 436              	.LFB295:
 437              		.loc 3 225 0
 438              		.cfi_startproc
 439              		@ args = 0, pretend = 0, frame = 0
 440              		@ frame_needed = 0, uses_anonymous_args = 0
 441              	.LVL34:
 442 0000 70B5     		push	{r4, r5, r6, lr}
 443              		.cfi_def_cfa_offset 16
 444              		.cfi_offset 4, -16
 445              		.cfi_offset 5, -12
 446              		.cfi_offset 6, -8
 447              		.cfi_offset 14, -4
 448              		.loc 3 231 0
 449 0002 0468     		ldr	r4, [r0]
 450              	.LVL35:
 451              		.loc 3 225 0
 452 0004 0646     		mov	r6, r0
 453 0006 0D46     		mov	r5, r1
 454              	.LVL36:
 455              	.L25:
 456              		.loc 3 233 0
ARM GAS  /tmp/ccYGmlHj.s 			page 9


 457 0008 B442     		cmp	r4, r6
 458 000a 0CD0     		beq	.L35
 459              		.loc 3 235 0
 460 000c E368     		ldr	r3, [r4, #12]
 461 000e 2B43     		orrs	r3, r3, r5
 462 0010 E360     		str	r3, [r4, #12]
 463              		.loc 3 238 0
 464 0012 15B1     		cbz	r5, .L26
 465              		.loc 3 239 0 discriminator 1
 466 0014 2369     		ldr	r3, [r4, #16]
 467              		.loc 3 238 0 discriminator 1
 468 0016 1D42     		tst	r5, r3
 469 0018 03D0     		beq	.L27
 470              	.L26:
 471              		.loc 3 240 0
 472 001a 6068     		ldr	r0, [r4, #4]
 473 001c A168     		ldr	r1, [r4, #8]
 474 001e FFF7FEFF 		bl	chEvtSignalI
 475              	.LVL37:
 476              	.L27:
 477              		.loc 3 242 0
 478 0022 2468     		ldr	r4, [r4]
 479              	.LVL38:
 480 0024 F0E7     		b	.L25
 481              	.L35:
 482              		.loc 3 244 0
 483 0026 70BD     		pop	{r4, r5, r6, pc}
 484              		.cfi_endproc
 485              	.LFE295:
 486              		.size	chEvtBroadcastFlagsI, .-chEvtBroadcastFlagsI
 487              		.section	.text.chEvtSignal,"ax",%progbits
 488              		.align	1
 489              		.global	chEvtSignal
 490              		.thumb
 491              		.thumb_func
 492              		.type	chEvtSignal, %function
 493              	chEvtSignal:
 494              	.LFB297:
 495              		.loc 3 276 0
 496              		.cfi_startproc
 497              		@ args = 0, pretend = 0, frame = 0
 498              		@ frame_needed = 0, uses_anonymous_args = 0
 499              	.LVL39:
 500 0000 38B5     		push	{r3, r4, r5, lr}
 501              		.cfi_def_cfa_offset 16
 502              		.cfi_offset 3, -16
 503              		.cfi_offset 4, -12
 504              		.cfi_offset 5, -8
 505              		.cfi_offset 14, -4
 506              		.loc 3 276 0
 507 0002 0546     		mov	r5, r0
 508 0004 0C46     		mov	r4, r1
 509              		.loc 3 280 0
 510 0006 FFF7FEFF 		bl	chSysLock
 511              	.LVL40:
 512              		.loc 3 281 0
 513 000a 2846     		mov	r0, r5
ARM GAS  /tmp/ccYGmlHj.s 			page 10


 514 000c 2146     		mov	r1, r4
 515 000e FFF7FEFF 		bl	chEvtSignalI
 516              	.LVL41:
 517              		.loc 3 282 0
 518 0012 FFF7FEFF 		bl	chSchRescheduleS
 519              	.LVL42:
 520              		.loc 3 284 0
 521 0016 BDE83840 		pop	{r3, r4, r5, lr}
 522              		.cfi_restore 14
 523              		.cfi_restore 5
 524              		.cfi_restore 4
 525              		.cfi_restore 3
 526              		.cfi_def_cfa_offset 0
 527              	.LVL43:
 528              		.loc 3 283 0
 529 001a FFF7FEBF 		b	chSysUnlock
 530              	.LVL44:
 531              		.cfi_endproc
 532              	.LFE297:
 533              		.size	chEvtSignal, .-chEvtSignal
 534              		.section	.text.chEvtBroadcastFlags,"ax",%progbits
 535              		.align	1
 536              		.global	chEvtBroadcastFlags
 537              		.thumb
 538              		.thumb_func
 539              		.type	chEvtBroadcastFlags, %function
 540              	chEvtBroadcastFlags:
 541              	.LFB299:
 542              		.loc 3 327 0
 543              		.cfi_startproc
 544              		@ args = 0, pretend = 0, frame = 0
 545              		@ frame_needed = 0, uses_anonymous_args = 0
 546              	.LVL45:
 547 0000 38B5     		push	{r3, r4, r5, lr}
 548              		.cfi_def_cfa_offset 16
 549              		.cfi_offset 3, -16
 550              		.cfi_offset 4, -12
 551              		.cfi_offset 5, -8
 552              		.cfi_offset 14, -4
 553              		.loc 3 327 0
 554 0002 0546     		mov	r5, r0
 555 0004 0C46     		mov	r4, r1
 556              		.loc 3 329 0
 557 0006 FFF7FEFF 		bl	chSysLock
 558              	.LVL46:
 559              		.loc 3 330 0
 560 000a 2846     		mov	r0, r5
 561 000c 2146     		mov	r1, r4
 562 000e FFF7FEFF 		bl	chEvtBroadcastFlagsI
 563              	.LVL47:
 564              		.loc 3 331 0
 565 0012 FFF7FEFF 		bl	chSchRescheduleS
 566              	.LVL48:
 567              		.loc 3 333 0
 568 0016 BDE83840 		pop	{r3, r4, r5, lr}
 569              		.cfi_restore 14
 570              		.cfi_restore 5
ARM GAS  /tmp/ccYGmlHj.s 			page 11


 571              		.cfi_restore 4
 572              		.cfi_restore 3
 573              		.cfi_def_cfa_offset 0
 574              	.LVL49:
 575              		.loc 3 332 0
 576 001a FFF7FEBF 		b	chSysUnlock
 577              	.LVL50:
 578              		.cfi_endproc
 579              	.LFE299:
 580              		.size	chEvtBroadcastFlags, .-chEvtBroadcastFlags
 581              		.section	.text.chEvtGetAndClearFlagsI,"ax",%progbits
 582              		.align	1
 583              		.global	chEvtGetAndClearFlagsI
 584              		.thumb
 585              		.thumb_func
 586              		.type	chEvtGetAndClearFlagsI, %function
 587              	chEvtGetAndClearFlagsI:
 588              	.LFB300:
 589              		.loc 3 346 0
 590              		.cfi_startproc
 591              		@ args = 0, pretend = 0, frame = 0
 592              		@ frame_needed = 0, uses_anonymous_args = 0
 593              		@ link register save eliminated.
 594              	.LVL51:
 595              		.loc 3 350 0
 596 0000 0023     		movs	r3, #0
 597              		.loc 3 349 0
 598 0002 C268     		ldr	r2, [r0, #12]
 599              	.LVL52:
 600              		.loc 3 350 0
 601 0004 C360     		str	r3, [r0, #12]
 602              		.loc 3 352 0
 603 0006 0069     		ldr	r0, [r0, #16]
 604              	.LVL53:
 605              		.loc 3 353 0
 606 0008 1040     		ands	r0, r0, r2
 607 000a 7047     		bx	lr
 608              		.cfi_endproc
 609              	.LFE300:
 610              		.size	chEvtGetAndClearFlagsI, .-chEvtGetAndClearFlagsI
 611              		.section	.text.chEvtDispatch,"ax",%progbits
 612              		.align	1
 613              		.global	chEvtDispatch
 614              		.thumb
 615              		.thumb_func
 616              		.type	chEvtDispatch, %function
 617              	chEvtDispatch:
 618              	.LFB301:
 619              		.loc 3 364 0
 620              		.cfi_startproc
 621              		@ args = 0, pretend = 0, frame = 0
 622              		@ frame_needed = 0, uses_anonymous_args = 0
 623              	.LVL54:
 624 0000 70B5     		push	{r4, r5, r6, lr}
 625              		.cfi_def_cfa_offset 16
 626              		.cfi_offset 4, -16
 627              		.cfi_offset 5, -12
ARM GAS  /tmp/ccYGmlHj.s 			page 12


 628              		.cfi_offset 6, -8
 629              		.cfi_offset 14, -4
 630              		.loc 3 364 0
 631 0002 0646     		mov	r6, r0
 632 0004 0D46     		mov	r5, r1
 633              		.loc 3 369 0
 634 0006 0024     		movs	r4, #0
 635              	.LVL55:
 636              	.L40:
 637              		.loc 3 370 0
 638 0008 6DB1     		cbz	r5, .L46
 639              		.loc 3 371 0
 640 000a 25FA04F3 		lsr	r3, r5, r4
 641 000e DB07     		lsls	r3, r3, #31
 642 0010 07D5     		bpl	.L41
 643              		.loc 3 373 0
 644 0012 0123     		movs	r3, #1
 645 0014 A340     		lsls	r3, r3, r4
 646 0016 25EA0305 		bic	r5, r5, r3
 647              	.LVL56:
 648              		.loc 3 374 0
 649 001a 2046     		mov	r0, r4
 650 001c 56F82430 		ldr	r3, [r6, r4, lsl #2]
 651 0020 9847     		blx	r3
 652              	.LVL57:
 653              	.L41:
 654              		.loc 3 376 0
 655 0022 0134     		adds	r4, r4, #1
 656              	.LVL58:
 657 0024 F0E7     		b	.L40
 658              	.L46:
 659              		.loc 3 378 0
 660 0026 70BD     		pop	{r4, r5, r6, pc}
 661              		.cfi_endproc
 662              	.LFE301:
 663              		.size	chEvtDispatch, .-chEvtDispatch
 664              		.section	.text.chEvtWaitOne,"ax",%progbits
 665              		.align	1
 666              		.global	chEvtWaitOne
 667              		.thumb
 668              		.thumb_func
 669              		.type	chEvtWaitOne, %function
 670              	chEvtWaitOne:
 671              	.LFB302:
 672              		.loc 3 399 0
 673              		.cfi_startproc
 674              		@ args = 0, pretend = 0, frame = 0
 675              		@ frame_needed = 0, uses_anonymous_args = 0
 676              	.LVL59:
 677 0000 38B5     		push	{r3, r4, r5, lr}
 678              		.cfi_def_cfa_offset 16
 679              		.cfi_offset 3, -16
 680              		.cfi_offset 4, -12
 681              		.cfi_offset 5, -8
 682              		.cfi_offset 14, -4
 683              		.loc 3 400 0
 684 0002 0C4B     		ldr	r3, .L49
ARM GAS  /tmp/ccYGmlHj.s 			page 13


 685 0004 9D69     		ldr	r5, [r3, #24]
 686              	.LVL60:
 687              		.loc 3 399 0
 688 0006 0446     		mov	r4, r0
 689              		.loc 3 403 0
 690 0008 FFF7FEFF 		bl	chSysLock
 691              	.LVL61:
 692              		.loc 3 404 0
 693 000c 6B6B     		ldr	r3, [r5, #52]
 694              	.LVL62:
 695              		.loc 3 405 0
 696 000e 2340     		ands	r3, r4, r3
 697              	.LVL63:
 698 0010 05D1     		bne	.L48
 699              		.loc 3 406 0
 700 0012 6C62     		str	r4, [r5, #36]
 701              		.loc 3 407 0
 702 0014 0A20     		movs	r0, #10
 703 0016 FFF7FEFF 		bl	chSchGoSleepS
 704              	.LVL64:
 705              		.loc 3 408 0
 706 001a 6B6B     		ldr	r3, [r5, #52]
 707 001c 2340     		ands	r3, r3, r4
 708              	.LVL65:
 709              	.L48:
 710              		.loc 3 410 0
 711 001e 5C42     		negs	r4, r3
 712              	.LVL66:
 713 0020 1C40     		ands	r4, r4, r3
 714              	.LVL67:
 715              		.loc 3 411 0
 716 0022 6B6B     		ldr	r3, [r5, #52]
 717 0024 23EA0403 		bic	r3, r3, r4
 718 0028 6B63     		str	r3, [r5, #52]
 719              		.loc 3 412 0
 720 002a FFF7FEFF 		bl	chSysUnlock
 721              	.LVL68:
 722              		.loc 3 415 0
 723 002e 2046     		mov	r0, r4
 724 0030 38BD     		pop	{r3, r4, r5, pc}
 725              	.LVL69:
 726              	.L50:
 727 0032 00BF     		.align	2
 728              	.L49:
 729 0034 00000000 		.word	ch
 730              		.cfi_endproc
 731              	.LFE302:
 732              		.size	chEvtWaitOne, .-chEvtWaitOne
 733              		.section	.text.chEvtWaitAny,"ax",%progbits
 734              		.align	1
 735              		.global	chEvtWaitAny
 736              		.thumb
 737              		.thumb_func
 738              		.type	chEvtWaitAny, %function
 739              	chEvtWaitAny:
 740              	.LFB303:
 741              		.loc 3 429 0
ARM GAS  /tmp/ccYGmlHj.s 			page 14


 742              		.cfi_startproc
 743              		@ args = 0, pretend = 0, frame = 0
 744              		@ frame_needed = 0, uses_anonymous_args = 0
 745              	.LVL70:
 746              		.loc 3 430 0
 747 0000 0B4B     		ldr	r3, .L53
 748              		.loc 3 429 0
 749 0002 70B5     		push	{r4, r5, r6, lr}
 750              		.cfi_def_cfa_offset 16
 751              		.cfi_offset 4, -16
 752              		.cfi_offset 5, -12
 753              		.cfi_offset 6, -8
 754              		.cfi_offset 14, -4
 755              		.loc 3 430 0
 756 0004 9D69     		ldr	r5, [r3, #24]
 757              	.LVL71:
 758              		.loc 3 429 0
 759 0006 0646     		mov	r6, r0
 760              		.loc 3 433 0
 761 0008 FFF7FEFF 		bl	chSysLock
 762              	.LVL72:
 763              		.loc 3 434 0
 764 000c 6C6B     		ldr	r4, [r5, #52]
 765              	.LVL73:
 766              		.loc 3 435 0
 767 000e 3440     		ands	r4, r6, r4
 768              	.LVL74:
 769 0010 05D1     		bne	.L52
 770              		.loc 3 436 0
 771 0012 6E62     		str	r6, [r5, #36]
 772              		.loc 3 437 0
 773 0014 0A20     		movs	r0, #10
 774 0016 FFF7FEFF 		bl	chSchGoSleepS
 775              	.LVL75:
 776              		.loc 3 438 0
 777 001a 6C6B     		ldr	r4, [r5, #52]
 778              	.LVL76:
 779 001c 3440     		ands	r4, r4, r6
 780              	.LVL77:
 781              	.L52:
 782              		.loc 3 440 0
 783 001e 6B6B     		ldr	r3, [r5, #52]
 784 0020 23EA0403 		bic	r3, r3, r4
 785 0024 6B63     		str	r3, [r5, #52]
 786              		.loc 3 441 0
 787 0026 FFF7FEFF 		bl	chSysUnlock
 788              	.LVL78:
 789              		.loc 3 444 0
 790 002a 2046     		mov	r0, r4
 791 002c 70BD     		pop	{r4, r5, r6, pc}
 792              	.LVL79:
 793              	.L54:
 794 002e 00BF     		.align	2
 795              	.L53:
 796 0030 00000000 		.word	ch
 797              		.cfi_endproc
 798              	.LFE303:
ARM GAS  /tmp/ccYGmlHj.s 			page 15


 799              		.size	chEvtWaitAny, .-chEvtWaitAny
 800              		.section	.text.chEvtWaitAll,"ax",%progbits
 801              		.align	1
 802              		.global	chEvtWaitAll
 803              		.thumb
 804              		.thumb_func
 805              		.type	chEvtWaitAll, %function
 806              	chEvtWaitAll:
 807              	.LFB304:
 808              		.loc 3 457 0
 809              		.cfi_startproc
 810              		@ args = 0, pretend = 0, frame = 0
 811              		@ frame_needed = 0, uses_anonymous_args = 0
 812              	.LVL80:
 813 0000 38B5     		push	{r3, r4, r5, lr}
 814              		.cfi_def_cfa_offset 16
 815              		.cfi_offset 3, -16
 816              		.cfi_offset 4, -12
 817              		.cfi_offset 5, -8
 818              		.cfi_offset 14, -4
 819              		.loc 3 458 0
 820 0002 0A4B     		ldr	r3, .L57
 821 0004 9D69     		ldr	r5, [r3, #24]
 822              	.LVL81:
 823              		.loc 3 457 0
 824 0006 0446     		mov	r4, r0
 825              		.loc 3 460 0
 826 0008 FFF7FEFF 		bl	chSysLock
 827              	.LVL82:
 828              		.loc 3 461 0
 829 000c 6B6B     		ldr	r3, [r5, #52]
 830 000e 2340     		ands	r3, r3, r4
 831 0010 A342     		cmp	r3, r4
 832 0012 03D0     		beq	.L56
 833              		.loc 3 462 0
 834 0014 6C62     		str	r4, [r5, #36]
 835              		.loc 3 463 0
 836 0016 0B20     		movs	r0, #11
 837 0018 FFF7FEFF 		bl	chSchGoSleepS
 838              	.LVL83:
 839              	.L56:
 840              		.loc 3 465 0
 841 001c 6B6B     		ldr	r3, [r5, #52]
 842 001e 23EA0403 		bic	r3, r3, r4
 843 0022 6B63     		str	r3, [r5, #52]
 844              		.loc 3 466 0
 845 0024 FFF7FEFF 		bl	chSysUnlock
 846              	.LVL84:
 847              		.loc 3 469 0
 848 0028 2046     		mov	r0, r4
 849 002a 38BD     		pop	{r3, r4, r5, pc}
 850              	.LVL85:
 851              	.L58:
 852              		.align	2
 853              	.L57:
 854 002c 00000000 		.word	ch
 855              		.cfi_endproc
ARM GAS  /tmp/ccYGmlHj.s 			page 16


 856              	.LFE304:
 857              		.size	chEvtWaitAll, .-chEvtWaitAll
 858              		.section	.text.chEvtWaitOneTimeout,"ax",%progbits
 859              		.align	1
 860              		.global	chEvtWaitOneTimeout
 861              		.thumb
 862              		.thumb_func
 863              		.type	chEvtWaitOneTimeout, %function
 864              	chEvtWaitOneTimeout:
 865              	.LFB305:
 866              		.loc 3 495 0
 867              		.cfi_startproc
 868              		@ args = 0, pretend = 0, frame = 0
 869              		@ frame_needed = 0, uses_anonymous_args = 0
 870              	.LVL86:
 871              		.loc 3 496 0
 872 0000 104B     		ldr	r3, .L64
 873              		.loc 3 495 0
 874 0002 70B5     		push	{r4, r5, r6, lr}
 875              		.cfi_def_cfa_offset 16
 876              		.cfi_offset 4, -16
 877              		.cfi_offset 5, -12
 878              		.cfi_offset 6, -8
 879              		.cfi_offset 14, -4
 880              		.loc 3 496 0
 881 0004 9D69     		ldr	r5, [r3, #24]
 882              	.LVL87:
 883              		.loc 3 495 0
 884 0006 0446     		mov	r4, r0
 885 0008 0E46     		mov	r6, r1
 886              		.loc 3 499 0
 887 000a FFF7FEFF 		bl	chSysLock
 888              	.LVL88:
 889              		.loc 3 500 0
 890 000e 6B6B     		ldr	r3, [r5, #52]
 891              	.LVL89:
 892              		.loc 3 501 0
 893 0010 2340     		ands	r3, r4, r3
 894              	.LVL90:
 895 0012 0DD1     		bne	.L60
 896              		.loc 3 502 0
 897 0014 1EB9     		cbnz	r6, .L61
 898              	.LVL91:
 899              	.L63:
 900              		.loc 3 503 0
 901 0016 FFF7FEFF 		bl	chSysUnlock
 902              	.LVL92:
 903              		.loc 3 504 0
 904 001a 0020     		movs	r0, #0
 905 001c 70BD     		pop	{r4, r5, r6, pc}
 906              	.LVL93:
 907              	.L61:
 908              		.loc 3 506 0
 909 001e 6C62     		str	r4, [r5, #36]
 910              		.loc 3 507 0
 911 0020 0A20     		movs	r0, #10
 912 0022 3146     		mov	r1, r6
ARM GAS  /tmp/ccYGmlHj.s 			page 17


 913 0024 FFF7FEFF 		bl	chSchGoSleepTimeoutS
 914              	.LVL94:
 915 0028 0028     		cmp	r0, #0
 916 002a F4DB     		blt	.L63
 917              		.loc 3 511 0
 918 002c 6B6B     		ldr	r3, [r5, #52]
 919 002e 2340     		ands	r3, r3, r4
 920              	.LVL95:
 921              	.L60:
 922              		.loc 3 513 0
 923 0030 5C42     		negs	r4, r3
 924              	.LVL96:
 925 0032 1C40     		ands	r4, r4, r3
 926              	.LVL97:
 927              		.loc 3 514 0
 928 0034 6B6B     		ldr	r3, [r5, #52]
 929 0036 23EA0403 		bic	r3, r3, r4
 930 003a 6B63     		str	r3, [r5, #52]
 931              		.loc 3 515 0
 932 003c FFF7FEFF 		bl	chSysUnlock
 933              	.LVL98:
 934              		.loc 3 517 0
 935 0040 2046     		mov	r0, r4
 936              		.loc 3 518 0
 937 0042 70BD     		pop	{r4, r5, r6, pc}
 938              	.LVL99:
 939              	.L65:
 940              		.align	2
 941              	.L64:
 942 0044 00000000 		.word	ch
 943              		.cfi_endproc
 944              	.LFE305:
 945              		.size	chEvtWaitOneTimeout, .-chEvtWaitOneTimeout
 946              		.section	.text.chEvtWaitAnyTimeout,"ax",%progbits
 947              		.align	1
 948              		.global	chEvtWaitAnyTimeout
 949              		.thumb
 950              		.thumb_func
 951              		.type	chEvtWaitAnyTimeout, %function
 952              	chEvtWaitAnyTimeout:
 953              	.LFB306:
 954              		.loc 3 538 0
 955              		.cfi_startproc
 956              		@ args = 0, pretend = 0, frame = 0
 957              		@ frame_needed = 0, uses_anonymous_args = 0
 958              	.LVL100:
 959 0000 F8B5     		push	{r3, r4, r5, r6, r7, lr}
 960              		.cfi_def_cfa_offset 24
 961              		.cfi_offset 3, -24
 962              		.cfi_offset 4, -20
 963              		.cfi_offset 5, -16
 964              		.cfi_offset 6, -12
 965              		.cfi_offset 7, -8
 966              		.cfi_offset 14, -4
 967              		.loc 3 539 0
 968 0002 0F4B     		ldr	r3, .L71
 969 0004 9D69     		ldr	r5, [r3, #24]
ARM GAS  /tmp/ccYGmlHj.s 			page 18


 970              	.LVL101:
 971              		.loc 3 538 0
 972 0006 0646     		mov	r6, r0
 973 0008 0F46     		mov	r7, r1
 974              		.loc 3 542 0
 975 000a FFF7FEFF 		bl	chSysLock
 976              	.LVL102:
 977              		.loc 3 543 0
 978 000e 6C6B     		ldr	r4, [r5, #52]
 979              	.LVL103:
 980              		.loc 3 544 0
 981 0010 3440     		ands	r4, r6, r4
 982              	.LVL104:
 983 0012 0DD1     		bne	.L67
 984              		.loc 3 545 0
 985 0014 1FB9     		cbnz	r7, .L68
 986              	.L70:
 987              		.loc 3 546 0
 988 0016 FFF7FEFF 		bl	chSysUnlock
 989              	.LVL105:
 990              		.loc 3 547 0
 991 001a 0020     		movs	r0, #0
 992 001c F8BD     		pop	{r3, r4, r5, r6, r7, pc}
 993              	.LVL106:
 994              	.L68:
 995              		.loc 3 549 0
 996 001e 6E62     		str	r6, [r5, #36]
 997              		.loc 3 550 0
 998 0020 0A20     		movs	r0, #10
 999 0022 3946     		mov	r1, r7
 1000 0024 FFF7FEFF 		bl	chSchGoSleepTimeoutS
 1001              	.LVL107:
 1002 0028 0028     		cmp	r0, #0
 1003 002a F4DB     		blt	.L70
 1004              		.loc 3 554 0
 1005 002c 6C6B     		ldr	r4, [r5, #52]
 1006              	.LVL108:
 1007 002e 3440     		ands	r4, r4, r6
 1008              	.LVL109:
 1009              	.L67:
 1010              		.loc 3 556 0
 1011 0030 6B6B     		ldr	r3, [r5, #52]
 1012 0032 23EA0403 		bic	r3, r3, r4
 1013 0036 6B63     		str	r3, [r5, #52]
 1014              		.loc 3 557 0
 1015 0038 FFF7FEFF 		bl	chSysUnlock
 1016              	.LVL110:
 1017              		.loc 3 559 0
 1018 003c 2046     		mov	r0, r4
 1019              		.loc 3 560 0
 1020 003e F8BD     		pop	{r3, r4, r5, r6, r7, pc}
 1021              	.LVL111:
 1022              	.L72:
 1023              		.align	2
 1024              	.L71:
 1025 0040 00000000 		.word	ch
 1026              		.cfi_endproc
ARM GAS  /tmp/ccYGmlHj.s 			page 19


 1027              	.LFE306:
 1028              		.size	chEvtWaitAnyTimeout, .-chEvtWaitAnyTimeout
 1029              		.section	.text.chEvtWaitAllTimeout,"ax",%progbits
 1030              		.align	1
 1031              		.global	chEvtWaitAllTimeout
 1032              		.thumb
 1033              		.thumb_func
 1034              		.type	chEvtWaitAllTimeout, %function
 1035              	chEvtWaitAllTimeout:
 1036              	.LFB307:
 1037              		.loc 3 579 0
 1038              		.cfi_startproc
 1039              		@ args = 0, pretend = 0, frame = 0
 1040              		@ frame_needed = 0, uses_anonymous_args = 0
 1041              	.LVL112:
 1042              		.loc 3 580 0
 1043 0000 0F4B     		ldr	r3, .L78
 1044              		.loc 3 579 0
 1045 0002 70B5     		push	{r4, r5, r6, lr}
 1046              		.cfi_def_cfa_offset 16
 1047              		.cfi_offset 4, -16
 1048              		.cfi_offset 5, -12
 1049              		.cfi_offset 6, -8
 1050              		.cfi_offset 14, -4
 1051              		.loc 3 580 0
 1052 0004 9D69     		ldr	r5, [r3, #24]
 1053              	.LVL113:
 1054              		.loc 3 579 0
 1055 0006 0446     		mov	r4, r0
 1056 0008 0E46     		mov	r6, r1
 1057              		.loc 3 582 0
 1058 000a FFF7FEFF 		bl	chSysLock
 1059              	.LVL114:
 1060              		.loc 3 583 0
 1061 000e 6B6B     		ldr	r3, [r5, #52]
 1062 0010 2340     		ands	r3, r3, r4
 1063 0012 A342     		cmp	r3, r4
 1064 0014 0BD0     		beq	.L74
 1065              		.loc 3 584 0
 1066 0016 1EB9     		cbnz	r6, .L75
 1067              	.L77:
 1068              		.loc 3 585 0
 1069 0018 FFF7FEFF 		bl	chSysUnlock
 1070              	.LVL115:
 1071              		.loc 3 586 0
 1072 001c 0020     		movs	r0, #0
 1073 001e 70BD     		pop	{r4, r5, r6, pc}
 1074              	.LVL116:
 1075              	.L75:
 1076              		.loc 3 588 0
 1077 0020 6C62     		str	r4, [r5, #36]
 1078              		.loc 3 589 0
 1079 0022 0B20     		movs	r0, #11
 1080 0024 3146     		mov	r1, r6
 1081 0026 FFF7FEFF 		bl	chSchGoSleepTimeoutS
 1082              	.LVL117:
 1083 002a 0028     		cmp	r0, #0
ARM GAS  /tmp/ccYGmlHj.s 			page 20


 1084 002c F4DB     		blt	.L77
 1085              	.L74:
 1086              		.loc 3 594 0
 1087 002e 6B6B     		ldr	r3, [r5, #52]
 1088 0030 23EA0403 		bic	r3, r3, r4
 1089 0034 6B63     		str	r3, [r5, #52]
 1090              		.loc 3 595 0
 1091 0036 FFF7FEFF 		bl	chSysUnlock
 1092              	.LVL118:
 1093              		.loc 3 597 0
 1094 003a 2046     		mov	r0, r4
 1095              		.loc 3 598 0
 1096 003c 70BD     		pop	{r4, r5, r6, pc}
 1097              	.LVL119:
 1098              	.L79:
 1099 003e 00BF     		.align	2
 1100              	.L78:
 1101 0040 00000000 		.word	ch
 1102              		.cfi_endproc
 1103              	.LFE307:
 1104              		.size	chEvtWaitAllTimeout, .-chEvtWaitAllTimeout
 1105              		.text
 1106              	.Letext0:
 1107              		.file 5 "/usr/include/newlib/machine/_default_types.h"
 1108              		.file 6 "/usr/include/newlib/sys/_stdint.h"
 1109              		.file 7 "../../modules/ChibiOS/os/common/ports/ARMCMx/compilers/GCC/chtypes.h"
 1110              		.file 8 "../../modules/ChibiOS/os/rt/include/chsystypes.h"
 1111              		.file 9 "../../modules/ChibiOS/os/rt/include/chschd.h"
 1112              		.file 10 "../../modules/ChibiOS/os/rt/include/chtime.h"
 1113              		.file 11 "../../modules/ChibiOS/os/common/ports/ARMCMx/chcore.h"
 1114              		.file 12 "../../modules/ChibiOS/os/common/ports/ARMCMx/chcore_v7m.h"
 1115              		.file 13 "../../modules/ChibiOS/os/rt/include/chtm.h"
 1116              		.file 14 "../../modules/ChibiOS/os/rt/include/chstats.h"
 1117              		.file 15 "../../modules/ChibiOS/os/rt/include/chsem.h"
 1118              		.file 16 "../../modules/ChibiOS/os/rt/include/chmtx.h"
 1119              		.file 17 "../../modules/ChibiOS/os/common/ext/ARM/CMSIS/Core/Include/core_cm4.h"