ARM GAS  /tmp/ccYGmlHj.s 			page 1


   1              		.syntax unified
   2              		.cpu cortex-m4
   3              		.eabi_attribute 27, 1
   4              		.eabi_attribute 28, 1
   5              		.fpu fpv4-sp-d16
   6              		.eabi_attribute 20, 1
   7              		.eabi_attribute 21, 1
   8              		.eabi_attribute 23, 3
   9              		.eabi_attribute 24, 1
  10              		.eabi_attribute 25, 1
  11              		.eabi_attribute 26, 1
  12              		.eabi_attribute 30, 4
  13              		.eabi_attribute 34, 1
  14              		.eabi_attribute 18, 4
  15              		.thumb
  16              		.file	"chevents.c"
  17              		.text
  18              	.Ltext0:
  19              		.cfi_sections	.debug_frame
  20              		.section	.text.chSysLock,"ax",%progbits
  21              		.align	1
  22              		.thumb
  23              		.thumb_func
  24              		.type	chSysLock, %function
  25              	chSysLock:
  26              	.LFB184:
  27              		.file 1 "../../modules/ChibiOS/os/rt/include/chsys.h"
  28              		.loc 1 353 0
  29              		.cfi_startproc
  30              		@ args = 0, pretend = 0, frame = 0
  31              		@ frame_needed = 0, uses_anonymous_args = 0
  32              		@ link register save eliminated.
  33              	.LVL0:
  34              	.LBB14:
  35              	.LBB15:
  36              	.LBB16:
  37              		.file 2 "../../modules/ChibiOS/os/common/ext/ARM/CMSIS/Core/Include/cmsis_gcc.h"
  38              		.loc 2 493 0
  39 0000 2023     		movs	r3, #32
  40              	@ 493 "../../modules/ChibiOS/os/common/ext/ARM/CMSIS/Core/Include/cmsis_gcc.h" 1
  41 0002 83F31188 		MSR basepri, r3
  42              	@ 0 "" 2
  43              		.thumb
  44              	.LBE16:
  45              	.LBE15:
  46              	.LBE14:
  47              		.loc 1 356 0
  48 0006 FFF7FEBF 		b	_stats_start_measure_crit_thd
  49              	.LVL1:
  50              		.cfi_endproc
  51              	.LFE184:
  52              		.size	chSysLock, .-chSysLock
  53              		.section	.text.chSysUnlock,"ax",%progbits
  54              		.align	1
  55              		.thumb
  56              		.thumb_func
  57              		.type	chSysUnlock, %function
ARM GAS  /tmp/ccYGmlHj.s 			page 2


  58              	chSysUnlock:
  59              	.LFB185:
  60              		.loc 1 365 0
  61              		.cfi_startproc
  62              		@ args = 0, pretend = 0, frame = 0
  63              		@ frame_needed = 0, uses_anonymous_args = 0
  64 0000 08B5     		push	{r3, lr}
  65              		.cfi_def_cfa_offset 8
  66              		.cfi_offset 3, -8
  67              		.cfi_offset 14, -4
  68              		.loc 1 368 0
  69 0002 FFF7FEFF 		bl	_stats_stop_measure_crit_thd
  70              	.LVL2:
  71              	.LBB17:
  72              	.LBB18:
  73              	.LBB19:
  74              		.loc 2 493 0
  75 0006 0023     		movs	r3, #0
  76              	@ 493 "../../modules/ChibiOS/os/common/ext/ARM/CMSIS/Core/Include/cmsis_gcc.h" 1
  77 0008 83F31188 		MSR basepri, r3
  78              	@ 0 "" 2
  79              		.thumb
  80 000c 08BD     		pop	{r3, pc}
  81              	.LBE19:
  82              	.LBE18:
  83              	.LBE17:
  84              		.cfi_endproc
  85              	.LFE185:
  86              		.size	chSysUnlock, .-chSysUnlock
  87              		.section	.text.chEvtRegisterMaskWithFlags,"ax",%progbits
  88              		.align	1
  89              		.global	chEvtRegisterMaskWithFlags
  90              		.thumb
  91              		.thumb_func
  92              		.type	chEvtRegisterMaskWithFlags, %function
  93              	chEvtRegisterMaskWithFlags:
  94              	.LFB290:
  95              		.file 3 "../../modules/ChibiOS/os/rt/src/chevents.c"
  96              		.loc 3 106 0
  97              		.cfi_startproc
  98              		@ args = 0, pretend = 0, frame = 0
  99              		@ frame_needed = 0, uses_anonymous_args = 0
 100              	.LVL3:
 101 0000 F8B5     		push	{r3, r4, r5, r6, r7, lr}
 102              		.cfi_def_cfa_offset 24
 103              		.cfi_offset 3, -24
 104              		.cfi_offset 4, -20
 105              		.cfi_offset 5, -16
 106              		.cfi_offset 6, -12
 107              		.cfi_offset 7, -8
 108              		.cfi_offset 14, -4
 109              		.loc 3 106 0
 110 0002 0546     		mov	r5, r0
 111 0004 0C46     		mov	r4, r1
 112 0006 1E46     		mov	r6, r3
 113 0008 1746     		mov	r7, r2
 114              		.loc 3 110 0
ARM GAS  /tmp/ccYGmlHj.s 			page 3


 115 000a FFF7FEFF 		bl	chSysLock
 116              	.LVL4:
 117              		.loc 3 111 0
 118 000e 2B68     		ldr	r3, [r5]
 119 0010 2360     		str	r3, [r4]
 120              		.loc 3 113 0
 121 0012 064B     		ldr	r3, .L4
 122              		.loc 3 112 0
 123 0014 2C60     		str	r4, [r5]
 124              		.loc 3 113 0
 125 0016 9B69     		ldr	r3, [r3, #24]
 126 0018 6360     		str	r3, [r4, #4]
 127              		.loc 3 115 0
 128 001a 0023     		movs	r3, #0
 129              		.loc 3 114 0
 130 001c A760     		str	r7, [r4, #8]
 131              		.loc 3 115 0
 132 001e E360     		str	r3, [r4, #12]
 133              		.loc 3 116 0
 134 0020 2661     		str	r6, [r4, #16]
 135              		.loc 3 118 0
 136 0022 BDE8F840 		pop	{r3, r4, r5, r6, r7, lr}
 137              		.cfi_restore 14
 138              		.cfi_restore 7
 139              		.cfi_restore 6
 140              		.cfi_restore 5
 141              		.cfi_restore 4
 142              		.cfi_restore 3
 143              		.cfi_def_cfa_offset 0
 144              	.LVL5:
 145              		.loc 3 117 0
 146 0026 FFF7FEBF 		b	chSysUnlock
 147              	.LVL6:
 148              	.L5:
 149 002a 00BF     		.align	2
 150              	.L4:
 151 002c 00000000 		.word	ch
 152              		.cfi_endproc
 153              	.LFE290:
 154              		.size	chEvtRegisterMaskWithFlags, .-chEvtRegisterMaskWithFlags
 155              		.section	.text.chEvtUnregister,"ax",%progbits
 156              		.align	1
 157              		.global	chEvtUnregister
 158              		.thumb
 159              		.thumb_func
 160              		.type	chEvtUnregister, %function
 161              	chEvtUnregister:
 162              	.LFB291:
 163              		.loc 3 133 0
 164              		.cfi_startproc
 165              		@ args = 0, pretend = 0, frame = 0
 166              		@ frame_needed = 0, uses_anonymous_args = 0
 167              	.LVL7:
 168 0000 38B5     		push	{r3, r4, r5, lr}
 169              		.cfi_def_cfa_offset 16
 170              		.cfi_offset 3, -16
 171              		.cfi_offset 4, -12
ARM GAS  /tmp/ccYGmlHj.s 			page 4


 172              		.cfi_offset 5, -8
 173              		.cfi_offset 14, -4
 174              		.loc 3 133 0
 175 0002 0446     		mov	r4, r0
 176              	.LVL8:
 177 0004 0D46     		mov	r5, r1
 178              		.loc 3 141 0
 179 0006 FFF7FEFF 		bl	chSysLock
 180              	.LVL9:
 181              		.loc 3 139 0
 182 000a 2246     		mov	r2, r4
 183              	.LVL10:
 184              	.L7:
 185              		.loc 3 143 0
 186 000c 1368     		ldr	r3, [r2]
 187 000e A342     		cmp	r3, r4
 188 0010 06D0     		beq	.L8
 189              		.loc 3 145 0
 190 0012 AB42     		cmp	r3, r5
 191 0014 02D1     		bne	.L10
 192              		.loc 3 146 0
 193 0016 2B68     		ldr	r3, [r5]
 194 0018 1360     		str	r3, [r2]
 195              		.loc 3 147 0
 196 001a 01E0     		b	.L8
 197              	.L10:
 198 001c 1A46     		mov	r2, r3
 199              	.LVL11:
 200 001e F5E7     		b	.L7
 201              	.LVL12:
 202              	.L8:
 203              		.loc 3 152 0
 204 0020 BDE83840 		pop	{r3, r4, r5, lr}
 205              		.cfi_restore 14
 206              		.cfi_restore 5
 207              		.cfi_restore 4
 208              		.cfi_restore 3
 209              		.cfi_def_cfa_offset 0
 210              	.LVL13:
 211              		.loc 3 151 0
 212 0024 FFF7FEBF 		b	chSysUnlock
 213              	.LVL14:
 214              		.cfi_endproc
 215              	.LFE291:
 216              		.size	chEvtUnregister, .-chEvtUnregister
 217              		.section	.text.chEvtGetAndClearEventsI,"ax",%progbits
 218              		.align	1
 219              		.global	chEvtGetAndClearEventsI
 220              		.thumb
 221              		.thumb_func
 222              		.type	chEvtGetAndClearEventsI, %function
 223              	chEvtGetAndClearEventsI:
 224              	.LFB292:
 225              		.loc 3 162 0
 226              		.cfi_startproc
 227              		@ args = 0, pretend = 0, frame = 0
 228              		@ frame_needed = 0, uses_anonymous_args = 0
ARM GAS  /tmp/ccYGmlHj.s 			page 5


 229              		@ link register save eliminated.
 230              	.LVL15:
 231              		.loc 3 165 0
 232 0000 034B     		ldr	r3, .L13
 233 0002 9A69     		ldr	r2, [r3, #24]
 234 0004 536B     		ldr	r3, [r2, #52]
 235              	.LVL16:
 236              		.loc 3 166 0
 237 0006 23EA0001 		bic	r1, r3, r0
 238 000a 5163     		str	r1, [r2, #52]
 239              		.loc 3 169 0
 240 000c 1840     		ands	r0, r0, r3
 241              	.LVL17:
 242 000e 7047     		bx	lr
 243              	.L14:
 244              		.align	2
 245              	.L13:
 246 0010 00000000 		.word	ch
 247              		.cfi_endproc
 248              	.LFE292:
 249              		.size	chEvtGetAndClearEventsI, .-chEvtGetAndClearEventsI
 250              		.section	.text.chEvtGetAndClearEvents,"ax",%progbits
 251              		.align	1
 252              		.global	chEvtGetAndClearEvents
 253              		.thumb
 254              		.thumb_func
 255              		.type	chEvtGetAndClearEvents, %function
 256              	chEvtGetAndClearEvents:
 257              	.LFB293:
 258              		.loc 3 179 0
 259              		.cfi_startproc
 260              		@ args = 0, pretend = 0, frame = 0
 261              		@ frame_needed = 0, uses_anonymous_args = 0
 262              	.LVL18:
 263 0000 10B5     		push	{r4, lr}
 264              		.cfi_def_cfa_offset 8
 265              		.cfi_offset 4, -8
 266              		.cfi_offset 14, -4
 267              		.loc 3 179 0
 268 0002 0446     		mov	r4, r0
 269              		.loc 3 182 0
 270 0004 FFF7FEFF 		bl	chSysLock
 271              	.LVL19:
 272              		.loc 3 183 0
 273 0008 2046     		mov	r0, r4
 274 000a FFF7FEFF 		bl	chEvtGetAndClearEventsI
 275              	.LVL20:
 276 000e 0446     		mov	r4, r0
 277              	.LVL21:
 278              		.loc 3 184 0
 279 0010 FFF7FEFF 		bl	chSysUnlock
 280              	.LVL22:
 281              		.loc 3 187 0
 282 0014 2046     		mov	r0, r4
 283 0016 10BD     		pop	{r4, pc}
 284              		.cfi_endproc
 285              	.LFE293:
ARM GAS  /tmp/ccYGmlHj.s 			page 6


 286              		.size	chEvtGetAndClearEvents, .-chEvtGetAndClearEvents
 287              		.section	.text.chEvtAddEvents,"ax",%progbits
 288              		.align	1
 289              		.global	chEvtAddEvents
 290              		.thumb
 291              		.thumb_func
 292              		.type	chEvtAddEvents, %function
 293              	chEvtAddEvents:
 294              	.LFB294:
 295              		.loc 3 198 0
 296              		.cfi_startproc
 297              		@ args = 0, pretend = 0, frame = 0
 298              		@ frame_needed = 0, uses_anonymous_args = 0
 299              	.LVL23:
 300 0000 10B5     		push	{r4, lr}
 301              		.cfi_def_cfa_offset 8
 302              		.cfi_offset 4, -8
 303              		.cfi_offset 14, -4
 304              		.loc 3 198 0
 305 0002 0446     		mov	r4, r0
 306              		.loc 3 201 0
 307 0004 FFF7FEFF 		bl	chSysLock
 308              	.LVL24:
 309              	.LBB22:
 310              	.LBB23:
 311              		.file 4 "../../modules/ChibiOS/os/rt/include/chevents.h"
 312              		.loc 4 271 0
 313 0008 044B     		ldr	r3, .L17
 314 000a 9A69     		ldr	r2, [r3, #24]
 315 000c 536B     		ldr	r3, [r2, #52]
 316 000e 1C43     		orrs	r4, r4, r3
 317              	.LVL25:
 318 0010 5463     		str	r4, [r2, #52]
 319              	.LBE23:
 320              	.LBE22:
 321              		.loc 3 203 0
 322 0012 FFF7FEFF 		bl	chSysUnlock
 323              	.LVL26:
 324              		.loc 3 206 0
 325 0016 2046     		mov	r0, r4
 326 0018 10BD     		pop	{r4, pc}
 327              	.L18:
 328 001a 00BF     		.align	2
 329              	.L17:
 330 001c 00000000 		.word	ch
 331              		.cfi_endproc
 332              	.LFE294:
 333              		.size	chEvtAddEvents, .-chEvtAddEvents
 334              		.section	.text.chEvtGetAndClearFlags,"ax",%progbits
 335              		.align	1
 336              		.global	chEvtGetAndClearFlags
 337              		.thumb
 338              		.thumb_func
 339              		.type	chEvtGetAndClearFlags, %function
 340              	chEvtGetAndClearFlags:
 341              	.LFB296:
 342              		.loc 3 257 0
ARM GAS  /tmp/ccYGmlHj.s 			page 7


 343              		.cfi_startproc
 344              		@ args = 0, pretend = 0, frame = 0
 345              		@ frame_needed = 0, uses_anonymous_args = 0
 346              	.LVL27:
 347 0000 38B5     		push	{r3, r4, r5, lr}
 348              		.cfi_def_cfa_offset 16
 349              		.cfi_offset 3, -16
 350              		.cfi_offset 4, -12
 351              		.cfi_offset 5, -8
 352              		.cfi_offset 14, -4
 353              		.loc 3 257 0
 354 0002 0446     		mov	r4, r0
 355              		.loc 3 260 0
 356 0004 FFF7FEFF 		bl	chSysLock
 357              	.LVL28:
 358              		.loc 3 262 0
 359 0008 0023     		movs	r3, #0
 360              		.loc 3 261 0
 361 000a E568     		ldr	r5, [r4, #12]
 362              	.LVL29:
 363              		.loc 3 262 0
 364 000c E360     		str	r3, [r4, #12]
 365              		.loc 3 263 0
 366 000e FFF7FEFF 		bl	chSysUnlock
 367              	.LVL30:
 368              		.loc 3 265 0
 369 0012 2069     		ldr	r0, [r4, #16]
 370              		.loc 3 266 0
 371 0014 2840     		ands	r0, r0, r5
 372 0016 38BD     		pop	{r3, r4, r5, pc}
 373              		.cfi_endproc
 374              	.LFE296:
 375              		.size	chEvtGetAndClearFlags, .-chEvtGetAndClearFlags
 376              		.section	.text.chEvtSignalI,"ax",%progbits
 377              		.align	1
 378              		.global	chEvtSignalI
 379              		.thumb
 380              		.thumb_func
 381              		.type	chEvtSignalI, %function
 382              	chEvtSignalI:
 383              	.LFB298:
 384              		.loc 3 298 0
 385              		.cfi_startproc
 386              		@ args = 0, pretend = 0, frame = 0
 387              		@ frame_needed = 0, uses_anonymous_args = 0
 388              		@ link register save eliminated.
 389              	.LVL31:
 390              		.loc 3 303 0
 391 0000 436B     		ldr	r3, [r0, #52]
 392 0002 1943     		orrs	r1, r1, r3
 393              	.LVL32:
 394              		.loc 3 305 0
 395 0004 90F82030 		ldrb	r3, [r0, #32]	@ zero_extendqisi2
 396              		.loc 3 303 0
 397 0008 4163     		str	r1, [r0, #52]
 398              		.loc 3 305 0
 399 000a 0A2B     		cmp	r3, #10
ARM GAS  /tmp/ccYGmlHj.s 			page 8


 400 000c 03D1     		bne	.L21
 401              		.loc 3 306 0 discriminator 1
 402 000e 436A     		ldr	r3, [r0, #36]
 403              		.loc 3 305 0 discriminator 1
 404 0010 1942     		tst	r1, r3
 405 0012 06D1     		bne	.L22
 406 0014 7047     		bx	lr
 407              	.L21:
 408              		.loc 3 306 0
 409 0016 0B2B     		cmp	r3, #11
 410 0018 07D1     		bne	.L20
 411              		.loc 3 308 0
 412 001a 436A     		ldr	r3, [r0, #36]
 413 001c 1940     		ands	r1, r1, r3
 414              		.loc 3 307 0
 415 001e 9942     		cmp	r1, r3
 416 0020 03D1     		bne	.L20
 417              	.L22:
 418              		.loc 3 309 0
 419 0022 0023     		movs	r3, #0
 420 0024 4362     		str	r3, [r0, #36]
 421              		.loc 3 310 0
 422 0026 FFF7FEBF 		b	chSchReadyI
 423              	.LVL33:
 424              	.L20:
 425 002a 7047     		bx	lr
 426              		.cfi_endproc
 427              	.LFE298:
 428              		.size	chEvtSignalI, .-chEvtSignalI
 429              		.section	.text.chEvtBroadcastFlagsI,"ax",%progbits
 430              		.align	1
 431              		.global	chEvtBroadcastFlagsI
 432              		.thumb
 433              		.thumb_func
 434              		.type	chEvtBroadcastFlagsI, %function
 435              	chEvtBroadcastFlagsI:
 436              	.LFB295:
 437              		.loc 3 225 0
 438              		.cfi_startproc
 439              		@ args = 0, pretend = 0, frame = 0
 440              		@ frame_needed = 0, uses_anonymous_args = 0
 441              	.LVL34:
 442 0000 70B5     		push	{r4, r5, r6, lr}
 443              		.cfi_def_cfa_offset 16
 444              		.cfi_offset 4, -16
 445              		.cfi_offset 5, -12
 446              		.cfi_offset 6, -8
 447              		.cfi_offset 14, -4
 448              		.loc 3 231 0
 449 0002 0468     		ldr	r4, [r0]
 450              	.LVL35:
 451              		.loc 3 225 0
 452 0004 0646     		mov	r6, r0
 453 0006 0D46     		mov	r5, r1
 454              	.LVL36:
 455              	.L25:
 456              		.loc 3 233 0
ARM GAS  /tmp/ccYGmlHj.s 			page 9


 457 0008 B442     		cmp	r4, r6
 458 000a 0CD0     		beq	.L35
 459              		.loc 3 235 0
 460 000c E368     		ldr	r3, [r4, #12]
 461 000e 2B43     		orrs	r3, r3, r5
 462 0010 E360     		str	r3, [r4, #12]
 463              		.loc 3 238 0
 464 0012 15B1     		cbz	r5, .L26
 465              		.loc 3 239 0 discriminator 1
 466 0014 2369     		ldr	r3, [r4, #16]
 467              		.loc 3 238 0 discriminator 1
 468 0016 1D42     		tst	r5, r3
 469 0018 03D0     		beq	.L27
 470              	.L26:
 471              		.loc 3 240 0
 472 001a 6068     		ldr	r0, [r4, #4]
 473 001c A168     		ldr	r1, [r4, #8]
 474 001e FFF7FEFF 		bl	chEvtSignalI
 475              	.LVL37:
 476              	.L27:
 477              		.loc 3 242 0
 478 0022 2468     		ldr	r4, [r4]
 479              	.LVL38:
 480 0024 F0E7     		b	.L25
 481              	.L35:
 482              		.loc 3 244 0
 483 0026 70BD     		pop	{r4, r5, r6, pc}
 484              		.cfi_endproc
 485              	.LFE295:
 486              		.size	chEvtBroadcastFlagsI, .-chEvtBroadcastFlagsI
 487              		.section	.text.chEvtSignal,"ax",%progbits
 488              		.align	1
 489              		.global	chEvtSignal
 490              		.thumb
 491              		.thumb_func
 492              		.type	chEvtSignal, %function
 493              	chEvtSignal:
 494              	.LFB297:
 495              		.loc 3 276 0
 496              		.cfi_startproc
 497              		@ args = 0, pretend = 0, frame = 0
 498              		@ frame_needed = 0, uses_anonymous_args = 0
 499              	.LVL39:
 500 0000 38B5     		push	{r3, r4, r5, lr}
 501              		.cfi_def_cfa_offset 16
 502              		.cfi_offset 3, -16
 503              		.cfi_offset 4, -12
 504              		.cfi_offset 5, -8
 505              		.cfi_offset 14, -4
 506              		.loc 3 276 0
 507 0002 0546     		mov	r5, r0
 508 0004 0C46     		mov	r4, r1
 509              		.loc 3 280 0
 510 0006 FFF7FEFF 		bl	chSysLock
 511              	.LVL40:
 512              		.loc 3 281 0
 513 000a 2846     		mov	r0, r5
ARM GAS  /tmp/ccYGmlHj.s 			page 10


 514 000c 2146     		mov	r1, r4
 515 000e FFF7FEFF 		bl	chEvtSignalI
 516              	.LVL41:
 517              		.loc 3 282 0
 518 0012 FFF7FEFF 		bl	chSchRescheduleS
 519              	.LVL42:
 520              		.loc 3 284 0
 521 0016 BDE83840 		pop	{r3, r4, r5, lr}
 522              		.cfi_restore 14
 523              		.cfi_restore 5
 524              		.cfi_restore 4
 525              		.cfi_restore 3
 526              		.cfi_def_cfa_offset 0
 527              	.LVL43:
 528              		.loc 3 283 0
 529 001a FFF7FEBF 		b	chSysUnlock
 530              	.LVL44:
 531              		.cfi_endproc
 532              	.LFE297:
 533              		.size	chEvtSignal, .-chEvtSignal
 534              		.section	.text.chEvtBroadcastFlags,"ax",%progbits
 535              		.align	1
 536              		.global	chEvtBroadcastFlags
 537              		.thumb
 538              		.thumb_func
 539              		.type	chEvtBroadcastFlags, %function
 540              	chEvtBroadcastFlags:
 541              	.LFB299:
 542              		.loc 3 327 0
 543              		.cfi_startproc
 544              		@ args = 0, pretend = 0, frame = 0
 545              		@ frame_needed = 0, uses_anonymous_args = 0
 546              	.LVL45:
 547 0000 38B5     		push	{r3, r4, r5, lr}
 548              		.cfi_def_cfa_offset 16
 549              		.cfi_offset 3, -16
 550              		.cfi_offset 4, -12
 551              		.cfi_offset 5, -8
 552              		.cfi_offset 14, -4
 553              		.loc 3 327 0
 554 0002 0546     		mov	r5, r0
 555 0004 0C46     		mov	r4, r1
 556              		.loc 3 329 0
 557 0006 FFF7FEFF 		bl	chSysLock
 558              	.LVL46:
 559              		.loc 3 330 0
 560 000a 2846     		mov	r0, r5
 561 000c 2146     		mov	r1, r4
 562 000e FFF7FEFF 		bl	chEvtBroadcastFlagsI
 563              	.LVL47:
 564              		.loc 3 331 0
 565 0012 FFF7FEFF 		bl	chSchRescheduleS
 566              	.LVL48:
 567              		.loc 3 333 0
 568 0016 BDE83840 		pop	{r3, r4, r5, lr}
 569              		.cfi_restore 14
 570              		.cfi_restore 5
ARM GAS  /tmp/ccYGmlHj.s 			page 11


 571              		.cfi_restore 4
 572              		.cfi_restore 3
 573              		.cfi_def_cfa_offset 0
 574              	.LVL49:
 575              		.loc 3 332 0
 576 001a FFF7FEBF 		b	chSysUnlock
 577              	.LVL50:
 578              		.cfi_endproc
 579              	.LFE299:
 580              		.size	chEvtBroadcastFlags, .-chEvtBroadcastFlags
 581              		.section	.text.chEvtGetAndClearFlagsI,"ax",%progbits
 582              		.align	1
 583              		.global	chEvtGetAndClearFlagsI
 584              		.thumb
 585              		.thumb_func
 586              		.type	chEvtGetAndClearFlagsI, %function
 587              	chEvtGetAndClearFlagsI:
 588              	.LFB300:
 589              		.loc 3 346 0
 590              		.cfi_startproc
 591              		@ args = 0, pretend = 0, frame = 0
 592              		@ frame_needed = 0, uses_anonymous_args = 0
 593              		@ link register save eliminated.
 594              	.LVL51:
 595              		.loc 3 350 0
 596 0000 0023     		movs	r3, #0
 597              		.loc 3 349 0
 598 0002 C268     		ldr	r2, [r0, #12]
 599              	.LVL52:
 600              		.loc 3 350 0
 601 0004 C360     		str	r3, [r0, #12]
 602              		.loc 3 352 0
 603 0006 0069     		ldr	r0, [r0, #16]
 604              	.LVL53:
 605              		.loc 3 353 0
 606 0008 1040     		ands	r0, r0, r2
 607 000a 7047     		bx	lr
 608              		.cfi_endproc
 609              	.LFE300:
 610              		.size	chEvtGetAndClearFlagsI, .-chEvtGetAndClearFlagsI
 611              		.section	.text.chEvtDispatch,"ax",%progbits
 612              		.align	1
 613              		.global	chEvtDispatch
 614              		.thumb
 615              		.thumb_func
 616              		.type	chEvtDispatch, %function
 617              	chEvtDispatch:
 618              	.LFB301:
 619              		.loc 3 364 0
 620              		.cfi_startproc
 621              		@ args = 0, pretend = 0, frame = 0
 622              		@ frame_needed = 0, uses_anonymous_args = 0
 623              	.LVL54:
 624 0000 70B5     		push	{r4, r5, r6, lr}
 625              		.cfi_def_cfa_offset 16
 626              		.cfi_offset 4, -16
 627              		.cfi_offset 5, -12
ARM GAS  /tmp/ccYGmlHj.s 			page 12


 628              		.cfi_offset 6, -8
 629              		.cfi_offset 14, -4
 630              		.loc 3 364 0
 631 0002 0646     		mov	r6, r0
 632 0004 0D46     		mov	r5, r1
 633              		.loc 3 369 0
 634 0006 0024     		movs	r4, #0
 635              	.LVL55:
 636              	.L40:
 637              		.loc 3 370 0
 638 0008 6DB1     		cbz	r5, .L46
 639              		.loc 3 371 0
 640 000a 25FA04F3 		lsr	r3, r5, r4
 641 000e DB07     		lsls	r3, r3, #31
 642 0010 07D5     		bpl	.L41
 643              		.loc 3 373 0
 644 0012 0123     		movs	r3, #1
 645 0014 A340     		lsls	r3, r3, r4
 646 0016 25EA0305 		bic	r5, r5, r3
 647              	.LVL56:
 648              		.loc 3 374 0
 649 001a 2046     		mov	r0, r4
 650 001c 56F82430 		ldr	r3, [r6, r4, lsl #2]
 651 0020 9847     		blx	r3
 652              	.LVL57:
 653              	.L41:
 654              		.loc 3 376 0
 655 0022 0134     		adds	r4, r4, #1
 656              	.LVL58:
 657 0024 F0E7     		b	.L40
 658              	.L46:
 659              		.loc 3 378 0
 660 0026 70BD     		pop	{r4, r5, r6, pc}
 661              		.cfi_endproc
 662              	.LFE301:
 663              		.size	chEvtDispatch, .-chEvtDispatch
 664              		.section	.text.chEvtWaitOne,"ax",%progbits
 665              		.align	1
 666              		.global	chEvtWaitOne
 667              		.thumb
 668              		.thumb_func
 669              		.type	chEvtWaitOne, %function
 670              	chEvtWaitOne:
 671              	.LFB302:
 672              		.loc 3 399 0
 673              		.cfi_startproc
 674              		@ args = 0, pretend = 0, frame = 0
 675              		@ frame_needed = 0, uses_anonymous_args = 0
 676              	.LVL59:
 677 0000 38B5     		push	{r3, r4, r5, lr}
 678              		.cfi_def_cfa_offset 16
 679              		.cfi_offset 3, -16
 680              		.cfi_offset 4, -12
 681              		.cfi_offset 5, -8
 682              		.cfi_offset 14, -4
 683              		.loc 3 400 0
 684 0002 0C4B     		ldr	r3, .L49
ARM GAS  /tmp/ccYGmlHj.s 			page 13


 685 0004 9D69     		ldr	r5, [r3, #24]
 686              	.LVL60:
 687              		.loc 3 399 0
 688 0006 0446     		mov	r4, r0
 689              		.loc 3 403 0
 690 0008 FFF7FEFF 		bl	chSysLock
 691              	.LVL61:
 692              		.loc 3 404 0
 693 000c 6B6B     		ldr	r3, [r5, #52]
 694              	.LVL62:
 695              		.loc 3 405 0
 696 000e 2340     		ands	r3, r4, r3
 697              	.LVL63:
 698 0010 05D1     		bne	.L48
 699              		.loc 3 406 0
 700 0012 6C62     		str	r4, [r5, #36]
 701              		.loc 3 407 0
 702 0014 0A20     		movs	r0, #10
 703 0016 FFF7FEFF 		bl	chSchGoSleepS
 704              	.LVL64:
 705              		.loc 3 408 0
 706 001a 6B6B     		ldr	r3, [r5, #52]
 707 001c 2340     		ands	r3, r3, r4
 708              	.LVL65:
 709              	.L48:
 710              		.loc 3 410 0
 711 001e 5C42     		negs	r4, r3
 712              	.LVL66:
 713 0020 1C40     		ands	r4, r4, r3
 714              	.LVL67:
 715              		.loc 3 411 0
 716 0022 6B6B     		ldr	r3, [r5, #52]
 717 0024 23EA0403 		bic	r3, r3, r4
 718 0028 6B63     		str	r3, [r5, #52]
 719              		.loc 3 412 0
 720 002a FFF7FEFF 		bl	chSysUnlock
 721              	.LVL68:
 722              		.loc 3 415 0
 723 002e 2046     		mov	r0, r4
 724 0030 38BD     		pop	{r3, r4, r5, pc}
 725              	.LVL69:
 726              	.L50:
 727 0032 00BF     		.align	2
 728              	.L49:
 729 0034 00000000 		.word	ch
 730              		.cfi_endproc
 731              	.LFE302:
 732              		.size	chEvtWaitOne, .-chEvtWaitOne
 733              		.section	.text.chEvtWaitAny,"ax",%progbits
 734              		.align	1
 735              		.global	chEvtWaitAny
 736              		.thumb
 737              		.thumb_func
 738              		.type	chEvtWaitAny, %function
 739              	chEvtWaitAny:
 740              	.LFB303:
 741              		.loc 3 429 0
ARM GAS  /tmp/ccYGmlHj.s 			page 14


 742              		.cfi_startproc
 743              		@ args = 0, pretend = 0, frame = 0
 744              		@ frame_needed = 0, uses_anonymous_args = 0
 745              	.LVL70:
 746              		.loc 3 430 0
 747 0000 0B4B     		ldr	r3, .L53
 748              		.loc 3 429 0
 749 0002 70B5     		push	{r4, r5, r6, lr}
 750              		.cfi_def_cfa_offset 16
 751              		.cfi_offset 4, -16
 752              		.cfi_offset 5, -12
 753              		.cfi_offset 6, -8
 754              		.cfi_offset 14, -4
 755              		.loc 3 430 0
 756 0004 9D69     		ldr	r5, [r3, #24]
 757              	.LVL71:
 758              		.loc 3 429 0
 759 0006 0646     		mov	r6, r0
 760              		.loc 3 433 0
 761 0008 FFF7FEFF 		bl	chSysLock
 762              	.LVL72:
 763              		.loc 3 434 0
 764 000c 6C6B     		ldr	r4, [r5, #52]
 765              	.LVL73:
 766              		.loc 3 435 0
 767 000e 3440     		ands	r4, r6, r4
 768              	.LVL74:
 769 0010 05D1     		bne	.L52
 770              		.loc 3 436 0
 771 0012 6E62     		str	r6, [r5, #36]
 772              		.loc 3 437 0
 773 0014 0A20     		movs	r0, #10
 774 0016 FFF7FEFF 		bl	chSchGoSleepS
 775              	.LVL75:
 776              		.loc 3 438 0
 777 001a 6C6B     		ldr	r4, [r5, #52]
 778              	.LVL76:
 779 001c 3440     		ands	r4, r4, r6
 780              	.LVL77:
 781              	.L52:
 782              		.loc 3 440 0
 783 001e 6B6B     		ldr	r3, [r5, #52]
 784 0020 23EA0403 		bic	r3, r3, r4
 785 0024 6B63     		str	r3, [r5, #52]
 786              		.loc 3 441 0
 787 0026 FFF7FEFF 		bl	chSysUnlock
 788              	.LVL78:
 789              		.loc 3 444 0
 790 002a 2046     		mov	r0, r4
 791 002c 70BD     		pop	{r4, r5, r6, pc}
 792              	.LVL79:
 793              	.L54:
 794 002e 00BF     		.align	2
 795              	.L53:
 796 0030 00000000 		.word	ch
 797              		.cfi_endproc
 798              	.LFE303:
ARM GAS  /tmp/ccYGmlHj.s 			page 15


 799              		.size	chEvtWaitAny, .-chEvtWaitAny
 800              		.section	.text.chEvtWaitAll,"ax",%progbits
 801              		.align	1
 802              		.global	chEvtWaitAll
 803              		.thumb
 804              		.thumb_func
 805              		.type	chEvtWaitAll, %function
 806              	chEvtWaitAll:
 807              	.LFB304:
 808              		.loc 3 457 0
 809              		.cfi_startproc
 810              		@ args = 0, pretend = 0, frame = 0
 811              		@ frame_needed = 0, uses_anonymous_args = 0
 812              	.LVL80:
 813 0000 38B5     		push	{r3, r4, r5, lr}
 814              		.cfi_def_cfa_offset 16
 815              		.cfi_offset 3, -16
 816              		.cfi_offset 4, -12
 817              		.cfi_offset 5, -8
 818              		.cfi_offset 14, -4
 819              		.loc 3 458 0
 820 0002 0A4B     		ldr	r3, .L57
 821 0004 9D69     		ldr	r5, [r3, #24]
 822              	.LVL81:
 823              		.loc 3 457 0
 824 0006 0446     		mov	r4, r0
 825              		.loc 3 460 0
 826 0008 FFF7FEFF 		bl	chSysLock
 827              	.LVL82:
 828              		.loc 3 461 0
 829 000c 6B6B     		ldr	r3, [r5, #52]
 830 000e 2340     		ands	r3, r3, r4
 831 0010 A342     		cmp	r3, r4
 832 0012 03D0     		beq	.L56
 833              		.loc 3 462 0
 834 0014 6C62     		str	r4, [r5, #36]
 835              		.loc 3 463 0
 836 0016 0B20     		movs	r0, #11
 837 0018 FFF7FEFF 		bl	chSchGoSleepS
 838              	.LVL83:
 839              	.L56:
 840              		.loc 3 465 0
 841 001c 6B6B     		ldr	r3, [r5, #52]
 842 001e 23EA0403 		bic	r3, r3, r4
 843 0022 6B63     		str	r3, [r5, #52]
 844              		.loc 3 466 0
 845 0024 FFF7FEFF 		bl	chSysUnlock
 846              	.LVL84:
 847              		.loc 3 469 0
 848 0028 2046     		mov	r0, r4
 849 002a 38BD     		pop	{r3, r4, r5, pc}
 850              	.LVL85:
 851              	.L58:
 852              		.align	2
 853              	.L57:
 854 002c 00000000 		.word	ch
 855              		.cfi_endproc
ARM GAS  /tmp/ccYGmlHj.s 			page 16


 856              	.LFE304:
 857              		.size	chEvtWaitAll, .-chEvtWaitAll
 858              		.section	.text.chEvtWaitOneTimeout,"ax",%progbits
 859              		.align	1
 860              		.global	chEvtWaitOneTimeout
 861              		.thumb
 862              		.thumb_func
 863              		.type	chEvtWaitOneTimeout, %function
 864              	chEvtWaitOneTimeout:
 865              	.LFB305:
 866              		.loc 3 495 0
 867              		.cfi_startproc
 868              		@ args = 0, pretend = 0, frame = 0
 869              		@ frame_needed = 0, uses_anonymous_args = 0
 870              	.LVL86:
 871              		.loc 3 496 0
 872 0000 104B     		ldr	r3, .L64
 873              		.loc 3 495 0
 874 0002 70B5     		push	{r4, r5, r6, lr}
 875              		.cfi_def_cfa_offset 16
 876              		.cfi_offset 4, -16
 877              		.cfi_offset 5, -12
 878              		.cfi_offset 6, -8
 879              		.cfi_offset 14, -4
 880              		.loc 3 496 0
 881 0004 9D69     		ldr	r5, [r3, #24]
 882              	.LVL87:
 883              		.loc 3 495 0
 884 0006 0446     		mov	r4, r0
 885 0008 0E46     		mov	r6, r1
 886              		.loc 3 499 0
 887 000a FFF7FEFF 		bl	chSysLock
 888              	.LVL88:
 889              		.loc 3 500 0
 890 000e 6B6B     		ldr	r3, [r5, #52]
 891              	.LVL89:
 892              		.loc 3 501 0
 893 0010 2340     		ands	r3, r4, r3
 894              	.LVL90:
 895 0012 0DD1     		bne	.L60
 896              		.loc 3 502 0
 897 0014 1EB9     		cbnz	r6, .L61
 898              	.LVL91:
 899              	.L63:
 900              		.loc 3 503 0
 901 0016 FFF7FEFF 		bl	chSysUnlock
 902              	.LVL92:
 903              		.loc 3 504 0
 904 001a 0020     		movs	r0, #0
 905 001c 70BD     		pop	{r4, r5, r6, pc}
 906              	.LVL93:
 907              	.L61:
 908              		.loc 3 506 0
 909 001e 6C62     		str	r4, [r5, #36]
 910              		.loc 3 507 0
 911 0020 0A20     		movs	r0, #10
 912 0022 3146     		mov	r1, r6
ARM GAS  /tmp/ccYGmlHj.s 			page 17


 913 0024 FFF7FEFF 		bl	chSchGoSleepTimeoutS
 914              	.LVL94:
 915 0028 0028     		cmp	r0, #0
 916 002a F4DB     		blt	.L63
 917              		.loc 3 511 0
 918 002c 6B6B     		ldr	r3, [r5, #52]
 919 002e 2340     		ands	r3, r3, r4
 920              	.LVL95:
 921              	.L60:
 922              		.loc 3 513 0
 923 0030 5C42     		negs	r4, r3
 924              	.LVL96:
 925 0032 1C40     		ands	r4, r4, r3
 926              	.LVL97:
 927              		.loc 3 514 0
 928 0034 6B6B     		ldr	r3, [r5, #52]
 929 0036 23EA0403 		bic	r3, r3, r4
 930 003a 6B63     		str	r3, [r5, #52]
 931              		.loc 3 515 0
 932 003c FFF7FEFF 		bl	chSysUnlock
 933              	.LVL98:
 934              		.loc 3 517 0
 935 0040 2046     		mov	r0, r4
 936              		.loc 3 518 0
 937 0042 70BD     		pop	{r4, r5, r6, pc}
 938              	.LVL99:
 939              	.L65:
 940              		.align	2
 941              	.L64:
 942 0044 00000000 		.word	ch
 943              		.cfi_endproc
 944              	.LFE305:
 945              		.size	chEvtWaitOneTimeout, .-chEvtWaitOneTimeout
 946              		.section	.text.chEvtWaitAnyTimeout,"ax",%progbits
 947              		.align	1
 948              		.global	chEvtWaitAnyTimeout
 949              		.thumb
 950              		.thumb_func
 951              		.type	chEvtWaitAnyTimeout, %function
 952              	chEvtWaitAnyTimeout:
 953              	.LFB306:
 954              		.loc 3 538 0
 955              		.cfi_startproc
 956              		@ args = 0, pretend = 0, frame = 0
 957              		@ frame_needed = 0, uses_anonymous_args = 0
 958              	.LVL100:
 959 0000 F8B5     		push	{r3, r4, r5, r6, r7, lr}
 960              		.cfi_def_cfa_offset 24
 961              		.cfi_offset 3, -24
 962              		.cfi_offset 4, -20
 963              		.cfi_offset 5, -16
 964              		.cfi_offset 6, -12
 965              		.cfi_offset 7, -8
 966              		.cfi_offset 14, -4
 967              		.loc 3 539 0
 968 0002 0F4B     		ldr	r3, .L71
 969 0004 9D69     		ldr	r5, [r3, #24]
ARM GAS  /tmp/ccYGmlHj.s 			page 18


 970              	.LVL101:
 971              		.loc 3 538 0
 972 0006 0646     		mov	r6, r0
 973 0008 0F46     		mov	r7, r1
 974              		.loc 3 542 0
 975 000a FFF7FEFF 		bl	chSysLock
 976              	.LVL102:
 977              		.loc 3 543 0
 978 000e 6C6B     		ldr	r4, [r5, #52]
 979              	.LVL103:
 980              		.loc 3 544 0
 981 0010 3440     		ands	r4, r6, r4
 982              	.LVL104:
 983 0012 0DD1     		bne	.L67
 984              		.loc 3 545 0
 985 0014 1FB9     		cbnz	r7, .L68
 986              	.L70:
 987              		.loc 3 546 0
 988 0016 FFF7FEFF 		bl	chSysUnlock
 989              	.LVL105:
 990              		.loc 3 547 0
 991 001a 0020     		movs	r0, #0
 992 001c F8BD     		pop	{r3, r4, r5, r6, r7, pc}
 993              	.LVL106:
 994              	.L68:
 995              		.loc 3 549 0
 996 001e 6E62     		str	r6, [r5, #36]
 997              		.loc 3 550 0
 998 0020 0A20     		movs	r0, #10
 999 0022 3946     		mov	r1, r7
 1000 0024 FFF7FEFF 		bl	chSchGoSleepTimeoutS
 1001              	.LVL107:
 1002 0028 0028     		cmp	r0, #0
 1003 002a F4DB     		blt	.L70
 1004              		.loc 3 554 0
 1005 002c 6C6B     		ldr	r4, [r5, #52]
 1006              	.LVL108:
 1007 002e 3440     		ands	r4, r4, r6
 1008              	.LVL109:
 1009              	.L67:
 1010              		.loc 3 556 0
 1011 0030 6B6B     		ldr	r3, [r5, #52]
 1012 0032 23EA0403 		bic	r3, r3, r4
 1013 0036 6B63     		str	r3, [r5, #52]
 1014              		.loc 3 557 0
 1015 0038 FFF7FEFF 		bl	chSysUnlock
 1016              	.LVL110:
 1017              		.loc 3 559 0
 1018 003c 2046     		mov	r0, r4
 1019              		.loc 3 560 0
 1020 003e F8BD     		pop	{r3, r4, r5, r6, r7, pc}
 1021              	.LVL111:
 1022              	.L72:
 1023              		.align	2
 1024              	.L71:
 1025 0040 00000000 		.word	ch
 1026              		.cfi_endproc
ARM GAS  /tmp/ccYGmlHj.s 			page 19


 1027              	.LFE306:
 1028              		.size	chEvtWaitAnyTimeout, .-chEvtWaitAnyTimeout
 1029              		.section	.text.chEvtWaitAllTimeout,"ax",%progbits
 1030              		.align	1
 1031              		.global	chEvtWaitAllTimeout
 1032              		.thumb
 1033              		.thumb_func
 1034              		.type	chEvtWaitAllTimeout, %function
 1035              	chEvtWaitAllTimeout:
 1036              	.LFB307:
 1037              		.loc 3 579 0
 1038              		.cfi_startproc
 1039              		@ args = 0, pretend = 0, frame = 0
 1040              		@ frame_needed = 0, uses_anonymous_args = 0
 1041              	.LVL112:
 1042              		.loc 3 580 0
 1043 0000 0F4B     		ldr	r3, .L78
 1044              		.loc 3 579 0
 1045 0002 70B5     		push	{r4, r5, r6, lr}
 1046              		.cfi_def_cfa_offset 16
 1047              		.cfi_offset 4, -16
 1048              		.cfi_offset 5, -12
 1049              		.cfi_offset 6, -8
 1050              		.cfi_offset 14, -4
 1051              		.loc 3 580 0
 1052 0004 9D69     		ldr	r5, [r3, #24]
 1053              	.LVL113:
 1054              		.loc 3 579 0
 1055 0006 0446     		mov	r4, r0
 1056 0008 0E46     		mov	r6, r1
 1057              		.loc 3 582 0
 1058 000a FFF7FEFF 		bl	chSysLock
 1059              	.LVL114:
 1060              		.loc 3 583 0
 1061 000e 6B6B     		ldr	r3, [r5, #52]
 1062 0010 2340     		ands	r3, r3, r4
 1063 0012 A342     		cmp	r3, r4
 1064 0014 0BD0     		beq	.L74
 1065              		.loc 3 584 0
 1066 0016 1EB9     		cbnz	r6, .L75
 1067              	.L77:
 1068              		.loc 3 585 0
 1069 0018 FFF7FEFF 		bl	chSysUnlock
 1070              	.LVL115:
 1071              		.loc 3 586 0
 1072 001c 0020     		movs	r0, #0
 1073 001e 70BD     		pop	{r4, r5, r6, pc}
 1074              	.LVL116:
 1075              	.L75:
 1076              		.loc 3 588 0
 1077 0020 6C62     		str	r4, [r5, #36]
 1078              		.loc 3 589 0
 1079 0022 0B20     		movs	r0, #11
 1080 0024 3146     		mov	r1, r6
 1081 0026 FFF7FEFF 		bl	chSchGoSleepTimeoutS
 1082              	.LVL117:
 1083 002a 0028     		cmp	r0, #0
ARM GAS  /tmp/ccYGmlHj.s 			page 20


 1084 002c F4DB     		blt	.L77
 1085              	.L74:
 1086              		.loc 3 594 0
 1087 002e 6B6B     		ldr	r3, [r5, #52]
 1088 0030 23EA0403 		bic	r3, r3, r4
 1089 0034 6B63     		str	r3, [r5, #52]
 1090              		.loc 3 595 0
 1091 0036 FFF7FEFF 		bl	chSysUnlock
 1092              	.LVL118:
 1093              		.loc 3 597 0
 1094 003a 2046     		mov	r0, r4
 1095              		.loc 3 598 0
 1096 003c 70BD     		pop	{r4, r5, r6, pc}
 1097              	.LVL119:
 1098              	.L79:
 1099 003e 00BF     		.align	2
 1100              	.L78:
 1101 0040 00000000 		.word	ch
 1102              		.cfi_endproc
 1103              	.LFE307:
 1104              		.size	chEvtWaitAllTimeout, .-chEvtWaitAllTimeout
 1105              		.text
 1106              	.Letext0:
 1107              		.file 5 "/usr/include/newlib/machine/_default_types.h"
 1108              		.file 6 "/usr/include/newlib/sys/_stdint.h"
 1109              		.file 7 "../../modules/ChibiOS/os/common/ports/ARMCMx/compilers/GCC/chtypes.h"
 1110              		.file 8 "../../modules/ChibiOS/os/rt/include/chsystypes.h"
 1111              		.file 9 "../../modules/ChibiOS/os/rt/include/chschd.h"
 1112              		.file 10 "../../modules/ChibiOS/os/rt/include/chtime.h"
 1113              		.file 11 "../../modules/ChibiOS/os/common/ports/ARMCMx/chcore.h"
 1114              		.file 12 "../../modules/ChibiOS/os/common/ports/ARMCMx/chcore_v7m.h"
 1115              		.file 13 "../../modules/ChibiOS/os/rt/include/chtm.h"
 1116              		.file 14 "../../modules/ChibiOS/os/rt/include/chstats.h"
 1117              		.file 15 "../../modules/ChibiOS/os/rt/include/chsem.h"
 1118              		.file 16 "../../modules/ChibiOS/os/rt/include/chmtx.h"
 1119              		.file 17 "../../modules/ChibiOS/os/common/ext/ARM/CMSIS/Core/Include/core_cm4.h"
 1120              		.section	.debug_info,"",%progbits
 1121              	.Ldebug_info0:
 1122 0000 2B110000 		.4byte	0x112b
 1123 0004 0400     		.2byte	0x4
 1124 0006 00000000 		.4byte	.Ldebug_abbrev0
 1125 000a 04       		.byte	0x4
 1126 000b 01       		.uleb128 0x1
 1127 000c 74020000 		.4byte	.LASF147
 1128 0010 01       		.byte	0x1
 1129 0011 62040000 		.4byte	.LASF148
 1130 0015 F9060000 		.4byte	.LASF149
 1131 0019 00000000 		.4byte	.Ldebug_ranges0+0
 1132 001d 00000000 		.4byte	0
 1133 0021 00000000 		.4byte	.Ldebug_line0
 1134 0025 02       		.uleb128 0x2
 1135 0026 04       		.byte	0x4
 1136 0027 05       		.byte	0x5
 1137 0028 696E7400 		.ascii	"int\000"
 1138 002c 03       		.uleb128 0x3
 1139 002d 04       		.byte	0x4
 1140 002e 07       		.byte	0x7
ARM GAS  /tmp/ccYGmlHj.s 			page 21


 1141 002f 67020000 		.4byte	.LASF0
 1142 0033 03       		.uleb128 0x3
 1143 0034 01       		.byte	0x1
 1144 0035 06       		.byte	0x6
 1145 0036 2B010000 		.4byte	.LASF1
 1146 003a 04       		.uleb128 0x4
 1147 003b 36000000 		.4byte	.LASF5
 1148 003f 05       		.byte	0x5
 1149 0040 1D       		.byte	0x1d
 1150 0041 45000000 		.4byte	0x45
 1151 0045 03       		.uleb128 0x3
 1152 0046 01       		.byte	0x1
 1153 0047 08       		.byte	0x8
 1154 0048 B2050000 		.4byte	.LASF2
 1155 004c 03       		.uleb128 0x3
 1156 004d 02       		.byte	0x2
 1157 004e 05       		.byte	0x5
 1158 004f CD050000 		.4byte	.LASF3
 1159 0053 03       		.uleb128 0x3
 1160 0054 02       		.byte	0x2
 1161 0055 07       		.byte	0x7
 1162 0056 9B030000 		.4byte	.LASF4
 1163 005a 04       		.uleb128 0x4
 1164 005b 58040000 		.4byte	.LASF6
 1165 005f 05       		.byte	0x5
 1166 0060 3F       		.byte	0x3f
 1167 0061 65000000 		.4byte	0x65
 1168 0065 03       		.uleb128 0x3
 1169 0066 04       		.byte	0x4
 1170 0067 05       		.byte	0x5
 1171 0068 75010000 		.4byte	.LASF7
 1172 006c 04       		.uleb128 0x4
 1173 006d E0010000 		.4byte	.LASF8
 1174 0071 05       		.byte	0x5
 1175 0072 41       		.byte	0x41
 1176 0073 77000000 		.4byte	0x77
 1177 0077 03       		.uleb128 0x3
 1178 0078 04       		.byte	0x4
 1179 0079 07       		.byte	0x7
 1180 007a 80060000 		.4byte	.LASF9
 1181 007e 03       		.uleb128 0x3
 1182 007f 08       		.byte	0x8
 1183 0080 05       		.byte	0x5
 1184 0081 2A020000 		.4byte	.LASF10
 1185 0085 04       		.uleb128 0x4
 1186 0086 57050000 		.4byte	.LASF11
 1187 008a 05       		.byte	0x5
 1188 008b 5B       		.byte	0x5b
 1189 008c 90000000 		.4byte	0x90
 1190 0090 03       		.uleb128 0x3
 1191 0091 08       		.byte	0x8
 1192 0092 07       		.byte	0x7
 1193 0093 A0000000 		.4byte	.LASF12
 1194 0097 04       		.uleb128 0x4
 1195 0098 59070000 		.4byte	.LASF13
 1196 009c 06       		.byte	0x6
 1197 009d 14       		.byte	0x14
ARM GAS  /tmp/ccYGmlHj.s 			page 22


 1198 009e 3A000000 		.4byte	0x3a
 1199 00a2 04       		.uleb128 0x4
 1200 00a3 AA050000 		.4byte	.LASF14
 1201 00a7 06       		.byte	0x6
 1202 00a8 1F       		.byte	0x1f
 1203 00a9 5A000000 		.4byte	0x5a
 1204 00ad 04       		.uleb128 0x4
 1205 00ae 4E060000 		.4byte	.LASF15
 1206 00b2 06       		.byte	0x6
 1207 00b3 20       		.byte	0x20
 1208 00b4 6C000000 		.4byte	0x6c
 1209 00b8 04       		.uleb128 0x4
 1210 00b9 20000000 		.4byte	.LASF16
 1211 00bd 06       		.byte	0x6
 1212 00be 26       		.byte	0x26
 1213 00bf 85000000 		.4byte	0x85
 1214 00c3 04       		.uleb128 0x4
 1215 00c4 25070000 		.4byte	.LASF17
 1216 00c8 07       		.byte	0x7
 1217 00c9 27       		.byte	0x27
 1218 00ca AD000000 		.4byte	0xad
 1219 00ce 04       		.uleb128 0x4
 1220 00cf 0A010000 		.4byte	.LASF18
 1221 00d3 07       		.byte	0x7
 1222 00d4 28       		.byte	0x28
 1223 00d5 B8000000 		.4byte	0xb8
 1224 00d9 04       		.uleb128 0x4
 1225 00da 2B040000 		.4byte	.LASF19
 1226 00de 07       		.byte	0x7
 1227 00df 2A       		.byte	0x2a
 1228 00e0 97000000 		.4byte	0x97
 1229 00e4 04       		.uleb128 0x4
 1230 00e5 AB010000 		.4byte	.LASF20
 1231 00e9 07       		.byte	0x7
 1232 00ea 2B       		.byte	0x2b
 1233 00eb 97000000 		.4byte	0x97
 1234 00ef 04       		.uleb128 0x4
 1235 00f0 76050000 		.4byte	.LASF21
 1236 00f4 07       		.byte	0x7
 1237 00f5 2C       		.byte	0x2c
 1238 00f6 97000000 		.4byte	0x97
 1239 00fa 04       		.uleb128 0x4
 1240 00fb 93050000 		.4byte	.LASF22
 1241 00ff 07       		.byte	0x7
 1242 0100 2E       		.byte	0x2e
 1243 0101 AD000000 		.4byte	0xad
 1244 0105 04       		.uleb128 0x4
 1245 0106 D4030000 		.4byte	.LASF23
 1246 010a 07       		.byte	0x7
 1247 010b 2F       		.byte	0x2f
 1248 010c A2000000 		.4byte	0xa2
 1249 0110 04       		.uleb128 0x4
 1250 0111 20020000 		.4byte	.LASF24
 1251 0115 07       		.byte	0x7
 1252 0116 30       		.byte	0x30
 1253 0117 A2000000 		.4byte	0xa2
 1254 011b 04       		.uleb128 0x4
ARM GAS  /tmp/ccYGmlHj.s 			page 23


 1255 011c 4C040000 		.4byte	.LASF25
 1256 0120 07       		.byte	0x7
 1257 0121 31       		.byte	0x31
 1258 0122 AD000000 		.4byte	0xad
 1259 0126 04       		.uleb128 0x4
 1260 0127 C7030000 		.4byte	.LASF26
 1261 012b 07       		.byte	0x7
 1262 012c 32       		.byte	0x32
 1263 012d AD000000 		.4byte	0xad
 1264 0131 04       		.uleb128 0x4
 1265 0132 61020000 		.4byte	.LASF27
 1266 0136 07       		.byte	0x7
 1267 0137 33       		.byte	0x33
 1268 0138 A2000000 		.4byte	0xa2
 1269 013c 04       		.uleb128 0x4
 1270 013d DF030000 		.4byte	.LASF28
 1271 0141 07       		.byte	0x7
 1272 0142 34       		.byte	0x34
 1273 0143 AD000000 		.4byte	0xad
 1274 0147 04       		.uleb128 0x4
 1275 0148 A4060000 		.4byte	.LASF29
 1276 014c 08       		.byte	0x8
 1277 014d 34       		.byte	0x34
 1278 014e 52010000 		.4byte	0x152
 1279 0152 05       		.uleb128 0x5
 1280 0153 BD030000 		.4byte	.LASF48
 1281 0157 60       		.byte	0x60
 1282 0158 09       		.byte	0x9
 1283 0159 8E       		.byte	0x8e
 1284 015a 3D020000 		.4byte	0x23d
 1285 015e 06       		.uleb128 0x6
 1286 015f 8F030000 		.4byte	.LASF30
 1287 0163 09       		.byte	0x9
 1288 0164 8F       		.byte	0x8f
 1289 0165 72020000 		.4byte	0x272
 1290 0169 00       		.byte	0
 1291 016a 06       		.uleb128 0x6
 1292 016b 4A050000 		.4byte	.LASF31
 1293 016f 09       		.byte	0x9
 1294 0170 90       		.byte	0x90
 1295 0171 FA000000 		.4byte	0xfa
 1296 0175 08       		.byte	0x8
 1297 0176 07       		.uleb128 0x7
 1298 0177 63747800 		.ascii	"ctx\000"
 1299 017b 09       		.byte	0x9
 1300 017c 91       		.byte	0x91
 1301 017d 8D040000 		.4byte	0x48d
 1302 0181 0C       		.byte	0xc
 1303 0182 06       		.uleb128 0x6
 1304 0183 98040000 		.4byte	.LASF32
 1305 0187 09       		.byte	0x9
 1306 0188 93       		.byte	0x93
 1307 0189 48020000 		.4byte	0x248
 1308 018d 10       		.byte	0x10
 1309 018e 06       		.uleb128 0x6
 1310 018f 9E060000 		.4byte	.LASF33
 1311 0193 09       		.byte	0x9
ARM GAS  /tmp/ccYGmlHj.s 			page 24


 1312 0194 94       		.byte	0x94
 1313 0195 48020000 		.4byte	0x248
 1314 0199 14       		.byte	0x14
 1315 019a 06       		.uleb128 0x6
 1316 019b EF030000 		.4byte	.LASF34
 1317 019f 09       		.byte	0x9
 1318 01a0 9B       		.byte	0x9b
 1319 01a1 73070000 		.4byte	0x773
 1320 01a5 18       		.byte	0x18
 1321 01a6 06       		.uleb128 0x6
 1322 01a7 92060000 		.4byte	.LASF35
 1323 01ab 09       		.byte	0x9
 1324 01ac A4       		.byte	0xa4
 1325 01ad 85070000 		.4byte	0x785
 1326 01b1 1C       		.byte	0x1c
 1327 01b2 06       		.uleb128 0x6
 1328 01b3 6F010000 		.4byte	.LASF36
 1329 01b7 09       		.byte	0x9
 1330 01b8 A9       		.byte	0xa9
 1331 01b9 E4000000 		.4byte	0xe4
 1332 01bd 20       		.byte	0x20
 1333 01be 06       		.uleb128 0x6
 1334 01bf 61070000 		.4byte	.LASF37
 1335 01c3 09       		.byte	0x9
 1336 01c4 AD       		.byte	0xad
 1337 01c5 D9000000 		.4byte	0xd9
 1338 01c9 21       		.byte	0x21
 1339 01ca 06       		.uleb128 0x6
 1340 01cb 7E050000 		.4byte	.LASF38
 1341 01cf 09       		.byte	0x9
 1342 01d0 B2       		.byte	0xb2
 1343 01d1 EF000000 		.4byte	0xef
 1344 01d5 22       		.byte	0x22
 1345 01d6 08       		.uleb128 0x8
 1346 01d7 7500     		.ascii	"u\000"
 1347 01d9 09       		.byte	0x9
 1348 01da 0301     		.2byte	0x103
 1349 01dc A9060000 		.4byte	0x6a9
 1350 01e0 24       		.byte	0x24
 1351 01e1 09       		.uleb128 0x9
 1352 01e2 18020000 		.4byte	.LASF39
 1353 01e6 09       		.byte	0x9
 1354 01e7 0801     		.2byte	0x108
 1355 01e9 4E020000 		.4byte	0x24e
 1356 01ed 28       		.byte	0x28
 1357 01ee 09       		.uleb128 0x9
 1358 01ef 66010000 		.4byte	.LASF40
 1359 01f3 09       		.byte	0x9
 1360 01f4 0E01     		.2byte	0x10e
 1361 01f6 72020000 		.4byte	0x272
 1362 01fa 2C       		.byte	0x2c
 1363 01fb 09       		.uleb128 0x9
 1364 01fc E6030000 		.4byte	.LASF41
 1365 0200 09       		.byte	0x9
 1366 0201 1401     		.2byte	0x114
 1367 0203 1B010000 		.4byte	0x11b
 1368 0207 34       		.byte	0x34
ARM GAS  /tmp/ccYGmlHj.s 			page 25


 1369 0208 09       		.uleb128 0x9
 1370 0209 F0070000 		.4byte	.LASF42
 1371 020d 09       		.byte	0x9
 1372 020e 1B01     		.2byte	0x11b
 1373 0210 6D070000 		.4byte	0x76d
 1374 0214 38       		.byte	0x38
 1375 0215 09       		.uleb128 0x9
 1376 0216 AF040000 		.4byte	.LASF43
 1377 021a 09       		.byte	0x9
 1378 021b 1F01     		.2byte	0x11f
 1379 021d FA000000 		.4byte	0xfa
 1380 0221 3C       		.byte	0x3c
 1381 0222 09       		.uleb128 0x9
 1382 0223 95030000 		.4byte	.LASF44
 1383 0227 09       		.byte	0x9
 1384 0228 2601     		.2byte	0x126
 1385 022a 25030000 		.4byte	0x325
 1386 022e 40       		.byte	0x40
 1387 022f 09       		.uleb128 0x9
 1388 0230 90010000 		.4byte	.LASF45
 1389 0234 09       		.byte	0x9
 1390 0235 2C01     		.2byte	0x12c
 1391 0237 5A060000 		.4byte	0x65a
 1392 023b 48       		.byte	0x48
 1393 023c 00       		.byte	0
 1394 023d 04       		.uleb128 0x4
 1395 023e DE040000 		.4byte	.LASF46
 1396 0242 08       		.byte	0x8
 1397 0243 39       		.byte	0x39
 1398 0244 48020000 		.4byte	0x248
 1399 0248 0A       		.uleb128 0xa
 1400 0249 04       		.byte	0x4
 1401 024a 47010000 		.4byte	0x147
 1402 024e 04       		.uleb128 0x4
 1403 024f A0070000 		.4byte	.LASF47
 1404 0253 08       		.byte	0x8
 1405 0254 3E       		.byte	0x3e
 1406 0255 59020000 		.4byte	0x259
 1407 0259 05       		.uleb128 0x5
 1408 025a 6A060000 		.4byte	.LASF49
 1409 025e 04       		.byte	0x4
 1410 025f 09       		.byte	0x9
 1411 0260 7C       		.byte	0x7c
 1412 0261 72020000 		.4byte	0x272
 1413 0265 06       		.uleb128 0x6
 1414 0266 05010000 		.4byte	.LASF50
 1415 026a 09       		.byte	0x9
 1416 026b 7D       		.byte	0x7d
 1417 026c 48020000 		.4byte	0x248
 1418 0270 00       		.byte	0
 1419 0271 00       		.byte	0
 1420 0272 04       		.uleb128 0x4
 1421 0273 2D070000 		.4byte	.LASF51
 1422 0277 08       		.byte	0x8
 1423 0278 45       		.byte	0x45
 1424 0279 7D020000 		.4byte	0x27d
 1425 027d 05       		.uleb128 0x5
ARM GAS  /tmp/ccYGmlHj.s 			page 26


 1426 027e 51000000 		.4byte	.LASF52
 1427 0282 08       		.byte	0x8
 1428 0283 09       		.byte	0x9
 1429 0284 83       		.byte	0x83
 1430 0285 A2020000 		.4byte	0x2a2
 1431 0289 06       		.uleb128 0x6
 1432 028a 05010000 		.4byte	.LASF50
 1433 028e 09       		.byte	0x9
 1434 028f 84       		.byte	0x84
 1435 0290 48020000 		.4byte	0x248
 1436 0294 00       		.byte	0
 1437 0295 06       		.uleb128 0x6
 1438 0296 40000000 		.4byte	.LASF53
 1439 029a 09       		.byte	0x9
 1440 029b 85       		.byte	0x85
 1441 029c 48020000 		.4byte	0x248
 1442 02a0 04       		.byte	0x4
 1443 02a1 00       		.byte	0
 1444 02a2 04       		.uleb128 0x4
 1445 02a3 00000000 		.4byte	.LASF54
 1446 02a7 08       		.byte	0x8
 1447 02a8 4C       		.byte	0x4c
 1448 02a9 AD020000 		.4byte	0x2ad
 1449 02ad 0B       		.uleb128 0xb
 1450 02ae 3E040000 		.4byte	.LASF55
 1451 02b2 1C       		.byte	0x1c
 1452 02b3 09       		.byte	0x9
 1453 02b4 5E01     		.2byte	0x15e
 1454 02b6 09030000 		.4byte	0x309
 1455 02ba 09       		.uleb128 0x9
 1456 02bb 8F030000 		.4byte	.LASF30
 1457 02bf 09       		.byte	0x9
 1458 02c0 5F01     		.2byte	0x15f
 1459 02c2 72020000 		.4byte	0x272
 1460 02c6 00       		.byte	0
 1461 02c7 09       		.uleb128 0x9
 1462 02c8 4A050000 		.4byte	.LASF31
 1463 02cc 09       		.byte	0x9
 1464 02cd 6001     		.2byte	0x160
 1465 02cf FA000000 		.4byte	0xfa
 1466 02d3 08       		.byte	0x8
 1467 02d4 08       		.uleb128 0x8
 1468 02d5 63747800 		.ascii	"ctx\000"
 1469 02d9 09       		.byte	0x9
 1470 02da 6201     		.2byte	0x162
 1471 02dc 8D040000 		.4byte	0x48d
 1472 02e0 0C       		.byte	0xc
 1473 02e1 09       		.uleb128 0x9
 1474 02e2 98040000 		.4byte	.LASF32
 1475 02e6 09       		.byte	0x9
 1476 02e7 6501     		.2byte	0x165
 1477 02e9 48020000 		.4byte	0x248
 1478 02ed 10       		.byte	0x10
 1479 02ee 09       		.uleb128 0x9
 1480 02ef 9E060000 		.4byte	.LASF33
 1481 02f3 09       		.byte	0x9
 1482 02f4 6601     		.2byte	0x166
ARM GAS  /tmp/ccYGmlHj.s 			page 27


 1483 02f6 48020000 		.4byte	0x248
 1484 02fa 14       		.byte	0x14
 1485 02fb 09       		.uleb128 0x9
 1486 02fc 4F050000 		.4byte	.LASF56
 1487 0300 09       		.byte	0x9
 1488 0301 6901     		.2byte	0x169
 1489 0303 48020000 		.4byte	0x248
 1490 0307 18       		.byte	0x18
 1491 0308 00       		.byte	0
 1492 0309 04       		.uleb128 0x4
 1493 030a D1060000 		.4byte	.LASF57
 1494 030e 08       		.byte	0x8
 1495 030f 51       		.byte	0x51
 1496 0310 14030000 		.4byte	0x314
 1497 0314 0A       		.uleb128 0xa
 1498 0315 04       		.byte	0x4
 1499 0316 1A030000 		.4byte	0x31a
 1500 031a 0C       		.uleb128 0xc
 1501 031b 25030000 		.4byte	0x325
 1502 031f 0D       		.uleb128 0xd
 1503 0320 25030000 		.4byte	0x325
 1504 0324 00       		.byte	0
 1505 0325 0E       		.uleb128 0xe
 1506 0326 04       		.byte	0x4
 1507 0327 04       		.uleb128 0x4
 1508 0328 83050000 		.4byte	.LASF58
 1509 032c 08       		.byte	0x8
 1510 032d 56       		.byte	0x56
 1511 032e 32030000 		.4byte	0x332
 1512 0332 0B       		.uleb128 0xb
 1513 0333 1B060000 		.4byte	.LASF59
 1514 0337 14       		.byte	0x14
 1515 0338 09       		.byte	0x9
 1516 0339 3901     		.2byte	0x139
 1517 033b 81030000 		.4byte	0x381
 1518 033f 09       		.uleb128 0x9
 1519 0340 05010000 		.4byte	.LASF50
 1520 0344 09       		.byte	0x9
 1521 0345 3A01     		.2byte	0x13a
 1522 0347 8B070000 		.4byte	0x78b
 1523 034b 00       		.byte	0
 1524 034c 09       		.uleb128 0x9
 1525 034d 40000000 		.4byte	.LASF53
 1526 0351 09       		.byte	0x9
 1527 0352 3B01     		.2byte	0x13b
 1528 0354 8B070000 		.4byte	0x78b
 1529 0358 04       		.byte	0x4
 1530 0359 09       		.uleb128 0x9
 1531 035a 13000000 		.4byte	.LASF60
 1532 035e 09       		.byte	0x9
 1533 035f 3C01     		.2byte	0x13c
 1534 0361 65040000 		.4byte	0x465
 1535 0365 08       		.byte	0x8
 1536 0366 09       		.uleb128 0x9
 1537 0367 7E010000 		.4byte	.LASF61
 1538 036b 09       		.byte	0x9
 1539 036c 3D01     		.2byte	0x13d
ARM GAS  /tmp/ccYGmlHj.s 			page 28


 1540 036e 09030000 		.4byte	0x309
 1541 0372 0C       		.byte	0xc
 1542 0373 08       		.uleb128 0x8
 1543 0374 70617200 		.ascii	"par\000"
 1544 0378 09       		.byte	0x9
 1545 0379 3F01     		.2byte	0x13f
 1546 037b 25030000 		.4byte	0x325
 1547 037f 10       		.byte	0x10
 1548 0380 00       		.byte	0
 1549 0381 04       		.uleb128 0x4
 1550 0382 E2000000 		.4byte	.LASF62
 1551 0386 08       		.byte	0x8
 1552 0387 5B       		.byte	0x5b
 1553 0388 8C030000 		.4byte	0x38c
 1554 038c 0B       		.uleb128 0xb
 1555 038d FA040000 		.4byte	.LASF63
 1556 0391 10       		.byte	0x10
 1557 0392 09       		.byte	0x9
 1558 0393 4901     		.2byte	0x149
 1559 0395 CE030000 		.4byte	0x3ce
 1560 0399 09       		.uleb128 0x9
 1561 039a 05010000 		.4byte	.LASF50
 1562 039e 09       		.byte	0x9
 1563 039f 4A01     		.2byte	0x14a
 1564 03a1 8B070000 		.4byte	0x78b
 1565 03a5 00       		.byte	0
 1566 03a6 09       		.uleb128 0x9
 1567 03a7 40000000 		.4byte	.LASF53
 1568 03ab 09       		.byte	0x9
 1569 03ac 4C01     		.2byte	0x14c
 1570 03ae 8B070000 		.4byte	0x78b
 1571 03b2 04       		.byte	0x4
 1572 03b3 09       		.uleb128 0x9
 1573 03b4 13000000 		.4byte	.LASF60
 1574 03b8 09       		.byte	0x9
 1575 03b9 4E01     		.2byte	0x14e
 1576 03bb 65040000 		.4byte	0x465
 1577 03bf 08       		.byte	0x8
 1578 03c0 09       		.uleb128 0x9
 1579 03c1 D7050000 		.4byte	.LASF64
 1580 03c5 09       		.byte	0x9
 1581 03c6 5601     		.2byte	0x156
 1582 03c8 5A040000 		.4byte	0x45a
 1583 03cc 0C       		.byte	0xc
 1584 03cd 00       		.byte	0
 1585 03ce 04       		.uleb128 0x4
 1586 03cf 62000000 		.4byte	.LASF65
 1587 03d3 08       		.byte	0x8
 1588 03d4 60       		.byte	0x60
 1589 03d5 D9030000 		.4byte	0x3d9
 1590 03d9 0B       		.uleb128 0xb
 1591 03da 08020000 		.4byte	.LASF66
 1592 03de 04       		.byte	0x4
 1593 03df 09       		.byte	0x9
 1594 03e0 7001     		.2byte	0x170
 1595 03e2 F4030000 		.4byte	0x3f4
 1596 03e6 09       		.uleb128 0x9
ARM GAS  /tmp/ccYGmlHj.s 			page 29


 1597 03e7 E8060000 		.4byte	.LASF67
 1598 03eb 09       		.byte	0x9
 1599 03ec 7801     		.2byte	0x178
 1600 03ee 91070000 		.4byte	0x791
 1601 03f2 00       		.byte	0
 1602 03f3 00       		.byte	0
 1603 03f4 04       		.uleb128 0x4
 1604 03f5 04040000 		.4byte	.LASF68
 1605 03f9 08       		.byte	0x8
 1606 03fa 65       		.byte	0x65
 1607 03fb FF030000 		.4byte	0x3ff
 1608 03ff 0B       		.uleb128 0xb
 1609 0400 FE050000 		.4byte	.LASF69
 1610 0404 D0       		.byte	0xd0
 1611 0405 09       		.byte	0x9
 1612 0406 9001     		.2byte	0x190
 1613 0408 5A040000 		.4byte	0x45a
 1614 040c 09       		.uleb128 0x9
 1615 040d 46070000 		.4byte	.LASF70
 1616 0411 09       		.byte	0x9
 1617 0412 9401     		.2byte	0x194
 1618 0414 A2020000 		.4byte	0x2a2
 1619 0418 00       		.byte	0
 1620 0419 09       		.uleb128 0x9
 1621 041a 53010000 		.4byte	.LASF71
 1622 041e 09       		.byte	0x9
 1623 041f 9801     		.2byte	0x198
 1624 0421 81030000 		.4byte	0x381
 1625 0425 1C       		.byte	0x1c
 1626 0426 08       		.uleb128 0x8
 1627 0427 64626700 		.ascii	"dbg\000"
 1628 042b 09       		.byte	0x9
 1629 042c 9C01     		.2byte	0x19c
 1630 042e CE030000 		.4byte	0x3ce
 1631 0432 2C       		.byte	0x2c
 1632 0433 09       		.uleb128 0x9
 1633 0434 CF000000 		.4byte	.LASF72
 1634 0438 09       		.byte	0x9
 1635 0439 A001     		.2byte	0x1a0
 1636 043b 47010000 		.4byte	0x147
 1637 043f 30       		.byte	0x30
 1638 0440 08       		.uleb128 0x8
 1639 0441 746D00   		.ascii	"tm\000"
 1640 0444 09       		.byte	0x9
 1641 0445 A501     		.2byte	0x1a5
 1642 0447 0C060000 		.4byte	0x60c
 1643 044b 90       		.byte	0x90
 1644 044c 09       		.uleb128 0x9
 1645 044d 29000000 		.4byte	.LASF73
 1646 0451 09       		.byte	0x9
 1647 0452 AB01     		.2byte	0x1ab
 1648 0454 9E060000 		.4byte	0x69e
 1649 0458 98       		.byte	0x98
 1650 0459 00       		.byte	0
 1651 045a 04       		.uleb128 0x4
 1652 045b C7060000 		.4byte	.LASF74
 1653 045f 0A       		.byte	0xa
ARM GAS  /tmp/ccYGmlHj.s 			page 30


 1654 0460 6D       		.byte	0x6d
 1655 0461 AD000000 		.4byte	0xad
 1656 0465 04       		.uleb128 0x4
 1657 0466 47020000 		.4byte	.LASF75
 1658 046a 0A       		.byte	0xa
 1659 046b 79       		.byte	0x79
 1660 046c AD000000 		.4byte	0xad
 1661 0470 03       		.uleb128 0x3
 1662 0471 04       		.byte	0x4
 1663 0472 07       		.byte	0x7
 1664 0473 D5040000 		.4byte	.LASF76
 1665 0477 04       		.uleb128 0x4
 1666 0478 EB010000 		.4byte	.LASF77
 1667 047c 0B       		.byte	0xb
 1668 047d 65       		.byte	0x65
 1669 047e 25030000 		.4byte	0x325
 1670 0482 04       		.uleb128 0x4
 1671 0483 8D040000 		.4byte	.LASF78
 1672 0487 0B       		.byte	0xb
 1673 0488 6D       		.byte	0x6d
 1674 0489 B8000000 		.4byte	0xb8
 1675 048d 05       		.uleb128 0x5
 1676 048e 1F050000 		.4byte	.LASF79
 1677 0492 04       		.byte	0x4
 1678 0493 0B       		.byte	0xb
 1679 0494 89       		.byte	0x89
 1680 0495 A5040000 		.4byte	0x4a5
 1681 0499 07       		.uleb128 0x7
 1682 049a 737000   		.ascii	"sp\000"
 1683 049d 0B       		.byte	0xb
 1684 049e 8A       		.byte	0x8a
 1685 049f F1050000 		.4byte	0x5f1
 1686 04a3 00       		.byte	0
 1687 04a4 00       		.byte	0
 1688 04a5 0B       		.uleb128 0xb
 1689 04a6 45000000 		.4byte	.LASF80
 1690 04aa 64       		.byte	0x64
 1691 04ab 0C       		.byte	0xc
 1692 04ac 5901     		.2byte	0x159
 1693 04ae F1050000 		.4byte	0x5f1
 1694 04b2 08       		.uleb128 0x8
 1695 04b3 73313600 		.ascii	"s16\000"
 1696 04b7 0C       		.byte	0xc
 1697 04b8 5B01     		.2byte	0x15b
 1698 04ba 77040000 		.4byte	0x477
 1699 04be 00       		.byte	0
 1700 04bf 08       		.uleb128 0x8
 1701 04c0 73313700 		.ascii	"s17\000"
 1702 04c4 0C       		.byte	0xc
 1703 04c5 5C01     		.2byte	0x15c
 1704 04c7 77040000 		.4byte	0x477
 1705 04cb 04       		.byte	0x4
 1706 04cc 08       		.uleb128 0x8
 1707 04cd 73313800 		.ascii	"s18\000"
 1708 04d1 0C       		.byte	0xc
 1709 04d2 5D01     		.2byte	0x15d
 1710 04d4 77040000 		.4byte	0x477
ARM GAS  /tmp/ccYGmlHj.s 			page 31


 1711 04d8 08       		.byte	0x8
 1712 04d9 08       		.uleb128 0x8
 1713 04da 73313900 		.ascii	"s19\000"
 1714 04de 0C       		.byte	0xc
 1715 04df 5E01     		.2byte	0x15e
 1716 04e1 77040000 		.4byte	0x477
 1717 04e5 0C       		.byte	0xc
 1718 04e6 08       		.uleb128 0x8
 1719 04e7 73323000 		.ascii	"s20\000"
 1720 04eb 0C       		.byte	0xc
 1721 04ec 5F01     		.2byte	0x15f
 1722 04ee 77040000 		.4byte	0x477
 1723 04f2 10       		.byte	0x10
 1724 04f3 08       		.uleb128 0x8
 1725 04f4 73323100 		.ascii	"s21\000"
 1726 04f8 0C       		.byte	0xc
 1727 04f9 6001     		.2byte	0x160
 1728 04fb 77040000 		.4byte	0x477
 1729 04ff 14       		.byte	0x14
 1730 0500 08       		.uleb128 0x8
 1731 0501 73323200 		.ascii	"s22\000"
 1732 0505 0C       		.byte	0xc
 1733 0506 6101     		.2byte	0x161
 1734 0508 77040000 		.4byte	0x477
 1735 050c 18       		.byte	0x18
 1736 050d 08       		.uleb128 0x8
 1737 050e 73323300 		.ascii	"s23\000"
 1738 0512 0C       		.byte	0xc
 1739 0513 6201     		.2byte	0x162
 1740 0515 77040000 		.4byte	0x477
 1741 0519 1C       		.byte	0x1c
 1742 051a 08       		.uleb128 0x8
 1743 051b 73323400 		.ascii	"s24\000"
 1744 051f 0C       		.byte	0xc
 1745 0520 6301     		.2byte	0x163
 1746 0522 77040000 		.4byte	0x477
 1747 0526 20       		.byte	0x20
 1748 0527 08       		.uleb128 0x8
 1749 0528 73323500 		.ascii	"s25\000"
 1750 052c 0C       		.byte	0xc
 1751 052d 6401     		.2byte	0x164
 1752 052f 77040000 		.4byte	0x477
 1753 0533 24       		.byte	0x24
 1754 0534 08       		.uleb128 0x8
 1755 0535 73323600 		.ascii	"s26\000"
 1756 0539 0C       		.byte	0xc
 1757 053a 6501     		.2byte	0x165
 1758 053c 77040000 		.4byte	0x477
 1759 0540 28       		.byte	0x28
 1760 0541 08       		.uleb128 0x8
 1761 0542 73323700 		.ascii	"s27\000"
 1762 0546 0C       		.byte	0xc
 1763 0547 6601     		.2byte	0x166
 1764 0549 77040000 		.4byte	0x477
 1765 054d 2C       		.byte	0x2c
 1766 054e 08       		.uleb128 0x8
 1767 054f 73323800 		.ascii	"s28\000"
ARM GAS  /tmp/ccYGmlHj.s 			page 32


 1768 0553 0C       		.byte	0xc
 1769 0554 6701     		.2byte	0x167
 1770 0556 77040000 		.4byte	0x477
 1771 055a 30       		.byte	0x30
 1772 055b 08       		.uleb128 0x8
 1773 055c 73323900 		.ascii	"s29\000"
 1774 0560 0C       		.byte	0xc
 1775 0561 6801     		.2byte	0x168
 1776 0563 77040000 		.4byte	0x477
 1777 0567 34       		.byte	0x34
 1778 0568 08       		.uleb128 0x8
 1779 0569 73333000 		.ascii	"s30\000"
 1780 056d 0C       		.byte	0xc
 1781 056e 6901     		.2byte	0x169
 1782 0570 77040000 		.4byte	0x477
 1783 0574 38       		.byte	0x38
 1784 0575 08       		.uleb128 0x8
 1785 0576 73333100 		.ascii	"s31\000"
 1786 057a 0C       		.byte	0xc
 1787 057b 6A01     		.2byte	0x16a
 1788 057d 77040000 		.4byte	0x477
 1789 0581 3C       		.byte	0x3c
 1790 0582 08       		.uleb128 0x8
 1791 0583 723400   		.ascii	"r4\000"
 1792 0586 0C       		.byte	0xc
 1793 0587 6C01     		.2byte	0x16c
 1794 0589 77040000 		.4byte	0x477
 1795 058d 40       		.byte	0x40
 1796 058e 08       		.uleb128 0x8
 1797 058f 723500   		.ascii	"r5\000"
 1798 0592 0C       		.byte	0xc
 1799 0593 6D01     		.2byte	0x16d
 1800 0595 77040000 		.4byte	0x477
 1801 0599 44       		.byte	0x44
 1802 059a 08       		.uleb128 0x8
 1803 059b 723600   		.ascii	"r6\000"
 1804 059e 0C       		.byte	0xc
 1805 059f 6E01     		.2byte	0x16e
 1806 05a1 77040000 		.4byte	0x477
 1807 05a5 48       		.byte	0x48
 1808 05a6 08       		.uleb128 0x8
 1809 05a7 723700   		.ascii	"r7\000"
 1810 05aa 0C       		.byte	0xc
 1811 05ab 6F01     		.2byte	0x16f
 1812 05ad 77040000 		.4byte	0x477
 1813 05b1 4C       		.byte	0x4c
 1814 05b2 08       		.uleb128 0x8
 1815 05b3 723800   		.ascii	"r8\000"
 1816 05b6 0C       		.byte	0xc
 1817 05b7 7001     		.2byte	0x170
 1818 05b9 77040000 		.4byte	0x477
 1819 05bd 50       		.byte	0x50
 1820 05be 08       		.uleb128 0x8
 1821 05bf 723900   		.ascii	"r9\000"
 1822 05c2 0C       		.byte	0xc
 1823 05c3 7101     		.2byte	0x171
 1824 05c5 77040000 		.4byte	0x477
ARM GAS  /tmp/ccYGmlHj.s 			page 33


 1825 05c9 54       		.byte	0x54
 1826 05ca 08       		.uleb128 0x8
 1827 05cb 72313000 		.ascii	"r10\000"
 1828 05cf 0C       		.byte	0xc
 1829 05d0 7201     		.2byte	0x172
 1830 05d2 77040000 		.4byte	0x477
 1831 05d6 58       		.byte	0x58
 1832 05d7 08       		.uleb128 0x8
 1833 05d8 72313100 		.ascii	"r11\000"
 1834 05dc 0C       		.byte	0xc
 1835 05dd 7301     		.2byte	0x173
 1836 05df 77040000 		.4byte	0x477
 1837 05e3 5C       		.byte	0x5c
 1838 05e4 08       		.uleb128 0x8
 1839 05e5 6C7200   		.ascii	"lr\000"
 1840 05e8 0C       		.byte	0xc
 1841 05e9 7401     		.2byte	0x174
 1842 05eb 77040000 		.4byte	0x477
 1843 05ef 60       		.byte	0x60
 1844 05f0 00       		.byte	0
 1845 05f1 0A       		.uleb128 0xa
 1846 05f2 04       		.byte	0x4
 1847 05f3 A5040000 		.4byte	0x4a5
 1848 05f7 0F       		.uleb128 0xf
 1849 05f8 04       		.byte	0x4
 1850 05f9 0D       		.byte	0xd
 1851 05fa 38       		.byte	0x38
 1852 05fb 0C060000 		.4byte	0x60c
 1853 05ff 06       		.uleb128 0x6
 1854 0600 F2060000 		.4byte	.LASF81
 1855 0604 0D       		.byte	0xd
 1856 0605 3C       		.byte	0x3c
 1857 0606 C3000000 		.4byte	0xc3
 1858 060a 00       		.byte	0
 1859 060b 00       		.byte	0
 1860 060c 04       		.uleb128 0x4
 1861 060d 2C050000 		.4byte	.LASF82
 1862 0611 0D       		.byte	0xd
 1863 0612 3D       		.byte	0x3d
 1864 0613 F7050000 		.4byte	0x5f7
 1865 0617 0F       		.uleb128 0xf
 1866 0618 18       		.byte	0x18
 1867 0619 0D       		.byte	0xd
 1868 061a 48       		.byte	0x48
 1869 061b 5A060000 		.4byte	0x65a
 1870 061f 06       		.uleb128 0x6
 1871 0620 AD060000 		.4byte	.LASF83
 1872 0624 0D       		.byte	0xd
 1873 0625 49       		.byte	0x49
 1874 0626 C3000000 		.4byte	0xc3
 1875 062a 00       		.byte	0
 1876 062b 06       		.uleb128 0x6
 1877 062c 87000000 		.4byte	.LASF84
 1878 0630 0D       		.byte	0xd
 1879 0631 4A       		.byte	0x4a
 1880 0632 C3000000 		.4byte	0xc3
 1881 0636 04       		.byte	0x4
ARM GAS  /tmp/ccYGmlHj.s 			page 34


 1882 0637 06       		.uleb128 0x6
 1883 0638 DA030000 		.4byte	.LASF85
 1884 063c 0D       		.byte	0xd
 1885 063d 4B       		.byte	0x4b
 1886 063e C3000000 		.4byte	0xc3
 1887 0642 08       		.byte	0x8
 1888 0643 07       		.uleb128 0x7
 1889 0644 6E00     		.ascii	"n\000"
 1890 0646 0D       		.byte	0xd
 1891 0647 4C       		.byte	0x4c
 1892 0648 3C010000 		.4byte	0x13c
 1893 064c 0C       		.byte	0xc
 1894 064d 06       		.uleb128 0x6
 1895 064e 62050000 		.4byte	.LASF86
 1896 0652 0D       		.byte	0xd
 1897 0653 4D       		.byte	0x4d
 1898 0654 CE000000 		.4byte	0xce
 1899 0658 10       		.byte	0x10
 1900 0659 00       		.byte	0
 1901 065a 04       		.uleb128 0x4
 1902 065b 8D000000 		.4byte	.LASF87
 1903 065f 0D       		.byte	0xd
 1904 0660 4E       		.byte	0x4e
 1905 0661 17060000 		.4byte	0x617
 1906 0665 0F       		.uleb128 0xf
 1907 0666 38       		.byte	0x38
 1908 0667 0E       		.byte	0xe
 1909 0668 38       		.byte	0x38
 1910 0669 9E060000 		.4byte	0x69e
 1911 066d 06       		.uleb128 0x6
 1912 066e 89030000 		.4byte	.LASF88
 1913 0672 0E       		.byte	0xe
 1914 0673 39       		.byte	0x39
 1915 0674 3C010000 		.4byte	0x13c
 1916 0678 00       		.byte	0
 1917 0679 06       		.uleb128 0x6
 1918 067a 9B050000 		.4byte	.LASF89
 1919 067e 0E       		.byte	0xe
 1920 067f 3A       		.byte	0x3a
 1921 0680 3C010000 		.4byte	0x13c
 1922 0684 04       		.byte	0x4
 1923 0685 06       		.uleb128 0x6
 1924 0686 F8070000 		.4byte	.LASF90
 1925 068a 0E       		.byte	0xe
 1926 068b 3B       		.byte	0x3b
 1927 068c 5A060000 		.4byte	0x65a
 1928 0690 08       		.byte	0x8
 1929 0691 06       		.uleb128 0x6
 1930 0692 33040000 		.4byte	.LASF91
 1931 0696 0E       		.byte	0xe
 1932 0697 3D       		.byte	0x3d
 1933 0698 5A060000 		.4byte	0x65a
 1934 069c 20       		.byte	0x20
 1935 069d 00       		.byte	0
 1936 069e 04       		.uleb128 0x4
 1937 069f AE030000 		.4byte	.LASF92
 1938 06a3 0E       		.byte	0xe
ARM GAS  /tmp/ccYGmlHj.s 			page 35


 1939 06a4 3F       		.byte	0x3f
 1940 06a5 65060000 		.4byte	0x665
 1941 06a9 10       		.uleb128 0x10
 1942 06aa 04       		.byte	0x4
 1943 06ab 09       		.byte	0x9
 1944 06ac C6       		.byte	0xc6
 1945 06ad 0B070000 		.4byte	0x70b
 1946 06b1 11       		.uleb128 0x11
 1947 06b2 19000000 		.4byte	.LASF93
 1948 06b6 09       		.byte	0x9
 1949 06b7 CD       		.byte	0xcd
 1950 06b8 05010000 		.4byte	0x105
 1951 06bc 11       		.uleb128 0x11
 1952 06bd C6000000 		.4byte	.LASF94
 1953 06c1 09       		.byte	0x9
 1954 06c2 D4       		.byte	0xd4
 1955 06c3 05010000 		.4byte	0x105
 1956 06c7 11       		.uleb128 0x11
 1957 06c8 99070000 		.4byte	.LASF95
 1958 06cc 09       		.byte	0x9
 1959 06cd DB       		.byte	0xdb
 1960 06ce 25030000 		.4byte	0x325
 1961 06d2 11       		.uleb128 0x11
 1962 06d3 0D000000 		.4byte	.LASF96
 1963 06d7 09       		.byte	0x9
 1964 06d8 E2       		.byte	0xe2
 1965 06d9 0B070000 		.4byte	0x70b
 1966 06dd 11       		.uleb128 0x11
 1967 06de DA000000 		.4byte	.LASF97
 1968 06e2 09       		.byte	0x9
 1969 06e3 E7       		.byte	0xe7
 1970 06e4 05010000 		.4byte	0x105
 1971 06e8 11       		.uleb128 0x11
 1972 06e9 63030000 		.4byte	.LASF98
 1973 06ed 09       		.byte	0x9
 1974 06ee F0       		.byte	0xf0
 1975 06ef 36070000 		.4byte	0x736
 1976 06f3 11       		.uleb128 0x11
 1977 06f4 57060000 		.4byte	.LASF99
 1978 06f8 09       		.byte	0x9
 1979 06f9 F9       		.byte	0xf9
 1980 06fa 6D070000 		.4byte	0x76d
 1981 06fe 12       		.uleb128 0x12
 1982 06ff F7050000 		.4byte	.LASF100
 1983 0703 09       		.byte	0x9
 1984 0704 0101     		.2byte	0x101
 1985 0706 1B010000 		.4byte	0x11b
 1986 070a 00       		.byte	0
 1987 070b 0A       		.uleb128 0xa
 1988 070c 04       		.byte	0x4
 1989 070d 3D020000 		.4byte	0x23d
 1990 0711 05       		.uleb128 0x5
 1991 0712 2C060000 		.4byte	.LASF101
 1992 0716 0C       		.byte	0xc
 1993 0717 0F       		.byte	0xf
 1994 0718 34       		.byte	0x34
 1995 0719 36070000 		.4byte	0x736
ARM GAS  /tmp/ccYGmlHj.s 			page 36


 1996 071d 06       		.uleb128 0x6
 1997 071e 8F030000 		.4byte	.LASF30
 1998 0722 0F       		.byte	0xf
 1999 0723 35       		.byte	0x35
 2000 0724 72020000 		.4byte	0x272
 2001 0728 00       		.byte	0
 2002 0729 07       		.uleb128 0x7
 2003 072a 636E7400 		.ascii	"cnt\000"
 2004 072e 0F       		.byte	0xf
 2005 072f 37       		.byte	0x37
 2006 0730 31010000 		.4byte	0x131
 2007 0734 08       		.byte	0x8
 2008 0735 00       		.byte	0
 2009 0736 0A       		.uleb128 0xa
 2010 0737 04       		.byte	0x4
 2011 0738 11070000 		.4byte	0x711
 2012 073c 05       		.uleb128 0x5
 2013 073d 3D070000 		.4byte	.LASF102
 2014 0741 10       		.byte	0x10
 2015 0742 10       		.byte	0x10
 2016 0743 39       		.byte	0x39
 2017 0744 6D070000 		.4byte	0x76d
 2018 0748 06       		.uleb128 0x6
 2019 0749 8F030000 		.4byte	.LASF30
 2020 074d 10       		.byte	0x10
 2021 074e 3A       		.byte	0x3a
 2022 074f 72020000 		.4byte	0x272
 2023 0753 00       		.byte	0
 2024 0754 06       		.uleb128 0x6
 2025 0755 7A060000 		.4byte	.LASF103
 2026 0759 10       		.byte	0x10
 2027 075a 3C       		.byte	0x3c
 2028 075b 48020000 		.4byte	0x248
 2029 075f 08       		.byte	0x8
 2030 0760 06       		.uleb128 0x6
 2031 0761 05010000 		.4byte	.LASF50
 2032 0765 10       		.byte	0x10
 2033 0766 3E       		.byte	0x3e
 2034 0767 A1070000 		.4byte	0x7a1
 2035 076b 0C       		.byte	0xc
 2036 076c 00       		.byte	0
 2037 076d 0A       		.uleb128 0xa
 2038 076e 04       		.byte	0x4
 2039 076f 3C070000 		.4byte	0x73c
 2040 0773 0A       		.uleb128 0xa
 2041 0774 04       		.byte	0x4
 2042 0775 79070000 		.4byte	0x779
 2043 0779 13       		.uleb128 0x13
 2044 077a 7E070000 		.4byte	0x77e
 2045 077e 03       		.uleb128 0x3
 2046 077f 01       		.byte	0x1
 2047 0780 08       		.byte	0x8
 2048 0781 99060000 		.4byte	.LASF104
 2049 0785 0A       		.uleb128 0xa
 2050 0786 04       		.byte	0x4
 2051 0787 82040000 		.4byte	0x482
 2052 078b 0A       		.uleb128 0xa
ARM GAS  /tmp/ccYGmlHj.s 			page 37


 2053 078c 04       		.byte	0x4
 2054 078d 27030000 		.4byte	0x327
 2055 0791 14       		.uleb128 0x14
 2056 0792 73070000 		.4byte	0x773
 2057 0796 04       		.uleb128 0x4
 2058 0797 13010000 		.4byte	.LASF105
 2059 079b 10       		.byte	0x10
 2060 079c 34       		.byte	0x34
 2061 079d 3C070000 		.4byte	0x73c
 2062 07a1 0A       		.uleb128 0xa
 2063 07a2 04       		.byte	0x4
 2064 07a3 96070000 		.4byte	0x796
 2065 07a7 04       		.uleb128 0x4
 2066 07a8 9E040000 		.4byte	.LASF106
 2067 07ac 04       		.byte	0x4
 2068 07ad 34       		.byte	0x34
 2069 07ae B2070000 		.4byte	0x7b2
 2070 07b2 05       		.uleb128 0x5
 2071 07b3 03080000 		.4byte	.LASF107
 2072 07b7 14       		.byte	0x14
 2073 07b8 04       		.byte	0x4
 2074 07b9 39       		.byte	0x39
 2075 07ba FB070000 		.4byte	0x7fb
 2076 07be 06       		.uleb128 0x6
 2077 07bf 05010000 		.4byte	.LASF50
 2078 07c3 04       		.byte	0x4
 2079 07c4 3A       		.byte	0x3a
 2080 07c5 FB070000 		.4byte	0x7fb
 2081 07c9 00       		.byte	0
 2082 07ca 06       		.uleb128 0x6
 2083 07cb F1040000 		.4byte	.LASF108
 2084 07cf 04       		.byte	0x4
 2085 07d0 3D       		.byte	0x3d
 2086 07d1 48020000 		.4byte	0x248
 2087 07d5 04       		.byte	0x4
 2088 07d6 06       		.uleb128 0x6
 2089 07d7 47060000 		.4byte	.LASF109
 2090 07db 04       		.byte	0x4
 2091 07dc 3F       		.byte	0x3f
 2092 07dd 1B010000 		.4byte	0x11b
 2093 07e1 08       		.byte	0x8
 2094 07e2 06       		.uleb128 0x6
 2095 07e3 61070000 		.4byte	.LASF37
 2096 07e7 04       		.byte	0x4
 2097 07e8 41       		.byte	0x41
 2098 07e9 26010000 		.4byte	0x126
 2099 07ed 0C       		.byte	0xc
 2100 07ee 06       		.uleb128 0x6
 2101 07ef C8010000 		.4byte	.LASF110
 2102 07f3 04       		.byte	0x4
 2103 07f4 43       		.byte	0x43
 2104 07f5 26010000 		.4byte	0x126
 2105 07f9 10       		.byte	0x10
 2106 07fa 00       		.byte	0
 2107 07fb 0A       		.uleb128 0xa
 2108 07fc 04       		.byte	0x4
 2109 07fd A7070000 		.4byte	0x7a7
ARM GAS  /tmp/ccYGmlHj.s 			page 38


 2110 0801 05       		.uleb128 0x5
 2111 0802 4C070000 		.4byte	.LASF111
 2112 0806 04       		.byte	0x4
 2113 0807 04       		.byte	0x4
 2114 0808 4A       		.byte	0x4a
 2115 0809 1A080000 		.4byte	0x81a
 2116 080d 06       		.uleb128 0x6
 2117 080e 05010000 		.4byte	.LASF50
 2118 0812 04       		.byte	0x4
 2119 0813 4B       		.byte	0x4b
 2120 0814 FB070000 		.4byte	0x7fb
 2121 0818 00       		.byte	0
 2122 0819 00       		.byte	0
 2123 081a 04       		.uleb128 0x4
 2124 081b 38020000 		.4byte	.LASF112
 2125 081f 04       		.byte	0x4
 2126 0820 4E       		.byte	0x4e
 2127 0821 01080000 		.4byte	0x801
 2128 0825 04       		.uleb128 0x4
 2129 0826 55020000 		.4byte	.LASF113
 2130 082a 04       		.byte	0x4
 2131 082b 53       		.byte	0x53
 2132 082c 30080000 		.4byte	0x830
 2133 0830 0A       		.uleb128 0xa
 2134 0831 04       		.byte	0x4
 2135 0832 36080000 		.4byte	0x836
 2136 0836 0C       		.uleb128 0xc
 2137 0837 41080000 		.4byte	0x841
 2138 083b 0D       		.uleb128 0xd
 2139 083c 10010000 		.4byte	0x110
 2140 0840 00       		.byte	0
 2141 0841 03       		.uleb128 0x3
 2142 0842 01       		.byte	0x1
 2143 0843 02       		.byte	0x2
 2144 0844 A4050000 		.4byte	.LASF114
 2145 0848 15       		.uleb128 0x15
 2146 0849 DA060000 		.4byte	.LASF150
 2147 084d 02       		.byte	0x2
 2148 084e EB01     		.2byte	0x1eb
 2149 0850 03       		.byte	0x3
 2150 0851 62080000 		.4byte	0x862
 2151 0855 16       		.uleb128 0x16
 2152 0856 4B010000 		.4byte	.LASF124
 2153 085a 02       		.byte	0x2
 2154 085b EB01     		.2byte	0x1eb
 2155 085d AD000000 		.4byte	0xad
 2156 0861 00       		.byte	0
 2157 0862 17       		.uleb128 0x17
 2158 0863 7D000000 		.4byte	.LASF115
 2159 0867 0C       		.byte	0xc
 2160 0868 5A02     		.2byte	0x25a
 2161 086a 03       		.byte	0x3
 2162 086b 17       		.uleb128 0x17
 2163 086c 5A010000 		.4byte	.LASF116
 2164 0870 0C       		.byte	0xc
 2165 0871 7202     		.2byte	0x272
 2166 0873 03       		.byte	0x3
ARM GAS  /tmp/ccYGmlHj.s 			page 39


 2167 0874 18       		.uleb128 0x18
 2168 0875 11060000 		.4byte	.LASF117
 2169 0879 01       		.byte	0x1
 2170 087a 6101     		.2byte	0x161
 2171 087c 00000000 		.4byte	.LFB184
 2172 0880 0A000000 		.4byte	.LFE184-.LFB184
 2173 0884 01       		.uleb128 0x1
 2174 0885 9C       		.byte	0x9c
 2175 0886 C0080000 		.4byte	0x8c0
 2176 088a 19       		.uleb128 0x19
 2177 088b 62080000 		.4byte	0x862
 2178 088f 00000000 		.4byte	.LBB14
 2179 0893 06000000 		.4byte	.LBE14-.LBB14
 2180 0897 01       		.byte	0x1
 2181 0898 6301     		.2byte	0x163
 2182 089a B6080000 		.4byte	0x8b6
 2183 089e 1A       		.uleb128 0x1a
 2184 089f 48080000 		.4byte	0x848
 2185 08a3 00000000 		.4byte	.LBB15
 2186 08a7 06000000 		.4byte	.LBE15-.LBB15
 2187 08ab 0C       		.byte	0xc
 2188 08ac 6202     		.2byte	0x262
 2189 08ae 1B       		.uleb128 0x1b
 2190 08af 55080000 		.4byte	0x855
 2191 08b3 20       		.byte	0x20
 2192 08b4 00       		.byte	0
 2193 08b5 00       		.byte	0
 2194 08b6 1C       		.uleb128 0x1c
 2195 08b7 0A000000 		.4byte	.LVL1
 2196 08bb D9100000 		.4byte	0x10d9
 2197 08bf 00       		.byte	0
 2198 08c0 18       		.uleb128 0x18
 2199 08c1 DD070000 		.4byte	.LASF118
 2200 08c5 01       		.byte	0x1
 2201 08c6 6D01     		.2byte	0x16d
 2202 08c8 00000000 		.4byte	.LFB185
 2203 08cc 0E000000 		.4byte	.LFE185-.LFB185
 2204 08d0 01       		.uleb128 0x1
 2205 08d1 9C       		.byte	0x9c
 2206 08d2 15090000 		.4byte	0x915
 2207 08d6 1D       		.uleb128 0x1d
 2208 08d7 08060000 		.4byte	.LASF119
 2209 08db 25090000 		.4byte	0x925
 2210 08df 19       		.uleb128 0x19
 2211 08e0 6B080000 		.4byte	0x86b
 2212 08e4 06000000 		.4byte	.LBB17
 2213 08e8 08000000 		.4byte	.LBE17-.LBB17
 2214 08ec 01       		.byte	0x1
 2215 08ed 7A01     		.2byte	0x17a
 2216 08ef 0B090000 		.4byte	0x90b
 2217 08f3 1A       		.uleb128 0x1a
 2218 08f4 48080000 		.4byte	0x848
 2219 08f8 06000000 		.4byte	.LBB18
 2220 08fc 08000000 		.4byte	.LBE18-.LBB18
 2221 0900 0C       		.byte	0xc
 2222 0901 7502     		.2byte	0x275
 2223 0903 1B       		.uleb128 0x1b
ARM GAS  /tmp/ccYGmlHj.s 			page 40


 2224 0904 55080000 		.4byte	0x855
 2225 0908 00       		.byte	0
 2226 0909 00       		.byte	0
 2227 090a 00       		.byte	0
 2228 090b 1E       		.uleb128 0x1e
 2229 090c 06000000 		.4byte	.LVL2
 2230 0910 E0100000 		.4byte	0x10e0
 2231 0914 00       		.byte	0
 2232 0915 1F       		.uleb128 0x1f
 2233 0916 7E070000 		.4byte	0x77e
 2234 091a 25090000 		.4byte	0x925
 2235 091e 20       		.uleb128 0x20
 2236 091f 70040000 		.4byte	0x470
 2237 0923 0B       		.byte	0xb
 2238 0924 00       		.byte	0
 2239 0925 13       		.uleb128 0x13
 2240 0926 15090000 		.4byte	0x915
 2241 092a 21       		.uleb128 0x21
 2242 092b 10040000 		.4byte	.LASF120
 2243 092f 03       		.byte	0x3
 2244 0930 67       		.byte	0x67
 2245 0931 00000000 		.4byte	.LFB290
 2246 0935 30000000 		.4byte	.LFE290-.LFB290
 2247 0939 01       		.uleb128 0x1
 2248 093a 9C       		.byte	0x9c
 2249 093b 97090000 		.4byte	0x997
 2250 093f 22       		.uleb128 0x22
 2251 0940 65737000 		.ascii	"esp\000"
 2252 0944 03       		.byte	0x3
 2253 0945 67       		.byte	0x67
 2254 0946 97090000 		.4byte	0x997
 2255 094a 00000000 		.4byte	.LLST0
 2256 094e 22       		.uleb128 0x22
 2257 094f 656C7000 		.ascii	"elp\000"
 2258 0953 03       		.byte	0x3
 2259 0954 68       		.byte	0x68
 2260 0955 FB070000 		.4byte	0x7fb
 2261 0959 2C000000 		.4byte	.LLST1
 2262 095d 23       		.uleb128 0x23
 2263 095e 47060000 		.4byte	.LASF109
 2264 0962 03       		.byte	0x3
 2265 0963 69       		.byte	0x69
 2266 0964 1B010000 		.4byte	0x11b
 2267 0968 65000000 		.4byte	.LLST2
 2268 096c 23       		.uleb128 0x23
 2269 096d C8010000 		.4byte	.LASF110
 2270 0971 03       		.byte	0x3
 2271 0972 6A       		.byte	0x6a
 2272 0973 26010000 		.4byte	0x126
 2273 0977 A1000000 		.4byte	.LLST3
 2274 097b 1D       		.uleb128 0x1d
 2275 097c 08060000 		.4byte	.LASF119
 2276 0980 AD090000 		.4byte	0x9ad
 2277 0984 1E       		.uleb128 0x1e
 2278 0985 0E000000 		.4byte	.LVL4
 2279 0989 74080000 		.4byte	0x874
 2280 098d 1C       		.uleb128 0x1c
ARM GAS  /tmp/ccYGmlHj.s 			page 41


 2281 098e 2A000000 		.4byte	.LVL6
 2282 0992 C0080000 		.4byte	0x8c0
 2283 0996 00       		.byte	0
 2284 0997 0A       		.uleb128 0xa
 2285 0998 04       		.byte	0x4
 2286 0999 1A080000 		.4byte	0x81a
 2287 099d 1F       		.uleb128 0x1f
 2288 099e 7E070000 		.4byte	0x77e
 2289 09a2 AD090000 		.4byte	0x9ad
 2290 09a6 20       		.uleb128 0x20
 2291 09a7 70040000 		.4byte	0x470
 2292 09ab 1A       		.byte	0x1a
 2293 09ac 00       		.byte	0
 2294 09ad 13       		.uleb128 0x13
 2295 09ae 9D090000 		.4byte	0x99d
 2296 09b2 21       		.uleb128 0x21
 2297 09b3 F4030000 		.4byte	.LASF121
 2298 09b7 03       		.byte	0x3
 2299 09b8 85       		.byte	0x85
 2300 09b9 00000000 		.4byte	.LFB291
 2301 09bd 28000000 		.4byte	.LFE291-.LFB291
 2302 09c1 01       		.uleb128 0x1
 2303 09c2 9C       		.byte	0x9c
 2304 09c3 0E0A0000 		.4byte	0xa0e
 2305 09c7 22       		.uleb128 0x22
 2306 09c8 65737000 		.ascii	"esp\000"
 2307 09cc 03       		.byte	0x3
 2308 09cd 85       		.byte	0x85
 2309 09ce 97090000 		.4byte	0x997
 2310 09d2 DD000000 		.4byte	.LLST4
 2311 09d6 22       		.uleb128 0x22
 2312 09d7 656C7000 		.ascii	"elp\000"
 2313 09db 03       		.byte	0x3
 2314 09dc 85       		.byte	0x85
 2315 09dd FB070000 		.4byte	0x7fb
 2316 09e1 09010000 		.4byte	.LLST5
 2317 09e5 24       		.uleb128 0x24
 2318 09e6 7000     		.ascii	"p\000"
 2319 09e8 03       		.byte	0x3
 2320 09e9 86       		.byte	0x86
 2321 09ea FB070000 		.4byte	0x7fb
 2322 09ee 35010000 		.4byte	.LLST6
 2323 09f2 1D       		.uleb128 0x1d
 2324 09f3 08060000 		.4byte	.LASF119
 2325 09f7 1E0A0000 		.4byte	0xa1e
 2326 09fb 1E       		.uleb128 0x1e
 2327 09fc 0A000000 		.4byte	.LVL9
 2328 0a00 74080000 		.4byte	0x874
 2329 0a04 1C       		.uleb128 0x1c
 2330 0a05 28000000 		.4byte	.LVL14
 2331 0a09 C0080000 		.4byte	0x8c0
 2332 0a0d 00       		.byte	0
 2333 0a0e 1F       		.uleb128 0x1f
 2334 0a0f 7E070000 		.4byte	0x77e
 2335 0a13 1E0A0000 		.4byte	0xa1e
 2336 0a17 20       		.uleb128 0x20
 2337 0a18 70040000 		.4byte	0x470
ARM GAS  /tmp/ccYGmlHj.s 			page 42


 2338 0a1c 0F       		.byte	0xf
 2339 0a1d 00       		.byte	0
 2340 0a1e 13       		.uleb128 0x13
 2341 0a1f 0E0A0000 		.4byte	0xa0e
 2342 0a23 25       		.uleb128 0x25
 2343 0a24 AF070000 		.4byte	.LASF122
 2344 0a28 03       		.byte	0x3
 2345 0a29 A2       		.byte	0xa2
 2346 0a2a 1B010000 		.4byte	0x11b
 2347 0a2e 00000000 		.4byte	.LFB292
 2348 0a32 14000000 		.4byte	.LFE292-.LFB292
 2349 0a36 01       		.uleb128 0x1
 2350 0a37 9C       		.byte	0x9c
 2351 0a38 590A0000 		.4byte	0xa59
 2352 0a3c 23       		.uleb128 0x23
 2353 0a3d 47060000 		.4byte	.LASF109
 2354 0a41 03       		.byte	0x3
 2355 0a42 A2       		.byte	0xa2
 2356 0a43 1B010000 		.4byte	0x11b
 2357 0a47 69010000 		.4byte	.LLST7
 2358 0a4b 24       		.uleb128 0x24
 2359 0a4c 6D00     		.ascii	"m\000"
 2360 0a4e 03       		.byte	0x3
 2361 0a4f A3       		.byte	0xa3
 2362 0a50 1B010000 		.4byte	0x11b
 2363 0a54 8A010000 		.4byte	.LLST8
 2364 0a58 00       		.byte	0
 2365 0a59 25       		.uleb128 0x25
 2366 0a5a 6A030000 		.4byte	.LASF123
 2367 0a5e 03       		.byte	0x3
 2368 0a5f B3       		.byte	0xb3
 2369 0a60 1B010000 		.4byte	0x11b
 2370 0a64 00000000 		.4byte	.LFB293
 2371 0a68 18000000 		.4byte	.LFE293-.LFB293
 2372 0a6c 01       		.uleb128 0x1
 2373 0a6d 9C       		.byte	0x9c
 2374 0a6e B50A0000 		.4byte	0xab5
 2375 0a72 23       		.uleb128 0x23
 2376 0a73 47060000 		.4byte	.LASF109
 2377 0a77 03       		.byte	0x3
 2378 0a78 B3       		.byte	0xb3
 2379 0a79 1B010000 		.4byte	0x11b
 2380 0a7d AD010000 		.4byte	.LLST9
 2381 0a81 24       		.uleb128 0x24
 2382 0a82 6D00     		.ascii	"m\000"
 2383 0a84 03       		.byte	0x3
 2384 0a85 B4       		.byte	0xb4
 2385 0a86 1B010000 		.4byte	0x11b
 2386 0a8a D9010000 		.4byte	.LLST10
 2387 0a8e 1E       		.uleb128 0x1e
 2388 0a8f 08000000 		.4byte	.LVL19
 2389 0a93 74080000 		.4byte	0x874
 2390 0a97 26       		.uleb128 0x26
 2391 0a98 0E000000 		.4byte	.LVL20
 2392 0a9c 230A0000 		.4byte	0xa23
 2393 0aa0 AB0A0000 		.4byte	0xaab
 2394 0aa4 27       		.uleb128 0x27
ARM GAS  /tmp/ccYGmlHj.s 			page 43


 2395 0aa5 01       		.uleb128 0x1
 2396 0aa6 50       		.byte	0x50
 2397 0aa7 02       		.uleb128 0x2
 2398 0aa8 74       		.byte	0x74
 2399 0aa9 00       		.sleb128 0
 2400 0aaa 00       		.byte	0
 2401 0aab 1E       		.uleb128 0x1e
 2402 0aac 14000000 		.4byte	.LVL22
 2403 0ab0 C0080000 		.4byte	0x8c0
 2404 0ab4 00       		.byte	0
 2405 0ab5 28       		.uleb128 0x28
 2406 0ab6 1B010000 		.4byte	.LASF151
 2407 0aba 04       		.byte	0x4
 2408 0abb 0D01     		.2byte	0x10d
 2409 0abd 1B010000 		.4byte	0x11b
 2410 0ac1 03       		.byte	0x3
 2411 0ac2 D30A0000 		.4byte	0xad3
 2412 0ac6 16       		.uleb128 0x16
 2413 0ac7 47060000 		.4byte	.LASF109
 2414 0acb 04       		.byte	0x4
 2415 0acc 0D01     		.2byte	0x10d
 2416 0ace 1B010000 		.4byte	0x11b
 2417 0ad2 00       		.byte	0
 2418 0ad3 25       		.uleb128 0x25
 2419 0ad4 B7000000 		.4byte	.LASF125
 2420 0ad8 03       		.byte	0x3
 2421 0ad9 C6       		.byte	0xc6
 2422 0ada 1B010000 		.4byte	0x11b
 2423 0ade 00000000 		.4byte	.LFB294
 2424 0ae2 20000000 		.4byte	.LFE294-.LFB294
 2425 0ae6 01       		.uleb128 0x1
 2426 0ae7 9C       		.byte	0x9c
 2427 0ae8 360B0000 		.4byte	0xb36
 2428 0aec 23       		.uleb128 0x23
 2429 0aed 47060000 		.4byte	.LASF109
 2430 0af1 03       		.byte	0x3
 2431 0af2 C6       		.byte	0xc6
 2432 0af3 1B010000 		.4byte	0x11b
 2433 0af7 F7010000 		.4byte	.LLST11
 2434 0afb 29       		.uleb128 0x29
 2435 0afc E9070000 		.4byte	.LASF152
 2436 0b00 03       		.byte	0x3
 2437 0b01 C7       		.byte	0xc7
 2438 0b02 1B010000 		.4byte	0x11b
 2439 0b06 2A       		.uleb128 0x2a
 2440 0b07 B50A0000 		.4byte	0xab5
 2441 0b0b 08000000 		.4byte	.LBB22
 2442 0b0f 0A000000 		.4byte	.LBE22-.LBB22
 2443 0b13 03       		.byte	0x3
 2444 0b14 CA       		.byte	0xca
 2445 0b15 230B0000 		.4byte	0xb23
 2446 0b19 2B       		.uleb128 0x2b
 2447 0b1a C60A0000 		.4byte	0xac6
 2448 0b1e 23020000 		.4byte	.LLST12
 2449 0b22 00       		.byte	0
 2450 0b23 1E       		.uleb128 0x1e
 2451 0b24 08000000 		.4byte	.LVL24
ARM GAS  /tmp/ccYGmlHj.s 			page 44


 2452 0b28 74080000 		.4byte	0x874
 2453 0b2c 1E       		.uleb128 0x1e
 2454 0b2d 16000000 		.4byte	.LVL26
 2455 0b31 C0080000 		.4byte	0x8c0
 2456 0b35 00       		.byte	0
 2457 0b36 2C       		.uleb128 0x2c
 2458 0b37 C7070000 		.4byte	.LASF126
 2459 0b3b 03       		.byte	0x3
 2460 0b3c 0101     		.2byte	0x101
 2461 0b3e 26010000 		.4byte	0x126
 2462 0b42 00000000 		.4byte	.LFB296
 2463 0b46 18000000 		.4byte	.LFE296-.LFB296
 2464 0b4a 01       		.uleb128 0x1
 2465 0b4b 9C       		.byte	0x9c
 2466 0b4c 810B0000 		.4byte	0xb81
 2467 0b50 2D       		.uleb128 0x2d
 2468 0b51 656C7000 		.ascii	"elp\000"
 2469 0b55 03       		.byte	0x3
 2470 0b56 0101     		.2byte	0x101
 2471 0b58 FB070000 		.4byte	0x7fb
 2472 0b5c 44020000 		.4byte	.LLST13
 2473 0b60 2E       		.uleb128 0x2e
 2474 0b61 61070000 		.4byte	.LASF37
 2475 0b65 03       		.byte	0x3
 2476 0b66 0201     		.2byte	0x102
 2477 0b68 26010000 		.4byte	0x126
 2478 0b6c 01       		.uleb128 0x1
 2479 0b6d 55       		.byte	0x55
 2480 0b6e 1E       		.uleb128 0x1e
 2481 0b6f 08000000 		.4byte	.LVL28
 2482 0b73 74080000 		.4byte	0x874
 2483 0b77 1E       		.uleb128 0x1e
 2484 0b78 12000000 		.4byte	.LVL30
 2485 0b7c C0080000 		.4byte	0x8c0
 2486 0b80 00       		.byte	0
 2487 0b81 2F       		.uleb128 0x2f
 2488 0b82 12080000 		.4byte	.LASF127
 2489 0b86 03       		.byte	0x3
 2490 0b87 2A01     		.2byte	0x12a
 2491 0b89 00000000 		.4byte	.LFB298
 2492 0b8d 2C000000 		.4byte	.LFE298-.LFB298
 2493 0b91 01       		.uleb128 0x1
 2494 0b92 9C       		.byte	0x9c
 2495 0b93 D10B0000 		.4byte	0xbd1
 2496 0b97 2D       		.uleb128 0x2d
 2497 0b98 747000   		.ascii	"tp\000"
 2498 0b9b 03       		.byte	0x3
 2499 0b9c 2A01     		.2byte	0x12a
 2500 0b9e 48020000 		.4byte	0x248
 2501 0ba2 62020000 		.4byte	.LLST14
 2502 0ba6 30       		.uleb128 0x30
 2503 0ba7 47060000 		.4byte	.LASF109
 2504 0bab 03       		.byte	0x3
 2505 0bac 2A01     		.2byte	0x12a
 2506 0bae 1B010000 		.4byte	0x11b
 2507 0bb2 8E020000 		.4byte	.LLST15
 2508 0bb6 1D       		.uleb128 0x1d
ARM GAS  /tmp/ccYGmlHj.s 			page 45


 2509 0bb7 08060000 		.4byte	.LASF119
 2510 0bbb E10B0000 		.4byte	0xbe1
 2511 0bbf 31       		.uleb128 0x31
 2512 0bc0 2A000000 		.4byte	.LVL33
 2513 0bc4 E7100000 		.4byte	0x10e7
 2514 0bc8 27       		.uleb128 0x27
 2515 0bc9 01       		.uleb128 0x1
 2516 0bca 50       		.byte	0x50
 2517 0bcb 03       		.uleb128 0x3
 2518 0bcc F3       		.byte	0xf3
 2519 0bcd 01       		.uleb128 0x1
 2520 0bce 50       		.byte	0x50
 2521 0bcf 00       		.byte	0
 2522 0bd0 00       		.byte	0
 2523 0bd1 1F       		.uleb128 0x1f
 2524 0bd2 7E070000 		.4byte	0x77e
 2525 0bd6 E10B0000 		.4byte	0xbe1
 2526 0bda 20       		.uleb128 0x20
 2527 0bdb 70040000 		.4byte	0x470
 2528 0bdf 0C       		.byte	0xc
 2529 0be0 00       		.byte	0
 2530 0be1 13       		.uleb128 0x13
 2531 0be2 D10B0000 		.4byte	0xbd1
 2532 0be6 21       		.uleb128 0x21
 2533 0be7 96010000 		.4byte	.LASF128
 2534 0beb 03       		.byte	0x3
 2535 0bec E1       		.byte	0xe1
 2536 0bed 00000000 		.4byte	.LFB295
 2537 0bf1 28000000 		.4byte	.LFE295-.LFB295
 2538 0bf5 01       		.uleb128 0x1
 2539 0bf6 9C       		.byte	0x9c
 2540 0bf7 390C0000 		.4byte	0xc39
 2541 0bfb 22       		.uleb128 0x22
 2542 0bfc 65737000 		.ascii	"esp\000"
 2543 0c00 03       		.byte	0x3
 2544 0c01 E1       		.byte	0xe1
 2545 0c02 97090000 		.4byte	0x997
 2546 0c06 AF020000 		.4byte	.LLST16
 2547 0c0a 23       		.uleb128 0x23
 2548 0c0b 61070000 		.4byte	.LASF37
 2549 0c0f 03       		.byte	0x3
 2550 0c10 E1       		.byte	0xe1
 2551 0c11 26010000 		.4byte	0x126
 2552 0c15 CD020000 		.4byte	.LLST17
 2553 0c19 32       		.uleb128 0x32
 2554 0c1a 656C7000 		.ascii	"elp\000"
 2555 0c1e 03       		.byte	0x3
 2556 0c1f E2       		.byte	0xe2
 2557 0c20 FB070000 		.4byte	0x7fb
 2558 0c24 01       		.uleb128 0x1
 2559 0c25 54       		.byte	0x54
 2560 0c26 1D       		.uleb128 0x1d
 2561 0c27 08060000 		.4byte	.LASF119
 2562 0c2b 490C0000 		.4byte	0xc49
 2563 0c2f 1E       		.uleb128 0x1e
 2564 0c30 22000000 		.4byte	.LVL37
 2565 0c34 810B0000 		.4byte	0xb81
ARM GAS  /tmp/ccYGmlHj.s 			page 46


 2566 0c38 00       		.byte	0
 2567 0c39 1F       		.uleb128 0x1f
 2568 0c3a 7E070000 		.4byte	0x77e
 2569 0c3e 490C0000 		.4byte	0xc49
 2570 0c42 20       		.uleb128 0x20
 2571 0c43 70040000 		.4byte	0x470
 2572 0c47 14       		.byte	0x14
 2573 0c48 00       		.byte	0
 2574 0c49 13       		.uleb128 0x13
 2575 0c4a 390C0000 		.4byte	0xc39
 2576 0c4e 2F       		.uleb128 0x2f
 2577 0c4f 71000000 		.4byte	.LASF129
 2578 0c53 03       		.byte	0x3
 2579 0c54 1401     		.2byte	0x114
 2580 0c56 00000000 		.4byte	.LFB297
 2581 0c5a 1E000000 		.4byte	.LFE297-.LFB297
 2582 0c5e 01       		.uleb128 0x1
 2583 0c5f 9C       		.byte	0x9c
 2584 0c60 C20C0000 		.4byte	0xcc2
 2585 0c64 2D       		.uleb128 0x2d
 2586 0c65 747000   		.ascii	"tp\000"
 2587 0c68 03       		.byte	0x3
 2588 0c69 1401     		.2byte	0x114
 2589 0c6b 48020000 		.4byte	0x248
 2590 0c6f EB020000 		.4byte	.LLST18
 2591 0c73 30       		.uleb128 0x30
 2592 0c74 47060000 		.4byte	.LASF109
 2593 0c78 03       		.byte	0x3
 2594 0c79 1401     		.2byte	0x114
 2595 0c7b 1B010000 		.4byte	0x11b
 2596 0c7f 17030000 		.4byte	.LLST19
 2597 0c83 1D       		.uleb128 0x1d
 2598 0c84 08060000 		.4byte	.LASF119
 2599 0c88 C20C0000 		.4byte	0xcc2
 2600 0c8c 1E       		.uleb128 0x1e
 2601 0c8d 0A000000 		.4byte	.LVL40
 2602 0c91 74080000 		.4byte	0x874
 2603 0c95 26       		.uleb128 0x26
 2604 0c96 12000000 		.4byte	.LVL41
 2605 0c9a 810B0000 		.4byte	0xb81
 2606 0c9e AF0C0000 		.4byte	0xcaf
 2607 0ca2 27       		.uleb128 0x27
 2608 0ca3 01       		.uleb128 0x1
 2609 0ca4 51       		.byte	0x51
 2610 0ca5 02       		.uleb128 0x2
 2611 0ca6 74       		.byte	0x74
 2612 0ca7 00       		.sleb128 0
 2613 0ca8 27       		.uleb128 0x27
 2614 0ca9 01       		.uleb128 0x1
 2615 0caa 50       		.byte	0x50
 2616 0cab 02       		.uleb128 0x2
 2617 0cac 75       		.byte	0x75
 2618 0cad 00       		.sleb128 0
 2619 0cae 00       		.byte	0
 2620 0caf 1E       		.uleb128 0x1e
 2621 0cb0 16000000 		.4byte	.LVL42
 2622 0cb4 FD100000 		.4byte	0x10fd
ARM GAS  /tmp/ccYGmlHj.s 			page 47


 2623 0cb8 1C       		.uleb128 0x1c
 2624 0cb9 1E000000 		.4byte	.LVL44
 2625 0cbd C0080000 		.4byte	0x8c0
 2626 0cc1 00       		.byte	0
 2627 0cc2 13       		.uleb128 0x13
 2628 0cc3 15090000 		.4byte	0x915
 2629 0cc7 2F       		.uleb128 0x2f
 2630 0cc8 F4010000 		.4byte	.LASF130
 2631 0ccc 03       		.byte	0x3
 2632 0ccd 4701     		.2byte	0x147
 2633 0ccf 00000000 		.4byte	.LFB299
 2634 0cd3 1E000000 		.4byte	.LFE299-.LFB299
 2635 0cd7 01       		.uleb128 0x1
 2636 0cd8 9C       		.byte	0x9c
 2637 0cd9 330D0000 		.4byte	0xd33
 2638 0cdd 2D       		.uleb128 0x2d
 2639 0cde 65737000 		.ascii	"esp\000"
 2640 0ce2 03       		.byte	0x3
 2641 0ce3 4701     		.2byte	0x147
 2642 0ce5 97090000 		.4byte	0x997
 2643 0ce9 43030000 		.4byte	.LLST20
 2644 0ced 30       		.uleb128 0x30
 2645 0cee 61070000 		.4byte	.LASF37
 2646 0cf2 03       		.byte	0x3
 2647 0cf3 4701     		.2byte	0x147
 2648 0cf5 26010000 		.4byte	0x126
 2649 0cf9 6F030000 		.4byte	.LLST21
 2650 0cfd 1E       		.uleb128 0x1e
 2651 0cfe 0A000000 		.4byte	.LVL46
 2652 0d02 74080000 		.4byte	0x874
 2653 0d06 26       		.uleb128 0x26
 2654 0d07 12000000 		.4byte	.LVL47
 2655 0d0b E60B0000 		.4byte	0xbe6
 2656 0d0f 200D0000 		.4byte	0xd20
 2657 0d13 27       		.uleb128 0x27
 2658 0d14 01       		.uleb128 0x1
 2659 0d15 51       		.byte	0x51
 2660 0d16 02       		.uleb128 0x2
 2661 0d17 74       		.byte	0x74
 2662 0d18 00       		.sleb128 0
 2663 0d19 27       		.uleb128 0x27
 2664 0d1a 01       		.uleb128 0x1
 2665 0d1b 50       		.byte	0x50
 2666 0d1c 02       		.uleb128 0x2
 2667 0d1d 75       		.byte	0x75
 2668 0d1e 00       		.sleb128 0
 2669 0d1f 00       		.byte	0
 2670 0d20 1E       		.uleb128 0x1e
 2671 0d21 16000000 		.4byte	.LVL48
 2672 0d25 FD100000 		.4byte	0x10fd
 2673 0d29 1C       		.uleb128 0x1c
 2674 0d2a 1E000000 		.4byte	.LVL50
 2675 0d2e C0080000 		.4byte	0x8c0
 2676 0d32 00       		.byte	0
 2677 0d33 2C       		.uleb128 0x2c
 2678 0d34 E0050000 		.4byte	.LASF131
 2679 0d38 03       		.byte	0x3
ARM GAS  /tmp/ccYGmlHj.s 			page 48


 2680 0d39 5A01     		.2byte	0x15a
 2681 0d3b 26010000 		.4byte	0x126
 2682 0d3f 00000000 		.4byte	.LFB300
 2683 0d43 0C000000 		.4byte	.LFE300-.LFB300
 2684 0d47 01       		.uleb128 0x1
 2685 0d48 9C       		.byte	0x9c
 2686 0d49 6C0D0000 		.4byte	0xd6c
 2687 0d4d 2D       		.uleb128 0x2d
 2688 0d4e 656C7000 		.ascii	"elp\000"
 2689 0d52 03       		.byte	0x3
 2690 0d53 5A01     		.2byte	0x15a
 2691 0d55 FB070000 		.4byte	0x7fb
 2692 0d59 9B030000 		.4byte	.LLST22
 2693 0d5d 2E       		.uleb128 0x2e
 2694 0d5e 61070000 		.4byte	.LASF37
 2695 0d62 03       		.byte	0x3
 2696 0d63 5B01     		.2byte	0x15b
 2697 0d65 26010000 		.4byte	0x126
 2698 0d69 01       		.uleb128 0x1
 2699 0d6a 52       		.byte	0x52
 2700 0d6b 00       		.byte	0
 2701 0d6c 2F       		.uleb128 0x2f
 2702 0d6d 11050000 		.4byte	.LASF132
 2703 0d71 03       		.byte	0x3
 2704 0d72 6C01     		.2byte	0x16c
 2705 0d74 00000000 		.4byte	.LFB301
 2706 0d78 28000000 		.4byte	.LFE301-.LFB301
 2707 0d7c 01       		.uleb128 0x1
 2708 0d7d 9C       		.byte	0x9c
 2709 0d7e C80D0000 		.4byte	0xdc8
 2710 0d82 30       		.uleb128 0x30
 2711 0d83 6D050000 		.4byte	.LASF133
 2712 0d87 03       		.byte	0x3
 2713 0d88 6C01     		.2byte	0x16c
 2714 0d8a C80D0000 		.4byte	0xdc8
 2715 0d8e BC030000 		.4byte	.LLST23
 2716 0d92 30       		.uleb128 0x30
 2717 0d93 47060000 		.4byte	.LASF109
 2718 0d97 03       		.byte	0x3
 2719 0d98 6C01     		.2byte	0x16c
 2720 0d9a 1B010000 		.4byte	0x11b
 2721 0d9e DA030000 		.4byte	.LLST24
 2722 0da2 33       		.uleb128 0x33
 2723 0da3 65696400 		.ascii	"eid\000"
 2724 0da7 03       		.byte	0x3
 2725 0da8 6D01     		.2byte	0x16d
 2726 0daa 10010000 		.4byte	0x110
 2727 0dae F8030000 		.4byte	.LLST25
 2728 0db2 1D       		.uleb128 0x1d
 2729 0db3 08060000 		.4byte	.LASF119
 2730 0db7 E30D0000 		.4byte	0xde3
 2731 0dbb 34       		.uleb128 0x34
 2732 0dbc 22000000 		.4byte	.LVL57
 2733 0dc0 27       		.uleb128 0x27
 2734 0dc1 01       		.uleb128 0x1
 2735 0dc2 50       		.byte	0x50
 2736 0dc3 02       		.uleb128 0x2
ARM GAS  /tmp/ccYGmlHj.s 			page 49


 2737 0dc4 74       		.byte	0x74
 2738 0dc5 00       		.sleb128 0
 2739 0dc6 00       		.byte	0
 2740 0dc7 00       		.byte	0
 2741 0dc8 0A       		.uleb128 0xa
 2742 0dc9 04       		.byte	0x4
 2743 0dca CE0D0000 		.4byte	0xdce
 2744 0dce 13       		.uleb128 0x13
 2745 0dcf 25080000 		.4byte	0x825
 2746 0dd3 1F       		.uleb128 0x1f
 2747 0dd4 7E070000 		.4byte	0x77e
 2748 0dd8 E30D0000 		.4byte	0xde3
 2749 0ddc 20       		.uleb128 0x20
 2750 0ddd 70040000 		.4byte	0x470
 2751 0de1 0D       		.byte	0xd
 2752 0de2 00       		.byte	0
 2753 0de3 13       		.uleb128 0x13
 2754 0de4 D30D0000 		.4byte	0xdd3
 2755 0de8 2C       		.uleb128 0x2c
 2756 0de9 C0050000 		.4byte	.LASF134
 2757 0ded 03       		.byte	0x3
 2758 0dee 8F01     		.2byte	0x18f
 2759 0df0 1B010000 		.4byte	0x11b
 2760 0df4 00000000 		.4byte	.LFB302
 2761 0df8 38000000 		.4byte	.LFE302-.LFB302
 2762 0dfc 01       		.uleb128 0x1
 2763 0dfd 9C       		.byte	0x9c
 2764 0dfe 560E0000 		.4byte	0xe56
 2765 0e02 30       		.uleb128 0x30
 2766 0e03 47060000 		.4byte	.LASF109
 2767 0e07 03       		.byte	0x3
 2768 0e08 8F01     		.2byte	0x18f
 2769 0e0a 1B010000 		.4byte	0x11b
 2770 0e0e 17040000 		.4byte	.LLST26
 2771 0e12 33       		.uleb128 0x33
 2772 0e13 63747000 		.ascii	"ctp\000"
 2773 0e17 03       		.byte	0x3
 2774 0e18 9001     		.2byte	0x190
 2775 0e1a 48020000 		.4byte	0x248
 2776 0e1e 43040000 		.4byte	.LLST27
 2777 0e22 33       		.uleb128 0x33
 2778 0e23 6D00     		.ascii	"m\000"
 2779 0e25 03       		.byte	0x3
 2780 0e26 9101     		.2byte	0x191
 2781 0e28 1B010000 		.4byte	0x11b
 2782 0e2c 56040000 		.4byte	.LLST28
 2783 0e30 1E       		.uleb128 0x1e
 2784 0e31 0C000000 		.4byte	.LVL61
 2785 0e35 74080000 		.4byte	0x874
 2786 0e39 26       		.uleb128 0x26
 2787 0e3a 1A000000 		.4byte	.LVL64
 2788 0e3e 05110000 		.4byte	0x1105
 2789 0e42 4C0E0000 		.4byte	0xe4c
 2790 0e46 27       		.uleb128 0x27
 2791 0e47 01       		.uleb128 0x1
 2792 0e48 50       		.byte	0x50
 2793 0e49 01       		.uleb128 0x1
ARM GAS  /tmp/ccYGmlHj.s 			page 50


 2794 0e4a 3A       		.byte	0x3a
 2795 0e4b 00       		.byte	0
 2796 0e4c 1E       		.uleb128 0x1e
 2797 0e4d 2E000000 		.4byte	.LVL68
 2798 0e51 C0080000 		.4byte	0x8c0
 2799 0e55 00       		.byte	0
 2800 0e56 2C       		.uleb128 0x2c
 2801 0e57 83010000 		.4byte	.LASF135
 2802 0e5b 03       		.byte	0x3
 2803 0e5c AD01     		.2byte	0x1ad
 2804 0e5e 1B010000 		.4byte	0x11b
 2805 0e62 00000000 		.4byte	.LFB303
 2806 0e66 34000000 		.4byte	.LFE303-.LFB303
 2807 0e6a 01       		.uleb128 0x1
 2808 0e6b 9C       		.byte	0x9c
 2809 0e6c C40E0000 		.4byte	0xec4
 2810 0e70 30       		.uleb128 0x30
 2811 0e71 47060000 		.4byte	.LASF109
 2812 0e75 03       		.byte	0x3
 2813 0e76 AD01     		.2byte	0x1ad
 2814 0e78 1B010000 		.4byte	0x11b
 2815 0e7c 9A040000 		.4byte	.LLST29
 2816 0e80 33       		.uleb128 0x33
 2817 0e81 63747000 		.ascii	"ctp\000"
 2818 0e85 03       		.byte	0x3
 2819 0e86 AE01     		.2byte	0x1ae
 2820 0e88 48020000 		.4byte	0x248
 2821 0e8c C6040000 		.4byte	.LLST30
 2822 0e90 33       		.uleb128 0x33
 2823 0e91 6D00     		.ascii	"m\000"
 2824 0e93 03       		.byte	0x3
 2825 0e94 AF01     		.2byte	0x1af
 2826 0e96 1B010000 		.4byte	0x11b
 2827 0e9a D9040000 		.4byte	.LLST31
 2828 0e9e 1E       		.uleb128 0x1e
 2829 0e9f 0C000000 		.4byte	.LVL72
 2830 0ea3 74080000 		.4byte	0x874
 2831 0ea7 26       		.uleb128 0x26
 2832 0ea8 1A000000 		.4byte	.LVL75
 2833 0eac 05110000 		.4byte	0x1105
 2834 0eb0 BA0E0000 		.4byte	0xeba
 2835 0eb4 27       		.uleb128 0x27
 2836 0eb5 01       		.uleb128 0x1
 2837 0eb6 50       		.byte	0x50
 2838 0eb7 01       		.uleb128 0x1
 2839 0eb8 3A       		.byte	0x3a
 2840 0eb9 00       		.byte	0
 2841 0eba 1E       		.uleb128 0x1e
 2842 0ebb 2A000000 		.4byte	.LVL78
 2843 0ebf C0080000 		.4byte	0x8c0
 2844 0ec3 00       		.byte	0
 2845 0ec4 2C       		.uleb128 0x2c
 2846 0ec5 3D050000 		.4byte	.LASF136
 2847 0ec9 03       		.byte	0x3
 2848 0eca C901     		.2byte	0x1c9
 2849 0ecc 1B010000 		.4byte	0x11b
 2850 0ed0 00000000 		.4byte	.LFB304
ARM GAS  /tmp/ccYGmlHj.s 			page 51


 2851 0ed4 30000000 		.4byte	.LFE304-.LFB304
 2852 0ed8 01       		.uleb128 0x1
 2853 0ed9 9C       		.byte	0x9c
 2854 0eda 240F0000 		.4byte	0xf24
 2855 0ede 30       		.uleb128 0x30
 2856 0edf 47060000 		.4byte	.LASF109
 2857 0ee3 03       		.byte	0x3
 2858 0ee4 C901     		.2byte	0x1c9
 2859 0ee6 1B010000 		.4byte	0x11b
 2860 0eea 12050000 		.4byte	.LLST32
 2861 0eee 33       		.uleb128 0x33
 2862 0eef 63747000 		.ascii	"ctp\000"
 2863 0ef3 03       		.byte	0x3
 2864 0ef4 CA01     		.2byte	0x1ca
 2865 0ef6 48020000 		.4byte	0x248
 2866 0efa 3B050000 		.4byte	.LLST33
 2867 0efe 1E       		.uleb128 0x1e
 2868 0eff 0C000000 		.4byte	.LVL82
 2869 0f03 74080000 		.4byte	0x874
 2870 0f07 26       		.uleb128 0x26
 2871 0f08 1C000000 		.4byte	.LVL83
 2872 0f0c 05110000 		.4byte	0x1105
 2873 0f10 1A0F0000 		.4byte	0xf1a
 2874 0f14 27       		.uleb128 0x27
 2875 0f15 01       		.uleb128 0x1
 2876 0f16 50       		.byte	0x50
 2877 0f17 01       		.uleb128 0x1
 2878 0f18 3B       		.byte	0x3b
 2879 0f19 00       		.byte	0
 2880 0f1a 1E       		.uleb128 0x1e
 2881 0f1b 28000000 		.4byte	.LVL84
 2882 0f1f C0080000 		.4byte	0x8c0
 2883 0f23 00       		.byte	0
 2884 0f24 2C       		.uleb128 0x2c
 2885 0f25 85070000 		.4byte	.LASF137
 2886 0f29 03       		.byte	0x3
 2887 0f2a EF01     		.2byte	0x1ef
 2888 0f2c 1B010000 		.4byte	0x11b
 2889 0f30 00000000 		.4byte	.LFB305
 2890 0f34 48000000 		.4byte	.LFE305-.LFB305
 2891 0f38 01       		.uleb128 0x1
 2892 0f39 9C       		.byte	0x9c
 2893 0f3a B10F0000 		.4byte	0xfb1
 2894 0f3e 30       		.uleb128 0x30
 2895 0f3f 47060000 		.4byte	.LASF109
 2896 0f43 03       		.byte	0x3
 2897 0f44 EF01     		.2byte	0x1ef
 2898 0f46 1B010000 		.4byte	0x11b
 2899 0f4a 4E050000 		.4byte	.LLST34
 2900 0f4e 30       		.uleb128 0x30
 2901 0f4f 81030000 		.4byte	.LASF138
 2902 0f53 03       		.byte	0x3
 2903 0f54 EF01     		.2byte	0x1ef
 2904 0f56 65040000 		.4byte	0x465
 2905 0f5a 7A050000 		.4byte	.LLST35
 2906 0f5e 33       		.uleb128 0x33
 2907 0f5f 63747000 		.ascii	"ctp\000"
ARM GAS  /tmp/ccYGmlHj.s 			page 52


 2908 0f63 03       		.byte	0x3
 2909 0f64 F001     		.2byte	0x1f0
 2910 0f66 48020000 		.4byte	0x248
 2911 0f6a A6050000 		.4byte	.LLST36
 2912 0f6e 33       		.uleb128 0x33
 2913 0f6f 6D00     		.ascii	"m\000"
 2914 0f71 03       		.byte	0x3
 2915 0f72 F101     		.2byte	0x1f1
 2916 0f74 1B010000 		.4byte	0x11b
 2917 0f78 B9050000 		.4byte	.LLST37
 2918 0f7c 1E       		.uleb128 0x1e
 2919 0f7d 0E000000 		.4byte	.LVL88
 2920 0f81 74080000 		.4byte	0x874
 2921 0f85 1E       		.uleb128 0x1e
 2922 0f86 1A000000 		.4byte	.LVL92
 2923 0f8a C0080000 		.4byte	0x8c0
 2924 0f8e 26       		.uleb128 0x26
 2925 0f8f 28000000 		.4byte	.LVL94
 2926 0f93 17110000 		.4byte	0x1117
 2927 0f97 A70F0000 		.4byte	0xfa7
 2928 0f9b 27       		.uleb128 0x27
 2929 0f9c 01       		.uleb128 0x1
 2930 0f9d 51       		.byte	0x51
 2931 0f9e 02       		.uleb128 0x2
 2932 0f9f 76       		.byte	0x76
 2933 0fa0 00       		.sleb128 0
 2934 0fa1 27       		.uleb128 0x27
 2935 0fa2 01       		.uleb128 0x1
 2936 0fa3 50       		.byte	0x50
 2937 0fa4 01       		.uleb128 0x1
 2938 0fa5 3A       		.byte	0x3a
 2939 0fa6 00       		.byte	0
 2940 0fa7 1E       		.uleb128 0x1e
 2941 0fa8 40000000 		.4byte	.LVL98
 2942 0fac C0080000 		.4byte	0x8c0
 2943 0fb0 00       		.byte	0
 2944 0fb1 2C       		.uleb128 0x2c
 2945 0fb2 B4010000 		.4byte	.LASF139
 2946 0fb6 03       		.byte	0x3
 2947 0fb7 1A02     		.2byte	0x21a
 2948 0fb9 1B010000 		.4byte	0x11b
 2949 0fbd 00000000 		.4byte	.LFB306
 2950 0fc1 44000000 		.4byte	.LFE306-.LFB306
 2951 0fc5 01       		.uleb128 0x1
 2952 0fc6 9C       		.byte	0x9c
 2953 0fc7 3E100000 		.4byte	0x103e
 2954 0fcb 30       		.uleb128 0x30
 2955 0fcc 47060000 		.4byte	.LASF109
 2956 0fd0 03       		.byte	0x3
 2957 0fd1 1A02     		.2byte	0x21a
 2958 0fd3 1B010000 		.4byte	0x11b
 2959 0fd7 08060000 		.4byte	.LLST38
 2960 0fdb 30       		.uleb128 0x30
 2961 0fdc 81030000 		.4byte	.LASF138
 2962 0fe0 03       		.byte	0x3
 2963 0fe1 1A02     		.2byte	0x21a
 2964 0fe3 65040000 		.4byte	0x465
ARM GAS  /tmp/ccYGmlHj.s 			page 53


 2965 0fe7 34060000 		.4byte	.LLST39
 2966 0feb 33       		.uleb128 0x33
 2967 0fec 63747000 		.ascii	"ctp\000"
 2968 0ff0 03       		.byte	0x3
 2969 0ff1 1B02     		.2byte	0x21b
 2970 0ff3 48020000 		.4byte	0x248
 2971 0ff7 60060000 		.4byte	.LLST40
 2972 0ffb 33       		.uleb128 0x33
 2973 0ffc 6D00     		.ascii	"m\000"
 2974 0ffe 03       		.byte	0x3
 2975 0fff 1C02     		.2byte	0x21c
 2976 1001 1B010000 		.4byte	0x11b
 2977 1005 73060000 		.4byte	.LLST41
 2978 1009 1E       		.uleb128 0x1e
 2979 100a 0E000000 		.4byte	.LVL102
 2980 100e 74080000 		.4byte	0x874
 2981 1012 1E       		.uleb128 0x1e
 2982 1013 1A000000 		.4byte	.LVL105
 2983 1017 C0080000 		.4byte	0x8c0
 2984 101b 26       		.uleb128 0x26
 2985 101c 28000000 		.4byte	.LVL107
 2986 1020 17110000 		.4byte	0x1117
 2987 1024 34100000 		.4byte	0x1034
 2988 1028 27       		.uleb128 0x27
 2989 1029 01       		.uleb128 0x1
 2990 102a 51       		.byte	0x51
 2991 102b 02       		.uleb128 0x2
 2992 102c 77       		.byte	0x77
 2993 102d 00       		.sleb128 0
 2994 102e 27       		.uleb128 0x27
 2995 102f 01       		.uleb128 0x1
 2996 1030 50       		.byte	0x50
 2997 1031 01       		.uleb128 0x1
 2998 1032 3A       		.byte	0x3a
 2999 1033 00       		.byte	0
 3000 1034 1E       		.uleb128 0x1e
 3001 1035 3C000000 		.4byte	.LVL110
 3002 1039 C0080000 		.4byte	0x8c0
 3003 103d 00       		.byte	0
 3004 103e 2C       		.uleb128 0x2c
 3005 103f 37010000 		.4byte	.LASF140
 3006 1043 03       		.byte	0x3
 3007 1044 4302     		.2byte	0x243
 3008 1046 1B010000 		.4byte	0x11b
 3009 104a 00000000 		.4byte	.LFB307
 3010 104e 44000000 		.4byte	.LFE307-.LFB307
 3011 1052 01       		.uleb128 0x1
 3012 1053 9C       		.byte	0x9c
 3013 1054 BD100000 		.4byte	0x10bd
 3014 1058 30       		.uleb128 0x30
 3015 1059 47060000 		.4byte	.LASF109
 3016 105d 03       		.byte	0x3
 3017 105e 4302     		.2byte	0x243
 3018 1060 1B010000 		.4byte	0x11b
 3019 1064 AC060000 		.4byte	.LLST42
 3020 1068 30       		.uleb128 0x30
 3021 1069 81030000 		.4byte	.LASF138
ARM GAS  /tmp/ccYGmlHj.s 			page 54


 3022 106d 03       		.byte	0x3
 3023 106e 4302     		.2byte	0x243
 3024 1070 65040000 		.4byte	0x465
 3025 1074 D5060000 		.4byte	.LLST43
 3026 1078 33       		.uleb128 0x33
 3027 1079 63747000 		.ascii	"ctp\000"
 3028 107d 03       		.byte	0x3
 3029 107e 4402     		.2byte	0x244
 3030 1080 48020000 		.4byte	0x248
 3031 1084 01070000 		.4byte	.LLST44
 3032 1088 1E       		.uleb128 0x1e
 3033 1089 0E000000 		.4byte	.LVL114
 3034 108d 74080000 		.4byte	0x874
 3035 1091 1E       		.uleb128 0x1e
 3036 1092 1C000000 		.4byte	.LVL115
 3037 1096 C0080000 		.4byte	0x8c0
 3038 109a 26       		.uleb128 0x26
 3039 109b 2A000000 		.4byte	.LVL117
 3040 109f 17110000 		.4byte	0x1117
 3041 10a3 B3100000 		.4byte	0x10b3
 3042 10a7 27       		.uleb128 0x27
 3043 10a8 01       		.uleb128 0x1
 3044 10a9 51       		.byte	0x51
 3045 10aa 02       		.uleb128 0x2
 3046 10ab 76       		.byte	0x76
 3047 10ac 00       		.sleb128 0
 3048 10ad 27       		.uleb128 0x27
 3049 10ae 01       		.uleb128 0x1
 3050 10af 50       		.byte	0x50
 3051 10b0 01       		.uleb128 0x1
 3052 10b1 3B       		.byte	0x3b
 3053 10b2 00       		.byte	0
 3054 10b3 1E       		.uleb128 0x1e
 3055 10b4 3A000000 		.4byte	.LVL118
 3056 10b8 C0080000 		.4byte	0x8c0
 3057 10bc 00       		.byte	0
 3058 10bd 35       		.uleb128 0x35
 3059 10be F8000000 		.4byte	.LASF141
 3060 10c2 11       		.byte	0x11
 3061 10c3 0408     		.2byte	0x804
 3062 10c5 C9100000 		.4byte	0x10c9
 3063 10c9 14       		.uleb128 0x14
 3064 10ca A2000000 		.4byte	0xa2
 3065 10ce 36       		.uleb128 0x36
 3066 10cf 636800   		.ascii	"ch\000"
 3067 10d2 09       		.byte	0x9
 3068 10d3 C701     		.2byte	0x1c7
 3069 10d5 F4030000 		.4byte	0x3f4
 3070 10d9 37       		.uleb128 0x37
 3071 10da 67070000 		.4byte	.LASF142
 3072 10de 0E       		.byte	0xe
 3073 10df 4F       		.byte	0x4f
 3074 10e0 37       		.uleb128 0x37
 3075 10e1 B8040000 		.4byte	.LASF143
 3076 10e5 0E       		.byte	0xe
 3077 10e6 50       		.byte	0x50
 3078 10e7 38       		.uleb128 0x38
ARM GAS  /tmp/ccYGmlHj.s 			page 55


 3079 10e8 5E060000 		.4byte	.LASF153
 3080 10ec 09       		.byte	0x9
 3081 10ed D101     		.2byte	0x1d1
 3082 10ef 48020000 		.4byte	0x248
 3083 10f3 FD100000 		.4byte	0x10fd
 3084 10f7 0D       		.uleb128 0xd
 3085 10f8 48020000 		.4byte	0x248
 3086 10fc 00       		.byte	0
 3087 10fd 39       		.uleb128 0x39
 3088 10fe CF010000 		.4byte	.LASF144
 3089 1102 09       		.byte	0x9
 3090 1103 D601     		.2byte	0x1d6
 3091 1105 3A       		.uleb128 0x3a
 3092 1106 39060000 		.4byte	.LASF145
 3093 110a 09       		.byte	0x9
 3094 110b D301     		.2byte	0x1d3
 3095 110d 17110000 		.4byte	0x1117
 3096 1111 0D       		.uleb128 0xd
 3097 1112 E4000000 		.4byte	0xe4
 3098 1116 00       		.byte	0
 3099 1117 3B       		.uleb128 0x3b
 3100 1118 B2060000 		.4byte	.LASF146
 3101 111c 09       		.byte	0x9
 3102 111d D401     		.2byte	0x1d4
 3103 111f 05010000 		.4byte	0x105
 3104 1123 0D       		.uleb128 0xd
 3105 1124 E4000000 		.4byte	0xe4
 3106 1128 0D       		.uleb128 0xd
 3107 1129 65040000 		.4byte	0x465
 3108 112d 00       		.byte	0
 3109 112e 00       		.byte	0
 3110              		.section	.debug_abbrev,"",%progbits
 3111              	.Ldebug_abbrev0:
 3112 0000 01       		.uleb128 0x1
 3113 0001 11       		.uleb128 0x11
 3114 0002 01       		.byte	0x1
 3115 0003 25       		.uleb128 0x25
 3116 0004 0E       		.uleb128 0xe
 3117 0005 13       		.uleb128 0x13
 3118 0006 0B       		.uleb128 0xb
 3119 0007 03       		.uleb128 0x3
 3120 0008 0E       		.uleb128 0xe
 3121 0009 1B       		.uleb128 0x1b
 3122 000a 0E       		.uleb128 0xe
 3123 000b 55       		.uleb128 0x55
 3124 000c 17       		.uleb128 0x17
 3125 000d 11       		.uleb128 0x11
 3126 000e 01       		.uleb128 0x1
 3127 000f 10       		.uleb128 0x10
 3128 0010 17       		.uleb128 0x17
 3129 0011 00       		.byte	0
 3130 0012 00       		.byte	0
 3131 0013 02       		.uleb128 0x2
 3132 0014 24       		.uleb128 0x24
 3133 0015 00       		.byte	0
 3134 0016 0B       		.uleb128 0xb
 3135 0017 0B       		.uleb128 0xb
ARM GAS  /tmp/ccYGmlHj.s 			page 56


 3136 0018 3E       		.uleb128 0x3e
 3137 0019 0B       		.uleb128 0xb
 3138 001a 03       		.uleb128 0x3
 3139 001b 08       		.uleb128 0x8
 3140 001c 00       		.byte	0
 3141 001d 00       		.byte	0
 3142 001e 03       		.uleb128 0x3
 3143 001f 24       		.uleb128 0x24
 3144 0020 00       		.byte	0
 3145 0021 0B       		.uleb128 0xb
 3146 0022 0B       		.uleb128 0xb
 3147 0023 3E       		.uleb128 0x3e
 3148 0024 0B       		.uleb128 0xb
 3149 0025 03       		.uleb128 0x3
 3150 0026 0E       		.uleb128 0xe
 3151 0027 00       		.byte	0
 3152 0028 00       		.byte	0
 3153 0029 04       		.uleb128 0x4
 3154 002a 16       		.uleb128 0x16
 3155 002b 00       		.byte	0
 3156 002c 03       		.uleb128 0x3
 3157 002d 0E       		.uleb128 0xe
 3158 002e 3A       		.uleb128 0x3a
 3159 002f 0B       		.uleb128 0xb
 3160 0030 3B       		.uleb128 0x3b
 3161 0031 0B       		.uleb128 0xb
 3162 0032 49       		.uleb128 0x49
 3163 0033 13       		.uleb128 0x13
 3164 0034 00       		.byte	0
 3165 0035 00       		.byte	0
 3166 0036 05       		.uleb128 0x5
 3167 0037 13       		.uleb128 0x13
 3168 0038 01       		.byte	0x1
 3169 0039 03       		.uleb128 0x3
 3170 003a 0E       		.uleb128 0xe
 3171 003b 0B       		.uleb128 0xb
 3172 003c 0B       		.uleb128 0xb
 3173 003d 3A       		.uleb128 0x3a
 3174 003e 0B       		.uleb128 0xb
 3175 003f 3B       		.uleb128 0x3b
 3176 0040 0B       		.uleb128 0xb
 3177 0041 01       		.uleb128 0x1
 3178 0042 13       		.uleb128 0x13
 3179 0043 00       		.byte	0
 3180 0044 00       		.byte	0
 3181 0045 06       		.uleb128 0x6
 3182 0046 0D       		.uleb128 0xd
 3183 0047 00       		.byte	0
 3184 0048 03       		.uleb128 0x3
 3185 0049 0E       		.uleb128 0xe
 3186 004a 3A       		.uleb128 0x3a
 3187 004b 0B       		.uleb128 0xb
 3188 004c 3B       		.uleb128 0x3b
 3189 004d 0B       		.uleb128 0xb
 3190 004e 49       		.uleb128 0x49
 3191 004f 13       		.uleb128 0x13
 3192 0050 38       		.uleb128 0x38
ARM GAS  /tmp/ccYGmlHj.s 			page 57


 3193 0051 0B       		.uleb128 0xb
 3194 0052 00       		.byte	0
 3195 0053 00       		.byte	0
 3196 0054 07       		.uleb128 0x7
 3197 0055 0D       		.uleb128 0xd
 3198 0056 00       		.byte	0
 3199 0057 03       		.uleb128 0x3
 3200 0058 08       		.uleb128 0x8
 3201 0059 3A       		.uleb128 0x3a
 3202 005a 0B       		.uleb128 0xb
 3203 005b 3B       		.uleb128 0x3b
 3204 005c 0B       		.uleb128 0xb
 3205 005d 49       		.uleb128 0x49
 3206 005e 13       		.uleb128 0x13
 3207 005f 38       		.uleb128 0x38
 3208 0060 0B       		.uleb128 0xb
 3209 0061 00       		.byte	0
 3210 0062 00       		.byte	0
 3211 0063 08       		.uleb128 0x8
 3212 0064 0D       		.uleb128 0xd
 3213 0065 00       		.byte	0
 3214 0066 03       		.uleb128 0x3
 3215 0067 08       		.uleb128 0x8
 3216 0068 3A       		.uleb128 0x3a
 3217 0069 0B       		.uleb128 0xb
 3218 006a 3B       		.uleb128 0x3b
 3219 006b 05       		.uleb128 0x5
 3220 006c 49       		.uleb128 0x49
 3221 006d 13       		.uleb128 0x13
 3222 006e 38       		.uleb128 0x38
 3223 006f 0B       		.uleb128 0xb
 3224 0070 00       		.byte	0
 3225 0071 00       		.byte	0
 3226 0072 09       		.uleb128 0x9
 3227 0073 0D       		.uleb128 0xd
 3228 0074 00       		.byte	0
 3229 0075 03       		.uleb128 0x3
 3230 0076 0E       		.uleb128 0xe
 3231 0077 3A       		.uleb128 0x3a
 3232 0078 0B       		.uleb128 0xb
 3233 0079 3B       		.uleb128 0x3b
 3234 007a 05       		.uleb128 0x5
 3235 007b 49       		.uleb128 0x49
 3236 007c 13       		.uleb128 0x13
 3237 007d 38       		.uleb128 0x38
 3238 007e 0B       		.uleb128 0xb
 3239 007f 00       		.byte	0
 3240 0080 00       		.byte	0
 3241 0081 0A       		.uleb128 0xa
 3242 0082 0F       		.uleb128 0xf
 3243 0083 00       		.byte	0
 3244 0084 0B       		.uleb128 0xb
 3245 0085 0B       		.uleb128 0xb
 3246 0086 49       		.uleb128 0x49
 3247 0087 13       		.uleb128 0x13
 3248 0088 00       		.byte	0
 3249 0089 00       		.byte	0
ARM GAS  /tmp/ccYGmlHj.s 			page 58


 3250 008a 0B       		.uleb128 0xb
 3251 008b 13       		.uleb128 0x13
 3252 008c 01       		.byte	0x1
 3253 008d 03       		.uleb128 0x3
 3254 008e 0E       		.uleb128 0xe
 3255 008f 0B       		.uleb128 0xb
 3256 0090 0B       		.uleb128 0xb
 3257 0091 3A       		.uleb128 0x3a
 3258 0092 0B       		.uleb128 0xb
 3259 0093 3B       		.uleb128 0x3b
 3260 0094 05       		.uleb128 0x5
 3261 0095 01       		.uleb128 0x1
 3262 0096 13       		.uleb128 0x13
 3263 0097 00       		.byte	0
 3264 0098 00       		.byte	0
 3265 0099 0C       		.uleb128 0xc
 3266 009a 15       		.uleb128 0x15
 3267 009b 01       		.byte	0x1
 3268 009c 27       		.uleb128 0x27
 3269 009d 19       		.uleb128 0x19
 3270 009e 01       		.uleb128 0x1
 3271 009f 13       		.uleb128 0x13
 3272 00a0 00       		.byte	0
 3273 00a1 00       		.byte	0
 3274 00a2 0D       		.uleb128 0xd
 3275 00a3 05       		.uleb128 0x5
 3276 00a4 00       		.byte	0
 3277 00a5 49       		.uleb128 0x49
 3278 00a6 13       		.uleb128 0x13
 3279 00a7 00       		.byte	0
 3280 00a8 00       		.byte	0
 3281 00a9 0E       		.uleb128 0xe
 3282 00aa 0F       		.uleb128 0xf
 3283 00ab 00       		.byte	0
 3284 00ac 0B       		.uleb128 0xb
 3285 00ad 0B       		.uleb128 0xb
 3286 00ae 00       		.byte	0
 3287 00af 00       		.byte	0
 3288 00b0 0F       		.uleb128 0xf
 3289 00b1 13       		.uleb128 0x13
 3290 00b2 01       		.byte	0x1
 3291 00b3 0B       		.uleb128 0xb
 3292 00b4 0B       		.uleb128 0xb
 3293 00b5 3A       		.uleb128 0x3a
 3294 00b6 0B       		.uleb128 0xb
 3295 00b7 3B       		.uleb128 0x3b
 3296 00b8 0B       		.uleb128 0xb
 3297 00b9 01       		.uleb128 0x1
 3298 00ba 13       		.uleb128 0x13
 3299 00bb 00       		.byte	0
 3300 00bc 00       		.byte	0
 3301 00bd 10       		.uleb128 0x10
 3302 00be 17       		.uleb128 0x17
 3303 00bf 01       		.byte	0x1
 3304 00c0 0B       		.uleb128 0xb
 3305 00c1 0B       		.uleb128 0xb
 3306 00c2 3A       		.uleb128 0x3a
ARM GAS  /tmp/ccYGmlHj.s 			page 59


 3307 00c3 0B       		.uleb128 0xb
 3308 00c4 3B       		.uleb128 0x3b
 3309 00c5 0B       		.uleb128 0xb
 3310 00c6 01       		.uleb128 0x1
 3311 00c7 13       		.uleb128 0x13
 3312 00c8 00       		.byte	0
 3313 00c9 00       		.byte	0
 3314 00ca 11       		.uleb128 0x11
 3315 00cb 0D       		.uleb128 0xd
 3316 00cc 00       		.byte	0
 3317 00cd 03       		.uleb128 0x3
 3318 00ce 0E       		.uleb128 0xe
 3319 00cf 3A       		.uleb128 0x3a
 3320 00d0 0B       		.uleb128 0xb
 3321 00d1 3B       		.uleb128 0x3b
 3322 00d2 0B       		.uleb128 0xb
 3323 00d3 49       		.uleb128 0x49
 3324 00d4 13       		.uleb128 0x13
 3325 00d5 00       		.byte	0
 3326 00d6 00       		.byte	0
 3327 00d7 12       		.uleb128 0x12
 3328 00d8 0D       		.uleb128 0xd
 3329 00d9 00       		.byte	0
 3330 00da 03       		.uleb128 0x3
 3331 00db 0E       		.uleb128 0xe
 3332 00dc 3A       		.uleb128 0x3a
 3333 00dd 0B       		.uleb128 0xb
 3334 00de 3B       		.uleb128 0x3b
 3335 00df 05       		.uleb128 0x5
 3336 00e0 49       		.uleb128 0x49
 3337 00e1 13       		.uleb128 0x13
 3338 00e2 00       		.byte	0
 3339 00e3 00       		.byte	0
 3340 00e4 13       		.uleb128 0x13
 3341 00e5 26       		.uleb128 0x26
 3342 00e6 00       		.byte	0
 3343 00e7 49       		.uleb128 0x49
 3344 00e8 13       		.uleb128 0x13
 3345 00e9 00       		.byte	0
 3346 00ea 00       		.byte	0
 3347 00eb 14       		.uleb128 0x14
 3348 00ec 35       		.uleb128 0x35
 3349 00ed 00       		.byte	0
 3350 00ee 49       		.uleb128 0x49
 3351 00ef 13       		.uleb128 0x13
 3352 00f0 00       		.byte	0
 3353 00f1 00       		.byte	0
 3354 00f2 15       		.uleb128 0x15
 3355 00f3 2E       		.uleb128 0x2e
 3356 00f4 01       		.byte	0x1
 3357 00f5 03       		.uleb128 0x3
 3358 00f6 0E       		.uleb128 0xe
 3359 00f7 3A       		.uleb128 0x3a
 3360 00f8 0B       		.uleb128 0xb
 3361 00f9 3B       		.uleb128 0x3b
 3362 00fa 05       		.uleb128 0x5
 3363 00fb 27       		.uleb128 0x27
ARM GAS  /tmp/ccYGmlHj.s 			page 60


 3364 00fc 19       		.uleb128 0x19
 3365 00fd 20       		.uleb128 0x20
 3366 00fe 0B       		.uleb128 0xb
 3367 00ff 01       		.uleb128 0x1
 3368 0100 13       		.uleb128 0x13
 3369 0101 00       		.byte	0
 3370 0102 00       		.byte	0
 3371 0103 16       		.uleb128 0x16
 3372 0104 05       		.uleb128 0x5
 3373 0105 00       		.byte	0
 3374 0106 03       		.uleb128 0x3
 3375 0107 0E       		.uleb128 0xe
 3376 0108 3A       		.uleb128 0x3a
 3377 0109 0B       		.uleb128 0xb
 3378 010a 3B       		.uleb128 0x3b
 3379 010b 05       		.uleb128 0x5
 3380 010c 49       		.uleb128 0x49
 3381 010d 13       		.uleb128 0x13
 3382 010e 00       		.byte	0
 3383 010f 00       		.byte	0
 3384 0110 17       		.uleb128 0x17
 3385 0111 2E       		.uleb128 0x2e
 3386 0112 00       		.byte	0
 3387 0113 03       		.uleb128 0x3
 3388 0114 0E       		.uleb128 0xe
 3389 0115 3A       		.uleb128 0x3a
 3390 0116 0B       		.uleb128 0xb
 3391 0117 3B       		.uleb128 0x3b
 3392 0118 05       		.uleb128 0x5
 3393 0119 27       		.uleb128 0x27
 3394 011a 19       		.uleb128 0x19
 3395 011b 20       		.uleb128 0x20
 3396 011c 0B       		.uleb128 0xb
 3397 011d 00       		.byte	0
 3398 011e 00       		.byte	0
 3399 011f 18       		.uleb128 0x18
 3400 0120 2E       		.uleb128 0x2e
 3401 0121 01       		.byte	0x1
 3402 0122 03       		.uleb128 0x3
 3403 0123 0E       		.uleb128 0xe
 3404 0124 3A       		.uleb128 0x3a
 3405 0125 0B       		.uleb128 0xb
 3406 0126 3B       		.uleb128 0x3b
 3407 0127 05       		.uleb128 0x5
 3408 0128 27       		.uleb128 0x27
 3409 0129 19       		.uleb128 0x19
 3410 012a 11       		.uleb128 0x11
 3411 012b 01       		.uleb128 0x1
 3412 012c 12       		.uleb128 0x12
 3413 012d 06       		.uleb128 0x6
 3414 012e 40       		.uleb128 0x40
 3415 012f 18       		.uleb128 0x18
 3416 0130 9742     		.uleb128 0x2117
 3417 0132 19       		.uleb128 0x19
 3418 0133 01       		.uleb128 0x1
 3419 0134 13       		.uleb128 0x13
 3420 0135 00       		.byte	0
ARM GAS  /tmp/ccYGmlHj.s 			page 61


 3421 0136 00       		.byte	0
 3422 0137 19       		.uleb128 0x19
 3423 0138 1D       		.uleb128 0x1d
 3424 0139 01       		.byte	0x1
 3425 013a 31       		.uleb128 0x31
 3426 013b 13       		.uleb128 0x13
 3427 013c 11       		.uleb128 0x11
 3428 013d 01       		.uleb128 0x1
 3429 013e 12       		.uleb128 0x12
 3430 013f 06       		.uleb128 0x6
 3431 0140 58       		.uleb128 0x58
 3432 0141 0B       		.uleb128 0xb
 3433 0142 59       		.uleb128 0x59
 3434 0143 05       		.uleb128 0x5
 3435 0144 01       		.uleb128 0x1
 3436 0145 13       		.uleb128 0x13
 3437 0146 00       		.byte	0
 3438 0147 00       		.byte	0
 3439 0148 1A       		.uleb128 0x1a
 3440 0149 1D       		.uleb128 0x1d
 3441 014a 01       		.byte	0x1
 3442 014b 31       		.uleb128 0x31
 3443 014c 13       		.uleb128 0x13
 3444 014d 11       		.uleb128 0x11
 3445 014e 01       		.uleb128 0x1
 3446 014f 12       		.uleb128 0x12
 3447 0150 06       		.uleb128 0x6
 3448 0151 58       		.uleb128 0x58
 3449 0152 0B       		.uleb128 0xb
 3450 0153 59       		.uleb128 0x59
 3451 0154 05       		.uleb128 0x5
 3452 0155 00       		.byte	0
 3453 0156 00       		.byte	0
 3454 0157 1B       		.uleb128 0x1b
 3455 0158 05       		.uleb128 0x5
 3456 0159 00       		.byte	0
 3457 015a 31       		.uleb128 0x31
 3458 015b 13       		.uleb128 0x13
 3459 015c 1C       		.uleb128 0x1c
 3460 015d 0B       		.uleb128 0xb
 3461 015e 00       		.byte	0
 3462 015f 00       		.byte	0
 3463 0160 1C       		.uleb128 0x1c
 3464 0161 898201   		.uleb128 0x4109
 3465 0164 00       		.byte	0
 3466 0165 11       		.uleb128 0x11
 3467 0166 01       		.uleb128 0x1
 3468 0167 9542     		.uleb128 0x2115
 3469 0169 19       		.uleb128 0x19
 3470 016a 31       		.uleb128 0x31
 3471 016b 13       		.uleb128 0x13
 3472 016c 00       		.byte	0
 3473 016d 00       		.byte	0
 3474 016e 1D       		.uleb128 0x1d
 3475 016f 34       		.uleb128 0x34
 3476 0170 00       		.byte	0
 3477 0171 03       		.uleb128 0x3
ARM GAS  /tmp/ccYGmlHj.s 			page 62


 3478 0172 0E       		.uleb128 0xe
 3479 0173 49       		.uleb128 0x49
 3480 0174 13       		.uleb128 0x13
 3481 0175 34       		.uleb128 0x34
 3482 0176 19       		.uleb128 0x19
 3483 0177 00       		.byte	0
 3484 0178 00       		.byte	0
 3485 0179 1E       		.uleb128 0x1e
 3486 017a 898201   		.uleb128 0x4109
 3487 017d 00       		.byte	0
 3488 017e 11       		.uleb128 0x11
 3489 017f 01       		.uleb128 0x1
 3490 0180 31       		.uleb128 0x31
 3491 0181 13       		.uleb128 0x13
 3492 0182 00       		.byte	0
 3493 0183 00       		.byte	0
 3494 0184 1F       		.uleb128 0x1f
 3495 0185 01       		.uleb128 0x1
 3496 0186 01       		.byte	0x1
 3497 0187 49       		.uleb128 0x49
 3498 0188 13       		.uleb128 0x13
 3499 0189 01       		.uleb128 0x1
 3500 018a 13       		.uleb128 0x13
 3501 018b 00       		.byte	0
 3502 018c 00       		.byte	0
 3503 018d 20       		.uleb128 0x20
 3504 018e 21       		.uleb128 0x21
 3505 018f 00       		.byte	0
 3506 0190 49       		.uleb128 0x49
 3507 0191 13       		.uleb128 0x13
 3508 0192 2F       		.uleb128 0x2f
 3509 0193 0B       		.uleb128 0xb
 3510 0194 00       		.byte	0
 3511 0195 00       		.byte	0
 3512 0196 21       		.uleb128 0x21
 3513 0197 2E       		.uleb128 0x2e
 3514 0198 01       		.byte	0x1
 3515 0199 3F       		.uleb128 0x3f
 3516 019a 19       		.uleb128 0x19
 3517 019b 03       		.uleb128 0x3
 3518 019c 0E       		.uleb128 0xe
 3519 019d 3A       		.uleb128 0x3a
 3520 019e 0B       		.uleb128 0xb
 3521 019f 3B       		.uleb128 0x3b
 3522 01a0 0B       		.uleb128 0xb
 3523 01a1 27       		.uleb128 0x27
 3524 01a2 19       		.uleb128 0x19
 3525 01a3 11       		.uleb128 0x11
 3526 01a4 01       		.uleb128 0x1
 3527 01a5 12       		.uleb128 0x12
 3528 01a6 06       		.uleb128 0x6
 3529 01a7 40       		.uleb128 0x40
 3530 01a8 18       		.uleb128 0x18
 3531 01a9 9742     		.uleb128 0x2117
 3532 01ab 19       		.uleb128 0x19
 3533 01ac 01       		.uleb128 0x1
 3534 01ad 13       		.uleb128 0x13
ARM GAS  /tmp/ccYGmlHj.s 			page 63


 3535 01ae 00       		.byte	0
 3536 01af 00       		.byte	0
 3537 01b0 22       		.uleb128 0x22
 3538 01b1 05       		.uleb128 0x5
 3539 01b2 00       		.byte	0
 3540 01b3 03       		.uleb128 0x3
 3541 01b4 08       		.uleb128 0x8
 3542 01b5 3A       		.uleb128 0x3a
 3543 01b6 0B       		.uleb128 0xb
 3544 01b7 3B       		.uleb128 0x3b
 3545 01b8 0B       		.uleb128 0xb
 3546 01b9 49       		.uleb128 0x49
 3547 01ba 13       		.uleb128 0x13
 3548 01bb 02       		.uleb128 0x2
 3549 01bc 17       		.uleb128 0x17
 3550 01bd 00       		.byte	0
 3551 01be 00       		.byte	0
 3552 01bf 23       		.uleb128 0x23
 3553 01c0 05       		.uleb128 0x5
 3554 01c1 00       		.byte	0
 3555 01c2 03       		.uleb128 0x3
 3556 01c3 0E       		.uleb128 0xe
 3557 01c4 3A       		.uleb128 0x3a
 3558 01c5 0B       		.uleb128 0xb
 3559 01c6 3B       		.uleb128 0x3b
 3560 01c7 0B       		.uleb128 0xb
 3561 01c8 49       		.uleb128 0x49
 3562 01c9 13       		.uleb128 0x13
 3563 01ca 02       		.uleb128 0x2
 3564 01cb 17       		.uleb128 0x17
 3565 01cc 00       		.byte	0
 3566 01cd 00       		.byte	0
 3567 01ce 24       		.uleb128 0x24
 3568 01cf 34       		.uleb128 0x34
 3569 01d0 00       		.byte	0
 3570 01d1 03       		.uleb128 0x3
 3571 01d2 08       		.uleb128 0x8
 3572 01d3 3A       		.uleb128 0x3a
 3573 01d4 0B       		.uleb128 0xb
 3574 01d5 3B       		.uleb128 0x3b
 3575 01d6 0B       		.uleb128 0xb
 3576 01d7 49       		.uleb128 0x49
 3577 01d8 13       		.uleb128 0x13
 3578 01d9 02       		.uleb128 0x2
 3579 01da 17       		.uleb128 0x17
 3580 01db 00       		.byte	0
 3581 01dc 00       		.byte	0
 3582 01dd 25       		.uleb128 0x25
 3583 01de 2E       		.uleb128 0x2e
 3584 01df 01       		.byte	0x1
 3585 01e0 3F       		.uleb128 0x3f
 3586 01e1 19       		.uleb128 0x19
 3587 01e2 03       		.uleb128 0x3
 3588 01e3 0E       		.uleb128 0xe
 3589 01e4 3A       		.uleb128 0x3a
 3590 01e5 0B       		.uleb128 0xb
 3591 01e6 3B       		.uleb128 0x3b
ARM GAS  /tmp/ccYGmlHj.s 			page 64


 3592 01e7 0B       		.uleb128 0xb
 3593 01e8 27       		.uleb128 0x27
 3594 01e9 19       		.uleb128 0x19
 3595 01ea 49       		.uleb128 0x49
 3596 01eb 13       		.uleb128 0x13
 3597 01ec 11       		.uleb128 0x11
 3598 01ed 01       		.uleb128 0x1
 3599 01ee 12       		.uleb128 0x12
 3600 01ef 06       		.uleb128 0x6
 3601 01f0 40       		.uleb128 0x40
 3602 01f1 18       		.uleb128 0x18
 3603 01f2 9742     		.uleb128 0x2117
 3604 01f4 19       		.uleb128 0x19
 3605 01f5 01       		.uleb128 0x1
 3606 01f6 13       		.uleb128 0x13
 3607 01f7 00       		.byte	0
 3608 01f8 00       		.byte	0
 3609 01f9 26       		.uleb128 0x26
 3610 01fa 898201   		.uleb128 0x4109
 3611 01fd 01       		.byte	0x1
 3612 01fe 11       		.uleb128 0x11
 3613 01ff 01       		.uleb128 0x1
 3614 0200 31       		.uleb128 0x31
 3615 0201 13       		.uleb128 0x13
 3616 0202 01       		.uleb128 0x1
 3617 0203 13       		.uleb128 0x13
 3618 0204 00       		.byte	0
 3619 0205 00       		.byte	0
 3620 0206 27       		.uleb128 0x27
 3621 0207 8A8201   		.uleb128 0x410a
 3622 020a 00       		.byte	0
 3623 020b 02       		.uleb128 0x2
 3624 020c 18       		.uleb128 0x18
 3625 020d 9142     		.uleb128 0x2111
 3626 020f 18       		.uleb128 0x18
 3627 0210 00       		.byte	0
 3628 0211 00       		.byte	0
 3629 0212 28       		.uleb128 0x28
 3630 0213 2E       		.uleb128 0x2e
 3631 0214 01       		.byte	0x1
 3632 0215 03       		.uleb128 0x3
 3633 0216 0E       		.uleb128 0xe
 3634 0217 3A       		.uleb128 0x3a
 3635 0218 0B       		.uleb128 0xb
 3636 0219 3B       		.uleb128 0x3b
 3637 021a 05       		.uleb128 0x5
 3638 021b 27       		.uleb128 0x27
 3639 021c 19       		.uleb128 0x19
 3640 021d 49       		.uleb128 0x49
 3641 021e 13       		.uleb128 0x13
 3642 021f 20       		.uleb128 0x20
 3643 0220 0B       		.uleb128 0xb
 3644 0221 01       		.uleb128 0x1
 3645 0222 13       		.uleb128 0x13
 3646 0223 00       		.byte	0
 3647 0224 00       		.byte	0
 3648 0225 29       		.uleb128 0x29
ARM GAS  /tmp/ccYGmlHj.s 			page 65


 3649 0226 34       		.uleb128 0x34
 3650 0227 00       		.byte	0
 3651 0228 03       		.uleb128 0x3
 3652 0229 0E       		.uleb128 0xe
 3653 022a 3A       		.uleb128 0x3a
 3654 022b 0B       		.uleb128 0xb
 3655 022c 3B       		.uleb128 0x3b
 3656 022d 0B       		.uleb128 0xb
 3657 022e 49       		.uleb128 0x49
 3658 022f 13       		.uleb128 0x13
 3659 0230 00       		.byte	0
 3660 0231 00       		.byte	0
 3661 0232 2A       		.uleb128 0x2a
 3662 0233 1D       		.uleb128 0x1d
 3663 0234 01       		.byte	0x1
 3664 0235 31       		.uleb128 0x31
 3665 0236 13       		.uleb128 0x13
 3666 0237 11       		.uleb128 0x11
 3667 0238 01       		.uleb128 0x1
 3668 0239 12       		.uleb128 0x12
 3669 023a 06       		.uleb128 0x6
 3670 023b 58       		.uleb128 0x58
 3671 023c 0B       		.uleb128 0xb
 3672 023d 59       		.uleb128 0x59
 3673 023e 0B       		.uleb128 0xb
 3674 023f 01       		.uleb128 0x1
 3675 0240 13       		.uleb128 0x13
 3676 0241 00       		.byte	0
 3677 0242 00       		.byte	0
 3678 0243 2B       		.uleb128 0x2b
 3679 0244 05       		.uleb128 0x5
 3680 0245 00       		.byte	0
 3681 0246 31       		.uleb128 0x31
 3682 0247 13       		.uleb128 0x13
 3683 0248 02       		.uleb128 0x2
 3684 0249 17       		.uleb128 0x17
 3685 024a 00       		.byte	0
 3686 024b 00       		.byte	0
 3687 024c 2C       		.uleb128 0x2c
 3688 024d 2E       		.uleb128 0x2e
 3689 024e 01       		.byte	0x1
 3690 024f 3F       		.uleb128 0x3f
 3691 0250 19       		.uleb128 0x19
 3692 0251 03       		.uleb128 0x3
 3693 0252 0E       		.uleb128 0xe
 3694 0253 3A       		.uleb128 0x3a
 3695 0254 0B       		.uleb128 0xb
 3696 0255 3B       		.uleb128 0x3b
 3697 0256 05       		.uleb128 0x5
 3698 0257 27       		.uleb128 0x27
 3699 0258 19       		.uleb128 0x19
 3700 0259 49       		.uleb128 0x49
 3701 025a 13       		.uleb128 0x13
 3702 025b 11       		.uleb128 0x11
 3703 025c 01       		.uleb128 0x1
 3704 025d 12       		.uleb128 0x12
 3705 025e 06       		.uleb128 0x6
ARM GAS  /tmp/ccYGmlHj.s 			page 66


 3706 025f 40       		.uleb128 0x40
 3707 0260 18       		.uleb128 0x18
 3708 0261 9742     		.uleb128 0x2117
 3709 0263 19       		.uleb128 0x19
 3710 0264 01       		.uleb128 0x1
 3711 0265 13       		.uleb128 0x13
 3712 0266 00       		.byte	0
 3713 0267 00       		.byte	0
 3714 0268 2D       		.uleb128 0x2d
 3715 0269 05       		.uleb128 0x5
 3716 026a 00       		.byte	0
 3717 026b 03       		.uleb128 0x3
 3718 026c 08       		.uleb128 0x8
 3719 026d 3A       		.uleb128 0x3a
 3720 026e 0B       		.uleb128 0xb
 3721 026f 3B       		.uleb128 0x3b
 3722 0270 05       		.uleb128 0x5
 3723 0271 49       		.uleb128 0x49
 3724 0272 13       		.uleb128 0x13
 3725 0273 02       		.uleb128 0x2
 3726 0274 17       		.uleb128 0x17
 3727 0275 00       		.byte	0
 3728 0276 00       		.byte	0
 3729 0277 2E       		.uleb128 0x2e
 3730 0278 34       		.uleb128 0x34
 3731 0279 00       		.byte	0
 3732 027a 03       		.uleb128 0x3
 3733 027b 0E       		.uleb128 0xe
 3734 027c 3A       		.uleb128 0x3a
 3735 027d 0B       		.uleb128 0xb
 3736 027e 3B       		.uleb128 0x3b
 3737 027f 05       		.uleb128 0x5
 3738 0280 49       		.uleb128 0x49
 3739 0281 13       		.uleb128 0x13
 3740 0282 02       		.uleb128 0x2
 3741 0283 18       		.uleb128 0x18
 3742 0284 00       		.byte	0
 3743 0285 00       		.byte	0
 3744 0286 2F       		.uleb128 0x2f
 3745 0287 2E       		.uleb128 0x2e
 3746 0288 01       		.byte	0x1
 3747 0289 3F       		.uleb128 0x3f
 3748 028a 19       		.uleb128 0x19
 3749 028b 03       		.uleb128 0x3
 3750 028c 0E       		.uleb128 0xe
 3751 028d 3A       		.uleb128 0x3a
 3752 028e 0B       		.uleb128 0xb
 3753 028f 3B       		.uleb128 0x3b
 3754 0290 05       		.uleb128 0x5
 3755 0291 27       		.uleb128 0x27
 3756 0292 19       		.uleb128 0x19
 3757 0293 11       		.uleb128 0x11
 3758 0294 01       		.uleb128 0x1
 3759 0295 12       		.uleb128 0x12
 3760 0296 06       		.uleb128 0x6
 3761 0297 40       		.uleb128 0x40
 3762 0298 18       		.uleb128 0x18
ARM GAS  /tmp/ccYGmlHj.s 			page 67


 3763 0299 9742     		.uleb128 0x2117
 3764 029b 19       		.uleb128 0x19
 3765 029c 01       		.uleb128 0x1
 3766 029d 13       		.uleb128 0x13
 3767 029e 00       		.byte	0
 3768 029f 00       		.byte	0
 3769 02a0 30       		.uleb128 0x30
 3770 02a1 05       		.uleb128 0x5
 3771 02a2 00       		.byte	0
 3772 02a3 03       		.uleb128 0x3
 3773 02a4 0E       		.uleb128 0xe
 3774 02a5 3A       		.uleb128 0x3a
 3775 02a6 0B       		.uleb128 0xb
 3776 02a7 3B       		.uleb128 0x3b
 3777 02a8 05       		.uleb128 0x5
 3778 02a9 49       		.uleb128 0x49
 3779 02aa 13       		.uleb128 0x13
 3780 02ab 02       		.uleb128 0x2
 3781 02ac 17       		.uleb128 0x17
 3782 02ad 00       		.byte	0
 3783 02ae 00       		.byte	0
 3784 02af 31       		.uleb128 0x31
 3785 02b0 898201   		.uleb128 0x4109
 3786 02b3 01       		.byte	0x1
 3787 02b4 11       		.uleb128 0x11
 3788 02b5 01       		.uleb128 0x1
 3789 02b6 9542     		.uleb128 0x2115
 3790 02b8 19       		.uleb128 0x19
 3791 02b9 31       		.uleb128 0x31
 3792 02ba 13       		.uleb128 0x13
 3793 02bb 00       		.byte	0
 3794 02bc 00       		.byte	0
 3795 02bd 32       		.uleb128 0x32
 3796 02be 34       		.uleb128 0x34
 3797 02bf 00       		.byte	0
 3798 02c0 03       		.uleb128 0x3
 3799 02c1 08       		.uleb128 0x8
 3800 02c2 3A       		.uleb128 0x3a
 3801 02c3 0B       		.uleb128 0xb
 3802 02c4 3B       		.uleb128 0x3b
 3803 02c5 0B       		.uleb128 0xb
 3804 02c6 49       		.uleb128 0x49
 3805 02c7 13       		.uleb128 0x13
 3806 02c8 02       		.uleb128 0x2
 3807 02c9 18       		.uleb128 0x18
 3808 02ca 00       		.byte	0
 3809 02cb 00       		.byte	0
 3810 02cc 33       		.uleb128 0x33
 3811 02cd 34       		.uleb128 0x34
 3812 02ce 00       		.byte	0
 3813 02cf 03       		.uleb128 0x3
 3814 02d0 08       		.uleb128 0x8
 3815 02d1 3A       		.uleb128 0x3a
 3816 02d2 0B       		.uleb128 0xb
 3817 02d3 3B       		.uleb128 0x3b
 3818 02d4 05       		.uleb128 0x5
 3819 02d5 49       		.uleb128 0x49
ARM GAS  /tmp/ccYGmlHj.s 			page 68


 3820 02d6 13       		.uleb128 0x13
 3821 02d7 02       		.uleb128 0x2
 3822 02d8 17       		.uleb128 0x17
 3823 02d9 00       		.byte	0
 3824 02da 00       		.byte	0
 3825 02db 34       		.uleb128 0x34
 3826 02dc 898201   		.uleb128 0x4109
 3827 02df 01       		.byte	0x1
 3828 02e0 11       		.uleb128 0x11
 3829 02e1 01       		.uleb128 0x1
 3830 02e2 00       		.byte	0
 3831 02e3 00       		.byte	0
 3832 02e4 35       		.uleb128 0x35
 3833 02e5 34       		.uleb128 0x34
 3834 02e6 00       		.byte	0
 3835 02e7 03       		.uleb128 0x3
 3836 02e8 0E       		.uleb128 0xe
 3837 02e9 3A       		.uleb128 0x3a
 3838 02ea 0B       		.uleb128 0xb
 3839 02eb 3B       		.uleb128 0x3b
 3840 02ec 05       		.uleb128 0x5
 3841 02ed 49       		.uleb128 0x49
 3842 02ee 13       		.uleb128 0x13
 3843 02ef 3F       		.uleb128 0x3f
 3844 02f0 19       		.uleb128 0x19
 3845 02f1 3C       		.uleb128 0x3c
 3846 02f2 19       		.uleb128 0x19
 3847 02f3 00       		.byte	0
 3848 02f4 00       		.byte	0
 3849 02f5 36       		.uleb128 0x36
 3850 02f6 34       		.uleb128 0x34
 3851 02f7 00       		.byte	0
 3852 02f8 03       		.uleb128 0x3
 3853 02f9 08       		.uleb128 0x8
 3854 02fa 3A       		.uleb128 0x3a
 3855 02fb 0B       		.uleb128 0xb
 3856 02fc 3B       		.uleb128 0x3b
 3857 02fd 05       		.uleb128 0x5
 3858 02fe 49       		.uleb128 0x49
 3859 02ff 13       		.uleb128 0x13
 3860 0300 3F       		.uleb128 0x3f
 3861 0301 19       		.uleb128 0x19
 3862 0302 3C       		.uleb128 0x3c
 3863 0303 19       		.uleb128 0x19
 3864 0304 00       		.byte	0
 3865 0305 00       		.byte	0
 3866 0306 37       		.uleb128 0x37
 3867 0307 2E       		.uleb128 0x2e
 3868 0308 00       		.byte	0
 3869 0309 3F       		.uleb128 0x3f
 3870 030a 19       		.uleb128 0x19
 3871 030b 03       		.uleb128 0x3
 3872 030c 0E       		.uleb128 0xe
 3873 030d 3A       		.uleb128 0x3a
 3874 030e 0B       		.uleb128 0xb
 3875 030f 3B       		.uleb128 0x3b
 3876 0310 0B       		.uleb128 0xb
ARM GAS  /tmp/ccYGmlHj.s 			page 69


 3877 0311 27       		.uleb128 0x27
 3878 0312 19       		.uleb128 0x19
 3879 0313 3C       		.uleb128 0x3c
 3880 0314 19       		.uleb128 0x19
 3881 0315 00       		.byte	0
 3882 0316 00       		.byte	0
 3883 0317 38       		.uleb128 0x38
 3884 0318 2E       		.uleb128 0x2e
 3885 0319 01       		.byte	0x1
 3886 031a 3F       		.uleb128 0x3f
 3887 031b 19       		.uleb128 0x19
 3888 031c 03       		.uleb128 0x3
 3889 031d 0E       		.uleb128 0xe
 3890 031e 3A       		.uleb128 0x3a
 3891 031f 0B       		.uleb128 0xb
 3892 0320 3B       		.uleb128 0x3b
 3893 0321 05       		.uleb128 0x5
 3894 0322 27       		.uleb128 0x27
 3895 0323 19       		.uleb128 0x19
 3896 0324 49       		.uleb128 0x49
 3897 0325 13       		.uleb128 0x13
 3898 0326 3C       		.uleb128 0x3c
 3899 0327 19       		.uleb128 0x19
 3900 0328 01       		.uleb128 0x1
 3901 0329 13       		.uleb128 0x13
 3902 032a 00       		.byte	0
 3903 032b 00       		.byte	0
 3904 032c 39       		.uleb128 0x39
 3905 032d 2E       		.uleb128 0x2e
 3906 032e 00       		.byte	0
 3907 032f 3F       		.uleb128 0x3f
 3908 0330 19       		.uleb128 0x19
 3909 0331 03       		.uleb128 0x3
 3910 0332 0E       		.uleb128 0xe
 3911 0333 3A       		.uleb128 0x3a
 3912 0334 0B       		.uleb128 0xb
 3913 0335 3B       		.uleb128 0x3b
 3914 0336 05       		.uleb128 0x5
 3915 0337 27       		.uleb128 0x27
 3916 0338 19       		.uleb128 0x19
 3917 0339 3C       		.uleb128 0x3c
 3918 033a 19       		.uleb128 0x19
 3919 033b 00       		.byte	0
 3920 033c 00       		.byte	0
 3921 033d 3A       		.uleb128 0x3a
 3922 033e 2E       		.uleb128 0x2e
 3923 033f 01       		.byte	0x1
 3924 0340 3F       		.uleb128 0x3f
 3925 0341 19       		.uleb128 0x19
 3926 0342 03       		.uleb128 0x3
 3927 0343 0E       		.uleb128 0xe
 3928 0344 3A       		.uleb128 0x3a
 3929 0345 0B       		.uleb128 0xb
 3930 0346 3B       		.uleb128 0x3b
 3931 0347 05       		.uleb128 0x5
 3932 0348 27       		.uleb128 0x27
 3933 0349 19       		.uleb128 0x19
ARM GAS  /tmp/ccYGmlHj.s 			page 70


 3934 034a 3C       		.uleb128 0x3c
 3935 034b 19       		.uleb128 0x19
 3936 034c 01       		.uleb128 0x1
 3937 034d 13       		.uleb128 0x13
 3938 034e 00       		.byte	0
 3939 034f 00       		.byte	0
 3940 0350 3B       		.uleb128 0x3b
 3941 0351 2E       		.uleb128 0x2e
 3942 0352 01       		.byte	0x1
 3943 0353 3F       		.uleb128 0x3f
 3944 0354 19       		.uleb128 0x19
 3945 0355 03       		.uleb128 0x3
 3946 0356 0E       		.uleb128 0xe
 3947 0357 3A       		.uleb128 0x3a
 3948 0358 0B       		.uleb128 0xb
 3949 0359 3B       		.uleb128 0x3b
 3950 035a 05       		.uleb128 0x5
 3951 035b 27       		.uleb128 0x27
 3952 035c 19       		.uleb128 0x19
 3953 035d 49       		.uleb128 0x49
 3954 035e 13       		.uleb128 0x13
 3955 035f 3C       		.uleb128 0x3c
 3956 0360 19       		.uleb128 0x19
 3957 0361 00       		.byte	0
 3958 0362 00       		.byte	0
 3959 0363 00       		.byte	0
 3960              		.section	.debug_loc,"",%progbits
 3961              	.Ldebug_loc0:
 3962              	.LLST0:
 3963 0000 00000000 		.4byte	.LVL3
 3964 0004 0D000000 		.4byte	.LVL4-1
 3965 0008 0100     		.2byte	0x1
 3966 000a 50       		.byte	0x50
 3967 000b 0D000000 		.4byte	.LVL4-1
 3968 000f 26000000 		.4byte	.LVL5
 3969 0013 0100     		.2byte	0x1
 3970 0015 55       		.byte	0x55
 3971 0016 26000000 		.4byte	.LVL5
 3972 001a 30000000 		.4byte	.LFE290
 3973 001e 0400     		.2byte	0x4
 3974 0020 F3       		.byte	0xf3
 3975 0021 01       		.uleb128 0x1
 3976 0022 50       		.byte	0x50
 3977 0023 9F       		.byte	0x9f
 3978 0024 00000000 		.4byte	0
 3979 0028 00000000 		.4byte	0
 3980              	.LLST1:
 3981 002c 00000000 		.4byte	.LVL3
 3982 0030 0D000000 		.4byte	.LVL4-1
 3983 0034 0100     		.2byte	0x1
 3984 0036 51       		.byte	0x51
 3985 0037 0D000000 		.4byte	.LVL4-1
 3986 003b 26000000 		.4byte	.LVL5
 3987 003f 0100     		.2byte	0x1
 3988 0041 54       		.byte	0x54
 3989 0042 26000000 		.4byte	.LVL5
 3990 0046 29000000 		.4byte	.LVL6-1
ARM GAS  /tmp/ccYGmlHj.s 			page 71


 3991 004a 0300     		.2byte	0x3
 3992 004c F3       		.byte	0xf3
 3993 004d 01       		.uleb128 0x1
 3994 004e 50       		.byte	0x50
 3995 004f 29000000 		.4byte	.LVL6-1
 3996 0053 30000000 		.4byte	.LFE290
 3997 0057 0400     		.2byte	0x4
 3998 0059 F3       		.byte	0xf3
 3999 005a 01       		.uleb128 0x1
 4000 005b 51       		.byte	0x51
 4001 005c 9F       		.byte	0x9f
 4002 005d 00000000 		.4byte	0
 4003 0061 00000000 		.4byte	0
 4004              	.LLST2:
 4005 0065 00000000 		.4byte	.LVL3
 4006 0069 0D000000 		.4byte	.LVL4-1
 4007 006d 0100     		.2byte	0x1
 4008 006f 52       		.byte	0x52
 4009 0070 0D000000 		.4byte	.LVL4-1
 4010 0074 26000000 		.4byte	.LVL5
 4011 0078 0100     		.2byte	0x1
 4012 007a 57       		.byte	0x57
 4013 007b 26000000 		.4byte	.LVL5
 4014 007f 29000000 		.4byte	.LVL6-1
 4015 0083 0600     		.2byte	0x6
 4016 0085 F3       		.byte	0xf3
 4017 0086 01       		.uleb128 0x1
 4018 0087 50       		.byte	0x50
 4019 0088 06       		.byte	0x6
 4020 0089 23       		.byte	0x23
 4021 008a 08       		.uleb128 0x8
 4022 008b 29000000 		.4byte	.LVL6-1
 4023 008f 30000000 		.4byte	.LFE290
 4024 0093 0400     		.2byte	0x4
 4025 0095 F3       		.byte	0xf3
 4026 0096 01       		.uleb128 0x1
 4027 0097 52       		.byte	0x52
 4028 0098 9F       		.byte	0x9f
 4029 0099 00000000 		.4byte	0
 4030 009d 00000000 		.4byte	0
 4031              	.LLST3:
 4032 00a1 00000000 		.4byte	.LVL3
 4033 00a5 0D000000 		.4byte	.LVL4-1
 4034 00a9 0100     		.2byte	0x1
 4035 00ab 53       		.byte	0x53
 4036 00ac 0D000000 		.4byte	.LVL4-1
 4037 00b0 26000000 		.4byte	.LVL5
 4038 00b4 0100     		.2byte	0x1
 4039 00b6 56       		.byte	0x56
 4040 00b7 26000000 		.4byte	.LVL5
 4041 00bb 29000000 		.4byte	.LVL6-1
 4042 00bf 0600     		.2byte	0x6
 4043 00c1 F3       		.byte	0xf3
 4044 00c2 01       		.uleb128 0x1
 4045 00c3 50       		.byte	0x50
 4046 00c4 06       		.byte	0x6
 4047 00c5 23       		.byte	0x23
ARM GAS  /tmp/ccYGmlHj.s 			page 72


 4048 00c6 10       		.uleb128 0x10
 4049 00c7 29000000 		.4byte	.LVL6-1
 4050 00cb 30000000 		.4byte	.LFE290
 4051 00cf 0400     		.2byte	0x4
 4052 00d1 F3       		.byte	0xf3
 4053 00d2 01       		.uleb128 0x1
 4054 00d3 53       		.byte	0x53
 4055 00d4 9F       		.byte	0x9f
 4056 00d5 00000000 		.4byte	0
 4057 00d9 00000000 		.4byte	0
 4058              	.LLST4:
 4059 00dd 00000000 		.4byte	.LVL7
 4060 00e1 09000000 		.4byte	.LVL9-1
 4061 00e5 0100     		.2byte	0x1
 4062 00e7 50       		.byte	0x50
 4063 00e8 09000000 		.4byte	.LVL9-1
 4064 00ec 24000000 		.4byte	.LVL13
 4065 00f0 0100     		.2byte	0x1
 4066 00f2 54       		.byte	0x54
 4067 00f3 24000000 		.4byte	.LVL13
 4068 00f7 28000000 		.4byte	.LFE291
 4069 00fb 0400     		.2byte	0x4
 4070 00fd F3       		.byte	0xf3
 4071 00fe 01       		.uleb128 0x1
 4072 00ff 50       		.byte	0x50
 4073 0100 9F       		.byte	0x9f
 4074 0101 00000000 		.4byte	0
 4075 0105 00000000 		.4byte	0
 4076              	.LLST5:
 4077 0109 00000000 		.4byte	.LVL7
 4078 010d 09000000 		.4byte	.LVL9-1
 4079 0111 0100     		.2byte	0x1
 4080 0113 51       		.byte	0x51
 4081 0114 09000000 		.4byte	.LVL9-1
 4082 0118 24000000 		.4byte	.LVL13
 4083 011c 0100     		.2byte	0x1
 4084 011e 55       		.byte	0x55
 4085 011f 24000000 		.4byte	.LVL13
 4086 0123 28000000 		.4byte	.LFE291
 4087 0127 0400     		.2byte	0x4
 4088 0129 F3       		.byte	0xf3
 4089 012a 01       		.uleb128 0x1
 4090 012b 51       		.byte	0x51
 4091 012c 9F       		.byte	0x9f
 4092 012d 00000000 		.4byte	0
 4093 0131 00000000 		.4byte	0
 4094              	.LLST6:
 4095 0135 04000000 		.4byte	.LVL8
 4096 0139 09000000 		.4byte	.LVL9-1
 4097 013d 0100     		.2byte	0x1
 4098 013f 50       		.byte	0x50
 4099 0140 09000000 		.4byte	.LVL9-1
 4100 0144 0C000000 		.4byte	.LVL10
 4101 0148 0100     		.2byte	0x1
 4102 014a 54       		.byte	0x54
 4103 014b 0C000000 		.4byte	.LVL10
 4104 014f 1E000000 		.4byte	.LVL11
ARM GAS  /tmp/ccYGmlHj.s 			page 73


 4105 0153 0100     		.2byte	0x1
 4106 0155 52       		.byte	0x52
 4107 0156 20000000 		.4byte	.LVL12
 4108 015a 27000000 		.4byte	.LVL14-1
 4109 015e 0100     		.2byte	0x1
 4110 0160 52       		.byte	0x52
 4111 0161 00000000 		.4byte	0
 4112 0165 00000000 		.4byte	0
 4113              	.LLST7:
 4114 0169 00000000 		.4byte	.LVL15
 4115 016d 0E000000 		.4byte	.LVL17
 4116 0171 0100     		.2byte	0x1
 4117 0173 50       		.byte	0x50
 4118 0174 0E000000 		.4byte	.LVL17
 4119 0178 14000000 		.4byte	.LFE292
 4120 017c 0400     		.2byte	0x4
 4121 017e F3       		.byte	0xf3
 4122 017f 01       		.uleb128 0x1
 4123 0180 50       		.byte	0x50
 4124 0181 9F       		.byte	0x9f
 4125 0182 00000000 		.4byte	0
 4126 0186 00000000 		.4byte	0
 4127              	.LLST8:
 4128 018a 06000000 		.4byte	.LVL16
 4129 018e 0E000000 		.4byte	.LVL17
 4130 0192 0600     		.2byte	0x6
 4131 0194 70       		.byte	0x70
 4132 0195 00       		.sleb128 0
 4133 0196 73       		.byte	0x73
 4134 0197 00       		.sleb128 0
 4135 0198 1A       		.byte	0x1a
 4136 0199 9F       		.byte	0x9f
 4137 019a 0E000000 		.4byte	.LVL17
 4138 019e 14000000 		.4byte	.LFE292
 4139 01a2 0100     		.2byte	0x1
 4140 01a4 50       		.byte	0x50
 4141 01a5 00000000 		.4byte	0
 4142 01a9 00000000 		.4byte	0
 4143              	.LLST9:
 4144 01ad 00000000 		.4byte	.LVL18
 4145 01b1 07000000 		.4byte	.LVL19-1
 4146 01b5 0100     		.2byte	0x1
 4147 01b7 50       		.byte	0x50
 4148 01b8 07000000 		.4byte	.LVL19-1
 4149 01bc 10000000 		.4byte	.LVL21
 4150 01c0 0100     		.2byte	0x1
 4151 01c2 54       		.byte	0x54
 4152 01c3 10000000 		.4byte	.LVL21
 4153 01c7 18000000 		.4byte	.LFE293
 4154 01cb 0400     		.2byte	0x4
 4155 01cd F3       		.byte	0xf3
 4156 01ce 01       		.uleb128 0x1
 4157 01cf 50       		.byte	0x50
 4158 01d0 9F       		.byte	0x9f
 4159 01d1 00000000 		.4byte	0
 4160 01d5 00000000 		.4byte	0
 4161              	.LLST10:
ARM GAS  /tmp/ccYGmlHj.s 			page 74


 4162 01d9 10000000 		.4byte	.LVL21
 4163 01dd 13000000 		.4byte	.LVL22-1
 4164 01e1 0100     		.2byte	0x1
 4165 01e3 50       		.byte	0x50
 4166 01e4 13000000 		.4byte	.LVL22-1
 4167 01e8 18000000 		.4byte	.LFE293
 4168 01ec 0100     		.2byte	0x1
 4169 01ee 54       		.byte	0x54
 4170 01ef 00000000 		.4byte	0
 4171 01f3 00000000 		.4byte	0
 4172              	.LLST11:
 4173 01f7 00000000 		.4byte	.LVL23
 4174 01fb 07000000 		.4byte	.LVL24-1
 4175 01ff 0100     		.2byte	0x1
 4176 0201 50       		.byte	0x50
 4177 0202 07000000 		.4byte	.LVL24-1
 4178 0206 10000000 		.4byte	.LVL25
 4179 020a 0100     		.2byte	0x1
 4180 020c 54       		.byte	0x54
 4181 020d 10000000 		.4byte	.LVL25
 4182 0211 20000000 		.4byte	.LFE294
 4183 0215 0400     		.2byte	0x4
 4184 0217 F3       		.byte	0xf3
 4185 0218 01       		.uleb128 0x1
 4186 0219 50       		.byte	0x50
 4187 021a 9F       		.byte	0x9f
 4188 021b 00000000 		.4byte	0
 4189 021f 00000000 		.4byte	0
 4190              	.LLST12:
 4191 0223 08000000 		.4byte	.LVL24
 4192 0227 10000000 		.4byte	.LVL25
 4193 022b 0100     		.2byte	0x1
 4194 022d 54       		.byte	0x54
 4195 022e 10000000 		.4byte	.LVL25
 4196 0232 20000000 		.4byte	.LFE294
 4197 0236 0400     		.2byte	0x4
 4198 0238 F3       		.byte	0xf3
 4199 0239 01       		.uleb128 0x1
 4200 023a 50       		.byte	0x50
 4201 023b 9F       		.byte	0x9f
 4202 023c 00000000 		.4byte	0
 4203 0240 00000000 		.4byte	0
 4204              	.LLST13:
 4205 0244 00000000 		.4byte	.LVL27
 4206 0248 07000000 		.4byte	.LVL28-1
 4207 024c 0100     		.2byte	0x1
 4208 024e 50       		.byte	0x50
 4209 024f 07000000 		.4byte	.LVL28-1
 4210 0253 18000000 		.4byte	.LFE296
 4211 0257 0100     		.2byte	0x1
 4212 0259 54       		.byte	0x54
 4213 025a 00000000 		.4byte	0
 4214 025e 00000000 		.4byte	0
 4215              	.LLST14:
 4216 0262 00000000 		.4byte	.LVL31
 4217 0266 29000000 		.4byte	.LVL33-1
 4218 026a 0100     		.2byte	0x1
ARM GAS  /tmp/ccYGmlHj.s 			page 75


 4219 026c 50       		.byte	0x50
 4220 026d 29000000 		.4byte	.LVL33-1
 4221 0271 2A000000 		.4byte	.LVL33
 4222 0275 0400     		.2byte	0x4
 4223 0277 F3       		.byte	0xf3
 4224 0278 01       		.uleb128 0x1
 4225 0279 50       		.byte	0x50
 4226 027a 9F       		.byte	0x9f
 4227 027b 2A000000 		.4byte	.LVL33
 4228 027f 2C000000 		.4byte	.LFE298
 4229 0283 0100     		.2byte	0x1
 4230 0285 50       		.byte	0x50
 4231 0286 00000000 		.4byte	0
 4232 028a 00000000 		.4byte	0
 4233              	.LLST15:
 4234 028e 00000000 		.4byte	.LVL31
 4235 0292 04000000 		.4byte	.LVL32
 4236 0296 0100     		.2byte	0x1
 4237 0298 51       		.byte	0x51
 4238 0299 04000000 		.4byte	.LVL32
 4239 029d 2C000000 		.4byte	.LFE298
 4240 02a1 0400     		.2byte	0x4
 4241 02a3 F3       		.byte	0xf3
 4242 02a4 01       		.uleb128 0x1
 4243 02a5 51       		.byte	0x51
 4244 02a6 9F       		.byte	0x9f
 4245 02a7 00000000 		.4byte	0
 4246 02ab 00000000 		.4byte	0
 4247              	.LLST16:
 4248 02af 00000000 		.4byte	.LVL34
 4249 02b3 08000000 		.4byte	.LVL36
 4250 02b7 0100     		.2byte	0x1
 4251 02b9 50       		.byte	0x50
 4252 02ba 08000000 		.4byte	.LVL36
 4253 02be 28000000 		.4byte	.LFE295
 4254 02c2 0100     		.2byte	0x1
 4255 02c4 56       		.byte	0x56
 4256 02c5 00000000 		.4byte	0
 4257 02c9 00000000 		.4byte	0
 4258              	.LLST17:
 4259 02cd 00000000 		.4byte	.LVL34
 4260 02d1 08000000 		.4byte	.LVL36
 4261 02d5 0100     		.2byte	0x1
 4262 02d7 51       		.byte	0x51
 4263 02d8 08000000 		.4byte	.LVL36
 4264 02dc 28000000 		.4byte	.LFE295
 4265 02e0 0100     		.2byte	0x1
 4266 02e2 55       		.byte	0x55
 4267 02e3 00000000 		.4byte	0
 4268 02e7 00000000 		.4byte	0
 4269              	.LLST18:
 4270 02eb 00000000 		.4byte	.LVL39
 4271 02ef 09000000 		.4byte	.LVL40-1
 4272 02f3 0100     		.2byte	0x1
 4273 02f5 50       		.byte	0x50
 4274 02f6 09000000 		.4byte	.LVL40-1
 4275 02fa 1A000000 		.4byte	.LVL43
ARM GAS  /tmp/ccYGmlHj.s 			page 76


 4276 02fe 0100     		.2byte	0x1
 4277 0300 55       		.byte	0x55
 4278 0301 1A000000 		.4byte	.LVL43
 4279 0305 1E000000 		.4byte	.LFE297
 4280 0309 0400     		.2byte	0x4
 4281 030b F3       		.byte	0xf3
 4282 030c 01       		.uleb128 0x1
 4283 030d 50       		.byte	0x50
 4284 030e 9F       		.byte	0x9f
 4285 030f 00000000 		.4byte	0
 4286 0313 00000000 		.4byte	0
 4287              	.LLST19:
 4288 0317 00000000 		.4byte	.LVL39
 4289 031b 09000000 		.4byte	.LVL40-1
 4290 031f 0100     		.2byte	0x1
 4291 0321 51       		.byte	0x51
 4292 0322 09000000 		.4byte	.LVL40-1
 4293 0326 1A000000 		.4byte	.LVL43
 4294 032a 0100     		.2byte	0x1
 4295 032c 54       		.byte	0x54
 4296 032d 1A000000 		.4byte	.LVL43
 4297 0331 1E000000 		.4byte	.LFE297
 4298 0335 0400     		.2byte	0x4
 4299 0337 F3       		.byte	0xf3
 4300 0338 01       		.uleb128 0x1
 4301 0339 51       		.byte	0x51
 4302 033a 9F       		.byte	0x9f
 4303 033b 00000000 		.4byte	0
 4304 033f 00000000 		.4byte	0
 4305              	.LLST20:
 4306 0343 00000000 		.4byte	.LVL45
 4307 0347 09000000 		.4byte	.LVL46-1
 4308 034b 0100     		.2byte	0x1
 4309 034d 50       		.byte	0x50
 4310 034e 09000000 		.4byte	.LVL46-1
 4311 0352 1A000000 		.4byte	.LVL49
 4312 0356 0100     		.2byte	0x1
 4313 0358 55       		.byte	0x55
 4314 0359 1A000000 		.4byte	.LVL49
 4315 035d 1E000000 		.4byte	.LFE299
 4316 0361 0400     		.2byte	0x4
 4317 0363 F3       		.byte	0xf3
 4318 0364 01       		.uleb128 0x1
 4319 0365 50       		.byte	0x50
 4320 0366 9F       		.byte	0x9f
 4321 0367 00000000 		.4byte	0
 4322 036b 00000000 		.4byte	0
 4323              	.LLST21:
 4324 036f 00000000 		.4byte	.LVL45
 4325 0373 09000000 		.4byte	.LVL46-1
 4326 0377 0100     		.2byte	0x1
 4327 0379 51       		.byte	0x51
 4328 037a 09000000 		.4byte	.LVL46-1
 4329 037e 1A000000 		.4byte	.LVL49
 4330 0382 0100     		.2byte	0x1
 4331 0384 54       		.byte	0x54
 4332 0385 1A000000 		.4byte	.LVL49
ARM GAS  /tmp/ccYGmlHj.s 			page 77


 4333 0389 1E000000 		.4byte	.LFE299
 4334 038d 0400     		.2byte	0x4
 4335 038f F3       		.byte	0xf3
 4336 0390 01       		.uleb128 0x1
 4337 0391 51       		.byte	0x51
 4338 0392 9F       		.byte	0x9f
 4339 0393 00000000 		.4byte	0
 4340 0397 00000000 		.4byte	0
 4341              	.LLST22:
 4342 039b 00000000 		.4byte	.LVL51
 4343 039f 08000000 		.4byte	.LVL53
 4344 03a3 0100     		.2byte	0x1
 4345 03a5 50       		.byte	0x50
 4346 03a6 08000000 		.4byte	.LVL53
 4347 03aa 0C000000 		.4byte	.LFE300
 4348 03ae 0400     		.2byte	0x4
 4349 03b0 F3       		.byte	0xf3
 4350 03b1 01       		.uleb128 0x1
 4351 03b2 50       		.byte	0x50
 4352 03b3 9F       		.byte	0x9f
 4353 03b4 00000000 		.4byte	0
 4354 03b8 00000000 		.4byte	0
 4355              	.LLST23:
 4356 03bc 00000000 		.4byte	.LVL54
 4357 03c0 08000000 		.4byte	.LVL55
 4358 03c4 0100     		.2byte	0x1
 4359 03c6 50       		.byte	0x50
 4360 03c7 08000000 		.4byte	.LVL55
 4361 03cb 28000000 		.4byte	.LFE301
 4362 03cf 0100     		.2byte	0x1
 4363 03d1 56       		.byte	0x56
 4364 03d2 00000000 		.4byte	0
 4365 03d6 00000000 		.4byte	0
 4366              	.LLST24:
 4367 03da 00000000 		.4byte	.LVL54
 4368 03de 08000000 		.4byte	.LVL55
 4369 03e2 0100     		.2byte	0x1
 4370 03e4 51       		.byte	0x51
 4371 03e5 08000000 		.4byte	.LVL55
 4372 03e9 28000000 		.4byte	.LFE301
 4373 03ed 0100     		.2byte	0x1
 4374 03ef 55       		.byte	0x55
 4375 03f0 00000000 		.4byte	0
 4376 03f4 00000000 		.4byte	0
 4377              	.LLST25:
 4378 03f8 00000000 		.4byte	.LVL54
 4379 03fc 08000000 		.4byte	.LVL55
 4380 0400 0200     		.2byte	0x2
 4381 0402 30       		.byte	0x30
 4382 0403 9F       		.byte	0x9f
 4383 0404 08000000 		.4byte	.LVL55
 4384 0408 28000000 		.4byte	.LFE301
 4385 040c 0100     		.2byte	0x1
 4386 040e 54       		.byte	0x54
 4387 040f 00000000 		.4byte	0
 4388 0413 00000000 		.4byte	0
 4389              	.LLST26:
ARM GAS  /tmp/ccYGmlHj.s 			page 78


 4390 0417 00000000 		.4byte	.LVL59
 4391 041b 0B000000 		.4byte	.LVL61-1
 4392 041f 0100     		.2byte	0x1
 4393 0421 50       		.byte	0x50
 4394 0422 0B000000 		.4byte	.LVL61-1
 4395 0426 20000000 		.4byte	.LVL66
 4396 042a 0100     		.2byte	0x1
 4397 042c 54       		.byte	0x54
 4398 042d 20000000 		.4byte	.LVL66
 4399 0431 38000000 		.4byte	.LFE302
 4400 0435 0400     		.2byte	0x4
 4401 0437 F3       		.byte	0xf3
 4402 0438 01       		.uleb128 0x1
 4403 0439 50       		.byte	0x50
 4404 043a 9F       		.byte	0x9f
 4405 043b 00000000 		.4byte	0
 4406 043f 00000000 		.4byte	0
 4407              	.LLST27:
 4408 0443 06000000 		.4byte	.LVL60
 4409 0447 32000000 		.4byte	.LVL69
 4410 044b 0100     		.2byte	0x1
 4411 044d 55       		.byte	0x55
 4412 044e 00000000 		.4byte	0
 4413 0452 00000000 		.4byte	0
 4414              	.LLST28:
 4415 0456 0E000000 		.4byte	.LVL62
 4416 045a 10000000 		.4byte	.LVL63
 4417 045e 0600     		.2byte	0x6
 4418 0460 74       		.byte	0x74
 4419 0461 00       		.sleb128 0
 4420 0462 73       		.byte	0x73
 4421 0463 00       		.sleb128 0
 4422 0464 1A       		.byte	0x1a
 4423 0465 9F       		.byte	0x9f
 4424 0466 10000000 		.4byte	.LVL63
 4425 046a 19000000 		.4byte	.LVL64-1
 4426 046e 0100     		.2byte	0x1
 4427 0470 53       		.byte	0x53
 4428 0471 1E000000 		.4byte	.LVL65
 4429 0475 22000000 		.4byte	.LVL67
 4430 0479 0100     		.2byte	0x1
 4431 047b 53       		.byte	0x53
 4432 047c 22000000 		.4byte	.LVL67
 4433 0480 32000000 		.4byte	.LVL69
 4434 0484 0100     		.2byte	0x1
 4435 0486 54       		.byte	0x54
 4436 0487 32000000 		.4byte	.LVL69
 4437 048b 38000000 		.4byte	.LFE302
 4438 048f 0100     		.2byte	0x1
 4439 0491 50       		.byte	0x50
 4440 0492 00000000 		.4byte	0
 4441 0496 00000000 		.4byte	0
 4442              	.LLST29:
 4443 049a 00000000 		.4byte	.LVL70
 4444 049e 0B000000 		.4byte	.LVL72-1
 4445 04a2 0100     		.2byte	0x1
 4446 04a4 50       		.byte	0x50
ARM GAS  /tmp/ccYGmlHj.s 			page 79


 4447 04a5 0B000000 		.4byte	.LVL72-1
 4448 04a9 2E000000 		.4byte	.LVL79
 4449 04ad 0100     		.2byte	0x1
 4450 04af 56       		.byte	0x56
 4451 04b0 2E000000 		.4byte	.LVL79
 4452 04b4 34000000 		.4byte	.LFE303
 4453 04b8 0400     		.2byte	0x4
 4454 04ba F3       		.byte	0xf3
 4455 04bb 01       		.uleb128 0x1
 4456 04bc 50       		.byte	0x50
 4457 04bd 9F       		.byte	0x9f
 4458 04be 00000000 		.4byte	0
 4459 04c2 00000000 		.4byte	0
 4460              	.LLST30:
 4461 04c6 06000000 		.4byte	.LVL71
 4462 04ca 2E000000 		.4byte	.LVL79
 4463 04ce 0100     		.2byte	0x1
 4464 04d0 55       		.byte	0x55
 4465 04d1 00000000 		.4byte	0
 4466 04d5 00000000 		.4byte	0
 4467              	.LLST31:
 4468 04d9 0E000000 		.4byte	.LVL73
 4469 04dd 10000000 		.4byte	.LVL74
 4470 04e1 0600     		.2byte	0x6
 4471 04e3 76       		.byte	0x76
 4472 04e4 00       		.sleb128 0
 4473 04e5 74       		.byte	0x74
 4474 04e6 00       		.sleb128 0
 4475 04e7 1A       		.byte	0x1a
 4476 04e8 9F       		.byte	0x9f
 4477 04e9 10000000 		.4byte	.LVL74
 4478 04ed 1C000000 		.4byte	.LVL76
 4479 04f1 0100     		.2byte	0x1
 4480 04f3 54       		.byte	0x54
 4481 04f4 1E000000 		.4byte	.LVL77
 4482 04f8 2E000000 		.4byte	.LVL79
 4483 04fc 0100     		.2byte	0x1
 4484 04fe 54       		.byte	0x54
 4485 04ff 2E000000 		.4byte	.LVL79
 4486 0503 34000000 		.4byte	.LFE303
 4487 0507 0100     		.2byte	0x1
 4488 0509 50       		.byte	0x50
 4489 050a 00000000 		.4byte	0
 4490 050e 00000000 		.4byte	0
 4491              	.LLST32:
 4492 0512 00000000 		.4byte	.LVL80
 4493 0516 0B000000 		.4byte	.LVL82-1
 4494 051a 0100     		.2byte	0x1
 4495 051c 50       		.byte	0x50
 4496 051d 0B000000 		.4byte	.LVL82-1
 4497 0521 2C000000 		.4byte	.LVL85
 4498 0525 0100     		.2byte	0x1
 4499 0527 54       		.byte	0x54
 4500 0528 2C000000 		.4byte	.LVL85
 4501 052c 30000000 		.4byte	.LFE304
 4502 0530 0100     		.2byte	0x1
 4503 0532 50       		.byte	0x50
ARM GAS  /tmp/ccYGmlHj.s 			page 80


 4504 0533 00000000 		.4byte	0
 4505 0537 00000000 		.4byte	0
 4506              	.LLST33:
 4507 053b 06000000 		.4byte	.LVL81
 4508 053f 2C000000 		.4byte	.LVL85
 4509 0543 0100     		.2byte	0x1
 4510 0545 55       		.byte	0x55
 4511 0546 00000000 		.4byte	0
 4512 054a 00000000 		.4byte	0
 4513              	.LLST34:
 4514 054e 00000000 		.4byte	.LVL86
 4515 0552 0D000000 		.4byte	.LVL88-1
 4516 0556 0100     		.2byte	0x1
 4517 0558 50       		.byte	0x50
 4518 0559 0D000000 		.4byte	.LVL88-1
 4519 055d 32000000 		.4byte	.LVL96
 4520 0561 0100     		.2byte	0x1
 4521 0563 54       		.byte	0x54
 4522 0564 32000000 		.4byte	.LVL96
 4523 0568 48000000 		.4byte	.LFE305
 4524 056c 0400     		.2byte	0x4
 4525 056e F3       		.byte	0xf3
 4526 056f 01       		.uleb128 0x1
 4527 0570 50       		.byte	0x50
 4528 0571 9F       		.byte	0x9f
 4529 0572 00000000 		.4byte	0
 4530 0576 00000000 		.4byte	0
 4531              	.LLST35:
 4532 057a 00000000 		.4byte	.LVL86
 4533 057e 0D000000 		.4byte	.LVL88-1
 4534 0582 0100     		.2byte	0x1
 4535 0584 51       		.byte	0x51
 4536 0585 0D000000 		.4byte	.LVL88-1
 4537 0589 44000000 		.4byte	.LVL99
 4538 058d 0100     		.2byte	0x1
 4539 058f 56       		.byte	0x56
 4540 0590 44000000 		.4byte	.LVL99
 4541 0594 48000000 		.4byte	.LFE305
 4542 0598 0400     		.2byte	0x4
 4543 059a F3       		.byte	0xf3
 4544 059b 01       		.uleb128 0x1
 4545 059c 51       		.byte	0x51
 4546 059d 9F       		.byte	0x9f
 4547 059e 00000000 		.4byte	0
 4548 05a2 00000000 		.4byte	0
 4549              	.LLST36:
 4550 05a6 06000000 		.4byte	.LVL87
 4551 05aa 44000000 		.4byte	.LVL99
 4552 05ae 0100     		.2byte	0x1
 4553 05b0 55       		.byte	0x55
 4554 05b1 00000000 		.4byte	0
 4555 05b5 00000000 		.4byte	0
 4556              	.LLST37:
 4557 05b9 10000000 		.4byte	.LVL89
 4558 05bd 12000000 		.4byte	.LVL90
 4559 05c1 0600     		.2byte	0x6
 4560 05c3 74       		.byte	0x74
ARM GAS  /tmp/ccYGmlHj.s 			page 81


 4561 05c4 00       		.sleb128 0
 4562 05c5 73       		.byte	0x73
 4563 05c6 00       		.sleb128 0
 4564 05c7 1A       		.byte	0x1a
 4565 05c8 9F       		.byte	0x9f
 4566 05c9 12000000 		.4byte	.LVL90
 4567 05cd 16000000 		.4byte	.LVL91
 4568 05d1 0100     		.2byte	0x1
 4569 05d3 53       		.byte	0x53
 4570 05d4 1E000000 		.4byte	.LVL93
 4571 05d8 27000000 		.4byte	.LVL94-1
 4572 05dc 0100     		.2byte	0x1
 4573 05de 53       		.byte	0x53
 4574 05df 30000000 		.4byte	.LVL95
 4575 05e3 34000000 		.4byte	.LVL97
 4576 05e7 0100     		.2byte	0x1
 4577 05e9 53       		.byte	0x53
 4578 05ea 34000000 		.4byte	.LVL97
 4579 05ee 44000000 		.4byte	.LVL99
 4580 05f2 0100     		.2byte	0x1
 4581 05f4 54       		.byte	0x54
 4582 05f5 44000000 		.4byte	.LVL99
 4583 05f9 48000000 		.4byte	.LFE305
 4584 05fd 0100     		.2byte	0x1
 4585 05ff 50       		.byte	0x50
 4586 0600 00000000 		.4byte	0
 4587 0604 00000000 		.4byte	0
 4588              	.LLST38:
 4589 0608 00000000 		.4byte	.LVL100
 4590 060c 0D000000 		.4byte	.LVL102-1
 4591 0610 0100     		.2byte	0x1
 4592 0612 50       		.byte	0x50
 4593 0613 0D000000 		.4byte	.LVL102-1
 4594 0617 40000000 		.4byte	.LVL111
 4595 061b 0100     		.2byte	0x1
 4596 061d 56       		.byte	0x56
 4597 061e 40000000 		.4byte	.LVL111
 4598 0622 44000000 		.4byte	.LFE306
 4599 0626 0400     		.2byte	0x4
 4600 0628 F3       		.byte	0xf3
 4601 0629 01       		.uleb128 0x1
 4602 062a 50       		.byte	0x50
 4603 062b 9F       		.byte	0x9f
 4604 062c 00000000 		.4byte	0
 4605 0630 00000000 		.4byte	0
 4606              	.LLST39:
 4607 0634 00000000 		.4byte	.LVL100
 4608 0638 0D000000 		.4byte	.LVL102-1
 4609 063c 0100     		.2byte	0x1
 4610 063e 51       		.byte	0x51
 4611 063f 0D000000 		.4byte	.LVL102-1
 4612 0643 40000000 		.4byte	.LVL111
 4613 0647 0100     		.2byte	0x1
 4614 0649 57       		.byte	0x57
 4615 064a 40000000 		.4byte	.LVL111
 4616 064e 44000000 		.4byte	.LFE306
 4617 0652 0400     		.2byte	0x4
ARM GAS  /tmp/ccYGmlHj.s 			page 82


 4618 0654 F3       		.byte	0xf3
 4619 0655 01       		.uleb128 0x1
 4620 0656 51       		.byte	0x51
 4621 0657 9F       		.byte	0x9f
 4622 0658 00000000 		.4byte	0
 4623 065c 00000000 		.4byte	0
 4624              	.LLST40:
 4625 0660 06000000 		.4byte	.LVL101
 4626 0664 40000000 		.4byte	.LVL111
 4627 0668 0100     		.2byte	0x1
 4628 066a 55       		.byte	0x55
 4629 066b 00000000 		.4byte	0
 4630 066f 00000000 		.4byte	0
 4631              	.LLST41:
 4632 0673 10000000 		.4byte	.LVL103
 4633 0677 12000000 		.4byte	.LVL104
 4634 067b 0600     		.2byte	0x6
 4635 067d 76       		.byte	0x76
 4636 067e 00       		.sleb128 0
 4637 067f 74       		.byte	0x74
 4638 0680 00       		.sleb128 0
 4639 0681 1A       		.byte	0x1a
 4640 0682 9F       		.byte	0x9f
 4641 0683 12000000 		.4byte	.LVL104
 4642 0687 2E000000 		.4byte	.LVL108
 4643 068b 0100     		.2byte	0x1
 4644 068d 54       		.byte	0x54
 4645 068e 30000000 		.4byte	.LVL109
 4646 0692 40000000 		.4byte	.LVL111
 4647 0696 0100     		.2byte	0x1
 4648 0698 54       		.byte	0x54
 4649 0699 40000000 		.4byte	.LVL111
 4650 069d 44000000 		.4byte	.LFE306
 4651 06a1 0100     		.2byte	0x1
 4652 06a3 50       		.byte	0x50
 4653 06a4 00000000 		.4byte	0
 4654 06a8 00000000 		.4byte	0
 4655              	.LLST42:
 4656 06ac 00000000 		.4byte	.LVL112
 4657 06b0 0D000000 		.4byte	.LVL114-1
 4658 06b4 0100     		.2byte	0x1
 4659 06b6 50       		.byte	0x50
 4660 06b7 0D000000 		.4byte	.LVL114-1
 4661 06bb 3E000000 		.4byte	.LVL119
 4662 06bf 0100     		.2byte	0x1
 4663 06c1 54       		.byte	0x54
 4664 06c2 3E000000 		.4byte	.LVL119
 4665 06c6 44000000 		.4byte	.LFE307
 4666 06ca 0100     		.2byte	0x1
 4667 06cc 50       		.byte	0x50
 4668 06cd 00000000 		.4byte	0
 4669 06d1 00000000 		.4byte	0
 4670              	.LLST43:
 4671 06d5 00000000 		.4byte	.LVL112
 4672 06d9 0D000000 		.4byte	.LVL114-1
 4673 06dd 0100     		.2byte	0x1
 4674 06df 51       		.byte	0x51
ARM GAS  /tmp/ccYGmlHj.s 			page 83


 4675 06e0 0D000000 		.4byte	.LVL114-1
 4676 06e4 3E000000 		.4byte	.LVL119
 4677 06e8 0100     		.2byte	0x1
 4678 06ea 56       		.byte	0x56
 4679 06eb 3E000000 		.4byte	.LVL119
 4680 06ef 44000000 		.4byte	.LFE307
 4681 06f3 0400     		.2byte	0x4
 4682 06f5 F3       		.byte	0xf3
 4683 06f6 01       		.uleb128 0x1
 4684 06f7 51       		.byte	0x51
 4685 06f8 9F       		.byte	0x9f
 4686 06f9 00000000 		.4byte	0
 4687 06fd 00000000 		.4byte	0
 4688              	.LLST44:
 4689 0701 06000000 		.4byte	.LVL113
 4690 0705 3E000000 		.4byte	.LVL119
 4691 0709 0100     		.2byte	0x1
 4692 070b 55       		.byte	0x55
 4693 070c 00000000 		.4byte	0
 4694 0710 00000000 		.4byte	0
 4695              		.section	.debug_aranges,"",%progbits
 4696 0000 B4000000 		.4byte	0xb4
 4697 0004 0200     		.2byte	0x2
 4698 0006 00000000 		.4byte	.Ldebug_info0
 4699 000a 04       		.byte	0x4
 4700 000b 00       		.byte	0
 4701 000c 0000     		.2byte	0
 4702 000e 0000     		.2byte	0
 4703 0010 00000000 		.4byte	.LFB184
 4704 0014 0A000000 		.4byte	.LFE184-.LFB184
 4705 0018 00000000 		.4byte	.LFB185
 4706 001c 0E000000 		.4byte	.LFE185-.LFB185
 4707 0020 00000000 		.4byte	.LFB290
 4708 0024 30000000 		.4byte	.LFE290-.LFB290
 4709 0028 00000000 		.4byte	.LFB291
 4710 002c 28000000 		.4byte	.LFE291-.LFB291
 4711 0030 00000000 		.4byte	.LFB292
 4712 0034 14000000 		.4byte	.LFE292-.LFB292
 4713 0038 00000000 		.4byte	.LFB293
 4714 003c 18000000 		.4byte	.LFE293-.LFB293
 4715 0040 00000000 		.4byte	.LFB294
 4716 0044 20000000 		.4byte	.LFE294-.LFB294
 4717 0048 00000000 		.4byte	.LFB296
 4718 004c 18000000 		.4byte	.LFE296-.LFB296
 4719 0050 00000000 		.4byte	.LFB298
 4720 0054 2C000000 		.4byte	.LFE298-.LFB298
 4721 0058 00000000 		.4byte	.LFB295
 4722 005c 28000000 		.4byte	.LFE295-.LFB295
 4723 0060 00000000 		.4byte	.LFB297
 4724 0064 1E000000 		.4byte	.LFE297-.LFB297
 4725 0068 00000000 		.4byte	.LFB299
 4726 006c 1E000000 		.4byte	.LFE299-.LFB299
 4727 0070 00000000 		.4byte	.LFB300
 4728 0074 0C000000 		.4byte	.LFE300-.LFB300
 4729 0078 00000000 		.4byte	.LFB301
 4730 007c 28000000 		.4byte	.LFE301-.LFB301
 4731 0080 00000000 		.4byte	.LFB302
ARM GAS  /tmp/ccYGmlHj.s 			page 84


 4732 0084 38000000 		.4byte	.LFE302-.LFB302
 4733 0088 00000000 		.4byte	.LFB303
 4734 008c 34000000 		.4byte	.LFE303-.LFB303
 4735 0090 00000000 		.4byte	.LFB304
 4736 0094 30000000 		.4byte	.LFE304-.LFB304
 4737 0098 00000000 		.4byte	.LFB305
 4738 009c 48000000 		.4byte	.LFE305-.LFB305
 4739 00a0 00000000 		.4byte	.LFB306
 4740 00a4 44000000 		.4byte	.LFE306-.LFB306
 4741 00a8 00000000 		.4byte	.LFB307
 4742 00ac 44000000 		.4byte	.LFE307-.LFB307
 4743 00b0 00000000 		.4byte	0
 4744 00b4 00000000 		.4byte	0
 4745              		.section	.debug_ranges,"",%progbits
 4746              	.Ldebug_ranges0:
 4747 0000 00000000 		.4byte	.LFB184
 4748 0004 0A000000 		.4byte	.LFE184
 4749 0008 00000000 		.4byte	.LFB185
 4750 000c 0E000000 		.4byte	.LFE185
 4751 0010 00000000 		.4byte	.LFB290
 4752 0014 30000000 		.4byte	.LFE290
 4753 0018 00000000 		.4byte	.LFB291
 4754 001c 28000000 		.4byte	.LFE291
 4755 0020 00000000 		.4byte	.LFB292
 4756 0024 14000000 		.4byte	.LFE292
 4757 0028 00000000 		.4byte	.LFB293
 4758 002c 18000000 		.4byte	.LFE293
 4759 0030 00000000 		.4byte	.LFB294
 4760 0034 20000000 		.4byte	.LFE294
 4761 0038 00000000 		.4byte	.LFB296
 4762 003c 18000000 		.4byte	.LFE296
 4763 0040 00000000 		.4byte	.LFB298
 4764 0044 2C000000 		.4byte	.LFE298
 4765 0048 00000000 		.4byte	.LFB295
 4766 004c 28000000 		.4byte	.LFE295
 4767 0050 00000000 		.4byte	.LFB297
 4768 0054 1E000000 		.4byte	.LFE297
 4769 0058 00000000 		.4byte	.LFB299
 4770 005c 1E000000 		.4byte	.LFE299
 4771 0060 00000000 		.4byte	.LFB300
 4772 0064 0C000000 		.4byte	.LFE300
 4773 0068 00000000 		.4byte	.LFB301
 4774 006c 28000000 		.4byte	.LFE301
 4775 0070 00000000 		.4byte	.LFB302
 4776 0074 38000000 		.4byte	.LFE302
 4777 0078 00000000 		.4byte	.LFB303
 4778 007c 34000000 		.4byte	.LFE303
 4779 0080 00000000 		.4byte	.LFB304
 4780 0084 30000000 		.4byte	.LFE304
 4781 0088 00000000 		.4byte	.LFB305
 4782 008c 48000000 		.4byte	.LFE305
 4783 0090 00000000 		.4byte	.LFB306
 4784 0094 44000000 		.4byte	.LFE306
 4785 0098 00000000 		.4byte	.LFB307
 4786 009c 44000000 		.4byte	.LFE307
 4787 00a0 00000000 		.4byte	0
 4788 00a4 00000000 		.4byte	0
ARM GAS  /tmp/ccYGmlHj.s 			page 85


 4789              		.section	.debug_line,"",%progbits
 4790              	.Ldebug_line0:
 4791 0000 54040000 		.section	.debug_str,"MS",%progbits,1
 4791      02001102 
 4791      00000201 
 4791      FB0E0D00 
 4791      01010101 
 4792              	.LASF54:
 4793 0000 72656164 		.ascii	"ready_list_t\000"
 4793      795F6C69 
 4793      73745F74 
 4793      00
 4794              	.LASF96:
 4795 000d 77747472 		.ascii	"wttrp\000"
 4795      7000
 4796              	.LASF60:
 4797 0013 64656C74 		.ascii	"delta\000"
 4797      6100
 4798              	.LASF93:
 4799 0019 7264796D 		.ascii	"rdymsg\000"
 4799      736700
 4800              	.LASF16:
 4801 0020 75696E74 		.ascii	"uint64_t\000"
 4801      36345F74 
 4801      00
 4802              	.LASF73:
 4803 0029 6B65726E 		.ascii	"kernel_stats\000"
 4803      656C5F73 
 4803      74617473 
 4803      00
 4804              	.LASF5:
 4805 0036 5F5F7569 		.ascii	"__uint8_t\000"
 4805      6E74385F 
 4805      7400
 4806              	.LASF53:
 4807 0040 70726576 		.ascii	"prev\000"
 4807      00
 4808              	.LASF80:
 4809 0045 706F7274 		.ascii	"port_intctx\000"
 4809      5F696E74 
 4809      63747800 
 4810              	.LASF52:
 4811 0051 63685F74 		.ascii	"ch_threads_queue\000"
 4811      68726561 
 4811      64735F71 
 4811      75657565 
 4811      00
 4812              	.LASF65:
 4813 0062 73797374 		.ascii	"system_debug_t\000"
 4813      656D5F64 
 4813      65627567 
 4813      5F7400
 4814              	.LASF129:
 4815 0071 63684576 		.ascii	"chEvtSignal\000"
 4815      74536967 
 4815      6E616C00 
 4816              	.LASF115:
ARM GAS  /tmp/ccYGmlHj.s 			page 86


 4817 007d 706F7274 		.ascii	"port_lock\000"
 4817      5F6C6F63 
 4817      6B00
 4818              	.LASF84:
 4819 0087 776F7273 		.ascii	"worst\000"
 4819      7400
 4820              	.LASF87:
 4821 008d 74696D65 		.ascii	"time_measurement_t\000"
 4821      5F6D6561 
 4821      73757265 
 4821      6D656E74 
 4821      5F7400
 4822              	.LASF12:
 4823 00a0 6C6F6E67 		.ascii	"long long unsigned int\000"
 4823      206C6F6E 
 4823      6720756E 
 4823      7369676E 
 4823      65642069 
 4824              	.LASF125:
 4825 00b7 63684576 		.ascii	"chEvtAddEvents\000"
 4825      74416464 
 4825      4576656E 
 4825      747300
 4826              	.LASF94:
 4827 00c6 65786974 		.ascii	"exitcode\000"
 4827      636F6465 
 4827      00
 4828              	.LASF72:
 4829 00cf 6D61696E 		.ascii	"mainthread\000"
 4829      74687265 
 4829      616400
 4830              	.LASF97:
 4831 00da 73656E74 		.ascii	"sentmsg\000"
 4831      6D736700 
 4832              	.LASF62:
 4833 00e2 76697274 		.ascii	"virtual_timers_list_t\000"
 4833      75616C5F 
 4833      74696D65 
 4833      72735F6C 
 4833      6973745F 
 4834              	.LASF141:
 4835 00f8 49544D5F 		.ascii	"ITM_RxBuffer\000"
 4835      52784275 
 4835      66666572 
 4835      00
 4836              	.LASF50:
 4837 0105 6E657874 		.ascii	"next\000"
 4837      00
 4838              	.LASF18:
 4839 010a 72747469 		.ascii	"rttime_t\000"
 4839      6D655F74 
 4839      00
 4840              	.LASF105:
 4841 0113 6D757465 		.ascii	"mutex_t\000"
 4841      785F7400 
 4842              	.LASF151:
 4843 011b 63684576 		.ascii	"chEvtAddEventsI\000"
ARM GAS  /tmp/ccYGmlHj.s 			page 87


 4843      74416464 
 4843      4576656E 
 4843      74734900 
 4844              	.LASF1:
 4845 012b 7369676E 		.ascii	"signed char\000"
 4845      65642063 
 4845      68617200 
 4846              	.LASF140:
 4847 0137 63684576 		.ascii	"chEvtWaitAllTimeout\000"
 4847      74576169 
 4847      74416C6C 
 4847      54696D65 
 4847      6F757400 
 4848              	.LASF124:
 4849 014b 62617365 		.ascii	"basePri\000"
 4849      50726900 
 4850              	.LASF71:
 4851 0153 76746C69 		.ascii	"vtlist\000"
 4851      737400
 4852              	.LASF116:
 4853 015a 706F7274 		.ascii	"port_unlock\000"
 4853      5F756E6C 
 4853      6F636B00 
 4854              	.LASF40:
 4855 0166 6D736771 		.ascii	"msgqueue\000"
 4855      75657565 
 4855      00
 4856              	.LASF36:
 4857 016f 73746174 		.ascii	"state\000"
 4857      6500
 4858              	.LASF7:
 4859 0175 6C6F6E67 		.ascii	"long int\000"
 4859      20696E74 
 4859      00
 4860              	.LASF61:
 4861 017e 66756E63 		.ascii	"func\000"
 4861      00
 4862              	.LASF135:
 4863 0183 63684576 		.ascii	"chEvtWaitAny\000"
 4863      74576169 
 4863      74416E79 
 4863      00
 4864              	.LASF45:
 4865 0190 73746174 		.ascii	"stats\000"
 4865      7300
 4866              	.LASF128:
 4867 0196 63684576 		.ascii	"chEvtBroadcastFlagsI\000"
 4867      7442726F 
 4867      61646361 
 4867      7374466C 
 4867      61677349 
 4868              	.LASF20:
 4869 01ab 74737461 		.ascii	"tstate_t\000"
 4869      74655F74 
 4869      00
 4870              	.LASF139:
 4871 01b4 63684576 		.ascii	"chEvtWaitAnyTimeout\000"
ARM GAS  /tmp/ccYGmlHj.s 			page 88


 4871      74576169 
 4871      74416E79 
 4871      54696D65 
 4871      6F757400 
 4872              	.LASF110:
 4873 01c8 77666C61 		.ascii	"wflags\000"
 4873      677300
 4874              	.LASF144:
 4875 01cf 63685363 		.ascii	"chSchRescheduleS\000"
 4875      68526573 
 4875      63686564 
 4875      756C6553 
 4875      00
 4876              	.LASF8:
 4877 01e0 5F5F7569 		.ascii	"__uint32_t\000"
 4877      6E743332 
 4877      5F7400
 4878              	.LASF77:
 4879 01eb 72656761 		.ascii	"regarm_t\000"
 4879      726D5F74 
 4879      00
 4880              	.LASF130:
 4881 01f4 63684576 		.ascii	"chEvtBroadcastFlags\000"
 4881      7442726F 
 4881      61646361 
 4881      7374466C 
 4881      61677300 
 4882              	.LASF66:
 4883 0208 63685F73 		.ascii	"ch_system_debug\000"
 4883      79737465 
 4883      6D5F6465 
 4883      62756700 
 4884              	.LASF39:
 4885 0218 77616974 		.ascii	"waiting\000"
 4885      696E6700 
 4886              	.LASF24:
 4887 0220 6576656E 		.ascii	"eventid_t\000"
 4887      7469645F 
 4887      7400
 4888              	.LASF10:
 4889 022a 6C6F6E67 		.ascii	"long long int\000"
 4889      206C6F6E 
 4889      6720696E 
 4889      7400
 4890              	.LASF112:
 4891 0238 6576656E 		.ascii	"event_source_t\000"
 4891      745F736F 
 4891      75726365 
 4891      5F7400
 4892              	.LASF75:
 4893 0247 73797369 		.ascii	"sysinterval_t\000"
 4893      6E746572 
 4893      76616C5F 
 4893      7400
 4894              	.LASF113:
 4895 0255 65766861 		.ascii	"evhandler_t\000"
 4895      6E646C65 
ARM GAS  /tmp/ccYGmlHj.s 			page 89


 4895      725F7400 
 4896              	.LASF27:
 4897 0261 636E745F 		.ascii	"cnt_t\000"
 4897      7400
 4898              	.LASF0:
 4899 0267 756E7369 		.ascii	"unsigned int\000"
 4899      676E6564 
 4899      20696E74 
 4899      00
 4900              	.LASF147:
 4901 0274 474E5520 		.ascii	"GNU C 4.9.3 20150529 (prerelease) -mcpu=cortex-m4 -"
 4901      4320342E 
 4901      392E3320 
 4901      32303135 
 4901      30353239 
 4902 02a7 6D666C6F 		.ascii	"mfloat-abi=hard -mfpu=fpv4-sp-d16 -mno-thumb-interw"
 4902      61742D61 
 4902      62693D68 
 4902      61726420 
 4902      2D6D6670 
 4903 02da 6F726B20 		.ascii	"ork -mthumb -g -Os -fomit-frame-pointer -falign-fun"
 4903      2D6D7468 
 4903      756D6220 
 4903      2D67202D 
 4903      4F73202D 
 4904 030d 6374696F 		.ascii	"ctions=16 -ffunction-sections -fdata-sections -fno-"
 4904      6E733D31 
 4904      36202D66 
 4904      66756E63 
 4904      74696F6E 
 4905 0340 636F6D6D 		.ascii	"common -fsingle-precision-constant\000"
 4905      6F6E202D 
 4905      6673696E 
 4905      676C652D 
 4905      70726563 
 4906              	.LASF98:
 4907 0363 77747365 		.ascii	"wtsemp\000"
 4907      6D7000
 4908              	.LASF123:
 4909 036a 63684576 		.ascii	"chEvtGetAndClearEvents\000"
 4909      74476574 
 4909      416E6443 
 4909      6C656172 
 4909      4576656E 
 4910              	.LASF138:
 4911 0381 74696D65 		.ascii	"timeout\000"
 4911      6F757400 
 4912              	.LASF88:
 4913 0389 6E5F6972 		.ascii	"n_irq\000"
 4913      7100
 4914              	.LASF30:
 4915 038f 71756575 		.ascii	"queue\000"
 4915      6500
 4916              	.LASF44:
 4917 0395 6D706F6F 		.ascii	"mpool\000"
 4917      6C00
 4918              	.LASF4:
ARM GAS  /tmp/ccYGmlHj.s 			page 90


 4919 039b 73686F72 		.ascii	"short unsigned int\000"
 4919      7420756E 
 4919      7369676E 
 4919      65642069 
 4919      6E7400
 4920              	.LASF92:
 4921 03ae 6B65726E 		.ascii	"kernel_stats_t\000"
 4921      656C5F73 
 4921      74617473 
 4921      5F7400
 4922              	.LASF48:
 4923 03bd 63685F74 		.ascii	"ch_thread\000"
 4923      68726561 
 4923      6400
 4924              	.LASF26:
 4925 03c7 6576656E 		.ascii	"eventflags_t\000"
 4925      74666C61 
 4925      67735F74 
 4925      00
 4926              	.LASF23:
 4927 03d4 6D73675F 		.ascii	"msg_t\000"
 4927      7400
 4928              	.LASF85:
 4929 03da 6C617374 		.ascii	"last\000"
 4929      00
 4930              	.LASF28:
 4931 03df 75636E74 		.ascii	"ucnt_t\000"
 4931      5F7400
 4932              	.LASF41:
 4933 03e6 6570656E 		.ascii	"epending\000"
 4933      64696E67 
 4933      00
 4934              	.LASF34:
 4935 03ef 6E616D65 		.ascii	"name\000"
 4935      00
 4936              	.LASF121:
 4937 03f4 63684576 		.ascii	"chEvtUnregister\000"
 4937      74556E72 
 4937      65676973 
 4937      74657200 
 4938              	.LASF68:
 4939 0404 63685F73 		.ascii	"ch_system_t\000"
 4939      79737465 
 4939      6D5F7400 
 4940              	.LASF120:
 4941 0410 63684576 		.ascii	"chEvtRegisterMaskWithFlags\000"
 4941      74526567 
 4941      69737465 
 4941      724D6173 
 4941      6B576974 
 4942              	.LASF19:
 4943 042b 746D6F64 		.ascii	"tmode_t\000"
 4943      655F7400 
 4944              	.LASF91:
 4945 0433 6D5F6372 		.ascii	"m_crit_isr\000"
 4945      69745F69 
 4945      737200
ARM GAS  /tmp/ccYGmlHj.s 			page 91


 4946              	.LASF55:
 4947 043e 63685F72 		.ascii	"ch_ready_list\000"
 4947      65616479 
 4947      5F6C6973 
 4947      7400
 4948              	.LASF25:
 4949 044c 6576656E 		.ascii	"eventmask_t\000"
 4949      746D6173 
 4949      6B5F7400 
 4950              	.LASF6:
 4951 0458 5F5F696E 		.ascii	"__int32_t\000"
 4951      7433325F 
 4951      7400
 4952              	.LASF148:
 4953 0462 2E2E2F2E 		.ascii	"../../modules/ChibiOS/os/rt/src/chevents.c\000"
 4953      2E2F6D6F 
 4953      64756C65 
 4953      732F4368 
 4953      6962694F 
 4954              	.LASF78:
 4955 048d 73746B61 		.ascii	"stkalign_t\000"
 4955      6C69676E 
 4955      5F7400
 4956              	.LASF32:
 4957 0498 6E657765 		.ascii	"newer\000"
 4957      7200
 4958              	.LASF106:
 4959 049e 6576656E 		.ascii	"event_listener_t\000"
 4959      745F6C69 
 4959      7374656E 
 4959      65725F74 
 4959      00
 4960              	.LASF43:
 4961 04af 7265616C 		.ascii	"realprio\000"
 4961      7072696F 
 4961      00
 4962              	.LASF143:
 4963 04b8 5F737461 		.ascii	"_stats_stop_measure_crit_thd\000"
 4963      74735F73 
 4963      746F705F 
 4963      6D656173 
 4963      7572655F 
 4964              	.LASF76:
 4965 04d5 73697A65 		.ascii	"sizetype\000"
 4965      74797065 
 4965      00
 4966              	.LASF46:
 4967 04de 74687265 		.ascii	"thread_reference_t\000"
 4967      61645F72 
 4967      65666572 
 4967      656E6365 
 4967      5F7400
 4968              	.LASF108:
 4969 04f1 6C697374 		.ascii	"listener\000"
 4969      656E6572 
 4969      00
 4970              	.LASF63:
ARM GAS  /tmp/ccYGmlHj.s 			page 92


 4971 04fa 63685F76 		.ascii	"ch_virtual_timers_list\000"
 4971      69727475 
 4971      616C5F74 
 4971      696D6572 
 4971      735F6C69 
 4972              	.LASF132:
 4973 0511 63684576 		.ascii	"chEvtDispatch\000"
 4973      74446973 
 4973      70617463 
 4973      6800
 4974              	.LASF79:
 4975 051f 706F7274 		.ascii	"port_context\000"
 4975      5F636F6E 
 4975      74657874 
 4975      00
 4976              	.LASF82:
 4977 052c 746D5F63 		.ascii	"tm_calibration_t\000"
 4977      616C6962 
 4977      72617469 
 4977      6F6E5F74 
 4977      00
 4978              	.LASF136:
 4979 053d 63684576 		.ascii	"chEvtWaitAll\000"
 4979      74576169 
 4979      74416C6C 
 4979      00
 4980              	.LASF31:
 4981 054a 7072696F 		.ascii	"prio\000"
 4981      00
 4982              	.LASF56:
 4983 054f 63757272 		.ascii	"current\000"
 4983      656E7400 
 4984              	.LASF11:
 4985 0557 5F5F7569 		.ascii	"__uint64_t\000"
 4985      6E743634 
 4985      5F7400
 4986              	.LASF86:
 4987 0562 63756D75 		.ascii	"cumulative\000"
 4987      6C617469 
 4987      766500
 4988              	.LASF133:
 4989 056d 68616E64 		.ascii	"handlers\000"
 4989      6C657273 
 4989      00
 4990              	.LASF21:
 4991 0576 74726566 		.ascii	"trefs_t\000"
 4991      735F7400 
 4992              	.LASF38:
 4993 057e 72656673 		.ascii	"refs\000"
 4993      00
 4994              	.LASF58:
 4995 0583 76697274 		.ascii	"virtual_timer_t\000"
 4995      75616C5F 
 4995      74696D65 
 4995      725F7400 
 4996              	.LASF22:
 4997 0593 74707269 		.ascii	"tprio_t\000"
ARM GAS  /tmp/ccYGmlHj.s 			page 93


 4997      6F5F7400 
 4998              	.LASF89:
 4999 059b 6E5F6374 		.ascii	"n_ctxswc\000"
 4999      78737763 
 4999      00
 5000              	.LASF114:
 5001 05a4 5F426F6F 		.ascii	"_Bool\000"
 5001      6C00
 5002              	.LASF14:
 5003 05aa 696E7433 		.ascii	"int32_t\000"
 5003      325F7400 
 5004              	.LASF2:
 5005 05b2 756E7369 		.ascii	"unsigned char\000"
 5005      676E6564 
 5005      20636861 
 5005      7200
 5006              	.LASF134:
 5007 05c0 63684576 		.ascii	"chEvtWaitOne\000"
 5007      74576169 
 5007      744F6E65 
 5007      00
 5008              	.LASF3:
 5009 05cd 73686F72 		.ascii	"short int\000"
 5009      7420696E 
 5009      7400
 5010              	.LASF64:
 5011 05d7 6C617374 		.ascii	"lasttime\000"
 5011      74696D65 
 5011      00
 5012              	.LASF131:
 5013 05e0 63684576 		.ascii	"chEvtGetAndClearFlagsI\000"
 5013      74476574 
 5013      416E6443 
 5013      6C656172 
 5013      466C6167 
 5014              	.LASF100:
 5015 05f7 65776D61 		.ascii	"ewmask\000"
 5015      736B00
 5016              	.LASF69:
 5017 05fe 63685F73 		.ascii	"ch_system\000"
 5017      79737465 
 5017      6D00
 5018              	.LASF119:
 5019 0608 5F5F6675 		.ascii	"__func__\000"
 5019      6E635F5F 
 5019      00
 5020              	.LASF117:
 5021 0611 63685379 		.ascii	"chSysLock\000"
 5021      734C6F63 
 5021      6B00
 5022              	.LASF59:
 5023 061b 63685F76 		.ascii	"ch_virtual_timer\000"
 5023      69727475 
 5023      616C5F74 
 5023      696D6572 
 5023      00
 5024              	.LASF101:
ARM GAS  /tmp/ccYGmlHj.s 			page 94


 5025 062c 63685F73 		.ascii	"ch_semaphore\000"
 5025      656D6170 
 5025      686F7265 
 5025      00
 5026              	.LASF145:
 5027 0639 63685363 		.ascii	"chSchGoSleepS\000"
 5027      68476F53 
 5027      6C656570 
 5027      5300
 5028              	.LASF109:
 5029 0647 6576656E 		.ascii	"events\000"
 5029      747300
 5030              	.LASF15:
 5031 064e 75696E74 		.ascii	"uint32_t\000"
 5031      33325F74 
 5031      00
 5032              	.LASF99:
 5033 0657 77746D74 		.ascii	"wtmtxp\000"
 5033      787000
 5034              	.LASF153:
 5035 065e 63685363 		.ascii	"chSchReadyI\000"
 5035      68526561 
 5035      64794900 
 5036              	.LASF49:
 5037 066a 63685F74 		.ascii	"ch_threads_list\000"
 5037      68726561 
 5037      64735F6C 
 5037      69737400 
 5038              	.LASF103:
 5039 067a 6F776E65 		.ascii	"owner\000"
 5039      7200
 5040              	.LASF9:
 5041 0680 6C6F6E67 		.ascii	"long unsigned int\000"
 5041      20756E73 
 5041      69676E65 
 5041      6420696E 
 5041      7400
 5042              	.LASF35:
 5043 0692 77616261 		.ascii	"wabase\000"
 5043      736500
 5044              	.LASF104:
 5045 0699 63686172 		.ascii	"char\000"
 5045      00
 5046              	.LASF33:
 5047 069e 6F6C6465 		.ascii	"older\000"
 5047      7200
 5048              	.LASF29:
 5049 06a4 74687265 		.ascii	"thread_t\000"
 5049      61645F74 
 5049      00
 5050              	.LASF83:
 5051 06ad 62657374 		.ascii	"best\000"
 5051      00
 5052              	.LASF146:
 5053 06b2 63685363 		.ascii	"chSchGoSleepTimeoutS\000"
 5053      68476F53 
 5053      6C656570 
ARM GAS  /tmp/ccYGmlHj.s 			page 95


 5053      54696D65 
 5053      6F757453 
 5054              	.LASF74:
 5055 06c7 73797374 		.ascii	"systime_t\000"
 5055      696D655F 
 5055      7400
 5056              	.LASF57:
 5057 06d1 76746675 		.ascii	"vtfunc_t\000"
 5057      6E635F74 
 5057      00
 5058              	.LASF150:
 5059 06da 5F5F7365 		.ascii	"__set_BASEPRI\000"
 5059      745F4241 
 5059      53455052 
 5059      4900
 5060              	.LASF67:
 5061 06e8 70616E69 		.ascii	"panic_msg\000"
 5061      635F6D73 
 5061      6700
 5062              	.LASF81:
 5063 06f2 6F666673 		.ascii	"offset\000"
 5063      657400
 5064              	.LASF149:
 5065 06f9 2F686F6D 		.ascii	"/home/kozinalexey/f4by/ardupilot/build/F4BY\000"
 5065      652F6B6F 
 5065      7A696E61 
 5065      6C657865 
 5065      792F6634 
 5066              	.LASF17:
 5067 0725 7274636E 		.ascii	"rtcnt_t\000"
 5067      745F7400 
 5068              	.LASF51:
 5069 072d 74687265 		.ascii	"threads_queue_t\000"
 5069      6164735F 
 5069      71756575 
 5069      655F7400 
 5070              	.LASF102:
 5071 073d 63685F6D 		.ascii	"ch_mutex\000"
 5071      75746578 
 5071      00
 5072              	.LASF70:
 5073 0746 726C6973 		.ascii	"rlist\000"
 5073      7400
 5074              	.LASF111:
 5075 074c 6576656E 		.ascii	"event_source\000"
 5075      745F736F 
 5075      75726365 
 5075      00
 5076              	.LASF13:
 5077 0759 75696E74 		.ascii	"uint8_t\000"
 5077      385F7400 
 5078              	.LASF37:
 5079 0761 666C6167 		.ascii	"flags\000"
 5079      7300
 5080              	.LASF142:
 5081 0767 5F737461 		.ascii	"_stats_start_measure_crit_thd\000"
 5081      74735F73 
ARM GAS  /tmp/ccYGmlHj.s 			page 96


 5081      74617274 
 5081      5F6D6561 
 5081      73757265 
 5082              	.LASF137:
 5083 0785 63684576 		.ascii	"chEvtWaitOneTimeout\000"
 5083      74576169 
 5083      744F6E65 
 5083      54696D65 
 5083      6F757400 
 5084              	.LASF95:
 5085 0799 77746F62 		.ascii	"wtobjp\000"
 5085      6A7000
 5086              	.LASF47:
 5087 07a0 74687265 		.ascii	"threads_list_t\000"
 5087      6164735F 
 5087      6C697374 
 5087      5F7400
 5088              	.LASF122:
 5089 07af 63684576 		.ascii	"chEvtGetAndClearEventsI\000"
 5089      74476574 
 5089      416E6443 
 5089      6C656172 
 5089      4576656E 
 5090              	.LASF126:
 5091 07c7 63684576 		.ascii	"chEvtGetAndClearFlags\000"
 5091      74476574 
 5091      416E6443 
 5091      6C656172 
 5091      466C6167 
 5092              	.LASF118:
 5093 07dd 63685379 		.ascii	"chSysUnlock\000"
 5093      73556E6C 
 5093      6F636B00 
 5094              	.LASF152:
 5095 07e9 6E657765 		.ascii	"newevt\000"
 5095      767400
 5096              	.LASF42:
 5097 07f0 6D74786C 		.ascii	"mtxlist\000"
 5097      69737400 
 5098              	.LASF90:
 5099 07f8 6D5F6372 		.ascii	"m_crit_thd\000"
 5099      69745F74 
 5099      686400
 5100              	.LASF107:
 5101 0803 6576656E 		.ascii	"event_listener\000"
 5101      745F6C69 
 5101      7374656E 
 5101      657200
 5102              	.LASF127:
 5103 0812 63684576 		.ascii	"chEvtSignalI\000"
 5103      74536967 
 5103      6E616C49 
 5103      00
 5104              		.ident	"GCC: (15:4.9.3+svn231177-1) 4.9.3 20150529 (prerelease)"
ARM GAS  /tmp/ccYGmlHj.s 			page 97


DEFINED SYMBOLS
                            *ABS*:0000000000000000 chevents.c
     /tmp/ccYGmlHj.s:21     .text.chSysLock:0000000000000000 $t
     /tmp/ccYGmlHj.s:25     .text.chSysLock:0000000000000000 chSysLock
     /tmp/ccYGmlHj.s:54     .text.chSysUnlock:0000000000000000 $t
     /tmp/ccYGmlHj.s:58     .text.chSysUnlock:0000000000000000 chSysUnlock
     /tmp/ccYGmlHj.s:88     .text.chEvtRegisterMaskWithFlags:0000000000000000 $t
     /tmp/ccYGmlHj.s:93     .text.chEvtRegisterMaskWithFlags:0000000000000000 chEvtRegisterMaskWithFlags
     /tmp/ccYGmlHj.s:151    .text.chEvtRegisterMaskWithFlags:000000000000002c $d
     /tmp/ccYGmlHj.s:156    .text.chEvtUnregister:0000000000000000 $t
     /tmp/ccYGmlHj.s:161    .text.chEvtUnregister:0000000000000000 chEvtUnregister
     /tmp/ccYGmlHj.s:218    .text.chEvtGetAndClearEventsI:0000000000000000 $t
     /tmp/ccYGmlHj.s:223    .text.chEvtGetAndClearEventsI:0000000000000000 chEvtGetAndClearEventsI
     /tmp/ccYGmlHj.s:246    .text.chEvtGetAndClearEventsI:0000000000000010 $d
     /tmp/ccYGmlHj.s:251    .text.chEvtGetAndClearEvents:0000000000000000 $t
     /tmp/ccYGmlHj.s:256    .text.chEvtGetAndClearEvents:0000000000000000 chEvtGetAndClearEvents
     /tmp/ccYGmlHj.s:288    .text.chEvtAddEvents:0000000000000000 $t
     /tmp/ccYGmlHj.s:293    .text.chEvtAddEvents:0000000000000000 chEvtAddEvents
     /tmp/ccYGmlHj.s:330    .text.chEvtAddEvents:000000000000001c $d
     /tmp/ccYGmlHj.s:335    .text.chEvtGetAndClearFlags:0000000000000000 $t
     /tmp/ccYGmlHj.s:340    .text.chEvtGetAndClearFlags:0000000000000000 chEvtGetAndClearFlags
     /tmp/ccYGmlHj.s:377    .text.chEvtSignalI:0000000000000000 $t
     /tmp/ccYGmlHj.s:382    .text.chEvtSignalI:0000000000000000 chEvtSignalI
     /tmp/ccYGmlHj.s:430    .text.chEvtBroadcastFlagsI:0000000000000000 $t
     /tmp/ccYGmlHj.s:435    .text.chEvtBroadcastFlagsI:0000000000000000 chEvtBroadcastFlagsI
     /tmp/ccYGmlHj.s:488    .text.chEvtSignal:0000000000000000 $t
     /tmp/ccYGmlHj.s:493    .text.chEvtSignal:0000000000000000 chEvtSignal
     /tmp/ccYGmlHj.s:535    .text.chEvtBroadcastFlags:0000000000000000 $t
     /tmp/ccYGmlHj.s:540    .text.chEvtBroadcastFlags:0000000000000000 chEvtBroadcastFlags
     /tmp/ccYGmlHj.s:582    .text.chEvtGetAndClearFlagsI:0000000000000000 $t
     /tmp/ccYGmlHj.s:587    .text.chEvtGetAndClearFlagsI:0000000000000000 chEvtGetAndClearFlagsI
     /tmp/ccYGmlHj.s:612    .text.chEvtDispatch:0000000000000000 $t
     /tmp/ccYGmlHj.s:617    .text.chEvtDispatch:0000000000000000 chEvtDispatch
     /tmp/ccYGmlHj.s:665    .text.chEvtWaitOne:0000000000000000 $t
     /tmp/ccYGmlHj.s:670    .text.chEvtWaitOne:0000000000000000 chEvtWaitOne
     /tmp/ccYGmlHj.s:729    .text.chEvtWaitOne:0000000000000034 $d
     /tmp/ccYGmlHj.s:734    .text.chEvtWaitAny:0000000000000000 $t
     /tmp/ccYGmlHj.s:739    .text.chEvtWaitAny:0000000000000000 chEvtWaitAny
     /tmp/ccYGmlHj.s:796    .text.chEvtWaitAny:0000000000000030 $d
     /tmp/ccYGmlHj.s:801    .text.chEvtWaitAll:0000000000000000 $t
     /tmp/ccYGmlHj.s:806    .text.chEvtWaitAll:0000000000000000 chEvtWaitAll
     /tmp/ccYGmlHj.s:854    .text.chEvtWaitAll:000000000000002c $d
     /tmp/ccYGmlHj.s:859    .text.chEvtWaitOneTimeout:0000000000000000 $t
     /tmp/ccYGmlHj.s:864    .text.chEvtWaitOneTimeout:0000000000000000 chEvtWaitOneTimeout
     /tmp/ccYGmlHj.s:942    .text.chEvtWaitOneTimeout:0000000000000044 $d
     /tmp/ccYGmlHj.s:947    .text.chEvtWaitAnyTimeout:0000000000000000 $t
     /tmp/ccYGmlHj.s:952    .text.chEvtWaitAnyTimeout:0000000000000000 chEvtWaitAnyTimeout
     /tmp/ccYGmlHj.s:1025   .text.chEvtWaitAnyTimeout:0000000000000040 $d
     /tmp/ccYGmlHj.s:1030   .text.chEvtWaitAllTimeout:0000000000000000 $t
     /tmp/ccYGmlHj.s:1035   .text.chEvtWaitAllTimeout:0000000000000000 chEvtWaitAllTimeout
     /tmp/ccYGmlHj.s:1101   .text.chEvtWaitAllTimeout:0000000000000040 $d
                     .debug_frame:0000000000000010 $d

UNDEFINED SYMBOLS
_stats_start_measure_crit_thd
_stats_stop_measure_crit_thd
ch
ARM GAS  /tmp/ccYGmlHj.s 			page 98


chSchReadyI
chSchRescheduleS
chSchGoSleepS
chSchGoSleepTimeoutS
