ARM GAS  /tmp/ccG8oNPt.s 			page 1


   1              		.syntax unified
   2              		.cpu cortex-m4
   3              		.eabi_attribute 27, 1
   4              		.eabi_attribute 28, 1
   5              		.fpu fpv4-sp-d16
   6              		.eabi_attribute 20, 1
   7              		.eabi_attribute 21, 1
   8              		.eabi_attribute 23, 3
   9              		.eabi_attribute 24, 1
  10              		.eabi_attribute 25, 1
  11              		.eabi_attribute 26, 1
  12              		.eabi_attribute 30, 4
  13              		.eabi_attribute 34, 1
  14              		.eabi_attribute 18, 4
  15              		.thumb
  16              		.file	"chfactory.c"
  17              		.text
  18              	.Ltext0:
  19              		.cfi_sections	.debug_frame
  20              		.section	.text.chCoreAllocAlignedI,"ax",%progbits
  21              		.align	1
  22              		.thumb
  23              		.thumb_func
  24              		.type	chCoreAllocAlignedI, %function
  25              	chCoreAllocAlignedI:
  26              	.LFB250:
  27              		.file 1 "../../modules/ChibiOS/os/oslib/include/chmemcore.h"
  28              		.loc 1 135 0
  29              		.cfi_startproc
  30              		@ args = 0, pretend = 0, frame = 0
  31              		@ frame_needed = 0, uses_anonymous_args = 0
  32              		@ link register save eliminated.
  33              	.LVL0:
  34              		.loc 1 137 0
  35 0000 0022     		movs	r2, #0
  36 0002 FFF7FEBF 		b	chCoreAllocAlignedWithOffsetI
  37              	.LVL1:
  38              		.cfi_endproc
  39              	.LFE250:
  40              		.size	chCoreAllocAlignedI, .-chCoreAllocAlignedI
  41              		.section	.text.dyn_list_find,"ax",%progbits
  42              		.align	1
  43              		.thumb
  44              		.thumb_func
  45              		.type	dyn_list_find, %function
  46              	dyn_list_find:
  47              	.LFB291:
  48              		.file 2 "../../modules/ChibiOS/os/oslib/src/chfactory.c"
  49              		.loc 2 91 0
  50              		.cfi_startproc
  51              		@ args = 0, pretend = 0, frame = 0
  52              		@ frame_needed = 0, uses_anonymous_args = 0
  53              	.LVL2:
  54 0000 70B5     		push	{r4, r5, r6, lr}
  55              		.cfi_def_cfa_offset 16
  56              		.cfi_offset 4, -16
  57              		.cfi_offset 5, -12
ARM GAS  /tmp/ccG8oNPt.s 			page 2


  58              		.cfi_offset 6, -8
  59              		.cfi_offset 14, -4
  60              		.loc 2 92 0
  61 0002 0C68     		ldr	r4, [r1]
  62              	.LVL3:
  63              		.loc 2 91 0
  64 0004 0646     		mov	r6, r0
  65 0006 0D46     		mov	r5, r1
  66              	.LVL4:
  67              	.L3:
  68              		.loc 2 94 0
  69 0008 AC42     		cmp	r4, r5
  70 000a 08D0     		beq	.L8
  71              		.loc 2 95 0
  72 000c 04F10800 		add	r0, r4, #8
  73 0010 3146     		mov	r1, r6
  74 0012 0822     		movs	r2, #8
  75 0014 FFF7FEFF 		bl	strncmp
  76              	.LVL5:
  77 0018 18B1     		cbz	r0, .L6
  78              		.loc 2 98 0
  79 001a 2468     		ldr	r4, [r4]
  80              	.LVL6:
  81 001c F4E7     		b	.L3
  82              	.L8:
  83              		.loc 2 101 0
  84 001e 0020     		movs	r0, #0
  85 0020 70BD     		pop	{r4, r5, r6, pc}
  86              	.LVL7:
  87              	.L6:
  88 0022 2046     		mov	r0, r4
  89              		.loc 2 102 0
  90 0024 70BD     		pop	{r4, r5, r6, pc}
  91              		.cfi_endproc
  92              	.LFE291:
  93              		.size	dyn_list_find, .-dyn_list_find
  94              		.section	.text.dyn_find_object,"ax",%progbits
  95              		.align	1
  96              		.thumb
  97              		.thumb_func
  98              		.type	dyn_find_object, %function
  99              	dyn_find_object:
 100              	.LFB297:
 101              		.loc 2 221 0
 102              		.cfi_startproc
 103              		@ args = 0, pretend = 0, frame = 0
 104              		@ frame_needed = 0, uses_anonymous_args = 0
 105              	.LVL8:
 106 0000 08B5     		push	{r3, lr}
 107              		.cfi_def_cfa_offset 8
 108              		.cfi_offset 3, -8
 109              		.cfi_offset 14, -4
 110              		.loc 2 227 0
 111 0002 FFF7FEFF 		bl	dyn_list_find
 112              	.LVL9:
 113              		.loc 2 228 0
 114 0006 10B1     		cbz	r0, .L10
ARM GAS  /tmp/ccG8oNPt.s 			page 3


 115              		.loc 2 230 0
 116 0008 4368     		ldr	r3, [r0, #4]
 117 000a 0133     		adds	r3, r3, #1
 118 000c 4360     		str	r3, [r0, #4]
 119              	.L10:
 120              		.loc 2 234 0
 121 000e 08BD     		pop	{r3, pc}
 122              		.cfi_endproc
 123              	.LFE297:
 124              		.size	dyn_find_object, .-dyn_find_object
 125              		.section	.text.dyn_release_object_pool,"ax",%progbits
 126              		.align	1
 127              		.thumb
 128              		.thumb_func
 129              		.type	dyn_release_object_pool, %function
 130              	dyn_release_object_pool:
 131              	.LFB296:
 132              		.loc 2 208 0
 133              		.cfi_startproc
 134              		@ args = 0, pretend = 0, frame = 0
 135              		@ frame_needed = 0, uses_anonymous_args = 0
 136              	.LVL10:
 137              		.loc 2 213 0
 138 0000 4368     		ldr	r3, [r0, #4]
 139 0002 013B     		subs	r3, r3, #1
 140              		.loc 2 208 0
 141 0004 10B5     		push	{r4, lr}
 142              		.cfi_def_cfa_offset 8
 143              		.cfi_offset 4, -8
 144              		.cfi_offset 14, -4
 145              		.loc 2 213 0
 146 0006 4360     		str	r3, [r0, #4]
 147              		.loc 2 214 0
 148 0008 8BB9     		cbnz	r3, .L21
 149 000a 0C46     		mov	r4, r1
 150              	.L17:
 151              	.LVL11:
 152              	.LBB16:
 153              	.LBB17:
 154              	.LBB18:
 155              	.LBB19:
 156              		.loc 2 109 0
 157 000c 2368     		ldr	r3, [r4]
 158 000e 8B42     		cmp	r3, r1
 159 0010 07D0     		beq	.L22
 160              		.loc 2 110 0
 161 0012 8342     		cmp	r3, r0
 162 0014 03D1     		bne	.L20
 163              		.loc 2 112 0
 164 0016 0368     		ldr	r3, [r0]
 165 0018 2360     		str	r3, [r4]
 166 001a 0146     		mov	r1, r0
 167              	.LVL12:
 168 001c 02E0     		b	.L18
 169              	.LVL13:
 170              	.L20:
 171              		.loc 2 110 0
ARM GAS  /tmp/ccG8oNPt.s 			page 4


 172 001e 1C46     		mov	r4, r3
 173              	.LVL14:
 174 0020 F4E7     		b	.L17
 175              	.LVL15:
 176              	.L22:
 177              		.loc 2 120 0
 178 0022 0021     		movs	r1, #0
 179              	.LVL16:
 180              	.L18:
 181              	.LBE19:
 182              	.LBE18:
 183              		.loc 2 216 0
 184 0024 1046     		mov	r0, r2
 185              	.LVL17:
 186              	.LBE17:
 187              	.LBE16:
 188              		.loc 2 218 0
 189 0026 BDE81040 		pop	{r4, lr}
 190              		.cfi_remember_state
 191              		.cfi_restore 14
 192              		.cfi_restore 4
 193              		.cfi_def_cfa_offset 0
 194              	.LVL18:
 195              	.LBB21:
 196              	.LBB20:
 197              		.loc 2 216 0
 198 002a FFF7FEBF 		b	chPoolFree
 199              	.LVL19:
 200              	.L21:
 201              		.cfi_restore_state
 202 002e 10BD     		pop	{r4, pc}
 203              	.LBE20:
 204              	.LBE21:
 205              		.cfi_endproc
 206              	.LFE296:
 207              		.size	dyn_release_object_pool, .-dyn_release_object_pool
 208              		.section	.text.dyn_create_object_heap,"ax",%progbits
 209              		.align	1
 210              		.thumb
 211              		.thumb_func
 212              		.type	dyn_create_object_heap, %function
 213              	dyn_create_object_heap:
 214              	.LFB293:
 215              		.loc 2 126 0
 216              		.cfi_startproc
 217              		@ args = 0, pretend = 0, frame = 0
 218              		@ frame_needed = 0, uses_anonymous_args = 0
 219              	.LVL20:
 220 0000 70B5     		push	{r4, r5, r6, lr}
 221              		.cfi_def_cfa_offset 16
 222              		.cfi_offset 4, -16
 223              		.cfi_offset 5, -12
 224              		.cfi_offset 6, -8
 225              		.cfi_offset 14, -4
 226              		.loc 2 126 0
 227 0002 0646     		mov	r6, r0
 228 0004 0D46     		mov	r5, r1
ARM GAS  /tmp/ccG8oNPt.s 			page 5


 229 0006 1446     		mov	r4, r2
 230              		.loc 2 132 0
 231 0008 FFF7FEFF 		bl	dyn_list_find
 232              	.LVL21:
 233              		.loc 2 133 0
 234 000c 80B9     		cbnz	r0, .L25
 235              	.LVL22:
 236              	.LBB26:
 237              	.LBB27:
 238              	.LBB28:
 239              	.LBB29:
 240              		.file 3 "../../modules/ChibiOS/os/oslib/include/chmemheaps.h"
 241              		.loc 3 156 0
 242 000e 2146     		mov	r1, r4
 243 0010 0822     		movs	r2, #8
 244 0012 FFF7FEFF 		bl	chHeapAllocAligned
 245              	.LVL23:
 246              	.LBE29:
 247              	.LBE28:
 248              		.loc 2 141 0
 249 0016 0446     		mov	r4, r0
 250              	.LVL24:
 251 0018 60B1     		cbz	r0, .L26
 252              		.loc 2 146 0
 253 001a 0830     		adds	r0, r0, #8
 254 001c 3146     		mov	r1, r6
 255 001e 0822     		movs	r2, #8
 256 0020 FFF7FEFF 		bl	strncpy
 257              	.LVL25:
 258              		.loc 2 148 0
 259 0024 0123     		movs	r3, #1
 260 0026 6360     		str	r3, [r4, #4]
 261              		.loc 2 149 0
 262 0028 2B68     		ldr	r3, [r5]
 263 002a 2360     		str	r3, [r4]
 264              		.loc 2 152 0
 265 002c 2C60     		str	r4, [r5]
 266 002e 01E0     		b	.L26
 267              	.LVL26:
 268              	.L25:
 269              	.LBE27:
 270              	.LBE26:
 271              		.loc 2 134 0
 272 0030 0020     		movs	r0, #0
 273              	.LVL27:
 274 0032 70BD     		pop	{r4, r5, r6, pc}
 275              	.LVL28:
 276              	.L26:
 277              	.LBB31:
 278              	.LBB30:
 279              		.loc 2 142 0
 280 0034 2046     		mov	r0, r4
 281              	.LBE30:
 282              	.LBE31:
 283              		.loc 2 155 0
 284 0036 70BD     		pop	{r4, r5, r6, pc}
 285              		.cfi_endproc
ARM GAS  /tmp/ccG8oNPt.s 			page 6


 286              	.LFE293:
 287              		.size	dyn_create_object_heap, .-dyn_create_object_heap
 288              		.section	.text.dyn_release_object_heap,"ax",%progbits
 289              		.align	1
 290              		.thumb
 291              		.thumb_func
 292              		.type	dyn_release_object_heap, %function
 293              	dyn_release_object_heap:
 294              	.LFB294:
 295              		.loc 2 158 0
 296              		.cfi_startproc
 297              		@ args = 0, pretend = 0, frame = 0
 298              		@ frame_needed = 0, uses_anonymous_args = 0
 299              		@ link register save eliminated.
 300              	.LVL29:
 301              		.loc 2 164 0
 302 0000 4368     		ldr	r3, [r0, #4]
 303 0002 013B     		subs	r3, r3, #1
 304 0004 4360     		str	r3, [r0, #4]
 305              		.loc 2 165 0
 306 0006 6BB9     		cbnz	r3, .L34
 307 0008 0A46     		mov	r2, r1
 308              	.L30:
 309              	.LVL30:
 310              	.LBB36:
 311              	.LBB37:
 312              	.LBB38:
 313              	.LBB39:
 314              		.loc 2 109 0
 315 000a 1368     		ldr	r3, [r2]
 316 000c 8B42     		cmp	r3, r1
 317 000e 06D0     		beq	.L35
 318              		.loc 2 110 0
 319 0010 8342     		cmp	r3, r0
 320 0012 02D1     		bne	.L33
 321              		.loc 2 112 0
 322 0014 0368     		ldr	r3, [r0]
 323 0016 1360     		str	r3, [r2]
 324 0018 02E0     		b	.L31
 325              	.L33:
 326              		.loc 2 110 0
 327 001a 1A46     		mov	r2, r3
 328              	.LVL31:
 329 001c F5E7     		b	.L30
 330              	.LVL32:
 331              	.L35:
 332              		.loc 2 120 0
 333 001e 0020     		movs	r0, #0
 334              	.LVL33:
 335              	.L31:
 336              	.LBE39:
 337              	.LBE38:
 338              		.loc 2 167 0
 339 0020 FFF7FEBF 		b	chHeapFree
 340              	.LVL34:
 341              	.L34:
 342 0024 7047     		bx	lr
ARM GAS  /tmp/ccG8oNPt.s 			page 7


 343              	.LBE37:
 344              	.LBE36:
 345              		.cfi_endproc
 346              	.LFE294:
 347              		.size	dyn_release_object_heap, .-dyn_release_object_heap
 348              		.section	.text._factory_init,"ax",%progbits
 349              		.align	1
 350              		.global	_factory_init
 351              		.thumb
 352              		.thumb_func
 353              		.type	_factory_init, %function
 354              	_factory_init:
 355              	.LFB298:
 356              		.loc 2 245 0
 357              		.cfi_startproc
 358              		@ args = 0, pretend = 0, frame = 0
 359              		@ frame_needed = 0, uses_anonymous_args = 0
 360 0000 38B5     		push	{r3, r4, r5, lr}
 361              		.cfi_def_cfa_offset 16
 362              		.cfi_offset 3, -16
 363              		.cfi_offset 4, -12
 364              		.cfi_offset 5, -8
 365              		.cfi_offset 14, -4
 366              		.loc 2 248 0
 367 0002 114C     		ldr	r4, .L37
 368              	.LBB54:
 369              	.LBB55:
 370              		.file 4 "../../modules/ChibiOS/os/oslib/include/chmempools.h"
 371              		.loc 4 193 0
 372 0004 114D     		ldr	r5, .L37+4
 373              	.LBE55:
 374              	.LBE54:
 375              		.loc 2 248 0
 376 0006 2046     		mov	r0, r4
 377 0008 FFF7FEFF 		bl	chMtxObjectInit
 378              	.LVL35:
 379              	.LBB57:
 380              	.LBB58:
 381              		.loc 2 88 0
 382 000c 04F11003 		add	r3, r4, #16
 383 0010 2361     		str	r3, [r4, #16]
 384              	.LVL36:
 385              	.LBE58:
 386              	.LBE57:
 387              	.LBB59:
 388              	.LBB56:
 389              		.loc 4 193 0
 390 0012 04F11400 		add	r0, r4, #20
 391 0016 1421     		movs	r1, #20
 392 0018 0422     		movs	r2, #4
 393 001a 2B46     		mov	r3, r5
 394 001c FFF7FEFF 		bl	chPoolObjectInitAligned
 395              	.LVL37:
 396              	.LBE56:
 397              	.LBE59:
 398              	.LBB60:
 399              	.LBB61:
ARM GAS  /tmp/ccG8oNPt.s 			page 8


 400              		.loc 2 88 0
 401 0020 04F12403 		add	r3, r4, #36
 402 0024 6362     		str	r3, [r4, #36]
 403              	.LVL38:
 404              	.LBE61:
 405              	.LBE60:
 406              	.LBB62:
 407              	.LBB63:
 408 0026 04F12803 		add	r3, r4, #40
 409 002a A362     		str	r3, [r4, #40]
 410              	.LVL39:
 411              	.LBE63:
 412              	.LBE62:
 413              	.LBB64:
 414              	.LBB65:
 415              		.loc 4 193 0
 416 002c 04F12C00 		add	r0, r4, #44
 417 0030 2B46     		mov	r3, r5
 418 0032 1C21     		movs	r1, #28
 419 0034 0422     		movs	r2, #4
 420 0036 FFF7FEFF 		bl	chPoolObjectInitAligned
 421              	.LVL40:
 422              	.LBE65:
 423              	.LBE64:
 424              	.LBB66:
 425              	.LBB67:
 426              		.loc 2 88 0
 427 003a 04F13C03 		add	r3, r4, #60
 428 003e E363     		str	r3, [r4, #60]
 429              	.LVL41:
 430              	.LBE67:
 431              	.LBE66:
 432              	.LBB68:
 433              	.LBB69:
 434 0040 04F14003 		add	r3, r4, #64
 435 0044 2364     		str	r3, [r4, #64]
 436 0046 38BD     		pop	{r3, r4, r5, pc}
 437              	.L38:
 438              		.align	2
 439              	.L37:
 440 0048 00000000 		.word	.LANCHOR0
 441 004c 00000000 		.word	chCoreAllocAlignedI
 442              	.LBE69:
 443              	.LBE68:
 444              		.cfi_endproc
 445              	.LFE298:
 446              		.size	_factory_init, .-_factory_init
 447              		.section	.text.chFactoryRegisterObject,"ax",%progbits
 448              		.align	1
 449              		.global	chFactoryRegisterObject
 450              		.thumb
 451              		.thumb_func
 452              		.type	chFactoryRegisterObject, %function
 453              	chFactoryRegisterObject:
 454              	.LFB299:
 455              		.loc 2 295 0
 456              		.cfi_startproc
ARM GAS  /tmp/ccG8oNPt.s 			page 9


 457              		@ args = 0, pretend = 0, frame = 0
 458              		@ frame_needed = 0, uses_anonymous_args = 0
 459              	.LVL42:
 460 0000 F8B5     		push	{r3, r4, r5, r6, r7, lr}
 461              		.cfi_def_cfa_offset 24
 462              		.cfi_offset 3, -24
 463              		.cfi_offset 4, -20
 464              		.cfi_offset 5, -16
 465              		.cfi_offset 6, -12
 466              		.cfi_offset 7, -8
 467              		.cfi_offset 14, -4
 468              		.loc 2 298 0
 469 0002 124D     		ldr	r5, .L46
 470              		.loc 2 295 0
 471 0004 0646     		mov	r6, r0
 472              		.loc 2 298 0
 473 0006 2846     		mov	r0, r5
 474              	.LVL43:
 475              		.loc 2 295 0
 476 0008 0F46     		mov	r7, r1
 477              		.loc 2 298 0
 478 000a FFF7FEFF 		bl	chMtxLock
 479              	.LVL44:
 480              	.LBB74:
 481              	.LBB75:
 482              		.loc 2 181 0
 483 000e 3046     		mov	r0, r6
 484 0010 05F11001 		add	r1, r5, #16
 485 0014 FFF7FEFF 		bl	dyn_list_find
 486              	.LVL45:
 487              		.loc 2 182 0
 488 0018 88B9     		cbnz	r0, .L40
 489              	.LVL46:
 490              	.LBB76:
 491              	.LBB77:
 492              		.loc 2 187 0
 493 001a 05F11400 		add	r0, r5, #20
 494              	.LVL47:
 495 001e FFF7FEFF 		bl	chPoolAlloc
 496              	.LVL48:
 497              		.loc 2 188 0
 498 0022 0446     		mov	r4, r0
 499 0024 58B1     		cbz	r0, .L40
 500              		.loc 2 195 0
 501 0026 0830     		adds	r0, r0, #8
 502              	.LVL49:
 503 0028 3146     		mov	r1, r6
 504 002a 0822     		movs	r2, #8
 505 002c FFF7FEFF 		bl	strncpy
 506              	.LVL50:
 507              		.loc 2 197 0
 508 0030 0123     		movs	r3, #1
 509 0032 6360     		str	r3, [r4, #4]
 510              		.loc 2 198 0
 511 0034 2B69     		ldr	r3, [r5, #16]
 512 0036 2360     		str	r3, [r4]
 513              		.loc 2 201 0
ARM GAS  /tmp/ccG8oNPt.s 			page 10


 514 0038 2C61     		str	r4, [r5, #16]
 515              	.LBE77:
 516              	.LBE76:
 517              	.LBE75:
 518              	.LBE74:
 519              		.loc 2 305 0
 520 003a 2761     		str	r7, [r4, #16]
 521 003c 00E0     		b	.L41
 522              	.LVL51:
 523              	.L40:
 524              		.loc 2 295 0
 525 003e 0024     		movs	r4, #0
 526              	.L41:
 527              		.loc 2 308 0
 528 0040 0248     		ldr	r0, .L46
 529 0042 FFF7FEFF 		bl	chMtxUnlock
 530              	.LVL52:
 531              		.loc 2 311 0
 532 0046 2046     		mov	r0, r4
 533 0048 F8BD     		pop	{r3, r4, r5, r6, r7, pc}
 534              	.LVL53:
 535              	.L47:
 536 004a 00BF     		.align	2
 537              	.L46:
 538 004c 00000000 		.word	.LANCHOR0
 539              		.cfi_endproc
 540              	.LFE299:
 541              		.size	chFactoryRegisterObject, .-chFactoryRegisterObject
 542              		.section	.text.chFactoryFindObject,"ax",%progbits
 543              		.align	1
 544              		.global	chFactoryFindObject
 545              		.thumb
 546              		.thumb_func
 547              		.type	chFactoryFindObject, %function
 548              	chFactoryFindObject:
 549              	.LFB300:
 550              		.loc 2 326 0
 551              		.cfi_startproc
 552              		@ args = 0, pretend = 0, frame = 0
 553              		@ frame_needed = 0, uses_anonymous_args = 0
 554              	.LVL54:
 555 0000 38B5     		push	{r3, r4, r5, lr}
 556              		.cfi_def_cfa_offset 16
 557              		.cfi_offset 3, -16
 558              		.cfi_offset 4, -12
 559              		.cfi_offset 5, -8
 560              		.cfi_offset 14, -4
 561              		.loc 2 329 0
 562 0002 084C     		ldr	r4, .L49
 563              		.loc 2 326 0
 564 0004 0546     		mov	r5, r0
 565              		.loc 2 329 0
 566 0006 2046     		mov	r0, r4
 567              	.LVL55:
 568 0008 FFF7FEFF 		bl	chMtxLock
 569              	.LVL56:
 570              		.loc 2 331 0
ARM GAS  /tmp/ccG8oNPt.s 			page 11


 571 000c 04F11001 		add	r1, r4, #16
 572 0010 2846     		mov	r0, r5
 573 0012 FFF7FEFF 		bl	dyn_find_object
 574              	.LVL57:
 575 0016 0546     		mov	r5, r0
 576              	.LVL58:
 577              		.loc 2 333 0
 578 0018 2046     		mov	r0, r4
 579              	.LVL59:
 580 001a FFF7FEFF 		bl	chMtxUnlock
 581              	.LVL60:
 582              		.loc 2 336 0
 583 001e 2846     		mov	r0, r5
 584 0020 38BD     		pop	{r3, r4, r5, pc}
 585              	.LVL61:
 586              	.L50:
 587 0022 00BF     		.align	2
 588              	.L49:
 589 0024 00000000 		.word	.LANCHOR0
 590              		.cfi_endproc
 591              	.LFE300:
 592              		.size	chFactoryFindObject, .-chFactoryFindObject
 593              		.section	.text.chFactoryFindObjectByPointer,"ax",%progbits
 594              		.align	1
 595              		.global	chFactoryFindObjectByPointer
 596              		.thumb
 597              		.thumb_func
 598              		.type	chFactoryFindObjectByPointer, %function
 599              	chFactoryFindObjectByPointer:
 600              	.LFB301:
 601              		.loc 2 351 0
 602              		.cfi_startproc
 603              		@ args = 0, pretend = 0, frame = 0
 604              		@ frame_needed = 0, uses_anonymous_args = 0
 605              	.LVL62:
 606 0000 38B5     		push	{r3, r4, r5, lr}
 607              		.cfi_def_cfa_offset 16
 608              		.cfi_offset 3, -16
 609              		.cfi_offset 4, -12
 610              		.cfi_offset 5, -8
 611              		.cfi_offset 14, -4
 612              		.loc 2 351 0
 613 0002 0546     		mov	r5, r0
 614              		.loc 2 352 0
 615 0004 0C48     		ldr	r0, .L57
 616              	.LVL63:
 617 0006 0469     		ldr	r4, [r0, #16]
 618              	.LVL64:
 619              		.loc 2 354 0
 620 0008 FFF7FEFF 		bl	chMtxLock
 621              	.LVL65:
 622              	.L52:
 623              		.loc 2 356 0
 624 000c 0B48     		ldr	r0, .L57+4
 625 000e 8442     		cmp	r4, r0
 626 0010 0CD0     		beq	.L56
 627              		.loc 2 357 0
ARM GAS  /tmp/ccG8oNPt.s 			page 12


 628 0012 2369     		ldr	r3, [r4, #16]
 629 0014 AB42     		cmp	r3, r5
 630 0016 07D1     		bne	.L53
 631              		.loc 2 358 0
 632 0018 6368     		ldr	r3, [r4, #4]
 633 001a 0133     		adds	r3, r3, #1
 634 001c 6360     		str	r3, [r4, #4]
 635              		.loc 2 360 0
 636 001e 1038     		subs	r0, r0, #16
 637 0020 FFF7FEFF 		bl	chMtxUnlock
 638              	.LVL66:
 639              		.loc 2 362 0
 640 0024 2046     		mov	r0, r4
 641 0026 38BD     		pop	{r3, r4, r5, pc}
 642              	.LVL67:
 643              	.L53:
 644              		.loc 2 364 0
 645 0028 2468     		ldr	r4, [r4]
 646              	.LVL68:
 647 002a EFE7     		b	.L52
 648              	.L56:
 649              		.loc 2 367 0
 650 002c A4F11000 		sub	r0, r4, #16
 651 0030 FFF7FEFF 		bl	chMtxUnlock
 652              	.LVL69:
 653              		.loc 2 369 0
 654 0034 0020     		movs	r0, #0
 655              		.loc 2 370 0
 656 0036 38BD     		pop	{r3, r4, r5, pc}
 657              	.LVL70:
 658              	.L58:
 659              		.align	2
 660              	.L57:
 661 0038 00000000 		.word	.LANCHOR0
 662 003c 10000000 		.word	.LANCHOR0+16
 663              		.cfi_endproc
 664              	.LFE301:
 665              		.size	chFactoryFindObjectByPointer, .-chFactoryFindObjectByPointer
 666              		.section	.text.chFactoryReleaseObject,"ax",%progbits
 667              		.align	1
 668              		.global	chFactoryReleaseObject
 669              		.thumb
 670              		.thumb_func
 671              		.type	chFactoryReleaseObject, %function
 672              	chFactoryReleaseObject:
 673              	.LFB302:
 674              		.loc 2 384 0
 675              		.cfi_startproc
 676              		@ args = 0, pretend = 0, frame = 0
 677              		@ frame_needed = 0, uses_anonymous_args = 0
 678              	.LVL71:
 679 0000 38B5     		push	{r3, r4, r5, lr}
 680              		.cfi_def_cfa_offset 16
 681              		.cfi_offset 3, -16
 682              		.cfi_offset 4, -12
 683              		.cfi_offset 5, -8
 684              		.cfi_offset 14, -4
ARM GAS  /tmp/ccG8oNPt.s 			page 13


 685              		.loc 2 386 0
 686 0002 084C     		ldr	r4, .L60
 687              		.loc 2 384 0
 688 0004 0546     		mov	r5, r0
 689              		.loc 2 386 0
 690 0006 2046     		mov	r0, r4
 691              	.LVL72:
 692 0008 FFF7FEFF 		bl	chMtxLock
 693              	.LVL73:
 694              		.loc 2 388 0
 695 000c 2846     		mov	r0, r5
 696 000e 04F11001 		add	r1, r4, #16
 697 0012 04F11402 		add	r2, r4, #20
 698 0016 FFF7FEFF 		bl	dyn_release_object_pool
 699              	.LVL74:
 700              		.loc 2 392 0
 701 001a 2046     		mov	r0, r4
 702              		.loc 2 393 0
 703 001c BDE83840 		pop	{r3, r4, r5, lr}
 704              		.cfi_restore 14
 705              		.cfi_restore 5
 706              		.cfi_restore 4
 707              		.cfi_restore 3
 708              		.cfi_def_cfa_offset 0
 709              	.LVL75:
 710              		.loc 2 392 0
 711 0020 FFF7FEBF 		b	chMtxUnlock
 712              	.LVL76:
 713              	.L61:
 714              		.align	2
 715              	.L60:
 716 0024 00000000 		.word	.LANCHOR0
 717              		.cfi_endproc
 718              	.LFE302:
 719              		.size	chFactoryReleaseObject, .-chFactoryReleaseObject
 720              		.section	.text.chFactoryCreateBuffer,"ax",%progbits
 721              		.align	1
 722              		.global	chFactoryCreateBuffer
 723              		.thumb
 724              		.thumb_func
 725              		.type	chFactoryCreateBuffer, %function
 726              	chFactoryCreateBuffer:
 727              	.LFB303:
 728              		.loc 2 412 0
 729              		.cfi_startproc
 730              		@ args = 0, pretend = 0, frame = 0
 731              		@ frame_needed = 0, uses_anonymous_args = 0
 732              	.LVL77:
 733 0000 38B5     		push	{r3, r4, r5, lr}
 734              		.cfi_def_cfa_offset 16
 735              		.cfi_offset 3, -16
 736              		.cfi_offset 4, -12
 737              		.cfi_offset 5, -8
 738              		.cfi_offset 14, -4
 739              		.loc 2 412 0
 740 0002 0446     		mov	r4, r0
 741 0004 0D46     		mov	r5, r1
ARM GAS  /tmp/ccG8oNPt.s 			page 14


 742              		.loc 2 415 0
 743 0006 0A48     		ldr	r0, .L67
 744              	.LVL78:
 745 0008 FFF7FEFF 		bl	chMtxLock
 746              	.LVL79:
 747              		.loc 2 417 0
 748 000c 2046     		mov	r0, r4
 749 000e 0949     		ldr	r1, .L67+4
 750 0010 2A46     		mov	r2, r5
 751 0012 FFF7FEFF 		bl	dyn_create_object_heap
 752              	.LVL80:
 753              		.loc 2 420 0
 754 0016 0446     		mov	r4, r0
 755              	.LVL81:
 756 0018 20B1     		cbz	r0, .L63
 757              		.loc 2 422 0
 758 001a 1030     		adds	r0, r0, #16
 759              	.LVL82:
 760 001c 0021     		movs	r1, #0
 761 001e 2A46     		mov	r2, r5
 762 0020 FFF7FEFF 		bl	memset
 763              	.LVL83:
 764              	.L63:
 765              		.loc 2 425 0
 766 0024 0248     		ldr	r0, .L67
 767 0026 FFF7FEFF 		bl	chMtxUnlock
 768              	.LVL84:
 769              		.loc 2 428 0
 770 002a 2046     		mov	r0, r4
 771 002c 38BD     		pop	{r3, r4, r5, pc}
 772              	.LVL85:
 773              	.L68:
 774 002e 00BF     		.align	2
 775              	.L67:
 776 0030 00000000 		.word	.LANCHOR0
 777 0034 24000000 		.word	.LANCHOR0+36
 778              		.cfi_endproc
 779              	.LFE303:
 780              		.size	chFactoryCreateBuffer, .-chFactoryCreateBuffer
 781              		.section	.text.chFactoryFindBuffer,"ax",%progbits
 782              		.align	1
 783              		.global	chFactoryFindBuffer
 784              		.thumb
 785              		.thumb_func
 786              		.type	chFactoryFindBuffer, %function
 787              	chFactoryFindBuffer:
 788              	.LFB304:
 789              		.loc 2 443 0
 790              		.cfi_startproc
 791              		@ args = 0, pretend = 0, frame = 0
 792              		@ frame_needed = 0, uses_anonymous_args = 0
 793              	.LVL86:
 794 0000 38B5     		push	{r3, r4, r5, lr}
 795              		.cfi_def_cfa_offset 16
 796              		.cfi_offset 3, -16
 797              		.cfi_offset 4, -12
 798              		.cfi_offset 5, -8
ARM GAS  /tmp/ccG8oNPt.s 			page 15


 799              		.cfi_offset 14, -4
 800              		.loc 2 446 0
 801 0002 084C     		ldr	r4, .L70
 802              		.loc 2 443 0
 803 0004 0546     		mov	r5, r0
 804              		.loc 2 446 0
 805 0006 2046     		mov	r0, r4
 806              	.LVL87:
 807 0008 FFF7FEFF 		bl	chMtxLock
 808              	.LVL88:
 809              		.loc 2 448 0
 810 000c 04F12401 		add	r1, r4, #36
 811 0010 2846     		mov	r0, r5
 812 0012 FFF7FEFF 		bl	dyn_find_object
 813              	.LVL89:
 814 0016 0546     		mov	r5, r0
 815              	.LVL90:
 816              		.loc 2 450 0
 817 0018 2046     		mov	r0, r4
 818              	.LVL91:
 819 001a FFF7FEFF 		bl	chMtxUnlock
 820              	.LVL92:
 821              		.loc 2 453 0
 822 001e 2846     		mov	r0, r5
 823 0020 38BD     		pop	{r3, r4, r5, pc}
 824              	.LVL93:
 825              	.L71:
 826 0022 00BF     		.align	2
 827              	.L70:
 828 0024 00000000 		.word	.LANCHOR0
 829              		.cfi_endproc
 830              	.LFE304:
 831              		.size	chFactoryFindBuffer, .-chFactoryFindBuffer
 832              		.section	.text.chFactoryReleaseBuffer,"ax",%progbits
 833              		.align	1
 834              		.global	chFactoryReleaseBuffer
 835              		.thumb
 836              		.thumb_func
 837              		.type	chFactoryReleaseBuffer, %function
 838              	chFactoryReleaseBuffer:
 839              	.LFB305:
 840              		.loc 2 465 0
 841              		.cfi_startproc
 842              		@ args = 0, pretend = 0, frame = 0
 843              		@ frame_needed = 0, uses_anonymous_args = 0
 844              	.LVL94:
 845 0000 38B5     		push	{r3, r4, r5, lr}
 846              		.cfi_def_cfa_offset 16
 847              		.cfi_offset 3, -16
 848              		.cfi_offset 4, -12
 849              		.cfi_offset 5, -8
 850              		.cfi_offset 14, -4
 851              		.loc 2 467 0
 852 0002 074C     		ldr	r4, .L73
 853              		.loc 2 465 0
 854 0004 0546     		mov	r5, r0
 855              		.loc 2 467 0
ARM GAS  /tmp/ccG8oNPt.s 			page 16


 856 0006 2046     		mov	r0, r4
 857              	.LVL95:
 858 0008 FFF7FEFF 		bl	chMtxLock
 859              	.LVL96:
 860              		.loc 2 469 0
 861 000c 2846     		mov	r0, r5
 862 000e 04F12401 		add	r1, r4, #36
 863 0012 FFF7FEFF 		bl	dyn_release_object_heap
 864              	.LVL97:
 865              		.loc 2 471 0
 866 0016 2046     		mov	r0, r4
 867              		.loc 2 472 0
 868 0018 BDE83840 		pop	{r3, r4, r5, lr}
 869              		.cfi_restore 14
 870              		.cfi_restore 5
 871              		.cfi_restore 4
 872              		.cfi_restore 3
 873              		.cfi_def_cfa_offset 0
 874              	.LVL98:
 875              		.loc 2 471 0
 876 001c FFF7FEBF 		b	chMtxUnlock
 877              	.LVL99:
 878              	.L74:
 879              		.align	2
 880              	.L73:
 881 0020 00000000 		.word	.LANCHOR0
 882              		.cfi_endproc
 883              	.LFE305:
 884              		.size	chFactoryReleaseBuffer, .-chFactoryReleaseBuffer
 885              		.section	.text.chFactoryCreateSemaphore,"ax",%progbits
 886              		.align	1
 887              		.global	chFactoryCreateSemaphore
 888              		.thumb
 889              		.thumb_func
 890              		.type	chFactoryCreateSemaphore, %function
 891              	chFactoryCreateSemaphore:
 892              	.LFB306:
 893              		.loc 2 491 0
 894              		.cfi_startproc
 895              		@ args = 0, pretend = 0, frame = 0
 896              		@ frame_needed = 0, uses_anonymous_args = 0
 897              	.LVL100:
 898 0000 F8B5     		push	{r3, r4, r5, r6, r7, lr}
 899              		.cfi_def_cfa_offset 24
 900              		.cfi_offset 3, -24
 901              		.cfi_offset 4, -20
 902              		.cfi_offset 5, -16
 903              		.cfi_offset 6, -12
 904              		.cfi_offset 7, -8
 905              		.cfi_offset 14, -4
 906              		.loc 2 494 0
 907 0002 144D     		ldr	r5, .L82
 908              		.loc 2 491 0
 909 0004 0646     		mov	r6, r0
 910              		.loc 2 494 0
 911 0006 2846     		mov	r0, r5
 912              	.LVL101:
ARM GAS  /tmp/ccG8oNPt.s 			page 17


 913              		.loc 2 491 0
 914 0008 0F46     		mov	r7, r1
 915              		.loc 2 494 0
 916 000a FFF7FEFF 		bl	chMtxLock
 917              	.LVL102:
 918              	.LBB82:
 919              	.LBB83:
 920              		.loc 2 181 0
 921 000e 3046     		mov	r0, r6
 922 0010 05F12801 		add	r1, r5, #40
 923 0014 FFF7FEFF 		bl	dyn_list_find
 924              	.LVL103:
 925              		.loc 2 182 0
 926 0018 A8B9     		cbnz	r0, .L76
 927              	.LVL104:
 928              	.LBB84:
 929              	.LBB85:
 930              		.loc 2 187 0
 931 001a 05F12C00 		add	r0, r5, #44
 932              	.LVL105:
 933 001e FFF7FEFF 		bl	chPoolAlloc
 934              	.LVL106:
 935              		.loc 2 188 0
 936 0022 0446     		mov	r4, r0
 937 0024 78B1     		cbz	r0, .L76
 938              		.loc 2 195 0
 939 0026 3146     		mov	r1, r6
 940 0028 0822     		movs	r2, #8
 941 002a 0830     		adds	r0, r0, #8
 942              	.LVL107:
 943 002c FFF7FEFF 		bl	strncpy
 944              	.LVL108:
 945              		.loc 2 197 0
 946 0030 0123     		movs	r3, #1
 947 0032 6360     		str	r3, [r4, #4]
 948              		.loc 2 198 0
 949 0034 AB6A     		ldr	r3, [r5, #40]
 950 0036 2360     		str	r3, [r4]
 951              	.LBE85:
 952              	.LBE84:
 953              	.LBE83:
 954              	.LBE82:
 955              		.loc 2 501 0
 956 0038 04F11000 		add	r0, r4, #16
 957              	.LBB89:
 958              	.LBB88:
 959              	.LBB87:
 960              	.LBB86:
 961              		.loc 2 201 0
 962 003c AC62     		str	r4, [r5, #40]
 963              	.LBE86:
 964              	.LBE87:
 965              	.LBE88:
 966              	.LBE89:
 967              		.loc 2 501 0
 968 003e 3946     		mov	r1, r7
 969 0040 FFF7FEFF 		bl	chSemObjectInit
ARM GAS  /tmp/ccG8oNPt.s 			page 18


 970              	.LVL109:
 971 0044 00E0     		b	.L77
 972              	.LVL110:
 973              	.L76:
 974              		.loc 2 491 0
 975 0046 0024     		movs	r4, #0
 976              	.L77:
 977              		.loc 2 504 0
 978 0048 0248     		ldr	r0, .L82
 979 004a FFF7FEFF 		bl	chMtxUnlock
 980              	.LVL111:
 981              		.loc 2 507 0
 982 004e 2046     		mov	r0, r4
 983 0050 F8BD     		pop	{r3, r4, r5, r6, r7, pc}
 984              	.LVL112:
 985              	.L83:
 986 0052 00BF     		.align	2
 987              	.L82:
 988 0054 00000000 		.word	.LANCHOR0
 989              		.cfi_endproc
 990              	.LFE306:
 991              		.size	chFactoryCreateSemaphore, .-chFactoryCreateSemaphore
 992              		.section	.text.chFactoryFindSemaphore,"ax",%progbits
 993              		.align	1
 994              		.global	chFactoryFindSemaphore
 995              		.thumb
 996              		.thumb_func
 997              		.type	chFactoryFindSemaphore, %function
 998              	chFactoryFindSemaphore:
 999              	.LFB307:
 1000              		.loc 2 522 0
 1001              		.cfi_startproc
 1002              		@ args = 0, pretend = 0, frame = 0
 1003              		@ frame_needed = 0, uses_anonymous_args = 0
 1004              	.LVL113:
 1005 0000 38B5     		push	{r3, r4, r5, lr}
 1006              		.cfi_def_cfa_offset 16
 1007              		.cfi_offset 3, -16
 1008              		.cfi_offset 4, -12
 1009              		.cfi_offset 5, -8
 1010              		.cfi_offset 14, -4
 1011              		.loc 2 525 0
 1012 0002 084C     		ldr	r4, .L85
 1013              		.loc 2 522 0
 1014 0004 0546     		mov	r5, r0
 1015              		.loc 2 525 0
 1016 0006 2046     		mov	r0, r4
 1017              	.LVL114:
 1018 0008 FFF7FEFF 		bl	chMtxLock
 1019              	.LVL115:
 1020              		.loc 2 527 0
 1021 000c 04F12801 		add	r1, r4, #40
 1022 0010 2846     		mov	r0, r5
 1023 0012 FFF7FEFF 		bl	dyn_find_object
 1024              	.LVL116:
 1025 0016 0546     		mov	r5, r0
 1026              	.LVL117:
ARM GAS  /tmp/ccG8oNPt.s 			page 19


 1027              		.loc 2 529 0
 1028 0018 2046     		mov	r0, r4
 1029              	.LVL118:
 1030 001a FFF7FEFF 		bl	chMtxUnlock
 1031              	.LVL119:
 1032              		.loc 2 532 0
 1033 001e 2846     		mov	r0, r5
 1034 0020 38BD     		pop	{r3, r4, r5, pc}
 1035              	.LVL120:
 1036              	.L86:
 1037 0022 00BF     		.align	2
 1038              	.L85:
 1039 0024 00000000 		.word	.LANCHOR0
 1040              		.cfi_endproc
 1041              	.LFE307:
 1042              		.size	chFactoryFindSemaphore, .-chFactoryFindSemaphore
 1043              		.section	.text.chFactoryReleaseSemaphore,"ax",%progbits
 1044              		.align	1
 1045              		.global	chFactoryReleaseSemaphore
 1046              		.thumb
 1047              		.thumb_func
 1048              		.type	chFactoryReleaseSemaphore, %function
 1049              	chFactoryReleaseSemaphore:
 1050              	.LFB308:
 1051              		.loc 2 544 0
 1052              		.cfi_startproc
 1053              		@ args = 0, pretend = 0, frame = 0
 1054              		@ frame_needed = 0, uses_anonymous_args = 0
 1055              	.LVL121:
 1056 0000 38B5     		push	{r3, r4, r5, lr}
 1057              		.cfi_def_cfa_offset 16
 1058              		.cfi_offset 3, -16
 1059              		.cfi_offset 4, -12
 1060              		.cfi_offset 5, -8
 1061              		.cfi_offset 14, -4
 1062              		.loc 2 546 0
 1063 0002 084C     		ldr	r4, .L88
 1064              		.loc 2 544 0
 1065 0004 0546     		mov	r5, r0
 1066              		.loc 2 546 0
 1067 0006 2046     		mov	r0, r4
 1068              	.LVL122:
 1069 0008 FFF7FEFF 		bl	chMtxLock
 1070              	.LVL123:
 1071              		.loc 2 548 0
 1072 000c 2846     		mov	r0, r5
 1073 000e 04F12801 		add	r1, r4, #40
 1074 0012 04F12C02 		add	r2, r4, #44
 1075 0016 FFF7FEFF 		bl	dyn_release_object_pool
 1076              	.LVL124:
 1077              		.loc 2 552 0
 1078 001a 2046     		mov	r0, r4
 1079              		.loc 2 553 0
 1080 001c BDE83840 		pop	{r3, r4, r5, lr}
 1081              		.cfi_restore 14
 1082              		.cfi_restore 5
 1083              		.cfi_restore 4
ARM GAS  /tmp/ccG8oNPt.s 			page 20


 1084              		.cfi_restore 3
 1085              		.cfi_def_cfa_offset 0
 1086              	.LVL125:
 1087              		.loc 2 552 0
 1088 0020 FFF7FEBF 		b	chMtxUnlock
 1089              	.LVL126:
 1090              	.L89:
 1091              		.align	2
 1092              	.L88:
 1093 0024 00000000 		.word	.LANCHOR0
 1094              		.cfi_endproc
 1095              	.LFE308:
 1096              		.size	chFactoryReleaseSemaphore, .-chFactoryReleaseSemaphore
 1097              		.section	.text.chFactoryCreateMailbox,"ax",%progbits
 1098              		.align	1
 1099              		.global	chFactoryCreateMailbox
 1100              		.thumb
 1101              		.thumb_func
 1102              		.type	chFactoryCreateMailbox, %function
 1103              	chFactoryCreateMailbox:
 1104              	.LFB309:
 1105              		.loc 2 572 0
 1106              		.cfi_startproc
 1107              		@ args = 0, pretend = 0, frame = 0
 1108              		@ frame_needed = 0, uses_anonymous_args = 0
 1109              	.LVL127:
 1110 0000 38B5     		push	{r3, r4, r5, lr}
 1111              		.cfi_def_cfa_offset 16
 1112              		.cfi_offset 3, -16
 1113              		.cfi_offset 4, -12
 1114              		.cfi_offset 5, -8
 1115              		.cfi_offset 14, -4
 1116              		.loc 2 572 0
 1117 0002 0446     		mov	r4, r0
 1118 0004 0D46     		mov	r5, r1
 1119              		.loc 2 575 0
 1120 0006 0B48     		ldr	r0, .L95
 1121              	.LVL128:
 1122 0008 FFF7FEFF 		bl	chMtxLock
 1123              	.LVL129:
 1124              		.loc 2 577 0
 1125 000c 05F10E02 		add	r2, r5, #14
 1126 0010 2046     		mov	r0, r4
 1127 0012 0949     		ldr	r1, .L95+4
 1128 0014 9200     		lsls	r2, r2, #2
 1129 0016 FFF7FEFF 		bl	dyn_create_object_heap
 1130              	.LVL130:
 1131              		.loc 2 581 0
 1132 001a 0446     		mov	r4, r0
 1133              	.LVL131:
 1134 001c 28B1     		cbz	r0, .L91
 1135              		.loc 2 583 0
 1136 001e 1030     		adds	r0, r0, #16
 1137              	.LVL132:
 1138 0020 04F13801 		add	r1, r4, #56
 1139 0024 2A46     		mov	r2, r5
 1140 0026 FFF7FEFF 		bl	chMBObjectInit
ARM GAS  /tmp/ccG8oNPt.s 			page 21


 1141              	.LVL133:
 1142              	.L91:
 1143              		.loc 2 586 0
 1144 002a 0248     		ldr	r0, .L95
 1145 002c FFF7FEFF 		bl	chMtxUnlock
 1146              	.LVL134:
 1147              		.loc 2 589 0
 1148 0030 2046     		mov	r0, r4
 1149 0032 38BD     		pop	{r3, r4, r5, pc}
 1150              	.LVL135:
 1151              	.L96:
 1152              		.align	2
 1153              	.L95:
 1154 0034 00000000 		.word	.LANCHOR0
 1155 0038 3C000000 		.word	.LANCHOR0+60
 1156              		.cfi_endproc
 1157              	.LFE309:
 1158              		.size	chFactoryCreateMailbox, .-chFactoryCreateMailbox
 1159              		.section	.text.chFactoryFindMailbox,"ax",%progbits
 1160              		.align	1
 1161              		.global	chFactoryFindMailbox
 1162              		.thumb
 1163              		.thumb_func
 1164              		.type	chFactoryFindMailbox, %function
 1165              	chFactoryFindMailbox:
 1166              	.LFB310:
 1167              		.loc 2 604 0
 1168              		.cfi_startproc
 1169              		@ args = 0, pretend = 0, frame = 0
 1170              		@ frame_needed = 0, uses_anonymous_args = 0
 1171              	.LVL136:
 1172 0000 38B5     		push	{r3, r4, r5, lr}
 1173              		.cfi_def_cfa_offset 16
 1174              		.cfi_offset 3, -16
 1175              		.cfi_offset 4, -12
 1176              		.cfi_offset 5, -8
 1177              		.cfi_offset 14, -4
 1178              		.loc 2 607 0
 1179 0002 084C     		ldr	r4, .L98
 1180              		.loc 2 604 0
 1181 0004 0546     		mov	r5, r0
 1182              		.loc 2 607 0
 1183 0006 2046     		mov	r0, r4
 1184              	.LVL137:
 1185 0008 FFF7FEFF 		bl	chMtxLock
 1186              	.LVL138:
 1187              		.loc 2 609 0
 1188 000c 04F13C01 		add	r1, r4, #60
 1189 0010 2846     		mov	r0, r5
 1190 0012 FFF7FEFF 		bl	dyn_find_object
 1191              	.LVL139:
 1192 0016 0546     		mov	r5, r0
 1193              	.LVL140:
 1194              		.loc 2 611 0
 1195 0018 2046     		mov	r0, r4
 1196              	.LVL141:
 1197 001a FFF7FEFF 		bl	chMtxUnlock
ARM GAS  /tmp/ccG8oNPt.s 			page 22


 1198              	.LVL142:
 1199              		.loc 2 614 0
 1200 001e 2846     		mov	r0, r5
 1201 0020 38BD     		pop	{r3, r4, r5, pc}
 1202              	.LVL143:
 1203              	.L99:
 1204 0022 00BF     		.align	2
 1205              	.L98:
 1206 0024 00000000 		.word	.LANCHOR0
 1207              		.cfi_endproc
 1208              	.LFE310:
 1209              		.size	chFactoryFindMailbox, .-chFactoryFindMailbox
 1210              		.section	.text.chFactoryReleaseMailbox,"ax",%progbits
 1211              		.align	1
 1212              		.global	chFactoryReleaseMailbox
 1213              		.thumb
 1214              		.thumb_func
 1215              		.type	chFactoryReleaseMailbox, %function
 1216              	chFactoryReleaseMailbox:
 1217              	.LFB311:
 1218              		.loc 2 626 0
 1219              		.cfi_startproc
 1220              		@ args = 0, pretend = 0, frame = 0
 1221              		@ frame_needed = 0, uses_anonymous_args = 0
 1222              	.LVL144:
 1223 0000 38B5     		push	{r3, r4, r5, lr}
 1224              		.cfi_def_cfa_offset 16
 1225              		.cfi_offset 3, -16
 1226              		.cfi_offset 4, -12
 1227              		.cfi_offset 5, -8
 1228              		.cfi_offset 14, -4
 1229              		.loc 2 628 0
 1230 0002 074C     		ldr	r4, .L101
 1231              		.loc 2 626 0
 1232 0004 0546     		mov	r5, r0
 1233              		.loc 2 628 0
 1234 0006 2046     		mov	r0, r4
 1235              	.LVL145:
 1236 0008 FFF7FEFF 		bl	chMtxLock
 1237              	.LVL146:
 1238              		.loc 2 630 0
 1239 000c 2846     		mov	r0, r5
 1240 000e 04F13C01 		add	r1, r4, #60
 1241 0012 FFF7FEFF 		bl	dyn_release_object_heap
 1242              	.LVL147:
 1243              		.loc 2 632 0
 1244 0016 2046     		mov	r0, r4
 1245              		.loc 2 633 0
 1246 0018 BDE83840 		pop	{r3, r4, r5, lr}
 1247              		.cfi_restore 14
 1248              		.cfi_restore 5
 1249              		.cfi_restore 4
 1250              		.cfi_restore 3
 1251              		.cfi_def_cfa_offset 0
 1252              	.LVL148:
 1253              		.loc 2 632 0
 1254 001c FFF7FEBF 		b	chMtxUnlock
ARM GAS  /tmp/ccG8oNPt.s 			page 23


 1255              	.LVL149:
 1256              	.L102:
 1257              		.align	2
 1258              	.L101:
 1259 0020 00000000 		.word	.LANCHOR0
 1260              		.cfi_endproc
 1261              	.LFE311:
 1262              		.size	chFactoryReleaseMailbox, .-chFactoryReleaseMailbox
 1263              		.section	.text.chFactoryCreateObjectsFIFO,"ax",%progbits
 1264              		.align	1
 1265              		.global	chFactoryCreateObjectsFIFO
 1266              		.thumb
 1267              		.thumb_func
 1268              		.type	chFactoryCreateObjectsFIFO, %function
 1269              	chFactoryCreateObjectsFIFO:
 1270              	.LFB312:
 1271              		.loc 2 659 0
 1272              		.cfi_startproc
 1273              		@ args = 0, pretend = 0, frame = 0
 1274              		@ frame_needed = 0, uses_anonymous_args = 0
 1275              	.LVL150:
 1276 0000 2DE9F843 		push	{r3, r4, r5, r6, r7, r8, r9, lr}
 1277              		.cfi_def_cfa_offset 32
 1278              		.cfi_offset 3, -32
 1279              		.cfi_offset 4, -28
 1280              		.cfi_offset 5, -24
 1281              		.cfi_offset 6, -20
 1282              		.cfi_offset 7, -16
 1283              		.cfi_offset 8, -12
 1284              		.cfi_offset 9, -8
 1285              		.cfi_offset 14, -4
 1286              		.loc 2 659 0
 1287 0004 0446     		mov	r4, r0
 1288 0006 8846     		mov	r8, r1
 1289 0008 1546     		mov	r5, r2
 1290              		.loc 2 662 0
 1291 000a 1648     		ldr	r0, .L108
 1292              	.LVL151:
 1293              		.loc 2 659 0
 1294 000c 9946     		mov	r9, r3
 1295              		.loc 2 662 0
 1296 000e FFF7FEFF 		bl	chMtxLock
 1297              	.LVL152:
 1298              		.loc 2 668 0
 1299 0012 08FB05F3 		mul	r3, r8, r5
 1300              		.loc 2 666 0
 1301 0016 05F11502 		add	r2, r5, #21
 1302              		.loc 2 664 0
 1303 001a 2046     		mov	r0, r4
 1304 001c 1249     		ldr	r1, .L108+4
 1305 001e 03EB8202 		add	r2, r3, r2, lsl #2
 1306 0022 FFF7FEFF 		bl	dyn_create_object_heap
 1307              	.LVL153:
 1308              		.loc 2 669 0
 1309 0026 0446     		mov	r4, r0
 1310              	.LVL154:
 1311 0028 A8B1     		cbz	r0, .L104
ARM GAS  /tmp/ccG8oNPt.s 			page 24


 1312              		.loc 2 672 0
 1313 002a 00EB8506 		add	r6, r0, r5, lsl #2
 1314              	.LBB92:
 1315              	.LBB93:
 1316              		.file 5 "../../modules/ChibiOS/os/oslib/include/chobjfifos.h"
 1317              		.loc 5 134 0
 1318 002e 00F11007 		add	r7, r0, #16
 1319 0032 3846     		mov	r0, r7
 1320              	.LVL155:
 1321 0034 4146     		mov	r1, r8
 1322 0036 4A46     		mov	r2, r9
 1323              	.LBE93:
 1324              	.LBE92:
 1325              		.loc 2 672 0
 1326 0038 5436     		adds	r6, r6, #84
 1327              	.LVL156:
 1328              	.LBB95:
 1329              	.LBB94:
 1330              		.loc 5 134 0
 1331 003a FFF7FEFF 		bl	chGuardedPoolObjectInitAligned
 1332              	.LVL157:
 1333              		.loc 5 135 0
 1334 003e 3846     		mov	r0, r7
 1335 0040 3146     		mov	r1, r6
 1336 0042 2A46     		mov	r2, r5
 1337 0044 FFF7FEFF 		bl	chGuardedPoolLoadArray
 1338              	.LVL158:
 1339              		.loc 5 136 0
 1340 0048 04F12C00 		add	r0, r4, #44
 1341 004c 04F15401 		add	r1, r4, #84
 1342 0050 2A46     		mov	r2, r5
 1343 0052 FFF7FEFF 		bl	chMBObjectInit
 1344              	.LVL159:
 1345              	.L104:
 1346              	.LBE94:
 1347              	.LBE95:
 1348              		.loc 2 675 0
 1349 0056 0348     		ldr	r0, .L108
 1350 0058 FFF7FEFF 		bl	chMtxUnlock
 1351              	.LVL160:
 1352              		.loc 2 678 0
 1353 005c 2046     		mov	r0, r4
 1354 005e BDE8F883 		pop	{r3, r4, r5, r6, r7, r8, r9, pc}
 1355              	.LVL161:
 1356              	.L109:
 1357 0062 00BF     		.align	2
 1358              	.L108:
 1359 0064 00000000 		.word	.LANCHOR0
 1360 0068 40000000 		.word	.LANCHOR0+64
 1361              		.cfi_endproc
 1362              	.LFE312:
 1363              		.size	chFactoryCreateObjectsFIFO, .-chFactoryCreateObjectsFIFO
 1364              		.section	.text.chFactoryFindObjectsFIFO,"ax",%progbits
 1365              		.align	1
 1366              		.global	chFactoryFindObjectsFIFO
 1367              		.thumb
 1368              		.thumb_func
ARM GAS  /tmp/ccG8oNPt.s 			page 25


 1369              		.type	chFactoryFindObjectsFIFO, %function
 1370              	chFactoryFindObjectsFIFO:
 1371              	.LFB313:
 1372              		.loc 2 694 0
 1373              		.cfi_startproc
 1374              		@ args = 0, pretend = 0, frame = 0
 1375              		@ frame_needed = 0, uses_anonymous_args = 0
 1376              	.LVL162:
 1377 0000 38B5     		push	{r3, r4, r5, lr}
 1378              		.cfi_def_cfa_offset 16
 1379              		.cfi_offset 3, -16
 1380              		.cfi_offset 4, -12
 1381              		.cfi_offset 5, -8
 1382              		.cfi_offset 14, -4
 1383              		.loc 2 697 0
 1384 0002 084C     		ldr	r4, .L111
 1385              		.loc 2 694 0
 1386 0004 0546     		mov	r5, r0
 1387              		.loc 2 697 0
 1388 0006 2046     		mov	r0, r4
 1389              	.LVL163:
 1390 0008 FFF7FEFF 		bl	chMtxLock
 1391              	.LVL164:
 1392              		.loc 2 699 0
 1393 000c 04F14001 		add	r1, r4, #64
 1394 0010 2846     		mov	r0, r5
 1395 0012 FFF7FEFF 		bl	dyn_find_object
 1396              	.LVL165:
 1397 0016 0546     		mov	r5, r0
 1398              	.LVL166:
 1399              		.loc 2 701 0
 1400 0018 2046     		mov	r0, r4
 1401              	.LVL167:
 1402 001a FFF7FEFF 		bl	chMtxUnlock
 1403              	.LVL168:
 1404              		.loc 2 704 0
 1405 001e 2846     		mov	r0, r5
 1406 0020 38BD     		pop	{r3, r4, r5, pc}
 1407              	.LVL169:
 1408              	.L112:
 1409 0022 00BF     		.align	2
 1410              	.L111:
 1411 0024 00000000 		.word	.LANCHOR0
 1412              		.cfi_endproc
 1413              	.LFE313:
 1414              		.size	chFactoryFindObjectsFIFO, .-chFactoryFindObjectsFIFO
 1415              		.section	.text.chFactoryReleaseObjectsFIFO,"ax",%progbits
 1416              		.align	1
 1417              		.global	chFactoryReleaseObjectsFIFO
 1418              		.thumb
 1419              		.thumb_func
 1420              		.type	chFactoryReleaseObjectsFIFO, %function
 1421              	chFactoryReleaseObjectsFIFO:
 1422              	.LFB314:
 1423              		.loc 2 716 0
 1424              		.cfi_startproc
 1425              		@ args = 0, pretend = 0, frame = 0
ARM GAS  /tmp/ccG8oNPt.s 			page 26


 1426              		@ frame_needed = 0, uses_anonymous_args = 0
 1427              	.LVL170:
 1428 0000 38B5     		push	{r3, r4, r5, lr}
 1429              		.cfi_def_cfa_offset 16
 1430              		.cfi_offset 3, -16
 1431              		.cfi_offset 4, -12
 1432              		.cfi_offset 5, -8
 1433              		.cfi_offset 14, -4
 1434              		.loc 2 718 0
 1435 0002 074C     		ldr	r4, .L114
 1436              		.loc 2 716 0
 1437 0004 0546     		mov	r5, r0
 1438              		.loc 2 718 0
 1439 0006 2046     		mov	r0, r4
 1440              	.LVL171:
 1441 0008 FFF7FEFF 		bl	chMtxLock
 1442              	.LVL172:
 1443              		.loc 2 720 0
 1444 000c 2846     		mov	r0, r5
 1445 000e 04F14001 		add	r1, r4, #64
 1446 0012 FFF7FEFF 		bl	dyn_release_object_heap
 1447              	.LVL173:
 1448              		.loc 2 722 0
 1449 0016 2046     		mov	r0, r4
 1450              		.loc 2 723 0
 1451 0018 BDE83840 		pop	{r3, r4, r5, lr}
 1452              		.cfi_restore 14
 1453              		.cfi_restore 5
 1454              		.cfi_restore 4
 1455              		.cfi_restore 3
 1456              		.cfi_def_cfa_offset 0
 1457              	.LVL174:
 1458              		.loc 2 722 0
 1459 001c FFF7FEBF 		b	chMtxUnlock
 1460              	.LVL175:
 1461              	.L115:
 1462              		.align	2
 1463              	.L114:
 1464 0020 00000000 		.word	.LANCHOR0
 1465              		.cfi_endproc
 1466              	.LFE314:
 1467              		.size	chFactoryReleaseObjectsFIFO, .-chFactoryReleaseObjectsFIFO
 1468              		.global	ch_factory
 1469              		.section	.bss.ch_factory,"aw",%nobits
 1470              		.align	2
 1471              		.set	.LANCHOR0,. + 0
 1472              		.type	ch_factory, %object
 1473              		.size	ch_factory, 68
 1474              	ch_factory:
 1475 0000 00000000 		.space	68
 1475      00000000 
 1475      00000000 
 1475      00000000 
 1475      00000000 
 1476              		.text
 1477              	.Letext0:
 1478              		.file 6 "/usr/lib/gcc/arm-none-eabi/4.9.3/include/stddef.h"
ARM GAS  /tmp/ccG8oNPt.s 			page 27


 1479              		.file 7 "/usr/include/newlib/machine/_default_types.h"
 1480              		.file 8 "/usr/include/newlib/sys/_stdint.h"
 1481              		.file 9 "../../modules/ChibiOS/os/common/ports/ARMCMx/compilers/GCC/chtypes.h"
 1482              		.file 10 "../../modules/ChibiOS/os/rt/include/chsystypes.h"
 1483              		.file 11 "../../modules/ChibiOS/os/rt/include/chschd.h"
 1484              		.file 12 "../../modules/ChibiOS/os/rt/include/chtime.h"
 1485              		.file 13 "../../modules/ChibiOS/os/common/ports/ARMCMx/chcore.h"
 1486              		.file 14 "../../modules/ChibiOS/os/common/ports/ARMCMx/chcore_v7m.h"
 1487              		.file 15 "../../modules/ChibiOS/os/rt/include/chtm.h"
 1488              		.file 16 "../../modules/ChibiOS/os/rt/include/chstats.h"
 1489              		.file 17 "../../modules/ChibiOS/os/rt/include/chsem.h"
 1490              		.file 18 "../../modules/ChibiOS/os/rt/include/chmtx.h"
 1491              		.file 19 "../../modules/ChibiOS/os/oslib/include/chmboxes.h"
 1492              		.file 20 "../../modules/ChibiOS/os/oslib/include/chfactory.h"
 1493              		.file 21 "../../modules/ChibiOS/os/common/ext/ARM/CMSIS/Core/Include/core_cm4.h"
 1494              		.file 22 "/usr/include/newlib/string.h"