ARM GAS  /tmp/ccjFFBsB.s 			page 1


   1              		.syntax unified
   2              		.cpu cortex-m4
   3              		.eabi_attribute 27, 1
   4              		.eabi_attribute 28, 1
   5              		.fpu fpv4-sp-d16
   6              		.eabi_attribute 20, 1
   7              		.eabi_attribute 21, 1
   8              		.eabi_attribute 23, 3
   9              		.eabi_attribute 24, 1
  10              		.eabi_attribute 25, 1
  11              		.eabi_attribute 26, 1
  12              		.eabi_attribute 30, 4
  13              		.eabi_attribute 34, 1
  14              		.eabi_attribute 18, 4
  15              		.thumb
  16              		.file	"chmboxes.c"
  17              		.text
  18              	.Ltext0:
  19              		.cfi_sections	.debug_frame
  20              		.section	.text.chMBObjectInit,"ax",%progbits
  21              		.align	1
  22              		.global	chMBObjectInit
  23              		.thumb
  24              		.thumb_func
  25              		.type	chMBObjectInit, %function
  26              	chMBObjectInit:
  27              	.LFB290:
  28              		.file 1 "../../modules/ChibiOS/os/oslib/src/chmboxes.c"
  29              		.loc 1 87 0
  30              		.cfi_startproc
  31              		@ args = 0, pretend = 0, frame = 0
  32              		@ frame_needed = 0, uses_anonymous_args = 0
  33              		@ link register save eliminated.
  34              	.LVL0:
  35              		.loc 1 95 0
  36 0000 0023     		movs	r3, #0
  37 0002 0361     		str	r3, [r0, #16]
  38              		.loc 1 96 0
  39 0004 0375     		strb	r3, [r0, #20]
  40              		.loc 1 97 0
  41 0006 00F11803 		add	r3, r0, #24
  42              	.LVL1:
  43              		.loc 1 94 0
  44 000a 01EB8202 		add	r2, r1, r2, lsl #2
  45              	.LVL2:
  46              	.LBB32:
  47              	.LBB33:
  48              	.LBB34:
  49              		.file 2 "../../modules/ChibiOS/os/rt/include/chschd.h"
  50              		.loc 2 539 0
  51 000e 8361     		str	r3, [r0, #24]
  52              		.loc 2 540 0
  53 0010 C361     		str	r3, [r0, #28]
  54              	.LBE34:
  55              	.LBE33:
  56              	.LBE32:
  57              		.loc 1 98 0
ARM GAS  /tmp/ccjFFBsB.s 			page 2


  58 0012 00F12003 		add	r3, r0, #32
  59              	.LVL3:
  60              		.loc 1 91 0
  61 0016 0160     		str	r1, [r0]
  62              		.loc 1 92 0
  63 0018 C160     		str	r1, [r0, #12]
  64              		.loc 1 93 0
  65 001a 8160     		str	r1, [r0, #8]
  66              		.loc 1 94 0
  67 001c 4260     		str	r2, [r0, #4]
  68              	.LBB35:
  69              	.LBB36:
  70              	.LBB37:
  71              		.loc 2 539 0
  72 001e 0362     		str	r3, [r0, #32]
  73              		.loc 2 540 0
  74 0020 4362     		str	r3, [r0, #36]
  75 0022 7047     		bx	lr
  76              	.LBE37:
  77              	.LBE36:
  78              	.LBE35:
  79              		.cfi_endproc
  80              	.LFE290:
  81              		.size	chMBObjectInit, .-chMBObjectInit
  82              		.section	.text.chMBResetI,"ax",%progbits
  83              		.align	1
  84              		.global	chMBResetI
  85              		.thumb
  86              		.thumb_func
  87              		.type	chMBResetI, %function
  88              	chMBResetI:
  89              	.LFB292:
  90              		.loc 1 133 0
  91              		.cfi_startproc
  92              		@ args = 0, pretend = 0, frame = 0
  93              		@ frame_needed = 0, uses_anonymous_args = 0
  94              	.LVL4:
  95 0000 10B5     		push	{r4, lr}
  96              		.cfi_def_cfa_offset 8
  97              		.cfi_offset 4, -8
  98              		.cfi_offset 14, -4
  99              		.loc 1 138 0
 100 0002 0368     		ldr	r3, [r0]
 101 0004 8360     		str	r3, [r0, #8]
 102              		.loc 1 139 0
 103 0006 C360     		str	r3, [r0, #12]
 104              		.loc 1 140 0
 105 0008 0023     		movs	r3, #0
 106 000a 0361     		str	r3, [r0, #16]
 107              		.loc 1 141 0
 108 000c 0123     		movs	r3, #1
 109              		.loc 1 133 0
 110 000e 0446     		mov	r4, r0
 111              		.loc 1 141 0
 112 0010 0375     		strb	r3, [r0, #20]
 113              		.loc 1 142 0
 114 0012 6FF00101 		mvn	r1, #1
ARM GAS  /tmp/ccjFFBsB.s 			page 3


 115 0016 1830     		adds	r0, r0, #24
 116              	.LVL5:
 117 0018 FFF7FEFF 		bl	chThdDequeueAllI
 118              	.LVL6:
 119              		.loc 1 143 0
 120 001c 04F12000 		add	r0, r4, #32
 121 0020 6FF00101 		mvn	r1, #1
 122              		.loc 1 144 0
 123 0024 BDE81040 		pop	{r4, lr}
 124              		.cfi_restore 14
 125              		.cfi_restore 4
 126              		.cfi_def_cfa_offset 0
 127              	.LVL7:
 128              		.loc 1 143 0
 129 0028 FFF7FEBF 		b	chThdDequeueAllI
 130              	.LVL8:
 131              		.cfi_endproc
 132              	.LFE292:
 133              		.size	chMBResetI, .-chMBResetI
 134              		.section	.text.chMBReset,"ax",%progbits
 135              		.align	1
 136              		.global	chMBReset
 137              		.thumb
 138              		.thumb_func
 139              		.type	chMBReset, %function
 140              	chMBReset:
 141              	.LFB291:
 142              		.loc 1 113 0
 143              		.cfi_startproc
 144              		@ args = 0, pretend = 0, frame = 0
 145              		@ frame_needed = 0, uses_anonymous_args = 0
 146              	.LVL9:
 147 0000 10B5     		push	{r4, lr}
 148              		.cfi_def_cfa_offset 8
 149              		.cfi_offset 4, -8
 150              		.cfi_offset 14, -4
 151              	.LBB48:
 152              	.LBB49:
 153              	.LBB50:
 154              	.LBB51:
 155              	.LBB52:
 156              		.file 3 "../../modules/ChibiOS/os/common/ext/ARM/CMSIS/Core/Include/cmsis_gcc.h"
 157              		.loc 3 493 0
 158 0002 2023     		movs	r3, #32
 159              	.LBE52:
 160              	.LBE51:
 161              	.LBE50:
 162              	.LBE49:
 163              	.LBE48:
 164              		.loc 1 113 0
 165 0004 0446     		mov	r4, r0
 166              	.LBB57:
 167              	.LBB56:
 168              	.LBB55:
 169              	.LBB54:
 170              	.LBB53:
 171              		.loc 3 493 0
ARM GAS  /tmp/ccjFFBsB.s 			page 4


 172              	@ 493 "../../modules/ChibiOS/os/common/ext/ARM/CMSIS/Core/Include/cmsis_gcc.h" 1
 173 0006 83F31188 		MSR basepri, r3
 174              	@ 0 "" 2
 175              		.thumb
 176              	.LBE53:
 177              	.LBE54:
 178              	.LBE55:
 179              		.file 4 "../../modules/ChibiOS/os/rt/include/chsys.h"
 180              		.loc 4 356 0
 181 000a FFF7FEFF 		bl	_stats_start_measure_crit_thd
 182              	.LVL10:
 183              	.LBE56:
 184              	.LBE57:
 185              		.loc 1 116 0
 186 000e 2046     		mov	r0, r4
 187 0010 FFF7FEFF 		bl	chMBResetI
 188              	.LVL11:
 189              		.loc 1 117 0
 190 0014 FFF7FEFF 		bl	chSchRescheduleS
 191              	.LVL12:
 192              	.LBB58:
 193              	.LBB59:
 194              		.loc 4 368 0
 195 0018 FFF7FEFF 		bl	_stats_stop_measure_crit_thd
 196              	.LVL13:
 197              	.LBB60:
 198              	.LBB61:
 199              	.LBB62:
 200              		.loc 3 493 0
 201 001c 0023     		movs	r3, #0
 202              	@ 493 "../../modules/ChibiOS/os/common/ext/ARM/CMSIS/Core/Include/cmsis_gcc.h" 1
 203 001e 83F31188 		MSR basepri, r3
 204              	@ 0 "" 2
 205              		.thumb
 206 0022 10BD     		pop	{r4, pc}
 207              	.LBE62:
 208              	.LBE61:
 209              	.LBE60:
 210              	.LBE59:
 211              	.LBE58:
 212              		.cfi_endproc
 213              	.LFE291:
 214              		.size	chMBReset, .-chMBReset
 215              		.section	.text.chMBPostTimeoutS,"ax",%progbits
 216              		.align	1
 217              		.global	chMBPostTimeoutS
 218              		.thumb
 219              		.thumb_func
 220              		.type	chMBPostTimeoutS, %function
 221              	chMBPostTimeoutS:
 222              	.LFB294:
 223              		.loc 1 194 0
 224              		.cfi_startproc
 225              		@ args = 0, pretend = 0, frame = 0
 226              		@ frame_needed = 0, uses_anonymous_args = 0
 227              	.LVL14:
 228 0000 70B5     		push	{r4, r5, r6, lr}
ARM GAS  /tmp/ccjFFBsB.s 			page 5


 229              		.cfi_def_cfa_offset 16
 230              		.cfi_offset 4, -16
 231              		.cfi_offset 5, -12
 232              		.cfi_offset 6, -8
 233              		.cfi_offset 14, -4
 234 0002 0446     		mov	r4, r0
 235 0004 0E46     		mov	r6, r1
 236 0006 1546     		mov	r5, r2
 237              	.LVL15:
 238              	.L8:
 239              		.loc 1 202 0
 240 0008 237D     		ldrb	r3, [r4, #20]	@ zero_extendqisi2
 241 000a 0BBB     		cbnz	r3, .L9
 242              	.LVL16:
 243              	.LBB69:
 244              	.LBB70:
 245              	.LBB71:
 246              		.file 5 "../../modules/ChibiOS/os/oslib/include/chmboxes.h"
 247              		.loc 5 140 0
 248 000c 6068     		ldr	r0, [r4, #4]
 249 000e 2168     		ldr	r1, [r4]
 250 0010 2369     		ldr	r3, [r4, #16]
 251              	.LVL17:
 252 0012 421A     		subs	r2, r0, r1
 253              	.LBE71:
 254              	.LBE70:
 255              	.LBE69:
 256              		.loc 1 207 0
 257 0014 B3EBA20F 		cmp	r3, r2, asr #2
 258 0018 12D0     		beq	.L6
 259              	.LVL18:
 260              	.LBB72:
 261              	.LBB73:
 262              		.loc 1 208 0
 263 001a A568     		ldr	r5, [r4, #8]
 264              	.LVL19:
 265 001c 2A1D     		adds	r2, r5, #4
 266              		.loc 1 209 0
 267 001e 8242     		cmp	r2, r0
 268              		.loc 1 212 0
 269 0020 03F10103 		add	r3, r3, #1
 270              		.loc 1 208 0
 271 0024 A260     		str	r2, [r4, #8]
 272              		.loc 1 215 0
 273 0026 04F12000 		add	r0, r4, #32
 274              		.loc 1 208 0
 275 002a 2E60     		str	r6, [r5]
 276              		.loc 1 210 0
 277 002c 28BF     		it	cs
 278 002e A160     		strcs	r1, [r4, #8]
 279              		.loc 1 212 0
 280 0030 2361     		str	r3, [r4, #16]
 281              		.loc 1 215 0
 282 0032 0021     		movs	r1, #0
 283 0034 FFF7FEFF 		bl	chThdDequeueNextI
 284              	.LVL20:
 285              		.loc 1 216 0
ARM GAS  /tmp/ccjFFBsB.s 			page 6


 286 0038 FFF7FEFF 		bl	chSchRescheduleS
 287              	.LVL21:
 288 003c 0020     		movs	r0, #0
 289 003e 70BD     		pop	{r4, r5, r6, pc}
 290              	.LVL22:
 291              	.L6:
 292              	.LBE73:
 293              	.LBE72:
 294              		.loc 1 222 0
 295 0040 04F11800 		add	r0, r4, #24
 296 0044 2946     		mov	r1, r5
 297 0046 FFF7FEFF 		bl	chThdEnqueueTimeoutS
 298              	.LVL23:
 299              		.loc 1 223 0
 300 004a 0028     		cmp	r0, #0
 301 004c DCD0     		beq	.L8
 302 004e 70BD     		pop	{r4, r5, r6, pc}
 303              	.LVL24:
 304              	.L9:
 305              		.loc 1 203 0
 306 0050 6FF00100 		mvn	r0, #1
 307              		.loc 1 226 0
 308 0054 70BD     		pop	{r4, r5, r6, pc}
 309              		.cfi_endproc
 310              	.LFE294:
 311              		.size	chMBPostTimeoutS, .-chMBPostTimeoutS
 312              		.section	.text.chMBPostTimeout,"ax",%progbits
 313              		.align	1
 314              		.global	chMBPostTimeout
 315              		.thumb
 316              		.thumb_func
 317              		.type	chMBPostTimeout, %function
 318              	chMBPostTimeout:
 319              	.LFB293:
 320              		.loc 1 165 0
 321              		.cfi_startproc
 322              		@ args = 0, pretend = 0, frame = 0
 323              		@ frame_needed = 0, uses_anonymous_args = 0
 324              	.LVL25:
 325 0000 70B5     		push	{r4, r5, r6, lr}
 326              		.cfi_def_cfa_offset 16
 327              		.cfi_offset 4, -16
 328              		.cfi_offset 5, -12
 329              		.cfi_offset 6, -8
 330              		.cfi_offset 14, -4
 331              	.LBB84:
 332              	.LBB85:
 333              	.LBB86:
 334              	.LBB87:
 335              	.LBB88:
 336              		.loc 3 493 0
 337 0002 2023     		movs	r3, #32
 338              	.LBE88:
 339              	.LBE87:
 340              	.LBE86:
 341              	.LBE85:
 342              	.LBE84:
ARM GAS  /tmp/ccjFFBsB.s 			page 7


 343              		.loc 1 165 0
 344 0004 0646     		mov	r6, r0
 345 0006 0D46     		mov	r5, r1
 346 0008 1446     		mov	r4, r2
 347              	.LBB93:
 348              	.LBB92:
 349              	.LBB91:
 350              	.LBB90:
 351              	.LBB89:
 352              		.loc 3 493 0
 353              	@ 493 "../../modules/ChibiOS/os/common/ext/ARM/CMSIS/Core/Include/cmsis_gcc.h" 1
 354 000a 83F31188 		MSR basepri, r3
 355              	@ 0 "" 2
 356              		.thumb
 357              	.LBE89:
 358              	.LBE90:
 359              	.LBE91:
 360              		.loc 4 356 0
 361 000e FFF7FEFF 		bl	_stats_start_measure_crit_thd
 362              	.LVL26:
 363              	.LBE92:
 364              	.LBE93:
 365              		.loc 1 169 0
 366 0012 2246     		mov	r2, r4
 367 0014 2946     		mov	r1, r5
 368 0016 3046     		mov	r0, r6
 369 0018 FFF7FEFF 		bl	chMBPostTimeoutS
 370              	.LVL27:
 371 001c 0446     		mov	r4, r0
 372              	.LVL28:
 373              	.LBB94:
 374              	.LBB95:
 375              		.loc 4 368 0
 376 001e FFF7FEFF 		bl	_stats_stop_measure_crit_thd
 377              	.LVL29:
 378              	.LBB96:
 379              	.LBB97:
 380              	.LBB98:
 381              		.loc 3 493 0
 382 0022 0023     		movs	r3, #0
 383              	@ 493 "../../modules/ChibiOS/os/common/ext/ARM/CMSIS/Core/Include/cmsis_gcc.h" 1
 384 0024 83F31188 		MSR basepri, r3
 385              	@ 0 "" 2
 386              		.thumb
 387              	.LBE98:
 388              	.LBE97:
 389              	.LBE96:
 390              	.LBE95:
 391              	.LBE94:
 392              		.loc 1 173 0
 393 0028 2046     		mov	r0, r4
 394 002a 70BD     		pop	{r4, r5, r6, pc}
 395              		.cfi_endproc
 396              	.LFE293:
 397              		.size	chMBPostTimeout, .-chMBPostTimeout
 398              		.section	.text.chMBPostI,"ax",%progbits
 399              		.align	1
ARM GAS  /tmp/ccjFFBsB.s 			page 8


 400              		.global	chMBPostI
 401              		.thumb
 402              		.thumb_func
 403              		.type	chMBPostI, %function
 404              	chMBPostI:
 405              	.LFB295:
 406              		.loc 1 243 0
 407              		.cfi_startproc
 408              		@ args = 0, pretend = 0, frame = 0
 409              		@ frame_needed = 0, uses_anonymous_args = 0
 410              	.LVL30:
 411              		.loc 1 249 0
 412 0000 037D     		ldrb	r3, [r0, #20]	@ zero_extendqisi2
 413              		.loc 1 243 0
 414 0002 70B5     		push	{r4, r5, r6, lr}
 415              		.cfi_def_cfa_offset 16
 416              		.cfi_offset 4, -16
 417              		.cfi_offset 5, -12
 418              		.cfi_offset 6, -8
 419              		.cfi_offset 14, -4
 420              		.loc 1 249 0
 421 0004 CBB9     		cbnz	r3, .L17
 422              	.LVL31:
 423              	.LBB103:
 424              	.LBB104:
 425              	.LBB105:
 426              		.loc 5 140 0
 427 0006 90E81400 		ldmia	r0, {r2, r4}
 428 000a 0369     		ldr	r3, [r0, #16]
 429              	.LVL32:
 430 000c A51A     		subs	r5, r4, r2
 431              	.LBE105:
 432              	.LBE104:
 433              	.LBE103:
 434              		.loc 1 254 0
 435 000e B3EBA50F 		cmp	r3, r5, asr #2
 436 0012 15D0     		beq	.L18
 437              		.loc 1 255 0
 438 0014 8668     		ldr	r6, [r0, #8]
 439 0016 351D     		adds	r5, r6, #4
 440              		.loc 1 256 0
 441 0018 A542     		cmp	r5, r4
 442              		.loc 1 259 0
 443 001a 03F10103 		add	r3, r3, #1
 444              		.loc 1 255 0
 445 001e 8560     		str	r5, [r0, #8]
 446 0020 3160     		str	r1, [r6]
 447              		.loc 1 262 0
 448 0022 00F12000 		add	r0, r0, #32
 449              	.LVL33:
 450              		.loc 1 257 0
 451 0026 28BF     		it	cs
 452 0028 40F8182C 		strcs	r2, [r0, #-24]
 453              		.loc 1 259 0
 454 002c 40F8103C 		str	r3, [r0, #-16]
 455              		.loc 1 262 0
 456 0030 0021     		movs	r1, #0
ARM GAS  /tmp/ccjFFBsB.s 			page 9


 457              	.LVL34:
 458 0032 FFF7FEFF 		bl	chThdDequeueNextI
 459              	.LVL35:
 460              		.loc 1 264 0
 461 0036 0020     		movs	r0, #0
 462 0038 70BD     		pop	{r4, r5, r6, pc}
 463              	.LVL36:
 464              	.L17:
 465              		.loc 1 250 0
 466 003a 6FF00100 		mvn	r0, #1
 467              	.LVL37:
 468 003e 70BD     		pop	{r4, r5, r6, pc}
 469              	.LVL38:
 470              	.L18:
 471              		.loc 1 268 0
 472 0040 4FF0FF30 		mov	r0, #-1
 473              	.LVL39:
 474              		.loc 1 269 0
 475 0044 70BD     		pop	{r4, r5, r6, pc}
 476              		.cfi_endproc
 477              	.LFE295:
 478              		.size	chMBPostI, .-chMBPostI
 479              		.section	.text.chMBPostAheadTimeoutS,"ax",%progbits
 480              		.align	1
 481              		.global	chMBPostAheadTimeoutS
 482              		.thumb
 483              		.thumb_func
 484              		.type	chMBPostAheadTimeoutS, %function
 485              	chMBPostAheadTimeoutS:
 486              	.LFB297:
 487              		.loc 1 319 0
 488              		.cfi_startproc
 489              		@ args = 0, pretend = 0, frame = 0
 490              		@ frame_needed = 0, uses_anonymous_args = 0
 491              	.LVL40:
 492 0000 70B5     		push	{r4, r5, r6, lr}
 493              		.cfi_def_cfa_offset 16
 494              		.cfi_offset 4, -16
 495              		.cfi_offset 5, -12
 496              		.cfi_offset 6, -8
 497              		.cfi_offset 14, -4
 498 0002 0446     		mov	r4, r0
 499 0004 0D46     		mov	r5, r1
 500 0006 1646     		mov	r6, r2
 501              	.LVL41:
 502              	.L24:
 503              		.loc 1 327 0
 504 0008 237D     		ldrb	r3, [r4, #20]	@ zero_extendqisi2
 505 000a 13BB     		cbnz	r3, .L25
 506              	.LVL42:
 507              	.LBB112:
 508              	.LBB113:
 509              	.LBB114:
 510              		.loc 5 140 0
 511 000c 94E80300 		ldmia	r4, {r0, r1}
 512 0010 2369     		ldr	r3, [r4, #16]
 513              	.LVL43:
ARM GAS  /tmp/ccjFFBsB.s 			page 10


 514 0012 0A1A     		subs	r2, r1, r0
 515              	.LBE114:
 516              	.LBE113:
 517              	.LBE112:
 518              		.loc 1 332 0
 519 0014 B3EBA20F 		cmp	r3, r2, asr #2
 520 0018 13D0     		beq	.L21
 521              	.LVL44:
 522              	.LBB115:
 523              	.LBB116:
 524              		.loc 1 333 0
 525 001a E268     		ldr	r2, [r4, #12]
 526 001c 043A     		subs	r2, r2, #4
 527 001e 8242     		cmp	r2, r0
 528              		.loc 1 334 0
 529 0020 3ABF     		itte	cc
 530 0022 0439     		subcc	r1, r1, #4
 531 0024 E160     		strcc	r1, [r4, #12]
 532              		.loc 1 333 0
 533 0026 E260     		strcs	r2, [r4, #12]
 534              		.loc 1 336 0
 535 0028 E268     		ldr	r2, [r4, #12]
 536              		.loc 1 337 0
 537 002a 0133     		adds	r3, r3, #1
 538              		.loc 1 336 0
 539 002c 1560     		str	r5, [r2]
 540              		.loc 1 340 0
 541 002e 04F12000 		add	r0, r4, #32
 542              		.loc 1 337 0
 543 0032 2361     		str	r3, [r4, #16]
 544              		.loc 1 340 0
 545 0034 0021     		movs	r1, #0
 546 0036 FFF7FEFF 		bl	chThdDequeueNextI
 547              	.LVL45:
 548              		.loc 1 341 0
 549 003a FFF7FEFF 		bl	chSchRescheduleS
 550              	.LVL46:
 551 003e 0020     		movs	r0, #0
 552 0040 70BD     		pop	{r4, r5, r6, pc}
 553              	.LVL47:
 554              	.L21:
 555              	.LBE116:
 556              	.LBE115:
 557              		.loc 1 347 0
 558 0042 04F11800 		add	r0, r4, #24
 559 0046 3146     		mov	r1, r6
 560 0048 FFF7FEFF 		bl	chThdEnqueueTimeoutS
 561              	.LVL48:
 562              		.loc 1 348 0
 563 004c 0028     		cmp	r0, #0
 564 004e DBD0     		beq	.L24
 565 0050 70BD     		pop	{r4, r5, r6, pc}
 566              	.LVL49:
 567              	.L25:
 568              		.loc 1 328 0
 569 0052 6FF00100 		mvn	r0, #1
 570              		.loc 1 351 0
ARM GAS  /tmp/ccjFFBsB.s 			page 11


 571 0056 70BD     		pop	{r4, r5, r6, pc}
 572              		.cfi_endproc
 573              	.LFE297:
 574              		.size	chMBPostAheadTimeoutS, .-chMBPostAheadTimeoutS
 575              		.section	.text.chMBPostAheadTimeout,"ax",%progbits
 576              		.align	1
 577              		.global	chMBPostAheadTimeout
 578              		.thumb
 579              		.thumb_func
 580              		.type	chMBPostAheadTimeout, %function
 581              	chMBPostAheadTimeout:
 582              	.LFB296:
 583              		.loc 1 290 0
 584              		.cfi_startproc
 585              		@ args = 0, pretend = 0, frame = 0
 586              		@ frame_needed = 0, uses_anonymous_args = 0
 587              	.LVL50:
 588 0000 70B5     		push	{r4, r5, r6, lr}
 589              		.cfi_def_cfa_offset 16
 590              		.cfi_offset 4, -16
 591              		.cfi_offset 5, -12
 592              		.cfi_offset 6, -8
 593              		.cfi_offset 14, -4
 594              	.LBB127:
 595              	.LBB128:
 596              	.LBB129:
 597              	.LBB130:
 598              	.LBB131:
 599              		.loc 3 493 0
 600 0002 2023     		movs	r3, #32
 601              	.LBE131:
 602              	.LBE130:
 603              	.LBE129:
 604              	.LBE128:
 605              	.LBE127:
 606              		.loc 1 290 0
 607 0004 0646     		mov	r6, r0
 608 0006 0D46     		mov	r5, r1
 609 0008 1446     		mov	r4, r2
 610              	.LBB136:
 611              	.LBB135:
 612              	.LBB134:
 613              	.LBB133:
 614              	.LBB132:
 615              		.loc 3 493 0
 616              	@ 493 "../../modules/ChibiOS/os/common/ext/ARM/CMSIS/Core/Include/cmsis_gcc.h" 1
 617 000a 83F31188 		MSR basepri, r3
 618              	@ 0 "" 2
 619              		.thumb
 620              	.LBE132:
 621              	.LBE133:
 622              	.LBE134:
 623              		.loc 4 356 0
 624 000e FFF7FEFF 		bl	_stats_start_measure_crit_thd
 625              	.LVL51:
 626              	.LBE135:
 627              	.LBE136:
ARM GAS  /tmp/ccjFFBsB.s 			page 12


 628              		.loc 1 294 0
 629 0012 2246     		mov	r2, r4
 630 0014 2946     		mov	r1, r5
 631 0016 3046     		mov	r0, r6
 632 0018 FFF7FEFF 		bl	chMBPostAheadTimeoutS
 633              	.LVL52:
 634 001c 0446     		mov	r4, r0
 635              	.LVL53:
 636              	.LBB137:
 637              	.LBB138:
 638              		.loc 4 368 0
 639 001e FFF7FEFF 		bl	_stats_stop_measure_crit_thd
 640              	.LVL54:
 641              	.LBB139:
 642              	.LBB140:
 643              	.LBB141:
 644              		.loc 3 493 0
 645 0022 0023     		movs	r3, #0
 646              	@ 493 "../../modules/ChibiOS/os/common/ext/ARM/CMSIS/Core/Include/cmsis_gcc.h" 1
 647 0024 83F31188 		MSR basepri, r3
 648              	@ 0 "" 2
 649              		.thumb
 650              	.LBE141:
 651              	.LBE140:
 652              	.LBE139:
 653              	.LBE138:
 654              	.LBE137:
 655              		.loc 1 298 0
 656 0028 2046     		mov	r0, r4
 657 002a 70BD     		pop	{r4, r5, r6, pc}
 658              		.cfi_endproc
 659              	.LFE296:
 660              		.size	chMBPostAheadTimeout, .-chMBPostAheadTimeout
 661              		.section	.text.chMBPostAheadI,"ax",%progbits
 662              		.align	1
 663              		.global	chMBPostAheadI
 664              		.thumb
 665              		.thumb_func
 666              		.type	chMBPostAheadI, %function
 667              	chMBPostAheadI:
 668              	.LFB298:
 669              		.loc 1 368 0
 670              		.cfi_startproc
 671              		@ args = 0, pretend = 0, frame = 0
 672              		@ frame_needed = 0, uses_anonymous_args = 0
 673              	.LVL55:
 674 0000 38B5     		push	{r3, r4, r5, lr}
 675              		.cfi_def_cfa_offset 16
 676              		.cfi_offset 3, -16
 677              		.cfi_offset 4, -12
 678              		.cfi_offset 5, -8
 679              		.cfi_offset 14, -4
 680              		.loc 1 374 0
 681 0002 037D     		ldrb	r3, [r0, #20]	@ zero_extendqisi2
 682 0004 C3B9     		cbnz	r3, .L33
 683              	.LVL56:
 684              	.LBB146:
ARM GAS  /tmp/ccjFFBsB.s 			page 13


 685              	.LBB147:
 686              	.LBB148:
 687              		.loc 5 140 0
 688 0006 4268     		ldr	r2, [r0, #4]
 689 0008 0568     		ldr	r5, [r0]
 690 000a 0369     		ldr	r3, [r0, #16]
 691              	.LVL57:
 692 000c 541B     		subs	r4, r2, r5
 693              	.LBE148:
 694              	.LBE147:
 695              	.LBE146:
 696              		.loc 1 379 0
 697 000e B3EBA40F 		cmp	r3, r4, asr #2
 698 0012 14D0     		beq	.L34
 699              		.loc 1 380 0
 700 0014 C468     		ldr	r4, [r0, #12]
 701 0016 043C     		subs	r4, r4, #4
 702 0018 AC42     		cmp	r4, r5
 703              		.loc 1 381 0
 704 001a 36BF     		itet	cc
 705 001c 043A     		subcc	r2, r2, #4
 706              		.loc 1 380 0
 707 001e C460     		strcs	r4, [r0, #12]
 708              		.loc 1 381 0
 709 0020 C260     		strcc	r2, [r0, #12]
 710              		.loc 1 383 0
 711 0022 C268     		ldr	r2, [r0, #12]
 712              		.loc 1 384 0
 713 0024 0133     		adds	r3, r3, #1
 714              		.loc 1 383 0
 715 0026 1160     		str	r1, [r2]
 716              		.loc 1 387 0
 717 0028 2030     		adds	r0, r0, #32
 718              	.LVL58:
 719              		.loc 1 384 0
 720 002a 40F8103C 		str	r3, [r0, #-16]
 721              		.loc 1 387 0
 722 002e 0021     		movs	r1, #0
 723              	.LVL59:
 724 0030 FFF7FEFF 		bl	chThdDequeueNextI
 725              	.LVL60:
 726              		.loc 1 389 0
 727 0034 0020     		movs	r0, #0
 728 0036 38BD     		pop	{r3, r4, r5, pc}
 729              	.LVL61:
 730              	.L33:
 731              		.loc 1 375 0
 732 0038 6FF00100 		mvn	r0, #1
 733              	.LVL62:
 734 003c 38BD     		pop	{r3, r4, r5, pc}
 735              	.LVL63:
 736              	.L34:
 737              		.loc 1 393 0
 738 003e 4FF0FF30 		mov	r0, #-1
 739              	.LVL64:
 740              		.loc 1 394 0
 741 0042 38BD     		pop	{r3, r4, r5, pc}
ARM GAS  /tmp/ccjFFBsB.s 			page 14


 742              		.cfi_endproc
 743              	.LFE298:
 744              		.size	chMBPostAheadI, .-chMBPostAheadI
 745              		.section	.text.chMBFetchTimeoutS,"ax",%progbits
 746              		.align	1
 747              		.global	chMBFetchTimeoutS
 748              		.thumb
 749              		.thumb_func
 750              		.type	chMBFetchTimeoutS, %function
 751              	chMBFetchTimeoutS:
 752              	.LFB300:
 753              		.loc 1 444 0
 754              		.cfi_startproc
 755              		@ args = 0, pretend = 0, frame = 0
 756              		@ frame_needed = 0, uses_anonymous_args = 0
 757              	.LVL65:
 758 0000 70B5     		push	{r4, r5, r6, lr}
 759              		.cfi_def_cfa_offset 16
 760              		.cfi_offset 4, -16
 761              		.cfi_offset 5, -12
 762              		.cfi_offset 6, -8
 763              		.cfi_offset 14, -4
 764 0002 0446     		mov	r4, r0
 765 0004 0E46     		mov	r6, r1
 766 0006 1546     		mov	r5, r2
 767              	.LVL66:
 768              	.L39:
 769              		.loc 1 452 0
 770 0008 237D     		ldrb	r3, [r4, #20]	@ zero_extendqisi2
 771 000a F3B9     		cbnz	r3, .L40
 772 000c 2369     		ldr	r3, [r4, #16]
 773              	.LVL67:
 774              		.loc 1 457 0
 775 000e A3B1     		cbz	r3, .L37
 776              		.loc 1 458 0
 777 0010 E168     		ldr	r1, [r4, #12]
 778 0012 0A1D     		adds	r2, r1, #4
 779 0014 0968     		ldr	r1, [r1]
 780 0016 E260     		str	r2, [r4, #12]
 781 0018 3160     		str	r1, [r6]
 782              		.loc 1 459 0
 783 001a 6168     		ldr	r1, [r4, #4]
 784 001c 8A42     		cmp	r2, r1
 785              		.loc 1 460 0
 786 001e 24BF     		itt	cs
 787 0020 2268     		ldrcs	r2, [r4]
 788 0022 E260     		strcs	r2, [r4, #12]
 789              		.loc 1 462 0
 790 0024 013B     		subs	r3, r3, #1
 791              		.loc 1 465 0
 792 0026 04F11800 		add	r0, r4, #24
 793              		.loc 1 462 0
 794 002a 2361     		str	r3, [r4, #16]
 795              		.loc 1 465 0
 796 002c 0021     		movs	r1, #0
 797 002e FFF7FEFF 		bl	chThdDequeueNextI
 798              	.LVL68:
ARM GAS  /tmp/ccjFFBsB.s 			page 15


 799              		.loc 1 466 0
 800 0032 FFF7FEFF 		bl	chSchRescheduleS
 801              	.LVL69:
 802              		.loc 1 468 0
 803 0036 0020     		movs	r0, #0
 804 0038 70BD     		pop	{r4, r5, r6, pc}
 805              	.LVL70:
 806              	.L37:
 807              		.loc 1 472 0
 808 003a 04F12000 		add	r0, r4, #32
 809 003e 2946     		mov	r1, r5
 810 0040 FFF7FEFF 		bl	chThdEnqueueTimeoutS
 811              	.LVL71:
 812              		.loc 1 473 0
 813 0044 0028     		cmp	r0, #0
 814 0046 DFD0     		beq	.L39
 815 0048 70BD     		pop	{r4, r5, r6, pc}
 816              	.LVL72:
 817              	.L40:
 818              		.loc 1 453 0
 819 004a 6FF00100 		mvn	r0, #1
 820              		.loc 1 476 0
 821 004e 70BD     		pop	{r4, r5, r6, pc}
 822              		.cfi_endproc
 823              	.LFE300:
 824              		.size	chMBFetchTimeoutS, .-chMBFetchTimeoutS
 825              		.section	.text.chMBFetchTimeout,"ax",%progbits
 826              		.align	1
 827              		.global	chMBFetchTimeout
 828              		.thumb
 829              		.thumb_func
 830              		.type	chMBFetchTimeout, %function
 831              	chMBFetchTimeout:
 832              	.LFB299:
 833              		.loc 1 415 0
 834              		.cfi_startproc
 835              		@ args = 0, pretend = 0, frame = 0
 836              		@ frame_needed = 0, uses_anonymous_args = 0
 837              	.LVL73:
 838 0000 70B5     		push	{r4, r5, r6, lr}
 839              		.cfi_def_cfa_offset 16
 840              		.cfi_offset 4, -16
 841              		.cfi_offset 5, -12
 842              		.cfi_offset 6, -8
 843              		.cfi_offset 14, -4
 844              	.LBB159:
 845              	.LBB160:
 846              	.LBB161:
 847              	.LBB162:
 848              	.LBB163:
 849              		.loc 3 493 0
 850 0002 2023     		movs	r3, #32
 851              	.LBE163:
 852              	.LBE162:
 853              	.LBE161:
 854              	.LBE160:
 855              	.LBE159:
ARM GAS  /tmp/ccjFFBsB.s 			page 16


 856              		.loc 1 415 0
 857 0004 0646     		mov	r6, r0
 858 0006 0D46     		mov	r5, r1
 859 0008 1446     		mov	r4, r2
 860              	.LBB168:
 861              	.LBB167:
 862              	.LBB166:
 863              	.LBB165:
 864              	.LBB164:
 865              		.loc 3 493 0
 866              	@ 493 "../../modules/ChibiOS/os/common/ext/ARM/CMSIS/Core/Include/cmsis_gcc.h" 1
 867 000a 83F31188 		MSR basepri, r3
 868              	@ 0 "" 2
 869              		.thumb
 870              	.LBE164:
 871              	.LBE165:
 872              	.LBE166:
 873              		.loc 4 356 0
 874 000e FFF7FEFF 		bl	_stats_start_measure_crit_thd
 875              	.LVL74:
 876              	.LBE167:
 877              	.LBE168:
 878              		.loc 1 419 0
 879 0012 2246     		mov	r2, r4
 880 0014 2946     		mov	r1, r5
 881 0016 3046     		mov	r0, r6
 882 0018 FFF7FEFF 		bl	chMBFetchTimeoutS
 883              	.LVL75:
 884 001c 0446     		mov	r4, r0
 885              	.LVL76:
 886              	.LBB169:
 887              	.LBB170:
 888              		.loc 4 368 0
 889 001e FFF7FEFF 		bl	_stats_stop_measure_crit_thd
 890              	.LVL77:
 891              	.LBB171:
 892              	.LBB172:
 893              	.LBB173:
 894              		.loc 3 493 0
 895 0022 0023     		movs	r3, #0
 896              	@ 493 "../../modules/ChibiOS/os/common/ext/ARM/CMSIS/Core/Include/cmsis_gcc.h" 1
 897 0024 83F31188 		MSR basepri, r3
 898              	@ 0 "" 2
 899              		.thumb
 900              	.LBE173:
 901              	.LBE172:
 902              	.LBE171:
 903              	.LBE170:
 904              	.LBE169:
 905              		.loc 1 423 0
 906 0028 2046     		mov	r0, r4
 907 002a 70BD     		pop	{r4, r5, r6, pc}
 908              		.cfi_endproc
 909              	.LFE299:
 910              		.size	chMBFetchTimeout, .-chMBFetchTimeout
 911              		.section	.text.chMBFetchI,"ax",%progbits
 912              		.align	1
ARM GAS  /tmp/ccjFFBsB.s 			page 17


 913              		.global	chMBFetchI
 914              		.thumb
 915              		.thumb_func
 916              		.type	chMBFetchI, %function
 917              	chMBFetchI:
 918              	.LFB301:
 919              		.loc 1 493 0
 920              		.cfi_startproc
 921              		@ args = 0, pretend = 0, frame = 0
 922              		@ frame_needed = 0, uses_anonymous_args = 0
 923              	.LVL78:
 924              		.loc 1 499 0
 925 0000 037D     		ldrb	r3, [r0, #20]	@ zero_extendqisi2
 926              		.loc 1 493 0
 927 0002 10B5     		push	{r4, lr}
 928              		.cfi_def_cfa_offset 8
 929              		.cfi_offset 4, -8
 930              		.cfi_offset 14, -4
 931              		.loc 1 499 0
 932 0004 9BB9     		cbnz	r3, .L47
 933 0006 0369     		ldr	r3, [r0, #16]
 934              	.LVL79:
 935              		.loc 1 504 0
 936 0008 A3B1     		cbz	r3, .L48
 937              		.loc 1 505 0
 938 000a C468     		ldr	r4, [r0, #12]
 939 000c 221D     		adds	r2, r4, #4
 940 000e 2468     		ldr	r4, [r4]
 941 0010 C260     		str	r2, [r0, #12]
 942 0012 0C60     		str	r4, [r1]
 943              		.loc 1 506 0
 944 0014 4168     		ldr	r1, [r0, #4]
 945              	.LVL80:
 946 0016 8A42     		cmp	r2, r1
 947              		.loc 1 507 0
 948 0018 24BF     		itt	cs
 949 001a 0268     		ldrcs	r2, [r0]
 950 001c C260     		strcs	r2, [r0, #12]
 951              		.loc 1 509 0
 952 001e 013B     		subs	r3, r3, #1
 953 0020 0361     		str	r3, [r0, #16]
 954              		.loc 1 512 0
 955 0022 0021     		movs	r1, #0
 956 0024 1830     		adds	r0, r0, #24
 957              	.LVL81:
 958 0026 FFF7FEFF 		bl	chThdDequeueNextI
 959              	.LVL82:
 960              		.loc 1 514 0
 961 002a 0020     		movs	r0, #0
 962 002c 10BD     		pop	{r4, pc}
 963              	.LVL83:
 964              	.L47:
 965              		.loc 1 500 0
 966 002e 6FF00100 		mvn	r0, #1
 967              	.LVL84:
 968 0032 10BD     		pop	{r4, pc}
 969              	.LVL85:
ARM GAS  /tmp/ccjFFBsB.s 			page 18


 970              	.L48:
 971              		.loc 1 518 0
 972 0034 4FF0FF30 		mov	r0, #-1
 973              	.LVL86:
 974              		.loc 1 519 0
 975 0038 10BD     		pop	{r4, pc}
 976              		.cfi_endproc
 977              	.LFE301:
 978              		.size	chMBFetchI, .-chMBFetchI
 979              		.text
 980              	.Letext0:
 981              		.file 6 "/usr/lib/gcc/arm-none-eabi/4.9.3/include/stddef.h"
 982              		.file 7 "/usr/include/newlib/machine/_default_types.h"
 983              		.file 8 "/usr/include/newlib/sys/_stdint.h"
 984              		.file 9 "../../modules/ChibiOS/os/common/ports/ARMCMx/compilers/GCC/chtypes.h"
 985              		.file 10 "../../modules/ChibiOS/os/rt/include/chsystypes.h"
 986              		.file 11 "../../modules/ChibiOS/os/rt/include/chtime.h"
 987              		.file 12 "../../modules/ChibiOS/os/common/ports/ARMCMx/chcore.h"
 988              		.file 13 "../../modules/ChibiOS/os/common/ports/ARMCMx/chcore_v7m.h"
 989              		.file 14 "../../modules/ChibiOS/os/rt/include/chtm.h"
 990              		.file 15 "../../modules/ChibiOS/os/rt/include/chstats.h"
 991              		.file 16 "../../modules/ChibiOS/os/rt/include/chsem.h"
 992              		.file 17 "../../modules/ChibiOS/os/rt/include/chmtx.h"
 993              		.file 18 "../../modules/ChibiOS/os/rt/include/chthreads.h"
 994              		.file 19 "../../modules/ChibiOS/os/common/ext/ARM/CMSIS/Core/Include/core_cm4.h"