ARM GAS  /tmp/ccvDO2JW.s 			page 1


   1              		.syntax unified
   2              		.cpu cortex-m4
   3              		.eabi_attribute 27, 1
   4              		.eabi_attribute 28, 1
   5              		.fpu fpv4-sp-d16
   6              		.eabi_attribute 20, 1
   7              		.eabi_attribute 21, 1
   8              		.eabi_attribute 23, 3
   9              		.eabi_attribute 24, 1
  10              		.eabi_attribute 25, 1
  11              		.eabi_attribute 26, 1
  12              		.eabi_attribute 30, 4
  13              		.eabi_attribute 34, 1
  14              		.eabi_attribute 18, 4
  15              		.thumb
  16              		.file	"chmempools.c"
  17              		.text
  18              	.Ltext0:
  19              		.cfi_sections	.debug_frame
  20              		.section	.text.chPoolObjectInitAligned,"ax",%progbits
  21              		.align	1
  22              		.global	chPoolObjectInitAligned
  23              		.thumb
  24              		.thumb_func
  25              		.type	chPoolObjectInitAligned, %function
  26              	chPoolObjectInitAligned:
  27              	.LFB290:
  28              		.file 1 "../../modules/ChibiOS/os/oslib/src/chmempools.c"
  29              		.loc 1 78 0
  30              		.cfi_startproc
  31              		@ args = 0, pretend = 0, frame = 0
  32              		@ frame_needed = 0, uses_anonymous_args = 0
  33              	.LVL0:
  34 0000 10B5     		push	{r4, lr}
  35              		.cfi_def_cfa_offset 8
  36              		.cfi_offset 4, -8
  37              		.cfi_offset 14, -4
  38              		.loc 1 85 0
  39 0002 0024     		movs	r4, #0
  40 0004 0460     		str	r4, [r0]
  41              		.loc 1 86 0
  42 0006 4160     		str	r1, [r0, #4]
  43              		.loc 1 87 0
  44 0008 8260     		str	r2, [r0, #8]
  45              		.loc 1 88 0
  46 000a C360     		str	r3, [r0, #12]
  47 000c 10BD     		pop	{r4, pc}
  48              		.cfi_endproc
  49              	.LFE290:
  50              		.size	chPoolObjectInitAligned, .-chPoolObjectInitAligned
  51              		.section	.text.chPoolAllocI,"ax",%progbits
  52              		.align	1
  53              		.global	chPoolAllocI
  54              		.thumb
  55              		.thumb_func
  56              		.type	chPoolAllocI, %function
  57              	chPoolAllocI:
ARM GAS  /tmp/ccvDO2JW.s 			page 2


  58              	.LFB292:
  59              		.loc 1 129 0
  60              		.cfi_startproc
  61              		@ args = 0, pretend = 0, frame = 0
  62              		@ frame_needed = 0, uses_anonymous_args = 0
  63              		@ link register save eliminated.
  64              	.LVL1:
  65              		.loc 1 129 0
  66 0000 0346     		mov	r3, r0
  67              		.loc 1 135 0
  68 0002 0068     		ldr	r0, [r0]
  69              	.LVL2:
  70              		.loc 1 137 0
  71 0004 10B1     		cbz	r0, .L3
  72              		.loc 1 138 0
  73 0006 0268     		ldr	r2, [r0]
  74 0008 1A60     		str	r2, [r3]
  75 000a 7047     		bx	lr
  76              	.L3:
  77              		.loc 1 140 0
  78 000c DA68     		ldr	r2, [r3, #12]
  79 000e 12B1     		cbz	r2, .L4
  80              		.loc 1 141 0
  81 0010 5868     		ldr	r0, [r3, #4]
  82              	.LVL3:
  83 0012 9968     		ldr	r1, [r3, #8]
  84 0014 1047     		bx	r2
  85              	.LVL4:
  86              	.L4:
  87              		.loc 1 149 0
  88 0016 7047     		bx	lr
  89              		.cfi_endproc
  90              	.LFE292:
  91              		.size	chPoolAllocI, .-chPoolAllocI
  92              		.section	.text.chPoolAlloc,"ax",%progbits
  93              		.align	1
  94              		.global	chPoolAlloc
  95              		.thumb
  96              		.thumb_func
  97              		.type	chPoolAlloc, %function
  98              	chPoolAlloc:
  99              	.LFB293:
 100              		.loc 1 161 0
 101              		.cfi_startproc
 102              		@ args = 0, pretend = 0, frame = 0
 103              		@ frame_needed = 0, uses_anonymous_args = 0
 104              	.LVL5:
 105 0000 10B5     		push	{r4, lr}
 106              		.cfi_def_cfa_offset 8
 107              		.cfi_offset 4, -8
 108              		.cfi_offset 14, -4
 109              	.LBB34:
 110              	.LBB35:
 111              	.LBB36:
 112              	.LBB37:
 113              	.LBB38:
 114              		.file 2 "../../modules/ChibiOS/os/common/ext/ARM/CMSIS/Core/Include/cmsis_gcc.h"
ARM GAS  /tmp/ccvDO2JW.s 			page 3


 115              		.loc 2 493 0
 116 0002 2023     		movs	r3, #32
 117              	.LBE38:
 118              	.LBE37:
 119              	.LBE36:
 120              	.LBE35:
 121              	.LBE34:
 122              		.loc 1 161 0
 123 0004 0446     		mov	r4, r0
 124              	.LBB43:
 125              	.LBB42:
 126              	.LBB41:
 127              	.LBB40:
 128              	.LBB39:
 129              		.loc 2 493 0
 130              	@ 493 "../../modules/ChibiOS/os/common/ext/ARM/CMSIS/Core/Include/cmsis_gcc.h" 1
 131 0006 83F31188 		MSR basepri, r3
 132              	@ 0 "" 2
 133              		.thumb
 134              	.LBE39:
 135              	.LBE40:
 136              	.LBE41:
 137              		.file 3 "../../modules/ChibiOS/os/rt/include/chsys.h"
 138              		.loc 3 356 0
 139 000a FFF7FEFF 		bl	_stats_start_measure_crit_thd
 140              	.LVL6:
 141              	.LBE42:
 142              	.LBE43:
 143              		.loc 1 165 0
 144 000e 2046     		mov	r0, r4
 145 0010 FFF7FEFF 		bl	chPoolAllocI
 146              	.LVL7:
 147 0014 0446     		mov	r4, r0
 148              	.LVL8:
 149              	.LBB44:
 150              	.LBB45:
 151              		.loc 3 368 0
 152 0016 FFF7FEFF 		bl	_stats_stop_measure_crit_thd
 153              	.LVL9:
 154              	.LBB46:
 155              	.LBB47:
 156              	.LBB48:
 157              		.loc 2 493 0
 158 001a 0023     		movs	r3, #0
 159              	@ 493 "../../modules/ChibiOS/os/common/ext/ARM/CMSIS/Core/Include/cmsis_gcc.h" 1
 160 001c 83F31188 		MSR basepri, r3
 161              	@ 0 "" 2
 162              		.thumb
 163              	.LBE48:
 164              	.LBE47:
 165              	.LBE46:
 166              	.LBE45:
 167              	.LBE44:
 168              		.loc 1 169 0
 169 0020 2046     		mov	r0, r4
 170 0022 10BD     		pop	{r4, pc}
 171              		.cfi_endproc
ARM GAS  /tmp/ccvDO2JW.s 			page 4


 172              	.LFE293:
 173              		.size	chPoolAlloc, .-chPoolAlloc
 174              		.section	.text.chPoolFreeI,"ax",%progbits
 175              		.align	1
 176              		.global	chPoolFreeI
 177              		.thumb
 178              		.thumb_func
 179              		.type	chPoolFreeI, %function
 180              	chPoolFreeI:
 181              	.LFB294:
 182              		.loc 1 183 0
 183              		.cfi_startproc
 184              		@ args = 0, pretend = 0, frame = 0
 185              		@ frame_needed = 0, uses_anonymous_args = 0
 186              		@ link register save eliminated.
 187              	.LVL10:
 188              		.loc 1 191 0
 189 0000 0368     		ldr	r3, [r0]
 190 0002 0B60     		str	r3, [r1]
 191              		.loc 1 192 0
 192 0004 0160     		str	r1, [r0]
 193 0006 7047     		bx	lr
 194              		.cfi_endproc
 195              	.LFE294:
 196              		.size	chPoolFreeI, .-chPoolFreeI
 197              		.section	.text.chPoolFree,"ax",%progbits
 198              		.align	1
 199              		.global	chPoolFree
 200              		.thumb
 201              		.thumb_func
 202              		.type	chPoolFree, %function
 203              	chPoolFree:
 204              	.LFB295:
 205              		.loc 1 207 0
 206              		.cfi_startproc
 207              		@ args = 0, pretend = 0, frame = 0
 208              		@ frame_needed = 0, uses_anonymous_args = 0
 209              	.LVL11:
 210 0000 38B5     		push	{r3, r4, r5, lr}
 211              		.cfi_def_cfa_offset 16
 212              		.cfi_offset 3, -16
 213              		.cfi_offset 4, -12
 214              		.cfi_offset 5, -8
 215              		.cfi_offset 14, -4
 216              		.loc 1 207 0
 217 0002 0446     		mov	r4, r0
 218 0004 0D46     		mov	r5, r1
 219              	.LBB61:
 220              	.LBB62:
 221              	.LBB63:
 222              	.LBB64:
 223              	.LBB65:
 224              		.loc 2 493 0
 225 0006 2023     		movs	r3, #32
 226              	@ 493 "../../modules/ChibiOS/os/common/ext/ARM/CMSIS/Core/Include/cmsis_gcc.h" 1
 227 0008 83F31188 		MSR basepri, r3
 228              	@ 0 "" 2
ARM GAS  /tmp/ccvDO2JW.s 			page 5


 229              		.thumb
 230              	.LBE65:
 231              	.LBE64:
 232              	.LBE63:
 233              		.loc 3 356 0
 234 000c FFF7FEFF 		bl	_stats_start_measure_crit_thd
 235              	.LVL12:
 236              	.LBE62:
 237              	.LBE61:
 238              	.LBB66:
 239              	.LBB67:
 240              		.loc 1 191 0
 241 0010 2368     		ldr	r3, [r4]
 242 0012 2B60     		str	r3, [r5]
 243              		.loc 1 192 0
 244 0014 2560     		str	r5, [r4]
 245              	.LBE67:
 246              	.LBE66:
 247              	.LBB68:
 248              	.LBB69:
 249              		.loc 3 368 0
 250 0016 FFF7FEFF 		bl	_stats_stop_measure_crit_thd
 251              	.LVL13:
 252              	.LBB70:
 253              	.LBB71:
 254              	.LBB72:
 255              		.loc 2 493 0
 256 001a 0023     		movs	r3, #0
 257              	@ 493 "../../modules/ChibiOS/os/common/ext/ARM/CMSIS/Core/Include/cmsis_gcc.h" 1
 258 001c 83F31188 		MSR basepri, r3
 259              	@ 0 "" 2
 260              		.thumb
 261 0020 38BD     		pop	{r3, r4, r5, pc}
 262              	.LBE72:
 263              	.LBE71:
 264              	.LBE70:
 265              	.LBE69:
 266              	.LBE68:
 267              		.cfi_endproc
 268              	.LFE295:
 269              		.size	chPoolFree, .-chPoolFree
 270              		.section	.text.chPoolLoadArray,"ax",%progbits
 271              		.align	1
 272              		.global	chPoolLoadArray
 273              		.thumb
 274              		.thumb_func
 275              		.type	chPoolLoadArray, %function
 276              	chPoolLoadArray:
 277              	.LFB291:
 278              		.loc 1 106 0
 279              		.cfi_startproc
 280              		@ args = 0, pretend = 0, frame = 0
 281              		@ frame_needed = 0, uses_anonymous_args = 0
 282              	.LVL14:
 283 0000 70B5     		push	{r4, r5, r6, lr}
 284              		.cfi_def_cfa_offset 16
 285              		.cfi_offset 4, -16
ARM GAS  /tmp/ccvDO2JW.s 			page 6


 286              		.cfi_offset 5, -12
 287              		.cfi_offset 6, -8
 288              		.cfi_offset 14, -4
 289 0002 0646     		mov	r6, r0
 290 0004 0D46     		mov	r5, r1
 291 0006 1446     		mov	r4, r2
 292              	.LVL15:
 293              	.L13:
 294              		.loc 1 110 0
 295 0008 3CB1     		cbz	r4, .L15
 296              	.LVL16:
 297              	.LBB73:
 298              	.LBB74:
 299              		.file 4 "../../modules/ChibiOS/os/oslib/include/chmempools.h"
 300              		.loc 4 212 0
 301 000a 2946     		mov	r1, r5
 302 000c 3046     		mov	r0, r6
 303 000e FFF7FEFF 		bl	chPoolFree
 304              	.LVL17:
 305              	.LBE74:
 306              	.LBE73:
 307              		.loc 1 113 0
 308 0012 7368     		ldr	r3, [r6, #4]
 309              		.loc 1 115 0
 310 0014 013C     		subs	r4, r4, #1
 311              	.LVL18:
 312              		.loc 1 113 0
 313 0016 1D44     		add	r5, r5, r3
 314              	.LVL19:
 315 0018 F6E7     		b	.L13
 316              	.LVL20:
 317              	.L15:
 318              		.loc 1 117 0
 319 001a 70BD     		pop	{r4, r5, r6, pc}
 320              		.cfi_endproc
 321              	.LFE291:
 322              		.size	chPoolLoadArray, .-chPoolLoadArray
 323              		.section	.text.chGuardedPoolObjectInitAligned,"ax",%progbits
 324              		.align	1
 325              		.global	chGuardedPoolObjectInitAligned
 326              		.thumb
 327              		.thumb_func
 328              		.type	chGuardedPoolObjectInitAligned, %function
 329              	chGuardedPoolObjectInitAligned:
 330              	.LFB296:
 331              		.loc 1 228 0
 332              		.cfi_startproc
 333              		@ args = 0, pretend = 0, frame = 0
 334              		@ frame_needed = 0, uses_anonymous_args = 0
 335              	.LVL21:
 336 0000 10B5     		push	{r4, lr}
 337              		.cfi_def_cfa_offset 8
 338              		.cfi_offset 4, -8
 339              		.cfi_offset 14, -4
 340              	.LBB75:
 341              	.LBB76:
 342              		.loc 1 85 0
ARM GAS  /tmp/ccvDO2JW.s 			page 7


 343 0002 0024     		movs	r4, #0
 344 0004 C460     		str	r4, [r0, #12]
 345              		.loc 1 86 0
 346 0006 0161     		str	r1, [r0, #16]
 347              		.loc 1 88 0
 348 0008 8461     		str	r4, [r0, #24]
 349              	.LBE76:
 350              	.LBE75:
 351              		.loc 1 231 0
 352 000a 2146     		mov	r1, r4
 353              	.LVL22:
 354              	.LBB78:
 355              	.LBB77:
 356              		.loc 1 87 0
 357 000c 4261     		str	r2, [r0, #20]
 358              	.LBE77:
 359              	.LBE78:
 360              		.loc 1 232 0
 361 000e BDE81040 		pop	{r4, lr}
 362              		.cfi_restore 14
 363              		.cfi_restore 4
 364              		.cfi_def_cfa_offset 0
 365              		.loc 1 231 0
 366 0012 FFF7FEBF 		b	chSemObjectInit
 367              	.LVL23:
 368              		.cfi_endproc
 369              	.LFE296:
 370              		.size	chGuardedPoolObjectInitAligned, .-chGuardedPoolObjectInitAligned
 371              		.section	.text.chGuardedPoolAllocTimeoutS,"ax",%progbits
 372              		.align	1
 373              		.global	chGuardedPoolAllocTimeoutS
 374              		.thumb
 375              		.thumb_func
 376              		.type	chGuardedPoolAllocTimeoutS, %function
 377              	chGuardedPoolAllocTimeoutS:
 378              	.LFB298:
 379              		.loc 1 276 0
 380              		.cfi_startproc
 381              		@ args = 0, pretend = 0, frame = 0
 382              		@ frame_needed = 0, uses_anonymous_args = 0
 383              	.LVL24:
 384 0000 10B5     		push	{r4, lr}
 385              		.cfi_def_cfa_offset 8
 386              		.cfi_offset 4, -8
 387              		.cfi_offset 14, -4
 388              		.loc 1 276 0
 389 0002 0446     		mov	r4, r0
 390              		.loc 1 279 0
 391 0004 FFF7FEFF 		bl	chSemWaitTimeoutS
 392              	.LVL25:
 393              		.loc 1 280 0
 394 0008 28B9     		cbnz	r0, .L18
 395              		.loc 1 284 0
 396 000a 04F10C00 		add	r0, r4, #12
 397              	.LVL26:
 398              		.loc 1 285 0
 399 000e BDE81040 		pop	{r4, lr}
ARM GAS  /tmp/ccvDO2JW.s 			page 8


 400              		.cfi_remember_state
 401              		.cfi_restore 14
 402              		.cfi_restore 4
 403              		.cfi_def_cfa_offset 0
 404              	.LVL27:
 405              		.loc 1 284 0
 406 0012 FFF7FEBF 		b	chPoolAllocI
 407              	.LVL28:
 408              	.L18:
 409              		.cfi_restore_state
 410              		.loc 1 285 0
 411 0016 0020     		movs	r0, #0
 412              	.LVL29:
 413 0018 10BD     		pop	{r4, pc}
 414              		.cfi_endproc
 415              	.LFE298:
 416              		.size	chGuardedPoolAllocTimeoutS, .-chGuardedPoolAllocTimeoutS
 417              		.section	.text.chGuardedPoolAllocTimeout,"ax",%progbits
 418              		.align	1
 419              		.global	chGuardedPoolAllocTimeout
 420              		.thumb
 421              		.thumb_func
 422              		.type	chGuardedPoolAllocTimeout, %function
 423              	chGuardedPoolAllocTimeout:
 424              	.LFB299:
 425              		.loc 1 303 0
 426              		.cfi_startproc
 427              		@ args = 0, pretend = 0, frame = 0
 428              		@ frame_needed = 0, uses_anonymous_args = 0
 429              	.LVL30:
 430 0000 38B5     		push	{r3, r4, r5, lr}
 431              		.cfi_def_cfa_offset 16
 432              		.cfi_offset 3, -16
 433              		.cfi_offset 4, -12
 434              		.cfi_offset 5, -8
 435              		.cfi_offset 14, -4
 436              		.loc 1 303 0
 437 0002 0546     		mov	r5, r0
 438 0004 0C46     		mov	r4, r1
 439              	.LBB89:
 440              	.LBB90:
 441              	.LBB91:
 442              	.LBB92:
 443              	.LBB93:
 444              		.loc 2 493 0
 445 0006 2023     		movs	r3, #32
 446              	@ 493 "../../modules/ChibiOS/os/common/ext/ARM/CMSIS/Core/Include/cmsis_gcc.h" 1
 447 0008 83F31188 		MSR basepri, r3
 448              	@ 0 "" 2
 449              		.thumb
 450              	.LBE93:
 451              	.LBE92:
 452              	.LBE91:
 453              		.loc 3 356 0
 454 000c FFF7FEFF 		bl	_stats_start_measure_crit_thd
 455              	.LVL31:
 456              	.LBE90:
ARM GAS  /tmp/ccvDO2JW.s 			page 9


 457              	.LBE89:
 458              		.loc 1 307 0
 459 0010 2146     		mov	r1, r4
 460 0012 2846     		mov	r0, r5
 461 0014 FFF7FEFF 		bl	chGuardedPoolAllocTimeoutS
 462              	.LVL32:
 463 0018 0446     		mov	r4, r0
 464              	.LVL33:
 465              	.LBB94:
 466              	.LBB95:
 467              		.loc 3 368 0
 468 001a FFF7FEFF 		bl	_stats_stop_measure_crit_thd
 469              	.LVL34:
 470              	.LBB96:
 471              	.LBB97:
 472              	.LBB98:
 473              		.loc 2 493 0
 474 001e 0023     		movs	r3, #0
 475              	@ 493 "../../modules/ChibiOS/os/common/ext/ARM/CMSIS/Core/Include/cmsis_gcc.h" 1
 476 0020 83F31188 		MSR basepri, r3
 477              	@ 0 "" 2
 478              		.thumb
 479              	.LBE98:
 480              	.LBE97:
 481              	.LBE96:
 482              	.LBE95:
 483              	.LBE94:
 484              		.loc 1 311 0
 485 0024 2046     		mov	r0, r4
 486 0026 38BD     		pop	{r3, r4, r5, pc}
 487              		.cfi_endproc
 488              	.LFE299:
 489              		.size	chGuardedPoolAllocTimeout, .-chGuardedPoolAllocTimeout
 490              		.section	.text.chGuardedPoolFree,"ax",%progbits
 491              		.align	1
 492              		.global	chGuardedPoolFree
 493              		.thumb
 494              		.thumb_func
 495              		.type	chGuardedPoolFree, %function
 496              	chGuardedPoolFree:
 497              	.LFB300:
 498              		.loc 1 325 0
 499              		.cfi_startproc
 500              		@ args = 0, pretend = 0, frame = 0
 501              		@ frame_needed = 0, uses_anonymous_args = 0
 502              	.LVL35:
 503 0000 38B5     		push	{r3, r4, r5, lr}
 504              		.cfi_def_cfa_offset 16
 505              		.cfi_offset 3, -16
 506              		.cfi_offset 4, -12
 507              		.cfi_offset 5, -8
 508              		.cfi_offset 14, -4
 509              		.loc 1 325 0
 510 0002 0446     		mov	r4, r0
 511 0004 0D46     		mov	r5, r1
 512              	.LBB113:
 513              	.LBB114:
ARM GAS  /tmp/ccvDO2JW.s 			page 10


 514              	.LBB115:
 515              	.LBB116:
 516              	.LBB117:
 517              		.loc 2 493 0
 518 0006 2023     		movs	r3, #32
 519              	@ 493 "../../modules/ChibiOS/os/common/ext/ARM/CMSIS/Core/Include/cmsis_gcc.h" 1
 520 0008 83F31188 		MSR basepri, r3
 521              	@ 0 "" 2
 522              		.thumb
 523              	.LBE117:
 524              	.LBE116:
 525              	.LBE115:
 526              		.loc 3 356 0
 527 000c FFF7FEFF 		bl	_stats_start_measure_crit_thd
 528              	.LVL36:
 529              	.LBE114:
 530              	.LBE113:
 531              	.LBB118:
 532              	.LBB119:
 533              	.LBB120:
 534              	.LBB121:
 535              		.loc 1 191 0
 536 0010 E368     		ldr	r3, [r4, #12]
 537 0012 2B60     		str	r3, [r5]
 538              	.LBE121:
 539              	.LBE120:
 540              		.loc 4 288 0
 541 0014 2046     		mov	r0, r4
 542              	.LBB123:
 543              	.LBB122:
 544              		.loc 1 192 0
 545 0016 E560     		str	r5, [r4, #12]
 546              	.LBE122:
 547              	.LBE123:
 548              		.loc 4 288 0
 549 0018 FFF7FEFF 		bl	chSemSignalI
 550              	.LVL37:
 551              	.LBE119:
 552              	.LBE118:
 553              		.loc 1 329 0
 554 001c FFF7FEFF 		bl	chSchRescheduleS
 555              	.LVL38:
 556              	.LBB124:
 557              	.LBB125:
 558              		.loc 3 368 0
 559 0020 FFF7FEFF 		bl	_stats_stop_measure_crit_thd
 560              	.LVL39:
 561              	.LBB126:
 562              	.LBB127:
 563              	.LBB128:
 564              		.loc 2 493 0
 565 0024 0023     		movs	r3, #0
 566              	@ 493 "../../modules/ChibiOS/os/common/ext/ARM/CMSIS/Core/Include/cmsis_gcc.h" 1
 567 0026 83F31188 		MSR basepri, r3
 568              	@ 0 "" 2
 569              		.thumb
 570 002a 38BD     		pop	{r3, r4, r5, pc}
ARM GAS  /tmp/ccvDO2JW.s 			page 11


 571              	.LBE128:
 572              	.LBE127:
 573              	.LBE126:
 574              	.LBE125:
 575              	.LBE124:
 576              		.cfi_endproc
 577              	.LFE300:
 578              		.size	chGuardedPoolFree, .-chGuardedPoolFree
 579              		.section	.text.chGuardedPoolLoadArray,"ax",%progbits
 580              		.align	1
 581              		.global	chGuardedPoolLoadArray
 582              		.thumb
 583              		.thumb_func
 584              		.type	chGuardedPoolLoadArray, %function
 585              	chGuardedPoolLoadArray:
 586              	.LFB297:
 587              		.loc 1 247 0
 588              		.cfi_startproc
 589              		@ args = 0, pretend = 0, frame = 0
 590              		@ frame_needed = 0, uses_anonymous_args = 0
 591              	.LVL40:
 592 0000 70B5     		push	{r4, r5, r6, lr}
 593              		.cfi_def_cfa_offset 16
 594              		.cfi_offset 4, -16
 595              		.cfi_offset 5, -12
 596              		.cfi_offset 6, -8
 597              		.cfi_offset 14, -4
 598 0002 0646     		mov	r6, r0
 599 0004 0D46     		mov	r5, r1
 600 0006 1446     		mov	r4, r2
 601              	.LVL41:
 602              	.L22:
 603              		.loc 1 251 0
 604 0008 3CB1     		cbz	r4, .L24
 605              	.LVL42:
 606              	.LBB129:
 607              	.LBB130:
 608              		.loc 4 325 0
 609 000a 2946     		mov	r1, r5
 610 000c 3046     		mov	r0, r6
 611 000e FFF7FEFF 		bl	chGuardedPoolFree
 612              	.LVL43:
 613              	.LBE130:
 614              	.LBE129:
 615              		.loc 1 254 0
 616 0012 3369     		ldr	r3, [r6, #16]
 617              		.loc 1 256 0
 618 0014 013C     		subs	r4, r4, #1
 619              	.LVL44:
 620              		.loc 1 254 0
 621 0016 1D44     		add	r5, r5, r3
 622              	.LVL45:
 623 0018 F6E7     		b	.L22
 624              	.LVL46:
 625              	.L24:
 626              		.loc 1 258 0
 627 001a 70BD     		pop	{r4, r5, r6, pc}
ARM GAS  /tmp/ccvDO2JW.s 			page 12


 628              		.cfi_endproc
 629              	.LFE297:
 630              		.size	chGuardedPoolLoadArray, .-chGuardedPoolLoadArray
 631              		.text
 632              	.Letext0:
 633              		.file 5 "/usr/lib/gcc/arm-none-eabi/4.9.3/include/stddef.h"
 634              		.file 6 "/usr/include/newlib/machine/_default_types.h"
 635              		.file 7 "/usr/include/newlib/sys/_stdint.h"
 636              		.file 8 "../../modules/ChibiOS/os/common/ports/ARMCMx/compilers/GCC/chtypes.h"
 637              		.file 9 "../../modules/ChibiOS/os/rt/include/chsystypes.h"
 638              		.file 10 "../../modules/ChibiOS/os/rt/include/chschd.h"
 639              		.file 11 "../../modules/ChibiOS/os/rt/include/chtime.h"
 640              		.file 12 "../../modules/ChibiOS/os/common/ports/ARMCMx/chcore.h"
 641              		.file 13 "../../modules/ChibiOS/os/common/ports/ARMCMx/chcore_v7m.h"
 642              		.file 14 "../../modules/ChibiOS/os/rt/include/chtm.h"
 643              		.file 15 "../../modules/ChibiOS/os/rt/include/chstats.h"
 644              		.file 16 "../../modules/ChibiOS/os/rt/include/chsem.h"
 645              		.file 17 "../../modules/ChibiOS/os/rt/include/chmtx.h"
 646              		.file 18 "../../modules/ChibiOS/os/oslib/include/chmemcore.h"
 647              		.file 19 "../../modules/ChibiOS/os/common/ext/ARM/CMSIS/Core/Include/core_cm4.h"
 648              		.section	.debug_info,"",%progbits
 649              	.Ldebug_info0:
 650 0000 82110000 		.4byte	0x1182
 651 0004 0400     		.2byte	0x4
 652 0006 00000000 		.4byte	.Ldebug_abbrev0
 653 000a 04       		.byte	0x4
 654 000b 01       		.uleb128 0x1
 655 000c 7E020000 		.4byte	.LASF145
 656 0010 01       		.byte	0x1
 657 0011 9E000000 		.4byte	.LASF146
 658 0015 AB060000 		.4byte	.LASF147
 659 0019 60000000 		.4byte	.Ldebug_ranges0+0x60
 660 001d 00000000 		.4byte	0
 661 0021 00000000 		.4byte	.Ldebug_line0
 662 0025 02       		.uleb128 0x2
 663 0026 04       		.byte	0x4
 664 0027 05       		.byte	0x5
 665 0028 696E7400 		.ascii	"int\000"
 666 002c 03       		.uleb128 0x3
 667 002d 30000000 		.4byte	.LASF2
 668 0031 05       		.byte	0x5
 669 0032 D4       		.byte	0xd4
 670 0033 37000000 		.4byte	0x37
 671 0037 04       		.uleb128 0x4
 672 0038 04       		.byte	0x4
 673 0039 07       		.byte	0x7
 674 003a 71020000 		.4byte	.LASF0
 675 003e 04       		.uleb128 0x4
 676 003f 01       		.byte	0x1
 677 0040 06       		.byte	0x6
 678 0041 6C010000 		.4byte	.LASF1
 679 0045 03       		.uleb128 0x3
 680 0046 5A000000 		.4byte	.LASF3
 681 004a 06       		.byte	0x6
 682 004b 1D       		.byte	0x1d
 683 004c 50000000 		.4byte	0x50
 684 0050 04       		.uleb128 0x4
ARM GAS  /tmp/ccvDO2JW.s 			page 13


 685 0051 01       		.byte	0x1
 686 0052 08       		.byte	0x8
 687 0053 7B050000 		.4byte	.LASF4
 688 0057 04       		.uleb128 0x4
 689 0058 02       		.byte	0x2
 690 0059 05       		.byte	0x5
 691 005a 89050000 		.4byte	.LASF5
 692 005e 04       		.uleb128 0x4
 693 005f 02       		.byte	0x2
 694 0060 07       		.byte	0x7
 695 0061 A2030000 		.4byte	.LASF6
 696 0065 03       		.uleb128 0x3
 697 0066 3E040000 		.4byte	.LASF7
 698 006a 06       		.byte	0x6
 699 006b 3F       		.byte	0x3f
 700 006c 70000000 		.4byte	0x70
 701 0070 04       		.uleb128 0x4
 702 0071 04       		.byte	0x4
 703 0072 05       		.byte	0x5
 704 0073 A7010000 		.4byte	.LASF8
 705 0077 03       		.uleb128 0x3
 706 0078 ED010000 		.4byte	.LASF9
 707 007c 06       		.byte	0x6
 708 007d 41       		.byte	0x41
 709 007e 82000000 		.4byte	0x82
 710 0082 04       		.uleb128 0x4
 711 0083 04       		.byte	0x4
 712 0084 07       		.byte	0x7
 713 0085 15060000 		.4byte	.LASF10
 714 0089 04       		.uleb128 0x4
 715 008a 08       		.byte	0x8
 716 008b 05       		.byte	0x5
 717 008c 5E010000 		.4byte	.LASF11
 718 0090 03       		.uleb128 0x3
 719 0091 0A050000 		.4byte	.LASF12
 720 0095 06       		.byte	0x6
 721 0096 5B       		.byte	0x5b
 722 0097 9B000000 		.4byte	0x9b
 723 009b 04       		.uleb128 0x4
 724 009c 08       		.byte	0x8
 725 009d 07       		.byte	0x7
 726 009e E7000000 		.4byte	.LASF13
 727 00a2 03       		.uleb128 0x3
 728 00a3 30070000 		.4byte	.LASF14
 729 00a7 07       		.byte	0x7
 730 00a8 14       		.byte	0x14
 731 00a9 45000000 		.4byte	0x45
 732 00ad 03       		.uleb128 0x3
 733 00ae 73050000 		.4byte	.LASF15
 734 00b2 07       		.byte	0x7
 735 00b3 1F       		.byte	0x1f
 736 00b4 65000000 		.4byte	0x65
 737 00b8 03       		.uleb128 0x3
 738 00b9 EF050000 		.4byte	.LASF16
 739 00bd 07       		.byte	0x7
 740 00be 20       		.byte	0x20
 741 00bf 77000000 		.4byte	0x77
ARM GAS  /tmp/ccvDO2JW.s 			page 14


 742 00c3 03       		.uleb128 0x3
 743 00c4 44000000 		.4byte	.LASF17
 744 00c8 07       		.byte	0x7
 745 00c9 26       		.byte	0x26
 746 00ca 90000000 		.4byte	0x90
 747 00ce 03       		.uleb128 0x3
 748 00cf D7060000 		.4byte	.LASF18
 749 00d3 08       		.byte	0x8
 750 00d4 27       		.byte	0x27
 751 00d5 B8000000 		.4byte	0xb8
 752 00d9 03       		.uleb128 0x3
 753 00da 55010000 		.4byte	.LASF19
 754 00de 08       		.byte	0x8
 755 00df 28       		.byte	0x28
 756 00e0 C3000000 		.4byte	0xc3
 757 00e4 03       		.uleb128 0x3
 758 00e5 11040000 		.4byte	.LASF20
 759 00e9 08       		.byte	0x8
 760 00ea 2A       		.byte	0x2a
 761 00eb A2000000 		.4byte	0xa2
 762 00ef 03       		.uleb128 0x3
 763 00f0 B0010000 		.4byte	.LASF21
 764 00f4 08       		.byte	0x8
 765 00f5 2B       		.byte	0x2b
 766 00f6 A2000000 		.4byte	0xa2
 767 00fa 03       		.uleb128 0x3
 768 00fb 3F050000 		.4byte	.LASF22
 769 00ff 08       		.byte	0x8
 770 0100 2C       		.byte	0x2c
 771 0101 A2000000 		.4byte	0xa2
 772 0105 03       		.uleb128 0x3
 773 0106 5C050000 		.4byte	.LASF23
 774 010a 08       		.byte	0x8
 775 010b 2E       		.byte	0x2e
 776 010c B8000000 		.4byte	0xb8
 777 0110 03       		.uleb128 0x3
 778 0111 D3030000 		.4byte	.LASF24
 779 0115 08       		.byte	0x8
 780 0116 2F       		.byte	0x2f
 781 0117 AD000000 		.4byte	0xad
 782 011b 03       		.uleb128 0x3
 783 011c 32040000 		.4byte	.LASF25
 784 0120 08       		.byte	0x8
 785 0121 31       		.byte	0x31
 786 0122 B8000000 		.4byte	0xb8
 787 0126 03       		.uleb128 0x3
 788 0127 6B020000 		.4byte	.LASF26
 789 012b 08       		.byte	0x8
 790 012c 33       		.byte	0x33
 791 012d AD000000 		.4byte	0xad
 792 0131 03       		.uleb128 0x3
 793 0132 EB030000 		.4byte	.LASF27
 794 0136 08       		.byte	0x8
 795 0137 34       		.byte	0x34
 796 0138 B8000000 		.4byte	0xb8
 797 013c 03       		.uleb128 0x3
 798 013d 4B060000 		.4byte	.LASF28
ARM GAS  /tmp/ccvDO2JW.s 			page 15


 799 0141 09       		.byte	0x9
 800 0142 34       		.byte	0x34
 801 0143 47010000 		.4byte	0x147
 802 0147 05       		.uleb128 0x5
 803 0148 C9030000 		.4byte	.LASF47
 804 014c 60       		.byte	0x60
 805 014d 0A       		.byte	0xa
 806 014e 8E       		.byte	0x8e
 807 014f 32020000 		.4byte	0x232
 808 0153 06       		.uleb128 0x6
 809 0154 96030000 		.4byte	.LASF29
 810 0158 0A       		.byte	0xa
 811 0159 8F       		.byte	0x8f
 812 015a 67020000 		.4byte	0x267
 813 015e 00       		.byte	0
 814 015f 06       		.uleb128 0x6
 815 0160 F8040000 		.4byte	.LASF30
 816 0164 0A       		.byte	0xa
 817 0165 90       		.byte	0x90
 818 0166 05010000 		.4byte	0x105
 819 016a 08       		.byte	0x8
 820 016b 07       		.uleb128 0x7
 821 016c 63747800 		.ascii	"ctx\000"
 822 0170 0A       		.byte	0xa
 823 0171 91       		.byte	0x91
 824 0172 82040000 		.4byte	0x482
 825 0176 0C       		.byte	0xc
 826 0177 06       		.uleb128 0x6
 827 0178 53040000 		.4byte	.LASF31
 828 017c 0A       		.byte	0xa
 829 017d 93       		.byte	0x93
 830 017e 3D020000 		.4byte	0x23d
 831 0182 10       		.byte	0x10
 832 0183 06       		.uleb128 0x6
 833 0184 33060000 		.4byte	.LASF32
 834 0188 0A       		.byte	0xa
 835 0189 94       		.byte	0x94
 836 018a 3D020000 		.4byte	0x23d
 837 018e 14       		.byte	0x14
 838 018f 06       		.uleb128 0x6
 839 0190 C4030000 		.4byte	.LASF33
 840 0194 0A       		.byte	0xa
 841 0195 9B       		.byte	0x9b
 842 0196 68070000 		.4byte	0x768
 843 019a 18       		.byte	0x18
 844 019b 06       		.uleb128 0x6
 845 019c 27060000 		.4byte	.LASF34
 846 01a0 0A       		.byte	0xa
 847 01a1 A4       		.byte	0xa4
 848 01a2 7A070000 		.4byte	0x77a
 849 01a6 1C       		.byte	0x1c
 850 01a7 06       		.uleb128 0x6
 851 01a8 A1010000 		.4byte	.LASF35
 852 01ac 0A       		.byte	0xa
 853 01ad A9       		.byte	0xa9
 854 01ae EF000000 		.4byte	0xef
 855 01b2 20       		.byte	0x20
ARM GAS  /tmp/ccvDO2JW.s 			page 16


 856 01b3 06       		.uleb128 0x6
 857 01b4 4F070000 		.4byte	.LASF36
 858 01b8 0A       		.byte	0xa
 859 01b9 AD       		.byte	0xad
 860 01ba E4000000 		.4byte	0xe4
 861 01be 21       		.byte	0x21
 862 01bf 06       		.uleb128 0x6
 863 01c0 47050000 		.4byte	.LASF37
 864 01c4 0A       		.byte	0xa
 865 01c5 B2       		.byte	0xb2
 866 01c6 FA000000 		.4byte	0xfa
 867 01ca 22       		.byte	0x22
 868 01cb 08       		.uleb128 0x8
 869 01cc 7500     		.ascii	"u\000"
 870 01ce 0A       		.byte	0xa
 871 01cf 0301     		.2byte	0x103
 872 01d1 9E060000 		.4byte	0x69e
 873 01d5 24       		.byte	0x24
 874 01d6 09       		.uleb128 0x9
 875 01d7 1D020000 		.4byte	.LASF38
 876 01db 0A       		.byte	0xa
 877 01dc 0801     		.2byte	0x108
 878 01de 43020000 		.4byte	0x243
 879 01e2 28       		.byte	0x28
 880 01e3 09       		.uleb128 0x9
 881 01e4 98010000 		.4byte	.LASF39
 882 01e8 0A       		.byte	0xa
 883 01e9 0E01     		.2byte	0x10e
 884 01eb 67020000 		.4byte	0x267
 885 01ef 2C       		.byte	0x2c
 886 01f0 09       		.uleb128 0x9
 887 01f1 F2030000 		.4byte	.LASF40
 888 01f5 0A       		.byte	0xa
 889 01f6 1401     		.2byte	0x114
 890 01f8 1B010000 		.4byte	0x11b
 891 01fc 34       		.byte	0x34
 892 01fd 09       		.uleb128 0x9
 893 01fe AF070000 		.4byte	.LASF41
 894 0202 0A       		.byte	0xa
 895 0203 1B01     		.2byte	0x11b
 896 0205 62070000 		.4byte	0x762
 897 0209 38       		.byte	0x38
 898 020a 09       		.uleb128 0x9
 899 020b 59040000 		.4byte	.LASF42
 900 020f 0A       		.byte	0xa
 901 0210 1F01     		.2byte	0x11f
 902 0212 05010000 		.4byte	0x105
 903 0216 3C       		.byte	0x3c
 904 0217 09       		.uleb128 0x9
 905 0218 9C030000 		.4byte	.LASF43
 906 021c 0A       		.byte	0xa
 907 021d 2601     		.2byte	0x126
 908 021f 1A030000 		.4byte	0x31a
 909 0223 40       		.byte	0x40
 910 0224 09       		.uleb128 0x9
 911 0225 BE010000 		.4byte	.LASF44
 912 0229 0A       		.byte	0xa
ARM GAS  /tmp/ccvDO2JW.s 			page 17


 913 022a 2C01     		.2byte	0x12c
 914 022c 4F060000 		.4byte	0x64f
 915 0230 48       		.byte	0x48
 916 0231 00       		.byte	0
 917 0232 03       		.uleb128 0x3
 918 0233 88040000 		.4byte	.LASF45
 919 0237 09       		.byte	0x9
 920 0238 39       		.byte	0x39
 921 0239 3D020000 		.4byte	0x23d
 922 023d 0A       		.uleb128 0xa
 923 023e 04       		.byte	0x4
 924 023f 3C010000 		.4byte	0x13c
 925 0243 03       		.uleb128 0x3
 926 0244 7A070000 		.4byte	.LASF46
 927 0248 09       		.byte	0x9
 928 0249 3E       		.byte	0x3e
 929 024a 4E020000 		.4byte	0x24e
 930 024e 05       		.uleb128 0x5
 931 024f FF050000 		.4byte	.LASF48
 932 0253 04       		.byte	0x4
 933 0254 0A       		.byte	0xa
 934 0255 7C       		.byte	0x7c
 935 0256 67020000 		.4byte	0x267
 936 025a 06       		.uleb128 0x6
 937 025b 50010000 		.4byte	.LASF49
 938 025f 0A       		.byte	0xa
 939 0260 7D       		.byte	0x7d
 940 0261 3D020000 		.4byte	0x23d
 941 0265 00       		.byte	0
 942 0266 00       		.byte	0
 943 0267 03       		.uleb128 0x3
 944 0268 09070000 		.4byte	.LASF50
 945 026c 09       		.byte	0x9
 946 026d 45       		.byte	0x45
 947 026e 72020000 		.4byte	0x272
 948 0272 05       		.uleb128 0x5
 949 0273 75000000 		.4byte	.LASF51
 950 0277 08       		.byte	0x8
 951 0278 0A       		.byte	0xa
 952 0279 83       		.byte	0x83
 953 027a 97020000 		.4byte	0x297
 954 027e 06       		.uleb128 0x6
 955 027f 50010000 		.4byte	.LASF49
 956 0283 0A       		.byte	0xa
 957 0284 84       		.byte	0x84
 958 0285 3D020000 		.4byte	0x23d
 959 0289 00       		.byte	0
 960 028a 06       		.uleb128 0x6
 961 028b 64000000 		.4byte	.LASF52
 962 028f 0A       		.byte	0xa
 963 0290 85       		.byte	0x85
 964 0291 3D020000 		.4byte	0x23d
 965 0295 04       		.byte	0x4
 966 0296 00       		.byte	0
 967 0297 03       		.uleb128 0x3
 968 0298 16000000 		.4byte	.LASF53
 969 029c 09       		.byte	0x9
ARM GAS  /tmp/ccvDO2JW.s 			page 18


 970 029d 4C       		.byte	0x4c
 971 029e A2020000 		.4byte	0x2a2
 972 02a2 0B       		.uleb128 0xb
 973 02a3 24040000 		.4byte	.LASF54
 974 02a7 1C       		.byte	0x1c
 975 02a8 0A       		.byte	0xa
 976 02a9 5E01     		.2byte	0x15e
 977 02ab FE020000 		.4byte	0x2fe
 978 02af 09       		.uleb128 0x9
 979 02b0 96030000 		.4byte	.LASF29
 980 02b4 0A       		.byte	0xa
 981 02b5 5F01     		.2byte	0x15f
 982 02b7 67020000 		.4byte	0x267
 983 02bb 00       		.byte	0
 984 02bc 09       		.uleb128 0x9
 985 02bd F8040000 		.4byte	.LASF30
 986 02c1 0A       		.byte	0xa
 987 02c2 6001     		.2byte	0x160
 988 02c4 05010000 		.4byte	0x105
 989 02c8 08       		.byte	0x8
 990 02c9 08       		.uleb128 0x8
 991 02ca 63747800 		.ascii	"ctx\000"
 992 02ce 0A       		.byte	0xa
 993 02cf 6201     		.2byte	0x162
 994 02d1 82040000 		.4byte	0x482
 995 02d5 0C       		.byte	0xc
 996 02d6 09       		.uleb128 0x9
 997 02d7 53040000 		.4byte	.LASF31
 998 02db 0A       		.byte	0xa
 999 02dc 6501     		.2byte	0x165
 1000 02de 3D020000 		.4byte	0x23d
 1001 02e2 10       		.byte	0x10
 1002 02e3 09       		.uleb128 0x9
 1003 02e4 33060000 		.4byte	.LASF32
 1004 02e8 0A       		.byte	0xa
 1005 02e9 6601     		.2byte	0x166
 1006 02eb 3D020000 		.4byte	0x23d
 1007 02ef 14       		.byte	0x14
 1008 02f0 09       		.uleb128 0x9
 1009 02f1 FD040000 		.4byte	.LASF55
 1010 02f5 0A       		.byte	0xa
 1011 02f6 6901     		.2byte	0x169
 1012 02f8 3D020000 		.4byte	0x23d
 1013 02fc 18       		.byte	0x18
 1014 02fd 00       		.byte	0
 1015 02fe 03       		.uleb128 0x3
 1016 02ff 63060000 		.4byte	.LASF56
 1017 0303 09       		.byte	0x9
 1018 0304 51       		.byte	0x51
 1019 0305 09030000 		.4byte	0x309
 1020 0309 0A       		.uleb128 0xa
 1021 030a 04       		.byte	0x4
 1022 030b 0F030000 		.4byte	0x30f
 1023 030f 0C       		.uleb128 0xc
 1024 0310 1A030000 		.4byte	0x31a
 1025 0314 0D       		.uleb128 0xd
 1026 0315 1A030000 		.4byte	0x31a
ARM GAS  /tmp/ccvDO2JW.s 			page 19


 1027 0319 00       		.byte	0
 1028 031a 0E       		.uleb128 0xe
 1029 031b 04       		.byte	0x4
 1030 031c 03       		.uleb128 0x3
 1031 031d 4C050000 		.4byte	.LASF57
 1032 0321 09       		.byte	0x9
 1033 0322 56       		.byte	0x56
 1034 0323 27030000 		.4byte	0x327
 1035 0327 0B       		.uleb128 0xb
 1036 0328 D1050000 		.4byte	.LASF58
 1037 032c 14       		.byte	0x14
 1038 032d 0A       		.byte	0xa
 1039 032e 3901     		.2byte	0x139
 1040 0330 76030000 		.4byte	0x376
 1041 0334 09       		.uleb128 0x9
 1042 0335 50010000 		.4byte	.LASF49
 1043 0339 0A       		.byte	0xa
 1044 033a 3A01     		.2byte	0x13a
 1045 033c 80070000 		.4byte	0x780
 1046 0340 00       		.byte	0
 1047 0341 09       		.uleb128 0x9
 1048 0342 64000000 		.4byte	.LASF52
 1049 0346 0A       		.byte	0xa
 1050 0347 3B01     		.2byte	0x13b
 1051 0349 80070000 		.4byte	0x780
 1052 034d 04       		.byte	0x4
 1053 034e 09       		.uleb128 0x9
 1054 034f 37000000 		.4byte	.LASF59
 1055 0353 0A       		.byte	0xa
 1056 0354 3C01     		.2byte	0x13c
 1057 0356 5A040000 		.4byte	0x45a
 1058 035a 08       		.byte	0x8
 1059 035b 09       		.uleb128 0x9
 1060 035c B9010000 		.4byte	.LASF60
 1061 0360 0A       		.byte	0xa
 1062 0361 3D01     		.2byte	0x13d
 1063 0363 FE020000 		.4byte	0x2fe
 1064 0367 0C       		.byte	0xc
 1065 0368 08       		.uleb128 0x8
 1066 0369 70617200 		.ascii	"par\000"
 1067 036d 0A       		.byte	0xa
 1068 036e 3F01     		.2byte	0x13f
 1069 0370 1A030000 		.4byte	0x31a
 1070 0374 10       		.byte	0x10
 1071 0375 00       		.byte	0
 1072 0376 03       		.uleb128 0x3
 1073 0377 2D010000 		.4byte	.LASF61
 1074 037b 09       		.byte	0x9
 1075 037c 5B       		.byte	0x5b
 1076 037d 81030000 		.4byte	0x381
 1077 0381 0B       		.uleb128 0xb
 1078 0382 9B040000 		.4byte	.LASF62
 1079 0386 10       		.byte	0x10
 1080 0387 0A       		.byte	0xa
 1081 0388 4901     		.2byte	0x149
 1082 038a C3030000 		.4byte	0x3c3
 1083 038e 09       		.uleb128 0x9
ARM GAS  /tmp/ccvDO2JW.s 			page 20


 1084 038f 50010000 		.4byte	.LASF49
 1085 0393 0A       		.byte	0xa
 1086 0394 4A01     		.2byte	0x14a
 1087 0396 80070000 		.4byte	0x780
 1088 039a 00       		.byte	0
 1089 039b 09       		.uleb128 0x9
 1090 039c 64000000 		.4byte	.LASF52
 1091 03a0 0A       		.byte	0xa
 1092 03a1 4C01     		.2byte	0x14c
 1093 03a3 80070000 		.4byte	0x780
 1094 03a7 04       		.byte	0x4
 1095 03a8 09       		.uleb128 0x9
 1096 03a9 37000000 		.4byte	.LASF59
 1097 03ad 0A       		.byte	0xa
 1098 03ae 4E01     		.2byte	0x14e
 1099 03b0 5A040000 		.4byte	0x45a
 1100 03b4 08       		.byte	0x8
 1101 03b5 09       		.uleb128 0x9
 1102 03b6 93050000 		.4byte	.LASF63
 1103 03ba 0A       		.byte	0xa
 1104 03bb 5601     		.2byte	0x156
 1105 03bd 4F040000 		.4byte	0x44f
 1106 03c1 0C       		.byte	0xc
 1107 03c2 00       		.byte	0
 1108 03c3 03       		.uleb128 0x3
 1109 03c4 86000000 		.4byte	.LASF64
 1110 03c8 09       		.byte	0x9
 1111 03c9 60       		.byte	0x60
 1112 03ca CE030000 		.4byte	0x3ce
 1113 03ce 0B       		.uleb128 0xb
 1114 03cf 0D020000 		.4byte	.LASF65
 1115 03d3 04       		.byte	0x4
 1116 03d4 0A       		.byte	0xa
 1117 03d5 7001     		.2byte	0x170
 1118 03d7 E9030000 		.4byte	0x3e9
 1119 03db 09       		.uleb128 0x9
 1120 03dc 7A060000 		.4byte	.LASF66
 1121 03e0 0A       		.byte	0xa
 1122 03e1 7801     		.2byte	0x178
 1123 03e3 86070000 		.4byte	0x786
 1124 03e7 00       		.byte	0
 1125 03e8 00       		.byte	0
 1126 03e9 03       		.uleb128 0x3
 1127 03ea FB030000 		.4byte	.LASF67
 1128 03ee 09       		.byte	0x9
 1129 03ef 65       		.byte	0x65
 1130 03f0 F4030000 		.4byte	0x3f4
 1131 03f4 0B       		.uleb128 0xb
 1132 03f5 A3050000 		.4byte	.LASF68
 1133 03f9 D0       		.byte	0xd0
 1134 03fa 0A       		.byte	0xa
 1135 03fb 9001     		.2byte	0x190
 1136 03fd 4F040000 		.4byte	0x44f
 1137 0401 09       		.uleb128 0x9
 1138 0402 25070000 		.4byte	.LASF69
 1139 0406 0A       		.byte	0xa
 1140 0407 9401     		.2byte	0x194
ARM GAS  /tmp/ccvDO2JW.s 			page 21


 1141 0409 97020000 		.4byte	0x297
 1142 040d 00       		.byte	0
 1143 040e 09       		.uleb128 0x9
 1144 040f 85010000 		.4byte	.LASF70
 1145 0413 0A       		.byte	0xa
 1146 0414 9801     		.2byte	0x198
 1147 0416 76030000 		.4byte	0x376
 1148 041a 1C       		.byte	0x1c
 1149 041b 08       		.uleb128 0x8
 1150 041c 64626700 		.ascii	"dbg\000"
 1151 0420 0A       		.byte	0xa
 1152 0421 9C01     		.2byte	0x19c
 1153 0423 C3030000 		.4byte	0x3c3
 1154 0427 2C       		.byte	0x2c
 1155 0428 09       		.uleb128 0x9
 1156 0429 1A010000 		.4byte	.LASF71
 1157 042d 0A       		.byte	0xa
 1158 042e A001     		.2byte	0x1a0
 1159 0430 3C010000 		.4byte	0x13c
 1160 0434 30       		.byte	0x30
 1161 0435 08       		.uleb128 0x8
 1162 0436 746D00   		.ascii	"tm\000"
 1163 0439 0A       		.byte	0xa
 1164 043a A501     		.2byte	0x1a5
 1165 043c 01060000 		.4byte	0x601
 1166 0440 90       		.byte	0x90
 1167 0441 09       		.uleb128 0x9
 1168 0442 4D000000 		.4byte	.LASF72
 1169 0446 0A       		.byte	0xa
 1170 0447 AB01     		.2byte	0x1ab
 1171 0449 93060000 		.4byte	0x693
 1172 044d 98       		.byte	0x98
 1173 044e 00       		.byte	0
 1174 044f 03       		.uleb128 0x3
 1175 0450 59060000 		.4byte	.LASF73
 1176 0454 0B       		.byte	0xb
 1177 0455 6D       		.byte	0x6d
 1178 0456 B8000000 		.4byte	0xb8
 1179 045a 03       		.uleb128 0x3
 1180 045b 4D020000 		.4byte	.LASF74
 1181 045f 0B       		.byte	0xb
 1182 0460 79       		.byte	0x79
 1183 0461 B8000000 		.4byte	0xb8
 1184 0465 04       		.uleb128 0x4
 1185 0466 04       		.byte	0x4
 1186 0467 07       		.byte	0x7
 1187 0468 7F040000 		.4byte	.LASF75
 1188 046c 03       		.uleb128 0x3
 1189 046d F8010000 		.4byte	.LASF76
 1190 0471 0C       		.byte	0xc
 1191 0472 65       		.byte	0x65
 1192 0473 1A030000 		.4byte	0x31a
 1193 0477 03       		.uleb128 0x3
 1194 0478 48040000 		.4byte	.LASF77
 1195 047c 0C       		.byte	0xc
 1196 047d 6D       		.byte	0x6d
 1197 047e C3000000 		.4byte	0xc3
ARM GAS  /tmp/ccvDO2JW.s 			page 22


 1198 0482 05       		.uleb128 0x5
 1199 0483 BF040000 		.4byte	.LASF78
 1200 0487 04       		.byte	0x4
 1201 0488 0C       		.byte	0xc
 1202 0489 89       		.byte	0x89
 1203 048a 9A040000 		.4byte	0x49a
 1204 048e 07       		.uleb128 0x7
 1205 048f 737000   		.ascii	"sp\000"
 1206 0492 0C       		.byte	0xc
 1207 0493 8A       		.byte	0x8a
 1208 0494 E6050000 		.4byte	0x5e6
 1209 0498 00       		.byte	0
 1210 0499 00       		.byte	0
 1211 049a 0B       		.uleb128 0xb
 1212 049b 69000000 		.4byte	.LASF79
 1213 049f 64       		.byte	0x64
 1214 04a0 0D       		.byte	0xd
 1215 04a1 5901     		.2byte	0x159
 1216 04a3 E6050000 		.4byte	0x5e6
 1217 04a7 08       		.uleb128 0x8
 1218 04a8 73313600 		.ascii	"s16\000"
 1219 04ac 0D       		.byte	0xd
 1220 04ad 5B01     		.2byte	0x15b
 1221 04af 6C040000 		.4byte	0x46c
 1222 04b3 00       		.byte	0
 1223 04b4 08       		.uleb128 0x8
 1224 04b5 73313700 		.ascii	"s17\000"
 1225 04b9 0D       		.byte	0xd
 1226 04ba 5C01     		.2byte	0x15c
 1227 04bc 6C040000 		.4byte	0x46c
 1228 04c0 04       		.byte	0x4
 1229 04c1 08       		.uleb128 0x8
 1230 04c2 73313800 		.ascii	"s18\000"
 1231 04c6 0D       		.byte	0xd
 1232 04c7 5D01     		.2byte	0x15d
 1233 04c9 6C040000 		.4byte	0x46c
 1234 04cd 08       		.byte	0x8
 1235 04ce 08       		.uleb128 0x8
 1236 04cf 73313900 		.ascii	"s19\000"
 1237 04d3 0D       		.byte	0xd
 1238 04d4 5E01     		.2byte	0x15e
 1239 04d6 6C040000 		.4byte	0x46c
 1240 04da 0C       		.byte	0xc
 1241 04db 08       		.uleb128 0x8
 1242 04dc 73323000 		.ascii	"s20\000"
 1243 04e0 0D       		.byte	0xd
 1244 04e1 5F01     		.2byte	0x15f
 1245 04e3 6C040000 		.4byte	0x46c
 1246 04e7 10       		.byte	0x10
 1247 04e8 08       		.uleb128 0x8
 1248 04e9 73323100 		.ascii	"s21\000"
 1249 04ed 0D       		.byte	0xd
 1250 04ee 6001     		.2byte	0x160
 1251 04f0 6C040000 		.4byte	0x46c
 1252 04f4 14       		.byte	0x14
 1253 04f5 08       		.uleb128 0x8
 1254 04f6 73323200 		.ascii	"s22\000"
ARM GAS  /tmp/ccvDO2JW.s 			page 23


 1255 04fa 0D       		.byte	0xd
 1256 04fb 6101     		.2byte	0x161
 1257 04fd 6C040000 		.4byte	0x46c
 1258 0501 18       		.byte	0x18
 1259 0502 08       		.uleb128 0x8
 1260 0503 73323300 		.ascii	"s23\000"
 1261 0507 0D       		.byte	0xd
 1262 0508 6201     		.2byte	0x162
 1263 050a 6C040000 		.4byte	0x46c
 1264 050e 1C       		.byte	0x1c
 1265 050f 08       		.uleb128 0x8
 1266 0510 73323400 		.ascii	"s24\000"
 1267 0514 0D       		.byte	0xd
 1268 0515 6301     		.2byte	0x163
 1269 0517 6C040000 		.4byte	0x46c
 1270 051b 20       		.byte	0x20
 1271 051c 08       		.uleb128 0x8
 1272 051d 73323500 		.ascii	"s25\000"
 1273 0521 0D       		.byte	0xd
 1274 0522 6401     		.2byte	0x164
 1275 0524 6C040000 		.4byte	0x46c
 1276 0528 24       		.byte	0x24
 1277 0529 08       		.uleb128 0x8
 1278 052a 73323600 		.ascii	"s26\000"
 1279 052e 0D       		.byte	0xd
 1280 052f 6501     		.2byte	0x165
 1281 0531 6C040000 		.4byte	0x46c
 1282 0535 28       		.byte	0x28
 1283 0536 08       		.uleb128 0x8
 1284 0537 73323700 		.ascii	"s27\000"
 1285 053b 0D       		.byte	0xd
 1286 053c 6601     		.2byte	0x166
 1287 053e 6C040000 		.4byte	0x46c
 1288 0542 2C       		.byte	0x2c
 1289 0543 08       		.uleb128 0x8
 1290 0544 73323800 		.ascii	"s28\000"
 1291 0548 0D       		.byte	0xd
 1292 0549 6701     		.2byte	0x167
 1293 054b 6C040000 		.4byte	0x46c
 1294 054f 30       		.byte	0x30
 1295 0550 08       		.uleb128 0x8
 1296 0551 73323900 		.ascii	"s29\000"
 1297 0555 0D       		.byte	0xd
 1298 0556 6801     		.2byte	0x168
 1299 0558 6C040000 		.4byte	0x46c
 1300 055c 34       		.byte	0x34
 1301 055d 08       		.uleb128 0x8
 1302 055e 73333000 		.ascii	"s30\000"
 1303 0562 0D       		.byte	0xd
 1304 0563 6901     		.2byte	0x169
 1305 0565 6C040000 		.4byte	0x46c
 1306 0569 38       		.byte	0x38
 1307 056a 08       		.uleb128 0x8
 1308 056b 73333100 		.ascii	"s31\000"
 1309 056f 0D       		.byte	0xd
 1310 0570 6A01     		.2byte	0x16a
 1311 0572 6C040000 		.4byte	0x46c
ARM GAS  /tmp/ccvDO2JW.s 			page 24


 1312 0576 3C       		.byte	0x3c
 1313 0577 08       		.uleb128 0x8
 1314 0578 723400   		.ascii	"r4\000"
 1315 057b 0D       		.byte	0xd
 1316 057c 6C01     		.2byte	0x16c
 1317 057e 6C040000 		.4byte	0x46c
 1318 0582 40       		.byte	0x40
 1319 0583 08       		.uleb128 0x8
 1320 0584 723500   		.ascii	"r5\000"
 1321 0587 0D       		.byte	0xd
 1322 0588 6D01     		.2byte	0x16d
 1323 058a 6C040000 		.4byte	0x46c
 1324 058e 44       		.byte	0x44
 1325 058f 08       		.uleb128 0x8
 1326 0590 723600   		.ascii	"r6\000"
 1327 0593 0D       		.byte	0xd
 1328 0594 6E01     		.2byte	0x16e
 1329 0596 6C040000 		.4byte	0x46c
 1330 059a 48       		.byte	0x48
 1331 059b 08       		.uleb128 0x8
 1332 059c 723700   		.ascii	"r7\000"
 1333 059f 0D       		.byte	0xd
 1334 05a0 6F01     		.2byte	0x16f
 1335 05a2 6C040000 		.4byte	0x46c
 1336 05a6 4C       		.byte	0x4c
 1337 05a7 08       		.uleb128 0x8
 1338 05a8 723800   		.ascii	"r8\000"
 1339 05ab 0D       		.byte	0xd
 1340 05ac 7001     		.2byte	0x170
 1341 05ae 6C040000 		.4byte	0x46c
 1342 05b2 50       		.byte	0x50
 1343 05b3 08       		.uleb128 0x8
 1344 05b4 723900   		.ascii	"r9\000"
 1345 05b7 0D       		.byte	0xd
 1346 05b8 7101     		.2byte	0x171
 1347 05ba 6C040000 		.4byte	0x46c
 1348 05be 54       		.byte	0x54
 1349 05bf 08       		.uleb128 0x8
 1350 05c0 72313000 		.ascii	"r10\000"
 1351 05c4 0D       		.byte	0xd
 1352 05c5 7201     		.2byte	0x172
 1353 05c7 6C040000 		.4byte	0x46c
 1354 05cb 58       		.byte	0x58
 1355 05cc 08       		.uleb128 0x8
 1356 05cd 72313100 		.ascii	"r11\000"
 1357 05d1 0D       		.byte	0xd
 1358 05d2 7301     		.2byte	0x173
 1359 05d4 6C040000 		.4byte	0x46c
 1360 05d8 5C       		.byte	0x5c
 1361 05d9 08       		.uleb128 0x8
 1362 05da 6C7200   		.ascii	"lr\000"
 1363 05dd 0D       		.byte	0xd
 1364 05de 7401     		.2byte	0x174
 1365 05e0 6C040000 		.4byte	0x46c
 1366 05e4 60       		.byte	0x60
 1367 05e5 00       		.byte	0
 1368 05e6 0A       		.uleb128 0xa
ARM GAS  /tmp/ccvDO2JW.s 			page 25


 1369 05e7 04       		.byte	0x4
 1370 05e8 9A040000 		.4byte	0x49a
 1371 05ec 0F       		.uleb128 0xf
 1372 05ed 04       		.byte	0x4
 1373 05ee 0E       		.byte	0xe
 1374 05ef 38       		.byte	0x38
 1375 05f0 01060000 		.4byte	0x601
 1376 05f4 06       		.uleb128 0x6
 1377 05f5 84060000 		.4byte	.LASF80
 1378 05f9 0E       		.byte	0xe
 1379 05fa 3C       		.byte	0x3c
 1380 05fb CE000000 		.4byte	0xce
 1381 05ff 00       		.byte	0
 1382 0600 00       		.byte	0
 1383 0601 03       		.uleb128 0x3
 1384 0602 CC040000 		.4byte	.LASF81
 1385 0606 0E       		.byte	0xe
 1386 0607 3D       		.byte	0x3d
 1387 0608 EC050000 		.4byte	0x5ec
 1388 060c 0F       		.uleb128 0xf
 1389 060d 18       		.byte	0x18
 1390 060e 0E       		.byte	0xe
 1391 060f 48       		.byte	0x48
 1392 0610 4F060000 		.4byte	0x64f
 1393 0614 06       		.uleb128 0x6
 1394 0615 54060000 		.4byte	.LASF82
 1395 0619 0E       		.byte	0xe
 1396 061a 49       		.byte	0x49
 1397 061b CE000000 		.4byte	0xce
 1398 061f 00       		.byte	0
 1399 0620 06       		.uleb128 0x6
 1400 0621 CE000000 		.4byte	.LASF83
 1401 0625 0E       		.byte	0xe
 1402 0626 4A       		.byte	0x4a
 1403 0627 CE000000 		.4byte	0xce
 1404 062b 04       		.byte	0x4
 1405 062c 06       		.uleb128 0x6
 1406 062d 05050000 		.4byte	.LASF84
 1407 0631 0E       		.byte	0xe
 1408 0632 4B       		.byte	0x4b
 1409 0633 CE000000 		.4byte	0xce
 1410 0637 08       		.byte	0x8
 1411 0638 07       		.uleb128 0x7
 1412 0639 6E00     		.ascii	"n\000"
 1413 063b 0E       		.byte	0xe
 1414 063c 4C       		.byte	0x4c
 1415 063d 31010000 		.4byte	0x131
 1416 0641 0C       		.byte	0xc
 1417 0642 06       		.uleb128 0x6
 1418 0643 15050000 		.4byte	.LASF85
 1419 0647 0E       		.byte	0xe
 1420 0648 4D       		.byte	0x4d
 1421 0649 D9000000 		.4byte	0xd9
 1422 064d 10       		.byte	0x10
 1423 064e 00       		.byte	0
 1424 064f 03       		.uleb128 0x3
 1425 0650 D4000000 		.4byte	.LASF86
ARM GAS  /tmp/ccvDO2JW.s 			page 26


 1426 0654 0E       		.byte	0xe
 1427 0655 4E       		.byte	0x4e
 1428 0656 0C060000 		.4byte	0x60c
 1429 065a 0F       		.uleb128 0xf
 1430 065b 38       		.byte	0x38
 1431 065c 0F       		.byte	0xf
 1432 065d 38       		.byte	0x38
 1433 065e 93060000 		.4byte	0x693
 1434 0662 06       		.uleb128 0x6
 1435 0663 90030000 		.4byte	.LASF87
 1436 0667 0F       		.byte	0xf
 1437 0668 39       		.byte	0x39
 1438 0669 31010000 		.4byte	0x131
 1439 066d 00       		.byte	0
 1440 066e 06       		.uleb128 0x6
 1441 066f 64050000 		.4byte	.LASF88
 1442 0673 0F       		.byte	0xf
 1443 0674 3A       		.byte	0x3a
 1444 0675 31010000 		.4byte	0x131
 1445 0679 04       		.byte	0x4
 1446 067a 06       		.uleb128 0x6
 1447 067b B7070000 		.4byte	.LASF89
 1448 067f 0F       		.byte	0xf
 1449 0680 3B       		.byte	0x3b
 1450 0681 4F060000 		.4byte	0x64f
 1451 0685 08       		.byte	0x8
 1452 0686 06       		.uleb128 0x6
 1453 0687 19040000 		.4byte	.LASF90
 1454 068b 0F       		.byte	0xf
 1455 068c 3D       		.byte	0x3d
 1456 068d 4F060000 		.4byte	0x64f
 1457 0691 20       		.byte	0x20
 1458 0692 00       		.byte	0
 1459 0693 03       		.uleb128 0x3
 1460 0694 B5030000 		.4byte	.LASF91
 1461 0698 0F       		.byte	0xf
 1462 0699 3F       		.byte	0x3f
 1463 069a 5A060000 		.4byte	0x65a
 1464 069e 10       		.uleb128 0x10
 1465 069f 04       		.byte	0x4
 1466 06a0 0A       		.byte	0xa
 1467 06a1 C6       		.byte	0xc6
 1468 06a2 00070000 		.4byte	0x700
 1469 06a6 11       		.uleb128 0x11
 1470 06a7 3D000000 		.4byte	.LASF92
 1471 06ab 0A       		.byte	0xa
 1472 06ac CD       		.byte	0xcd
 1473 06ad 10010000 		.4byte	0x110
 1474 06b1 11       		.uleb128 0x11
 1475 06b2 11010000 		.4byte	.LASF93
 1476 06b6 0A       		.byte	0xa
 1477 06b7 D4       		.byte	0xd4
 1478 06b8 10010000 		.4byte	0x110
 1479 06bc 11       		.uleb128 0x11
 1480 06bd 73070000 		.4byte	.LASF94
 1481 06c1 0A       		.byte	0xa
 1482 06c2 DB       		.byte	0xdb
ARM GAS  /tmp/ccvDO2JW.s 			page 27


 1483 06c3 1A030000 		.4byte	0x31a
 1484 06c7 11       		.uleb128 0x11
 1485 06c8 74030000 		.4byte	.LASF95
 1486 06cc 0A       		.byte	0xa
 1487 06cd E2       		.byte	0xe2
 1488 06ce 00070000 		.4byte	0x700
 1489 06d2 11       		.uleb128 0x11
 1490 06d3 25010000 		.4byte	.LASF96
 1491 06d7 0A       		.byte	0xa
 1492 06d8 E7       		.byte	0xe7
 1493 06d9 10010000 		.4byte	0x110
 1494 06dd 11       		.uleb128 0x11
 1495 06de 6D030000 		.4byte	.LASF97
 1496 06e2 0A       		.byte	0xa
 1497 06e3 F0       		.byte	0xf0
 1498 06e4 2B070000 		.4byte	0x72b
 1499 06e8 11       		.uleb128 0x11
 1500 06e9 F8050000 		.4byte	.LASF98
 1501 06ed 0A       		.byte	0xa
 1502 06ee F9       		.byte	0xf9
 1503 06ef 62070000 		.4byte	0x762
 1504 06f3 12       		.uleb128 0x12
 1505 06f4 9C050000 		.4byte	.LASF99
 1506 06f8 0A       		.byte	0xa
 1507 06f9 0101     		.2byte	0x101
 1508 06fb 1B010000 		.4byte	0x11b
 1509 06ff 00       		.byte	0
 1510 0700 0A       		.uleb128 0xa
 1511 0701 04       		.byte	0x4
 1512 0702 32020000 		.4byte	0x232
 1513 0706 05       		.uleb128 0x5
 1514 0707 E2050000 		.4byte	.LASF100
 1515 070b 0C       		.byte	0xc
 1516 070c 10       		.byte	0x10
 1517 070d 34       		.byte	0x34
 1518 070e 2B070000 		.4byte	0x72b
 1519 0712 06       		.uleb128 0x6
 1520 0713 96030000 		.4byte	.LASF29
 1521 0717 10       		.byte	0x10
 1522 0718 35       		.byte	0x35
 1523 0719 67020000 		.4byte	0x267
 1524 071d 00       		.byte	0
 1525 071e 07       		.uleb128 0x7
 1526 071f 636E7400 		.ascii	"cnt\000"
 1527 0723 10       		.byte	0x10
 1528 0724 37       		.byte	0x37
 1529 0725 26010000 		.4byte	0x126
 1530 0729 08       		.byte	0x8
 1531 072a 00       		.byte	0
 1532 072b 0A       		.uleb128 0xa
 1533 072c 04       		.byte	0x4
 1534 072d 06070000 		.4byte	0x706
 1535 0731 05       		.uleb128 0x5
 1536 0732 A2060000 		.4byte	.LASF101
 1537 0736 10       		.byte	0x10
 1538 0737 11       		.byte	0x11
 1539 0738 39       		.byte	0x39
ARM GAS  /tmp/ccvDO2JW.s 			page 28


 1540 0739 62070000 		.4byte	0x762
 1541 073d 06       		.uleb128 0x6
 1542 073e 96030000 		.4byte	.LASF29
 1543 0742 11       		.byte	0x11
 1544 0743 3A       		.byte	0x3a
 1545 0744 67020000 		.4byte	0x267
 1546 0748 00       		.byte	0
 1547 0749 06       		.uleb128 0x6
 1548 074a 0F060000 		.4byte	.LASF102
 1549 074e 11       		.byte	0x11
 1550 074f 3C       		.byte	0x3c
 1551 0750 3D020000 		.4byte	0x23d
 1552 0754 08       		.byte	0x8
 1553 0755 06       		.uleb128 0x6
 1554 0756 50010000 		.4byte	.LASF49
 1555 075a 11       		.byte	0x11
 1556 075b 3E       		.byte	0x3e
 1557 075c A1070000 		.4byte	0x7a1
 1558 0760 0C       		.byte	0xc
 1559 0761 00       		.byte	0
 1560 0762 0A       		.uleb128 0xa
 1561 0763 04       		.byte	0x4
 1562 0764 31070000 		.4byte	0x731
 1563 0768 0A       		.uleb128 0xa
 1564 0769 04       		.byte	0x4
 1565 076a 6E070000 		.4byte	0x76e
 1566 076e 13       		.uleb128 0x13
 1567 076f 73070000 		.4byte	0x773
 1568 0773 04       		.uleb128 0x4
 1569 0774 01       		.byte	0x1
 1570 0775 08       		.byte	0x8
 1571 0776 2E060000 		.4byte	.LASF103
 1572 077a 0A       		.uleb128 0xa
 1573 077b 04       		.byte	0x4
 1574 077c 77040000 		.4byte	0x477
 1575 0780 0A       		.uleb128 0xa
 1576 0781 04       		.byte	0x4
 1577 0782 1C030000 		.4byte	0x31c
 1578 0786 14       		.uleb128 0x14
 1579 0787 68070000 		.4byte	0x768
 1580 078b 03       		.uleb128 0x3
 1581 078c C5050000 		.4byte	.LASF104
 1582 0790 10       		.byte	0x10
 1583 0791 38       		.byte	0x38
 1584 0792 06070000 		.4byte	0x706
 1585 0796 03       		.uleb128 0x3
 1586 0797 3F020000 		.4byte	.LASF105
 1587 079b 11       		.byte	0x11
 1588 079c 34       		.byte	0x34
 1589 079d 31070000 		.4byte	0x731
 1590 07a1 0A       		.uleb128 0xa
 1591 07a2 04       		.byte	0x4
 1592 07a3 96070000 		.4byte	0x796
 1593 07a7 04       		.uleb128 0x4
 1594 07a8 01       		.byte	0x1
 1595 07a9 02       		.byte	0x2
 1596 07aa 6D050000 		.4byte	.LASF106
ARM GAS  /tmp/ccvDO2JW.s 			page 29


 1597 07ae 03       		.uleb128 0x3
 1598 07af DF060000 		.4byte	.LASF107
 1599 07b3 12       		.byte	0x12
 1600 07b4 47       		.byte	0x47
 1601 07b5 B9070000 		.4byte	0x7b9
 1602 07b9 0A       		.uleb128 0xa
 1603 07ba 04       		.byte	0x4
 1604 07bb BF070000 		.4byte	0x7bf
 1605 07bf 15       		.uleb128 0x15
 1606 07c0 1A030000 		.4byte	0x31a
 1607 07c4 D3070000 		.4byte	0x7d3
 1608 07c8 0D       		.uleb128 0xd
 1609 07c9 2C000000 		.4byte	0x2c
 1610 07cd 0D       		.uleb128 0xd
 1611 07ce 37000000 		.4byte	0x37
 1612 07d2 00       		.byte	0
 1613 07d3 05       		.uleb128 0x5
 1614 07d4 19070000 		.4byte	.LASF108
 1615 07d8 04       		.byte	0x4
 1616 07d9 04       		.byte	0x4
 1617 07da 38       		.byte	0x38
 1618 07db EC070000 		.4byte	0x7ec
 1619 07df 06       		.uleb128 0x6
 1620 07e0 50010000 		.4byte	.LASF49
 1621 07e4 04       		.byte	0x4
 1622 07e5 39       		.byte	0x39
 1623 07e6 EC070000 		.4byte	0x7ec
 1624 07ea 00       		.byte	0
 1625 07eb 00       		.byte	0
 1626 07ec 0A       		.uleb128 0xa
 1627 07ed 04       		.byte	0x4
 1628 07ee D3070000 		.4byte	0x7d3
 1629 07f2 0F       		.uleb128 0xf
 1630 07f3 10       		.byte	0x10
 1631 07f4 04       		.byte	0x4
 1632 07f5 40       		.byte	0x40
 1633 07f6 2B080000 		.4byte	0x82b
 1634 07fa 06       		.uleb128 0x6
 1635 07fb 50010000 		.4byte	.LASF49
 1636 07ff 04       		.byte	0x4
 1637 0800 41       		.byte	0x41
 1638 0801 EC070000 		.4byte	0x7ec
 1639 0805 00       		.byte	0
 1640 0806 06       		.uleb128 0x6
 1641 0807 FD060000 		.4byte	.LASF109
 1642 080b 04       		.byte	0x4
 1643 080c 42       		.byte	0x42
 1644 080d 2C000000 		.4byte	0x2c
 1645 0811 04       		.byte	0x4
 1646 0812 06       		.uleb128 0x6
 1647 0813 47020000 		.4byte	.LASF110
 1648 0817 04       		.byte	0x4
 1649 0818 44       		.byte	0x44
 1650 0819 37000000 		.4byte	0x37
 1651 081d 08       		.byte	0x8
 1652 081e 06       		.uleb128 0x6
 1653 081f 95000000 		.4byte	.LASF111
ARM GAS  /tmp/ccvDO2JW.s 			page 30


 1654 0823 04       		.byte	0x4
 1655 0824 45       		.byte	0x45
 1656 0825 AE070000 		.4byte	0x7ae
 1657 0829 0C       		.byte	0xc
 1658 082a 00       		.byte	0
 1659 082b 03       		.uleb128 0x3
 1660 082c 82030000 		.4byte	.LASF112
 1661 0830 04       		.byte	0x4
 1662 0831 47       		.byte	0x47
 1663 0832 F2070000 		.4byte	0x7f2
 1664 0836 0F       		.uleb128 0xf
 1665 0837 1C       		.byte	0x1c
 1666 0838 04       		.byte	0x4
 1667 0839 4D       		.byte	0x4d
 1668 083a 57080000 		.4byte	0x857
 1669 083e 07       		.uleb128 0x7
 1670 083f 73656D00 		.ascii	"sem\000"
 1671 0843 04       		.byte	0x4
 1672 0844 4E       		.byte	0x4e
 1673 0845 8B070000 		.4byte	0x78b
 1674 0849 00       		.byte	0
 1675 084a 06       		.uleb128 0x6
 1676 084b 2B070000 		.4byte	.LASF113
 1677 084f 04       		.byte	0x4
 1678 0850 50       		.byte	0x50
 1679 0851 2B080000 		.4byte	0x82b
 1680 0855 0C       		.byte	0xc
 1681 0856 00       		.byte	0
 1682 0857 03       		.uleb128 0x3
 1683 0858 00000000 		.4byte	.LASF114
 1684 085c 04       		.byte	0x4
 1685 085d 51       		.byte	0x51
 1686 085e 36080000 		.4byte	0x836
 1687 0862 16       		.uleb128 0x16
 1688 0863 6C060000 		.4byte	.LASF120
 1689 0867 02       		.byte	0x2
 1690 0868 EB01     		.2byte	0x1eb
 1691 086a 03       		.byte	0x3
 1692 086b 7C080000 		.4byte	0x87c
 1693 086f 17       		.uleb128 0x17
 1694 0870 7D010000 		.4byte	.LASF117
 1695 0874 02       		.byte	0x2
 1696 0875 EB01     		.2byte	0x1eb
 1697 0877 B8000000 		.4byte	0xb8
 1698 087b 00       		.byte	0
 1699 087c 18       		.uleb128 0x18
 1700 087d A5070000 		.4byte	.LASF115
 1701 0881 0D       		.byte	0xd
 1702 0882 5A02     		.2byte	0x25a
 1703 0884 03       		.byte	0x3
 1704 0885 18       		.uleb128 0x18
 1705 0886 8C010000 		.4byte	.LASF116
 1706 088a 0D       		.byte	0xd
 1707 088b 7202     		.2byte	0x272
 1708 088d 03       		.byte	0x3
 1709 088e 19       		.uleb128 0x19
 1710 088f 01020000 		.4byte	.LASF122
ARM GAS  /tmp/ccvDO2JW.s 			page 31


 1711 0893 01       		.byte	0x1
 1712 0894 B7       		.byte	0xb7
 1713 0895 01       		.byte	0x1
 1714 0896 C8080000 		.4byte	0x8c8
 1715 089a 1A       		.uleb128 0x1a
 1716 089b 6D7000   		.ascii	"mp\000"
 1717 089e 01       		.byte	0x1
 1718 089f B7       		.byte	0xb7
 1719 08a0 C8080000 		.4byte	0x8c8
 1720 08a4 1B       		.uleb128 0x1b
 1721 08a5 C0050000 		.4byte	.LASF118
 1722 08a9 01       		.byte	0x1
 1723 08aa B7       		.byte	0xb7
 1724 08ab 1A030000 		.4byte	0x31a
 1725 08af 1C       		.uleb128 0x1c
 1726 08b0 70687000 		.ascii	"php\000"
 1727 08b4 01       		.byte	0x1
 1728 08b5 B8       		.byte	0xb8
 1729 08b6 EC070000 		.4byte	0x7ec
 1730 08ba 1D       		.uleb128 0x1d
 1731 08bb AD050000 		.4byte	.LASF119
 1732 08bf DE080000 		.4byte	0x8de
 1733 08c3 01020000 		.4byte	.LASF122
 1734 08c7 00       		.byte	0
 1735 08c8 0A       		.uleb128 0xa
 1736 08c9 04       		.byte	0x4
 1737 08ca 2B080000 		.4byte	0x82b
 1738 08ce 1E       		.uleb128 0x1e
 1739 08cf 73070000 		.4byte	0x773
 1740 08d3 DE080000 		.4byte	0x8de
 1741 08d7 1F       		.uleb128 0x1f
 1742 08d8 65040000 		.4byte	0x465
 1743 08dc 0B       		.byte	0xb
 1744 08dd 00       		.byte	0
 1745 08de 13       		.uleb128 0x13
 1746 08df CE080000 		.4byte	0x8ce
 1747 08e3 20       		.uleb128 0x20
 1748 08e4 07040000 		.4byte	.LASF121
 1749 08e8 04       		.byte	0x4
 1750 08e9 D2       		.byte	0xd2
 1751 08ea 03       		.byte	0x3
 1752 08eb 05090000 		.4byte	0x905
 1753 08ef 1A       		.uleb128 0x1a
 1754 08f0 6D7000   		.ascii	"mp\000"
 1755 08f3 04       		.byte	0x4
 1756 08f4 D2       		.byte	0xd2
 1757 08f5 C8080000 		.4byte	0x8c8
 1758 08f9 1B       		.uleb128 0x1b
 1759 08fa C0050000 		.4byte	.LASF118
 1760 08fe 04       		.byte	0x4
 1761 08ff D2       		.byte	0xd2
 1762 0900 1A030000 		.4byte	0x31a
 1763 0904 00       		.byte	0
 1764 0905 19       		.uleb128 0x19
 1765 0906 C4010000 		.4byte	.LASF123
 1766 090a 01       		.byte	0x1
 1767 090b 4D       		.byte	0x4d
ARM GAS  /tmp/ccvDO2JW.s 			page 32


 1768 090c 01       		.byte	0x1
 1769 090d 4A090000 		.4byte	0x94a
 1770 0911 1A       		.uleb128 0x1a
 1771 0912 6D7000   		.ascii	"mp\000"
 1772 0915 01       		.byte	0x1
 1773 0916 4D       		.byte	0x4d
 1774 0917 C8080000 		.4byte	0x8c8
 1775 091b 1B       		.uleb128 0x1b
 1776 091c 78010000 		.4byte	.LASF124
 1777 0920 01       		.byte	0x1
 1778 0921 4D       		.byte	0x4d
 1779 0922 2C000000 		.4byte	0x2c
 1780 0926 1B       		.uleb128 0x1b
 1781 0927 47020000 		.4byte	.LASF110
 1782 092b 01       		.byte	0x1
 1783 092c 4E       		.byte	0x4e
 1784 092d 37000000 		.4byte	0x37
 1785 0931 1B       		.uleb128 0x1b
 1786 0932 95000000 		.4byte	.LASF111
 1787 0936 01       		.byte	0x1
 1788 0937 4E       		.byte	0x4e
 1789 0938 AE070000 		.4byte	0x7ae
 1790 093c 1D       		.uleb128 0x1d
 1791 093d AD050000 		.4byte	.LASF119
 1792 0941 5A090000 		.4byte	0x95a
 1793 0945 C4010000 		.4byte	.LASF123
 1794 0949 00       		.byte	0
 1795 094a 1E       		.uleb128 0x1e
 1796 094b 73070000 		.4byte	0x773
 1797 094f 5A090000 		.4byte	0x95a
 1798 0953 1F       		.uleb128 0x1f
 1799 0954 65040000 		.4byte	0x465
 1800 0958 17       		.byte	0x17
 1801 0959 00       		.byte	0
 1802 095a 13       		.uleb128 0x13
 1803 095b 4A090000 		.4byte	0x94a
 1804 095f 16       		.uleb128 0x16
 1805 0960 EC060000 		.4byte	.LASF125
 1806 0964 04       		.byte	0x4
 1807 0965 4301     		.2byte	0x143
 1808 0967 03       		.byte	0x3
 1809 0968 85090000 		.4byte	0x985
 1810 096c 21       		.uleb128 0x21
 1811 096d 676D7000 		.ascii	"gmp\000"
 1812 0971 04       		.byte	0x4
 1813 0972 4301     		.2byte	0x143
 1814 0974 85090000 		.4byte	0x985
 1815 0978 17       		.uleb128 0x17
 1816 0979 C0050000 		.4byte	.LASF118
 1817 097d 04       		.byte	0x4
 1818 097e 4301     		.2byte	0x143
 1819 0980 1A030000 		.4byte	0x31a
 1820 0984 00       		.byte	0
 1821 0985 0A       		.uleb128 0xa
 1822 0986 04       		.byte	0x4
 1823 0987 57080000 		.4byte	0x857
 1824 098b 22       		.uleb128 0x22
ARM GAS  /tmp/ccvDO2JW.s 			page 33


 1825 098c 05090000 		.4byte	0x905
 1826 0990 00000000 		.4byte	.LFB290
 1827 0994 0E000000 		.4byte	.LFE290-.LFB290
 1828 0998 01       		.uleb128 0x1
 1829 0999 9C       		.byte	0x9c
 1830 099a C0090000 		.4byte	0x9c0
 1831 099e 23       		.uleb128 0x23
 1832 099f 11090000 		.4byte	0x911
 1833 09a3 01       		.uleb128 0x1
 1834 09a4 50       		.byte	0x50
 1835 09a5 23       		.uleb128 0x23
 1836 09a6 1B090000 		.4byte	0x91b
 1837 09aa 01       		.uleb128 0x1
 1838 09ab 51       		.byte	0x51
 1839 09ac 23       		.uleb128 0x23
 1840 09ad 26090000 		.4byte	0x926
 1841 09b1 01       		.uleb128 0x1
 1842 09b2 52       		.byte	0x52
 1843 09b3 23       		.uleb128 0x23
 1844 09b4 31090000 		.4byte	0x931
 1845 09b8 01       		.uleb128 0x1
 1846 09b9 53       		.byte	0x53
 1847 09ba 24       		.uleb128 0x24
 1848 09bb 3C090000 		.4byte	0x93c
 1849 09bf 00       		.byte	0
 1850 09c0 25       		.uleb128 0x25
 1851 09c1 B2040000 		.4byte	.LASF128
 1852 09c5 01       		.byte	0x1
 1853 09c6 81       		.byte	0x81
 1854 09c7 1A030000 		.4byte	0x31a
 1855 09cb 00000000 		.4byte	.LFB292
 1856 09cf 18000000 		.4byte	.LFE292-.LFB292
 1857 09d3 01       		.uleb128 0x1
 1858 09d4 9C       		.byte	0x9c
 1859 09d5 000A0000 		.4byte	0xa00
 1860 09d9 26       		.uleb128 0x26
 1861 09da 6D7000   		.ascii	"mp\000"
 1862 09dd 01       		.byte	0x1
 1863 09de 81       		.byte	0x81
 1864 09df C8080000 		.4byte	0x8c8
 1865 09e3 00000000 		.4byte	.LLST0
 1866 09e7 27       		.uleb128 0x27
 1867 09e8 C0050000 		.4byte	.LASF118
 1868 09ec 01       		.byte	0x1
 1869 09ed 82       		.byte	0x82
 1870 09ee 1A030000 		.4byte	0x31a
 1871 09f2 37000000 		.4byte	.LLST1
 1872 09f6 28       		.uleb128 0x28
 1873 09f7 AD050000 		.4byte	.LASF119
 1874 09fb 100A0000 		.4byte	0xa10
 1875 09ff 00       		.byte	0
 1876 0a00 1E       		.uleb128 0x1e
 1877 0a01 73070000 		.4byte	0x773
 1878 0a05 100A0000 		.4byte	0xa10
 1879 0a09 1F       		.uleb128 0x1f
 1880 0a0a 65040000 		.4byte	0x465
 1881 0a0e 0C       		.byte	0xc
ARM GAS  /tmp/ccvDO2JW.s 			page 34


 1882 0a0f 00       		.byte	0
 1883 0a10 13       		.uleb128 0x13
 1884 0a11 000A0000 		.4byte	0xa00
 1885 0a15 18       		.uleb128 0x18
 1886 0a16 B6050000 		.4byte	.LASF126
 1887 0a1a 03       		.byte	0x3
 1888 0a1b 6101     		.2byte	0x161
 1889 0a1d 03       		.byte	0x3
 1890 0a1e 16       		.uleb128 0x16
 1891 0a1f 89070000 		.4byte	.LASF127
 1892 0a23 03       		.byte	0x3
 1893 0a24 6D01     		.2byte	0x16d
 1894 0a26 03       		.byte	0x3
 1895 0a27 390A0000 		.4byte	0xa39
 1896 0a2b 1D       		.uleb128 0x1d
 1897 0a2c AD050000 		.4byte	.LASF119
 1898 0a30 390A0000 		.4byte	0xa39
 1899 0a34 89070000 		.4byte	.LASF127
 1900 0a38 00       		.byte	0
 1901 0a39 13       		.uleb128 0x13
 1902 0a3a CE080000 		.4byte	0x8ce
 1903 0a3e 29       		.uleb128 0x29
 1904 0a3f 38070000 		.4byte	.LASF132
 1905 0a43 01       		.byte	0x1
 1906 0a44 A1       		.byte	0xa1
 1907 0a45 1A030000 		.4byte	0x31a
 1908 0a49 00000000 		.4byte	.LFB293
 1909 0a4d 24000000 		.4byte	.LFE293-.LFB293
 1910 0a51 01       		.uleb128 0x1
 1911 0a52 9C       		.byte	0x9c
 1912 0a53 260B0000 		.4byte	0xb26
 1913 0a57 26       		.uleb128 0x26
 1914 0a58 6D7000   		.ascii	"mp\000"
 1915 0a5b 01       		.byte	0x1
 1916 0a5c A1       		.byte	0xa1
 1917 0a5d C8080000 		.4byte	0x8c8
 1918 0a61 61000000 		.4byte	.LLST2
 1919 0a65 27       		.uleb128 0x27
 1920 0a66 C0050000 		.4byte	.LASF118
 1921 0a6a 01       		.byte	0x1
 1922 0a6b A2       		.byte	0xa2
 1923 0a6c 1A030000 		.4byte	0x31a
 1924 0a70 8D000000 		.4byte	.LLST3
 1925 0a74 2A       		.uleb128 0x2a
 1926 0a75 150A0000 		.4byte	0xa15
 1927 0a79 02000000 		.4byte	.LBB34
 1928 0a7d 00000000 		.4byte	.Ldebug_ranges0+0
 1929 0a81 01       		.byte	0x1
 1930 0a82 A4       		.byte	0xa4
 1931 0a83 BD0A0000 		.4byte	0xabd
 1932 0a87 2B       		.uleb128 0x2b
 1933 0a88 7C080000 		.4byte	0x87c
 1934 0a8c 02000000 		.4byte	.LBB36
 1935 0a90 18000000 		.4byte	.Ldebug_ranges0+0x18
 1936 0a94 03       		.byte	0x3
 1937 0a95 6301     		.2byte	0x163
 1938 0a97 B30A0000 		.4byte	0xab3
ARM GAS  /tmp/ccvDO2JW.s 			page 35


 1939 0a9b 2C       		.uleb128 0x2c
 1940 0a9c 62080000 		.4byte	0x862
 1941 0aa0 02000000 		.4byte	.LBB37
 1942 0aa4 18000000 		.4byte	.Ldebug_ranges0+0x18
 1943 0aa8 0D       		.byte	0xd
 1944 0aa9 6202     		.2byte	0x262
 1945 0aab 2D       		.uleb128 0x2d
 1946 0aac 6F080000 		.4byte	0x86f
 1947 0ab0 20       		.byte	0x20
 1948 0ab1 00       		.byte	0
 1949 0ab2 00       		.byte	0
 1950 0ab3 2E       		.uleb128 0x2e
 1951 0ab4 0E000000 		.4byte	.LVL6
 1952 0ab8 28110000 		.4byte	0x1128
 1953 0abc 00       		.byte	0
 1954 0abd 2F       		.uleb128 0x2f
 1955 0abe 1E0A0000 		.4byte	0xa1e
 1956 0ac2 16000000 		.4byte	.LBB44
 1957 0ac6 0A000000 		.4byte	.LBE44-.LBB44
 1958 0aca 01       		.byte	0x1
 1959 0acb A6       		.byte	0xa6
 1960 0acc 150B0000 		.4byte	0xb15
 1961 0ad0 30       		.uleb128 0x30
 1962 0ad1 16000000 		.4byte	.LBB45
 1963 0ad5 0A000000 		.4byte	.LBE45-.LBB45
 1964 0ad9 24       		.uleb128 0x24
 1965 0ada 2B0A0000 		.4byte	0xa2b
 1966 0ade 31       		.uleb128 0x31
 1967 0adf 85080000 		.4byte	0x885
 1968 0ae3 1A000000 		.4byte	.LBB46
 1969 0ae7 06000000 		.4byte	.LBE46-.LBB46
 1970 0aeb 03       		.byte	0x3
 1971 0aec 7A01     		.2byte	0x17a
 1972 0aee 0A0B0000 		.4byte	0xb0a
 1973 0af2 32       		.uleb128 0x32
 1974 0af3 62080000 		.4byte	0x862
 1975 0af7 1A000000 		.4byte	.LBB47
 1976 0afb 06000000 		.4byte	.LBE47-.LBB47
 1977 0aff 0D       		.byte	0xd
 1978 0b00 7502     		.2byte	0x275
 1979 0b02 2D       		.uleb128 0x2d
 1980 0b03 6F080000 		.4byte	0x86f
 1981 0b07 00       		.byte	0
 1982 0b08 00       		.byte	0
 1983 0b09 00       		.byte	0
 1984 0b0a 2E       		.uleb128 0x2e
 1985 0b0b 1A000000 		.4byte	.LVL9
 1986 0b0f 2F110000 		.4byte	0x112f
 1987 0b13 00       		.byte	0
 1988 0b14 00       		.byte	0
 1989 0b15 33       		.uleb128 0x33
 1990 0b16 14000000 		.4byte	.LVL7
 1991 0b1a C0090000 		.4byte	0x9c0
 1992 0b1e 34       		.uleb128 0x34
 1993 0b1f 01       		.uleb128 0x1
 1994 0b20 50       		.byte	0x50
 1995 0b21 02       		.uleb128 0x2
ARM GAS  /tmp/ccvDO2JW.s 			page 36


 1996 0b22 74       		.byte	0x74
 1997 0b23 00       		.sleb128 0
 1998 0b24 00       		.byte	0
 1999 0b25 00       		.byte	0
 2000 0b26 22       		.uleb128 0x22
 2001 0b27 8E080000 		.4byte	0x88e
 2002 0b2b 00000000 		.4byte	.LFB294
 2003 0b2f 08000000 		.4byte	.LFE294-.LFB294
 2004 0b33 01       		.uleb128 0x1
 2005 0b34 9C       		.byte	0x9c
 2006 0b35 540B0000 		.4byte	0xb54
 2007 0b39 23       		.uleb128 0x23
 2008 0b3a 9A080000 		.4byte	0x89a
 2009 0b3e 01       		.uleb128 0x1
 2010 0b3f 50       		.byte	0x50
 2011 0b40 23       		.uleb128 0x23
 2012 0b41 A4080000 		.4byte	0x8a4
 2013 0b45 01       		.uleb128 0x1
 2014 0b46 51       		.byte	0x51
 2015 0b47 35       		.uleb128 0x35
 2016 0b48 AF080000 		.4byte	0x8af
 2017 0b4c 01       		.uleb128 0x1
 2018 0b4d 51       		.byte	0x51
 2019 0b4e 24       		.uleb128 0x24
 2020 0b4f BA080000 		.4byte	0x8ba
 2021 0b53 00       		.byte	0
 2022 0b54 36       		.uleb128 0x36
 2023 0b55 44070000 		.4byte	.LASF129
 2024 0b59 01       		.byte	0x1
 2025 0b5a CF       		.byte	0xcf
 2026 0b5b 00000000 		.4byte	.LFB295
 2027 0b5f 22000000 		.4byte	.LFE295-.LFB295
 2028 0b63 01       		.uleb128 0x1
 2029 0b64 9C       		.byte	0x9c
 2030 0b65 5C0C0000 		.4byte	0xc5c
 2031 0b69 26       		.uleb128 0x26
 2032 0b6a 6D7000   		.ascii	"mp\000"
 2033 0b6d 01       		.byte	0x1
 2034 0b6e CF       		.byte	0xcf
 2035 0b6f C8080000 		.4byte	0x8c8
 2036 0b73 AB000000 		.4byte	.LLST4
 2037 0b77 37       		.uleb128 0x37
 2038 0b78 C0050000 		.4byte	.LASF118
 2039 0b7c 01       		.byte	0x1
 2040 0b7d CF       		.byte	0xcf
 2041 0b7e 1A030000 		.4byte	0x31a
 2042 0b82 C9000000 		.4byte	.LLST5
 2043 0b86 2F       		.uleb128 0x2f
 2044 0b87 150A0000 		.4byte	0xa15
 2045 0b8b 06000000 		.4byte	.LBB61
 2046 0b8f 0A000000 		.4byte	.LBE61-.LBB61
 2047 0b93 01       		.byte	0x1
 2048 0b94 D1       		.byte	0xd1
 2049 0b95 CF0B0000 		.4byte	0xbcf
 2050 0b99 31       		.uleb128 0x31
 2051 0b9a 7C080000 		.4byte	0x87c
 2052 0b9e 06000000 		.4byte	.LBB63
ARM GAS  /tmp/ccvDO2JW.s 			page 37


 2053 0ba2 06000000 		.4byte	.LBE63-.LBB63
 2054 0ba6 03       		.byte	0x3
 2055 0ba7 6301     		.2byte	0x163
 2056 0ba9 C50B0000 		.4byte	0xbc5
 2057 0bad 32       		.uleb128 0x32
 2058 0bae 62080000 		.4byte	0x862
 2059 0bb2 06000000 		.4byte	.LBB64
 2060 0bb6 06000000 		.4byte	.LBE64-.LBB64
 2061 0bba 0D       		.byte	0xd
 2062 0bbb 6202     		.2byte	0x262
 2063 0bbd 2D       		.uleb128 0x2d
 2064 0bbe 6F080000 		.4byte	0x86f
 2065 0bc2 20       		.byte	0x20
 2066 0bc3 00       		.byte	0
 2067 0bc4 00       		.byte	0
 2068 0bc5 2E       		.uleb128 0x2e
 2069 0bc6 10000000 		.4byte	.LVL12
 2070 0bca 28110000 		.4byte	0x1128
 2071 0bce 00       		.byte	0
 2072 0bcf 2F       		.uleb128 0x2f
 2073 0bd0 8E080000 		.4byte	0x88e
 2074 0bd4 10000000 		.4byte	.LBB66
 2075 0bd8 06000000 		.4byte	.LBE66-.LBB66
 2076 0bdc 01       		.byte	0x1
 2077 0bdd D2       		.byte	0xd2
 2078 0bde 070C0000 		.4byte	0xc07
 2079 0be2 23       		.uleb128 0x23
 2080 0be3 A4080000 		.4byte	0x8a4
 2081 0be7 01       		.uleb128 0x1
 2082 0be8 55       		.byte	0x55
 2083 0be9 23       		.uleb128 0x23
 2084 0bea 9A080000 		.4byte	0x89a
 2085 0bee 01       		.uleb128 0x1
 2086 0bef 54       		.byte	0x54
 2087 0bf0 30       		.uleb128 0x30
 2088 0bf1 10000000 		.4byte	.LBB67
 2089 0bf5 06000000 		.4byte	.LBE67-.LBB67
 2090 0bf9 35       		.uleb128 0x35
 2091 0bfa AF080000 		.4byte	0x8af
 2092 0bfe 01       		.uleb128 0x1
 2093 0bff 55       		.byte	0x55
 2094 0c00 24       		.uleb128 0x24
 2095 0c01 BA080000 		.4byte	0x8ba
 2096 0c05 00       		.byte	0
 2097 0c06 00       		.byte	0
 2098 0c07 38       		.uleb128 0x38
 2099 0c08 1E0A0000 		.4byte	0xa1e
 2100 0c0c 16000000 		.4byte	.LBB68
 2101 0c10 0C000000 		.4byte	.LBE68-.LBB68
 2102 0c14 01       		.byte	0x1
 2103 0c15 D3       		.byte	0xd3
 2104 0c16 30       		.uleb128 0x30
 2105 0c17 16000000 		.4byte	.LBB69
 2106 0c1b 0C000000 		.4byte	.LBE69-.LBB69
 2107 0c1f 24       		.uleb128 0x24
 2108 0c20 2B0A0000 		.4byte	0xa2b
 2109 0c24 31       		.uleb128 0x31
ARM GAS  /tmp/ccvDO2JW.s 			page 38


 2110 0c25 85080000 		.4byte	0x885
 2111 0c29 1A000000 		.4byte	.LBB70
 2112 0c2d 08000000 		.4byte	.LBE70-.LBB70
 2113 0c31 03       		.byte	0x3
 2114 0c32 7A01     		.2byte	0x17a
 2115 0c34 500C0000 		.4byte	0xc50
 2116 0c38 32       		.uleb128 0x32
 2117 0c39 62080000 		.4byte	0x862
 2118 0c3d 1A000000 		.4byte	.LBB71
 2119 0c41 08000000 		.4byte	.LBE71-.LBB71
 2120 0c45 0D       		.byte	0xd
 2121 0c46 7502     		.2byte	0x275
 2122 0c48 2D       		.uleb128 0x2d
 2123 0c49 6F080000 		.4byte	0x86f
 2124 0c4d 00       		.byte	0
 2125 0c4e 00       		.byte	0
 2126 0c4f 00       		.byte	0
 2127 0c50 2E       		.uleb128 0x2e
 2128 0c51 1A000000 		.4byte	.LVL13
 2129 0c55 2F110000 		.4byte	0x112f
 2130 0c59 00       		.byte	0
 2131 0c5a 00       		.byte	0
 2132 0c5b 00       		.byte	0
 2133 0c5c 36       		.uleb128 0x36
 2134 0c5d 95070000 		.4byte	.LASF130
 2135 0c61 01       		.byte	0x1
 2136 0c62 6A       		.byte	0x6a
 2137 0c63 00000000 		.4byte	.LFB291
 2138 0c67 1C000000 		.4byte	.LFE291-.LFB291
 2139 0c6b 01       		.uleb128 0x1
 2140 0c6c 9C       		.byte	0x9c
 2141 0c6d DB0C0000 		.4byte	0xcdb
 2142 0c71 26       		.uleb128 0x26
 2143 0c72 6D7000   		.ascii	"mp\000"
 2144 0c75 01       		.byte	0x1
 2145 0c76 6A       		.byte	0x6a
 2146 0c77 C8080000 		.4byte	0x8c8
 2147 0c7b E7000000 		.4byte	.LLST6
 2148 0c7f 26       		.uleb128 0x26
 2149 0c80 7000     		.ascii	"p\000"
 2150 0c82 01       		.byte	0x1
 2151 0c83 6A       		.byte	0x6a
 2152 0c84 1A030000 		.4byte	0x31a
 2153 0c88 05010000 		.4byte	.LLST7
 2154 0c8c 26       		.uleb128 0x26
 2155 0c8d 6E00     		.ascii	"n\000"
 2156 0c8f 01       		.byte	0x1
 2157 0c90 6A       		.byte	0x6a
 2158 0c91 2C000000 		.4byte	0x2c
 2159 0c95 23010000 		.4byte	.LLST8
 2160 0c99 28       		.uleb128 0x28
 2161 0c9a AD050000 		.4byte	.LASF119
 2162 0c9e EB0C0000 		.4byte	0xceb
 2163 0ca2 38       		.uleb128 0x38
 2164 0ca3 E3080000 		.4byte	0x8e3
 2165 0ca7 0A000000 		.4byte	.LBB73
 2166 0cab 08000000 		.4byte	.LBE73-.LBB73
ARM GAS  /tmp/ccvDO2JW.s 			page 39


 2167 0caf 01       		.byte	0x1
 2168 0cb0 6F       		.byte	0x6f
 2169 0cb1 39       		.uleb128 0x39
 2170 0cb2 F9080000 		.4byte	0x8f9
 2171 0cb6 59010000 		.4byte	.LLST9
 2172 0cba 39       		.uleb128 0x39
 2173 0cbb EF080000 		.4byte	0x8ef
 2174 0cbf 6C010000 		.4byte	.LLST10
 2175 0cc3 33       		.uleb128 0x33
 2176 0cc4 12000000 		.4byte	.LVL17
 2177 0cc8 540B0000 		.4byte	0xb54
 2178 0ccc 34       		.uleb128 0x34
 2179 0ccd 01       		.uleb128 0x1
 2180 0cce 51       		.byte	0x51
 2181 0ccf 02       		.uleb128 0x2
 2182 0cd0 75       		.byte	0x75
 2183 0cd1 00       		.sleb128 0
 2184 0cd2 34       		.uleb128 0x34
 2185 0cd3 01       		.uleb128 0x1
 2186 0cd4 50       		.byte	0x50
 2187 0cd5 02       		.uleb128 0x2
 2188 0cd6 76       		.byte	0x76
 2189 0cd7 00       		.sleb128 0
 2190 0cd8 00       		.byte	0
 2191 0cd9 00       		.byte	0
 2192 0cda 00       		.byte	0
 2193 0cdb 1E       		.uleb128 0x1e
 2194 0cdc 73070000 		.4byte	0x773
 2195 0ce0 EB0C0000 		.4byte	0xceb
 2196 0ce4 1F       		.uleb128 0x1f
 2197 0ce5 65040000 		.4byte	0x465
 2198 0ce9 0F       		.byte	0xf
 2199 0cea 00       		.byte	0
 2200 0ceb 13       		.uleb128 0x13
 2201 0cec DB0C0000 		.4byte	0xcdb
 2202 0cf0 36       		.uleb128 0x36
 2203 0cf1 20050000 		.4byte	.LASF131
 2204 0cf5 01       		.byte	0x1
 2205 0cf6 E2       		.byte	0xe2
 2206 0cf7 00000000 		.4byte	.LFB296
 2207 0cfb 16000000 		.4byte	.LFE296-.LFB296
 2208 0cff 01       		.uleb128 0x1
 2209 0d00 9C       		.byte	0x9c
 2210 0d01 890D0000 		.4byte	0xd89
 2211 0d05 26       		.uleb128 0x26
 2212 0d06 676D7000 		.ascii	"gmp\000"
 2213 0d0a 01       		.byte	0x1
 2214 0d0b E2       		.byte	0xe2
 2215 0d0c 85090000 		.4byte	0x985
 2216 0d10 7F010000 		.4byte	.LLST11
 2217 0d14 37       		.uleb128 0x37
 2218 0d15 78010000 		.4byte	.LASF124
 2219 0d19 01       		.byte	0x1
 2220 0d1a E3       		.byte	0xe3
 2221 0d1b 2C000000 		.4byte	0x2c
 2222 0d1f A0010000 		.4byte	.LLST12
 2223 0d23 37       		.uleb128 0x37
ARM GAS  /tmp/ccvDO2JW.s 			page 40


 2224 0d24 47020000 		.4byte	.LASF110
 2225 0d28 01       		.byte	0x1
 2226 0d29 E4       		.byte	0xe4
 2227 0d2a 37000000 		.4byte	0x37
 2228 0d2e CD010000 		.4byte	.LLST13
 2229 0d32 2A       		.uleb128 0x2a
 2230 0d33 05090000 		.4byte	0x905
 2231 0d37 02000000 		.4byte	.LBB75
 2232 0d3b 30000000 		.4byte	.Ldebug_ranges0+0x30
 2233 0d3f 01       		.byte	0x1
 2234 0d40 E6       		.byte	0xe6
 2235 0d41 720D0000 		.4byte	0xd72
 2236 0d45 2D       		.uleb128 0x2d
 2237 0d46 31090000 		.4byte	0x931
 2238 0d4a 00       		.byte	0
 2239 0d4b 39       		.uleb128 0x39
 2240 0d4c 26090000 		.4byte	0x926
 2241 0d50 CD010000 		.4byte	.LLST13
 2242 0d54 39       		.uleb128 0x39
 2243 0d55 1B090000 		.4byte	0x91b
 2244 0d59 A0010000 		.4byte	.LLST12
 2245 0d5d 39       		.uleb128 0x39
 2246 0d5e 11090000 		.4byte	0x911
 2247 0d62 EE010000 		.4byte	.LLST16
 2248 0d66 3A       		.uleb128 0x3a
 2249 0d67 30000000 		.4byte	.Ldebug_ranges0+0x30
 2250 0d6b 24       		.uleb128 0x24
 2251 0d6c 3C090000 		.4byte	0x93c
 2252 0d70 00       		.byte	0
 2253 0d71 00       		.byte	0
 2254 0d72 3B       		.uleb128 0x3b
 2255 0d73 16000000 		.4byte	.LVL23
 2256 0d77 36110000 		.4byte	0x1136
 2257 0d7b 34       		.uleb128 0x34
 2258 0d7c 01       		.uleb128 0x1
 2259 0d7d 51       		.byte	0x51
 2260 0d7e 01       		.uleb128 0x1
 2261 0d7f 30       		.byte	0x30
 2262 0d80 34       		.uleb128 0x34
 2263 0d81 01       		.uleb128 0x1
 2264 0d82 50       		.byte	0x50
 2265 0d83 03       		.uleb128 0x3
 2266 0d84 F3       		.byte	0xf3
 2267 0d85 01       		.uleb128 0x1
 2268 0d86 50       		.byte	0x50
 2269 0d87 00       		.byte	0
 2270 0d88 00       		.byte	0
 2271 0d89 3C       		.uleb128 0x3c
 2272 0d8a DD040000 		.4byte	.LASF133
 2273 0d8e 01       		.byte	0x1
 2274 0d8f 1301     		.2byte	0x113
 2275 0d91 1A030000 		.4byte	0x31a
 2276 0d95 00000000 		.4byte	.LFB298
 2277 0d99 1A000000 		.4byte	.LFE298-.LFB298
 2278 0d9d 01       		.uleb128 0x1
 2279 0d9e 9C       		.byte	0x9c
 2280 0d9f 020E0000 		.4byte	0xe02
ARM GAS  /tmp/ccvDO2JW.s 			page 41


 2281 0da3 3D       		.uleb128 0x3d
 2282 0da4 676D7000 		.ascii	"gmp\000"
 2283 0da8 01       		.byte	0x1
 2284 0da9 1301     		.2byte	0x113
 2285 0dab 85090000 		.4byte	0x985
 2286 0daf 13020000 		.4byte	.LLST17
 2287 0db3 3E       		.uleb128 0x3e
 2288 0db4 7A030000 		.4byte	.LASF134
 2289 0db8 01       		.byte	0x1
 2290 0db9 1401     		.2byte	0x114
 2291 0dbb 5A040000 		.4byte	0x45a
 2292 0dbf 57020000 		.4byte	.LLST18
 2293 0dc3 3F       		.uleb128 0x3f
 2294 0dc4 6D736700 		.ascii	"msg\000"
 2295 0dc8 01       		.byte	0x1
 2296 0dc9 1501     		.2byte	0x115
 2297 0dcb 10010000 		.4byte	0x110
 2298 0dcf 78020000 		.4byte	.LLST19
 2299 0dd3 40       		.uleb128 0x40
 2300 0dd4 08000000 		.4byte	.LVL25
 2301 0dd8 52110000 		.4byte	0x1152
 2302 0ddc EE0D0000 		.4byte	0xdee
 2303 0de0 34       		.uleb128 0x34
 2304 0de1 01       		.uleb128 0x1
 2305 0de2 51       		.byte	0x51
 2306 0de3 03       		.uleb128 0x3
 2307 0de4 F3       		.byte	0xf3
 2308 0de5 01       		.uleb128 0x1
 2309 0de6 51       		.byte	0x51
 2310 0de7 34       		.uleb128 0x34
 2311 0de8 01       		.uleb128 0x1
 2312 0de9 50       		.byte	0x50
 2313 0dea 02       		.uleb128 0x2
 2314 0deb 74       		.byte	0x74
 2315 0dec 00       		.sleb128 0
 2316 0ded 00       		.byte	0
 2317 0dee 3B       		.uleb128 0x3b
 2318 0def 16000000 		.4byte	.LVL28
 2319 0df3 C0090000 		.4byte	0x9c0
 2320 0df7 34       		.uleb128 0x34
 2321 0df8 01       		.uleb128 0x1
 2322 0df9 50       		.byte	0x50
 2323 0dfa 05       		.uleb128 0x5
 2324 0dfb F3       		.byte	0xf3
 2325 0dfc 01       		.uleb128 0x1
 2326 0dfd 50       		.byte	0x50
 2327 0dfe 23       		.byte	0x23
 2328 0dff 0C       		.uleb128 0xc
 2329 0e00 00       		.byte	0
 2330 0e01 00       		.byte	0
 2331 0e02 3C       		.uleb128 0x3c
 2332 0e03 25020000 		.4byte	.LASF135
 2333 0e07 01       		.byte	0x1
 2334 0e08 2E01     		.2byte	0x12e
 2335 0e0a 1A030000 		.4byte	0x31a
 2336 0e0e 00000000 		.4byte	.LFB299
 2337 0e12 28000000 		.4byte	.LFE299-.LFB299
ARM GAS  /tmp/ccvDO2JW.s 			page 42


 2338 0e16 01       		.uleb128 0x1
 2339 0e17 9C       		.byte	0x9c
 2340 0e18 040F0000 		.4byte	0xf04
 2341 0e1c 3D       		.uleb128 0x3d
 2342 0e1d 676D7000 		.ascii	"gmp\000"
 2343 0e21 01       		.byte	0x1
 2344 0e22 2E01     		.2byte	0x12e
 2345 0e24 85090000 		.4byte	0x985
 2346 0e28 96020000 		.4byte	.LLST20
 2347 0e2c 3E       		.uleb128 0x3e
 2348 0e2d 7A030000 		.4byte	.LASF134
 2349 0e31 01       		.byte	0x1
 2350 0e32 2F01     		.2byte	0x12f
 2351 0e34 5A040000 		.4byte	0x45a
 2352 0e38 B4020000 		.4byte	.LLST21
 2353 0e3c 3F       		.uleb128 0x3f
 2354 0e3d 7000     		.ascii	"p\000"
 2355 0e3f 01       		.byte	0x1
 2356 0e40 3001     		.2byte	0x130
 2357 0e42 1A030000 		.4byte	0x31a
 2358 0e46 E0020000 		.4byte	.LLST22
 2359 0e4a 31       		.uleb128 0x31
 2360 0e4b 150A0000 		.4byte	0xa15
 2361 0e4f 06000000 		.4byte	.LBB89
 2362 0e53 0A000000 		.4byte	.LBE89-.LBB89
 2363 0e57 01       		.byte	0x1
 2364 0e58 3201     		.2byte	0x132
 2365 0e5a 940E0000 		.4byte	0xe94
 2366 0e5e 31       		.uleb128 0x31
 2367 0e5f 7C080000 		.4byte	0x87c
 2368 0e63 06000000 		.4byte	.LBB91
 2369 0e67 06000000 		.4byte	.LBE91-.LBB91
 2370 0e6b 03       		.byte	0x3
 2371 0e6c 6301     		.2byte	0x163
 2372 0e6e 8A0E0000 		.4byte	0xe8a
 2373 0e72 32       		.uleb128 0x32
 2374 0e73 62080000 		.4byte	0x862
 2375 0e77 06000000 		.4byte	.LBB92
 2376 0e7b 06000000 		.4byte	.LBE92-.LBB92
 2377 0e7f 0D       		.byte	0xd
 2378 0e80 6202     		.2byte	0x262
 2379 0e82 2D       		.uleb128 0x2d
 2380 0e83 6F080000 		.4byte	0x86f
 2381 0e87 20       		.byte	0x20
 2382 0e88 00       		.byte	0
 2383 0e89 00       		.byte	0
 2384 0e8a 2E       		.uleb128 0x2e
 2385 0e8b 10000000 		.4byte	.LVL31
 2386 0e8f 28110000 		.4byte	0x1128
 2387 0e93 00       		.byte	0
 2388 0e94 31       		.uleb128 0x31
 2389 0e95 1E0A0000 		.4byte	0xa1e
 2390 0e99 1A000000 		.4byte	.LBB94
 2391 0e9d 0A000000 		.4byte	.LBE94-.LBB94
 2392 0ea1 01       		.byte	0x1
 2393 0ea2 3401     		.2byte	0x134
 2394 0ea4 ED0E0000 		.4byte	0xeed
ARM GAS  /tmp/ccvDO2JW.s 			page 43


 2395 0ea8 30       		.uleb128 0x30
 2396 0ea9 1A000000 		.4byte	.LBB95
 2397 0ead 0A000000 		.4byte	.LBE95-.LBB95
 2398 0eb1 24       		.uleb128 0x24
 2399 0eb2 2B0A0000 		.4byte	0xa2b
 2400 0eb6 31       		.uleb128 0x31
 2401 0eb7 85080000 		.4byte	0x885
 2402 0ebb 1E000000 		.4byte	.LBB96
 2403 0ebf 06000000 		.4byte	.LBE96-.LBB96
 2404 0ec3 03       		.byte	0x3
 2405 0ec4 7A01     		.2byte	0x17a
 2406 0ec6 E20E0000 		.4byte	0xee2
 2407 0eca 32       		.uleb128 0x32
 2408 0ecb 62080000 		.4byte	0x862
 2409 0ecf 1E000000 		.4byte	.LBB97
 2410 0ed3 06000000 		.4byte	.LBE97-.LBB97
 2411 0ed7 0D       		.byte	0xd
 2412 0ed8 7502     		.2byte	0x275
 2413 0eda 2D       		.uleb128 0x2d
 2414 0edb 6F080000 		.4byte	0x86f
 2415 0edf 00       		.byte	0
 2416 0ee0 00       		.byte	0
 2417 0ee1 00       		.byte	0
 2418 0ee2 2E       		.uleb128 0x2e
 2419 0ee3 1E000000 		.4byte	.LVL34
 2420 0ee7 2F110000 		.4byte	0x112f
 2421 0eeb 00       		.byte	0
 2422 0eec 00       		.byte	0
 2423 0eed 33       		.uleb128 0x33
 2424 0eee 18000000 		.4byte	.LVL32
 2425 0ef2 890D0000 		.4byte	0xd89
 2426 0ef6 34       		.uleb128 0x34
 2427 0ef7 01       		.uleb128 0x1
 2428 0ef8 51       		.byte	0x51
 2429 0ef9 02       		.uleb128 0x2
 2430 0efa 74       		.byte	0x74
 2431 0efb 00       		.sleb128 0
 2432 0efc 34       		.uleb128 0x34
 2433 0efd 01       		.uleb128 0x1
 2434 0efe 50       		.byte	0x50
 2435 0eff 02       		.uleb128 0x2
 2436 0f00 75       		.byte	0x75
 2437 0f01 00       		.sleb128 0
 2438 0f02 00       		.byte	0
 2439 0f03 00       		.byte	0
 2440 0f04 16       		.uleb128 0x16
 2441 0f05 FE000000 		.4byte	.LASF136
 2442 0f09 04       		.byte	0x4
 2443 0f0a 1D01     		.2byte	0x11d
 2444 0f0c 03       		.byte	0x3
 2445 0f0d 2A0F0000 		.4byte	0xf2a
 2446 0f11 21       		.uleb128 0x21
 2447 0f12 676D7000 		.ascii	"gmp\000"
 2448 0f16 04       		.byte	0x4
 2449 0f17 1D01     		.2byte	0x11d
 2450 0f19 85090000 		.4byte	0x985
 2451 0f1d 17       		.uleb128 0x17
ARM GAS  /tmp/ccvDO2JW.s 			page 44


 2452 0f1e C0050000 		.4byte	.LASF118
 2453 0f22 04       		.byte	0x4
 2454 0f23 1D01     		.2byte	0x11d
 2455 0f25 1A030000 		.4byte	0x31a
 2456 0f29 00       		.byte	0
 2457 0f2a 41       		.uleb128 0x41
 2458 0f2b D9030000 		.4byte	.LASF137
 2459 0f2f 01       		.byte	0x1
 2460 0f30 4501     		.2byte	0x145
 2461 0f32 00000000 		.4byte	.LFB300
 2462 0f36 2C000000 		.4byte	.LFE300-.LFB300
 2463 0f3a 01       		.uleb128 0x1
 2464 0f3b 9C       		.byte	0x9c
 2465 0f3c 77100000 		.4byte	0x1077
 2466 0f40 3D       		.uleb128 0x3d
 2467 0f41 676D7000 		.ascii	"gmp\000"
 2468 0f45 01       		.byte	0x1
 2469 0f46 4501     		.2byte	0x145
 2470 0f48 85090000 		.4byte	0x985
 2471 0f4c FE020000 		.4byte	.LLST23
 2472 0f50 3E       		.uleb128 0x3e
 2473 0f51 C0050000 		.4byte	.LASF118
 2474 0f55 01       		.byte	0x1
 2475 0f56 4501     		.2byte	0x145
 2476 0f58 1A030000 		.4byte	0x31a
 2477 0f5c 1C030000 		.4byte	.LLST24
 2478 0f60 31       		.uleb128 0x31
 2479 0f61 150A0000 		.4byte	0xa15
 2480 0f65 06000000 		.4byte	.LBB113
 2481 0f69 0A000000 		.4byte	.LBE113-.LBB113
 2482 0f6d 01       		.byte	0x1
 2483 0f6e 4701     		.2byte	0x147
 2484 0f70 AA0F0000 		.4byte	0xfaa
 2485 0f74 31       		.uleb128 0x31
 2486 0f75 7C080000 		.4byte	0x87c
 2487 0f79 06000000 		.4byte	.LBB115
 2488 0f7d 06000000 		.4byte	.LBE115-.LBB115
 2489 0f81 03       		.byte	0x3
 2490 0f82 6301     		.2byte	0x163
 2491 0f84 A00F0000 		.4byte	0xfa0
 2492 0f88 32       		.uleb128 0x32
 2493 0f89 62080000 		.4byte	0x862
 2494 0f8d 06000000 		.4byte	.LBB116
 2495 0f91 06000000 		.4byte	.LBE116-.LBB116
 2496 0f95 0D       		.byte	0xd
 2497 0f96 6202     		.2byte	0x262
 2498 0f98 2D       		.uleb128 0x2d
 2499 0f99 6F080000 		.4byte	0x86f
 2500 0f9d 20       		.byte	0x20
 2501 0f9e 00       		.byte	0
 2502 0f9f 00       		.byte	0
 2503 0fa0 2E       		.uleb128 0x2e
 2504 0fa1 10000000 		.4byte	.LVL36
 2505 0fa5 28110000 		.4byte	0x1128
 2506 0fa9 00       		.byte	0
 2507 0faa 31       		.uleb128 0x31
 2508 0fab 040F0000 		.4byte	0xf04
ARM GAS  /tmp/ccvDO2JW.s 			page 45


 2509 0faf 10000000 		.4byte	.LBB118
 2510 0fb3 0C000000 		.4byte	.LBE118-.LBB118
 2511 0fb7 01       		.byte	0x1
 2512 0fb8 4801     		.2byte	0x148
 2513 0fba 14100000 		.4byte	0x1014
 2514 0fbe 23       		.uleb128 0x23
 2515 0fbf 1D0F0000 		.4byte	0xf1d
 2516 0fc3 01       		.uleb128 0x1
 2517 0fc4 55       		.byte	0x55
 2518 0fc5 23       		.uleb128 0x23
 2519 0fc6 110F0000 		.4byte	0xf11
 2520 0fca 01       		.uleb128 0x1
 2521 0fcb 54       		.byte	0x54
 2522 0fcc 2B       		.uleb128 0x2b
 2523 0fcd 8E080000 		.4byte	0x88e
 2524 0fd1 10000000 		.4byte	.LBB120
 2525 0fd5 48000000 		.4byte	.Ldebug_ranges0+0x48
 2526 0fd9 04       		.byte	0x4
 2527 0fda 1F01     		.2byte	0x11f
 2528 0fdc 03100000 		.4byte	0x1003
 2529 0fe0 23       		.uleb128 0x23
 2530 0fe1 A4080000 		.4byte	0x8a4
 2531 0fe5 01       		.uleb128 0x1
 2532 0fe6 55       		.byte	0x55
 2533 0fe7 23       		.uleb128 0x23
 2534 0fe8 9A080000 		.4byte	0x89a
 2535 0fec 03       		.uleb128 0x3
 2536 0fed 74       		.byte	0x74
 2537 0fee 0C       		.sleb128 12
 2538 0fef 9F       		.byte	0x9f
 2539 0ff0 3A       		.uleb128 0x3a
 2540 0ff1 48000000 		.4byte	.Ldebug_ranges0+0x48
 2541 0ff5 35       		.uleb128 0x35
 2542 0ff6 AF080000 		.4byte	0x8af
 2543 0ffa 01       		.uleb128 0x1
 2544 0ffb 55       		.byte	0x55
 2545 0ffc 24       		.uleb128 0x24
 2546 0ffd BA080000 		.4byte	0x8ba
 2547 1001 00       		.byte	0
 2548 1002 00       		.byte	0
 2549 1003 33       		.uleb128 0x33
 2550 1004 1C000000 		.4byte	.LVL37
 2551 1008 6C110000 		.4byte	0x116c
 2552 100c 34       		.uleb128 0x34
 2553 100d 01       		.uleb128 0x1
 2554 100e 50       		.byte	0x50
 2555 100f 02       		.uleb128 0x2
 2556 1010 74       		.byte	0x74
 2557 1011 00       		.sleb128 0
 2558 1012 00       		.byte	0
 2559 1013 00       		.byte	0
 2560 1014 31       		.uleb128 0x31
 2561 1015 1E0A0000 		.4byte	0xa1e
 2562 1019 20000000 		.4byte	.LBB124
 2563 101d 0C000000 		.4byte	.LBE124-.LBB124
 2564 1021 01       		.byte	0x1
 2565 1022 4A01     		.2byte	0x14a
ARM GAS  /tmp/ccvDO2JW.s 			page 46


 2566 1024 6D100000 		.4byte	0x106d
 2567 1028 30       		.uleb128 0x30
 2568 1029 20000000 		.4byte	.LBB125
 2569 102d 0C000000 		.4byte	.LBE125-.LBB125
 2570 1031 24       		.uleb128 0x24
 2571 1032 2B0A0000 		.4byte	0xa2b
 2572 1036 31       		.uleb128 0x31
 2573 1037 85080000 		.4byte	0x885
 2574 103b 24000000 		.4byte	.LBB126
 2575 103f 08000000 		.4byte	.LBE126-.LBB126
 2576 1043 03       		.byte	0x3
 2577 1044 7A01     		.2byte	0x17a
 2578 1046 62100000 		.4byte	0x1062
 2579 104a 32       		.uleb128 0x32
 2580 104b 62080000 		.4byte	0x862
 2581 104f 24000000 		.4byte	.LBB127
 2582 1053 08000000 		.4byte	.LBE127-.LBB127
 2583 1057 0D       		.byte	0xd
 2584 1058 7502     		.2byte	0x275
 2585 105a 2D       		.uleb128 0x2d
 2586 105b 6F080000 		.4byte	0x86f
 2587 105f 00       		.byte	0
 2588 1060 00       		.byte	0
 2589 1061 00       		.byte	0
 2590 1062 2E       		.uleb128 0x2e
 2591 1063 24000000 		.4byte	.LVL39
 2592 1067 2F110000 		.4byte	0x112f
 2593 106b 00       		.byte	0
 2594 106c 00       		.byte	0
 2595 106d 2E       		.uleb128 0x2e
 2596 106e 20000000 		.4byte	.LVL38
 2597 1072 7D110000 		.4byte	0x117d
 2598 1076 00       		.byte	0
 2599 1077 36       		.uleb128 0x36
 2600 1078 8B060000 		.4byte	.LASF138
 2601 107c 01       		.byte	0x1
 2602 107d F7       		.byte	0xf7
 2603 107e 00000000 		.4byte	.LFB297
 2604 1082 1C000000 		.4byte	.LFE297-.LFB297
 2605 1086 01       		.uleb128 0x1
 2606 1087 9C       		.byte	0x9c
 2607 1088 F7100000 		.4byte	0x10f7
 2608 108c 26       		.uleb128 0x26
 2609 108d 676D7000 		.ascii	"gmp\000"
 2610 1091 01       		.byte	0x1
 2611 1092 F7       		.byte	0xf7
 2612 1093 85090000 		.4byte	0x985
 2613 1097 3A030000 		.4byte	.LLST25
 2614 109b 26       		.uleb128 0x26
 2615 109c 7000     		.ascii	"p\000"
 2616 109e 01       		.byte	0x1
 2617 109f F7       		.byte	0xf7
 2618 10a0 1A030000 		.4byte	0x31a
 2619 10a4 58030000 		.4byte	.LLST26
 2620 10a8 26       		.uleb128 0x26
 2621 10a9 6E00     		.ascii	"n\000"
 2622 10ab 01       		.byte	0x1
ARM GAS  /tmp/ccvDO2JW.s 			page 47


 2623 10ac F7       		.byte	0xf7
 2624 10ad 2C000000 		.4byte	0x2c
 2625 10b1 76030000 		.4byte	.LLST27
 2626 10b5 28       		.uleb128 0x28
 2627 10b6 AD050000 		.4byte	.LASF119
 2628 10ba 07110000 		.4byte	0x1107
 2629 10be 38       		.uleb128 0x38
 2630 10bf 5F090000 		.4byte	0x95f
 2631 10c3 0A000000 		.4byte	.LBB129
 2632 10c7 08000000 		.4byte	.LBE129-.LBB129
 2633 10cb 01       		.byte	0x1
 2634 10cc FC       		.byte	0xfc
 2635 10cd 39       		.uleb128 0x39
 2636 10ce 78090000 		.4byte	0x978
 2637 10d2 AC030000 		.4byte	.LLST28
 2638 10d6 39       		.uleb128 0x39
 2639 10d7 6C090000 		.4byte	0x96c
 2640 10db BF030000 		.4byte	.LLST29
 2641 10df 33       		.uleb128 0x33
 2642 10e0 12000000 		.4byte	.LVL43
 2643 10e4 2A0F0000 		.4byte	0xf2a
 2644 10e8 34       		.uleb128 0x34
 2645 10e9 01       		.uleb128 0x1
 2646 10ea 51       		.byte	0x51
 2647 10eb 02       		.uleb128 0x2
 2648 10ec 75       		.byte	0x75
 2649 10ed 00       		.sleb128 0
 2650 10ee 34       		.uleb128 0x34
 2651 10ef 01       		.uleb128 0x1
 2652 10f0 50       		.byte	0x50
 2653 10f1 02       		.uleb128 0x2
 2654 10f2 76       		.byte	0x76
 2655 10f3 00       		.sleb128 0
 2656 10f4 00       		.byte	0
 2657 10f5 00       		.byte	0
 2658 10f6 00       		.byte	0
 2659 10f7 1E       		.uleb128 0x1e
 2660 10f8 73070000 		.4byte	0x773
 2661 10fc 07110000 		.4byte	0x1107
 2662 1100 1F       		.uleb128 0x1f
 2663 1101 65040000 		.4byte	0x465
 2664 1105 16       		.byte	0x16
 2665 1106 00       		.byte	0
 2666 1107 13       		.uleb128 0x13
 2667 1108 F7100000 		.4byte	0x10f7
 2668 110c 42       		.uleb128 0x42
 2669 110d 43010000 		.4byte	.LASF139
 2670 1111 13       		.byte	0x13
 2671 1112 0408     		.2byte	0x804
 2672 1114 18110000 		.4byte	0x1118
 2673 1118 14       		.uleb128 0x14
 2674 1119 AD000000 		.4byte	0xad
 2675 111d 43       		.uleb128 0x43
 2676 111e 636800   		.ascii	"ch\000"
 2677 1121 0A       		.byte	0xa
 2678 1122 C701     		.2byte	0x1c7
 2679 1124 E9030000 		.4byte	0x3e9
ARM GAS  /tmp/ccvDO2JW.s 			page 48


 2680 1128 44       		.uleb128 0x44
 2681 1129 55070000 		.4byte	.LASF140
 2682 112d 0F       		.byte	0xf
 2683 112e 4F       		.byte	0x4f
 2684 112f 44       		.uleb128 0x44
 2685 1130 62040000 		.4byte	.LASF141
 2686 1134 0F       		.byte	0xf
 2687 1135 50       		.byte	0x50
 2688 1136 45       		.uleb128 0x45
 2689 1137 5B020000 		.4byte	.LASF142
 2690 113b 10       		.byte	0x10
 2691 113c 5B       		.byte	0x5b
 2692 113d 4C110000 		.4byte	0x114c
 2693 1141 0D       		.uleb128 0xd
 2694 1142 4C110000 		.4byte	0x114c
 2695 1146 0D       		.uleb128 0xd
 2696 1147 26010000 		.4byte	0x126
 2697 114b 00       		.byte	0
 2698 114c 0A       		.uleb128 0xa
 2699 114d 04       		.byte	0x4
 2700 114e 8B070000 		.4byte	0x78b
 2701 1152 46       		.uleb128 0x46
 2702 1153 39060000 		.4byte	.LASF148
 2703 1157 10       		.byte	0x10
 2704 1158 61       		.byte	0x61
 2705 1159 10010000 		.4byte	0x110
 2706 115d 6C110000 		.4byte	0x116c
 2707 1161 0D       		.uleb128 0xd
 2708 1162 4C110000 		.4byte	0x114c
 2709 1166 0D       		.uleb128 0xd
 2710 1167 5A040000 		.4byte	0x45a
 2711 116b 00       		.byte	0
 2712 116c 45       		.uleb128 0x45
 2713 116d 23000000 		.4byte	.LASF143
 2714 1171 10       		.byte	0x10
 2715 1172 63       		.byte	0x63
 2716 1173 7D110000 		.4byte	0x117d
 2717 1177 0D       		.uleb128 0xd
 2718 1178 4C110000 		.4byte	0x114c
 2719 117c 00       		.byte	0
 2720 117d 47       		.uleb128 0x47
 2721 117e DC010000 		.4byte	.LASF144
 2722 1182 0A       		.byte	0xa
 2723 1183 D601     		.2byte	0x1d6
 2724 1185 00       		.byte	0
 2725              		.section	.debug_abbrev,"",%progbits
 2726              	.Ldebug_abbrev0:
 2727 0000 01       		.uleb128 0x1
 2728 0001 11       		.uleb128 0x11
 2729 0002 01       		.byte	0x1
 2730 0003 25       		.uleb128 0x25
 2731 0004 0E       		.uleb128 0xe
 2732 0005 13       		.uleb128 0x13
 2733 0006 0B       		.uleb128 0xb
 2734 0007 03       		.uleb128 0x3
 2735 0008 0E       		.uleb128 0xe
 2736 0009 1B       		.uleb128 0x1b
ARM GAS  /tmp/ccvDO2JW.s 			page 49


 2737 000a 0E       		.uleb128 0xe
 2738 000b 55       		.uleb128 0x55
 2739 000c 17       		.uleb128 0x17
 2740 000d 11       		.uleb128 0x11
 2741 000e 01       		.uleb128 0x1
 2742 000f 10       		.uleb128 0x10
 2743 0010 17       		.uleb128 0x17
 2744 0011 00       		.byte	0
 2745 0012 00       		.byte	0
 2746 0013 02       		.uleb128 0x2
 2747 0014 24       		.uleb128 0x24
 2748 0015 00       		.byte	0
 2749 0016 0B       		.uleb128 0xb
 2750 0017 0B       		.uleb128 0xb
 2751 0018 3E       		.uleb128 0x3e
 2752 0019 0B       		.uleb128 0xb
 2753 001a 03       		.uleb128 0x3
 2754 001b 08       		.uleb128 0x8
 2755 001c 00       		.byte	0
 2756 001d 00       		.byte	0
 2757 001e 03       		.uleb128 0x3
 2758 001f 16       		.uleb128 0x16
 2759 0020 00       		.byte	0
 2760 0021 03       		.uleb128 0x3
 2761 0022 0E       		.uleb128 0xe
 2762 0023 3A       		.uleb128 0x3a
 2763 0024 0B       		.uleb128 0xb
 2764 0025 3B       		.uleb128 0x3b
 2765 0026 0B       		.uleb128 0xb
 2766 0027 49       		.uleb128 0x49
 2767 0028 13       		.uleb128 0x13
 2768 0029 00       		.byte	0
 2769 002a 00       		.byte	0
 2770 002b 04       		.uleb128 0x4
 2771 002c 24       		.uleb128 0x24
 2772 002d 00       		.byte	0
 2773 002e 0B       		.uleb128 0xb
 2774 002f 0B       		.uleb128 0xb
 2775 0030 3E       		.uleb128 0x3e
 2776 0031 0B       		.uleb128 0xb
 2777 0032 03       		.uleb128 0x3
 2778 0033 0E       		.uleb128 0xe
 2779 0034 00       		.byte	0
 2780 0035 00       		.byte	0
 2781 0036 05       		.uleb128 0x5
 2782 0037 13       		.uleb128 0x13
 2783 0038 01       		.byte	0x1
 2784 0039 03       		.uleb128 0x3
 2785 003a 0E       		.uleb128 0xe
 2786 003b 0B       		.uleb128 0xb
 2787 003c 0B       		.uleb128 0xb
 2788 003d 3A       		.uleb128 0x3a
 2789 003e 0B       		.uleb128 0xb
 2790 003f 3B       		.uleb128 0x3b
 2791 0040 0B       		.uleb128 0xb
 2792 0041 01       		.uleb128 0x1
 2793 0042 13       		.uleb128 0x13
ARM GAS  /tmp/ccvDO2JW.s 			page 50


 2794 0043 00       		.byte	0
 2795 0044 00       		.byte	0
 2796 0045 06       		.uleb128 0x6
 2797 0046 0D       		.uleb128 0xd
 2798 0047 00       		.byte	0
 2799 0048 03       		.uleb128 0x3
 2800 0049 0E       		.uleb128 0xe
 2801 004a 3A       		.uleb128 0x3a
 2802 004b 0B       		.uleb128 0xb
 2803 004c 3B       		.uleb128 0x3b
 2804 004d 0B       		.uleb128 0xb
 2805 004e 49       		.uleb128 0x49
 2806 004f 13       		.uleb128 0x13
 2807 0050 38       		.uleb128 0x38
 2808 0051 0B       		.uleb128 0xb
 2809 0052 00       		.byte	0
 2810 0053 00       		.byte	0
 2811 0054 07       		.uleb128 0x7
 2812 0055 0D       		.uleb128 0xd
 2813 0056 00       		.byte	0
 2814 0057 03       		.uleb128 0x3
 2815 0058 08       		.uleb128 0x8
 2816 0059 3A       		.uleb128 0x3a
 2817 005a 0B       		.uleb128 0xb
 2818 005b 3B       		.uleb128 0x3b
 2819 005c 0B       		.uleb128 0xb
 2820 005d 49       		.uleb128 0x49
 2821 005e 13       		.uleb128 0x13
 2822 005f 38       		.uleb128 0x38
 2823 0060 0B       		.uleb128 0xb
 2824 0061 00       		.byte	0
 2825 0062 00       		.byte	0
 2826 0063 08       		.uleb128 0x8
 2827 0064 0D       		.uleb128 0xd
 2828 0065 00       		.byte	0
 2829 0066 03       		.uleb128 0x3
 2830 0067 08       		.uleb128 0x8
 2831 0068 3A       		.uleb128 0x3a
 2832 0069 0B       		.uleb128 0xb
 2833 006a 3B       		.uleb128 0x3b
 2834 006b 05       		.uleb128 0x5
 2835 006c 49       		.uleb128 0x49
 2836 006d 13       		.uleb128 0x13
 2837 006e 38       		.uleb128 0x38
 2838 006f 0B       		.uleb128 0xb
 2839 0070 00       		.byte	0
 2840 0071 00       		.byte	0
 2841 0072 09       		.uleb128 0x9
 2842 0073 0D       		.uleb128 0xd
 2843 0074 00       		.byte	0
 2844 0075 03       		.uleb128 0x3
 2845 0076 0E       		.uleb128 0xe
 2846 0077 3A       		.uleb128 0x3a
 2847 0078 0B       		.uleb128 0xb
 2848 0079 3B       		.uleb128 0x3b
 2849 007a 05       		.uleb128 0x5
 2850 007b 49       		.uleb128 0x49
ARM GAS  /tmp/ccvDO2JW.s 			page 51


 2851 007c 13       		.uleb128 0x13
 2852 007d 38       		.uleb128 0x38
 2853 007e 0B       		.uleb128 0xb
 2854 007f 00       		.byte	0
 2855 0080 00       		.byte	0
 2856 0081 0A       		.uleb128 0xa
 2857 0082 0F       		.uleb128 0xf
 2858 0083 00       		.byte	0
 2859 0084 0B       		.uleb128 0xb
 2860 0085 0B       		.uleb128 0xb
 2861 0086 49       		.uleb128 0x49
 2862 0087 13       		.uleb128 0x13
 2863 0088 00       		.byte	0
 2864 0089 00       		.byte	0
 2865 008a 0B       		.uleb128 0xb
 2866 008b 13       		.uleb128 0x13
 2867 008c 01       		.byte	0x1
 2868 008d 03       		.uleb128 0x3
 2869 008e 0E       		.uleb128 0xe
 2870 008f 0B       		.uleb128 0xb
 2871 0090 0B       		.uleb128 0xb
 2872 0091 3A       		.uleb128 0x3a
 2873 0092 0B       		.uleb128 0xb
 2874 0093 3B       		.uleb128 0x3b
 2875 0094 05       		.uleb128 0x5
 2876 0095 01       		.uleb128 0x1
 2877 0096 13       		.uleb128 0x13
 2878 0097 00       		.byte	0
 2879 0098 00       		.byte	0
 2880 0099 0C       		.uleb128 0xc
 2881 009a 15       		.uleb128 0x15
 2882 009b 01       		.byte	0x1
 2883 009c 27       		.uleb128 0x27
 2884 009d 19       		.uleb128 0x19
 2885 009e 01       		.uleb128 0x1
 2886 009f 13       		.uleb128 0x13
 2887 00a0 00       		.byte	0
 2888 00a1 00       		.byte	0
 2889 00a2 0D       		.uleb128 0xd
 2890 00a3 05       		.uleb128 0x5
 2891 00a4 00       		.byte	0
 2892 00a5 49       		.uleb128 0x49
 2893 00a6 13       		.uleb128 0x13
 2894 00a7 00       		.byte	0
 2895 00a8 00       		.byte	0
 2896 00a9 0E       		.uleb128 0xe
 2897 00aa 0F       		.uleb128 0xf
 2898 00ab 00       		.byte	0
 2899 00ac 0B       		.uleb128 0xb
 2900 00ad 0B       		.uleb128 0xb
 2901 00ae 00       		.byte	0
 2902 00af 00       		.byte	0
 2903 00b0 0F       		.uleb128 0xf
 2904 00b1 13       		.uleb128 0x13
 2905 00b2 01       		.byte	0x1
 2906 00b3 0B       		.uleb128 0xb
 2907 00b4 0B       		.uleb128 0xb
ARM GAS  /tmp/ccvDO2JW.s 			page 52


 2908 00b5 3A       		.uleb128 0x3a
 2909 00b6 0B       		.uleb128 0xb
 2910 00b7 3B       		.uleb128 0x3b
 2911 00b8 0B       		.uleb128 0xb
 2912 00b9 01       		.uleb128 0x1
 2913 00ba 13       		.uleb128 0x13
 2914 00bb 00       		.byte	0
 2915 00bc 00       		.byte	0
 2916 00bd 10       		.uleb128 0x10
 2917 00be 17       		.uleb128 0x17
 2918 00bf 01       		.byte	0x1
 2919 00c0 0B       		.uleb128 0xb
 2920 00c1 0B       		.uleb128 0xb
 2921 00c2 3A       		.uleb128 0x3a
 2922 00c3 0B       		.uleb128 0xb
 2923 00c4 3B       		.uleb128 0x3b
 2924 00c5 0B       		.uleb128 0xb
 2925 00c6 01       		.uleb128 0x1
 2926 00c7 13       		.uleb128 0x13
 2927 00c8 00       		.byte	0
 2928 00c9 00       		.byte	0
 2929 00ca 11       		.uleb128 0x11
 2930 00cb 0D       		.uleb128 0xd
 2931 00cc 00       		.byte	0
 2932 00cd 03       		.uleb128 0x3
 2933 00ce 0E       		.uleb128 0xe
 2934 00cf 3A       		.uleb128 0x3a
 2935 00d0 0B       		.uleb128 0xb
 2936 00d1 3B       		.uleb128 0x3b
 2937 00d2 0B       		.uleb128 0xb
 2938 00d3 49       		.uleb128 0x49
 2939 00d4 13       		.uleb128 0x13
 2940 00d5 00       		.byte	0
 2941 00d6 00       		.byte	0
 2942 00d7 12       		.uleb128 0x12
 2943 00d8 0D       		.uleb128 0xd
 2944 00d9 00       		.byte	0
 2945 00da 03       		.uleb128 0x3
 2946 00db 0E       		.uleb128 0xe
 2947 00dc 3A       		.uleb128 0x3a
 2948 00dd 0B       		.uleb128 0xb
 2949 00de 3B       		.uleb128 0x3b
 2950 00df 05       		.uleb128 0x5
 2951 00e0 49       		.uleb128 0x49
 2952 00e1 13       		.uleb128 0x13
 2953 00e2 00       		.byte	0
 2954 00e3 00       		.byte	0
 2955 00e4 13       		.uleb128 0x13
 2956 00e5 26       		.uleb128 0x26
 2957 00e6 00       		.byte	0
 2958 00e7 49       		.uleb128 0x49
 2959 00e8 13       		.uleb128 0x13
 2960 00e9 00       		.byte	0
 2961 00ea 00       		.byte	0
 2962 00eb 14       		.uleb128 0x14
 2963 00ec 35       		.uleb128 0x35
 2964 00ed 00       		.byte	0
ARM GAS  /tmp/ccvDO2JW.s 			page 53


 2965 00ee 49       		.uleb128 0x49
 2966 00ef 13       		.uleb128 0x13
 2967 00f0 00       		.byte	0
 2968 00f1 00       		.byte	0
 2969 00f2 15       		.uleb128 0x15
 2970 00f3 15       		.uleb128 0x15
 2971 00f4 01       		.byte	0x1
 2972 00f5 27       		.uleb128 0x27
 2973 00f6 19       		.uleb128 0x19
 2974 00f7 49       		.uleb128 0x49
 2975 00f8 13       		.uleb128 0x13
 2976 00f9 01       		.uleb128 0x1
 2977 00fa 13       		.uleb128 0x13
 2978 00fb 00       		.byte	0
 2979 00fc 00       		.byte	0
 2980 00fd 16       		.uleb128 0x16
 2981 00fe 2E       		.uleb128 0x2e
 2982 00ff 01       		.byte	0x1
 2983 0100 03       		.uleb128 0x3
 2984 0101 0E       		.uleb128 0xe
 2985 0102 3A       		.uleb128 0x3a
 2986 0103 0B       		.uleb128 0xb
 2987 0104 3B       		.uleb128 0x3b
 2988 0105 05       		.uleb128 0x5
 2989 0106 27       		.uleb128 0x27
 2990 0107 19       		.uleb128 0x19
 2991 0108 20       		.uleb128 0x20
 2992 0109 0B       		.uleb128 0xb
 2993 010a 01       		.uleb128 0x1
 2994 010b 13       		.uleb128 0x13
 2995 010c 00       		.byte	0
 2996 010d 00       		.byte	0
 2997 010e 17       		.uleb128 0x17
 2998 010f 05       		.uleb128 0x5
 2999 0110 00       		.byte	0
 3000 0111 03       		.uleb128 0x3
 3001 0112 0E       		.uleb128 0xe
 3002 0113 3A       		.uleb128 0x3a
 3003 0114 0B       		.uleb128 0xb
 3004 0115 3B       		.uleb128 0x3b
 3005 0116 05       		.uleb128 0x5
 3006 0117 49       		.uleb128 0x49
 3007 0118 13       		.uleb128 0x13
 3008 0119 00       		.byte	0
 3009 011a 00       		.byte	0
 3010 011b 18       		.uleb128 0x18
 3011 011c 2E       		.uleb128 0x2e
 3012 011d 00       		.byte	0
 3013 011e 03       		.uleb128 0x3
 3014 011f 0E       		.uleb128 0xe
 3015 0120 3A       		.uleb128 0x3a
 3016 0121 0B       		.uleb128 0xb
 3017 0122 3B       		.uleb128 0x3b
 3018 0123 05       		.uleb128 0x5
 3019 0124 27       		.uleb128 0x27
 3020 0125 19       		.uleb128 0x19
 3021 0126 20       		.uleb128 0x20
ARM GAS  /tmp/ccvDO2JW.s 			page 54


 3022 0127 0B       		.uleb128 0xb
 3023 0128 00       		.byte	0
 3024 0129 00       		.byte	0
 3025 012a 19       		.uleb128 0x19
 3026 012b 2E       		.uleb128 0x2e
 3027 012c 01       		.byte	0x1
 3028 012d 3F       		.uleb128 0x3f
 3029 012e 19       		.uleb128 0x19
 3030 012f 03       		.uleb128 0x3
 3031 0130 0E       		.uleb128 0xe
 3032 0131 3A       		.uleb128 0x3a
 3033 0132 0B       		.uleb128 0xb
 3034 0133 3B       		.uleb128 0x3b
 3035 0134 0B       		.uleb128 0xb
 3036 0135 27       		.uleb128 0x27
 3037 0136 19       		.uleb128 0x19
 3038 0137 20       		.uleb128 0x20
 3039 0138 0B       		.uleb128 0xb
 3040 0139 01       		.uleb128 0x1
 3041 013a 13       		.uleb128 0x13
 3042 013b 00       		.byte	0
 3043 013c 00       		.byte	0
 3044 013d 1A       		.uleb128 0x1a
 3045 013e 05       		.uleb128 0x5
 3046 013f 00       		.byte	0
 3047 0140 03       		.uleb128 0x3
 3048 0141 08       		.uleb128 0x8
 3049 0142 3A       		.uleb128 0x3a
 3050 0143 0B       		.uleb128 0xb
 3051 0144 3B       		.uleb128 0x3b
 3052 0145 0B       		.uleb128 0xb
 3053 0146 49       		.uleb128 0x49
 3054 0147 13       		.uleb128 0x13
 3055 0148 00       		.byte	0
 3056 0149 00       		.byte	0
 3057 014a 1B       		.uleb128 0x1b
 3058 014b 05       		.uleb128 0x5
 3059 014c 00       		.byte	0
 3060 014d 03       		.uleb128 0x3
 3061 014e 0E       		.uleb128 0xe
 3062 014f 3A       		.uleb128 0x3a
 3063 0150 0B       		.uleb128 0xb
 3064 0151 3B       		.uleb128 0x3b
 3065 0152 0B       		.uleb128 0xb
 3066 0153 49       		.uleb128 0x49
 3067 0154 13       		.uleb128 0x13
 3068 0155 00       		.byte	0
 3069 0156 00       		.byte	0
 3070 0157 1C       		.uleb128 0x1c
 3071 0158 34       		.uleb128 0x34
 3072 0159 00       		.byte	0
 3073 015a 03       		.uleb128 0x3
 3074 015b 08       		.uleb128 0x8
 3075 015c 3A       		.uleb128 0x3a
 3076 015d 0B       		.uleb128 0xb
 3077 015e 3B       		.uleb128 0x3b
 3078 015f 0B       		.uleb128 0xb
ARM GAS  /tmp/ccvDO2JW.s 			page 55


 3079 0160 49       		.uleb128 0x49
 3080 0161 13       		.uleb128 0x13
 3081 0162 00       		.byte	0
 3082 0163 00       		.byte	0
 3083 0164 1D       		.uleb128 0x1d
 3084 0165 34       		.uleb128 0x34
 3085 0166 00       		.byte	0
 3086 0167 03       		.uleb128 0x3
 3087 0168 0E       		.uleb128 0xe
 3088 0169 49       		.uleb128 0x49
 3089 016a 13       		.uleb128 0x13
 3090 016b 34       		.uleb128 0x34
 3091 016c 19       		.uleb128 0x19
 3092 016d 1C       		.uleb128 0x1c
 3093 016e 0E       		.uleb128 0xe
 3094 016f 00       		.byte	0
 3095 0170 00       		.byte	0
 3096 0171 1E       		.uleb128 0x1e
 3097 0172 01       		.uleb128 0x1
 3098 0173 01       		.byte	0x1
 3099 0174 49       		.uleb128 0x49
 3100 0175 13       		.uleb128 0x13
 3101 0176 01       		.uleb128 0x1
 3102 0177 13       		.uleb128 0x13
 3103 0178 00       		.byte	0
 3104 0179 00       		.byte	0
 3105 017a 1F       		.uleb128 0x1f
 3106 017b 21       		.uleb128 0x21
 3107 017c 00       		.byte	0
 3108 017d 49       		.uleb128 0x49
 3109 017e 13       		.uleb128 0x13
 3110 017f 2F       		.uleb128 0x2f
 3111 0180 0B       		.uleb128 0xb
 3112 0181 00       		.byte	0
 3113 0182 00       		.byte	0
 3114 0183 20       		.uleb128 0x20
 3115 0184 2E       		.uleb128 0x2e
 3116 0185 01       		.byte	0x1
 3117 0186 03       		.uleb128 0x3
 3118 0187 0E       		.uleb128 0xe
 3119 0188 3A       		.uleb128 0x3a
 3120 0189 0B       		.uleb128 0xb
 3121 018a 3B       		.uleb128 0x3b
 3122 018b 0B       		.uleb128 0xb
 3123 018c 27       		.uleb128 0x27
 3124 018d 19       		.uleb128 0x19
 3125 018e 20       		.uleb128 0x20
 3126 018f 0B       		.uleb128 0xb
 3127 0190 01       		.uleb128 0x1
 3128 0191 13       		.uleb128 0x13
 3129 0192 00       		.byte	0
 3130 0193 00       		.byte	0
 3131 0194 21       		.uleb128 0x21
 3132 0195 05       		.uleb128 0x5
 3133 0196 00       		.byte	0
 3134 0197 03       		.uleb128 0x3
 3135 0198 08       		.uleb128 0x8
ARM GAS  /tmp/ccvDO2JW.s 			page 56


 3136 0199 3A       		.uleb128 0x3a
 3137 019a 0B       		.uleb128 0xb
 3138 019b 3B       		.uleb128 0x3b
 3139 019c 05       		.uleb128 0x5
 3140 019d 49       		.uleb128 0x49
 3141 019e 13       		.uleb128 0x13
 3142 019f 00       		.byte	0
 3143 01a0 00       		.byte	0
 3144 01a1 22       		.uleb128 0x22
 3145 01a2 2E       		.uleb128 0x2e
 3146 01a3 01       		.byte	0x1
 3147 01a4 31       		.uleb128 0x31
 3148 01a5 13       		.uleb128 0x13
 3149 01a6 11       		.uleb128 0x11
 3150 01a7 01       		.uleb128 0x1
 3151 01a8 12       		.uleb128 0x12
 3152 01a9 06       		.uleb128 0x6
 3153 01aa 40       		.uleb128 0x40
 3154 01ab 18       		.uleb128 0x18
 3155 01ac 9742     		.uleb128 0x2117
 3156 01ae 19       		.uleb128 0x19
 3157 01af 01       		.uleb128 0x1
 3158 01b0 13       		.uleb128 0x13
 3159 01b1 00       		.byte	0
 3160 01b2 00       		.byte	0
 3161 01b3 23       		.uleb128 0x23
 3162 01b4 05       		.uleb128 0x5
 3163 01b5 00       		.byte	0
 3164 01b6 31       		.uleb128 0x31
 3165 01b7 13       		.uleb128 0x13
 3166 01b8 02       		.uleb128 0x2
 3167 01b9 18       		.uleb128 0x18
 3168 01ba 00       		.byte	0
 3169 01bb 00       		.byte	0
 3170 01bc 24       		.uleb128 0x24
 3171 01bd 34       		.uleb128 0x34
 3172 01be 00       		.byte	0
 3173 01bf 31       		.uleb128 0x31
 3174 01c0 13       		.uleb128 0x13
 3175 01c1 00       		.byte	0
 3176 01c2 00       		.byte	0
 3177 01c3 25       		.uleb128 0x25
 3178 01c4 2E       		.uleb128 0x2e
 3179 01c5 01       		.byte	0x1
 3180 01c6 3F       		.uleb128 0x3f
 3181 01c7 19       		.uleb128 0x19
 3182 01c8 03       		.uleb128 0x3
 3183 01c9 0E       		.uleb128 0xe
 3184 01ca 3A       		.uleb128 0x3a
 3185 01cb 0B       		.uleb128 0xb
 3186 01cc 3B       		.uleb128 0x3b
 3187 01cd 0B       		.uleb128 0xb
 3188 01ce 27       		.uleb128 0x27
 3189 01cf 19       		.uleb128 0x19
 3190 01d0 49       		.uleb128 0x49
 3191 01d1 13       		.uleb128 0x13
 3192 01d2 11       		.uleb128 0x11
ARM GAS  /tmp/ccvDO2JW.s 			page 57


 3193 01d3 01       		.uleb128 0x1
 3194 01d4 12       		.uleb128 0x12
 3195 01d5 06       		.uleb128 0x6
 3196 01d6 40       		.uleb128 0x40
 3197 01d7 18       		.uleb128 0x18
 3198 01d8 01       		.uleb128 0x1
 3199 01d9 13       		.uleb128 0x13
 3200 01da 00       		.byte	0
 3201 01db 00       		.byte	0
 3202 01dc 26       		.uleb128 0x26
 3203 01dd 05       		.uleb128 0x5
 3204 01de 00       		.byte	0
 3205 01df 03       		.uleb128 0x3
 3206 01e0 08       		.uleb128 0x8
 3207 01e1 3A       		.uleb128 0x3a
 3208 01e2 0B       		.uleb128 0xb
 3209 01e3 3B       		.uleb128 0x3b
 3210 01e4 0B       		.uleb128 0xb
 3211 01e5 49       		.uleb128 0x49
 3212 01e6 13       		.uleb128 0x13
 3213 01e7 02       		.uleb128 0x2
 3214 01e8 17       		.uleb128 0x17
 3215 01e9 00       		.byte	0
 3216 01ea 00       		.byte	0
 3217 01eb 27       		.uleb128 0x27
 3218 01ec 34       		.uleb128 0x34
 3219 01ed 00       		.byte	0
 3220 01ee 03       		.uleb128 0x3
 3221 01ef 0E       		.uleb128 0xe
 3222 01f0 3A       		.uleb128 0x3a
 3223 01f1 0B       		.uleb128 0xb
 3224 01f2 3B       		.uleb128 0x3b
 3225 01f3 0B       		.uleb128 0xb
 3226 01f4 49       		.uleb128 0x49
 3227 01f5 13       		.uleb128 0x13
 3228 01f6 02       		.uleb128 0x2
 3229 01f7 17       		.uleb128 0x17
 3230 01f8 00       		.byte	0
 3231 01f9 00       		.byte	0
 3232 01fa 28       		.uleb128 0x28
 3233 01fb 34       		.uleb128 0x34
 3234 01fc 00       		.byte	0
 3235 01fd 03       		.uleb128 0x3
 3236 01fe 0E       		.uleb128 0xe
 3237 01ff 49       		.uleb128 0x49
 3238 0200 13       		.uleb128 0x13
 3239 0201 34       		.uleb128 0x34
 3240 0202 19       		.uleb128 0x19
 3241 0203 00       		.byte	0
 3242 0204 00       		.byte	0
 3243 0205 29       		.uleb128 0x29
 3244 0206 2E       		.uleb128 0x2e
 3245 0207 01       		.byte	0x1
 3246 0208 3F       		.uleb128 0x3f
 3247 0209 19       		.uleb128 0x19
 3248 020a 03       		.uleb128 0x3
 3249 020b 0E       		.uleb128 0xe
ARM GAS  /tmp/ccvDO2JW.s 			page 58


 3250 020c 3A       		.uleb128 0x3a
 3251 020d 0B       		.uleb128 0xb
 3252 020e 3B       		.uleb128 0x3b
 3253 020f 0B       		.uleb128 0xb
 3254 0210 27       		.uleb128 0x27
 3255 0211 19       		.uleb128 0x19
 3256 0212 49       		.uleb128 0x49
 3257 0213 13       		.uleb128 0x13
 3258 0214 11       		.uleb128 0x11
 3259 0215 01       		.uleb128 0x1
 3260 0216 12       		.uleb128 0x12
 3261 0217 06       		.uleb128 0x6
 3262 0218 40       		.uleb128 0x40
 3263 0219 18       		.uleb128 0x18
 3264 021a 9742     		.uleb128 0x2117
 3265 021c 19       		.uleb128 0x19
 3266 021d 01       		.uleb128 0x1
 3267 021e 13       		.uleb128 0x13
 3268 021f 00       		.byte	0
 3269 0220 00       		.byte	0
 3270 0221 2A       		.uleb128 0x2a
 3271 0222 1D       		.uleb128 0x1d
 3272 0223 01       		.byte	0x1
 3273 0224 31       		.uleb128 0x31
 3274 0225 13       		.uleb128 0x13
 3275 0226 52       		.uleb128 0x52
 3276 0227 01       		.uleb128 0x1
 3277 0228 55       		.uleb128 0x55
 3278 0229 17       		.uleb128 0x17
 3279 022a 58       		.uleb128 0x58
 3280 022b 0B       		.uleb128 0xb
 3281 022c 59       		.uleb128 0x59
 3282 022d 0B       		.uleb128 0xb
 3283 022e 01       		.uleb128 0x1
 3284 022f 13       		.uleb128 0x13
 3285 0230 00       		.byte	0
 3286 0231 00       		.byte	0
 3287 0232 2B       		.uleb128 0x2b
 3288 0233 1D       		.uleb128 0x1d
 3289 0234 01       		.byte	0x1
 3290 0235 31       		.uleb128 0x31
 3291 0236 13       		.uleb128 0x13
 3292 0237 52       		.uleb128 0x52
 3293 0238 01       		.uleb128 0x1
 3294 0239 55       		.uleb128 0x55
 3295 023a 17       		.uleb128 0x17
 3296 023b 58       		.uleb128 0x58
 3297 023c 0B       		.uleb128 0xb
 3298 023d 59       		.uleb128 0x59
 3299 023e 05       		.uleb128 0x5
 3300 023f 01       		.uleb128 0x1
 3301 0240 13       		.uleb128 0x13
 3302 0241 00       		.byte	0
 3303 0242 00       		.byte	0
 3304 0243 2C       		.uleb128 0x2c
 3305 0244 1D       		.uleb128 0x1d
 3306 0245 01       		.byte	0x1
ARM GAS  /tmp/ccvDO2JW.s 			page 59


 3307 0246 31       		.uleb128 0x31
 3308 0247 13       		.uleb128 0x13
 3309 0248 52       		.uleb128 0x52
 3310 0249 01       		.uleb128 0x1
 3311 024a 55       		.uleb128 0x55
 3312 024b 17       		.uleb128 0x17
 3313 024c 58       		.uleb128 0x58
 3314 024d 0B       		.uleb128 0xb
 3315 024e 59       		.uleb128 0x59
 3316 024f 05       		.uleb128 0x5
 3317 0250 00       		.byte	0
 3318 0251 00       		.byte	0
 3319 0252 2D       		.uleb128 0x2d
 3320 0253 05       		.uleb128 0x5
 3321 0254 00       		.byte	0
 3322 0255 31       		.uleb128 0x31
 3323 0256 13       		.uleb128 0x13
 3324 0257 1C       		.uleb128 0x1c
 3325 0258 0B       		.uleb128 0xb
 3326 0259 00       		.byte	0
 3327 025a 00       		.byte	0
 3328 025b 2E       		.uleb128 0x2e
 3329 025c 898201   		.uleb128 0x4109
 3330 025f 00       		.byte	0
 3331 0260 11       		.uleb128 0x11
 3332 0261 01       		.uleb128 0x1
 3333 0262 31       		.uleb128 0x31
 3334 0263 13       		.uleb128 0x13
 3335 0264 00       		.byte	0
 3336 0265 00       		.byte	0
 3337 0266 2F       		.uleb128 0x2f
 3338 0267 1D       		.uleb128 0x1d
 3339 0268 01       		.byte	0x1
 3340 0269 31       		.uleb128 0x31
 3341 026a 13       		.uleb128 0x13
 3342 026b 11       		.uleb128 0x11
 3343 026c 01       		.uleb128 0x1
 3344 026d 12       		.uleb128 0x12
 3345 026e 06       		.uleb128 0x6
 3346 026f 58       		.uleb128 0x58
 3347 0270 0B       		.uleb128 0xb
 3348 0271 59       		.uleb128 0x59
 3349 0272 0B       		.uleb128 0xb
 3350 0273 01       		.uleb128 0x1
 3351 0274 13       		.uleb128 0x13
 3352 0275 00       		.byte	0
 3353 0276 00       		.byte	0
 3354 0277 30       		.uleb128 0x30
 3355 0278 0B       		.uleb128 0xb
 3356 0279 01       		.byte	0x1
 3357 027a 11       		.uleb128 0x11
 3358 027b 01       		.uleb128 0x1
 3359 027c 12       		.uleb128 0x12
 3360 027d 06       		.uleb128 0x6
 3361 027e 00       		.byte	0
 3362 027f 00       		.byte	0
 3363 0280 31       		.uleb128 0x31
ARM GAS  /tmp/ccvDO2JW.s 			page 60


 3364 0281 1D       		.uleb128 0x1d
 3365 0282 01       		.byte	0x1
 3366 0283 31       		.uleb128 0x31
 3367 0284 13       		.uleb128 0x13
 3368 0285 11       		.uleb128 0x11
 3369 0286 01       		.uleb128 0x1
 3370 0287 12       		.uleb128 0x12
 3371 0288 06       		.uleb128 0x6
 3372 0289 58       		.uleb128 0x58
 3373 028a 0B       		.uleb128 0xb
 3374 028b 59       		.uleb128 0x59
 3375 028c 05       		.uleb128 0x5
 3376 028d 01       		.uleb128 0x1
 3377 028e 13       		.uleb128 0x13
 3378 028f 00       		.byte	0
 3379 0290 00       		.byte	0
 3380 0291 32       		.uleb128 0x32
 3381 0292 1D       		.uleb128 0x1d
 3382 0293 01       		.byte	0x1
 3383 0294 31       		.uleb128 0x31
 3384 0295 13       		.uleb128 0x13
 3385 0296 11       		.uleb128 0x11
 3386 0297 01       		.uleb128 0x1
 3387 0298 12       		.uleb128 0x12
 3388 0299 06       		.uleb128 0x6
 3389 029a 58       		.uleb128 0x58
 3390 029b 0B       		.uleb128 0xb
 3391 029c 59       		.uleb128 0x59
 3392 029d 05       		.uleb128 0x5
 3393 029e 00       		.byte	0
 3394 029f 00       		.byte	0
 3395 02a0 33       		.uleb128 0x33
 3396 02a1 898201   		.uleb128 0x4109
 3397 02a4 01       		.byte	0x1
 3398 02a5 11       		.uleb128 0x11
 3399 02a6 01       		.uleb128 0x1
 3400 02a7 31       		.uleb128 0x31
 3401 02a8 13       		.uleb128 0x13
 3402 02a9 00       		.byte	0
 3403 02aa 00       		.byte	0
 3404 02ab 34       		.uleb128 0x34
 3405 02ac 8A8201   		.uleb128 0x410a
 3406 02af 00       		.byte	0
 3407 02b0 02       		.uleb128 0x2
 3408 02b1 18       		.uleb128 0x18
 3409 02b2 9142     		.uleb128 0x2111
 3410 02b4 18       		.uleb128 0x18
 3411 02b5 00       		.byte	0
 3412 02b6 00       		.byte	0
 3413 02b7 35       		.uleb128 0x35
 3414 02b8 34       		.uleb128 0x34
 3415 02b9 00       		.byte	0
 3416 02ba 31       		.uleb128 0x31
 3417 02bb 13       		.uleb128 0x13
 3418 02bc 02       		.uleb128 0x2
 3419 02bd 18       		.uleb128 0x18
 3420 02be 00       		.byte	0
ARM GAS  /tmp/ccvDO2JW.s 			page 61


 3421 02bf 00       		.byte	0
 3422 02c0 36       		.uleb128 0x36
 3423 02c1 2E       		.uleb128 0x2e
 3424 02c2 01       		.byte	0x1
 3425 02c3 3F       		.uleb128 0x3f
 3426 02c4 19       		.uleb128 0x19
 3427 02c5 03       		.uleb128 0x3
 3428 02c6 0E       		.uleb128 0xe
 3429 02c7 3A       		.uleb128 0x3a
 3430 02c8 0B       		.uleb128 0xb
 3431 02c9 3B       		.uleb128 0x3b
 3432 02ca 0B       		.uleb128 0xb
 3433 02cb 27       		.uleb128 0x27
 3434 02cc 19       		.uleb128 0x19
 3435 02cd 11       		.uleb128 0x11
 3436 02ce 01       		.uleb128 0x1
 3437 02cf 12       		.uleb128 0x12
 3438 02d0 06       		.uleb128 0x6
 3439 02d1 40       		.uleb128 0x40
 3440 02d2 18       		.uleb128 0x18
 3441 02d3 9742     		.uleb128 0x2117
 3442 02d5 19       		.uleb128 0x19
 3443 02d6 01       		.uleb128 0x1
 3444 02d7 13       		.uleb128 0x13
 3445 02d8 00       		.byte	0
 3446 02d9 00       		.byte	0
 3447 02da 37       		.uleb128 0x37
 3448 02db 05       		.uleb128 0x5
 3449 02dc 00       		.byte	0
 3450 02dd 03       		.uleb128 0x3
 3451 02de 0E       		.uleb128 0xe
 3452 02df 3A       		.uleb128 0x3a
 3453 02e0 0B       		.uleb128 0xb
 3454 02e1 3B       		.uleb128 0x3b
 3455 02e2 0B       		.uleb128 0xb
 3456 02e3 49       		.uleb128 0x49
 3457 02e4 13       		.uleb128 0x13
 3458 02e5 02       		.uleb128 0x2
 3459 02e6 17       		.uleb128 0x17
 3460 02e7 00       		.byte	0
 3461 02e8 00       		.byte	0
 3462 02e9 38       		.uleb128 0x38
 3463 02ea 1D       		.uleb128 0x1d
 3464 02eb 01       		.byte	0x1
 3465 02ec 31       		.uleb128 0x31
 3466 02ed 13       		.uleb128 0x13
 3467 02ee 11       		.uleb128 0x11
 3468 02ef 01       		.uleb128 0x1
 3469 02f0 12       		.uleb128 0x12
 3470 02f1 06       		.uleb128 0x6
 3471 02f2 58       		.uleb128 0x58
 3472 02f3 0B       		.uleb128 0xb
 3473 02f4 59       		.uleb128 0x59
 3474 02f5 0B       		.uleb128 0xb
 3475 02f6 00       		.byte	0
 3476 02f7 00       		.byte	0
 3477 02f8 39       		.uleb128 0x39
ARM GAS  /tmp/ccvDO2JW.s 			page 62


 3478 02f9 05       		.uleb128 0x5
 3479 02fa 00       		.byte	0
 3480 02fb 31       		.uleb128 0x31
 3481 02fc 13       		.uleb128 0x13
 3482 02fd 02       		.uleb128 0x2
 3483 02fe 17       		.uleb128 0x17
 3484 02ff 00       		.byte	0
 3485 0300 00       		.byte	0
 3486 0301 3A       		.uleb128 0x3a
 3487 0302 0B       		.uleb128 0xb
 3488 0303 01       		.byte	0x1
 3489 0304 55       		.uleb128 0x55
 3490 0305 17       		.uleb128 0x17
 3491 0306 00       		.byte	0
 3492 0307 00       		.byte	0
 3493 0308 3B       		.uleb128 0x3b
 3494 0309 898201   		.uleb128 0x4109
 3495 030c 01       		.byte	0x1
 3496 030d 11       		.uleb128 0x11
 3497 030e 01       		.uleb128 0x1
 3498 030f 9542     		.uleb128 0x2115
 3499 0311 19       		.uleb128 0x19
 3500 0312 31       		.uleb128 0x31
 3501 0313 13       		.uleb128 0x13
 3502 0314 00       		.byte	0
 3503 0315 00       		.byte	0
 3504 0316 3C       		.uleb128 0x3c
 3505 0317 2E       		.uleb128 0x2e
 3506 0318 01       		.byte	0x1
 3507 0319 3F       		.uleb128 0x3f
 3508 031a 19       		.uleb128 0x19
 3509 031b 03       		.uleb128 0x3
 3510 031c 0E       		.uleb128 0xe
 3511 031d 3A       		.uleb128 0x3a
 3512 031e 0B       		.uleb128 0xb
 3513 031f 3B       		.uleb128 0x3b
 3514 0320 05       		.uleb128 0x5
 3515 0321 27       		.uleb128 0x27
 3516 0322 19       		.uleb128 0x19
 3517 0323 49       		.uleb128 0x49
 3518 0324 13       		.uleb128 0x13
 3519 0325 11       		.uleb128 0x11
 3520 0326 01       		.uleb128 0x1
 3521 0327 12       		.uleb128 0x12
 3522 0328 06       		.uleb128 0x6
 3523 0329 40       		.uleb128 0x40
 3524 032a 18       		.uleb128 0x18
 3525 032b 9742     		.uleb128 0x2117
 3526 032d 19       		.uleb128 0x19
 3527 032e 01       		.uleb128 0x1
 3528 032f 13       		.uleb128 0x13
 3529 0330 00       		.byte	0
 3530 0331 00       		.byte	0
 3531 0332 3D       		.uleb128 0x3d
 3532 0333 05       		.uleb128 0x5
 3533 0334 00       		.byte	0
 3534 0335 03       		.uleb128 0x3
ARM GAS  /tmp/ccvDO2JW.s 			page 63


 3535 0336 08       		.uleb128 0x8
 3536 0337 3A       		.uleb128 0x3a
 3537 0338 0B       		.uleb128 0xb
 3538 0339 3B       		.uleb128 0x3b
 3539 033a 05       		.uleb128 0x5
 3540 033b 49       		.uleb128 0x49
 3541 033c 13       		.uleb128 0x13
 3542 033d 02       		.uleb128 0x2
 3543 033e 17       		.uleb128 0x17
 3544 033f 00       		.byte	0
 3545 0340 00       		.byte	0
 3546 0341 3E       		.uleb128 0x3e
 3547 0342 05       		.uleb128 0x5
 3548 0343 00       		.byte	0
 3549 0344 03       		.uleb128 0x3
 3550 0345 0E       		.uleb128 0xe
 3551 0346 3A       		.uleb128 0x3a
 3552 0347 0B       		.uleb128 0xb
 3553 0348 3B       		.uleb128 0x3b
 3554 0349 05       		.uleb128 0x5
 3555 034a 49       		.uleb128 0x49
 3556 034b 13       		.uleb128 0x13
 3557 034c 02       		.uleb128 0x2
 3558 034d 17       		.uleb128 0x17
 3559 034e 00       		.byte	0
 3560 034f 00       		.byte	0
 3561 0350 3F       		.uleb128 0x3f
 3562 0351 34       		.uleb128 0x34
 3563 0352 00       		.byte	0
 3564 0353 03       		.uleb128 0x3
 3565 0354 08       		.uleb128 0x8
 3566 0355 3A       		.uleb128 0x3a
 3567 0356 0B       		.uleb128 0xb
 3568 0357 3B       		.uleb128 0x3b
 3569 0358 05       		.uleb128 0x5
 3570 0359 49       		.uleb128 0x49
 3571 035a 13       		.uleb128 0x13
 3572 035b 02       		.uleb128 0x2
 3573 035c 17       		.uleb128 0x17
 3574 035d 00       		.byte	0
 3575 035e 00       		.byte	0
 3576 035f 40       		.uleb128 0x40
 3577 0360 898201   		.uleb128 0x4109
 3578 0363 01       		.byte	0x1
 3579 0364 11       		.uleb128 0x11
 3580 0365 01       		.uleb128 0x1
 3581 0366 31       		.uleb128 0x31
 3582 0367 13       		.uleb128 0x13
 3583 0368 01       		.uleb128 0x1
 3584 0369 13       		.uleb128 0x13
 3585 036a 00       		.byte	0
 3586 036b 00       		.byte	0
 3587 036c 41       		.uleb128 0x41
 3588 036d 2E       		.uleb128 0x2e
 3589 036e 01       		.byte	0x1
 3590 036f 3F       		.uleb128 0x3f
 3591 0370 19       		.uleb128 0x19
ARM GAS  /tmp/ccvDO2JW.s 			page 64


 3592 0371 03       		.uleb128 0x3
 3593 0372 0E       		.uleb128 0xe
 3594 0373 3A       		.uleb128 0x3a
 3595 0374 0B       		.uleb128 0xb
 3596 0375 3B       		.uleb128 0x3b
 3597 0376 05       		.uleb128 0x5
 3598 0377 27       		.uleb128 0x27
 3599 0378 19       		.uleb128 0x19
 3600 0379 11       		.uleb128 0x11
 3601 037a 01       		.uleb128 0x1
 3602 037b 12       		.uleb128 0x12
 3603 037c 06       		.uleb128 0x6
 3604 037d 40       		.uleb128 0x40
 3605 037e 18       		.uleb128 0x18
 3606 037f 9742     		.uleb128 0x2117
 3607 0381 19       		.uleb128 0x19
 3608 0382 01       		.uleb128 0x1
 3609 0383 13       		.uleb128 0x13
 3610 0384 00       		.byte	0
 3611 0385 00       		.byte	0
 3612 0386 42       		.uleb128 0x42
 3613 0387 34       		.uleb128 0x34
 3614 0388 00       		.byte	0
 3615 0389 03       		.uleb128 0x3
 3616 038a 0E       		.uleb128 0xe
 3617 038b 3A       		.uleb128 0x3a
 3618 038c 0B       		.uleb128 0xb
 3619 038d 3B       		.uleb128 0x3b
 3620 038e 05       		.uleb128 0x5
 3621 038f 49       		.uleb128 0x49
 3622 0390 13       		.uleb128 0x13
 3623 0391 3F       		.uleb128 0x3f
 3624 0392 19       		.uleb128 0x19
 3625 0393 3C       		.uleb128 0x3c
 3626 0394 19       		.uleb128 0x19
 3627 0395 00       		.byte	0
 3628 0396 00       		.byte	0
 3629 0397 43       		.uleb128 0x43
 3630 0398 34       		.uleb128 0x34
 3631 0399 00       		.byte	0
 3632 039a 03       		.uleb128 0x3
 3633 039b 08       		.uleb128 0x8
 3634 039c 3A       		.uleb128 0x3a
 3635 039d 0B       		.uleb128 0xb
 3636 039e 3B       		.uleb128 0x3b
 3637 039f 05       		.uleb128 0x5
 3638 03a0 49       		.uleb128 0x49
 3639 03a1 13       		.uleb128 0x13
 3640 03a2 3F       		.uleb128 0x3f
 3641 03a3 19       		.uleb128 0x19
 3642 03a4 3C       		.uleb128 0x3c
 3643 03a5 19       		.uleb128 0x19
 3644 03a6 00       		.byte	0
 3645 03a7 00       		.byte	0
 3646 03a8 44       		.uleb128 0x44
 3647 03a9 2E       		.uleb128 0x2e
 3648 03aa 00       		.byte	0
ARM GAS  /tmp/ccvDO2JW.s 			page 65


 3649 03ab 3F       		.uleb128 0x3f
 3650 03ac 19       		.uleb128 0x19
 3651 03ad 03       		.uleb128 0x3
 3652 03ae 0E       		.uleb128 0xe
 3653 03af 3A       		.uleb128 0x3a
 3654 03b0 0B       		.uleb128 0xb
 3655 03b1 3B       		.uleb128 0x3b
 3656 03b2 0B       		.uleb128 0xb
 3657 03b3 27       		.uleb128 0x27
 3658 03b4 19       		.uleb128 0x19
 3659 03b5 3C       		.uleb128 0x3c
 3660 03b6 19       		.uleb128 0x19
 3661 03b7 00       		.byte	0
 3662 03b8 00       		.byte	0
 3663 03b9 45       		.uleb128 0x45
 3664 03ba 2E       		.uleb128 0x2e
 3665 03bb 01       		.byte	0x1
 3666 03bc 3F       		.uleb128 0x3f
 3667 03bd 19       		.uleb128 0x19
 3668 03be 03       		.uleb128 0x3
 3669 03bf 0E       		.uleb128 0xe
 3670 03c0 3A       		.uleb128 0x3a
 3671 03c1 0B       		.uleb128 0xb
 3672 03c2 3B       		.uleb128 0x3b
 3673 03c3 0B       		.uleb128 0xb
 3674 03c4 27       		.uleb128 0x27
 3675 03c5 19       		.uleb128 0x19
 3676 03c6 3C       		.uleb128 0x3c
 3677 03c7 19       		.uleb128 0x19
 3678 03c8 01       		.uleb128 0x1
 3679 03c9 13       		.uleb128 0x13
 3680 03ca 00       		.byte	0
 3681 03cb 00       		.byte	0
 3682 03cc 46       		.uleb128 0x46
 3683 03cd 2E       		.uleb128 0x2e
 3684 03ce 01       		.byte	0x1
 3685 03cf 3F       		.uleb128 0x3f
 3686 03d0 19       		.uleb128 0x19
 3687 03d1 03       		.uleb128 0x3
 3688 03d2 0E       		.uleb128 0xe
 3689 03d3 3A       		.uleb128 0x3a
 3690 03d4 0B       		.uleb128 0xb
 3691 03d5 3B       		.uleb128 0x3b
 3692 03d6 0B       		.uleb128 0xb
 3693 03d7 27       		.uleb128 0x27
 3694 03d8 19       		.uleb128 0x19
 3695 03d9 49       		.uleb128 0x49
 3696 03da 13       		.uleb128 0x13
 3697 03db 3C       		.uleb128 0x3c
 3698 03dc 19       		.uleb128 0x19
 3699 03dd 01       		.uleb128 0x1
 3700 03de 13       		.uleb128 0x13
 3701 03df 00       		.byte	0
 3702 03e0 00       		.byte	0
 3703 03e1 47       		.uleb128 0x47
 3704 03e2 2E       		.uleb128 0x2e
 3705 03e3 00       		.byte	0
ARM GAS  /tmp/ccvDO2JW.s 			page 66


 3706 03e4 3F       		.uleb128 0x3f
 3707 03e5 19       		.uleb128 0x19
 3708 03e6 03       		.uleb128 0x3
 3709 03e7 0E       		.uleb128 0xe
 3710 03e8 3A       		.uleb128 0x3a
 3711 03e9 0B       		.uleb128 0xb
 3712 03ea 3B       		.uleb128 0x3b
 3713 03eb 05       		.uleb128 0x5
 3714 03ec 27       		.uleb128 0x27
 3715 03ed 19       		.uleb128 0x19
 3716 03ee 3C       		.uleb128 0x3c
 3717 03ef 19       		.uleb128 0x19
 3718 03f0 00       		.byte	0
 3719 03f1 00       		.byte	0
 3720 03f2 00       		.byte	0
 3721              		.section	.debug_loc,"",%progbits
 3722              	.Ldebug_loc0:
 3723              	.LLST0:
 3724 0000 00000000 		.4byte	.LVL1
 3725 0004 04000000 		.4byte	.LVL2
 3726 0008 0100     		.2byte	0x1
 3727 000a 50       		.byte	0x50
 3728 000b 04000000 		.4byte	.LVL2
 3729 000f 15000000 		.4byte	.LVL4-1
 3730 0013 0100     		.2byte	0x1
 3731 0015 53       		.byte	0x53
 3732 0016 15000000 		.4byte	.LVL4-1
 3733 001a 16000000 		.4byte	.LVL4
 3734 001e 0400     		.2byte	0x4
 3735 0020 F3       		.byte	0xf3
 3736 0021 01       		.uleb128 0x1
 3737 0022 50       		.byte	0x50
 3738 0023 9F       		.byte	0x9f
 3739 0024 16000000 		.4byte	.LVL4
 3740 0028 18000000 		.4byte	.LFE292
 3741 002c 0100     		.2byte	0x1
 3742 002e 53       		.byte	0x53
 3743 002f 00000000 		.4byte	0
 3744 0033 00000000 		.4byte	0
 3745              	.LLST1:
 3746 0037 04000000 		.4byte	.LVL2
 3747 003b 12000000 		.4byte	.LVL3
 3748 003f 0100     		.2byte	0x1
 3749 0041 50       		.byte	0x50
 3750 0042 12000000 		.4byte	.LVL3
 3751 0046 15000000 		.4byte	.LVL4-1
 3752 004a 0200     		.2byte	0x2
 3753 004c 73       		.byte	0x73
 3754 004d 00       		.sleb128 0
 3755 004e 16000000 		.4byte	.LVL4
 3756 0052 18000000 		.4byte	.LFE292
 3757 0056 0100     		.2byte	0x1
 3758 0058 50       		.byte	0x50
 3759 0059 00000000 		.4byte	0
 3760 005d 00000000 		.4byte	0
 3761              	.LLST2:
 3762 0061 00000000 		.4byte	.LVL5
ARM GAS  /tmp/ccvDO2JW.s 			page 67


 3763 0065 0D000000 		.4byte	.LVL6-1
 3764 0069 0100     		.2byte	0x1
 3765 006b 50       		.byte	0x50
 3766 006c 0D000000 		.4byte	.LVL6-1
 3767 0070 16000000 		.4byte	.LVL8
 3768 0074 0100     		.2byte	0x1
 3769 0076 54       		.byte	0x54
 3770 0077 16000000 		.4byte	.LVL8
 3771 007b 24000000 		.4byte	.LFE293
 3772 007f 0400     		.2byte	0x4
 3773 0081 F3       		.byte	0xf3
 3774 0082 01       		.uleb128 0x1
 3775 0083 50       		.byte	0x50
 3776 0084 9F       		.byte	0x9f
 3777 0085 00000000 		.4byte	0
 3778 0089 00000000 		.4byte	0
 3779              	.LLST3:
 3780 008d 16000000 		.4byte	.LVL8
 3781 0091 19000000 		.4byte	.LVL9-1
 3782 0095 0100     		.2byte	0x1
 3783 0097 50       		.byte	0x50
 3784 0098 19000000 		.4byte	.LVL9-1
 3785 009c 24000000 		.4byte	.LFE293
 3786 00a0 0100     		.2byte	0x1
 3787 00a2 54       		.byte	0x54
 3788 00a3 00000000 		.4byte	0
 3789 00a7 00000000 		.4byte	0
 3790              	.LLST4:
 3791 00ab 00000000 		.4byte	.LVL11
 3792 00af 0F000000 		.4byte	.LVL12-1
 3793 00b3 0100     		.2byte	0x1
 3794 00b5 50       		.byte	0x50
 3795 00b6 0F000000 		.4byte	.LVL12-1
 3796 00ba 22000000 		.4byte	.LFE295
 3797 00be 0100     		.2byte	0x1
 3798 00c0 54       		.byte	0x54
 3799 00c1 00000000 		.4byte	0
 3800 00c5 00000000 		.4byte	0
 3801              	.LLST5:
 3802 00c9 00000000 		.4byte	.LVL11
 3803 00cd 0F000000 		.4byte	.LVL12-1
 3804 00d1 0100     		.2byte	0x1
 3805 00d3 51       		.byte	0x51
 3806 00d4 0F000000 		.4byte	.LVL12-1
 3807 00d8 22000000 		.4byte	.LFE295
 3808 00dc 0100     		.2byte	0x1
 3809 00de 55       		.byte	0x55
 3810 00df 00000000 		.4byte	0
 3811 00e3 00000000 		.4byte	0
 3812              	.LLST6:
 3813 00e7 00000000 		.4byte	.LVL14
 3814 00eb 08000000 		.4byte	.LVL15
 3815 00ef 0100     		.2byte	0x1
 3816 00f1 50       		.byte	0x50
 3817 00f2 08000000 		.4byte	.LVL15
 3818 00f6 1C000000 		.4byte	.LFE291
 3819 00fa 0100     		.2byte	0x1
ARM GAS  /tmp/ccvDO2JW.s 			page 68


 3820 00fc 56       		.byte	0x56
 3821 00fd 00000000 		.4byte	0
 3822 0101 00000000 		.4byte	0
 3823              	.LLST7:
 3824 0105 00000000 		.4byte	.LVL14
 3825 0109 08000000 		.4byte	.LVL15
 3826 010d 0100     		.2byte	0x1
 3827 010f 51       		.byte	0x51
 3828 0110 08000000 		.4byte	.LVL15
 3829 0114 1C000000 		.4byte	.LFE291
 3830 0118 0100     		.2byte	0x1
 3831 011a 55       		.byte	0x55
 3832 011b 00000000 		.4byte	0
 3833 011f 00000000 		.4byte	0
 3834              	.LLST8:
 3835 0123 00000000 		.4byte	.LVL14
 3836 0127 08000000 		.4byte	.LVL15
 3837 012b 0100     		.2byte	0x1
 3838 012d 52       		.byte	0x52
 3839 012e 08000000 		.4byte	.LVL15
 3840 0132 16000000 		.4byte	.LVL18
 3841 0136 0100     		.2byte	0x1
 3842 0138 54       		.byte	0x54
 3843 0139 16000000 		.4byte	.LVL18
 3844 013d 18000000 		.4byte	.LVL19
 3845 0141 0300     		.2byte	0x3
 3846 0143 74       		.byte	0x74
 3847 0144 01       		.sleb128 1
 3848 0145 9F       		.byte	0x9f
 3849 0146 18000000 		.4byte	.LVL19
 3850 014a 1C000000 		.4byte	.LFE291
 3851 014e 0100     		.2byte	0x1
 3852 0150 54       		.byte	0x54
 3853 0151 00000000 		.4byte	0
 3854 0155 00000000 		.4byte	0
 3855              	.LLST9:
 3856 0159 0A000000 		.4byte	.LVL16
 3857 015d 18000000 		.4byte	.LVL19
 3858 0161 0100     		.2byte	0x1
 3859 0163 55       		.byte	0x55
 3860 0164 00000000 		.4byte	0
 3861 0168 00000000 		.4byte	0
 3862              	.LLST10:
 3863 016c 0A000000 		.4byte	.LVL16
 3864 0170 1A000000 		.4byte	.LVL20
 3865 0174 0100     		.2byte	0x1
 3866 0176 56       		.byte	0x56
 3867 0177 00000000 		.4byte	0
 3868 017b 00000000 		.4byte	0
 3869              	.LLST11:
 3870 017f 00000000 		.4byte	.LVL21
 3871 0183 15000000 		.4byte	.LVL23-1
 3872 0187 0100     		.2byte	0x1
 3873 0189 50       		.byte	0x50
 3874 018a 15000000 		.4byte	.LVL23-1
 3875 018e 16000000 		.4byte	.LFE296
 3876 0192 0400     		.2byte	0x4
ARM GAS  /tmp/ccvDO2JW.s 			page 69


 3877 0194 F3       		.byte	0xf3
 3878 0195 01       		.uleb128 0x1
 3879 0196 50       		.byte	0x50
 3880 0197 9F       		.byte	0x9f
 3881 0198 00000000 		.4byte	0
 3882 019c 00000000 		.4byte	0
 3883              	.LLST12:
 3884 01a0 00000000 		.4byte	.LVL21
 3885 01a4 0C000000 		.4byte	.LVL22
 3886 01a8 0100     		.2byte	0x1
 3887 01aa 51       		.byte	0x51
 3888 01ab 0C000000 		.4byte	.LVL22
 3889 01af 15000000 		.4byte	.LVL23-1
 3890 01b3 0200     		.2byte	0x2
 3891 01b5 70       		.byte	0x70
 3892 01b6 10       		.sleb128 16
 3893 01b7 15000000 		.4byte	.LVL23-1
 3894 01bb 16000000 		.4byte	.LFE296
 3895 01bf 0400     		.2byte	0x4
 3896 01c1 F3       		.byte	0xf3
 3897 01c2 01       		.uleb128 0x1
 3898 01c3 51       		.byte	0x51
 3899 01c4 9F       		.byte	0x9f
 3900 01c5 00000000 		.4byte	0
 3901 01c9 00000000 		.4byte	0
 3902              	.LLST13:
 3903 01cd 00000000 		.4byte	.LVL21
 3904 01d1 15000000 		.4byte	.LVL23-1
 3905 01d5 0100     		.2byte	0x1
 3906 01d7 52       		.byte	0x52
 3907 01d8 15000000 		.4byte	.LVL23-1
 3908 01dc 16000000 		.4byte	.LFE296
 3909 01e0 0400     		.2byte	0x4
 3910 01e2 F3       		.byte	0xf3
 3911 01e3 01       		.uleb128 0x1
 3912 01e4 52       		.byte	0x52
 3913 01e5 9F       		.byte	0x9f
 3914 01e6 00000000 		.4byte	0
 3915 01ea 00000000 		.4byte	0
 3916              	.LLST16:
 3917 01ee 00000000 		.4byte	.LVL21
 3918 01f2 15000000 		.4byte	.LVL23-1
 3919 01f6 0300     		.2byte	0x3
 3920 01f8 70       		.byte	0x70
 3921 01f9 0C       		.sleb128 12
 3922 01fa 9F       		.byte	0x9f
 3923 01fb 15000000 		.4byte	.LVL23-1
 3924 01ff 16000000 		.4byte	.LFE296
 3925 0203 0600     		.2byte	0x6
 3926 0205 F3       		.byte	0xf3
 3927 0206 01       		.uleb128 0x1
 3928 0207 50       		.byte	0x50
 3929 0208 23       		.byte	0x23
 3930 0209 0C       		.uleb128 0xc
 3931 020a 9F       		.byte	0x9f
 3932 020b 00000000 		.4byte	0
 3933 020f 00000000 		.4byte	0
ARM GAS  /tmp/ccvDO2JW.s 			page 70


 3934              	.LLST17:
 3935 0213 00000000 		.4byte	.LVL24
 3936 0217 07000000 		.4byte	.LVL25-1
 3937 021b 0100     		.2byte	0x1
 3938 021d 50       		.byte	0x50
 3939 021e 07000000 		.4byte	.LVL25-1
 3940 0222 12000000 		.4byte	.LVL27
 3941 0226 0100     		.2byte	0x1
 3942 0228 54       		.byte	0x54
 3943 0229 12000000 		.4byte	.LVL27
 3944 022d 15000000 		.4byte	.LVL28-1
 3945 0231 0300     		.2byte	0x3
 3946 0233 70       		.byte	0x70
 3947 0234 74       		.sleb128 -12
 3948 0235 9F       		.byte	0x9f
 3949 0236 15000000 		.4byte	.LVL28-1
 3950 023a 16000000 		.4byte	.LVL28
 3951 023e 0400     		.2byte	0x4
 3952 0240 F3       		.byte	0xf3
 3953 0241 01       		.uleb128 0x1
 3954 0242 50       		.byte	0x50
 3955 0243 9F       		.byte	0x9f
 3956 0244 16000000 		.4byte	.LVL28
 3957 0248 1A000000 		.4byte	.LFE298
 3958 024c 0100     		.2byte	0x1
 3959 024e 54       		.byte	0x54
 3960 024f 00000000 		.4byte	0
 3961 0253 00000000 		.4byte	0
 3962              	.LLST18:
 3963 0257 00000000 		.4byte	.LVL24
 3964 025b 07000000 		.4byte	.LVL25-1
 3965 025f 0100     		.2byte	0x1
 3966 0261 51       		.byte	0x51
 3967 0262 07000000 		.4byte	.LVL25-1
 3968 0266 1A000000 		.4byte	.LFE298
 3969 026a 0400     		.2byte	0x4
 3970 026c F3       		.byte	0xf3
 3971 026d 01       		.uleb128 0x1
 3972 026e 51       		.byte	0x51
 3973 026f 9F       		.byte	0x9f
 3974 0270 00000000 		.4byte	0
 3975 0274 00000000 		.4byte	0
 3976              	.LLST19:
 3977 0278 08000000 		.4byte	.LVL25
 3978 027c 0E000000 		.4byte	.LVL26
 3979 0280 0100     		.2byte	0x1
 3980 0282 50       		.byte	0x50
 3981 0283 16000000 		.4byte	.LVL28
 3982 0287 18000000 		.4byte	.LVL29
 3983 028b 0100     		.2byte	0x1
 3984 028d 50       		.byte	0x50
 3985 028e 00000000 		.4byte	0
 3986 0292 00000000 		.4byte	0
 3987              	.LLST20:
 3988 0296 00000000 		.4byte	.LVL30
 3989 029a 0F000000 		.4byte	.LVL31-1
 3990 029e 0100     		.2byte	0x1
ARM GAS  /tmp/ccvDO2JW.s 			page 71


 3991 02a0 50       		.byte	0x50
 3992 02a1 0F000000 		.4byte	.LVL31-1
 3993 02a5 28000000 		.4byte	.LFE299
 3994 02a9 0100     		.2byte	0x1
 3995 02ab 55       		.byte	0x55
 3996 02ac 00000000 		.4byte	0
 3997 02b0 00000000 		.4byte	0
 3998              	.LLST21:
 3999 02b4 00000000 		.4byte	.LVL30
 4000 02b8 0F000000 		.4byte	.LVL31-1
 4001 02bc 0100     		.2byte	0x1
 4002 02be 51       		.byte	0x51
 4003 02bf 0F000000 		.4byte	.LVL31-1
 4004 02c3 1A000000 		.4byte	.LVL33
 4005 02c7 0100     		.2byte	0x1
 4006 02c9 54       		.byte	0x54
 4007 02ca 1A000000 		.4byte	.LVL33
 4008 02ce 28000000 		.4byte	.LFE299
 4009 02d2 0400     		.2byte	0x4
 4010 02d4 F3       		.byte	0xf3
 4011 02d5 01       		.uleb128 0x1
 4012 02d6 51       		.byte	0x51
 4013 02d7 9F       		.byte	0x9f
 4014 02d8 00000000 		.4byte	0
 4015 02dc 00000000 		.4byte	0
 4016              	.LLST22:
 4017 02e0 1A000000 		.4byte	.LVL33
 4018 02e4 1D000000 		.4byte	.LVL34-1
 4019 02e8 0100     		.2byte	0x1
 4020 02ea 50       		.byte	0x50
 4021 02eb 1D000000 		.4byte	.LVL34-1
 4022 02ef 28000000 		.4byte	.LFE299
 4023 02f3 0100     		.2byte	0x1
 4024 02f5 54       		.byte	0x54
 4025 02f6 00000000 		.4byte	0
 4026 02fa 00000000 		.4byte	0
 4027              	.LLST23:
 4028 02fe 00000000 		.4byte	.LVL35
 4029 0302 0F000000 		.4byte	.LVL36-1
 4030 0306 0100     		.2byte	0x1
 4031 0308 50       		.byte	0x50
 4032 0309 0F000000 		.4byte	.LVL36-1
 4033 030d 2C000000 		.4byte	.LFE300
 4034 0311 0100     		.2byte	0x1
 4035 0313 54       		.byte	0x54
 4036 0314 00000000 		.4byte	0
 4037 0318 00000000 		.4byte	0
 4038              	.LLST24:
 4039 031c 00000000 		.4byte	.LVL35
 4040 0320 0F000000 		.4byte	.LVL36-1
 4041 0324 0100     		.2byte	0x1
 4042 0326 51       		.byte	0x51
 4043 0327 0F000000 		.4byte	.LVL36-1
 4044 032b 2C000000 		.4byte	.LFE300
 4045 032f 0100     		.2byte	0x1
 4046 0331 55       		.byte	0x55
 4047 0332 00000000 		.4byte	0
ARM GAS  /tmp/ccvDO2JW.s 			page 72


 4048 0336 00000000 		.4byte	0
 4049              	.LLST25:
 4050 033a 00000000 		.4byte	.LVL40
 4051 033e 08000000 		.4byte	.LVL41
 4052 0342 0100     		.2byte	0x1
 4053 0344 50       		.byte	0x50
 4054 0345 08000000 		.4byte	.LVL41
 4055 0349 1C000000 		.4byte	.LFE297
 4056 034d 0100     		.2byte	0x1
 4057 034f 56       		.byte	0x56
 4058 0350 00000000 		.4byte	0
 4059 0354 00000000 		.4byte	0
 4060              	.LLST26:
 4061 0358 00000000 		.4byte	.LVL40
 4062 035c 08000000 		.4byte	.LVL41
 4063 0360 0100     		.2byte	0x1
 4064 0362 51       		.byte	0x51
 4065 0363 08000000 		.4byte	.LVL41
 4066 0367 1C000000 		.4byte	.LFE297
 4067 036b 0100     		.2byte	0x1
 4068 036d 55       		.byte	0x55
 4069 036e 00000000 		.4byte	0
 4070 0372 00000000 		.4byte	0
 4071              	.LLST27:
 4072 0376 00000000 		.4byte	.LVL40
 4073 037a 08000000 		.4byte	.LVL41
 4074 037e 0100     		.2byte	0x1
 4075 0380 52       		.byte	0x52
 4076 0381 08000000 		.4byte	.LVL41
 4077 0385 16000000 		.4byte	.LVL44
 4078 0389 0100     		.2byte	0x1
 4079 038b 54       		.byte	0x54
 4080 038c 16000000 		.4byte	.LVL44
 4081 0390 18000000 		.4byte	.LVL45
 4082 0394 0300     		.2byte	0x3
 4083 0396 74       		.byte	0x74
 4084 0397 01       		.sleb128 1
 4085 0398 9F       		.byte	0x9f
 4086 0399 18000000 		.4byte	.LVL45
 4087 039d 1C000000 		.4byte	.LFE297
 4088 03a1 0100     		.2byte	0x1
 4089 03a3 54       		.byte	0x54
 4090 03a4 00000000 		.4byte	0
 4091 03a8 00000000 		.4byte	0
 4092              	.LLST28:
 4093 03ac 0A000000 		.4byte	.LVL42
 4094 03b0 18000000 		.4byte	.LVL45
 4095 03b4 0100     		.2byte	0x1
 4096 03b6 55       		.byte	0x55
 4097 03b7 00000000 		.4byte	0
 4098 03bb 00000000 		.4byte	0
 4099              	.LLST29:
 4100 03bf 0A000000 		.4byte	.LVL42
 4101 03c3 1A000000 		.4byte	.LVL46
 4102 03c7 0100     		.2byte	0x1
 4103 03c9 56       		.byte	0x56
 4104 03ca 00000000 		.4byte	0
ARM GAS  /tmp/ccvDO2JW.s 			page 73


 4105 03ce 00000000 		.4byte	0
 4106              		.section	.debug_aranges,"",%progbits
 4107 0000 6C000000 		.4byte	0x6c
 4108 0004 0200     		.2byte	0x2
 4109 0006 00000000 		.4byte	.Ldebug_info0
 4110 000a 04       		.byte	0x4
 4111 000b 00       		.byte	0
 4112 000c 0000     		.2byte	0
 4113 000e 0000     		.2byte	0
 4114 0010 00000000 		.4byte	.LFB290
 4115 0014 0E000000 		.4byte	.LFE290-.LFB290
 4116 0018 00000000 		.4byte	.LFB292
 4117 001c 18000000 		.4byte	.LFE292-.LFB292
 4118 0020 00000000 		.4byte	.LFB293
 4119 0024 24000000 		.4byte	.LFE293-.LFB293
 4120 0028 00000000 		.4byte	.LFB294
 4121 002c 08000000 		.4byte	.LFE294-.LFB294
 4122 0030 00000000 		.4byte	.LFB295
 4123 0034 22000000 		.4byte	.LFE295-.LFB295
 4124 0038 00000000 		.4byte	.LFB291
 4125 003c 1C000000 		.4byte	.LFE291-.LFB291
 4126 0040 00000000 		.4byte	.LFB296
 4127 0044 16000000 		.4byte	.LFE296-.LFB296
 4128 0048 00000000 		.4byte	.LFB298
 4129 004c 1A000000 		.4byte	.LFE298-.LFB298
 4130 0050 00000000 		.4byte	.LFB299
 4131 0054 28000000 		.4byte	.LFE299-.LFB299
 4132 0058 00000000 		.4byte	.LFB300
 4133 005c 2C000000 		.4byte	.LFE300-.LFB300
 4134 0060 00000000 		.4byte	.LFB297
 4135 0064 1C000000 		.4byte	.LFE297-.LFB297
 4136 0068 00000000 		.4byte	0
 4137 006c 00000000 		.4byte	0
 4138              		.section	.debug_ranges,"",%progbits
 4139              	.Ldebug_ranges0:
 4140 0000 02000000 		.4byte	.LBB34
 4141 0004 04000000 		.4byte	.LBE34
 4142 0008 06000000 		.4byte	.LBB43
 4143 000c 0E000000 		.4byte	.LBE43
 4144 0010 00000000 		.4byte	0
 4145 0014 00000000 		.4byte	0
 4146 0018 02000000 		.4byte	.LBB36
 4147 001c 04000000 		.4byte	.LBE36
 4148 0020 06000000 		.4byte	.LBB41
 4149 0024 0A000000 		.4byte	.LBE41
 4150 0028 00000000 		.4byte	0
 4151 002c 00000000 		.4byte	0
 4152 0030 02000000 		.4byte	.LBB75
 4153 0034 0A000000 		.4byte	.LBE75
 4154 0038 0C000000 		.4byte	.LBB78
 4155 003c 0E000000 		.4byte	.LBE78
 4156 0040 00000000 		.4byte	0
 4157 0044 00000000 		.4byte	0
 4158 0048 10000000 		.4byte	.LBB120
 4159 004c 14000000 		.4byte	.LBE120
 4160 0050 16000000 		.4byte	.LBB123
 4161 0054 18000000 		.4byte	.LBE123
ARM GAS  /tmp/ccvDO2JW.s 			page 74


 4162 0058 00000000 		.4byte	0
 4163 005c 00000000 		.4byte	0
 4164 0060 00000000 		.4byte	.LFB290
 4165 0064 0E000000 		.4byte	.LFE290
 4166 0068 00000000 		.4byte	.LFB292
 4167 006c 18000000 		.4byte	.LFE292
 4168 0070 00000000 		.4byte	.LFB293
 4169 0074 24000000 		.4byte	.LFE293
 4170 0078 00000000 		.4byte	.LFB294
 4171 007c 08000000 		.4byte	.LFE294
 4172 0080 00000000 		.4byte	.LFB295
 4173 0084 22000000 		.4byte	.LFE295
 4174 0088 00000000 		.4byte	.LFB291
 4175 008c 1C000000 		.4byte	.LFE291
 4176 0090 00000000 		.4byte	.LFB296
 4177 0094 16000000 		.4byte	.LFE296
 4178 0098 00000000 		.4byte	.LFB298
 4179 009c 1A000000 		.4byte	.LFE298
 4180 00a0 00000000 		.4byte	.LFB299
 4181 00a4 28000000 		.4byte	.LFE299
 4182 00a8 00000000 		.4byte	.LFB300
 4183 00ac 2C000000 		.4byte	.LFE300
 4184 00b0 00000000 		.4byte	.LFB297
 4185 00b4 1C000000 		.4byte	.LFE297
 4186 00b8 00000000 		.4byte	0
 4187 00bc 00000000 		.4byte	0
 4188              		.section	.debug_line,"",%progbits
 4189              	.Ldebug_line0:
 4190 0000 28040000 		.section	.debug_str,"MS",%progbits,1
 4190      02008302 
 4190      00000201 
 4190      FB0E0D00 
 4190      01010101 
 4191              	.LASF114:
 4192 0000 67756172 		.ascii	"guarded_memory_pool_t\000"
 4192      6465645F 
 4192      6D656D6F 
 4192      72795F70 
 4192      6F6F6C5F 
 4193              	.LASF53:
 4194 0016 72656164 		.ascii	"ready_list_t\000"
 4194      795F6C69 
 4194      73745F74 
 4194      00
 4195              	.LASF143:
 4196 0023 63685365 		.ascii	"chSemSignalI\000"
 4196      6D536967 
 4196      6E616C49 
 4196      00
 4197              	.LASF2:
 4198 0030 73697A65 		.ascii	"size_t\000"
 4198      5F7400
 4199              	.LASF59:
 4200 0037 64656C74 		.ascii	"delta\000"
 4200      6100
 4201              	.LASF92:
 4202 003d 7264796D 		.ascii	"rdymsg\000"
ARM GAS  /tmp/ccvDO2JW.s 			page 75


 4202      736700
 4203              	.LASF17:
 4204 0044 75696E74 		.ascii	"uint64_t\000"
 4204      36345F74 
 4204      00
 4205              	.LASF72:
 4206 004d 6B65726E 		.ascii	"kernel_stats\000"
 4206      656C5F73 
 4206      74617473 
 4206      00
 4207              	.LASF3:
 4208 005a 5F5F7569 		.ascii	"__uint8_t\000"
 4208      6E74385F 
 4208      7400
 4209              	.LASF52:
 4210 0064 70726576 		.ascii	"prev\000"
 4210      00
 4211              	.LASF79:
 4212 0069 706F7274 		.ascii	"port_intctx\000"
 4212      5F696E74 
 4212      63747800 
 4213              	.LASF51:
 4214 0075 63685F74 		.ascii	"ch_threads_queue\000"
 4214      68726561 
 4214      64735F71 
 4214      75657565 
 4214      00
 4215              	.LASF64:
 4216 0086 73797374 		.ascii	"system_debug_t\000"
 4216      656D5F64 
 4216      65627567 
 4216      5F7400
 4217              	.LASF111:
 4218 0095 70726F76 		.ascii	"provider\000"
 4218      69646572 
 4218      00
 4219              	.LASF146:
 4220 009e 2E2E2F2E 		.ascii	"../../modules/ChibiOS/os/oslib/src/chmempools.c\000"
 4220      2E2F6D6F 
 4220      64756C65 
 4220      732F4368 
 4220      6962694F 
 4221              	.LASF83:
 4222 00ce 776F7273 		.ascii	"worst\000"
 4222      7400
 4223              	.LASF86:
 4224 00d4 74696D65 		.ascii	"time_measurement_t\000"
 4224      5F6D6561 
 4224      73757265 
 4224      6D656E74 
 4224      5F7400
 4225              	.LASF13:
 4226 00e7 6C6F6E67 		.ascii	"long long unsigned int\000"
 4226      206C6F6E 
 4226      6720756E 
 4226      7369676E 
 4226      65642069 
ARM GAS  /tmp/ccvDO2JW.s 			page 76


 4227              	.LASF136:
 4228 00fe 63684775 		.ascii	"chGuardedPoolFreeI\000"
 4228      61726465 
 4228      64506F6F 
 4228      6C467265 
 4228      654900
 4229              	.LASF93:
 4230 0111 65786974 		.ascii	"exitcode\000"
 4230      636F6465 
 4230      00
 4231              	.LASF71:
 4232 011a 6D61696E 		.ascii	"mainthread\000"
 4232      74687265 
 4232      616400
 4233              	.LASF96:
 4234 0125 73656E74 		.ascii	"sentmsg\000"
 4234      6D736700 
 4235              	.LASF61:
 4236 012d 76697274 		.ascii	"virtual_timers_list_t\000"
 4236      75616C5F 
 4236      74696D65 
 4236      72735F6C 
 4236      6973745F 
 4237              	.LASF139:
 4238 0143 49544D5F 		.ascii	"ITM_RxBuffer\000"
 4238      52784275 
 4238      66666572 
 4238      00
 4239              	.LASF49:
 4240 0150 6E657874 		.ascii	"next\000"
 4240      00
 4241              	.LASF19:
 4242 0155 72747469 		.ascii	"rttime_t\000"
 4242      6D655F74 
 4242      00
 4243              	.LASF11:
 4244 015e 6C6F6E67 		.ascii	"long long int\000"
 4244      206C6F6E 
 4244      6720696E 
 4244      7400
 4245              	.LASF1:
 4246 016c 7369676E 		.ascii	"signed char\000"
 4246      65642063 
 4246      68617200 
 4247              	.LASF124:
 4248 0178 73697A65 		.ascii	"size\000"
 4248      00
 4249              	.LASF117:
 4250 017d 62617365 		.ascii	"basePri\000"
 4250      50726900 
 4251              	.LASF70:
 4252 0185 76746C69 		.ascii	"vtlist\000"
 4252      737400
 4253              	.LASF116:
 4254 018c 706F7274 		.ascii	"port_unlock\000"
 4254      5F756E6C 
 4254      6F636B00 
ARM GAS  /tmp/ccvDO2JW.s 			page 77


 4255              	.LASF39:
 4256 0198 6D736771 		.ascii	"msgqueue\000"
 4256      75657565 
 4256      00
 4257              	.LASF35:
 4258 01a1 73746174 		.ascii	"state\000"
 4258      6500
 4259              	.LASF8:
 4260 01a7 6C6F6E67 		.ascii	"long int\000"
 4260      20696E74 
 4260      00
 4261              	.LASF21:
 4262 01b0 74737461 		.ascii	"tstate_t\000"
 4262      74655F74 
 4262      00
 4263              	.LASF60:
 4264 01b9 66756E63 		.ascii	"func\000"
 4264      00
 4265              	.LASF44:
 4266 01be 73746174 		.ascii	"stats\000"
 4266      7300
 4267              	.LASF123:
 4268 01c4 6368506F 		.ascii	"chPoolObjectInitAligned\000"
 4268      6F6C4F62 
 4268      6A656374 
 4268      496E6974 
 4268      416C6967 
 4269              	.LASF144:
 4270 01dc 63685363 		.ascii	"chSchRescheduleS\000"
 4270      68526573 
 4270      63686564 
 4270      756C6553 
 4270      00
 4271              	.LASF9:
 4272 01ed 5F5F7569 		.ascii	"__uint32_t\000"
 4272      6E743332 
 4272      5F7400
 4273              	.LASF76:
 4274 01f8 72656761 		.ascii	"regarm_t\000"
 4274      726D5F74 
 4274      00
 4275              	.LASF122:
 4276 0201 6368506F 		.ascii	"chPoolFreeI\000"
 4276      6F6C4672 
 4276      65654900 
 4277              	.LASF65:
 4278 020d 63685F73 		.ascii	"ch_system_debug\000"
 4278      79737465 
 4278      6D5F6465 
 4278      62756700 
 4279              	.LASF38:
 4280 021d 77616974 		.ascii	"waiting\000"
 4280      696E6700 
 4281              	.LASF135:
 4282 0225 63684775 		.ascii	"chGuardedPoolAllocTimeout\000"
 4282      61726465 
 4282      64506F6F 
ARM GAS  /tmp/ccvDO2JW.s 			page 78


 4282      6C416C6C 
 4282      6F635469 
 4283              	.LASF105:
 4284 023f 6D757465 		.ascii	"mutex_t\000"
 4284      785F7400 
 4285              	.LASF110:
 4286 0247 616C6967 		.ascii	"align\000"
 4286      6E00
 4287              	.LASF74:
 4288 024d 73797369 		.ascii	"sysinterval_t\000"
 4288      6E746572 
 4288      76616C5F 
 4288      7400
 4289              	.LASF142:
 4290 025b 63685365 		.ascii	"chSemObjectInit\000"
 4290      6D4F626A 
 4290      65637449 
 4290      6E697400 
 4291              	.LASF26:
 4292 026b 636E745F 		.ascii	"cnt_t\000"
 4292      7400
 4293              	.LASF0:
 4294 0271 756E7369 		.ascii	"unsigned int\000"
 4294      676E6564 
 4294      20696E74 
 4294      00
 4295              	.LASF145:
 4296 027e 474E5520 		.ascii	"GNU C 4.9.3 20150529 (prerelease) -mcpu=cortex-m4 -"
 4296      4320342E 
 4296      392E3320 
 4296      32303135 
 4296      30353239 
 4297 02b1 6D666C6F 		.ascii	"mfloat-abi=hard -mfpu=fpv4-sp-d16 -mno-thumb-interw"
 4297      61742D61 
 4297      62693D68 
 4297      61726420 
 4297      2D6D6670 
 4298 02e4 6F726B20 		.ascii	"ork -mthumb -g -Os -fomit-frame-pointer -falign-fun"
 4298      2D6D7468 
 4298      756D6220 
 4298      2D67202D 
 4298      4F73202D 
 4299 0317 6374696F 		.ascii	"ctions=16 -ffunction-sections -fdata-sections -fno-"
 4299      6E733D31 
 4299      36202D66 
 4299      66756E63 
 4299      74696F6E 
 4300 034a 636F6D6D 		.ascii	"common -fsingle-precision-constant\000"
 4300      6F6E202D 
 4300      6673696E 
 4300      676C652D 
 4300      70726563 
 4301              	.LASF97:
 4302 036d 77747365 		.ascii	"wtsemp\000"
 4302      6D7000
 4303              	.LASF95:
 4304 0374 77747472 		.ascii	"wttrp\000"
ARM GAS  /tmp/ccvDO2JW.s 			page 79


 4304      7000
 4305              	.LASF134:
 4306 037a 74696D65 		.ascii	"timeout\000"
 4306      6F757400 
 4307              	.LASF112:
 4308 0382 6D656D6F 		.ascii	"memory_pool_t\000"
 4308      72795F70 
 4308      6F6F6C5F 
 4308      7400
 4309              	.LASF87:
 4310 0390 6E5F6972 		.ascii	"n_irq\000"
 4310      7100
 4311              	.LASF29:
 4312 0396 71756575 		.ascii	"queue\000"
 4312      6500
 4313              	.LASF43:
 4314 039c 6D706F6F 		.ascii	"mpool\000"
 4314      6C00
 4315              	.LASF6:
 4316 03a2 73686F72 		.ascii	"short unsigned int\000"
 4316      7420756E 
 4316      7369676E 
 4316      65642069 
 4316      6E7400
 4317              	.LASF91:
 4318 03b5 6B65726E 		.ascii	"kernel_stats_t\000"
 4318      656C5F73 
 4318      74617473 
 4318      5F7400
 4319              	.LASF33:
 4320 03c4 6E616D65 		.ascii	"name\000"
 4320      00
 4321              	.LASF47:
 4322 03c9 63685F74 		.ascii	"ch_thread\000"
 4322      68726561 
 4322      6400
 4323              	.LASF24:
 4324 03d3 6D73675F 		.ascii	"msg_t\000"
 4324      7400
 4325              	.LASF137:
 4326 03d9 63684775 		.ascii	"chGuardedPoolFree\000"
 4326      61726465 
 4326      64506F6F 
 4326      6C467265 
 4326      6500
 4327              	.LASF27:
 4328 03eb 75636E74 		.ascii	"ucnt_t\000"
 4328      5F7400
 4329              	.LASF40:
 4330 03f2 6570656E 		.ascii	"epending\000"
 4330      64696E67 
 4330      00
 4331              	.LASF67:
 4332 03fb 63685F73 		.ascii	"ch_system_t\000"
 4332      79737465 
 4332      6D5F7400 
 4333              	.LASF121:
ARM GAS  /tmp/ccvDO2JW.s 			page 80


 4334 0407 6368506F 		.ascii	"chPoolAdd\000"
 4334      6F6C4164 
 4334      6400
 4335              	.LASF20:
 4336 0411 746D6F64 		.ascii	"tmode_t\000"
 4336      655F7400 
 4337              	.LASF90:
 4338 0419 6D5F6372 		.ascii	"m_crit_isr\000"
 4338      69745F69 
 4338      737200
 4339              	.LASF54:
 4340 0424 63685F72 		.ascii	"ch_ready_list\000"
 4340      65616479 
 4340      5F6C6973 
 4340      7400
 4341              	.LASF25:
 4342 0432 6576656E 		.ascii	"eventmask_t\000"
 4342      746D6173 
 4342      6B5F7400 
 4343              	.LASF7:
 4344 043e 5F5F696E 		.ascii	"__int32_t\000"
 4344      7433325F 
 4344      7400
 4345              	.LASF77:
 4346 0448 73746B61 		.ascii	"stkalign_t\000"
 4346      6C69676E 
 4346      5F7400
 4347              	.LASF31:
 4348 0453 6E657765 		.ascii	"newer\000"
 4348      7200
 4349              	.LASF42:
 4350 0459 7265616C 		.ascii	"realprio\000"
 4350      7072696F 
 4350      00
 4351              	.LASF141:
 4352 0462 5F737461 		.ascii	"_stats_stop_measure_crit_thd\000"
 4352      74735F73 
 4352      746F705F 
 4352      6D656173 
 4352      7572655F 
 4353              	.LASF75:
 4354 047f 73697A65 		.ascii	"sizetype\000"
 4354      74797065 
 4354      00
 4355              	.LASF45:
 4356 0488 74687265 		.ascii	"thread_reference_t\000"
 4356      61645F72 
 4356      65666572 
 4356      656E6365 
 4356      5F7400
 4357              	.LASF62:
 4358 049b 63685F76 		.ascii	"ch_virtual_timers_list\000"
 4358      69727475 
 4358      616C5F74 
 4358      696D6572 
 4358      735F6C69 
 4359              	.LASF128:
ARM GAS  /tmp/ccvDO2JW.s 			page 81


 4360 04b2 6368506F 		.ascii	"chPoolAllocI\000"
 4360      6F6C416C 
 4360      6C6F6349 
 4360      00
 4361              	.LASF78:
 4362 04bf 706F7274 		.ascii	"port_context\000"
 4362      5F636F6E 
 4362      74657874 
 4362      00
 4363              	.LASF81:
 4364 04cc 746D5F63 		.ascii	"tm_calibration_t\000"
 4364      616C6962 
 4364      72617469 
 4364      6F6E5F74 
 4364      00
 4365              	.LASF133:
 4366 04dd 63684775 		.ascii	"chGuardedPoolAllocTimeoutS\000"
 4366      61726465 
 4366      64506F6F 
 4366      6C416C6C 
 4366      6F635469 
 4367              	.LASF30:
 4368 04f8 7072696F 		.ascii	"prio\000"
 4368      00
 4369              	.LASF55:
 4370 04fd 63757272 		.ascii	"current\000"
 4370      656E7400 
 4371              	.LASF84:
 4372 0505 6C617374 		.ascii	"last\000"
 4372      00
 4373              	.LASF12:
 4374 050a 5F5F7569 		.ascii	"__uint64_t\000"
 4374      6E743634 
 4374      5F7400
 4375              	.LASF85:
 4376 0515 63756D75 		.ascii	"cumulative\000"
 4376      6C617469 
 4376      766500
 4377              	.LASF131:
 4378 0520 63684775 		.ascii	"chGuardedPoolObjectInitAligned\000"
 4378      61726465 
 4378      64506F6F 
 4378      6C4F626A 
 4378      65637449 
 4379              	.LASF22:
 4380 053f 74726566 		.ascii	"trefs_t\000"
 4380      735F7400 
 4381              	.LASF37:
 4382 0547 72656673 		.ascii	"refs\000"
 4382      00
 4383              	.LASF57:
 4384 054c 76697274 		.ascii	"virtual_timer_t\000"
 4384      75616C5F 
 4384      74696D65 
 4384      725F7400 
 4385              	.LASF23:
 4386 055c 74707269 		.ascii	"tprio_t\000"
ARM GAS  /tmp/ccvDO2JW.s 			page 82


 4386      6F5F7400 
 4387              	.LASF88:
 4388 0564 6E5F6374 		.ascii	"n_ctxswc\000"
 4388      78737763 
 4388      00
 4389              	.LASF106:
 4390 056d 5F426F6F 		.ascii	"_Bool\000"
 4390      6C00
 4391              	.LASF15:
 4392 0573 696E7433 		.ascii	"int32_t\000"
 4392      325F7400 
 4393              	.LASF4:
 4394 057b 756E7369 		.ascii	"unsigned char\000"
 4394      676E6564 
 4394      20636861 
 4394      7200
 4395              	.LASF5:
 4396 0589 73686F72 		.ascii	"short int\000"
 4396      7420696E 
 4396      7400
 4397              	.LASF63:
 4398 0593 6C617374 		.ascii	"lasttime\000"
 4398      74696D65 
 4398      00
 4399              	.LASF99:
 4400 059c 65776D61 		.ascii	"ewmask\000"
 4400      736B00
 4401              	.LASF68:
 4402 05a3 63685F73 		.ascii	"ch_system\000"
 4402      79737465 
 4402      6D00
 4403              	.LASF119:
 4404 05ad 5F5F6675 		.ascii	"__func__\000"
 4404      6E635F5F 
 4404      00
 4405              	.LASF126:
 4406 05b6 63685379 		.ascii	"chSysLock\000"
 4406      734C6F63 
 4406      6B00
 4407              	.LASF118:
 4408 05c0 6F626A70 		.ascii	"objp\000"
 4408      00
 4409              	.LASF104:
 4410 05c5 73656D61 		.ascii	"semaphore_t\000"
 4410      70686F72 
 4410      655F7400 
 4411              	.LASF58:
 4412 05d1 63685F76 		.ascii	"ch_virtual_timer\000"
 4412      69727475 
 4412      616C5F74 
 4412      696D6572 
 4412      00
 4413              	.LASF100:
 4414 05e2 63685F73 		.ascii	"ch_semaphore\000"
 4414      656D6170 
 4414      686F7265 
 4414      00
ARM GAS  /tmp/ccvDO2JW.s 			page 83


 4415              	.LASF16:
 4416 05ef 75696E74 		.ascii	"uint32_t\000"
 4416      33325F74 
 4416      00
 4417              	.LASF98:
 4418 05f8 77746D74 		.ascii	"wtmtxp\000"
 4418      787000
 4419              	.LASF48:
 4420 05ff 63685F74 		.ascii	"ch_threads_list\000"
 4420      68726561 
 4420      64735F6C 
 4420      69737400 
 4421              	.LASF102:
 4422 060f 6F776E65 		.ascii	"owner\000"
 4422      7200
 4423              	.LASF10:
 4424 0615 6C6F6E67 		.ascii	"long unsigned int\000"
 4424      20756E73 
 4424      69676E65 
 4424      6420696E 
 4424      7400
 4425              	.LASF34:
 4426 0627 77616261 		.ascii	"wabase\000"
 4426      736500
 4427              	.LASF103:
 4428 062e 63686172 		.ascii	"char\000"
 4428      00
 4429              	.LASF32:
 4430 0633 6F6C6465 		.ascii	"older\000"
 4430      7200
 4431              	.LASF148:
 4432 0639 63685365 		.ascii	"chSemWaitTimeoutS\000"
 4432      6D576169 
 4432      7454696D 
 4432      656F7574 
 4432      5300
 4433              	.LASF28:
 4434 064b 74687265 		.ascii	"thread_t\000"
 4434      61645F74 
 4434      00
 4435              	.LASF82:
 4436 0654 62657374 		.ascii	"best\000"
 4436      00
 4437              	.LASF73:
 4438 0659 73797374 		.ascii	"systime_t\000"
 4438      696D655F 
 4438      7400
 4439              	.LASF56:
 4440 0663 76746675 		.ascii	"vtfunc_t\000"
 4440      6E635F74 
 4440      00
 4441              	.LASF120:
 4442 066c 5F5F7365 		.ascii	"__set_BASEPRI\000"
 4442      745F4241 
 4442      53455052 
 4442      4900
 4443              	.LASF66:
ARM GAS  /tmp/ccvDO2JW.s 			page 84


 4444 067a 70616E69 		.ascii	"panic_msg\000"
 4444      635F6D73 
 4444      6700
 4445              	.LASF80:
 4446 0684 6F666673 		.ascii	"offset\000"
 4446      657400
 4447              	.LASF138:
 4448 068b 63684775 		.ascii	"chGuardedPoolLoadArray\000"
 4448      61726465 
 4448      64506F6F 
 4448      6C4C6F61 
 4448      64417272 
 4449              	.LASF101:
 4450 06a2 63685F6D 		.ascii	"ch_mutex\000"
 4450      75746578 
 4450      00
 4451              	.LASF147:
 4452 06ab 2F686F6D 		.ascii	"/home/kozinalexey/f4by/ardupilot/build/F4BY\000"
 4452      652F6B6F 
 4452      7A696E61 
 4452      6C657865 
 4452      792F6634 
 4453              	.LASF18:
 4454 06d7 7274636E 		.ascii	"rtcnt_t\000"
 4454      745F7400 
 4455              	.LASF107:
 4456 06df 6D656D67 		.ascii	"memgetfunc_t\000"
 4456      65746675 
 4456      6E635F74 
 4456      00
 4457              	.LASF125:
 4458 06ec 63684775 		.ascii	"chGuardedPoolAdd\000"
 4458      61726465 
 4458      64506F6F 
 4458      6C416464 
 4458      00
 4459              	.LASF109:
 4460 06fd 6F626A65 		.ascii	"object_size\000"
 4460      63745F73 
 4460      697A6500 
 4461              	.LASF50:
 4462 0709 74687265 		.ascii	"threads_queue_t\000"
 4462      6164735F 
 4462      71756575 
 4462      655F7400 
 4463              	.LASF108:
 4464 0719 706F6F6C 		.ascii	"pool_header\000"
 4464      5F686561 
 4464      64657200 
 4465              	.LASF69:
 4466 0725 726C6973 		.ascii	"rlist\000"
 4466      7400
 4467              	.LASF113:
 4468 072b 706F6F6C 		.ascii	"pool\000"
 4468      00
 4469              	.LASF14:
 4470 0730 75696E74 		.ascii	"uint8_t\000"
ARM GAS  /tmp/ccvDO2JW.s 			page 85


 4470      385F7400 
 4471              	.LASF132:
 4472 0738 6368506F 		.ascii	"chPoolAlloc\000"
 4472      6F6C416C 
 4472      6C6F6300 
 4473              	.LASF129:
 4474 0744 6368506F 		.ascii	"chPoolFree\000"
 4474      6F6C4672 
 4474      656500
 4475              	.LASF36:
 4476 074f 666C6167 		.ascii	"flags\000"
 4476      7300
 4477              	.LASF140:
 4478 0755 5F737461 		.ascii	"_stats_start_measure_crit_thd\000"
 4478      74735F73 
 4478      74617274 
 4478      5F6D6561 
 4478      73757265 
 4479              	.LASF94:
 4480 0773 77746F62 		.ascii	"wtobjp\000"
 4480      6A7000
 4481              	.LASF46:
 4482 077a 74687265 		.ascii	"threads_list_t\000"
 4482      6164735F 
 4482      6C697374 
 4482      5F7400
 4483              	.LASF127:
 4484 0789 63685379 		.ascii	"chSysUnlock\000"
 4484      73556E6C 
 4484      6F636B00 
 4485              	.LASF130:
 4486 0795 6368506F 		.ascii	"chPoolLoadArray\000"
 4486      6F6C4C6F 
 4486      61644172 
 4486      72617900 
 4487              	.LASF115:
 4488 07a5 706F7274 		.ascii	"port_lock\000"
 4488      5F6C6F63 
 4488      6B00
 4489              	.LASF41:
 4490 07af 6D74786C 		.ascii	"mtxlist\000"
 4490      69737400 
 4491              	.LASF89:
 4492 07b7 6D5F6372 		.ascii	"m_crit_thd\000"
 4492      69745F74 
 4492      686400
 4493              		.ident	"GCC: (15:4.9.3+svn231177-1) 4.9.3 20150529 (prerelease)"
ARM GAS  /tmp/ccvDO2JW.s 			page 86


DEFINED SYMBOLS
                            *ABS*:0000000000000000 chmempools.c
     /tmp/ccvDO2JW.s:21     .text.chPoolObjectInitAligned:0000000000000000 $t
     /tmp/ccvDO2JW.s:26     .text.chPoolObjectInitAligned:0000000000000000 chPoolObjectInitAligned
     /tmp/ccvDO2JW.s:52     .text.chPoolAllocI:0000000000000000 $t
     /tmp/ccvDO2JW.s:57     .text.chPoolAllocI:0000000000000000 chPoolAllocI
     /tmp/ccvDO2JW.s:93     .text.chPoolAlloc:0000000000000000 $t
     /tmp/ccvDO2JW.s:98     .text.chPoolAlloc:0000000000000000 chPoolAlloc
     /tmp/ccvDO2JW.s:175    .text.chPoolFreeI:0000000000000000 $t
     /tmp/ccvDO2JW.s:180    .text.chPoolFreeI:0000000000000000 chPoolFreeI
     /tmp/ccvDO2JW.s:198    .text.chPoolFree:0000000000000000 $t
     /tmp/ccvDO2JW.s:203    .text.chPoolFree:0000000000000000 chPoolFree
     /tmp/ccvDO2JW.s:271    .text.chPoolLoadArray:0000000000000000 $t
     /tmp/ccvDO2JW.s:276    .text.chPoolLoadArray:0000000000000000 chPoolLoadArray
     /tmp/ccvDO2JW.s:324    .text.chGuardedPoolObjectInitAligned:0000000000000000 $t
     /tmp/ccvDO2JW.s:329    .text.chGuardedPoolObjectInitAligned:0000000000000000 chGuardedPoolObjectInitAligned
     /tmp/ccvDO2JW.s:372    .text.chGuardedPoolAllocTimeoutS:0000000000000000 $t
     /tmp/ccvDO2JW.s:377    .text.chGuardedPoolAllocTimeoutS:0000000000000000 chGuardedPoolAllocTimeoutS
     /tmp/ccvDO2JW.s:418    .text.chGuardedPoolAllocTimeout:0000000000000000 $t
     /tmp/ccvDO2JW.s:423    .text.chGuardedPoolAllocTimeout:0000000000000000 chGuardedPoolAllocTimeout
     /tmp/ccvDO2JW.s:491    .text.chGuardedPoolFree:0000000000000000 $t
     /tmp/ccvDO2JW.s:496    .text.chGuardedPoolFree:0000000000000000 chGuardedPoolFree
     /tmp/ccvDO2JW.s:580    .text.chGuardedPoolLoadArray:0000000000000000 $t
     /tmp/ccvDO2JW.s:585    .text.chGuardedPoolLoadArray:0000000000000000 chGuardedPoolLoadArray
                     .debug_frame:0000000000000010 $d

UNDEFINED SYMBOLS
_stats_start_measure_crit_thd
_stats_stop_measure_crit_thd
chSemObjectInit
chSemWaitTimeoutS
chSemSignalI
chSchRescheduleS
