ARM GAS  /tmp/ccLagA5Q.s 			page 1


   1              		.syntax unified
   2              		.cpu cortex-m4
   3              		.eabi_attribute 27, 1
   4              		.eabi_attribute 28, 1
   5              		.fpu fpv4-sp-d16
   6              		.eabi_attribute 20, 1
   7              		.eabi_attribute 21, 1
   8              		.eabi_attribute 23, 3
   9              		.eabi_attribute 24, 1
  10              		.eabi_attribute 25, 1
  11              		.eabi_attribute 26, 1
  12              		.eabi_attribute 30, 4
  13              		.eabi_attribute 34, 1
  14              		.eabi_attribute 18, 4
  15              		.thumb
  16              		.file	"chmemheaps.c"
  17              		.text
  18              	.Ltext0:
  19              		.cfi_sections	.debug_frame
  20              		.section	.text._heap_init,"ax",%progbits
  21              		.align	1
  22              		.global	_heap_init
  23              		.thumb
  24              		.thumb_func
  25              		.type	_heap_init, %function
  26              	_heap_init:
  27              	.LFB290:
  28              		.file 1 "../../modules/ChibiOS/os/oslib/src/chmemheaps.c"
  29              		.loc 1 107 0
  30              		.cfi_startproc
  31              		@ args = 0, pretend = 0, frame = 0
  32              		@ frame_needed = 0, uses_anonymous_args = 0
  33              		@ link register save eliminated.
  34              		.loc 1 109 0
  35 0000 0448     		ldr	r0, .L2
  36 0002 054B     		ldr	r3, .L2+4
  37 0004 0360     		str	r3, [r0]
  38              		.loc 1 110 0
  39 0006 0023     		movs	r3, #0
  40 0008 4360     		str	r3, [r0, #4]
  41              		.loc 1 111 0
  42 000a 8360     		str	r3, [r0, #8]
  43              		.loc 1 113 0
  44 000c 0C30     		adds	r0, r0, #12
  45 000e FFF7FEBF 		b	chMtxObjectInit
  46              	.LVL0:
  47              	.L3:
  48 0012 00BF     		.align	2
  49              	.L2:
  50 0014 00000000 		.word	.LANCHOR0
  51 0018 00000000 		.word	chCoreAllocAlignedWithOffset
  52              		.cfi_endproc
  53              	.LFE290:
  54              		.size	_heap_init, .-_heap_init
  55              		.section	.text.chHeapObjectInit,"ax",%progbits
  56              		.align	1
  57              		.global	chHeapObjectInit
ARM GAS  /tmp/ccLagA5Q.s 			page 2


  58              		.thumb
  59              		.thumb_func
  60              		.type	chHeapObjectInit, %function
  61              	chHeapObjectInit:
  62              	.LFB291:
  63              		.loc 1 131 0
  64              		.cfi_startproc
  65              		@ args = 0, pretend = 0, frame = 0
  66              		@ frame_needed = 0, uses_anonymous_args = 0
  67              	.LVL1:
  68              		.loc 1 132 0
  69 0000 CB1D     		adds	r3, r1, #7
  70              		.loc 1 131 0
  71 0002 10B5     		push	{r4, lr}
  72              		.cfi_def_cfa_offset 8
  73              		.cfi_offset 4, -8
  74              		.cfi_offset 14, -4
  75              		.loc 1 132 0
  76 0004 23F00703 		bic	r3, r3, #7
  77              	.LVL2:
  78 0008 083A     		subs	r2, r2, #8
  79              	.LVL3:
  80              		.loc 1 139 0
  81 000a C91A     		subs	r1, r1, r3
  82              	.LVL4:
  83              		.loc 1 147 0
  84 000c 1144     		add	r1, r1, r2
  85              		.loc 1 143 0
  86 000e 0024     		movs	r4, #0
  87              		.loc 1 147 0
  88 0010 C908     		lsrs	r1, r1, #3
  89              		.loc 1 143 0
  90 0012 0460     		str	r4, [r0]
  91              		.loc 1 144 0
  92 0014 4360     		str	r3, [r0, #4]
  93              		.loc 1 145 0
  94 0016 8460     		str	r4, [r0, #8]
  95              		.loc 1 146 0
  96 0018 1C60     		str	r4, [r3]
  97              		.loc 1 147 0
  98 001a 5960     		str	r1, [r3, #4]
  99              		.loc 1 149 0
 100 001c 0C30     		adds	r0, r0, #12
 101              	.LVL5:
 102              		.loc 1 153 0
 103 001e BDE81040 		pop	{r4, lr}
 104              		.cfi_restore 14
 105              		.cfi_restore 4
 106              		.cfi_def_cfa_offset 0
 107              		.loc 1 149 0
 108 0022 FFF7FEBF 		b	chMtxObjectInit
 109              	.LVL6:
 110              		.cfi_endproc
 111              	.LFE291:
 112              		.size	chHeapObjectInit, .-chHeapObjectInit
 113              		.section	.text.chHeapAllocAligned,"ax",%progbits
 114              		.align	1
ARM GAS  /tmp/ccLagA5Q.s 			page 3


 115              		.global	chHeapAllocAligned
 116              		.thumb
 117              		.thumb_func
 118              		.type	chHeapAllocAligned, %function
 119              	chHeapAllocAligned:
 120              	.LFB292:
 121              		.loc 1 172 0
 122              		.cfi_startproc
 123              		@ args = 0, pretend = 0, frame = 0
 124              		@ frame_needed = 0, uses_anonymous_args = 0
 125              	.LVL7:
 126 0000 2DE9F047 		push	{r4, r5, r6, r7, r8, r9, r10, lr}
 127              		.cfi_def_cfa_offset 32
 128              		.cfi_offset 4, -32
 129              		.cfi_offset 5, -28
 130              		.cfi_offset 6, -24
 131              		.cfi_offset 7, -20
 132              		.cfi_offset 8, -16
 133              		.cfi_offset 9, -12
 134              		.cfi_offset 10, -8
 135              		.cfi_offset 14, -4
 136              		.loc 1 180 0
 137 0004 354E     		ldr	r6, .L21
 138 0006 0028     		cmp	r0, #0
 139 0008 18BF     		it	ne
 140 000a 0646     		movne	r6, r0
 141              	.LVL8:
 142              		.loc 1 192 0
 143 000c 06F10C08 		add	r8, r6, #12
 144              		.loc 1 189 0
 145 0010 CD1D     		adds	r5, r1, #7
 146              		.loc 1 192 0
 147 0012 4046     		mov	r0, r8
 148              		.loc 1 172 0
 149 0014 0F46     		mov	r7, r1
 150              		.loc 1 185 0
 151 0016 072A     		cmp	r2, #7
 152 0018 8CBF     		ite	hi
 153 001a 9146     		movhi	r9, r2
 154 001c 4FF00809 		movls	r9, #8
 155              	.LVL9:
 156              		.loc 1 189 0
 157 0020 ED08     		lsrs	r5, r5, #3
 158              	.LVL10:
 159              		.loc 1 192 0
 160 0022 FFF7FEFF 		bl	chMtxLock
 161              	.LVL11:
 162              		.loc 1 195 0
 163 0026 06F1040E 		add	lr, r6, #4
 164              	.LVL12:
 165              	.L8:
 166              		.loc 1 196 0
 167 002a DEF80010 		ldr	r1, [lr]
 168 002e 0029     		cmp	r1, #0
 169 0030 44D0     		beq	.L20
 170              	.LVL13:
 171 0032 C81D     		adds	r0, r1, #7
ARM GAS  /tmp/ccLagA5Q.s 			page 4


 172              		.loc 1 204 0
 173 0034 D1F804A0 		ldr	r10, [r1, #4]
 174              		.loc 1 202 0
 175 0038 4844     		add	r0, r0, r9
 176 003a C9F10003 		rsb	r3, r9, #0
 177 003e 0340     		ands	r3, r3, r0
 178              		.loc 1 204 0
 179 0040 0AF10100 		add	r0, r10, #1
 180 0044 C000     		lsls	r0, r0, #3
 181              		.loc 1 202 0
 182 0046 083B     		subs	r3, r3, #8
 183              	.LVL14:
 184              		.loc 1 204 0
 185 0048 0C18     		adds	r4, r1, r0
 186 004a A342     		cmp	r3, r4
 187              		.loc 1 202 0
 188 004c 01F10802 		add	r2, r1, #8
 189              		.loc 1 204 0
 190 0050 32D2     		bcs	.L9
 191              		.loc 1 204 0 is_stmt 0 discriminator 1
 192 0052 0838     		subs	r0, r0, #8
 193 0054 C3EB010C 		rsb	ip, r3, r1
 194 0058 8444     		add	ip, ip, r0
 195 005a 4FEAEC0C 		asr	ip, ip, #3
 196 005e 6545     		cmp	r5, ip
 197 0060 2AD8     		bhi	.L9
 198              		.loc 1 208 0 is_stmt 1
 199 0062 8B42     		cmp	r3, r1
 200 0064 0C46     		mov	r4, r1
 201 0066 10D9     		bls	.L10
 202              	.LVL15:
 203              	.LBB2:
 204              		.loc 1 213 0
 205 0068 9A1A     		subs	r2, r3, r2
 206 006a D210     		asrs	r2, r2, #3
 207              		.loc 1 214 0
 208 006c AC45     		cmp	ip, r5
 209              		.loc 1 213 0
 210 006e 4A60     		str	r2, [r1, #4]
 211              		.loc 1 214 0
 212 0070 09D9     		bls	.L11
 213              	.LBB3:
 214              		.loc 1 219 0
 215 0072 681C     		adds	r0, r5, #1
 216 0074 03EBC002 		add	r2, r3, r0, lsl #3
 217              	.LVL16:
 218 0078 ED43     		mvns	r5, r5
 219              	.LVL17:
 220              		.loc 1 223 0
 221 007a 0C68     		ldr	r4, [r1]
 222              		.loc 1 220 0
 223 007c 6544     		add	r5, r5, ip
 224              	.LVL18:
 225 007e 5560     		str	r5, [r2, #4]
 226              		.loc 1 223 0
 227 0080 43F83040 		str	r4, [r3, r0, lsl #3]
 228              		.loc 1 224 0
ARM GAS  /tmp/ccLagA5Q.s 			page 5


 229 0084 0A60     		str	r2, [r1]
 230              	.LVL19:
 231              	.L11:
 232              	.LBE3:
 233              	.LBE2:
 234              		.loc 1 202 0
 235 0086 1C46     		mov	r4, r3
 236 0088 0FE0     		b	.L12
 237              	.LVL20:
 238              	.L10:
 239              		.loc 1 232 0
 240 008a AA45     		cmp	r10, r5
 241              	.LBB4:
 242              		.loc 1 240 0
 243 008c 18BF     		it	ne
 244 008e 0135     		addne	r5, r5, #1
 245              	.LVL21:
 246 0090 0B68     		ldr	r3, [r1]
 247              	.LVL22:
 248              		.loc 1 241 0
 249 0092 1FBF     		itttt	ne
 250 0094 41F83530 		strne	r3, [r1, r5, lsl #3]
 251              		.loc 1 242 0
 252 0098 A0EBC500 		subne	r0, r0, r5, lsl #3
 253 009c 01EBC503 		addne	r3, r1, r5, lsl #3
 254 00a0 C010     		asrne	r0, r0, #3
 255 00a2 18BF     		it	ne
 256 00a4 5860     		strne	r0, [r3, #4]
 257              		.loc 1 243 0
 258 00a6 CEF80030 		str	r3, [lr]
 259              	.LVL23:
 260              	.L12:
 261              	.LBE4:
 262              		.loc 1 248 0
 263 00aa 6760     		str	r7, [r4, #4]
 264              		.loc 1 252 0
 265 00ac 4046     		mov	r0, r8
 266              		.loc 1 249 0
 267 00ae 44F8086B 		str	r6, [r4], #8
 268              	.LVL24:
 269              		.loc 1 252 0
 270 00b2 FFF7FEFF 		bl	chMtxUnlock
 271              	.LVL25:
 272              		.loc 1 255 0
 273 00b6 0EE0     		b	.L14
 274              	.LVL26:
 275              	.L9:
 276              		.loc 1 202 0
 277 00b8 8E46     		mov	lr, r1
 278              	.LVL27:
 279 00ba B6E7     		b	.L8
 280              	.LVL28:
 281              	.L20:
 282              		.loc 1 264 0
 283 00bc 4046     		mov	r0, r8
 284 00be FFF7FEFF 		bl	chMtxUnlock
 285              	.LVL29:
ARM GAS  /tmp/ccLagA5Q.s 			page 6


 286              		.loc 1 268 0
 287 00c2 3468     		ldr	r4, [r6]
 288 00c4 3CB1     		cbz	r4, .L14
 289              		.loc 1 269 0
 290 00c6 E800     		lsls	r0, r5, #3
 291 00c8 4946     		mov	r1, r9
 292 00ca 0822     		movs	r2, #8
 293 00cc A047     		blx	r4
 294              	.LVL30:
 295              		.loc 1 272 0
 296 00ce 08B1     		cbz	r0, .L17
 297              	.LVL31:
 298              		.loc 1 275 0
 299 00d0 00E9C000 		stmdb	r0, {r6, r7}
 300              	.LVL32:
 301              	.L17:
 302              		.loc 1 283 0
 303 00d4 0446     		mov	r4, r0
 304              	.LVL33:
 305              	.L14:
 306              		.loc 1 284 0
 307 00d6 2046     		mov	r0, r4
 308 00d8 BDE8F087 		pop	{r4, r5, r6, r7, r8, r9, r10, pc}
 309              	.LVL34:
 310              	.L22:
 311              		.align	2
 312              	.L21:
 313 00dc 00000000 		.word	.LANCHOR0
 314              		.cfi_endproc
 315              	.LFE292:
 316              		.size	chHeapAllocAligned, .-chHeapAllocAligned
 317              		.section	.text.chHeapFree,"ax",%progbits
 318              		.align	1
 319              		.global	chHeapFree
 320              		.thumb
 321              		.thumb_func
 322              		.type	chHeapFree, %function
 323              	chHeapFree:
 324              	.LFB293:
 325              		.loc 1 293 0
 326              		.cfi_startproc
 327              		@ args = 0, pretend = 0, frame = 0
 328              		@ frame_needed = 0, uses_anonymous_args = 0
 329              	.LVL35:
 330 0000 F8B5     		push	{r3, r4, r5, r6, r7, lr}
 331              		.cfi_def_cfa_offset 24
 332              		.cfi_offset 3, -24
 333              		.cfi_offset 4, -20
 334              		.cfi_offset 5, -16
 335              		.cfi_offset 6, -12
 336              		.cfi_offset 7, -8
 337              		.cfi_offset 14, -4
 338              		.loc 1 306 0
 339 0002 50F8043C 		ldr	r3, [r0, #-4]
 340              		.loc 1 302 0
 341 0006 50F8086C 		ldr	r6, [r0, #-8]
 342              		.loc 1 306 0
ARM GAS  /tmp/ccLagA5Q.s 			page 7


 343 000a 0733     		adds	r3, r3, #7
 344              		.loc 1 307 0
 345 000c DB08     		lsrs	r3, r3, #3
 346              		.loc 1 303 0
 347 000e 371D     		adds	r7, r6, #4
 348              		.loc 1 310 0
 349 0010 0C36     		adds	r6, r6, #12
 350              		.loc 1 306 0
 351 0012 40F8043C 		str	r3, [r0, #-4]
 352              		.loc 1 293 0
 353 0016 0446     		mov	r4, r0
 354              		.loc 1 300 0
 355 0018 A0F10805 		sub	r5, r0, #8
 356              	.LVL36:
 357              		.loc 1 310 0
 358 001c 3046     		mov	r0, r6
 359              	.LVL37:
 360 001e FFF7FEFF 		bl	chMtxLock
 361              	.LVL38:
 362              		.loc 1 303 0
 363 0022 3B46     		mov	r3, r7
 364              	.LVL39:
 365              	.L29:
 366              		.loc 1 315 0
 367 0024 BB42     		cmp	r3, r7
 368 0026 1A68     		ldr	r2, [r3]
 369 0028 01D0     		beq	.L24
 370              		.loc 1 315 0 is_stmt 0 discriminator 2
 371 002a 9D42     		cmp	r5, r3
 372 002c 27D9     		bls	.L25
 373              	.L24:
 374              		.loc 1 315 0 discriminator 3
 375 002e 0AB1     		cbz	r2, .L26
 376              		.loc 1 316 0 is_stmt 1
 377 0030 9542     		cmp	r5, r2
 378 0032 24D2     		bcs	.L25
 379              	.L26:
 380              		.loc 1 321 0
 381 0034 54F8040C 		ldr	r0, [r4, #-4]
 382              		.loc 1 318 0
 383 0038 44F8082C 		str	r2, [r4, #-8]
 384              		.loc 1 319 0
 385 003c 1D60     		str	r5, [r3]
 386              		.loc 1 321 0
 387 003e 411C     		adds	r1, r0, #1
 388 0040 54F8087C 		ldr	r7, [r4, #-8]
 389 0044 05EBC102 		add	r2, r5, r1, lsl #3
 390 0048 BA42     		cmp	r2, r7
 391              		.loc 1 323 0
 392 004a 01BF     		itttt	eq
 393 004c 5268     		ldreq	r2, [r2, #4]
 394 004e 1218     		addeq	r2, r2, r0
 395 0050 0132     		addeq	r2, r2, #1
 396 0052 44F8042C 		streq	r2, [r4, #-4]
 397              		.loc 1 326 0
 398 0056 5868     		ldr	r0, [r3, #4]
 399              		.loc 1 324 0
ARM GAS  /tmp/ccLagA5Q.s 			page 8


 400 0058 04BF     		itt	eq
 401 005a 55F83120 		ldreq	r2, [r5, r1, lsl #3]
 402 005e 44F8082C 		streq	r2, [r4, #-8]
 403              		.loc 1 326 0
 404 0062 411C     		adds	r1, r0, #1
 405 0064 03EBC101 		add	r1, r3, r1, lsl #3
 406 0068 8D42     		cmp	r5, r1
 407 006a 0AD1     		bne	.L28
 408              		.loc 1 328 0
 409 006c 54F8042C 		ldr	r2, [r4, #-4]
 410 0070 0244     		add	r2, r2, r0
 411 0072 0132     		adds	r2, r2, #1
 412 0074 5A60     		str	r2, [r3, #4]
 413              		.loc 1 329 0
 414 0076 54F8082C 		ldr	r2, [r4, #-8]
 415 007a 1A60     		str	r2, [r3]
 416 007c 01E0     		b	.L28
 417              	.L25:
 418              		.loc 1 333 0
 419 007e 1346     		mov	r3, r2
 420              	.LVL40:
 421              		.loc 1 334 0
 422 0080 D0E7     		b	.L29
 423              	.LVL41:
 424              	.L28:
 425              		.loc 1 337 0
 426 0082 3046     		mov	r0, r6
 427              		.loc 1 340 0
 428 0084 BDE8F840 		pop	{r3, r4, r5, r6, r7, lr}
 429              		.cfi_restore 14
 430              		.cfi_restore 7
 431              		.cfi_restore 6
 432              		.cfi_restore 5
 433              		.cfi_restore 4
 434              		.cfi_restore 3
 435              		.cfi_def_cfa_offset 0
 436              	.LVL42:
 437              		.loc 1 337 0
 438 0088 FFF7FEBF 		b	chMtxUnlock
 439              	.LVL43:
 440              		.cfi_endproc
 441              	.LFE293:
 442              		.size	chHeapFree, .-chHeapFree
 443              		.section	.text.chHeapStatus,"ax",%progbits
 444              		.align	1
 445              		.global	chHeapStatus
 446              		.thumb
 447              		.thumb_func
 448              		.type	chHeapStatus, %function
 449              	chHeapStatus:
 450              	.LFB294:
 451              		.loc 1 357 0
 452              		.cfi_startproc
 453              		@ args = 0, pretend = 0, frame = 0
 454              		@ frame_needed = 0, uses_anonymous_args = 0
 455              	.LVL44:
 456 0000 2DE9F041 		push	{r4, r5, r6, r7, r8, lr}
ARM GAS  /tmp/ccLagA5Q.s 			page 9


 457              		.cfi_def_cfa_offset 24
 458              		.cfi_offset 4, -24
 459              		.cfi_offset 5, -20
 460              		.cfi_offset 6, -16
 461              		.cfi_offset 7, -12
 462              		.cfi_offset 8, -8
 463              		.cfi_offset 14, -4
 464              		.loc 1 362 0
 465 0004 134C     		ldr	r4, .L46
 466 0006 0028     		cmp	r0, #0
 467 0008 18BF     		it	ne
 468 000a 0446     		movne	r4, r0
 469              	.LVL45:
 470              		.loc 1 365 0
 471 000c 04F10C06 		add	r6, r4, #12
 472 0010 3046     		mov	r0, r6
 473              		.loc 1 357 0
 474 0012 8846     		mov	r8, r1
 475 0014 1746     		mov	r7, r2
 476              		.loc 1 365 0
 477 0016 FFF7FEFF 		bl	chMtxLock
 478              	.LVL46:
 479              		.loc 1 367 0
 480 001a 0023     		movs	r3, #0
 481              		.loc 1 369 0
 482 001c 201D     		adds	r0, r4, #4
 483              	.LVL47:
 484              		.loc 1 368 0
 485 001e 1D46     		mov	r5, r3
 486              		.loc 1 366 0
 487 0020 1C46     		mov	r4, r3
 488              	.LVL48:
 489              	.L35:
 490              		.loc 1 370 0
 491 0022 0068     		ldr	r0, [r0]
 492              	.LVL49:
 493 0024 38B1     		cbz	r0, .L45
 494              	.LBB5:
 495              		.loc 1 371 0
 496 0026 4268     		ldr	r2, [r0, #4]
 497              	.LVL50:
 498 0028 9342     		cmp	r3, r2
 499              		.loc 1 374 0
 500 002a 05F10105 		add	r5, r5, #1
 501              	.LVL51:
 502              		.loc 1 375 0
 503 002e 1444     		add	r4, r4, r2
 504              	.LVL52:
 505 0030 38BF     		it	cc
 506 0032 1346     		movcc	r3, r2
 507              	.LVL53:
 508 0034 F5E7     		b	.L35
 509              	.LVL54:
 510              	.L45:
 511              	.LBE5:
 512              		.loc 1 384 0
 513 0036 B8F1000F 		cmp	r8, #0
ARM GAS  /tmp/ccLagA5Q.s 			page 10


 514 003a 02D0     		beq	.L37
 515              		.loc 1 385 0
 516 003c E400     		lsls	r4, r4, #3
 517              	.LVL55:
 518 003e C8F80040 		str	r4, [r8]
 519              	.L37:
 520              		.loc 1 389 0
 521 0042 0FB1     		cbz	r7, .L38
 522              		.loc 1 390 0
 523 0044 DB00     		lsls	r3, r3, #3
 524              	.LVL56:
 525 0046 3B60     		str	r3, [r7]
 526              	.L38:
 527              		.loc 1 392 0
 528 0048 3046     		mov	r0, r6
 529 004a FFF7FEFF 		bl	chMtxUnlock
 530              	.LVL57:
 531              		.loc 1 395 0
 532 004e 2846     		mov	r0, r5
 533 0050 BDE8F081 		pop	{r4, r5, r6, r7, r8, pc}
 534              	.LVL58:
 535              	.L47:
 536              		.align	2
 537              	.L46:
 538 0054 00000000 		.word	.LANCHOR0
 539              		.cfi_endproc
 540              	.LFE294:
 541              		.size	chHeapStatus, .-chHeapStatus
 542              		.section	.bss.default_heap,"aw",%nobits
 543              		.align	2
 544              		.set	.LANCHOR0,. + 0
 545              		.type	default_heap, %object
 546              		.size	default_heap, 28
 547              	default_heap:
 548 0000 00000000 		.space	28
 548      00000000 
 548      00000000 
 548      00000000 
 548      00000000 
 549              		.text
 550              	.Letext0:
 551              		.file 2 "/usr/lib/gcc/arm-none-eabi/4.9.3/include/stddef.h"
 552              		.file 3 "/usr/include/newlib/machine/_default_types.h"
 553              		.file 4 "/usr/include/newlib/sys/_stdint.h"
 554              		.file 5 "../../modules/ChibiOS/os/common/ports/ARMCMx/compilers/GCC/chtypes.h"
 555              		.file 6 "../../modules/ChibiOS/os/rt/include/chsystypes.h"
 556              		.file 7 "../../modules/ChibiOS/os/rt/include/chschd.h"
 557              		.file 8 "../../modules/ChibiOS/os/rt/include/chtime.h"
 558              		.file 9 "../../modules/ChibiOS/os/common/ports/ARMCMx/chcore.h"
 559              		.file 10 "../../modules/ChibiOS/os/common/ports/ARMCMx/chcore_v7m.h"
 560              		.file 11 "../../modules/ChibiOS/os/rt/include/chtm.h"
 561              		.file 12 "../../modules/ChibiOS/os/rt/include/chstats.h"
 562              		.file 13 "../../modules/ChibiOS/os/rt/include/chsem.h"
 563              		.file 14 "../../modules/ChibiOS/os/rt/include/chmtx.h"
 564              		.file 15 "../../modules/ChibiOS/os/oslib/include/chmemcore.h"
 565              		.file 16 "../../modules/ChibiOS/os/oslib/include/chmemheaps.h"
 566              		.file 17 "../../modules/ChibiOS/os/common/ext/ARM/CMSIS/Core/Include/core_cm4.h"
ARM GAS  /tmp/ccLagA5Q.s 			page 11

