ARM GAS  /tmp/ccvDO2JW.s 			page 1


   1              		.syntax unified
   2              		.cpu cortex-m4
   3              		.eabi_attribute 27, 1
   4              		.eabi_attribute 28, 1
   5              		.fpu fpv4-sp-d16
   6              		.eabi_attribute 20, 1
   7              		.eabi_attribute 21, 1
   8              		.eabi_attribute 23, 3
   9              		.eabi_attribute 24, 1
  10              		.eabi_attribute 25, 1
  11              		.eabi_attribute 26, 1
  12              		.eabi_attribute 30, 4
  13              		.eabi_attribute 34, 1
  14              		.eabi_attribute 18, 4
  15              		.thumb
  16              		.file	"chmempools.c"
  17              		.text
  18              	.Ltext0:
  19              		.cfi_sections	.debug_frame
  20              		.section	.text.chPoolObjectInitAligned,"ax",%progbits
  21              		.align	1
  22              		.global	chPoolObjectInitAligned
  23              		.thumb
  24              		.thumb_func
  25              		.type	chPoolObjectInitAligned, %function
  26              	chPoolObjectInitAligned:
  27              	.LFB290:
  28              		.file 1 "../../modules/ChibiOS/os/oslib/src/chmempools.c"
  29              		.loc 1 78 0
  30              		.cfi_startproc
  31              		@ args = 0, pretend = 0, frame = 0
  32              		@ frame_needed = 0, uses_anonymous_args = 0
  33              	.LVL0:
  34 0000 10B5     		push	{r4, lr}
  35              		.cfi_def_cfa_offset 8
  36              		.cfi_offset 4, -8
  37              		.cfi_offset 14, -4
  38              		.loc 1 85 0
  39 0002 0024     		movs	r4, #0
  40 0004 0460     		str	r4, [r0]
  41              		.loc 1 86 0
  42 0006 4160     		str	r1, [r0, #4]
  43              		.loc 1 87 0
  44 0008 8260     		str	r2, [r0, #8]
  45              		.loc 1 88 0
  46 000a C360     		str	r3, [r0, #12]
  47 000c 10BD     		pop	{r4, pc}
  48              		.cfi_endproc
  49              	.LFE290:
  50              		.size	chPoolObjectInitAligned, .-chPoolObjectInitAligned
  51              		.section	.text.chPoolAllocI,"ax",%progbits
  52              		.align	1
  53              		.global	chPoolAllocI
  54              		.thumb
  55              		.thumb_func
  56              		.type	chPoolAllocI, %function
  57              	chPoolAllocI:
ARM GAS  /tmp/ccvDO2JW.s 			page 2


  58              	.LFB292:
  59              		.loc 1 129 0
  60              		.cfi_startproc
  61              		@ args = 0, pretend = 0, frame = 0
  62              		@ frame_needed = 0, uses_anonymous_args = 0
  63              		@ link register save eliminated.
  64              	.LVL1:
  65              		.loc 1 129 0
  66 0000 0346     		mov	r3, r0
  67              		.loc 1 135 0
  68 0002 0068     		ldr	r0, [r0]
  69              	.LVL2:
  70              		.loc 1 137 0
  71 0004 10B1     		cbz	r0, .L3
  72              		.loc 1 138 0
  73 0006 0268     		ldr	r2, [r0]
  74 0008 1A60     		str	r2, [r3]
  75 000a 7047     		bx	lr
  76              	.L3:
  77              		.loc 1 140 0
  78 000c DA68     		ldr	r2, [r3, #12]
  79 000e 12B1     		cbz	r2, .L4
  80              		.loc 1 141 0
  81 0010 5868     		ldr	r0, [r3, #4]
  82              	.LVL3:
  83 0012 9968     		ldr	r1, [r3, #8]
  84 0014 1047     		bx	r2
  85              	.LVL4:
  86              	.L4:
  87              		.loc 1 149 0
  88 0016 7047     		bx	lr
  89              		.cfi_endproc
  90              	.LFE292:
  91              		.size	chPoolAllocI, .-chPoolAllocI
  92              		.section	.text.chPoolAlloc,"ax",%progbits
  93              		.align	1
  94              		.global	chPoolAlloc
  95              		.thumb
  96              		.thumb_func
  97              		.type	chPoolAlloc, %function
  98              	chPoolAlloc:
  99              	.LFB293:
 100              		.loc 1 161 0
 101              		.cfi_startproc
 102              		@ args = 0, pretend = 0, frame = 0
 103              		@ frame_needed = 0, uses_anonymous_args = 0
 104              	.LVL5:
 105 0000 10B5     		push	{r4, lr}
 106              		.cfi_def_cfa_offset 8
 107              		.cfi_offset 4, -8
 108              		.cfi_offset 14, -4
 109              	.LBB34:
 110              	.LBB35:
 111              	.LBB36:
 112              	.LBB37:
 113              	.LBB38:
 114              		.file 2 "../../modules/ChibiOS/os/common/ext/ARM/CMSIS/Core/Include/cmsis_gcc.h"
ARM GAS  /tmp/ccvDO2JW.s 			page 3


 115              		.loc 2 493 0
 116 0002 2023     		movs	r3, #32
 117              	.LBE38:
 118              	.LBE37:
 119              	.LBE36:
 120              	.LBE35:
 121              	.LBE34:
 122              		.loc 1 161 0
 123 0004 0446     		mov	r4, r0
 124              	.LBB43:
 125              	.LBB42:
 126              	.LBB41:
 127              	.LBB40:
 128              	.LBB39:
 129              		.loc 2 493 0
 130              	@ 493 "../../modules/ChibiOS/os/common/ext/ARM/CMSIS/Core/Include/cmsis_gcc.h" 1
 131 0006 83F31188 		MSR basepri, r3
 132              	@ 0 "" 2
 133              		.thumb
 134              	.LBE39:
 135              	.LBE40:
 136              	.LBE41:
 137              		.file 3 "../../modules/ChibiOS/os/rt/include/chsys.h"
 138              		.loc 3 356 0
 139 000a FFF7FEFF 		bl	_stats_start_measure_crit_thd
 140              	.LVL6:
 141              	.LBE42:
 142              	.LBE43:
 143              		.loc 1 165 0
 144 000e 2046     		mov	r0, r4
 145 0010 FFF7FEFF 		bl	chPoolAllocI
 146              	.LVL7:
 147 0014 0446     		mov	r4, r0
 148              	.LVL8:
 149              	.LBB44:
 150              	.LBB45:
 151              		.loc 3 368 0
 152 0016 FFF7FEFF 		bl	_stats_stop_measure_crit_thd
 153              	.LVL9:
 154              	.LBB46:
 155              	.LBB47:
 156              	.LBB48:
 157              		.loc 2 493 0
 158 001a 0023     		movs	r3, #0
 159              	@ 493 "../../modules/ChibiOS/os/common/ext/ARM/CMSIS/Core/Include/cmsis_gcc.h" 1
 160 001c 83F31188 		MSR basepri, r3
 161              	@ 0 "" 2
 162              		.thumb
 163              	.LBE48:
 164              	.LBE47:
 165              	.LBE46:
 166              	.LBE45:
 167              	.LBE44:
 168              		.loc 1 169 0
 169 0020 2046     		mov	r0, r4
 170 0022 10BD     		pop	{r4, pc}
 171              		.cfi_endproc
ARM GAS  /tmp/ccvDO2JW.s 			page 4


 172              	.LFE293:
 173              		.size	chPoolAlloc, .-chPoolAlloc
 174              		.section	.text.chPoolFreeI,"ax",%progbits
 175              		.align	1
 176              		.global	chPoolFreeI
 177              		.thumb
 178              		.thumb_func
 179              		.type	chPoolFreeI, %function
 180              	chPoolFreeI:
 181              	.LFB294:
 182              		.loc 1 183 0
 183              		.cfi_startproc
 184              		@ args = 0, pretend = 0, frame = 0
 185              		@ frame_needed = 0, uses_anonymous_args = 0
 186              		@ link register save eliminated.
 187              	.LVL10:
 188              		.loc 1 191 0
 189 0000 0368     		ldr	r3, [r0]
 190 0002 0B60     		str	r3, [r1]
 191              		.loc 1 192 0
 192 0004 0160     		str	r1, [r0]
 193 0006 7047     		bx	lr
 194              		.cfi_endproc
 195              	.LFE294:
 196              		.size	chPoolFreeI, .-chPoolFreeI
 197              		.section	.text.chPoolFree,"ax",%progbits
 198              		.align	1
 199              		.global	chPoolFree
 200              		.thumb
 201              		.thumb_func
 202              		.type	chPoolFree, %function
 203              	chPoolFree:
 204              	.LFB295:
 205              		.loc 1 207 0
 206              		.cfi_startproc
 207              		@ args = 0, pretend = 0, frame = 0
 208              		@ frame_needed = 0, uses_anonymous_args = 0
 209              	.LVL11:
 210 0000 38B5     		push	{r3, r4, r5, lr}
 211              		.cfi_def_cfa_offset 16
 212              		.cfi_offset 3, -16
 213              		.cfi_offset 4, -12
 214              		.cfi_offset 5, -8
 215              		.cfi_offset 14, -4
 216              		.loc 1 207 0
 217 0002 0446     		mov	r4, r0
 218 0004 0D46     		mov	r5, r1
 219              	.LBB61:
 220              	.LBB62:
 221              	.LBB63:
 222              	.LBB64:
 223              	.LBB65:
 224              		.loc 2 493 0
 225 0006 2023     		movs	r3, #32
 226              	@ 493 "../../modules/ChibiOS/os/common/ext/ARM/CMSIS/Core/Include/cmsis_gcc.h" 1
 227 0008 83F31188 		MSR basepri, r3
 228              	@ 0 "" 2
ARM GAS  /tmp/ccvDO2JW.s 			page 5


 229              		.thumb
 230              	.LBE65:
 231              	.LBE64:
 232              	.LBE63:
 233              		.loc 3 356 0
 234 000c FFF7FEFF 		bl	_stats_start_measure_crit_thd
 235              	.LVL12:
 236              	.LBE62:
 237              	.LBE61:
 238              	.LBB66:
 239              	.LBB67:
 240              		.loc 1 191 0
 241 0010 2368     		ldr	r3, [r4]
 242 0012 2B60     		str	r3, [r5]
 243              		.loc 1 192 0
 244 0014 2560     		str	r5, [r4]
 245              	.LBE67:
 246              	.LBE66:
 247              	.LBB68:
 248              	.LBB69:
 249              		.loc 3 368 0
 250 0016 FFF7FEFF 		bl	_stats_stop_measure_crit_thd
 251              	.LVL13:
 252              	.LBB70:
 253              	.LBB71:
 254              	.LBB72:
 255              		.loc 2 493 0
 256 001a 0023     		movs	r3, #0
 257              	@ 493 "../../modules/ChibiOS/os/common/ext/ARM/CMSIS/Core/Include/cmsis_gcc.h" 1
 258 001c 83F31188 		MSR basepri, r3
 259              	@ 0 "" 2
 260              		.thumb
 261 0020 38BD     		pop	{r3, r4, r5, pc}
 262              	.LBE72:
 263              	.LBE71:
 264              	.LBE70:
 265              	.LBE69:
 266              	.LBE68:
 267              		.cfi_endproc
 268              	.LFE295:
 269              		.size	chPoolFree, .-chPoolFree
 270              		.section	.text.chPoolLoadArray,"ax",%progbits
 271              		.align	1
 272              		.global	chPoolLoadArray
 273              		.thumb
 274              		.thumb_func
 275              		.type	chPoolLoadArray, %function
 276              	chPoolLoadArray:
 277              	.LFB291:
 278              		.loc 1 106 0
 279              		.cfi_startproc
 280              		@ args = 0, pretend = 0, frame = 0
 281              		@ frame_needed = 0, uses_anonymous_args = 0
 282              	.LVL14:
 283 0000 70B5     		push	{r4, r5, r6, lr}
 284              		.cfi_def_cfa_offset 16
 285              		.cfi_offset 4, -16
ARM GAS  /tmp/ccvDO2JW.s 			page 6


 286              		.cfi_offset 5, -12
 287              		.cfi_offset 6, -8
 288              		.cfi_offset 14, -4
 289 0002 0646     		mov	r6, r0
 290 0004 0D46     		mov	r5, r1
 291 0006 1446     		mov	r4, r2
 292              	.LVL15:
 293              	.L13:
 294              		.loc 1 110 0
 295 0008 3CB1     		cbz	r4, .L15
 296              	.LVL16:
 297              	.LBB73:
 298              	.LBB74:
 299              		.file 4 "../../modules/ChibiOS/os/oslib/include/chmempools.h"
 300              		.loc 4 212 0
 301 000a 2946     		mov	r1, r5
 302 000c 3046     		mov	r0, r6
 303 000e FFF7FEFF 		bl	chPoolFree
 304              	.LVL17:
 305              	.LBE74:
 306              	.LBE73:
 307              		.loc 1 113 0
 308 0012 7368     		ldr	r3, [r6, #4]
 309              		.loc 1 115 0
 310 0014 013C     		subs	r4, r4, #1
 311              	.LVL18:
 312              		.loc 1 113 0
 313 0016 1D44     		add	r5, r5, r3
 314              	.LVL19:
 315 0018 F6E7     		b	.L13
 316              	.LVL20:
 317              	.L15:
 318              		.loc 1 117 0
 319 001a 70BD     		pop	{r4, r5, r6, pc}
 320              		.cfi_endproc
 321              	.LFE291:
 322              		.size	chPoolLoadArray, .-chPoolLoadArray
 323              		.section	.text.chGuardedPoolObjectInitAligned,"ax",%progbits
 324              		.align	1
 325              		.global	chGuardedPoolObjectInitAligned
 326              		.thumb
 327              		.thumb_func
 328              		.type	chGuardedPoolObjectInitAligned, %function
 329              	chGuardedPoolObjectInitAligned:
 330              	.LFB296:
 331              		.loc 1 228 0
 332              		.cfi_startproc
 333              		@ args = 0, pretend = 0, frame = 0
 334              		@ frame_needed = 0, uses_anonymous_args = 0
 335              	.LVL21:
 336 0000 10B5     		push	{r4, lr}
 337              		.cfi_def_cfa_offset 8
 338              		.cfi_offset 4, -8
 339              		.cfi_offset 14, -4
 340              	.LBB75:
 341              	.LBB76:
 342              		.loc 1 85 0
ARM GAS  /tmp/ccvDO2JW.s 			page 7


 343 0002 0024     		movs	r4, #0
 344 0004 C460     		str	r4, [r0, #12]
 345              		.loc 1 86 0
 346 0006 0161     		str	r1, [r0, #16]
 347              		.loc 1 88 0
 348 0008 8461     		str	r4, [r0, #24]
 349              	.LBE76:
 350              	.LBE75:
 351              		.loc 1 231 0
 352 000a 2146     		mov	r1, r4
 353              	.LVL22:
 354              	.LBB78:
 355              	.LBB77:
 356              		.loc 1 87 0
 357 000c 4261     		str	r2, [r0, #20]
 358              	.LBE77:
 359              	.LBE78:
 360              		.loc 1 232 0
 361 000e BDE81040 		pop	{r4, lr}
 362              		.cfi_restore 14
 363              		.cfi_restore 4
 364              		.cfi_def_cfa_offset 0
 365              		.loc 1 231 0
 366 0012 FFF7FEBF 		b	chSemObjectInit
 367              	.LVL23:
 368              		.cfi_endproc
 369              	.LFE296:
 370              		.size	chGuardedPoolObjectInitAligned, .-chGuardedPoolObjectInitAligned
 371              		.section	.text.chGuardedPoolAllocTimeoutS,"ax",%progbits
 372              		.align	1
 373              		.global	chGuardedPoolAllocTimeoutS
 374              		.thumb
 375              		.thumb_func
 376              		.type	chGuardedPoolAllocTimeoutS, %function
 377              	chGuardedPoolAllocTimeoutS:
 378              	.LFB298:
 379              		.loc 1 276 0
 380              		.cfi_startproc
 381              		@ args = 0, pretend = 0, frame = 0
 382              		@ frame_needed = 0, uses_anonymous_args = 0
 383              	.LVL24:
 384 0000 10B5     		push	{r4, lr}
 385              		.cfi_def_cfa_offset 8
 386              		.cfi_offset 4, -8
 387              		.cfi_offset 14, -4
 388              		.loc 1 276 0
 389 0002 0446     		mov	r4, r0
 390              		.loc 1 279 0
 391 0004 FFF7FEFF 		bl	chSemWaitTimeoutS
 392              	.LVL25:
 393              		.loc 1 280 0
 394 0008 28B9     		cbnz	r0, .L18
 395              		.loc 1 284 0
 396 000a 04F10C00 		add	r0, r4, #12
 397              	.LVL26:
 398              		.loc 1 285 0
 399 000e BDE81040 		pop	{r4, lr}
ARM GAS  /tmp/ccvDO2JW.s 			page 8


 400              		.cfi_remember_state
 401              		.cfi_restore 14
 402              		.cfi_restore 4
 403              		.cfi_def_cfa_offset 0
 404              	.LVL27:
 405              		.loc 1 284 0
 406 0012 FFF7FEBF 		b	chPoolAllocI
 407              	.LVL28:
 408              	.L18:
 409              		.cfi_restore_state
 410              		.loc 1 285 0
 411 0016 0020     		movs	r0, #0
 412              	.LVL29:
 413 0018 10BD     		pop	{r4, pc}
 414              		.cfi_endproc
 415              	.LFE298:
 416              		.size	chGuardedPoolAllocTimeoutS, .-chGuardedPoolAllocTimeoutS
 417              		.section	.text.chGuardedPoolAllocTimeout,"ax",%progbits
 418              		.align	1
 419              		.global	chGuardedPoolAllocTimeout
 420              		.thumb
 421              		.thumb_func
 422              		.type	chGuardedPoolAllocTimeout, %function
 423              	chGuardedPoolAllocTimeout:
 424              	.LFB299:
 425              		.loc 1 303 0
 426              		.cfi_startproc
 427              		@ args = 0, pretend = 0, frame = 0
 428              		@ frame_needed = 0, uses_anonymous_args = 0
 429              	.LVL30:
 430 0000 38B5     		push	{r3, r4, r5, lr}
 431              		.cfi_def_cfa_offset 16
 432              		.cfi_offset 3, -16
 433              		.cfi_offset 4, -12
 434              		.cfi_offset 5, -8
 435              		.cfi_offset 14, -4
 436              		.loc 1 303 0
 437 0002 0546     		mov	r5, r0
 438 0004 0C46     		mov	r4, r1
 439              	.LBB89:
 440              	.LBB90:
 441              	.LBB91:
 442              	.LBB92:
 443              	.LBB93:
 444              		.loc 2 493 0
 445 0006 2023     		movs	r3, #32
 446              	@ 493 "../../modules/ChibiOS/os/common/ext/ARM/CMSIS/Core/Include/cmsis_gcc.h" 1
 447 0008 83F31188 		MSR basepri, r3
 448              	@ 0 "" 2
 449              		.thumb
 450              	.LBE93:
 451              	.LBE92:
 452              	.LBE91:
 453              		.loc 3 356 0
 454 000c FFF7FEFF 		bl	_stats_start_measure_crit_thd
 455              	.LVL31:
 456              	.LBE90:
ARM GAS  /tmp/ccvDO2JW.s 			page 9


 457              	.LBE89:
 458              		.loc 1 307 0
 459 0010 2146     		mov	r1, r4
 460 0012 2846     		mov	r0, r5
 461 0014 FFF7FEFF 		bl	chGuardedPoolAllocTimeoutS
 462              	.LVL32:
 463 0018 0446     		mov	r4, r0
 464              	.LVL33:
 465              	.LBB94:
 466              	.LBB95:
 467              		.loc 3 368 0
 468 001a FFF7FEFF 		bl	_stats_stop_measure_crit_thd
 469              	.LVL34:
 470              	.LBB96:
 471              	.LBB97:
 472              	.LBB98:
 473              		.loc 2 493 0
 474 001e 0023     		movs	r3, #0
 475              	@ 493 "../../modules/ChibiOS/os/common/ext/ARM/CMSIS/Core/Include/cmsis_gcc.h" 1
 476 0020 83F31188 		MSR basepri, r3
 477              	@ 0 "" 2
 478              		.thumb
 479              	.LBE98:
 480              	.LBE97:
 481              	.LBE96:
 482              	.LBE95:
 483              	.LBE94:
 484              		.loc 1 311 0
 485 0024 2046     		mov	r0, r4
 486 0026 38BD     		pop	{r3, r4, r5, pc}
 487              		.cfi_endproc
 488              	.LFE299:
 489              		.size	chGuardedPoolAllocTimeout, .-chGuardedPoolAllocTimeout
 490              		.section	.text.chGuardedPoolFree,"ax",%progbits
 491              		.align	1
 492              		.global	chGuardedPoolFree
 493              		.thumb
 494              		.thumb_func
 495              		.type	chGuardedPoolFree, %function
 496              	chGuardedPoolFree:
 497              	.LFB300:
 498              		.loc 1 325 0
 499              		.cfi_startproc
 500              		@ args = 0, pretend = 0, frame = 0
 501              		@ frame_needed = 0, uses_anonymous_args = 0
 502              	.LVL35:
 503 0000 38B5     		push	{r3, r4, r5, lr}
 504              		.cfi_def_cfa_offset 16
 505              		.cfi_offset 3, -16
 506              		.cfi_offset 4, -12
 507              		.cfi_offset 5, -8
 508              		.cfi_offset 14, -4
 509              		.loc 1 325 0
 510 0002 0446     		mov	r4, r0
 511 0004 0D46     		mov	r5, r1
 512              	.LBB113:
 513              	.LBB114:
ARM GAS  /tmp/ccvDO2JW.s 			page 10


 514              	.LBB115:
 515              	.LBB116:
 516              	.LBB117:
 517              		.loc 2 493 0
 518 0006 2023     		movs	r3, #32
 519              	@ 493 "../../modules/ChibiOS/os/common/ext/ARM/CMSIS/Core/Include/cmsis_gcc.h" 1
 520 0008 83F31188 		MSR basepri, r3
 521              	@ 0 "" 2
 522              		.thumb
 523              	.LBE117:
 524              	.LBE116:
 525              	.LBE115:
 526              		.loc 3 356 0
 527 000c FFF7FEFF 		bl	_stats_start_measure_crit_thd
 528              	.LVL36:
 529              	.LBE114:
 530              	.LBE113:
 531              	.LBB118:
 532              	.LBB119:
 533              	.LBB120:
 534              	.LBB121:
 535              		.loc 1 191 0
 536 0010 E368     		ldr	r3, [r4, #12]
 537 0012 2B60     		str	r3, [r5]
 538              	.LBE121:
 539              	.LBE120:
 540              		.loc 4 288 0
 541 0014 2046     		mov	r0, r4
 542              	.LBB123:
 543              	.LBB122:
 544              		.loc 1 192 0
 545 0016 E560     		str	r5, [r4, #12]
 546              	.LBE122:
 547              	.LBE123:
 548              		.loc 4 288 0
 549 0018 FFF7FEFF 		bl	chSemSignalI
 550              	.LVL37:
 551              	.LBE119:
 552              	.LBE118:
 553              		.loc 1 329 0
 554 001c FFF7FEFF 		bl	chSchRescheduleS
 555              	.LVL38:
 556              	.LBB124:
 557              	.LBB125:
 558              		.loc 3 368 0
 559 0020 FFF7FEFF 		bl	_stats_stop_measure_crit_thd
 560              	.LVL39:
 561              	.LBB126:
 562              	.LBB127:
 563              	.LBB128:
 564              		.loc 2 493 0
 565 0024 0023     		movs	r3, #0
 566              	@ 493 "../../modules/ChibiOS/os/common/ext/ARM/CMSIS/Core/Include/cmsis_gcc.h" 1
 567 0026 83F31188 		MSR basepri, r3
 568              	@ 0 "" 2
 569              		.thumb
 570 002a 38BD     		pop	{r3, r4, r5, pc}
ARM GAS  /tmp/ccvDO2JW.s 			page 11


 571              	.LBE128:
 572              	.LBE127:
 573              	.LBE126:
 574              	.LBE125:
 575              	.LBE124:
 576              		.cfi_endproc
 577              	.LFE300:
 578              		.size	chGuardedPoolFree, .-chGuardedPoolFree
 579              		.section	.text.chGuardedPoolLoadArray,"ax",%progbits
 580              		.align	1
 581              		.global	chGuardedPoolLoadArray
 582              		.thumb
 583              		.thumb_func
 584              		.type	chGuardedPoolLoadArray, %function
 585              	chGuardedPoolLoadArray:
 586              	.LFB297:
 587              		.loc 1 247 0
 588              		.cfi_startproc
 589              		@ args = 0, pretend = 0, frame = 0
 590              		@ frame_needed = 0, uses_anonymous_args = 0
 591              	.LVL40:
 592 0000 70B5     		push	{r4, r5, r6, lr}
 593              		.cfi_def_cfa_offset 16
 594              		.cfi_offset 4, -16
 595              		.cfi_offset 5, -12
 596              		.cfi_offset 6, -8
 597              		.cfi_offset 14, -4
 598 0002 0646     		mov	r6, r0
 599 0004 0D46     		mov	r5, r1
 600 0006 1446     		mov	r4, r2
 601              	.LVL41:
 602              	.L22:
 603              		.loc 1 251 0
 604 0008 3CB1     		cbz	r4, .L24
 605              	.LVL42:
 606              	.LBB129:
 607              	.LBB130:
 608              		.loc 4 325 0
 609 000a 2946     		mov	r1, r5
 610 000c 3046     		mov	r0, r6
 611 000e FFF7FEFF 		bl	chGuardedPoolFree
 612              	.LVL43:
 613              	.LBE130:
 614              	.LBE129:
 615              		.loc 1 254 0
 616 0012 3369     		ldr	r3, [r6, #16]
 617              		.loc 1 256 0
 618 0014 013C     		subs	r4, r4, #1
 619              	.LVL44:
 620              		.loc 1 254 0
 621 0016 1D44     		add	r5, r5, r3
 622              	.LVL45:
 623 0018 F6E7     		b	.L22
 624              	.LVL46:
 625              	.L24:
 626              		.loc 1 258 0
 627 001a 70BD     		pop	{r4, r5, r6, pc}
ARM GAS  /tmp/ccvDO2JW.s 			page 12


 628              		.cfi_endproc
 629              	.LFE297:
 630              		.size	chGuardedPoolLoadArray, .-chGuardedPoolLoadArray
 631              		.text
 632              	.Letext0:
 633              		.file 5 "/usr/lib/gcc/arm-none-eabi/4.9.3/include/stddef.h"
 634              		.file 6 "/usr/include/newlib/machine/_default_types.h"
 635              		.file 7 "/usr/include/newlib/sys/_stdint.h"
 636              		.file 8 "../../modules/ChibiOS/os/common/ports/ARMCMx/compilers/GCC/chtypes.h"
 637              		.file 9 "../../modules/ChibiOS/os/rt/include/chsystypes.h"
 638              		.file 10 "../../modules/ChibiOS/os/rt/include/chschd.h"
 639              		.file 11 "../../modules/ChibiOS/os/rt/include/chtime.h"
 640              		.file 12 "../../modules/ChibiOS/os/common/ports/ARMCMx/chcore.h"
 641              		.file 13 "../../modules/ChibiOS/os/common/ports/ARMCMx/chcore_v7m.h"
 642              		.file 14 "../../modules/ChibiOS/os/rt/include/chtm.h"
 643              		.file 15 "../../modules/ChibiOS/os/rt/include/chstats.h"
 644              		.file 16 "../../modules/ChibiOS/os/rt/include/chsem.h"
 645              		.file 17 "../../modules/ChibiOS/os/rt/include/chmtx.h"
 646              		.file 18 "../../modules/ChibiOS/os/oslib/include/chmemcore.h"
 647              		.file 19 "../../modules/ChibiOS/os/common/ext/ARM/CMSIS/Core/Include/core_cm4.h"