ARM GAS  /tmp/ccz0jqjH.s 			page 1


   1              		.syntax unified
   2              		.cpu cortex-m4
   3              		.eabi_attribute 27, 1
   4              		.eabi_attribute 28, 1
   5              		.fpu fpv4-sp-d16
   6              		.eabi_attribute 20, 1
   7              		.eabi_attribute 21, 1
   8              		.eabi_attribute 23, 3
   9              		.eabi_attribute 24, 1
  10              		.eabi_attribute 25, 1
  11              		.eabi_attribute 26, 1
  12              		.eabi_attribute 30, 4
  13              		.eabi_attribute 34, 1
  14              		.eabi_attribute 18, 4
  15              		.thumb
  16              		.file	"chmemcore.c"
  17              		.text
  18              	.Ltext0:
  19              		.cfi_sections	.debug_frame
  20              		.section	.text._core_init,"ax",%progbits
  21              		.align	1
  22              		.global	_core_init
  23              		.thumb
  24              		.thumb_func
  25              		.type	_core_init, %function
  26              	_core_init:
  27              	.LFB290:
  28              		.file 1 "../../modules/ChibiOS/os/oslib/src/chmemcore.c"
  29              		.loc 1 81 0
  30              		.cfi_startproc
  31              		@ args = 0, pretend = 0, frame = 0
  32              		@ frame_needed = 0, uses_anonymous_args = 0
  33              		@ link register save eliminated.
  34              		.loc 1 87 0
  35 0000 024B     		ldr	r3, .L2
  36 0002 034A     		ldr	r2, .L2+4
  37 0004 1A60     		str	r2, [r3]
  38              		.loc 1 88 0
  39 0006 034A     		ldr	r2, .L2+8
  40 0008 5A60     		str	r2, [r3, #4]
  41 000a 7047     		bx	lr
  42              	.L3:
  43              		.align	2
  44              	.L2:
  45 000c 00000000 		.word	.LANCHOR0
  46 0010 00000000 		.word	__heap_base__
  47 0014 00000000 		.word	__heap_end__
  48              		.cfi_endproc
  49              	.LFE290:
  50              		.size	_core_init, .-_core_init
  51              		.section	.text.chCoreAllocAlignedWithOffsetI,"ax",%progbits
  52              		.align	1
  53              		.global	chCoreAllocAlignedWithOffsetI
  54              		.thumb
  55              		.thumb_func
  56              		.type	chCoreAllocAlignedWithOffsetI, %function
  57              	chCoreAllocAlignedWithOffsetI:
ARM GAS  /tmp/ccz0jqjH.s 			page 2


  58              	.LFB291:
  59              		.loc 1 114 0
  60              		.cfi_startproc
  61              		@ args = 0, pretend = 0, frame = 0
  62              		@ frame_needed = 0, uses_anonymous_args = 0
  63              	.LVL0:
  64 0000 70B5     		push	{r4, r5, r6, lr}
  65              		.cfi_def_cfa_offset 16
  66              		.cfi_offset 4, -16
  67              		.cfi_offset 5, -12
  68              		.cfi_offset 6, -8
  69              		.cfi_offset 14, -4
  70              		.loc 1 121 0
  71 0002 0A4C     		ldr	r4, .L9
  72 0004 2668     		ldr	r6, [r4]
  73 0006 4B1E     		subs	r3, r1, #1
  74 0008 3244     		add	r2, r2, r6
  75              	.LVL1:
  76              		.loc 1 120 0
  77 000a 1D18     		adds	r5, r3, r0
  78              		.loc 1 121 0
  79 000c 8818     		adds	r0, r1, r2
  80              	.LVL2:
  81              		.loc 1 120 0
  82 000e 4B42     		negs	r3, r1
  83              	.LVL3:
  84              		.loc 1 121 0
  85 0010 0138     		subs	r0, r0, #1
  86 0012 1840     		ands	r0, r0, r3
  87              	.LVL4:
  88              		.loc 1 125 0
  89 0014 6268     		ldr	r2, [r4, #4]
  90              		.loc 1 120 0
  91 0016 2B40     		ands	r3, r3, r5
  92              	.LVL5:
  93              		.loc 1 122 0
  94 0018 0344     		add	r3, r3, r0
  95              	.LVL6:
  96              		.loc 1 125 0
  97 001a 9342     		cmp	r3, r2
  98 001c 03D8     		bhi	.L7
  99              		.loc 1 125 0 is_stmt 0 discriminator 1
 100 001e B342     		cmp	r3, r6
 101 0020 01D3     		bcc	.L7
 102              		.loc 1 129 0 is_stmt 1
 103 0022 2360     		str	r3, [r4]
 104              		.loc 1 131 0
 105 0024 70BD     		pop	{r4, r5, r6, pc}
 106              	.LVL7:
 107              	.L7:
 108              		.loc 1 126 0
 109 0026 0020     		movs	r0, #0
 110              	.LVL8:
 111              		.loc 1 132 0
 112 0028 70BD     		pop	{r4, r5, r6, pc}
 113              	.LVL9:
 114              	.L10:
ARM GAS  /tmp/ccz0jqjH.s 			page 3


 115 002a 00BF     		.align	2
 116              	.L9:
 117 002c 00000000 		.word	.LANCHOR0
 118              		.cfi_endproc
 119              	.LFE291:
 120              		.size	chCoreAllocAlignedWithOffsetI, .-chCoreAllocAlignedWithOffsetI
 121              		.section	.text.chCoreAllocAlignedWithOffset,"ax",%progbits
 122              		.align	1
 123              		.global	chCoreAllocAlignedWithOffset
 124              		.thumb
 125              		.thumb_func
 126              		.type	chCoreAllocAlignedWithOffset, %function
 127              	chCoreAllocAlignedWithOffset:
 128              	.LFB292:
 129              		.loc 1 150 0
 130              		.cfi_startproc
 131              		@ args = 0, pretend = 0, frame = 0
 132              		@ frame_needed = 0, uses_anonymous_args = 0
 133              	.LVL10:
 134 0000 70B5     		push	{r4, r5, r6, lr}
 135              		.cfi_def_cfa_offset 16
 136              		.cfi_offset 4, -16
 137              		.cfi_offset 5, -12
 138              		.cfi_offset 6, -8
 139              		.cfi_offset 14, -4
 140              	.LBB24:
 141              	.LBB25:
 142              	.LBB26:
 143              	.LBB27:
 144              	.LBB28:
 145              		.file 2 "../../modules/ChibiOS/os/common/ext/ARM/CMSIS/Core/Include/cmsis_gcc.h"
 146              		.loc 2 493 0
 147 0002 2023     		movs	r3, #32
 148              	.LBE28:
 149              	.LBE27:
 150              	.LBE26:
 151              	.LBE25:
 152              	.LBE24:
 153              		.loc 1 150 0
 154 0004 0646     		mov	r6, r0
 155 0006 0D46     		mov	r5, r1
 156 0008 1446     		mov	r4, r2
 157              	.LBB33:
 158              	.LBB32:
 159              	.LBB31:
 160              	.LBB30:
 161              	.LBB29:
 162              		.loc 2 493 0
 163              	@ 493 "../../modules/ChibiOS/os/common/ext/ARM/CMSIS/Core/Include/cmsis_gcc.h" 1
 164 000a 83F31188 		MSR basepri, r3
 165              	@ 0 "" 2
 166              		.thumb
 167              	.LBE29:
 168              	.LBE30:
 169              	.LBE31:
 170              		.file 3 "../../modules/ChibiOS/os/rt/include/chsys.h"
 171              		.loc 3 356 0
ARM GAS  /tmp/ccz0jqjH.s 			page 4


 172 000e FFF7FEFF 		bl	_stats_start_measure_crit_thd
 173              	.LVL11:
 174              	.LBE32:
 175              	.LBE33:
 176              		.loc 1 154 0
 177 0012 2246     		mov	r2, r4
 178 0014 2946     		mov	r1, r5
 179 0016 3046     		mov	r0, r6
 180 0018 FFF7FEFF 		bl	chCoreAllocAlignedWithOffsetI
 181              	.LVL12:
 182 001c 0446     		mov	r4, r0
 183              	.LVL13:
 184              	.LBB34:
 185              	.LBB35:
 186              		.loc 3 368 0
 187 001e FFF7FEFF 		bl	_stats_stop_measure_crit_thd
 188              	.LVL14:
 189              	.LBB36:
 190              	.LBB37:
 191              	.LBB38:
 192              		.loc 2 493 0
 193 0022 0023     		movs	r3, #0
 194              	@ 493 "../../modules/ChibiOS/os/common/ext/ARM/CMSIS/Core/Include/cmsis_gcc.h" 1
 195 0024 83F31188 		MSR basepri, r3
 196              	@ 0 "" 2
 197              		.thumb
 198              	.LBE38:
 199              	.LBE37:
 200              	.LBE36:
 201              	.LBE35:
 202              	.LBE34:
 203              		.loc 1 158 0
 204 0028 2046     		mov	r0, r4
 205 002a 70BD     		pop	{r4, r5, r6, pc}
 206              		.cfi_endproc
 207              	.LFE292:
 208              		.size	chCoreAllocAlignedWithOffset, .-chCoreAllocAlignedWithOffset
 209              		.section	.text.chCoreGetStatusX,"ax",%progbits
 210              		.align	1
 211              		.global	chCoreGetStatusX
 212              		.thumb
 213              		.thumb_func
 214              		.type	chCoreGetStatusX, %function
 215              	chCoreGetStatusX:
 216              	.LFB293:
 217              		.loc 1 167 0
 218              		.cfi_startproc
 219              		@ args = 0, pretend = 0, frame = 0
 220              		@ frame_needed = 0, uses_anonymous_args = 0
 221              		@ link register save eliminated.
 222              		.loc 1 170 0
 223 0000 024B     		ldr	r3, .L13
 224 0002 5868     		ldr	r0, [r3, #4]
 225 0004 1B68     		ldr	r3, [r3]
 226              		.loc 1 172 0
 227 0006 C01A     		subs	r0, r0, r3
 228 0008 7047     		bx	lr
ARM GAS  /tmp/ccz0jqjH.s 			page 5


 229              	.L14:
 230 000a 00BF     		.align	2
 231              	.L13:
 232 000c 00000000 		.word	.LANCHOR0
 233              		.cfi_endproc
 234              	.LFE293:
 235              		.size	chCoreGetStatusX, .-chCoreGetStatusX
 236              		.global	ch_memcore
 237              		.section	.bss.ch_memcore,"aw",%nobits
 238              		.align	2
 239              		.set	.LANCHOR0,. + 0
 240              		.type	ch_memcore, %object
 241              		.size	ch_memcore, 8
 242              	ch_memcore:
 243 0000 00000000 		.space	8
 243      00000000 
 244              		.text
 245              	.Letext0:
 246              		.file 4 "/usr/lib/gcc/arm-none-eabi/4.9.3/include/stddef.h"
 247              		.file 5 "/usr/include/newlib/machine/_default_types.h"
 248              		.file 6 "/usr/include/newlib/sys/_stdint.h"
 249              		.file 7 "../../modules/ChibiOS/os/common/ports/ARMCMx/compilers/GCC/chtypes.h"
 250              		.file 8 "../../modules/ChibiOS/os/rt/include/chsystypes.h"
 251              		.file 9 "../../modules/ChibiOS/os/rt/include/chschd.h"
 252              		.file 10 "../../modules/ChibiOS/os/rt/include/chtime.h"
 253              		.file 11 "../../modules/ChibiOS/os/common/ports/ARMCMx/chcore.h"
 254              		.file 12 "../../modules/ChibiOS/os/common/ports/ARMCMx/chcore_v7m.h"
 255              		.file 13 "../../modules/ChibiOS/os/rt/include/chtm.h"
 256              		.file 14 "../../modules/ChibiOS/os/rt/include/chstats.h"
 257              		.file 15 "../../modules/ChibiOS/os/rt/include/chsem.h"
 258              		.file 16 "../../modules/ChibiOS/os/rt/include/chmtx.h"
 259              		.file 17 "../../modules/ChibiOS/os/oslib/include/chmemcore.h"
 260              		.file 18 "../../modules/ChibiOS/os/common/ext/ARM/CMSIS/Core/Include/core_cm4.h"