ARM GAS  /tmp/ccg6DZLo.s 			page 1


   1              		.syntax unified
   2              		.cpu cortex-m4
   3              		.eabi_attribute 27, 1
   4              		.eabi_attribute 28, 1
   5              		.fpu fpv4-sp-d16
   6              		.eabi_attribute 20, 1
   7              		.eabi_attribute 21, 1
   8              		.eabi_attribute 23, 3
   9              		.eabi_attribute 24, 1
  10              		.eabi_attribute 25, 1
  11              		.eabi_attribute 26, 1
  12              		.eabi_attribute 30, 4
  13              		.eabi_attribute 34, 1
  14              		.eabi_attribute 18, 4
  15              		.thumb
  16              		.file	"chmsg.c"
  17              		.text
  18              	.Ltext0:
  19              		.cfi_sections	.debug_frame
  20              		.section	.text.chMsgSend,"ax",%progbits
  21              		.align	1
  22              		.global	chMsgSend
  23              		.thumb
  24              		.thumb_func
  25              		.type	chMsgSend, %function
  26              	chMsgSend:
  27              	.LFB290:
  28              		.file 1 "../../modules/ChibiOS/os/rt/src/chmsg.c"
  29              		.loc 1 87 0
  30              		.cfi_startproc
  31              		@ args = 0, pretend = 0, frame = 0
  32              		@ frame_needed = 0, uses_anonymous_args = 0
  33              	.LVL0:
  34              		.loc 1 88 0
  35 0000 114B     		ldr	r3, .L4
  36              		.loc 1 87 0
  37 0002 70B5     		push	{r4, r5, r6, lr}
  38              		.cfi_def_cfa_offset 16
  39              		.cfi_offset 4, -16
  40              		.cfi_offset 5, -12
  41              		.cfi_offset 6, -8
  42              		.cfi_offset 14, -4
  43              		.loc 1 88 0
  44 0004 9C69     		ldr	r4, [r3, #24]
  45              	.LVL1:
  46              		.loc 1 87 0
  47 0006 0546     		mov	r5, r0
  48 0008 0E46     		mov	r6, r1
  49              	.LBB34:
  50              	.LBB35:
  51              	.LBB36:
  52              	.LBB37:
  53              	.LBB38:
  54              		.file 2 "../../modules/ChibiOS/os/common/ext/ARM/CMSIS/Core/Include/cmsis_gcc.h"
  55              		.loc 2 493 0
  56 000a 2023     		movs	r3, #32
  57              	@ 493 "../../modules/ChibiOS/os/common/ext/ARM/CMSIS/Core/Include/cmsis_gcc.h" 1
ARM GAS  /tmp/ccg6DZLo.s 			page 2


  58 000c 83F31188 		MSR basepri, r3
  59              	@ 0 "" 2
  60              		.thumb
  61              	.LBE38:
  62              	.LBE37:
  63              	.LBE36:
  64              		.file 3 "../../modules/ChibiOS/os/rt/include/chsys.h"
  65              		.loc 3 356 0
  66 0010 FFF7FEFF 		bl	_stats_start_measure_crit_thd
  67              	.LVL2:
  68              	.LBE35:
  69              	.LBE34:
  70              		.loc 1 93 0
  71 0014 6662     		str	r6, [r4, #36]
  72              	.LVL3:
  73              		.loc 1 94 0
  74 0016 05F12C03 		add	r3, r5, #44
  75              	.LVL4:
  76              	.LBB39:
  77              	.LBB40:
  78              		.file 4 "../../modules/ChibiOS/os/rt/include/chschd.h"
  79              		.loc 4 600 0
  80 001a 2360     		str	r3, [r4]
  81              		.loc 4 601 0
  82 001c 2B6B     		ldr	r3, [r5, #48]
  83              	.LVL5:
  84 001e 6360     		str	r3, [r4, #4]
  85              		.loc 4 602 0
  86 0020 1C60     		str	r4, [r3]
  87              	.LVL6:
  88              	.LBE40:
  89              	.LBE39:
  90              		.loc 1 95 0
  91 0022 95F82030 		ldrb	r3, [r5, #32]	@ zero_extendqisi2
  92              	.LBB42:
  93              	.LBB41:
  94              		.loc 4 603 0
  95 0026 2C63     		str	r4, [r5, #48]
  96              	.LBE41:
  97              	.LBE42:
  98              		.loc 1 95 0
  99 0028 0E2B     		cmp	r3, #14
 100 002a 02D1     		bne	.L2
 101              		.loc 1 96 0
 102 002c 2846     		mov	r0, r5
 103 002e FFF7FEFF 		bl	chSchReadyI
 104              	.LVL7:
 105              	.L2:
 106              		.loc 1 98 0
 107 0032 0C20     		movs	r0, #12
 108 0034 FFF7FEFF 		bl	chSchGoSleepS
 109              	.LVL8:
 110              		.loc 1 99 0
 111 0038 646A     		ldr	r4, [r4, #36]
 112              	.LVL9:
 113              	.LBB43:
 114              	.LBB44:
ARM GAS  /tmp/ccg6DZLo.s 			page 3


 115              		.loc 3 368 0
 116 003a FFF7FEFF 		bl	_stats_stop_measure_crit_thd
 117              	.LVL10:
 118              	.LBB45:
 119              	.LBB46:
 120              	.LBB47:
 121              		.loc 2 493 0
 122 003e 0023     		movs	r3, #0
 123              	@ 493 "../../modules/ChibiOS/os/common/ext/ARM/CMSIS/Core/Include/cmsis_gcc.h" 1
 124 0040 83F31188 		MSR basepri, r3
 125              	@ 0 "" 2
 126              		.thumb
 127              	.LBE47:
 128              	.LBE46:
 129              	.LBE45:
 130              	.LBE44:
 131              	.LBE43:
 132              		.loc 1 103 0
 133 0044 2046     		mov	r0, r4
 134 0046 70BD     		pop	{r4, r5, r6, pc}
 135              	.LVL11:
 136              	.L5:
 137              		.align	2
 138              	.L4:
 139 0048 00000000 		.word	ch
 140              		.cfi_endproc
 141              	.LFE290:
 142              		.size	chMsgSend, .-chMsgSend
 143              		.section	.text.chMsgWait,"ax",%progbits
 144              		.align	1
 145              		.global	chMsgWait
 146              		.thumb
 147              		.thumb_func
 148              		.type	chMsgWait, %function
 149              	chMsgWait:
 150              	.LFB291:
 151              		.loc 1 121 0
 152              		.cfi_startproc
 153              		@ args = 0, pretend = 0, frame = 0
 154              		@ frame_needed = 0, uses_anonymous_args = 0
 155              	.LVL12:
 156 0000 10B5     		push	{r4, lr}
 157              		.cfi_def_cfa_offset 8
 158              		.cfi_offset 4, -8
 159              		.cfi_offset 14, -4
 160              	.LBB62:
 161              	.LBB63:
 162              	.LBB64:
 163              	.LBB65:
 164              	.LBB66:
 165              		.loc 2 493 0
 166 0002 2023     		movs	r3, #32
 167              	@ 493 "../../modules/ChibiOS/os/common/ext/ARM/CMSIS/Core/Include/cmsis_gcc.h" 1
 168 0004 83F31188 		MSR basepri, r3
 169              	@ 0 "" 2
 170              		.thumb
 171              	.LBE66:
ARM GAS  /tmp/ccg6DZLo.s 			page 4


 172              	.LBE65:
 173              	.LBE64:
 174              		.loc 3 356 0
 175 0008 FFF7FEFF 		bl	_stats_start_measure_crit_thd
 176              	.LVL13:
 177              	.LBE63:
 178              	.LBE62:
 179              		.loc 1 125 0
 180 000c 0D4B     		ldr	r3, .L8
 181 000e 9A69     		ldr	r2, [r3, #24]
 182              	.LVL14:
 183              	.LBB67:
 184              	.LBB68:
 185              		.file 5 "../../modules/ChibiOS/os/rt/include/chmsg.h"
 186              		.loc 5 83 0
 187 0010 02F12C01 		add	r1, r2, #44
 188              	.LBE68:
 189              	.LBE67:
 190              		.loc 1 125 0
 191 0014 D26A     		ldr	r2, [r2, #44]
 192              	.LVL15:
 193 0016 8A42     		cmp	r2, r1
 194 0018 1C46     		mov	r4, r3
 195 001a 02D1     		bne	.L7
 196              		.loc 1 126 0
 197 001c 0E20     		movs	r0, #14
 198 001e FFF7FEFF 		bl	chSchGoSleepS
 199              	.LVL16:
 200              	.L7:
 201              		.loc 1 128 0
 202 0022 A369     		ldr	r3, [r4, #24]
 203              	.LVL17:
 204              	.LBB69:
 205              	.LBB70:
 206              		.loc 4 607 0
 207 0024 DC6A     		ldr	r4, [r3, #44]
 208              	.LVL18:
 209              		.loc 4 609 0
 210 0026 2268     		ldr	r2, [r4]
 211 0028 43F82C2F 		str	r2, [r3, #44]!
 212              	.LVL19:
 213              		.loc 4 610 0
 214 002c 5360     		str	r3, [r2, #4]
 215              	.LBE70:
 216              	.LBE69:
 217              		.loc 1 129 0
 218 002e 0D23     		movs	r3, #13
 219              	.LVL20:
 220 0030 84F82030 		strb	r3, [r4, #32]
 221              	.LBB71:
 222              	.LBB72:
 223              		.loc 3 368 0
 224 0034 FFF7FEFF 		bl	_stats_stop_measure_crit_thd
 225              	.LVL21:
 226              	.LBB73:
 227              	.LBB74:
 228              	.LBB75:
ARM GAS  /tmp/ccg6DZLo.s 			page 5


 229              		.loc 2 493 0
 230 0038 0023     		movs	r3, #0
 231              	@ 493 "../../modules/ChibiOS/os/common/ext/ARM/CMSIS/Core/Include/cmsis_gcc.h" 1
 232 003a 83F31188 		MSR basepri, r3
 233              	@ 0 "" 2
 234              		.thumb
 235              	.LBE75:
 236              	.LBE74:
 237              	.LBE73:
 238              	.LBE72:
 239              	.LBE71:
 240              		.loc 1 133 0
 241 003e 2046     		mov	r0, r4
 242 0040 10BD     		pop	{r4, pc}
 243              	.LVL22:
 244              	.L9:
 245 0042 00BF     		.align	2
 246              	.L8:
 247 0044 00000000 		.word	ch
 248              		.cfi_endproc
 249              	.LFE291:
 250              		.size	chMsgWait, .-chMsgWait
 251              		.section	.text.chMsgRelease,"ax",%progbits
 252              		.align	1
 253              		.global	chMsgRelease
 254              		.thumb
 255              		.thumb_func
 256              		.type	chMsgRelease, %function
 257              	chMsgRelease:
 258              	.LFB292:
 259              		.loc 1 145 0
 260              		.cfi_startproc
 261              		@ args = 0, pretend = 0, frame = 0
 262              		@ frame_needed = 0, uses_anonymous_args = 0
 263              	.LVL23:
 264 0000 38B5     		push	{r3, r4, r5, lr}
 265              		.cfi_def_cfa_offset 16
 266              		.cfi_offset 3, -16
 267              		.cfi_offset 4, -12
 268              		.cfi_offset 5, -8
 269              		.cfi_offset 14, -4
 270              		.loc 1 145 0
 271 0002 0546     		mov	r5, r0
 272 0004 0C46     		mov	r4, r1
 273              	.LBB88:
 274              	.LBB89:
 275              	.LBB90:
 276              	.LBB91:
 277              	.LBB92:
 278              		.loc 2 493 0
 279 0006 2023     		movs	r3, #32
 280              	@ 493 "../../modules/ChibiOS/os/common/ext/ARM/CMSIS/Core/Include/cmsis_gcc.h" 1
 281 0008 83F31188 		MSR basepri, r3
 282              	@ 0 "" 2
 283              		.thumb
 284              	.LBE92:
 285              	.LBE91:
ARM GAS  /tmp/ccg6DZLo.s 			page 6


 286              	.LBE90:
 287              		.loc 3 356 0
 288 000c FFF7FEFF 		bl	_stats_start_measure_crit_thd
 289              	.LVL24:
 290              	.LBE89:
 291              	.LBE88:
 292              	.LBB93:
 293              	.LBB94:
 294              		.loc 5 117 0
 295 0010 2846     		mov	r0, r5
 296 0012 2146     		mov	r1, r4
 297 0014 FFF7FEFF 		bl	chSchWakeupS
 298              	.LVL25:
 299              	.LBE94:
 300              	.LBE93:
 301              	.LBB95:
 302              	.LBB96:
 303              		.loc 3 368 0
 304 0018 FFF7FEFF 		bl	_stats_stop_measure_crit_thd
 305              	.LVL26:
 306              	.LBB97:
 307              	.LBB98:
 308              	.LBB99:
 309              		.loc 2 493 0
 310 001c 0023     		movs	r3, #0
 311              	@ 493 "../../modules/ChibiOS/os/common/ext/ARM/CMSIS/Core/Include/cmsis_gcc.h" 1
 312 001e 83F31188 		MSR basepri, r3
 313              	@ 0 "" 2
 314              		.thumb
 315 0022 38BD     		pop	{r3, r4, r5, pc}
 316              	.LBE99:
 317              	.LBE98:
 318              	.LBE97:
 319              	.LBE96:
 320              	.LBE95:
 321              		.cfi_endproc
 322              	.LFE292:
 323              		.size	chMsgRelease, .-chMsgRelease
 324              		.text
 325              	.Letext0:
 326              		.file 6 "/usr/include/newlib/machine/_default_types.h"
 327              		.file 7 "/usr/include/newlib/sys/_stdint.h"
 328              		.file 8 "../../modules/ChibiOS/os/common/ports/ARMCMx/compilers/GCC/chtypes.h"
 329              		.file 9 "../../modules/ChibiOS/os/rt/include/chsystypes.h"
 330              		.file 10 "../../modules/ChibiOS/os/rt/include/chtime.h"
 331              		.file 11 "../../modules/ChibiOS/os/common/ports/ARMCMx/chcore.h"
 332              		.file 12 "../../modules/ChibiOS/os/common/ports/ARMCMx/chcore_v7m.h"
 333              		.file 13 "../../modules/ChibiOS/os/rt/include/chtm.h"
 334              		.file 14 "../../modules/ChibiOS/os/rt/include/chstats.h"
 335              		.file 15 "../../modules/ChibiOS/os/rt/include/chsem.h"
 336              		.file 16 "../../modules/ChibiOS/os/rt/include/chmtx.h"
 337              		.file 17 "../../modules/ChibiOS/os/common/ext/ARM/CMSIS/Core/Include/core_cm4.h"