ARM GAS  /tmp/ccg6DZLo.s 			page 1


   1              		.syntax unified
   2              		.cpu cortex-m4
   3              		.eabi_attribute 27, 1
   4              		.eabi_attribute 28, 1
   5              		.fpu fpv4-sp-d16
   6              		.eabi_attribute 20, 1
   7              		.eabi_attribute 21, 1
   8              		.eabi_attribute 23, 3
   9              		.eabi_attribute 24, 1
  10              		.eabi_attribute 25, 1
  11              		.eabi_attribute 26, 1
  12              		.eabi_attribute 30, 4
  13              		.eabi_attribute 34, 1
  14              		.eabi_attribute 18, 4
  15              		.thumb
  16              		.file	"chmsg.c"
  17              		.text
  18              	.Ltext0:
  19              		.cfi_sections	.debug_frame
  20              		.section	.text.chMsgSend,"ax",%progbits
  21              		.align	1
  22              		.global	chMsgSend
  23              		.thumb
  24              		.thumb_func
  25              		.type	chMsgSend, %function
  26              	chMsgSend:
  27              	.LFB290:
  28              		.file 1 "../../modules/ChibiOS/os/rt/src/chmsg.c"
  29              		.loc 1 87 0
  30              		.cfi_startproc
  31              		@ args = 0, pretend = 0, frame = 0
  32              		@ frame_needed = 0, uses_anonymous_args = 0
  33              	.LVL0:
  34              		.loc 1 88 0
  35 0000 114B     		ldr	r3, .L4
  36              		.loc 1 87 0
  37 0002 70B5     		push	{r4, r5, r6, lr}
  38              		.cfi_def_cfa_offset 16
  39              		.cfi_offset 4, -16
  40              		.cfi_offset 5, -12
  41              		.cfi_offset 6, -8
  42              		.cfi_offset 14, -4
  43              		.loc 1 88 0
  44 0004 9C69     		ldr	r4, [r3, #24]
  45              	.LVL1:
  46              		.loc 1 87 0
  47 0006 0546     		mov	r5, r0
  48 0008 0E46     		mov	r6, r1
  49              	.LBB34:
  50              	.LBB35:
  51              	.LBB36:
  52              	.LBB37:
  53              	.LBB38:
  54              		.file 2 "../../modules/ChibiOS/os/common/ext/ARM/CMSIS/Core/Include/cmsis_gcc.h"
  55              		.loc 2 493 0
  56 000a 2023     		movs	r3, #32
  57              	@ 493 "../../modules/ChibiOS/os/common/ext/ARM/CMSIS/Core/Include/cmsis_gcc.h" 1
ARM GAS  /tmp/ccg6DZLo.s 			page 2


  58 000c 83F31188 		MSR basepri, r3
  59              	@ 0 "" 2
  60              		.thumb
  61              	.LBE38:
  62              	.LBE37:
  63              	.LBE36:
  64              		.file 3 "../../modules/ChibiOS/os/rt/include/chsys.h"
  65              		.loc 3 356 0
  66 0010 FFF7FEFF 		bl	_stats_start_measure_crit_thd
  67              	.LVL2:
  68              	.LBE35:
  69              	.LBE34:
  70              		.loc 1 93 0
  71 0014 6662     		str	r6, [r4, #36]
  72              	.LVL3:
  73              		.loc 1 94 0
  74 0016 05F12C03 		add	r3, r5, #44
  75              	.LVL4:
  76              	.LBB39:
  77              	.LBB40:
  78              		.file 4 "../../modules/ChibiOS/os/rt/include/chschd.h"
  79              		.loc 4 600 0
  80 001a 2360     		str	r3, [r4]
  81              		.loc 4 601 0
  82 001c 2B6B     		ldr	r3, [r5, #48]
  83              	.LVL5:
  84 001e 6360     		str	r3, [r4, #4]
  85              		.loc 4 602 0
  86 0020 1C60     		str	r4, [r3]
  87              	.LVL6:
  88              	.LBE40:
  89              	.LBE39:
  90              		.loc 1 95 0
  91 0022 95F82030 		ldrb	r3, [r5, #32]	@ zero_extendqisi2
  92              	.LBB42:
  93              	.LBB41:
  94              		.loc 4 603 0
  95 0026 2C63     		str	r4, [r5, #48]
  96              	.LBE41:
  97              	.LBE42:
  98              		.loc 1 95 0
  99 0028 0E2B     		cmp	r3, #14
 100 002a 02D1     		bne	.L2
 101              		.loc 1 96 0
 102 002c 2846     		mov	r0, r5
 103 002e FFF7FEFF 		bl	chSchReadyI
 104              	.LVL7:
 105              	.L2:
 106              		.loc 1 98 0
 107 0032 0C20     		movs	r0, #12
 108 0034 FFF7FEFF 		bl	chSchGoSleepS
 109              	.LVL8:
 110              		.loc 1 99 0
 111 0038 646A     		ldr	r4, [r4, #36]
 112              	.LVL9:
 113              	.LBB43:
 114              	.LBB44:
ARM GAS  /tmp/ccg6DZLo.s 			page 3


 115              		.loc 3 368 0
 116 003a FFF7FEFF 		bl	_stats_stop_measure_crit_thd
 117              	.LVL10:
 118              	.LBB45:
 119              	.LBB46:
 120              	.LBB47:
 121              		.loc 2 493 0
 122 003e 0023     		movs	r3, #0
 123              	@ 493 "../../modules/ChibiOS/os/common/ext/ARM/CMSIS/Core/Include/cmsis_gcc.h" 1
 124 0040 83F31188 		MSR basepri, r3
 125              	@ 0 "" 2
 126              		.thumb
 127              	.LBE47:
 128              	.LBE46:
 129              	.LBE45:
 130              	.LBE44:
 131              	.LBE43:
 132              		.loc 1 103 0
 133 0044 2046     		mov	r0, r4
 134 0046 70BD     		pop	{r4, r5, r6, pc}
 135              	.LVL11:
 136              	.L5:
 137              		.align	2
 138              	.L4:
 139 0048 00000000 		.word	ch
 140              		.cfi_endproc
 141              	.LFE290:
 142              		.size	chMsgSend, .-chMsgSend
 143              		.section	.text.chMsgWait,"ax",%progbits
 144              		.align	1
 145              		.global	chMsgWait
 146              		.thumb
 147              		.thumb_func
 148              		.type	chMsgWait, %function
 149              	chMsgWait:
 150              	.LFB291:
 151              		.loc 1 121 0
 152              		.cfi_startproc
 153              		@ args = 0, pretend = 0, frame = 0
 154              		@ frame_needed = 0, uses_anonymous_args = 0
 155              	.LVL12:
 156 0000 10B5     		push	{r4, lr}
 157              		.cfi_def_cfa_offset 8
 158              		.cfi_offset 4, -8
 159              		.cfi_offset 14, -4
 160              	.LBB62:
 161              	.LBB63:
 162              	.LBB64:
 163              	.LBB65:
 164              	.LBB66:
 165              		.loc 2 493 0
 166 0002 2023     		movs	r3, #32
 167              	@ 493 "../../modules/ChibiOS/os/common/ext/ARM/CMSIS/Core/Include/cmsis_gcc.h" 1
 168 0004 83F31188 		MSR basepri, r3
 169              	@ 0 "" 2
 170              		.thumb
 171              	.LBE66:
ARM GAS  /tmp/ccg6DZLo.s 			page 4


 172              	.LBE65:
 173              	.LBE64:
 174              		.loc 3 356 0
 175 0008 FFF7FEFF 		bl	_stats_start_measure_crit_thd
 176              	.LVL13:
 177              	.LBE63:
 178              	.LBE62:
 179              		.loc 1 125 0
 180 000c 0D4B     		ldr	r3, .L8
 181 000e 9A69     		ldr	r2, [r3, #24]
 182              	.LVL14:
 183              	.LBB67:
 184              	.LBB68:
 185              		.file 5 "../../modules/ChibiOS/os/rt/include/chmsg.h"
 186              		.loc 5 83 0
 187 0010 02F12C01 		add	r1, r2, #44
 188              	.LBE68:
 189              	.LBE67:
 190              		.loc 1 125 0
 191 0014 D26A     		ldr	r2, [r2, #44]
 192              	.LVL15:
 193 0016 8A42     		cmp	r2, r1
 194 0018 1C46     		mov	r4, r3
 195 001a 02D1     		bne	.L7
 196              		.loc 1 126 0
 197 001c 0E20     		movs	r0, #14
 198 001e FFF7FEFF 		bl	chSchGoSleepS
 199              	.LVL16:
 200              	.L7:
 201              		.loc 1 128 0
 202 0022 A369     		ldr	r3, [r4, #24]
 203              	.LVL17:
 204              	.LBB69:
 205              	.LBB70:
 206              		.loc 4 607 0
 207 0024 DC6A     		ldr	r4, [r3, #44]
 208              	.LVL18:
 209              		.loc 4 609 0
 210 0026 2268     		ldr	r2, [r4]
 211 0028 43F82C2F 		str	r2, [r3, #44]!
 212              	.LVL19:
 213              		.loc 4 610 0
 214 002c 5360     		str	r3, [r2, #4]
 215              	.LBE70:
 216              	.LBE69:
 217              		.loc 1 129 0
 218 002e 0D23     		movs	r3, #13
 219              	.LVL20:
 220 0030 84F82030 		strb	r3, [r4, #32]
 221              	.LBB71:
 222              	.LBB72:
 223              		.loc 3 368 0
 224 0034 FFF7FEFF 		bl	_stats_stop_measure_crit_thd
 225              	.LVL21:
 226              	.LBB73:
 227              	.LBB74:
 228              	.LBB75:
ARM GAS  /tmp/ccg6DZLo.s 			page 5


 229              		.loc 2 493 0
 230 0038 0023     		movs	r3, #0
 231              	@ 493 "../../modules/ChibiOS/os/common/ext/ARM/CMSIS/Core/Include/cmsis_gcc.h" 1
 232 003a 83F31188 		MSR basepri, r3
 233              	@ 0 "" 2
 234              		.thumb
 235              	.LBE75:
 236              	.LBE74:
 237              	.LBE73:
 238              	.LBE72:
 239              	.LBE71:
 240              		.loc 1 133 0
 241 003e 2046     		mov	r0, r4
 242 0040 10BD     		pop	{r4, pc}
 243              	.LVL22:
 244              	.L9:
 245 0042 00BF     		.align	2
 246              	.L8:
 247 0044 00000000 		.word	ch
 248              		.cfi_endproc
 249              	.LFE291:
 250              		.size	chMsgWait, .-chMsgWait
 251              		.section	.text.chMsgRelease,"ax",%progbits
 252              		.align	1
 253              		.global	chMsgRelease
 254              		.thumb
 255              		.thumb_func
 256              		.type	chMsgRelease, %function
 257              	chMsgRelease:
 258              	.LFB292:
 259              		.loc 1 145 0
 260              		.cfi_startproc
 261              		@ args = 0, pretend = 0, frame = 0
 262              		@ frame_needed = 0, uses_anonymous_args = 0
 263              	.LVL23:
 264 0000 38B5     		push	{r3, r4, r5, lr}
 265              		.cfi_def_cfa_offset 16
 266              		.cfi_offset 3, -16
 267              		.cfi_offset 4, -12
 268              		.cfi_offset 5, -8
 269              		.cfi_offset 14, -4
 270              		.loc 1 145 0
 271 0002 0546     		mov	r5, r0
 272 0004 0C46     		mov	r4, r1
 273              	.LBB88:
 274              	.LBB89:
 275              	.LBB90:
 276              	.LBB91:
 277              	.LBB92:
 278              		.loc 2 493 0
 279 0006 2023     		movs	r3, #32
 280              	@ 493 "../../modules/ChibiOS/os/common/ext/ARM/CMSIS/Core/Include/cmsis_gcc.h" 1
 281 0008 83F31188 		MSR basepri, r3
 282              	@ 0 "" 2
 283              		.thumb
 284              	.LBE92:
 285              	.LBE91:
ARM GAS  /tmp/ccg6DZLo.s 			page 6


 286              	.LBE90:
 287              		.loc 3 356 0
 288 000c FFF7FEFF 		bl	_stats_start_measure_crit_thd
 289              	.LVL24:
 290              	.LBE89:
 291              	.LBE88:
 292              	.LBB93:
 293              	.LBB94:
 294              		.loc 5 117 0
 295 0010 2846     		mov	r0, r5
 296 0012 2146     		mov	r1, r4
 297 0014 FFF7FEFF 		bl	chSchWakeupS
 298              	.LVL25:
 299              	.LBE94:
 300              	.LBE93:
 301              	.LBB95:
 302              	.LBB96:
 303              		.loc 3 368 0
 304 0018 FFF7FEFF 		bl	_stats_stop_measure_crit_thd
 305              	.LVL26:
 306              	.LBB97:
 307              	.LBB98:
 308              	.LBB99:
 309              		.loc 2 493 0
 310 001c 0023     		movs	r3, #0
 311              	@ 493 "../../modules/ChibiOS/os/common/ext/ARM/CMSIS/Core/Include/cmsis_gcc.h" 1
 312 001e 83F31188 		MSR basepri, r3
 313              	@ 0 "" 2
 314              		.thumb
 315 0022 38BD     		pop	{r3, r4, r5, pc}
 316              	.LBE99:
 317              	.LBE98:
 318              	.LBE97:
 319              	.LBE96:
 320              	.LBE95:
 321              		.cfi_endproc
 322              	.LFE292:
 323              		.size	chMsgRelease, .-chMsgRelease
 324              		.text
 325              	.Letext0:
 326              		.file 6 "/usr/include/newlib/machine/_default_types.h"
 327              		.file 7 "/usr/include/newlib/sys/_stdint.h"
 328              		.file 8 "../../modules/ChibiOS/os/common/ports/ARMCMx/compilers/GCC/chtypes.h"
 329              		.file 9 "../../modules/ChibiOS/os/rt/include/chsystypes.h"
 330              		.file 10 "../../modules/ChibiOS/os/rt/include/chtime.h"
 331              		.file 11 "../../modules/ChibiOS/os/common/ports/ARMCMx/chcore.h"
 332              		.file 12 "../../modules/ChibiOS/os/common/ports/ARMCMx/chcore_v7m.h"
 333              		.file 13 "../../modules/ChibiOS/os/rt/include/chtm.h"
 334              		.file 14 "../../modules/ChibiOS/os/rt/include/chstats.h"
 335              		.file 15 "../../modules/ChibiOS/os/rt/include/chsem.h"
 336              		.file 16 "../../modules/ChibiOS/os/rt/include/chmtx.h"
 337              		.file 17 "../../modules/ChibiOS/os/common/ext/ARM/CMSIS/Core/Include/core_cm4.h"
 338              		.section	.debug_info,"",%progbits
 339              	.Ldebug_info0:
 340 0000 870C0000 		.4byte	0xc87
 341 0004 0400     		.2byte	0x4
 342 0006 00000000 		.4byte	.Ldebug_abbrev0
ARM GAS  /tmp/ccg6DZLo.s 			page 7


 343 000a 04       		.byte	0x4
 344 000b 01       		.uleb128 0x1
 345 000c D5010000 		.4byte	.LASF121
 346 0010 01       		.byte	0x1
 347 0011 79050000 		.4byte	.LASF122
 348 0015 A1050000 		.4byte	.LASF123
 349 0019 18000000 		.4byte	.Ldebug_ranges0+0x18
 350 001d 00000000 		.4byte	0
 351 0021 00000000 		.4byte	.Ldebug_line0
 352 0025 02       		.uleb128 0x2
 353 0026 04       		.byte	0x4
 354 0027 05       		.byte	0x5
 355 0028 696E7400 		.ascii	"int\000"
 356 002c 03       		.uleb128 0x3
 357 002d 04       		.byte	0x4
 358 002e 07       		.byte	0x7
 359 002f C8010000 		.4byte	.LASF0
 360 0033 03       		.uleb128 0x3
 361 0034 01       		.byte	0x1
 362 0035 06       		.byte	0x6
 363 0036 13010000 		.4byte	.LASF1
 364 003a 04       		.uleb128 0x4
 365 003b 43000000 		.4byte	.LASF5
 366 003f 06       		.byte	0x6
 367 0040 1D       		.byte	0x1d
 368 0041 45000000 		.4byte	0x45
 369 0045 03       		.uleb128 0x3
 370 0046 01       		.byte	0x1
 371 0047 08       		.byte	0x8
 372 0048 53040000 		.4byte	.LASF2
 373 004c 03       		.uleb128 0x3
 374 004d 02       		.byte	0x2
 375 004e 05       		.byte	0x5
 376 004f 61040000 		.4byte	.LASF3
 377 0053 03       		.uleb128 0x3
 378 0054 02       		.byte	0x2
 379 0055 07       		.byte	0x7
 380 0056 DD020000 		.4byte	.LASF4
 381 005a 04       		.uleb128 0x4
 382 005b 62030000 		.4byte	.LASF6
 383 005f 06       		.byte	0x6
 384 0060 3F       		.byte	0x3f
 385 0061 65000000 		.4byte	0x65
 386 0065 03       		.uleb128 0x3
 387 0066 04       		.byte	0x4
 388 0067 05       		.byte	0x5
 389 0068 49010000 		.4byte	.LASF7
 390 006c 04       		.uleb128 0x4
 391 006d 80010000 		.4byte	.LASF8
 392 0071 06       		.byte	0x6
 393 0072 41       		.byte	0x41
 394 0073 77000000 		.4byte	0x77
 395 0077 03       		.uleb128 0x3
 396 0078 04       		.byte	0x4
 397 0079 07       		.byte	0x7
 398 007a 03050000 		.4byte	.LASF9
 399 007e 03       		.uleb128 0x3
ARM GAS  /tmp/ccg6DZLo.s 			page 8


 400 007f 08       		.byte	0x8
 401 0080 05       		.byte	0x5
 402 0081 05010000 		.4byte	.LASF10
 403 0085 04       		.uleb128 0x4
 404 0086 01040000 		.4byte	.LASF11
 405 008a 06       		.byte	0x6
 406 008b 5B       		.byte	0x5b
 407 008c 90000000 		.4byte	0x90
 408 0090 03       		.uleb128 0x3
 409 0091 08       		.byte	0x8
 410 0092 07       		.byte	0x7
 411 0093 A1000000 		.4byte	.LASF12
 412 0097 04       		.uleb128 0x4
 413 0098 0B060000 		.4byte	.LASF13
 414 009c 07       		.byte	0x7
 415 009d 14       		.byte	0x14
 416 009e 3A000000 		.4byte	0x3a
 417 00a2 04       		.uleb128 0x4
 418 00a3 4B040000 		.4byte	.LASF14
 419 00a7 07       		.byte	0x7
 420 00a8 1F       		.byte	0x1f
 421 00a9 5A000000 		.4byte	0x5a
 422 00ad 04       		.uleb128 0x4
 423 00ae D1040000 		.4byte	.LASF15
 424 00b2 07       		.byte	0x7
 425 00b3 20       		.byte	0x20
 426 00b4 6C000000 		.4byte	0x6c
 427 00b8 04       		.uleb128 0x4
 428 00b9 2D000000 		.4byte	.LASF16
 429 00bd 07       		.byte	0x7
 430 00be 26       		.byte	0x26
 431 00bf 85000000 		.4byte	0x85
 432 00c3 04       		.uleb128 0x4
 433 00c4 CD050000 		.4byte	.LASF17
 434 00c8 08       		.byte	0x8
 435 00c9 27       		.byte	0x27
 436 00ca AD000000 		.4byte	0xad
 437 00ce 04       		.uleb128 0x4
 438 00cf FC000000 		.4byte	.LASF18
 439 00d3 08       		.byte	0x8
 440 00d4 28       		.byte	0x28
 441 00d5 B8000000 		.4byte	0xb8
 442 00d9 04       		.uleb128 0x4
 443 00da 35030000 		.4byte	.LASF19
 444 00de 08       		.byte	0x8
 445 00df 2A       		.byte	0x2a
 446 00e0 97000000 		.4byte	0x97
 447 00e4 04       		.uleb128 0x4
 448 00e5 5C010000 		.4byte	.LASF20
 449 00e9 08       		.byte	0x8
 450 00ea 2B       		.byte	0x2b
 451 00eb 97000000 		.4byte	0x97
 452 00ef 04       		.uleb128 0x4
 453 00f0 17040000 		.4byte	.LASF21
 454 00f4 08       		.byte	0x8
 455 00f5 2C       		.byte	0x2c
 456 00f6 97000000 		.4byte	0x97
ARM GAS  /tmp/ccg6DZLo.s 			page 9


 457 00fa 04       		.uleb128 0x4
 458 00fb 34040000 		.4byte	.LASF22
 459 00ff 08       		.byte	0x8
 460 0100 2E       		.byte	0x2e
 461 0101 AD000000 		.4byte	0xad
 462 0105 04       		.uleb128 0x4
 463 0106 0E030000 		.4byte	.LASF23
 464 010a 08       		.byte	0x8
 465 010b 2F       		.byte	0x2f
 466 010c A2000000 		.4byte	0xa2
 467 0110 04       		.uleb128 0x4
 468 0111 56030000 		.4byte	.LASF24
 469 0115 08       		.byte	0x8
 470 0116 31       		.byte	0x31
 471 0117 AD000000 		.4byte	0xad
 472 011b 04       		.uleb128 0x4
 473 011c C2010000 		.4byte	.LASF25
 474 0120 08       		.byte	0x8
 475 0121 33       		.byte	0x33
 476 0122 A2000000 		.4byte	0xa2
 477 0126 04       		.uleb128 0x4
 478 0127 19030000 		.4byte	.LASF26
 479 012b 08       		.byte	0x8
 480 012c 34       		.byte	0x34
 481 012d AD000000 		.4byte	0xad
 482 0131 04       		.uleb128 0x4
 483 0132 27050000 		.4byte	.LASF27
 484 0136 09       		.byte	0x9
 485 0137 34       		.byte	0x34
 486 0138 3C010000 		.4byte	0x13c
 487 013c 05       		.uleb128 0x5
 488 013d FF020000 		.4byte	.LASF46
 489 0141 60       		.byte	0x60
 490 0142 04       		.byte	0x4
 491 0143 8E       		.byte	0x8e
 492 0144 27020000 		.4byte	0x227
 493 0148 06       		.uleb128 0x6
 494 0149 D1020000 		.4byte	.LASF28
 495 014d 04       		.byte	0x4
 496 014e 8F       		.byte	0x8f
 497 014f 5C020000 		.4byte	0x25c
 498 0153 00       		.byte	0
 499 0154 06       		.uleb128 0x6
 500 0155 F4030000 		.4byte	.LASF29
 501 0159 04       		.byte	0x4
 502 015a 90       		.byte	0x90
 503 015b FA000000 		.4byte	0xfa
 504 015f 08       		.byte	0x8
 505 0160 07       		.uleb128 0x7
 506 0161 63747800 		.ascii	"ctx\000"
 507 0165 04       		.byte	0x4
 508 0166 91       		.byte	0x91
 509 0167 77040000 		.4byte	0x477
 510 016b 0C       		.byte	0xc
 511 016c 06       		.uleb128 0x6
 512 016d 77030000 		.4byte	.LASF30
 513 0171 04       		.byte	0x4
ARM GAS  /tmp/ccg6DZLo.s 			page 10


 514 0172 93       		.byte	0x93
 515 0173 32020000 		.4byte	0x232
 516 0177 10       		.byte	0x10
 517 0178 06       		.uleb128 0x6
 518 0179 21050000 		.4byte	.LASF31
 519 017d 04       		.byte	0x4
 520 017e 94       		.byte	0x94
 521 017f 32020000 		.4byte	0x232
 522 0183 14       		.byte	0x14
 523 0184 06       		.uleb128 0x6
 524 0185 09030000 		.4byte	.LASF32
 525 0189 04       		.byte	0x4
 526 018a 9B       		.byte	0x9b
 527 018b 5D070000 		.4byte	0x75d
 528 018f 18       		.byte	0x18
 529 0190 06       		.uleb128 0x6
 530 0191 15050000 		.4byte	.LASF33
 531 0195 04       		.byte	0x4
 532 0196 A4       		.byte	0xa4
 533 0197 6F070000 		.4byte	0x76f
 534 019b 1C       		.byte	0x1c
 535 019c 06       		.uleb128 0x6
 536 019d 43010000 		.4byte	.LASF34
 537 01a1 04       		.byte	0x4
 538 01a2 A9       		.byte	0xa9
 539 01a3 E4000000 		.4byte	0xe4
 540 01a7 20       		.byte	0x20
 541 01a8 06       		.uleb128 0x6
 542 01a9 13060000 		.4byte	.LASF35
 543 01ad 04       		.byte	0x4
 544 01ae AD       		.byte	0xad
 545 01af D9000000 		.4byte	0xd9
 546 01b3 21       		.byte	0x21
 547 01b4 06       		.uleb128 0x6
 548 01b5 1F040000 		.4byte	.LASF36
 549 01b9 04       		.byte	0x4
 550 01ba B2       		.byte	0xb2
 551 01bb EF000000 		.4byte	0xef
 552 01bf 22       		.byte	0x22
 553 01c0 08       		.uleb128 0x8
 554 01c1 7500     		.ascii	"u\000"
 555 01c3 04       		.byte	0x4
 556 01c4 0301     		.2byte	0x103
 557 01c6 93060000 		.4byte	0x693
 558 01ca 24       		.byte	0x24
 559 01cb 09       		.uleb128 0x9
 560 01cc A4010000 		.4byte	.LASF37
 561 01d0 04       		.byte	0x4
 562 01d1 0801     		.2byte	0x108
 563 01d3 38020000 		.4byte	0x238
 564 01d7 28       		.byte	0x28
 565 01d8 09       		.uleb128 0x9
 566 01d9 3A010000 		.4byte	.LASF38
 567 01dd 04       		.byte	0x4
 568 01de 0E01     		.2byte	0x10e
 569 01e0 5C020000 		.4byte	0x25c
 570 01e4 2C       		.byte	0x2c
ARM GAS  /tmp/ccg6DZLo.s 			page 11


 571 01e5 09       		.uleb128 0x9
 572 01e6 20030000 		.4byte	.LASF39
 573 01ea 04       		.byte	0x4
 574 01eb 1401     		.2byte	0x114
 575 01ed 10010000 		.4byte	0x110
 576 01f1 34       		.byte	0x34
 577 01f2 09       		.uleb128 0x9
 578 01f3 67060000 		.4byte	.LASF40
 579 01f7 04       		.byte	0x4
 580 01f8 1B01     		.2byte	0x11b
 581 01fa 57070000 		.4byte	0x757
 582 01fe 38       		.byte	0x38
 583 01ff 09       		.uleb128 0x9
 584 0200 7D030000 		.4byte	.LASF41
 585 0204 04       		.byte	0x4
 586 0205 1F01     		.2byte	0x11f
 587 0207 FA000000 		.4byte	0xfa
 588 020b 3C       		.byte	0x3c
 589 020c 09       		.uleb128 0x9
 590 020d D7020000 		.4byte	.LASF42
 591 0211 04       		.byte	0x4
 592 0212 2601     		.2byte	0x126
 593 0214 0F030000 		.4byte	0x30f
 594 0218 40       		.byte	0x40
 595 0219 09       		.uleb128 0x9
 596 021a 6A010000 		.4byte	.LASF43
 597 021e 04       		.byte	0x4
 598 021f 2C01     		.2byte	0x12c
 599 0221 44060000 		.4byte	0x644
 600 0225 48       		.byte	0x48
 601 0226 00       		.byte	0
 602 0227 04       		.uleb128 0x4
 603 0228 AC030000 		.4byte	.LASF44
 604 022c 09       		.byte	0x9
 605 022d 39       		.byte	0x39
 606 022e 32020000 		.4byte	0x232
 607 0232 0A       		.uleb128 0xa
 608 0233 04       		.byte	0x4
 609 0234 31010000 		.4byte	0x131
 610 0238 04       		.uleb128 0x4
 611 0239 3E060000 		.4byte	.LASF45
 612 023d 09       		.byte	0x9
 613 023e 3E       		.byte	0x3e
 614 023f 43020000 		.4byte	0x243
 615 0243 05       		.uleb128 0x5
 616 0244 ED040000 		.4byte	.LASF47
 617 0248 04       		.byte	0x4
 618 0249 04       		.byte	0x4
 619 024a 7C       		.byte	0x7c
 620 024b 5C020000 		.4byte	0x25c
 621 024f 06       		.uleb128 0x6
 622 0250 F7000000 		.4byte	.LASF48
 623 0254 04       		.byte	0x4
 624 0255 7D       		.byte	0x7d
 625 0256 32020000 		.4byte	0x232
 626 025a 00       		.byte	0
 627 025b 00       		.byte	0
ARM GAS  /tmp/ccg6DZLo.s 			page 12


 628 025c 04       		.uleb128 0x4
 629 025d EC050000 		.4byte	.LASF49
 630 0261 09       		.byte	0x9
 631 0262 45       		.byte	0x45
 632 0263 67020000 		.4byte	0x267
 633 0267 05       		.uleb128 0x5
 634 0268 5E000000 		.4byte	.LASF50
 635 026c 08       		.byte	0x8
 636 026d 04       		.byte	0x4
 637 026e 83       		.byte	0x83
 638 026f 8C020000 		.4byte	0x28c
 639 0273 06       		.uleb128 0x6
 640 0274 F7000000 		.4byte	.LASF48
 641 0278 04       		.byte	0x4
 642 0279 84       		.byte	0x84
 643 027a 32020000 		.4byte	0x232
 644 027e 00       		.byte	0
 645 027f 06       		.uleb128 0x6
 646 0280 4D000000 		.4byte	.LASF51
 647 0284 04       		.byte	0x4
 648 0285 85       		.byte	0x85
 649 0286 32020000 		.4byte	0x232
 650 028a 04       		.byte	0x4
 651 028b 00       		.byte	0
 652 028c 04       		.uleb128 0x4
 653 028d 00000000 		.4byte	.LASF52
 654 0291 09       		.byte	0x9
 655 0292 4C       		.byte	0x4c
 656 0293 97020000 		.4byte	0x297
 657 0297 0B       		.uleb128 0xb
 658 0298 48030000 		.4byte	.LASF53
 659 029c 1C       		.byte	0x1c
 660 029d 04       		.byte	0x4
 661 029e 5E01     		.2byte	0x15e
 662 02a0 F3020000 		.4byte	0x2f3
 663 02a4 09       		.uleb128 0x9
 664 02a5 D1020000 		.4byte	.LASF28
 665 02a9 04       		.byte	0x4
 666 02aa 5F01     		.2byte	0x15f
 667 02ac 5C020000 		.4byte	0x25c
 668 02b0 00       		.byte	0
 669 02b1 09       		.uleb128 0x9
 670 02b2 F4030000 		.4byte	.LASF29
 671 02b6 04       		.byte	0x4
 672 02b7 6001     		.2byte	0x160
 673 02b9 FA000000 		.4byte	0xfa
 674 02bd 08       		.byte	0x8
 675 02be 08       		.uleb128 0x8
 676 02bf 63747800 		.ascii	"ctx\000"
 677 02c3 04       		.byte	0x4
 678 02c4 6201     		.2byte	0x162
 679 02c6 77040000 		.4byte	0x477
 680 02ca 0C       		.byte	0xc
 681 02cb 09       		.uleb128 0x9
 682 02cc 77030000 		.4byte	.LASF30
 683 02d0 04       		.byte	0x4
 684 02d1 6501     		.2byte	0x165
ARM GAS  /tmp/ccg6DZLo.s 			page 13


 685 02d3 32020000 		.4byte	0x232
 686 02d7 10       		.byte	0x10
 687 02d8 09       		.uleb128 0x9
 688 02d9 21050000 		.4byte	.LASF31
 689 02dd 04       		.byte	0x4
 690 02de 6601     		.2byte	0x166
 691 02e0 32020000 		.4byte	0x232
 692 02e4 14       		.byte	0x14
 693 02e5 09       		.uleb128 0x9
 694 02e6 F9030000 		.4byte	.LASF54
 695 02ea 04       		.byte	0x4
 696 02eb 6901     		.2byte	0x169
 697 02ed 32020000 		.4byte	0x232
 698 02f1 18       		.byte	0x18
 699 02f2 00       		.byte	0
 700 02f3 04       		.uleb128 0x4
 701 02f4 51050000 		.4byte	.LASF55
 702 02f8 09       		.byte	0x9
 703 02f9 51       		.byte	0x51
 704 02fa FE020000 		.4byte	0x2fe
 705 02fe 0A       		.uleb128 0xa
 706 02ff 04       		.byte	0x4
 707 0300 04030000 		.4byte	0x304
 708 0304 0C       		.uleb128 0xc
 709 0305 0F030000 		.4byte	0x30f
 710 0309 0D       		.uleb128 0xd
 711 030a 0F030000 		.4byte	0x30f
 712 030e 00       		.byte	0
 713 030f 0E       		.uleb128 0xe
 714 0310 04       		.byte	0x4
 715 0311 04       		.uleb128 0x4
 716 0312 24040000 		.4byte	.LASF56
 717 0316 09       		.byte	0x9
 718 0317 56       		.byte	0x56
 719 0318 1C030000 		.4byte	0x31c
 720 031c 0B       		.uleb128 0xb
 721 031d 98040000 		.4byte	.LASF57
 722 0321 14       		.byte	0x14
 723 0322 04       		.byte	0x4
 724 0323 3901     		.2byte	0x139
 725 0325 6B030000 		.4byte	0x36b
 726 0329 09       		.uleb128 0x9
 727 032a F7000000 		.4byte	.LASF48
 728 032e 04       		.byte	0x4
 729 032f 3A01     		.2byte	0x13a
 730 0331 75070000 		.4byte	0x775
 731 0335 00       		.byte	0
 732 0336 09       		.uleb128 0x9
 733 0337 4D000000 		.4byte	.LASF51
 734 033b 04       		.byte	0x4
 735 033c 3B01     		.2byte	0x13b
 736 033e 75070000 		.4byte	0x775
 737 0342 04       		.byte	0x4
 738 0343 09       		.uleb128 0x9
 739 0344 20000000 		.4byte	.LASF58
 740 0348 04       		.byte	0x4
 741 0349 3C01     		.2byte	0x13c
ARM GAS  /tmp/ccg6DZLo.s 			page 14


 742 034b 4F040000 		.4byte	0x44f
 743 034f 08       		.byte	0x8
 744 0350 09       		.uleb128 0x9
 745 0351 65010000 		.4byte	.LASF59
 746 0355 04       		.byte	0x4
 747 0356 3D01     		.2byte	0x13d
 748 0358 F3020000 		.4byte	0x2f3
 749 035c 0C       		.byte	0xc
 750 035d 08       		.uleb128 0x8
 751 035e 70617200 		.ascii	"par\000"
 752 0362 04       		.byte	0x4
 753 0363 3F01     		.2byte	0x13f
 754 0365 0F030000 		.4byte	0x30f
 755 0369 10       		.byte	0x10
 756 036a 00       		.byte	0
 757 036b 04       		.uleb128 0x4
 758 036c D4000000 		.4byte	.LASF60
 759 0370 09       		.byte	0x9
 760 0371 5B       		.byte	0x5b
 761 0372 76030000 		.4byte	0x376
 762 0376 0B       		.uleb128 0xb
 763 0377 BF030000 		.4byte	.LASF61
 764 037b 10       		.byte	0x10
 765 037c 04       		.byte	0x4
 766 037d 4901     		.2byte	0x149
 767 037f B8030000 		.4byte	0x3b8
 768 0383 09       		.uleb128 0x9
 769 0384 F7000000 		.4byte	.LASF48
 770 0388 04       		.byte	0x4
 771 0389 4A01     		.2byte	0x14a
 772 038b 75070000 		.4byte	0x775
 773 038f 00       		.byte	0
 774 0390 09       		.uleb128 0x9
 775 0391 4D000000 		.4byte	.LASF51
 776 0395 04       		.byte	0x4
 777 0396 4C01     		.2byte	0x14c
 778 0398 75070000 		.4byte	0x775
 779 039c 04       		.byte	0x4
 780 039d 09       		.uleb128 0x9
 781 039e 20000000 		.4byte	.LASF58
 782 03a2 04       		.byte	0x4
 783 03a3 4E01     		.2byte	0x14e
 784 03a5 4F040000 		.4byte	0x44f
 785 03a9 08       		.byte	0x8
 786 03aa 09       		.uleb128 0x9
 787 03ab 6B040000 		.4byte	.LASF62
 788 03af 04       		.byte	0x4
 789 03b0 5601     		.2byte	0x156
 790 03b2 44040000 		.4byte	0x444
 791 03b6 0C       		.byte	0xc
 792 03b7 00       		.byte	0
 793 03b8 04       		.uleb128 0x4
 794 03b9 6F000000 		.4byte	.LASF63
 795 03bd 09       		.byte	0x9
 796 03be 60       		.byte	0x60
 797 03bf C3030000 		.4byte	0x3c3
 798 03c3 0B       		.uleb128 0xb
ARM GAS  /tmp/ccg6DZLo.s 			page 15


 799 03c4 94010000 		.4byte	.LASF64
 800 03c8 04       		.byte	0x4
 801 03c9 04       		.byte	0x4
 802 03ca 7001     		.2byte	0x170
 803 03cc DE030000 		.4byte	0x3de
 804 03d0 09       		.uleb128 0x9
 805 03d1 68050000 		.4byte	.LASF65
 806 03d5 04       		.byte	0x4
 807 03d6 7801     		.2byte	0x178
 808 03d8 7B070000 		.4byte	0x77b
 809 03dc 00       		.byte	0
 810 03dd 00       		.byte	0
 811 03de 04       		.uleb128 0x4
 812 03df 29030000 		.4byte	.LASF66
 813 03e3 09       		.byte	0x9
 814 03e4 65       		.byte	0x65
 815 03e5 E9030000 		.4byte	0x3e9
 816 03e9 0B       		.uleb128 0xb
 817 03ea 7B040000 		.4byte	.LASF67
 818 03ee D0       		.byte	0xd0
 819 03ef 04       		.byte	0x4
 820 03f0 9001     		.2byte	0x190
 821 03f2 44040000 		.4byte	0x444
 822 03f6 09       		.uleb128 0x9
 823 03f7 05060000 		.4byte	.LASF68
 824 03fb 04       		.byte	0x4
 825 03fc 9401     		.2byte	0x194
 826 03fe 8C020000 		.4byte	0x28c
 827 0402 00       		.byte	0
 828 0403 09       		.uleb128 0x9
 829 0404 27010000 		.4byte	.LASF69
 830 0408 04       		.byte	0x4
 831 0409 9801     		.2byte	0x198
 832 040b 6B030000 		.4byte	0x36b
 833 040f 1C       		.byte	0x1c
 834 0410 08       		.uleb128 0x8
 835 0411 64626700 		.ascii	"dbg\000"
 836 0415 04       		.byte	0x4
 837 0416 9C01     		.2byte	0x19c
 838 0418 B8030000 		.4byte	0x3b8
 839 041c 2C       		.byte	0x2c
 840 041d 09       		.uleb128 0x9
 841 041e C1000000 		.4byte	.LASF70
 842 0422 04       		.byte	0x4
 843 0423 A001     		.2byte	0x1a0
 844 0425 31010000 		.4byte	0x131
 845 0429 30       		.byte	0x30
 846 042a 08       		.uleb128 0x8
 847 042b 746D00   		.ascii	"tm\000"
 848 042e 04       		.byte	0x4
 849 042f A501     		.2byte	0x1a5
 850 0431 F6050000 		.4byte	0x5f6
 851 0435 90       		.byte	0x90
 852 0436 09       		.uleb128 0x9
 853 0437 36000000 		.4byte	.LASF71
 854 043b 04       		.byte	0x4
 855 043c AB01     		.2byte	0x1ab
ARM GAS  /tmp/ccg6DZLo.s 			page 16


 856 043e 88060000 		.4byte	0x688
 857 0442 98       		.byte	0x98
 858 0443 00       		.byte	0
 859 0444 04       		.uleb128 0x4
 860 0445 47050000 		.4byte	.LASF72
 861 0449 0A       		.byte	0xa
 862 044a 6D       		.byte	0x6d
 863 044b AD000000 		.4byte	0xad
 864 044f 04       		.uleb128 0x4
 865 0450 B4010000 		.4byte	.LASF73
 866 0454 0A       		.byte	0xa
 867 0455 79       		.byte	0x79
 868 0456 AD000000 		.4byte	0xad
 869 045a 03       		.uleb128 0x3
 870 045b 04       		.byte	0x4
 871 045c 07       		.byte	0x7
 872 045d A3030000 		.4byte	.LASF74
 873 0461 04       		.uleb128 0x4
 874 0462 8B010000 		.4byte	.LASF75
 875 0466 0B       		.byte	0xb
 876 0467 65       		.byte	0x65
 877 0468 0F030000 		.4byte	0x30f
 878 046c 04       		.uleb128 0x4
 879 046d 6C030000 		.4byte	.LASF76
 880 0471 0B       		.byte	0xb
 881 0472 6D       		.byte	0x6d
 882 0473 B8000000 		.4byte	0xb8
 883 0477 05       		.uleb128 0x5
 884 0478 D6030000 		.4byte	.LASF77
 885 047c 04       		.byte	0x4
 886 047d 0B       		.byte	0xb
 887 047e 89       		.byte	0x89
 888 047f 8F040000 		.4byte	0x48f
 889 0483 07       		.uleb128 0x7
 890 0484 737000   		.ascii	"sp\000"
 891 0487 0B       		.byte	0xb
 892 0488 8A       		.byte	0x8a
 893 0489 DB050000 		.4byte	0x5db
 894 048d 00       		.byte	0
 895 048e 00       		.byte	0
 896 048f 0B       		.uleb128 0xb
 897 0490 52000000 		.4byte	.LASF78
 898 0494 64       		.byte	0x64
 899 0495 0C       		.byte	0xc
 900 0496 5901     		.2byte	0x159
 901 0498 DB050000 		.4byte	0x5db
 902 049c 08       		.uleb128 0x8
 903 049d 73313600 		.ascii	"s16\000"
 904 04a1 0C       		.byte	0xc
 905 04a2 5B01     		.2byte	0x15b
 906 04a4 61040000 		.4byte	0x461
 907 04a8 00       		.byte	0
 908 04a9 08       		.uleb128 0x8
 909 04aa 73313700 		.ascii	"s17\000"
 910 04ae 0C       		.byte	0xc
 911 04af 5C01     		.2byte	0x15c
 912 04b1 61040000 		.4byte	0x461
ARM GAS  /tmp/ccg6DZLo.s 			page 17


 913 04b5 04       		.byte	0x4
 914 04b6 08       		.uleb128 0x8
 915 04b7 73313800 		.ascii	"s18\000"
 916 04bb 0C       		.byte	0xc
 917 04bc 5D01     		.2byte	0x15d
 918 04be 61040000 		.4byte	0x461
 919 04c2 08       		.byte	0x8
 920 04c3 08       		.uleb128 0x8
 921 04c4 73313900 		.ascii	"s19\000"
 922 04c8 0C       		.byte	0xc
 923 04c9 5E01     		.2byte	0x15e
 924 04cb 61040000 		.4byte	0x461
 925 04cf 0C       		.byte	0xc
 926 04d0 08       		.uleb128 0x8
 927 04d1 73323000 		.ascii	"s20\000"
 928 04d5 0C       		.byte	0xc
 929 04d6 5F01     		.2byte	0x15f
 930 04d8 61040000 		.4byte	0x461
 931 04dc 10       		.byte	0x10
 932 04dd 08       		.uleb128 0x8
 933 04de 73323100 		.ascii	"s21\000"
 934 04e2 0C       		.byte	0xc
 935 04e3 6001     		.2byte	0x160
 936 04e5 61040000 		.4byte	0x461
 937 04e9 14       		.byte	0x14
 938 04ea 08       		.uleb128 0x8
 939 04eb 73323200 		.ascii	"s22\000"
 940 04ef 0C       		.byte	0xc
 941 04f0 6101     		.2byte	0x161
 942 04f2 61040000 		.4byte	0x461
 943 04f6 18       		.byte	0x18
 944 04f7 08       		.uleb128 0x8
 945 04f8 73323300 		.ascii	"s23\000"
 946 04fc 0C       		.byte	0xc
 947 04fd 6201     		.2byte	0x162
 948 04ff 61040000 		.4byte	0x461
 949 0503 1C       		.byte	0x1c
 950 0504 08       		.uleb128 0x8
 951 0505 73323400 		.ascii	"s24\000"
 952 0509 0C       		.byte	0xc
 953 050a 6301     		.2byte	0x163
 954 050c 61040000 		.4byte	0x461
 955 0510 20       		.byte	0x20
 956 0511 08       		.uleb128 0x8
 957 0512 73323500 		.ascii	"s25\000"
 958 0516 0C       		.byte	0xc
 959 0517 6401     		.2byte	0x164
 960 0519 61040000 		.4byte	0x461
 961 051d 24       		.byte	0x24
 962 051e 08       		.uleb128 0x8
 963 051f 73323600 		.ascii	"s26\000"
 964 0523 0C       		.byte	0xc
 965 0524 6501     		.2byte	0x165
 966 0526 61040000 		.4byte	0x461
 967 052a 28       		.byte	0x28
 968 052b 08       		.uleb128 0x8
 969 052c 73323700 		.ascii	"s27\000"
ARM GAS  /tmp/ccg6DZLo.s 			page 18


 970 0530 0C       		.byte	0xc
 971 0531 6601     		.2byte	0x166
 972 0533 61040000 		.4byte	0x461
 973 0537 2C       		.byte	0x2c
 974 0538 08       		.uleb128 0x8
 975 0539 73323800 		.ascii	"s28\000"
 976 053d 0C       		.byte	0xc
 977 053e 6701     		.2byte	0x167
 978 0540 61040000 		.4byte	0x461
 979 0544 30       		.byte	0x30
 980 0545 08       		.uleb128 0x8
 981 0546 73323900 		.ascii	"s29\000"
 982 054a 0C       		.byte	0xc
 983 054b 6801     		.2byte	0x168
 984 054d 61040000 		.4byte	0x461
 985 0551 34       		.byte	0x34
 986 0552 08       		.uleb128 0x8
 987 0553 73333000 		.ascii	"s30\000"
 988 0557 0C       		.byte	0xc
 989 0558 6901     		.2byte	0x169
 990 055a 61040000 		.4byte	0x461
 991 055e 38       		.byte	0x38
 992 055f 08       		.uleb128 0x8
 993 0560 73333100 		.ascii	"s31\000"
 994 0564 0C       		.byte	0xc
 995 0565 6A01     		.2byte	0x16a
 996 0567 61040000 		.4byte	0x461
 997 056b 3C       		.byte	0x3c
 998 056c 08       		.uleb128 0x8
 999 056d 723400   		.ascii	"r4\000"
 1000 0570 0C       		.byte	0xc
 1001 0571 6C01     		.2byte	0x16c
 1002 0573 61040000 		.4byte	0x461
 1003 0577 40       		.byte	0x40
 1004 0578 08       		.uleb128 0x8
 1005 0579 723500   		.ascii	"r5\000"
 1006 057c 0C       		.byte	0xc
 1007 057d 6D01     		.2byte	0x16d
 1008 057f 61040000 		.4byte	0x461
 1009 0583 44       		.byte	0x44
 1010 0584 08       		.uleb128 0x8
 1011 0585 723600   		.ascii	"r6\000"
 1012 0588 0C       		.byte	0xc
 1013 0589 6E01     		.2byte	0x16e
 1014 058b 61040000 		.4byte	0x461
 1015 058f 48       		.byte	0x48
 1016 0590 08       		.uleb128 0x8
 1017 0591 723700   		.ascii	"r7\000"
 1018 0594 0C       		.byte	0xc
 1019 0595 6F01     		.2byte	0x16f
 1020 0597 61040000 		.4byte	0x461
 1021 059b 4C       		.byte	0x4c
 1022 059c 08       		.uleb128 0x8
 1023 059d 723800   		.ascii	"r8\000"
 1024 05a0 0C       		.byte	0xc
 1025 05a1 7001     		.2byte	0x170
 1026 05a3 61040000 		.4byte	0x461
ARM GAS  /tmp/ccg6DZLo.s 			page 19


 1027 05a7 50       		.byte	0x50
 1028 05a8 08       		.uleb128 0x8
 1029 05a9 723900   		.ascii	"r9\000"
 1030 05ac 0C       		.byte	0xc
 1031 05ad 7101     		.2byte	0x171
 1032 05af 61040000 		.4byte	0x461
 1033 05b3 54       		.byte	0x54
 1034 05b4 08       		.uleb128 0x8
 1035 05b5 72313000 		.ascii	"r10\000"
 1036 05b9 0C       		.byte	0xc
 1037 05ba 7201     		.2byte	0x172
 1038 05bc 61040000 		.4byte	0x461
 1039 05c0 58       		.byte	0x58
 1040 05c1 08       		.uleb128 0x8
 1041 05c2 72313100 		.ascii	"r11\000"
 1042 05c6 0C       		.byte	0xc
 1043 05c7 7301     		.2byte	0x173
 1044 05c9 61040000 		.4byte	0x461
 1045 05cd 5C       		.byte	0x5c
 1046 05ce 08       		.uleb128 0x8
 1047 05cf 6C7200   		.ascii	"lr\000"
 1048 05d2 0C       		.byte	0xc
 1049 05d3 7401     		.2byte	0x174
 1050 05d5 61040000 		.4byte	0x461
 1051 05d9 60       		.byte	0x60
 1052 05da 00       		.byte	0
 1053 05db 0A       		.uleb128 0xa
 1054 05dc 04       		.byte	0x4
 1055 05dd 8F040000 		.4byte	0x48f
 1056 05e1 0F       		.uleb128 0xf
 1057 05e2 04       		.byte	0x4
 1058 05e3 0D       		.byte	0xd
 1059 05e4 38       		.byte	0x38
 1060 05e5 F6050000 		.4byte	0x5f6
 1061 05e9 06       		.uleb128 0x6
 1062 05ea 72050000 		.4byte	.LASF79
 1063 05ee 0D       		.byte	0xd
 1064 05ef 3C       		.byte	0x3c
 1065 05f0 C3000000 		.4byte	0xc3
 1066 05f4 00       		.byte	0
 1067 05f5 00       		.byte	0
 1068 05f6 04       		.uleb128 0x4
 1069 05f7 E3030000 		.4byte	.LASF80
 1070 05fb 0D       		.byte	0xd
 1071 05fc 3D       		.byte	0x3d
 1072 05fd E1050000 		.4byte	0x5e1
 1073 0601 0F       		.uleb128 0xf
 1074 0602 18       		.byte	0x18
 1075 0603 0D       		.byte	0xd
 1076 0604 48       		.byte	0x48
 1077 0605 44060000 		.4byte	0x644
 1078 0609 06       		.uleb128 0x6
 1079 060a 30050000 		.4byte	.LASF81
 1080 060e 0D       		.byte	0xd
 1081 060f 49       		.byte	0x49
 1082 0610 C3000000 		.4byte	0xc3
 1083 0614 00       		.byte	0
ARM GAS  /tmp/ccg6DZLo.s 			page 20


 1084 0615 06       		.uleb128 0x6
 1085 0616 88000000 		.4byte	.LASF82
 1086 061a 0D       		.byte	0xd
 1087 061b 4A       		.byte	0x4a
 1088 061c C3000000 		.4byte	0xc3
 1089 0620 04       		.byte	0x4
 1090 0621 06       		.uleb128 0x6
 1091 0622 14030000 		.4byte	.LASF83
 1092 0626 0D       		.byte	0xd
 1093 0627 4B       		.byte	0x4b
 1094 0628 C3000000 		.4byte	0xc3
 1095 062c 08       		.byte	0x8
 1096 062d 07       		.uleb128 0x7
 1097 062e 6E00     		.ascii	"n\000"
 1098 0630 0D       		.byte	0xd
 1099 0631 4C       		.byte	0x4c
 1100 0632 26010000 		.4byte	0x126
 1101 0636 0C       		.byte	0xc
 1102 0637 06       		.uleb128 0x6
 1103 0638 0C040000 		.4byte	.LASF84
 1104 063c 0D       		.byte	0xd
 1105 063d 4D       		.byte	0x4d
 1106 063e CE000000 		.4byte	0xce
 1107 0642 10       		.byte	0x10
 1108 0643 00       		.byte	0
 1109 0644 04       		.uleb128 0x4
 1110 0645 8E000000 		.4byte	.LASF85
 1111 0649 0D       		.byte	0xd
 1112 064a 4E       		.byte	0x4e
 1113 064b 01060000 		.4byte	0x601
 1114 064f 0F       		.uleb128 0xf
 1115 0650 38       		.byte	0x38
 1116 0651 0E       		.byte	0xe
 1117 0652 38       		.byte	0x38
 1118 0653 88060000 		.4byte	0x688
 1119 0657 06       		.uleb128 0x6
 1120 0658 CB020000 		.4byte	.LASF86
 1121 065c 0E       		.byte	0xe
 1122 065d 39       		.byte	0x39
 1123 065e 26010000 		.4byte	0x126
 1124 0662 00       		.byte	0
 1125 0663 06       		.uleb128 0x6
 1126 0664 3C040000 		.4byte	.LASF87
 1127 0668 0E       		.byte	0xe
 1128 0669 3A       		.byte	0x3a
 1129 066a 26010000 		.4byte	0x126
 1130 066e 04       		.byte	0x4
 1131 066f 06       		.uleb128 0x6
 1132 0670 6F060000 		.4byte	.LASF88
 1133 0674 0E       		.byte	0xe
 1134 0675 3B       		.byte	0x3b
 1135 0676 44060000 		.4byte	0x644
 1136 067a 08       		.byte	0x8
 1137 067b 06       		.uleb128 0x6
 1138 067c 3D030000 		.4byte	.LASF89
 1139 0680 0E       		.byte	0xe
 1140 0681 3D       		.byte	0x3d
ARM GAS  /tmp/ccg6DZLo.s 			page 21


 1141 0682 44060000 		.4byte	0x644
 1142 0686 20       		.byte	0x20
 1143 0687 00       		.byte	0
 1144 0688 04       		.uleb128 0x4
 1145 0689 F0020000 		.4byte	.LASF90
 1146 068d 0E       		.byte	0xe
 1147 068e 3F       		.byte	0x3f
 1148 068f 4F060000 		.4byte	0x64f
 1149 0693 10       		.uleb128 0x10
 1150 0694 04       		.byte	0x4
 1151 0695 04       		.byte	0x4
 1152 0696 C6       		.byte	0xc6
 1153 0697 F5060000 		.4byte	0x6f5
 1154 069b 11       		.uleb128 0x11
 1155 069c 26000000 		.4byte	.LASF91
 1156 06a0 04       		.byte	0x4
 1157 06a1 CD       		.byte	0xcd
 1158 06a2 05010000 		.4byte	0x105
 1159 06a6 11       		.uleb128 0x11
 1160 06a7 B8000000 		.4byte	.LASF92
 1161 06ab 04       		.byte	0x4
 1162 06ac D4       		.byte	0xd4
 1163 06ad 05010000 		.4byte	0x105
 1164 06b1 11       		.uleb128 0x11
 1165 06b2 37060000 		.4byte	.LASF93
 1166 06b6 04       		.byte	0x4
 1167 06b7 DB       		.byte	0xdb
 1168 06b8 0F030000 		.4byte	0x30f
 1169 06bc 11       		.uleb128 0x11
 1170 06bd 1A000000 		.4byte	.LASF94
 1171 06c1 04       		.byte	0x4
 1172 06c2 E2       		.byte	0xe2
 1173 06c3 F5060000 		.4byte	0x6f5
 1174 06c7 11       		.uleb128 0x11
 1175 06c8 CC000000 		.4byte	.LASF95
 1176 06cc 04       		.byte	0x4
 1177 06cd E7       		.byte	0xe7
 1178 06ce 05010000 		.4byte	0x105
 1179 06d2 11       		.uleb128 0x11
 1180 06d3 C4020000 		.4byte	.LASF96
 1181 06d7 04       		.byte	0x4
 1182 06d8 F0       		.byte	0xf0
 1183 06d9 20070000 		.4byte	0x720
 1184 06dd 11       		.uleb128 0x11
 1185 06de DA040000 		.4byte	.LASF97
 1186 06e2 04       		.byte	0x4
 1187 06e3 F9       		.byte	0xf9
 1188 06e4 57070000 		.4byte	0x757
 1189 06e8 12       		.uleb128 0x12
 1190 06e9 74040000 		.4byte	.LASF98
 1191 06ed 04       		.byte	0x4
 1192 06ee 0101     		.2byte	0x101
 1193 06f0 10010000 		.4byte	0x110
 1194 06f4 00       		.byte	0
 1195 06f5 0A       		.uleb128 0xa
 1196 06f6 04       		.byte	0x4
 1197 06f7 27020000 		.4byte	0x227
ARM GAS  /tmp/ccg6DZLo.s 			page 22


 1198 06fb 05       		.uleb128 0x5
 1199 06fc B6040000 		.4byte	.LASF99
 1200 0700 0C       		.byte	0xc
 1201 0701 0F       		.byte	0xf
 1202 0702 34       		.byte	0x34
 1203 0703 20070000 		.4byte	0x720
 1204 0707 06       		.uleb128 0x6
 1205 0708 D1020000 		.4byte	.LASF28
 1206 070c 0F       		.byte	0xf
 1207 070d 35       		.byte	0x35
 1208 070e 5C020000 		.4byte	0x25c
 1209 0712 00       		.byte	0
 1210 0713 07       		.uleb128 0x7
 1211 0714 636E7400 		.ascii	"cnt\000"
 1212 0718 0F       		.byte	0xf
 1213 0719 37       		.byte	0x37
 1214 071a 1B010000 		.4byte	0x11b
 1215 071e 08       		.byte	0x8
 1216 071f 00       		.byte	0
 1217 0720 0A       		.uleb128 0xa
 1218 0721 04       		.byte	0x4
 1219 0722 FB060000 		.4byte	0x6fb
 1220 0726 05       		.uleb128 0x5
 1221 0727 FC050000 		.4byte	.LASF100
 1222 072b 10       		.byte	0x10
 1223 072c 10       		.byte	0x10
 1224 072d 39       		.byte	0x39
 1225 072e 57070000 		.4byte	0x757
 1226 0732 06       		.uleb128 0x6
 1227 0733 D1020000 		.4byte	.LASF28
 1228 0737 10       		.byte	0x10
 1229 0738 3A       		.byte	0x3a
 1230 0739 5C020000 		.4byte	0x25c
 1231 073d 00       		.byte	0
 1232 073e 06       		.uleb128 0x6
 1233 073f FD040000 		.4byte	.LASF101
 1234 0743 10       		.byte	0x10
 1235 0744 3C       		.byte	0x3c
 1236 0745 32020000 		.4byte	0x232
 1237 0749 08       		.byte	0x8
 1238 074a 06       		.uleb128 0x6
 1239 074b F7000000 		.4byte	.LASF48
 1240 074f 10       		.byte	0x10
 1241 0750 3E       		.byte	0x3e
 1242 0751 8B070000 		.4byte	0x78b
 1243 0755 0C       		.byte	0xc
 1244 0756 00       		.byte	0
 1245 0757 0A       		.uleb128 0xa
 1246 0758 04       		.byte	0x4
 1247 0759 26070000 		.4byte	0x726
 1248 075d 0A       		.uleb128 0xa
 1249 075e 04       		.byte	0x4
 1250 075f 63070000 		.4byte	0x763
 1251 0763 13       		.uleb128 0x13
 1252 0764 68070000 		.4byte	0x768
 1253 0768 03       		.uleb128 0x3
 1254 0769 01       		.byte	0x1
ARM GAS  /tmp/ccg6DZLo.s 			page 23


 1255 076a 08       		.byte	0x8
 1256 076b 1C050000 		.4byte	.LASF102
 1257 076f 0A       		.uleb128 0xa
 1258 0770 04       		.byte	0x4
 1259 0771 6C040000 		.4byte	0x46c
 1260 0775 0A       		.uleb128 0xa
 1261 0776 04       		.byte	0x4
 1262 0777 11030000 		.4byte	0x311
 1263 077b 14       		.uleb128 0x14
 1264 077c 5D070000 		.4byte	0x75d
 1265 0780 04       		.uleb128 0x4
 1266 0781 AC010000 		.4byte	.LASF103
 1267 0785 10       		.byte	0x10
 1268 0786 34       		.byte	0x34
 1269 0787 26070000 		.4byte	0x726
 1270 078b 0A       		.uleb128 0xa
 1271 078c 04       		.byte	0x4
 1272 078d 80070000 		.4byte	0x780
 1273 0791 03       		.uleb128 0x3
 1274 0792 01       		.byte	0x1
 1275 0793 02       		.byte	0x2
 1276 0794 45040000 		.4byte	.LASF104
 1277 0798 15       		.uleb128 0x15
 1278 0799 5A050000 		.4byte	.LASF107
 1279 079d 02       		.byte	0x2
 1280 079e EB01     		.2byte	0x1eb
 1281 07a0 03       		.byte	0x3
 1282 07a1 B2070000 		.4byte	0x7b2
 1283 07a5 16       		.uleb128 0x16
 1284 07a6 1F010000 		.4byte	.LASF109
 1285 07aa 02       		.byte	0x2
 1286 07ab EB01     		.2byte	0x1eb
 1287 07ad AD000000 		.4byte	0xad
 1288 07b1 00       		.byte	0
 1289 07b2 17       		.uleb128 0x17
 1290 07b3 7E000000 		.4byte	.LASF105
 1291 07b7 0C       		.byte	0xc
 1292 07b8 5A02     		.2byte	0x25a
 1293 07ba 03       		.byte	0x3
 1294 07bb 17       		.uleb128 0x17
 1295 07bc 2E010000 		.4byte	.LASF106
 1296 07c0 0C       		.byte	0xc
 1297 07c1 7202     		.2byte	0x272
 1298 07c3 03       		.byte	0x3
 1299 07c4 15       		.uleb128 0x15
 1300 07c5 0D000000 		.4byte	.LASF108
 1301 07c9 04       		.byte	0x4
 1302 07ca 5602     		.2byte	0x256
 1303 07cc 03       		.byte	0x3
 1304 07cd E9070000 		.4byte	0x7e9
 1305 07d1 18       		.uleb128 0x18
 1306 07d2 747000   		.ascii	"tp\000"
 1307 07d5 04       		.byte	0x4
 1308 07d6 5602     		.2byte	0x256
 1309 07d8 32020000 		.4byte	0x232
 1310 07dc 18       		.uleb128 0x18
 1311 07dd 74717000 		.ascii	"tqp\000"
ARM GAS  /tmp/ccg6DZLo.s 			page 24


 1312 07e1 04       		.byte	0x4
 1313 07e2 5602     		.2byte	0x256
 1314 07e4 E9070000 		.4byte	0x7e9
 1315 07e8 00       		.byte	0
 1316 07e9 0A       		.uleb128 0xa
 1317 07ea 04       		.byte	0x4
 1318 07eb 5C020000 		.4byte	0x25c
 1319 07ef 19       		.uleb128 0x19
 1320 07f0 70010000 		.4byte	.LASF110
 1321 07f4 05       		.byte	0x5
 1322 07f5 4F       		.byte	0x4f
 1323 07f6 91070000 		.4byte	0x791
 1324 07fa 03       		.byte	0x3
 1325 07fb 0A080000 		.4byte	0x80a
 1326 07ff 1A       		.uleb128 0x1a
 1327 0800 747000   		.ascii	"tp\000"
 1328 0803 05       		.byte	0x5
 1329 0804 4F       		.byte	0x4f
 1330 0805 32020000 		.4byte	0x232
 1331 0809 00       		.byte	0
 1332 080a 1B       		.uleb128 0x1b
 1333 080b 35050000 		.4byte	.LASF111
 1334 080f 04       		.byte	0x4
 1335 0810 5E02     		.2byte	0x25e
 1336 0812 32020000 		.4byte	0x232
 1337 0816 03       		.byte	0x3
 1338 0817 33080000 		.4byte	0x833
 1339 081b 18       		.uleb128 0x18
 1340 081c 74717000 		.ascii	"tqp\000"
 1341 0820 04       		.byte	0x4
 1342 0821 5E02     		.2byte	0x25e
 1343 0823 E9070000 		.4byte	0x7e9
 1344 0827 1C       		.uleb128 0x1c
 1345 0828 747000   		.ascii	"tp\000"
 1346 082b 04       		.byte	0x4
 1347 082c 5F02     		.2byte	0x25f
 1348 082e 32020000 		.4byte	0x232
 1349 0832 00       		.byte	0
 1350 0833 1D       		.uleb128 0x1d
 1351 0834 59060000 		.4byte	.LASF112
 1352 0838 05       		.byte	0x5
 1353 0839 71       		.byte	0x71
 1354 083a 03       		.byte	0x3
 1355 083b 55080000 		.4byte	0x855
 1356 083f 1A       		.uleb128 0x1a
 1357 0840 747000   		.ascii	"tp\000"
 1358 0843 05       		.byte	0x5
 1359 0844 71       		.byte	0x71
 1360 0845 32020000 		.4byte	0x232
 1361 0849 1A       		.uleb128 0x1a
 1362 084a 6D736700 		.ascii	"msg\000"
 1363 084e 05       		.byte	0x5
 1364 084f 71       		.byte	0x71
 1365 0850 05010000 		.4byte	0x105
 1366 0854 00       		.byte	0
 1367 0855 17       		.uleb128 0x17
 1368 0856 8E040000 		.4byte	.LASF113
ARM GAS  /tmp/ccg6DZLo.s 			page 25


 1369 085a 03       		.byte	0x3
 1370 085b 6101     		.2byte	0x161
 1371 085d 03       		.byte	0x3
 1372 085e 15       		.uleb128 0x15
 1373 085f 4D060000 		.4byte	.LASF114
 1374 0863 03       		.byte	0x3
 1375 0864 6D01     		.2byte	0x16d
 1376 0866 03       		.byte	0x3
 1377 0867 79080000 		.4byte	0x879
 1378 086b 1E       		.uleb128 0x1e
 1379 086c 85040000 		.4byte	.LASF115
 1380 0870 89080000 		.4byte	0x889
 1381 0874 4D060000 		.4byte	.LASF114
 1382 0878 00       		.byte	0
 1383 0879 1F       		.uleb128 0x1f
 1384 087a 68070000 		.4byte	0x768
 1385 087e 89080000 		.4byte	0x889
 1386 0882 20       		.uleb128 0x20
 1387 0883 5A040000 		.4byte	0x45a
 1388 0887 0B       		.byte	0xb
 1389 0888 00       		.byte	0
 1390 0889 13       		.uleb128 0x13
 1391 088a 79080000 		.4byte	0x879
 1392 088e 21       		.uleb128 0x21
 1393 088f 52010000 		.4byte	.LASF116
 1394 0893 01       		.byte	0x1
 1395 0894 57       		.byte	0x57
 1396 0895 05010000 		.4byte	0x105
 1397 0899 00000000 		.4byte	.LFB290
 1398 089d 4C000000 		.4byte	.LFE290-.LFB290
 1399 08a1 01       		.uleb128 0x1
 1400 08a2 9C       		.byte	0x9c
 1401 08a3 C7090000 		.4byte	0x9c7
 1402 08a7 22       		.uleb128 0x22
 1403 08a8 747000   		.ascii	"tp\000"
 1404 08ab 01       		.byte	0x1
 1405 08ac 57       		.byte	0x57
 1406 08ad 32020000 		.4byte	0x232
 1407 08b1 00000000 		.4byte	.LLST0
 1408 08b5 22       		.uleb128 0x22
 1409 08b6 6D736700 		.ascii	"msg\000"
 1410 08ba 01       		.byte	0x1
 1411 08bb 57       		.byte	0x57
 1412 08bc 05010000 		.4byte	0x105
 1413 08c0 2C000000 		.4byte	.LLST1
 1414 08c4 23       		.uleb128 0x23
 1415 08c5 63747000 		.ascii	"ctp\000"
 1416 08c9 01       		.byte	0x1
 1417 08ca 58       		.byte	0x58
 1418 08cb 32020000 		.4byte	0x232
 1419 08cf 60000000 		.4byte	.LLST2
 1420 08d3 24       		.uleb128 0x24
 1421 08d4 85040000 		.4byte	.LASF115
 1422 08d8 D7090000 		.4byte	0x9d7
 1423 08dc 25       		.uleb128 0x25
 1424 08dd 55080000 		.4byte	0x855
 1425 08e1 0A000000 		.4byte	.LBB34
ARM GAS  /tmp/ccg6DZLo.s 			page 26


 1426 08e5 0A000000 		.4byte	.LBE34-.LBB34
 1427 08e9 01       		.byte	0x1
 1428 08ea 5C       		.byte	0x5c
 1429 08eb 25090000 		.4byte	0x925
 1430 08ef 26       		.uleb128 0x26
 1431 08f0 B2070000 		.4byte	0x7b2
 1432 08f4 0A000000 		.4byte	.LBB36
 1433 08f8 06000000 		.4byte	.LBE36-.LBB36
 1434 08fc 03       		.byte	0x3
 1435 08fd 6301     		.2byte	0x163
 1436 08ff 1B090000 		.4byte	0x91b
 1437 0903 27       		.uleb128 0x27
 1438 0904 98070000 		.4byte	0x798
 1439 0908 0A000000 		.4byte	.LBB37
 1440 090c 06000000 		.4byte	.LBE37-.LBB37
 1441 0910 0C       		.byte	0xc
 1442 0911 6202     		.2byte	0x262
 1443 0913 28       		.uleb128 0x28
 1444 0914 A5070000 		.4byte	0x7a5
 1445 0918 20       		.byte	0x20
 1446 0919 00       		.byte	0
 1447 091a 00       		.byte	0
 1448 091b 29       		.uleb128 0x29
 1449 091c 14000000 		.4byte	.LVL2
 1450 0920 410C0000 		.4byte	0xc41
 1451 0924 00       		.byte	0
 1452 0925 2A       		.uleb128 0x2a
 1453 0926 C4070000 		.4byte	0x7c4
 1454 092a 1A000000 		.4byte	.LBB39
 1455 092e 00000000 		.4byte	.Ldebug_ranges0+0
 1456 0932 01       		.byte	0x1
 1457 0933 5E       		.byte	0x5e
 1458 0934 4B090000 		.4byte	0x94b
 1459 0938 2B       		.uleb128 0x2b
 1460 0939 DC070000 		.4byte	0x7dc
 1461 093d 73000000 		.4byte	.LLST3
 1462 0941 2B       		.uleb128 0x2b
 1463 0942 D1070000 		.4byte	0x7d1
 1464 0946 BC000000 		.4byte	.LLST4
 1465 094a 00       		.byte	0
 1466 094b 25       		.uleb128 0x25
 1467 094c 5E080000 		.4byte	0x85e
 1468 0950 3A000000 		.4byte	.LBB43
 1469 0954 0A000000 		.4byte	.LBE43-.LBB43
 1470 0958 01       		.byte	0x1
 1471 0959 64       		.byte	0x64
 1472 095a A3090000 		.4byte	0x9a3
 1473 095e 2C       		.uleb128 0x2c
 1474 095f 3A000000 		.4byte	.LBB44
 1475 0963 0A000000 		.4byte	.LBE44-.LBB44
 1476 0967 2D       		.uleb128 0x2d
 1477 0968 6B080000 		.4byte	0x86b
 1478 096c 26       		.uleb128 0x26
 1479 096d BB070000 		.4byte	0x7bb
 1480 0971 3E000000 		.4byte	.LBB45
 1481 0975 06000000 		.4byte	.LBE45-.LBB45
 1482 0979 03       		.byte	0x3
ARM GAS  /tmp/ccg6DZLo.s 			page 27


 1483 097a 7A01     		.2byte	0x17a
 1484 097c 98090000 		.4byte	0x998
 1485 0980 27       		.uleb128 0x27
 1486 0981 98070000 		.4byte	0x798
 1487 0985 3E000000 		.4byte	.LBB46
 1488 0989 06000000 		.4byte	.LBE46-.LBB46
 1489 098d 0C       		.byte	0xc
 1490 098e 7502     		.2byte	0x275
 1491 0990 28       		.uleb128 0x28
 1492 0991 A5070000 		.4byte	0x7a5
 1493 0995 00       		.byte	0
 1494 0996 00       		.byte	0
 1495 0997 00       		.byte	0
 1496 0998 29       		.uleb128 0x29
 1497 0999 3E000000 		.4byte	.LVL10
 1498 099d 480C0000 		.4byte	0xc48
 1499 09a1 00       		.byte	0
 1500 09a2 00       		.byte	0
 1501 09a3 2E       		.uleb128 0x2e
 1502 09a4 32000000 		.4byte	.LVL7
 1503 09a8 4F0C0000 		.4byte	0xc4f
 1504 09ac B7090000 		.4byte	0x9b7
 1505 09b0 2F       		.uleb128 0x2f
 1506 09b1 01       		.uleb128 0x1
 1507 09b2 50       		.byte	0x50
 1508 09b3 02       		.uleb128 0x2
 1509 09b4 75       		.byte	0x75
 1510 09b5 00       		.sleb128 0
 1511 09b6 00       		.byte	0
 1512 09b7 30       		.uleb128 0x30
 1513 09b8 38000000 		.4byte	.LVL8
 1514 09bc 650C0000 		.4byte	0xc65
 1515 09c0 2F       		.uleb128 0x2f
 1516 09c1 01       		.uleb128 0x1
 1517 09c2 50       		.byte	0x50
 1518 09c3 01       		.uleb128 0x1
 1519 09c4 3C       		.byte	0x3c
 1520 09c5 00       		.byte	0
 1521 09c6 00       		.byte	0
 1522 09c7 1F       		.uleb128 0x1f
 1523 09c8 68070000 		.4byte	0x768
 1524 09cc D7090000 		.4byte	0x9d7
 1525 09d0 20       		.uleb128 0x20
 1526 09d1 5A040000 		.4byte	0x45a
 1527 09d5 09       		.byte	0x9
 1528 09d6 00       		.byte	0
 1529 09d7 13       		.uleb128 0x13
 1530 09d8 C7090000 		.4byte	0x9c7
 1531 09dc 21       		.uleb128 0x21
 1532 09dd E2050000 		.4byte	.LASF117
 1533 09e1 01       		.byte	0x1
 1534 09e2 79       		.byte	0x79
 1535 09e3 32020000 		.4byte	0x232
 1536 09e7 00000000 		.4byte	.LFB291
 1537 09eb 48000000 		.4byte	.LFE291-.LFB291
 1538 09ef 01       		.uleb128 0x1
 1539 09f0 9C       		.byte	0x9c
ARM GAS  /tmp/ccg6DZLo.s 			page 28


 1540 09f1 FF0A0000 		.4byte	0xaff
 1541 09f5 31       		.uleb128 0x31
 1542 09f6 747000   		.ascii	"tp\000"
 1543 09f9 01       		.byte	0x1
 1544 09fa 7A       		.byte	0x7a
 1545 09fb 32020000 		.4byte	0x232
 1546 09ff 01       		.uleb128 0x1
 1547 0a00 54       		.byte	0x54
 1548 0a01 25       		.uleb128 0x25
 1549 0a02 55080000 		.4byte	0x855
 1550 0a06 02000000 		.4byte	.LBB62
 1551 0a0a 0A000000 		.4byte	.LBE62-.LBB62
 1552 0a0e 01       		.byte	0x1
 1553 0a0f 7C       		.byte	0x7c
 1554 0a10 4A0A0000 		.4byte	0xa4a
 1555 0a14 26       		.uleb128 0x26
 1556 0a15 B2070000 		.4byte	0x7b2
 1557 0a19 02000000 		.4byte	.LBB64
 1558 0a1d 06000000 		.4byte	.LBE64-.LBB64
 1559 0a21 03       		.byte	0x3
 1560 0a22 6301     		.2byte	0x163
 1561 0a24 400A0000 		.4byte	0xa40
 1562 0a28 27       		.uleb128 0x27
 1563 0a29 98070000 		.4byte	0x798
 1564 0a2d 02000000 		.4byte	.LBB65
 1565 0a31 06000000 		.4byte	.LBE65-.LBB65
 1566 0a35 0C       		.byte	0xc
 1567 0a36 6202     		.2byte	0x262
 1568 0a38 28       		.uleb128 0x28
 1569 0a39 A5070000 		.4byte	0x7a5
 1570 0a3d 20       		.byte	0x20
 1571 0a3e 00       		.byte	0
 1572 0a3f 00       		.byte	0
 1573 0a40 29       		.uleb128 0x29
 1574 0a41 0C000000 		.4byte	.LVL13
 1575 0a45 410C0000 		.4byte	0xc41
 1576 0a49 00       		.byte	0
 1577 0a4a 25       		.uleb128 0x25
 1578 0a4b EF070000 		.4byte	0x7ef
 1579 0a4f 10000000 		.4byte	.LBB67
 1580 0a53 04000000 		.4byte	.LBE67-.LBB67
 1581 0a57 01       		.byte	0x1
 1582 0a58 7D       		.byte	0x7d
 1583 0a59 670A0000 		.4byte	0xa67
 1584 0a5d 2B       		.uleb128 0x2b
 1585 0a5e FF070000 		.4byte	0x7ff
 1586 0a62 CF000000 		.4byte	.LLST5
 1587 0a66 00       		.byte	0
 1588 0a67 25       		.uleb128 0x25
 1589 0a68 0A080000 		.4byte	0x80a
 1590 0a6c 24000000 		.4byte	.LBB69
 1591 0a70 0A000000 		.4byte	.LBE69-.LBB69
 1592 0a74 01       		.byte	0x1
 1593 0a75 80       		.byte	0x80
 1594 0a76 970A0000 		.4byte	0xa97
 1595 0a7a 2B       		.uleb128 0x2b
 1596 0a7b 1B080000 		.4byte	0x81b
ARM GAS  /tmp/ccg6DZLo.s 			page 29


 1597 0a7f EE000000 		.4byte	.LLST6
 1598 0a83 2C       		.uleb128 0x2c
 1599 0a84 24000000 		.4byte	.LBB70
 1600 0a88 0A000000 		.4byte	.LBE70-.LBB70
 1601 0a8c 32       		.uleb128 0x32
 1602 0a8d 27080000 		.4byte	0x827
 1603 0a91 1A010000 		.4byte	.LLST7
 1604 0a95 00       		.byte	0
 1605 0a96 00       		.byte	0
 1606 0a97 25       		.uleb128 0x25
 1607 0a98 5E080000 		.4byte	0x85e
 1608 0a9c 34000000 		.4byte	.LBB71
 1609 0aa0 0A000000 		.4byte	.LBE71-.LBB71
 1610 0aa4 01       		.byte	0x1
 1611 0aa5 82       		.byte	0x82
 1612 0aa6 EF0A0000 		.4byte	0xaef
 1613 0aaa 2C       		.uleb128 0x2c
 1614 0aab 34000000 		.4byte	.LBB72
 1615 0aaf 0A000000 		.4byte	.LBE72-.LBB72
 1616 0ab3 2D       		.uleb128 0x2d
 1617 0ab4 6B080000 		.4byte	0x86b
 1618 0ab8 26       		.uleb128 0x26
 1619 0ab9 BB070000 		.4byte	0x7bb
 1620 0abd 38000000 		.4byte	.LBB73
 1621 0ac1 06000000 		.4byte	.LBE73-.LBB73
 1622 0ac5 03       		.byte	0x3
 1623 0ac6 7A01     		.2byte	0x17a
 1624 0ac8 E40A0000 		.4byte	0xae4
 1625 0acc 27       		.uleb128 0x27
 1626 0acd 98070000 		.4byte	0x798
 1627 0ad1 38000000 		.4byte	.LBB74
 1628 0ad5 06000000 		.4byte	.LBE74-.LBB74
 1629 0ad9 0C       		.byte	0xc
 1630 0ada 7502     		.2byte	0x275
 1631 0adc 28       		.uleb128 0x28
 1632 0add A5070000 		.4byte	0x7a5
 1633 0ae1 00       		.byte	0
 1634 0ae2 00       		.byte	0
 1635 0ae3 00       		.byte	0
 1636 0ae4 29       		.uleb128 0x29
 1637 0ae5 38000000 		.4byte	.LVL21
 1638 0ae9 480C0000 		.4byte	0xc48
 1639 0aed 00       		.byte	0
 1640 0aee 00       		.byte	0
 1641 0aef 30       		.uleb128 0x30
 1642 0af0 22000000 		.4byte	.LVL16
 1643 0af4 650C0000 		.4byte	0xc65
 1644 0af8 2F       		.uleb128 0x2f
 1645 0af9 01       		.uleb128 0x1
 1646 0afa 50       		.byte	0x50
 1647 0afb 01       		.uleb128 0x1
 1648 0afc 3E       		.byte	0x3e
 1649 0afd 00       		.byte	0
 1650 0afe 00       		.byte	0
 1651 0aff 33       		.uleb128 0x33
 1652 0b00 A9040000 		.4byte	.LASF124
 1653 0b04 01       		.byte	0x1
ARM GAS  /tmp/ccg6DZLo.s 			page 30


 1654 0b05 91       		.byte	0x91
 1655 0b06 00000000 		.4byte	.LFB292
 1656 0b0a 24000000 		.4byte	.LFE292-.LFB292
 1657 0b0e 01       		.uleb128 0x1
 1658 0b0f 9C       		.byte	0x9c
 1659 0b10 100C0000 		.4byte	0xc10
 1660 0b14 22       		.uleb128 0x22
 1661 0b15 747000   		.ascii	"tp\000"
 1662 0b18 01       		.byte	0x1
 1663 0b19 91       		.byte	0x91
 1664 0b1a 32020000 		.4byte	0x232
 1665 0b1e 38010000 		.4byte	.LLST8
 1666 0b22 22       		.uleb128 0x22
 1667 0b23 6D736700 		.ascii	"msg\000"
 1668 0b27 01       		.byte	0x1
 1669 0b28 91       		.byte	0x91
 1670 0b29 05010000 		.4byte	0x105
 1671 0b2d 56010000 		.4byte	.LLST9
 1672 0b31 24       		.uleb128 0x24
 1673 0b32 85040000 		.4byte	.LASF115
 1674 0b36 200C0000 		.4byte	0xc20
 1675 0b3a 25       		.uleb128 0x25
 1676 0b3b 55080000 		.4byte	0x855
 1677 0b3f 06000000 		.4byte	.LBB88
 1678 0b43 0A000000 		.4byte	.LBE88-.LBB88
 1679 0b47 01       		.byte	0x1
 1680 0b48 93       		.byte	0x93
 1681 0b49 830B0000 		.4byte	0xb83
 1682 0b4d 26       		.uleb128 0x26
 1683 0b4e B2070000 		.4byte	0x7b2
 1684 0b52 06000000 		.4byte	.LBB90
 1685 0b56 06000000 		.4byte	.LBE90-.LBB90
 1686 0b5a 03       		.byte	0x3
 1687 0b5b 6301     		.2byte	0x163
 1688 0b5d 790B0000 		.4byte	0xb79
 1689 0b61 27       		.uleb128 0x27
 1690 0b62 98070000 		.4byte	0x798
 1691 0b66 06000000 		.4byte	.LBB91
 1692 0b6a 06000000 		.4byte	.LBE91-.LBB91
 1693 0b6e 0C       		.byte	0xc
 1694 0b6f 6202     		.2byte	0x262
 1695 0b71 28       		.uleb128 0x28
 1696 0b72 A5070000 		.4byte	0x7a5
 1697 0b76 20       		.byte	0x20
 1698 0b77 00       		.byte	0
 1699 0b78 00       		.byte	0
 1700 0b79 29       		.uleb128 0x29
 1701 0b7a 10000000 		.4byte	.LVL24
 1702 0b7e 410C0000 		.4byte	0xc41
 1703 0b82 00       		.byte	0
 1704 0b83 25       		.uleb128 0x25
 1705 0b84 33080000 		.4byte	0x833
 1706 0b88 10000000 		.4byte	.LBB93
 1707 0b8c 08000000 		.4byte	.LBE93-.LBB93
 1708 0b90 01       		.byte	0x1
 1709 0b91 95       		.byte	0x95
 1710 0b92 BB0B0000 		.4byte	0xbbb
ARM GAS  /tmp/ccg6DZLo.s 			page 31


 1711 0b96 34       		.uleb128 0x34
 1712 0b97 49080000 		.4byte	0x849
 1713 0b9b 01       		.uleb128 0x1
 1714 0b9c 54       		.byte	0x54
 1715 0b9d 34       		.uleb128 0x34
 1716 0b9e 3F080000 		.4byte	0x83f
 1717 0ba2 01       		.uleb128 0x1
 1718 0ba3 55       		.byte	0x55
 1719 0ba4 30       		.uleb128 0x30
 1720 0ba5 18000000 		.4byte	.LVL25
 1721 0ba9 770C0000 		.4byte	0xc77
 1722 0bad 2F       		.uleb128 0x2f
 1723 0bae 01       		.uleb128 0x1
 1724 0baf 51       		.byte	0x51
 1725 0bb0 02       		.uleb128 0x2
 1726 0bb1 74       		.byte	0x74
 1727 0bb2 00       		.sleb128 0
 1728 0bb3 2F       		.uleb128 0x2f
 1729 0bb4 01       		.uleb128 0x1
 1730 0bb5 50       		.byte	0x50
 1731 0bb6 02       		.uleb128 0x2
 1732 0bb7 75       		.byte	0x75
 1733 0bb8 00       		.sleb128 0
 1734 0bb9 00       		.byte	0
 1735 0bba 00       		.byte	0
 1736 0bbb 35       		.uleb128 0x35
 1737 0bbc 5E080000 		.4byte	0x85e
 1738 0bc0 18000000 		.4byte	.LBB95
 1739 0bc4 0C000000 		.4byte	.LBE95-.LBB95
 1740 0bc8 01       		.byte	0x1
 1741 0bc9 96       		.byte	0x96
 1742 0bca 2C       		.uleb128 0x2c
 1743 0bcb 18000000 		.4byte	.LBB96
 1744 0bcf 0C000000 		.4byte	.LBE96-.LBB96
 1745 0bd3 2D       		.uleb128 0x2d
 1746 0bd4 6B080000 		.4byte	0x86b
 1747 0bd8 26       		.uleb128 0x26
 1748 0bd9 BB070000 		.4byte	0x7bb
 1749 0bdd 1C000000 		.4byte	.LBB97
 1750 0be1 08000000 		.4byte	.LBE97-.LBB97
 1751 0be5 03       		.byte	0x3
 1752 0be6 7A01     		.2byte	0x17a
 1753 0be8 040C0000 		.4byte	0xc04
 1754 0bec 27       		.uleb128 0x27
 1755 0bed 98070000 		.4byte	0x798
 1756 0bf1 1C000000 		.4byte	.LBB98
 1757 0bf5 08000000 		.4byte	.LBE98-.LBB98
 1758 0bf9 0C       		.byte	0xc
 1759 0bfa 7502     		.2byte	0x275
 1760 0bfc 28       		.uleb128 0x28
 1761 0bfd A5070000 		.4byte	0x7a5
 1762 0c01 00       		.byte	0
 1763 0c02 00       		.byte	0
 1764 0c03 00       		.byte	0
 1765 0c04 29       		.uleb128 0x29
 1766 0c05 1C000000 		.4byte	.LVL26
 1767 0c09 480C0000 		.4byte	0xc48
ARM GAS  /tmp/ccg6DZLo.s 			page 32


 1768 0c0d 00       		.byte	0
 1769 0c0e 00       		.byte	0
 1770 0c0f 00       		.byte	0
 1771 0c10 1F       		.uleb128 0x1f
 1772 0c11 68070000 		.4byte	0x768
 1773 0c15 200C0000 		.4byte	0xc20
 1774 0c19 20       		.uleb128 0x20
 1775 0c1a 5A040000 		.4byte	0x45a
 1776 0c1e 0C       		.byte	0xc
 1777 0c1f 00       		.byte	0
 1778 0c20 13       		.uleb128 0x13
 1779 0c21 100C0000 		.4byte	0xc10
 1780 0c25 36       		.uleb128 0x36
 1781 0c26 EA000000 		.4byte	.LASF118
 1782 0c2a 11       		.byte	0x11
 1783 0c2b 0408     		.2byte	0x804
 1784 0c2d 310C0000 		.4byte	0xc31
 1785 0c31 14       		.uleb128 0x14
 1786 0c32 A2000000 		.4byte	0xa2
 1787 0c36 37       		.uleb128 0x37
 1788 0c37 636800   		.ascii	"ch\000"
 1789 0c3a 04       		.byte	0x4
 1790 0c3b C701     		.2byte	0x1c7
 1791 0c3d DE030000 		.4byte	0x3de
 1792 0c41 38       		.uleb128 0x38
 1793 0c42 19060000 		.4byte	.LASF119
 1794 0c46 0E       		.byte	0xe
 1795 0c47 4F       		.byte	0x4f
 1796 0c48 38       		.uleb128 0x38
 1797 0c49 86030000 		.4byte	.LASF120
 1798 0c4d 0E       		.byte	0xe
 1799 0c4e 50       		.byte	0x50
 1800 0c4f 39       		.uleb128 0x39
 1801 0c50 E1040000 		.4byte	.LASF125
 1802 0c54 04       		.byte	0x4
 1803 0c55 D101     		.2byte	0x1d1
 1804 0c57 32020000 		.4byte	0x232
 1805 0c5b 650C0000 		.4byte	0xc65
 1806 0c5f 0D       		.uleb128 0xd
 1807 0c60 32020000 		.4byte	0x232
 1808 0c64 00       		.byte	0
 1809 0c65 3A       		.uleb128 0x3a
 1810 0c66 C3040000 		.4byte	.LASF126
 1811 0c6a 04       		.byte	0x4
 1812 0c6b D301     		.2byte	0x1d3
 1813 0c6d 770C0000 		.4byte	0xc77
 1814 0c71 0D       		.uleb128 0xd
 1815 0c72 E4000000 		.4byte	0xe4
 1816 0c76 00       		.byte	0
 1817 0c77 3B       		.uleb128 0x3b
 1818 0c78 D5050000 		.4byte	.LASF127
 1819 0c7c 04       		.byte	0x4
 1820 0c7d D501     		.2byte	0x1d5
 1821 0c7f 0D       		.uleb128 0xd
 1822 0c80 32020000 		.4byte	0x232
 1823 0c84 0D       		.uleb128 0xd
 1824 0c85 05010000 		.4byte	0x105
ARM GAS  /tmp/ccg6DZLo.s 			page 33


 1825 0c89 00       		.byte	0
 1826 0c8a 00       		.byte	0
 1827              		.section	.debug_abbrev,"",%progbits
 1828              	.Ldebug_abbrev0:
 1829 0000 01       		.uleb128 0x1
 1830 0001 11       		.uleb128 0x11
 1831 0002 01       		.byte	0x1
 1832 0003 25       		.uleb128 0x25
 1833 0004 0E       		.uleb128 0xe
 1834 0005 13       		.uleb128 0x13
 1835 0006 0B       		.uleb128 0xb
 1836 0007 03       		.uleb128 0x3
 1837 0008 0E       		.uleb128 0xe
 1838 0009 1B       		.uleb128 0x1b
 1839 000a 0E       		.uleb128 0xe
 1840 000b 55       		.uleb128 0x55
 1841 000c 17       		.uleb128 0x17
 1842 000d 11       		.uleb128 0x11
 1843 000e 01       		.uleb128 0x1
 1844 000f 10       		.uleb128 0x10
 1845 0010 17       		.uleb128 0x17
 1846 0011 00       		.byte	0
 1847 0012 00       		.byte	0
 1848 0013 02       		.uleb128 0x2
 1849 0014 24       		.uleb128 0x24
 1850 0015 00       		.byte	0
 1851 0016 0B       		.uleb128 0xb
 1852 0017 0B       		.uleb128 0xb
 1853 0018 3E       		.uleb128 0x3e
 1854 0019 0B       		.uleb128 0xb
 1855 001a 03       		.uleb128 0x3
 1856 001b 08       		.uleb128 0x8
 1857 001c 00       		.byte	0
 1858 001d 00       		.byte	0
 1859 001e 03       		.uleb128 0x3
 1860 001f 24       		.uleb128 0x24
 1861 0020 00       		.byte	0
 1862 0021 0B       		.uleb128 0xb
 1863 0022 0B       		.uleb128 0xb
 1864 0023 3E       		.uleb128 0x3e
 1865 0024 0B       		.uleb128 0xb
 1866 0025 03       		.uleb128 0x3
 1867 0026 0E       		.uleb128 0xe
 1868 0027 00       		.byte	0
 1869 0028 00       		.byte	0
 1870 0029 04       		.uleb128 0x4
 1871 002a 16       		.uleb128 0x16
 1872 002b 00       		.byte	0
 1873 002c 03       		.uleb128 0x3
 1874 002d 0E       		.uleb128 0xe
 1875 002e 3A       		.uleb128 0x3a
 1876 002f 0B       		.uleb128 0xb
 1877 0030 3B       		.uleb128 0x3b
 1878 0031 0B       		.uleb128 0xb
 1879 0032 49       		.uleb128 0x49
 1880 0033 13       		.uleb128 0x13
 1881 0034 00       		.byte	0
ARM GAS  /tmp/ccg6DZLo.s 			page 34


 1882 0035 00       		.byte	0
 1883 0036 05       		.uleb128 0x5
 1884 0037 13       		.uleb128 0x13
 1885 0038 01       		.byte	0x1
 1886 0039 03       		.uleb128 0x3
 1887 003a 0E       		.uleb128 0xe
 1888 003b 0B       		.uleb128 0xb
 1889 003c 0B       		.uleb128 0xb
 1890 003d 3A       		.uleb128 0x3a
 1891 003e 0B       		.uleb128 0xb
 1892 003f 3B       		.uleb128 0x3b
 1893 0040 0B       		.uleb128 0xb
 1894 0041 01       		.uleb128 0x1
 1895 0042 13       		.uleb128 0x13
 1896 0043 00       		.byte	0
 1897 0044 00       		.byte	0
 1898 0045 06       		.uleb128 0x6
 1899 0046 0D       		.uleb128 0xd
 1900 0047 00       		.byte	0
 1901 0048 03       		.uleb128 0x3
 1902 0049 0E       		.uleb128 0xe
 1903 004a 3A       		.uleb128 0x3a
 1904 004b 0B       		.uleb128 0xb
 1905 004c 3B       		.uleb128 0x3b
 1906 004d 0B       		.uleb128 0xb
 1907 004e 49       		.uleb128 0x49
 1908 004f 13       		.uleb128 0x13
 1909 0050 38       		.uleb128 0x38
 1910 0051 0B       		.uleb128 0xb
 1911 0052 00       		.byte	0
 1912 0053 00       		.byte	0
 1913 0054 07       		.uleb128 0x7
 1914 0055 0D       		.uleb128 0xd
 1915 0056 00       		.byte	0
 1916 0057 03       		.uleb128 0x3
 1917 0058 08       		.uleb128 0x8
 1918 0059 3A       		.uleb128 0x3a
 1919 005a 0B       		.uleb128 0xb
 1920 005b 3B       		.uleb128 0x3b
 1921 005c 0B       		.uleb128 0xb
 1922 005d 49       		.uleb128 0x49
 1923 005e 13       		.uleb128 0x13
 1924 005f 38       		.uleb128 0x38
 1925 0060 0B       		.uleb128 0xb
 1926 0061 00       		.byte	0
 1927 0062 00       		.byte	0
 1928 0063 08       		.uleb128 0x8
 1929 0064 0D       		.uleb128 0xd
 1930 0065 00       		.byte	0
 1931 0066 03       		.uleb128 0x3
 1932 0067 08       		.uleb128 0x8
 1933 0068 3A       		.uleb128 0x3a
 1934 0069 0B       		.uleb128 0xb
 1935 006a 3B       		.uleb128 0x3b
 1936 006b 05       		.uleb128 0x5
 1937 006c 49       		.uleb128 0x49
 1938 006d 13       		.uleb128 0x13
ARM GAS  /tmp/ccg6DZLo.s 			page 35


 1939 006e 38       		.uleb128 0x38
 1940 006f 0B       		.uleb128 0xb
 1941 0070 00       		.byte	0
 1942 0071 00       		.byte	0
 1943 0072 09       		.uleb128 0x9
 1944 0073 0D       		.uleb128 0xd
 1945 0074 00       		.byte	0
 1946 0075 03       		.uleb128 0x3
 1947 0076 0E       		.uleb128 0xe
 1948 0077 3A       		.uleb128 0x3a
 1949 0078 0B       		.uleb128 0xb
 1950 0079 3B       		.uleb128 0x3b
 1951 007a 05       		.uleb128 0x5
 1952 007b 49       		.uleb128 0x49
 1953 007c 13       		.uleb128 0x13
 1954 007d 38       		.uleb128 0x38
 1955 007e 0B       		.uleb128 0xb
 1956 007f 00       		.byte	0
 1957 0080 00       		.byte	0
 1958 0081 0A       		.uleb128 0xa
 1959 0082 0F       		.uleb128 0xf
 1960 0083 00       		.byte	0
 1961 0084 0B       		.uleb128 0xb
 1962 0085 0B       		.uleb128 0xb
 1963 0086 49       		.uleb128 0x49
 1964 0087 13       		.uleb128 0x13
 1965 0088 00       		.byte	0
 1966 0089 00       		.byte	0
 1967 008a 0B       		.uleb128 0xb
 1968 008b 13       		.uleb128 0x13
 1969 008c 01       		.byte	0x1
 1970 008d 03       		.uleb128 0x3
 1971 008e 0E       		.uleb128 0xe
 1972 008f 0B       		.uleb128 0xb
 1973 0090 0B       		.uleb128 0xb
 1974 0091 3A       		.uleb128 0x3a
 1975 0092 0B       		.uleb128 0xb
 1976 0093 3B       		.uleb128 0x3b
 1977 0094 05       		.uleb128 0x5
 1978 0095 01       		.uleb128 0x1
 1979 0096 13       		.uleb128 0x13
 1980 0097 00       		.byte	0
 1981 0098 00       		.byte	0
 1982 0099 0C       		.uleb128 0xc
 1983 009a 15       		.uleb128 0x15
 1984 009b 01       		.byte	0x1
 1985 009c 27       		.uleb128 0x27
 1986 009d 19       		.uleb128 0x19
 1987 009e 01       		.uleb128 0x1
 1988 009f 13       		.uleb128 0x13
 1989 00a0 00       		.byte	0
 1990 00a1 00       		.byte	0
 1991 00a2 0D       		.uleb128 0xd
 1992 00a3 05       		.uleb128 0x5
 1993 00a4 00       		.byte	0
 1994 00a5 49       		.uleb128 0x49
 1995 00a6 13       		.uleb128 0x13
ARM GAS  /tmp/ccg6DZLo.s 			page 36


 1996 00a7 00       		.byte	0
 1997 00a8 00       		.byte	0
 1998 00a9 0E       		.uleb128 0xe
 1999 00aa 0F       		.uleb128 0xf
 2000 00ab 00       		.byte	0
 2001 00ac 0B       		.uleb128 0xb
 2002 00ad 0B       		.uleb128 0xb
 2003 00ae 00       		.byte	0
 2004 00af 00       		.byte	0
 2005 00b0 0F       		.uleb128 0xf
 2006 00b1 13       		.uleb128 0x13
 2007 00b2 01       		.byte	0x1
 2008 00b3 0B       		.uleb128 0xb
 2009 00b4 0B       		.uleb128 0xb
 2010 00b5 3A       		.uleb128 0x3a
 2011 00b6 0B       		.uleb128 0xb
 2012 00b7 3B       		.uleb128 0x3b
 2013 00b8 0B       		.uleb128 0xb
 2014 00b9 01       		.uleb128 0x1
 2015 00ba 13       		.uleb128 0x13
 2016 00bb 00       		.byte	0
 2017 00bc 00       		.byte	0
 2018 00bd 10       		.uleb128 0x10
 2019 00be 17       		.uleb128 0x17
 2020 00bf 01       		.byte	0x1
 2021 00c0 0B       		.uleb128 0xb
 2022 00c1 0B       		.uleb128 0xb
 2023 00c2 3A       		.uleb128 0x3a
 2024 00c3 0B       		.uleb128 0xb
 2025 00c4 3B       		.uleb128 0x3b
 2026 00c5 0B       		.uleb128 0xb
 2027 00c6 01       		.uleb128 0x1
 2028 00c7 13       		.uleb128 0x13
 2029 00c8 00       		.byte	0
 2030 00c9 00       		.byte	0
 2031 00ca 11       		.uleb128 0x11
 2032 00cb 0D       		.uleb128 0xd
 2033 00cc 00       		.byte	0
 2034 00cd 03       		.uleb128 0x3
 2035 00ce 0E       		.uleb128 0xe
 2036 00cf 3A       		.uleb128 0x3a
 2037 00d0 0B       		.uleb128 0xb
 2038 00d1 3B       		.uleb128 0x3b
 2039 00d2 0B       		.uleb128 0xb
 2040 00d3 49       		.uleb128 0x49
 2041 00d4 13       		.uleb128 0x13
 2042 00d5 00       		.byte	0
 2043 00d6 00       		.byte	0
 2044 00d7 12       		.uleb128 0x12
 2045 00d8 0D       		.uleb128 0xd
 2046 00d9 00       		.byte	0
 2047 00da 03       		.uleb128 0x3
 2048 00db 0E       		.uleb128 0xe
 2049 00dc 3A       		.uleb128 0x3a
 2050 00dd 0B       		.uleb128 0xb
 2051 00de 3B       		.uleb128 0x3b
 2052 00df 05       		.uleb128 0x5
ARM GAS  /tmp/ccg6DZLo.s 			page 37


 2053 00e0 49       		.uleb128 0x49
 2054 00e1 13       		.uleb128 0x13
 2055 00e2 00       		.byte	0
 2056 00e3 00       		.byte	0
 2057 00e4 13       		.uleb128 0x13
 2058 00e5 26       		.uleb128 0x26
 2059 00e6 00       		.byte	0
 2060 00e7 49       		.uleb128 0x49
 2061 00e8 13       		.uleb128 0x13
 2062 00e9 00       		.byte	0
 2063 00ea 00       		.byte	0
 2064 00eb 14       		.uleb128 0x14
 2065 00ec 35       		.uleb128 0x35
 2066 00ed 00       		.byte	0
 2067 00ee 49       		.uleb128 0x49
 2068 00ef 13       		.uleb128 0x13
 2069 00f0 00       		.byte	0
 2070 00f1 00       		.byte	0
 2071 00f2 15       		.uleb128 0x15
 2072 00f3 2E       		.uleb128 0x2e
 2073 00f4 01       		.byte	0x1
 2074 00f5 03       		.uleb128 0x3
 2075 00f6 0E       		.uleb128 0xe
 2076 00f7 3A       		.uleb128 0x3a
 2077 00f8 0B       		.uleb128 0xb
 2078 00f9 3B       		.uleb128 0x3b
 2079 00fa 05       		.uleb128 0x5
 2080 00fb 27       		.uleb128 0x27
 2081 00fc 19       		.uleb128 0x19
 2082 00fd 20       		.uleb128 0x20
 2083 00fe 0B       		.uleb128 0xb
 2084 00ff 01       		.uleb128 0x1
 2085 0100 13       		.uleb128 0x13
 2086 0101 00       		.byte	0
 2087 0102 00       		.byte	0
 2088 0103 16       		.uleb128 0x16
 2089 0104 05       		.uleb128 0x5
 2090 0105 00       		.byte	0
 2091 0106 03       		.uleb128 0x3
 2092 0107 0E       		.uleb128 0xe
 2093 0108 3A       		.uleb128 0x3a
 2094 0109 0B       		.uleb128 0xb
 2095 010a 3B       		.uleb128 0x3b
 2096 010b 05       		.uleb128 0x5
 2097 010c 49       		.uleb128 0x49
 2098 010d 13       		.uleb128 0x13
 2099 010e 00       		.byte	0
 2100 010f 00       		.byte	0
 2101 0110 17       		.uleb128 0x17
 2102 0111 2E       		.uleb128 0x2e
 2103 0112 00       		.byte	0
 2104 0113 03       		.uleb128 0x3
 2105 0114 0E       		.uleb128 0xe
 2106 0115 3A       		.uleb128 0x3a
 2107 0116 0B       		.uleb128 0xb
 2108 0117 3B       		.uleb128 0x3b
 2109 0118 05       		.uleb128 0x5
ARM GAS  /tmp/ccg6DZLo.s 			page 38


 2110 0119 27       		.uleb128 0x27
 2111 011a 19       		.uleb128 0x19
 2112 011b 20       		.uleb128 0x20
 2113 011c 0B       		.uleb128 0xb
 2114 011d 00       		.byte	0
 2115 011e 00       		.byte	0
 2116 011f 18       		.uleb128 0x18
 2117 0120 05       		.uleb128 0x5
 2118 0121 00       		.byte	0
 2119 0122 03       		.uleb128 0x3
 2120 0123 08       		.uleb128 0x8
 2121 0124 3A       		.uleb128 0x3a
 2122 0125 0B       		.uleb128 0xb
 2123 0126 3B       		.uleb128 0x3b
 2124 0127 05       		.uleb128 0x5
 2125 0128 49       		.uleb128 0x49
 2126 0129 13       		.uleb128 0x13
 2127 012a 00       		.byte	0
 2128 012b 00       		.byte	0
 2129 012c 19       		.uleb128 0x19
 2130 012d 2E       		.uleb128 0x2e
 2131 012e 01       		.byte	0x1
 2132 012f 03       		.uleb128 0x3
 2133 0130 0E       		.uleb128 0xe
 2134 0131 3A       		.uleb128 0x3a
 2135 0132 0B       		.uleb128 0xb
 2136 0133 3B       		.uleb128 0x3b
 2137 0134 0B       		.uleb128 0xb
 2138 0135 27       		.uleb128 0x27
 2139 0136 19       		.uleb128 0x19
 2140 0137 49       		.uleb128 0x49
 2141 0138 13       		.uleb128 0x13
 2142 0139 20       		.uleb128 0x20
 2143 013a 0B       		.uleb128 0xb
 2144 013b 01       		.uleb128 0x1
 2145 013c 13       		.uleb128 0x13
 2146 013d 00       		.byte	0
 2147 013e 00       		.byte	0
 2148 013f 1A       		.uleb128 0x1a
 2149 0140 05       		.uleb128 0x5
 2150 0141 00       		.byte	0
 2151 0142 03       		.uleb128 0x3
 2152 0143 08       		.uleb128 0x8
 2153 0144 3A       		.uleb128 0x3a
 2154 0145 0B       		.uleb128 0xb
 2155 0146 3B       		.uleb128 0x3b
 2156 0147 0B       		.uleb128 0xb
 2157 0148 49       		.uleb128 0x49
 2158 0149 13       		.uleb128 0x13
 2159 014a 00       		.byte	0
 2160 014b 00       		.byte	0
 2161 014c 1B       		.uleb128 0x1b
 2162 014d 2E       		.uleb128 0x2e
 2163 014e 01       		.byte	0x1
 2164 014f 03       		.uleb128 0x3
 2165 0150 0E       		.uleb128 0xe
 2166 0151 3A       		.uleb128 0x3a
ARM GAS  /tmp/ccg6DZLo.s 			page 39


 2167 0152 0B       		.uleb128 0xb
 2168 0153 3B       		.uleb128 0x3b
 2169 0154 05       		.uleb128 0x5
 2170 0155 27       		.uleb128 0x27
 2171 0156 19       		.uleb128 0x19
 2172 0157 49       		.uleb128 0x49
 2173 0158 13       		.uleb128 0x13
 2174 0159 20       		.uleb128 0x20
 2175 015a 0B       		.uleb128 0xb
 2176 015b 01       		.uleb128 0x1
 2177 015c 13       		.uleb128 0x13
 2178 015d 00       		.byte	0
 2179 015e 00       		.byte	0
 2180 015f 1C       		.uleb128 0x1c
 2181 0160 34       		.uleb128 0x34
 2182 0161 00       		.byte	0
 2183 0162 03       		.uleb128 0x3
 2184 0163 08       		.uleb128 0x8
 2185 0164 3A       		.uleb128 0x3a
 2186 0165 0B       		.uleb128 0xb
 2187 0166 3B       		.uleb128 0x3b
 2188 0167 05       		.uleb128 0x5
 2189 0168 49       		.uleb128 0x49
 2190 0169 13       		.uleb128 0x13
 2191 016a 00       		.byte	0
 2192 016b 00       		.byte	0
 2193 016c 1D       		.uleb128 0x1d
 2194 016d 2E       		.uleb128 0x2e
 2195 016e 01       		.byte	0x1
 2196 016f 03       		.uleb128 0x3
 2197 0170 0E       		.uleb128 0xe
 2198 0171 3A       		.uleb128 0x3a
 2199 0172 0B       		.uleb128 0xb
 2200 0173 3B       		.uleb128 0x3b
 2201 0174 0B       		.uleb128 0xb
 2202 0175 27       		.uleb128 0x27
 2203 0176 19       		.uleb128 0x19
 2204 0177 20       		.uleb128 0x20
 2205 0178 0B       		.uleb128 0xb
 2206 0179 01       		.uleb128 0x1
 2207 017a 13       		.uleb128 0x13
 2208 017b 00       		.byte	0
 2209 017c 00       		.byte	0
 2210 017d 1E       		.uleb128 0x1e
 2211 017e 34       		.uleb128 0x34
 2212 017f 00       		.byte	0
 2213 0180 03       		.uleb128 0x3
 2214 0181 0E       		.uleb128 0xe
 2215 0182 49       		.uleb128 0x49
 2216 0183 13       		.uleb128 0x13
 2217 0184 34       		.uleb128 0x34
 2218 0185 19       		.uleb128 0x19
 2219 0186 1C       		.uleb128 0x1c
 2220 0187 0E       		.uleb128 0xe
 2221 0188 00       		.byte	0
 2222 0189 00       		.byte	0
 2223 018a 1F       		.uleb128 0x1f
ARM GAS  /tmp/ccg6DZLo.s 			page 40


 2224 018b 01       		.uleb128 0x1
 2225 018c 01       		.byte	0x1
 2226 018d 49       		.uleb128 0x49
 2227 018e 13       		.uleb128 0x13
 2228 018f 01       		.uleb128 0x1
 2229 0190 13       		.uleb128 0x13
 2230 0191 00       		.byte	0
 2231 0192 00       		.byte	0
 2232 0193 20       		.uleb128 0x20
 2233 0194 21       		.uleb128 0x21
 2234 0195 00       		.byte	0
 2235 0196 49       		.uleb128 0x49
 2236 0197 13       		.uleb128 0x13
 2237 0198 2F       		.uleb128 0x2f
 2238 0199 0B       		.uleb128 0xb
 2239 019a 00       		.byte	0
 2240 019b 00       		.byte	0
 2241 019c 21       		.uleb128 0x21
 2242 019d 2E       		.uleb128 0x2e
 2243 019e 01       		.byte	0x1
 2244 019f 3F       		.uleb128 0x3f
 2245 01a0 19       		.uleb128 0x19
 2246 01a1 03       		.uleb128 0x3
 2247 01a2 0E       		.uleb128 0xe
 2248 01a3 3A       		.uleb128 0x3a
 2249 01a4 0B       		.uleb128 0xb
 2250 01a5 3B       		.uleb128 0x3b
 2251 01a6 0B       		.uleb128 0xb
 2252 01a7 27       		.uleb128 0x27
 2253 01a8 19       		.uleb128 0x19
 2254 01a9 49       		.uleb128 0x49
 2255 01aa 13       		.uleb128 0x13
 2256 01ab 11       		.uleb128 0x11
 2257 01ac 01       		.uleb128 0x1
 2258 01ad 12       		.uleb128 0x12
 2259 01ae 06       		.uleb128 0x6
 2260 01af 40       		.uleb128 0x40
 2261 01b0 18       		.uleb128 0x18
 2262 01b1 9742     		.uleb128 0x2117
 2263 01b3 19       		.uleb128 0x19
 2264 01b4 01       		.uleb128 0x1
 2265 01b5 13       		.uleb128 0x13
 2266 01b6 00       		.byte	0
 2267 01b7 00       		.byte	0
 2268 01b8 22       		.uleb128 0x22
 2269 01b9 05       		.uleb128 0x5
 2270 01ba 00       		.byte	0
 2271 01bb 03       		.uleb128 0x3
 2272 01bc 08       		.uleb128 0x8
 2273 01bd 3A       		.uleb128 0x3a
 2274 01be 0B       		.uleb128 0xb
 2275 01bf 3B       		.uleb128 0x3b
 2276 01c0 0B       		.uleb128 0xb
 2277 01c1 49       		.uleb128 0x49
 2278 01c2 13       		.uleb128 0x13
 2279 01c3 02       		.uleb128 0x2
 2280 01c4 17       		.uleb128 0x17
ARM GAS  /tmp/ccg6DZLo.s 			page 41


 2281 01c5 00       		.byte	0
 2282 01c6 00       		.byte	0
 2283 01c7 23       		.uleb128 0x23
 2284 01c8 34       		.uleb128 0x34
 2285 01c9 00       		.byte	0
 2286 01ca 03       		.uleb128 0x3
 2287 01cb 08       		.uleb128 0x8
 2288 01cc 3A       		.uleb128 0x3a
 2289 01cd 0B       		.uleb128 0xb
 2290 01ce 3B       		.uleb128 0x3b
 2291 01cf 0B       		.uleb128 0xb
 2292 01d0 49       		.uleb128 0x49
 2293 01d1 13       		.uleb128 0x13
 2294 01d2 02       		.uleb128 0x2
 2295 01d3 17       		.uleb128 0x17
 2296 01d4 00       		.byte	0
 2297 01d5 00       		.byte	0
 2298 01d6 24       		.uleb128 0x24
 2299 01d7 34       		.uleb128 0x34
 2300 01d8 00       		.byte	0
 2301 01d9 03       		.uleb128 0x3
 2302 01da 0E       		.uleb128 0xe
 2303 01db 49       		.uleb128 0x49
 2304 01dc 13       		.uleb128 0x13
 2305 01dd 34       		.uleb128 0x34
 2306 01de 19       		.uleb128 0x19
 2307 01df 00       		.byte	0
 2308 01e0 00       		.byte	0
 2309 01e1 25       		.uleb128 0x25
 2310 01e2 1D       		.uleb128 0x1d
 2311 01e3 01       		.byte	0x1
 2312 01e4 31       		.uleb128 0x31
 2313 01e5 13       		.uleb128 0x13
 2314 01e6 11       		.uleb128 0x11
 2315 01e7 01       		.uleb128 0x1
 2316 01e8 12       		.uleb128 0x12
 2317 01e9 06       		.uleb128 0x6
 2318 01ea 58       		.uleb128 0x58
 2319 01eb 0B       		.uleb128 0xb
 2320 01ec 59       		.uleb128 0x59
 2321 01ed 0B       		.uleb128 0xb
 2322 01ee 01       		.uleb128 0x1
 2323 01ef 13       		.uleb128 0x13
 2324 01f0 00       		.byte	0
 2325 01f1 00       		.byte	0
 2326 01f2 26       		.uleb128 0x26
 2327 01f3 1D       		.uleb128 0x1d
 2328 01f4 01       		.byte	0x1
 2329 01f5 31       		.uleb128 0x31
 2330 01f6 13       		.uleb128 0x13
 2331 01f7 11       		.uleb128 0x11
 2332 01f8 01       		.uleb128 0x1
 2333 01f9 12       		.uleb128 0x12
 2334 01fa 06       		.uleb128 0x6
 2335 01fb 58       		.uleb128 0x58
 2336 01fc 0B       		.uleb128 0xb
 2337 01fd 59       		.uleb128 0x59
ARM GAS  /tmp/ccg6DZLo.s 			page 42


 2338 01fe 05       		.uleb128 0x5
 2339 01ff 01       		.uleb128 0x1
 2340 0200 13       		.uleb128 0x13
 2341 0201 00       		.byte	0
 2342 0202 00       		.byte	0
 2343 0203 27       		.uleb128 0x27
 2344 0204 1D       		.uleb128 0x1d
 2345 0205 01       		.byte	0x1
 2346 0206 31       		.uleb128 0x31
 2347 0207 13       		.uleb128 0x13
 2348 0208 11       		.uleb128 0x11
 2349 0209 01       		.uleb128 0x1
 2350 020a 12       		.uleb128 0x12
 2351 020b 06       		.uleb128 0x6
 2352 020c 58       		.uleb128 0x58
 2353 020d 0B       		.uleb128 0xb
 2354 020e 59       		.uleb128 0x59
 2355 020f 05       		.uleb128 0x5
 2356 0210 00       		.byte	0
 2357 0211 00       		.byte	0
 2358 0212 28       		.uleb128 0x28
 2359 0213 05       		.uleb128 0x5
 2360 0214 00       		.byte	0
 2361 0215 31       		.uleb128 0x31
 2362 0216 13       		.uleb128 0x13
 2363 0217 1C       		.uleb128 0x1c
 2364 0218 0B       		.uleb128 0xb
 2365 0219 00       		.byte	0
 2366 021a 00       		.byte	0
 2367 021b 29       		.uleb128 0x29
 2368 021c 898201   		.uleb128 0x4109
 2369 021f 00       		.byte	0
 2370 0220 11       		.uleb128 0x11
 2371 0221 01       		.uleb128 0x1
 2372 0222 31       		.uleb128 0x31
 2373 0223 13       		.uleb128 0x13
 2374 0224 00       		.byte	0
 2375 0225 00       		.byte	0
 2376 0226 2A       		.uleb128 0x2a
 2377 0227 1D       		.uleb128 0x1d
 2378 0228 01       		.byte	0x1
 2379 0229 31       		.uleb128 0x31
 2380 022a 13       		.uleb128 0x13
 2381 022b 52       		.uleb128 0x52
 2382 022c 01       		.uleb128 0x1
 2383 022d 55       		.uleb128 0x55
 2384 022e 17       		.uleb128 0x17
 2385 022f 58       		.uleb128 0x58
 2386 0230 0B       		.uleb128 0xb
 2387 0231 59       		.uleb128 0x59
 2388 0232 0B       		.uleb128 0xb
 2389 0233 01       		.uleb128 0x1
 2390 0234 13       		.uleb128 0x13
 2391 0235 00       		.byte	0
 2392 0236 00       		.byte	0
 2393 0237 2B       		.uleb128 0x2b
 2394 0238 05       		.uleb128 0x5
ARM GAS  /tmp/ccg6DZLo.s 			page 43


 2395 0239 00       		.byte	0
 2396 023a 31       		.uleb128 0x31
 2397 023b 13       		.uleb128 0x13
 2398 023c 02       		.uleb128 0x2
 2399 023d 17       		.uleb128 0x17
 2400 023e 00       		.byte	0
 2401 023f 00       		.byte	0
 2402 0240 2C       		.uleb128 0x2c
 2403 0241 0B       		.uleb128 0xb
 2404 0242 01       		.byte	0x1
 2405 0243 11       		.uleb128 0x11
 2406 0244 01       		.uleb128 0x1
 2407 0245 12       		.uleb128 0x12
 2408 0246 06       		.uleb128 0x6
 2409 0247 00       		.byte	0
 2410 0248 00       		.byte	0
 2411 0249 2D       		.uleb128 0x2d
 2412 024a 34       		.uleb128 0x34
 2413 024b 00       		.byte	0
 2414 024c 31       		.uleb128 0x31
 2415 024d 13       		.uleb128 0x13
 2416 024e 00       		.byte	0
 2417 024f 00       		.byte	0
 2418 0250 2E       		.uleb128 0x2e
 2419 0251 898201   		.uleb128 0x4109
 2420 0254 01       		.byte	0x1
 2421 0255 11       		.uleb128 0x11
 2422 0256 01       		.uleb128 0x1
 2423 0257 31       		.uleb128 0x31
 2424 0258 13       		.uleb128 0x13
 2425 0259 01       		.uleb128 0x1
 2426 025a 13       		.uleb128 0x13
 2427 025b 00       		.byte	0
 2428 025c 00       		.byte	0
 2429 025d 2F       		.uleb128 0x2f
 2430 025e 8A8201   		.uleb128 0x410a
 2431 0261 00       		.byte	0
 2432 0262 02       		.uleb128 0x2
 2433 0263 18       		.uleb128 0x18
 2434 0264 9142     		.uleb128 0x2111
 2435 0266 18       		.uleb128 0x18
 2436 0267 00       		.byte	0
 2437 0268 00       		.byte	0
 2438 0269 30       		.uleb128 0x30
 2439 026a 898201   		.uleb128 0x4109
 2440 026d 01       		.byte	0x1
 2441 026e 11       		.uleb128 0x11
 2442 026f 01       		.uleb128 0x1
 2443 0270 31       		.uleb128 0x31
 2444 0271 13       		.uleb128 0x13
 2445 0272 00       		.byte	0
 2446 0273 00       		.byte	0
 2447 0274 31       		.uleb128 0x31
 2448 0275 34       		.uleb128 0x34
 2449 0276 00       		.byte	0
 2450 0277 03       		.uleb128 0x3
 2451 0278 08       		.uleb128 0x8
ARM GAS  /tmp/ccg6DZLo.s 			page 44


 2452 0279 3A       		.uleb128 0x3a
 2453 027a 0B       		.uleb128 0xb
 2454 027b 3B       		.uleb128 0x3b
 2455 027c 0B       		.uleb128 0xb
 2456 027d 49       		.uleb128 0x49
 2457 027e 13       		.uleb128 0x13
 2458 027f 02       		.uleb128 0x2
 2459 0280 18       		.uleb128 0x18
 2460 0281 00       		.byte	0
 2461 0282 00       		.byte	0
 2462 0283 32       		.uleb128 0x32
 2463 0284 34       		.uleb128 0x34
 2464 0285 00       		.byte	0
 2465 0286 31       		.uleb128 0x31
 2466 0287 13       		.uleb128 0x13
 2467 0288 02       		.uleb128 0x2
 2468 0289 17       		.uleb128 0x17
 2469 028a 00       		.byte	0
 2470 028b 00       		.byte	0
 2471 028c 33       		.uleb128 0x33
 2472 028d 2E       		.uleb128 0x2e
 2473 028e 01       		.byte	0x1
 2474 028f 3F       		.uleb128 0x3f
 2475 0290 19       		.uleb128 0x19
 2476 0291 03       		.uleb128 0x3
 2477 0292 0E       		.uleb128 0xe
 2478 0293 3A       		.uleb128 0x3a
 2479 0294 0B       		.uleb128 0xb
 2480 0295 3B       		.uleb128 0x3b
 2481 0296 0B       		.uleb128 0xb
 2482 0297 27       		.uleb128 0x27
 2483 0298 19       		.uleb128 0x19
 2484 0299 11       		.uleb128 0x11
 2485 029a 01       		.uleb128 0x1
 2486 029b 12       		.uleb128 0x12
 2487 029c 06       		.uleb128 0x6
 2488 029d 40       		.uleb128 0x40
 2489 029e 18       		.uleb128 0x18
 2490 029f 9742     		.uleb128 0x2117
 2491 02a1 19       		.uleb128 0x19
 2492 02a2 01       		.uleb128 0x1
 2493 02a3 13       		.uleb128 0x13
 2494 02a4 00       		.byte	0
 2495 02a5 00       		.byte	0
 2496 02a6 34       		.uleb128 0x34
 2497 02a7 05       		.uleb128 0x5
 2498 02a8 00       		.byte	0
 2499 02a9 31       		.uleb128 0x31
 2500 02aa 13       		.uleb128 0x13
 2501 02ab 02       		.uleb128 0x2
 2502 02ac 18       		.uleb128 0x18
 2503 02ad 00       		.byte	0
 2504 02ae 00       		.byte	0
 2505 02af 35       		.uleb128 0x35
 2506 02b0 1D       		.uleb128 0x1d
 2507 02b1 01       		.byte	0x1
 2508 02b2 31       		.uleb128 0x31
ARM GAS  /tmp/ccg6DZLo.s 			page 45


 2509 02b3 13       		.uleb128 0x13
 2510 02b4 11       		.uleb128 0x11
 2511 02b5 01       		.uleb128 0x1
 2512 02b6 12       		.uleb128 0x12
 2513 02b7 06       		.uleb128 0x6
 2514 02b8 58       		.uleb128 0x58
 2515 02b9 0B       		.uleb128 0xb
 2516 02ba 59       		.uleb128 0x59
 2517 02bb 0B       		.uleb128 0xb
 2518 02bc 00       		.byte	0
 2519 02bd 00       		.byte	0
 2520 02be 36       		.uleb128 0x36
 2521 02bf 34       		.uleb128 0x34
 2522 02c0 00       		.byte	0
 2523 02c1 03       		.uleb128 0x3
 2524 02c2 0E       		.uleb128 0xe
 2525 02c3 3A       		.uleb128 0x3a
 2526 02c4 0B       		.uleb128 0xb
 2527 02c5 3B       		.uleb128 0x3b
 2528 02c6 05       		.uleb128 0x5
 2529 02c7 49       		.uleb128 0x49
 2530 02c8 13       		.uleb128 0x13
 2531 02c9 3F       		.uleb128 0x3f
 2532 02ca 19       		.uleb128 0x19
 2533 02cb 3C       		.uleb128 0x3c
 2534 02cc 19       		.uleb128 0x19
 2535 02cd 00       		.byte	0
 2536 02ce 00       		.byte	0
 2537 02cf 37       		.uleb128 0x37
 2538 02d0 34       		.uleb128 0x34
 2539 02d1 00       		.byte	0
 2540 02d2 03       		.uleb128 0x3
 2541 02d3 08       		.uleb128 0x8
 2542 02d4 3A       		.uleb128 0x3a
 2543 02d5 0B       		.uleb128 0xb
 2544 02d6 3B       		.uleb128 0x3b
 2545 02d7 05       		.uleb128 0x5
 2546 02d8 49       		.uleb128 0x49
 2547 02d9 13       		.uleb128 0x13
 2548 02da 3F       		.uleb128 0x3f
 2549 02db 19       		.uleb128 0x19
 2550 02dc 3C       		.uleb128 0x3c
 2551 02dd 19       		.uleb128 0x19
 2552 02de 00       		.byte	0
 2553 02df 00       		.byte	0
 2554 02e0 38       		.uleb128 0x38
 2555 02e1 2E       		.uleb128 0x2e
 2556 02e2 00       		.byte	0
 2557 02e3 3F       		.uleb128 0x3f
 2558 02e4 19       		.uleb128 0x19
 2559 02e5 03       		.uleb128 0x3
 2560 02e6 0E       		.uleb128 0xe
 2561 02e7 3A       		.uleb128 0x3a
 2562 02e8 0B       		.uleb128 0xb
 2563 02e9 3B       		.uleb128 0x3b
 2564 02ea 0B       		.uleb128 0xb
 2565 02eb 27       		.uleb128 0x27
ARM GAS  /tmp/ccg6DZLo.s 			page 46


 2566 02ec 19       		.uleb128 0x19
 2567 02ed 3C       		.uleb128 0x3c
 2568 02ee 19       		.uleb128 0x19
 2569 02ef 00       		.byte	0
 2570 02f0 00       		.byte	0
 2571 02f1 39       		.uleb128 0x39
 2572 02f2 2E       		.uleb128 0x2e
 2573 02f3 01       		.byte	0x1
 2574 02f4 3F       		.uleb128 0x3f
 2575 02f5 19       		.uleb128 0x19
 2576 02f6 03       		.uleb128 0x3
 2577 02f7 0E       		.uleb128 0xe
 2578 02f8 3A       		.uleb128 0x3a
 2579 02f9 0B       		.uleb128 0xb
 2580 02fa 3B       		.uleb128 0x3b
 2581 02fb 05       		.uleb128 0x5
 2582 02fc 27       		.uleb128 0x27
 2583 02fd 19       		.uleb128 0x19
 2584 02fe 49       		.uleb128 0x49
 2585 02ff 13       		.uleb128 0x13
 2586 0300 3C       		.uleb128 0x3c
 2587 0301 19       		.uleb128 0x19
 2588 0302 01       		.uleb128 0x1
 2589 0303 13       		.uleb128 0x13
 2590 0304 00       		.byte	0
 2591 0305 00       		.byte	0
 2592 0306 3A       		.uleb128 0x3a
 2593 0307 2E       		.uleb128 0x2e
 2594 0308 01       		.byte	0x1
 2595 0309 3F       		.uleb128 0x3f
 2596 030a 19       		.uleb128 0x19
 2597 030b 03       		.uleb128 0x3
 2598 030c 0E       		.uleb128 0xe
 2599 030d 3A       		.uleb128 0x3a
 2600 030e 0B       		.uleb128 0xb
 2601 030f 3B       		.uleb128 0x3b
 2602 0310 05       		.uleb128 0x5
 2603 0311 27       		.uleb128 0x27
 2604 0312 19       		.uleb128 0x19
 2605 0313 3C       		.uleb128 0x3c
 2606 0314 19       		.uleb128 0x19
 2607 0315 01       		.uleb128 0x1
 2608 0316 13       		.uleb128 0x13
 2609 0317 00       		.byte	0
 2610 0318 00       		.byte	0
 2611 0319 3B       		.uleb128 0x3b
 2612 031a 2E       		.uleb128 0x2e
 2613 031b 01       		.byte	0x1
 2614 031c 3F       		.uleb128 0x3f
 2615 031d 19       		.uleb128 0x19
 2616 031e 03       		.uleb128 0x3
 2617 031f 0E       		.uleb128 0xe
 2618 0320 3A       		.uleb128 0x3a
 2619 0321 0B       		.uleb128 0xb
 2620 0322 3B       		.uleb128 0x3b
 2621 0323 05       		.uleb128 0x5
 2622 0324 27       		.uleb128 0x27
ARM GAS  /tmp/ccg6DZLo.s 			page 47


 2623 0325 19       		.uleb128 0x19
 2624 0326 3C       		.uleb128 0x3c
 2625 0327 19       		.uleb128 0x19
 2626 0328 00       		.byte	0
 2627 0329 00       		.byte	0
 2628 032a 00       		.byte	0
 2629              		.section	.debug_loc,"",%progbits
 2630              	.Ldebug_loc0:
 2631              	.LLST0:
 2632 0000 00000000 		.4byte	.LVL0
 2633 0004 13000000 		.4byte	.LVL2-1
 2634 0008 0100     		.2byte	0x1
 2635 000a 50       		.byte	0x50
 2636 000b 13000000 		.4byte	.LVL2-1
 2637 000f 48000000 		.4byte	.LVL11
 2638 0013 0100     		.2byte	0x1
 2639 0015 55       		.byte	0x55
 2640 0016 48000000 		.4byte	.LVL11
 2641 001a 4C000000 		.4byte	.LFE290
 2642 001e 0400     		.2byte	0x4
 2643 0020 F3       		.byte	0xf3
 2644 0021 01       		.uleb128 0x1
 2645 0022 50       		.byte	0x50
 2646 0023 9F       		.byte	0x9f
 2647 0024 00000000 		.4byte	0
 2648 0028 00000000 		.4byte	0
 2649              	.LLST1:
 2650 002c 00000000 		.4byte	.LVL0
 2651 0030 13000000 		.4byte	.LVL2-1
 2652 0034 0100     		.2byte	0x1
 2653 0036 51       		.byte	0x51
 2654 0037 13000000 		.4byte	.LVL2-1
 2655 003b 3A000000 		.4byte	.LVL9
 2656 003f 0100     		.2byte	0x1
 2657 0041 56       		.byte	0x56
 2658 0042 3A000000 		.4byte	.LVL9
 2659 0046 48000000 		.4byte	.LVL11
 2660 004a 0100     		.2byte	0x1
 2661 004c 54       		.byte	0x54
 2662 004d 48000000 		.4byte	.LVL11
 2663 0051 4C000000 		.4byte	.LFE290
 2664 0055 0100     		.2byte	0x1
 2665 0057 50       		.byte	0x50
 2666 0058 00000000 		.4byte	0
 2667 005c 00000000 		.4byte	0
 2668              	.LLST2:
 2669 0060 06000000 		.4byte	.LVL1
 2670 0064 3A000000 		.4byte	.LVL9
 2671 0068 0100     		.2byte	0x1
 2672 006a 54       		.byte	0x54
 2673 006b 00000000 		.4byte	0
 2674 006f 00000000 		.4byte	0
 2675              	.LLST3:
 2676 0073 16000000 		.4byte	.LVL3
 2677 0077 1A000000 		.4byte	.LVL4
 2678 007b 0300     		.2byte	0x3
 2679 007d 75       		.byte	0x75
ARM GAS  /tmp/ccg6DZLo.s 			page 48


 2680 007e 2C       		.sleb128 44
 2681 007f 9F       		.byte	0x9f
 2682 0080 1A000000 		.4byte	.LVL4
 2683 0084 1E000000 		.4byte	.LVL5
 2684 0088 0100     		.2byte	0x1
 2685 008a 53       		.byte	0x53
 2686 008b 1E000000 		.4byte	.LVL5
 2687 008f 22000000 		.4byte	.LVL6
 2688 0093 0200     		.2byte	0x2
 2689 0095 74       		.byte	0x74
 2690 0096 00       		.sleb128 0
 2691 0097 22000000 		.4byte	.LVL6
 2692 009b 48000000 		.4byte	.LVL11
 2693 009f 0300     		.2byte	0x3
 2694 00a1 75       		.byte	0x75
 2695 00a2 2C       		.sleb128 44
 2696 00a3 9F       		.byte	0x9f
 2697 00a4 48000000 		.4byte	.LVL11
 2698 00a8 4C000000 		.4byte	.LFE290
 2699 00ac 0600     		.2byte	0x6
 2700 00ae F3       		.byte	0xf3
 2701 00af 01       		.uleb128 0x1
 2702 00b0 50       		.byte	0x50
 2703 00b1 23       		.byte	0x23
 2704 00b2 2C       		.uleb128 0x2c
 2705 00b3 9F       		.byte	0x9f
 2706 00b4 00000000 		.4byte	0
 2707 00b8 00000000 		.4byte	0
 2708              	.LLST4:
 2709 00bc 16000000 		.4byte	.LVL3
 2710 00c0 3A000000 		.4byte	.LVL9
 2711 00c4 0100     		.2byte	0x1
 2712 00c6 54       		.byte	0x54
 2713 00c7 00000000 		.4byte	0
 2714 00cb 00000000 		.4byte	0
 2715              	.LLST5:
 2716 00cf 10000000 		.4byte	.LVL14
 2717 00d3 16000000 		.4byte	.LVL15
 2718 00d7 0100     		.2byte	0x1
 2719 00d9 52       		.byte	0x52
 2720 00da 16000000 		.4byte	.LVL15
 2721 00de 21000000 		.4byte	.LVL16-1
 2722 00e2 0200     		.2byte	0x2
 2723 00e4 73       		.byte	0x73
 2724 00e5 18       		.sleb128 24
 2725 00e6 00000000 		.4byte	0
 2726 00ea 00000000 		.4byte	0
 2727              	.LLST6:
 2728 00ee 24000000 		.4byte	.LVL17
 2729 00f2 2C000000 		.4byte	.LVL19
 2730 00f6 0300     		.2byte	0x3
 2731 00f8 73       		.byte	0x73
 2732 00f9 2C       		.sleb128 44
 2733 00fa 9F       		.byte	0x9f
 2734 00fb 2C000000 		.4byte	.LVL19
 2735 00ff 30000000 		.4byte	.LVL20
 2736 0103 0100     		.2byte	0x1
ARM GAS  /tmp/ccg6DZLo.s 			page 49


 2737 0105 53       		.byte	0x53
 2738 0106 30000000 		.4byte	.LVL20
 2739 010a 37000000 		.4byte	.LVL21-1
 2740 010e 0200     		.2byte	0x2
 2741 0110 72       		.byte	0x72
 2742 0111 04       		.sleb128 4
 2743 0112 00000000 		.4byte	0
 2744 0116 00000000 		.4byte	0
 2745              	.LLST7:
 2746 011a 26000000 		.4byte	.LVL18
 2747 011e 42000000 		.4byte	.LVL22
 2748 0122 0100     		.2byte	0x1
 2749 0124 54       		.byte	0x54
 2750 0125 42000000 		.4byte	.LVL22
 2751 0129 48000000 		.4byte	.LFE291
 2752 012d 0100     		.2byte	0x1
 2753 012f 50       		.byte	0x50
 2754 0130 00000000 		.4byte	0
 2755 0134 00000000 		.4byte	0
 2756              	.LLST8:
 2757 0138 00000000 		.4byte	.LVL23
 2758 013c 0F000000 		.4byte	.LVL24-1
 2759 0140 0100     		.2byte	0x1
 2760 0142 50       		.byte	0x50
 2761 0143 0F000000 		.4byte	.LVL24-1
 2762 0147 24000000 		.4byte	.LFE292
 2763 014b 0100     		.2byte	0x1
 2764 014d 55       		.byte	0x55
 2765 014e 00000000 		.4byte	0
 2766 0152 00000000 		.4byte	0
 2767              	.LLST9:
 2768 0156 00000000 		.4byte	.LVL23
 2769 015a 0F000000 		.4byte	.LVL24-1
 2770 015e 0100     		.2byte	0x1
 2771 0160 51       		.byte	0x51
 2772 0161 0F000000 		.4byte	.LVL24-1
 2773 0165 24000000 		.4byte	.LFE292
 2774 0169 0100     		.2byte	0x1
 2775 016b 54       		.byte	0x54
 2776 016c 00000000 		.4byte	0
 2777 0170 00000000 		.4byte	0
 2778              		.section	.debug_aranges,"",%progbits
 2779 0000 2C000000 		.4byte	0x2c
 2780 0004 0200     		.2byte	0x2
 2781 0006 00000000 		.4byte	.Ldebug_info0
 2782 000a 04       		.byte	0x4
 2783 000b 00       		.byte	0
 2784 000c 0000     		.2byte	0
 2785 000e 0000     		.2byte	0
 2786 0010 00000000 		.4byte	.LFB290
 2787 0014 4C000000 		.4byte	.LFE290-.LFB290
 2788 0018 00000000 		.4byte	.LFB291
 2789 001c 48000000 		.4byte	.LFE291-.LFB291
 2790 0020 00000000 		.4byte	.LFB292
 2791 0024 24000000 		.4byte	.LFE292-.LFB292
 2792 0028 00000000 		.4byte	0
 2793 002c 00000000 		.4byte	0
ARM GAS  /tmp/ccg6DZLo.s 			page 50


 2794              		.section	.debug_ranges,"",%progbits
 2795              	.Ldebug_ranges0:
 2796 0000 1A000000 		.4byte	.LBB39
 2797 0004 22000000 		.4byte	.LBE39
 2798 0008 26000000 		.4byte	.LBB42
 2799 000c 28000000 		.4byte	.LBE42
 2800 0010 00000000 		.4byte	0
 2801 0014 00000000 		.4byte	0
 2802 0018 00000000 		.4byte	.LFB290
 2803 001c 4C000000 		.4byte	.LFE290
 2804 0020 00000000 		.4byte	.LFB291
 2805 0024 48000000 		.4byte	.LFE291
 2806 0028 00000000 		.4byte	.LFB292
 2807 002c 24000000 		.4byte	.LFE292
 2808 0030 00000000 		.4byte	0
 2809 0034 00000000 		.4byte	0
 2810              		.section	.debug_line,"",%progbits
 2811              	.Ldebug_line0:
 2812 0000 E4020000 		.section	.debug_str,"MS",%progbits,1
 2812      02000B02 
 2812      00000201 
 2812      FB0E0D00 
 2812      01010101 
 2813              	.LASF52:
 2814 0000 72656164 		.ascii	"ready_list_t\000"
 2814      795F6C69 
 2814      73745F74 
 2814      00
 2815              	.LASF108:
 2816 000d 71756575 		.ascii	"queue_insert\000"
 2816      655F696E 
 2816      73657274 
 2816      00
 2817              	.LASF94:
 2818 001a 77747472 		.ascii	"wttrp\000"
 2818      7000
 2819              	.LASF58:
 2820 0020 64656C74 		.ascii	"delta\000"
 2820      6100
 2821              	.LASF91:
 2822 0026 7264796D 		.ascii	"rdymsg\000"
 2822      736700
 2823              	.LASF16:
 2824 002d 75696E74 		.ascii	"uint64_t\000"
 2824      36345F74 
 2824      00
 2825              	.LASF71:
 2826 0036 6B65726E 		.ascii	"kernel_stats\000"
 2826      656C5F73 
 2826      74617473 
 2826      00
 2827              	.LASF5:
 2828 0043 5F5F7569 		.ascii	"__uint8_t\000"
 2828      6E74385F 
 2828      7400
 2829              	.LASF51:
 2830 004d 70726576 		.ascii	"prev\000"
ARM GAS  /tmp/ccg6DZLo.s 			page 51


 2830      00
 2831              	.LASF78:
 2832 0052 706F7274 		.ascii	"port_intctx\000"
 2832      5F696E74 
 2832      63747800 
 2833              	.LASF50:
 2834 005e 63685F74 		.ascii	"ch_threads_queue\000"
 2834      68726561 
 2834      64735F71 
 2834      75657565 
 2834      00
 2835              	.LASF63:
 2836 006f 73797374 		.ascii	"system_debug_t\000"
 2836      656D5F64 
 2836      65627567 
 2836      5F7400
 2837              	.LASF105:
 2838 007e 706F7274 		.ascii	"port_lock\000"
 2838      5F6C6F63 
 2838      6B00
 2839              	.LASF82:
 2840 0088 776F7273 		.ascii	"worst\000"
 2840      7400
 2841              	.LASF85:
 2842 008e 74696D65 		.ascii	"time_measurement_t\000"
 2842      5F6D6561 
 2842      73757265 
 2842      6D656E74 
 2842      5F7400
 2843              	.LASF12:
 2844 00a1 6C6F6E67 		.ascii	"long long unsigned int\000"
 2844      206C6F6E 
 2844      6720756E 
 2844      7369676E 
 2844      65642069 
 2845              	.LASF92:
 2846 00b8 65786974 		.ascii	"exitcode\000"
 2846      636F6465 
 2846      00
 2847              	.LASF70:
 2848 00c1 6D61696E 		.ascii	"mainthread\000"
 2848      74687265 
 2848      616400
 2849              	.LASF95:
 2850 00cc 73656E74 		.ascii	"sentmsg\000"
 2850      6D736700 
 2851              	.LASF60:
 2852 00d4 76697274 		.ascii	"virtual_timers_list_t\000"
 2852      75616C5F 
 2852      74696D65 
 2852      72735F6C 
 2852      6973745F 
 2853              	.LASF118:
 2854 00ea 49544D5F 		.ascii	"ITM_RxBuffer\000"
 2854      52784275 
 2854      66666572 
 2854      00
ARM GAS  /tmp/ccg6DZLo.s 			page 52


 2855              	.LASF48:
 2856 00f7 6E657874 		.ascii	"next\000"
 2856      00
 2857              	.LASF18:
 2858 00fc 72747469 		.ascii	"rttime_t\000"
 2858      6D655F74 
 2858      00
 2859              	.LASF10:
 2860 0105 6C6F6E67 		.ascii	"long long int\000"
 2860      206C6F6E 
 2860      6720696E 
 2860      7400
 2861              	.LASF1:
 2862 0113 7369676E 		.ascii	"signed char\000"
 2862      65642063 
 2862      68617200 
 2863              	.LASF109:
 2864 011f 62617365 		.ascii	"basePri\000"
 2864      50726900 
 2865              	.LASF69:
 2866 0127 76746C69 		.ascii	"vtlist\000"
 2866      737400
 2867              	.LASF106:
 2868 012e 706F7274 		.ascii	"port_unlock\000"
 2868      5F756E6C 
 2868      6F636B00 
 2869              	.LASF38:
 2870 013a 6D736771 		.ascii	"msgqueue\000"
 2870      75657565 
 2870      00
 2871              	.LASF34:
 2872 0143 73746174 		.ascii	"state\000"
 2872      6500
 2873              	.LASF7:
 2874 0149 6C6F6E67 		.ascii	"long int\000"
 2874      20696E74 
 2874      00
 2875              	.LASF116:
 2876 0152 63684D73 		.ascii	"chMsgSend\000"
 2876      6753656E 
 2876      6400
 2877              	.LASF20:
 2878 015c 74737461 		.ascii	"tstate_t\000"
 2878      74655F74 
 2878      00
 2879              	.LASF59:
 2880 0165 66756E63 		.ascii	"func\000"
 2880      00
 2881              	.LASF43:
 2882 016a 73746174 		.ascii	"stats\000"
 2882      7300
 2883              	.LASF110:
 2884 0170 63684D73 		.ascii	"chMsgIsPendingI\000"
 2884      67497350 
 2884      656E6469 
 2884      6E674900 
 2885              	.LASF8:
ARM GAS  /tmp/ccg6DZLo.s 			page 53


 2886 0180 5F5F7569 		.ascii	"__uint32_t\000"
 2886      6E743332 
 2886      5F7400
 2887              	.LASF75:
 2888 018b 72656761 		.ascii	"regarm_t\000"
 2888      726D5F74 
 2888      00
 2889              	.LASF64:
 2890 0194 63685F73 		.ascii	"ch_system_debug\000"
 2890      79737465 
 2890      6D5F6465 
 2890      62756700 
 2891              	.LASF37:
 2892 01a4 77616974 		.ascii	"waiting\000"
 2892      696E6700 
 2893              	.LASF103:
 2894 01ac 6D757465 		.ascii	"mutex_t\000"
 2894      785F7400 
 2895              	.LASF73:
 2896 01b4 73797369 		.ascii	"sysinterval_t\000"
 2896      6E746572 
 2896      76616C5F 
 2896      7400
 2897              	.LASF25:
 2898 01c2 636E745F 		.ascii	"cnt_t\000"
 2898      7400
 2899              	.LASF0:
 2900 01c8 756E7369 		.ascii	"unsigned int\000"
 2900      676E6564 
 2900      20696E74 
 2900      00
 2901              	.LASF121:
 2902 01d5 474E5520 		.ascii	"GNU C 4.9.3 20150529 (prerelease) -mcpu=cortex-m4 -"
 2902      4320342E 
 2902      392E3320 
 2902      32303135 
 2902      30353239 
 2903 0208 6D666C6F 		.ascii	"mfloat-abi=hard -mfpu=fpv4-sp-d16 -mno-thumb-interw"
 2903      61742D61 
 2903      62693D68 
 2903      61726420 
 2903      2D6D6670 
 2904 023b 6F726B20 		.ascii	"ork -mthumb -g -Os -fomit-frame-pointer -falign-fun"
 2904      2D6D7468 
 2904      756D6220 
 2904      2D67202D 
 2904      4F73202D 
 2905 026e 6374696F 		.ascii	"ctions=16 -ffunction-sections -fdata-sections -fno-"
 2905      6E733D31 
 2905      36202D66 
 2905      66756E63 
 2905      74696F6E 
 2906 02a1 636F6D6D 		.ascii	"common -fsingle-precision-constant\000"
 2906      6F6E202D 
 2906      6673696E 
 2906      676C652D 
 2906      70726563 
ARM GAS  /tmp/ccg6DZLo.s 			page 54


 2907              	.LASF96:
 2908 02c4 77747365 		.ascii	"wtsemp\000"
 2908      6D7000
 2909              	.LASF86:
 2910 02cb 6E5F6972 		.ascii	"n_irq\000"
 2910      7100
 2911              	.LASF28:
 2912 02d1 71756575 		.ascii	"queue\000"
 2912      6500
 2913              	.LASF42:
 2914 02d7 6D706F6F 		.ascii	"mpool\000"
 2914      6C00
 2915              	.LASF4:
 2916 02dd 73686F72 		.ascii	"short unsigned int\000"
 2916      7420756E 
 2916      7369676E 
 2916      65642069 
 2916      6E7400
 2917              	.LASF90:
 2918 02f0 6B65726E 		.ascii	"kernel_stats_t\000"
 2918      656C5F73 
 2918      74617473 
 2918      5F7400
 2919              	.LASF46:
 2920 02ff 63685F74 		.ascii	"ch_thread\000"
 2920      68726561 
 2920      6400
 2921              	.LASF32:
 2922 0309 6E616D65 		.ascii	"name\000"
 2922      00
 2923              	.LASF23:
 2924 030e 6D73675F 		.ascii	"msg_t\000"
 2924      7400
 2925              	.LASF83:
 2926 0314 6C617374 		.ascii	"last\000"
 2926      00
 2927              	.LASF26:
 2928 0319 75636E74 		.ascii	"ucnt_t\000"
 2928      5F7400
 2929              	.LASF39:
 2930 0320 6570656E 		.ascii	"epending\000"
 2930      64696E67 
 2930      00
 2931              	.LASF66:
 2932 0329 63685F73 		.ascii	"ch_system_t\000"
 2932      79737465 
 2932      6D5F7400 
 2933              	.LASF19:
 2934 0335 746D6F64 		.ascii	"tmode_t\000"
 2934      655F7400 
 2935              	.LASF89:
 2936 033d 6D5F6372 		.ascii	"m_crit_isr\000"
 2936      69745F69 
 2936      737200
 2937              	.LASF53:
 2938 0348 63685F72 		.ascii	"ch_ready_list\000"
 2938      65616479 
ARM GAS  /tmp/ccg6DZLo.s 			page 55


 2938      5F6C6973 
 2938      7400
 2939              	.LASF24:
 2940 0356 6576656E 		.ascii	"eventmask_t\000"
 2940      746D6173 
 2940      6B5F7400 
 2941              	.LASF6:
 2942 0362 5F5F696E 		.ascii	"__int32_t\000"
 2942      7433325F 
 2942      7400
 2943              	.LASF76:
 2944 036c 73746B61 		.ascii	"stkalign_t\000"
 2944      6C69676E 
 2944      5F7400
 2945              	.LASF30:
 2946 0377 6E657765 		.ascii	"newer\000"
 2946      7200
 2947              	.LASF41:
 2948 037d 7265616C 		.ascii	"realprio\000"
 2948      7072696F 
 2948      00
 2949              	.LASF120:
 2950 0386 5F737461 		.ascii	"_stats_stop_measure_crit_thd\000"
 2950      74735F73 
 2950      746F705F 
 2950      6D656173 
 2950      7572655F 
 2951              	.LASF74:
 2952 03a3 73697A65 		.ascii	"sizetype\000"
 2952      74797065 
 2952      00
 2953              	.LASF44:
 2954 03ac 74687265 		.ascii	"thread_reference_t\000"
 2954      61645F72 
 2954      65666572 
 2954      656E6365 
 2954      5F7400
 2955              	.LASF61:
 2956 03bf 63685F76 		.ascii	"ch_virtual_timers_list\000"
 2956      69727475 
 2956      616C5F74 
 2956      696D6572 
 2956      735F6C69 
 2957              	.LASF77:
 2958 03d6 706F7274 		.ascii	"port_context\000"
 2958      5F636F6E 
 2958      74657874 
 2958      00
 2959              	.LASF80:
 2960 03e3 746D5F63 		.ascii	"tm_calibration_t\000"
 2960      616C6962 
 2960      72617469 
 2960      6F6E5F74 
 2960      00
 2961              	.LASF29:
 2962 03f4 7072696F 		.ascii	"prio\000"
 2962      00
ARM GAS  /tmp/ccg6DZLo.s 			page 56


 2963              	.LASF54:
 2964 03f9 63757272 		.ascii	"current\000"
 2964      656E7400 
 2965              	.LASF11:
 2966 0401 5F5F7569 		.ascii	"__uint64_t\000"
 2966      6E743634 
 2966      5F7400
 2967              	.LASF84:
 2968 040c 63756D75 		.ascii	"cumulative\000"
 2968      6C617469 
 2968      766500
 2969              	.LASF21:
 2970 0417 74726566 		.ascii	"trefs_t\000"
 2970      735F7400 
 2971              	.LASF36:
 2972 041f 72656673 		.ascii	"refs\000"
 2972      00
 2973              	.LASF56:
 2974 0424 76697274 		.ascii	"virtual_timer_t\000"
 2974      75616C5F 
 2974      74696D65 
 2974      725F7400 
 2975              	.LASF22:
 2976 0434 74707269 		.ascii	"tprio_t\000"
 2976      6F5F7400 
 2977              	.LASF87:
 2978 043c 6E5F6374 		.ascii	"n_ctxswc\000"
 2978      78737763 
 2978      00
 2979              	.LASF104:
 2980 0445 5F426F6F 		.ascii	"_Bool\000"
 2980      6C00
 2981              	.LASF14:
 2982 044b 696E7433 		.ascii	"int32_t\000"
 2982      325F7400 
 2983              	.LASF2:
 2984 0453 756E7369 		.ascii	"unsigned char\000"
 2984      676E6564 
 2984      20636861 
 2984      7200
 2985              	.LASF3:
 2986 0461 73686F72 		.ascii	"short int\000"
 2986      7420696E 
 2986      7400
 2987              	.LASF62:
 2988 046b 6C617374 		.ascii	"lasttime\000"
 2988      74696D65 
 2988      00
 2989              	.LASF98:
 2990 0474 65776D61 		.ascii	"ewmask\000"
 2990      736B00
 2991              	.LASF67:
 2992 047b 63685F73 		.ascii	"ch_system\000"
 2992      79737465 
 2992      6D00
 2993              	.LASF115:
 2994 0485 5F5F6675 		.ascii	"__func__\000"
ARM GAS  /tmp/ccg6DZLo.s 			page 57


 2994      6E635F5F 
 2994      00
 2995              	.LASF113:
 2996 048e 63685379 		.ascii	"chSysLock\000"
 2996      734C6F63 
 2996      6B00
 2997              	.LASF57:
 2998 0498 63685F76 		.ascii	"ch_virtual_timer\000"
 2998      69727475 
 2998      616C5F74 
 2998      696D6572 
 2998      00
 2999              	.LASF124:
 3000 04a9 63684D73 		.ascii	"chMsgRelease\000"
 3000      6752656C 
 3000      65617365 
 3000      00
 3001              	.LASF99:
 3002 04b6 63685F73 		.ascii	"ch_semaphore\000"
 3002      656D6170 
 3002      686F7265 
 3002      00
 3003              	.LASF126:
 3004 04c3 63685363 		.ascii	"chSchGoSleepS\000"
 3004      68476F53 
 3004      6C656570 
 3004      5300
 3005              	.LASF15:
 3006 04d1 75696E74 		.ascii	"uint32_t\000"
 3006      33325F74 
 3006      00
 3007              	.LASF97:
 3008 04da 77746D74 		.ascii	"wtmtxp\000"
 3008      787000
 3009              	.LASF125:
 3010 04e1 63685363 		.ascii	"chSchReadyI\000"
 3010      68526561 
 3010      64794900 
 3011              	.LASF47:
 3012 04ed 63685F74 		.ascii	"ch_threads_list\000"
 3012      68726561 
 3012      64735F6C 
 3012      69737400 
 3013              	.LASF101:
 3014 04fd 6F776E65 		.ascii	"owner\000"
 3014      7200
 3015              	.LASF9:
 3016 0503 6C6F6E67 		.ascii	"long unsigned int\000"
 3016      20756E73 
 3016      69676E65 
 3016      6420696E 
 3016      7400
 3017              	.LASF33:
 3018 0515 77616261 		.ascii	"wabase\000"
 3018      736500
 3019              	.LASF102:
 3020 051c 63686172 		.ascii	"char\000"
ARM GAS  /tmp/ccg6DZLo.s 			page 58


 3020      00
 3021              	.LASF31:
 3022 0521 6F6C6465 		.ascii	"older\000"
 3022      7200
 3023              	.LASF27:
 3024 0527 74687265 		.ascii	"thread_t\000"
 3024      61645F74 
 3024      00
 3025              	.LASF81:
 3026 0530 62657374 		.ascii	"best\000"
 3026      00
 3027              	.LASF111:
 3028 0535 71756575 		.ascii	"queue_fifo_remove\000"
 3028      655F6669 
 3028      666F5F72 
 3028      656D6F76 
 3028      6500
 3029              	.LASF72:
 3030 0547 73797374 		.ascii	"systime_t\000"
 3030      696D655F 
 3030      7400
 3031              	.LASF55:
 3032 0551 76746675 		.ascii	"vtfunc_t\000"
 3032      6E635F74 
 3032      00
 3033              	.LASF107:
 3034 055a 5F5F7365 		.ascii	"__set_BASEPRI\000"
 3034      745F4241 
 3034      53455052 
 3034      4900
 3035              	.LASF65:
 3036 0568 70616E69 		.ascii	"panic_msg\000"
 3036      635F6D73 
 3036      6700
 3037              	.LASF79:
 3038 0572 6F666673 		.ascii	"offset\000"
 3038      657400
 3039              	.LASF122:
 3040 0579 2E2E2F2E 		.ascii	"../../modules/ChibiOS/os/rt/src/chmsg.c\000"
 3040      2E2F6D6F 
 3040      64756C65 
 3040      732F4368 
 3040      6962694F 
 3041              	.LASF123:
 3042 05a1 2F686F6D 		.ascii	"/home/kozinalexey/f4by/ardupilot/build/F4BY\000"
 3042      652F6B6F 
 3042      7A696E61 
 3042      6C657865 
 3042      792F6634 
 3043              	.LASF17:
 3044 05cd 7274636E 		.ascii	"rtcnt_t\000"
 3044      745F7400 
 3045              	.LASF127:
 3046 05d5 63685363 		.ascii	"chSchWakeupS\000"
 3046      6857616B 
 3046      65757053 
 3046      00
ARM GAS  /tmp/ccg6DZLo.s 			page 59


 3047              	.LASF117:
 3048 05e2 63684D73 		.ascii	"chMsgWait\000"
 3048      67576169 
 3048      7400
 3049              	.LASF49:
 3050 05ec 74687265 		.ascii	"threads_queue_t\000"
 3050      6164735F 
 3050      71756575 
 3050      655F7400 
 3051              	.LASF100:
 3052 05fc 63685F6D 		.ascii	"ch_mutex\000"
 3052      75746578 
 3052      00
 3053              	.LASF68:
 3054 0605 726C6973 		.ascii	"rlist\000"
 3054      7400
 3055              	.LASF13:
 3056 060b 75696E74 		.ascii	"uint8_t\000"
 3056      385F7400 
 3057              	.LASF35:
 3058 0613 666C6167 		.ascii	"flags\000"
 3058      7300
 3059              	.LASF119:
 3060 0619 5F737461 		.ascii	"_stats_start_measure_crit_thd\000"
 3060      74735F73 
 3060      74617274 
 3060      5F6D6561 
 3060      73757265 
 3061              	.LASF93:
 3062 0637 77746F62 		.ascii	"wtobjp\000"
 3062      6A7000
 3063              	.LASF45:
 3064 063e 74687265 		.ascii	"threads_list_t\000"
 3064      6164735F 
 3064      6C697374 
 3064      5F7400
 3065              	.LASF114:
 3066 064d 63685379 		.ascii	"chSysUnlock\000"
 3066      73556E6C 
 3066      6F636B00 
 3067              	.LASF112:
 3068 0659 63684D73 		.ascii	"chMsgReleaseS\000"
 3068      6752656C 
 3068      65617365 
 3068      5300
 3069              	.LASF40:
 3070 0667 6D74786C 		.ascii	"mtxlist\000"
 3070      69737400 
 3071              	.LASF88:
 3072 066f 6D5F6372 		.ascii	"m_crit_thd\000"
 3072      69745F74 
 3072      686400
 3073              		.ident	"GCC: (15:4.9.3+svn231177-1) 4.9.3 20150529 (prerelease)"
ARM GAS  /tmp/ccg6DZLo.s 			page 60


DEFINED SYMBOLS
                            *ABS*:0000000000000000 chmsg.c
     /tmp/ccg6DZLo.s:21     .text.chMsgSend:0000000000000000 $t
     /tmp/ccg6DZLo.s:26     .text.chMsgSend:0000000000000000 chMsgSend
     /tmp/ccg6DZLo.s:139    .text.chMsgSend:0000000000000048 $d
     /tmp/ccg6DZLo.s:144    .text.chMsgWait:0000000000000000 $t
     /tmp/ccg6DZLo.s:149    .text.chMsgWait:0000000000000000 chMsgWait
     /tmp/ccg6DZLo.s:247    .text.chMsgWait:0000000000000044 $d
     /tmp/ccg6DZLo.s:252    .text.chMsgRelease:0000000000000000 $t
     /tmp/ccg6DZLo.s:257    .text.chMsgRelease:0000000000000000 chMsgRelease
                     .debug_frame:0000000000000010 $d

UNDEFINED SYMBOLS
_stats_start_measure_crit_thd
chSchReadyI
chSchGoSleepS
_stats_stop_measure_crit_thd
ch
chSchWakeupS
