ARM GAS  /tmp/ccLlgcLW.s 			page 1


   1              		.syntax unified
   2              		.cpu cortex-m4
   3              		.eabi_attribute 27, 1
   4              		.eabi_attribute 28, 1
   5              		.fpu fpv4-sp-d16
   6              		.eabi_attribute 20, 1
   7              		.eabi_attribute 21, 1
   8              		.eabi_attribute 23, 3
   9              		.eabi_attribute 24, 1
  10              		.eabi_attribute 25, 1
  11              		.eabi_attribute 26, 1
  12              		.eabi_attribute 30, 4
  13              		.eabi_attribute 34, 1
  14              		.eabi_attribute 18, 4
  15              		.thumb
  16              		.file	"chprintf.c"
  17              		.text
  18              	.Ltext0:
  19              		.cfi_sections	.debug_frame
  20              		.section	.text.long_to_string_with_divisor,"ax",%progbits
  21              		.align	1
  22              		.thumb
  23              		.thumb_func
  24              		.type	long_to_string_with_divisor, %function
  25              	long_to_string_with_divisor:
  26              	.LFB323:
  27              		.file 1 "../../modules/ChibiOS/os/hal/lib/streams/chprintf.c"
  28              		.loc 1 41 0
  29              		.cfi_startproc
  30              		@ args = 0, pretend = 0, frame = 0
  31              		@ frame_needed = 0, uses_anonymous_args = 0
  32              	.LVL0:
  33 0000 F0B5     		push	{r4, r5, r6, r7, lr}
  34              		.cfi_def_cfa_offset 20
  35              		.cfi_offset 4, -20
  36              		.cfi_offset 5, -16
  37              		.cfi_offset 6, -12
  38              		.cfi_offset 7, -8
  39              		.cfi_offset 14, -4
  40              		.loc 1 53 0
  41 0002 00F10B05 		add	r5, r0, #11
  42              		.loc 1 47 0
  43 0006 002B     		cmp	r3, #0
  44 0008 08BF     		it	eq
  45 000a 0B46     		moveq	r3, r1
  46              	.LVL1:
  47              		.loc 1 53 0
  48 000c 2C46     		mov	r4, r5
  49              	.LVL2:
  50              	.L4:
  51              		.loc 1 55 0
  52 000e B1FBF2F7 		udiv	r7, r1, r2
  53 0012 02FB1711 		mls	r1, r2, r7, r1
  54              	.LVL3:
  55              		.loc 1 56 0
  56 0016 01F13006 		add	r6, r1, #48
  57              	.LVL4:
ARM GAS  /tmp/ccLlgcLW.s 			page 2


  58              		.loc 1 57 0
  59 001a 392E     		cmp	r6, #57
  60              		.loc 1 58 0
  61 001c C8BF     		it	gt
  62 001e 01F13706 		addgt	r6, r1, #55
  63              	.LVL5:
  64              		.loc 1 59 0
  65 0022 04F8016D 		strb	r6, [r4, #-1]!
  66              	.LVL6:
  67              		.loc 1 61 0
  68 0026 B3FBF2F3 		udiv	r3, r3, r2
  69              	.LVL7:
  70              		.loc 1 60 0
  71 002a 3946     		mov	r1, r7
  72              	.LVL8:
  73              		.loc 1 61 0
  74 002c 002B     		cmp	r3, #0
  75 002e EED1     		bne	.L4
  76              	.LVL9:
  77 0030 431E     		subs	r3, r0, #1
  78              	.LVL10:
  79              		.loc 1 63 0
  80 0032 2A1B     		subs	r2, r5, r4
  81              	.LVL11:
  82              	.L5:
  83              		.loc 1 65 0 discriminator 1
  84 0034 14F8011B 		ldrb	r1, [r4], #1	@ zero_extendqisi2
  85              	.LVL12:
  86 0038 03F8011F 		strb	r1, [r3, #1]!
  87              		.loc 1 66 0 discriminator 1
  88 003c AC42     		cmp	r4, r5
  89 003e F9D1     		bne	.L5
  90              		.loc 1 69 0
  91 0040 1044     		add	r0, r0, r2
  92 0042 F0BD     		pop	{r4, r5, r6, r7, pc}
  93              		.cfi_endproc
  94              	.LFE323:
  95              		.size	long_to_string_with_divisor, .-long_to_string_with_divisor
  96              		.global	__aeabi_d2f
  97              		.global	__aeabi_f2d
  98              		.global	__aeabi_i2d
  99              		.global	__aeabi_dsub
 100              		.global	__aeabi_ui2d
 101              		.global	__aeabi_dmul
 102              		.global	__aeabi_d2iz
 103              		.section	.text.chvprintf,"ax",%progbits
 104              		.align	1
 105              		.global	chvprintf
 106              		.thumb
 107              		.thumb_func
 108              		.type	chvprintf, %function
 109              	chvprintf:
 110              	.LFB326:
 111              		.loc 1 122 0
 112              		.cfi_startproc
 113              		@ args = 0, pretend = 0, frame = 48
 114              		@ frame_needed = 0, uses_anonymous_args = 0
ARM GAS  /tmp/ccLlgcLW.s 			page 3


 115              	.LVL13:
 116 0000 2DE9F04F 		push	{r4, r5, r6, r7, r8, r9, r10, fp, lr}
 117              		.cfi_def_cfa_offset 36
 118              		.cfi_offset 4, -36
 119              		.cfi_offset 5, -32
 120              		.cfi_offset 6, -28
 121              		.cfi_offset 7, -24
 122              		.cfi_offset 8, -20
 123              		.cfi_offset 9, -16
 124              		.cfi_offset 10, -12
 125              		.cfi_offset 11, -8
 126              		.cfi_offset 14, -4
 127 0004 2DED028B 		fstmfdd	sp!, {d8}
 128              		.cfi_def_cfa_offset 44
 129              		.cfi_offset 80, -44
 130              		.cfi_offset 81, -40
 131 0008 0646     		mov	r6, r0
 132 000a 8DB0     		sub	sp, sp, #52
 133              		.cfi_def_cfa_offset 96
 134              		.loc 1 122 0
 135 000c 0B46     		mov	r3, r1
 136 000e 9246     		mov	r10, r2
 137              	.LVL14:
 138              		.loc 1 125 0
 139 0010 0027     		movs	r7, #0
 140              	.LVL15:
 141              	.L11:
 142              		.loc 1 136 0
 143 0012 1978     		ldrb	r1, [r3]	@ zero_extendqisi2
 144 0014 5C1C     		adds	r4, r3, #1
 145              	.LVL16:
 146              		.loc 1 137 0
 147 0016 0029     		cmp	r1, #0
 148 0018 00F05381 		beq	.L158
 149              		.loc 1 139 0
 150 001c 2529     		cmp	r1, #37
 151 001e 06D0     		beq	.L13
 152              		.loc 1 140 0
 153 0020 3368     		ldr	r3, [r6]
 154 0022 3046     		mov	r0, r6
 155 0024 DB68     		ldr	r3, [r3, #12]
 156 0026 9847     		blx	r3
 157              	.LVL17:
 158              		.loc 1 141 0
 159 0028 0137     		adds	r7, r7, #1
 160              	.LVL18:
 161              	.L14:
 162              		.loc 1 272 0
 163 002a 2346     		mov	r3, r4
 164 002c F1E7     		b	.L11
 165              	.LVL19:
 166              	.L13:
 167              		.loc 1 147 0
 168 002e 5A78     		ldrb	r2, [r3, #1]	@ zero_extendqisi2
 169              	.LVL20:
 170 0030 2D2A     		cmp	r2, #45
 171              		.loc 1 148 0
ARM GAS  /tmp/ccLlgcLW.s 			page 4


 172 0032 0CBF     		ite	eq
 173 0034 9C1C     		addeq	r4, r3, #2
 174              	.LVL21:
 175              		.loc 1 146 0
 176 0036 0023     		movne	r3, #0
 177              		.loc 1 152 0
 178 0038 2578     		ldrb	r5, [r4]	@ zero_extendqisi2
 179              		.loc 1 149 0
 180 003a 08BF     		it	eq
 181 003c 0123     		moveq	r3, #1
 182              		.loc 1 152 0
 183 003e 302D     		cmp	r5, #48
 184              		.loc 1 146 0
 185 0040 0293     		str	r3, [sp, #8]
 186              	.LVL22:
 187              		.loc 1 153 0
 188 0042 0CBF     		ite	eq
 189 0044 0134     		addeq	r4, r4, #1
 190              	.LVL23:
 191              		.loc 1 151 0
 192 0046 2025     		movne	r5, #32
 193              	.LVL24:
 194              		.loc 1 156 0
 195 0048 0023     		movs	r3, #0
 196              	.LVL25:
 197              	.L162:
 198 004a 0193     		str	r3, [sp, #4]
 199              	.LVL26:
 200              		.loc 1 158 0
 201 004c 14F8013B 		ldrb	r3, [r4], #1	@ zero_extendqisi2
 202              	.LVL27:
 203              		.loc 1 159 0
 204 0050 A3F13002 		sub	r2, r3, #48
 205 0054 D2B2     		uxtb	r2, r2
 206 0056 092A     		cmp	r2, #9
 207 0058 05D9     		bls	.L17
 208              		.loc 1 161 0
 209 005a 2A2B     		cmp	r3, #42
 210 005c 08D1     		bne	.L18
 211              		.loc 1 162 0
 212 005e 9AF80020 		ldrb	r2, [r10]	@ zero_extendqisi2
 213              	.LVL28:
 214 0062 0AF1040A 		add	r10, r10, #4
 215              	.LVL29:
 216              	.L17:
 217              		.loc 1 165 0
 218 0066 0199     		ldr	r1, [sp, #4]
 219 0068 0A23     		movs	r3, #10
 220 006a 03FB0123 		mla	r3, r3, r1, r2
 221 006e ECE7     		b	.L162
 222              	.LVL30:
 223              	.L18:
 224              		.loc 1 168 0
 225 0070 2E2B     		cmp	r3, #46
 226 0072 4FF00009 		mov	r9, #0
 227 0076 10D1     		bne	.L20
 228              	.LVL31:
ARM GAS  /tmp/ccLlgcLW.s 			page 5


 229              	.L22:
 230              		.loc 1 170 0
 231 0078 14F8013B 		ldrb	r3, [r4], #1	@ zero_extendqisi2
 232              	.LVL32:
 233              		.loc 1 171 0
 234 007c A3F13002 		sub	r2, r3, #48
 235 0080 D2B2     		uxtb	r2, r2
 236 0082 092A     		cmp	r2, #9
 237 0084 05D9     		bls	.L21
 238              		.loc 1 173 0
 239 0086 2A2B     		cmp	r3, #42
 240 0088 07D1     		bne	.L20
 241              		.loc 1 174 0
 242 008a 9AF80020 		ldrb	r2, [r10]	@ zero_extendqisi2
 243              	.LVL33:
 244 008e 0AF1040A 		add	r10, r10, #4
 245              	.LVL34:
 246              	.L21:
 247              		.loc 1 178 0
 248 0092 0A23     		movs	r3, #10
 249 0094 03FB0929 		mla	r9, r3, r9, r2
 250              	.LVL35:
 251              		.loc 1 179 0
 252 0098 EEE7     		b	.L22
 253              	.LVL36:
 254              	.L20:
 255              		.loc 1 182 0
 256 009a 03F0DF02 		and	r2, r3, #223
 257 009e 4C2A     		cmp	r2, #76
 258 00a0 03D1     		bne	.L24
 259              	.LVL37:
 260              		.loc 1 184 0
 261 00a2 2278     		ldrb	r2, [r4]	@ zero_extendqisi2
 262 00a4 0AB1     		cbz	r2, .L24
 263              		.loc 1 185 0
 264 00a6 0134     		adds	r4, r4, #1
 265              	.LVL38:
 266 00a8 1346     		mov	r3, r2
 267              	.LVL39:
 268              	.L24:
 269              		.loc 1 191 0
 270 00aa 642B     		cmp	r3, #100
 271 00ac 1DD1     		bne	.L189
 272              	.L41:
 273              		.loc 1 212 0
 274 00ae DAF80010 		ldr	r1, [r10]
 275              		.loc 1 213 0
 276 00b2 0029     		cmp	r1, #0
 277              		.loc 1 214 0
 278 00b4 B8BF     		it	lt
 279 00b6 2D23     		movlt	r3, #45
 280              	.LVL40:
 281              		.loc 1 212 0
 282 00b8 0AF10408 		add	r8, r10, #4
 283              	.LVL41:
 284              		.loc 1 214 0
 285 00bc BDBF     		ittte	lt
ARM GAS  /tmp/ccLlgcLW.s 			page 6


 286 00be 8DF81830 		strblt	r3, [sp, #24]
 287              		.loc 1 215 0
 288 00c2 4942     		rsblt	r1, r1, #0
 289              	.LVL42:
 290              		.loc 1 214 0
 291 00c4 0DF11900 		addlt	r0, sp, #25
 292              		.loc 1 144 0
 293 00c8 06A8     		addge	r0, sp, #24
 294              	.LVL43:
 295              	.LBB8:
 296              	.LBB9:
 297              		.loc 1 73 0
 298 00ca 0A22     		movs	r2, #10
 299 00cc 07E0     		b	.L166
 300              	.LVL44:
 301              	.L191:
 302              	.LBE9:
 303              	.LBE8:
 304              		.loc 1 191 0
 305 00ce 552B     		cmp	r3, #85
 306 00d0 7AD1     		bne	.L25
 307              	.L32:
 308              	.LVL45:
 309              		.loc 1 235 0
 310 00d2 0A22     		movs	r2, #10
 311              	.LVL46:
 312              	.L171:
 313              		.loc 1 244 0
 314 00d4 DAF80010 		ldr	r1, [r10]
 315 00d8 0AF10408 		add	r8, r10, #4
 316              	.LVL47:
 317              	.LBB10:
 318              	.LBB11:
 319              		.loc 1 73 0
 320 00dc 06A8     		add	r0, sp, #24
 321              	.LVL48:
 322              	.L166:
 323 00de 0023     		movs	r3, #0
 324              	.LVL49:
 325              	.L168:
 326 00e0 FFF7FEFF 		bl	long_to_string_with_divisor
 327              	.LVL50:
 328              	.LBE11:
 329              	.LBE10:
 330              		.loc 1 145 0
 331 00e4 0DF1180B 		add	fp, sp, #24
 332              	.LVL51:
 333              		.loc 1 246 0
 334 00e8 12E0     		b	.L36
 335              	.LVL52:
 336              	.L189:
 337              		.loc 1 191 0
 338 00ea 5AD8     		bhi	.L58
 339 00ec 4F2B     		cmp	r3, #79
 340 00ee 5AD0     		beq	.L28
 341 00f0 5BD9     		bls	.L190
 342 00f2 582B     		cmp	r3, #88
ARM GAS  /tmp/ccLlgcLW.s 			page 7


 343 00f4 63D0     		beq	.L66
 344 00f6 632B     		cmp	r3, #99
 345 00f8 E9D1     		bne	.L191
 346              	.LVL53:
 347              		.loc 1 194 0
 348 00fa 0DF1300B 		add	fp, sp, #48
 349 00fe DAF80030 		ldr	r3, [r10]
 350              	.LVL54:
 351 0102 0BF8183D 		strb	r3, [fp, #-24]!
 352 0106 0AF10408 		add	r8, r10, #4
 353              		.loc 1 193 0
 354 010a 2025     		movs	r5, #32
 355              	.LVL55:
 356              	.L167:
 357              		.loc 1 248 0
 358 010c 0DF11900 		add	r0, sp, #25
 359              	.LVL56:
 360              	.L36:
 361              		.loc 1 252 0
 362 0110 019B     		ldr	r3, [sp, #4]
 363              		.loc 1 251 0
 364 0112 CBEB0009 		rsb	r9, fp, r0
 365              	.LVL57:
 366              		.loc 1 252 0
 367 0116 C9EB030A 		rsb	r10, r9, r3
 368              	.LVL58:
 369              		.loc 1 254 0
 370 011a 029B     		ldr	r3, [sp, #8]
 371 011c 2AEAEA7A 		bic	r10, r10, r10, asr #31
 372              	.LVL59:
 373 0120 03BB     		cbnz	r3, .L50
 374              		.loc 1 255 0
 375 0122 CAF1000A 		rsb	r10, r10, #0
 376              	.LVL60:
 377              		.loc 1 256 0
 378 0126 BAF1000F 		cmp	r10, #0
 379 012a 1BD0     		beq	.L50
 380              		.loc 1 257 0
 381 012c 9BF80010 		ldrb	r1, [fp]	@ zero_extendqisi2
 382 0130 2D29     		cmp	r1, #45
 383 0132 0AD1     		bne	.L51
 384              		.loc 1 257 0 is_stmt 0 discriminator 1
 385 0134 302D     		cmp	r5, #48
 386 0136 08D1     		bne	.L51
 387              		.loc 1 258 0 is_stmt 1
 388 0138 3368     		ldr	r3, [r6]
 389 013a 3046     		mov	r0, r6
 390              	.LVL61:
 391 013c DB68     		ldr	r3, [r3, #12]
 392 013e 9847     		blx	r3
 393              	.LVL62:
 394 0140 0BF1010B 		add	fp, fp, #1
 395              	.LVL63:
 396              		.loc 1 259 0
 397 0144 0137     		adds	r7, r7, #1
 398              	.LVL64:
 399              		.loc 1 260 0
ARM GAS  /tmp/ccLlgcLW.s 			page 8


 400 0146 09F1FF39 		add	r9, r9, #-1
 401              	.LVL65:
 402              	.L51:
 403              		.loc 1 197 0 discriminator 1
 404 014a 5346     		mov	r3, r10
 405              	.LVL66:
 406              	.L52:
 407              		.loc 1 263 0 discriminator 1
 408 014c 3268     		ldr	r2, [r6]
 409 014e 0193     		str	r3, [sp, #4]
 410              	.LVL67:
 411 0150 D268     		ldr	r2, [r2, #12]
 412 0152 3046     		mov	r0, r6
 413 0154 2946     		mov	r1, r5
 414 0156 9047     		blx	r2
 415              	.LVL68:
 416              		.loc 1 265 0 discriminator 1
 417 0158 019B     		ldr	r3, [sp, #4]
 418 015a 0133     		adds	r3, r3, #1
 419              	.LVL69:
 420 015c F6D1     		bne	.L52
 421 015e CAEB0707 		rsb	r7, r10, r7
 422              		.loc 1 265 0 is_stmt 0
 423 0162 9A46     		mov	r10, r3
 424              	.LVL70:
 425              	.L50:
 426 0164 4B46     		mov	r3, r9
 427              	.LVL71:
 428              	.L53:
 429              		.loc 1 267 0 is_stmt 1
 430 0166 013B     		subs	r3, r3, #1
 431              	.LVL72:
 432 0168 08D4     		bmi	.L192
 433              		.loc 1 268 0
 434 016a 3268     		ldr	r2, [r6]
 435 016c 1BF8011B 		ldrb	r1, [fp], #1	@ zero_extendqisi2
 436              	.LVL73:
 437 0170 D268     		ldr	r2, [r2, #12]
 438 0172 0193     		str	r3, [sp, #4]
 439              	.LVL74:
 440 0174 3046     		mov	r0, r6
 441 0176 9047     		blx	r2
 442              	.LVL75:
 443 0178 019B     		ldr	r3, [sp, #4]
 444 017a F4E7     		b	.L53
 445              	.LVL76:
 446              	.L192:
 447 017c B9F1000F 		cmp	r9, #0
 448 0180 A8BF     		it	ge
 449 0182 4F44     		addge	r7, r7, r9
 450              		.loc 1 267 0
 451 0184 D146     		mov	r9, r10
 452              	.LVL77:
 453              	.L55:
 454              		.loc 1 272 0
 455 0186 B9F1000F 		cmp	r9, #0
 456 018a 02D1     		bne	.L56
ARM GAS  /tmp/ccLlgcLW.s 			page 9


 457 018c 5744     		add	r7, r7, r10
 458 018e C246     		mov	r10, r8
 459 0190 4BE7     		b	.L14
 460              	.L56:
 461              		.loc 1 273 0
 462 0192 3368     		ldr	r3, [r6]
 463 0194 3046     		mov	r0, r6
 464 0196 DB68     		ldr	r3, [r3, #12]
 465 0198 2946     		mov	r1, r5
 466 019a 9847     		blx	r3
 467              	.LVL78:
 468              		.loc 1 275 0
 469 019c 09F1FF39 		add	r9, r9, #-1
 470              	.LVL79:
 471 01a0 F1E7     		b	.L55
 472              	.LVL80:
 473              	.L58:
 474              		.loc 1 191 0
 475 01a2 6F2B     		cmp	r3, #111
 476 01a4 06D1     		bne	.L193
 477              	.L28:
 478              	.LVL81:
 479              		.loc 1 239 0
 480 01a6 0822     		movs	r2, #8
 481 01a8 94E7     		b	.L171
 482              	.LVL82:
 483              	.L190:
 484              		.loc 1 191 0
 485 01aa 442B     		cmp	r3, #68
 486 01ac 3FF47FAF 		beq	.L41
 487 01b0 492B     		cmp	r3, #73
 488 01b2 07E0     		b	.L165
 489              	.L193:
 490 01b4 0ED9     		bls	.L194
 491 01b6 752B     		cmp	r3, #117
 492 01b8 8BD0     		beq	.L32
 493 01ba 782B     		cmp	r3, #120
 494 01bc 66D1     		bne	.L195
 495              	.L66:
 496              	.L30:
 497              		.loc 1 231 0
 498 01be 1022     		movs	r2, #16
 499              	.LVL83:
 500 01c0 88E7     		b	.L171
 501              	.LVL84:
 502              	.L196:
 503              		.loc 1 191 0
 504 01c2 692B     		cmp	r3, #105
 505              	.L165:
 506 01c4 3FF473AF 		beq	.L41
 507              	.L25:
 508              	.LVL85:
 509              		.loc 1 248 0
 510 01c8 0DF1300B 		add	fp, sp, #48
 511              		.loc 1 249 0
 512 01cc D046     		mov	r8, r10
 513              		.loc 1 248 0
ARM GAS  /tmp/ccLlgcLW.s 			page 10


 514 01ce 0BF8183D 		strb	r3, [fp, #-24]!
 515 01d2 9BE7     		b	.L167
 516              	.LVL86:
 517              	.L194:
 518              		.loc 1 191 0
 519 01d4 662B     		cmp	r3, #102
 520 01d6 F4D1     		bne	.L196
 521              		.loc 1 221 0
 522 01d8 0AF1070A 		add	r10, r10, #7
 523 01dc 2AF0070A 		bic	r10, r10, #7
 524 01e0 DAE90001 		ldrd	r0, [r10]
 525 01e4 FFF7FEFF 		bl	__aeabi_d2f
 526              	.LVL87:
 527 01e8 08EE100A 		fmsr	s16, r0
 528              		.loc 1 222 0
 529 01ec B5EEC08A 		fcmpezs	s16
 530 01f0 F1EE10FA 		fmstat
 531              		.loc 1 223 0
 532 01f4 43BF     		ittte	mi
 533 01f6 2D23     		movmi	r3, #45
 534              		.loc 1 224 0
 535 01f8 B1EE488A 		fnegsmi	s16, s16
 536              		.loc 1 223 0
 537 01fc 8DF81830 		strbmi	r3, [sp, #24]
 538              		.loc 1 144 0
 539 0200 06AB     		addpl	r3, sp, #24
 540              		.loc 1 223 0
 541 0202 48BF     		it	mi
 542 0204 0DF11903 		addmi	r3, sp, #25
 543              		.loc 1 226 0
 544 0208 18EE100A 		fmrs	r0, s16
 545 020c 0593     		str	r3, [sp, #20]
 546 020e FFF7FEFF 		bl	__aeabi_f2d
 547              	.LVL88:
 548              	.LBB12:
 549              	.LBB13:
 550              		.loc 1 84 0
 551 0212 09F1FF32 		add	r2, r9, #-1
 552              		.loc 1 85 0
 553 0216 092A     		cmp	r2, #9
 554 0218 28BF     		it	cs
 555 021a 4FF00909 		movcs	r9, #9
 556              		.loc 1 86 0
 557 021e 09F1FF39 		add	r9, r9, #-1
 558 0222 2B4A     		ldr	r2, .L197
 559 0224 52F82930 		ldr	r3, [r2, r9, lsl #2]
 560 0228 0393     		str	r3, [sp, #12]
 561              		.loc 1 88 0
 562 022a FDEEC87A 		ftosizs	s15, s16
 563              		.loc 1 89 0
 564 022e 059B     		ldr	r3, [sp, #20]
 565              		.loc 1 88 0
 566 0230 CDED047A 		fsts	s15, [sp, #16]	@ int
 567              	.LBE13:
 568              	.LBE12:
 569              		.loc 1 226 0
 570 0234 8B46     		mov	fp, r1
ARM GAS  /tmp/ccLlgcLW.s 			page 11


 571              	.LBB16:
 572              	.LBB14:
 573              		.loc 1 89 0
 574 0236 0A22     		movs	r2, #10
 575 0238 17EE901A 		fmrs	r1, s15	@ int
 576              	.LBE14:
 577              	.LBE16:
 578              		.loc 1 221 0
 579 023c 0AF10808 		add	r8, r10, #8
 580              	.LVL89:
 581              		.loc 1 226 0
 582 0240 8246     		mov	r10, r0
 583              	.LVL90:
 584              	.LBB17:
 585              	.LBB15:
 586              		.loc 1 89 0
 587 0242 1846     		mov	r0, r3
 588 0244 0023     		movs	r3, #0
 589              	.LVL91:
 590 0246 FFF7FEFF 		bl	long_to_string_with_divisor
 591              	.LVL92:
 592              		.loc 1 90 0
 593 024a 8146     		mov	r9, r0
 594              	.LVL93:
 595 024c 2E23     		movs	r3, #46
 596 024e 09F8013B 		strb	r3, [r9], #1
 597              	.LVL94:
 598              		.loc 1 91 0
 599 0252 0498     		ldr	r0, [sp, #16]
 600 0254 FFF7FEFF 		bl	__aeabi_i2d
 601              	.LVL95:
 602 0258 0246     		mov	r2, r0
 603 025a 0B46     		mov	r3, r1
 604 025c 5046     		mov	r0, r10
 605 025e 5946     		mov	r1, fp
 606 0260 FFF7FEFF 		bl	__aeabi_dsub
 607              	.LVL96:
 608 0264 8246     		mov	r10, r0
 609              	.LVL97:
 610 0266 0398     		ldr	r0, [sp, #12]
 611 0268 8B46     		mov	fp, r1
 612 026a FFF7FEFF 		bl	__aeabi_ui2d
 613              	.LVL98:
 614 026e 0246     		mov	r2, r0
 615 0270 0B46     		mov	r3, r1
 616 0272 5046     		mov	r0, r10
 617 0274 5946     		mov	r1, fp
 618 0276 FFF7FEFF 		bl	__aeabi_dmul
 619              	.LVL99:
 620 027a FFF7FEFF 		bl	__aeabi_d2iz
 621              	.LVL100:
 622              		.loc 1 92 0
 623 027e 0A22     		movs	r2, #10
 624              		.loc 1 91 0
 625 0280 0146     		mov	r1, r0
 626              		.loc 1 92 0
 627 0282 039B     		ldr	r3, [sp, #12]
ARM GAS  /tmp/ccLlgcLW.s 			page 12


 628 0284 B3FBF2F3 		udiv	r3, r3, r2
 629 0288 4846     		mov	r0, r9
 630 028a 29E7     		b	.L168
 631              	.LVL101:
 632              	.L195:
 633              	.LBE15:
 634              	.LBE17:
 635              		.loc 1 191 0
 636 028c 732B     		cmp	r3, #115
 637 028e 9BD1     		bne	.L25
 638              	.LVL102:
 639              		.loc 1 199 0
 640 0290 104B     		ldr	r3, .L197+4
 641              	.LVL103:
 642              		.loc 1 198 0
 643 0292 DAF800B0 		ldr	fp, [r10]
 644              		.loc 1 199 0
 645 0296 BBF1000F 		cmp	fp, #0
 646 029a 08BF     		it	eq
 647 029c 9B46     		moveq	fp, r3
 648              		.loc 1 201 0
 649 029e 47F6FF73 		movw	r3, #32767
 650 02a2 B9F1000F 		cmp	r9, #0
 651 02a6 08BF     		it	eq
 652 02a8 9946     		moveq	r9, r3
 653              		.loc 1 198 0
 654 02aa 0AF10408 		add	r8, r10, #4
 655              	.LVL104:
 656 02ae D944     		add	r9, r9, fp
 657              		.loc 1 201 0
 658 02b0 5846     		mov	r0, fp
 659              	.LVL105:
 660              	.L39:
 661              		.loc 1 202 0 discriminator 1
 662 02b2 0378     		ldrb	r3, [r0]	@ zero_extendqisi2
 663 02b4 1BB1     		cbz	r3, .L67
 664              		.loc 1 202 0 is_stmt 0 discriminator 3
 665 02b6 4845     		cmp	r0, r9
 666 02b8 01D0     		beq	.L67
 667              		.loc 1 202 0 discriminator 4
 668 02ba 0130     		adds	r0, r0, #1
 669              	.LVL106:
 670 02bc F9E7     		b	.L39
 671              	.L67:
 672              		.loc 1 197 0 is_stmt 1
 673 02be 2025     		movs	r5, #32
 674 02c0 26E7     		b	.L36
 675              	.LVL107:
 676              	.L158:
 677              		.loc 1 278 0
 678 02c2 3846     		mov	r0, r7
 679 02c4 0DB0     		add	sp, sp, #52
 680              		.cfi_def_cfa_offset 44
 681              		@ sp needed
 682 02c6 BDEC028B 		fldmfdd	sp!, {d8}
 683              		.cfi_restore 80
 684              		.cfi_restore 81
ARM GAS  /tmp/ccLlgcLW.s 			page 13


 685              		.cfi_def_cfa_offset 36
 686 02ca BDE8F08F 		pop	{r4, r5, r6, r7, r8, r9, r10, fp, pc}
 687              	.LVL108:
 688              	.L198:
 689 02ce 00BF     		.align	2
 690              	.L197:
 691 02d0 00000000 		.word	.LANCHOR0
 692 02d4 00000000 		.word	.LC0
 693              		.cfi_endproc
 694              	.LFE326:
 695              		.size	chvprintf, .-chvprintf
 696              		.section	.text.chprintf,"ax",%progbits
 697              		.align	1
 698              		.global	chprintf
 699              		.thumb
 700              		.thumb_func
 701              		.type	chprintf, %function
 702              	chprintf:
 703              	.LFB327:
 704              		.loc 1 305 0
 705              		.cfi_startproc
 706              		@ args = 4, pretend = 12, frame = 8
 707              		@ frame_needed = 0, uses_anonymous_args = 1
 708              	.LVL109:
 709 0000 0EB4     		push	{r1, r2, r3}
 710              		.cfi_def_cfa_offset 12
 711              		.cfi_offset 1, -12
 712              		.cfi_offset 2, -8
 713              		.cfi_offset 3, -4
 714 0002 03B5     		push	{r0, r1, lr}
 715              		.cfi_def_cfa_offset 24
 716              		.cfi_offset 14, -16
 717              		.loc 1 305 0
 718 0004 03AA     		add	r2, sp, #12
 719 0006 52F8041B 		ldr	r1, [r2], #4
 720              		.loc 1 309 0
 721 000a 0192     		str	r2, [sp, #4]
 722              		.loc 1 310 0
 723 000c FFF7FEFF 		bl	chvprintf
 724              	.LVL110:
 725              		.loc 1 314 0
 726 0010 02B0     		add	sp, sp, #8
 727              		.cfi_def_cfa_offset 16
 728              		@ sp needed
 729 0012 5DF804EB 		ldr	lr, [sp], #4
 730              		.cfi_restore 14
 731              		.cfi_def_cfa_offset 12
 732 0016 03B0     		add	sp, sp, #12
 733              		.cfi_restore 3
 734              		.cfi_restore 2
 735              		.cfi_restore 1
 736              		.cfi_def_cfa_offset 0
 737 0018 7047     		bx	lr
 738              		.cfi_endproc
 739              	.LFE327:
 740              		.size	chprintf, .-chprintf
 741              		.section	.text.chvsnprintf,"ax",%progbits
ARM GAS  /tmp/ccLlgcLW.s 			page 14


 742              		.align	1
 743              		.global	chvsnprintf
 744              		.thumb
 745              		.thumb_func
 746              		.type	chvsnprintf, %function
 747              	chvsnprintf:
 748              	.LFB329:
 749              		.loc 1 384 0
 750              		.cfi_startproc
 751              		@ args = 0, pretend = 0, frame = 24
 752              		@ frame_needed = 0, uses_anonymous_args = 0
 753              	.LVL111:
 754 0000 F0B5     		push	{r4, r5, r6, r7, lr}
 755              		.cfi_def_cfa_offset 20
 756              		.cfi_offset 4, -20
 757              		.cfi_offset 5, -16
 758              		.cfi_offset 6, -12
 759              		.cfi_offset 7, -8
 760              		.cfi_offset 14, -4
 761 0002 0546     		mov	r5, r0
 762 0004 87B0     		sub	sp, sp, #28
 763              		.cfi_def_cfa_offset 48
 764              		.loc 1 384 0
 765 0006 1746     		mov	r7, r2
 766 0008 1E46     		mov	r6, r3
 767              		.loc 1 390 0
 768 000a 0C46     		mov	r4, r1
 769 000c 09B1     		cbz	r1, .L203
 770              		.loc 1 391 0
 771 000e 4A1E     		subs	r2, r1, #1
 772              	.LVL112:
 773 0010 00E0     		b	.L201
 774              	.LVL113:
 775              	.L203:
 776              		.loc 1 393 0
 777 0012 0A46     		mov	r2, r1
 778              	.LVL114:
 779              	.L201:
 780              		.loc 1 397 0
 781 0014 01A8     		add	r0, sp, #4
 782              	.LVL115:
 783 0016 2946     		mov	r1, r5
 784              	.LVL116:
 785 0018 0023     		movs	r3, #0
 786              	.LVL117:
 787 001a FFF7FEFF 		bl	msObjectInit
 788              	.LVL118:
 789              		.loc 1 401 0
 790 001e 3246     		mov	r2, r6
 791 0020 01A8     		add	r0, sp, #4
 792              	.LVL119:
 793 0022 3946     		mov	r1, r7
 794 0024 FFF7FEFF 		bl	chvprintf
 795              	.LVL120:
 796              		.loc 1 404 0
 797 0028 049B     		ldr	r3, [sp, #16]
 798 002a A342     		cmp	r3, r4
ARM GAS  /tmp/ccLlgcLW.s 			page 15


 799              		.loc 1 405 0
 800 002c 3CBF     		itt	cc
 801 002e 0022     		movcc	r2, #0
 802 0030 EA54     		strbcc	r2, [r5, r3]
 803              		.loc 1 410 0
 804 0032 07B0     		add	sp, sp, #28
 805              		.cfi_def_cfa_offset 20
 806              		@ sp needed
 807 0034 F0BD     		pop	{r4, r5, r6, r7, pc}
 808              		.cfi_endproc
 809              	.LFE329:
 810              		.size	chvsnprintf, .-chvsnprintf
 811              		.section	.text.chsnprintf,"ax",%progbits
 812              		.align	1
 813              		.global	chsnprintf
 814              		.thumb
 815              		.thumb_func
 816              		.type	chsnprintf, %function
 817              	chsnprintf:
 818              	.LFB328:
 819              		.loc 1 343 0
 820              		.cfi_startproc
 821              		@ args = 4, pretend = 8, frame = 8
 822              		@ frame_needed = 0, uses_anonymous_args = 1
 823              	.LVL121:
 824 0000 0CB4     		push	{r2, r3}
 825              		.cfi_def_cfa_offset 8
 826              		.cfi_offset 2, -8
 827              		.cfi_offset 3, -4
 828 0002 07B5     		push	{r0, r1, r2, lr}
 829              		.cfi_def_cfa_offset 24
 830              		.cfi_offset 14, -12
 831              		.loc 1 343 0
 832 0004 04AB     		add	r3, sp, #16
 833 0006 53F8042B 		ldr	r2, [r3], #4
 834              		.loc 1 348 0
 835 000a 0193     		str	r3, [sp, #4]
 836              		.loc 1 349 0
 837 000c FFF7FEFF 		bl	chvsnprintf
 838              	.LVL122:
 839              		.loc 1 354 0
 840 0010 03B0     		add	sp, sp, #12
 841              		.cfi_def_cfa_offset 12
 842              		@ sp needed
 843 0012 5DF804EB 		ldr	lr, [sp], #4
 844              		.cfi_restore 14
 845              		.cfi_def_cfa_offset 8
 846 0016 02B0     		add	sp, sp, #8
 847              		.cfi_restore 3
 848              		.cfi_restore 2
 849              		.cfi_def_cfa_offset 0
 850 0018 7047     		bx	lr
 851              		.cfi_endproc
 852              	.LFE328:
 853              		.size	chsnprintf, .-chsnprintf
 854              		.section	.rodata.str1.1,"aMS",%progbits,1
 855              	.LC0:
ARM GAS  /tmp/ccLlgcLW.s 			page 16


 856 0000 286E756C 		.ascii	"(null)\000"
 856      6C2900
 857              		.section	.rodata.pow10,"a",%progbits
 858              		.align	2
 859              		.set	.LANCHOR0,. + 0
 860              		.type	pow10, %object
 861              		.size	pow10, 36
 862              	pow10:
 863 0000 0A000000 		.word	10
 864 0004 64000000 		.word	100
 865 0008 E8030000 		.word	1000
 866 000c 10270000 		.word	10000
 867 0010 A0860100 		.word	100000
 868 0014 40420F00 		.word	1000000
 869 0018 80969800 		.word	10000000
 870 001c 00E1F505 		.word	100000000
 871 0020 00CA9A3B 		.word	1000000000
 872              		.text
 873              	.Letext0:
 874              		.file 2 "/usr/lib/gcc/arm-none-eabi/4.9.3/include/stddef.h"
 875              		.file 3 "/usr/include/newlib/machine/_default_types.h"
 876              		.file 4 "/usr/include/newlib/sys/_stdint.h"
 877              		.file 5 "../../modules/ChibiOS/os/common/ports/ARMCMx/compilers/GCC/chtypes.h"
 878              		.file 6 "../../modules/ChibiOS/os/rt/include/chsystypes.h"
 879              		.file 7 "../../modules/ChibiOS/os/rt/include/chschd.h"
 880              		.file 8 "../../modules/ChibiOS/os/rt/include/chtime.h"
 881              		.file 9 "../../modules/ChibiOS/os/common/ports/ARMCMx/chcore.h"
 882              		.file 10 "../../modules/ChibiOS/os/common/ports/ARMCMx/chcore_v7m.h"
 883              		.file 11 "../../modules/ChibiOS/os/rt/include/chtm.h"
 884              		.file 12 "../../modules/ChibiOS/os/rt/include/chstats.h"
 885              		.file 13 "../../modules/ChibiOS/os/rt/include/chsem.h"
 886              		.file 14 "../../modules/ChibiOS/os/rt/include/chmtx.h"
 887              		.file 15 "../../modules/ChibiOS/os/hal/include/hal_streams.h"
 888              		.file 16 "/usr/lib/gcc/arm-none-eabi/4.9.3/include/stdarg.h"
 889              		.file 17 "<built-in>"
 890              		.file 18 "../../modules/ChibiOS/os/hal/lib/streams/memstreams.h"
 891              		.file 19 "../../modules/ChibiOS/os/common/ext/ARM/CMSIS/Core/Include/core_cm4.h"