ARM GAS  /tmp/ccLlgcLW.s 			page 1


   1              		.syntax unified
   2              		.cpu cortex-m4
   3              		.eabi_attribute 27, 1
   4              		.eabi_attribute 28, 1
   5              		.fpu fpv4-sp-d16
   6              		.eabi_attribute 20, 1
   7              		.eabi_attribute 21, 1
   8              		.eabi_attribute 23, 3
   9              		.eabi_attribute 24, 1
  10              		.eabi_attribute 25, 1
  11              		.eabi_attribute 26, 1
  12              		.eabi_attribute 30, 4
  13              		.eabi_attribute 34, 1
  14              		.eabi_attribute 18, 4
  15              		.thumb
  16              		.file	"chprintf.c"
  17              		.text
  18              	.Ltext0:
  19              		.cfi_sections	.debug_frame
  20              		.section	.text.long_to_string_with_divisor,"ax",%progbits
  21              		.align	1
  22              		.thumb
  23              		.thumb_func
  24              		.type	long_to_string_with_divisor, %function
  25              	long_to_string_with_divisor:
  26              	.LFB323:
  27              		.file 1 "../../modules/ChibiOS/os/hal/lib/streams/chprintf.c"
  28              		.loc 1 41 0
  29              		.cfi_startproc
  30              		@ args = 0, pretend = 0, frame = 0
  31              		@ frame_needed = 0, uses_anonymous_args = 0
  32              	.LVL0:
  33 0000 F0B5     		push	{r4, r5, r6, r7, lr}
  34              		.cfi_def_cfa_offset 20
  35              		.cfi_offset 4, -20
  36              		.cfi_offset 5, -16
  37              		.cfi_offset 6, -12
  38              		.cfi_offset 7, -8
  39              		.cfi_offset 14, -4
  40              		.loc 1 53 0
  41 0002 00F10B05 		add	r5, r0, #11
  42              		.loc 1 47 0
  43 0006 002B     		cmp	r3, #0
  44 0008 08BF     		it	eq
  45 000a 0B46     		moveq	r3, r1
  46              	.LVL1:
  47              		.loc 1 53 0
  48 000c 2C46     		mov	r4, r5
  49              	.LVL2:
  50              	.L4:
  51              		.loc 1 55 0
  52 000e B1FBF2F7 		udiv	r7, r1, r2
  53 0012 02FB1711 		mls	r1, r2, r7, r1
  54              	.LVL3:
  55              		.loc 1 56 0
  56 0016 01F13006 		add	r6, r1, #48
  57              	.LVL4:
ARM GAS  /tmp/ccLlgcLW.s 			page 2


  58              		.loc 1 57 0
  59 001a 392E     		cmp	r6, #57
  60              		.loc 1 58 0
  61 001c C8BF     		it	gt
  62 001e 01F13706 		addgt	r6, r1, #55
  63              	.LVL5:
  64              		.loc 1 59 0
  65 0022 04F8016D 		strb	r6, [r4, #-1]!
  66              	.LVL6:
  67              		.loc 1 61 0
  68 0026 B3FBF2F3 		udiv	r3, r3, r2
  69              	.LVL7:
  70              		.loc 1 60 0
  71 002a 3946     		mov	r1, r7
  72              	.LVL8:
  73              		.loc 1 61 0
  74 002c 002B     		cmp	r3, #0
  75 002e EED1     		bne	.L4
  76              	.LVL9:
  77 0030 431E     		subs	r3, r0, #1
  78              	.LVL10:
  79              		.loc 1 63 0
  80 0032 2A1B     		subs	r2, r5, r4
  81              	.LVL11:
  82              	.L5:
  83              		.loc 1 65 0 discriminator 1
  84 0034 14F8011B 		ldrb	r1, [r4], #1	@ zero_extendqisi2
  85              	.LVL12:
  86 0038 03F8011F 		strb	r1, [r3, #1]!
  87              		.loc 1 66 0 discriminator 1
  88 003c AC42     		cmp	r4, r5
  89 003e F9D1     		bne	.L5
  90              		.loc 1 69 0
  91 0040 1044     		add	r0, r0, r2
  92 0042 F0BD     		pop	{r4, r5, r6, r7, pc}
  93              		.cfi_endproc
  94              	.LFE323:
  95              		.size	long_to_string_with_divisor, .-long_to_string_with_divisor
  96              		.global	__aeabi_d2f
  97              		.global	__aeabi_f2d
  98              		.global	__aeabi_i2d
  99              		.global	__aeabi_dsub
 100              		.global	__aeabi_ui2d
 101              		.global	__aeabi_dmul
 102              		.global	__aeabi_d2iz
 103              		.section	.text.chvprintf,"ax",%progbits
 104              		.align	1
 105              		.global	chvprintf
 106              		.thumb
 107              		.thumb_func
 108              		.type	chvprintf, %function
 109              	chvprintf:
 110              	.LFB326:
 111              		.loc 1 122 0
 112              		.cfi_startproc
 113              		@ args = 0, pretend = 0, frame = 48
 114              		@ frame_needed = 0, uses_anonymous_args = 0
ARM GAS  /tmp/ccLlgcLW.s 			page 3


 115              	.LVL13:
 116 0000 2DE9F04F 		push	{r4, r5, r6, r7, r8, r9, r10, fp, lr}
 117              		.cfi_def_cfa_offset 36
 118              		.cfi_offset 4, -36
 119              		.cfi_offset 5, -32
 120              		.cfi_offset 6, -28
 121              		.cfi_offset 7, -24
 122              		.cfi_offset 8, -20
 123              		.cfi_offset 9, -16
 124              		.cfi_offset 10, -12
 125              		.cfi_offset 11, -8
 126              		.cfi_offset 14, -4
 127 0004 2DED028B 		fstmfdd	sp!, {d8}
 128              		.cfi_def_cfa_offset 44
 129              		.cfi_offset 80, -44
 130              		.cfi_offset 81, -40
 131 0008 0646     		mov	r6, r0
 132 000a 8DB0     		sub	sp, sp, #52
 133              		.cfi_def_cfa_offset 96
 134              		.loc 1 122 0
 135 000c 0B46     		mov	r3, r1
 136 000e 9246     		mov	r10, r2
 137              	.LVL14:
 138              		.loc 1 125 0
 139 0010 0027     		movs	r7, #0
 140              	.LVL15:
 141              	.L11:
 142              		.loc 1 136 0
 143 0012 1978     		ldrb	r1, [r3]	@ zero_extendqisi2
 144 0014 5C1C     		adds	r4, r3, #1
 145              	.LVL16:
 146              		.loc 1 137 0
 147 0016 0029     		cmp	r1, #0
 148 0018 00F05381 		beq	.L158
 149              		.loc 1 139 0
 150 001c 2529     		cmp	r1, #37
 151 001e 06D0     		beq	.L13
 152              		.loc 1 140 0
 153 0020 3368     		ldr	r3, [r6]
 154 0022 3046     		mov	r0, r6
 155 0024 DB68     		ldr	r3, [r3, #12]
 156 0026 9847     		blx	r3
 157              	.LVL17:
 158              		.loc 1 141 0
 159 0028 0137     		adds	r7, r7, #1
 160              	.LVL18:
 161              	.L14:
 162              		.loc 1 272 0
 163 002a 2346     		mov	r3, r4
 164 002c F1E7     		b	.L11
 165              	.LVL19:
 166              	.L13:
 167              		.loc 1 147 0
 168 002e 5A78     		ldrb	r2, [r3, #1]	@ zero_extendqisi2
 169              	.LVL20:
 170 0030 2D2A     		cmp	r2, #45
 171              		.loc 1 148 0
ARM GAS  /tmp/ccLlgcLW.s 			page 4


 172 0032 0CBF     		ite	eq
 173 0034 9C1C     		addeq	r4, r3, #2
 174              	.LVL21:
 175              		.loc 1 146 0
 176 0036 0023     		movne	r3, #0
 177              		.loc 1 152 0
 178 0038 2578     		ldrb	r5, [r4]	@ zero_extendqisi2
 179              		.loc 1 149 0
 180 003a 08BF     		it	eq
 181 003c 0123     		moveq	r3, #1
 182              		.loc 1 152 0
 183 003e 302D     		cmp	r5, #48
 184              		.loc 1 146 0
 185 0040 0293     		str	r3, [sp, #8]
 186              	.LVL22:
 187              		.loc 1 153 0
 188 0042 0CBF     		ite	eq
 189 0044 0134     		addeq	r4, r4, #1
 190              	.LVL23:
 191              		.loc 1 151 0
 192 0046 2025     		movne	r5, #32
 193              	.LVL24:
 194              		.loc 1 156 0
 195 0048 0023     		movs	r3, #0
 196              	.LVL25:
 197              	.L162:
 198 004a 0193     		str	r3, [sp, #4]
 199              	.LVL26:
 200              		.loc 1 158 0
 201 004c 14F8013B 		ldrb	r3, [r4], #1	@ zero_extendqisi2
 202              	.LVL27:
 203              		.loc 1 159 0
 204 0050 A3F13002 		sub	r2, r3, #48
 205 0054 D2B2     		uxtb	r2, r2
 206 0056 092A     		cmp	r2, #9
 207 0058 05D9     		bls	.L17
 208              		.loc 1 161 0
 209 005a 2A2B     		cmp	r3, #42
 210 005c 08D1     		bne	.L18
 211              		.loc 1 162 0
 212 005e 9AF80020 		ldrb	r2, [r10]	@ zero_extendqisi2
 213              	.LVL28:
 214 0062 0AF1040A 		add	r10, r10, #4
 215              	.LVL29:
 216              	.L17:
 217              		.loc 1 165 0
 218 0066 0199     		ldr	r1, [sp, #4]
 219 0068 0A23     		movs	r3, #10
 220 006a 03FB0123 		mla	r3, r3, r1, r2
 221 006e ECE7     		b	.L162
 222              	.LVL30:
 223              	.L18:
 224              		.loc 1 168 0
 225 0070 2E2B     		cmp	r3, #46
 226 0072 4FF00009 		mov	r9, #0
 227 0076 10D1     		bne	.L20
 228              	.LVL31:
ARM GAS  /tmp/ccLlgcLW.s 			page 5


 229              	.L22:
 230              		.loc 1 170 0
 231 0078 14F8013B 		ldrb	r3, [r4], #1	@ zero_extendqisi2
 232              	.LVL32:
 233              		.loc 1 171 0
 234 007c A3F13002 		sub	r2, r3, #48
 235 0080 D2B2     		uxtb	r2, r2
 236 0082 092A     		cmp	r2, #9
 237 0084 05D9     		bls	.L21
 238              		.loc 1 173 0
 239 0086 2A2B     		cmp	r3, #42
 240 0088 07D1     		bne	.L20
 241              		.loc 1 174 0
 242 008a 9AF80020 		ldrb	r2, [r10]	@ zero_extendqisi2
 243              	.LVL33:
 244 008e 0AF1040A 		add	r10, r10, #4
 245              	.LVL34:
 246              	.L21:
 247              		.loc 1 178 0
 248 0092 0A23     		movs	r3, #10
 249 0094 03FB0929 		mla	r9, r3, r9, r2
 250              	.LVL35:
 251              		.loc 1 179 0
 252 0098 EEE7     		b	.L22
 253              	.LVL36:
 254              	.L20:
 255              		.loc 1 182 0
 256 009a 03F0DF02 		and	r2, r3, #223
 257 009e 4C2A     		cmp	r2, #76
 258 00a0 03D1     		bne	.L24
 259              	.LVL37:
 260              		.loc 1 184 0
 261 00a2 2278     		ldrb	r2, [r4]	@ zero_extendqisi2
 262 00a4 0AB1     		cbz	r2, .L24
 263              		.loc 1 185 0
 264 00a6 0134     		adds	r4, r4, #1
 265              	.LVL38:
 266 00a8 1346     		mov	r3, r2
 267              	.LVL39:
 268              	.L24:
 269              		.loc 1 191 0
 270 00aa 642B     		cmp	r3, #100
 271 00ac 1DD1     		bne	.L189
 272              	.L41:
 273              		.loc 1 212 0
 274 00ae DAF80010 		ldr	r1, [r10]
 275              		.loc 1 213 0
 276 00b2 0029     		cmp	r1, #0
 277              		.loc 1 214 0
 278 00b4 B8BF     		it	lt
 279 00b6 2D23     		movlt	r3, #45
 280              	.LVL40:
 281              		.loc 1 212 0
 282 00b8 0AF10408 		add	r8, r10, #4
 283              	.LVL41:
 284              		.loc 1 214 0
 285 00bc BDBF     		ittte	lt
ARM GAS  /tmp/ccLlgcLW.s 			page 6


 286 00be 8DF81830 		strblt	r3, [sp, #24]
 287              		.loc 1 215 0
 288 00c2 4942     		rsblt	r1, r1, #0
 289              	.LVL42:
 290              		.loc 1 214 0
 291 00c4 0DF11900 		addlt	r0, sp, #25
 292              		.loc 1 144 0
 293 00c8 06A8     		addge	r0, sp, #24
 294              	.LVL43:
 295              	.LBB8:
 296              	.LBB9:
 297              		.loc 1 73 0
 298 00ca 0A22     		movs	r2, #10
 299 00cc 07E0     		b	.L166
 300              	.LVL44:
 301              	.L191:
 302              	.LBE9:
 303              	.LBE8:
 304              		.loc 1 191 0
 305 00ce 552B     		cmp	r3, #85
 306 00d0 7AD1     		bne	.L25
 307              	.L32:
 308              	.LVL45:
 309              		.loc 1 235 0
 310 00d2 0A22     		movs	r2, #10
 311              	.LVL46:
 312              	.L171:
 313              		.loc 1 244 0
 314 00d4 DAF80010 		ldr	r1, [r10]
 315 00d8 0AF10408 		add	r8, r10, #4
 316              	.LVL47:
 317              	.LBB10:
 318              	.LBB11:
 319              		.loc 1 73 0
 320 00dc 06A8     		add	r0, sp, #24
 321              	.LVL48:
 322              	.L166:
 323 00de 0023     		movs	r3, #0
 324              	.LVL49:
 325              	.L168:
 326 00e0 FFF7FEFF 		bl	long_to_string_with_divisor
 327              	.LVL50:
 328              	.LBE11:
 329              	.LBE10:
 330              		.loc 1 145 0
 331 00e4 0DF1180B 		add	fp, sp, #24
 332              	.LVL51:
 333              		.loc 1 246 0
 334 00e8 12E0     		b	.L36
 335              	.LVL52:
 336              	.L189:
 337              		.loc 1 191 0
 338 00ea 5AD8     		bhi	.L58
 339 00ec 4F2B     		cmp	r3, #79
 340 00ee 5AD0     		beq	.L28
 341 00f0 5BD9     		bls	.L190
 342 00f2 582B     		cmp	r3, #88
ARM GAS  /tmp/ccLlgcLW.s 			page 7


 343 00f4 63D0     		beq	.L66
 344 00f6 632B     		cmp	r3, #99
 345 00f8 E9D1     		bne	.L191
 346              	.LVL53:
 347              		.loc 1 194 0
 348 00fa 0DF1300B 		add	fp, sp, #48
 349 00fe DAF80030 		ldr	r3, [r10]
 350              	.LVL54:
 351 0102 0BF8183D 		strb	r3, [fp, #-24]!
 352 0106 0AF10408 		add	r8, r10, #4
 353              		.loc 1 193 0
 354 010a 2025     		movs	r5, #32
 355              	.LVL55:
 356              	.L167:
 357              		.loc 1 248 0
 358 010c 0DF11900 		add	r0, sp, #25
 359              	.LVL56:
 360              	.L36:
 361              		.loc 1 252 0
 362 0110 019B     		ldr	r3, [sp, #4]
 363              		.loc 1 251 0
 364 0112 CBEB0009 		rsb	r9, fp, r0
 365              	.LVL57:
 366              		.loc 1 252 0
 367 0116 C9EB030A 		rsb	r10, r9, r3
 368              	.LVL58:
 369              		.loc 1 254 0
 370 011a 029B     		ldr	r3, [sp, #8]
 371 011c 2AEAEA7A 		bic	r10, r10, r10, asr #31
 372              	.LVL59:
 373 0120 03BB     		cbnz	r3, .L50
 374              		.loc 1 255 0
 375 0122 CAF1000A 		rsb	r10, r10, #0
 376              	.LVL60:
 377              		.loc 1 256 0
 378 0126 BAF1000F 		cmp	r10, #0
 379 012a 1BD0     		beq	.L50
 380              		.loc 1 257 0
 381 012c 9BF80010 		ldrb	r1, [fp]	@ zero_extendqisi2
 382 0130 2D29     		cmp	r1, #45
 383 0132 0AD1     		bne	.L51
 384              		.loc 1 257 0 is_stmt 0 discriminator 1
 385 0134 302D     		cmp	r5, #48
 386 0136 08D1     		bne	.L51
 387              		.loc 1 258 0 is_stmt 1
 388 0138 3368     		ldr	r3, [r6]
 389 013a 3046     		mov	r0, r6
 390              	.LVL61:
 391 013c DB68     		ldr	r3, [r3, #12]
 392 013e 9847     		blx	r3
 393              	.LVL62:
 394 0140 0BF1010B 		add	fp, fp, #1
 395              	.LVL63:
 396              		.loc 1 259 0
 397 0144 0137     		adds	r7, r7, #1
 398              	.LVL64:
 399              		.loc 1 260 0
ARM GAS  /tmp/ccLlgcLW.s 			page 8


 400 0146 09F1FF39 		add	r9, r9, #-1
 401              	.LVL65:
 402              	.L51:
 403              		.loc 1 197 0 discriminator 1
 404 014a 5346     		mov	r3, r10
 405              	.LVL66:
 406              	.L52:
 407              		.loc 1 263 0 discriminator 1
 408 014c 3268     		ldr	r2, [r6]
 409 014e 0193     		str	r3, [sp, #4]
 410              	.LVL67:
 411 0150 D268     		ldr	r2, [r2, #12]
 412 0152 3046     		mov	r0, r6
 413 0154 2946     		mov	r1, r5
 414 0156 9047     		blx	r2
 415              	.LVL68:
 416              		.loc 1 265 0 discriminator 1
 417 0158 019B     		ldr	r3, [sp, #4]
 418 015a 0133     		adds	r3, r3, #1
 419              	.LVL69:
 420 015c F6D1     		bne	.L52
 421 015e CAEB0707 		rsb	r7, r10, r7
 422              		.loc 1 265 0 is_stmt 0
 423 0162 9A46     		mov	r10, r3
 424              	.LVL70:
 425              	.L50:
 426 0164 4B46     		mov	r3, r9
 427              	.LVL71:
 428              	.L53:
 429              		.loc 1 267 0 is_stmt 1
 430 0166 013B     		subs	r3, r3, #1
 431              	.LVL72:
 432 0168 08D4     		bmi	.L192
 433              		.loc 1 268 0
 434 016a 3268     		ldr	r2, [r6]
 435 016c 1BF8011B 		ldrb	r1, [fp], #1	@ zero_extendqisi2
 436              	.LVL73:
 437 0170 D268     		ldr	r2, [r2, #12]
 438 0172 0193     		str	r3, [sp, #4]
 439              	.LVL74:
 440 0174 3046     		mov	r0, r6
 441 0176 9047     		blx	r2
 442              	.LVL75:
 443 0178 019B     		ldr	r3, [sp, #4]
 444 017a F4E7     		b	.L53
 445              	.LVL76:
 446              	.L192:
 447 017c B9F1000F 		cmp	r9, #0
 448 0180 A8BF     		it	ge
 449 0182 4F44     		addge	r7, r7, r9
 450              		.loc 1 267 0
 451 0184 D146     		mov	r9, r10
 452              	.LVL77:
 453              	.L55:
 454              		.loc 1 272 0
 455 0186 B9F1000F 		cmp	r9, #0
 456 018a 02D1     		bne	.L56
ARM GAS  /tmp/ccLlgcLW.s 			page 9


 457 018c 5744     		add	r7, r7, r10
 458 018e C246     		mov	r10, r8
 459 0190 4BE7     		b	.L14
 460              	.L56:
 461              		.loc 1 273 0
 462 0192 3368     		ldr	r3, [r6]
 463 0194 3046     		mov	r0, r6
 464 0196 DB68     		ldr	r3, [r3, #12]
 465 0198 2946     		mov	r1, r5
 466 019a 9847     		blx	r3
 467              	.LVL78:
 468              		.loc 1 275 0
 469 019c 09F1FF39 		add	r9, r9, #-1
 470              	.LVL79:
 471 01a0 F1E7     		b	.L55
 472              	.LVL80:
 473              	.L58:
 474              		.loc 1 191 0
 475 01a2 6F2B     		cmp	r3, #111
 476 01a4 06D1     		bne	.L193
 477              	.L28:
 478              	.LVL81:
 479              		.loc 1 239 0
 480 01a6 0822     		movs	r2, #8
 481 01a8 94E7     		b	.L171
 482              	.LVL82:
 483              	.L190:
 484              		.loc 1 191 0
 485 01aa 442B     		cmp	r3, #68
 486 01ac 3FF47FAF 		beq	.L41
 487 01b0 492B     		cmp	r3, #73
 488 01b2 07E0     		b	.L165
 489              	.L193:
 490 01b4 0ED9     		bls	.L194
 491 01b6 752B     		cmp	r3, #117
 492 01b8 8BD0     		beq	.L32
 493 01ba 782B     		cmp	r3, #120
 494 01bc 66D1     		bne	.L195
 495              	.L66:
 496              	.L30:
 497              		.loc 1 231 0
 498 01be 1022     		movs	r2, #16
 499              	.LVL83:
 500 01c0 88E7     		b	.L171
 501              	.LVL84:
 502              	.L196:
 503              		.loc 1 191 0
 504 01c2 692B     		cmp	r3, #105
 505              	.L165:
 506 01c4 3FF473AF 		beq	.L41
 507              	.L25:
 508              	.LVL85:
 509              		.loc 1 248 0
 510 01c8 0DF1300B 		add	fp, sp, #48
 511              		.loc 1 249 0
 512 01cc D046     		mov	r8, r10
 513              		.loc 1 248 0
ARM GAS  /tmp/ccLlgcLW.s 			page 10


 514 01ce 0BF8183D 		strb	r3, [fp, #-24]!
 515 01d2 9BE7     		b	.L167
 516              	.LVL86:
 517              	.L194:
 518              		.loc 1 191 0
 519 01d4 662B     		cmp	r3, #102
 520 01d6 F4D1     		bne	.L196
 521              		.loc 1 221 0
 522 01d8 0AF1070A 		add	r10, r10, #7
 523 01dc 2AF0070A 		bic	r10, r10, #7
 524 01e0 DAE90001 		ldrd	r0, [r10]
 525 01e4 FFF7FEFF 		bl	__aeabi_d2f
 526              	.LVL87:
 527 01e8 08EE100A 		fmsr	s16, r0
 528              		.loc 1 222 0
 529 01ec B5EEC08A 		fcmpezs	s16
 530 01f0 F1EE10FA 		fmstat
 531              		.loc 1 223 0
 532 01f4 43BF     		ittte	mi
 533 01f6 2D23     		movmi	r3, #45
 534              		.loc 1 224 0
 535 01f8 B1EE488A 		fnegsmi	s16, s16
 536              		.loc 1 223 0
 537 01fc 8DF81830 		strbmi	r3, [sp, #24]
 538              		.loc 1 144 0
 539 0200 06AB     		addpl	r3, sp, #24
 540              		.loc 1 223 0
 541 0202 48BF     		it	mi
 542 0204 0DF11903 		addmi	r3, sp, #25
 543              		.loc 1 226 0
 544 0208 18EE100A 		fmrs	r0, s16
 545 020c 0593     		str	r3, [sp, #20]
 546 020e FFF7FEFF 		bl	__aeabi_f2d
 547              	.LVL88:
 548              	.LBB12:
 549              	.LBB13:
 550              		.loc 1 84 0
 551 0212 09F1FF32 		add	r2, r9, #-1
 552              		.loc 1 85 0
 553 0216 092A     		cmp	r2, #9
 554 0218 28BF     		it	cs
 555 021a 4FF00909 		movcs	r9, #9
 556              		.loc 1 86 0
 557 021e 09F1FF39 		add	r9, r9, #-1
 558 0222 2B4A     		ldr	r2, .L197
 559 0224 52F82930 		ldr	r3, [r2, r9, lsl #2]
 560 0228 0393     		str	r3, [sp, #12]
 561              		.loc 1 88 0
 562 022a FDEEC87A 		ftosizs	s15, s16
 563              		.loc 1 89 0
 564 022e 059B     		ldr	r3, [sp, #20]
 565              		.loc 1 88 0
 566 0230 CDED047A 		fsts	s15, [sp, #16]	@ int
 567              	.LBE13:
 568              	.LBE12:
 569              		.loc 1 226 0
 570 0234 8B46     		mov	fp, r1
ARM GAS  /tmp/ccLlgcLW.s 			page 11


 571              	.LBB16:
 572              	.LBB14:
 573              		.loc 1 89 0
 574 0236 0A22     		movs	r2, #10
 575 0238 17EE901A 		fmrs	r1, s15	@ int
 576              	.LBE14:
 577              	.LBE16:
 578              		.loc 1 221 0
 579 023c 0AF10808 		add	r8, r10, #8
 580              	.LVL89:
 581              		.loc 1 226 0
 582 0240 8246     		mov	r10, r0
 583              	.LVL90:
 584              	.LBB17:
 585              	.LBB15:
 586              		.loc 1 89 0
 587 0242 1846     		mov	r0, r3
 588 0244 0023     		movs	r3, #0
 589              	.LVL91:
 590 0246 FFF7FEFF 		bl	long_to_string_with_divisor
 591              	.LVL92:
 592              		.loc 1 90 0
 593 024a 8146     		mov	r9, r0
 594              	.LVL93:
 595 024c 2E23     		movs	r3, #46
 596 024e 09F8013B 		strb	r3, [r9], #1
 597              	.LVL94:
 598              		.loc 1 91 0
 599 0252 0498     		ldr	r0, [sp, #16]
 600 0254 FFF7FEFF 		bl	__aeabi_i2d
 601              	.LVL95:
 602 0258 0246     		mov	r2, r0
 603 025a 0B46     		mov	r3, r1
 604 025c 5046     		mov	r0, r10
 605 025e 5946     		mov	r1, fp
 606 0260 FFF7FEFF 		bl	__aeabi_dsub
 607              	.LVL96:
 608 0264 8246     		mov	r10, r0
 609              	.LVL97:
 610 0266 0398     		ldr	r0, [sp, #12]
 611 0268 8B46     		mov	fp, r1
 612 026a FFF7FEFF 		bl	__aeabi_ui2d
 613              	.LVL98:
 614 026e 0246     		mov	r2, r0
 615 0270 0B46     		mov	r3, r1
 616 0272 5046     		mov	r0, r10
 617 0274 5946     		mov	r1, fp
 618 0276 FFF7FEFF 		bl	__aeabi_dmul
 619              	.LVL99:
 620 027a FFF7FEFF 		bl	__aeabi_d2iz
 621              	.LVL100:
 622              		.loc 1 92 0
 623 027e 0A22     		movs	r2, #10
 624              		.loc 1 91 0
 625 0280 0146     		mov	r1, r0
 626              		.loc 1 92 0
 627 0282 039B     		ldr	r3, [sp, #12]
ARM GAS  /tmp/ccLlgcLW.s 			page 12


 628 0284 B3FBF2F3 		udiv	r3, r3, r2
 629 0288 4846     		mov	r0, r9
 630 028a 29E7     		b	.L168
 631              	.LVL101:
 632              	.L195:
 633              	.LBE15:
 634              	.LBE17:
 635              		.loc 1 191 0
 636 028c 732B     		cmp	r3, #115
 637 028e 9BD1     		bne	.L25
 638              	.LVL102:
 639              		.loc 1 199 0
 640 0290 104B     		ldr	r3, .L197+4
 641              	.LVL103:
 642              		.loc 1 198 0
 643 0292 DAF800B0 		ldr	fp, [r10]
 644              		.loc 1 199 0
 645 0296 BBF1000F 		cmp	fp, #0
 646 029a 08BF     		it	eq
 647 029c 9B46     		moveq	fp, r3
 648              		.loc 1 201 0
 649 029e 47F6FF73 		movw	r3, #32767
 650 02a2 B9F1000F 		cmp	r9, #0
 651 02a6 08BF     		it	eq
 652 02a8 9946     		moveq	r9, r3
 653              		.loc 1 198 0
 654 02aa 0AF10408 		add	r8, r10, #4
 655              	.LVL104:
 656 02ae D944     		add	r9, r9, fp
 657              		.loc 1 201 0
 658 02b0 5846     		mov	r0, fp
 659              	.LVL105:
 660              	.L39:
 661              		.loc 1 202 0 discriminator 1
 662 02b2 0378     		ldrb	r3, [r0]	@ zero_extendqisi2
 663 02b4 1BB1     		cbz	r3, .L67
 664              		.loc 1 202 0 is_stmt 0 discriminator 3
 665 02b6 4845     		cmp	r0, r9
 666 02b8 01D0     		beq	.L67
 667              		.loc 1 202 0 discriminator 4
 668 02ba 0130     		adds	r0, r0, #1
 669              	.LVL106:
 670 02bc F9E7     		b	.L39
 671              	.L67:
 672              		.loc 1 197 0 is_stmt 1
 673 02be 2025     		movs	r5, #32
 674 02c0 26E7     		b	.L36
 675              	.LVL107:
 676              	.L158:
 677              		.loc 1 278 0
 678 02c2 3846     		mov	r0, r7
 679 02c4 0DB0     		add	sp, sp, #52
 680              		.cfi_def_cfa_offset 44
 681              		@ sp needed
 682 02c6 BDEC028B 		fldmfdd	sp!, {d8}
 683              		.cfi_restore 80
 684              		.cfi_restore 81
ARM GAS  /tmp/ccLlgcLW.s 			page 13


 685              		.cfi_def_cfa_offset 36
 686 02ca BDE8F08F 		pop	{r4, r5, r6, r7, r8, r9, r10, fp, pc}
 687              	.LVL108:
 688              	.L198:
 689 02ce 00BF     		.align	2
 690              	.L197:
 691 02d0 00000000 		.word	.LANCHOR0
 692 02d4 00000000 		.word	.LC0
 693              		.cfi_endproc
 694              	.LFE326:
 695              		.size	chvprintf, .-chvprintf
 696              		.section	.text.chprintf,"ax",%progbits
 697              		.align	1
 698              		.global	chprintf
 699              		.thumb
 700              		.thumb_func
 701              		.type	chprintf, %function
 702              	chprintf:
 703              	.LFB327:
 704              		.loc 1 305 0
 705              		.cfi_startproc
 706              		@ args = 4, pretend = 12, frame = 8
 707              		@ frame_needed = 0, uses_anonymous_args = 1
 708              	.LVL109:
 709 0000 0EB4     		push	{r1, r2, r3}
 710              		.cfi_def_cfa_offset 12
 711              		.cfi_offset 1, -12
 712              		.cfi_offset 2, -8
 713              		.cfi_offset 3, -4
 714 0002 03B5     		push	{r0, r1, lr}
 715              		.cfi_def_cfa_offset 24
 716              		.cfi_offset 14, -16
 717              		.loc 1 305 0
 718 0004 03AA     		add	r2, sp, #12
 719 0006 52F8041B 		ldr	r1, [r2], #4
 720              		.loc 1 309 0
 721 000a 0192     		str	r2, [sp, #4]
 722              		.loc 1 310 0
 723 000c FFF7FEFF 		bl	chvprintf
 724              	.LVL110:
 725              		.loc 1 314 0
 726 0010 02B0     		add	sp, sp, #8
 727              		.cfi_def_cfa_offset 16
 728              		@ sp needed
 729 0012 5DF804EB 		ldr	lr, [sp], #4
 730              		.cfi_restore 14
 731              		.cfi_def_cfa_offset 12
 732 0016 03B0     		add	sp, sp, #12
 733              		.cfi_restore 3
 734              		.cfi_restore 2
 735              		.cfi_restore 1
 736              		.cfi_def_cfa_offset 0
 737 0018 7047     		bx	lr
 738              		.cfi_endproc
 739              	.LFE327:
 740              		.size	chprintf, .-chprintf
 741              		.section	.text.chvsnprintf,"ax",%progbits
ARM GAS  /tmp/ccLlgcLW.s 			page 14


 742              		.align	1
 743              		.global	chvsnprintf
 744              		.thumb
 745              		.thumb_func
 746              		.type	chvsnprintf, %function
 747              	chvsnprintf:
 748              	.LFB329:
 749              		.loc 1 384 0
 750              		.cfi_startproc
 751              		@ args = 0, pretend = 0, frame = 24
 752              		@ frame_needed = 0, uses_anonymous_args = 0
 753              	.LVL111:
 754 0000 F0B5     		push	{r4, r5, r6, r7, lr}
 755              		.cfi_def_cfa_offset 20
 756              		.cfi_offset 4, -20
 757              		.cfi_offset 5, -16
 758              		.cfi_offset 6, -12
 759              		.cfi_offset 7, -8
 760              		.cfi_offset 14, -4
 761 0002 0546     		mov	r5, r0
 762 0004 87B0     		sub	sp, sp, #28
 763              		.cfi_def_cfa_offset 48
 764              		.loc 1 384 0
 765 0006 1746     		mov	r7, r2
 766 0008 1E46     		mov	r6, r3
 767              		.loc 1 390 0
 768 000a 0C46     		mov	r4, r1
 769 000c 09B1     		cbz	r1, .L203
 770              		.loc 1 391 0
 771 000e 4A1E     		subs	r2, r1, #1
 772              	.LVL112:
 773 0010 00E0     		b	.L201
 774              	.LVL113:
 775              	.L203:
 776              		.loc 1 393 0
 777 0012 0A46     		mov	r2, r1
 778              	.LVL114:
 779              	.L201:
 780              		.loc 1 397 0
 781 0014 01A8     		add	r0, sp, #4
 782              	.LVL115:
 783 0016 2946     		mov	r1, r5
 784              	.LVL116:
 785 0018 0023     		movs	r3, #0
 786              	.LVL117:
 787 001a FFF7FEFF 		bl	msObjectInit
 788              	.LVL118:
 789              		.loc 1 401 0
 790 001e 3246     		mov	r2, r6
 791 0020 01A8     		add	r0, sp, #4
 792              	.LVL119:
 793 0022 3946     		mov	r1, r7
 794 0024 FFF7FEFF 		bl	chvprintf
 795              	.LVL120:
 796              		.loc 1 404 0
 797 0028 049B     		ldr	r3, [sp, #16]
 798 002a A342     		cmp	r3, r4
ARM GAS  /tmp/ccLlgcLW.s 			page 15


 799              		.loc 1 405 0
 800 002c 3CBF     		itt	cc
 801 002e 0022     		movcc	r2, #0
 802 0030 EA54     		strbcc	r2, [r5, r3]
 803              		.loc 1 410 0
 804 0032 07B0     		add	sp, sp, #28
 805              		.cfi_def_cfa_offset 20
 806              		@ sp needed
 807 0034 F0BD     		pop	{r4, r5, r6, r7, pc}
 808              		.cfi_endproc
 809              	.LFE329:
 810              		.size	chvsnprintf, .-chvsnprintf
 811              		.section	.text.chsnprintf,"ax",%progbits
 812              		.align	1
 813              		.global	chsnprintf
 814              		.thumb
 815              		.thumb_func
 816              		.type	chsnprintf, %function
 817              	chsnprintf:
 818              	.LFB328:
 819              		.loc 1 343 0
 820              		.cfi_startproc
 821              		@ args = 4, pretend = 8, frame = 8
 822              		@ frame_needed = 0, uses_anonymous_args = 1
 823              	.LVL121:
 824 0000 0CB4     		push	{r2, r3}
 825              		.cfi_def_cfa_offset 8
 826              		.cfi_offset 2, -8
 827              		.cfi_offset 3, -4
 828 0002 07B5     		push	{r0, r1, r2, lr}
 829              		.cfi_def_cfa_offset 24
 830              		.cfi_offset 14, -12
 831              		.loc 1 343 0
 832 0004 04AB     		add	r3, sp, #16
 833 0006 53F8042B 		ldr	r2, [r3], #4
 834              		.loc 1 348 0
 835 000a 0193     		str	r3, [sp, #4]
 836              		.loc 1 349 0
 837 000c FFF7FEFF 		bl	chvsnprintf
 838              	.LVL122:
 839              		.loc 1 354 0
 840 0010 03B0     		add	sp, sp, #12
 841              		.cfi_def_cfa_offset 12
 842              		@ sp needed
 843 0012 5DF804EB 		ldr	lr, [sp], #4
 844              		.cfi_restore 14
 845              		.cfi_def_cfa_offset 8
 846 0016 02B0     		add	sp, sp, #8
 847              		.cfi_restore 3
 848              		.cfi_restore 2
 849              		.cfi_def_cfa_offset 0
 850 0018 7047     		bx	lr
 851              		.cfi_endproc
 852              	.LFE328:
 853              		.size	chsnprintf, .-chsnprintf
 854              		.section	.rodata.str1.1,"aMS",%progbits,1
 855              	.LC0:
ARM GAS  /tmp/ccLlgcLW.s 			page 16


 856 0000 286E756C 		.ascii	"(null)\000"
 856      6C2900
 857              		.section	.rodata.pow10,"a",%progbits
 858              		.align	2
 859              		.set	.LANCHOR0,. + 0
 860              		.type	pow10, %object
 861              		.size	pow10, 36
 862              	pow10:
 863 0000 0A000000 		.word	10
 864 0004 64000000 		.word	100
 865 0008 E8030000 		.word	1000
 866 000c 10270000 		.word	10000
 867 0010 A0860100 		.word	100000
 868 0014 40420F00 		.word	1000000
 869 0018 80969800 		.word	10000000
 870 001c 00E1F505 		.word	100000000
 871 0020 00CA9A3B 		.word	1000000000
 872              		.text
 873              	.Letext0:
 874              		.file 2 "/usr/lib/gcc/arm-none-eabi/4.9.3/include/stddef.h"
 875              		.file 3 "/usr/include/newlib/machine/_default_types.h"
 876              		.file 4 "/usr/include/newlib/sys/_stdint.h"
 877              		.file 5 "../../modules/ChibiOS/os/common/ports/ARMCMx/compilers/GCC/chtypes.h"
 878              		.file 6 "../../modules/ChibiOS/os/rt/include/chsystypes.h"
 879              		.file 7 "../../modules/ChibiOS/os/rt/include/chschd.h"
 880              		.file 8 "../../modules/ChibiOS/os/rt/include/chtime.h"
 881              		.file 9 "../../modules/ChibiOS/os/common/ports/ARMCMx/chcore.h"
 882              		.file 10 "../../modules/ChibiOS/os/common/ports/ARMCMx/chcore_v7m.h"
 883              		.file 11 "../../modules/ChibiOS/os/rt/include/chtm.h"
 884              		.file 12 "../../modules/ChibiOS/os/rt/include/chstats.h"
 885              		.file 13 "../../modules/ChibiOS/os/rt/include/chsem.h"
 886              		.file 14 "../../modules/ChibiOS/os/rt/include/chmtx.h"
 887              		.file 15 "../../modules/ChibiOS/os/hal/include/hal_streams.h"
 888              		.file 16 "/usr/lib/gcc/arm-none-eabi/4.9.3/include/stdarg.h"
 889              		.file 17 "<built-in>"
 890              		.file 18 "../../modules/ChibiOS/os/hal/lib/streams/memstreams.h"
 891              		.file 19 "../../modules/ChibiOS/os/common/ext/ARM/CMSIS/Core/Include/core_cm4.h"
 892              		.section	.debug_info,"",%progbits
 893              	.Ldebug_info0:
 894 0000 E00E0000 		.4byte	0xee0
 895 0004 0400     		.2byte	0x4
 896 0006 00000000 		.4byte	.Ldebug_abbrev0
 897 000a 04       		.byte	0x4
 898 000b 01       		.uleb128 0x1
 899 000c F8010000 		.4byte	.LASF140
 900 0010 01       		.byte	0x1
 901 0011 74030000 		.4byte	.LASF141
 902 0015 F2050000 		.4byte	.LASF142
 903 0019 20000000 		.4byte	.Ldebug_ranges0+0x20
 904 001d 00000000 		.4byte	0
 905 0021 00000000 		.4byte	.Ldebug_line0
 906 0025 02       		.uleb128 0x2
 907 0026 08       		.byte	0x8
 908 0027 04       		.byte	0x4
 909 0028 DA060000 		.4byte	.LASF0
 910 002c 03       		.uleb128 0x3
 911 002d 04       		.byte	0x4
ARM GAS  /tmp/ccLlgcLW.s 			page 17


 912 002e 05       		.byte	0x5
 913 002f 696E7400 		.ascii	"int\000"
 914 0033 04       		.uleb128 0x4
 915 0034 0D000000 		.4byte	.LASF3
 916 0038 02       		.byte	0x2
 917 0039 D4       		.byte	0xd4
 918 003a 3E000000 		.4byte	0x3e
 919 003e 02       		.uleb128 0x2
 920 003f 04       		.byte	0x4
 921 0040 07       		.byte	0x7
 922 0041 EB010000 		.4byte	.LASF1
 923 0045 02       		.uleb128 0x2
 924 0046 01       		.byte	0x1
 925 0047 06       		.byte	0x6
 926 0048 13010000 		.4byte	.LASF2
 927 004c 04       		.uleb128 0x4
 928 004d 30000000 		.4byte	.LASF4
 929 0051 03       		.byte	0x3
 930 0052 1D       		.byte	0x1d
 931 0053 57000000 		.4byte	0x57
 932 0057 02       		.uleb128 0x2
 933 0058 01       		.byte	0x1
 934 0059 08       		.byte	0x8
 935 005a F3040000 		.4byte	.LASF5
 936 005e 02       		.uleb128 0x2
 937 005f 02       		.byte	0x2
 938 0060 05       		.byte	0x5
 939 0061 07050000 		.4byte	.LASF6
 940 0065 02       		.uleb128 0x2
 941 0066 02       		.byte	0x2
 942 0067 07       		.byte	0x7
 943 0068 23030000 		.4byte	.LASF7
 944 006c 04       		.uleb128 0x4
 945 006d CD030000 		.4byte	.LASF8
 946 0071 03       		.byte	0x3
 947 0072 3F       		.byte	0x3f
 948 0073 77000000 		.4byte	0x77
 949 0077 02       		.uleb128 0x2
 950 0078 04       		.byte	0x4
 951 0079 05       		.byte	0x5
 952 007a 4C010000 		.4byte	.LASF9
 953 007e 04       		.uleb128 0x4
 954 007f 7C010000 		.4byte	.LASF10
 955 0083 03       		.byte	0x3
 956 0084 41       		.byte	0x41
 957 0085 89000000 		.4byte	0x89
 958 0089 02       		.uleb128 0x2
 959 008a 04       		.byte	0x4
 960 008b 07       		.byte	0x7
 961 008c 1F010000 		.4byte	.LASF11
 962 0090 02       		.uleb128 0x2
 963 0091 08       		.byte	0x8
 964 0092 05       		.byte	0x5
 965 0093 05010000 		.4byte	.LASF12
 966 0097 04       		.uleb128 0x4
 967 0098 96040000 		.4byte	.LASF13
 968 009c 03       		.byte	0x3
ARM GAS  /tmp/ccLlgcLW.s 			page 18


 969 009d 5B       		.byte	0x5b
 970 009e A2000000 		.4byte	0xa2
 971 00a2 02       		.uleb128 0x2
 972 00a3 08       		.byte	0x8
 973 00a4 07       		.byte	0x7
 974 00a5 8C000000 		.4byte	.LASF14
 975 00a9 04       		.uleb128 0x4
 976 00aa 55060000 		.4byte	.LASF15
 977 00ae 04       		.byte	0x4
 978 00af 14       		.byte	0x14
 979 00b0 4C000000 		.4byte	0x4c
 980 00b4 04       		.uleb128 0x4
 981 00b5 EB040000 		.4byte	.LASF16
 982 00b9 04       		.byte	0x4
 983 00ba 1F       		.byte	0x1f
 984 00bb 6C000000 		.4byte	0x6c
 985 00bf 04       		.uleb128 0x4
 986 00c0 6E050000 		.4byte	.LASF17
 987 00c4 04       		.byte	0x4
 988 00c5 20       		.byte	0x20
 989 00c6 7E000000 		.4byte	0x7e
 990 00ca 04       		.uleb128 0x4
 991 00cb 1A000000 		.4byte	.LASF18
 992 00cf 04       		.byte	0x4
 993 00d0 26       		.byte	0x26
 994 00d1 97000000 		.4byte	0x97
 995 00d5 04       		.uleb128 0x4
 996 00d6 1E060000 		.4byte	.LASF19
 997 00da 05       		.byte	0x5
 998 00db 27       		.byte	0x27
 999 00dc BF000000 		.4byte	0xbf
 1000 00e0 04       		.uleb128 0x4
 1001 00e1 FC000000 		.4byte	.LASF20
 1002 00e5 05       		.byte	0x5
 1003 00e6 28       		.byte	0x28
 1004 00e7 CA000000 		.4byte	0xca
 1005 00eb 04       		.uleb128 0x4
 1006 00ec 9F060000 		.4byte	.LASF21
 1007 00f0 05       		.byte	0x5
 1008 00f1 2A       		.byte	0x2a
 1009 00f2 A9000000 		.4byte	0xa9
 1010 00f6 04       		.uleb128 0x4
 1011 00f7 55010000 		.4byte	.LASF22
 1012 00fb 05       		.byte	0x5
 1013 00fc 2B       		.byte	0x2b
 1014 00fd A9000000 		.4byte	0xa9
 1015 0101 04       		.uleb128 0x4
 1016 0102 3F060000 		.4byte	.LASF23
 1017 0106 05       		.byte	0x5
 1018 0107 2C       		.byte	0x2c
 1019 0108 A9000000 		.4byte	0xa9
 1020 010c 04       		.uleb128 0x4
 1021 010d C7040000 		.4byte	.LASF24
 1022 0111 05       		.byte	0x5
 1023 0112 2E       		.byte	0x2e
 1024 0113 BF000000 		.4byte	0xbf
 1025 0117 04       		.uleb128 0x4
ARM GAS  /tmp/ccLlgcLW.s 			page 19


 1026 0118 54030000 		.4byte	.LASF25
 1027 011c 05       		.byte	0x5
 1028 011d 2F       		.byte	0x2f
 1029 011e B4000000 		.4byte	0xb4
 1030 0122 04       		.uleb128 0x4
 1031 0123 C1030000 		.4byte	.LASF26
 1032 0127 05       		.byte	0x5
 1033 0128 31       		.byte	0x31
 1034 0129 BF000000 		.4byte	0xbf
 1035 012d 04       		.uleb128 0x4
 1036 012e E5010000 		.4byte	.LASF27
 1037 0132 05       		.byte	0x5
 1038 0133 33       		.byte	0x33
 1039 0134 B4000000 		.4byte	0xb4
 1040 0138 04       		.uleb128 0x4
 1041 0139 5F030000 		.4byte	.LASF28
 1042 013d 05       		.byte	0x5
 1043 013e 34       		.byte	0x34
 1044 013f BF000000 		.4byte	0xbf
 1045 0143 04       		.uleb128 0x4
 1046 0144 BB050000 		.4byte	.LASF29
 1047 0148 06       		.byte	0x6
 1048 0149 34       		.byte	0x34
 1049 014a 4E010000 		.4byte	0x14e
 1050 014e 05       		.uleb128 0x5
 1051 014f 4A030000 		.4byte	.LASF48
 1052 0153 60       		.byte	0x60
 1053 0154 07       		.byte	0x7
 1054 0155 8E       		.byte	0x8e
 1055 0156 39020000 		.4byte	0x239
 1056 015a 06       		.uleb128 0x6
 1057 015b 05030000 		.4byte	.LASF30
 1058 015f 07       		.byte	0x7
 1059 0160 8F       		.byte	0x8f
 1060 0161 6E020000 		.4byte	0x26e
 1061 0165 00       		.byte	0
 1062 0166 06       		.uleb128 0x6
 1063 0167 7C040000 		.4byte	.LASF31
 1064 016b 07       		.byte	0x7
 1065 016c 90       		.byte	0x90
 1066 016d 0C010000 		.4byte	0x10c
 1067 0171 08       		.byte	0x8
 1068 0172 07       		.uleb128 0x7
 1069 0173 63747800 		.ascii	"ctx\000"
 1070 0177 07       		.byte	0x7
 1071 0178 91       		.byte	0x91
 1072 0179 89040000 		.4byte	0x489
 1073 017d 0C       		.byte	0xc
 1074 017e 06       		.uleb128 0x6
 1075 017f E2030000 		.4byte	.LASF32
 1076 0183 07       		.byte	0x7
 1077 0184 93       		.byte	0x93
 1078 0185 44020000 		.4byte	0x244
 1079 0189 10       		.byte	0x10
 1080 018a 06       		.uleb128 0x6
 1081 018b AB050000 		.4byte	.LASF33
 1082 018f 07       		.byte	0x7
ARM GAS  /tmp/ccLlgcLW.s 			page 20


 1083 0190 94       		.byte	0x94
 1084 0191 44020000 		.4byte	0x244
 1085 0195 14       		.byte	0x14
 1086 0196 06       		.uleb128 0x6
 1087 0197 45030000 		.4byte	.LASF34
 1088 019b 07       		.byte	0x7
 1089 019c 9B       		.byte	0x9b
 1090 019d 6F070000 		.4byte	0x76f
 1091 01a1 18       		.byte	0x18
 1092 01a2 06       		.uleb128 0x6
 1093 01a3 9F050000 		.4byte	.LASF35
 1094 01a7 07       		.byte	0x7
 1095 01a8 A4       		.byte	0xa4
 1096 01a9 81070000 		.4byte	0x781
 1097 01ad 1C       		.byte	0x1c
 1098 01ae 06       		.uleb128 0x6
 1099 01af 46010000 		.4byte	.LASF36
 1100 01b3 07       		.byte	0x7
 1101 01b4 A9       		.byte	0xa9
 1102 01b5 F6000000 		.4byte	0xf6
 1103 01b9 20       		.byte	0x20
 1104 01ba 06       		.uleb128 0x6
 1105 01bb 67060000 		.4byte	.LASF37
 1106 01bf 07       		.byte	0x7
 1107 01c0 AD       		.byte	0xad
 1108 01c1 EB000000 		.4byte	0xeb
 1109 01c5 21       		.byte	0x21
 1110 01c6 06       		.uleb128 0x6
 1111 01c7 B2040000 		.4byte	.LASF38
 1112 01cb 07       		.byte	0x7
 1113 01cc B2       		.byte	0xb2
 1114 01cd 01010000 		.4byte	0x101
 1115 01d1 22       		.byte	0x22
 1116 01d2 08       		.uleb128 0x8
 1117 01d3 7500     		.ascii	"u\000"
 1118 01d5 07       		.byte	0x7
 1119 01d6 0301     		.2byte	0x103
 1120 01d8 A5060000 		.4byte	0x6a5
 1121 01dc 24       		.byte	0x24
 1122 01dd 09       		.uleb128 0x9
 1123 01de AA010000 		.4byte	.LASF39
 1124 01e2 07       		.byte	0x7
 1125 01e3 0801     		.2byte	0x108
 1126 01e5 4A020000 		.4byte	0x24a
 1127 01e9 28       		.byte	0x28
 1128 01ea 09       		.uleb128 0x9
 1129 01eb 3D010000 		.4byte	.LASF40
 1130 01ef 07       		.byte	0x7
 1131 01f0 0E01     		.2byte	0x10e
 1132 01f2 6E020000 		.4byte	0x26e
 1133 01f6 2C       		.byte	0x2c
 1134 01f7 09       		.uleb128 0x9
 1135 01f8 66030000 		.4byte	.LASF41
 1136 01fc 07       		.byte	0x7
 1137 01fd 1401     		.2byte	0x114
 1138 01ff 22010000 		.4byte	0x122
 1139 0203 34       		.byte	0x34
ARM GAS  /tmp/ccLlgcLW.s 			page 21


 1140 0204 09       		.uleb128 0x9
 1141 0205 C7060000 		.4byte	.LASF42
 1142 0209 07       		.byte	0x7
 1143 020a 1B01     		.2byte	0x11b
 1144 020c 69070000 		.4byte	0x769
 1145 0210 38       		.byte	0x38
 1146 0211 09       		.uleb128 0x9
 1147 0212 FB030000 		.4byte	.LASF43
 1148 0216 07       		.byte	0x7
 1149 0217 1F01     		.2byte	0x11f
 1150 0219 0C010000 		.4byte	0x10c
 1151 021d 3C       		.byte	0x3c
 1152 021e 09       		.uleb128 0x9
 1153 021f 11030000 		.4byte	.LASF44
 1154 0223 07       		.byte	0x7
 1155 0224 2601     		.2byte	0x126
 1156 0226 21030000 		.4byte	0x321
 1157 022a 40       		.byte	0x40
 1158 022b 09       		.uleb128 0x9
 1159 022c 68010000 		.4byte	.LASF45
 1160 0230 07       		.byte	0x7
 1161 0231 2C01     		.2byte	0x12c
 1162 0233 56060000 		.4byte	0x656
 1163 0237 48       		.byte	0x48
 1164 0238 00       		.byte	0
 1165 0239 04       		.uleb128 0x4
 1166 023a 0D040000 		.4byte	.LASF46
 1167 023e 06       		.byte	0x6
 1168 023f 39       		.byte	0x39
 1169 0240 44020000 		.4byte	0x244
 1170 0244 0A       		.uleb128 0xa
 1171 0245 04       		.byte	0x4
 1172 0246 43010000 		.4byte	0x143
 1173 024a 04       		.uleb128 0x4
 1174 024b 90060000 		.4byte	.LASF47
 1175 024f 06       		.byte	0x6
 1176 0250 3E       		.byte	0x3e
 1177 0251 55020000 		.4byte	0x255
 1178 0255 05       		.uleb128 0x5
 1179 0256 7E050000 		.4byte	.LASF49
 1180 025a 04       		.byte	0x4
 1181 025b 07       		.byte	0x7
 1182 025c 7C       		.byte	0x7c
 1183 025d 6E020000 		.4byte	0x26e
 1184 0261 06       		.uleb128 0x6
 1185 0262 F7000000 		.4byte	.LASF50
 1186 0266 07       		.byte	0x7
 1187 0267 7D       		.byte	0x7d
 1188 0268 44020000 		.4byte	0x244
 1189 026c 00       		.byte	0
 1190 026d 00       		.byte	0
 1191 026e 04       		.uleb128 0x4
 1192 026f 26060000 		.4byte	.LASF51
 1193 0273 06       		.byte	0x6
 1194 0274 45       		.byte	0x45
 1195 0275 79020000 		.4byte	0x279
 1196 0279 05       		.uleb128 0x5
ARM GAS  /tmp/ccLlgcLW.s 			page 22


 1197 027a E1060000 		.4byte	.LASF52
 1198 027e 08       		.byte	0x8
 1199 027f 07       		.byte	0x7
 1200 0280 83       		.byte	0x83
 1201 0281 9E020000 		.4byte	0x29e
 1202 0285 06       		.uleb128 0x6
 1203 0286 F7000000 		.4byte	.LASF50
 1204 028a 07       		.byte	0x7
 1205 028b 84       		.byte	0x84
 1206 028c 44020000 		.4byte	0x244
 1207 0290 00       		.byte	0
 1208 0291 06       		.uleb128 0x6
 1209 0292 3A000000 		.4byte	.LASF53
 1210 0296 07       		.byte	0x7
 1211 0297 85       		.byte	0x85
 1212 0298 44020000 		.4byte	0x244
 1213 029c 04       		.byte	0x4
 1214 029d 00       		.byte	0
 1215 029e 04       		.uleb128 0x4
 1216 029f 00000000 		.4byte	.LASF54
 1217 02a3 06       		.byte	0x6
 1218 02a4 4C       		.byte	0x4c
 1219 02a5 A9020000 		.4byte	0x2a9
 1220 02a9 0B       		.uleb128 0xb
 1221 02aa B3030000 		.4byte	.LASF55
 1222 02ae 1C       		.byte	0x1c
 1223 02af 07       		.byte	0x7
 1224 02b0 5E01     		.2byte	0x15e
 1225 02b2 05030000 		.4byte	0x305
 1226 02b6 09       		.uleb128 0x9
 1227 02b7 05030000 		.4byte	.LASF30
 1228 02bb 07       		.byte	0x7
 1229 02bc 5F01     		.2byte	0x15f
 1230 02be 6E020000 		.4byte	0x26e
 1231 02c2 00       		.byte	0
 1232 02c3 09       		.uleb128 0x9
 1233 02c4 7C040000 		.4byte	.LASF31
 1234 02c8 07       		.byte	0x7
 1235 02c9 6001     		.2byte	0x160
 1236 02cb 0C010000 		.4byte	0x10c
 1237 02cf 08       		.byte	0x8
 1238 02d0 08       		.uleb128 0x8
 1239 02d1 63747800 		.ascii	"ctx\000"
 1240 02d5 07       		.byte	0x7
 1241 02d6 6201     		.2byte	0x162
 1242 02d8 89040000 		.4byte	0x489
 1243 02dc 0C       		.byte	0xc
 1244 02dd 09       		.uleb128 0x9
 1245 02de E2030000 		.4byte	.LASF32
 1246 02e2 07       		.byte	0x7
 1247 02e3 6501     		.2byte	0x165
 1248 02e5 44020000 		.4byte	0x244
 1249 02e9 10       		.byte	0x10
 1250 02ea 09       		.uleb128 0x9
 1251 02eb AB050000 		.4byte	.LASF33
 1252 02ef 07       		.byte	0x7
 1253 02f0 6601     		.2byte	0x166
ARM GAS  /tmp/ccLlgcLW.s 			page 23


 1254 02f2 44020000 		.4byte	0x244
 1255 02f6 14       		.byte	0x14
 1256 02f7 09       		.uleb128 0x9
 1257 02f8 81040000 		.4byte	.LASF56
 1258 02fc 07       		.byte	0x7
 1259 02fd 6901     		.2byte	0x169
 1260 02ff 44020000 		.4byte	0x244
 1261 0303 18       		.byte	0x18
 1262 0304 00       		.byte	0
 1263 0305 04       		.uleb128 0x4
 1264 0306 D3050000 		.4byte	.LASF57
 1265 030a 06       		.byte	0x6
 1266 030b 51       		.byte	0x51
 1267 030c 10030000 		.4byte	0x310
 1268 0310 0A       		.uleb128 0xa
 1269 0311 04       		.byte	0x4
 1270 0312 16030000 		.4byte	0x316
 1271 0316 0C       		.uleb128 0xc
 1272 0317 21030000 		.4byte	0x321
 1273 031b 0D       		.uleb128 0xd
 1274 031c 21030000 		.4byte	0x321
 1275 0320 00       		.byte	0
 1276 0321 0E       		.uleb128 0xe
 1277 0322 04       		.byte	0x4
 1278 0323 04       		.uleb128 0x4
 1279 0324 B7040000 		.4byte	.LASF58
 1280 0328 06       		.byte	0x6
 1281 0329 56       		.byte	0x56
 1282 032a 2E030000 		.4byte	0x32e
 1283 032e 0B       		.uleb128 0xb
 1284 032f 50050000 		.4byte	.LASF59
 1285 0333 14       		.byte	0x14
 1286 0334 07       		.byte	0x7
 1287 0335 3901     		.2byte	0x139
 1288 0337 7D030000 		.4byte	0x37d
 1289 033b 09       		.uleb128 0x9
 1290 033c F7000000 		.4byte	.LASF50
 1291 0340 07       		.byte	0x7
 1292 0341 3A01     		.2byte	0x13a
 1293 0343 87070000 		.4byte	0x787
 1294 0347 00       		.byte	0
 1295 0348 09       		.uleb128 0x9
 1296 0349 3A000000 		.4byte	.LASF53
 1297 034d 07       		.byte	0x7
 1298 034e 3B01     		.2byte	0x13b
 1299 0350 87070000 		.4byte	0x787
 1300 0354 04       		.byte	0x4
 1301 0355 09       		.uleb128 0x9
 1302 0356 14000000 		.4byte	.LASF60
 1303 035a 07       		.byte	0x7
 1304 035b 3C01     		.2byte	0x13c
 1305 035d 61040000 		.4byte	0x461
 1306 0361 08       		.byte	0x8
 1307 0362 09       		.uleb128 0x9
 1308 0363 F2000000 		.4byte	.LASF61
 1309 0367 07       		.byte	0x7
 1310 0368 3D01     		.2byte	0x13d
ARM GAS  /tmp/ccLlgcLW.s 			page 24


 1311 036a 05030000 		.4byte	0x305
 1312 036e 0C       		.byte	0xc
 1313 036f 08       		.uleb128 0x8
 1314 0370 70617200 		.ascii	"par\000"
 1315 0374 07       		.byte	0x7
 1316 0375 3F01     		.2byte	0x13f
 1317 0377 21030000 		.4byte	0x321
 1318 037b 10       		.byte	0x10
 1319 037c 00       		.byte	0
 1320 037d 04       		.uleb128 0x4
 1321 037e CF000000 		.4byte	.LASF62
 1322 0382 06       		.byte	0x6
 1323 0383 5B       		.byte	0x5b
 1324 0384 88030000 		.4byte	0x388
 1325 0388 0B       		.uleb128 0xb
 1326 0389 20040000 		.4byte	.LASF63
 1327 038d 10       		.byte	0x10
 1328 038e 07       		.byte	0x7
 1329 038f 4901     		.2byte	0x149
 1330 0391 CA030000 		.4byte	0x3ca
 1331 0395 09       		.uleb128 0x9
 1332 0396 F7000000 		.4byte	.LASF50
 1333 039a 07       		.byte	0x7
 1334 039b 4A01     		.2byte	0x14a
 1335 039d 87070000 		.4byte	0x787
 1336 03a1 00       		.byte	0
 1337 03a2 09       		.uleb128 0x9
 1338 03a3 3A000000 		.4byte	.LASF53
 1339 03a7 07       		.byte	0x7
 1340 03a8 4C01     		.2byte	0x14c
 1341 03aa 87070000 		.4byte	0x787
 1342 03ae 04       		.byte	0x4
 1343 03af 09       		.uleb128 0x9
 1344 03b0 14000000 		.4byte	.LASF60
 1345 03b4 07       		.byte	0x7
 1346 03b5 4E01     		.2byte	0x14e
 1347 03b7 61040000 		.4byte	0x461
 1348 03bb 08       		.byte	0x8
 1349 03bc 09       		.uleb128 0x9
 1350 03bd 11050000 		.4byte	.LASF64
 1351 03c1 07       		.byte	0x7
 1352 03c2 5601     		.2byte	0x156
 1353 03c4 56040000 		.4byte	0x456
 1354 03c8 0C       		.byte	0xc
 1355 03c9 00       		.byte	0
 1356 03ca 04       		.uleb128 0x4
 1357 03cb 53000000 		.4byte	.LASF65
 1358 03cf 06       		.byte	0x6
 1359 03d0 60       		.byte	0x60
 1360 03d1 D5030000 		.4byte	0x3d5
 1361 03d5 0B       		.uleb128 0xb
 1362 03d6 A7060000 		.4byte	.LASF66
 1363 03da 04       		.byte	0x4
 1364 03db 07       		.byte	0x7
 1365 03dc 7001     		.2byte	0x170
 1366 03de F0030000 		.4byte	0x3f0
 1367 03e2 09       		.uleb128 0x9
ARM GAS  /tmp/ccLlgcLW.s 			page 25


 1368 03e3 DC050000 		.4byte	.LASF67
 1369 03e7 07       		.byte	0x7
 1370 03e8 7801     		.2byte	0x178
 1371 03ea 8D070000 		.4byte	0x78d
 1372 03ee 00       		.byte	0
 1373 03ef 00       		.byte	0
 1374 03f0 04       		.uleb128 0x4
 1375 03f1 97010000 		.4byte	.LASF68
 1376 03f5 06       		.byte	0x6
 1377 03f6 65       		.byte	0x65
 1378 03f7 FB030000 		.4byte	0x3fb
 1379 03fb 0B       		.uleb128 0xb
 1380 03fc 21050000 		.4byte	.LASF69
 1381 0400 D0       		.byte	0xd0
 1382 0401 07       		.byte	0x7
 1383 0402 9001     		.2byte	0x190
 1384 0404 56040000 		.4byte	0x456
 1385 0408 09       		.uleb128 0x9
 1386 0409 4F060000 		.4byte	.LASF70
 1387 040d 07       		.byte	0x7
 1388 040e 9401     		.2byte	0x194
 1389 0410 9E020000 		.4byte	0x29e
 1390 0414 00       		.byte	0
 1391 0415 09       		.uleb128 0x9
 1392 0416 90010000 		.4byte	.LASF71
 1393 041a 07       		.byte	0x7
 1394 041b 9801     		.2byte	0x198
 1395 041d 7D030000 		.4byte	0x37d
 1396 0421 1C       		.byte	0x1c
 1397 0422 08       		.uleb128 0x8
 1398 0423 64626700 		.ascii	"dbg\000"
 1399 0427 07       		.byte	0x7
 1400 0428 9C01     		.2byte	0x19c
 1401 042a CA030000 		.4byte	0x3ca
 1402 042e 2C       		.byte	0x2c
 1403 042f 09       		.uleb128 0x9
 1404 0430 BC000000 		.4byte	.LASF72
 1405 0434 07       		.byte	0x7
 1406 0435 A001     		.2byte	0x1a0
 1407 0437 43010000 		.4byte	0x143
 1408 043b 30       		.byte	0x30
 1409 043c 08       		.uleb128 0x8
 1410 043d 746D00   		.ascii	"tm\000"
 1411 0440 07       		.byte	0x7
 1412 0441 A501     		.2byte	0x1a5
 1413 0443 08060000 		.4byte	0x608
 1414 0447 90       		.byte	0x90
 1415 0448 09       		.uleb128 0x9
 1416 0449 23000000 		.4byte	.LASF73
 1417 044d 07       		.byte	0x7
 1418 044e AB01     		.2byte	0x1ab
 1419 0450 9A060000 		.4byte	0x69a
 1420 0454 98       		.byte	0x98
 1421 0455 00       		.byte	0
 1422 0456 04       		.uleb128 0x4
 1423 0457 C9050000 		.4byte	.LASF74
 1424 045b 08       		.byte	0x8
ARM GAS  /tmp/ccLlgcLW.s 			page 26


 1425 045c 6D       		.byte	0x6d
 1426 045d BF000000 		.4byte	0xbf
 1427 0461 04       		.uleb128 0x4
 1428 0462 D7010000 		.4byte	.LASF75
 1429 0466 08       		.byte	0x8
 1430 0467 79       		.byte	0x79
 1431 0468 BF000000 		.4byte	0xbf
 1432 046c 02       		.uleb128 0x2
 1433 046d 04       		.byte	0x4
 1434 046e 07       		.byte	0x7
 1435 046f 04040000 		.4byte	.LASF76
 1436 0473 04       		.uleb128 0x4
 1437 0474 87010000 		.4byte	.LASF77
 1438 0478 09       		.byte	0x9
 1439 0479 65       		.byte	0x65
 1440 047a 21030000 		.4byte	0x321
 1441 047e 04       		.uleb128 0x4
 1442 047f D7030000 		.4byte	.LASF78
 1443 0483 09       		.byte	0x9
 1444 0484 6D       		.byte	0x6d
 1445 0485 CA000000 		.4byte	0xca
 1446 0489 05       		.uleb128 0x5
 1447 048a 5E040000 		.4byte	.LASF79
 1448 048e 04       		.byte	0x4
 1449 048f 09       		.byte	0x9
 1450 0490 89       		.byte	0x89
 1451 0491 A1040000 		.4byte	0x4a1
 1452 0495 07       		.uleb128 0x7
 1453 0496 737000   		.ascii	"sp\000"
 1454 0499 09       		.byte	0x9
 1455 049a 8A       		.byte	0x8a
 1456 049b ED050000 		.4byte	0x5ed
 1457 049f 00       		.byte	0
 1458 04a0 00       		.byte	0
 1459 04a1 0B       		.uleb128 0xb
 1460 04a2 3F000000 		.4byte	.LASF80
 1461 04a6 64       		.byte	0x64
 1462 04a7 0A       		.byte	0xa
 1463 04a8 5901     		.2byte	0x159
 1464 04aa ED050000 		.4byte	0x5ed
 1465 04ae 08       		.uleb128 0x8
 1466 04af 73313600 		.ascii	"s16\000"
 1467 04b3 0A       		.byte	0xa
 1468 04b4 5B01     		.2byte	0x15b
 1469 04b6 73040000 		.4byte	0x473
 1470 04ba 00       		.byte	0
 1471 04bb 08       		.uleb128 0x8
 1472 04bc 73313700 		.ascii	"s17\000"
 1473 04c0 0A       		.byte	0xa
 1474 04c1 5C01     		.2byte	0x15c
 1475 04c3 73040000 		.4byte	0x473
 1476 04c7 04       		.byte	0x4
 1477 04c8 08       		.uleb128 0x8
 1478 04c9 73313800 		.ascii	"s18\000"
 1479 04cd 0A       		.byte	0xa
 1480 04ce 5D01     		.2byte	0x15d
 1481 04d0 73040000 		.4byte	0x473
ARM GAS  /tmp/ccLlgcLW.s 			page 27


 1482 04d4 08       		.byte	0x8
 1483 04d5 08       		.uleb128 0x8
 1484 04d6 73313900 		.ascii	"s19\000"
 1485 04da 0A       		.byte	0xa
 1486 04db 5E01     		.2byte	0x15e
 1487 04dd 73040000 		.4byte	0x473
 1488 04e1 0C       		.byte	0xc
 1489 04e2 08       		.uleb128 0x8
 1490 04e3 73323000 		.ascii	"s20\000"
 1491 04e7 0A       		.byte	0xa
 1492 04e8 5F01     		.2byte	0x15f
 1493 04ea 73040000 		.4byte	0x473
 1494 04ee 10       		.byte	0x10
 1495 04ef 08       		.uleb128 0x8
 1496 04f0 73323100 		.ascii	"s21\000"
 1497 04f4 0A       		.byte	0xa
 1498 04f5 6001     		.2byte	0x160
 1499 04f7 73040000 		.4byte	0x473
 1500 04fb 14       		.byte	0x14
 1501 04fc 08       		.uleb128 0x8
 1502 04fd 73323200 		.ascii	"s22\000"
 1503 0501 0A       		.byte	0xa
 1504 0502 6101     		.2byte	0x161
 1505 0504 73040000 		.4byte	0x473
 1506 0508 18       		.byte	0x18
 1507 0509 08       		.uleb128 0x8
 1508 050a 73323300 		.ascii	"s23\000"
 1509 050e 0A       		.byte	0xa
 1510 050f 6201     		.2byte	0x162
 1511 0511 73040000 		.4byte	0x473
 1512 0515 1C       		.byte	0x1c
 1513 0516 08       		.uleb128 0x8
 1514 0517 73323400 		.ascii	"s24\000"
 1515 051b 0A       		.byte	0xa
 1516 051c 6301     		.2byte	0x163
 1517 051e 73040000 		.4byte	0x473
 1518 0522 20       		.byte	0x20
 1519 0523 08       		.uleb128 0x8
 1520 0524 73323500 		.ascii	"s25\000"
 1521 0528 0A       		.byte	0xa
 1522 0529 6401     		.2byte	0x164
 1523 052b 73040000 		.4byte	0x473
 1524 052f 24       		.byte	0x24
 1525 0530 08       		.uleb128 0x8
 1526 0531 73323600 		.ascii	"s26\000"
 1527 0535 0A       		.byte	0xa
 1528 0536 6501     		.2byte	0x165
 1529 0538 73040000 		.4byte	0x473
 1530 053c 28       		.byte	0x28
 1531 053d 08       		.uleb128 0x8
 1532 053e 73323700 		.ascii	"s27\000"
 1533 0542 0A       		.byte	0xa
 1534 0543 6601     		.2byte	0x166
 1535 0545 73040000 		.4byte	0x473
 1536 0549 2C       		.byte	0x2c
 1537 054a 08       		.uleb128 0x8
 1538 054b 73323800 		.ascii	"s28\000"
ARM GAS  /tmp/ccLlgcLW.s 			page 28


 1539 054f 0A       		.byte	0xa
 1540 0550 6701     		.2byte	0x167
 1541 0552 73040000 		.4byte	0x473
 1542 0556 30       		.byte	0x30
 1543 0557 08       		.uleb128 0x8
 1544 0558 73323900 		.ascii	"s29\000"
 1545 055c 0A       		.byte	0xa
 1546 055d 6801     		.2byte	0x168
 1547 055f 73040000 		.4byte	0x473
 1548 0563 34       		.byte	0x34
 1549 0564 08       		.uleb128 0x8
 1550 0565 73333000 		.ascii	"s30\000"
 1551 0569 0A       		.byte	0xa
 1552 056a 6901     		.2byte	0x169
 1553 056c 73040000 		.4byte	0x473
 1554 0570 38       		.byte	0x38
 1555 0571 08       		.uleb128 0x8
 1556 0572 73333100 		.ascii	"s31\000"
 1557 0576 0A       		.byte	0xa
 1558 0577 6A01     		.2byte	0x16a
 1559 0579 73040000 		.4byte	0x473
 1560 057d 3C       		.byte	0x3c
 1561 057e 08       		.uleb128 0x8
 1562 057f 723400   		.ascii	"r4\000"
 1563 0582 0A       		.byte	0xa
 1564 0583 6C01     		.2byte	0x16c
 1565 0585 73040000 		.4byte	0x473
 1566 0589 40       		.byte	0x40
 1567 058a 08       		.uleb128 0x8
 1568 058b 723500   		.ascii	"r5\000"
 1569 058e 0A       		.byte	0xa
 1570 058f 6D01     		.2byte	0x16d
 1571 0591 73040000 		.4byte	0x473
 1572 0595 44       		.byte	0x44
 1573 0596 08       		.uleb128 0x8
 1574 0597 723600   		.ascii	"r6\000"
 1575 059a 0A       		.byte	0xa
 1576 059b 6E01     		.2byte	0x16e
 1577 059d 73040000 		.4byte	0x473
 1578 05a1 48       		.byte	0x48
 1579 05a2 08       		.uleb128 0x8
 1580 05a3 723700   		.ascii	"r7\000"
 1581 05a6 0A       		.byte	0xa
 1582 05a7 6F01     		.2byte	0x16f
 1583 05a9 73040000 		.4byte	0x473
 1584 05ad 4C       		.byte	0x4c
 1585 05ae 08       		.uleb128 0x8
 1586 05af 723800   		.ascii	"r8\000"
 1587 05b2 0A       		.byte	0xa
 1588 05b3 7001     		.2byte	0x170
 1589 05b5 73040000 		.4byte	0x473
 1590 05b9 50       		.byte	0x50
 1591 05ba 08       		.uleb128 0x8
 1592 05bb 723900   		.ascii	"r9\000"
 1593 05be 0A       		.byte	0xa
 1594 05bf 7101     		.2byte	0x171
 1595 05c1 73040000 		.4byte	0x473
ARM GAS  /tmp/ccLlgcLW.s 			page 29


 1596 05c5 54       		.byte	0x54
 1597 05c6 08       		.uleb128 0x8
 1598 05c7 72313000 		.ascii	"r10\000"
 1599 05cb 0A       		.byte	0xa
 1600 05cc 7201     		.2byte	0x172
 1601 05ce 73040000 		.4byte	0x473
 1602 05d2 58       		.byte	0x58
 1603 05d3 08       		.uleb128 0x8
 1604 05d4 72313100 		.ascii	"r11\000"
 1605 05d8 0A       		.byte	0xa
 1606 05d9 7301     		.2byte	0x173
 1607 05db 73040000 		.4byte	0x473
 1608 05df 5C       		.byte	0x5c
 1609 05e0 08       		.uleb128 0x8
 1610 05e1 6C7200   		.ascii	"lr\000"
 1611 05e4 0A       		.byte	0xa
 1612 05e5 7401     		.2byte	0x174
 1613 05e7 73040000 		.4byte	0x473
 1614 05eb 60       		.byte	0x60
 1615 05ec 00       		.byte	0
 1616 05ed 0A       		.uleb128 0xa
 1617 05ee 04       		.byte	0x4
 1618 05ef A1040000 		.4byte	0x4a1
 1619 05f3 0F       		.uleb128 0xf
 1620 05f4 04       		.byte	0x4
 1621 05f5 0B       		.byte	0xb
 1622 05f6 38       		.byte	0x38
 1623 05f7 08060000 		.4byte	0x608
 1624 05fb 06       		.uleb128 0x6
 1625 05fc E6050000 		.4byte	.LASF81
 1626 0600 0B       		.byte	0xb
 1627 0601 3C       		.byte	0x3c
 1628 0602 D5000000 		.4byte	0xd5
 1629 0606 00       		.byte	0
 1630 0607 00       		.byte	0
 1631 0608 04       		.uleb128 0x4
 1632 0609 6B040000 		.4byte	.LASF82
 1633 060d 0B       		.byte	0xb
 1634 060e 3D       		.byte	0x3d
 1635 060f F3050000 		.4byte	0x5f3
 1636 0613 0F       		.uleb128 0xf
 1637 0614 18       		.byte	0x18
 1638 0615 0B       		.byte	0xb
 1639 0616 48       		.byte	0x48
 1640 0617 56060000 		.4byte	0x656
 1641 061b 06       		.uleb128 0x6
 1642 061c C4050000 		.4byte	.LASF83
 1643 0620 0B       		.byte	0xb
 1644 0621 49       		.byte	0x49
 1645 0622 D5000000 		.4byte	0xd5
 1646 0626 00       		.byte	0
 1647 0627 06       		.uleb128 0x6
 1648 0628 67000000 		.4byte	.LASF84
 1649 062c 0B       		.byte	0xb
 1650 062d 4A       		.byte	0x4a
 1651 062e D5000000 		.4byte	0xd5
 1652 0632 04       		.byte	0x4
ARM GAS  /tmp/ccLlgcLW.s 			page 30


 1653 0633 06       		.uleb128 0x6
 1654 0634 5A030000 		.4byte	.LASF85
 1655 0638 0B       		.byte	0xb
 1656 0639 4B       		.byte	0x4b
 1657 063a D5000000 		.4byte	0xd5
 1658 063e 08       		.byte	0x8
 1659 063f 07       		.uleb128 0x7
 1660 0640 6E00     		.ascii	"n\000"
 1661 0642 0B       		.byte	0xb
 1662 0643 4C       		.byte	0x4c
 1663 0644 38010000 		.4byte	0x138
 1664 0648 0C       		.byte	0xc
 1665 0649 06       		.uleb128 0x6
 1666 064a A1040000 		.4byte	.LASF86
 1667 064e 0B       		.byte	0xb
 1668 064f 4D       		.byte	0x4d
 1669 0650 E0000000 		.4byte	0xe0
 1670 0654 10       		.byte	0x10
 1671 0655 00       		.byte	0
 1672 0656 04       		.uleb128 0x4
 1673 0657 6D000000 		.4byte	.LASF87
 1674 065b 0B       		.byte	0xb
 1675 065c 4E       		.byte	0x4e
 1676 065d 13060000 		.4byte	0x613
 1677 0661 0F       		.uleb128 0xf
 1678 0662 38       		.byte	0x38
 1679 0663 0C       		.byte	0xc
 1680 0664 38       		.byte	0x38
 1681 0665 9A060000 		.4byte	0x69a
 1682 0669 06       		.uleb128 0x6
 1683 066a FF020000 		.4byte	.LASF88
 1684 066e 0C       		.byte	0xc
 1685 066f 39       		.byte	0x39
 1686 0670 38010000 		.4byte	0x138
 1687 0674 00       		.byte	0
 1688 0675 06       		.uleb128 0x6
 1689 0676 DC040000 		.4byte	.LASF89
 1690 067a 0C       		.byte	0xc
 1691 067b 3A       		.byte	0x3a
 1692 067c 38010000 		.4byte	0x138
 1693 0680 04       		.byte	0x4
 1694 0681 06       		.uleb128 0x6
 1695 0682 CF060000 		.4byte	.LASF90
 1696 0686 0C       		.byte	0xc
 1697 0687 3B       		.byte	0x3b
 1698 0688 56060000 		.4byte	0x656
 1699 068c 08       		.byte	0x8
 1700 068d 06       		.uleb128 0x6
 1701 068e A8030000 		.4byte	.LASF91
 1702 0692 0C       		.byte	0xc
 1703 0693 3D       		.byte	0x3d
 1704 0694 56060000 		.4byte	0x656
 1705 0698 20       		.byte	0x20
 1706 0699 00       		.byte	0
 1707 069a 04       		.uleb128 0x4
 1708 069b 36030000 		.4byte	.LASF92
 1709 069f 0C       		.byte	0xc
ARM GAS  /tmp/ccLlgcLW.s 			page 31


 1710 06a0 3F       		.byte	0x3f
 1711 06a1 61060000 		.4byte	0x661
 1712 06a5 10       		.uleb128 0x10
 1713 06a6 04       		.byte	0x4
 1714 06a7 07       		.byte	0x7
 1715 06a8 C6       		.byte	0xc6
 1716 06a9 07070000 		.4byte	0x707
 1717 06ad 11       		.uleb128 0x11
 1718 06ae 49050000 		.4byte	.LASF93
 1719 06b2 07       		.byte	0x7
 1720 06b3 CD       		.byte	0xcd
 1721 06b4 17010000 		.4byte	0x117
 1722 06b8 11       		.uleb128 0x11
 1723 06b9 B3000000 		.4byte	.LASF94
 1724 06bd 07       		.byte	0x7
 1725 06be D4       		.byte	0xd4
 1726 06bf 17010000 		.4byte	0x117
 1727 06c3 11       		.uleb128 0x11
 1728 06c4 6D060000 		.4byte	.LASF95
 1729 06c8 07       		.byte	0x7
 1730 06c9 DB       		.byte	0xdb
 1731 06ca 21030000 		.4byte	0x321
 1732 06ce 11       		.uleb128 0x11
 1733 06cf EE020000 		.4byte	.LASF96
 1734 06d3 07       		.byte	0x7
 1735 06d4 E2       		.byte	0xe2
 1736 06d5 07070000 		.4byte	0x707
 1737 06d9 11       		.uleb128 0x11
 1738 06da C7000000 		.4byte	.LASF97
 1739 06de 07       		.byte	0x7
 1740 06df E7       		.byte	0xe7
 1741 06e0 17010000 		.4byte	0x117
 1742 06e4 11       		.uleb128 0x11
 1743 06e5 E7020000 		.4byte	.LASF98
 1744 06e9 07       		.byte	0x7
 1745 06ea F0       		.byte	0xf0
 1746 06eb 32070000 		.4byte	0x732
 1747 06ef 11       		.uleb128 0x11
 1748 06f0 77050000 		.4byte	.LASF99
 1749 06f4 07       		.byte	0x7
 1750 06f5 F9       		.byte	0xf9
 1751 06f6 69070000 		.4byte	0x769
 1752 06fa 12       		.uleb128 0x12
 1753 06fb 1A050000 		.4byte	.LASF100
 1754 06ff 07       		.byte	0x7
 1755 0700 0101     		.2byte	0x101
 1756 0702 22010000 		.4byte	0x122
 1757 0706 00       		.byte	0
 1758 0707 0A       		.uleb128 0xa
 1759 0708 04       		.byte	0x4
 1760 0709 39020000 		.4byte	0x239
 1761 070d 05       		.uleb128 0x5
 1762 070e 61050000 		.4byte	.LASF101
 1763 0712 0C       		.byte	0xc
 1764 0713 0D       		.byte	0xd
 1765 0714 34       		.byte	0x34
 1766 0715 32070000 		.4byte	0x732
ARM GAS  /tmp/ccLlgcLW.s 			page 32


 1767 0719 06       		.uleb128 0x6
 1768 071a 05030000 		.4byte	.LASF30
 1769 071e 0D       		.byte	0xd
 1770 071f 35       		.byte	0x35
 1771 0720 6E020000 		.4byte	0x26e
 1772 0724 00       		.byte	0
 1773 0725 07       		.uleb128 0x7
 1774 0726 636E7400 		.ascii	"cnt\000"
 1775 072a 0D       		.byte	0xd
 1776 072b 37       		.byte	0x37
 1777 072c 2D010000 		.4byte	0x12d
 1778 0730 08       		.byte	0x8
 1779 0731 00       		.byte	0
 1780 0732 0A       		.uleb128 0xa
 1781 0733 04       		.byte	0x4
 1782 0734 0D070000 		.4byte	0x70d
 1783 0738 05       		.uleb128 0x5
 1784 0739 36060000 		.4byte	.LASF102
 1785 073d 10       		.byte	0x10
 1786 073e 0E       		.byte	0xe
 1787 073f 39       		.byte	0x39
 1788 0740 69070000 		.4byte	0x769
 1789 0744 06       		.uleb128 0x6
 1790 0745 05030000 		.4byte	.LASF30
 1791 0749 0E       		.byte	0xe
 1792 074a 3A       		.byte	0x3a
 1793 074b 6E020000 		.4byte	0x26e
 1794 074f 00       		.byte	0
 1795 0750 06       		.uleb128 0x6
 1796 0751 8E050000 		.4byte	.LASF103
 1797 0755 0E       		.byte	0xe
 1798 0756 3C       		.byte	0x3c
 1799 0757 44020000 		.4byte	0x244
 1800 075b 08       		.byte	0x8
 1801 075c 06       		.uleb128 0x6
 1802 075d F7000000 		.4byte	.LASF50
 1803 0761 0E       		.byte	0xe
 1804 0762 3E       		.byte	0x3e
 1805 0763 9D070000 		.4byte	0x79d
 1806 0767 0C       		.byte	0xc
 1807 0768 00       		.byte	0
 1808 0769 0A       		.uleb128 0xa
 1809 076a 04       		.byte	0x4
 1810 076b 38070000 		.4byte	0x738
 1811 076f 0A       		.uleb128 0xa
 1812 0770 04       		.byte	0x4
 1813 0771 75070000 		.4byte	0x775
 1814 0775 13       		.uleb128 0x13
 1815 0776 7A070000 		.4byte	0x77a
 1816 077a 02       		.uleb128 0x2
 1817 077b 01       		.byte	0x1
 1818 077c 08       		.byte	0x8
 1819 077d A6050000 		.4byte	.LASF104
 1820 0781 0A       		.uleb128 0xa
 1821 0782 04       		.byte	0x4
 1822 0783 7E040000 		.4byte	0x47e
 1823 0787 0A       		.uleb128 0xa
ARM GAS  /tmp/ccLlgcLW.s 			page 33


 1824 0788 04       		.byte	0x4
 1825 0789 23030000 		.4byte	0x323
 1826 078d 14       		.uleb128 0x14
 1827 078e 6F070000 		.4byte	0x76f
 1828 0792 04       		.uleb128 0x4
 1829 0793 BA010000 		.4byte	.LASF105
 1830 0797 0E       		.byte	0xe
 1831 0798 34       		.byte	0x34
 1832 0799 38070000 		.4byte	0x738
 1833 079d 0A       		.uleb128 0xa
 1834 079e 04       		.byte	0x4
 1835 079f 92070000 		.4byte	0x792
 1836 07a3 02       		.uleb128 0x2
 1837 07a4 01       		.byte	0x1
 1838 07a5 02       		.byte	0x2
 1839 07a6 E5040000 		.4byte	.LASF106
 1840 07aa 0A       		.uleb128 0xa
 1841 07ab 04       		.byte	0x4
 1842 07ac A9000000 		.4byte	0xa9
 1843 07b0 05       		.uleb128 0x5
 1844 07b1 2B050000 		.4byte	.LASF107
 1845 07b5 14       		.byte	0x14
 1846 07b6 0F       		.byte	0xf
 1847 07b7 48       		.byte	0x48
 1848 07b8 F9070000 		.4byte	0x7f9
 1849 07bc 06       		.uleb128 0x6
 1850 07bd B7060000 		.4byte	.LASF108
 1851 07c1 0F       		.byte	0xf
 1852 07c2 49       		.byte	0x49
 1853 07c3 33000000 		.4byte	0x33
 1854 07c7 00       		.byte	0
 1855 07c8 06       		.uleb128 0x6
 1856 07c9 F5030000 		.4byte	.LASF109
 1857 07cd 0F       		.byte	0xf
 1858 07ce 49       		.byte	0x49
 1859 07cf 1D080000 		.4byte	0x81d
 1860 07d3 04       		.byte	0x4
 1861 07d4 06       		.uleb128 0x6
 1862 07d5 6F030000 		.4byte	.LASF110
 1863 07d9 0F       		.byte	0xf
 1864 07da 49       		.byte	0x49
 1865 07db 3C080000 		.4byte	0x83c
 1866 07df 08       		.byte	0x8
 1867 07e0 07       		.uleb128 0x7
 1868 07e1 70757400 		.ascii	"put\000"
 1869 07e5 0F       		.byte	0xf
 1870 07e6 49       		.byte	0x49
 1871 07e7 56080000 		.4byte	0x856
 1872 07eb 0C       		.byte	0xc
 1873 07ec 07       		.uleb128 0x7
 1874 07ed 67657400 		.ascii	"get\000"
 1875 07f1 0F       		.byte	0xf
 1876 07f2 49       		.byte	0x49
 1877 07f3 6B080000 		.4byte	0x86b
 1878 07f7 10       		.byte	0x10
 1879 07f8 00       		.byte	0
 1880 07f9 15       		.uleb128 0x15
ARM GAS  /tmp/ccLlgcLW.s 			page 34


 1881 07fa 33000000 		.4byte	0x33
 1882 07fe 12080000 		.4byte	0x812
 1883 0802 0D       		.uleb128 0xd
 1884 0803 21030000 		.4byte	0x321
 1885 0807 0D       		.uleb128 0xd
 1886 0808 12080000 		.4byte	0x812
 1887 080c 0D       		.uleb128 0xd
 1888 080d 33000000 		.4byte	0x33
 1889 0811 00       		.byte	0
 1890 0812 0A       		.uleb128 0xa
 1891 0813 04       		.byte	0x4
 1892 0814 18080000 		.4byte	0x818
 1893 0818 13       		.uleb128 0x13
 1894 0819 A9000000 		.4byte	0xa9
 1895 081d 0A       		.uleb128 0xa
 1896 081e 04       		.byte	0x4
 1897 081f F9070000 		.4byte	0x7f9
 1898 0823 15       		.uleb128 0x15
 1899 0824 33000000 		.4byte	0x33
 1900 0828 3C080000 		.4byte	0x83c
 1901 082c 0D       		.uleb128 0xd
 1902 082d 21030000 		.4byte	0x321
 1903 0831 0D       		.uleb128 0xd
 1904 0832 AA070000 		.4byte	0x7aa
 1905 0836 0D       		.uleb128 0xd
 1906 0837 33000000 		.4byte	0x33
 1907 083b 00       		.byte	0
 1908 083c 0A       		.uleb128 0xa
 1909 083d 04       		.byte	0x4
 1910 083e 23080000 		.4byte	0x823
 1911 0842 15       		.uleb128 0x15
 1912 0843 17010000 		.4byte	0x117
 1913 0847 56080000 		.4byte	0x856
 1914 084b 0D       		.uleb128 0xd
 1915 084c 21030000 		.4byte	0x321
 1916 0850 0D       		.uleb128 0xd
 1917 0851 A9000000 		.4byte	0xa9
 1918 0855 00       		.byte	0
 1919 0856 0A       		.uleb128 0xa
 1920 0857 04       		.byte	0x4
 1921 0858 42080000 		.4byte	0x842
 1922 085c 15       		.uleb128 0x15
 1923 085d 17010000 		.4byte	0x117
 1924 0861 6B080000 		.4byte	0x86b
 1925 0865 0D       		.uleb128 0xd
 1926 0866 21030000 		.4byte	0x321
 1927 086a 00       		.byte	0
 1928 086b 0A       		.uleb128 0xa
 1929 086c 04       		.byte	0x4
 1930 086d 5C080000 		.4byte	0x85c
 1931 0871 0F       		.uleb128 0xf
 1932 0872 04       		.byte	0x4
 1933 0873 0F       		.byte	0xf
 1934 0874 53       		.byte	0x53
 1935 0875 86080000 		.4byte	0x886
 1936 0879 07       		.uleb128 0x7
 1937 087a 766D7400 		.ascii	"vmt\000"
ARM GAS  /tmp/ccLlgcLW.s 			page 35


 1938 087e 0F       		.byte	0xf
 1939 087f 55       		.byte	0x55
 1940 0880 86080000 		.4byte	0x886
 1941 0884 00       		.byte	0
 1942 0885 00       		.byte	0
 1943 0886 0A       		.uleb128 0xa
 1944 0887 04       		.byte	0x4
 1945 0888 8C080000 		.4byte	0x88c
 1946 088c 13       		.uleb128 0x13
 1947 088d B0070000 		.4byte	0x7b0
 1948 0891 04       		.uleb128 0x4
 1949 0892 C2010000 		.4byte	.LASF111
 1950 0896 0F       		.byte	0xf
 1951 0897 57       		.byte	0x57
 1952 0898 71080000 		.4byte	0x871
 1953 089c 04       		.uleb128 0x4
 1954 089d 4F040000 		.4byte	.LASF112
 1955 08a1 10       		.byte	0x10
 1956 08a2 28       		.byte	0x28
 1957 08a3 A7080000 		.4byte	0x8a7
 1958 08a7 05       		.uleb128 0x5
 1959 08a8 5E010000 		.4byte	.LASF113
 1960 08ac 04       		.byte	0x4
 1961 08ad 11       		.byte	0x11
 1962 08ae 00       		.byte	0
 1963 08af BE080000 		.4byte	0x8be
 1964 08b3 16       		.uleb128 0x16
 1965 08b4 ED050000 		.4byte	.LASF114
 1966 08b8 21030000 		.4byte	0x321
 1967 08bc 00       		.byte	0
 1968 08bd 00       		.byte	0
 1969 08be 04       		.uleb128 0x4
 1970 08bf 4B000000 		.4byte	.LASF115
 1971 08c3 10       		.byte	0x10
 1972 08c4 62       		.byte	0x62
 1973 08c5 9C080000 		.4byte	0x89c
 1974 08c9 05       		.uleb128 0x5
 1975 08ca 89040000 		.4byte	.LASF116
 1976 08ce 14       		.byte	0x14
 1977 08cf 12       		.byte	0x12
 1978 08d0 3D       		.byte	0x3d
 1979 08d1 12090000 		.4byte	0x912
 1980 08d5 06       		.uleb128 0x6
 1981 08d6 B7060000 		.4byte	.LASF108
 1982 08da 12       		.byte	0x12
 1983 08db 3E       		.byte	0x3e
 1984 08dc 33000000 		.4byte	0x33
 1985 08e0 00       		.byte	0
 1986 08e1 06       		.uleb128 0x6
 1987 08e2 F5030000 		.4byte	.LASF109
 1988 08e6 12       		.byte	0x12
 1989 08e7 3E       		.byte	0x3e
 1990 08e8 1D080000 		.4byte	0x81d
 1991 08ec 04       		.byte	0x4
 1992 08ed 06       		.uleb128 0x6
 1993 08ee 6F030000 		.4byte	.LASF110
 1994 08f2 12       		.byte	0x12
ARM GAS  /tmp/ccLlgcLW.s 			page 36


 1995 08f3 3E       		.byte	0x3e
 1996 08f4 3C080000 		.4byte	0x83c
 1997 08f8 08       		.byte	0x8
 1998 08f9 07       		.uleb128 0x7
 1999 08fa 70757400 		.ascii	"put\000"
 2000 08fe 12       		.byte	0x12
 2001 08ff 3E       		.byte	0x3e
 2002 0900 56080000 		.4byte	0x856
 2003 0904 0C       		.byte	0xc
 2004 0905 07       		.uleb128 0x7
 2005 0906 67657400 		.ascii	"get\000"
 2006 090a 12       		.byte	0x12
 2007 090b 3E       		.byte	0x3e
 2008 090c 6B080000 		.4byte	0x86b
 2009 0910 10       		.byte	0x10
 2010 0911 00       		.byte	0
 2011 0912 0F       		.uleb128 0xf
 2012 0913 14       		.byte	0x14
 2013 0914 12       		.byte	0x12
 2014 0915 46       		.byte	0x46
 2015 0916 57090000 		.4byte	0x957
 2016 091a 07       		.uleb128 0x7
 2017 091b 766D7400 		.ascii	"vmt\000"
 2018 091f 12       		.byte	0x12
 2019 0920 48       		.byte	0x48
 2020 0921 57090000 		.4byte	0x957
 2021 0925 00       		.byte	0
 2022 0926 06       		.uleb128 0x6
 2023 0927 75010000 		.4byte	.LASF117
 2024 092b 12       		.byte	0x12
 2025 092c 49       		.byte	0x49
 2026 092d AA070000 		.4byte	0x7aa
 2027 0931 04       		.byte	0x4
 2028 0932 06       		.uleb128 0x6
 2029 0933 31010000 		.4byte	.LASF118
 2030 0937 12       		.byte	0x12
 2031 0938 49       		.byte	0x49
 2032 0939 33000000 		.4byte	0x33
 2033 093d 08       		.byte	0x8
 2034 093e 07       		.uleb128 0x7
 2035 093f 656F7300 		.ascii	"eos\000"
 2036 0943 12       		.byte	0x12
 2037 0944 49       		.byte	0x49
 2038 0945 33000000 		.4byte	0x33
 2039 0949 0C       		.byte	0xc
 2040 094a 06       		.uleb128 0x6
 2041 094b E6050000 		.4byte	.LASF81
 2042 094f 12       		.byte	0x12
 2043 0950 49       		.byte	0x49
 2044 0951 33000000 		.4byte	0x33
 2045 0955 10       		.byte	0x10
 2046 0956 00       		.byte	0
 2047 0957 0A       		.uleb128 0xa
 2048 0958 04       		.byte	0x4
 2049 0959 5D090000 		.4byte	0x95d
 2050 095d 13       		.uleb128 0x13
 2051 095e C9080000 		.4byte	0x8c9
ARM GAS  /tmp/ccLlgcLW.s 			page 37


 2052 0962 04       		.uleb128 0x4
 2053 0963 CF040000 		.4byte	.LASF119
 2054 0967 12       		.byte	0x12
 2055 0968 4A       		.byte	0x4a
 2056 0969 12090000 		.4byte	0x912
 2057 096d 17       		.uleb128 0x17
 2058 096e 74060000 		.4byte	.LASF143
 2059 0972 01       		.byte	0x1
 2060 0973 26       		.byte	0x26
 2061 0974 F6090000 		.4byte	0x9f6
 2062 0978 00000000 		.4byte	.LFB323
 2063 097c 44000000 		.4byte	.LFE323-.LFB323
 2064 0980 01       		.uleb128 0x1
 2065 0981 9C       		.byte	0x9c
 2066 0982 F6090000 		.4byte	0x9f6
 2067 0986 18       		.uleb128 0x18
 2068 0987 7000     		.ascii	"p\000"
 2069 0989 01       		.byte	0x1
 2070 098a 26       		.byte	0x26
 2071 098b F6090000 		.4byte	0x9f6
 2072 098f 00000000 		.4byte	.LLST0
 2073 0993 18       		.uleb128 0x18
 2074 0994 6E756D00 		.ascii	"num\000"
 2075 0998 01       		.byte	0x1
 2076 0999 27       		.byte	0x27
 2077 099a 77000000 		.4byte	0x77
 2078 099e 13000000 		.4byte	.LLST1
 2079 09a2 19       		.uleb128 0x19
 2080 09a3 43050000 		.4byte	.LASF120
 2081 09a7 01       		.byte	0x1
 2082 09a8 28       		.byte	0x28
 2083 09a9 3E000000 		.4byte	0x3e
 2084 09ad 34000000 		.4byte	.LLST2
 2085 09b1 19       		.uleb128 0x19
 2086 09b2 47040000 		.4byte	.LASF121
 2087 09b6 01       		.byte	0x1
 2088 09b7 29       		.byte	0x29
 2089 09b8 77000000 		.4byte	0x77
 2090 09bc 55000000 		.4byte	.LLST3
 2091 09c0 1A       		.uleb128 0x1a
 2092 09c1 6900     		.ascii	"i\000"
 2093 09c3 01       		.byte	0x1
 2094 09c4 2A       		.byte	0x2a
 2095 09c5 2C000000 		.4byte	0x2c
 2096 09c9 76000000 		.4byte	.LLST4
 2097 09cd 1A       		.uleb128 0x1a
 2098 09ce 7100     		.ascii	"q\000"
 2099 09d0 01       		.byte	0x1
 2100 09d1 2B       		.byte	0x2b
 2101 09d2 F6090000 		.4byte	0x9f6
 2102 09d6 A4000000 		.4byte	.LLST5
 2103 09da 1A       		.uleb128 0x1a
 2104 09db 6C00     		.ascii	"l\000"
 2105 09dd 01       		.byte	0x1
 2106 09de 2C       		.byte	0x2c
 2107 09df 77000000 		.4byte	0x77
 2108 09e3 E7000000 		.4byte	.LLST6
ARM GAS  /tmp/ccLlgcLW.s 			page 38


 2109 09e7 1A       		.uleb128 0x1a
 2110 09e8 6C6C00   		.ascii	"ll\000"
 2111 09eb 01       		.byte	0x1
 2112 09ec 2C       		.byte	0x2c
 2113 09ed 77000000 		.4byte	0x77
 2114 09f1 10010000 		.4byte	.LLST7
 2115 09f5 00       		.byte	0
 2116 09f6 0A       		.uleb128 0xa
 2117 09f7 04       		.byte	0x4
 2118 09f8 7A070000 		.4byte	0x77a
 2119 09fc 1B       		.uleb128 0x1b
 2120 09fd 47060000 		.4byte	.LASF122
 2121 0a01 01       		.byte	0x1
 2122 0a02 47       		.byte	0x47
 2123 0a03 F6090000 		.4byte	0x9f6
 2124 0a07 01       		.byte	0x1
 2125 0a08 2C0A0000 		.4byte	0xa2c
 2126 0a0c 1C       		.uleb128 0x1c
 2127 0a0d 7000     		.ascii	"p\000"
 2128 0a0f 01       		.byte	0x1
 2129 0a10 47       		.byte	0x47
 2130 0a11 F6090000 		.4byte	0x9f6
 2131 0a15 1C       		.uleb128 0x1c
 2132 0a16 6E756D00 		.ascii	"num\000"
 2133 0a1a 01       		.byte	0x1
 2134 0a1b 47       		.byte	0x47
 2135 0a1c 77000000 		.4byte	0x77
 2136 0a20 1D       		.uleb128 0x1d
 2137 0a21 43050000 		.4byte	.LASF120
 2138 0a25 01       		.byte	0x1
 2139 0a26 47       		.byte	0x47
 2140 0a27 3E000000 		.4byte	0x3e
 2141 0a2b 00       		.byte	0
 2142 0a2c 1B       		.uleb128 0x1b
 2143 0a2d 62000000 		.4byte	.LASF123
 2144 0a31 01       		.byte	0x1
 2145 0a32 51       		.byte	0x51
 2146 0a33 F6090000 		.4byte	0x9f6
 2147 0a37 01       		.byte	0x1
 2148 0a38 650A0000 		.4byte	0xa65
 2149 0a3c 1C       		.uleb128 0x1c
 2150 0a3d 7000     		.ascii	"p\000"
 2151 0a3f 01       		.byte	0x1
 2152 0a40 51       		.byte	0x51
 2153 0a41 F6090000 		.4byte	0x9f6
 2154 0a45 1C       		.uleb128 0x1c
 2155 0a46 6E756D00 		.ascii	"num\000"
 2156 0a4a 01       		.byte	0x1
 2157 0a4b 51       		.byte	0x51
 2158 0a4c 25000000 		.4byte	0x25
 2159 0a50 1D       		.uleb128 0x1d
 2160 0a51 B1050000 		.4byte	.LASF124
 2161 0a55 01       		.byte	0x1
 2162 0a56 51       		.byte	0x51
 2163 0a57 89000000 		.4byte	0x89
 2164 0a5b 1E       		.uleb128 0x1e
 2165 0a5c 6C00     		.ascii	"l\000"
ARM GAS  /tmp/ccLlgcLW.s 			page 39


 2166 0a5e 01       		.byte	0x1
 2167 0a5f 52       		.byte	0x52
 2168 0a60 77000000 		.4byte	0x77
 2169 0a64 00       		.byte	0
 2170 0a65 1F       		.uleb128 0x1f
 2171 0a66 5D060000 		.4byte	.LASF131
 2172 0a6a 01       		.byte	0x1
 2173 0a6b 7A       		.byte	0x7a
 2174 0a6c 2C000000 		.4byte	0x2c
 2175 0a70 00000000 		.4byte	.LFB326
 2176 0a74 D8020000 		.4byte	.LFE326-.LFB326
 2177 0a78 01       		.uleb128 0x1
 2178 0a79 9C       		.byte	0x9c
 2179 0a7a 8C0C0000 		.4byte	0xc8c
 2180 0a7e 18       		.uleb128 0x18
 2181 0a7f 63687000 		.ascii	"chp\000"
 2182 0a83 01       		.byte	0x1
 2183 0a84 7A       		.byte	0x7a
 2184 0a85 8C0C0000 		.4byte	0xc8c
 2185 0a89 2E010000 		.4byte	.LLST8
 2186 0a8d 18       		.uleb128 0x18
 2187 0a8e 666D7400 		.ascii	"fmt\000"
 2188 0a92 01       		.byte	0x1
 2189 0a93 7A       		.byte	0x7a
 2190 0a94 6F070000 		.4byte	0x76f
 2191 0a98 5A010000 		.4byte	.LLST9
 2192 0a9c 18       		.uleb128 0x18
 2193 0a9d 617000   		.ascii	"ap\000"
 2194 0aa0 01       		.byte	0x1
 2195 0aa1 7A       		.byte	0x7a
 2196 0aa2 BE080000 		.4byte	0x8be
 2197 0aa6 CB010000 		.4byte	.LLST10
 2198 0aaa 1A       		.uleb128 0x1a
 2199 0aab 7000     		.ascii	"p\000"
 2200 0aad 01       		.byte	0x1
 2201 0aae 7B       		.byte	0x7b
 2202 0aaf F6090000 		.4byte	0x9f6
 2203 0ab3 F4010000 		.4byte	.LLST11
 2204 0ab7 1A       		.uleb128 0x1a
 2205 0ab8 7300     		.ascii	"s\000"
 2206 0aba 01       		.byte	0x1
 2207 0abb 7B       		.byte	0x7b
 2208 0abc F6090000 		.4byte	0x9f6
 2209 0ac0 C9020000 		.4byte	.LLST12
 2210 0ac4 1A       		.uleb128 0x1a
 2211 0ac5 6300     		.ascii	"c\000"
 2212 0ac7 01       		.byte	0x1
 2213 0ac8 7B       		.byte	0x7b
 2214 0ac9 7A070000 		.4byte	0x77a
 2215 0acd 3F030000 		.4byte	.LLST13
 2216 0ad1 20       		.uleb128 0x20
 2217 0ad2 A3010000 		.4byte	.LASF125
 2218 0ad6 01       		.byte	0x1
 2219 0ad7 7B       		.byte	0x7b
 2220 0ad8 7A070000 		.4byte	0x77a
 2221 0adc 25040000 		.4byte	.LLST14
 2222 0ae0 1A       		.uleb128 0x1a
ARM GAS  /tmp/ccLlgcLW.s 			page 40


 2223 0ae1 6900     		.ascii	"i\000"
 2224 0ae3 01       		.byte	0x1
 2225 0ae4 7C       		.byte	0x7c
 2226 0ae5 2C000000 		.4byte	0x2c
 2227 0ae9 77040000 		.4byte	.LLST15
 2228 0aed 20       		.uleb128 0x20
 2229 0aee B1050000 		.4byte	.LASF124
 2230 0af2 01       		.byte	0x1
 2231 0af3 7C       		.byte	0x7c
 2232 0af4 2C000000 		.4byte	0x2c
 2233 0af8 BA040000 		.4byte	.LLST16
 2234 0afc 20       		.uleb128 0x20
 2235 0afd 0B030000 		.4byte	.LASF126
 2236 0b01 01       		.byte	0x1
 2237 0b02 7C       		.byte	0x7c
 2238 0b03 2C000000 		.4byte	0x2c
 2239 0b07 E8040000 		.4byte	.LLST17
 2240 0b0b 1A       		.uleb128 0x1a
 2241 0b0c 6E00     		.ascii	"n\000"
 2242 0b0e 01       		.byte	0x1
 2243 0b0f 7D       		.byte	0x7d
 2244 0b10 2C000000 		.4byte	0x2c
 2245 0b14 76050000 		.4byte	.LLST18
 2246 0b18 20       		.uleb128 0x20
 2247 0b19 B2010000 		.4byte	.LASF127
 2248 0b1d 01       		.byte	0x1
 2249 0b1e 7E       		.byte	0x7e
 2250 0b1f A3070000 		.4byte	0x7a3
 2251 0b23 B6050000 		.4byte	.LLST19
 2252 0b27 20       		.uleb128 0x20
 2253 0b28 F4020000 		.4byte	.LASF128
 2254 0b2c 01       		.byte	0x1
 2255 0b2d 7E       		.byte	0x7e
 2256 0b2e A3070000 		.4byte	0x7a3
 2257 0b32 CA050000 		.4byte	.LLST20
 2258 0b36 1A       		.uleb128 0x1a
 2259 0b37 6C00     		.ascii	"l\000"
 2260 0b39 01       		.byte	0x1
 2261 0b3a 7F       		.byte	0x7f
 2262 0b3b 77000000 		.4byte	0x77
 2263 0b3f F7050000 		.4byte	.LLST21
 2264 0b43 1A       		.uleb128 0x1a
 2265 0b44 6600     		.ascii	"f\000"
 2266 0b46 01       		.byte	0x1
 2267 0b47 81       		.byte	0x81
 2268 0b48 920C0000 		.4byte	0xc92
 2269 0b4c 15060000 		.4byte	.LLST22
 2270 0b50 21       		.uleb128 0x21
 2271 0b51 36010000 		.4byte	.LASF129
 2272 0b55 01       		.byte	0x1
 2273 0b56 82       		.byte	0x82
 2274 0b57 990C0000 		.4byte	0xc99
 2275 0b5b 03       		.uleb128 0x3
 2276 0b5c 91       		.byte	0x91
 2277 0b5d B87F     		.sleb128 -72
 2278 0b5f 22       		.uleb128 0x22
 2279 0b60 37040000 		.4byte	.LASF144
ARM GAS  /tmp/ccLlgcLW.s 			page 41


 2280 0b64 01       		.byte	0x1
 2281 0b65 F0       		.byte	0xf0
 2282 0b66 BE010000 		.4byte	.L30
 2283 0b6a 23       		.uleb128 0x23
 2284 0b6b FC090000 		.4byte	0x9fc
 2285 0b6f CA000000 		.4byte	.LBB8
 2286 0b73 04000000 		.4byte	.LBE8-.LBB8
 2287 0b77 01       		.byte	0x1
 2288 0b78 D9       		.byte	0xd9
 2289 0b79 990B0000 		.4byte	0xb99
 2290 0b7d 24       		.uleb128 0x24
 2291 0b7e 200A0000 		.4byte	0xa20
 2292 0b82 29060000 		.4byte	.LLST23
 2293 0b86 24       		.uleb128 0x24
 2294 0b87 150A0000 		.4byte	0xa15
 2295 0b8b 3D060000 		.4byte	.LLST24
 2296 0b8f 24       		.uleb128 0x24
 2297 0b90 0C0A0000 		.4byte	0xa0c
 2298 0b94 50060000 		.4byte	.LLST25
 2299 0b98 00       		.byte	0
 2300 0b99 23       		.uleb128 0x23
 2301 0b9a FC090000 		.4byte	0x9fc
 2302 0b9e DC000000 		.4byte	.LBB10
 2303 0ba2 08000000 		.4byte	.LBE10-.LBB10
 2304 0ba6 01       		.byte	0x1
 2305 0ba7 F5       		.byte	0xf5
 2306 0ba8 D10B0000 		.4byte	0xbd1
 2307 0bac 24       		.uleb128 0x24
 2308 0bad 200A0000 		.4byte	0xa20
 2309 0bb1 63060000 		.4byte	.LLST26
 2310 0bb5 24       		.uleb128 0x24
 2311 0bb6 150A0000 		.4byte	0xa15
 2312 0bba 7B060000 		.4byte	.LLST27
 2313 0bbe 24       		.uleb128 0x24
 2314 0bbf 0C0A0000 		.4byte	0xa0c
 2315 0bc3 8E060000 		.4byte	.LLST28
 2316 0bc7 25       		.uleb128 0x25
 2317 0bc8 E4000000 		.4byte	.LVL50
 2318 0bcc 6D090000 		.4byte	0x96d
 2319 0bd0 00       		.byte	0
 2320 0bd1 26       		.uleb128 0x26
 2321 0bd2 2C0A0000 		.4byte	0xa2c
 2322 0bd6 12020000 		.4byte	.LBB12
 2323 0bda 00000000 		.4byte	.Ldebug_ranges0+0
 2324 0bde 01       		.byte	0x1
 2325 0bdf E2       		.byte	0xe2
 2326 0be0 330C0000 		.4byte	0xc33
 2327 0be4 24       		.uleb128 0x24
 2328 0be5 500A0000 		.4byte	0xa50
 2329 0be9 A4060000 		.4byte	.LLST29
 2330 0bed 24       		.uleb128 0x24
 2331 0bee 450A0000 		.4byte	0xa45
 2332 0bf2 CD060000 		.4byte	.LLST30
 2333 0bf6 24       		.uleb128 0x24
 2334 0bf7 3C0A0000 		.4byte	0xa3c
 2335 0bfb E5060000 		.4byte	.LLST31
 2336 0bff 27       		.uleb128 0x27
ARM GAS  /tmp/ccLlgcLW.s 			page 42


 2337 0c00 00000000 		.4byte	.Ldebug_ranges0+0
 2338 0c04 28       		.uleb128 0x28
 2339 0c05 5B0A0000 		.4byte	0xa5b
 2340 0c09 28070000 		.4byte	.LLST32
 2341 0c0d 29       		.uleb128 0x29
 2342 0c0e 4A020000 		.4byte	.LVL92
 2343 0c12 6D090000 		.4byte	0x96d
 2344 0c16 2A       		.uleb128 0x2a
 2345 0c17 01       		.uleb128 0x1
 2346 0c18 53       		.byte	0x53
 2347 0c19 01       		.uleb128 0x1
 2348 0c1a 30       		.byte	0x30
 2349 0c1b 2A       		.uleb128 0x2a
 2350 0c1c 01       		.uleb128 0x1
 2351 0c1d 52       		.byte	0x52
 2352 0c1e 01       		.uleb128 0x1
 2353 0c1f 3A       		.byte	0x3a
 2354 0c20 2A       		.uleb128 0x2a
 2355 0c21 01       		.uleb128 0x1
 2356 0c22 51       		.byte	0x51
 2357 0c23 04       		.uleb128 0x4
 2358 0c24 91       		.byte	0x91
 2359 0c25 B07F     		.sleb128 -80
 2360 0c27 06       		.byte	0x6
 2361 0c28 2A       		.uleb128 0x2a
 2362 0c29 01       		.uleb128 0x1
 2363 0c2a 50       		.byte	0x50
 2364 0c2b 04       		.uleb128 0x4
 2365 0c2c 91       		.byte	0x91
 2366 0c2d B47F     		.sleb128 -76
 2367 0c2f 06       		.byte	0x6
 2368 0c30 00       		.byte	0
 2369 0c31 00       		.byte	0
 2370 0c32 00       		.byte	0
 2371 0c33 2B       		.uleb128 0x2b
 2372 0c34 28000000 		.4byte	.LVL17
 2373 0c38 430C0000 		.4byte	0xc43
 2374 0c3c 2A       		.uleb128 0x2a
 2375 0c3d 01       		.uleb128 0x1
 2376 0c3e 50       		.byte	0x50
 2377 0c3f 02       		.uleb128 0x2
 2378 0c40 76       		.byte	0x76
 2379 0c41 00       		.sleb128 0
 2380 0c42 00       		.byte	0
 2381 0c43 2B       		.uleb128 0x2b
 2382 0c44 40010000 		.4byte	.LVL62
 2383 0c48 530C0000 		.4byte	0xc53
 2384 0c4c 2A       		.uleb128 0x2a
 2385 0c4d 01       		.uleb128 0x1
 2386 0c4e 50       		.byte	0x50
 2387 0c4f 02       		.uleb128 0x2
 2388 0c50 76       		.byte	0x76
 2389 0c51 00       		.sleb128 0
 2390 0c52 00       		.byte	0
 2391 0c53 2B       		.uleb128 0x2b
 2392 0c54 58010000 		.4byte	.LVL68
 2393 0c58 690C0000 		.4byte	0xc69
ARM GAS  /tmp/ccLlgcLW.s 			page 43


 2394 0c5c 2A       		.uleb128 0x2a
 2395 0c5d 01       		.uleb128 0x1
 2396 0c5e 51       		.byte	0x51
 2397 0c5f 02       		.uleb128 0x2
 2398 0c60 75       		.byte	0x75
 2399 0c61 00       		.sleb128 0
 2400 0c62 2A       		.uleb128 0x2a
 2401 0c63 01       		.uleb128 0x1
 2402 0c64 50       		.byte	0x50
 2403 0c65 02       		.uleb128 0x2
 2404 0c66 76       		.byte	0x76
 2405 0c67 00       		.sleb128 0
 2406 0c68 00       		.byte	0
 2407 0c69 2B       		.uleb128 0x2b
 2408 0c6a 78010000 		.4byte	.LVL75
 2409 0c6e 790C0000 		.4byte	0xc79
 2410 0c72 2A       		.uleb128 0x2a
 2411 0c73 01       		.uleb128 0x1
 2412 0c74 50       		.byte	0x50
 2413 0c75 02       		.uleb128 0x2
 2414 0c76 76       		.byte	0x76
 2415 0c77 00       		.sleb128 0
 2416 0c78 00       		.byte	0
 2417 0c79 2C       		.uleb128 0x2c
 2418 0c7a 9C010000 		.4byte	.LVL78
 2419 0c7e 2A       		.uleb128 0x2a
 2420 0c7f 01       		.uleb128 0x1
 2421 0c80 51       		.byte	0x51
 2422 0c81 02       		.uleb128 0x2
 2423 0c82 75       		.byte	0x75
 2424 0c83 00       		.sleb128 0
 2425 0c84 2A       		.uleb128 0x2a
 2426 0c85 01       		.uleb128 0x1
 2427 0c86 50       		.byte	0x50
 2428 0c87 02       		.uleb128 0x2
 2429 0c88 76       		.byte	0x76
 2430 0c89 00       		.sleb128 0
 2431 0c8a 00       		.byte	0
 2432 0c8b 00       		.byte	0
 2433 0c8c 0A       		.uleb128 0xa
 2434 0c8d 04       		.byte	0x4
 2435 0c8e 91080000 		.4byte	0x891
 2436 0c92 02       		.uleb128 0x2
 2437 0c93 04       		.byte	0x4
 2438 0c94 04       		.byte	0x4
 2439 0c95 AC040000 		.4byte	.LASF130
 2440 0c99 2D       		.uleb128 0x2d
 2441 0c9a 7A070000 		.4byte	0x77a
 2442 0c9e A90C0000 		.4byte	0xca9
 2443 0ca2 2E       		.uleb128 0x2e
 2444 0ca3 6C040000 		.4byte	0x46c
 2445 0ca7 16       		.byte	0x16
 2446 0ca8 00       		.byte	0
 2447 0ca9 2F       		.uleb128 0x2f
 2448 0caa F2060000 		.4byte	.LASF132
 2449 0cae 01       		.byte	0x1
 2450 0caf 3101     		.2byte	0x131
ARM GAS  /tmp/ccLlgcLW.s 			page 44


 2451 0cb1 2C000000 		.4byte	0x2c
 2452 0cb5 00000000 		.4byte	.LFB327
 2453 0cb9 1A000000 		.4byte	.LFE327-.LFB327
 2454 0cbd 01       		.uleb128 0x1
 2455 0cbe 9C       		.byte	0x9c
 2456 0cbf 1E0D0000 		.4byte	0xd1e
 2457 0cc3 30       		.uleb128 0x30
 2458 0cc4 63687000 		.ascii	"chp\000"
 2459 0cc8 01       		.byte	0x1
 2460 0cc9 3101     		.2byte	0x131
 2461 0ccb 8C0C0000 		.4byte	0xc8c
 2462 0ccf 5A070000 		.4byte	.LLST33
 2463 0cd3 31       		.uleb128 0x31
 2464 0cd4 666D7400 		.ascii	"fmt\000"
 2465 0cd8 01       		.byte	0x1
 2466 0cd9 3101     		.2byte	0x131
 2467 0cdb 6F070000 		.4byte	0x76f
 2468 0cdf 02       		.uleb128 0x2
 2469 0ce0 91       		.byte	0x91
 2470 0ce1 74       		.sleb128 -12
 2471 0ce2 32       		.uleb128 0x32
 2472 0ce3 33       		.uleb128 0x33
 2473 0ce4 617000   		.ascii	"ap\000"
 2474 0ce7 01       		.byte	0x1
 2475 0ce8 3201     		.2byte	0x132
 2476 0cea BE080000 		.4byte	0x8be
 2477 0cee 02       		.uleb128 0x2
 2478 0cef 91       		.byte	0x91
 2479 0cf0 6C       		.sleb128 -20
 2480 0cf1 34       		.uleb128 0x34
 2481 0cf2 A3000000 		.4byte	.LASF133
 2482 0cf6 01       		.byte	0x1
 2483 0cf7 3301     		.2byte	0x133
 2484 0cf9 2C000000 		.4byte	0x2c
 2485 0cfd 01       		.uleb128 0x1
 2486 0cfe 50       		.byte	0x50
 2487 0cff 29       		.uleb128 0x29
 2488 0d00 10000000 		.4byte	.LVL110
 2489 0d04 650A0000 		.4byte	0xa65
 2490 0d08 2A       		.uleb128 0x2a
 2491 0d09 01       		.uleb128 0x1
 2492 0d0a 52       		.byte	0x52
 2493 0d0b 02       		.uleb128 0x2
 2494 0d0c 91       		.byte	0x91
 2495 0d0d 60       		.sleb128 -32
 2496 0d0e 2A       		.uleb128 0x2a
 2497 0d0f 01       		.uleb128 0x1
 2498 0d10 51       		.byte	0x51
 2499 0d11 03       		.uleb128 0x3
 2500 0d12 91       		.byte	0x91
 2501 0d13 5C       		.sleb128 -36
 2502 0d14 06       		.byte	0x6
 2503 0d15 2A       		.uleb128 0x2a
 2504 0d16 01       		.uleb128 0x1
 2505 0d17 50       		.byte	0x50
 2506 0d18 03       		.uleb128 0x3
 2507 0d19 F3       		.byte	0xf3
ARM GAS  /tmp/ccLlgcLW.s 			page 45


 2508 0d1a 01       		.uleb128 0x1
 2509 0d1b 50       		.byte	0x50
 2510 0d1c 00       		.byte	0
 2511 0d1d 00       		.byte	0
 2512 0d1e 2F       		.uleb128 0x2f
 2513 0d1f 17030000 		.4byte	.LASF134
 2514 0d23 01       		.byte	0x1
 2515 0d24 8001     		.2byte	0x180
 2516 0d26 2C000000 		.4byte	0x2c
 2517 0d2a 00000000 		.4byte	.LFB329
 2518 0d2e 36000000 		.4byte	.LFE329-.LFB329
 2519 0d32 01       		.uleb128 0x1
 2520 0d33 9C       		.byte	0x9c
 2521 0d34 EF0D0000 		.4byte	0xdef
 2522 0d38 30       		.uleb128 0x30
 2523 0d39 73747200 		.ascii	"str\000"
 2524 0d3d 01       		.byte	0x1
 2525 0d3e 8001     		.2byte	0x180
 2526 0d40 F6090000 		.4byte	0x9f6
 2527 0d44 7B070000 		.4byte	.LLST34
 2528 0d48 35       		.uleb128 0x35
 2529 0d49 31010000 		.4byte	.LASF118
 2530 0d4d 01       		.byte	0x1
 2531 0d4e 8001     		.2byte	0x180
 2532 0d50 33000000 		.4byte	0x33
 2533 0d54 99070000 		.4byte	.LLST35
 2534 0d58 30       		.uleb128 0x30
 2535 0d59 666D7400 		.ascii	"fmt\000"
 2536 0d5d 01       		.byte	0x1
 2537 0d5e 8001     		.2byte	0x180
 2538 0d60 6F070000 		.4byte	0x76f
 2539 0d64 B7070000 		.4byte	.LLST36
 2540 0d68 30       		.uleb128 0x30
 2541 0d69 617000   		.ascii	"ap\000"
 2542 0d6c 01       		.byte	0x1
 2543 0d6d 8001     		.2byte	0x180
 2544 0d6f BE080000 		.4byte	0x8be
 2545 0d73 EB070000 		.4byte	.LLST37
 2546 0d77 33       		.uleb128 0x33
 2547 0d78 6D7300   		.ascii	"ms\000"
 2548 0d7b 01       		.byte	0x1
 2549 0d7c 8101     		.2byte	0x181
 2550 0d7e 62090000 		.4byte	0x962
 2551 0d82 02       		.uleb128 0x2
 2552 0d83 91       		.byte	0x91
 2553 0d84 54       		.sleb128 -44
 2554 0d85 36       		.uleb128 0x36
 2555 0d86 63687000 		.ascii	"chp\000"
 2556 0d8a 01       		.byte	0x1
 2557 0d8b 8201     		.2byte	0x182
 2558 0d8d 8C0C0000 		.4byte	0xc8c
 2559 0d91 09080000 		.4byte	.LLST38
 2560 0d95 37       		.uleb128 0x37
 2561 0d96 80000000 		.4byte	.LASF135
 2562 0d9a 01       		.byte	0x1
 2563 0d9b 8301     		.2byte	0x183
 2564 0d9d 33000000 		.4byte	0x33
ARM GAS  /tmp/ccLlgcLW.s 			page 46


 2565 0da1 36080000 		.4byte	.LLST39
 2566 0da5 34       		.uleb128 0x34
 2567 0da6 6E010000 		.4byte	.LASF136
 2568 0daa 01       		.byte	0x1
 2569 0dab 8401     		.2byte	0x184
 2570 0dad 2C000000 		.4byte	0x2c
 2571 0db1 01       		.uleb128 0x1
 2572 0db2 50       		.byte	0x50
 2573 0db3 38       		.uleb128 0x38
 2574 0db4 1E000000 		.4byte	.LVL118
 2575 0db8 BD0E0000 		.4byte	0xebd
 2576 0dbc D20D0000 		.4byte	0xdd2
 2577 0dc0 2A       		.uleb128 0x2a
 2578 0dc1 01       		.uleb128 0x1
 2579 0dc2 53       		.byte	0x53
 2580 0dc3 01       		.uleb128 0x1
 2581 0dc4 30       		.byte	0x30
 2582 0dc5 2A       		.uleb128 0x2a
 2583 0dc6 01       		.uleb128 0x1
 2584 0dc7 51       		.byte	0x51
 2585 0dc8 02       		.uleb128 0x2
 2586 0dc9 75       		.byte	0x75
 2587 0dca 00       		.sleb128 0
 2588 0dcb 2A       		.uleb128 0x2a
 2589 0dcc 01       		.uleb128 0x1
 2590 0dcd 50       		.byte	0x50
 2591 0dce 02       		.uleb128 0x2
 2592 0dcf 91       		.byte	0x91
 2593 0dd0 54       		.sleb128 -44
 2594 0dd1 00       		.byte	0
 2595 0dd2 29       		.uleb128 0x29
 2596 0dd3 28000000 		.4byte	.LVL120
 2597 0dd7 650A0000 		.4byte	0xa65
 2598 0ddb 2A       		.uleb128 0x2a
 2599 0ddc 01       		.uleb128 0x1
 2600 0ddd 52       		.byte	0x52
 2601 0dde 02       		.uleb128 0x2
 2602 0ddf 76       		.byte	0x76
 2603 0de0 00       		.sleb128 0
 2604 0de1 2A       		.uleb128 0x2a
 2605 0de2 01       		.uleb128 0x1
 2606 0de3 51       		.byte	0x51
 2607 0de4 02       		.uleb128 0x2
 2608 0de5 77       		.byte	0x77
 2609 0de6 00       		.sleb128 0
 2610 0de7 2A       		.uleb128 0x2a
 2611 0de8 01       		.uleb128 0x1
 2612 0de9 50       		.byte	0x50
 2613 0dea 02       		.uleb128 0x2
 2614 0deb 91       		.byte	0x91
 2615 0dec 54       		.sleb128 -44
 2616 0ded 00       		.byte	0
 2617 0dee 00       		.byte	0
 2618 0def 2F       		.uleb128 0x2f
 2619 0df0 94050000 		.4byte	.LASF137
 2620 0df4 01       		.byte	0x1
 2621 0df5 5701     		.2byte	0x157
ARM GAS  /tmp/ccLlgcLW.s 			page 47


 2622 0df7 2C000000 		.4byte	0x2c
 2623 0dfb 00000000 		.4byte	.LFB328
 2624 0dff 1A000000 		.4byte	.LFE328-.LFB328
 2625 0e03 01       		.uleb128 0x1
 2626 0e04 9C       		.byte	0x9c
 2627 0e05 7B0E0000 		.4byte	0xe7b
 2628 0e09 30       		.uleb128 0x30
 2629 0e0a 73747200 		.ascii	"str\000"
 2630 0e0e 01       		.byte	0x1
 2631 0e0f 5701     		.2byte	0x157
 2632 0e11 F6090000 		.4byte	0x9f6
 2633 0e15 54080000 		.4byte	.LLST40
 2634 0e19 35       		.uleb128 0x35
 2635 0e1a 31010000 		.4byte	.LASF118
 2636 0e1e 01       		.byte	0x1
 2637 0e1f 5701     		.2byte	0x157
 2638 0e21 33000000 		.4byte	0x33
 2639 0e25 75080000 		.4byte	.LLST41
 2640 0e29 31       		.uleb128 0x31
 2641 0e2a 666D7400 		.ascii	"fmt\000"
 2642 0e2e 01       		.byte	0x1
 2643 0e2f 5701     		.2byte	0x157
 2644 0e31 6F070000 		.4byte	0x76f
 2645 0e35 02       		.uleb128 0x2
 2646 0e36 91       		.byte	0x91
 2647 0e37 78       		.sleb128 -8
 2648 0e38 32       		.uleb128 0x32
 2649 0e39 33       		.uleb128 0x33
 2650 0e3a 617000   		.ascii	"ap\000"
 2651 0e3d 01       		.byte	0x1
 2652 0e3e 5801     		.2byte	0x158
 2653 0e40 BE080000 		.4byte	0x8be
 2654 0e44 02       		.uleb128 0x2
 2655 0e45 91       		.byte	0x91
 2656 0e46 6C       		.sleb128 -20
 2657 0e47 34       		.uleb128 0x34
 2658 0e48 6E010000 		.4byte	.LASF136
 2659 0e4c 01       		.byte	0x1
 2660 0e4d 5901     		.2byte	0x159
 2661 0e4f 2C000000 		.4byte	0x2c
 2662 0e53 01       		.uleb128 0x1
 2663 0e54 50       		.byte	0x50
 2664 0e55 29       		.uleb128 0x29
 2665 0e56 10000000 		.4byte	.LVL122
 2666 0e5a 1E0D0000 		.4byte	0xd1e
 2667 0e5e 2A       		.uleb128 0x2a
 2668 0e5f 01       		.uleb128 0x1
 2669 0e60 53       		.byte	0x53
 2670 0e61 02       		.uleb128 0x2
 2671 0e62 91       		.byte	0x91
 2672 0e63 6C       		.sleb128 -20
 2673 0e64 2A       		.uleb128 0x2a
 2674 0e65 01       		.uleb128 0x1
 2675 0e66 52       		.byte	0x52
 2676 0e67 03       		.uleb128 0x3
 2677 0e68 91       		.byte	0x91
 2678 0e69 68       		.sleb128 -24
ARM GAS  /tmp/ccLlgcLW.s 			page 48


 2679 0e6a 06       		.byte	0x6
 2680 0e6b 2A       		.uleb128 0x2a
 2681 0e6c 01       		.uleb128 0x1
 2682 0e6d 51       		.byte	0x51
 2683 0e6e 03       		.uleb128 0x3
 2684 0e6f F3       		.byte	0xf3
 2685 0e70 01       		.uleb128 0x1
 2686 0e71 51       		.byte	0x51
 2687 0e72 2A       		.uleb128 0x2a
 2688 0e73 01       		.uleb128 0x1
 2689 0e74 50       		.byte	0x50
 2690 0e75 03       		.uleb128 0x3
 2691 0e76 F3       		.byte	0xf3
 2692 0e77 01       		.uleb128 0x1
 2693 0e78 50       		.byte	0x50
 2694 0e79 00       		.byte	0
 2695 0e7a 00       		.byte	0
 2696 0e7b 2D       		.uleb128 0x2d
 2697 0e7c 77000000 		.4byte	0x77
 2698 0e80 8B0E0000 		.4byte	0xe8b
 2699 0e84 2E       		.uleb128 0x2e
 2700 0e85 6C040000 		.4byte	0x46c
 2701 0e89 08       		.byte	0x8
 2702 0e8a 00       		.byte	0
 2703 0e8b 21       		.uleb128 0x21
 2704 0e8c 01050000 		.4byte	.LASF138
 2705 0e90 01       		.byte	0x1
 2706 0e91 4D       		.byte	0x4d
 2707 0e92 9C0E0000 		.4byte	0xe9c
 2708 0e96 05       		.uleb128 0x5
 2709 0e97 03       		.byte	0x3
 2710 0e98 00000000 		.4byte	pow10
 2711 0e9c 13       		.uleb128 0x13
 2712 0e9d 7B0E0000 		.4byte	0xe7b
 2713 0ea1 39       		.uleb128 0x39
 2714 0ea2 E5000000 		.4byte	.LASF139
 2715 0ea6 13       		.byte	0x13
 2716 0ea7 0408     		.2byte	0x804
 2717 0ea9 AD0E0000 		.4byte	0xead
 2718 0ead 14       		.uleb128 0x14
 2719 0eae B4000000 		.4byte	0xb4
 2720 0eb2 3A       		.uleb128 0x3a
 2721 0eb3 636800   		.ascii	"ch\000"
 2722 0eb6 07       		.byte	0x7
 2723 0eb7 C701     		.2byte	0x1c7
 2724 0eb9 F0030000 		.4byte	0x3f0
 2725 0ebd 3B       		.uleb128 0x3b
 2726 0ebe E8030000 		.4byte	.LASF145
 2727 0ec2 12       		.byte	0x12
 2728 0ec3 57       		.byte	0x57
 2729 0ec4 DD0E0000 		.4byte	0xedd
 2730 0ec8 0D       		.uleb128 0xd
 2731 0ec9 DD0E0000 		.4byte	0xedd
 2732 0ecd 0D       		.uleb128 0xd
 2733 0ece AA070000 		.4byte	0x7aa
 2734 0ed2 0D       		.uleb128 0xd
 2735 0ed3 33000000 		.4byte	0x33
ARM GAS  /tmp/ccLlgcLW.s 			page 49


 2736 0ed7 0D       		.uleb128 0xd
 2737 0ed8 33000000 		.4byte	0x33
 2738 0edc 00       		.byte	0
 2739 0edd 0A       		.uleb128 0xa
 2740 0ede 04       		.byte	0x4
 2741 0edf 62090000 		.4byte	0x962
 2742 0ee3 00       		.byte	0
 2743              		.section	.debug_abbrev,"",%progbits
 2744              	.Ldebug_abbrev0:
 2745 0000 01       		.uleb128 0x1
 2746 0001 11       		.uleb128 0x11
 2747 0002 01       		.byte	0x1
 2748 0003 25       		.uleb128 0x25
 2749 0004 0E       		.uleb128 0xe
 2750 0005 13       		.uleb128 0x13
 2751 0006 0B       		.uleb128 0xb
 2752 0007 03       		.uleb128 0x3
 2753 0008 0E       		.uleb128 0xe
 2754 0009 1B       		.uleb128 0x1b
 2755 000a 0E       		.uleb128 0xe
 2756 000b 55       		.uleb128 0x55
 2757 000c 17       		.uleb128 0x17
 2758 000d 11       		.uleb128 0x11
 2759 000e 01       		.uleb128 0x1
 2760 000f 10       		.uleb128 0x10
 2761 0010 17       		.uleb128 0x17
 2762 0011 00       		.byte	0
 2763 0012 00       		.byte	0
 2764 0013 02       		.uleb128 0x2
 2765 0014 24       		.uleb128 0x24
 2766 0015 00       		.byte	0
 2767 0016 0B       		.uleb128 0xb
 2768 0017 0B       		.uleb128 0xb
 2769 0018 3E       		.uleb128 0x3e
 2770 0019 0B       		.uleb128 0xb
 2771 001a 03       		.uleb128 0x3
 2772 001b 0E       		.uleb128 0xe
 2773 001c 00       		.byte	0
 2774 001d 00       		.byte	0
 2775 001e 03       		.uleb128 0x3
 2776 001f 24       		.uleb128 0x24
 2777 0020 00       		.byte	0
 2778 0021 0B       		.uleb128 0xb
 2779 0022 0B       		.uleb128 0xb
 2780 0023 3E       		.uleb128 0x3e
 2781 0024 0B       		.uleb128 0xb
 2782 0025 03       		.uleb128 0x3
 2783 0026 08       		.uleb128 0x8
 2784 0027 00       		.byte	0
 2785 0028 00       		.byte	0
 2786 0029 04       		.uleb128 0x4
 2787 002a 16       		.uleb128 0x16
 2788 002b 00       		.byte	0
 2789 002c 03       		.uleb128 0x3
 2790 002d 0E       		.uleb128 0xe
 2791 002e 3A       		.uleb128 0x3a
 2792 002f 0B       		.uleb128 0xb
ARM GAS  /tmp/ccLlgcLW.s 			page 50


 2793 0030 3B       		.uleb128 0x3b
 2794 0031 0B       		.uleb128 0xb
 2795 0032 49       		.uleb128 0x49
 2796 0033 13       		.uleb128 0x13
 2797 0034 00       		.byte	0
 2798 0035 00       		.byte	0
 2799 0036 05       		.uleb128 0x5
 2800 0037 13       		.uleb128 0x13
 2801 0038 01       		.byte	0x1
 2802 0039 03       		.uleb128 0x3
 2803 003a 0E       		.uleb128 0xe
 2804 003b 0B       		.uleb128 0xb
 2805 003c 0B       		.uleb128 0xb
 2806 003d 3A       		.uleb128 0x3a
 2807 003e 0B       		.uleb128 0xb
 2808 003f 3B       		.uleb128 0x3b
 2809 0040 0B       		.uleb128 0xb
 2810 0041 01       		.uleb128 0x1
 2811 0042 13       		.uleb128 0x13
 2812 0043 00       		.byte	0
 2813 0044 00       		.byte	0
 2814 0045 06       		.uleb128 0x6
 2815 0046 0D       		.uleb128 0xd
 2816 0047 00       		.byte	0
 2817 0048 03       		.uleb128 0x3
 2818 0049 0E       		.uleb128 0xe
 2819 004a 3A       		.uleb128 0x3a
 2820 004b 0B       		.uleb128 0xb
 2821 004c 3B       		.uleb128 0x3b
 2822 004d 0B       		.uleb128 0xb
 2823 004e 49       		.uleb128 0x49
 2824 004f 13       		.uleb128 0x13
 2825 0050 38       		.uleb128 0x38
 2826 0051 0B       		.uleb128 0xb
 2827 0052 00       		.byte	0
 2828 0053 00       		.byte	0
 2829 0054 07       		.uleb128 0x7
 2830 0055 0D       		.uleb128 0xd
 2831 0056 00       		.byte	0
 2832 0057 03       		.uleb128 0x3
 2833 0058 08       		.uleb128 0x8
 2834 0059 3A       		.uleb128 0x3a
 2835 005a 0B       		.uleb128 0xb
 2836 005b 3B       		.uleb128 0x3b
 2837 005c 0B       		.uleb128 0xb
 2838 005d 49       		.uleb128 0x49
 2839 005e 13       		.uleb128 0x13
 2840 005f 38       		.uleb128 0x38
 2841 0060 0B       		.uleb128 0xb
 2842 0061 00       		.byte	0
 2843 0062 00       		.byte	0
 2844 0063 08       		.uleb128 0x8
 2845 0064 0D       		.uleb128 0xd
 2846 0065 00       		.byte	0
 2847 0066 03       		.uleb128 0x3
 2848 0067 08       		.uleb128 0x8
 2849 0068 3A       		.uleb128 0x3a
ARM GAS  /tmp/ccLlgcLW.s 			page 51


 2850 0069 0B       		.uleb128 0xb
 2851 006a 3B       		.uleb128 0x3b
 2852 006b 05       		.uleb128 0x5
 2853 006c 49       		.uleb128 0x49
 2854 006d 13       		.uleb128 0x13
 2855 006e 38       		.uleb128 0x38
 2856 006f 0B       		.uleb128 0xb
 2857 0070 00       		.byte	0
 2858 0071 00       		.byte	0
 2859 0072 09       		.uleb128 0x9
 2860 0073 0D       		.uleb128 0xd
 2861 0074 00       		.byte	0
 2862 0075 03       		.uleb128 0x3
 2863 0076 0E       		.uleb128 0xe
 2864 0077 3A       		.uleb128 0x3a
 2865 0078 0B       		.uleb128 0xb
 2866 0079 3B       		.uleb128 0x3b
 2867 007a 05       		.uleb128 0x5
 2868 007b 49       		.uleb128 0x49
 2869 007c 13       		.uleb128 0x13
 2870 007d 38       		.uleb128 0x38
 2871 007e 0B       		.uleb128 0xb
 2872 007f 00       		.byte	0
 2873 0080 00       		.byte	0
 2874 0081 0A       		.uleb128 0xa
 2875 0082 0F       		.uleb128 0xf
 2876 0083 00       		.byte	0
 2877 0084 0B       		.uleb128 0xb
 2878 0085 0B       		.uleb128 0xb
 2879 0086 49       		.uleb128 0x49
 2880 0087 13       		.uleb128 0x13
 2881 0088 00       		.byte	0
 2882 0089 00       		.byte	0
 2883 008a 0B       		.uleb128 0xb
 2884 008b 13       		.uleb128 0x13
 2885 008c 01       		.byte	0x1
 2886 008d 03       		.uleb128 0x3
 2887 008e 0E       		.uleb128 0xe
 2888 008f 0B       		.uleb128 0xb
 2889 0090 0B       		.uleb128 0xb
 2890 0091 3A       		.uleb128 0x3a
 2891 0092 0B       		.uleb128 0xb
 2892 0093 3B       		.uleb128 0x3b
 2893 0094 05       		.uleb128 0x5
 2894 0095 01       		.uleb128 0x1
 2895 0096 13       		.uleb128 0x13
 2896 0097 00       		.byte	0
 2897 0098 00       		.byte	0
 2898 0099 0C       		.uleb128 0xc
 2899 009a 15       		.uleb128 0x15
 2900 009b 01       		.byte	0x1
 2901 009c 27       		.uleb128 0x27
 2902 009d 19       		.uleb128 0x19
 2903 009e 01       		.uleb128 0x1
 2904 009f 13       		.uleb128 0x13
 2905 00a0 00       		.byte	0
 2906 00a1 00       		.byte	0
ARM GAS  /tmp/ccLlgcLW.s 			page 52


 2907 00a2 0D       		.uleb128 0xd
 2908 00a3 05       		.uleb128 0x5
 2909 00a4 00       		.byte	0
 2910 00a5 49       		.uleb128 0x49
 2911 00a6 13       		.uleb128 0x13
 2912 00a7 00       		.byte	0
 2913 00a8 00       		.byte	0
 2914 00a9 0E       		.uleb128 0xe
 2915 00aa 0F       		.uleb128 0xf
 2916 00ab 00       		.byte	0
 2917 00ac 0B       		.uleb128 0xb
 2918 00ad 0B       		.uleb128 0xb
 2919 00ae 00       		.byte	0
 2920 00af 00       		.byte	0
 2921 00b0 0F       		.uleb128 0xf
 2922 00b1 13       		.uleb128 0x13
 2923 00b2 01       		.byte	0x1
 2924 00b3 0B       		.uleb128 0xb
 2925 00b4 0B       		.uleb128 0xb
 2926 00b5 3A       		.uleb128 0x3a
 2927 00b6 0B       		.uleb128 0xb
 2928 00b7 3B       		.uleb128 0x3b
 2929 00b8 0B       		.uleb128 0xb
 2930 00b9 01       		.uleb128 0x1
 2931 00ba 13       		.uleb128 0x13
 2932 00bb 00       		.byte	0
 2933 00bc 00       		.byte	0
 2934 00bd 10       		.uleb128 0x10
 2935 00be 17       		.uleb128 0x17
 2936 00bf 01       		.byte	0x1
 2937 00c0 0B       		.uleb128 0xb
 2938 00c1 0B       		.uleb128 0xb
 2939 00c2 3A       		.uleb128 0x3a
 2940 00c3 0B       		.uleb128 0xb
 2941 00c4 3B       		.uleb128 0x3b
 2942 00c5 0B       		.uleb128 0xb
 2943 00c6 01       		.uleb128 0x1
 2944 00c7 13       		.uleb128 0x13
 2945 00c8 00       		.byte	0
 2946 00c9 00       		.byte	0
 2947 00ca 11       		.uleb128 0x11
 2948 00cb 0D       		.uleb128 0xd
 2949 00cc 00       		.byte	0
 2950 00cd 03       		.uleb128 0x3
 2951 00ce 0E       		.uleb128 0xe
 2952 00cf 3A       		.uleb128 0x3a
 2953 00d0 0B       		.uleb128 0xb
 2954 00d1 3B       		.uleb128 0x3b
 2955 00d2 0B       		.uleb128 0xb
 2956 00d3 49       		.uleb128 0x49
 2957 00d4 13       		.uleb128 0x13
 2958 00d5 00       		.byte	0
 2959 00d6 00       		.byte	0
 2960 00d7 12       		.uleb128 0x12
 2961 00d8 0D       		.uleb128 0xd
 2962 00d9 00       		.byte	0
 2963 00da 03       		.uleb128 0x3
ARM GAS  /tmp/ccLlgcLW.s 			page 53


 2964 00db 0E       		.uleb128 0xe
 2965 00dc 3A       		.uleb128 0x3a
 2966 00dd 0B       		.uleb128 0xb
 2967 00de 3B       		.uleb128 0x3b
 2968 00df 05       		.uleb128 0x5
 2969 00e0 49       		.uleb128 0x49
 2970 00e1 13       		.uleb128 0x13
 2971 00e2 00       		.byte	0
 2972 00e3 00       		.byte	0
 2973 00e4 13       		.uleb128 0x13
 2974 00e5 26       		.uleb128 0x26
 2975 00e6 00       		.byte	0
 2976 00e7 49       		.uleb128 0x49
 2977 00e8 13       		.uleb128 0x13
 2978 00e9 00       		.byte	0
 2979 00ea 00       		.byte	0
 2980 00eb 14       		.uleb128 0x14
 2981 00ec 35       		.uleb128 0x35
 2982 00ed 00       		.byte	0
 2983 00ee 49       		.uleb128 0x49
 2984 00ef 13       		.uleb128 0x13
 2985 00f0 00       		.byte	0
 2986 00f1 00       		.byte	0
 2987 00f2 15       		.uleb128 0x15
 2988 00f3 15       		.uleb128 0x15
 2989 00f4 01       		.byte	0x1
 2990 00f5 27       		.uleb128 0x27
 2991 00f6 19       		.uleb128 0x19
 2992 00f7 49       		.uleb128 0x49
 2993 00f8 13       		.uleb128 0x13
 2994 00f9 01       		.uleb128 0x1
 2995 00fa 13       		.uleb128 0x13
 2996 00fb 00       		.byte	0
 2997 00fc 00       		.byte	0
 2998 00fd 16       		.uleb128 0x16
 2999 00fe 0D       		.uleb128 0xd
 3000 00ff 00       		.byte	0
 3001 0100 03       		.uleb128 0x3
 3002 0101 0E       		.uleb128 0xe
 3003 0102 49       		.uleb128 0x49
 3004 0103 13       		.uleb128 0x13
 3005 0104 38       		.uleb128 0x38
 3006 0105 0B       		.uleb128 0xb
 3007 0106 34       		.uleb128 0x34
 3008 0107 19       		.uleb128 0x19
 3009 0108 00       		.byte	0
 3010 0109 00       		.byte	0
 3011 010a 17       		.uleb128 0x17
 3012 010b 2E       		.uleb128 0x2e
 3013 010c 01       		.byte	0x1
 3014 010d 03       		.uleb128 0x3
 3015 010e 0E       		.uleb128 0xe
 3016 010f 3A       		.uleb128 0x3a
 3017 0110 0B       		.uleb128 0xb
 3018 0111 3B       		.uleb128 0x3b
 3019 0112 0B       		.uleb128 0xb
 3020 0113 27       		.uleb128 0x27
ARM GAS  /tmp/ccLlgcLW.s 			page 54


 3021 0114 19       		.uleb128 0x19
 3022 0115 49       		.uleb128 0x49
 3023 0116 13       		.uleb128 0x13
 3024 0117 11       		.uleb128 0x11
 3025 0118 01       		.uleb128 0x1
 3026 0119 12       		.uleb128 0x12
 3027 011a 06       		.uleb128 0x6
 3028 011b 40       		.uleb128 0x40
 3029 011c 18       		.uleb128 0x18
 3030 011d 9742     		.uleb128 0x2117
 3031 011f 19       		.uleb128 0x19
 3032 0120 01       		.uleb128 0x1
 3033 0121 13       		.uleb128 0x13
 3034 0122 00       		.byte	0
 3035 0123 00       		.byte	0
 3036 0124 18       		.uleb128 0x18
 3037 0125 05       		.uleb128 0x5
 3038 0126 00       		.byte	0
 3039 0127 03       		.uleb128 0x3
 3040 0128 08       		.uleb128 0x8
 3041 0129 3A       		.uleb128 0x3a
 3042 012a 0B       		.uleb128 0xb
 3043 012b 3B       		.uleb128 0x3b
 3044 012c 0B       		.uleb128 0xb
 3045 012d 49       		.uleb128 0x49
 3046 012e 13       		.uleb128 0x13
 3047 012f 02       		.uleb128 0x2
 3048 0130 17       		.uleb128 0x17
 3049 0131 00       		.byte	0
 3050 0132 00       		.byte	0
 3051 0133 19       		.uleb128 0x19
 3052 0134 05       		.uleb128 0x5
 3053 0135 00       		.byte	0
 3054 0136 03       		.uleb128 0x3
 3055 0137 0E       		.uleb128 0xe
 3056 0138 3A       		.uleb128 0x3a
 3057 0139 0B       		.uleb128 0xb
 3058 013a 3B       		.uleb128 0x3b
 3059 013b 0B       		.uleb128 0xb
 3060 013c 49       		.uleb128 0x49
 3061 013d 13       		.uleb128 0x13
 3062 013e 02       		.uleb128 0x2
 3063 013f 17       		.uleb128 0x17
 3064 0140 00       		.byte	0
 3065 0141 00       		.byte	0
 3066 0142 1A       		.uleb128 0x1a
 3067 0143 34       		.uleb128 0x34
 3068 0144 00       		.byte	0
 3069 0145 03       		.uleb128 0x3
 3070 0146 08       		.uleb128 0x8
 3071 0147 3A       		.uleb128 0x3a
 3072 0148 0B       		.uleb128 0xb
 3073 0149 3B       		.uleb128 0x3b
 3074 014a 0B       		.uleb128 0xb
 3075 014b 49       		.uleb128 0x49
 3076 014c 13       		.uleb128 0x13
 3077 014d 02       		.uleb128 0x2
ARM GAS  /tmp/ccLlgcLW.s 			page 55


 3078 014e 17       		.uleb128 0x17
 3079 014f 00       		.byte	0
 3080 0150 00       		.byte	0
 3081 0151 1B       		.uleb128 0x1b
 3082 0152 2E       		.uleb128 0x2e
 3083 0153 01       		.byte	0x1
 3084 0154 03       		.uleb128 0x3
 3085 0155 0E       		.uleb128 0xe
 3086 0156 3A       		.uleb128 0x3a
 3087 0157 0B       		.uleb128 0xb
 3088 0158 3B       		.uleb128 0x3b
 3089 0159 0B       		.uleb128 0xb
 3090 015a 27       		.uleb128 0x27
 3091 015b 19       		.uleb128 0x19
 3092 015c 49       		.uleb128 0x49
 3093 015d 13       		.uleb128 0x13
 3094 015e 20       		.uleb128 0x20
 3095 015f 0B       		.uleb128 0xb
 3096 0160 01       		.uleb128 0x1
 3097 0161 13       		.uleb128 0x13
 3098 0162 00       		.byte	0
 3099 0163 00       		.byte	0
 3100 0164 1C       		.uleb128 0x1c
 3101 0165 05       		.uleb128 0x5
 3102 0166 00       		.byte	0
 3103 0167 03       		.uleb128 0x3
 3104 0168 08       		.uleb128 0x8
 3105 0169 3A       		.uleb128 0x3a
 3106 016a 0B       		.uleb128 0xb
 3107 016b 3B       		.uleb128 0x3b
 3108 016c 0B       		.uleb128 0xb
 3109 016d 49       		.uleb128 0x49
 3110 016e 13       		.uleb128 0x13
 3111 016f 00       		.byte	0
 3112 0170 00       		.byte	0
 3113 0171 1D       		.uleb128 0x1d
 3114 0172 05       		.uleb128 0x5
 3115 0173 00       		.byte	0
 3116 0174 03       		.uleb128 0x3
 3117 0175 0E       		.uleb128 0xe
 3118 0176 3A       		.uleb128 0x3a
 3119 0177 0B       		.uleb128 0xb
 3120 0178 3B       		.uleb128 0x3b
 3121 0179 0B       		.uleb128 0xb
 3122 017a 49       		.uleb128 0x49
 3123 017b 13       		.uleb128 0x13
 3124 017c 00       		.byte	0
 3125 017d 00       		.byte	0
 3126 017e 1E       		.uleb128 0x1e
 3127 017f 34       		.uleb128 0x34
 3128 0180 00       		.byte	0
 3129 0181 03       		.uleb128 0x3
 3130 0182 08       		.uleb128 0x8
 3131 0183 3A       		.uleb128 0x3a
 3132 0184 0B       		.uleb128 0xb
 3133 0185 3B       		.uleb128 0x3b
 3134 0186 0B       		.uleb128 0xb
ARM GAS  /tmp/ccLlgcLW.s 			page 56


 3135 0187 49       		.uleb128 0x49
 3136 0188 13       		.uleb128 0x13
 3137 0189 00       		.byte	0
 3138 018a 00       		.byte	0
 3139 018b 1F       		.uleb128 0x1f
 3140 018c 2E       		.uleb128 0x2e
 3141 018d 01       		.byte	0x1
 3142 018e 3F       		.uleb128 0x3f
 3143 018f 19       		.uleb128 0x19
 3144 0190 03       		.uleb128 0x3
 3145 0191 0E       		.uleb128 0xe
 3146 0192 3A       		.uleb128 0x3a
 3147 0193 0B       		.uleb128 0xb
 3148 0194 3B       		.uleb128 0x3b
 3149 0195 0B       		.uleb128 0xb
 3150 0196 27       		.uleb128 0x27
 3151 0197 19       		.uleb128 0x19
 3152 0198 49       		.uleb128 0x49
 3153 0199 13       		.uleb128 0x13
 3154 019a 11       		.uleb128 0x11
 3155 019b 01       		.uleb128 0x1
 3156 019c 12       		.uleb128 0x12
 3157 019d 06       		.uleb128 0x6
 3158 019e 40       		.uleb128 0x40
 3159 019f 18       		.uleb128 0x18
 3160 01a0 9642     		.uleb128 0x2116
 3161 01a2 19       		.uleb128 0x19
 3162 01a3 01       		.uleb128 0x1
 3163 01a4 13       		.uleb128 0x13
 3164 01a5 00       		.byte	0
 3165 01a6 00       		.byte	0
 3166 01a7 20       		.uleb128 0x20
 3167 01a8 34       		.uleb128 0x34
 3168 01a9 00       		.byte	0
 3169 01aa 03       		.uleb128 0x3
 3170 01ab 0E       		.uleb128 0xe
 3171 01ac 3A       		.uleb128 0x3a
 3172 01ad 0B       		.uleb128 0xb
 3173 01ae 3B       		.uleb128 0x3b
 3174 01af 0B       		.uleb128 0xb
 3175 01b0 49       		.uleb128 0x49
 3176 01b1 13       		.uleb128 0x13
 3177 01b2 02       		.uleb128 0x2
 3178 01b3 17       		.uleb128 0x17
 3179 01b4 00       		.byte	0
 3180 01b5 00       		.byte	0
 3181 01b6 21       		.uleb128 0x21
 3182 01b7 34       		.uleb128 0x34
 3183 01b8 00       		.byte	0
 3184 01b9 03       		.uleb128 0x3
 3185 01ba 0E       		.uleb128 0xe
 3186 01bb 3A       		.uleb128 0x3a
 3187 01bc 0B       		.uleb128 0xb
 3188 01bd 3B       		.uleb128 0x3b
 3189 01be 0B       		.uleb128 0xb
 3190 01bf 49       		.uleb128 0x49
 3191 01c0 13       		.uleb128 0x13
ARM GAS  /tmp/ccLlgcLW.s 			page 57


 3192 01c1 02       		.uleb128 0x2
 3193 01c2 18       		.uleb128 0x18
 3194 01c3 00       		.byte	0
 3195 01c4 00       		.byte	0
 3196 01c5 22       		.uleb128 0x22
 3197 01c6 0A       		.uleb128 0xa
 3198 01c7 00       		.byte	0
 3199 01c8 03       		.uleb128 0x3
 3200 01c9 0E       		.uleb128 0xe
 3201 01ca 3A       		.uleb128 0x3a
 3202 01cb 0B       		.uleb128 0xb
 3203 01cc 3B       		.uleb128 0x3b
 3204 01cd 0B       		.uleb128 0xb
 3205 01ce 11       		.uleb128 0x11
 3206 01cf 01       		.uleb128 0x1
 3207 01d0 00       		.byte	0
 3208 01d1 00       		.byte	0
 3209 01d2 23       		.uleb128 0x23
 3210 01d3 1D       		.uleb128 0x1d
 3211 01d4 01       		.byte	0x1
 3212 01d5 31       		.uleb128 0x31
 3213 01d6 13       		.uleb128 0x13
 3214 01d7 11       		.uleb128 0x11
 3215 01d8 01       		.uleb128 0x1
 3216 01d9 12       		.uleb128 0x12
 3217 01da 06       		.uleb128 0x6
 3218 01db 58       		.uleb128 0x58
 3219 01dc 0B       		.uleb128 0xb
 3220 01dd 59       		.uleb128 0x59
 3221 01de 0B       		.uleb128 0xb
 3222 01df 01       		.uleb128 0x1
 3223 01e0 13       		.uleb128 0x13
 3224 01e1 00       		.byte	0
 3225 01e2 00       		.byte	0
 3226 01e3 24       		.uleb128 0x24
 3227 01e4 05       		.uleb128 0x5
 3228 01e5 00       		.byte	0
 3229 01e6 31       		.uleb128 0x31
 3230 01e7 13       		.uleb128 0x13
 3231 01e8 02       		.uleb128 0x2
 3232 01e9 17       		.uleb128 0x17
 3233 01ea 00       		.byte	0
 3234 01eb 00       		.byte	0
 3235 01ec 25       		.uleb128 0x25
 3236 01ed 898201   		.uleb128 0x4109
 3237 01f0 00       		.byte	0
 3238 01f1 11       		.uleb128 0x11
 3239 01f2 01       		.uleb128 0x1
 3240 01f3 31       		.uleb128 0x31
 3241 01f4 13       		.uleb128 0x13
 3242 01f5 00       		.byte	0
 3243 01f6 00       		.byte	0
 3244 01f7 26       		.uleb128 0x26
 3245 01f8 1D       		.uleb128 0x1d
 3246 01f9 01       		.byte	0x1
 3247 01fa 31       		.uleb128 0x31
 3248 01fb 13       		.uleb128 0x13
ARM GAS  /tmp/ccLlgcLW.s 			page 58


 3249 01fc 52       		.uleb128 0x52
 3250 01fd 01       		.uleb128 0x1
 3251 01fe 55       		.uleb128 0x55
 3252 01ff 17       		.uleb128 0x17
 3253 0200 58       		.uleb128 0x58
 3254 0201 0B       		.uleb128 0xb
 3255 0202 59       		.uleb128 0x59
 3256 0203 0B       		.uleb128 0xb
 3257 0204 01       		.uleb128 0x1
 3258 0205 13       		.uleb128 0x13
 3259 0206 00       		.byte	0
 3260 0207 00       		.byte	0
 3261 0208 27       		.uleb128 0x27
 3262 0209 0B       		.uleb128 0xb
 3263 020a 01       		.byte	0x1
 3264 020b 55       		.uleb128 0x55
 3265 020c 17       		.uleb128 0x17
 3266 020d 00       		.byte	0
 3267 020e 00       		.byte	0
 3268 020f 28       		.uleb128 0x28
 3269 0210 34       		.uleb128 0x34
 3270 0211 00       		.byte	0
 3271 0212 31       		.uleb128 0x31
 3272 0213 13       		.uleb128 0x13
 3273 0214 02       		.uleb128 0x2
 3274 0215 17       		.uleb128 0x17
 3275 0216 00       		.byte	0
 3276 0217 00       		.byte	0
 3277 0218 29       		.uleb128 0x29
 3278 0219 898201   		.uleb128 0x4109
 3279 021c 01       		.byte	0x1
 3280 021d 11       		.uleb128 0x11
 3281 021e 01       		.uleb128 0x1
 3282 021f 31       		.uleb128 0x31
 3283 0220 13       		.uleb128 0x13
 3284 0221 00       		.byte	0
 3285 0222 00       		.byte	0
 3286 0223 2A       		.uleb128 0x2a
 3287 0224 8A8201   		.uleb128 0x410a
 3288 0227 00       		.byte	0
 3289 0228 02       		.uleb128 0x2
 3290 0229 18       		.uleb128 0x18
 3291 022a 9142     		.uleb128 0x2111
 3292 022c 18       		.uleb128 0x18
 3293 022d 00       		.byte	0
 3294 022e 00       		.byte	0
 3295 022f 2B       		.uleb128 0x2b
 3296 0230 898201   		.uleb128 0x4109
 3297 0233 01       		.byte	0x1
 3298 0234 11       		.uleb128 0x11
 3299 0235 01       		.uleb128 0x1
 3300 0236 01       		.uleb128 0x1
 3301 0237 13       		.uleb128 0x13
 3302 0238 00       		.byte	0
 3303 0239 00       		.byte	0
 3304 023a 2C       		.uleb128 0x2c
 3305 023b 898201   		.uleb128 0x4109
ARM GAS  /tmp/ccLlgcLW.s 			page 59


 3306 023e 01       		.byte	0x1
 3307 023f 11       		.uleb128 0x11
 3308 0240 01       		.uleb128 0x1
 3309 0241 00       		.byte	0
 3310 0242 00       		.byte	0
 3311 0243 2D       		.uleb128 0x2d
 3312 0244 01       		.uleb128 0x1
 3313 0245 01       		.byte	0x1
 3314 0246 49       		.uleb128 0x49
 3315 0247 13       		.uleb128 0x13
 3316 0248 01       		.uleb128 0x1
 3317 0249 13       		.uleb128 0x13
 3318 024a 00       		.byte	0
 3319 024b 00       		.byte	0
 3320 024c 2E       		.uleb128 0x2e
 3321 024d 21       		.uleb128 0x21
 3322 024e 00       		.byte	0
 3323 024f 49       		.uleb128 0x49
 3324 0250 13       		.uleb128 0x13
 3325 0251 2F       		.uleb128 0x2f
 3326 0252 0B       		.uleb128 0xb
 3327 0253 00       		.byte	0
 3328 0254 00       		.byte	0
 3329 0255 2F       		.uleb128 0x2f
 3330 0256 2E       		.uleb128 0x2e
 3331 0257 01       		.byte	0x1
 3332 0258 3F       		.uleb128 0x3f
 3333 0259 19       		.uleb128 0x19
 3334 025a 03       		.uleb128 0x3
 3335 025b 0E       		.uleb128 0xe
 3336 025c 3A       		.uleb128 0x3a
 3337 025d 0B       		.uleb128 0xb
 3338 025e 3B       		.uleb128 0x3b
 3339 025f 05       		.uleb128 0x5
 3340 0260 27       		.uleb128 0x27
 3341 0261 19       		.uleb128 0x19
 3342 0262 49       		.uleb128 0x49
 3343 0263 13       		.uleb128 0x13
 3344 0264 11       		.uleb128 0x11
 3345 0265 01       		.uleb128 0x1
 3346 0266 12       		.uleb128 0x12
 3347 0267 06       		.uleb128 0x6
 3348 0268 40       		.uleb128 0x40
 3349 0269 18       		.uleb128 0x18
 3350 026a 9742     		.uleb128 0x2117
 3351 026c 19       		.uleb128 0x19
 3352 026d 01       		.uleb128 0x1
 3353 026e 13       		.uleb128 0x13
 3354 026f 00       		.byte	0
 3355 0270 00       		.byte	0
 3356 0271 30       		.uleb128 0x30
 3357 0272 05       		.uleb128 0x5
 3358 0273 00       		.byte	0
 3359 0274 03       		.uleb128 0x3
 3360 0275 08       		.uleb128 0x8
 3361 0276 3A       		.uleb128 0x3a
 3362 0277 0B       		.uleb128 0xb
ARM GAS  /tmp/ccLlgcLW.s 			page 60


 3363 0278 3B       		.uleb128 0x3b
 3364 0279 05       		.uleb128 0x5
 3365 027a 49       		.uleb128 0x49
 3366 027b 13       		.uleb128 0x13
 3367 027c 02       		.uleb128 0x2
 3368 027d 17       		.uleb128 0x17
 3369 027e 00       		.byte	0
 3370 027f 00       		.byte	0
 3371 0280 31       		.uleb128 0x31
 3372 0281 05       		.uleb128 0x5
 3373 0282 00       		.byte	0
 3374 0283 03       		.uleb128 0x3
 3375 0284 08       		.uleb128 0x8
 3376 0285 3A       		.uleb128 0x3a
 3377 0286 0B       		.uleb128 0xb
 3378 0287 3B       		.uleb128 0x3b
 3379 0288 05       		.uleb128 0x5
 3380 0289 49       		.uleb128 0x49
 3381 028a 13       		.uleb128 0x13
 3382 028b 02       		.uleb128 0x2
 3383 028c 18       		.uleb128 0x18
 3384 028d 00       		.byte	0
 3385 028e 00       		.byte	0
 3386 028f 32       		.uleb128 0x32
 3387 0290 18       		.uleb128 0x18
 3388 0291 00       		.byte	0
 3389 0292 00       		.byte	0
 3390 0293 00       		.byte	0
 3391 0294 33       		.uleb128 0x33
 3392 0295 34       		.uleb128 0x34
 3393 0296 00       		.byte	0
 3394 0297 03       		.uleb128 0x3
 3395 0298 08       		.uleb128 0x8
 3396 0299 3A       		.uleb128 0x3a
 3397 029a 0B       		.uleb128 0xb
 3398 029b 3B       		.uleb128 0x3b
 3399 029c 05       		.uleb128 0x5
 3400 029d 49       		.uleb128 0x49
 3401 029e 13       		.uleb128 0x13
 3402 029f 02       		.uleb128 0x2
 3403 02a0 18       		.uleb128 0x18
 3404 02a1 00       		.byte	0
 3405 02a2 00       		.byte	0
 3406 02a3 34       		.uleb128 0x34
 3407 02a4 34       		.uleb128 0x34
 3408 02a5 00       		.byte	0
 3409 02a6 03       		.uleb128 0x3
 3410 02a7 0E       		.uleb128 0xe
 3411 02a8 3A       		.uleb128 0x3a
 3412 02a9 0B       		.uleb128 0xb
 3413 02aa 3B       		.uleb128 0x3b
 3414 02ab 05       		.uleb128 0x5
 3415 02ac 49       		.uleb128 0x49
 3416 02ad 13       		.uleb128 0x13
 3417 02ae 02       		.uleb128 0x2
 3418 02af 18       		.uleb128 0x18
 3419 02b0 00       		.byte	0
ARM GAS  /tmp/ccLlgcLW.s 			page 61


 3420 02b1 00       		.byte	0
 3421 02b2 35       		.uleb128 0x35
 3422 02b3 05       		.uleb128 0x5
 3423 02b4 00       		.byte	0
 3424 02b5 03       		.uleb128 0x3
 3425 02b6 0E       		.uleb128 0xe
 3426 02b7 3A       		.uleb128 0x3a
 3427 02b8 0B       		.uleb128 0xb
 3428 02b9 3B       		.uleb128 0x3b
 3429 02ba 05       		.uleb128 0x5
 3430 02bb 49       		.uleb128 0x49
 3431 02bc 13       		.uleb128 0x13
 3432 02bd 02       		.uleb128 0x2
 3433 02be 17       		.uleb128 0x17
 3434 02bf 00       		.byte	0
 3435 02c0 00       		.byte	0
 3436 02c1 36       		.uleb128 0x36
 3437 02c2 34       		.uleb128 0x34
 3438 02c3 00       		.byte	0
 3439 02c4 03       		.uleb128 0x3
 3440 02c5 08       		.uleb128 0x8
 3441 02c6 3A       		.uleb128 0x3a
 3442 02c7 0B       		.uleb128 0xb
 3443 02c8 3B       		.uleb128 0x3b
 3444 02c9 05       		.uleb128 0x5
 3445 02ca 49       		.uleb128 0x49
 3446 02cb 13       		.uleb128 0x13
 3447 02cc 02       		.uleb128 0x2
 3448 02cd 17       		.uleb128 0x17
 3449 02ce 00       		.byte	0
 3450 02cf 00       		.byte	0
 3451 02d0 37       		.uleb128 0x37
 3452 02d1 34       		.uleb128 0x34
 3453 02d2 00       		.byte	0
 3454 02d3 03       		.uleb128 0x3
 3455 02d4 0E       		.uleb128 0xe
 3456 02d5 3A       		.uleb128 0x3a
 3457 02d6 0B       		.uleb128 0xb
 3458 02d7 3B       		.uleb128 0x3b
 3459 02d8 05       		.uleb128 0x5
 3460 02d9 49       		.uleb128 0x49
 3461 02da 13       		.uleb128 0x13
 3462 02db 02       		.uleb128 0x2
 3463 02dc 17       		.uleb128 0x17
 3464 02dd 00       		.byte	0
 3465 02de 00       		.byte	0
 3466 02df 38       		.uleb128 0x38
 3467 02e0 898201   		.uleb128 0x4109
 3468 02e3 01       		.byte	0x1
 3469 02e4 11       		.uleb128 0x11
 3470 02e5 01       		.uleb128 0x1
 3471 02e6 31       		.uleb128 0x31
 3472 02e7 13       		.uleb128 0x13
 3473 02e8 01       		.uleb128 0x1
 3474 02e9 13       		.uleb128 0x13
 3475 02ea 00       		.byte	0
 3476 02eb 00       		.byte	0
ARM GAS  /tmp/ccLlgcLW.s 			page 62


 3477 02ec 39       		.uleb128 0x39
 3478 02ed 34       		.uleb128 0x34
 3479 02ee 00       		.byte	0
 3480 02ef 03       		.uleb128 0x3
 3481 02f0 0E       		.uleb128 0xe
 3482 02f1 3A       		.uleb128 0x3a
 3483 02f2 0B       		.uleb128 0xb
 3484 02f3 3B       		.uleb128 0x3b
 3485 02f4 05       		.uleb128 0x5
 3486 02f5 49       		.uleb128 0x49
 3487 02f6 13       		.uleb128 0x13
 3488 02f7 3F       		.uleb128 0x3f
 3489 02f8 19       		.uleb128 0x19
 3490 02f9 3C       		.uleb128 0x3c
 3491 02fa 19       		.uleb128 0x19
 3492 02fb 00       		.byte	0
 3493 02fc 00       		.byte	0
 3494 02fd 3A       		.uleb128 0x3a
 3495 02fe 34       		.uleb128 0x34
 3496 02ff 00       		.byte	0
 3497 0300 03       		.uleb128 0x3
 3498 0301 08       		.uleb128 0x8
 3499 0302 3A       		.uleb128 0x3a
 3500 0303 0B       		.uleb128 0xb
 3501 0304 3B       		.uleb128 0x3b
 3502 0305 05       		.uleb128 0x5
 3503 0306 49       		.uleb128 0x49
 3504 0307 13       		.uleb128 0x13
 3505 0308 3F       		.uleb128 0x3f
 3506 0309 19       		.uleb128 0x19
 3507 030a 3C       		.uleb128 0x3c
 3508 030b 19       		.uleb128 0x19
 3509 030c 00       		.byte	0
 3510 030d 00       		.byte	0
 3511 030e 3B       		.uleb128 0x3b
 3512 030f 2E       		.uleb128 0x2e
 3513 0310 01       		.byte	0x1
 3514 0311 3F       		.uleb128 0x3f
 3515 0312 19       		.uleb128 0x19
 3516 0313 03       		.uleb128 0x3
 3517 0314 0E       		.uleb128 0xe
 3518 0315 3A       		.uleb128 0x3a
 3519 0316 0B       		.uleb128 0xb
 3520 0317 3B       		.uleb128 0x3b
 3521 0318 0B       		.uleb128 0xb
 3522 0319 27       		.uleb128 0x27
 3523 031a 19       		.uleb128 0x19
 3524 031b 3C       		.uleb128 0x3c
 3525 031c 19       		.uleb128 0x19
 3526 031d 01       		.uleb128 0x1
 3527 031e 13       		.uleb128 0x13
 3528 031f 00       		.byte	0
 3529 0320 00       		.byte	0
 3530 0321 00       		.byte	0
 3531              		.section	.debug_loc,"",%progbits
 3532              	.Ldebug_loc0:
 3533              	.LLST0:
ARM GAS  /tmp/ccLlgcLW.s 			page 63


 3534 0000 00000000 		.4byte	.LVL0
 3535 0004 34000000 		.4byte	.LVL11
 3536 0008 0100     		.2byte	0x1
 3537 000a 50       		.byte	0x50
 3538 000b 00000000 		.4byte	0
 3539 000f 00000000 		.4byte	0
 3540              	.LLST1:
 3541 0013 00000000 		.4byte	.LVL0
 3542 0017 0E000000 		.4byte	.LVL2
 3543 001b 0100     		.2byte	0x1
 3544 001d 51       		.byte	0x51
 3545 001e 0E000000 		.4byte	.LVL2
 3546 0022 44000000 		.4byte	.LFE323
 3547 0026 0400     		.2byte	0x4
 3548 0028 F3       		.byte	0xf3
 3549 0029 01       		.uleb128 0x1
 3550 002a 51       		.byte	0x51
 3551 002b 9F       		.byte	0x9f
 3552 002c 00000000 		.4byte	0
 3553 0030 00000000 		.4byte	0
 3554              	.LLST2:
 3555 0034 00000000 		.4byte	.LVL0
 3556 0038 34000000 		.4byte	.LVL11
 3557 003c 0100     		.2byte	0x1
 3558 003e 52       		.byte	0x52
 3559 003f 34000000 		.4byte	.LVL11
 3560 0043 44000000 		.4byte	.LFE323
 3561 0047 0400     		.2byte	0x4
 3562 0049 F3       		.byte	0xf3
 3563 004a 01       		.uleb128 0x1
 3564 004b 52       		.byte	0x52
 3565 004c 9F       		.byte	0x9f
 3566 004d 00000000 		.4byte	0
 3567 0051 00000000 		.4byte	0
 3568              	.LLST3:
 3569 0055 00000000 		.4byte	.LVL0
 3570 0059 0C000000 		.4byte	.LVL1
 3571 005d 0100     		.2byte	0x1
 3572 005f 53       		.byte	0x53
 3573 0060 0C000000 		.4byte	.LVL1
 3574 0064 44000000 		.4byte	.LFE323
 3575 0068 0400     		.2byte	0x4
 3576 006a F3       		.byte	0xf3
 3577 006b 01       		.uleb128 0x1
 3578 006c 53       		.byte	0x53
 3579 006d 9F       		.byte	0x9f
 3580 006e 00000000 		.4byte	0
 3581 0072 00000000 		.4byte	0
 3582              	.LLST4:
 3583 0076 16000000 		.4byte	.LVL3
 3584 007a 1A000000 		.4byte	.LVL4
 3585 007e 0100     		.2byte	0x1
 3586 0080 51       		.byte	0x51
 3587 0081 1A000000 		.4byte	.LVL4
 3588 0085 30000000 		.4byte	.LVL9
 3589 0089 0100     		.2byte	0x1
 3590 008b 56       		.byte	0x56
ARM GAS  /tmp/ccLlgcLW.s 			page 64


 3591 008c 30000000 		.4byte	.LVL9
 3592 0090 34000000 		.4byte	.LVL11
 3593 0094 0600     		.2byte	0x6
 3594 0096 75       		.byte	0x75
 3595 0097 00       		.sleb128 0
 3596 0098 74       		.byte	0x74
 3597 0099 00       		.sleb128 0
 3598 009a 1C       		.byte	0x1c
 3599 009b 9F       		.byte	0x9f
 3600 009c 00000000 		.4byte	0
 3601 00a0 00000000 		.4byte	0
 3602              	.LLST5:
 3603 00a4 0C000000 		.4byte	.LVL1
 3604 00a8 0E000000 		.4byte	.LVL2
 3605 00ac 0100     		.2byte	0x1
 3606 00ae 55       		.byte	0x55
 3607 00af 0E000000 		.4byte	.LVL2
 3608 00b3 26000000 		.4byte	.LVL6
 3609 00b7 0100     		.2byte	0x1
 3610 00b9 54       		.byte	0x54
 3611 00ba 26000000 		.4byte	.LVL6
 3612 00be 34000000 		.4byte	.LVL11
 3613 00c2 0300     		.2byte	0x3
 3614 00c4 74       		.byte	0x74
 3615 00c5 01       		.sleb128 1
 3616 00c6 9F       		.byte	0x9f
 3617 00c7 34000000 		.4byte	.LVL11
 3618 00cb 38000000 		.4byte	.LVL12
 3619 00cf 0100     		.2byte	0x1
 3620 00d1 54       		.byte	0x54
 3621 00d2 38000000 		.4byte	.LVL12
 3622 00d6 44000000 		.4byte	.LFE323
 3623 00da 0300     		.2byte	0x3
 3624 00dc 74       		.byte	0x74
 3625 00dd 7F       		.sleb128 -1
 3626 00de 9F       		.byte	0x9f
 3627 00df 00000000 		.4byte	0
 3628 00e3 00000000 		.4byte	0
 3629              	.LLST6:
 3630 00e7 00000000 		.4byte	.LVL0
 3631 00eb 16000000 		.4byte	.LVL3
 3632 00ef 0100     		.2byte	0x1
 3633 00f1 51       		.byte	0x51
 3634 00f2 2C000000 		.4byte	.LVL8
 3635 00f6 34000000 		.4byte	.LVL11
 3636 00fa 0100     		.2byte	0x1
 3637 00fc 51       		.byte	0x51
 3638 00fd 34000000 		.4byte	.LVL11
 3639 0101 44000000 		.4byte	.LFE323
 3640 0105 0100     		.2byte	0x1
 3641 0107 57       		.byte	0x57
 3642 0108 00000000 		.4byte	0
 3643 010c 00000000 		.4byte	0
 3644              	.LLST7:
 3645 0110 0C000000 		.4byte	.LVL1
 3646 0114 2A000000 		.4byte	.LVL7
 3647 0118 0100     		.2byte	0x1
ARM GAS  /tmp/ccLlgcLW.s 			page 65


 3648 011a 53       		.byte	0x53
 3649 011b 2C000000 		.4byte	.LVL8
 3650 011f 32000000 		.4byte	.LVL10
 3651 0123 0100     		.2byte	0x1
 3652 0125 53       		.byte	0x53
 3653 0126 00000000 		.4byte	0
 3654 012a 00000000 		.4byte	0
 3655              	.LLST8:
 3656 012e 00000000 		.4byte	.LVL13
 3657 0132 12000000 		.4byte	.LVL15
 3658 0136 0100     		.2byte	0x1
 3659 0138 50       		.byte	0x50
 3660 0139 12000000 		.4byte	.LVL15
 3661 013d CE020000 		.4byte	.LVL108
 3662 0141 0100     		.2byte	0x1
 3663 0143 56       		.byte	0x56
 3664 0144 CE020000 		.4byte	.LVL108
 3665 0148 D8020000 		.4byte	.LFE326
 3666 014c 0400     		.2byte	0x4
 3667 014e F3       		.byte	0xf3
 3668 014f 01       		.uleb128 0x1
 3669 0150 50       		.byte	0x50
 3670 0151 9F       		.byte	0x9f
 3671 0152 00000000 		.4byte	0
 3672 0156 00000000 		.4byte	0
 3673              	.LLST9:
 3674 015a 00000000 		.4byte	.LVL13
 3675 015e 12000000 		.4byte	.LVL15
 3676 0162 0100     		.2byte	0x1
 3677 0164 51       		.byte	0x51
 3678 0165 12000000 		.4byte	.LVL15
 3679 0169 16000000 		.4byte	.LVL16
 3680 016d 0100     		.2byte	0x1
 3681 016f 53       		.byte	0x53
 3682 0170 16000000 		.4byte	.LVL16
 3683 0174 4A000000 		.4byte	.LVL25
 3684 0178 0100     		.2byte	0x1
 3685 017a 54       		.byte	0x54
 3686 017b 4C000000 		.4byte	.LVL26
 3687 017f 50000000 		.4byte	.LVL27
 3688 0183 0100     		.2byte	0x1
 3689 0185 54       		.byte	0x54
 3690 0186 50000000 		.4byte	.LVL27
 3691 018a 78000000 		.4byte	.LVL31
 3692 018e 0300     		.2byte	0x3
 3693 0190 74       		.byte	0x74
 3694 0191 7F       		.sleb128 -1
 3695 0192 9F       		.byte	0x9f
 3696 0193 78000000 		.4byte	.LVL31
 3697 0197 7C000000 		.4byte	.LVL32
 3698 019b 0100     		.2byte	0x1
 3699 019d 54       		.byte	0x54
 3700 019e 7C000000 		.4byte	.LVL32
 3701 01a2 9A000000 		.4byte	.LVL36
 3702 01a6 0300     		.2byte	0x3
 3703 01a8 74       		.byte	0x74
 3704 01a9 7F       		.sleb128 -1
ARM GAS  /tmp/ccLlgcLW.s 			page 66


 3705 01aa 9F       		.byte	0x9f
 3706 01ab 9A000000 		.4byte	.LVL36
 3707 01af CE020000 		.4byte	.LVL108
 3708 01b3 0100     		.2byte	0x1
 3709 01b5 54       		.byte	0x54
 3710 01b6 CE020000 		.4byte	.LVL108
 3711 01ba D8020000 		.4byte	.LFE326
 3712 01be 0300     		.2byte	0x3
 3713 01c0 73       		.byte	0x73
 3714 01c1 01       		.sleb128 1
 3715 01c2 9F       		.byte	0x9f
 3716 01c3 00000000 		.4byte	0
 3717 01c7 00000000 		.4byte	0
 3718              	.LLST10:
 3719 01cb 00000000 		.4byte	.LVL13
 3720 01cf 27000000 		.4byte	.LVL17-1
 3721 01d3 0100     		.2byte	0x1
 3722 01d5 52       		.byte	0x52
 3723 01d6 2E000000 		.4byte	.LVL19
 3724 01da 30000000 		.4byte	.LVL20
 3725 01de 0100     		.2byte	0x1
 3726 01e0 52       		.byte	0x52
 3727 01e1 C2020000 		.4byte	.LVL107
 3728 01e5 D8020000 		.4byte	.LFE326
 3729 01e9 0100     		.2byte	0x1
 3730 01eb 52       		.byte	0x52
 3731 01ec 00000000 		.4byte	0
 3732 01f0 00000000 		.4byte	0
 3733              	.LLST11:
 3734 01f4 2E000000 		.4byte	.LVL19
 3735 01f8 BC000000 		.4byte	.LVL41
 3736 01fc 0400     		.2byte	0x4
 3737 01fe 91       		.byte	0x91
 3738 01ff B87F     		.sleb128 -72
 3739 0201 9F       		.byte	0x9f
 3740 0202 BC000000 		.4byte	.LVL41
 3741 0206 CA000000 		.4byte	.LVL43
 3742 020a 0400     		.2byte	0x4
 3743 020c 91       		.byte	0x91
 3744 020d B97F     		.sleb128 -71
 3745 020f 9F       		.byte	0x9f
 3746 0210 CA000000 		.4byte	.LVL43
 3747 0214 CE000000 		.4byte	.LVL44
 3748 0218 0100     		.2byte	0x1
 3749 021a 50       		.byte	0x50
 3750 021b CE000000 		.4byte	.LVL44
 3751 021f DE000000 		.4byte	.LVL48
 3752 0223 0400     		.2byte	0x4
 3753 0225 91       		.byte	0x91
 3754 0226 B87F     		.sleb128 -72
 3755 0228 9F       		.byte	0x9f
 3756 0229 DE000000 		.4byte	.LVL48
 3757 022d E0000000 		.4byte	.LVL49
 3758 0231 0100     		.2byte	0x1
 3759 0233 50       		.byte	0x50
 3760 0234 EA000000 		.4byte	.LVL52
 3761 0238 FA000000 		.4byte	.LVL53
ARM GAS  /tmp/ccLlgcLW.s 			page 67


 3762 023c 0400     		.2byte	0x4
 3763 023e 91       		.byte	0x91
 3764 023f B87F     		.sleb128 -72
 3765 0241 9F       		.byte	0x9f
 3766 0242 FA000000 		.4byte	.LVL53
 3767 0246 10010000 		.4byte	.LVL56
 3768 024a 0400     		.2byte	0x4
 3769 024c 91       		.byte	0x91
 3770 024d B97F     		.sleb128 -71
 3771 024f 9F       		.byte	0x9f
 3772 0250 10010000 		.4byte	.LVL56
 3773 0254 3C010000 		.4byte	.LVL61
 3774 0258 0100     		.2byte	0x1
 3775 025a 50       		.byte	0x50
 3776 025b A2010000 		.4byte	.LVL80
 3777 025f C8010000 		.4byte	.LVL85
 3778 0263 0400     		.2byte	0x4
 3779 0265 91       		.byte	0x91
 3780 0266 B87F     		.sleb128 -72
 3781 0268 9F       		.byte	0x9f
 3782 0269 C8010000 		.4byte	.LVL85
 3783 026d D4010000 		.4byte	.LVL86
 3784 0271 0400     		.2byte	0x4
 3785 0273 91       		.byte	0x91
 3786 0274 B97F     		.sleb128 -71
 3787 0276 9F       		.byte	0x9f
 3788 0277 D4010000 		.4byte	.LVL86
 3789 027b 40020000 		.4byte	.LVL89
 3790 027f 0400     		.2byte	0x4
 3791 0281 91       		.byte	0x91
 3792 0282 B87F     		.sleb128 -72
 3793 0284 9F       		.byte	0x9f
 3794 0285 40020000 		.4byte	.LVL89
 3795 0289 46020000 		.4byte	.LVL91
 3796 028d 0100     		.2byte	0x1
 3797 028f 53       		.byte	0x53
 3798 0290 46020000 		.4byte	.LVL91
 3799 0294 49020000 		.4byte	.LVL92-1
 3800 0298 0100     		.2byte	0x1
 3801 029a 50       		.byte	0x50
 3802 029b 49020000 		.4byte	.LVL92-1
 3803 029f 8C020000 		.4byte	.LVL101
 3804 02a3 0300     		.2byte	0x3
 3805 02a5 91       		.byte	0x91
 3806 02a6 B47F     		.sleb128 -76
 3807 02a8 8C020000 		.4byte	.LVL101
 3808 02ac B2020000 		.4byte	.LVL105
 3809 02b0 0400     		.2byte	0x4
 3810 02b2 91       		.byte	0x91
 3811 02b3 B87F     		.sleb128 -72
 3812 02b5 9F       		.byte	0x9f
 3813 02b6 B2020000 		.4byte	.LVL105
 3814 02ba C2020000 		.4byte	.LVL107
 3815 02be 0100     		.2byte	0x1
 3816 02c0 50       		.byte	0x50
 3817 02c1 00000000 		.4byte	0
 3818 02c5 00000000 		.4byte	0
ARM GAS  /tmp/ccLlgcLW.s 			page 68


 3819              	.LLST12:
 3820 02c9 2E000000 		.4byte	.LVL19
 3821 02cd E8000000 		.4byte	.LVL51
 3822 02d1 0400     		.2byte	0x4
 3823 02d3 91       		.byte	0x91
 3824 02d4 B87F     		.sleb128 -72
 3825 02d6 9F       		.byte	0x9f
 3826 02d7 E8000000 		.4byte	.LVL51
 3827 02db EA000000 		.4byte	.LVL52
 3828 02df 0100     		.2byte	0x1
 3829 02e1 5B       		.byte	0x5b
 3830 02e2 EA000000 		.4byte	.LVL52
 3831 02e6 10010000 		.4byte	.LVL56
 3832 02ea 0400     		.2byte	0x4
 3833 02ec 91       		.byte	0x91
 3834 02ed B87F     		.sleb128 -72
 3835 02ef 9F       		.byte	0x9f
 3836 02f0 10010000 		.4byte	.LVL56
 3837 02f4 4C010000 		.4byte	.LVL66
 3838 02f8 0100     		.2byte	0x1
 3839 02fa 5B       		.byte	0x5b
 3840 02fb 66010000 		.4byte	.LVL71
 3841 02ff 70010000 		.4byte	.LVL73
 3842 0303 0100     		.2byte	0x1
 3843 0305 5B       		.byte	0x5b
 3844 0306 70010000 		.4byte	.LVL73
 3845 030a 74010000 		.4byte	.LVL74
 3846 030e 0300     		.2byte	0x3
 3847 0310 7B       		.byte	0x7b
 3848 0311 7F       		.sleb128 -1
 3849 0312 9F       		.byte	0x9f
 3850 0313 7C010000 		.4byte	.LVL76
 3851 0317 A2010000 		.4byte	.LVL80
 3852 031b 0100     		.2byte	0x1
 3853 031d 5B       		.byte	0x5b
 3854 031e A2010000 		.4byte	.LVL80
 3855 0322 AE020000 		.4byte	.LVL104
 3856 0326 0400     		.2byte	0x4
 3857 0328 91       		.byte	0x91
 3858 0329 B87F     		.sleb128 -72
 3859 032b 9F       		.byte	0x9f
 3860 032c AE020000 		.4byte	.LVL104
 3861 0330 C2020000 		.4byte	.LVL107
 3862 0334 0100     		.2byte	0x1
 3863 0336 5B       		.byte	0x5b
 3864 0337 00000000 		.4byte	0
 3865 033b 00000000 		.4byte	0
 3866              	.LLST13:
 3867 033f 16000000 		.4byte	.LVL16
 3868 0343 27000000 		.4byte	.LVL17-1
 3869 0347 0100     		.2byte	0x1
 3870 0349 51       		.byte	0x51
 3871 034a 2E000000 		.4byte	.LVL19
 3872 034e 4A000000 		.4byte	.LVL25
 3873 0352 0100     		.2byte	0x1
 3874 0354 51       		.byte	0x51
 3875 0355 50000000 		.4byte	.LVL27
ARM GAS  /tmp/ccLlgcLW.s 			page 69


 3876 0359 62000000 		.4byte	.LVL28
 3877 035d 0100     		.2byte	0x1
 3878 035f 53       		.byte	0x53
 3879 0360 62000000 		.4byte	.LVL28
 3880 0364 70000000 		.4byte	.LVL30
 3881 0368 0100     		.2byte	0x1
 3882 036a 52       		.byte	0x52
 3883 036b 70000000 		.4byte	.LVL30
 3884 036f 78000000 		.4byte	.LVL31
 3885 0373 0100     		.2byte	0x1
 3886 0375 53       		.byte	0x53
 3887 0376 7C000000 		.4byte	.LVL32
 3888 037a 8E000000 		.4byte	.LVL33
 3889 037e 0100     		.2byte	0x1
 3890 0380 53       		.byte	0x53
 3891 0381 8E000000 		.4byte	.LVL33
 3892 0385 9A000000 		.4byte	.LVL36
 3893 0389 0100     		.2byte	0x1
 3894 038b 52       		.byte	0x52
 3895 038c 9A000000 		.4byte	.LVL36
 3896 0390 A8000000 		.4byte	.LVL38
 3897 0394 0100     		.2byte	0x1
 3898 0396 53       		.byte	0x53
 3899 0397 A8000000 		.4byte	.LVL38
 3900 039b AA000000 		.4byte	.LVL39
 3901 039f 0100     		.2byte	0x1
 3902 03a1 52       		.byte	0x52
 3903 03a2 AA000000 		.4byte	.LVL39
 3904 03a6 B8000000 		.4byte	.LVL40
 3905 03aa 0100     		.2byte	0x1
 3906 03ac 53       		.byte	0x53
 3907 03ad CE000000 		.4byte	.LVL44
 3908 03b1 D2000000 		.4byte	.LVL45
 3909 03b5 0100     		.2byte	0x1
 3910 03b7 53       		.byte	0x53
 3911 03b8 D2000000 		.4byte	.LVL45
 3912 03bc D4000000 		.4byte	.LVL46
 3913 03c0 0200     		.2byte	0x2
 3914 03c2 3A       		.byte	0x3a
 3915 03c3 9F       		.byte	0x9f
 3916 03c4 EA000000 		.4byte	.LVL52
 3917 03c8 02010000 		.4byte	.LVL54
 3918 03cc 0100     		.2byte	0x1
 3919 03ce 53       		.byte	0x53
 3920 03cf A2010000 		.4byte	.LVL80
 3921 03d3 A6010000 		.4byte	.LVL81
 3922 03d7 0100     		.2byte	0x1
 3923 03d9 53       		.byte	0x53
 3924 03da A6010000 		.4byte	.LVL81
 3925 03de AA010000 		.4byte	.LVL82
 3926 03e2 0200     		.2byte	0x2
 3927 03e4 38       		.byte	0x38
 3928 03e5 9F       		.byte	0x9f
 3929 03e6 AA010000 		.4byte	.LVL82
 3930 03ea C0010000 		.4byte	.LVL83
 3931 03ee 0100     		.2byte	0x1
 3932 03f0 53       		.byte	0x53
ARM GAS  /tmp/ccLlgcLW.s 			page 70


 3933 03f1 C0010000 		.4byte	.LVL83
 3934 03f5 C2010000 		.4byte	.LVL84
 3935 03f9 0100     		.2byte	0x1
 3936 03fb 52       		.byte	0x52
 3937 03fc C2010000 		.4byte	.LVL84
 3938 0400 E7010000 		.4byte	.LVL87-1
 3939 0404 0100     		.2byte	0x1
 3940 0406 53       		.byte	0x53
 3941 0407 8C020000 		.4byte	.LVL101
 3942 040b 92020000 		.4byte	.LVL103
 3943 040f 0100     		.2byte	0x1
 3944 0411 53       		.byte	0x53
 3945 0412 C2020000 		.4byte	.LVL107
 3946 0416 D8020000 		.4byte	.LFE326
 3947 041a 0100     		.2byte	0x1
 3948 041c 51       		.byte	0x51
 3949 041d 00000000 		.4byte	0
 3950 0421 00000000 		.4byte	0
 3951              	.LLST14:
 3952 0425 42000000 		.4byte	.LVL22
 3953 0429 46000000 		.4byte	.LVL23
 3954 042d 0300     		.2byte	0x3
 3955 042f 08       		.byte	0x8
 3956 0430 20       		.byte	0x20
 3957 0431 9F       		.byte	0x9f
 3958 0432 46000000 		.4byte	.LVL23
 3959 0436 48000000 		.4byte	.LVL24
 3960 043a 0300     		.2byte	0x3
 3961 043c 08       		.byte	0x8
 3962 043d 30       		.byte	0x30
 3963 043e 9F       		.byte	0x9f
 3964 043f 48000000 		.4byte	.LVL24
 3965 0443 FA000000 		.4byte	.LVL53
 3966 0447 0100     		.2byte	0x1
 3967 0449 55       		.byte	0x55
 3968 044a FA000000 		.4byte	.LVL53
 3969 044e 0C010000 		.4byte	.LVL55
 3970 0452 0300     		.2byte	0x3
 3971 0454 08       		.byte	0x8
 3972 0455 20       		.byte	0x20
 3973 0456 9F       		.byte	0x9f
 3974 0457 10010000 		.4byte	.LVL56
 3975 045b 90020000 		.4byte	.LVL102
 3976 045f 0100     		.2byte	0x1
 3977 0461 55       		.byte	0x55
 3978 0462 90020000 		.4byte	.LVL102
 3979 0466 C2020000 		.4byte	.LVL107
 3980 046a 0300     		.2byte	0x3
 3981 046c 08       		.byte	0x8
 3982 046d 20       		.byte	0x20
 3983 046e 9F       		.byte	0x9f
 3984 046f 00000000 		.4byte	0
 3985 0473 00000000 		.4byte	0
 3986              	.LLST15:
 3987 0477 16010000 		.4byte	.LVL57
 3988 047b 4C010000 		.4byte	.LVL66
 3989 047f 0100     		.2byte	0x1
ARM GAS  /tmp/ccLlgcLW.s 			page 71


 3990 0481 59       		.byte	0x59
 3991 0482 66010000 		.4byte	.LVL71
 3992 0486 68010000 		.4byte	.LVL72
 3993 048a 0300     		.2byte	0x3
 3994 048c 73       		.byte	0x73
 3995 048d 7F       		.sleb128 -1
 3996 048e 9F       		.byte	0x9f
 3997 048f 68010000 		.4byte	.LVL72
 3998 0493 77010000 		.4byte	.LVL75-1
 3999 0497 0100     		.2byte	0x1
 4000 0499 53       		.byte	0x53
 4001 049a 77010000 		.4byte	.LVL75-1
 4002 049e 7C010000 		.4byte	.LVL76
 4003 04a2 0300     		.2byte	0x3
 4004 04a4 91       		.byte	0x91
 4005 04a5 A47F     		.sleb128 -92
 4006 04a7 7C010000 		.4byte	.LVL76
 4007 04ab 86010000 		.4byte	.LVL77
 4008 04af 0100     		.2byte	0x1
 4009 04b1 53       		.byte	0x53
 4010 04b2 00000000 		.4byte	0
 4011 04b6 00000000 		.4byte	0
 4012              	.LLST16:
 4013 04ba 70000000 		.4byte	.LVL30
 4014 04be 78000000 		.4byte	.LVL31
 4015 04c2 0200     		.2byte	0x2
 4016 04c4 30       		.byte	0x30
 4017 04c5 9F       		.byte	0x9f
 4018 04c6 92000000 		.4byte	.LVL34
 4019 04ca 98000000 		.4byte	.LVL35
 4020 04ce 0500     		.2byte	0x5
 4021 04d0 79       		.byte	0x79
 4022 04d1 00       		.sleb128 0
 4023 04d2 3A       		.byte	0x3a
 4024 04d3 1E       		.byte	0x1e
 4025 04d4 9F       		.byte	0x9f
 4026 04d5 98000000 		.4byte	.LVL35
 4027 04d9 9A000000 		.4byte	.LVL36
 4028 04dd 0100     		.2byte	0x1
 4029 04df 59       		.byte	0x59
 4030 04e0 00000000 		.4byte	0
 4031 04e4 00000000 		.4byte	0
 4032              	.LLST17:
 4033 04e8 48000000 		.4byte	.LVL24
 4034 04ec 4A000000 		.4byte	.LVL25
 4035 04f0 0200     		.2byte	0x2
 4036 04f2 30       		.byte	0x30
 4037 04f3 9F       		.byte	0x9f
 4038 04f4 4C000000 		.4byte	.LVL26
 4039 04f8 50000000 		.4byte	.LVL27
 4040 04fc 0100     		.2byte	0x1
 4041 04fe 53       		.byte	0x53
 4042 04ff 50000000 		.4byte	.LVL27
 4043 0503 1A010000 		.4byte	.LVL58
 4044 0507 0300     		.2byte	0x3
 4045 0509 91       		.byte	0x91
 4046 050a A47F     		.sleb128 -92
ARM GAS  /tmp/ccLlgcLW.s 			page 72


 4047 050c 1A010000 		.4byte	.LVL58
 4048 0510 4C010000 		.4byte	.LVL66
 4049 0514 0100     		.2byte	0x1
 4050 0516 5A       		.byte	0x5a
 4051 0517 4C010000 		.4byte	.LVL66
 4052 051b 50010000 		.4byte	.LVL67
 4053 051f 0100     		.2byte	0x1
 4054 0521 53       		.byte	0x53
 4055 0522 50010000 		.4byte	.LVL67
 4056 0526 58010000 		.4byte	.LVL68
 4057 052a 0300     		.2byte	0x3
 4058 052c 91       		.byte	0x91
 4059 052d A47F     		.sleb128 -92
 4060 052f 58010000 		.4byte	.LVL68
 4061 0533 5C010000 		.4byte	.LVL69
 4062 0537 0700     		.2byte	0x7
 4063 0539 91       		.byte	0x91
 4064 053a A47F     		.sleb128 -92
 4065 053c 06       		.byte	0x6
 4066 053d 23       		.byte	0x23
 4067 053e 01       		.uleb128 0x1
 4068 053f 9F       		.byte	0x9f
 4069 0540 5C010000 		.4byte	.LVL69
 4070 0544 64010000 		.4byte	.LVL70
 4071 0548 0100     		.2byte	0x1
 4072 054a 53       		.byte	0x53
 4073 054b 64010000 		.4byte	.LVL70
 4074 054f 66010000 		.4byte	.LVL71
 4075 0553 0100     		.2byte	0x1
 4076 0555 5A       		.byte	0x5a
 4077 0556 86010000 		.4byte	.LVL77
 4078 055a A2010000 		.4byte	.LVL80
 4079 055e 0100     		.2byte	0x1
 4080 0560 59       		.byte	0x59
 4081 0561 A2010000 		.4byte	.LVL80
 4082 0565 C2020000 		.4byte	.LVL107
 4083 0569 0300     		.2byte	0x3
 4084 056b 91       		.byte	0x91
 4085 056c A47F     		.sleb128 -92
 4086 056e 00000000 		.4byte	0
 4087 0572 00000000 		.4byte	0
 4088              	.LLST18:
 4089 0576 10000000 		.4byte	.LVL14
 4090 057a 12000000 		.4byte	.LVL15
 4091 057e 0200     		.2byte	0x2
 4092 0580 30       		.byte	0x30
 4093 0581 9F       		.byte	0x9f
 4094 0582 12000000 		.4byte	.LVL15
 4095 0586 2A000000 		.4byte	.LVL18
 4096 058a 0100     		.2byte	0x1
 4097 058c 57       		.byte	0x57
 4098 058d 2E000000 		.4byte	.LVL19
 4099 0591 4C010000 		.4byte	.LVL66
 4100 0595 0100     		.2byte	0x1
 4101 0597 57       		.byte	0x57
 4102 0598 A2010000 		.4byte	.LVL80
 4103 059c CE020000 		.4byte	.LVL108
ARM GAS  /tmp/ccLlgcLW.s 			page 73


 4104 05a0 0100     		.2byte	0x1
 4105 05a2 57       		.byte	0x57
 4106 05a3 CE020000 		.4byte	.LVL108
 4107 05a7 D8020000 		.4byte	.LFE326
 4108 05ab 0100     		.2byte	0x1
 4109 05ad 50       		.byte	0x50
 4110 05ae 00000000 		.4byte	0
 4111 05b2 00000000 		.4byte	0
 4112              	.LLST19:
 4113 05b6 A2000000 		.4byte	.LVL37
 4114 05ba C2020000 		.4byte	.LVL107
 4115 05be 0200     		.2byte	0x2
 4116 05c0 31       		.byte	0x31
 4117 05c1 9F       		.byte	0x9f
 4118 05c2 00000000 		.4byte	0
 4119 05c6 00000000 		.4byte	0
 4120              	.LLST20:
 4121 05ca 2E000000 		.4byte	.LVL19
 4122 05ce 36000000 		.4byte	.LVL21
 4123 05d2 0200     		.2byte	0x2
 4124 05d4 30       		.byte	0x30
 4125 05d5 9F       		.byte	0x9f
 4126 05d6 36000000 		.4byte	.LVL21
 4127 05da 42000000 		.4byte	.LVL22
 4128 05de 0200     		.2byte	0x2
 4129 05e0 31       		.byte	0x31
 4130 05e1 9F       		.byte	0x9f
 4131 05e2 42000000 		.4byte	.LVL22
 4132 05e6 C2020000 		.4byte	.LVL107
 4133 05ea 0300     		.2byte	0x3
 4134 05ec 91       		.byte	0x91
 4135 05ed A87F     		.sleb128 -88
 4136 05ef 00000000 		.4byte	0
 4137 05f3 00000000 		.4byte	0
 4138              	.LLST21:
 4139 05f7 BC000000 		.4byte	.LVL41
 4140 05fb CE000000 		.4byte	.LVL44
 4141 05ff 0100     		.2byte	0x1
 4142 0601 51       		.byte	0x51
 4143 0602 DC000000 		.4byte	.LVL47
 4144 0606 E0000000 		.4byte	.LVL49
 4145 060a 0100     		.2byte	0x1
 4146 060c 51       		.byte	0x51
 4147 060d 00000000 		.4byte	0
 4148 0611 00000000 		.4byte	0
 4149              	.LLST22:
 4150 0615 40020000 		.4byte	.LVL89
 4151 0619 8C020000 		.4byte	.LVL101
 4152 061d 0200     		.2byte	0x2
 4153 061f 90       		.byte	0x90
 4154 0620 50       		.uleb128 0x50
 4155 0621 00000000 		.4byte	0
 4156 0625 00000000 		.4byte	0
 4157              	.LLST23:
 4158 0629 CA000000 		.4byte	.LVL43
 4159 062d CE000000 		.4byte	.LVL44
 4160 0631 0200     		.2byte	0x2
ARM GAS  /tmp/ccLlgcLW.s 			page 74


 4161 0633 3A       		.byte	0x3a
 4162 0634 9F       		.byte	0x9f
 4163 0635 00000000 		.4byte	0
 4164 0639 00000000 		.4byte	0
 4165              	.LLST24:
 4166 063d CA000000 		.4byte	.LVL43
 4167 0641 CE000000 		.4byte	.LVL44
 4168 0645 0100     		.2byte	0x1
 4169 0647 51       		.byte	0x51
 4170 0648 00000000 		.4byte	0
 4171 064c 00000000 		.4byte	0
 4172              	.LLST25:
 4173 0650 CA000000 		.4byte	.LVL43
 4174 0654 CE000000 		.4byte	.LVL44
 4175 0658 0100     		.2byte	0x1
 4176 065a 50       		.byte	0x50
 4177 065b 00000000 		.4byte	0
 4178 065f 00000000 		.4byte	0
 4179              	.LLST26:
 4180 0663 DC000000 		.4byte	.LVL47
 4181 0667 DE000000 		.4byte	.LVL48
 4182 066b 0600     		.2byte	0x6
 4183 066d 72       		.byte	0x72
 4184 066e 00       		.sleb128 0
 4185 066f 08       		.byte	0x8
 4186 0670 FF       		.byte	0xff
 4187 0671 1A       		.byte	0x1a
 4188 0672 9F       		.byte	0x9f
 4189 0673 00000000 		.4byte	0
 4190 0677 00000000 		.4byte	0
 4191              	.LLST27:
 4192 067b DC000000 		.4byte	.LVL47
 4193 067f DE000000 		.4byte	.LVL48
 4194 0683 0100     		.2byte	0x1
 4195 0685 51       		.byte	0x51
 4196 0686 00000000 		.4byte	0
 4197 068a 00000000 		.4byte	0
 4198              	.LLST28:
 4199 068e DC000000 		.4byte	.LVL47
 4200 0692 DE000000 		.4byte	.LVL48
 4201 0696 0400     		.2byte	0x4
 4202 0698 91       		.byte	0x91
 4203 0699 B87F     		.sleb128 -72
 4204 069b 9F       		.byte	0x9f
 4205 069c 00000000 		.4byte	0
 4206 06a0 00000000 		.4byte	0
 4207              	.LLST29:
 4208 06a4 42020000 		.4byte	.LVL90
 4209 06a8 4C020000 		.4byte	.LVL93
 4210 06ac 0A00     		.2byte	0xa
 4211 06ae 79       		.byte	0x79
 4212 06af 00       		.sleb128 0
 4213 06b0 32       		.byte	0x32
 4214 06b1 24       		.byte	0x24
 4215 06b2 03       		.byte	0x3
 4216 06b3 00000000 		.4byte	.LANCHOR0
 4217 06b7 22       		.byte	0x22
ARM GAS  /tmp/ccLlgcLW.s 			page 75


 4218 06b8 4C020000 		.4byte	.LVL93
 4219 06bc 8C020000 		.4byte	.LVL101
 4220 06c0 0300     		.2byte	0x3
 4221 06c2 91       		.byte	0x91
 4222 06c3 AC7F     		.sleb128 -84
 4223 06c5 00000000 		.4byte	0
 4224 06c9 00000000 		.4byte	0
 4225              	.LLST30:
 4226 06cd 42020000 		.4byte	.LVL90
 4227 06d1 66020000 		.4byte	.LVL97
 4228 06d5 0600     		.2byte	0x6
 4229 06d7 5A       		.byte	0x5a
 4230 06d8 93       		.byte	0x93
 4231 06d9 04       		.uleb128 0x4
 4232 06da 5B       		.byte	0x5b
 4233 06db 93       		.byte	0x93
 4234 06dc 04       		.uleb128 0x4
 4235 06dd 00000000 		.4byte	0
 4236 06e1 00000000 		.4byte	0
 4237              	.LLST31:
 4238 06e5 40020000 		.4byte	.LVL89
 4239 06e9 46020000 		.4byte	.LVL91
 4240 06ed 0100     		.2byte	0x1
 4241 06ef 53       		.byte	0x53
 4242 06f0 46020000 		.4byte	.LVL91
 4243 06f4 49020000 		.4byte	.LVL92-1
 4244 06f8 0100     		.2byte	0x1
 4245 06fa 50       		.byte	0x50
 4246 06fb 49020000 		.4byte	.LVL92-1
 4247 06ff 4A020000 		.4byte	.LVL92
 4248 0703 0300     		.2byte	0x3
 4249 0705 91       		.byte	0x91
 4250 0706 B47F     		.sleb128 -76
 4251 0708 4A020000 		.4byte	.LVL92
 4252 070c 52020000 		.4byte	.LVL94
 4253 0710 0300     		.2byte	0x3
 4254 0712 70       		.byte	0x70
 4255 0713 01       		.sleb128 1
 4256 0714 9F       		.byte	0x9f
 4257 0715 52020000 		.4byte	.LVL94
 4258 0719 8C020000 		.4byte	.LVL101
 4259 071d 0100     		.2byte	0x1
 4260 071f 59       		.byte	0x59
 4261 0720 00000000 		.4byte	0
 4262 0724 00000000 		.4byte	0
 4263              	.LLST32:
 4264 0728 42020000 		.4byte	.LVL90
 4265 072c 49020000 		.4byte	.LVL92-1
 4266 0730 0100     		.2byte	0x1
 4267 0732 51       		.byte	0x51
 4268 0733 49020000 		.4byte	.LVL92-1
 4269 0737 7A020000 		.4byte	.LVL99
 4270 073b 0300     		.2byte	0x3
 4271 073d 91       		.byte	0x91
 4272 073e B07F     		.sleb128 -80
 4273 0740 7A020000 		.4byte	.LVL99
 4274 0744 7D020000 		.4byte	.LVL100-1
ARM GAS  /tmp/ccLlgcLW.s 			page 76


 4275 0748 0800     		.2byte	0x8
 4276 074a F5       		.byte	0xf5
 4277 074b 00       		.uleb128 0
 4278 074c 25       		.uleb128 0x25
 4279 074d F7       		.byte	0xf7
 4280 074e 2C       		.uleb128 0x2c
 4281 074f F7       		.byte	0xf7
 4282 0750 00       		.uleb128 0
 4283 0751 9F       		.byte	0x9f
 4284 0752 00000000 		.4byte	0
 4285 0756 00000000 		.4byte	0
 4286              	.LLST33:
 4287 075a 00000000 		.4byte	.LVL109
 4288 075e 0F000000 		.4byte	.LVL110-1
 4289 0762 0100     		.2byte	0x1
 4290 0764 50       		.byte	0x50
 4291 0765 0F000000 		.4byte	.LVL110-1
 4292 0769 1A000000 		.4byte	.LFE327
 4293 076d 0400     		.2byte	0x4
 4294 076f F3       		.byte	0xf3
 4295 0770 01       		.uleb128 0x1
 4296 0771 50       		.byte	0x50
 4297 0772 9F       		.byte	0x9f
 4298 0773 00000000 		.4byte	0
 4299 0777 00000000 		.4byte	0
 4300              	.LLST34:
 4301 077b 00000000 		.4byte	.LVL111
 4302 077f 16000000 		.4byte	.LVL115
 4303 0783 0100     		.2byte	0x1
 4304 0785 50       		.byte	0x50
 4305 0786 16000000 		.4byte	.LVL115
 4306 078a 36000000 		.4byte	.LFE329
 4307 078e 0100     		.2byte	0x1
 4308 0790 55       		.byte	0x55
 4309 0791 00000000 		.4byte	0
 4310 0795 00000000 		.4byte	0
 4311              	.LLST35:
 4312 0799 00000000 		.4byte	.LVL111
 4313 079d 18000000 		.4byte	.LVL116
 4314 07a1 0100     		.2byte	0x1
 4315 07a3 51       		.byte	0x51
 4316 07a4 18000000 		.4byte	.LVL116
 4317 07a8 36000000 		.4byte	.LFE329
 4318 07ac 0100     		.2byte	0x1
 4319 07ae 54       		.byte	0x54
 4320 07af 00000000 		.4byte	0
 4321 07b3 00000000 		.4byte	0
 4322              	.LLST36:
 4323 07b7 00000000 		.4byte	.LVL111
 4324 07bb 10000000 		.4byte	.LVL112
 4325 07bf 0100     		.2byte	0x1
 4326 07c1 52       		.byte	0x52
 4327 07c2 10000000 		.4byte	.LVL112
 4328 07c6 12000000 		.4byte	.LVL113
 4329 07ca 0100     		.2byte	0x1
 4330 07cc 57       		.byte	0x57
 4331 07cd 12000000 		.4byte	.LVL113
ARM GAS  /tmp/ccLlgcLW.s 			page 77


 4332 07d1 14000000 		.4byte	.LVL114
 4333 07d5 0100     		.2byte	0x1
 4334 07d7 52       		.byte	0x52
 4335 07d8 14000000 		.4byte	.LVL114
 4336 07dc 36000000 		.4byte	.LFE329
 4337 07e0 0100     		.2byte	0x1
 4338 07e2 57       		.byte	0x57
 4339 07e3 00000000 		.4byte	0
 4340 07e7 00000000 		.4byte	0
 4341              	.LLST37:
 4342 07eb 00000000 		.4byte	.LVL111
 4343 07ef 1A000000 		.4byte	.LVL117
 4344 07f3 0100     		.2byte	0x1
 4345 07f5 53       		.byte	0x53
 4346 07f6 1E000000 		.4byte	.LVL118
 4347 07fa 36000000 		.4byte	.LFE329
 4348 07fe 0100     		.2byte	0x1
 4349 0800 56       		.byte	0x56
 4350 0801 00000000 		.4byte	0
 4351 0805 00000000 		.4byte	0
 4352              	.LLST38:
 4353 0809 1E000000 		.4byte	.LVL118
 4354 080d 22000000 		.4byte	.LVL119
 4355 0811 0300     		.2byte	0x3
 4356 0813 91       		.byte	0x91
 4357 0814 54       		.sleb128 -44
 4358 0815 9F       		.byte	0x9f
 4359 0816 22000000 		.4byte	.LVL119
 4360 081a 27000000 		.4byte	.LVL120-1
 4361 081e 0100     		.2byte	0x1
 4362 0820 50       		.byte	0x50
 4363 0821 27000000 		.4byte	.LVL120-1
 4364 0825 36000000 		.4byte	.LFE329
 4365 0829 0300     		.2byte	0x3
 4366 082b 91       		.byte	0x91
 4367 082c 54       		.sleb128 -44
 4368 082d 9F       		.byte	0x9f
 4369 082e 00000000 		.4byte	0
 4370 0832 00000000 		.4byte	0
 4371              	.LLST39:
 4372 0836 10000000 		.4byte	.LVL112
 4373 083a 12000000 		.4byte	.LVL113
 4374 083e 0100     		.2byte	0x1
 4375 0840 52       		.byte	0x52
 4376 0841 14000000 		.4byte	.LVL114
 4377 0845 1D000000 		.4byte	.LVL118-1
 4378 0849 0100     		.2byte	0x1
 4379 084b 52       		.byte	0x52
 4380 084c 00000000 		.4byte	0
 4381 0850 00000000 		.4byte	0
 4382              	.LLST40:
 4383 0854 00000000 		.4byte	.LVL121
 4384 0858 0F000000 		.4byte	.LVL122-1
 4385 085c 0100     		.2byte	0x1
 4386 085e 50       		.byte	0x50
 4387 085f 0F000000 		.4byte	.LVL122-1
 4388 0863 1A000000 		.4byte	.LFE328
ARM GAS  /tmp/ccLlgcLW.s 			page 78


 4389 0867 0400     		.2byte	0x4
 4390 0869 F3       		.byte	0xf3
 4391 086a 01       		.uleb128 0x1
 4392 086b 50       		.byte	0x50
 4393 086c 9F       		.byte	0x9f
 4394 086d 00000000 		.4byte	0
 4395 0871 00000000 		.4byte	0
 4396              	.LLST41:
 4397 0875 00000000 		.4byte	.LVL121
 4398 0879 0F000000 		.4byte	.LVL122-1
 4399 087d 0100     		.2byte	0x1
 4400 087f 51       		.byte	0x51
 4401 0880 0F000000 		.4byte	.LVL122-1
 4402 0884 1A000000 		.4byte	.LFE328
 4403 0888 0400     		.2byte	0x4
 4404 088a F3       		.byte	0xf3
 4405 088b 01       		.uleb128 0x1
 4406 088c 51       		.byte	0x51
 4407 088d 9F       		.byte	0x9f
 4408 088e 00000000 		.4byte	0
 4409 0892 00000000 		.4byte	0
 4410              		.section	.debug_aranges,"",%progbits
 4411 0000 3C000000 		.4byte	0x3c
 4412 0004 0200     		.2byte	0x2
 4413 0006 00000000 		.4byte	.Ldebug_info0
 4414 000a 04       		.byte	0x4
 4415 000b 00       		.byte	0
 4416 000c 0000     		.2byte	0
 4417 000e 0000     		.2byte	0
 4418 0010 00000000 		.4byte	.LFB323
 4419 0014 44000000 		.4byte	.LFE323-.LFB323
 4420 0018 00000000 		.4byte	.LFB326
 4421 001c D8020000 		.4byte	.LFE326-.LFB326
 4422 0020 00000000 		.4byte	.LFB327
 4423 0024 1A000000 		.4byte	.LFE327-.LFB327
 4424 0028 00000000 		.4byte	.LFB329
 4425 002c 36000000 		.4byte	.LFE329-.LFB329
 4426 0030 00000000 		.4byte	.LFB328
 4427 0034 1A000000 		.4byte	.LFE328-.LFB328
 4428 0038 00000000 		.4byte	0
 4429 003c 00000000 		.4byte	0
 4430              		.section	.debug_ranges,"",%progbits
 4431              	.Ldebug_ranges0:
 4432 0000 12020000 		.4byte	.LBB12
 4433 0004 34020000 		.4byte	.LBE12
 4434 0008 36020000 		.4byte	.LBB16
 4435 000c 3C020000 		.4byte	.LBE16
 4436 0010 42020000 		.4byte	.LBB17
 4437 0014 8C020000 		.4byte	.LBE17
 4438 0018 00000000 		.4byte	0
 4439 001c 00000000 		.4byte	0
 4440 0020 00000000 		.4byte	.LFB323
 4441 0024 44000000 		.4byte	.LFE323
 4442 0028 00000000 		.4byte	.LFB326
 4443 002c D8020000 		.4byte	.LFE326
 4444 0030 00000000 		.4byte	.LFB327
 4445 0034 1A000000 		.4byte	.LFE327
ARM GAS  /tmp/ccLlgcLW.s 			page 79


 4446 0038 00000000 		.4byte	.LFB329
 4447 003c 36000000 		.4byte	.LFE329
 4448 0040 00000000 		.4byte	.LFB328
 4449 0044 1A000000 		.4byte	.LFE328
 4450 0048 00000000 		.4byte	0
 4451 004c 00000000 		.4byte	0
 4452              		.section	.debug_line,"",%progbits
 4453              	.Ldebug_line0:
 4454 0000 F9030000 		.section	.debug_str,"MS",%progbits,1
 4454      02008702 
 4454      00000201 
 4454      FB0E0D00 
 4454      01010101 
 4455              	.LASF54:
 4456 0000 72656164 		.ascii	"ready_list_t\000"
 4456      795F6C69 
 4456      73745F74 
 4456      00
 4457              	.LASF3:
 4458 000d 73697A65 		.ascii	"size_t\000"
 4458      5F7400
 4459              	.LASF60:
 4460 0014 64656C74 		.ascii	"delta\000"
 4460      6100
 4461              	.LASF18:
 4462 001a 75696E74 		.ascii	"uint64_t\000"
 4462      36345F74 
 4462      00
 4463              	.LASF73:
 4464 0023 6B65726E 		.ascii	"kernel_stats\000"
 4464      656C5F73 
 4464      74617473 
 4464      00
 4465              	.LASF4:
 4466 0030 5F5F7569 		.ascii	"__uint8_t\000"
 4466      6E74385F 
 4466      7400
 4467              	.LASF53:
 4468 003a 70726576 		.ascii	"prev\000"
 4468      00
 4469              	.LASF80:
 4470 003f 706F7274 		.ascii	"port_intctx\000"
 4470      5F696E74 
 4470      63747800 
 4471              	.LASF115:
 4472 004b 76615F6C 		.ascii	"va_list\000"
 4472      69737400 
 4473              	.LASF65:
 4474 0053 73797374 		.ascii	"system_debug_t\000"
 4474      656D5F64 
 4474      65627567 
 4474      5F7400
 4475              	.LASF123:
 4476 0062 66746F61 		.ascii	"ftoa\000"
 4476      00
 4477              	.LASF84:
 4478 0067 776F7273 		.ascii	"worst\000"
ARM GAS  /tmp/ccLlgcLW.s 			page 80


 4478      7400
 4479              	.LASF87:
 4480 006d 74696D65 		.ascii	"time_measurement_t\000"
 4480      5F6D6561 
 4480      73757265 
 4480      6D656E74 
 4480      5F7400
 4481              	.LASF135:
 4482 0080 73697A65 		.ascii	"size_wo_nul\000"
 4482      5F776F5F 
 4482      6E756C00 
 4483              	.LASF14:
 4484 008c 6C6F6E67 		.ascii	"long long unsigned int\000"
 4484      206C6F6E 
 4484      6720756E 
 4484      7369676E 
 4484      65642069 
 4485              	.LASF133:
 4486 00a3 666F726D 		.ascii	"formatted_bytes\000"
 4486      61747465 
 4486      645F6279 
 4486      74657300 
 4487              	.LASF94:
 4488 00b3 65786974 		.ascii	"exitcode\000"
 4488      636F6465 
 4488      00
 4489              	.LASF72:
 4490 00bc 6D61696E 		.ascii	"mainthread\000"
 4490      74687265 
 4490      616400
 4491              	.LASF97:
 4492 00c7 73656E74 		.ascii	"sentmsg\000"
 4492      6D736700 
 4493              	.LASF62:
 4494 00cf 76697274 		.ascii	"virtual_timers_list_t\000"
 4494      75616C5F 
 4494      74696D65 
 4494      72735F6C 
 4494      6973745F 
 4495              	.LASF139:
 4496 00e5 49544D5F 		.ascii	"ITM_RxBuffer\000"
 4496      52784275 
 4496      66666572 
 4496      00
 4497              	.LASF61:
 4498 00f2 66756E63 		.ascii	"func\000"
 4498      00
 4499              	.LASF50:
 4500 00f7 6E657874 		.ascii	"next\000"
 4500      00
 4501              	.LASF20:
 4502 00fc 72747469 		.ascii	"rttime_t\000"
 4502      6D655F74 
 4502      00
 4503              	.LASF12:
 4504 0105 6C6F6E67 		.ascii	"long long int\000"
 4504      206C6F6E 
ARM GAS  /tmp/ccLlgcLW.s 			page 81


 4504      6720696E 
 4504      7400
 4505              	.LASF2:
 4506 0113 7369676E 		.ascii	"signed char\000"
 4506      65642063 
 4506      68617200 
 4507              	.LASF11:
 4508 011f 6C6F6E67 		.ascii	"long unsigned int\000"
 4508      20756E73 
 4508      69676E65 
 4508      6420696E 
 4508      7400
 4509              	.LASF118:
 4510 0131 73697A65 		.ascii	"size\000"
 4510      00
 4511              	.LASF129:
 4512 0136 746D7062 		.ascii	"tmpbuf\000"
 4512      756600
 4513              	.LASF40:
 4514 013d 6D736771 		.ascii	"msgqueue\000"
 4514      75657565 
 4514      00
 4515              	.LASF36:
 4516 0146 73746174 		.ascii	"state\000"
 4516      6500
 4517              	.LASF9:
 4518 014c 6C6F6E67 		.ascii	"long int\000"
 4518      20696E74 
 4518      00
 4519              	.LASF22:
 4520 0155 74737461 		.ascii	"tstate_t\000"
 4520      74655F74 
 4520      00
 4521              	.LASF113:
 4522 015e 5F5F7661 		.ascii	"__va_list\000"
 4522      5F6C6973 
 4522      7400
 4523              	.LASF45:
 4524 0168 73746174 		.ascii	"stats\000"
 4524      7300
 4525              	.LASF136:
 4526 016e 72657476 		.ascii	"retval\000"
 4526      616C00
 4527              	.LASF117:
 4528 0175 62756666 		.ascii	"buffer\000"
 4528      657200
 4529              	.LASF10:
 4530 017c 5F5F7569 		.ascii	"__uint32_t\000"
 4530      6E743332 
 4530      5F7400
 4531              	.LASF77:
 4532 0187 72656761 		.ascii	"regarm_t\000"
 4532      726D5F74 
 4532      00
 4533              	.LASF71:
 4534 0190 76746C69 		.ascii	"vtlist\000"
 4534      737400
ARM GAS  /tmp/ccLlgcLW.s 			page 82


 4535              	.LASF68:
 4536 0197 63685F73 		.ascii	"ch_system_t\000"
 4536      79737465 
 4536      6D5F7400 
 4537              	.LASF125:
 4538 01a3 66696C6C 		.ascii	"filler\000"
 4538      657200
 4539              	.LASF39:
 4540 01aa 77616974 		.ascii	"waiting\000"
 4540      696E6700 
 4541              	.LASF127:
 4542 01b2 69735F6C 		.ascii	"is_long\000"
 4542      6F6E6700 
 4543              	.LASF105:
 4544 01ba 6D757465 		.ascii	"mutex_t\000"
 4544      785F7400 
 4545              	.LASF111:
 4546 01c2 42617365 		.ascii	"BaseSequentialStream\000"
 4546      53657175 
 4546      656E7469 
 4546      616C5374 
 4546      7265616D 
 4547              	.LASF75:
 4548 01d7 73797369 		.ascii	"sysinterval_t\000"
 4548      6E746572 
 4548      76616C5F 
 4548      7400
 4549              	.LASF27:
 4550 01e5 636E745F 		.ascii	"cnt_t\000"
 4550      7400
 4551              	.LASF1:
 4552 01eb 756E7369 		.ascii	"unsigned int\000"
 4552      676E6564 
 4552      20696E74 
 4552      00
 4553              	.LASF140:
 4554 01f8 474E5520 		.ascii	"GNU C 4.9.3 20150529 (prerelease) -mcpu=cortex-m4 -"
 4554      4320342E 
 4554      392E3320 
 4554      32303135 
 4554      30353239 
 4555 022b 6D666C6F 		.ascii	"mfloat-abi=hard -mfpu=fpv4-sp-d16 -mno-thumb-interw"
 4555      61742D61 
 4555      62693D68 
 4555      61726420 
 4555      2D6D6670 
 4556 025e 6F726B20 		.ascii	"ork -mthumb -g -Os -fomit-frame-pointer -falign-fun"
 4556      2D6D7468 
 4556      756D6220 
 4556      2D67202D 
 4556      4F73202D 
 4557 0291 6374696F 		.ascii	"ctions=16 -ffunction-sections -fdata-sections -fno-"
 4557      6E733D31 
 4557      36202D66 
 4557      66756E63 
 4557      74696F6E 
 4558 02c4 636F6D6D 		.ascii	"common -fsingle-precision-constant\000"
ARM GAS  /tmp/ccLlgcLW.s 			page 83


 4558      6F6E202D 
 4558      6673696E 
 4558      676C652D 
 4558      70726563 
 4559              	.LASF98:
 4560 02e7 77747365 		.ascii	"wtsemp\000"
 4560      6D7000
 4561              	.LASF96:
 4562 02ee 77747472 		.ascii	"wttrp\000"
 4562      7000
 4563              	.LASF128:
 4564 02f4 6C656674 		.ascii	"left_align\000"
 4564      5F616C69 
 4564      676E00
 4565              	.LASF88:
 4566 02ff 6E5F6972 		.ascii	"n_irq\000"
 4566      7100
 4567              	.LASF30:
 4568 0305 71756575 		.ascii	"queue\000"
 4568      6500
 4569              	.LASF126:
 4570 030b 77696474 		.ascii	"width\000"
 4570      6800
 4571              	.LASF44:
 4572 0311 6D706F6F 		.ascii	"mpool\000"
 4572      6C00
 4573              	.LASF134:
 4574 0317 63687673 		.ascii	"chvsnprintf\000"
 4574      6E707269 
 4574      6E746600 
 4575              	.LASF7:
 4576 0323 73686F72 		.ascii	"short unsigned int\000"
 4576      7420756E 
 4576      7369676E 
 4576      65642069 
 4576      6E7400
 4577              	.LASF92:
 4578 0336 6B65726E 		.ascii	"kernel_stats_t\000"
 4578      656C5F73 
 4578      74617473 
 4578      5F7400
 4579              	.LASF34:
 4580 0345 6E616D65 		.ascii	"name\000"
 4580      00
 4581              	.LASF48:
 4582 034a 63685F74 		.ascii	"ch_thread\000"
 4582      68726561 
 4582      6400
 4583              	.LASF25:
 4584 0354 6D73675F 		.ascii	"msg_t\000"
 4584      7400
 4585              	.LASF85:
 4586 035a 6C617374 		.ascii	"last\000"
 4586      00
 4587              	.LASF28:
 4588 035f 75636E74 		.ascii	"ucnt_t\000"
 4588      5F7400
ARM GAS  /tmp/ccLlgcLW.s 			page 84


 4589              	.LASF41:
 4590 0366 6570656E 		.ascii	"epending\000"
 4590      64696E67 
 4590      00
 4591              	.LASF110:
 4592 036f 72656164 		.ascii	"read\000"
 4592      00
 4593              	.LASF141:
 4594 0374 2E2E2F2E 		.ascii	"../../modules/ChibiOS/os/hal/lib/streams/chprintf.c"
 4594      2E2F6D6F 
 4594      64756C65 
 4594      732F4368 
 4594      6962694F 
 4595 03a7 00       		.ascii	"\000"
 4596              	.LASF91:
 4597 03a8 6D5F6372 		.ascii	"m_crit_isr\000"
 4597      69745F69 
 4597      737200
 4598              	.LASF55:
 4599 03b3 63685F72 		.ascii	"ch_ready_list\000"
 4599      65616479 
 4599      5F6C6973 
 4599      7400
 4600              	.LASF26:
 4601 03c1 6576656E 		.ascii	"eventmask_t\000"
 4601      746D6173 
 4601      6B5F7400 
 4602              	.LASF8:
 4603 03cd 5F5F696E 		.ascii	"__int32_t\000"
 4603      7433325F 
 4603      7400
 4604              	.LASF78:
 4605 03d7 73746B61 		.ascii	"stkalign_t\000"
 4605      6C69676E 
 4605      5F7400
 4606              	.LASF32:
 4607 03e2 6E657765 		.ascii	"newer\000"
 4607      7200
 4608              	.LASF145:
 4609 03e8 6D734F62 		.ascii	"msObjectInit\000"
 4609      6A656374 
 4609      496E6974 
 4609      00
 4610              	.LASF109:
 4611 03f5 77726974 		.ascii	"write\000"
 4611      6500
 4612              	.LASF43:
 4613 03fb 7265616C 		.ascii	"realprio\000"
 4613      7072696F 
 4613      00
 4614              	.LASF76:
 4615 0404 73697A65 		.ascii	"sizetype\000"
 4615      74797065 
 4615      00
 4616              	.LASF46:
 4617 040d 74687265 		.ascii	"thread_reference_t\000"
 4617      61645F72 
ARM GAS  /tmp/ccLlgcLW.s 			page 85


 4617      65666572 
 4617      656E6365 
 4617      5F7400
 4618              	.LASF63:
 4619 0420 63685F76 		.ascii	"ch_virtual_timers_list\000"
 4619      69727475 
 4619      616C5F74 
 4619      696D6572 
 4619      735F6C69 
 4620              	.LASF144:
 4621 0437 756E7369 		.ascii	"unsigned_common\000"
 4621      676E6564 
 4621      5F636F6D 
 4621      6D6F6E00 
 4622              	.LASF121:
 4623 0447 64697669 		.ascii	"divisor\000"
 4623      736F7200 
 4624              	.LASF112:
 4625 044f 5F5F676E 		.ascii	"__gnuc_va_list\000"
 4625      75635F76 
 4625      615F6C69 
 4625      737400
 4626              	.LASF79:
 4627 045e 706F7274 		.ascii	"port_context\000"
 4627      5F636F6E 
 4627      74657874 
 4627      00
 4628              	.LASF82:
 4629 046b 746D5F63 		.ascii	"tm_calibration_t\000"
 4629      616C6962 
 4629      72617469 
 4629      6F6E5F74 
 4629      00
 4630              	.LASF31:
 4631 047c 7072696F 		.ascii	"prio\000"
 4631      00
 4632              	.LASF56:
 4633 0481 63757272 		.ascii	"current\000"
 4633      656E7400 
 4634              	.LASF116:
 4635 0489 4D656D53 		.ascii	"MemStreamVMT\000"
 4635      74726561 
 4635      6D564D54 
 4635      00
 4636              	.LASF13:
 4637 0496 5F5F7569 		.ascii	"__uint64_t\000"
 4637      6E743634 
 4637      5F7400
 4638              	.LASF86:
 4639 04a1 63756D75 		.ascii	"cumulative\000"
 4639      6C617469 
 4639      766500
 4640              	.LASF130:
 4641 04ac 666C6F61 		.ascii	"float\000"
 4641      7400
 4642              	.LASF38:
 4643 04b2 72656673 		.ascii	"refs\000"
ARM GAS  /tmp/ccLlgcLW.s 			page 86


 4643      00
 4644              	.LASF58:
 4645 04b7 76697274 		.ascii	"virtual_timer_t\000"
 4645      75616C5F 
 4645      74696D65 
 4645      725F7400 
 4646              	.LASF24:
 4647 04c7 74707269 		.ascii	"tprio_t\000"
 4647      6F5F7400 
 4648              	.LASF119:
 4649 04cf 4D656D6F 		.ascii	"MemoryStream\000"
 4649      72795374 
 4649      7265616D 
 4649      00
 4650              	.LASF89:
 4651 04dc 6E5F6374 		.ascii	"n_ctxswc\000"
 4651      78737763 
 4651      00
 4652              	.LASF106:
 4653 04e5 5F426F6F 		.ascii	"_Bool\000"
 4653      6C00
 4654              	.LASF16:
 4655 04eb 696E7433 		.ascii	"int32_t\000"
 4655      325F7400 
 4656              	.LASF5:
 4657 04f3 756E7369 		.ascii	"unsigned char\000"
 4657      676E6564 
 4657      20636861 
 4657      7200
 4658              	.LASF138:
 4659 0501 706F7731 		.ascii	"pow10\000"
 4659      3000
 4660              	.LASF6:
 4661 0507 73686F72 		.ascii	"short int\000"
 4661      7420696E 
 4661      7400
 4662              	.LASF64:
 4663 0511 6C617374 		.ascii	"lasttime\000"
 4663      74696D65 
 4663      00
 4664              	.LASF100:
 4665 051a 65776D61 		.ascii	"ewmask\000"
 4665      736B00
 4666              	.LASF69:
 4667 0521 63685F73 		.ascii	"ch_system\000"
 4667      79737465 
 4667      6D00
 4668              	.LASF107:
 4669 052b 42617365 		.ascii	"BaseSequentialStreamVMT\000"
 4669      53657175 
 4669      656E7469 
 4669      616C5374 
 4669      7265616D 
 4670              	.LASF120:
 4671 0543 72616469 		.ascii	"radix\000"
 4671      7800
 4672              	.LASF93:
ARM GAS  /tmp/ccLlgcLW.s 			page 87


 4673 0549 7264796D 		.ascii	"rdymsg\000"
 4673      736700
 4674              	.LASF59:
 4675 0550 63685F76 		.ascii	"ch_virtual_timer\000"
 4675      69727475 
 4675      616C5F74 
 4675      696D6572 
 4675      00
 4676              	.LASF101:
 4677 0561 63685F73 		.ascii	"ch_semaphore\000"
 4677      656D6170 
 4677      686F7265 
 4677      00
 4678              	.LASF17:
 4679 056e 75696E74 		.ascii	"uint32_t\000"
 4679      33325F74 
 4679      00
 4680              	.LASF99:
 4681 0577 77746D74 		.ascii	"wtmtxp\000"
 4681      787000
 4682              	.LASF49:
 4683 057e 63685F74 		.ascii	"ch_threads_list\000"
 4683      68726561 
 4683      64735F6C 
 4683      69737400 
 4684              	.LASF103:
 4685 058e 6F776E65 		.ascii	"owner\000"
 4685      7200
 4686              	.LASF137:
 4687 0594 6368736E 		.ascii	"chsnprintf\000"
 4687      7072696E 
 4687      746600
 4688              	.LASF35:
 4689 059f 77616261 		.ascii	"wabase\000"
 4689      736500
 4690              	.LASF104:
 4691 05a6 63686172 		.ascii	"char\000"
 4691      00
 4692              	.LASF33:
 4693 05ab 6F6C6465 		.ascii	"older\000"
 4693      7200
 4694              	.LASF124:
 4695 05b1 70726563 		.ascii	"precision\000"
 4695      6973696F 
 4695      6E00
 4696              	.LASF29:
 4697 05bb 74687265 		.ascii	"thread_t\000"
 4697      61645F74 
 4697      00
 4698              	.LASF83:
 4699 05c4 62657374 		.ascii	"best\000"
 4699      00
 4700              	.LASF74:
 4701 05c9 73797374 		.ascii	"systime_t\000"
 4701      696D655F 
 4701      7400
 4702              	.LASF57:
ARM GAS  /tmp/ccLlgcLW.s 			page 88


 4703 05d3 76746675 		.ascii	"vtfunc_t\000"
 4703      6E635F74 
 4703      00
 4704              	.LASF67:
 4705 05dc 70616E69 		.ascii	"panic_msg\000"
 4705      635F6D73 
 4705      6700
 4706              	.LASF81:
 4707 05e6 6F666673 		.ascii	"offset\000"
 4707      657400
 4708              	.LASF114:
 4709 05ed 5F5F6170 		.ascii	"__ap\000"
 4709      00
 4710              	.LASF142:
 4711 05f2 2F686F6D 		.ascii	"/home/kozinalexey/f4by/ardupilot/build/F4BY\000"
 4711      652F6B6F 
 4711      7A696E61 
 4711      6C657865 
 4711      792F6634 
 4712              	.LASF19:
 4713 061e 7274636E 		.ascii	"rtcnt_t\000"
 4713      745F7400 
 4714              	.LASF51:
 4715 0626 74687265 		.ascii	"threads_queue_t\000"
 4715      6164735F 
 4715      71756575 
 4715      655F7400 
 4716              	.LASF102:
 4717 0636 63685F6D 		.ascii	"ch_mutex\000"
 4717      75746578 
 4717      00
 4718              	.LASF23:
 4719 063f 74726566 		.ascii	"trefs_t\000"
 4719      735F7400 
 4720              	.LASF122:
 4721 0647 63685F6C 		.ascii	"ch_ltoa\000"
 4721      746F6100 
 4722              	.LASF70:
 4723 064f 726C6973 		.ascii	"rlist\000"
 4723      7400
 4724              	.LASF15:
 4725 0655 75696E74 		.ascii	"uint8_t\000"
 4725      385F7400 
 4726              	.LASF131:
 4727 065d 63687670 		.ascii	"chvprintf\000"
 4727      72696E74 
 4727      6600
 4728              	.LASF37:
 4729 0667 666C6167 		.ascii	"flags\000"
 4729      7300
 4730              	.LASF95:
 4731 066d 77746F62 		.ascii	"wtobjp\000"
 4731      6A7000
 4732              	.LASF143:
 4733 0674 6C6F6E67 		.ascii	"long_to_string_with_divisor\000"
 4733      5F746F5F 
 4733      73747269 
ARM GAS  /tmp/ccLlgcLW.s 			page 89


 4733      6E675F77 
 4733      6974685F 
 4734              	.LASF47:
 4735 0690 74687265 		.ascii	"threads_list_t\000"
 4735      6164735F 
 4735      6C697374 
 4735      5F7400
 4736              	.LASF21:
 4737 069f 746D6F64 		.ascii	"tmode_t\000"
 4737      655F7400 
 4738              	.LASF66:
 4739 06a7 63685F73 		.ascii	"ch_system_debug\000"
 4739      79737465 
 4739      6D5F6465 
 4739      62756700 
 4740              	.LASF108:
 4741 06b7 696E7374 		.ascii	"instance_offset\000"
 4741      616E6365 
 4741      5F6F6666 
 4741      73657400 
 4742              	.LASF42:
 4743 06c7 6D74786C 		.ascii	"mtxlist\000"
 4743      69737400 
 4744              	.LASF90:
 4745 06cf 6D5F6372 		.ascii	"m_crit_thd\000"
 4745      69745F74 
 4745      686400
 4746              	.LASF0:
 4747 06da 646F7562 		.ascii	"double\000"
 4747      6C6500
 4748              	.LASF52:
 4749 06e1 63685F74 		.ascii	"ch_threads_queue\000"
 4749      68726561 
 4749      64735F71 
 4749      75657565 
 4749      00
 4750              	.LASF132:
 4751 06f2 63687072 		.ascii	"chprintf\000"
 4751      696E7466 
 4751      00
 4752              		.ident	"GCC: (15:4.9.3+svn231177-1) 4.9.3 20150529 (prerelease)"
ARM GAS  /tmp/ccLlgcLW.s 			page 90


DEFINED SYMBOLS
                            *ABS*:0000000000000000 chprintf.c
     /tmp/ccLlgcLW.s:21     .text.long_to_string_with_divisor:0000000000000000 $t
     /tmp/ccLlgcLW.s:25     .text.long_to_string_with_divisor:0000000000000000 long_to_string_with_divisor
     /tmp/ccLlgcLW.s:104    .text.chvprintf:0000000000000000 $t
     /tmp/ccLlgcLW.s:109    .text.chvprintf:0000000000000000 chvprintf
     /tmp/ccLlgcLW.s:691    .text.chvprintf:00000000000002d0 $d
     /tmp/ccLlgcLW.s:697    .text.chprintf:0000000000000000 $t
     /tmp/ccLlgcLW.s:702    .text.chprintf:0000000000000000 chprintf
     /tmp/ccLlgcLW.s:742    .text.chvsnprintf:0000000000000000 $t
     /tmp/ccLlgcLW.s:747    .text.chvsnprintf:0000000000000000 chvsnprintf
     /tmp/ccLlgcLW.s:812    .text.chsnprintf:0000000000000000 $t
     /tmp/ccLlgcLW.s:817    .text.chsnprintf:0000000000000000 chsnprintf
     /tmp/ccLlgcLW.s:858    .rodata.pow10:0000000000000000 $d
     /tmp/ccLlgcLW.s:862    .rodata.pow10:0000000000000000 pow10
                     .debug_frame:0000000000000010 $d

UNDEFINED SYMBOLS
__aeabi_d2f
__aeabi_f2d
__aeabi_i2d
__aeabi_dsub
__aeabi_ui2d
__aeabi_dmul
__aeabi_d2iz
msObjectInit
