ARM GAS  /tmp/ccPVsYlv.s 			page 1


   1              		.syntax unified
   2              		.cpu cortex-m4
   3              		.eabi_attribute 27, 1
   4              		.eabi_attribute 28, 1
   5              		.fpu fpv4-sp-d16
   6              		.eabi_attribute 20, 1
   7              		.eabi_attribute 21, 1
   8              		.eabi_attribute 23, 3
   9              		.eabi_attribute 24, 1
  10              		.eabi_attribute 25, 1
  11              		.eabi_attribute 26, 1
  12              		.eabi_attribute 30, 4
  13              		.eabi_attribute 34, 1
  14              		.eabi_attribute 18, 4
  15              		.thumb
  16              		.file	"chregistry.c"
  17              		.text
  18              	.Ltext0:
  19              		.cfi_sections	.debug_frame
  20              		.section	.text.chRegFirstThread,"ax",%progbits
  21              		.align	1
  22              		.global	chRegFirstThread
  23              		.thumb
  24              		.thumb_func
  25              		.type	chRegFirstThread, %function
  26              	chRegFirstThread:
  27              	.LFB290:
  28              		.file 1 "../../modules/ChibiOS/os/rt/src/chregistry.c"
  29              		.loc 1 134 0
  30              		.cfi_startproc
  31              		@ args = 0, pretend = 0, frame = 0
  32              		@ frame_needed = 0, uses_anonymous_args = 0
  33              	.LVL0:
  34 0000 10B5     		push	{r4, lr}
  35              		.cfi_def_cfa_offset 8
  36              		.cfi_offset 4, -8
  37              		.cfi_offset 14, -4
  38              	.LBB28:
  39              	.LBB29:
  40              	.LBB30:
  41              	.LBB31:
  42              	.LBB32:
  43              		.file 2 "../../modules/ChibiOS/os/common/ext/ARM/CMSIS/Core/Include/cmsis_gcc.h"
  44              		.loc 2 493 0
  45 0002 2023     		movs	r3, #32
  46              	@ 493 "../../modules/ChibiOS/os/common/ext/ARM/CMSIS/Core/Include/cmsis_gcc.h" 1
  47 0004 83F31188 		MSR basepri, r3
  48              	@ 0 "" 2
  49              		.thumb
  50              	.LBE32:
  51              	.LBE31:
  52              	.LBE30:
  53              		.file 3 "../../modules/ChibiOS/os/rt/include/chsys.h"
  54              		.loc 3 356 0
  55 0008 FFF7FEFF 		bl	_stats_start_measure_crit_thd
  56              	.LVL1:
  57              	.LBE29:
ARM GAS  /tmp/ccPVsYlv.s 			page 2


  58              	.LBE28:
  59              		.loc 1 138 0
  60 000c 064B     		ldr	r3, .L2
  61 000e 1C69     		ldr	r4, [r3, #16]
  62              	.LVL2:
  63              		.loc 1 140 0
  64 0010 94F82230 		ldrb	r3, [r4, #34]	@ zero_extendqisi2
  65 0014 0133     		adds	r3, r3, #1
  66 0016 84F82230 		strb	r3, [r4, #34]
  67              	.LBB33:
  68              	.LBB34:
  69              		.loc 3 368 0
  70 001a FFF7FEFF 		bl	_stats_stop_measure_crit_thd
  71              	.LVL3:
  72              	.LBB35:
  73              	.LBB36:
  74              	.LBB37:
  75              		.loc 2 493 0
  76 001e 0023     		movs	r3, #0
  77              	@ 493 "../../modules/ChibiOS/os/common/ext/ARM/CMSIS/Core/Include/cmsis_gcc.h" 1
  78 0020 83F31188 		MSR basepri, r3
  79              	@ 0 "" 2
  80              		.thumb
  81              	.LBE37:
  82              	.LBE36:
  83              	.LBE35:
  84              	.LBE34:
  85              	.LBE33:
  86              		.loc 1 145 0
  87 0024 2046     		mov	r0, r4
  88 0026 10BD     		pop	{r4, pc}
  89              	.LVL4:
  90              	.L3:
  91              		.align	2
  92              	.L2:
  93 0028 00000000 		.word	ch
  94              		.cfi_endproc
  95              	.LFE290:
  96              		.size	chRegFirstThread, .-chRegFirstThread
  97              		.section	.text.chRegNextThread,"ax",%progbits
  98              		.align	1
  99              		.global	chRegNextThread
 100              		.thumb
 101              		.thumb_func
 102              		.type	chRegNextThread, %function
 103              	chRegNextThread:
 104              	.LFB291:
 105              		.loc 1 158 0
 106              		.cfi_startproc
 107              		@ args = 0, pretend = 0, frame = 0
 108              		@ frame_needed = 0, uses_anonymous_args = 0
 109              	.LVL5:
 110 0000 38B5     		push	{r3, r4, r5, lr}
 111              		.cfi_def_cfa_offset 16
 112              		.cfi_offset 3, -16
 113              		.cfi_offset 4, -12
 114              		.cfi_offset 5, -8
ARM GAS  /tmp/ccPVsYlv.s 			page 3


 115              		.cfi_offset 14, -4
 116              		.loc 1 158 0
 117 0002 0546     		mov	r5, r0
 118              	.LBB48:
 119              	.LBB49:
 120              	.LBB50:
 121              	.LBB51:
 122              	.LBB52:
 123              		.loc 2 493 0
 124 0004 2023     		movs	r3, #32
 125              	@ 493 "../../modules/ChibiOS/os/common/ext/ARM/CMSIS/Core/Include/cmsis_gcc.h" 1
 126 0006 83F31188 		MSR basepri, r3
 127              	@ 0 "" 2
 128              		.thumb
 129              	.LBE52:
 130              	.LBE51:
 131              	.LBE50:
 132              		.loc 3 356 0
 133 000a FFF7FEFF 		bl	_stats_start_measure_crit_thd
 134              	.LVL6:
 135              	.LBE49:
 136              	.LBE48:
 137              		.loc 1 162 0
 138 000e 2C69     		ldr	r4, [r5, #16]
 139              	.LVL7:
 140              		.loc 1 164 0
 141 0010 094B     		ldr	r3, .L7
 142 0012 9C42     		cmp	r4, r3
 143              		.loc 1 171 0
 144 0014 1DBF     		ittte	ne
 145 0016 94F82230 		ldrbne	r3, [r4, #34]	@ zero_extendqisi2
 146 001a 0133     		addne	r3, r3, #1
 147 001c 84F82230 		strbne	r3, [r4, #34]
 148              		.loc 1 166 0
 149 0020 0024     		moveq	r4, #0
 150              	.LVL8:
 151              	.LBB53:
 152              	.LBB54:
 153              		.loc 3 368 0
 154 0022 FFF7FEFF 		bl	_stats_stop_measure_crit_thd
 155              	.LVL9:
 156              	.LBB55:
 157              	.LBB56:
 158              	.LBB57:
 159              		.loc 2 493 0
 160 0026 0023     		movs	r3, #0
 161              	@ 493 "../../modules/ChibiOS/os/common/ext/ARM/CMSIS/Core/Include/cmsis_gcc.h" 1
 162 0028 83F31188 		MSR basepri, r3
 163              	@ 0 "" 2
 164              		.thumb
 165              	.LBE57:
 166              	.LBE56:
 167              	.LBE55:
 168              	.LBE54:
 169              	.LBE53:
 170              		.loc 1 176 0
 171 002c 2846     		mov	r0, r5
ARM GAS  /tmp/ccPVsYlv.s 			page 4


 172 002e FFF7FEFF 		bl	chThdRelease
 173              	.LVL10:
 174              		.loc 1 180 0
 175 0032 2046     		mov	r0, r4
 176 0034 38BD     		pop	{r3, r4, r5, pc}
 177              	.LVL11:
 178              	.L8:
 179 0036 00BF     		.align	2
 180              	.L7:
 181 0038 00000000 		.word	ch
 182              		.cfi_endproc
 183              	.LFE291:
 184              		.size	chRegNextThread, .-chRegNextThread
 185              		.section	.text.chRegFindThreadByName,"ax",%progbits
 186              		.align	1
 187              		.global	chRegFindThreadByName
 188              		.thumb
 189              		.thumb_func
 190              		.type	chRegFindThreadByName, %function
 191              	chRegFindThreadByName:
 192              	.LFB292:
 193              		.loc 1 194 0
 194              		.cfi_startproc
 195              		@ args = 0, pretend = 0, frame = 0
 196              		@ frame_needed = 0, uses_anonymous_args = 0
 197              	.LVL12:
 198 0000 38B5     		push	{r3, r4, r5, lr}
 199              		.cfi_def_cfa_offset 16
 200              		.cfi_offset 3, -16
 201              		.cfi_offset 4, -12
 202              		.cfi_offset 5, -8
 203              		.cfi_offset 14, -4
 204              		.loc 1 194 0
 205 0002 0546     		mov	r5, r0
 206              		.loc 1 198 0
 207 0004 FFF7FEFF 		bl	chRegFirstThread
 208              	.LVL13:
 209 0008 0446     		mov	r4, r0
 210              	.LVL14:
 211              	.L11:
 212              		.loc 1 200 0
 213 000a A069     		ldr	r0, [r4, #24]
 214              	.LVL15:
 215 000c 2946     		mov	r1, r5
 216 000e FFF7FEFF 		bl	strcmp
 217              	.LVL16:
 218 0012 28B1     		cbz	r0, .L10
 219              		.loc 1 203 0
 220 0014 2046     		mov	r0, r4
 221 0016 FFF7FEFF 		bl	chRegNextThread
 222              	.LVL17:
 223              		.loc 1 204 0
 224 001a 0446     		mov	r4, r0
 225              	.LVL18:
 226 001c 0028     		cmp	r0, #0
 227 001e F4D1     		bne	.L11
 228              	.LVL19:
ARM GAS  /tmp/ccPVsYlv.s 			page 5


 229              	.L10:
 230              		.loc 1 207 0
 231 0020 2046     		mov	r0, r4
 232 0022 38BD     		pop	{r3, r4, r5, pc}
 233              		.cfi_endproc
 234              	.LFE292:
 235              		.size	chRegFindThreadByName, .-chRegFindThreadByName
 236              		.section	.text.chRegFindThreadByPointer,"ax",%progbits
 237              		.align	1
 238              		.global	chRegFindThreadByPointer
 239              		.thumb
 240              		.thumb_func
 241              		.type	chRegFindThreadByPointer, %function
 242              	chRegFindThreadByPointer:
 243              	.LFB293:
 244              		.loc 1 221 0
 245              		.cfi_startproc
 246              		@ args = 0, pretend = 0, frame = 0
 247              		@ frame_needed = 0, uses_anonymous_args = 0
 248              	.LVL20:
 249 0000 10B5     		push	{r4, lr}
 250              		.cfi_def_cfa_offset 8
 251              		.cfi_offset 4, -8
 252              		.cfi_offset 14, -4
 253              		.loc 1 221 0
 254 0002 0446     		mov	r4, r0
 255              		.loc 1 225 0
 256 0004 FFF7FEFF 		bl	chRegFirstThread
 257              	.LVL21:
 258              	.L18:
 259              		.loc 1 227 0
 260 0008 A042     		cmp	r0, r4
 261 000a 03D0     		beq	.L17
 262              		.loc 1 230 0
 263 000c FFF7FEFF 		bl	chRegNextThread
 264              	.LVL22:
 265              		.loc 1 231 0
 266 0010 0028     		cmp	r0, #0
 267 0012 F9D1     		bne	.L18
 268              	.L17:
 269              		.loc 1 234 0
 270 0014 10BD     		pop	{r4, pc}
 271              		.cfi_endproc
 272              	.LFE293:
 273              		.size	chRegFindThreadByPointer, .-chRegFindThreadByPointer
 274              		.section	.text.chRegFindThreadByWorkingArea,"ax",%progbits
 275              		.align	1
 276              		.global	chRegFindThreadByWorkingArea
 277              		.thumb
 278              		.thumb_func
 279              		.type	chRegFindThreadByWorkingArea, %function
 280              	chRegFindThreadByWorkingArea:
 281              	.LFB294:
 282              		.loc 1 250 0
 283              		.cfi_startproc
 284              		@ args = 0, pretend = 0, frame = 0
 285              		@ frame_needed = 0, uses_anonymous_args = 0
ARM GAS  /tmp/ccPVsYlv.s 			page 6


 286              	.LVL23:
 287 0000 10B5     		push	{r4, lr}
 288              		.cfi_def_cfa_offset 8
 289              		.cfi_offset 4, -8
 290              		.cfi_offset 14, -4
 291              		.loc 1 250 0
 292 0002 0446     		mov	r4, r0
 293              		.loc 1 254 0
 294 0004 FFF7FEFF 		bl	chRegFirstThread
 295              	.LVL24:
 296              	.L23:
 297              		.loc 1 256 0
 298 0008 C369     		ldr	r3, [r0, #28]
 299 000a A342     		cmp	r3, r4
 300 000c 03D0     		beq	.L22
 301              		.loc 1 259 0
 302 000e FFF7FEFF 		bl	chRegNextThread
 303              	.LVL25:
 304              		.loc 1 260 0
 305 0012 0028     		cmp	r0, #0
 306 0014 F8D1     		bne	.L23
 307              	.L22:
 308              		.loc 1 263 0
 309 0016 10BD     		pop	{r4, pc}
 310              		.cfi_endproc
 311              	.LFE294:
 312              		.size	chRegFindThreadByWorkingArea, .-chRegFindThreadByWorkingArea
 313              		.global	ch_debug
 314              		.section	.rodata.ch_debug,"a",%progbits
 315              		.align	1
 316              		.type	ch_debug, %object
 317              		.size	ch_debug, 22
 318              	ch_debug:
 319 0000 6D       		.byte	109
 320 0001 61       		.byte	97
 321 0002 69       		.byte	105
 322 0003 6E       		.byte	110
 323 0004 00       		.byte	0
 324 0005 16       		.byte	22
 325 0006 0030     		.short	12288
 326 0008 04       		.byte	4
 327 0009 04       		.byte	4
 328 000a 60       		.byte	96
 329 000b 08       		.byte	8
 330 000c 0C       		.byte	12
 331 000d 10       		.byte	16
 332 000e 14       		.byte	20
 333 000f 18       		.byte	24
 334 0010 1C       		.byte	28
 335 0011 20       		.byte	32
 336 0012 21       		.byte	33
 337 0013 22       		.byte	34
 338 0014 00       		.byte	0
 339 0015 00       		.byte	0
 340              		.text
 341              	.Letext0:
 342              		.file 4 "/usr/lib/gcc/arm-none-eabi/4.9.3/include/stddef.h"
ARM GAS  /tmp/ccPVsYlv.s 			page 7


 343              		.file 5 "/usr/include/newlib/machine/_default_types.h"
 344              		.file 6 "/usr/include/newlib/sys/_stdint.h"
 345              		.file 7 "../../modules/ChibiOS/os/common/ports/ARMCMx/compilers/GCC/chtypes.h"
 346              		.file 8 "../../modules/ChibiOS/os/rt/include/chsystypes.h"
 347              		.file 9 "../../modules/ChibiOS/os/rt/include/chschd.h"
 348              		.file 10 "../../modules/ChibiOS/os/rt/include/chtime.h"
 349              		.file 11 "../../modules/ChibiOS/os/common/ports/ARMCMx/chcore.h"
 350              		.file 12 "../../modules/ChibiOS/os/common/ports/ARMCMx/chcore_v7m.h"
 351              		.file 13 "../../modules/ChibiOS/os/rt/include/chtm.h"
 352              		.file 14 "../../modules/ChibiOS/os/rt/include/chstats.h"
 353              		.file 15 "../../modules/ChibiOS/os/rt/include/chsem.h"
 354              		.file 16 "../../modules/ChibiOS/os/rt/include/chmtx.h"
 355              		.file 17 "../../modules/ChibiOS/os/rt/include/chregistry.h"
 356              		.file 18 "../../modules/ChibiOS/os/rt/include/chthreads.h"
 357              		.file 19 "../../modules/ChibiOS/os/common/ext/ARM/CMSIS/Core/Include/core_cm4.h"
 358              		.file 20 "/usr/include/newlib/string.h"
 359              		.section	.debug_info,"",%progbits
 360              	.Ldebug_info0:
 361 0000 780C0000 		.4byte	0xc78
 362 0004 0400     		.2byte	0x4
 363 0006 00000000 		.4byte	.Ldebug_abbrev0
 364 000a 04       		.byte	0x4
 365 000b 01       		.uleb128 0x1
 366 000c 33020000 		.4byte	.LASF146
 367 0010 01       		.byte	0x1
 368 0011 E6000000 		.4byte	.LASF147
 369 0015 87060000 		.4byte	.LASF148
 370 0019 00000000 		.4byte	.Ldebug_ranges0+0
 371 001d 00000000 		.4byte	0
 372 0021 00000000 		.4byte	.Ldebug_line0
 373 0025 02       		.uleb128 0x2
 374 0026 04       		.byte	0x4
 375 0027 05       		.byte	0x5
 376 0028 696E7400 		.ascii	"int\000"
 377 002c 03       		.uleb128 0x3
 378 002d 0D000000 		.4byte	.LASF2
 379 0031 04       		.byte	0x4
 380 0032 D4       		.byte	0xd4
 381 0033 37000000 		.4byte	0x37
 382 0037 04       		.uleb128 0x4
 383 0038 04       		.byte	0x4
 384 0039 07       		.byte	0x7
 385 003a 26020000 		.4byte	.LASF0
 386 003e 04       		.uleb128 0x4
 387 003f 01       		.byte	0x1
 388 0040 06       		.byte	0x6
 389 0041 2F010000 		.4byte	.LASF1
 390 0045 03       		.uleb128 0x3
 391 0046 37000000 		.4byte	.LASF3
 392 004a 05       		.byte	0x5
 393 004b 1D       		.byte	0x1d
 394 004c 50000000 		.4byte	0x50
 395 0050 04       		.uleb128 0x4
 396 0051 01       		.byte	0x1
 397 0052 08       		.byte	0x8
 398 0053 0A050000 		.4byte	.LASF4
 399 0057 04       		.uleb128 0x4
ARM GAS  /tmp/ccPVsYlv.s 			page 8


 400 0058 02       		.byte	0x2
 401 0059 05       		.byte	0x5
 402 005a 2E050000 		.4byte	.LASF5
 403 005e 03       		.uleb128 0x3
 404 005f 1F060000 		.4byte	.LASF6
 405 0063 05       		.byte	0x5
 406 0064 2B       		.byte	0x2b
 407 0065 69000000 		.4byte	0x69
 408 0069 04       		.uleb128 0x4
 409 006a 02       		.byte	0x2
 410 006b 07       		.byte	0x7
 411 006c 74060000 		.4byte	.LASF7
 412 0070 03       		.uleb128 0x3
 413 0071 DF030000 		.4byte	.LASF8
 414 0075 05       		.byte	0x5
 415 0076 3F       		.byte	0x3f
 416 0077 7B000000 		.4byte	0x7b
 417 007b 04       		.uleb128 0x4
 418 007c 04       		.byte	0x4
 419 007d 05       		.byte	0x5
 420 007e 87010000 		.4byte	.LASF9
 421 0082 03       		.uleb128 0x3
 422 0083 D9010000 		.4byte	.LASF10
 423 0087 05       		.byte	0x5
 424 0088 41       		.byte	0x41
 425 0089 8D000000 		.4byte	0x8d
 426 008d 04       		.uleb128 0x4
 427 008e 04       		.byte	0x4
 428 008f 07       		.byte	0x7
 429 0090 F1050000 		.4byte	.LASF11
 430 0094 04       		.uleb128 0x4
 431 0095 08       		.byte	0x8
 432 0096 05       		.byte	0x5
 433 0097 21010000 		.4byte	.LASF12
 434 009b 03       		.uleb128 0x3
 435 009c AD040000 		.4byte	.LASF13
 436 00a0 05       		.byte	0x5
 437 00a1 5B       		.byte	0x5b
 438 00a2 A6000000 		.4byte	0xa6
 439 00a6 04       		.uleb128 0x4
 440 00a7 08       		.byte	0x8
 441 00a8 07       		.byte	0x7
 442 00a9 95000000 		.4byte	.LASF14
 443 00ad 04       		.uleb128 0x4
 444 00ae 04       		.byte	0x4
 445 00af 07       		.byte	0x7
 446 00b0 45040000 		.4byte	.LASF15
 447 00b4 05       		.uleb128 0x5
 448 00b5 04       		.byte	0x4
 449 00b6 04       		.uleb128 0x4
 450 00b7 01       		.byte	0x1
 451 00b8 08       		.byte	0x8
 452 00b9 0A060000 		.4byte	.LASF16
 453 00bd 06       		.uleb128 0x6
 454 00be 04       		.byte	0x4
 455 00bf C3000000 		.4byte	0xc3
 456 00c3 07       		.uleb128 0x7
ARM GAS  /tmp/ccPVsYlv.s 			page 9


 457 00c4 B6000000 		.4byte	0xb6
 458 00c8 03       		.uleb128 0x3
 459 00c9 03070000 		.4byte	.LASF17
 460 00cd 06       		.byte	0x6
 461 00ce 14       		.byte	0x14
 462 00cf 45000000 		.4byte	0x45
 463 00d3 03       		.uleb128 0x3
 464 00d4 22030000 		.4byte	.LASF18
 465 00d8 06       		.byte	0x6
 466 00d9 1A       		.byte	0x1a
 467 00da 5E000000 		.4byte	0x5e
 468 00de 03       		.uleb128 0x3
 469 00df 02050000 		.4byte	.LASF19
 470 00e3 06       		.byte	0x6
 471 00e4 1F       		.byte	0x1f
 472 00e5 70000000 		.4byte	0x70
 473 00e9 03       		.uleb128 0x3
 474 00ea B7050000 		.4byte	.LASF20
 475 00ee 06       		.byte	0x6
 476 00ef 20       		.byte	0x20
 477 00f0 82000000 		.4byte	0x82
 478 00f4 03       		.uleb128 0x3
 479 00f5 21000000 		.4byte	.LASF21
 480 00f9 06       		.byte	0x6
 481 00fa 26       		.byte	0x26
 482 00fb 9B000000 		.4byte	0x9b
 483 00ff 03       		.uleb128 0x3
 484 0100 BE060000 		.4byte	.LASF22
 485 0104 07       		.byte	0x7
 486 0105 27       		.byte	0x27
 487 0106 E9000000 		.4byte	0xe9
 488 010a 03       		.uleb128 0x3
 489 010b 18010000 		.4byte	.LASF23
 490 010f 07       		.byte	0x7
 491 0110 28       		.byte	0x28
 492 0111 F4000000 		.4byte	0xf4
 493 0115 03       		.uleb128 0x3
 494 0116 A9030000 		.4byte	.LASF24
 495 011a 07       		.byte	0x7
 496 011b 2A       		.byte	0x2a
 497 011c C8000000 		.4byte	0xc8
 498 0120 03       		.uleb128 0x3
 499 0121 90010000 		.4byte	.LASF25
 500 0125 07       		.byte	0x7
 501 0126 2B       		.byte	0x2b
 502 0127 C8000000 		.4byte	0xc8
 503 012b 03       		.uleb128 0x3
 504 012c C3040000 		.4byte	.LASF26
 505 0130 07       		.byte	0x7
 506 0131 2C       		.byte	0x2c
 507 0132 C8000000 		.4byte	0xc8
 508 0136 03       		.uleb128 0x3
 509 0137 EB040000 		.4byte	.LASF27
 510 013b 07       		.byte	0x7
 511 013c 2E       		.byte	0x2e
 512 013d E9000000 		.4byte	0xe9
 513 0141 03       		.uleb128 0x3
ARM GAS  /tmp/ccPVsYlv.s 			page 10


 514 0142 7A030000 		.4byte	.LASF28
 515 0146 07       		.byte	0x7
 516 0147 2F       		.byte	0x2f
 517 0148 DE000000 		.4byte	0xde
 518 014c 03       		.uleb128 0x3
 519 014d CA030000 		.4byte	.LASF29
 520 0151 07       		.byte	0x7
 521 0152 31       		.byte	0x31
 522 0153 E9000000 		.4byte	0xe9
 523 0157 03       		.uleb128 0x3
 524 0158 20020000 		.4byte	.LASF30
 525 015c 07       		.byte	0x7
 526 015d 33       		.byte	0x33
 527 015e DE000000 		.4byte	0xde
 528 0162 03       		.uleb128 0x3
 529 0163 85030000 		.4byte	.LASF31
 530 0167 07       		.byte	0x7
 531 0168 34       		.byte	0x34
 532 0169 E9000000 		.4byte	0xe9
 533 016d 03       		.uleb128 0x3
 534 016e 2A060000 		.4byte	.LASF32
 535 0172 08       		.byte	0x8
 536 0173 34       		.byte	0x34
 537 0174 78010000 		.4byte	0x178
 538 0178 08       		.uleb128 0x8
 539 0179 6B030000 		.4byte	.LASF51
 540 017d 60       		.byte	0x60
 541 017e 09       		.byte	0x9
 542 017f 8E       		.byte	0x8e
 543 0180 63020000 		.4byte	0x263
 544 0184 09       		.uleb128 0x9
 545 0185 47030000 		.4byte	.LASF33
 546 0189 09       		.byte	0x9
 547 018a 8F       		.byte	0x8f
 548 018b 98020000 		.4byte	0x298
 549 018f 00       		.byte	0
 550 0190 09       		.uleb128 0x9
 551 0191 A0040000 		.4byte	.LASF34
 552 0195 09       		.byte	0x9
 553 0196 90       		.byte	0x90
 554 0197 36010000 		.4byte	0x136
 555 019b 08       		.byte	0x8
 556 019c 0A       		.uleb128 0xa
 557 019d 63747800 		.ascii	"ctx\000"
 558 01a1 09       		.byte	0x9
 559 01a2 91       		.byte	0x91
 560 01a3 AA040000 		.4byte	0x4aa
 561 01a7 0C       		.byte	0xc
 562 01a8 09       		.uleb128 0x9
 563 01a9 11040000 		.4byte	.LASF35
 564 01ad 09       		.byte	0x9
 565 01ae 93       		.byte	0x93
 566 01af 6E020000 		.4byte	0x26e
 567 01b3 10       		.byte	0x10
 568 01b4 09       		.uleb128 0x9
 569 01b5 D3010000 		.4byte	.LASF36
 570 01b9 09       		.byte	0x9
ARM GAS  /tmp/ccPVsYlv.s 			page 11


 571 01ba 94       		.byte	0x94
 572 01bb 6E020000 		.4byte	0x26e
 573 01bf 14       		.byte	0x14
 574 01c0 09       		.uleb128 0x9
 575 01c1 75030000 		.4byte	.LASF37
 576 01c5 09       		.byte	0x9
 577 01c6 9B       		.byte	0x9b
 578 01c7 BD000000 		.4byte	0xbd
 579 01cb 18       		.byte	0x18
 580 01cc 09       		.uleb128 0x9
 581 01cd 03060000 		.4byte	.LASF38
 582 01d1 09       		.byte	0x9
 583 01d2 A4       		.byte	0xa4
 584 01d3 90070000 		.4byte	0x790
 585 01d7 1C       		.byte	0x1c
 586 01d8 09       		.uleb128 0x9
 587 01d9 81010000 		.4byte	.LASF39
 588 01dd 09       		.byte	0x9
 589 01de A9       		.byte	0xa9
 590 01df 20010000 		.4byte	0x120
 591 01e3 20       		.byte	0x20
 592 01e4 09       		.uleb128 0x9
 593 01e5 0B070000 		.4byte	.LASF40
 594 01e9 09       		.byte	0x9
 595 01ea AD       		.byte	0xad
 596 01eb 15010000 		.4byte	0x115
 597 01ef 21       		.byte	0x21
 598 01f0 09       		.uleb128 0x9
 599 01f1 D6040000 		.4byte	.LASF41
 600 01f5 09       		.byte	0x9
 601 01f6 B2       		.byte	0xb2
 602 01f7 2B010000 		.4byte	0x12b
 603 01fb 22       		.byte	0x22
 604 01fc 0B       		.uleb128 0xb
 605 01fd 7500     		.ascii	"u\000"
 606 01ff 09       		.byte	0x9
 607 0200 0301     		.2byte	0x103
 608 0202 C6060000 		.4byte	0x6c6
 609 0206 24       		.byte	0x24
 610 0207 0C       		.uleb128 0xc
 611 0208 FD010000 		.4byte	.LASF42
 612 020c 09       		.byte	0x9
 613 020d 0801     		.2byte	0x108
 614 020f 74020000 		.4byte	0x274
 615 0213 28       		.byte	0x28
 616 0214 0C       		.uleb128 0xc
 617 0215 78010000 		.4byte	.LASF43
 618 0219 09       		.byte	0x9
 619 021a 0E01     		.2byte	0x10e
 620 021c 98020000 		.4byte	0x298
 621 0220 2C       		.byte	0x2c
 622 0221 0C       		.uleb128 0xc
 623 0222 8C030000 		.4byte	.LASF44
 624 0226 09       		.byte	0x9
 625 0227 1401     		.2byte	0x114
 626 0229 4C010000 		.4byte	0x14c
 627 022d 34       		.byte	0x34
ARM GAS  /tmp/ccPVsYlv.s 			page 12


 628 022e 0C       		.uleb128 0xc
 629 022f 65070000 		.4byte	.LASF45
 630 0233 09       		.byte	0x9
 631 0234 1B01     		.2byte	0x11b
 632 0236 8A070000 		.4byte	0x78a
 633 023a 38       		.byte	0x38
 634 023b 0C       		.uleb128 0xc
 635 023c 17040000 		.4byte	.LASF46
 636 0240 09       		.byte	0x9
 637 0241 1F01     		.2byte	0x11f
 638 0243 36010000 		.4byte	0x136
 639 0247 3C       		.byte	0x3c
 640 0248 0C       		.uleb128 0xc
 641 0249 4D030000 		.4byte	.LASF47
 642 024d 09       		.byte	0x9
 643 024e 2601     		.2byte	0x126
 644 0250 B4000000 		.4byte	0xb4
 645 0254 40       		.byte	0x40
 646 0255 0C       		.uleb128 0xc
 647 0256 9E010000 		.4byte	.LASF48
 648 025a 09       		.byte	0x9
 649 025b 2C01     		.2byte	0x12c
 650 025d 77060000 		.4byte	0x677
 651 0261 48       		.byte	0x48
 652 0262 00       		.byte	0
 653 0263 03       		.uleb128 0x3
 654 0264 4E040000 		.4byte	.LASF49
 655 0268 08       		.byte	0x8
 656 0269 39       		.byte	0x39
 657 026a 6E020000 		.4byte	0x26e
 658 026e 06       		.uleb128 0x6
 659 026f 04       		.byte	0x4
 660 0270 6D010000 		.4byte	0x16d
 661 0274 03       		.uleb128 0x3
 662 0275 36070000 		.4byte	.LASF50
 663 0279 08       		.byte	0x8
 664 027a 3E       		.byte	0x3e
 665 027b 7F020000 		.4byte	0x27f
 666 027f 08       		.uleb128 0x8
 667 0280 C7050000 		.4byte	.LASF52
 668 0284 04       		.byte	0x4
 669 0285 09       		.byte	0x9
 670 0286 7C       		.byte	0x7c
 671 0287 98020000 		.4byte	0x298
 672 028b 09       		.uleb128 0x9
 673 028c 13010000 		.4byte	.LASF53
 674 0290 09       		.byte	0x9
 675 0291 7D       		.byte	0x7d
 676 0292 6E020000 		.4byte	0x26e
 677 0296 00       		.byte	0
 678 0297 00       		.byte	0
 679 0298 03       		.uleb128 0x3
 680 0299 E4060000 		.4byte	.LASF54
 681 029d 08       		.byte	0x8
 682 029e 45       		.byte	0x45
 683 029f A3020000 		.4byte	0x2a3
 684 02a3 08       		.uleb128 0x8
ARM GAS  /tmp/ccPVsYlv.s 			page 13


 685 02a4 52000000 		.4byte	.LASF55
 686 02a8 08       		.byte	0x8
 687 02a9 09       		.byte	0x9
 688 02aa 83       		.byte	0x83
 689 02ab C8020000 		.4byte	0x2c8
 690 02af 09       		.uleb128 0x9
 691 02b0 13010000 		.4byte	.LASF53
 692 02b4 09       		.byte	0x9
 693 02b5 84       		.byte	0x84
 694 02b6 6E020000 		.4byte	0x26e
 695 02ba 00       		.byte	0
 696 02bb 09       		.uleb128 0x9
 697 02bc 41000000 		.4byte	.LASF56
 698 02c0 09       		.byte	0x9
 699 02c1 85       		.byte	0x85
 700 02c2 6E020000 		.4byte	0x26e
 701 02c6 04       		.byte	0x4
 702 02c7 00       		.byte	0
 703 02c8 03       		.uleb128 0x3
 704 02c9 00000000 		.4byte	.LASF57
 705 02cd 08       		.byte	0x8
 706 02ce 4C       		.byte	0x4c
 707 02cf D3020000 		.4byte	0x2d3
 708 02d3 0D       		.uleb128 0xd
 709 02d4 BC030000 		.4byte	.LASF58
 710 02d8 1C       		.byte	0x1c
 711 02d9 09       		.byte	0x9
 712 02da 5E01     		.2byte	0x15e
 713 02dc 2F030000 		.4byte	0x32f
 714 02e0 0C       		.uleb128 0xc
 715 02e1 47030000 		.4byte	.LASF33
 716 02e5 09       		.byte	0x9
 717 02e6 5F01     		.2byte	0x15f
 718 02e8 98020000 		.4byte	0x298
 719 02ec 00       		.byte	0
 720 02ed 0C       		.uleb128 0xc
 721 02ee A0040000 		.4byte	.LASF34
 722 02f2 09       		.byte	0x9
 723 02f3 6001     		.2byte	0x160
 724 02f5 36010000 		.4byte	0x136
 725 02f9 08       		.byte	0x8
 726 02fa 0B       		.uleb128 0xb
 727 02fb 63747800 		.ascii	"ctx\000"
 728 02ff 09       		.byte	0x9
 729 0300 6201     		.2byte	0x162
 730 0302 AA040000 		.4byte	0x4aa
 731 0306 0C       		.byte	0xc
 732 0307 0C       		.uleb128 0xc
 733 0308 11040000 		.4byte	.LASF35
 734 030c 09       		.byte	0x9
 735 030d 6501     		.2byte	0x165
 736 030f 6E020000 		.4byte	0x26e
 737 0313 10       		.byte	0x10
 738 0314 0C       		.uleb128 0xc
 739 0315 D3010000 		.4byte	.LASF36
 740 0319 09       		.byte	0x9
 741 031a 6601     		.2byte	0x166
ARM GAS  /tmp/ccPVsYlv.s 			page 14


 742 031c 6E020000 		.4byte	0x26e
 743 0320 14       		.byte	0x14
 744 0321 0C       		.uleb128 0xc
 745 0322 A5040000 		.4byte	.LASF59
 746 0326 09       		.byte	0x9
 747 0327 6901     		.2byte	0x169
 748 0329 6E020000 		.4byte	0x26e
 749 032d 18       		.byte	0x18
 750 032e 00       		.byte	0
 751 032f 03       		.uleb128 0x3
 752 0330 42060000 		.4byte	.LASF60
 753 0334 08       		.byte	0x8
 754 0335 51       		.byte	0x51
 755 0336 3A030000 		.4byte	0x33a
 756 033a 06       		.uleb128 0x6
 757 033b 04       		.byte	0x4
 758 033c 40030000 		.4byte	0x340
 759 0340 0E       		.uleb128 0xe
 760 0341 4B030000 		.4byte	0x34b
 761 0345 0F       		.uleb128 0xf
 762 0346 B4000000 		.4byte	0xb4
 763 034a 00       		.byte	0
 764 034b 03       		.uleb128 0x3
 765 034c DB040000 		.4byte	.LASF61
 766 0350 08       		.byte	0x8
 767 0351 56       		.byte	0x56
 768 0352 56030000 		.4byte	0x356
 769 0356 0D       		.uleb128 0xd
 770 0357 87050000 		.4byte	.LASF62
 771 035b 14       		.byte	0x14
 772 035c 09       		.byte	0x9
 773 035d 3901     		.2byte	0x139
 774 035f A5030000 		.4byte	0x3a5
 775 0363 0C       		.uleb128 0xc
 776 0364 13010000 		.4byte	.LASF53
 777 0368 09       		.byte	0x9
 778 0369 3A01     		.2byte	0x13a
 779 036b 96070000 		.4byte	0x796
 780 036f 00       		.byte	0
 781 0370 0C       		.uleb128 0xc
 782 0371 41000000 		.4byte	.LASF56
 783 0375 09       		.byte	0x9
 784 0376 3B01     		.2byte	0x13b
 785 0378 96070000 		.4byte	0x796
 786 037c 04       		.byte	0x4
 787 037d 0C       		.uleb128 0xc
 788 037e 14000000 		.4byte	.LASF63
 789 0382 09       		.byte	0x9
 790 0383 3C01     		.2byte	0x13c
 791 0385 89040000 		.4byte	0x489
 792 0389 08       		.byte	0x8
 793 038a 0C       		.uleb128 0xc
 794 038b 99010000 		.4byte	.LASF64
 795 038f 09       		.byte	0x9
 796 0390 3D01     		.2byte	0x13d
 797 0392 2F030000 		.4byte	0x32f
 798 0396 0C       		.byte	0xc
ARM GAS  /tmp/ccPVsYlv.s 			page 15


 799 0397 0B       		.uleb128 0xb
 800 0398 70617200 		.ascii	"par\000"
 801 039c 09       		.byte	0x9
 802 039d 3F01     		.2byte	0x13f
 803 039f B4000000 		.4byte	0xb4
 804 03a3 10       		.byte	0x10
 805 03a4 00       		.byte	0
 806 03a5 03       		.uleb128 0x3
 807 03a6 E9030000 		.4byte	.LASF65
 808 03aa 08       		.byte	0x8
 809 03ab 5B       		.byte	0x5b
 810 03ac B0030000 		.4byte	0x3b0
 811 03b0 0D       		.uleb128 0xd
 812 03b1 61040000 		.4byte	.LASF66
 813 03b5 10       		.byte	0x10
 814 03b6 09       		.byte	0x9
 815 03b7 4901     		.2byte	0x149
 816 03b9 F2030000 		.4byte	0x3f2
 817 03bd 0C       		.uleb128 0xc
 818 03be 13010000 		.4byte	.LASF53
 819 03c2 09       		.byte	0x9
 820 03c3 4A01     		.2byte	0x14a
 821 03c5 96070000 		.4byte	0x796
 822 03c9 00       		.byte	0
 823 03ca 0C       		.uleb128 0xc
 824 03cb 41000000 		.4byte	.LASF56
 825 03cf 09       		.byte	0x9
 826 03d0 4C01     		.2byte	0x14c
 827 03d2 96070000 		.4byte	0x796
 828 03d6 04       		.byte	0x4
 829 03d7 0C       		.uleb128 0xc
 830 03d8 14000000 		.4byte	.LASF63
 831 03dc 09       		.byte	0x9
 832 03dd 4E01     		.2byte	0x14e
 833 03df 89040000 		.4byte	0x489
 834 03e3 08       		.byte	0x8
 835 03e4 0C       		.uleb128 0xc
 836 03e5 38050000 		.4byte	.LASF67
 837 03e9 09       		.byte	0x9
 838 03ea 5601     		.2byte	0x156
 839 03ec 7E040000 		.4byte	0x47e
 840 03f0 0C       		.byte	0xc
 841 03f1 00       		.byte	0
 842 03f2 03       		.uleb128 0x3
 843 03f3 63000000 		.4byte	.LASF68
 844 03f7 08       		.byte	0x8
 845 03f8 60       		.byte	0x60
 846 03f9 FD030000 		.4byte	0x3fd
 847 03fd 0D       		.uleb128 0xd
 848 03fe ED010000 		.4byte	.LASF69
 849 0402 04       		.byte	0x4
 850 0403 09       		.byte	0x9
 851 0404 7001     		.2byte	0x170
 852 0406 18040000 		.4byte	0x418
 853 040a 0C       		.uleb128 0xc
 854 040b 59060000 		.4byte	.LASF70
 855 040f 09       		.byte	0x9
ARM GAS  /tmp/ccPVsYlv.s 			page 16


 856 0410 7801     		.2byte	0x178
 857 0412 9C070000 		.4byte	0x79c
 858 0416 00       		.byte	0
 859 0417 00       		.byte	0
 860 0418 03       		.uleb128 0x3
 861 0419 95030000 		.4byte	.LASF71
 862 041d 08       		.byte	0x8
 863 041e 65       		.byte	0x65
 864 041f 23040000 		.4byte	0x423
 865 0423 0D       		.uleb128 0xd
 866 0424 5D050000 		.4byte	.LASF72
 867 0428 D0       		.byte	0xd0
 868 0429 09       		.byte	0x9
 869 042a 9001     		.2byte	0x190
 870 042c 7E040000 		.4byte	0x47e
 871 0430 0C       		.uleb128 0xc
 872 0431 FD060000 		.4byte	.LASF73
 873 0435 09       		.byte	0x9
 874 0436 9401     		.2byte	0x194
 875 0438 C8020000 		.4byte	0x2c8
 876 043c 00       		.byte	0
 877 043d 0C       		.uleb128 0xc
 878 043e 65010000 		.4byte	.LASF74
 879 0442 09       		.byte	0x9
 880 0443 9801     		.2byte	0x198
 881 0445 A5030000 		.4byte	0x3a5
 882 0449 1C       		.byte	0x1c
 883 044a 0B       		.uleb128 0xb
 884 044b 64626700 		.ascii	"dbg\000"
 885 044f 09       		.byte	0x9
 886 0450 9C01     		.2byte	0x19c
 887 0452 F2030000 		.4byte	0x3f2
 888 0456 2C       		.byte	0x2c
 889 0457 0C       		.uleb128 0xc
 890 0458 B5000000 		.4byte	.LASF75
 891 045c 09       		.byte	0x9
 892 045d A001     		.2byte	0x1a0
 893 045f 6D010000 		.4byte	0x16d
 894 0463 30       		.byte	0x30
 895 0464 0B       		.uleb128 0xb
 896 0465 746D00   		.ascii	"tm\000"
 897 0468 09       		.byte	0x9
 898 0469 A501     		.2byte	0x1a5
 899 046b 29060000 		.4byte	0x629
 900 046f 90       		.byte	0x90
 901 0470 0C       		.uleb128 0xc
 902 0471 2A000000 		.4byte	.LASF76
 903 0475 09       		.byte	0x9
 904 0476 AB01     		.2byte	0x1ab
 905 0478 BB060000 		.4byte	0x6bb
 906 047c 98       		.byte	0x98
 907 047d 00       		.byte	0
 908 047e 03       		.uleb128 0x3
 909 047f 38060000 		.4byte	.LASF77
 910 0483 0A       		.byte	0xa
 911 0484 6D       		.byte	0x6d
 912 0485 E9000000 		.4byte	0xe9
ARM GAS  /tmp/ccPVsYlv.s 			page 17


 913 0489 03       		.uleb128 0x3
 914 048a 12020000 		.4byte	.LASF78
 915 048e 0A       		.byte	0xa
 916 048f 79       		.byte	0x79
 917 0490 E9000000 		.4byte	0xe9
 918 0494 03       		.uleb128 0x3
 919 0495 E4010000 		.4byte	.LASF79
 920 0499 0B       		.byte	0xb
 921 049a 65       		.byte	0x65
 922 049b B4000000 		.4byte	0xb4
 923 049f 03       		.uleb128 0x3
 924 04a0 06040000 		.4byte	.LASF80
 925 04a4 0B       		.byte	0xb
 926 04a5 6D       		.byte	0x6d
 927 04a6 F4000000 		.4byte	0xf4
 928 04aa 08       		.uleb128 0x8
 929 04ab 82040000 		.4byte	.LASF81
 930 04af 04       		.byte	0x4
 931 04b0 0B       		.byte	0xb
 932 04b1 89       		.byte	0x89
 933 04b2 C2040000 		.4byte	0x4c2
 934 04b6 0A       		.uleb128 0xa
 935 04b7 737000   		.ascii	"sp\000"
 936 04ba 0B       		.byte	0xb
 937 04bb 8A       		.byte	0x8a
 938 04bc 0E060000 		.4byte	0x60e
 939 04c0 00       		.byte	0
 940 04c1 00       		.byte	0
 941 04c2 0D       		.uleb128 0xd
 942 04c3 46000000 		.4byte	.LASF82
 943 04c7 64       		.byte	0x64
 944 04c8 0C       		.byte	0xc
 945 04c9 5901     		.2byte	0x159
 946 04cb 0E060000 		.4byte	0x60e
 947 04cf 0B       		.uleb128 0xb
 948 04d0 73313600 		.ascii	"s16\000"
 949 04d4 0C       		.byte	0xc
 950 04d5 5B01     		.2byte	0x15b
 951 04d7 94040000 		.4byte	0x494
 952 04db 00       		.byte	0
 953 04dc 0B       		.uleb128 0xb
 954 04dd 73313700 		.ascii	"s17\000"
 955 04e1 0C       		.byte	0xc
 956 04e2 5C01     		.2byte	0x15c
 957 04e4 94040000 		.4byte	0x494
 958 04e8 04       		.byte	0x4
 959 04e9 0B       		.uleb128 0xb
 960 04ea 73313800 		.ascii	"s18\000"
 961 04ee 0C       		.byte	0xc
 962 04ef 5D01     		.2byte	0x15d
 963 04f1 94040000 		.4byte	0x494
 964 04f5 08       		.byte	0x8
 965 04f6 0B       		.uleb128 0xb
 966 04f7 73313900 		.ascii	"s19\000"
 967 04fb 0C       		.byte	0xc
 968 04fc 5E01     		.2byte	0x15e
 969 04fe 94040000 		.4byte	0x494
ARM GAS  /tmp/ccPVsYlv.s 			page 18


 970 0502 0C       		.byte	0xc
 971 0503 0B       		.uleb128 0xb
 972 0504 73323000 		.ascii	"s20\000"
 973 0508 0C       		.byte	0xc
 974 0509 5F01     		.2byte	0x15f
 975 050b 94040000 		.4byte	0x494
 976 050f 10       		.byte	0x10
 977 0510 0B       		.uleb128 0xb
 978 0511 73323100 		.ascii	"s21\000"
 979 0515 0C       		.byte	0xc
 980 0516 6001     		.2byte	0x160
 981 0518 94040000 		.4byte	0x494
 982 051c 14       		.byte	0x14
 983 051d 0B       		.uleb128 0xb
 984 051e 73323200 		.ascii	"s22\000"
 985 0522 0C       		.byte	0xc
 986 0523 6101     		.2byte	0x161
 987 0525 94040000 		.4byte	0x494
 988 0529 18       		.byte	0x18
 989 052a 0B       		.uleb128 0xb
 990 052b 73323300 		.ascii	"s23\000"
 991 052f 0C       		.byte	0xc
 992 0530 6201     		.2byte	0x162
 993 0532 94040000 		.4byte	0x494
 994 0536 1C       		.byte	0x1c
 995 0537 0B       		.uleb128 0xb
 996 0538 73323400 		.ascii	"s24\000"
 997 053c 0C       		.byte	0xc
 998 053d 6301     		.2byte	0x163
 999 053f 94040000 		.4byte	0x494
 1000 0543 20       		.byte	0x20
 1001 0544 0B       		.uleb128 0xb
 1002 0545 73323500 		.ascii	"s25\000"
 1003 0549 0C       		.byte	0xc
 1004 054a 6401     		.2byte	0x164
 1005 054c 94040000 		.4byte	0x494
 1006 0550 24       		.byte	0x24
 1007 0551 0B       		.uleb128 0xb
 1008 0552 73323600 		.ascii	"s26\000"
 1009 0556 0C       		.byte	0xc
 1010 0557 6501     		.2byte	0x165
 1011 0559 94040000 		.4byte	0x494
 1012 055d 28       		.byte	0x28
 1013 055e 0B       		.uleb128 0xb
 1014 055f 73323700 		.ascii	"s27\000"
 1015 0563 0C       		.byte	0xc
 1016 0564 6601     		.2byte	0x166
 1017 0566 94040000 		.4byte	0x494
 1018 056a 2C       		.byte	0x2c
 1019 056b 0B       		.uleb128 0xb
 1020 056c 73323800 		.ascii	"s28\000"
 1021 0570 0C       		.byte	0xc
 1022 0571 6701     		.2byte	0x167
 1023 0573 94040000 		.4byte	0x494
 1024 0577 30       		.byte	0x30
 1025 0578 0B       		.uleb128 0xb
 1026 0579 73323900 		.ascii	"s29\000"
ARM GAS  /tmp/ccPVsYlv.s 			page 19


 1027 057d 0C       		.byte	0xc
 1028 057e 6801     		.2byte	0x168
 1029 0580 94040000 		.4byte	0x494
 1030 0584 34       		.byte	0x34
 1031 0585 0B       		.uleb128 0xb
 1032 0586 73333000 		.ascii	"s30\000"
 1033 058a 0C       		.byte	0xc
 1034 058b 6901     		.2byte	0x169
 1035 058d 94040000 		.4byte	0x494
 1036 0591 38       		.byte	0x38
 1037 0592 0B       		.uleb128 0xb
 1038 0593 73333100 		.ascii	"s31\000"
 1039 0597 0C       		.byte	0xc
 1040 0598 6A01     		.2byte	0x16a
 1041 059a 94040000 		.4byte	0x494
 1042 059e 3C       		.byte	0x3c
 1043 059f 0B       		.uleb128 0xb
 1044 05a0 723400   		.ascii	"r4\000"
 1045 05a3 0C       		.byte	0xc
 1046 05a4 6C01     		.2byte	0x16c
 1047 05a6 94040000 		.4byte	0x494
 1048 05aa 40       		.byte	0x40
 1049 05ab 0B       		.uleb128 0xb
 1050 05ac 723500   		.ascii	"r5\000"
 1051 05af 0C       		.byte	0xc
 1052 05b0 6D01     		.2byte	0x16d
 1053 05b2 94040000 		.4byte	0x494
 1054 05b6 44       		.byte	0x44
 1055 05b7 0B       		.uleb128 0xb
 1056 05b8 723600   		.ascii	"r6\000"
 1057 05bb 0C       		.byte	0xc
 1058 05bc 6E01     		.2byte	0x16e
 1059 05be 94040000 		.4byte	0x494
 1060 05c2 48       		.byte	0x48
 1061 05c3 0B       		.uleb128 0xb
 1062 05c4 723700   		.ascii	"r7\000"
 1063 05c7 0C       		.byte	0xc
 1064 05c8 6F01     		.2byte	0x16f
 1065 05ca 94040000 		.4byte	0x494
 1066 05ce 4C       		.byte	0x4c
 1067 05cf 0B       		.uleb128 0xb
 1068 05d0 723800   		.ascii	"r8\000"
 1069 05d3 0C       		.byte	0xc
 1070 05d4 7001     		.2byte	0x170
 1071 05d6 94040000 		.4byte	0x494
 1072 05da 50       		.byte	0x50
 1073 05db 0B       		.uleb128 0xb
 1074 05dc 723900   		.ascii	"r9\000"
 1075 05df 0C       		.byte	0xc
 1076 05e0 7101     		.2byte	0x171
 1077 05e2 94040000 		.4byte	0x494
 1078 05e6 54       		.byte	0x54
 1079 05e7 0B       		.uleb128 0xb
 1080 05e8 72313000 		.ascii	"r10\000"
 1081 05ec 0C       		.byte	0xc
 1082 05ed 7201     		.2byte	0x172
 1083 05ef 94040000 		.4byte	0x494
ARM GAS  /tmp/ccPVsYlv.s 			page 20


 1084 05f3 58       		.byte	0x58
 1085 05f4 0B       		.uleb128 0xb
 1086 05f5 72313100 		.ascii	"r11\000"
 1087 05f9 0C       		.byte	0xc
 1088 05fa 7301     		.2byte	0x173
 1089 05fc 94040000 		.4byte	0x494
 1090 0600 5C       		.byte	0x5c
 1091 0601 0B       		.uleb128 0xb
 1092 0602 6C7200   		.ascii	"lr\000"
 1093 0605 0C       		.byte	0xc
 1094 0606 7401     		.2byte	0x174
 1095 0608 94040000 		.4byte	0x494
 1096 060c 60       		.byte	0x60
 1097 060d 00       		.byte	0
 1098 060e 06       		.uleb128 0x6
 1099 060f 04       		.byte	0x4
 1100 0610 C2040000 		.4byte	0x4c2
 1101 0614 10       		.uleb128 0x10
 1102 0615 04       		.byte	0x4
 1103 0616 0D       		.byte	0xd
 1104 0617 38       		.byte	0x38
 1105 0618 29060000 		.4byte	0x629
 1106 061c 09       		.uleb128 0x9
 1107 061d 63060000 		.4byte	.LASF83
 1108 0621 0D       		.byte	0xd
 1109 0622 3C       		.byte	0x3c
 1110 0623 FF000000 		.4byte	0xff
 1111 0627 00       		.byte	0
 1112 0628 00       		.byte	0
 1113 0629 03       		.uleb128 0x3
 1114 062a 8F040000 		.4byte	.LASF84
 1115 062e 0D       		.byte	0xd
 1116 062f 3D       		.byte	0x3d
 1117 0630 14060000 		.4byte	0x614
 1118 0634 10       		.uleb128 0x10
 1119 0635 18       		.byte	0x18
 1120 0636 0D       		.byte	0xd
 1121 0637 48       		.byte	0x48
 1122 0638 77060000 		.4byte	0x677
 1123 063c 09       		.uleb128 0x9
 1124 063d 33060000 		.4byte	.LASF85
 1125 0641 0D       		.byte	0xd
 1126 0642 49       		.byte	0x49
 1127 0643 FF000000 		.4byte	0xff
 1128 0647 00       		.byte	0
 1129 0648 09       		.uleb128 0x9
 1130 0649 7C000000 		.4byte	.LASF86
 1131 064d 0D       		.byte	0xd
 1132 064e 4A       		.byte	0x4a
 1133 064f FF000000 		.4byte	0xff
 1134 0653 04       		.byte	0x4
 1135 0654 09       		.uleb128 0x9
 1136 0655 80030000 		.4byte	.LASF87
 1137 0659 0D       		.byte	0xd
 1138 065a 4B       		.byte	0x4b
 1139 065b FF000000 		.4byte	0xff
 1140 065f 08       		.byte	0x8
ARM GAS  /tmp/ccPVsYlv.s 			page 21


 1141 0660 0A       		.uleb128 0xa
 1142 0661 6E00     		.ascii	"n\000"
 1143 0663 0D       		.byte	0xd
 1144 0664 4C       		.byte	0x4c
 1145 0665 62010000 		.4byte	0x162
 1146 0669 0C       		.byte	0xc
 1147 066a 09       		.uleb128 0x9
 1148 066b B8040000 		.4byte	.LASF88
 1149 066f 0D       		.byte	0xd
 1150 0670 4D       		.byte	0x4d
 1151 0671 0A010000 		.4byte	0x10a
 1152 0675 10       		.byte	0x10
 1153 0676 00       		.byte	0
 1154 0677 03       		.uleb128 0x3
 1155 0678 82000000 		.4byte	.LASF89
 1156 067c 0D       		.byte	0xd
 1157 067d 4E       		.byte	0x4e
 1158 067e 34060000 		.4byte	0x634
 1159 0682 10       		.uleb128 0x10
 1160 0683 38       		.byte	0x38
 1161 0684 0E       		.byte	0xe
 1162 0685 38       		.byte	0x38
 1163 0686 BB060000 		.4byte	0x6bb
 1164 068a 09       		.uleb128 0x9
 1165 068b 41030000 		.4byte	.LASF90
 1166 068f 0E       		.byte	0xe
 1167 0690 39       		.byte	0x39
 1168 0691 62010000 		.4byte	0x162
 1169 0695 00       		.byte	0
 1170 0696 09       		.uleb128 0x9
 1171 0697 F3040000 		.4byte	.LASF91
 1172 069b 0E       		.byte	0xe
 1173 069c 3A       		.byte	0x3a
 1174 069d 62010000 		.4byte	0x162
 1175 06a1 04       		.byte	0x4
 1176 06a2 09       		.uleb128 0x9
 1177 06a3 6D070000 		.4byte	.LASF92
 1178 06a7 0E       		.byte	0xe
 1179 06a8 3B       		.byte	0x3b
 1180 06a9 77060000 		.4byte	0x677
 1181 06ad 08       		.byte	0x8
 1182 06ae 09       		.uleb128 0x9
 1183 06af B1030000 		.4byte	.LASF93
 1184 06b3 0E       		.byte	0xe
 1185 06b4 3D       		.byte	0x3d
 1186 06b5 77060000 		.4byte	0x677
 1187 06b9 20       		.byte	0x20
 1188 06ba 00       		.byte	0
 1189 06bb 03       		.uleb128 0x3
 1190 06bc 5C030000 		.4byte	.LASF94
 1191 06c0 0E       		.byte	0xe
 1192 06c1 3F       		.byte	0x3f
 1193 06c2 82060000 		.4byte	0x682
 1194 06c6 11       		.uleb128 0x11
 1195 06c7 04       		.byte	0x4
 1196 06c8 09       		.byte	0x9
 1197 06c9 C6       		.byte	0xc6
ARM GAS  /tmp/ccPVsYlv.s 			page 22


 1198 06ca 28070000 		.4byte	0x728
 1199 06ce 12       		.uleb128 0x12
 1200 06cf 1A000000 		.4byte	.LASF95
 1201 06d3 09       		.byte	0x9
 1202 06d4 CD       		.byte	0xcd
 1203 06d5 41010000 		.4byte	0x141
 1204 06d9 12       		.uleb128 0x12
 1205 06da AC000000 		.4byte	.LASF96
 1206 06de 09       		.byte	0x9
 1207 06df D4       		.byte	0xd4
 1208 06e0 41010000 		.4byte	0x141
 1209 06e4 12       		.uleb128 0x12
 1210 06e5 2F070000 		.4byte	.LASF97
 1211 06e9 09       		.byte	0x9
 1212 06ea DB       		.byte	0xdb
 1213 06eb B4000000 		.4byte	0xb4
 1214 06ef 12       		.uleb128 0x12
 1215 06f0 32030000 		.4byte	.LASF98
 1216 06f4 09       		.byte	0x9
 1217 06f5 E2       		.byte	0xe2
 1218 06f6 28070000 		.4byte	0x728
 1219 06fa 12       		.uleb128 0x12
 1220 06fb C0000000 		.4byte	.LASF99
 1221 06ff 09       		.byte	0x9
 1222 0700 E7       		.byte	0xe7
 1223 0701 41010000 		.4byte	0x141
 1224 0705 12       		.uleb128 0x12
 1225 0706 2B030000 		.4byte	.LASF100
 1226 070a 09       		.byte	0x9
 1227 070b F0       		.byte	0xf0
 1228 070c 53070000 		.4byte	0x753
 1229 0710 12       		.uleb128 0x12
 1230 0711 C0050000 		.4byte	.LASF101
 1231 0715 09       		.byte	0x9
 1232 0716 F9       		.byte	0xf9
 1233 0717 8A070000 		.4byte	0x78a
 1234 071b 13       		.uleb128 0x13
 1235 071c 56050000 		.4byte	.LASF102
 1236 0720 09       		.byte	0x9
 1237 0721 0101     		.2byte	0x101
 1238 0723 4C010000 		.4byte	0x14c
 1239 0727 00       		.byte	0
 1240 0728 06       		.uleb128 0x6
 1241 0729 04       		.byte	0x4
 1242 072a 63020000 		.4byte	0x263
 1243 072e 08       		.uleb128 0x8
 1244 072f 98050000 		.4byte	.LASF103
 1245 0733 0C       		.byte	0xc
 1246 0734 0F       		.byte	0xf
 1247 0735 34       		.byte	0x34
 1248 0736 53070000 		.4byte	0x753
 1249 073a 09       		.uleb128 0x9
 1250 073b 47030000 		.4byte	.LASF33
 1251 073f 0F       		.byte	0xf
 1252 0740 35       		.byte	0x35
 1253 0741 98020000 		.4byte	0x298
 1254 0745 00       		.byte	0
ARM GAS  /tmp/ccPVsYlv.s 			page 23


 1255 0746 0A       		.uleb128 0xa
 1256 0747 636E7400 		.ascii	"cnt\000"
 1257 074b 0F       		.byte	0xf
 1258 074c 37       		.byte	0x37
 1259 074d 57010000 		.4byte	0x157
 1260 0751 08       		.byte	0x8
 1261 0752 00       		.byte	0
 1262 0753 06       		.uleb128 0x6
 1263 0754 04       		.byte	0x4
 1264 0755 2E070000 		.4byte	0x72e
 1265 0759 08       		.uleb128 0x8
 1266 075a F4060000 		.4byte	.LASF104
 1267 075e 10       		.byte	0x10
 1268 075f 10       		.byte	0x10
 1269 0760 39       		.byte	0x39
 1270 0761 8A070000 		.4byte	0x78a
 1271 0765 09       		.uleb128 0x9
 1272 0766 47030000 		.4byte	.LASF33
 1273 076a 10       		.byte	0x10
 1274 076b 3A       		.byte	0x3a
 1275 076c 98020000 		.4byte	0x298
 1276 0770 00       		.byte	0
 1277 0771 09       		.uleb128 0x9
 1278 0772 D7050000 		.4byte	.LASF105
 1279 0776 10       		.byte	0x10
 1280 0777 3C       		.byte	0x3c
 1281 0778 6E020000 		.4byte	0x26e
 1282 077c 08       		.byte	0x8
 1283 077d 09       		.uleb128 0x9
 1284 077e 13010000 		.4byte	.LASF53
 1285 0782 10       		.byte	0x10
 1286 0783 3E       		.byte	0x3e
 1287 0784 A8080000 		.4byte	0x8a8
 1288 0788 0C       		.byte	0xc
 1289 0789 00       		.byte	0
 1290 078a 06       		.uleb128 0x6
 1291 078b 04       		.byte	0x4
 1292 078c 59070000 		.4byte	0x759
 1293 0790 06       		.uleb128 0x6
 1294 0791 04       		.byte	0x4
 1295 0792 9F040000 		.4byte	0x49f
 1296 0796 06       		.uleb128 0x6
 1297 0797 04       		.byte	0x4
 1298 0798 4B030000 		.4byte	0x34b
 1299 079c 14       		.uleb128 0x14
 1300 079d BD000000 		.4byte	0xbd
 1301 07a1 10       		.uleb128 0x10
 1302 07a2 16       		.byte	0x16
 1303 07a3 11       		.byte	0x11
 1304 07a4 34       		.byte	0x34
 1305 07a5 82080000 		.4byte	0x882
 1306 07a9 09       		.uleb128 0x9
 1307 07aa B3060000 		.4byte	.LASF106
 1308 07ae 11       		.byte	0x11
 1309 07af 35       		.byte	0x35
 1310 07b0 82080000 		.4byte	0x882
 1311 07b4 00       		.byte	0
ARM GAS  /tmp/ccPVsYlv.s 			page 24


 1312 07b5 09       		.uleb128 0x9
 1313 07b6 05020000 		.4byte	.LASF107
 1314 07ba 11       		.byte	0x11
 1315 07bb 36       		.byte	0x36
 1316 07bc C8000000 		.4byte	0xc8
 1317 07c0 04       		.byte	0x4
 1318 07c1 09       		.uleb128 0x9
 1319 07c2 3B010000 		.4byte	.LASF108
 1320 07c6 11       		.byte	0x11
 1321 07c7 37       		.byte	0x37
 1322 07c8 C8000000 		.4byte	0xc8
 1323 07cc 05       		.byte	0x5
 1324 07cd 09       		.uleb128 0x9
 1325 07ce 20040000 		.4byte	.LASF109
 1326 07d2 11       		.byte	0x11
 1327 07d3 38       		.byte	0x38
 1328 07d4 D3000000 		.4byte	0xd3
 1329 07d8 06       		.byte	0x6
 1330 07d9 09       		.uleb128 0x9
 1331 07da DC060000 		.4byte	.LASF110
 1332 07de 11       		.byte	0x11
 1333 07df 39       		.byte	0x39
 1334 07e0 C8000000 		.4byte	0xc8
 1335 07e4 08       		.byte	0x8
 1336 07e5 09       		.uleb128 0x9
 1337 07e6 AE050000 		.4byte	.LASF111
 1338 07ea 11       		.byte	0x11
 1339 07eb 3A       		.byte	0x3a
 1340 07ec C8000000 		.4byte	0xc8
 1341 07f0 09       		.byte	0x9
 1342 07f1 09       		.uleb128 0x9
 1343 07f2 CB040000 		.4byte	.LASF112
 1344 07f6 11       		.byte	0x11
 1345 07f7 3B       		.byte	0x3b
 1346 07f8 C8000000 		.4byte	0xc8
 1347 07fc 0A       		.byte	0xa
 1348 07fd 09       		.uleb128 0x9
 1349 07fe 18050000 		.4byte	.LASF113
 1350 0802 11       		.byte	0x11
 1351 0803 3C       		.byte	0x3c
 1352 0804 C8000000 		.4byte	0xc8
 1353 0808 0B       		.byte	0xb
 1354 0809 09       		.uleb128 0x9
 1355 080a A1030000 		.4byte	.LASF114
 1356 080e 11       		.byte	0x11
 1357 080f 3D       		.byte	0x3d
 1358 0810 C8000000 		.4byte	0xc8
 1359 0814 0C       		.byte	0xc
 1360 0815 09       		.uleb128 0x9
 1361 0816 78040000 		.4byte	.LASF115
 1362 081a 11       		.byte	0x11
 1363 081b 3E       		.byte	0x3e
 1364 081c C8000000 		.4byte	0xc8
 1365 0820 0D       		.byte	0xd
 1366 0821 09       		.uleb128 0x9
 1367 0822 6A060000 		.4byte	.LASF116
 1368 0826 11       		.byte	0x11
ARM GAS  /tmp/ccPVsYlv.s 			page 25


 1369 0827 3F       		.byte	0x3f
 1370 0828 C8000000 		.4byte	0xc8
 1371 082c 0E       		.byte	0xe
 1372 082d 09       		.uleb128 0x9
 1373 082e D6030000 		.4byte	.LASF117
 1374 0832 11       		.byte	0x11
 1375 0833 40       		.byte	0x40
 1376 0834 C8000000 		.4byte	0xc8
 1377 0838 0F       		.byte	0xf
 1378 0839 09       		.uleb128 0x9
 1379 083a 21050000 		.4byte	.LASF118
 1380 083e 11       		.byte	0x11
 1381 083f 41       		.byte	0x41
 1382 0840 C8000000 		.4byte	0xc8
 1383 0844 10       		.byte	0x10
 1384 0845 09       		.uleb128 0x9
 1385 0846 45070000 		.4byte	.LASF119
 1386 084a 11       		.byte	0x11
 1387 084b 42       		.byte	0x42
 1388 084c C8000000 		.4byte	0xc8
 1389 0850 11       		.byte	0x11
 1390 0851 09       		.uleb128 0x9
 1391 0852 5B070000 		.4byte	.LASF120
 1392 0856 11       		.byte	0x11
 1393 0857 43       		.byte	0x43
 1394 0858 C8000000 		.4byte	0xc8
 1395 085c 12       		.byte	0x12
 1396 085d 09       		.uleb128 0x9
 1397 085e 53030000 		.4byte	.LASF121
 1398 0862 11       		.byte	0x11
 1399 0863 44       		.byte	0x44
 1400 0864 C8000000 		.4byte	0xc8
 1401 0868 13       		.byte	0x13
 1402 0869 09       		.uleb128 0x9
 1403 086a AE010000 		.4byte	.LASF122
 1404 086e 11       		.byte	0x11
 1405 086f 45       		.byte	0x45
 1406 0870 C8000000 		.4byte	0xc8
 1407 0874 14       		.byte	0x14
 1408 0875 09       		.uleb128 0x9
 1409 0876 A5050000 		.4byte	.LASF123
 1410 087a 11       		.byte	0x11
 1411 087b 46       		.byte	0x46
 1412 087c C8000000 		.4byte	0xc8
 1413 0880 15       		.byte	0x15
 1414 0881 00       		.byte	0
 1415 0882 15       		.uleb128 0x15
 1416 0883 B6000000 		.4byte	0xb6
 1417 0887 92080000 		.4byte	0x892
 1418 088b 16       		.uleb128 0x16
 1419 088c AD000000 		.4byte	0xad
 1420 0890 03       		.byte	0x3
 1421 0891 00       		.byte	0
 1422 0892 03       		.uleb128 0x3
 1423 0893 A4010000 		.4byte	.LASF124
 1424 0897 11       		.byte	0x11
 1425 0898 47       		.byte	0x47
ARM GAS  /tmp/ccPVsYlv.s 			page 26


 1426 0899 A1070000 		.4byte	0x7a1
 1427 089d 03       		.uleb128 0x3
 1428 089e 0A020000 		.4byte	.LASF125
 1429 08a2 10       		.byte	0x10
 1430 08a3 34       		.byte	0x34
 1431 08a4 59070000 		.4byte	0x759
 1432 08a8 06       		.uleb128 0x6
 1433 08a9 04       		.byte	0x4
 1434 08aa 9D080000 		.4byte	0x89d
 1435 08ae 04       		.uleb128 0x4
 1436 08af 01       		.byte	0x1
 1437 08b0 02       		.byte	0x2
 1438 08b1 FC040000 		.4byte	.LASF126
 1439 08b5 17       		.uleb128 0x17
 1440 08b6 4B060000 		.4byte	.LASF133
 1441 08ba 02       		.byte	0x2
 1442 08bb EB01     		.2byte	0x1eb
 1443 08bd 03       		.byte	0x3
 1444 08be CF080000 		.4byte	0x8cf
 1445 08c2 18       		.uleb128 0x18
 1446 08c3 5D010000 		.4byte	.LASF127
 1447 08c7 02       		.byte	0x2
 1448 08c8 EB01     		.2byte	0x1eb
 1449 08ca E9000000 		.4byte	0xe9
 1450 08ce 00       		.byte	0
 1451 08cf 19       		.uleb128 0x19
 1452 08d0 41050000 		.4byte	.LASF128
 1453 08d4 12       		.byte	0x12
 1454 08d5 3D01     		.2byte	0x13d
 1455 08d7 90070000 		.4byte	0x790
 1456 08db 03       		.byte	0x3
 1457 08dc EC080000 		.4byte	0x8ec
 1458 08e0 1A       		.uleb128 0x1a
 1459 08e1 747000   		.ascii	"tp\000"
 1460 08e4 12       		.byte	0x12
 1461 08e5 3D01     		.2byte	0x13d
 1462 08e7 6E020000 		.4byte	0x26e
 1463 08eb 00       		.byte	0
 1464 08ec 1B       		.uleb128 0x1b
 1465 08ed DD050000 		.4byte	.LASF129
 1466 08f1 11       		.byte	0x11
 1467 08f2 99       		.byte	0x99
 1468 08f3 BD000000 		.4byte	0xbd
 1469 08f7 03       		.byte	0x3
 1470 08f8 07090000 		.4byte	0x907
 1471 08fc 1C       		.uleb128 0x1c
 1472 08fd 747000   		.ascii	"tp\000"
 1473 0900 11       		.byte	0x11
 1474 0901 99       		.byte	0x99
 1475 0902 6E020000 		.4byte	0x26e
 1476 0906 00       		.byte	0
 1477 0907 1D       		.uleb128 0x1d
 1478 0908 72000000 		.4byte	.LASF130
 1479 090c 0C       		.byte	0xc
 1480 090d 5A02     		.2byte	0x25a
 1481 090f 03       		.byte	0x3
 1482 0910 1D       		.uleb128 0x1d
ARM GAS  /tmp/ccPVsYlv.s 			page 27


 1483 0911 6C010000 		.4byte	.LASF131
 1484 0915 0C       		.byte	0xc
 1485 0916 7202     		.2byte	0x272
 1486 0918 03       		.byte	0x3
 1487 0919 1D       		.uleb128 0x1d
 1488 091a 70050000 		.4byte	.LASF132
 1489 091e 03       		.byte	0x3
 1490 091f 6101     		.2byte	0x161
 1491 0921 03       		.byte	0x3
 1492 0922 17       		.uleb128 0x17
 1493 0923 4F070000 		.4byte	.LASF134
 1494 0927 03       		.byte	0x3
 1495 0928 6D01     		.2byte	0x16d
 1496 092a 03       		.byte	0x3
 1497 092b 3D090000 		.4byte	0x93d
 1498 092f 1E       		.uleb128 0x1e
 1499 0930 67050000 		.4byte	.LASF149
 1500 0934 4D090000 		.4byte	0x94d
 1501 0938 4F070000 		.4byte	.LASF134
 1502 093c 00       		.byte	0
 1503 093d 15       		.uleb128 0x15
 1504 093e B6000000 		.4byte	0xb6
 1505 0942 4D090000 		.4byte	0x94d
 1506 0946 16       		.uleb128 0x16
 1507 0947 AD000000 		.4byte	0xad
 1508 094b 0B       		.byte	0xb
 1509 094c 00       		.byte	0
 1510 094d 07       		.uleb128 0x7
 1511 094e 3D090000 		.4byte	0x93d
 1512 0952 1F       		.uleb128 0x1f
 1513 0953 C8000000 		.4byte	.LASF135
 1514 0957 01       		.byte	0x1
 1515 0958 86       		.byte	0x86
 1516 0959 6E020000 		.4byte	0x26e
 1517 095d 00000000 		.4byte	.LFB290
 1518 0961 2C000000 		.4byte	.LFE290-.LFB290
 1519 0965 01       		.uleb128 0x1
 1520 0966 9C       		.byte	0x9c
 1521 0967 170A0000 		.4byte	0xa17
 1522 096b 20       		.uleb128 0x20
 1523 096c 747000   		.ascii	"tp\000"
 1524 096f 01       		.byte	0x1
 1525 0970 87       		.byte	0x87
 1526 0971 6E020000 		.4byte	0x26e
 1527 0975 00000000 		.4byte	.LLST0
 1528 0979 21       		.uleb128 0x21
 1529 097a 19090000 		.4byte	0x919
 1530 097e 02000000 		.4byte	.LBB28
 1531 0982 0A000000 		.4byte	.LBE28-.LBB28
 1532 0986 01       		.byte	0x1
 1533 0987 89       		.byte	0x89
 1534 0988 C2090000 		.4byte	0x9c2
 1535 098c 22       		.uleb128 0x22
 1536 098d 07090000 		.4byte	0x907
 1537 0991 02000000 		.4byte	.LBB30
 1538 0995 06000000 		.4byte	.LBE30-.LBB30
 1539 0999 03       		.byte	0x3
ARM GAS  /tmp/ccPVsYlv.s 			page 28


 1540 099a 6301     		.2byte	0x163
 1541 099c B8090000 		.4byte	0x9b8
 1542 09a0 23       		.uleb128 0x23
 1543 09a1 B5080000 		.4byte	0x8b5
 1544 09a5 02000000 		.4byte	.LBB31
 1545 09a9 06000000 		.4byte	.LBE31-.LBB31
 1546 09ad 0C       		.byte	0xc
 1547 09ae 6202     		.2byte	0x262
 1548 09b0 24       		.uleb128 0x24
 1549 09b1 C2080000 		.4byte	0x8c2
 1550 09b5 20       		.byte	0x20
 1551 09b6 00       		.byte	0
 1552 09b7 00       		.byte	0
 1553 09b8 25       		.uleb128 0x25
 1554 09b9 0C000000 		.4byte	.LVL1
 1555 09bd 460C0000 		.4byte	0xc46
 1556 09c1 00       		.byte	0
 1557 09c2 26       		.uleb128 0x26
 1558 09c3 22090000 		.4byte	0x922
 1559 09c7 1A000000 		.4byte	.LBB33
 1560 09cb 0A000000 		.4byte	.LBE33-.LBB33
 1561 09cf 01       		.byte	0x1
 1562 09d0 8E       		.byte	0x8e
 1563 09d1 27       		.uleb128 0x27
 1564 09d2 1A000000 		.4byte	.LBB34
 1565 09d6 0A000000 		.4byte	.LBE34-.LBB34
 1566 09da 28       		.uleb128 0x28
 1567 09db 2F090000 		.4byte	0x92f
 1568 09df 22       		.uleb128 0x22
 1569 09e0 10090000 		.4byte	0x910
 1570 09e4 1E000000 		.4byte	.LBB35
 1571 09e8 06000000 		.4byte	.LBE35-.LBB35
 1572 09ec 03       		.byte	0x3
 1573 09ed 7A01     		.2byte	0x17a
 1574 09ef 0B0A0000 		.4byte	0xa0b
 1575 09f3 23       		.uleb128 0x23
 1576 09f4 B5080000 		.4byte	0x8b5
 1577 09f8 1E000000 		.4byte	.LBB36
 1578 09fc 06000000 		.4byte	.LBE36-.LBB36
 1579 0a00 0C       		.byte	0xc
 1580 0a01 7502     		.2byte	0x275
 1581 0a03 24       		.uleb128 0x24
 1582 0a04 C2080000 		.4byte	0x8c2
 1583 0a08 00       		.byte	0
 1584 0a09 00       		.byte	0
 1585 0a0a 00       		.byte	0
 1586 0a0b 25       		.uleb128 0x25
 1587 0a0c 1E000000 		.4byte	.LVL3
 1588 0a10 4D0C0000 		.4byte	0xc4d
 1589 0a14 00       		.byte	0
 1590 0a15 00       		.byte	0
 1591 0a16 00       		.byte	0
 1592 0a17 1F       		.uleb128 0x1f
 1593 0a18 0F060000 		.4byte	.LASF136
 1594 0a1c 01       		.byte	0x1
 1595 0a1d 9E       		.byte	0x9e
 1596 0a1e 6E020000 		.4byte	0x26e
ARM GAS  /tmp/ccPVsYlv.s 			page 29


 1597 0a22 00000000 		.4byte	.LFB291
 1598 0a26 3C000000 		.4byte	.LFE291-.LFB291
 1599 0a2a 01       		.uleb128 0x1
 1600 0a2b 9C       		.byte	0x9c
 1601 0a2c 080B0000 		.4byte	0xb08
 1602 0a30 29       		.uleb128 0x29
 1603 0a31 747000   		.ascii	"tp\000"
 1604 0a34 01       		.byte	0x1
 1605 0a35 9E       		.byte	0x9e
 1606 0a36 6E020000 		.4byte	0x26e
 1607 0a3a 1E000000 		.4byte	.LLST1
 1608 0a3e 20       		.uleb128 0x20
 1609 0a3f 6E747000 		.ascii	"ntp\000"
 1610 0a43 01       		.byte	0x1
 1611 0a44 9F       		.byte	0x9f
 1612 0a45 6E020000 		.4byte	0x26e
 1613 0a49 4A000000 		.4byte	.LLST2
 1614 0a4d 2A       		.uleb128 0x2a
 1615 0a4e 67050000 		.4byte	.LASF149
 1616 0a52 180B0000 		.4byte	0xb18
 1617 0a56 21       		.uleb128 0x21
 1618 0a57 19090000 		.4byte	0x919
 1619 0a5b 04000000 		.4byte	.LBB48
 1620 0a5f 0A000000 		.4byte	.LBE48-.LBB48
 1621 0a63 01       		.byte	0x1
 1622 0a64 A1       		.byte	0xa1
 1623 0a65 9F0A0000 		.4byte	0xa9f
 1624 0a69 22       		.uleb128 0x22
 1625 0a6a 07090000 		.4byte	0x907
 1626 0a6e 04000000 		.4byte	.LBB50
 1627 0a72 06000000 		.4byte	.LBE50-.LBB50
 1628 0a76 03       		.byte	0x3
 1629 0a77 6301     		.2byte	0x163
 1630 0a79 950A0000 		.4byte	0xa95
 1631 0a7d 23       		.uleb128 0x23
 1632 0a7e B5080000 		.4byte	0x8b5
 1633 0a82 04000000 		.4byte	.LBB51
 1634 0a86 06000000 		.4byte	.LBE51-.LBB51
 1635 0a8a 0C       		.byte	0xc
 1636 0a8b 6202     		.2byte	0x262
 1637 0a8d 24       		.uleb128 0x24
 1638 0a8e C2080000 		.4byte	0x8c2
 1639 0a92 20       		.byte	0x20
 1640 0a93 00       		.byte	0
 1641 0a94 00       		.byte	0
 1642 0a95 25       		.uleb128 0x25
 1643 0a96 0E000000 		.4byte	.LVL6
 1644 0a9a 460C0000 		.4byte	0xc46
 1645 0a9e 00       		.byte	0
 1646 0a9f 21       		.uleb128 0x21
 1647 0aa0 22090000 		.4byte	0x922
 1648 0aa4 22000000 		.4byte	.LBB53
 1649 0aa8 0A000000 		.4byte	.LBE53-.LBB53
 1650 0aac 01       		.byte	0x1
 1651 0aad AE       		.byte	0xae
 1652 0aae F70A0000 		.4byte	0xaf7
 1653 0ab2 27       		.uleb128 0x27
ARM GAS  /tmp/ccPVsYlv.s 			page 30


 1654 0ab3 22000000 		.4byte	.LBB54
 1655 0ab7 0A000000 		.4byte	.LBE54-.LBB54
 1656 0abb 28       		.uleb128 0x28
 1657 0abc 2F090000 		.4byte	0x92f
 1658 0ac0 22       		.uleb128 0x22
 1659 0ac1 10090000 		.4byte	0x910
 1660 0ac5 26000000 		.4byte	.LBB55
 1661 0ac9 06000000 		.4byte	.LBE55-.LBB55
 1662 0acd 03       		.byte	0x3
 1663 0ace 7A01     		.2byte	0x17a
 1664 0ad0 EC0A0000 		.4byte	0xaec
 1665 0ad4 23       		.uleb128 0x23
 1666 0ad5 B5080000 		.4byte	0x8b5
 1667 0ad9 26000000 		.4byte	.LBB56
 1668 0add 06000000 		.4byte	.LBE56-.LBB56
 1669 0ae1 0C       		.byte	0xc
 1670 0ae2 7502     		.2byte	0x275
 1671 0ae4 24       		.uleb128 0x24
 1672 0ae5 C2080000 		.4byte	0x8c2
 1673 0ae9 00       		.byte	0
 1674 0aea 00       		.byte	0
 1675 0aeb 00       		.byte	0
 1676 0aec 25       		.uleb128 0x25
 1677 0aed 26000000 		.4byte	.LVL9
 1678 0af1 4D0C0000 		.4byte	0xc4d
 1679 0af5 00       		.byte	0
 1680 0af6 00       		.byte	0
 1681 0af7 2B       		.uleb128 0x2b
 1682 0af8 32000000 		.4byte	.LVL10
 1683 0afc 540C0000 		.4byte	0xc54
 1684 0b00 2C       		.uleb128 0x2c
 1685 0b01 01       		.uleb128 0x1
 1686 0b02 50       		.byte	0x50
 1687 0b03 02       		.uleb128 0x2
 1688 0b04 75       		.byte	0x75
 1689 0b05 00       		.sleb128 0
 1690 0b06 00       		.byte	0
 1691 0b07 00       		.byte	0
 1692 0b08 15       		.uleb128 0x15
 1693 0b09 B6000000 		.4byte	0xb6
 1694 0b0d 180B0000 		.4byte	0xb18
 1695 0b11 16       		.uleb128 0x16
 1696 0b12 AD000000 		.4byte	0xad
 1697 0b16 0F       		.byte	0xf
 1698 0b17 00       		.byte	0
 1699 0b18 07       		.uleb128 0x7
 1700 0b19 080B0000 		.4byte	0xb08
 1701 0b1d 1F       		.uleb128 0x1f
 1702 0b1e C6060000 		.4byte	.LASF137
 1703 0b22 01       		.byte	0x1
 1704 0b23 C2       		.byte	0xc2
 1705 0b24 6E020000 		.4byte	0x26e
 1706 0b28 00000000 		.4byte	.LFB292
 1707 0b2c 24000000 		.4byte	.LFE292-.LFB292
 1708 0b30 01       		.uleb128 0x1
 1709 0b31 9C       		.byte	0x9c
 1710 0b32 820B0000 		.4byte	0xb82
ARM GAS  /tmp/ccPVsYlv.s 			page 31


 1711 0b36 2D       		.uleb128 0x2d
 1712 0b37 75030000 		.4byte	.LASF37
 1713 0b3b 01       		.byte	0x1
 1714 0b3c C2       		.byte	0xc2
 1715 0b3d BD000000 		.4byte	0xbd
 1716 0b41 68000000 		.4byte	.LLST3
 1717 0b45 20       		.uleb128 0x20
 1718 0b46 63747000 		.ascii	"ctp\000"
 1719 0b4a 01       		.byte	0x1
 1720 0b4b C3       		.byte	0xc3
 1721 0b4c 6E020000 		.4byte	0x26e
 1722 0b50 86000000 		.4byte	.LLST4
 1723 0b54 25       		.uleb128 0x25
 1724 0b55 08000000 		.4byte	.LVL13
 1725 0b59 52090000 		.4byte	0x952
 1726 0b5d 2E       		.uleb128 0x2e
 1727 0b5e 12000000 		.4byte	.LVL16
 1728 0b62 650C0000 		.4byte	0xc65
 1729 0b66 710B0000 		.4byte	0xb71
 1730 0b6a 2C       		.uleb128 0x2c
 1731 0b6b 01       		.uleb128 0x1
 1732 0b6c 51       		.byte	0x51
 1733 0b6d 02       		.uleb128 0x2
 1734 0b6e 75       		.byte	0x75
 1735 0b6f 00       		.sleb128 0
 1736 0b70 00       		.byte	0
 1737 0b71 2B       		.uleb128 0x2b
 1738 0b72 1A000000 		.4byte	.LVL17
 1739 0b76 170A0000 		.4byte	0xa17
 1740 0b7a 2C       		.uleb128 0x2c
 1741 0b7b 01       		.uleb128 0x1
 1742 0b7c 50       		.byte	0x50
 1743 0b7d 02       		.uleb128 0x2
 1744 0b7e 74       		.byte	0x74
 1745 0b7f 00       		.sleb128 0
 1746 0b80 00       		.byte	0
 1747 0b81 00       		.byte	0
 1748 0b82 1F       		.uleb128 0x1f
 1749 0b83 BA010000 		.4byte	.LASF138
 1750 0b87 01       		.byte	0x1
 1751 0b88 DD       		.byte	0xdd
 1752 0b89 6E020000 		.4byte	0x26e
 1753 0b8d 00000000 		.4byte	.LFB293
 1754 0b91 16000000 		.4byte	.LFE293-.LFB293
 1755 0b95 01       		.uleb128 0x1
 1756 0b96 9C       		.byte	0x9c
 1757 0b97 CB0B0000 		.4byte	0xbcb
 1758 0b9b 29       		.uleb128 0x29
 1759 0b9c 747000   		.ascii	"tp\000"
 1760 0b9f 01       		.byte	0x1
 1761 0ba0 DD       		.byte	0xdd
 1762 0ba1 6E020000 		.4byte	0x26e
 1763 0ba5 BA000000 		.4byte	.LLST5
 1764 0ba9 20       		.uleb128 0x20
 1765 0baa 63747000 		.ascii	"ctp\000"
 1766 0bae 01       		.byte	0x1
 1767 0baf DE       		.byte	0xde
ARM GAS  /tmp/ccPVsYlv.s 			page 32


 1768 0bb0 6E020000 		.4byte	0x26e
 1769 0bb4 D8000000 		.4byte	.LLST6
 1770 0bb8 25       		.uleb128 0x25
 1771 0bb9 08000000 		.4byte	.LVL21
 1772 0bbd 52090000 		.4byte	0x952
 1773 0bc1 25       		.uleb128 0x25
 1774 0bc2 10000000 		.4byte	.LVL22
 1775 0bc6 170A0000 		.4byte	0xa17
 1776 0bca 00       		.byte	0
 1777 0bcb 1F       		.uleb128 0x1f
 1778 0bcc 40010000 		.4byte	.LASF139
 1779 0bd0 01       		.byte	0x1
 1780 0bd1 FA       		.byte	0xfa
 1781 0bd2 6E020000 		.4byte	0x26e
 1782 0bd6 00000000 		.4byte	.LFB294
 1783 0bda 18000000 		.4byte	.LFE294-.LFB294
 1784 0bde 01       		.uleb128 0x1
 1785 0bdf 9C       		.byte	0x9c
 1786 0be0 140C0000 		.4byte	0xc14
 1787 0be4 29       		.uleb128 0x29
 1788 0be5 776100   		.ascii	"wa\000"
 1789 0be8 01       		.byte	0x1
 1790 0be9 FA       		.byte	0xfa
 1791 0bea 90070000 		.4byte	0x790
 1792 0bee F6000000 		.4byte	.LLST7
 1793 0bf2 20       		.uleb128 0x20
 1794 0bf3 63747000 		.ascii	"ctp\000"
 1795 0bf7 01       		.byte	0x1
 1796 0bf8 FB       		.byte	0xfb
 1797 0bf9 6E020000 		.4byte	0x26e
 1798 0bfd 14010000 		.4byte	.LLST8
 1799 0c01 25       		.uleb128 0x25
 1800 0c02 08000000 		.4byte	.LVL24
 1801 0c06 52090000 		.4byte	0x952
 1802 0c0a 25       		.uleb128 0x25
 1803 0c0b 12000000 		.4byte	.LVL25
 1804 0c0f 170A0000 		.4byte	0xa17
 1805 0c13 00       		.byte	0
 1806 0c14 2F       		.uleb128 0x2f
 1807 0c15 D9000000 		.4byte	.LASF140
 1808 0c19 13       		.byte	0x13
 1809 0c1a 0408     		.2byte	0x804
 1810 0c1c 200C0000 		.4byte	0xc20
 1811 0c20 14       		.uleb128 0x14
 1812 0c21 DE000000 		.4byte	0xde
 1813 0c25 30       		.uleb128 0x30
 1814 0c26 636800   		.ascii	"ch\000"
 1815 0c29 09       		.byte	0x9
 1816 0c2a C701     		.2byte	0x1c7
 1817 0c2c 18040000 		.4byte	0x418
 1818 0c30 31       		.uleb128 0x31
 1819 0c31 38030000 		.4byte	.LASF141
 1820 0c35 01       		.byte	0x1
 1821 0c36 53       		.byte	0x53
 1822 0c37 410C0000 		.4byte	0xc41
 1823 0c3b 05       		.uleb128 0x5
 1824 0c3c 03       		.byte	0x3
ARM GAS  /tmp/ccPVsYlv.s 			page 33


 1825 0c3d 00000000 		.4byte	ch_debug
 1826 0c41 07       		.uleb128 0x7
 1827 0c42 92080000 		.4byte	0x892
 1828 0c46 32       		.uleb128 0x32
 1829 0c47 11070000 		.4byte	.LASF142
 1830 0c4b 0E       		.byte	0xe
 1831 0c4c 4F       		.byte	0x4f
 1832 0c4d 32       		.uleb128 0x32
 1833 0c4e 28040000 		.4byte	.LASF143
 1834 0c52 0E       		.byte	0xe
 1835 0c53 50       		.byte	0x50
 1836 0c54 33       		.uleb128 0x33
 1837 0c55 7A050000 		.4byte	.LASF144
 1838 0c59 12       		.byte	0x12
 1839 0c5a EC       		.byte	0xec
 1840 0c5b 650C0000 		.4byte	0xc65
 1841 0c5f 0F       		.uleb128 0xf
 1842 0c60 6E020000 		.4byte	0x26e
 1843 0c64 00       		.byte	0
 1844 0c65 34       		.uleb128 0x34
 1845 0c66 FF030000 		.4byte	.LASF145
 1846 0c6a 14       		.byte	0x14
 1847 0c6b 1C       		.byte	0x1c
 1848 0c6c 25000000 		.4byte	0x25
 1849 0c70 0F       		.uleb128 0xf
 1850 0c71 BD000000 		.4byte	0xbd
 1851 0c75 0F       		.uleb128 0xf
 1852 0c76 BD000000 		.4byte	0xbd
 1853 0c7a 00       		.byte	0
 1854 0c7b 00       		.byte	0
 1855              		.section	.debug_abbrev,"",%progbits
 1856              	.Ldebug_abbrev0:
 1857 0000 01       		.uleb128 0x1
 1858 0001 11       		.uleb128 0x11
 1859 0002 01       		.byte	0x1
 1860 0003 25       		.uleb128 0x25
 1861 0004 0E       		.uleb128 0xe
 1862 0005 13       		.uleb128 0x13
 1863 0006 0B       		.uleb128 0xb
 1864 0007 03       		.uleb128 0x3
 1865 0008 0E       		.uleb128 0xe
 1866 0009 1B       		.uleb128 0x1b
 1867 000a 0E       		.uleb128 0xe
 1868 000b 55       		.uleb128 0x55
 1869 000c 17       		.uleb128 0x17
 1870 000d 11       		.uleb128 0x11
 1871 000e 01       		.uleb128 0x1
 1872 000f 10       		.uleb128 0x10
 1873 0010 17       		.uleb128 0x17
 1874 0011 00       		.byte	0
 1875 0012 00       		.byte	0
 1876 0013 02       		.uleb128 0x2
 1877 0014 24       		.uleb128 0x24
 1878 0015 00       		.byte	0
 1879 0016 0B       		.uleb128 0xb
 1880 0017 0B       		.uleb128 0xb
 1881 0018 3E       		.uleb128 0x3e
ARM GAS  /tmp/ccPVsYlv.s 			page 34


 1882 0019 0B       		.uleb128 0xb
 1883 001a 03       		.uleb128 0x3
 1884 001b 08       		.uleb128 0x8
 1885 001c 00       		.byte	0
 1886 001d 00       		.byte	0
 1887 001e 03       		.uleb128 0x3
 1888 001f 16       		.uleb128 0x16
 1889 0020 00       		.byte	0
 1890 0021 03       		.uleb128 0x3
 1891 0022 0E       		.uleb128 0xe
 1892 0023 3A       		.uleb128 0x3a
 1893 0024 0B       		.uleb128 0xb
 1894 0025 3B       		.uleb128 0x3b
 1895 0026 0B       		.uleb128 0xb
 1896 0027 49       		.uleb128 0x49
 1897 0028 13       		.uleb128 0x13
 1898 0029 00       		.byte	0
 1899 002a 00       		.byte	0
 1900 002b 04       		.uleb128 0x4
 1901 002c 24       		.uleb128 0x24
 1902 002d 00       		.byte	0
 1903 002e 0B       		.uleb128 0xb
 1904 002f 0B       		.uleb128 0xb
 1905 0030 3E       		.uleb128 0x3e
 1906 0031 0B       		.uleb128 0xb
 1907 0032 03       		.uleb128 0x3
 1908 0033 0E       		.uleb128 0xe
 1909 0034 00       		.byte	0
 1910 0035 00       		.byte	0
 1911 0036 05       		.uleb128 0x5
 1912 0037 0F       		.uleb128 0xf
 1913 0038 00       		.byte	0
 1914 0039 0B       		.uleb128 0xb
 1915 003a 0B       		.uleb128 0xb
 1916 003b 00       		.byte	0
 1917 003c 00       		.byte	0
 1918 003d 06       		.uleb128 0x6
 1919 003e 0F       		.uleb128 0xf
 1920 003f 00       		.byte	0
 1921 0040 0B       		.uleb128 0xb
 1922 0041 0B       		.uleb128 0xb
 1923 0042 49       		.uleb128 0x49
 1924 0043 13       		.uleb128 0x13
 1925 0044 00       		.byte	0
 1926 0045 00       		.byte	0
 1927 0046 07       		.uleb128 0x7
 1928 0047 26       		.uleb128 0x26
 1929 0048 00       		.byte	0
 1930 0049 49       		.uleb128 0x49
 1931 004a 13       		.uleb128 0x13
 1932 004b 00       		.byte	0
 1933 004c 00       		.byte	0
 1934 004d 08       		.uleb128 0x8
 1935 004e 13       		.uleb128 0x13
 1936 004f 01       		.byte	0x1
 1937 0050 03       		.uleb128 0x3
 1938 0051 0E       		.uleb128 0xe
ARM GAS  /tmp/ccPVsYlv.s 			page 35


 1939 0052 0B       		.uleb128 0xb
 1940 0053 0B       		.uleb128 0xb
 1941 0054 3A       		.uleb128 0x3a
 1942 0055 0B       		.uleb128 0xb
 1943 0056 3B       		.uleb128 0x3b
 1944 0057 0B       		.uleb128 0xb
 1945 0058 01       		.uleb128 0x1
 1946 0059 13       		.uleb128 0x13
 1947 005a 00       		.byte	0
 1948 005b 00       		.byte	0
 1949 005c 09       		.uleb128 0x9
 1950 005d 0D       		.uleb128 0xd
 1951 005e 00       		.byte	0
 1952 005f 03       		.uleb128 0x3
 1953 0060 0E       		.uleb128 0xe
 1954 0061 3A       		.uleb128 0x3a
 1955 0062 0B       		.uleb128 0xb
 1956 0063 3B       		.uleb128 0x3b
 1957 0064 0B       		.uleb128 0xb
 1958 0065 49       		.uleb128 0x49
 1959 0066 13       		.uleb128 0x13
 1960 0067 38       		.uleb128 0x38
 1961 0068 0B       		.uleb128 0xb
 1962 0069 00       		.byte	0
 1963 006a 00       		.byte	0
 1964 006b 0A       		.uleb128 0xa
 1965 006c 0D       		.uleb128 0xd
 1966 006d 00       		.byte	0
 1967 006e 03       		.uleb128 0x3
 1968 006f 08       		.uleb128 0x8
 1969 0070 3A       		.uleb128 0x3a
 1970 0071 0B       		.uleb128 0xb
 1971 0072 3B       		.uleb128 0x3b
 1972 0073 0B       		.uleb128 0xb
 1973 0074 49       		.uleb128 0x49
 1974 0075 13       		.uleb128 0x13
 1975 0076 38       		.uleb128 0x38
 1976 0077 0B       		.uleb128 0xb
 1977 0078 00       		.byte	0
 1978 0079 00       		.byte	0
 1979 007a 0B       		.uleb128 0xb
 1980 007b 0D       		.uleb128 0xd
 1981 007c 00       		.byte	0
 1982 007d 03       		.uleb128 0x3
 1983 007e 08       		.uleb128 0x8
 1984 007f 3A       		.uleb128 0x3a
 1985 0080 0B       		.uleb128 0xb
 1986 0081 3B       		.uleb128 0x3b
 1987 0082 05       		.uleb128 0x5
 1988 0083 49       		.uleb128 0x49
 1989 0084 13       		.uleb128 0x13
 1990 0085 38       		.uleb128 0x38
 1991 0086 0B       		.uleb128 0xb
 1992 0087 00       		.byte	0
 1993 0088 00       		.byte	0
 1994 0089 0C       		.uleb128 0xc
 1995 008a 0D       		.uleb128 0xd
ARM GAS  /tmp/ccPVsYlv.s 			page 36


 1996 008b 00       		.byte	0
 1997 008c 03       		.uleb128 0x3
 1998 008d 0E       		.uleb128 0xe
 1999 008e 3A       		.uleb128 0x3a
 2000 008f 0B       		.uleb128 0xb
 2001 0090 3B       		.uleb128 0x3b
 2002 0091 05       		.uleb128 0x5
 2003 0092 49       		.uleb128 0x49
 2004 0093 13       		.uleb128 0x13
 2005 0094 38       		.uleb128 0x38
 2006 0095 0B       		.uleb128 0xb
 2007 0096 00       		.byte	0
 2008 0097 00       		.byte	0
 2009 0098 0D       		.uleb128 0xd
 2010 0099 13       		.uleb128 0x13
 2011 009a 01       		.byte	0x1
 2012 009b 03       		.uleb128 0x3
 2013 009c 0E       		.uleb128 0xe
 2014 009d 0B       		.uleb128 0xb
 2015 009e 0B       		.uleb128 0xb
 2016 009f 3A       		.uleb128 0x3a
 2017 00a0 0B       		.uleb128 0xb
 2018 00a1 3B       		.uleb128 0x3b
 2019 00a2 05       		.uleb128 0x5
 2020 00a3 01       		.uleb128 0x1
 2021 00a4 13       		.uleb128 0x13
 2022 00a5 00       		.byte	0
 2023 00a6 00       		.byte	0
 2024 00a7 0E       		.uleb128 0xe
 2025 00a8 15       		.uleb128 0x15
 2026 00a9 01       		.byte	0x1
 2027 00aa 27       		.uleb128 0x27
 2028 00ab 19       		.uleb128 0x19
 2029 00ac 01       		.uleb128 0x1
 2030 00ad 13       		.uleb128 0x13
 2031 00ae 00       		.byte	0
 2032 00af 00       		.byte	0
 2033 00b0 0F       		.uleb128 0xf
 2034 00b1 05       		.uleb128 0x5
 2035 00b2 00       		.byte	0
 2036 00b3 49       		.uleb128 0x49
 2037 00b4 13       		.uleb128 0x13
 2038 00b5 00       		.byte	0
 2039 00b6 00       		.byte	0
 2040 00b7 10       		.uleb128 0x10
 2041 00b8 13       		.uleb128 0x13
 2042 00b9 01       		.byte	0x1
 2043 00ba 0B       		.uleb128 0xb
 2044 00bb 0B       		.uleb128 0xb
 2045 00bc 3A       		.uleb128 0x3a
 2046 00bd 0B       		.uleb128 0xb
 2047 00be 3B       		.uleb128 0x3b
 2048 00bf 0B       		.uleb128 0xb
 2049 00c0 01       		.uleb128 0x1
 2050 00c1 13       		.uleb128 0x13
 2051 00c2 00       		.byte	0
 2052 00c3 00       		.byte	0
ARM GAS  /tmp/ccPVsYlv.s 			page 37


 2053 00c4 11       		.uleb128 0x11
 2054 00c5 17       		.uleb128 0x17
 2055 00c6 01       		.byte	0x1
 2056 00c7 0B       		.uleb128 0xb
 2057 00c8 0B       		.uleb128 0xb
 2058 00c9 3A       		.uleb128 0x3a
 2059 00ca 0B       		.uleb128 0xb
 2060 00cb 3B       		.uleb128 0x3b
 2061 00cc 0B       		.uleb128 0xb
 2062 00cd 01       		.uleb128 0x1
 2063 00ce 13       		.uleb128 0x13
 2064 00cf 00       		.byte	0
 2065 00d0 00       		.byte	0
 2066 00d1 12       		.uleb128 0x12
 2067 00d2 0D       		.uleb128 0xd
 2068 00d3 00       		.byte	0
 2069 00d4 03       		.uleb128 0x3
 2070 00d5 0E       		.uleb128 0xe
 2071 00d6 3A       		.uleb128 0x3a
 2072 00d7 0B       		.uleb128 0xb
 2073 00d8 3B       		.uleb128 0x3b
 2074 00d9 0B       		.uleb128 0xb
 2075 00da 49       		.uleb128 0x49
 2076 00db 13       		.uleb128 0x13
 2077 00dc 00       		.byte	0
 2078 00dd 00       		.byte	0
 2079 00de 13       		.uleb128 0x13
 2080 00df 0D       		.uleb128 0xd
 2081 00e0 00       		.byte	0
 2082 00e1 03       		.uleb128 0x3
 2083 00e2 0E       		.uleb128 0xe
 2084 00e3 3A       		.uleb128 0x3a
 2085 00e4 0B       		.uleb128 0xb
 2086 00e5 3B       		.uleb128 0x3b
 2087 00e6 05       		.uleb128 0x5
 2088 00e7 49       		.uleb128 0x49
 2089 00e8 13       		.uleb128 0x13
 2090 00e9 00       		.byte	0
 2091 00ea 00       		.byte	0
 2092 00eb 14       		.uleb128 0x14
 2093 00ec 35       		.uleb128 0x35
 2094 00ed 00       		.byte	0
 2095 00ee 49       		.uleb128 0x49
 2096 00ef 13       		.uleb128 0x13
 2097 00f0 00       		.byte	0
 2098 00f1 00       		.byte	0
 2099 00f2 15       		.uleb128 0x15
 2100 00f3 01       		.uleb128 0x1
 2101 00f4 01       		.byte	0x1
 2102 00f5 49       		.uleb128 0x49
 2103 00f6 13       		.uleb128 0x13
 2104 00f7 01       		.uleb128 0x1
 2105 00f8 13       		.uleb128 0x13
 2106 00f9 00       		.byte	0
 2107 00fa 00       		.byte	0
 2108 00fb 16       		.uleb128 0x16
 2109 00fc 21       		.uleb128 0x21
ARM GAS  /tmp/ccPVsYlv.s 			page 38


 2110 00fd 00       		.byte	0
 2111 00fe 49       		.uleb128 0x49
 2112 00ff 13       		.uleb128 0x13
 2113 0100 2F       		.uleb128 0x2f
 2114 0101 0B       		.uleb128 0xb
 2115 0102 00       		.byte	0
 2116 0103 00       		.byte	0
 2117 0104 17       		.uleb128 0x17
 2118 0105 2E       		.uleb128 0x2e
 2119 0106 01       		.byte	0x1
 2120 0107 03       		.uleb128 0x3
 2121 0108 0E       		.uleb128 0xe
 2122 0109 3A       		.uleb128 0x3a
 2123 010a 0B       		.uleb128 0xb
 2124 010b 3B       		.uleb128 0x3b
 2125 010c 05       		.uleb128 0x5
 2126 010d 27       		.uleb128 0x27
 2127 010e 19       		.uleb128 0x19
 2128 010f 20       		.uleb128 0x20
 2129 0110 0B       		.uleb128 0xb
 2130 0111 01       		.uleb128 0x1
 2131 0112 13       		.uleb128 0x13
 2132 0113 00       		.byte	0
 2133 0114 00       		.byte	0
 2134 0115 18       		.uleb128 0x18
 2135 0116 05       		.uleb128 0x5
 2136 0117 00       		.byte	0
 2137 0118 03       		.uleb128 0x3
 2138 0119 0E       		.uleb128 0xe
 2139 011a 3A       		.uleb128 0x3a
 2140 011b 0B       		.uleb128 0xb
 2141 011c 3B       		.uleb128 0x3b
 2142 011d 05       		.uleb128 0x5
 2143 011e 49       		.uleb128 0x49
 2144 011f 13       		.uleb128 0x13
 2145 0120 00       		.byte	0
 2146 0121 00       		.byte	0
 2147 0122 19       		.uleb128 0x19
 2148 0123 2E       		.uleb128 0x2e
 2149 0124 01       		.byte	0x1
 2150 0125 03       		.uleb128 0x3
 2151 0126 0E       		.uleb128 0xe
 2152 0127 3A       		.uleb128 0x3a
 2153 0128 0B       		.uleb128 0xb
 2154 0129 3B       		.uleb128 0x3b
 2155 012a 05       		.uleb128 0x5
 2156 012b 27       		.uleb128 0x27
 2157 012c 19       		.uleb128 0x19
 2158 012d 49       		.uleb128 0x49
 2159 012e 13       		.uleb128 0x13
 2160 012f 20       		.uleb128 0x20
 2161 0130 0B       		.uleb128 0xb
 2162 0131 01       		.uleb128 0x1
 2163 0132 13       		.uleb128 0x13
 2164 0133 00       		.byte	0
 2165 0134 00       		.byte	0
 2166 0135 1A       		.uleb128 0x1a
ARM GAS  /tmp/ccPVsYlv.s 			page 39


 2167 0136 05       		.uleb128 0x5
 2168 0137 00       		.byte	0
 2169 0138 03       		.uleb128 0x3
 2170 0139 08       		.uleb128 0x8
 2171 013a 3A       		.uleb128 0x3a
 2172 013b 0B       		.uleb128 0xb
 2173 013c 3B       		.uleb128 0x3b
 2174 013d 05       		.uleb128 0x5
 2175 013e 49       		.uleb128 0x49
 2176 013f 13       		.uleb128 0x13
 2177 0140 00       		.byte	0
 2178 0141 00       		.byte	0
 2179 0142 1B       		.uleb128 0x1b
 2180 0143 2E       		.uleb128 0x2e
 2181 0144 01       		.byte	0x1
 2182 0145 03       		.uleb128 0x3
 2183 0146 0E       		.uleb128 0xe
 2184 0147 3A       		.uleb128 0x3a
 2185 0148 0B       		.uleb128 0xb
 2186 0149 3B       		.uleb128 0x3b
 2187 014a 0B       		.uleb128 0xb
 2188 014b 27       		.uleb128 0x27
 2189 014c 19       		.uleb128 0x19
 2190 014d 49       		.uleb128 0x49
 2191 014e 13       		.uleb128 0x13
 2192 014f 20       		.uleb128 0x20
 2193 0150 0B       		.uleb128 0xb
 2194 0151 01       		.uleb128 0x1
 2195 0152 13       		.uleb128 0x13
 2196 0153 00       		.byte	0
 2197 0154 00       		.byte	0
 2198 0155 1C       		.uleb128 0x1c
 2199 0156 05       		.uleb128 0x5
 2200 0157 00       		.byte	0
 2201 0158 03       		.uleb128 0x3
 2202 0159 08       		.uleb128 0x8
 2203 015a 3A       		.uleb128 0x3a
 2204 015b 0B       		.uleb128 0xb
 2205 015c 3B       		.uleb128 0x3b
 2206 015d 0B       		.uleb128 0xb
 2207 015e 49       		.uleb128 0x49
 2208 015f 13       		.uleb128 0x13
 2209 0160 00       		.byte	0
 2210 0161 00       		.byte	0
 2211 0162 1D       		.uleb128 0x1d
 2212 0163 2E       		.uleb128 0x2e
 2213 0164 00       		.byte	0
 2214 0165 03       		.uleb128 0x3
 2215 0166 0E       		.uleb128 0xe
 2216 0167 3A       		.uleb128 0x3a
 2217 0168 0B       		.uleb128 0xb
 2218 0169 3B       		.uleb128 0x3b
 2219 016a 05       		.uleb128 0x5
 2220 016b 27       		.uleb128 0x27
 2221 016c 19       		.uleb128 0x19
 2222 016d 20       		.uleb128 0x20
 2223 016e 0B       		.uleb128 0xb
ARM GAS  /tmp/ccPVsYlv.s 			page 40


 2224 016f 00       		.byte	0
 2225 0170 00       		.byte	0
 2226 0171 1E       		.uleb128 0x1e
 2227 0172 34       		.uleb128 0x34
 2228 0173 00       		.byte	0
 2229 0174 03       		.uleb128 0x3
 2230 0175 0E       		.uleb128 0xe
 2231 0176 49       		.uleb128 0x49
 2232 0177 13       		.uleb128 0x13
 2233 0178 34       		.uleb128 0x34
 2234 0179 19       		.uleb128 0x19
 2235 017a 1C       		.uleb128 0x1c
 2236 017b 0E       		.uleb128 0xe
 2237 017c 00       		.byte	0
 2238 017d 00       		.byte	0
 2239 017e 1F       		.uleb128 0x1f
 2240 017f 2E       		.uleb128 0x2e
 2241 0180 01       		.byte	0x1
 2242 0181 3F       		.uleb128 0x3f
 2243 0182 19       		.uleb128 0x19
 2244 0183 03       		.uleb128 0x3
 2245 0184 0E       		.uleb128 0xe
 2246 0185 3A       		.uleb128 0x3a
 2247 0186 0B       		.uleb128 0xb
 2248 0187 3B       		.uleb128 0x3b
 2249 0188 0B       		.uleb128 0xb
 2250 0189 27       		.uleb128 0x27
 2251 018a 19       		.uleb128 0x19
 2252 018b 49       		.uleb128 0x49
 2253 018c 13       		.uleb128 0x13
 2254 018d 11       		.uleb128 0x11
 2255 018e 01       		.uleb128 0x1
 2256 018f 12       		.uleb128 0x12
 2257 0190 06       		.uleb128 0x6
 2258 0191 40       		.uleb128 0x40
 2259 0192 18       		.uleb128 0x18
 2260 0193 9742     		.uleb128 0x2117
 2261 0195 19       		.uleb128 0x19
 2262 0196 01       		.uleb128 0x1
 2263 0197 13       		.uleb128 0x13
 2264 0198 00       		.byte	0
 2265 0199 00       		.byte	0
 2266 019a 20       		.uleb128 0x20
 2267 019b 34       		.uleb128 0x34
 2268 019c 00       		.byte	0
 2269 019d 03       		.uleb128 0x3
 2270 019e 08       		.uleb128 0x8
 2271 019f 3A       		.uleb128 0x3a
 2272 01a0 0B       		.uleb128 0xb
 2273 01a1 3B       		.uleb128 0x3b
 2274 01a2 0B       		.uleb128 0xb
 2275 01a3 49       		.uleb128 0x49
 2276 01a4 13       		.uleb128 0x13
 2277 01a5 02       		.uleb128 0x2
 2278 01a6 17       		.uleb128 0x17
 2279 01a7 00       		.byte	0
 2280 01a8 00       		.byte	0
ARM GAS  /tmp/ccPVsYlv.s 			page 41


 2281 01a9 21       		.uleb128 0x21
 2282 01aa 1D       		.uleb128 0x1d
 2283 01ab 01       		.byte	0x1
 2284 01ac 31       		.uleb128 0x31
 2285 01ad 13       		.uleb128 0x13
 2286 01ae 11       		.uleb128 0x11
 2287 01af 01       		.uleb128 0x1
 2288 01b0 12       		.uleb128 0x12
 2289 01b1 06       		.uleb128 0x6
 2290 01b2 58       		.uleb128 0x58
 2291 01b3 0B       		.uleb128 0xb
 2292 01b4 59       		.uleb128 0x59
 2293 01b5 0B       		.uleb128 0xb
 2294 01b6 01       		.uleb128 0x1
 2295 01b7 13       		.uleb128 0x13
 2296 01b8 00       		.byte	0
 2297 01b9 00       		.byte	0
 2298 01ba 22       		.uleb128 0x22
 2299 01bb 1D       		.uleb128 0x1d
 2300 01bc 01       		.byte	0x1
 2301 01bd 31       		.uleb128 0x31
 2302 01be 13       		.uleb128 0x13
 2303 01bf 11       		.uleb128 0x11
 2304 01c0 01       		.uleb128 0x1
 2305 01c1 12       		.uleb128 0x12
 2306 01c2 06       		.uleb128 0x6
 2307 01c3 58       		.uleb128 0x58
 2308 01c4 0B       		.uleb128 0xb
 2309 01c5 59       		.uleb128 0x59
 2310 01c6 05       		.uleb128 0x5
 2311 01c7 01       		.uleb128 0x1
 2312 01c8 13       		.uleb128 0x13
 2313 01c9 00       		.byte	0
 2314 01ca 00       		.byte	0
 2315 01cb 23       		.uleb128 0x23
 2316 01cc 1D       		.uleb128 0x1d
 2317 01cd 01       		.byte	0x1
 2318 01ce 31       		.uleb128 0x31
 2319 01cf 13       		.uleb128 0x13
 2320 01d0 11       		.uleb128 0x11
 2321 01d1 01       		.uleb128 0x1
 2322 01d2 12       		.uleb128 0x12
 2323 01d3 06       		.uleb128 0x6
 2324 01d4 58       		.uleb128 0x58
 2325 01d5 0B       		.uleb128 0xb
 2326 01d6 59       		.uleb128 0x59
 2327 01d7 05       		.uleb128 0x5
 2328 01d8 00       		.byte	0
 2329 01d9 00       		.byte	0
 2330 01da 24       		.uleb128 0x24
 2331 01db 05       		.uleb128 0x5
 2332 01dc 00       		.byte	0
 2333 01dd 31       		.uleb128 0x31
 2334 01de 13       		.uleb128 0x13
 2335 01df 1C       		.uleb128 0x1c
 2336 01e0 0B       		.uleb128 0xb
 2337 01e1 00       		.byte	0
ARM GAS  /tmp/ccPVsYlv.s 			page 42


 2338 01e2 00       		.byte	0
 2339 01e3 25       		.uleb128 0x25
 2340 01e4 898201   		.uleb128 0x4109
 2341 01e7 00       		.byte	0
 2342 01e8 11       		.uleb128 0x11
 2343 01e9 01       		.uleb128 0x1
 2344 01ea 31       		.uleb128 0x31
 2345 01eb 13       		.uleb128 0x13
 2346 01ec 00       		.byte	0
 2347 01ed 00       		.byte	0
 2348 01ee 26       		.uleb128 0x26
 2349 01ef 1D       		.uleb128 0x1d
 2350 01f0 01       		.byte	0x1
 2351 01f1 31       		.uleb128 0x31
 2352 01f2 13       		.uleb128 0x13
 2353 01f3 11       		.uleb128 0x11
 2354 01f4 01       		.uleb128 0x1
 2355 01f5 12       		.uleb128 0x12
 2356 01f6 06       		.uleb128 0x6
 2357 01f7 58       		.uleb128 0x58
 2358 01f8 0B       		.uleb128 0xb
 2359 01f9 59       		.uleb128 0x59
 2360 01fa 0B       		.uleb128 0xb
 2361 01fb 00       		.byte	0
 2362 01fc 00       		.byte	0
 2363 01fd 27       		.uleb128 0x27
 2364 01fe 0B       		.uleb128 0xb
 2365 01ff 01       		.byte	0x1
 2366 0200 11       		.uleb128 0x11
 2367 0201 01       		.uleb128 0x1
 2368 0202 12       		.uleb128 0x12
 2369 0203 06       		.uleb128 0x6
 2370 0204 00       		.byte	0
 2371 0205 00       		.byte	0
 2372 0206 28       		.uleb128 0x28
 2373 0207 34       		.uleb128 0x34
 2374 0208 00       		.byte	0
 2375 0209 31       		.uleb128 0x31
 2376 020a 13       		.uleb128 0x13
 2377 020b 00       		.byte	0
 2378 020c 00       		.byte	0
 2379 020d 29       		.uleb128 0x29
 2380 020e 05       		.uleb128 0x5
 2381 020f 00       		.byte	0
 2382 0210 03       		.uleb128 0x3
 2383 0211 08       		.uleb128 0x8
 2384 0212 3A       		.uleb128 0x3a
 2385 0213 0B       		.uleb128 0xb
 2386 0214 3B       		.uleb128 0x3b
 2387 0215 0B       		.uleb128 0xb
 2388 0216 49       		.uleb128 0x49
 2389 0217 13       		.uleb128 0x13
 2390 0218 02       		.uleb128 0x2
 2391 0219 17       		.uleb128 0x17
 2392 021a 00       		.byte	0
 2393 021b 00       		.byte	0
 2394 021c 2A       		.uleb128 0x2a
ARM GAS  /tmp/ccPVsYlv.s 			page 43


 2395 021d 34       		.uleb128 0x34
 2396 021e 00       		.byte	0
 2397 021f 03       		.uleb128 0x3
 2398 0220 0E       		.uleb128 0xe
 2399 0221 49       		.uleb128 0x49
 2400 0222 13       		.uleb128 0x13
 2401 0223 34       		.uleb128 0x34
 2402 0224 19       		.uleb128 0x19
 2403 0225 00       		.byte	0
 2404 0226 00       		.byte	0
 2405 0227 2B       		.uleb128 0x2b
 2406 0228 898201   		.uleb128 0x4109
 2407 022b 01       		.byte	0x1
 2408 022c 11       		.uleb128 0x11
 2409 022d 01       		.uleb128 0x1
 2410 022e 31       		.uleb128 0x31
 2411 022f 13       		.uleb128 0x13
 2412 0230 00       		.byte	0
 2413 0231 00       		.byte	0
 2414 0232 2C       		.uleb128 0x2c
 2415 0233 8A8201   		.uleb128 0x410a
 2416 0236 00       		.byte	0
 2417 0237 02       		.uleb128 0x2
 2418 0238 18       		.uleb128 0x18
 2419 0239 9142     		.uleb128 0x2111
 2420 023b 18       		.uleb128 0x18
 2421 023c 00       		.byte	0
 2422 023d 00       		.byte	0
 2423 023e 2D       		.uleb128 0x2d
 2424 023f 05       		.uleb128 0x5
 2425 0240 00       		.byte	0
 2426 0241 03       		.uleb128 0x3
 2427 0242 0E       		.uleb128 0xe
 2428 0243 3A       		.uleb128 0x3a
 2429 0244 0B       		.uleb128 0xb
 2430 0245 3B       		.uleb128 0x3b
 2431 0246 0B       		.uleb128 0xb
 2432 0247 49       		.uleb128 0x49
 2433 0248 13       		.uleb128 0x13
 2434 0249 02       		.uleb128 0x2
 2435 024a 17       		.uleb128 0x17
 2436 024b 00       		.byte	0
 2437 024c 00       		.byte	0
 2438 024d 2E       		.uleb128 0x2e
 2439 024e 898201   		.uleb128 0x4109
 2440 0251 01       		.byte	0x1
 2441 0252 11       		.uleb128 0x11
 2442 0253 01       		.uleb128 0x1
 2443 0254 31       		.uleb128 0x31
 2444 0255 13       		.uleb128 0x13
 2445 0256 01       		.uleb128 0x1
 2446 0257 13       		.uleb128 0x13
 2447 0258 00       		.byte	0
 2448 0259 00       		.byte	0
 2449 025a 2F       		.uleb128 0x2f
 2450 025b 34       		.uleb128 0x34
 2451 025c 00       		.byte	0
ARM GAS  /tmp/ccPVsYlv.s 			page 44


 2452 025d 03       		.uleb128 0x3
 2453 025e 0E       		.uleb128 0xe
 2454 025f 3A       		.uleb128 0x3a
 2455 0260 0B       		.uleb128 0xb
 2456 0261 3B       		.uleb128 0x3b
 2457 0262 05       		.uleb128 0x5
 2458 0263 49       		.uleb128 0x49
 2459 0264 13       		.uleb128 0x13
 2460 0265 3F       		.uleb128 0x3f
 2461 0266 19       		.uleb128 0x19
 2462 0267 3C       		.uleb128 0x3c
 2463 0268 19       		.uleb128 0x19
 2464 0269 00       		.byte	0
 2465 026a 00       		.byte	0
 2466 026b 30       		.uleb128 0x30
 2467 026c 34       		.uleb128 0x34
 2468 026d 00       		.byte	0
 2469 026e 03       		.uleb128 0x3
 2470 026f 08       		.uleb128 0x8
 2471 0270 3A       		.uleb128 0x3a
 2472 0271 0B       		.uleb128 0xb
 2473 0272 3B       		.uleb128 0x3b
 2474 0273 05       		.uleb128 0x5
 2475 0274 49       		.uleb128 0x49
 2476 0275 13       		.uleb128 0x13
 2477 0276 3F       		.uleb128 0x3f
 2478 0277 19       		.uleb128 0x19
 2479 0278 3C       		.uleb128 0x3c
 2480 0279 19       		.uleb128 0x19
 2481 027a 00       		.byte	0
 2482 027b 00       		.byte	0
 2483 027c 31       		.uleb128 0x31
 2484 027d 34       		.uleb128 0x34
 2485 027e 00       		.byte	0
 2486 027f 03       		.uleb128 0x3
 2487 0280 0E       		.uleb128 0xe
 2488 0281 3A       		.uleb128 0x3a
 2489 0282 0B       		.uleb128 0xb
 2490 0283 3B       		.uleb128 0x3b
 2491 0284 0B       		.uleb128 0xb
 2492 0285 49       		.uleb128 0x49
 2493 0286 13       		.uleb128 0x13
 2494 0287 3F       		.uleb128 0x3f
 2495 0288 19       		.uleb128 0x19
 2496 0289 02       		.uleb128 0x2
 2497 028a 18       		.uleb128 0x18
 2498 028b 00       		.byte	0
 2499 028c 00       		.byte	0
 2500 028d 32       		.uleb128 0x32
 2501 028e 2E       		.uleb128 0x2e
 2502 028f 00       		.byte	0
 2503 0290 3F       		.uleb128 0x3f
 2504 0291 19       		.uleb128 0x19
 2505 0292 03       		.uleb128 0x3
 2506 0293 0E       		.uleb128 0xe
 2507 0294 3A       		.uleb128 0x3a
 2508 0295 0B       		.uleb128 0xb
ARM GAS  /tmp/ccPVsYlv.s 			page 45


 2509 0296 3B       		.uleb128 0x3b
 2510 0297 0B       		.uleb128 0xb
 2511 0298 27       		.uleb128 0x27
 2512 0299 19       		.uleb128 0x19
 2513 029a 3C       		.uleb128 0x3c
 2514 029b 19       		.uleb128 0x19
 2515 029c 00       		.byte	0
 2516 029d 00       		.byte	0
 2517 029e 33       		.uleb128 0x33
 2518 029f 2E       		.uleb128 0x2e
 2519 02a0 01       		.byte	0x1
 2520 02a1 3F       		.uleb128 0x3f
 2521 02a2 19       		.uleb128 0x19
 2522 02a3 03       		.uleb128 0x3
 2523 02a4 0E       		.uleb128 0xe
 2524 02a5 3A       		.uleb128 0x3a
 2525 02a6 0B       		.uleb128 0xb
 2526 02a7 3B       		.uleb128 0x3b
 2527 02a8 0B       		.uleb128 0xb
 2528 02a9 27       		.uleb128 0x27
 2529 02aa 19       		.uleb128 0x19
 2530 02ab 3C       		.uleb128 0x3c
 2531 02ac 19       		.uleb128 0x19
 2532 02ad 01       		.uleb128 0x1
 2533 02ae 13       		.uleb128 0x13
 2534 02af 00       		.byte	0
 2535 02b0 00       		.byte	0
 2536 02b1 34       		.uleb128 0x34
 2537 02b2 2E       		.uleb128 0x2e
 2538 02b3 01       		.byte	0x1
 2539 02b4 3F       		.uleb128 0x3f
 2540 02b5 19       		.uleb128 0x19
 2541 02b6 03       		.uleb128 0x3
 2542 02b7 0E       		.uleb128 0xe
 2543 02b8 3A       		.uleb128 0x3a
 2544 02b9 0B       		.uleb128 0xb
 2545 02ba 3B       		.uleb128 0x3b
 2546 02bb 0B       		.uleb128 0xb
 2547 02bc 27       		.uleb128 0x27
 2548 02bd 19       		.uleb128 0x19
 2549 02be 49       		.uleb128 0x49
 2550 02bf 13       		.uleb128 0x13
 2551 02c0 3C       		.uleb128 0x3c
 2552 02c1 19       		.uleb128 0x19
 2553 02c2 00       		.byte	0
 2554 02c3 00       		.byte	0
 2555 02c4 00       		.byte	0
 2556              		.section	.debug_loc,"",%progbits
 2557              	.Ldebug_loc0:
 2558              	.LLST0:
 2559 0000 10000000 		.4byte	.LVL2
 2560 0004 28000000 		.4byte	.LVL4
 2561 0008 0100     		.2byte	0x1
 2562 000a 54       		.byte	0x54
 2563 000b 28000000 		.4byte	.LVL4
 2564 000f 2C000000 		.4byte	.LFE290
 2565 0013 0100     		.2byte	0x1
ARM GAS  /tmp/ccPVsYlv.s 			page 46


 2566 0015 50       		.byte	0x50
 2567 0016 00000000 		.4byte	0
 2568 001a 00000000 		.4byte	0
 2569              	.LLST1:
 2570 001e 00000000 		.4byte	.LVL5
 2571 0022 0D000000 		.4byte	.LVL6-1
 2572 0026 0100     		.2byte	0x1
 2573 0028 50       		.byte	0x50
 2574 0029 0D000000 		.4byte	.LVL6-1
 2575 002d 36000000 		.4byte	.LVL11
 2576 0031 0100     		.2byte	0x1
 2577 0033 55       		.byte	0x55
 2578 0034 36000000 		.4byte	.LVL11
 2579 0038 3C000000 		.4byte	.LFE291
 2580 003c 0400     		.2byte	0x4
 2581 003e F3       		.byte	0xf3
 2582 003f 01       		.uleb128 0x1
 2583 0040 50       		.byte	0x50
 2584 0041 9F       		.byte	0x9f
 2585 0042 00000000 		.4byte	0
 2586 0046 00000000 		.4byte	0
 2587              	.LLST2:
 2588 004a 10000000 		.4byte	.LVL7
 2589 004e 36000000 		.4byte	.LVL11
 2590 0052 0100     		.2byte	0x1
 2591 0054 54       		.byte	0x54
 2592 0055 36000000 		.4byte	.LVL11
 2593 0059 3C000000 		.4byte	.LFE291
 2594 005d 0100     		.2byte	0x1
 2595 005f 50       		.byte	0x50
 2596 0060 00000000 		.4byte	0
 2597 0064 00000000 		.4byte	0
 2598              	.LLST3:
 2599 0068 00000000 		.4byte	.LVL12
 2600 006c 07000000 		.4byte	.LVL13-1
 2601 0070 0100     		.2byte	0x1
 2602 0072 50       		.byte	0x50
 2603 0073 07000000 		.4byte	.LVL13-1
 2604 0077 24000000 		.4byte	.LFE292
 2605 007b 0100     		.2byte	0x1
 2606 007d 55       		.byte	0x55
 2607 007e 00000000 		.4byte	0
 2608 0082 00000000 		.4byte	0
 2609              	.LLST4:
 2610 0086 0A000000 		.4byte	.LVL14
 2611 008a 0C000000 		.4byte	.LVL15
 2612 008e 0100     		.2byte	0x1
 2613 0090 50       		.byte	0x50
 2614 0091 0C000000 		.4byte	.LVL15
 2615 0095 1A000000 		.4byte	.LVL17
 2616 0099 0100     		.2byte	0x1
 2617 009b 54       		.byte	0x54
 2618 009c 1A000000 		.4byte	.LVL17
 2619 00a0 20000000 		.4byte	.LVL19
 2620 00a4 0100     		.2byte	0x1
 2621 00a6 50       		.byte	0x50
 2622 00a7 20000000 		.4byte	.LVL19
ARM GAS  /tmp/ccPVsYlv.s 			page 47


 2623 00ab 24000000 		.4byte	.LFE292
 2624 00af 0100     		.2byte	0x1
 2625 00b1 54       		.byte	0x54
 2626 00b2 00000000 		.4byte	0
 2627 00b6 00000000 		.4byte	0
 2628              	.LLST5:
 2629 00ba 00000000 		.4byte	.LVL20
 2630 00be 07000000 		.4byte	.LVL21-1
 2631 00c2 0100     		.2byte	0x1
 2632 00c4 50       		.byte	0x50
 2633 00c5 07000000 		.4byte	.LVL21-1
 2634 00c9 16000000 		.4byte	.LFE293
 2635 00cd 0100     		.2byte	0x1
 2636 00cf 54       		.byte	0x54
 2637 00d0 00000000 		.4byte	0
 2638 00d4 00000000 		.4byte	0
 2639              	.LLST6:
 2640 00d8 08000000 		.4byte	.LVL21
 2641 00dc 0F000000 		.4byte	.LVL22-1
 2642 00e0 0100     		.2byte	0x1
 2643 00e2 50       		.byte	0x50
 2644 00e3 10000000 		.4byte	.LVL22
 2645 00e7 16000000 		.4byte	.LFE293
 2646 00eb 0100     		.2byte	0x1
 2647 00ed 50       		.byte	0x50
 2648 00ee 00000000 		.4byte	0
 2649 00f2 00000000 		.4byte	0
 2650              	.LLST7:
 2651 00f6 00000000 		.4byte	.LVL23
 2652 00fa 07000000 		.4byte	.LVL24-1
 2653 00fe 0100     		.2byte	0x1
 2654 0100 50       		.byte	0x50
 2655 0101 07000000 		.4byte	.LVL24-1
 2656 0105 18000000 		.4byte	.LFE294
 2657 0109 0100     		.2byte	0x1
 2658 010b 54       		.byte	0x54
 2659 010c 00000000 		.4byte	0
 2660 0110 00000000 		.4byte	0
 2661              	.LLST8:
 2662 0114 08000000 		.4byte	.LVL24
 2663 0118 11000000 		.4byte	.LVL25-1
 2664 011c 0100     		.2byte	0x1
 2665 011e 50       		.byte	0x50
 2666 011f 12000000 		.4byte	.LVL25
 2667 0123 18000000 		.4byte	.LFE294
 2668 0127 0100     		.2byte	0x1
 2669 0129 50       		.byte	0x50
 2670 012a 00000000 		.4byte	0
 2671 012e 00000000 		.4byte	0
 2672              		.section	.debug_aranges,"",%progbits
 2673 0000 3C000000 		.4byte	0x3c
 2674 0004 0200     		.2byte	0x2
 2675 0006 00000000 		.4byte	.Ldebug_info0
 2676 000a 04       		.byte	0x4
 2677 000b 00       		.byte	0
 2678 000c 0000     		.2byte	0
 2679 000e 0000     		.2byte	0
ARM GAS  /tmp/ccPVsYlv.s 			page 48


 2680 0010 00000000 		.4byte	.LFB290
 2681 0014 2C000000 		.4byte	.LFE290-.LFB290
 2682 0018 00000000 		.4byte	.LFB291
 2683 001c 3C000000 		.4byte	.LFE291-.LFB291
 2684 0020 00000000 		.4byte	.LFB292
 2685 0024 24000000 		.4byte	.LFE292-.LFB292
 2686 0028 00000000 		.4byte	.LFB293
 2687 002c 16000000 		.4byte	.LFE293-.LFB293
 2688 0030 00000000 		.4byte	.LFB294
 2689 0034 18000000 		.4byte	.LFE294-.LFB294
 2690 0038 00000000 		.4byte	0
 2691 003c 00000000 		.4byte	0
 2692              		.section	.debug_ranges,"",%progbits
 2693              	.Ldebug_ranges0:
 2694 0000 00000000 		.4byte	.LFB290
 2695 0004 2C000000 		.4byte	.LFE290
 2696 0008 00000000 		.4byte	.LFB291
 2697 000c 3C000000 		.4byte	.LFE291
 2698 0010 00000000 		.4byte	.LFB292
 2699 0014 24000000 		.4byte	.LFE292
 2700 0018 00000000 		.4byte	.LFB293
 2701 001c 16000000 		.4byte	.LFE293
 2702 0020 00000000 		.4byte	.LFB294
 2703 0024 18000000 		.4byte	.LFE294
 2704 0028 00000000 		.4byte	0
 2705 002c 00000000 		.4byte	0
 2706              		.section	.debug_line,"",%progbits
 2707              	.Ldebug_line0:
 2708 0000 2F030000 		.section	.debug_str,"MS",%progbits,1
 2708      02007902 
 2708      00000201 
 2708      FB0E0D00 
 2708      01010101 
 2709              	.LASF57:
 2710 0000 72656164 		.ascii	"ready_list_t\000"
 2710      795F6C69 
 2710      73745F74 
 2710      00
 2711              	.LASF2:
 2712 000d 73697A65 		.ascii	"size_t\000"
 2712      5F7400
 2713              	.LASF63:
 2714 0014 64656C74 		.ascii	"delta\000"
 2714      6100
 2715              	.LASF95:
 2716 001a 7264796D 		.ascii	"rdymsg\000"
 2716      736700
 2717              	.LASF21:
 2718 0021 75696E74 		.ascii	"uint64_t\000"
 2718      36345F74 
 2718      00
 2719              	.LASF76:
 2720 002a 6B65726E 		.ascii	"kernel_stats\000"
 2720      656C5F73 
 2720      74617473 
 2720      00
 2721              	.LASF3:
ARM GAS  /tmp/ccPVsYlv.s 			page 49


 2722 0037 5F5F7569 		.ascii	"__uint8_t\000"
 2722      6E74385F 
 2722      7400
 2723              	.LASF56:
 2724 0041 70726576 		.ascii	"prev\000"
 2724      00
 2725              	.LASF82:
 2726 0046 706F7274 		.ascii	"port_intctx\000"
 2726      5F696E74 
 2726      63747800 
 2727              	.LASF55:
 2728 0052 63685F74 		.ascii	"ch_threads_queue\000"
 2728      68726561 
 2728      64735F71 
 2728      75657565 
 2728      00
 2729              	.LASF68:
 2730 0063 73797374 		.ascii	"system_debug_t\000"
 2730      656D5F64 
 2730      65627567 
 2730      5F7400
 2731              	.LASF130:
 2732 0072 706F7274 		.ascii	"port_lock\000"
 2732      5F6C6F63 
 2732      6B00
 2733              	.LASF86:
 2734 007c 776F7273 		.ascii	"worst\000"
 2734      7400
 2735              	.LASF89:
 2736 0082 74696D65 		.ascii	"time_measurement_t\000"
 2736      5F6D6561 
 2736      73757265 
 2736      6D656E74 
 2736      5F7400
 2737              	.LASF14:
 2738 0095 6C6F6E67 		.ascii	"long long unsigned int\000"
 2738      206C6F6E 
 2738      6720756E 
 2738      7369676E 
 2738      65642069 
 2739              	.LASF96:
 2740 00ac 65786974 		.ascii	"exitcode\000"
 2740      636F6465 
 2740      00
 2741              	.LASF75:
 2742 00b5 6D61696E 		.ascii	"mainthread\000"
 2742      74687265 
 2742      616400
 2743              	.LASF99:
 2744 00c0 73656E74 		.ascii	"sentmsg\000"
 2744      6D736700 
 2745              	.LASF135:
 2746 00c8 63685265 		.ascii	"chRegFirstThread\000"
 2746      67466972 
 2746      73745468 
 2746      72656164 
 2746      00
ARM GAS  /tmp/ccPVsYlv.s 			page 50


 2747              	.LASF140:
 2748 00d9 49544D5F 		.ascii	"ITM_RxBuffer\000"
 2748      52784275 
 2748      66666572 
 2748      00
 2749              	.LASF147:
 2750 00e6 2E2E2F2E 		.ascii	"../../modules/ChibiOS/os/rt/src/chregistry.c\000"
 2750      2E2F6D6F 
 2750      64756C65 
 2750      732F4368 
 2750      6962694F 
 2751              	.LASF53:
 2752 0113 6E657874 		.ascii	"next\000"
 2752      00
 2753              	.LASF23:
 2754 0118 72747469 		.ascii	"rttime_t\000"
 2754      6D655F74 
 2754      00
 2755              	.LASF12:
 2756 0121 6C6F6E67 		.ascii	"long long int\000"
 2756      206C6F6E 
 2756      6720696E 
 2756      7400
 2757              	.LASF1:
 2758 012f 7369676E 		.ascii	"signed char\000"
 2758      65642063 
 2758      68617200 
 2759              	.LASF108:
 2760 013b 73697A65 		.ascii	"size\000"
 2760      00
 2761              	.LASF139:
 2762 0140 63685265 		.ascii	"chRegFindThreadByWorkingArea\000"
 2762      6746696E 
 2762      64546872 
 2762      65616442 
 2762      79576F72 
 2763              	.LASF127:
 2764 015d 62617365 		.ascii	"basePri\000"
 2764      50726900 
 2765              	.LASF74:
 2766 0165 76746C69 		.ascii	"vtlist\000"
 2766      737400
 2767              	.LASF131:
 2768 016c 706F7274 		.ascii	"port_unlock\000"
 2768      5F756E6C 
 2768      6F636B00 
 2769              	.LASF43:
 2770 0178 6D736771 		.ascii	"msgqueue\000"
 2770      75657565 
 2770      00
 2771              	.LASF39:
 2772 0181 73746174 		.ascii	"state\000"
 2772      6500
 2773              	.LASF9:
 2774 0187 6C6F6E67 		.ascii	"long int\000"
 2774      20696E74 
 2774      00
ARM GAS  /tmp/ccPVsYlv.s 			page 51


 2775              	.LASF25:
 2776 0190 74737461 		.ascii	"tstate_t\000"
 2776      74655F74 
 2776      00
 2777              	.LASF64:
 2778 0199 66756E63 		.ascii	"func\000"
 2778      00
 2779              	.LASF48:
 2780 019e 73746174 		.ascii	"stats\000"
 2780      7300
 2781              	.LASF124:
 2782 01a4 63686465 		.ascii	"chdebug_t\000"
 2782      6275675F 
 2782      7400
 2783              	.LASF122:
 2784 01ae 6F66665F 		.ascii	"off_preempt\000"
 2784      70726565 
 2784      6D707400 
 2785              	.LASF138:
 2786 01ba 63685265 		.ascii	"chRegFindThreadByPointer\000"
 2786      6746696E 
 2786      64546872 
 2786      65616442 
 2786      79506F69 
 2787              	.LASF36:
 2788 01d3 6F6C6465 		.ascii	"older\000"
 2788      7200
 2789              	.LASF10:
 2790 01d9 5F5F7569 		.ascii	"__uint32_t\000"
 2790      6E743332 
 2790      5F7400
 2791              	.LASF79:
 2792 01e4 72656761 		.ascii	"regarm_t\000"
 2792      726D5F74 
 2792      00
 2793              	.LASF69:
 2794 01ed 63685F73 		.ascii	"ch_system_debug\000"
 2794      79737465 
 2794      6D5F6465 
 2794      62756700 
 2795              	.LASF42:
 2796 01fd 77616974 		.ascii	"waiting\000"
 2796      696E6700 
 2797              	.LASF107:
 2798 0205 7A65726F 		.ascii	"zero\000"
 2798      00
 2799              	.LASF125:
 2800 020a 6D757465 		.ascii	"mutex_t\000"
 2800      785F7400 
 2801              	.LASF78:
 2802 0212 73797369 		.ascii	"sysinterval_t\000"
 2802      6E746572 
 2802      76616C5F 
 2802      7400
 2803              	.LASF30:
 2804 0220 636E745F 		.ascii	"cnt_t\000"
 2804      7400
ARM GAS  /tmp/ccPVsYlv.s 			page 52


 2805              	.LASF0:
 2806 0226 756E7369 		.ascii	"unsigned int\000"
 2806      676E6564 
 2806      20696E74 
 2806      00
 2807              	.LASF146:
 2808 0233 474E5520 		.ascii	"GNU C 4.9.3 20150529 (prerelease) -mcpu=cortex-m4 -"
 2808      4320342E 
 2808      392E3320 
 2808      32303135 
 2808      30353239 
 2809 0266 6D666C6F 		.ascii	"mfloat-abi=hard -mfpu=fpv4-sp-d16 -mno-thumb-interw"
 2809      61742D61 
 2809      62693D68 
 2809      61726420 
 2809      2D6D6670 
 2810 0299 6F726B20 		.ascii	"ork -mthumb -g -Os -fomit-frame-pointer -falign-fun"
 2810      2D6D7468 
 2810      756D6220 
 2810      2D67202D 
 2810      4F73202D 
 2811 02cc 6374696F 		.ascii	"ctions=16 -ffunction-sections -fdata-sections -fno-"
 2811      6E733D31 
 2811      36202D66 
 2811      66756E63 
 2811      74696F6E 
 2812 02ff 636F6D6D 		.ascii	"common -fsingle-precision-constant\000"
 2812      6F6E202D 
 2812      6673696E 
 2812      676C652D 
 2812      70726563 
 2813              	.LASF18:
 2814 0322 75696E74 		.ascii	"uint16_t\000"
 2814      31365F74 
 2814      00
 2815              	.LASF100:
 2816 032b 77747365 		.ascii	"wtsemp\000"
 2816      6D7000
 2817              	.LASF98:
 2818 0332 77747472 		.ascii	"wttrp\000"
 2818      7000
 2819              	.LASF141:
 2820 0338 63685F64 		.ascii	"ch_debug\000"
 2820      65627567 
 2820      00
 2821              	.LASF90:
 2822 0341 6E5F6972 		.ascii	"n_irq\000"
 2822      7100
 2823              	.LASF33:
 2824 0347 71756575 		.ascii	"queue\000"
 2824      6500
 2825              	.LASF47:
 2826 034d 6D706F6F 		.ascii	"mpool\000"
 2826      6C00
 2827              	.LASF121:
 2828 0353 6F66665F 		.ascii	"off_refs\000"
 2828      72656673 
ARM GAS  /tmp/ccPVsYlv.s 			page 53


 2828      00
 2829              	.LASF94:
 2830 035c 6B65726E 		.ascii	"kernel_stats_t\000"
 2830      656C5F73 
 2830      74617473 
 2830      5F7400
 2831              	.LASF51:
 2832 036b 63685F74 		.ascii	"ch_thread\000"
 2832      68726561 
 2832      6400
 2833              	.LASF37:
 2834 0375 6E616D65 		.ascii	"name\000"
 2834      00
 2835              	.LASF28:
 2836 037a 6D73675F 		.ascii	"msg_t\000"
 2836      7400
 2837              	.LASF87:
 2838 0380 6C617374 		.ascii	"last\000"
 2838      00
 2839              	.LASF31:
 2840 0385 75636E74 		.ascii	"ucnt_t\000"
 2840      5F7400
 2841              	.LASF44:
 2842 038c 6570656E 		.ascii	"epending\000"
 2842      64696E67 
 2842      00
 2843              	.LASF71:
 2844 0395 63685F73 		.ascii	"ch_system_t\000"
 2844      79737465 
 2844      6D5F7400 
 2845              	.LASF114:
 2846 03a1 6F66665F 		.ascii	"off_ctx\000"
 2846      63747800 
 2847              	.LASF24:
 2848 03a9 746D6F64 		.ascii	"tmode_t\000"
 2848      655F7400 
 2849              	.LASF93:
 2850 03b1 6D5F6372 		.ascii	"m_crit_isr\000"
 2850      69745F69 
 2850      737200
 2851              	.LASF58:
 2852 03bc 63685F72 		.ascii	"ch_ready_list\000"
 2852      65616479 
 2852      5F6C6973 
 2852      7400
 2853              	.LASF29:
 2854 03ca 6576656E 		.ascii	"eventmask_t\000"
 2854      746D6173 
 2854      6B5F7400 
 2855              	.LASF117:
 2856 03d6 6F66665F 		.ascii	"off_name\000"
 2856      6E616D65 
 2856      00
 2857              	.LASF8:
 2858 03df 5F5F696E 		.ascii	"__int32_t\000"
 2858      7433325F 
 2858      7400
ARM GAS  /tmp/ccPVsYlv.s 			page 54


 2859              	.LASF65:
 2860 03e9 76697274 		.ascii	"virtual_timers_list_t\000"
 2860      75616C5F 
 2860      74696D65 
 2860      72735F6C 
 2860      6973745F 
 2861              	.LASF145:
 2862 03ff 73747263 		.ascii	"strcmp\000"
 2862      6D7000
 2863              	.LASF80:
 2864 0406 73746B61 		.ascii	"stkalign_t\000"
 2864      6C69676E 
 2864      5F7400
 2865              	.LASF35:
 2866 0411 6E657765 		.ascii	"newer\000"
 2866      7200
 2867              	.LASF46:
 2868 0417 7265616C 		.ascii	"realprio\000"
 2868      7072696F 
 2868      00
 2869              	.LASF109:
 2870 0420 76657273 		.ascii	"version\000"
 2870      696F6E00 
 2871              	.LASF143:
 2872 0428 5F737461 		.ascii	"_stats_stop_measure_crit_thd\000"
 2872      74735F73 
 2872      746F705F 
 2872      6D656173 
 2872      7572655F 
 2873              	.LASF15:
 2874 0445 73697A65 		.ascii	"sizetype\000"
 2874      74797065 
 2874      00
 2875              	.LASF49:
 2876 044e 74687265 		.ascii	"thread_reference_t\000"
 2876      61645F72 
 2876      65666572 
 2876      656E6365 
 2876      5F7400
 2877              	.LASF66:
 2878 0461 63685F76 		.ascii	"ch_virtual_timers_list\000"
 2878      69727475 
 2878      616C5F74 
 2878      696D6572 
 2878      735F6C69 
 2879              	.LASF115:
 2880 0478 6F66665F 		.ascii	"off_newer\000"
 2880      6E657765 
 2880      7200
 2881              	.LASF81:
 2882 0482 706F7274 		.ascii	"port_context\000"
 2882      5F636F6E 
 2882      74657874 
 2882      00
 2883              	.LASF84:
 2884 048f 746D5F63 		.ascii	"tm_calibration_t\000"
 2884      616C6962 
ARM GAS  /tmp/ccPVsYlv.s 			page 55


 2884      72617469 
 2884      6F6E5F74 
 2884      00
 2885              	.LASF34:
 2886 04a0 7072696F 		.ascii	"prio\000"
 2886      00
 2887              	.LASF59:
 2888 04a5 63757272 		.ascii	"current\000"
 2888      656E7400 
 2889              	.LASF13:
 2890 04ad 5F5F7569 		.ascii	"__uint64_t\000"
 2890      6E743634 
 2890      5F7400
 2891              	.LASF88:
 2892 04b8 63756D75 		.ascii	"cumulative\000"
 2892      6C617469 
 2892      766500
 2893              	.LASF26:
 2894 04c3 74726566 		.ascii	"trefs_t\000"
 2894      735F7400 
 2895              	.LASF112:
 2896 04cb 74687265 		.ascii	"threadsize\000"
 2896      61647369 
 2896      7A6500
 2897              	.LASF41:
 2898 04d6 72656673 		.ascii	"refs\000"
 2898      00
 2899              	.LASF61:
 2900 04db 76697274 		.ascii	"virtual_timer_t\000"
 2900      75616C5F 
 2900      74696D65 
 2900      725F7400 
 2901              	.LASF27:
 2902 04eb 74707269 		.ascii	"tprio_t\000"
 2902      6F5F7400 
 2903              	.LASF91:
 2904 04f3 6E5F6374 		.ascii	"n_ctxswc\000"
 2904      78737763 
 2904      00
 2905              	.LASF126:
 2906 04fc 5F426F6F 		.ascii	"_Bool\000"
 2906      6C00
 2907              	.LASF19:
 2908 0502 696E7433 		.ascii	"int32_t\000"
 2908      325F7400 
 2909              	.LASF4:
 2910 050a 756E7369 		.ascii	"unsigned char\000"
 2910      676E6564 
 2910      20636861 
 2910      7200
 2911              	.LASF113:
 2912 0518 6F66665F 		.ascii	"off_prio\000"
 2912      7072696F 
 2912      00
 2913              	.LASF118:
 2914 0521 6F66665F 		.ascii	"off_stklimit\000"
 2914      73746B6C 
ARM GAS  /tmp/ccPVsYlv.s 			page 56


 2914      696D6974 
 2914      00
 2915              	.LASF5:
 2916 052e 73686F72 		.ascii	"short int\000"
 2916      7420696E 
 2916      7400
 2917              	.LASF67:
 2918 0538 6C617374 		.ascii	"lasttime\000"
 2918      74696D65 
 2918      00
 2919              	.LASF128:
 2920 0541 63685468 		.ascii	"chThdGetWorkingAreaX\000"
 2920      64476574 
 2920      576F726B 
 2920      696E6741 
 2920      72656158 
 2921              	.LASF102:
 2922 0556 65776D61 		.ascii	"ewmask\000"
 2922      736B00
 2923              	.LASF72:
 2924 055d 63685F73 		.ascii	"ch_system\000"
 2924      79737465 
 2924      6D00
 2925              	.LASF149:
 2926 0567 5F5F6675 		.ascii	"__func__\000"
 2926      6E635F5F 
 2926      00
 2927              	.LASF132:
 2928 0570 63685379 		.ascii	"chSysLock\000"
 2928      734C6F63 
 2928      6B00
 2929              	.LASF144:
 2930 057a 63685468 		.ascii	"chThdRelease\000"
 2930      6452656C 
 2930      65617365 
 2930      00
 2931              	.LASF62:
 2932 0587 63685F76 		.ascii	"ch_virtual_timer\000"
 2932      69727475 
 2932      616C5F74 
 2932      696D6572 
 2932      00
 2933              	.LASF103:
 2934 0598 63685F73 		.ascii	"ch_semaphore\000"
 2934      656D6170 
 2934      686F7265 
 2934      00
 2935              	.LASF123:
 2936 05a5 6F66665F 		.ascii	"off_time\000"
 2936      74696D65 
 2936      00
 2937              	.LASF111:
 2938 05ae 74696D65 		.ascii	"timesize\000"
 2938      73697A65 
 2938      00
 2939              	.LASF20:
 2940 05b7 75696E74 		.ascii	"uint32_t\000"
ARM GAS  /tmp/ccPVsYlv.s 			page 57


 2940      33325F74 
 2940      00
 2941              	.LASF101:
 2942 05c0 77746D74 		.ascii	"wtmtxp\000"
 2942      787000
 2943              	.LASF52:
 2944 05c7 63685F74 		.ascii	"ch_threads_list\000"
 2944      68726561 
 2944      64735F6C 
 2944      69737400 
 2945              	.LASF105:
 2946 05d7 6F776E65 		.ascii	"owner\000"
 2946      7200
 2947              	.LASF129:
 2948 05dd 63685265 		.ascii	"chRegGetThreadNameX\000"
 2948      67476574 
 2948      54687265 
 2948      61644E61 
 2948      6D655800 
 2949              	.LASF11:
 2950 05f1 6C6F6E67 		.ascii	"long unsigned int\000"
 2950      20756E73 
 2950      69676E65 
 2950      6420696E 
 2950      7400
 2951              	.LASF38:
 2952 0603 77616261 		.ascii	"wabase\000"
 2952      736500
 2953              	.LASF16:
 2954 060a 63686172 		.ascii	"char\000"
 2954      00
 2955              	.LASF136:
 2956 060f 63685265 		.ascii	"chRegNextThread\000"
 2956      674E6578 
 2956      74546872 
 2956      65616400 
 2957              	.LASF6:
 2958 061f 5F5F7569 		.ascii	"__uint16_t\000"
 2958      6E743136 
 2958      5F7400
 2959              	.LASF32:
 2960 062a 74687265 		.ascii	"thread_t\000"
 2960      61645F74 
 2960      00
 2961              	.LASF85:
 2962 0633 62657374 		.ascii	"best\000"
 2962      00
 2963              	.LASF77:
 2964 0638 73797374 		.ascii	"systime_t\000"
 2964      696D655F 
 2964      7400
 2965              	.LASF60:
 2966 0642 76746675 		.ascii	"vtfunc_t\000"
 2966      6E635F74 
 2966      00
 2967              	.LASF133:
 2968 064b 5F5F7365 		.ascii	"__set_BASEPRI\000"
ARM GAS  /tmp/ccPVsYlv.s 			page 58


 2968      745F4241 
 2968      53455052 
 2968      4900
 2969              	.LASF70:
 2970 0659 70616E69 		.ascii	"panic_msg\000"
 2970      635F6D73 
 2970      6700
 2971              	.LASF83:
 2972 0663 6F666673 		.ascii	"offset\000"
 2972      657400
 2973              	.LASF116:
 2974 066a 6F66665F 		.ascii	"off_older\000"
 2974      6F6C6465 
 2974      7200
 2975              	.LASF7:
 2976 0674 73686F72 		.ascii	"short unsigned int\000"
 2976      7420756E 
 2976      7369676E 
 2976      65642069 
 2976      6E7400
 2977              	.LASF148:
 2978 0687 2F686F6D 		.ascii	"/home/kozinalexey/f4by/ardupilot/build/F4BY\000"
 2978      652F6B6F 
 2978      7A696E61 
 2978      6C657865 
 2978      792F6634 
 2979              	.LASF106:
 2980 06b3 6964656E 		.ascii	"identifier\000"
 2980      74696669 
 2980      657200
 2981              	.LASF22:
 2982 06be 7274636E 		.ascii	"rtcnt_t\000"
 2982      745F7400 
 2983              	.LASF137:
 2984 06c6 63685265 		.ascii	"chRegFindThreadByName\000"
 2984      6746696E 
 2984      64546872 
 2984      65616442 
 2984      794E616D 
 2985              	.LASF110:
 2986 06dc 70747273 		.ascii	"ptrsize\000"
 2986      697A6500 
 2987              	.LASF54:
 2988 06e4 74687265 		.ascii	"threads_queue_t\000"
 2988      6164735F 
 2988      71756575 
 2988      655F7400 
 2989              	.LASF104:
 2990 06f4 63685F6D 		.ascii	"ch_mutex\000"
 2990      75746578 
 2990      00
 2991              	.LASF73:
 2992 06fd 726C6973 		.ascii	"rlist\000"
 2992      7400
 2993              	.LASF17:
 2994 0703 75696E74 		.ascii	"uint8_t\000"
 2994      385F7400 
ARM GAS  /tmp/ccPVsYlv.s 			page 59


 2995              	.LASF40:
 2996 070b 666C6167 		.ascii	"flags\000"
 2996      7300
 2997              	.LASF142:
 2998 0711 5F737461 		.ascii	"_stats_start_measure_crit_thd\000"
 2998      74735F73 
 2998      74617274 
 2998      5F6D6561 
 2998      73757265 
 2999              	.LASF97:
 3000 072f 77746F62 		.ascii	"wtobjp\000"
 3000      6A7000
 3001              	.LASF50:
 3002 0736 74687265 		.ascii	"threads_list_t\000"
 3002      6164735F 
 3002      6C697374 
 3002      5F7400
 3003              	.LASF119:
 3004 0745 6F66665F 		.ascii	"off_state\000"
 3004      73746174 
 3004      6500
 3005              	.LASF134:
 3006 074f 63685379 		.ascii	"chSysUnlock\000"
 3006      73556E6C 
 3006      6F636B00 
 3007              	.LASF120:
 3008 075b 6F66665F 		.ascii	"off_flags\000"
 3008      666C6167 
 3008      7300
 3009              	.LASF45:
 3010 0765 6D74786C 		.ascii	"mtxlist\000"
 3010      69737400 
 3011              	.LASF92:
 3012 076d 6D5F6372 		.ascii	"m_crit_thd\000"
 3012      69745F74 
 3012      686400
 3013              		.ident	"GCC: (15:4.9.3+svn231177-1) 4.9.3 20150529 (prerelease)"
ARM GAS  /tmp/ccPVsYlv.s 			page 60


DEFINED SYMBOLS
                            *ABS*:0000000000000000 chregistry.c
     /tmp/ccPVsYlv.s:21     .text.chRegFirstThread:0000000000000000 $t
     /tmp/ccPVsYlv.s:26     .text.chRegFirstThread:0000000000000000 chRegFirstThread
     /tmp/ccPVsYlv.s:93     .text.chRegFirstThread:0000000000000028 $d
     /tmp/ccPVsYlv.s:98     .text.chRegNextThread:0000000000000000 $t
     /tmp/ccPVsYlv.s:103    .text.chRegNextThread:0000000000000000 chRegNextThread
     /tmp/ccPVsYlv.s:181    .text.chRegNextThread:0000000000000038 $d
     /tmp/ccPVsYlv.s:186    .text.chRegFindThreadByName:0000000000000000 $t
     /tmp/ccPVsYlv.s:191    .text.chRegFindThreadByName:0000000000000000 chRegFindThreadByName
     /tmp/ccPVsYlv.s:237    .text.chRegFindThreadByPointer:0000000000000000 $t
     /tmp/ccPVsYlv.s:242    .text.chRegFindThreadByPointer:0000000000000000 chRegFindThreadByPointer
     /tmp/ccPVsYlv.s:275    .text.chRegFindThreadByWorkingArea:0000000000000000 $t
     /tmp/ccPVsYlv.s:280    .text.chRegFindThreadByWorkingArea:0000000000000000 chRegFindThreadByWorkingArea
     /tmp/ccPVsYlv.s:318    .rodata.ch_debug:0000000000000000 ch_debug
     /tmp/ccPVsYlv.s:315    .rodata.ch_debug:0000000000000000 $d
                     .debug_frame:0000000000000010 $d

UNDEFINED SYMBOLS
_stats_start_measure_crit_thd
_stats_stop_measure_crit_thd
ch
chThdRelease
strcmp
