ARM GAS  /tmp/ccPVsYlv.s 			page 1


   1              		.syntax unified
   2              		.cpu cortex-m4
   3              		.eabi_attribute 27, 1
   4              		.eabi_attribute 28, 1
   5              		.fpu fpv4-sp-d16
   6              		.eabi_attribute 20, 1
   7              		.eabi_attribute 21, 1
   8              		.eabi_attribute 23, 3
   9              		.eabi_attribute 24, 1
  10              		.eabi_attribute 25, 1
  11              		.eabi_attribute 26, 1
  12              		.eabi_attribute 30, 4
  13              		.eabi_attribute 34, 1
  14              		.eabi_attribute 18, 4
  15              		.thumb
  16              		.file	"chregistry.c"
  17              		.text
  18              	.Ltext0:
  19              		.cfi_sections	.debug_frame
  20              		.section	.text.chRegFirstThread,"ax",%progbits
  21              		.align	1
  22              		.global	chRegFirstThread
  23              		.thumb
  24              		.thumb_func
  25              		.type	chRegFirstThread, %function
  26              	chRegFirstThread:
  27              	.LFB290:
  28              		.file 1 "../../modules/ChibiOS/os/rt/src/chregistry.c"
  29              		.loc 1 134 0
  30              		.cfi_startproc
  31              		@ args = 0, pretend = 0, frame = 0
  32              		@ frame_needed = 0, uses_anonymous_args = 0
  33              	.LVL0:
  34 0000 10B5     		push	{r4, lr}
  35              		.cfi_def_cfa_offset 8
  36              		.cfi_offset 4, -8
  37              		.cfi_offset 14, -4
  38              	.LBB28:
  39              	.LBB29:
  40              	.LBB30:
  41              	.LBB31:
  42              	.LBB32:
  43              		.file 2 "../../modules/ChibiOS/os/common/ext/ARM/CMSIS/Core/Include/cmsis_gcc.h"
  44              		.loc 2 493 0
  45 0002 2023     		movs	r3, #32
  46              	@ 493 "../../modules/ChibiOS/os/common/ext/ARM/CMSIS/Core/Include/cmsis_gcc.h" 1
  47 0004 83F31188 		MSR basepri, r3
  48              	@ 0 "" 2
  49              		.thumb
  50              	.LBE32:
  51              	.LBE31:
  52              	.LBE30:
  53              		.file 3 "../../modules/ChibiOS/os/rt/include/chsys.h"
  54              		.loc 3 356 0
  55 0008 FFF7FEFF 		bl	_stats_start_measure_crit_thd
  56              	.LVL1:
  57              	.LBE29:
ARM GAS  /tmp/ccPVsYlv.s 			page 2


  58              	.LBE28:
  59              		.loc 1 138 0
  60 000c 064B     		ldr	r3, .L2
  61 000e 1C69     		ldr	r4, [r3, #16]
  62              	.LVL2:
  63              		.loc 1 140 0
  64 0010 94F82230 		ldrb	r3, [r4, #34]	@ zero_extendqisi2
  65 0014 0133     		adds	r3, r3, #1
  66 0016 84F82230 		strb	r3, [r4, #34]
  67              	.LBB33:
  68              	.LBB34:
  69              		.loc 3 368 0
  70 001a FFF7FEFF 		bl	_stats_stop_measure_crit_thd
  71              	.LVL3:
  72              	.LBB35:
  73              	.LBB36:
  74              	.LBB37:
  75              		.loc 2 493 0
  76 001e 0023     		movs	r3, #0
  77              	@ 493 "../../modules/ChibiOS/os/common/ext/ARM/CMSIS/Core/Include/cmsis_gcc.h" 1
  78 0020 83F31188 		MSR basepri, r3
  79              	@ 0 "" 2
  80              		.thumb
  81              	.LBE37:
  82              	.LBE36:
  83              	.LBE35:
  84              	.LBE34:
  85              	.LBE33:
  86              		.loc 1 145 0
  87 0024 2046     		mov	r0, r4
  88 0026 10BD     		pop	{r4, pc}
  89              	.LVL4:
  90              	.L3:
  91              		.align	2
  92              	.L2:
  93 0028 00000000 		.word	ch
  94              		.cfi_endproc
  95              	.LFE290:
  96              		.size	chRegFirstThread, .-chRegFirstThread
  97              		.section	.text.chRegNextThread,"ax",%progbits
  98              		.align	1
  99              		.global	chRegNextThread
 100              		.thumb
 101              		.thumb_func
 102              		.type	chRegNextThread, %function
 103              	chRegNextThread:
 104              	.LFB291:
 105              		.loc 1 158 0
 106              		.cfi_startproc
 107              		@ args = 0, pretend = 0, frame = 0
 108              		@ frame_needed = 0, uses_anonymous_args = 0
 109              	.LVL5:
 110 0000 38B5     		push	{r3, r4, r5, lr}
 111              		.cfi_def_cfa_offset 16
 112              		.cfi_offset 3, -16
 113              		.cfi_offset 4, -12
 114              		.cfi_offset 5, -8
ARM GAS  /tmp/ccPVsYlv.s 			page 3


 115              		.cfi_offset 14, -4
 116              		.loc 1 158 0
 117 0002 0546     		mov	r5, r0
 118              	.LBB48:
 119              	.LBB49:
 120              	.LBB50:
 121              	.LBB51:
 122              	.LBB52:
 123              		.loc 2 493 0
 124 0004 2023     		movs	r3, #32
 125              	@ 493 "../../modules/ChibiOS/os/common/ext/ARM/CMSIS/Core/Include/cmsis_gcc.h" 1
 126 0006 83F31188 		MSR basepri, r3
 127              	@ 0 "" 2
 128              		.thumb
 129              	.LBE52:
 130              	.LBE51:
 131              	.LBE50:
 132              		.loc 3 356 0
 133 000a FFF7FEFF 		bl	_stats_start_measure_crit_thd
 134              	.LVL6:
 135              	.LBE49:
 136              	.LBE48:
 137              		.loc 1 162 0
 138 000e 2C69     		ldr	r4, [r5, #16]
 139              	.LVL7:
 140              		.loc 1 164 0
 141 0010 094B     		ldr	r3, .L7
 142 0012 9C42     		cmp	r4, r3
 143              		.loc 1 171 0
 144 0014 1DBF     		ittte	ne
 145 0016 94F82230 		ldrbne	r3, [r4, #34]	@ zero_extendqisi2
 146 001a 0133     		addne	r3, r3, #1
 147 001c 84F82230 		strbne	r3, [r4, #34]
 148              		.loc 1 166 0
 149 0020 0024     		moveq	r4, #0
 150              	.LVL8:
 151              	.LBB53:
 152              	.LBB54:
 153              		.loc 3 368 0
 154 0022 FFF7FEFF 		bl	_stats_stop_measure_crit_thd
 155              	.LVL9:
 156              	.LBB55:
 157              	.LBB56:
 158              	.LBB57:
 159              		.loc 2 493 0
 160 0026 0023     		movs	r3, #0
 161              	@ 493 "../../modules/ChibiOS/os/common/ext/ARM/CMSIS/Core/Include/cmsis_gcc.h" 1
 162 0028 83F31188 		MSR basepri, r3
 163              	@ 0 "" 2
 164              		.thumb
 165              	.LBE57:
 166              	.LBE56:
 167              	.LBE55:
 168              	.LBE54:
 169              	.LBE53:
 170              		.loc 1 176 0
 171 002c 2846     		mov	r0, r5
ARM GAS  /tmp/ccPVsYlv.s 			page 4


 172 002e FFF7FEFF 		bl	chThdRelease
 173              	.LVL10:
 174              		.loc 1 180 0
 175 0032 2046     		mov	r0, r4
 176 0034 38BD     		pop	{r3, r4, r5, pc}
 177              	.LVL11:
 178              	.L8:
 179 0036 00BF     		.align	2
 180              	.L7:
 181 0038 00000000 		.word	ch
 182              		.cfi_endproc
 183              	.LFE291:
 184              		.size	chRegNextThread, .-chRegNextThread
 185              		.section	.text.chRegFindThreadByName,"ax",%progbits
 186              		.align	1
 187              		.global	chRegFindThreadByName
 188              		.thumb
 189              		.thumb_func
 190              		.type	chRegFindThreadByName, %function
 191              	chRegFindThreadByName:
 192              	.LFB292:
 193              		.loc 1 194 0
 194              		.cfi_startproc
 195              		@ args = 0, pretend = 0, frame = 0
 196              		@ frame_needed = 0, uses_anonymous_args = 0
 197              	.LVL12:
 198 0000 38B5     		push	{r3, r4, r5, lr}
 199              		.cfi_def_cfa_offset 16
 200              		.cfi_offset 3, -16
 201              		.cfi_offset 4, -12
 202              		.cfi_offset 5, -8
 203              		.cfi_offset 14, -4
 204              		.loc 1 194 0
 205 0002 0546     		mov	r5, r0
 206              		.loc 1 198 0
 207 0004 FFF7FEFF 		bl	chRegFirstThread
 208              	.LVL13:
 209 0008 0446     		mov	r4, r0
 210              	.LVL14:
 211              	.L11:
 212              		.loc 1 200 0
 213 000a A069     		ldr	r0, [r4, #24]
 214              	.LVL15:
 215 000c 2946     		mov	r1, r5
 216 000e FFF7FEFF 		bl	strcmp
 217              	.LVL16:
 218 0012 28B1     		cbz	r0, .L10
 219              		.loc 1 203 0
 220 0014 2046     		mov	r0, r4
 221 0016 FFF7FEFF 		bl	chRegNextThread
 222              	.LVL17:
 223              		.loc 1 204 0
 224 001a 0446     		mov	r4, r0
 225              	.LVL18:
 226 001c 0028     		cmp	r0, #0
 227 001e F4D1     		bne	.L11
 228              	.LVL19:
ARM GAS  /tmp/ccPVsYlv.s 			page 5


 229              	.L10:
 230              		.loc 1 207 0
 231 0020 2046     		mov	r0, r4
 232 0022 38BD     		pop	{r3, r4, r5, pc}
 233              		.cfi_endproc
 234              	.LFE292:
 235              		.size	chRegFindThreadByName, .-chRegFindThreadByName
 236              		.section	.text.chRegFindThreadByPointer,"ax",%progbits
 237              		.align	1
 238              		.global	chRegFindThreadByPointer
 239              		.thumb
 240              		.thumb_func
 241              		.type	chRegFindThreadByPointer, %function
 242              	chRegFindThreadByPointer:
 243              	.LFB293:
 244              		.loc 1 221 0
 245              		.cfi_startproc
 246              		@ args = 0, pretend = 0, frame = 0
 247              		@ frame_needed = 0, uses_anonymous_args = 0
 248              	.LVL20:
 249 0000 10B5     		push	{r4, lr}
 250              		.cfi_def_cfa_offset 8
 251              		.cfi_offset 4, -8
 252              		.cfi_offset 14, -4
 253              		.loc 1 221 0
 254 0002 0446     		mov	r4, r0
 255              		.loc 1 225 0
 256 0004 FFF7FEFF 		bl	chRegFirstThread
 257              	.LVL21:
 258              	.L18:
 259              		.loc 1 227 0
 260 0008 A042     		cmp	r0, r4
 261 000a 03D0     		beq	.L17
 262              		.loc 1 230 0
 263 000c FFF7FEFF 		bl	chRegNextThread
 264              	.LVL22:
 265              		.loc 1 231 0
 266 0010 0028     		cmp	r0, #0
 267 0012 F9D1     		bne	.L18
 268              	.L17:
 269              		.loc 1 234 0
 270 0014 10BD     		pop	{r4, pc}
 271              		.cfi_endproc
 272              	.LFE293:
 273              		.size	chRegFindThreadByPointer, .-chRegFindThreadByPointer
 274              		.section	.text.chRegFindThreadByWorkingArea,"ax",%progbits
 275              		.align	1
 276              		.global	chRegFindThreadByWorkingArea
 277              		.thumb
 278              		.thumb_func
 279              		.type	chRegFindThreadByWorkingArea, %function
 280              	chRegFindThreadByWorkingArea:
 281              	.LFB294:
 282              		.loc 1 250 0
 283              		.cfi_startproc
 284              		@ args = 0, pretend = 0, frame = 0
 285              		@ frame_needed = 0, uses_anonymous_args = 0
ARM GAS  /tmp/ccPVsYlv.s 			page 6


 286              	.LVL23:
 287 0000 10B5     		push	{r4, lr}
 288              		.cfi_def_cfa_offset 8
 289              		.cfi_offset 4, -8
 290              		.cfi_offset 14, -4
 291              		.loc 1 250 0
 292 0002 0446     		mov	r4, r0
 293              		.loc 1 254 0
 294 0004 FFF7FEFF 		bl	chRegFirstThread
 295              	.LVL24:
 296              	.L23:
 297              		.loc 1 256 0
 298 0008 C369     		ldr	r3, [r0, #28]
 299 000a A342     		cmp	r3, r4
 300 000c 03D0     		beq	.L22
 301              		.loc 1 259 0
 302 000e FFF7FEFF 		bl	chRegNextThread
 303              	.LVL25:
 304              		.loc 1 260 0
 305 0012 0028     		cmp	r0, #0
 306 0014 F8D1     		bne	.L23
 307              	.L22:
 308              		.loc 1 263 0
 309 0016 10BD     		pop	{r4, pc}
 310              		.cfi_endproc
 311              	.LFE294:
 312              		.size	chRegFindThreadByWorkingArea, .-chRegFindThreadByWorkingArea
 313              		.global	ch_debug
 314              		.section	.rodata.ch_debug,"a",%progbits
 315              		.align	1
 316              		.type	ch_debug, %object
 317              		.size	ch_debug, 22
 318              	ch_debug:
 319 0000 6D       		.byte	109
 320 0001 61       		.byte	97
 321 0002 69       		.byte	105
 322 0003 6E       		.byte	110
 323 0004 00       		.byte	0
 324 0005 16       		.byte	22
 325 0006 0030     		.short	12288
 326 0008 04       		.byte	4
 327 0009 04       		.byte	4
 328 000a 60       		.byte	96
 329 000b 08       		.byte	8
 330 000c 0C       		.byte	12
 331 000d 10       		.byte	16
 332 000e 14       		.byte	20
 333 000f 18       		.byte	24
 334 0010 1C       		.byte	28
 335 0011 20       		.byte	32
 336 0012 21       		.byte	33
 337 0013 22       		.byte	34
 338 0014 00       		.byte	0
 339 0015 00       		.byte	0
 340              		.text
 341              	.Letext0:
 342              		.file 4 "/usr/lib/gcc/arm-none-eabi/4.9.3/include/stddef.h"
ARM GAS  /tmp/ccPVsYlv.s 			page 7


 343              		.file 5 "/usr/include/newlib/machine/_default_types.h"
 344              		.file 6 "/usr/include/newlib/sys/_stdint.h"
 345              		.file 7 "../../modules/ChibiOS/os/common/ports/ARMCMx/compilers/GCC/chtypes.h"
 346              		.file 8 "../../modules/ChibiOS/os/rt/include/chsystypes.h"
 347              		.file 9 "../../modules/ChibiOS/os/rt/include/chschd.h"
 348              		.file 10 "../../modules/ChibiOS/os/rt/include/chtime.h"
 349              		.file 11 "../../modules/ChibiOS/os/common/ports/ARMCMx/chcore.h"
 350              		.file 12 "../../modules/ChibiOS/os/common/ports/ARMCMx/chcore_v7m.h"
 351              		.file 13 "../../modules/ChibiOS/os/rt/include/chtm.h"
 352              		.file 14 "../../modules/ChibiOS/os/rt/include/chstats.h"
 353              		.file 15 "../../modules/ChibiOS/os/rt/include/chsem.h"
 354              		.file 16 "../../modules/ChibiOS/os/rt/include/chmtx.h"
 355              		.file 17 "../../modules/ChibiOS/os/rt/include/chregistry.h"
 356              		.file 18 "../../modules/ChibiOS/os/rt/include/chthreads.h"
 357              		.file 19 "../../modules/ChibiOS/os/common/ext/ARM/CMSIS/Core/Include/core_cm4.h"
 358              		.file 20 "/usr/include/newlib/string.h"