ARM GAS  /tmp/ccbMFK8z.s 			page 1


   1              		.syntax unified
   2              		.cpu cortex-m4
   3              		.eabi_attribute 27, 1
   4              		.eabi_attribute 28, 1
   5              		.fpu fpv4-sp-d16
   6              		.eabi_attribute 20, 1
   7              		.eabi_attribute 21, 1
   8              		.eabi_attribute 23, 3
   9              		.eabi_attribute 24, 1
  10              		.eabi_attribute 25, 1
  11              		.eabi_attribute 26, 1
  12              		.eabi_attribute 30, 4
  13              		.eabi_attribute 34, 1
  14              		.eabi_attribute 18, 4
  15              		.thumb
  16              		.file	"chschd.c"
  17              		.text
  18              	.Ltext0:
  19              		.cfi_sections	.debug_frame
  20              		.section	.text._scheduler_init,"ax",%progbits
  21              		.align	1
  22              		.global	_scheduler_init
  23              		.thumb
  24              		.thumb_func
  25              		.type	_scheduler_init, %function
  26              	_scheduler_init:
  27              	.LFB290:
  28              		.file 1 "../../modules/ChibiOS/os/rt/src/chschd.c"
  29              		.loc 1 65 0
  30              		.cfi_startproc
  31              		@ args = 0, pretend = 0, frame = 0
  32              		@ frame_needed = 0, uses_anonymous_args = 0
  33              		@ link register save eliminated.
  34              	.LVL0:
  35              	.LBB39:
  36              	.LBB40:
  37              		.file 2 "../../modules/ChibiOS/os/rt/include/chschd.h"
  38              		.loc 2 539 0
  39 0000 034B     		ldr	r3, .L2
  40              	.LBE40:
  41              	.LBE39:
  42              		.loc 1 68 0
  43 0002 0022     		movs	r2, #0
  44              	.LBB42:
  45              	.LBB41:
  46              		.loc 2 539 0
  47 0004 1B60     		str	r3, [r3]
  48              		.loc 2 540 0
  49 0006 5B60     		str	r3, [r3, #4]
  50              	.LBE41:
  51              	.LBE42:
  52              		.loc 1 68 0
  53 0008 9A60     		str	r2, [r3, #8]
  54              		.loc 1 70 0
  55 000a 1B61     		str	r3, [r3, #16]
  56              		.loc 1 71 0
  57 000c 5B61     		str	r3, [r3, #20]
ARM GAS  /tmp/ccbMFK8z.s 			page 2


  58 000e 7047     		bx	lr
  59              	.L3:
  60              		.align	2
  61              	.L2:
  62 0010 00000000 		.word	.LANCHOR0
  63              		.cfi_endproc
  64              	.LFE290:
  65              		.size	_scheduler_init, .-_scheduler_init
  66              		.section	.text.chSchReadyI,"ax",%progbits
  67              		.align	1
  68              		.global	chSchReadyI
  69              		.thumb
  70              		.thumb_func
  71              		.type	chSchReadyI, %function
  72              	chSchReadyI:
  73              	.LFB291:
  74              		.loc 1 218 0
  75              		.cfi_startproc
  76              		@ args = 0, pretend = 0, frame = 0
  77              		@ frame_needed = 0, uses_anonymous_args = 0
  78              		@ link register save eliminated.
  79              	.LVL1:
  80              		.loc 1 227 0
  81 0000 0023     		movs	r3, #0
  82 0002 80F82030 		strb	r3, [r0, #32]
  83              	.LVL2:
  84              		.loc 1 231 0
  85 0006 8268     		ldr	r2, [r0, #8]
  86              		.loc 1 228 0
  87 0008 054B     		ldr	r3, .L8
  88              	.LVL3:
  89              	.L5:
  90              		.loc 1 230 0 discriminator 1
  91 000a 1B68     		ldr	r3, [r3]
  92              	.LVL4:
  93              		.loc 1 231 0 discriminator 1
  94 000c 9968     		ldr	r1, [r3, #8]
  95 000e 9142     		cmp	r1, r2
  96 0010 FBD2     		bcs	.L5
  97              		.loc 1 234 0
  98 0012 5A68     		ldr	r2, [r3, #4]
  99              		.loc 1 233 0
 100 0014 0360     		str	r3, [r0]
 101              		.loc 1 234 0
 102 0016 4260     		str	r2, [r0, #4]
 103              		.loc 1 235 0
 104 0018 1060     		str	r0, [r2]
 105              		.loc 1 236 0
 106 001a 5860     		str	r0, [r3, #4]
 107              		.loc 1 239 0
 108 001c 7047     		bx	lr
 109              	.L9:
 110 001e 00BF     		.align	2
 111              	.L8:
 112 0020 00000000 		.word	.LANCHOR0
 113              		.cfi_endproc
 114              	.LFE291:
ARM GAS  /tmp/ccbMFK8z.s 			page 3


 115              		.size	chSchReadyI, .-chSchReadyI
 116              		.section	.text.wakeup,"ax",%progbits
 117              		.align	1
 118              		.thumb
 119              		.thumb_func
 120              		.type	wakeup, %function
 121              	wakeup:
 122              	.LFB294:
 123              		.loc 1 319 0
 124              		.cfi_startproc
 125              		@ args = 0, pretend = 0, frame = 0
 126              		@ frame_needed = 0, uses_anonymous_args = 0
 127              	.LVL5:
 128 0000 38B5     		push	{r3, r4, r5, lr}
 129              		.cfi_def_cfa_offset 16
 130              		.cfi_offset 3, -16
 131              		.cfi_offset 4, -12
 132              		.cfi_offset 5, -8
 133              		.cfi_offset 14, -4
 134              		.loc 1 319 0
 135 0002 0446     		mov	r4, r0
 136              	.LVL6:
 137              	.LBB65:
 138              	.LBB66:
 139              	.LBB67:
 140              	.LBB68:
 141              	.LBB69:
 142              	.LBB70:
 143              		.file 3 "../../modules/ChibiOS/os/common/ext/ARM/CMSIS/Core/Include/cmsis_gcc.h"
 144              		.loc 3 493 0
 145 0004 2023     		movs	r3, #32
 146              	@ 493 "../../modules/ChibiOS/os/common/ext/ARM/CMSIS/Core/Include/cmsis_gcc.h" 1
 147 0006 83F31188 		MSR basepri, r3
 148              	@ 0 "" 2
 149              		.thumb
 150              	.LBE70:
 151              	.LBE69:
 152              	.LBE68:
 153              	.LBE67:
 154              		.file 4 "../../modules/ChibiOS/os/rt/include/chsys.h"
 155              		.loc 4 396 0
 156 000a FFF7FEFF 		bl	_stats_start_measure_crit_isr
 157              	.LVL7:
 158              	.LBE66:
 159              	.LBE65:
 160              		.loc 1 323 0
 161 000e 94F82030 		ldrb	r3, [r4, #32]	@ zero_extendqisi2
 162 0012 0025     		movs	r5, #0
 163 0014 072B     		cmp	r3, #7
 164 0016 16D8     		bhi	.L11
 165 0018 DFE803F0 		tbb	[pc, r3]
 166              	.L13:
 167 001c 04       		.byte	(.L12-.L13)/2
 168 001d 15       		.byte	(.L11-.L13)/2
 169 001e 15       		.byte	(.L11-.L13)/2
 170 001f 09       		.byte	(.L14-.L13)/2
 171 0020 10       		.byte	(.L15-.L13)/2
ARM GAS  /tmp/ccbMFK8z.s 			page 4


 172 0021 0C       		.byte	(.L16-.L13)/2
 173 0022 15       		.byte	(.L11-.L13)/2
 174 0023 10       		.byte	(.L15-.L13)/2
 175              		.p2align 1
 176              	.L12:
 177              	.LBB71:
 178              	.LBB72:
 179              		.loc 4 416 0
 180 0024 FFF7FEFF 		bl	_stats_stop_measure_crit_isr
 181              	.LVL8:
 182              	.LBB73:
 183              	.LBB74:
 184              	.LBB75:
 185              	.LBB76:
 186              		.loc 3 493 0
 187              	@ 493 "../../modules/ChibiOS/os/common/ext/ARM/CMSIS/Core/Include/cmsis_gcc.h" 1
 188 0028 85F31188 		MSR basepri, r5
 189              	@ 0 "" 2
 190              		.thumb
 191 002c 38BD     		pop	{r3, r4, r5, pc}
 192              	.LVL9:
 193              	.L14:
 194              	.LBE76:
 195              	.LBE75:
 196              	.LBE74:
 197              	.LBE73:
 198              	.LBE72:
 199              	.LBE71:
 200              		.loc 1 330 0
 201 002e 636A     		ldr	r3, [r4, #36]
 202 0030 1D60     		str	r5, [r3]
 203              		.loc 1 331 0
 204 0032 08E0     		b	.L11
 205              	.L16:
 206              		.loc 1 334 0
 207 0034 626A     		ldr	r2, [r4, #36]
 208              	.LVL10:
 209              	.LBB77:
 210              	.LBB78:
 211              		.file 5 "../../modules/ChibiOS/os/rt/include/chsem.h"
 212              		.loc 5 138 0
 213 0036 9368     		ldr	r3, [r2, #8]
 214 0038 0133     		adds	r3, r3, #1
 215 003a 9360     		str	r3, [r2, #8]
 216              	.LVL11:
 217              	.L15:
 218              	.LBE78:
 219              	.LBE77:
 220              	.LBB79:
 221              	.LBB80:
 222              		.loc 2 626 0
 223 003c 94E80C00 		ldmia	r4, {r2, r3}
 224 0040 1A60     		str	r2, [r3]
 225              		.loc 2 627 0
 226 0042 2268     		ldr	r2, [r4]
 227 0044 5360     		str	r3, [r2, #4]
 228              	.LVL12:
ARM GAS  /tmp/ccbMFK8z.s 			page 5


 229              	.L11:
 230              	.LBE80:
 231              	.LBE79:
 232              		.loc 1 349 0
 233 0046 4FF0FF33 		mov	r3, #-1
 234 004a 6362     		str	r3, [r4, #36]
 235              		.loc 1 350 0
 236 004c 2046     		mov	r0, r4
 237 004e FFF7FEFF 		bl	chSchReadyI
 238              	.LVL13:
 239              	.LBB81:
 240              	.LBB82:
 241              		.loc 4 416 0
 242 0052 FFF7FEFF 		bl	_stats_stop_measure_crit_isr
 243              	.LVL14:
 244              	.LBB83:
 245              	.LBB84:
 246              	.LBB85:
 247              	.LBB86:
 248              		.loc 3 493 0
 249 0056 0023     		movs	r3, #0
 250              	@ 493 "../../modules/ChibiOS/os/common/ext/ARM/CMSIS/Core/Include/cmsis_gcc.h" 1
 251 0058 83F31188 		MSR basepri, r3
 252              	@ 0 "" 2
 253              		.thumb
 254 005c 38BD     		pop	{r3, r4, r5, pc}
 255              	.LBE86:
 256              	.LBE85:
 257              	.LBE84:
 258              	.LBE83:
 259              	.LBE82:
 260              	.LBE81:
 261              		.cfi_endproc
 262              	.LFE294:
 263              		.size	wakeup, .-wakeup
 264              		.section	.text.chSchReadyAheadI,"ax",%progbits
 265              		.align	1
 266              		.global	chSchReadyAheadI
 267              		.thumb
 268              		.thumb_func
 269              		.type	chSchReadyAheadI, %function
 270              	chSchReadyAheadI:
 271              	.LFB292:
 272              		.loc 1 257 0
 273              		.cfi_startproc
 274              		@ args = 0, pretend = 0, frame = 0
 275              		@ frame_needed = 0, uses_anonymous_args = 0
 276              		@ link register save eliminated.
 277              	.LVL15:
 278              		.loc 1 266 0
 279 0000 0023     		movs	r3, #0
 280 0002 80F82030 		strb	r3, [r0, #32]
 281              	.LVL16:
 282              		.loc 1 270 0
 283 0006 8268     		ldr	r2, [r0, #8]
 284              		.loc 1 267 0
 285 0008 054B     		ldr	r3, .L21
ARM GAS  /tmp/ccbMFK8z.s 			page 6


 286              	.LVL17:
 287              	.L19:
 288              		.loc 1 269 0 discriminator 1
 289 000a 1B68     		ldr	r3, [r3]
 290              	.LVL18:
 291              		.loc 1 270 0 discriminator 1
 292 000c 9968     		ldr	r1, [r3, #8]
 293 000e 9142     		cmp	r1, r2
 294 0010 FBD8     		bhi	.L19
 295              		.loc 1 273 0
 296 0012 5A68     		ldr	r2, [r3, #4]
 297              		.loc 1 272 0
 298 0014 0360     		str	r3, [r0]
 299              		.loc 1 273 0
 300 0016 4260     		str	r2, [r0, #4]
 301              		.loc 1 274 0
 302 0018 1060     		str	r0, [r2]
 303              		.loc 1 275 0
 304 001a 5860     		str	r0, [r3, #4]
 305              		.loc 1 278 0
 306 001c 7047     		bx	lr
 307              	.L22:
 308 001e 00BF     		.align	2
 309              	.L21:
 310 0020 00000000 		.word	.LANCHOR0
 311              		.cfi_endproc
 312              	.LFE292:
 313              		.size	chSchReadyAheadI, .-chSchReadyAheadI
 314              		.section	.text.chSchGoSleepS,"ax",%progbits
 315              		.align	1
 316              		.global	chSchGoSleepS
 317              		.thumb
 318              		.thumb_func
 319              		.type	chSchGoSleepS, %function
 320              	chSchGoSleepS:
 321              	.LFB293:
 322              		.loc 1 289 0
 323              		.cfi_startproc
 324              		@ args = 0, pretend = 0, frame = 0
 325              		@ frame_needed = 0, uses_anonymous_args = 0
 326              	.LVL19:
 327 0000 38B5     		push	{r3, r4, r5, lr}
 328              		.cfi_def_cfa_offset 16
 329              		.cfi_offset 3, -16
 330              		.cfi_offset 4, -12
 331              		.cfi_offset 5, -8
 332              		.cfi_offset 14, -4
 333              		.loc 1 290 0
 334 0002 0A4C     		ldr	r4, .L24
 335 0004 A569     		ldr	r5, [r4, #24]
 336              	.LVL20:
 337              		.loc 1 295 0
 338 0006 85F82000 		strb	r0, [r5, #32]
 339              	.LVL21:
 340              	.LBB87:
 341              	.LBB88:
 342              		.loc 2 607 0
ARM GAS  /tmp/ccbMFK8z.s 			page 7


 343 000a 2068     		ldr	r0, [r4]
 344              	.LVL22:
 345              		.loc 2 609 0
 346 000c 0368     		ldr	r3, [r0]
 347 000e 2360     		str	r3, [r4]
 348              		.loc 2 610 0
 349 0010 5C60     		str	r4, [r3, #4]
 350              	.LBE88:
 351              	.LBE87:
 352              		.loc 1 305 0
 353 0012 0123     		movs	r3, #1
 354 0014 80F82030 		strb	r3, [r0, #32]
 355              	.LVL23:
 356              		.loc 1 313 0
 357 0018 2946     		mov	r1, r5
 358              		.loc 1 304 0
 359 001a A061     		str	r0, [r4, #24]
 360              		.loc 1 313 0
 361 001c FFF7FEFF 		bl	_stats_ctxswc
 362              	.LVL24:
 363 0020 A069     		ldr	r0, [r4, #24]
 364 0022 2946     		mov	r1, r5
 365              		.loc 1 314 0
 366 0024 BDE83840 		pop	{r3, r4, r5, lr}
 367              		.cfi_restore 14
 368              		.cfi_restore 5
 369              		.cfi_restore 4
 370              		.cfi_restore 3
 371              		.cfi_def_cfa_offset 0
 372              	.LVL25:
 373              		.loc 1 313 0
 374 0028 FFF7FEBF 		b	_port_switch
 375              	.LVL26:
 376              	.L25:
 377              		.align	2
 378              	.L24:
 379 002c 00000000 		.word	.LANCHOR0
 380              		.cfi_endproc
 381              	.LFE293:
 382              		.size	chSchGoSleepS, .-chSchGoSleepS
 383              		.section	.text.chSchGoSleepTimeoutS,"ax",%progbits
 384              		.align	1
 385              		.global	chSchGoSleepTimeoutS
 386              		.thumb
 387              		.thumb_func
 388              		.type	chSchGoSleepTimeoutS, %function
 389              	chSchGoSleepTimeoutS:
 390              	.LFB295:
 391              		.loc 1 375 0
 392              		.cfi_startproc
 393              		@ args = 0, pretend = 0, frame = 24
 394              		@ frame_needed = 0, uses_anonymous_args = 0
 395              	.LVL27:
 396 0000 30B5     		push	{r4, r5, lr}
 397              		.cfi_def_cfa_offset 12
 398              		.cfi_offset 4, -12
 399              		.cfi_offset 5, -8
ARM GAS  /tmp/ccbMFK8z.s 			page 8


 400              		.cfi_offset 14, -4
 401              		.loc 1 379 0
 402 0002 4B1C     		adds	r3, r1, #1
 403              		.loc 1 375 0
 404 0004 87B0     		sub	sp, sp, #28
 405              		.cfi_def_cfa_offset 40
 406              		.loc 1 375 0
 407 0006 0546     		mov	r5, r0
 408 0008 0A4C     		ldr	r4, .L33
 409              		.loc 1 379 0
 410 000a 0DD0     		beq	.L27
 411              	.LBB89:
 412              		.loc 1 382 0
 413 000c A369     		ldr	r3, [r4, #24]
 414 000e 0A4A     		ldr	r2, .L33+4
 415 0010 01A8     		add	r0, sp, #4
 416              	.LVL28:
 417 0012 FFF7FEFF 		bl	chVTDoSetI
 418              	.LVL29:
 419              		.loc 1 383 0
 420 0016 2846     		mov	r0, r5
 421 0018 FFF7FEFF 		bl	chSchGoSleepS
 422              	.LVL30:
 423              		.loc 1 384 0
 424 001c 049B     		ldr	r3, [sp, #16]
 425 001e 2BB1     		cbz	r3, .L29
 426              		.loc 1 385 0
 427 0020 01A8     		add	r0, sp, #4
 428              	.LVL31:
 429 0022 FFF7FEFF 		bl	chVTDoResetI
 430              	.LVL32:
 431 0026 01E0     		b	.L29
 432              	.LVL33:
 433              	.L27:
 434              	.LBE89:
 435              		.loc 1 389 0
 436 0028 FFF7FEFF 		bl	chSchGoSleepS
 437              	.LVL34:
 438              	.L29:
 439              		.loc 1 392 0
 440 002c A369     		ldr	r3, [r4, #24]
 441              		.loc 1 393 0
 442 002e 586A     		ldr	r0, [r3, #36]
 443 0030 07B0     		add	sp, sp, #28
 444              		.cfi_def_cfa_offset 12
 445              		@ sp needed
 446 0032 30BD     		pop	{r4, r5, pc}
 447              	.L34:
 448              		.align	2
 449              	.L33:
 450 0034 00000000 		.word	.LANCHOR0
 451 0038 00000000 		.word	wakeup
 452              		.cfi_endproc
 453              	.LFE295:
 454              		.size	chSchGoSleepTimeoutS, .-chSchGoSleepTimeoutS
 455              		.section	.text.chSchWakeupS,"ax",%progbits
 456              		.align	1
ARM GAS  /tmp/ccbMFK8z.s 			page 9


 457              		.global	chSchWakeupS
 458              		.thumb
 459              		.thumb_func
 460              		.type	chSchWakeupS, %function
 461              	chSchWakeupS:
 462              	.LFB296:
 463              		.loc 1 412 0
 464              		.cfi_startproc
 465              		@ args = 0, pretend = 0, frame = 0
 466              		@ frame_needed = 0, uses_anonymous_args = 0
 467              	.LVL35:
 468 0000 70B5     		push	{r4, r5, r6, lr}
 469              		.cfi_def_cfa_offset 16
 470              		.cfi_offset 4, -16
 471              		.cfi_offset 5, -12
 472              		.cfi_offset 6, -8
 473              		.cfi_offset 14, -4
 474              		.loc 1 413 0
 475 0002 0F4E     		ldr	r6, .L37
 476              		.loc 1 423 0
 477 0004 4162     		str	r1, [r0, #36]
 478              		.loc 1 413 0
 479 0006 B369     		ldr	r3, [r6, #24]
 480              	.LVL36:
 481              		.loc 1 429 0
 482 0008 8168     		ldr	r1, [r0, #8]
 483              	.LVL37:
 484 000a 9A68     		ldr	r2, [r3, #8]
 485 000c 9142     		cmp	r1, r2
 486              		.loc 1 412 0
 487 000e 0446     		mov	r4, r0
 488              		.loc 1 429 0
 489 0010 03D8     		bhi	.L36
 490              		.loc 1 447 0
 491 0012 BDE87040 		pop	{r4, r5, r6, lr}
 492              		.cfi_remember_state
 493              		.cfi_restore 14
 494              		.cfi_restore 6
 495              		.cfi_restore 5
 496              		.cfi_restore 4
 497              		.cfi_def_cfa_offset 0
 498              		.loc 1 430 0
 499 0016 FFF7FEBF 		b	chSchReadyI
 500              	.LVL38:
 501              	.L36:
 502              		.cfi_restore_state
 503              		.loc 1 433 0
 504 001a 1846     		mov	r0, r3
 505              	.LVL39:
 506 001c FFF7FEFF 		bl	chSchReadyI
 507              	.LVL40:
 508              		.loc 1 442 0
 509 0020 0123     		movs	r3, #1
 510              		.loc 1 433 0
 511 0022 0546     		mov	r5, r0
 512              	.LVL41:
 513              		.loc 1 445 0
ARM GAS  /tmp/ccbMFK8z.s 			page 10


 514 0024 2946     		mov	r1, r5
 515 0026 2046     		mov	r0, r4
 516              	.LVL42:
 517              		.loc 1 442 0
 518 0028 84F82030 		strb	r3, [r4, #32]
 519              		.loc 1 441 0
 520 002c B461     		str	r4, [r6, #24]
 521              		.loc 1 445 0
 522 002e FFF7FEFF 		bl	_stats_ctxswc
 523              	.LVL43:
 524 0032 2046     		mov	r0, r4
 525 0034 2946     		mov	r1, r5
 526              		.loc 1 447 0
 527 0036 BDE87040 		pop	{r4, r5, r6, lr}
 528              		.cfi_restore 14
 529              		.cfi_restore 6
 530              		.cfi_restore 5
 531              		.cfi_restore 4
 532              		.cfi_def_cfa_offset 0
 533              	.LVL44:
 534              		.loc 1 445 0
 535 003a FFF7FEBF 		b	_port_switch
 536              	.LVL45:
 537              	.L38:
 538 003e 00BF     		.align	2
 539              	.L37:
 540 0040 00000000 		.word	.LANCHOR0
 541              		.cfi_endproc
 542              	.LFE296:
 543              		.size	chSchWakeupS, .-chSchWakeupS
 544              		.section	.text.chSchIsPreemptionRequired,"ax",%progbits
 545              		.align	1
 546              		.global	chSchIsPreemptionRequired
 547              		.thumb
 548              		.thumb_func
 549              		.type	chSchIsPreemptionRequired, %function
 550              	chSchIsPreemptionRequired:
 551              	.LFB298:
 552              		.loc 1 479 0
 553              		.cfi_startproc
 554              		@ args = 0, pretend = 0, frame = 0
 555              		@ frame_needed = 0, uses_anonymous_args = 0
 556              		@ link register save eliminated.
 557              	.LVL46:
 558              		.loc 1 480 0
 559 0000 044B     		ldr	r3, .L40
 560 0002 1A68     		ldr	r2, [r3]
 561              		.loc 1 481 0
 562 0004 9B69     		ldr	r3, [r3, #24]
 563              		.loc 1 492 0
 564 0006 9068     		ldr	r0, [r2, #8]
 565 0008 9B68     		ldr	r3, [r3, #8]
 566              		.loc 1 494 0
 567 000a 9842     		cmp	r0, r3
 568 000c 94BF     		ite	ls
 569 000e 0020     		movls	r0, #0
 570 0010 0120     		movhi	r0, #1
ARM GAS  /tmp/ccbMFK8z.s 			page 11


 571 0012 7047     		bx	lr
 572              	.L41:
 573              		.align	2
 574              	.L40:
 575 0014 00000000 		.word	.LANCHOR0
 576              		.cfi_endproc
 577              	.LFE298:
 578              		.size	chSchIsPreemptionRequired, .-chSchIsPreemptionRequired
 579              		.section	.text.chSchDoRescheduleBehind,"ax",%progbits
 580              		.align	1
 581              		.global	chSchDoRescheduleBehind
 582              		.thumb
 583              		.thumb_func
 584              		.type	chSchDoRescheduleBehind, %function
 585              	chSchDoRescheduleBehind:
 586              	.LFB299:
 587              		.loc 1 507 0
 588              		.cfi_startproc
 589              		@ args = 0, pretend = 0, frame = 0
 590              		@ frame_needed = 0, uses_anonymous_args = 0
 591 0000 38B5     		push	{r3, r4, r5, lr}
 592              		.cfi_def_cfa_offset 16
 593              		.cfi_offset 3, -16
 594              		.cfi_offset 4, -12
 595              		.cfi_offset 5, -8
 596              		.cfi_offset 14, -4
 597              		.loc 1 508 0
 598 0002 0B4C     		ldr	r4, .L43
 599              	.LBB90:
 600              	.LBB91:
 601              		.loc 2 607 0
 602 0004 2368     		ldr	r3, [r4]
 603              	.LBE91:
 604              	.LBE90:
 605              		.loc 1 508 0
 606 0006 A069     		ldr	r0, [r4, #24]
 607              	.LVL47:
 608              	.LBB93:
 609              	.LBB92:
 610              		.loc 2 609 0
 611 0008 1A68     		ldr	r2, [r3]
 612 000a 2260     		str	r2, [r4]
 613              		.loc 2 610 0
 614 000c 5460     		str	r4, [r2, #4]
 615              	.LBE92:
 616              	.LBE93:
 617              		.loc 1 512 0
 618 000e 0122     		movs	r2, #1
 619 0010 83F82020 		strb	r2, [r3, #32]
 620              		.loc 1 511 0
 621 0014 A361     		str	r3, [r4, #24]
 622              		.loc 1 525 0
 623 0016 FFF7FEFF 		bl	chSchReadyI
 624              	.LVL48:
 625 001a 0546     		mov	r5, r0
 626              	.LVL49:
 627              		.loc 1 528 0
ARM GAS  /tmp/ccbMFK8z.s 			page 12


 628 001c 2946     		mov	r1, r5
 629 001e A069     		ldr	r0, [r4, #24]
 630              	.LVL50:
 631 0020 FFF7FEFF 		bl	_stats_ctxswc
 632              	.LVL51:
 633 0024 A069     		ldr	r0, [r4, #24]
 634 0026 2946     		mov	r1, r5
 635              		.loc 1 529 0
 636 0028 BDE83840 		pop	{r3, r4, r5, lr}
 637              		.cfi_restore 14
 638              		.cfi_restore 5
 639              		.cfi_restore 4
 640              		.cfi_restore 3
 641              		.cfi_def_cfa_offset 0
 642              	.LVL52:
 643              		.loc 1 528 0
 644 002c FFF7FEBF 		b	_port_switch
 645              	.LVL53:
 646              	.L44:
 647              		.align	2
 648              	.L43:
 649 0030 00000000 		.word	.LANCHOR0
 650              		.cfi_endproc
 651              	.LFE299:
 652              		.size	chSchDoRescheduleBehind, .-chSchDoRescheduleBehind
 653              		.section	.text.chSchDoRescheduleAhead,"ax",%progbits
 654              		.align	1
 655              		.global	chSchDoRescheduleAhead
 656              		.thumb
 657              		.thumb_func
 658              		.type	chSchDoRescheduleAhead, %function
 659              	chSchDoRescheduleAhead:
 660              	.LFB300:
 661              		.loc 1 540 0
 662              		.cfi_startproc
 663              		@ args = 0, pretend = 0, frame = 0
 664              		@ frame_needed = 0, uses_anonymous_args = 0
 665 0000 38B5     		push	{r3, r4, r5, lr}
 666              		.cfi_def_cfa_offset 16
 667              		.cfi_offset 3, -16
 668              		.cfi_offset 4, -12
 669              		.cfi_offset 5, -8
 670              		.cfi_offset 14, -4
 671              		.loc 1 541 0
 672 0002 0B4C     		ldr	r4, .L46
 673              	.LBB94:
 674              	.LBB95:
 675              		.loc 2 607 0
 676 0004 2368     		ldr	r3, [r4]
 677              	.LBE95:
 678              	.LBE94:
 679              		.loc 1 541 0
 680 0006 A069     		ldr	r0, [r4, #24]
 681              	.LVL54:
 682              	.LBB97:
 683              	.LBB96:
 684              		.loc 2 609 0
ARM GAS  /tmp/ccbMFK8z.s 			page 13


 685 0008 1A68     		ldr	r2, [r3]
 686 000a 2260     		str	r2, [r4]
 687              		.loc 2 610 0
 688 000c 5460     		str	r4, [r2, #4]
 689              	.LBE96:
 690              	.LBE97:
 691              		.loc 1 545 0
 692 000e 0122     		movs	r2, #1
 693 0010 83F82020 		strb	r2, [r3, #32]
 694              		.loc 1 544 0
 695 0014 A361     		str	r3, [r4, #24]
 696              		.loc 1 553 0
 697 0016 FFF7FEFF 		bl	chSchReadyAheadI
 698              	.LVL55:
 699 001a 0546     		mov	r5, r0
 700              	.LVL56:
 701              		.loc 1 556 0
 702 001c 2946     		mov	r1, r5
 703 001e A069     		ldr	r0, [r4, #24]
 704              	.LVL57:
 705 0020 FFF7FEFF 		bl	_stats_ctxswc
 706              	.LVL58:
 707 0024 A069     		ldr	r0, [r4, #24]
 708 0026 2946     		mov	r1, r5
 709              		.loc 1 557 0
 710 0028 BDE83840 		pop	{r3, r4, r5, lr}
 711              		.cfi_restore 14
 712              		.cfi_restore 5
 713              		.cfi_restore 4
 714              		.cfi_restore 3
 715              		.cfi_def_cfa_offset 0
 716              	.LVL59:
 717              		.loc 1 556 0
 718 002c FFF7FEBF 		b	_port_switch
 719              	.LVL60:
 720              	.L47:
 721              		.align	2
 722              	.L46:
 723 0030 00000000 		.word	.LANCHOR0
 724              		.cfi_endproc
 725              	.LFE300:
 726              		.size	chSchDoRescheduleAhead, .-chSchDoRescheduleAhead
 727              		.section	.text.chSchRescheduleS,"ax",%progbits
 728              		.align	1
 729              		.global	chSchRescheduleS
 730              		.thumb
 731              		.thumb_func
 732              		.type	chSchRescheduleS, %function
 733              	chSchRescheduleS:
 734              	.LFB297:
 735              		.loc 1 456 0
 736              		.cfi_startproc
 737              		@ args = 0, pretend = 0, frame = 0
 738              		@ frame_needed = 0, uses_anonymous_args = 0
 739              		@ link register save eliminated.
 740              	.LBB100:
 741              	.LBB101:
ARM GAS  /tmp/ccbMFK8z.s 			page 14


 742              		.loc 2 648 0
 743 0000 044B     		ldr	r3, .L50
 744 0002 1A68     		ldr	r2, [r3]
 745 0004 9B69     		ldr	r3, [r3, #24]
 746              	.LBE101:
 747              	.LBE100:
 748              		.loc 1 460 0
 749 0006 9268     		ldr	r2, [r2, #8]
 750 0008 9B68     		ldr	r3, [r3, #8]
 751 000a 9A42     		cmp	r2, r3
 752 000c 01D9     		bls	.L48
 753              		.loc 1 461 0
 754 000e FFF7FEBF 		b	chSchDoRescheduleAhead
 755              	.LVL61:
 756              	.L48:
 757 0012 7047     		bx	lr
 758              	.L51:
 759              		.align	2
 760              	.L50:
 761 0014 00000000 		.word	.LANCHOR0
 762              		.cfi_endproc
 763              	.LFE297:
 764              		.size	chSchRescheduleS, .-chSchRescheduleS
 765              		.section	.text.chSchDoReschedule,"ax",%progbits
 766              		.align	1
 767              		.global	chSchDoReschedule
 768              		.thumb
 769              		.thumb_func
 770              		.type	chSchDoReschedule, %function
 771              	chSchDoReschedule:
 772              	.LFB301:
 773              		.loc 1 570 0
 774              		.cfi_startproc
 775              		@ args = 0, pretend = 0, frame = 0
 776              		@ frame_needed = 0, uses_anonymous_args = 0
 777 0000 38B5     		push	{r3, r4, r5, lr}
 778              		.cfi_def_cfa_offset 16
 779              		.cfi_offset 3, -16
 780              		.cfi_offset 4, -12
 781              		.cfi_offset 5, -8
 782              		.cfi_offset 14, -4
 783              		.loc 1 571 0
 784 0002 0B4C     		ldr	r4, .L53
 785              	.LBB102:
 786              	.LBB103:
 787              		.loc 2 607 0
 788 0004 2368     		ldr	r3, [r4]
 789              	.LBE103:
 790              	.LBE102:
 791              		.loc 1 571 0
 792 0006 A069     		ldr	r0, [r4, #24]
 793              	.LVL62:
 794              	.LBB105:
 795              	.LBB104:
 796              		.loc 2 609 0
 797 0008 1A68     		ldr	r2, [r3]
 798 000a 2260     		str	r2, [r4]
ARM GAS  /tmp/ccbMFK8z.s 			page 15


 799              		.loc 2 610 0
 800 000c 5460     		str	r4, [r2, #4]
 801              	.LBE104:
 802              	.LBE105:
 803              		.loc 1 575 0
 804 000e 0122     		movs	r2, #1
 805 0010 83F82020 		strb	r2, [r3, #32]
 806              		.loc 1 574 0
 807 0014 A361     		str	r3, [r4, #24]
 808              		.loc 1 602 0
 809 0016 FFF7FEFF 		bl	chSchReadyAheadI
 810              	.LVL63:
 811 001a 0546     		mov	r5, r0
 812              	.LVL64:
 813              		.loc 1 606 0
 814 001c 2946     		mov	r1, r5
 815 001e A069     		ldr	r0, [r4, #24]
 816              	.LVL65:
 817 0020 FFF7FEFF 		bl	_stats_ctxswc
 818              	.LVL66:
 819 0024 A069     		ldr	r0, [r4, #24]
 820 0026 2946     		mov	r1, r5
 821              		.loc 1 607 0
 822 0028 BDE83840 		pop	{r3, r4, r5, lr}
 823              		.cfi_restore 14
 824              		.cfi_restore 5
 825              		.cfi_restore 4
 826              		.cfi_restore 3
 827              		.cfi_def_cfa_offset 0
 828              	.LVL67:
 829              		.loc 1 606 0
 830 002c FFF7FEBF 		b	_port_switch
 831              	.LVL68:
 832              	.L54:
 833              		.align	2
 834              	.L53:
 835 0030 00000000 		.word	.LANCHOR0
 836              		.cfi_endproc
 837              	.LFE301:
 838              		.size	chSchDoReschedule, .-chSchDoReschedule
 839              		.global	ch
 840              		.section	.bss.ch,"aw",%nobits
 841              		.align	3
 842              		.set	.LANCHOR0,. + 0
 843              		.type	ch, %object
 844              		.size	ch, 208
 845              	ch:
 846 0000 00000000 		.space	208
 846      00000000 
 846      00000000 
 846      00000000 
 846      00000000 
 847              		.text
 848              	.Letext0:
 849              		.file 6 "/usr/include/newlib/machine/_default_types.h"
 850              		.file 7 "/usr/include/newlib/sys/_stdint.h"
 851              		.file 8 "../../modules/ChibiOS/os/common/ports/ARMCMx/compilers/GCC/chtypes.h"
ARM GAS  /tmp/ccbMFK8z.s 			page 16


 852              		.file 9 "../../modules/ChibiOS/os/rt/include/chsystypes.h"
 853              		.file 10 "../../modules/ChibiOS/os/rt/include/chtime.h"
 854              		.file 11 "../../modules/ChibiOS/os/common/ports/ARMCMx/chcore.h"
 855              		.file 12 "../../modules/ChibiOS/os/common/ports/ARMCMx/chcore_v7m.h"
 856              		.file 13 "../../modules/ChibiOS/os/rt/include/chtm.h"
 857              		.file 14 "../../modules/ChibiOS/os/rt/include/chstats.h"
 858              		.file 15 "../../modules/ChibiOS/os/rt/include/chmtx.h"
 859              		.file 16 "../../modules/ChibiOS/os/rt/include/chvt.h"
 860              		.file 17 "../../modules/ChibiOS/os/common/ext/ARM/CMSIS/Core/Include/core_cm4.h"
 861              		.section	.debug_info,"",%progbits
 862              	.Ldebug_info0:
 863 0000 650F0000 		.4byte	0xf65
 864 0004 0400     		.2byte	0x4
 865 0006 00000000 		.4byte	.Ldebug_abbrev0
 866 000a 04       		.byte	0x4
 867 000b 01       		.uleb128 0x1
 868 000c C4020000 		.4byte	.LASF139
 869 0010 01       		.byte	0x1
 870 0011 DE030000 		.4byte	.LASF140
 871 0015 A1060000 		.4byte	.LASF141
 872 0019 60000000 		.4byte	.Ldebug_ranges0+0x60
 873 001d 00000000 		.4byte	0
 874 0021 00000000 		.4byte	.Ldebug_line0
 875 0025 02       		.uleb128 0x2
 876 0026 04       		.byte	0x4
 877 0027 05       		.byte	0x5
 878 0028 696E7400 		.ascii	"int\000"
 879 002c 03       		.uleb128 0x3
 880 002d 04       		.byte	0x4
 881 002e 07       		.byte	0x7
 882 002f 2A020000 		.4byte	.LASF0
 883 0033 03       		.uleb128 0x3
 884 0034 01       		.byte	0x1
 885 0035 06       		.byte	0x6
 886 0036 44010000 		.4byte	.LASF1
 887 003a 04       		.uleb128 0x4
 888 003b 4C000000 		.4byte	.LASF5
 889 003f 06       		.byte	0x6
 890 0040 1D       		.byte	0x1d
 891 0041 45000000 		.4byte	0x45
 892 0045 03       		.uleb128 0x3
 893 0046 01       		.byte	0x1
 894 0047 08       		.byte	0x8
 895 0048 1A050000 		.4byte	.LASF2
 896 004c 03       		.uleb128 0x3
 897 004d 02       		.byte	0x2
 898 004e 05       		.byte	0x5
 899 004f 31050000 		.4byte	.LASF3
 900 0053 03       		.uleb128 0x3
 901 0054 02       		.byte	0x2
 902 0055 07       		.byte	0x7
 903 0056 6C020000 		.4byte	.LASF4
 904 005a 04       		.uleb128 0x4
 905 005b 23060000 		.4byte	.LASF6
 906 005f 06       		.byte	0x6
 907 0060 3F       		.byte	0x3f
 908 0061 65000000 		.4byte	0x65
ARM GAS  /tmp/ccbMFK8z.s 			page 17


 909 0065 03       		.uleb128 0x3
 910 0066 04       		.byte	0x4
 911 0067 05       		.byte	0x5
 912 0068 7A010000 		.4byte	.LASF7
 913 006c 04       		.uleb128 0x4
 914 006d D0010000 		.4byte	.LASF8
 915 0071 06       		.byte	0x6
 916 0072 41       		.byte	0x41
 917 0073 77000000 		.4byte	0x77
 918 0077 03       		.uleb128 0x3
 919 0078 04       		.byte	0x4
 920 0079 07       		.byte	0x7
 921 007a FF050000 		.4byte	.LASF9
 922 007e 03       		.uleb128 0x3
 923 007f 08       		.byte	0x8
 924 0080 05       		.byte	0x5
 925 0081 36010000 		.4byte	.LASF10
 926 0085 04       		.uleb128 0x4
 927 0086 B5040000 		.4byte	.LASF11
 928 008a 06       		.byte	0x6
 929 008b 5B       		.byte	0x5b
 930 008c 90000000 		.4byte	0x90
 931 0090 03       		.uleb128 0x3
 932 0091 08       		.byte	0x8
 933 0092 07       		.byte	0x7
 934 0093 B5000000 		.4byte	.LASF12
 935 0097 04       		.uleb128 0x4
 936 0098 14070000 		.4byte	.LASF13
 937 009c 07       		.byte	0x7
 938 009d 14       		.byte	0x14
 939 009e 3A000000 		.4byte	0x3a
 940 00a2 04       		.uleb128 0x4
 941 00a3 12050000 		.4byte	.LASF14
 942 00a7 07       		.byte	0x7
 943 00a8 1F       		.byte	0x1f
 944 00a9 5A000000 		.4byte	0x5a
 945 00ad 04       		.uleb128 0x4
 946 00ae CD050000 		.4byte	.LASF15
 947 00b2 07       		.byte	0x7
 948 00b3 20       		.byte	0x20
 949 00b4 6C000000 		.4byte	0x6c
 950 00b8 04       		.uleb128 0x4
 951 00b9 20000000 		.4byte	.LASF16
 952 00bd 07       		.byte	0x7
 953 00be 26       		.byte	0x26
 954 00bf 85000000 		.4byte	0x85
 955 00c3 04       		.uleb128 0x4
 956 00c4 CD060000 		.4byte	.LASF17
 957 00c8 08       		.byte	0x8
 958 00c9 27       		.byte	0x27
 959 00ca AD000000 		.4byte	0xad
 960 00ce 04       		.uleb128 0x4
 961 00cf 1D010000 		.4byte	.LASF18
 962 00d3 08       		.byte	0x8
 963 00d4 28       		.byte	0x28
 964 00d5 B8000000 		.4byte	0xb8
 965 00d9 04       		.uleb128 0x4
ARM GAS  /tmp/ccbMFK8z.s 			page 18


 966 00da 66050000 		.4byte	.LASF19
 967 00de 08       		.byte	0x8
 968 00df 2A       		.byte	0x2a
 969 00e0 97000000 		.4byte	0x97
 970 00e4 04       		.uleb128 0x4
 971 00e5 91010000 		.4byte	.LASF20
 972 00e9 08       		.byte	0x8
 973 00ea 2B       		.byte	0x2b
 974 00eb 97000000 		.4byte	0x97
 975 00ef 04       		.uleb128 0x4
 976 00f0 CB040000 		.4byte	.LASF21
 977 00f4 08       		.byte	0x8
 978 00f5 2C       		.byte	0x2c
 979 00f6 97000000 		.4byte	0x97
 980 00fa 04       		.uleb128 0x4
 981 00fb E8040000 		.4byte	.LASF22
 982 00ff 08       		.byte	0x8
 983 0100 2E       		.byte	0x2e
 984 0101 AD000000 		.4byte	0xad
 985 0105 04       		.uleb128 0x4
 986 0106 9D020000 		.4byte	.LASF23
 987 010a 08       		.byte	0x8
 988 010b 2F       		.byte	0x2f
 989 010c A2000000 		.4byte	0xa2
 990 0110 04       		.uleb128 0x4
 991 0111 40000000 		.4byte	.LASF24
 992 0115 08       		.byte	0x8
 993 0116 31       		.byte	0x31
 994 0117 AD000000 		.4byte	0xad
 995 011b 04       		.uleb128 0x4
 996 011c 24020000 		.4byte	.LASF25
 997 0120 08       		.byte	0x8
 998 0121 33       		.byte	0x33
 999 0122 A2000000 		.4byte	0xa2
 1000 0126 04       		.uleb128 0x4
 1001 0127 A8020000 		.4byte	.LASF26
 1002 012b 08       		.byte	0x8
 1003 012c 34       		.byte	0x34
 1004 012d AD000000 		.4byte	0xad
 1005 0131 04       		.uleb128 0x4
 1006 0132 42060000 		.4byte	.LASF27
 1007 0136 09       		.byte	0x9
 1008 0137 34       		.byte	0x34
 1009 0138 3C010000 		.4byte	0x13c
 1010 013c 05       		.uleb128 0x5
 1011 013d 8E020000 		.4byte	.LASF46
 1012 0141 60       		.byte	0x60
 1013 0142 02       		.byte	0x2
 1014 0143 8E       		.byte	0x8e
 1015 0144 27020000 		.4byte	0x227
 1016 0148 06       		.uleb128 0x6
 1017 0149 60020000 		.4byte	.LASF28
 1018 014d 02       		.byte	0x2
 1019 014e 8F       		.byte	0x8f
 1020 014f 5C020000 		.4byte	0x25c
 1021 0153 00       		.byte	0
 1022 0154 06       		.uleb128 0x6
ARM GAS  /tmp/ccbMFK8z.s 			page 19


 1023 0155 8A040000 		.4byte	.LASF29
 1024 0159 02       		.byte	0x2
 1025 015a 90       		.byte	0x90
 1026 015b FA000000 		.4byte	0xfa
 1027 015f 08       		.byte	0x8
 1028 0160 07       		.uleb128 0x7
 1029 0161 63747800 		.ascii	"ctx\000"
 1030 0165 02       		.byte	0x2
 1031 0166 91       		.byte	0x91
 1032 0167 77040000 		.4byte	0x477
 1033 016b 0C       		.byte	0xc
 1034 016c 06       		.uleb128 0x6
 1035 016d 12040000 		.4byte	.LASF30
 1036 0171 02       		.byte	0x2
 1037 0172 93       		.byte	0x93
 1038 0173 32020000 		.4byte	0x232
 1039 0177 10       		.byte	0x10
 1040 0178 06       		.uleb128 0x6
 1041 0179 1D060000 		.4byte	.LASF31
 1042 017d 02       		.byte	0x2
 1043 017e 94       		.byte	0x94
 1044 017f 32020000 		.4byte	0x232
 1045 0183 14       		.byte	0x14
 1046 0184 06       		.uleb128 0x6
 1047 0185 98020000 		.4byte	.LASF32
 1048 0189 02       		.byte	0x2
 1049 018a 9B       		.byte	0x9b
 1050 018b 5D070000 		.4byte	0x75d
 1051 018f 18       		.byte	0x18
 1052 0190 06       		.uleb128 0x6
 1053 0191 11060000 		.4byte	.LASF33
 1054 0195 02       		.byte	0x2
 1055 0196 A4       		.byte	0xa4
 1056 0197 6F070000 		.4byte	0x76f
 1057 019b 1C       		.byte	0x1c
 1058 019c 06       		.uleb128 0x6
 1059 019d 74010000 		.4byte	.LASF34
 1060 01a1 02       		.byte	0x2
 1061 01a2 A9       		.byte	0xa9
 1062 01a3 E4000000 		.4byte	0xe4
 1063 01a7 20       		.byte	0x20
 1064 01a8 06       		.uleb128 0x6
 1065 01a9 1C070000 		.4byte	.LASF35
 1066 01ad 02       		.byte	0x2
 1067 01ae AD       		.byte	0xad
 1068 01af D9000000 		.4byte	0xd9
 1069 01b3 21       		.byte	0x21
 1070 01b4 06       		.uleb128 0x6
 1071 01b5 D3040000 		.4byte	.LASF36
 1072 01b9 02       		.byte	0x2
 1073 01ba B2       		.byte	0xb2
 1074 01bb EF000000 		.4byte	0xef
 1075 01bf 22       		.byte	0x22
 1076 01c0 08       		.uleb128 0x8
 1077 01c1 7500     		.ascii	"u\000"
 1078 01c3 02       		.byte	0x2
 1079 01c4 0301     		.2byte	0x103
ARM GAS  /tmp/ccbMFK8z.s 			page 20


 1080 01c6 93060000 		.4byte	0x693
 1081 01ca 24       		.byte	0x24
 1082 01cb 09       		.uleb128 0x9
 1083 01cc 06020000 		.4byte	.LASF37
 1084 01d0 02       		.byte	0x2
 1085 01d1 0801     		.2byte	0x108
 1086 01d3 38020000 		.4byte	0x238
 1087 01d7 28       		.byte	0x28
 1088 01d8 09       		.uleb128 0x9
 1089 01d9 6B010000 		.4byte	.LASF38
 1090 01dd 02       		.byte	0x2
 1091 01de 0E01     		.2byte	0x10e
 1092 01e0 5C020000 		.4byte	0x25c
 1093 01e4 2C       		.byte	0x2c
 1094 01e5 09       		.uleb128 0x9
 1095 01e6 AF020000 		.4byte	.LASF39
 1096 01ea 02       		.byte	0x2
 1097 01eb 1401     		.2byte	0x114
 1098 01ed 10010000 		.4byte	0x110
 1099 01f1 34       		.byte	0x34
 1100 01f2 09       		.uleb128 0x9
 1101 01f3 97070000 		.4byte	.LASF40
 1102 01f7 02       		.byte	0x2
 1103 01f8 1B01     		.2byte	0x11b
 1104 01fa 57070000 		.4byte	0x757
 1105 01fe 38       		.byte	0x38
 1106 01ff 09       		.uleb128 0x9
 1107 0200 18040000 		.4byte	.LASF41
 1108 0204 02       		.byte	0x2
 1109 0205 1F01     		.2byte	0x11f
 1110 0207 FA000000 		.4byte	0xfa
 1111 020b 3C       		.byte	0x3c
 1112 020c 09       		.uleb128 0x9
 1113 020d 66020000 		.4byte	.LASF42
 1114 0211 02       		.byte	0x2
 1115 0212 2601     		.2byte	0x126
 1116 0214 0F030000 		.4byte	0x30f
 1117 0218 40       		.byte	0x40
 1118 0219 09       		.uleb128 0x9
 1119 021a 9F010000 		.4byte	.LASF43
 1120 021e 02       		.byte	0x2
 1121 021f 2C01     		.2byte	0x12c
 1122 0221 44060000 		.4byte	0x644
 1123 0225 48       		.byte	0x48
 1124 0226 00       		.byte	0
 1125 0227 04       		.uleb128 0x4
 1126 0228 2A040000 		.4byte	.LASF44
 1127 022c 09       		.byte	0x9
 1128 022d 39       		.byte	0x39
 1129 022e 32020000 		.4byte	0x232
 1130 0232 0A       		.uleb128 0xa
 1131 0233 04       		.byte	0x4
 1132 0234 31010000 		.4byte	0x131
 1133 0238 04       		.uleb128 0x4
 1134 0239 41070000 		.4byte	.LASF45
 1135 023d 09       		.byte	0x9
 1136 023e 3E       		.byte	0x3e
ARM GAS  /tmp/ccbMFK8z.s 			page 21


 1137 023f 43020000 		.4byte	0x243
 1138 0243 05       		.uleb128 0x5
 1139 0244 E9050000 		.4byte	.LASF47
 1140 0248 04       		.byte	0x4
 1141 0249 02       		.byte	0x2
 1142 024a 7C       		.byte	0x7c
 1143 024b 5C020000 		.4byte	0x25c
 1144 024f 06       		.uleb128 0x6
 1145 0250 18010000 		.4byte	.LASF48
 1146 0254 02       		.byte	0x2
 1147 0255 7D       		.byte	0x7d
 1148 0256 32020000 		.4byte	0x232
 1149 025a 00       		.byte	0
 1150 025b 00       		.byte	0
 1151 025c 04       		.uleb128 0x4
 1152 025d F5060000 		.4byte	.LASF49
 1153 0261 09       		.byte	0x9
 1154 0262 45       		.byte	0x45
 1155 0263 67020000 		.4byte	0x267
 1156 0267 05       		.uleb128 0x5
 1157 0268 67000000 		.4byte	.LASF50
 1158 026c 08       		.byte	0x8
 1159 026d 02       		.byte	0x2
 1160 026e 83       		.byte	0x83
 1161 026f 8C020000 		.4byte	0x28c
 1162 0273 06       		.uleb128 0x6
 1163 0274 18010000 		.4byte	.LASF48
 1164 0278 02       		.byte	0x2
 1165 0279 84       		.byte	0x84
 1166 027a 32020000 		.4byte	0x232
 1167 027e 00       		.byte	0
 1168 027f 06       		.uleb128 0x6
 1169 0280 56000000 		.4byte	.LASF51
 1170 0284 02       		.byte	0x2
 1171 0285 85       		.byte	0x85
 1172 0286 32020000 		.4byte	0x232
 1173 028a 04       		.byte	0x4
 1174 028b 00       		.byte	0
 1175 028c 04       		.uleb128 0x4
 1176 028d 00000000 		.4byte	.LASF52
 1177 0291 09       		.byte	0x9
 1178 0292 4C       		.byte	0x4c
 1179 0293 97020000 		.4byte	0x297
 1180 0297 0B       		.uleb128 0xb
 1181 0298 C5030000 		.4byte	.LASF53
 1182 029c 1C       		.byte	0x1c
 1183 029d 02       		.byte	0x2
 1184 029e 5E01     		.2byte	0x15e
 1185 02a0 F3020000 		.4byte	0x2f3
 1186 02a4 09       		.uleb128 0x9
 1187 02a5 60020000 		.4byte	.LASF28
 1188 02a9 02       		.byte	0x2
 1189 02aa 5F01     		.2byte	0x15f
 1190 02ac 5C020000 		.4byte	0x25c
 1191 02b0 00       		.byte	0
 1192 02b1 09       		.uleb128 0x9
 1193 02b2 8A040000 		.4byte	.LASF29
ARM GAS  /tmp/ccbMFK8z.s 			page 22


 1194 02b6 02       		.byte	0x2
 1195 02b7 6001     		.2byte	0x160
 1196 02b9 FA000000 		.4byte	0xfa
 1197 02bd 08       		.byte	0x8
 1198 02be 08       		.uleb128 0x8
 1199 02bf 63747800 		.ascii	"ctx\000"
 1200 02c3 02       		.byte	0x2
 1201 02c4 6201     		.2byte	0x162
 1202 02c6 77040000 		.4byte	0x477
 1203 02ca 0C       		.byte	0xc
 1204 02cb 09       		.uleb128 0x9
 1205 02cc 12040000 		.4byte	.LASF30
 1206 02d0 02       		.byte	0x2
 1207 02d1 6501     		.2byte	0x165
 1208 02d3 32020000 		.4byte	0x232
 1209 02d7 10       		.byte	0x10
 1210 02d8 09       		.uleb128 0x9
 1211 02d9 1D060000 		.4byte	.LASF31
 1212 02dd 02       		.byte	0x2
 1213 02de 6601     		.2byte	0x166
 1214 02e0 32020000 		.4byte	0x232
 1215 02e4 14       		.byte	0x14
 1216 02e5 09       		.uleb128 0x9
 1217 02e6 AD040000 		.4byte	.LASF54
 1218 02ea 02       		.byte	0x2
 1219 02eb 6901     		.2byte	0x169
 1220 02ed 32020000 		.4byte	0x232
 1221 02f1 18       		.byte	0x18
 1222 02f2 00       		.byte	0
 1223 02f3 04       		.uleb128 0x4
 1224 02f4 6C060000 		.4byte	.LASF55
 1225 02f8 09       		.byte	0x9
 1226 02f9 51       		.byte	0x51
 1227 02fa FE020000 		.4byte	0x2fe
 1228 02fe 0A       		.uleb128 0xa
 1229 02ff 04       		.byte	0x4
 1230 0300 04030000 		.4byte	0x304
 1231 0304 0C       		.uleb128 0xc
 1232 0305 0F030000 		.4byte	0x30f
 1233 0309 0D       		.uleb128 0xd
 1234 030a 0F030000 		.4byte	0x30f
 1235 030e 00       		.byte	0
 1236 030f 0E       		.uleb128 0xe
 1237 0310 04       		.byte	0x4
 1238 0311 04       		.uleb128 0x4
 1239 0312 D8040000 		.4byte	.LASF56
 1240 0316 09       		.byte	0x9
 1241 0317 56       		.byte	0x56
 1242 0318 1C030000 		.4byte	0x31c
 1243 031c 0B       		.uleb128 0xb
 1244 031d 90050000 		.4byte	.LASF57
 1245 0321 14       		.byte	0x14
 1246 0322 02       		.byte	0x2
 1247 0323 3901     		.2byte	0x139
 1248 0325 6B030000 		.4byte	0x36b
 1249 0329 09       		.uleb128 0x9
 1250 032a 18010000 		.4byte	.LASF48
ARM GAS  /tmp/ccbMFK8z.s 			page 23


 1251 032e 02       		.byte	0x2
 1252 032f 3A01     		.2byte	0x13a
 1253 0331 75070000 		.4byte	0x775
 1254 0335 00       		.byte	0
 1255 0336 09       		.uleb128 0x9
 1256 0337 56000000 		.4byte	.LASF51
 1257 033b 02       		.byte	0x2
 1258 033c 3B01     		.2byte	0x13b
 1259 033e 75070000 		.4byte	0x775
 1260 0342 04       		.byte	0x4
 1261 0343 09       		.uleb128 0x9
 1262 0344 13000000 		.4byte	.LASF58
 1263 0348 02       		.byte	0x2
 1264 0349 3C01     		.2byte	0x13c
 1265 034b 4F040000 		.4byte	0x44f
 1266 034f 08       		.byte	0x8
 1267 0350 09       		.uleb128 0x9
 1268 0351 9A010000 		.4byte	.LASF59
 1269 0355 02       		.byte	0x2
 1270 0356 3D01     		.2byte	0x13d
 1271 0358 F3020000 		.4byte	0x2f3
 1272 035c 0C       		.byte	0xc
 1273 035d 08       		.uleb128 0x8
 1274 035e 70617200 		.ascii	"par\000"
 1275 0362 02       		.byte	0x2
 1276 0363 3F01     		.2byte	0x13f
 1277 0365 0F030000 		.4byte	0x30f
 1278 0369 10       		.byte	0x10
 1279 036a 00       		.byte	0
 1280 036b 04       		.uleb128 0x4
 1281 036c F5000000 		.4byte	.LASF60
 1282 0370 09       		.byte	0x9
 1283 0371 5B       		.byte	0x5b
 1284 0372 76030000 		.4byte	0x376
 1285 0376 0B       		.uleb128 0xb
 1286 0377 3D040000 		.4byte	.LASF61
 1287 037b 10       		.byte	0x10
 1288 037c 02       		.byte	0x2
 1289 037d 4901     		.2byte	0x149
 1290 037f B8030000 		.4byte	0x3b8
 1291 0383 09       		.uleb128 0x9
 1292 0384 18010000 		.4byte	.LASF48
 1293 0388 02       		.byte	0x2
 1294 0389 4A01     		.2byte	0x14a
 1295 038b 75070000 		.4byte	0x775
 1296 038f 00       		.byte	0
 1297 0390 09       		.uleb128 0x9
 1298 0391 56000000 		.4byte	.LASF51
 1299 0395 02       		.byte	0x2
 1300 0396 4C01     		.2byte	0x14c
 1301 0398 75070000 		.4byte	0x775
 1302 039c 04       		.byte	0x4
 1303 039d 09       		.uleb128 0x9
 1304 039e 13000000 		.4byte	.LASF58
 1305 03a2 02       		.byte	0x2
 1306 03a3 4E01     		.2byte	0x14e
 1307 03a5 4F040000 		.4byte	0x44f
ARM GAS  /tmp/ccbMFK8z.s 			page 24


 1308 03a9 08       		.byte	0x8
 1309 03aa 09       		.uleb128 0x9
 1310 03ab 3B050000 		.4byte	.LASF62
 1311 03af 02       		.byte	0x2
 1312 03b0 5601     		.2byte	0x156
 1313 03b2 44040000 		.4byte	0x444
 1314 03b6 0C       		.byte	0xc
 1315 03b7 00       		.byte	0
 1316 03b8 04       		.uleb128 0x4
 1317 03b9 78000000 		.4byte	.LASF63
 1318 03bd 09       		.byte	0x9
 1319 03be 60       		.byte	0x60
 1320 03bf C3030000 		.4byte	0x3c3
 1321 03c3 0B       		.uleb128 0xb
 1322 03c4 F6010000 		.4byte	.LASF64
 1323 03c8 04       		.byte	0x4
 1324 03c9 02       		.byte	0x2
 1325 03ca 7001     		.2byte	0x170
 1326 03cc DE030000 		.4byte	0x3de
 1327 03d0 09       		.uleb128 0x9
 1328 03d1 83060000 		.4byte	.LASF65
 1329 03d5 02       		.byte	0x2
 1330 03d6 7801     		.2byte	0x178
 1331 03d8 7B070000 		.4byte	0x77b
 1332 03dc 00       		.byte	0
 1333 03dd 00       		.byte	0
 1334 03de 04       		.uleb128 0x4
 1335 03df B8020000 		.4byte	.LASF66
 1336 03e3 09       		.byte	0x9
 1337 03e4 65       		.byte	0x65
 1338 03e5 E9030000 		.4byte	0x3e9
 1339 03e9 0B       		.uleb128 0xb
 1340 03ea 5C050000 		.4byte	.LASF67
 1341 03ee D0       		.byte	0xd0
 1342 03ef 02       		.byte	0x2
 1343 03f0 9001     		.2byte	0x190
 1344 03f2 44040000 		.4byte	0x444
 1345 03f6 09       		.uleb128 0x9
 1346 03f7 0E070000 		.4byte	.LASF68
 1347 03fb 02       		.byte	0x2
 1348 03fc 9401     		.2byte	0x194
 1349 03fe 8C020000 		.4byte	0x28c
 1350 0402 00       		.byte	0
 1351 0403 09       		.uleb128 0x9
 1352 0404 58010000 		.4byte	.LASF69
 1353 0408 02       		.byte	0x2
 1354 0409 9801     		.2byte	0x198
 1355 040b 6B030000 		.4byte	0x36b
 1356 040f 1C       		.byte	0x1c
 1357 0410 08       		.uleb128 0x8
 1358 0411 64626700 		.ascii	"dbg\000"
 1359 0415 02       		.byte	0x2
 1360 0416 9C01     		.2byte	0x19c
 1361 0418 B8030000 		.4byte	0x3b8
 1362 041c 2C       		.byte	0x2c
 1363 041d 09       		.uleb128 0x9
 1364 041e E2000000 		.4byte	.LASF70
ARM GAS  /tmp/ccbMFK8z.s 			page 25


 1365 0422 02       		.byte	0x2
 1366 0423 A001     		.2byte	0x1a0
 1367 0425 31010000 		.4byte	0x131
 1368 0429 30       		.byte	0x30
 1369 042a 08       		.uleb128 0x8
 1370 042b 746D00   		.ascii	"tm\000"
 1371 042e 02       		.byte	0x2
 1372 042f A501     		.2byte	0x1a5
 1373 0431 F6050000 		.4byte	0x5f6
 1374 0435 90       		.byte	0x90
 1375 0436 09       		.uleb128 0x9
 1376 0437 94060000 		.4byte	.LASF71
 1377 043b 02       		.byte	0x2
 1378 043c AB01     		.2byte	0x1ab
 1379 043e 88060000 		.4byte	0x688
 1380 0442 98       		.byte	0x98
 1381 0443 00       		.byte	0
 1382 0444 04       		.uleb128 0x4
 1383 0445 62060000 		.4byte	.LASF72
 1384 0449 0A       		.byte	0xa
 1385 044a 6D       		.byte	0x6d
 1386 044b AD000000 		.4byte	0xad
 1387 044f 04       		.uleb128 0x4
 1388 0450 16020000 		.4byte	.LASF73
 1389 0454 0A       		.byte	0xa
 1390 0455 79       		.byte	0x79
 1391 0456 AD000000 		.4byte	0xad
 1392 045a 03       		.uleb128 0x3
 1393 045b 04       		.byte	0x4
 1394 045c 07       		.byte	0x7
 1395 045d 21040000 		.4byte	.LASF74
 1396 0461 04       		.uleb128 0x4
 1397 0462 DB010000 		.4byte	.LASF75
 1398 0466 0B       		.byte	0xb
 1399 0467 65       		.byte	0x65
 1400 0468 0F030000 		.4byte	0x30f
 1401 046c 04       		.uleb128 0x4
 1402 046d 07040000 		.4byte	.LASF76
 1403 0471 0B       		.byte	0xb
 1404 0472 6D       		.byte	0x6d
 1405 0473 B8000000 		.4byte	0xb8
 1406 0477 05       		.uleb128 0x5
 1407 0478 6C040000 		.4byte	.LASF77
 1408 047c 04       		.byte	0x4
 1409 047d 0B       		.byte	0xb
 1410 047e 89       		.byte	0x89
 1411 047f 8F040000 		.4byte	0x48f
 1412 0483 07       		.uleb128 0x7
 1413 0484 737000   		.ascii	"sp\000"
 1414 0487 0B       		.byte	0xb
 1415 0488 8A       		.byte	0x8a
 1416 0489 DB050000 		.4byte	0x5db
 1417 048d 00       		.byte	0
 1418 048e 00       		.byte	0
 1419 048f 0B       		.uleb128 0xb
 1420 0490 5B000000 		.4byte	.LASF78
 1421 0494 64       		.byte	0x64
ARM GAS  /tmp/ccbMFK8z.s 			page 26


 1422 0495 0C       		.byte	0xc
 1423 0496 5901     		.2byte	0x159
 1424 0498 DB050000 		.4byte	0x5db
 1425 049c 08       		.uleb128 0x8
 1426 049d 73313600 		.ascii	"s16\000"
 1427 04a1 0C       		.byte	0xc
 1428 04a2 5B01     		.2byte	0x15b
 1429 04a4 61040000 		.4byte	0x461
 1430 04a8 00       		.byte	0
 1431 04a9 08       		.uleb128 0x8
 1432 04aa 73313700 		.ascii	"s17\000"
 1433 04ae 0C       		.byte	0xc
 1434 04af 5C01     		.2byte	0x15c
 1435 04b1 61040000 		.4byte	0x461
 1436 04b5 04       		.byte	0x4
 1437 04b6 08       		.uleb128 0x8
 1438 04b7 73313800 		.ascii	"s18\000"
 1439 04bb 0C       		.byte	0xc
 1440 04bc 5D01     		.2byte	0x15d
 1441 04be 61040000 		.4byte	0x461
 1442 04c2 08       		.byte	0x8
 1443 04c3 08       		.uleb128 0x8
 1444 04c4 73313900 		.ascii	"s19\000"
 1445 04c8 0C       		.byte	0xc
 1446 04c9 5E01     		.2byte	0x15e
 1447 04cb 61040000 		.4byte	0x461
 1448 04cf 0C       		.byte	0xc
 1449 04d0 08       		.uleb128 0x8
 1450 04d1 73323000 		.ascii	"s20\000"
 1451 04d5 0C       		.byte	0xc
 1452 04d6 5F01     		.2byte	0x15f
 1453 04d8 61040000 		.4byte	0x461
 1454 04dc 10       		.byte	0x10
 1455 04dd 08       		.uleb128 0x8
 1456 04de 73323100 		.ascii	"s21\000"
 1457 04e2 0C       		.byte	0xc
 1458 04e3 6001     		.2byte	0x160
 1459 04e5 61040000 		.4byte	0x461
 1460 04e9 14       		.byte	0x14
 1461 04ea 08       		.uleb128 0x8
 1462 04eb 73323200 		.ascii	"s22\000"
 1463 04ef 0C       		.byte	0xc
 1464 04f0 6101     		.2byte	0x161
 1465 04f2 61040000 		.4byte	0x461
 1466 04f6 18       		.byte	0x18
 1467 04f7 08       		.uleb128 0x8
 1468 04f8 73323300 		.ascii	"s23\000"
 1469 04fc 0C       		.byte	0xc
 1470 04fd 6201     		.2byte	0x162
 1471 04ff 61040000 		.4byte	0x461
 1472 0503 1C       		.byte	0x1c
 1473 0504 08       		.uleb128 0x8
 1474 0505 73323400 		.ascii	"s24\000"
 1475 0509 0C       		.byte	0xc
 1476 050a 6301     		.2byte	0x163
 1477 050c 61040000 		.4byte	0x461
 1478 0510 20       		.byte	0x20
ARM GAS  /tmp/ccbMFK8z.s 			page 27


 1479 0511 08       		.uleb128 0x8
 1480 0512 73323500 		.ascii	"s25\000"
 1481 0516 0C       		.byte	0xc
 1482 0517 6401     		.2byte	0x164
 1483 0519 61040000 		.4byte	0x461
 1484 051d 24       		.byte	0x24
 1485 051e 08       		.uleb128 0x8
 1486 051f 73323600 		.ascii	"s26\000"
 1487 0523 0C       		.byte	0xc
 1488 0524 6501     		.2byte	0x165
 1489 0526 61040000 		.4byte	0x461
 1490 052a 28       		.byte	0x28
 1491 052b 08       		.uleb128 0x8
 1492 052c 73323700 		.ascii	"s27\000"
 1493 0530 0C       		.byte	0xc
 1494 0531 6601     		.2byte	0x166
 1495 0533 61040000 		.4byte	0x461
 1496 0537 2C       		.byte	0x2c
 1497 0538 08       		.uleb128 0x8
 1498 0539 73323800 		.ascii	"s28\000"
 1499 053d 0C       		.byte	0xc
 1500 053e 6701     		.2byte	0x167
 1501 0540 61040000 		.4byte	0x461
 1502 0544 30       		.byte	0x30
 1503 0545 08       		.uleb128 0x8
 1504 0546 73323900 		.ascii	"s29\000"
 1505 054a 0C       		.byte	0xc
 1506 054b 6801     		.2byte	0x168
 1507 054d 61040000 		.4byte	0x461
 1508 0551 34       		.byte	0x34
 1509 0552 08       		.uleb128 0x8
 1510 0553 73333000 		.ascii	"s30\000"
 1511 0557 0C       		.byte	0xc
 1512 0558 6901     		.2byte	0x169
 1513 055a 61040000 		.4byte	0x461
 1514 055e 38       		.byte	0x38
 1515 055f 08       		.uleb128 0x8
 1516 0560 73333100 		.ascii	"s31\000"
 1517 0564 0C       		.byte	0xc
 1518 0565 6A01     		.2byte	0x16a
 1519 0567 61040000 		.4byte	0x461
 1520 056b 3C       		.byte	0x3c
 1521 056c 08       		.uleb128 0x8
 1522 056d 723400   		.ascii	"r4\000"
 1523 0570 0C       		.byte	0xc
 1524 0571 6C01     		.2byte	0x16c
 1525 0573 61040000 		.4byte	0x461
 1526 0577 40       		.byte	0x40
 1527 0578 08       		.uleb128 0x8
 1528 0579 723500   		.ascii	"r5\000"
 1529 057c 0C       		.byte	0xc
 1530 057d 6D01     		.2byte	0x16d
 1531 057f 61040000 		.4byte	0x461
 1532 0583 44       		.byte	0x44
 1533 0584 08       		.uleb128 0x8
 1534 0585 723600   		.ascii	"r6\000"
 1535 0588 0C       		.byte	0xc
ARM GAS  /tmp/ccbMFK8z.s 			page 28


 1536 0589 6E01     		.2byte	0x16e
 1537 058b 61040000 		.4byte	0x461
 1538 058f 48       		.byte	0x48
 1539 0590 08       		.uleb128 0x8
 1540 0591 723700   		.ascii	"r7\000"
 1541 0594 0C       		.byte	0xc
 1542 0595 6F01     		.2byte	0x16f
 1543 0597 61040000 		.4byte	0x461
 1544 059b 4C       		.byte	0x4c
 1545 059c 08       		.uleb128 0x8
 1546 059d 723800   		.ascii	"r8\000"
 1547 05a0 0C       		.byte	0xc
 1548 05a1 7001     		.2byte	0x170
 1549 05a3 61040000 		.4byte	0x461
 1550 05a7 50       		.byte	0x50
 1551 05a8 08       		.uleb128 0x8
 1552 05a9 723900   		.ascii	"r9\000"
 1553 05ac 0C       		.byte	0xc
 1554 05ad 7101     		.2byte	0x171
 1555 05af 61040000 		.4byte	0x461
 1556 05b3 54       		.byte	0x54
 1557 05b4 08       		.uleb128 0x8
 1558 05b5 72313000 		.ascii	"r10\000"
 1559 05b9 0C       		.byte	0xc
 1560 05ba 7201     		.2byte	0x172
 1561 05bc 61040000 		.4byte	0x461
 1562 05c0 58       		.byte	0x58
 1563 05c1 08       		.uleb128 0x8
 1564 05c2 72313100 		.ascii	"r11\000"
 1565 05c6 0C       		.byte	0xc
 1566 05c7 7301     		.2byte	0x173
 1567 05c9 61040000 		.4byte	0x461
 1568 05cd 5C       		.byte	0x5c
 1569 05ce 08       		.uleb128 0x8
 1570 05cf 6C7200   		.ascii	"lr\000"
 1571 05d2 0C       		.byte	0xc
 1572 05d3 7401     		.2byte	0x174
 1573 05d5 61040000 		.4byte	0x461
 1574 05d9 60       		.byte	0x60
 1575 05da 00       		.byte	0
 1576 05db 0A       		.uleb128 0xa
 1577 05dc 04       		.byte	0x4
 1578 05dd 8F040000 		.4byte	0x48f
 1579 05e1 0F       		.uleb128 0xf
 1580 05e2 04       		.byte	0x4
 1581 05e3 0D       		.byte	0xd
 1582 05e4 38       		.byte	0x38
 1583 05e5 F6050000 		.4byte	0x5f6
 1584 05e9 06       		.uleb128 0x6
 1585 05ea 8D060000 		.4byte	.LASF79
 1586 05ee 0D       		.byte	0xd
 1587 05ef 3C       		.byte	0x3c
 1588 05f0 C3000000 		.4byte	0xc3
 1589 05f4 00       		.byte	0
 1590 05f5 00       		.byte	0
 1591 05f6 04       		.uleb128 0x4
 1592 05f7 79040000 		.4byte	.LASF80
ARM GAS  /tmp/ccbMFK8z.s 			page 29


 1593 05fb 0D       		.byte	0xd
 1594 05fc 3D       		.byte	0x3d
 1595 05fd E1050000 		.4byte	0x5e1
 1596 0601 0F       		.uleb128 0xf
 1597 0602 18       		.byte	0x18
 1598 0603 0D       		.byte	0xd
 1599 0604 48       		.byte	0x48
 1600 0605 44060000 		.4byte	0x644
 1601 0609 06       		.uleb128 0x6
 1602 060a 4B060000 		.4byte	.LASF81
 1603 060e 0D       		.byte	0xd
 1604 060f 49       		.byte	0x49
 1605 0610 C3000000 		.4byte	0xc3
 1606 0614 00       		.byte	0
 1607 0615 06       		.uleb128 0x6
 1608 0616 9C000000 		.4byte	.LASF82
 1609 061a 0D       		.byte	0xd
 1610 061b 4A       		.byte	0x4a
 1611 061c C3000000 		.4byte	0xc3
 1612 0620 04       		.byte	0x4
 1613 0621 06       		.uleb128 0x6
 1614 0622 A3020000 		.4byte	.LASF83
 1615 0626 0D       		.byte	0xd
 1616 0627 4B       		.byte	0x4b
 1617 0628 C3000000 		.4byte	0xc3
 1618 062c 08       		.byte	0x8
 1619 062d 07       		.uleb128 0x7
 1620 062e 6E00     		.ascii	"n\000"
 1621 0630 0D       		.byte	0xd
 1622 0631 4C       		.byte	0x4c
 1623 0632 26010000 		.4byte	0x126
 1624 0636 0C       		.byte	0xc
 1625 0637 06       		.uleb128 0x6
 1626 0638 C0040000 		.4byte	.LASF84
 1627 063c 0D       		.byte	0xd
 1628 063d 4D       		.byte	0x4d
 1629 063e CE000000 		.4byte	0xce
 1630 0642 10       		.byte	0x10
 1631 0643 00       		.byte	0
 1632 0644 04       		.uleb128 0x4
 1633 0645 A2000000 		.4byte	.LASF85
 1634 0649 0D       		.byte	0xd
 1635 064a 4E       		.byte	0x4e
 1636 064b 01060000 		.4byte	0x601
 1637 064f 0F       		.uleb128 0xf
 1638 0650 38       		.byte	0x38
 1639 0651 0E       		.byte	0xe
 1640 0652 38       		.byte	0x38
 1641 0653 88060000 		.4byte	0x688
 1642 0657 06       		.uleb128 0x6
 1643 0658 5A020000 		.4byte	.LASF86
 1644 065c 0E       		.byte	0xe
 1645 065d 39       		.byte	0x39
 1646 065e 26010000 		.4byte	0x126
 1647 0662 00       		.byte	0
 1648 0663 06       		.uleb128 0x6
 1649 0664 03050000 		.4byte	.LASF87
ARM GAS  /tmp/ccbMFK8z.s 			page 30


 1650 0668 0E       		.byte	0xe
 1651 0669 3A       		.byte	0x3a
 1652 066a 26010000 		.4byte	0x126
 1653 066e 04       		.byte	0x4
 1654 066f 06       		.uleb128 0x6
 1655 0670 9F070000 		.4byte	.LASF88
 1656 0674 0E       		.byte	0xe
 1657 0675 3B       		.byte	0x3b
 1658 0676 44060000 		.4byte	0x644
 1659 067a 08       		.byte	0x8
 1660 067b 06       		.uleb128 0x6
 1661 067c BA030000 		.4byte	.LASF89
 1662 0680 0E       		.byte	0xe
 1663 0681 3D       		.byte	0x3d
 1664 0682 44060000 		.4byte	0x644
 1665 0686 20       		.byte	0x20
 1666 0687 00       		.byte	0
 1667 0688 04       		.uleb128 0x4
 1668 0689 7F020000 		.4byte	.LASF90
 1669 068d 0E       		.byte	0xe
 1670 068e 3F       		.byte	0x3f
 1671 068f 4F060000 		.4byte	0x64f
 1672 0693 10       		.uleb128 0x10
 1673 0694 04       		.byte	0x4
 1674 0695 02       		.byte	0x2
 1675 0696 C6       		.byte	0xc6
 1676 0697 F5060000 		.4byte	0x6f5
 1677 069b 11       		.uleb128 0x11
 1678 069c 19000000 		.4byte	.LASF91
 1679 06a0 02       		.byte	0x2
 1680 06a1 CD       		.byte	0xcd
 1681 06a2 05010000 		.4byte	0x105
 1682 06a6 11       		.uleb128 0x11
 1683 06a7 D9000000 		.4byte	.LASF92
 1684 06ab 02       		.byte	0x2
 1685 06ac D4       		.byte	0xd4
 1686 06ad 05010000 		.4byte	0x105
 1687 06b1 11       		.uleb128 0x11
 1688 06b2 B3030000 		.4byte	.LASF93
 1689 06b6 02       		.byte	0x2
 1690 06b7 DB       		.byte	0xdb
 1691 06b8 0F030000 		.4byte	0x30f
 1692 06bc 11       		.uleb128 0x11
 1693 06bd 0D000000 		.4byte	.LASF94
 1694 06c1 02       		.byte	0x2
 1695 06c2 E2       		.byte	0xe2
 1696 06c3 F5060000 		.4byte	0x6f5
 1697 06c7 11       		.uleb128 0x11
 1698 06c8 ED000000 		.4byte	.LASF95
 1699 06cc 02       		.byte	0x2
 1700 06cd E7       		.byte	0xe7
 1701 06ce 05010000 		.4byte	0x105
 1702 06d2 11       		.uleb128 0x11
 1703 06d3 3E020000 		.4byte	.LASF96
 1704 06d7 02       		.byte	0x2
 1705 06d8 F0       		.byte	0xf0
 1706 06d9 20070000 		.4byte	0x720
ARM GAS  /tmp/ccbMFK8z.s 			page 31


 1707 06dd 11       		.uleb128 0x11
 1708 06de D6050000 		.4byte	.LASF97
 1709 06e2 02       		.byte	0x2
 1710 06e3 F9       		.byte	0xf9
 1711 06e4 57070000 		.4byte	0x757
 1712 06e8 12       		.uleb128 0x12
 1713 06e9 55050000 		.4byte	.LASF98
 1714 06ed 02       		.byte	0x2
 1715 06ee 0101     		.2byte	0x101
 1716 06f0 10010000 		.4byte	0x110
 1717 06f4 00       		.byte	0
 1718 06f5 0A       		.uleb128 0xa
 1719 06f6 04       		.byte	0x4
 1720 06f7 27020000 		.4byte	0x227
 1721 06fb 05       		.uleb128 0x5
 1722 06fc A1050000 		.4byte	.LASF99
 1723 0700 0C       		.byte	0xc
 1724 0701 05       		.byte	0x5
 1725 0702 34       		.byte	0x34
 1726 0703 20070000 		.4byte	0x720
 1727 0707 06       		.uleb128 0x6
 1728 0708 60020000 		.4byte	.LASF28
 1729 070c 05       		.byte	0x5
 1730 070d 35       		.byte	0x35
 1731 070e 5C020000 		.4byte	0x25c
 1732 0712 00       		.byte	0
 1733 0713 07       		.uleb128 0x7
 1734 0714 636E7400 		.ascii	"cnt\000"
 1735 0718 05       		.byte	0x5
 1736 0719 37       		.byte	0x37
 1737 071a 1B010000 		.4byte	0x11b
 1738 071e 08       		.byte	0x8
 1739 071f 00       		.byte	0
 1740 0720 0A       		.uleb128 0xa
 1741 0721 04       		.byte	0x4
 1742 0722 FB060000 		.4byte	0x6fb
 1743 0726 05       		.uleb128 0x5
 1744 0727 05070000 		.4byte	.LASF100
 1745 072b 10       		.byte	0x10
 1746 072c 0F       		.byte	0xf
 1747 072d 39       		.byte	0x39
 1748 072e 57070000 		.4byte	0x757
 1749 0732 06       		.uleb128 0x6
 1750 0733 60020000 		.4byte	.LASF28
 1751 0737 0F       		.byte	0xf
 1752 0738 3A       		.byte	0x3a
 1753 0739 5C020000 		.4byte	0x25c
 1754 073d 00       		.byte	0
 1755 073e 06       		.uleb128 0x6
 1756 073f F9050000 		.4byte	.LASF101
 1757 0743 0F       		.byte	0xf
 1758 0744 3C       		.byte	0x3c
 1759 0745 32020000 		.4byte	0x232
 1760 0749 08       		.byte	0x8
 1761 074a 06       		.uleb128 0x6
 1762 074b 18010000 		.4byte	.LASF48
 1763 074f 0F       		.byte	0xf
ARM GAS  /tmp/ccbMFK8z.s 			page 32


 1764 0750 3E       		.byte	0x3e
 1765 0751 96070000 		.4byte	0x796
 1766 0755 0C       		.byte	0xc
 1767 0756 00       		.byte	0
 1768 0757 0A       		.uleb128 0xa
 1769 0758 04       		.byte	0x4
 1770 0759 26070000 		.4byte	0x726
 1771 075d 0A       		.uleb128 0xa
 1772 075e 04       		.byte	0x4
 1773 075f 63070000 		.4byte	0x763
 1774 0763 13       		.uleb128 0x13
 1775 0764 68070000 		.4byte	0x768
 1776 0768 03       		.uleb128 0x3
 1777 0769 01       		.byte	0x1
 1778 076a 08       		.byte	0x8
 1779 076b 18060000 		.4byte	.LASF102
 1780 076f 0A       		.uleb128 0xa
 1781 0770 04       		.byte	0x4
 1782 0771 6C040000 		.4byte	0x46c
 1783 0775 0A       		.uleb128 0xa
 1784 0776 04       		.byte	0x4
 1785 0777 11030000 		.4byte	0x311
 1786 077b 14       		.uleb128 0x14
 1787 077c 5D070000 		.4byte	0x75d
 1788 0780 04       		.uleb128 0x4
 1789 0781 84050000 		.4byte	.LASF103
 1790 0785 05       		.byte	0x5
 1791 0786 38       		.byte	0x38
 1792 0787 FB060000 		.4byte	0x6fb
 1793 078b 04       		.uleb128 0x4
 1794 078c 0E020000 		.4byte	.LASF104
 1795 0790 0F       		.byte	0xf
 1796 0791 34       		.byte	0x34
 1797 0792 26070000 		.4byte	0x726
 1798 0796 0A       		.uleb128 0xa
 1799 0797 04       		.byte	0x4
 1800 0798 8B070000 		.4byte	0x78b
 1801 079c 03       		.uleb128 0x3
 1802 079d 01       		.byte	0x1
 1803 079e 02       		.byte	0x2
 1804 079f 0C050000 		.4byte	.LASF105
 1805 07a3 15       		.uleb128 0x15
 1806 07a4 75060000 		.4byte	.LASF109
 1807 07a8 03       		.byte	0x3
 1808 07a9 EB01     		.2byte	0x1eb
 1809 07ab 03       		.byte	0x3
 1810 07ac BD070000 		.4byte	0x7bd
 1811 07b0 16       		.uleb128 0x16
 1812 07b1 50010000 		.4byte	.LASF108
 1813 07b5 03       		.byte	0x3
 1814 07b6 EB01     		.2byte	0x1eb
 1815 07b8 AD000000 		.4byte	0xad
 1816 07bc 00       		.byte	0
 1817 07bd 17       		.uleb128 0x17
 1818 07be 92000000 		.4byte	.LASF106
 1819 07c2 0C       		.byte	0xc
 1820 07c3 5A02     		.2byte	0x25a
ARM GAS  /tmp/ccbMFK8z.s 			page 33


 1821 07c5 03       		.byte	0x3
 1822 07c6 17       		.uleb128 0x17
 1823 07c7 5F010000 		.4byte	.LASF107
 1824 07cb 0C       		.byte	0xc
 1825 07cc 7202     		.2byte	0x272
 1826 07ce 03       		.byte	0x3
 1827 07cf 18       		.uleb128 0x18
 1828 07d0 77050000 		.4byte	.LASF114
 1829 07d4 10       		.byte	0x10
 1830 07d5 F1       		.byte	0xf1
 1831 07d6 9C070000 		.4byte	0x79c
 1832 07da 03       		.byte	0x3
 1833 07db EB070000 		.4byte	0x7eb
 1834 07df 19       		.uleb128 0x19
 1835 07e0 76747000 		.ascii	"vtp\000"
 1836 07e4 10       		.byte	0x10
 1837 07e5 F1       		.byte	0xf1
 1838 07e6 EB070000 		.4byte	0x7eb
 1839 07ea 00       		.byte	0
 1840 07eb 0A       		.uleb128 0xa
 1841 07ec 04       		.byte	0x4
 1842 07ed F1070000 		.4byte	0x7f1
 1843 07f1 13       		.uleb128 0x13
 1844 07f2 11030000 		.4byte	0x311
 1845 07f6 1A       		.uleb128 0x1a
 1846 07f7 44050000 		.4byte	.LASF110
 1847 07fb 05       		.byte	0x5
 1848 07fc 86       		.byte	0x86
 1849 07fd 03       		.byte	0x3
 1850 07fe 0D080000 		.4byte	0x80d
 1851 0802 19       		.uleb128 0x19
 1852 0803 737000   		.ascii	"sp\000"
 1853 0806 05       		.byte	0x5
 1854 0807 86       		.byte	0x86
 1855 0808 0D080000 		.4byte	0x80d
 1856 080c 00       		.byte	0
 1857 080d 0A       		.uleb128 0xa
 1858 080e 04       		.byte	0x4
 1859 080f 80070000 		.4byte	0x780
 1860 0813 17       		.uleb128 0x17
 1861 0814 D5060000 		.4byte	.LASF111
 1862 0818 0C       		.byte	0xc
 1863 0819 8102     		.2byte	0x281
 1864 081b 03       		.byte	0x3
 1865 081c 17       		.uleb128 0x17
 1866 081d 2D060000 		.4byte	.LASF112
 1867 0821 0C       		.byte	0xc
 1868 0822 8C02     		.2byte	0x28c
 1869 0824 03       		.byte	0x3
 1870 0825 15       		.uleb128 0x15
 1871 0826 87000000 		.4byte	.LASF113
 1872 082a 02       		.byte	0x2
 1873 082b 1902     		.2byte	0x219
 1874 082d 03       		.byte	0x3
 1875 082e 3F080000 		.4byte	0x83f
 1876 0832 1B       		.uleb128 0x1b
 1877 0833 74717000 		.ascii	"tqp\000"
ARM GAS  /tmp/ccbMFK8z.s 			page 34


 1878 0837 02       		.byte	0x2
 1879 0838 1902     		.2byte	0x219
 1880 083a 3F080000 		.4byte	0x83f
 1881 083e 00       		.byte	0
 1882 083f 0A       		.uleb128 0xa
 1883 0840 04       		.byte	0x4
 1884 0841 5C020000 		.4byte	0x25c
 1885 0845 1C       		.uleb128 0x1c
 1886 0846 50060000 		.4byte	.LASF115
 1887 084a 02       		.byte	0x2
 1888 084b 5E02     		.2byte	0x25e
 1889 084d 32020000 		.4byte	0x232
 1890 0851 03       		.byte	0x3
 1891 0852 6E080000 		.4byte	0x86e
 1892 0856 1B       		.uleb128 0x1b
 1893 0857 74717000 		.ascii	"tqp\000"
 1894 085b 02       		.byte	0x2
 1895 085c 5E02     		.2byte	0x25e
 1896 085e 3F080000 		.4byte	0x83f
 1897 0862 1D       		.uleb128 0x1d
 1898 0863 747000   		.ascii	"tp\000"
 1899 0866 02       		.byte	0x2
 1900 0867 5F02     		.2byte	0x25f
 1901 0869 32020000 		.4byte	0x232
 1902 086d 00       		.byte	0
 1903 086e 1E       		.uleb128 0x1e
 1904 086f 26010000 		.4byte	.LASF122
 1905 0873 01       		.byte	0x1
 1906 0874 41       		.byte	0x41
 1907 0875 00000000 		.4byte	.LFB290
 1908 0879 14000000 		.4byte	.LFE290-.LFB290
 1909 087d 01       		.uleb128 0x1
 1910 087e 9C       		.byte	0x9c
 1911 087f A0080000 		.4byte	0x8a0
 1912 0883 1F       		.uleb128 0x1f
 1913 0884 25080000 		.4byte	0x825
 1914 0888 00000000 		.4byte	.LBB39
 1915 088c 00000000 		.4byte	.Ldebug_ranges0+0
 1916 0890 01       		.byte	0x1
 1917 0891 43       		.byte	0x43
 1918 0892 20       		.uleb128 0x20
 1919 0893 32080000 		.4byte	0x832
 1920 0897 06       		.uleb128 0x6
 1921 0898 03       		.byte	0x3
 1922 0899 00000000 		.4byte	ch
 1923 089d 9F       		.byte	0x9f
 1924 089e 00       		.byte	0
 1925 089f 00       		.byte	0
 1926 08a0 21       		.uleb128 0x21
 1927 08a1 DD050000 		.4byte	.LASF119
 1928 08a5 01       		.byte	0x1
 1929 08a6 DA       		.byte	0xda
 1930 08a7 32020000 		.4byte	0x232
 1931 08ab 00000000 		.4byte	.LFB291
 1932 08af 24000000 		.4byte	.LFE291-.LFB291
 1933 08b3 01       		.uleb128 0x1
 1934 08b4 9C       		.byte	0x9c
ARM GAS  /tmp/ccbMFK8z.s 			page 35


 1935 08b5 DD080000 		.4byte	0x8dd
 1936 08b9 22       		.uleb128 0x22
 1937 08ba 747000   		.ascii	"tp\000"
 1938 08bd 01       		.byte	0x1
 1939 08be DA       		.byte	0xda
 1940 08bf 32020000 		.4byte	0x232
 1941 08c3 01       		.uleb128 0x1
 1942 08c4 50       		.byte	0x50
 1943 08c5 23       		.uleb128 0x23
 1944 08c6 637000   		.ascii	"cp\000"
 1945 08c9 01       		.byte	0x1
 1946 08ca DB       		.byte	0xdb
 1947 08cb 32020000 		.4byte	0x232
 1948 08cf 00000000 		.4byte	.LLST0
 1949 08d3 24       		.uleb128 0x24
 1950 08d4 6E050000 		.4byte	.LASF121
 1951 08d8 ED080000 		.4byte	0x8ed
 1952 08dc 00       		.byte	0
 1953 08dd 25       		.uleb128 0x25
 1954 08de 68070000 		.4byte	0x768
 1955 08e2 ED080000 		.4byte	0x8ed
 1956 08e6 26       		.uleb128 0x26
 1957 08e7 5A040000 		.4byte	0x45a
 1958 08eb 0B       		.byte	0xb
 1959 08ec 00       		.byte	0
 1960 08ed 13       		.uleb128 0x13
 1961 08ee DD080000 		.4byte	0x8dd
 1962 08f2 17       		.uleb128 0x17
 1963 08f3 30070000 		.4byte	.LASF116
 1964 08f7 04       		.byte	0x4
 1965 08f8 8901     		.2byte	0x189
 1966 08fa 03       		.byte	0x3
 1967 08fb 17       		.uleb128 0x17
 1968 08fc F0040000 		.4byte	.LASF117
 1969 0900 04       		.byte	0x4
 1970 0901 9D01     		.2byte	0x19d
 1971 0903 03       		.byte	0x3
 1972 0904 1C       		.uleb128 0x1c
 1973 0905 83010000 		.4byte	.LASF118
 1974 0909 02       		.byte	0x2
 1975 090a 7002     		.2byte	0x270
 1976 090c 32020000 		.4byte	0x232
 1977 0910 03       		.byte	0x3
 1978 0911 21090000 		.4byte	0x921
 1979 0915 1B       		.uleb128 0x1b
 1980 0916 747000   		.ascii	"tp\000"
 1981 0919 02       		.byte	0x2
 1982 091a 7002     		.2byte	0x270
 1983 091c 32020000 		.4byte	0x232
 1984 0920 00       		.byte	0
 1985 0921 27       		.uleb128 0x27
 1986 0922 37020000 		.4byte	.LASF142
 1987 0926 01       		.byte	0x1
 1988 0927 3F01     		.2byte	0x13f
 1989 0929 00000000 		.4byte	.LFB294
 1990 092d 5E000000 		.4byte	.LFE294-.LFB294
 1991 0931 01       		.uleb128 0x1
ARM GAS  /tmp/ccbMFK8z.s 			page 36


 1992 0932 9C       		.byte	0x9c
 1993 0933 B50A0000 		.4byte	0xab5
 1994 0937 28       		.uleb128 0x28
 1995 0938 7000     		.ascii	"p\000"
 1996 093a 01       		.byte	0x1
 1997 093b 3F01     		.2byte	0x13f
 1998 093d 0F030000 		.4byte	0x30f
 1999 0941 23000000 		.4byte	.LLST1
 2000 0945 29       		.uleb128 0x29
 2001 0946 747000   		.ascii	"tp\000"
 2002 0949 01       		.byte	0x1
 2003 094a 4001     		.2byte	0x140
 2004 094c 32020000 		.4byte	0x232
 2005 0950 41000000 		.4byte	.LLST2
 2006 0954 2A       		.uleb128 0x2a
 2007 0955 F2080000 		.4byte	0x8f2
 2008 0959 04000000 		.4byte	.LBB65
 2009 095d 0A000000 		.4byte	.LBE65-.LBB65
 2010 0961 01       		.byte	0x1
 2011 0962 4201     		.2byte	0x142
 2012 0964 AF090000 		.4byte	0x9af
 2013 0968 2A       		.uleb128 0x2a
 2014 0969 13080000 		.4byte	0x813
 2015 096d 04000000 		.4byte	.LBB67
 2016 0971 06000000 		.4byte	.LBE67-.LBB67
 2017 0975 04       		.byte	0x4
 2018 0976 8B01     		.2byte	0x18b
 2019 0978 A5090000 		.4byte	0x9a5
 2020 097c 2B       		.uleb128 0x2b
 2021 097d BD070000 		.4byte	0x7bd
 2022 0981 04000000 		.4byte	.LBB68
 2023 0985 06000000 		.4byte	.LBE68-.LBB68
 2024 0989 0C       		.byte	0xc
 2025 098a 8302     		.2byte	0x283
 2026 098c 2B       		.uleb128 0x2b
 2027 098d A3070000 		.4byte	0x7a3
 2028 0991 04000000 		.4byte	.LBB69
 2029 0995 06000000 		.4byte	.LBE69-.LBB69
 2030 0999 0C       		.byte	0xc
 2031 099a 6202     		.2byte	0x262
 2032 099c 2C       		.uleb128 0x2c
 2033 099d B0070000 		.4byte	0x7b0
 2034 09a1 20       		.byte	0x20
 2035 09a2 00       		.byte	0
 2036 09a3 00       		.byte	0
 2037 09a4 00       		.byte	0
 2038 09a5 2D       		.uleb128 0x2d
 2039 09a6 0E000000 		.4byte	.LVL7
 2040 09aa 000F0000 		.4byte	0xf00
 2041 09ae 00       		.byte	0
 2042 09af 2A       		.uleb128 0x2a
 2043 09b0 FB080000 		.4byte	0x8fb
 2044 09b4 24000000 		.4byte	.LBB71
 2045 09b8 0A000000 		.4byte	.LBE71-.LBB71
 2046 09bc 01       		.byte	0x1
 2047 09bd 4701     		.2byte	0x147
 2048 09bf 0D0A0000 		.4byte	0xa0d
ARM GAS  /tmp/ccbMFK8z.s 			page 37


 2049 09c3 2A       		.uleb128 0x2a
 2050 09c4 1C080000 		.4byte	0x81c
 2051 09c8 28000000 		.4byte	.LBB73
 2052 09cc 06000000 		.4byte	.LBE73-.LBB73
 2053 09d0 04       		.byte	0x4
 2054 09d1 A101     		.2byte	0x1a1
 2055 09d3 030A0000 		.4byte	0xa03
 2056 09d7 2B       		.uleb128 0x2b
 2057 09d8 C6070000 		.4byte	0x7c6
 2058 09dc 28000000 		.4byte	.LBB74
 2059 09e0 06000000 		.4byte	.LBE74-.LBB74
 2060 09e4 0C       		.byte	0xc
 2061 09e5 8E02     		.2byte	0x28e
 2062 09e7 2B       		.uleb128 0x2b
 2063 09e8 A3070000 		.4byte	0x7a3
 2064 09ec 28000000 		.4byte	.LBB75
 2065 09f0 06000000 		.4byte	.LBE75-.LBB75
 2066 09f4 0C       		.byte	0xc
 2067 09f5 7502     		.2byte	0x275
 2068 09f7 2E       		.uleb128 0x2e
 2069 09f8 B0070000 		.4byte	0x7b0
 2070 09fc 5F000000 		.4byte	.LLST3
 2071 0a00 00       		.byte	0
 2072 0a01 00       		.byte	0
 2073 0a02 00       		.byte	0
 2074 0a03 2D       		.uleb128 0x2d
 2075 0a04 28000000 		.4byte	.LVL8
 2076 0a08 070F0000 		.4byte	0xf07
 2077 0a0c 00       		.byte	0
 2078 0a0d 2A       		.uleb128 0x2a
 2079 0a0e F6070000 		.4byte	0x7f6
 2080 0a12 36000000 		.4byte	.LBB77
 2081 0a16 06000000 		.4byte	.LBE77-.LBB77
 2082 0a1a 01       		.byte	0x1
 2083 0a1b 4E01     		.2byte	0x14e
 2084 0a1d 2B0A0000 		.4byte	0xa2b
 2085 0a21 2E       		.uleb128 0x2e
 2086 0a22 02080000 		.4byte	0x802
 2087 0a26 73000000 		.4byte	.LLST4
 2088 0a2a 00       		.byte	0
 2089 0a2b 2A       		.uleb128 0x2a
 2090 0a2c 04090000 		.4byte	0x904
 2091 0a30 3C000000 		.4byte	.LBB79
 2092 0a34 0A000000 		.4byte	.LBE79-.LBB79
 2093 0a38 01       		.byte	0x1
 2094 0a39 5701     		.2byte	0x157
 2095 0a3b 490A0000 		.4byte	0xa49
 2096 0a3f 2E       		.uleb128 0x2e
 2097 0a40 15090000 		.4byte	0x915
 2098 0a44 86000000 		.4byte	.LLST5
 2099 0a48 00       		.byte	0
 2100 0a49 2A       		.uleb128 0x2a
 2101 0a4a FB080000 		.4byte	0x8fb
 2102 0a4e 52000000 		.4byte	.LBB81
 2103 0a52 0C000000 		.4byte	.LBE81-.LBB81
 2104 0a56 01       		.byte	0x1
 2105 0a57 5F01     		.2byte	0x15f
ARM GAS  /tmp/ccbMFK8z.s 			page 38


 2106 0a59 A40A0000 		.4byte	0xaa4
 2107 0a5d 2A       		.uleb128 0x2a
 2108 0a5e 1C080000 		.4byte	0x81c
 2109 0a62 56000000 		.4byte	.LBB83
 2110 0a66 08000000 		.4byte	.LBE83-.LBB83
 2111 0a6a 04       		.byte	0x4
 2112 0a6b A101     		.2byte	0x1a1
 2113 0a6d 9A0A0000 		.4byte	0xa9a
 2114 0a71 2B       		.uleb128 0x2b
 2115 0a72 C6070000 		.4byte	0x7c6
 2116 0a76 56000000 		.4byte	.LBB84
 2117 0a7a 08000000 		.4byte	.LBE84-.LBB84
 2118 0a7e 0C       		.byte	0xc
 2119 0a7f 8E02     		.2byte	0x28e
 2120 0a81 2B       		.uleb128 0x2b
 2121 0a82 A3070000 		.4byte	0x7a3
 2122 0a86 56000000 		.4byte	.LBB85
 2123 0a8a 08000000 		.4byte	.LBE85-.LBB85
 2124 0a8e 0C       		.byte	0xc
 2125 0a8f 7502     		.2byte	0x275
 2126 0a91 2C       		.uleb128 0x2c
 2127 0a92 B0070000 		.4byte	0x7b0
 2128 0a96 00       		.byte	0
 2129 0a97 00       		.byte	0
 2130 0a98 00       		.byte	0
 2131 0a99 00       		.byte	0
 2132 0a9a 2D       		.uleb128 0x2d
 2133 0a9b 56000000 		.4byte	.LVL14
 2134 0a9f 070F0000 		.4byte	0xf07
 2135 0aa3 00       		.byte	0
 2136 0aa4 2F       		.uleb128 0x2f
 2137 0aa5 52000000 		.4byte	.LVL13
 2138 0aa9 A0080000 		.4byte	0x8a0
 2139 0aad 30       		.uleb128 0x30
 2140 0aae 01       		.uleb128 0x1
 2141 0aaf 50       		.byte	0x50
 2142 0ab0 02       		.uleb128 0x2
 2143 0ab1 74       		.byte	0x74
 2144 0ab2 00       		.sleb128 0
 2145 0ab3 00       		.byte	0
 2146 0ab4 00       		.byte	0
 2147 0ab5 31       		.uleb128 0x31
 2148 0ab6 BC050000 		.4byte	.LASF120
 2149 0aba 01       		.byte	0x1
 2150 0abb 0101     		.2byte	0x101
 2151 0abd 32020000 		.4byte	0x232
 2152 0ac1 00000000 		.4byte	.LFB292
 2153 0ac5 24000000 		.4byte	.LFE292-.LFB292
 2154 0ac9 01       		.uleb128 0x1
 2155 0aca 9C       		.byte	0x9c
 2156 0acb F50A0000 		.4byte	0xaf5
 2157 0acf 32       		.uleb128 0x32
 2158 0ad0 747000   		.ascii	"tp\000"
 2159 0ad3 01       		.byte	0x1
 2160 0ad4 0101     		.2byte	0x101
 2161 0ad6 32020000 		.4byte	0x232
 2162 0ada 01       		.uleb128 0x1
ARM GAS  /tmp/ccbMFK8z.s 			page 39


 2163 0adb 50       		.byte	0x50
 2164 0adc 29       		.uleb128 0x29
 2165 0add 637000   		.ascii	"cp\000"
 2166 0ae0 01       		.byte	0x1
 2167 0ae1 0201     		.2byte	0x102
 2168 0ae3 32020000 		.4byte	0x232
 2169 0ae7 99000000 		.4byte	.LLST6
 2170 0aeb 24       		.uleb128 0x24
 2171 0aec 6E050000 		.4byte	.LASF121
 2172 0af0 050B0000 		.4byte	0xb05
 2173 0af4 00       		.byte	0
 2174 0af5 25       		.uleb128 0x25
 2175 0af6 68070000 		.4byte	0x768
 2176 0afa 050B0000 		.4byte	0xb05
 2177 0afe 26       		.uleb128 0x26
 2178 0aff 5A040000 		.4byte	0x45a
 2179 0b03 10       		.byte	0x10
 2180 0b04 00       		.byte	0
 2181 0b05 13       		.uleb128 0x13
 2182 0b06 F50A0000 		.4byte	0xaf5
 2183 0b0a 33       		.uleb128 0x33
 2184 0b0b AE050000 		.4byte	.LASF123
 2185 0b0f 01       		.byte	0x1
 2186 0b10 2101     		.2byte	0x121
 2187 0b12 00000000 		.4byte	.LFB293
 2188 0b16 30000000 		.4byte	.LFE293-.LFB293
 2189 0b1a 01       		.uleb128 0x1
 2190 0b1b 9C       		.byte	0x9c
 2191 0b1c 920B0000 		.4byte	0xb92
 2192 0b20 34       		.uleb128 0x34
 2193 0b21 28050000 		.4byte	.LASF124
 2194 0b25 01       		.byte	0x1
 2195 0b26 2101     		.2byte	0x121
 2196 0b28 E4000000 		.4byte	0xe4
 2197 0b2c BC000000 		.4byte	.LLST7
 2198 0b30 29       		.uleb128 0x29
 2199 0b31 6F747000 		.ascii	"otp\000"
 2200 0b35 01       		.byte	0x1
 2201 0b36 2201     		.2byte	0x122
 2202 0b38 32020000 		.4byte	0x232
 2203 0b3c E9000000 		.4byte	.LLST8
 2204 0b40 2A       		.uleb128 0x2a
 2205 0b41 45080000 		.4byte	0x845
 2206 0b45 0A000000 		.4byte	.LBB87
 2207 0b49 08000000 		.4byte	.LBE87-.LBB87
 2208 0b4d 01       		.byte	0x1
 2209 0b4e 3001     		.2byte	0x130
 2210 0b50 740B0000 		.4byte	0xb74
 2211 0b54 20       		.uleb128 0x20
 2212 0b55 56080000 		.4byte	0x856
 2213 0b59 06       		.uleb128 0x6
 2214 0b5a 03       		.byte	0x3
 2215 0b5b 00000000 		.4byte	ch
 2216 0b5f 9F       		.byte	0x9f
 2217 0b60 35       		.uleb128 0x35
 2218 0b61 0A000000 		.4byte	.LBB88
 2219 0b65 08000000 		.4byte	.LBE88-.LBB88
ARM GAS  /tmp/ccbMFK8z.s 			page 40


 2220 0b69 36       		.uleb128 0x36
 2221 0b6a 62080000 		.4byte	0x862
 2222 0b6e 07010000 		.4byte	.LLST9
 2223 0b72 00       		.byte	0
 2224 0b73 00       		.byte	0
 2225 0b74 37       		.uleb128 0x37
 2226 0b75 20000000 		.4byte	.LVL24
 2227 0b79 0E0F0000 		.4byte	0xf0e
 2228 0b7d 880B0000 		.4byte	0xb88
 2229 0b81 30       		.uleb128 0x30
 2230 0b82 01       		.uleb128 0x1
 2231 0b83 51       		.byte	0x51
 2232 0b84 02       		.uleb128 0x2
 2233 0b85 75       		.byte	0x75
 2234 0b86 00       		.sleb128 0
 2235 0b87 00       		.byte	0
 2236 0b88 38       		.uleb128 0x38
 2237 0b89 2C000000 		.4byte	.LVL26
 2238 0b8d 240F0000 		.4byte	0xf24
 2239 0b91 00       		.byte	0
 2240 0b92 31       		.uleb128 0x31
 2241 0b93 50070000 		.4byte	.LASF125
 2242 0b97 01       		.byte	0x1
 2243 0b98 7701     		.2byte	0x177
 2244 0b9a 05010000 		.4byte	0x105
 2245 0b9e 00000000 		.4byte	.LFB295
 2246 0ba2 3C000000 		.4byte	.LFE295-.LFB295
 2247 0ba6 01       		.uleb128 0x1
 2248 0ba7 9C       		.byte	0x9c
 2249 0ba8 3A0C0000 		.4byte	0xc3a
 2250 0bac 34       		.uleb128 0x34
 2251 0bad 28050000 		.4byte	.LASF124
 2252 0bb1 01       		.byte	0x1
 2253 0bb2 7701     		.2byte	0x177
 2254 0bb4 E4000000 		.4byte	0xe4
 2255 0bb8 1A010000 		.4byte	.LLST10
 2256 0bbc 34       		.uleb128 0x34
 2257 0bbd 52020000 		.4byte	.LASF126
 2258 0bc1 01       		.byte	0x1
 2259 0bc2 7701     		.2byte	0x177
 2260 0bc4 4F040000 		.4byte	0x44f
 2261 0bc8 54010000 		.4byte	.LLST11
 2262 0bcc 39       		.uleb128 0x39
 2263 0bcd 0C000000 		.4byte	.LBB89
 2264 0bd1 1C000000 		.4byte	.LBE89-.LBB89
 2265 0bd5 300C0000 		.4byte	0xc30
 2266 0bd9 3A       		.uleb128 0x3a
 2267 0bda 767400   		.ascii	"vt\000"
 2268 0bdd 01       		.byte	0x1
 2269 0bde 7C01     		.2byte	0x17c
 2270 0be0 11030000 		.4byte	0x311
 2271 0be4 02       		.uleb128 0x2
 2272 0be5 91       		.byte	0x91
 2273 0be6 5C       		.sleb128 -36
 2274 0be7 37       		.uleb128 0x37
 2275 0be8 16000000 		.4byte	.LVL29
 2276 0bec 3B0F0000 		.4byte	0xf3b
ARM GAS  /tmp/ccbMFK8z.s 			page 41


 2277 0bf0 0B0C0000 		.4byte	0xc0b
 2278 0bf4 30       		.uleb128 0x30
 2279 0bf5 01       		.uleb128 0x1
 2280 0bf6 52       		.byte	0x52
 2281 0bf7 05       		.uleb128 0x5
 2282 0bf8 03       		.byte	0x3
 2283 0bf9 00000000 		.4byte	wakeup
 2284 0bfd 30       		.uleb128 0x30
 2285 0bfe 01       		.uleb128 0x1
 2286 0bff 51       		.byte	0x51
 2287 0c00 03       		.uleb128 0x3
 2288 0c01 F3       		.byte	0xf3
 2289 0c02 01       		.uleb128 0x1
 2290 0c03 51       		.byte	0x51
 2291 0c04 30       		.uleb128 0x30
 2292 0c05 01       		.uleb128 0x1
 2293 0c06 50       		.byte	0x50
 2294 0c07 02       		.uleb128 0x2
 2295 0c08 91       		.byte	0x91
 2296 0c09 5C       		.sleb128 -36
 2297 0c0a 00       		.byte	0
 2298 0c0b 37       		.uleb128 0x37
 2299 0c0c 1C000000 		.4byte	.LVL30
 2300 0c10 0A0B0000 		.4byte	0xb0a
 2301 0c14 1F0C0000 		.4byte	0xc1f
 2302 0c18 30       		.uleb128 0x30
 2303 0c19 01       		.uleb128 0x1
 2304 0c1a 50       		.byte	0x50
 2305 0c1b 02       		.uleb128 0x2
 2306 0c1c 75       		.byte	0x75
 2307 0c1d 00       		.sleb128 0
 2308 0c1e 00       		.byte	0
 2309 0c1f 2F       		.uleb128 0x2f
 2310 0c20 26000000 		.4byte	.LVL32
 2311 0c24 5B0F0000 		.4byte	0xf5b
 2312 0c28 30       		.uleb128 0x30
 2313 0c29 01       		.uleb128 0x1
 2314 0c2a 50       		.byte	0x50
 2315 0c2b 02       		.uleb128 0x2
 2316 0c2c 91       		.byte	0x91
 2317 0c2d 5C       		.sleb128 -36
 2318 0c2e 00       		.byte	0
 2319 0c2f 00       		.byte	0
 2320 0c30 2D       		.uleb128 0x2d
 2321 0c31 2C000000 		.4byte	.LVL34
 2322 0c35 0A0B0000 		.4byte	0xb0a
 2323 0c39 00       		.byte	0
 2324 0c3a 33       		.uleb128 0x33
 2325 0c3b E8060000 		.4byte	.LASF127
 2326 0c3f 01       		.byte	0x1
 2327 0c40 9C01     		.2byte	0x19c
 2328 0c42 00000000 		.4byte	.LFB296
 2329 0c46 44000000 		.4byte	.LFE296-.LFB296
 2330 0c4a 01       		.uleb128 0x1
 2331 0c4b 9C       		.byte	0x9c
 2332 0c4c D30C0000 		.4byte	0xcd3
 2333 0c50 28       		.uleb128 0x28
ARM GAS  /tmp/ccbMFK8z.s 			page 42


 2334 0c51 6E747000 		.ascii	"ntp\000"
 2335 0c55 01       		.byte	0x1
 2336 0c56 9C01     		.2byte	0x19c
 2337 0c58 32020000 		.4byte	0x232
 2338 0c5c 8E010000 		.4byte	.LLST12
 2339 0c60 28       		.uleb128 0x28
 2340 0c61 6D736700 		.ascii	"msg\000"
 2341 0c65 01       		.byte	0x1
 2342 0c66 9C01     		.2byte	0x19c
 2343 0c68 05010000 		.4byte	0x105
 2344 0c6c DE010000 		.4byte	.LLST13
 2345 0c70 29       		.uleb128 0x29
 2346 0c71 6F747000 		.ascii	"otp\000"
 2347 0c75 01       		.byte	0x1
 2348 0c76 9D01     		.2byte	0x19d
 2349 0c78 32020000 		.4byte	0x232
 2350 0c7c 31020000 		.4byte	.LLST14
 2351 0c80 24       		.uleb128 0x24
 2352 0c81 6E050000 		.4byte	.LASF121
 2353 0c85 E30C0000 		.4byte	0xce3
 2354 0c89 3B       		.uleb128 0x3b
 2355 0c8a 1A000000 		.4byte	.LVL38
 2356 0c8e A0080000 		.4byte	0x8a0
 2357 0c92 9E0C0000 		.4byte	0xc9e
 2358 0c96 30       		.uleb128 0x30
 2359 0c97 01       		.uleb128 0x1
 2360 0c98 50       		.byte	0x50
 2361 0c99 03       		.uleb128 0x3
 2362 0c9a F3       		.byte	0xf3
 2363 0c9b 01       		.uleb128 0x1
 2364 0c9c 50       		.byte	0x50
 2365 0c9d 00       		.byte	0
 2366 0c9e 2D       		.uleb128 0x2d
 2367 0c9f 20000000 		.4byte	.LVL40
 2368 0ca3 A0080000 		.4byte	0x8a0
 2369 0ca7 37       		.uleb128 0x37
 2370 0ca8 32000000 		.4byte	.LVL43
 2371 0cac 0E0F0000 		.4byte	0xf0e
 2372 0cb0 C10C0000 		.4byte	0xcc1
 2373 0cb4 30       		.uleb128 0x30
 2374 0cb5 01       		.uleb128 0x1
 2375 0cb6 51       		.byte	0x51
 2376 0cb7 02       		.uleb128 0x2
 2377 0cb8 75       		.byte	0x75
 2378 0cb9 00       		.sleb128 0
 2379 0cba 30       		.uleb128 0x30
 2380 0cbb 01       		.uleb128 0x1
 2381 0cbc 50       		.byte	0x50
 2382 0cbd 02       		.uleb128 0x2
 2383 0cbe 74       		.byte	0x74
 2384 0cbf 00       		.sleb128 0
 2385 0cc0 00       		.byte	0
 2386 0cc1 3C       		.uleb128 0x3c
 2387 0cc2 3E000000 		.4byte	.LVL45
 2388 0cc6 240F0000 		.4byte	0xf24
 2389 0cca 30       		.uleb128 0x30
 2390 0ccb 01       		.uleb128 0x1
ARM GAS  /tmp/ccbMFK8z.s 			page 43


 2391 0ccc 50       		.byte	0x50
 2392 0ccd 03       		.uleb128 0x3
 2393 0cce F3       		.byte	0xf3
 2394 0ccf 01       		.uleb128 0x1
 2395 0cd0 50       		.byte	0x50
 2396 0cd1 00       		.byte	0
 2397 0cd2 00       		.byte	0
 2398 0cd3 25       		.uleb128 0x25
 2399 0cd4 68070000 		.4byte	0x768
 2400 0cd8 E30C0000 		.4byte	0xce3
 2401 0cdc 26       		.uleb128 0x26
 2402 0cdd 5A040000 		.4byte	0x45a
 2403 0ce1 0C       		.byte	0xc
 2404 0ce2 00       		.byte	0
 2405 0ce3 13       		.uleb128 0x13
 2406 0ce4 D30C0000 		.4byte	0xcd3
 2407 0ce8 31       		.uleb128 0x31
 2408 0ce9 A5010000 		.4byte	.LASF128
 2409 0ced 01       		.byte	0x1
 2410 0cee DF01     		.2byte	0x1df
 2411 0cf0 9C070000 		.4byte	0x79c
 2412 0cf4 00000000 		.4byte	.LFB298
 2413 0cf8 18000000 		.4byte	.LFE298-.LFB298
 2414 0cfc 01       		.uleb128 0x1
 2415 0cfd 9C       		.byte	0x9c
 2416 0cfe 2B0D0000 		.4byte	0xd2b
 2417 0d02 3A       		.uleb128 0x3a
 2418 0d03 703100   		.ascii	"p1\000"
 2419 0d06 01       		.byte	0x1
 2420 0d07 E001     		.2byte	0x1e0
 2421 0d09 FA000000 		.4byte	0xfa
 2422 0d0d 08       		.uleb128 0x8
 2423 0d0e 03       		.byte	0x3
 2424 0d0f 00000000 		.4byte	ch
 2425 0d13 06       		.byte	0x6
 2426 0d14 23       		.byte	0x23
 2427 0d15 08       		.uleb128 0x8
 2428 0d16 3A       		.uleb128 0x3a
 2429 0d17 703200   		.ascii	"p2\000"
 2430 0d1a 01       		.byte	0x1
 2431 0d1b E101     		.2byte	0x1e1
 2432 0d1d FA000000 		.4byte	0xfa
 2433 0d21 08       		.uleb128 0x8
 2434 0d22 03       		.byte	0x3
 2435 0d23 18000000 		.4byte	ch+24
 2436 0d27 06       		.byte	0x6
 2437 0d28 23       		.byte	0x23
 2438 0d29 08       		.uleb128 0x8
 2439 0d2a 00       		.byte	0
 2440 0d2b 33       		.uleb128 0x33
 2441 0d2c 54040000 		.4byte	.LASF129
 2442 0d30 01       		.byte	0x1
 2443 0d31 FB01     		.2byte	0x1fb
 2444 0d33 00000000 		.4byte	.LFB299
 2445 0d37 34000000 		.4byte	.LFE299-.LFB299
 2446 0d3b 01       		.uleb128 0x1
 2447 0d3c 9C       		.byte	0x9c
ARM GAS  /tmp/ccbMFK8z.s 			page 44


 2448 0d3d A80D0000 		.4byte	0xda8
 2449 0d41 29       		.uleb128 0x29
 2450 0d42 6F747000 		.ascii	"otp\000"
 2451 0d46 01       		.byte	0x1
 2452 0d47 FC01     		.2byte	0x1fc
 2453 0d49 32020000 		.4byte	0x232
 2454 0d4d 7B020000 		.4byte	.LLST15
 2455 0d51 3D       		.uleb128 0x3d
 2456 0d52 45080000 		.4byte	0x845
 2457 0d56 04000000 		.4byte	.LBB90
 2458 0d5a 18000000 		.4byte	.Ldebug_ranges0+0x18
 2459 0d5e 01       		.byte	0x1
 2460 0d5f FF01     		.2byte	0x1ff
 2461 0d61 810D0000 		.4byte	0xd81
 2462 0d65 20       		.uleb128 0x20
 2463 0d66 56080000 		.4byte	0x856
 2464 0d6a 06       		.uleb128 0x6
 2465 0d6b 03       		.byte	0x3
 2466 0d6c 00000000 		.4byte	ch
 2467 0d70 9F       		.byte	0x9f
 2468 0d71 3E       		.uleb128 0x3e
 2469 0d72 18000000 		.4byte	.Ldebug_ranges0+0x18
 2470 0d76 36       		.uleb128 0x36
 2471 0d77 62080000 		.4byte	0x862
 2472 0d7b BA020000 		.4byte	.LLST16
 2473 0d7f 00       		.byte	0
 2474 0d80 00       		.byte	0
 2475 0d81 2D       		.uleb128 0x2d
 2476 0d82 1A000000 		.4byte	.LVL48
 2477 0d86 A0080000 		.4byte	0x8a0
 2478 0d8a 37       		.uleb128 0x37
 2479 0d8b 24000000 		.4byte	.LVL51
 2480 0d8f 0E0F0000 		.4byte	0xf0e
 2481 0d93 9E0D0000 		.4byte	0xd9e
 2482 0d97 30       		.uleb128 0x30
 2483 0d98 01       		.uleb128 0x1
 2484 0d99 51       		.byte	0x51
 2485 0d9a 02       		.uleb128 0x2
 2486 0d9b 75       		.byte	0x75
 2487 0d9c 00       		.sleb128 0
 2488 0d9d 00       		.byte	0
 2489 0d9e 38       		.uleb128 0x38
 2490 0d9f 30000000 		.4byte	.LVL53
 2491 0da3 240F0000 		.4byte	0xf24
 2492 0da7 00       		.byte	0
 2493 0da8 33       		.uleb128 0x33
 2494 0da9 29000000 		.4byte	.LASF130
 2495 0dad 01       		.byte	0x1
 2496 0dae 1C02     		.2byte	0x21c
 2497 0db0 00000000 		.4byte	.LFB300
 2498 0db4 34000000 		.4byte	.LFE300-.LFB300
 2499 0db8 01       		.uleb128 0x1
 2500 0db9 9C       		.byte	0x9c
 2501 0dba 250E0000 		.4byte	0xe25
 2502 0dbe 29       		.uleb128 0x29
 2503 0dbf 6F747000 		.ascii	"otp\000"
 2504 0dc3 01       		.byte	0x1
ARM GAS  /tmp/ccbMFK8z.s 			page 45


 2505 0dc4 1D02     		.2byte	0x21d
 2506 0dc6 32020000 		.4byte	0x232
 2507 0dca CD020000 		.4byte	.LLST17
 2508 0dce 3D       		.uleb128 0x3d
 2509 0dcf 45080000 		.4byte	0x845
 2510 0dd3 04000000 		.4byte	.LBB94
 2511 0dd7 30000000 		.4byte	.Ldebug_ranges0+0x30
 2512 0ddb 01       		.byte	0x1
 2513 0ddc 2002     		.2byte	0x220
 2514 0dde FE0D0000 		.4byte	0xdfe
 2515 0de2 20       		.uleb128 0x20
 2516 0de3 56080000 		.4byte	0x856
 2517 0de7 06       		.uleb128 0x6
 2518 0de8 03       		.byte	0x3
 2519 0de9 00000000 		.4byte	ch
 2520 0ded 9F       		.byte	0x9f
 2521 0dee 3E       		.uleb128 0x3e
 2522 0def 30000000 		.4byte	.Ldebug_ranges0+0x30
 2523 0df3 36       		.uleb128 0x36
 2524 0df4 62080000 		.4byte	0x862
 2525 0df8 0C030000 		.4byte	.LLST18
 2526 0dfc 00       		.byte	0
 2527 0dfd 00       		.byte	0
 2528 0dfe 2D       		.uleb128 0x2d
 2529 0dff 1A000000 		.4byte	.LVL55
 2530 0e03 B50A0000 		.4byte	0xab5
 2531 0e07 37       		.uleb128 0x37
 2532 0e08 24000000 		.4byte	.LVL58
 2533 0e0c 0E0F0000 		.4byte	0xf0e
 2534 0e10 1B0E0000 		.4byte	0xe1b
 2535 0e14 30       		.uleb128 0x30
 2536 0e15 01       		.uleb128 0x1
 2537 0e16 51       		.byte	0x51
 2538 0e17 02       		.uleb128 0x2
 2539 0e18 75       		.byte	0x75
 2540 0e19 00       		.sleb128 0
 2541 0e1a 00       		.byte	0
 2542 0e1b 38       		.uleb128 0x38
 2543 0e1c 30000000 		.4byte	.LVL60
 2544 0e20 240F0000 		.4byte	0xf24
 2545 0e24 00       		.byte	0
 2546 0e25 3F       		.uleb128 0x3f
 2547 0e26 65070000 		.4byte	.LASF143
 2548 0e2a 02       		.byte	0x2
 2549 0e2b 8402     		.2byte	0x284
 2550 0e2d 9C070000 		.4byte	0x79c
 2551 0e31 03       		.byte	0x3
 2552 0e32 33       		.uleb128 0x33
 2553 0e33 BF010000 		.4byte	.LASF131
 2554 0e37 01       		.byte	0x1
 2555 0e38 C801     		.2byte	0x1c8
 2556 0e3a 00000000 		.4byte	.LFB297
 2557 0e3e 18000000 		.4byte	.LFE297-.LFB297
 2558 0e42 01       		.uleb128 0x1
 2559 0e43 9C       		.byte	0x9c
 2560 0e44 620E0000 		.4byte	0xe62
 2561 0e48 40       		.uleb128 0x40
ARM GAS  /tmp/ccbMFK8z.s 			page 46


 2562 0e49 250E0000 		.4byte	0xe25
 2563 0e4d 00000000 		.4byte	.LBB100
 2564 0e51 06000000 		.4byte	.LBE100-.LBB100
 2565 0e55 01       		.byte	0x1
 2566 0e56 CC01     		.2byte	0x1cc
 2567 0e58 38       		.uleb128 0x38
 2568 0e59 12000000 		.4byte	.LVL61
 2569 0e5d A80D0000 		.4byte	0xda8
 2570 0e61 00       		.byte	0
 2571 0e62 33       		.uleb128 0x33
 2572 0e63 E4010000 		.4byte	.LASF132
 2573 0e67 01       		.byte	0x1
 2574 0e68 3A02     		.2byte	0x23a
 2575 0e6a 00000000 		.4byte	.LFB301
 2576 0e6e 34000000 		.4byte	.LFE301-.LFB301
 2577 0e72 01       		.uleb128 0x1
 2578 0e73 9C       		.byte	0x9c
 2579 0e74 DF0E0000 		.4byte	0xedf
 2580 0e78 29       		.uleb128 0x29
 2581 0e79 6F747000 		.ascii	"otp\000"
 2582 0e7d 01       		.byte	0x1
 2583 0e7e 3B02     		.2byte	0x23b
 2584 0e80 32020000 		.4byte	0x232
 2585 0e84 1F030000 		.4byte	.LLST19
 2586 0e88 3D       		.uleb128 0x3d
 2587 0e89 45080000 		.4byte	0x845
 2588 0e8d 04000000 		.4byte	.LBB102
 2589 0e91 48000000 		.4byte	.Ldebug_ranges0+0x48
 2590 0e95 01       		.byte	0x1
 2591 0e96 3E02     		.2byte	0x23e
 2592 0e98 B80E0000 		.4byte	0xeb8
 2593 0e9c 20       		.uleb128 0x20
 2594 0e9d 56080000 		.4byte	0x856
 2595 0ea1 06       		.uleb128 0x6
 2596 0ea2 03       		.byte	0x3
 2597 0ea3 00000000 		.4byte	ch
 2598 0ea7 9F       		.byte	0x9f
 2599 0ea8 3E       		.uleb128 0x3e
 2600 0ea9 48000000 		.4byte	.Ldebug_ranges0+0x48
 2601 0ead 36       		.uleb128 0x36
 2602 0eae 62080000 		.4byte	0x862
 2603 0eb2 5E030000 		.4byte	.LLST20
 2604 0eb6 00       		.byte	0
 2605 0eb7 00       		.byte	0
 2606 0eb8 2D       		.uleb128 0x2d
 2607 0eb9 1A000000 		.4byte	.LVL63
 2608 0ebd B50A0000 		.4byte	0xab5
 2609 0ec1 37       		.uleb128 0x37
 2610 0ec2 24000000 		.4byte	.LVL66
 2611 0ec6 0E0F0000 		.4byte	0xf0e
 2612 0eca D50E0000 		.4byte	0xed5
 2613 0ece 30       		.uleb128 0x30
 2614 0ecf 01       		.uleb128 0x1
 2615 0ed0 51       		.byte	0x51
 2616 0ed1 02       		.uleb128 0x2
 2617 0ed2 75       		.byte	0x75
 2618 0ed3 00       		.sleb128 0
ARM GAS  /tmp/ccbMFK8z.s 			page 47


 2619 0ed4 00       		.byte	0
 2620 0ed5 38       		.uleb128 0x38
 2621 0ed6 30000000 		.4byte	.LVL68
 2622 0eda 240F0000 		.4byte	0xf24
 2623 0ede 00       		.byte	0
 2624 0edf 41       		.uleb128 0x41
 2625 0ee0 0B010000 		.4byte	.LASF133
 2626 0ee4 11       		.byte	0x11
 2627 0ee5 0408     		.2byte	0x804
 2628 0ee7 EB0E0000 		.4byte	0xeeb
 2629 0eeb 14       		.uleb128 0x14
 2630 0eec A2000000 		.4byte	0xa2
 2631 0ef0 42       		.uleb128 0x42
 2632 0ef1 636800   		.ascii	"ch\000"
 2633 0ef4 01       		.byte	0x1
 2634 0ef5 2A       		.byte	0x2a
 2635 0ef6 DE030000 		.4byte	0x3de
 2636 0efa 05       		.uleb128 0x5
 2637 0efb 03       		.byte	0x3
 2638 0efc 00000000 		.4byte	ch
 2639 0f00 43       		.uleb128 0x43
 2640 0f01 8F040000 		.4byte	.LASF134
 2641 0f05 0E       		.byte	0xe
 2642 0f06 51       		.byte	0x51
 2643 0f07 43       		.uleb128 0x43
 2644 0f08 7A070000 		.4byte	.LASF135
 2645 0f0c 0E       		.byte	0xe
 2646 0f0d 52       		.byte	0x52
 2647 0f0e 44       		.uleb128 0x44
 2648 0f0f 22070000 		.4byte	.LASF136
 2649 0f13 0E       		.byte	0xe
 2650 0f14 4E       		.byte	0x4e
 2651 0f15 240F0000 		.4byte	0xf24
 2652 0f19 0D       		.uleb128 0xd
 2653 0f1a 32020000 		.4byte	0x232
 2654 0f1e 0D       		.uleb128 0xd
 2655 0f1f 32020000 		.4byte	0x232
 2656 0f23 00       		.byte	0
 2657 0f24 45       		.uleb128 0x45
 2658 0f25 45020000 		.4byte	.LASF137
 2659 0f29 0C       		.byte	0xc
 2660 0f2a F301     		.2byte	0x1f3
 2661 0f2c 3B0F0000 		.4byte	0xf3b
 2662 0f30 0D       		.uleb128 0xd
 2663 0f31 32020000 		.4byte	0x232
 2664 0f35 0D       		.uleb128 0xd
 2665 0f36 32020000 		.4byte	0x232
 2666 0f3a 00       		.byte	0
 2667 0f3b 44       		.uleb128 0x44
 2668 0f3c D3030000 		.4byte	.LASF138
 2669 0f40 10       		.byte	0x10
 2670 0f41 4B       		.byte	0x4b
 2671 0f42 5B0F0000 		.4byte	0xf5b
 2672 0f46 0D       		.uleb128 0xd
 2673 0f47 75070000 		.4byte	0x775
 2674 0f4b 0D       		.uleb128 0xd
 2675 0f4c 4F040000 		.4byte	0x44f
ARM GAS  /tmp/ccbMFK8z.s 			page 48


 2676 0f50 0D       		.uleb128 0xd
 2677 0f51 F3020000 		.4byte	0x2f3
 2678 0f55 0D       		.uleb128 0xd
 2679 0f56 0F030000 		.4byte	0x30f
 2680 0f5a 00       		.byte	0
 2681 0f5b 46       		.uleb128 0x46
 2682 0f5c CC000000 		.4byte	.LASF144
 2683 0f60 10       		.byte	0x10
 2684 0f61 4D       		.byte	0x4d
 2685 0f62 0D       		.uleb128 0xd
 2686 0f63 75070000 		.4byte	0x775
 2687 0f67 00       		.byte	0
 2688 0f68 00       		.byte	0
 2689              		.section	.debug_abbrev,"",%progbits
 2690              	.Ldebug_abbrev0:
 2691 0000 01       		.uleb128 0x1
 2692 0001 11       		.uleb128 0x11
 2693 0002 01       		.byte	0x1
 2694 0003 25       		.uleb128 0x25
 2695 0004 0E       		.uleb128 0xe
 2696 0005 13       		.uleb128 0x13
 2697 0006 0B       		.uleb128 0xb
 2698 0007 03       		.uleb128 0x3
 2699 0008 0E       		.uleb128 0xe
 2700 0009 1B       		.uleb128 0x1b
 2701 000a 0E       		.uleb128 0xe
 2702 000b 55       		.uleb128 0x55
 2703 000c 17       		.uleb128 0x17
 2704 000d 11       		.uleb128 0x11
 2705 000e 01       		.uleb128 0x1
 2706 000f 10       		.uleb128 0x10
 2707 0010 17       		.uleb128 0x17
 2708 0011 00       		.byte	0
 2709 0012 00       		.byte	0
 2710 0013 02       		.uleb128 0x2
 2711 0014 24       		.uleb128 0x24
 2712 0015 00       		.byte	0
 2713 0016 0B       		.uleb128 0xb
 2714 0017 0B       		.uleb128 0xb
 2715 0018 3E       		.uleb128 0x3e
 2716 0019 0B       		.uleb128 0xb
 2717 001a 03       		.uleb128 0x3
 2718 001b 08       		.uleb128 0x8
 2719 001c 00       		.byte	0
 2720 001d 00       		.byte	0
 2721 001e 03       		.uleb128 0x3
 2722 001f 24       		.uleb128 0x24
 2723 0020 00       		.byte	0
 2724 0021 0B       		.uleb128 0xb
 2725 0022 0B       		.uleb128 0xb
 2726 0023 3E       		.uleb128 0x3e
 2727 0024 0B       		.uleb128 0xb
 2728 0025 03       		.uleb128 0x3
 2729 0026 0E       		.uleb128 0xe
 2730 0027 00       		.byte	0
 2731 0028 00       		.byte	0
 2732 0029 04       		.uleb128 0x4
ARM GAS  /tmp/ccbMFK8z.s 			page 49


 2733 002a 16       		.uleb128 0x16
 2734 002b 00       		.byte	0
 2735 002c 03       		.uleb128 0x3
 2736 002d 0E       		.uleb128 0xe
 2737 002e 3A       		.uleb128 0x3a
 2738 002f 0B       		.uleb128 0xb
 2739 0030 3B       		.uleb128 0x3b
 2740 0031 0B       		.uleb128 0xb
 2741 0032 49       		.uleb128 0x49
 2742 0033 13       		.uleb128 0x13
 2743 0034 00       		.byte	0
 2744 0035 00       		.byte	0
 2745 0036 05       		.uleb128 0x5
 2746 0037 13       		.uleb128 0x13
 2747 0038 01       		.byte	0x1
 2748 0039 03       		.uleb128 0x3
 2749 003a 0E       		.uleb128 0xe
 2750 003b 0B       		.uleb128 0xb
 2751 003c 0B       		.uleb128 0xb
 2752 003d 3A       		.uleb128 0x3a
 2753 003e 0B       		.uleb128 0xb
 2754 003f 3B       		.uleb128 0x3b
 2755 0040 0B       		.uleb128 0xb
 2756 0041 01       		.uleb128 0x1
 2757 0042 13       		.uleb128 0x13
 2758 0043 00       		.byte	0
 2759 0044 00       		.byte	0
 2760 0045 06       		.uleb128 0x6
 2761 0046 0D       		.uleb128 0xd
 2762 0047 00       		.byte	0
 2763 0048 03       		.uleb128 0x3
 2764 0049 0E       		.uleb128 0xe
 2765 004a 3A       		.uleb128 0x3a
 2766 004b 0B       		.uleb128 0xb
 2767 004c 3B       		.uleb128 0x3b
 2768 004d 0B       		.uleb128 0xb
 2769 004e 49       		.uleb128 0x49
 2770 004f 13       		.uleb128 0x13
 2771 0050 38       		.uleb128 0x38
 2772 0051 0B       		.uleb128 0xb
 2773 0052 00       		.byte	0
 2774 0053 00       		.byte	0
 2775 0054 07       		.uleb128 0x7
 2776 0055 0D       		.uleb128 0xd
 2777 0056 00       		.byte	0
 2778 0057 03       		.uleb128 0x3
 2779 0058 08       		.uleb128 0x8
 2780 0059 3A       		.uleb128 0x3a
 2781 005a 0B       		.uleb128 0xb
 2782 005b 3B       		.uleb128 0x3b
 2783 005c 0B       		.uleb128 0xb
 2784 005d 49       		.uleb128 0x49
 2785 005e 13       		.uleb128 0x13
 2786 005f 38       		.uleb128 0x38
 2787 0060 0B       		.uleb128 0xb
 2788 0061 00       		.byte	0
 2789 0062 00       		.byte	0
ARM GAS  /tmp/ccbMFK8z.s 			page 50


 2790 0063 08       		.uleb128 0x8
 2791 0064 0D       		.uleb128 0xd
 2792 0065 00       		.byte	0
 2793 0066 03       		.uleb128 0x3
 2794 0067 08       		.uleb128 0x8
 2795 0068 3A       		.uleb128 0x3a
 2796 0069 0B       		.uleb128 0xb
 2797 006a 3B       		.uleb128 0x3b
 2798 006b 05       		.uleb128 0x5
 2799 006c 49       		.uleb128 0x49
 2800 006d 13       		.uleb128 0x13
 2801 006e 38       		.uleb128 0x38
 2802 006f 0B       		.uleb128 0xb
 2803 0070 00       		.byte	0
 2804 0071 00       		.byte	0
 2805 0072 09       		.uleb128 0x9
 2806 0073 0D       		.uleb128 0xd
 2807 0074 00       		.byte	0
 2808 0075 03       		.uleb128 0x3
 2809 0076 0E       		.uleb128 0xe
 2810 0077 3A       		.uleb128 0x3a
 2811 0078 0B       		.uleb128 0xb
 2812 0079 3B       		.uleb128 0x3b
 2813 007a 05       		.uleb128 0x5
 2814 007b 49       		.uleb128 0x49
 2815 007c 13       		.uleb128 0x13
 2816 007d 38       		.uleb128 0x38
 2817 007e 0B       		.uleb128 0xb
 2818 007f 00       		.byte	0
 2819 0080 00       		.byte	0
 2820 0081 0A       		.uleb128 0xa
 2821 0082 0F       		.uleb128 0xf
 2822 0083 00       		.byte	0
 2823 0084 0B       		.uleb128 0xb
 2824 0085 0B       		.uleb128 0xb
 2825 0086 49       		.uleb128 0x49
 2826 0087 13       		.uleb128 0x13
 2827 0088 00       		.byte	0
 2828 0089 00       		.byte	0
 2829 008a 0B       		.uleb128 0xb
 2830 008b 13       		.uleb128 0x13
 2831 008c 01       		.byte	0x1
 2832 008d 03       		.uleb128 0x3
 2833 008e 0E       		.uleb128 0xe
 2834 008f 0B       		.uleb128 0xb
 2835 0090 0B       		.uleb128 0xb
 2836 0091 3A       		.uleb128 0x3a
 2837 0092 0B       		.uleb128 0xb
 2838 0093 3B       		.uleb128 0x3b
 2839 0094 05       		.uleb128 0x5
 2840 0095 01       		.uleb128 0x1
 2841 0096 13       		.uleb128 0x13
 2842 0097 00       		.byte	0
 2843 0098 00       		.byte	0
 2844 0099 0C       		.uleb128 0xc
 2845 009a 15       		.uleb128 0x15
 2846 009b 01       		.byte	0x1
ARM GAS  /tmp/ccbMFK8z.s 			page 51


 2847 009c 27       		.uleb128 0x27
 2848 009d 19       		.uleb128 0x19
 2849 009e 01       		.uleb128 0x1
 2850 009f 13       		.uleb128 0x13
 2851 00a0 00       		.byte	0
 2852 00a1 00       		.byte	0
 2853 00a2 0D       		.uleb128 0xd
 2854 00a3 05       		.uleb128 0x5
 2855 00a4 00       		.byte	0
 2856 00a5 49       		.uleb128 0x49
 2857 00a6 13       		.uleb128 0x13
 2858 00a7 00       		.byte	0
 2859 00a8 00       		.byte	0
 2860 00a9 0E       		.uleb128 0xe
 2861 00aa 0F       		.uleb128 0xf
 2862 00ab 00       		.byte	0
 2863 00ac 0B       		.uleb128 0xb
 2864 00ad 0B       		.uleb128 0xb
 2865 00ae 00       		.byte	0
 2866 00af 00       		.byte	0
 2867 00b0 0F       		.uleb128 0xf
 2868 00b1 13       		.uleb128 0x13
 2869 00b2 01       		.byte	0x1
 2870 00b3 0B       		.uleb128 0xb
 2871 00b4 0B       		.uleb128 0xb
 2872 00b5 3A       		.uleb128 0x3a
 2873 00b6 0B       		.uleb128 0xb
 2874 00b7 3B       		.uleb128 0x3b
 2875 00b8 0B       		.uleb128 0xb
 2876 00b9 01       		.uleb128 0x1
 2877 00ba 13       		.uleb128 0x13
 2878 00bb 00       		.byte	0
 2879 00bc 00       		.byte	0
 2880 00bd 10       		.uleb128 0x10
 2881 00be 17       		.uleb128 0x17
 2882 00bf 01       		.byte	0x1
 2883 00c0 0B       		.uleb128 0xb
 2884 00c1 0B       		.uleb128 0xb
 2885 00c2 3A       		.uleb128 0x3a
 2886 00c3 0B       		.uleb128 0xb
 2887 00c4 3B       		.uleb128 0x3b
 2888 00c5 0B       		.uleb128 0xb
 2889 00c6 01       		.uleb128 0x1
 2890 00c7 13       		.uleb128 0x13
 2891 00c8 00       		.byte	0
 2892 00c9 00       		.byte	0
 2893 00ca 11       		.uleb128 0x11
 2894 00cb 0D       		.uleb128 0xd
 2895 00cc 00       		.byte	0
 2896 00cd 03       		.uleb128 0x3
 2897 00ce 0E       		.uleb128 0xe
 2898 00cf 3A       		.uleb128 0x3a
 2899 00d0 0B       		.uleb128 0xb
 2900 00d1 3B       		.uleb128 0x3b
 2901 00d2 0B       		.uleb128 0xb
 2902 00d3 49       		.uleb128 0x49
 2903 00d4 13       		.uleb128 0x13
ARM GAS  /tmp/ccbMFK8z.s 			page 52


 2904 00d5 00       		.byte	0
 2905 00d6 00       		.byte	0
 2906 00d7 12       		.uleb128 0x12
 2907 00d8 0D       		.uleb128 0xd
 2908 00d9 00       		.byte	0
 2909 00da 03       		.uleb128 0x3
 2910 00db 0E       		.uleb128 0xe
 2911 00dc 3A       		.uleb128 0x3a
 2912 00dd 0B       		.uleb128 0xb
 2913 00de 3B       		.uleb128 0x3b
 2914 00df 05       		.uleb128 0x5
 2915 00e0 49       		.uleb128 0x49
 2916 00e1 13       		.uleb128 0x13
 2917 00e2 00       		.byte	0
 2918 00e3 00       		.byte	0
 2919 00e4 13       		.uleb128 0x13
 2920 00e5 26       		.uleb128 0x26
 2921 00e6 00       		.byte	0
 2922 00e7 49       		.uleb128 0x49
 2923 00e8 13       		.uleb128 0x13
 2924 00e9 00       		.byte	0
 2925 00ea 00       		.byte	0
 2926 00eb 14       		.uleb128 0x14
 2927 00ec 35       		.uleb128 0x35
 2928 00ed 00       		.byte	0
 2929 00ee 49       		.uleb128 0x49
 2930 00ef 13       		.uleb128 0x13
 2931 00f0 00       		.byte	0
 2932 00f1 00       		.byte	0
 2933 00f2 15       		.uleb128 0x15
 2934 00f3 2E       		.uleb128 0x2e
 2935 00f4 01       		.byte	0x1
 2936 00f5 03       		.uleb128 0x3
 2937 00f6 0E       		.uleb128 0xe
 2938 00f7 3A       		.uleb128 0x3a
 2939 00f8 0B       		.uleb128 0xb
 2940 00f9 3B       		.uleb128 0x3b
 2941 00fa 05       		.uleb128 0x5
 2942 00fb 27       		.uleb128 0x27
 2943 00fc 19       		.uleb128 0x19
 2944 00fd 20       		.uleb128 0x20
 2945 00fe 0B       		.uleb128 0xb
 2946 00ff 01       		.uleb128 0x1
 2947 0100 13       		.uleb128 0x13
 2948 0101 00       		.byte	0
 2949 0102 00       		.byte	0
 2950 0103 16       		.uleb128 0x16
 2951 0104 05       		.uleb128 0x5
 2952 0105 00       		.byte	0
 2953 0106 03       		.uleb128 0x3
 2954 0107 0E       		.uleb128 0xe
 2955 0108 3A       		.uleb128 0x3a
 2956 0109 0B       		.uleb128 0xb
 2957 010a 3B       		.uleb128 0x3b
 2958 010b 05       		.uleb128 0x5
 2959 010c 49       		.uleb128 0x49
 2960 010d 13       		.uleb128 0x13
ARM GAS  /tmp/ccbMFK8z.s 			page 53


 2961 010e 00       		.byte	0
 2962 010f 00       		.byte	0
 2963 0110 17       		.uleb128 0x17
 2964 0111 2E       		.uleb128 0x2e
 2965 0112 00       		.byte	0
 2966 0113 03       		.uleb128 0x3
 2967 0114 0E       		.uleb128 0xe
 2968 0115 3A       		.uleb128 0x3a
 2969 0116 0B       		.uleb128 0xb
 2970 0117 3B       		.uleb128 0x3b
 2971 0118 05       		.uleb128 0x5
 2972 0119 27       		.uleb128 0x27
 2973 011a 19       		.uleb128 0x19
 2974 011b 20       		.uleb128 0x20
 2975 011c 0B       		.uleb128 0xb
 2976 011d 00       		.byte	0
 2977 011e 00       		.byte	0
 2978 011f 18       		.uleb128 0x18
 2979 0120 2E       		.uleb128 0x2e
 2980 0121 01       		.byte	0x1
 2981 0122 03       		.uleb128 0x3
 2982 0123 0E       		.uleb128 0xe
 2983 0124 3A       		.uleb128 0x3a
 2984 0125 0B       		.uleb128 0xb
 2985 0126 3B       		.uleb128 0x3b
 2986 0127 0B       		.uleb128 0xb
 2987 0128 27       		.uleb128 0x27
 2988 0129 19       		.uleb128 0x19
 2989 012a 49       		.uleb128 0x49
 2990 012b 13       		.uleb128 0x13
 2991 012c 20       		.uleb128 0x20
 2992 012d 0B       		.uleb128 0xb
 2993 012e 01       		.uleb128 0x1
 2994 012f 13       		.uleb128 0x13
 2995 0130 00       		.byte	0
 2996 0131 00       		.byte	0
 2997 0132 19       		.uleb128 0x19
 2998 0133 05       		.uleb128 0x5
 2999 0134 00       		.byte	0
 3000 0135 03       		.uleb128 0x3
 3001 0136 08       		.uleb128 0x8
 3002 0137 3A       		.uleb128 0x3a
 3003 0138 0B       		.uleb128 0xb
 3004 0139 3B       		.uleb128 0x3b
 3005 013a 0B       		.uleb128 0xb
 3006 013b 49       		.uleb128 0x49
 3007 013c 13       		.uleb128 0x13
 3008 013d 00       		.byte	0
 3009 013e 00       		.byte	0
 3010 013f 1A       		.uleb128 0x1a
 3011 0140 2E       		.uleb128 0x2e
 3012 0141 01       		.byte	0x1
 3013 0142 03       		.uleb128 0x3
 3014 0143 0E       		.uleb128 0xe
 3015 0144 3A       		.uleb128 0x3a
 3016 0145 0B       		.uleb128 0xb
 3017 0146 3B       		.uleb128 0x3b
ARM GAS  /tmp/ccbMFK8z.s 			page 54


 3018 0147 0B       		.uleb128 0xb
 3019 0148 27       		.uleb128 0x27
 3020 0149 19       		.uleb128 0x19
 3021 014a 20       		.uleb128 0x20
 3022 014b 0B       		.uleb128 0xb
 3023 014c 01       		.uleb128 0x1
 3024 014d 13       		.uleb128 0x13
 3025 014e 00       		.byte	0
 3026 014f 00       		.byte	0
 3027 0150 1B       		.uleb128 0x1b
 3028 0151 05       		.uleb128 0x5
 3029 0152 00       		.byte	0
 3030 0153 03       		.uleb128 0x3
 3031 0154 08       		.uleb128 0x8
 3032 0155 3A       		.uleb128 0x3a
 3033 0156 0B       		.uleb128 0xb
 3034 0157 3B       		.uleb128 0x3b
 3035 0158 05       		.uleb128 0x5
 3036 0159 49       		.uleb128 0x49
 3037 015a 13       		.uleb128 0x13
 3038 015b 00       		.byte	0
 3039 015c 00       		.byte	0
 3040 015d 1C       		.uleb128 0x1c
 3041 015e 2E       		.uleb128 0x2e
 3042 015f 01       		.byte	0x1
 3043 0160 03       		.uleb128 0x3
 3044 0161 0E       		.uleb128 0xe
 3045 0162 3A       		.uleb128 0x3a
 3046 0163 0B       		.uleb128 0xb
 3047 0164 3B       		.uleb128 0x3b
 3048 0165 05       		.uleb128 0x5
 3049 0166 27       		.uleb128 0x27
 3050 0167 19       		.uleb128 0x19
 3051 0168 49       		.uleb128 0x49
 3052 0169 13       		.uleb128 0x13
 3053 016a 20       		.uleb128 0x20
 3054 016b 0B       		.uleb128 0xb
 3055 016c 01       		.uleb128 0x1
 3056 016d 13       		.uleb128 0x13
 3057 016e 00       		.byte	0
 3058 016f 00       		.byte	0
 3059 0170 1D       		.uleb128 0x1d
 3060 0171 34       		.uleb128 0x34
 3061 0172 00       		.byte	0
 3062 0173 03       		.uleb128 0x3
 3063 0174 08       		.uleb128 0x8
 3064 0175 3A       		.uleb128 0x3a
 3065 0176 0B       		.uleb128 0xb
 3066 0177 3B       		.uleb128 0x3b
 3067 0178 05       		.uleb128 0x5
 3068 0179 49       		.uleb128 0x49
 3069 017a 13       		.uleb128 0x13
 3070 017b 00       		.byte	0
 3071 017c 00       		.byte	0
 3072 017d 1E       		.uleb128 0x1e
 3073 017e 2E       		.uleb128 0x2e
 3074 017f 01       		.byte	0x1
ARM GAS  /tmp/ccbMFK8z.s 			page 55


 3075 0180 3F       		.uleb128 0x3f
 3076 0181 19       		.uleb128 0x19
 3077 0182 03       		.uleb128 0x3
 3078 0183 0E       		.uleb128 0xe
 3079 0184 3A       		.uleb128 0x3a
 3080 0185 0B       		.uleb128 0xb
 3081 0186 3B       		.uleb128 0x3b
 3082 0187 0B       		.uleb128 0xb
 3083 0188 27       		.uleb128 0x27
 3084 0189 19       		.uleb128 0x19
 3085 018a 11       		.uleb128 0x11
 3086 018b 01       		.uleb128 0x1
 3087 018c 12       		.uleb128 0x12
 3088 018d 06       		.uleb128 0x6
 3089 018e 40       		.uleb128 0x40
 3090 018f 18       		.uleb128 0x18
 3091 0190 9742     		.uleb128 0x2117
 3092 0192 19       		.uleb128 0x19
 3093 0193 01       		.uleb128 0x1
 3094 0194 13       		.uleb128 0x13
 3095 0195 00       		.byte	0
 3096 0196 00       		.byte	0
 3097 0197 1F       		.uleb128 0x1f
 3098 0198 1D       		.uleb128 0x1d
 3099 0199 01       		.byte	0x1
 3100 019a 31       		.uleb128 0x31
 3101 019b 13       		.uleb128 0x13
 3102 019c 52       		.uleb128 0x52
 3103 019d 01       		.uleb128 0x1
 3104 019e 55       		.uleb128 0x55
 3105 019f 17       		.uleb128 0x17
 3106 01a0 58       		.uleb128 0x58
 3107 01a1 0B       		.uleb128 0xb
 3108 01a2 59       		.uleb128 0x59
 3109 01a3 0B       		.uleb128 0xb
 3110 01a4 00       		.byte	0
 3111 01a5 00       		.byte	0
 3112 01a6 20       		.uleb128 0x20
 3113 01a7 05       		.uleb128 0x5
 3114 01a8 00       		.byte	0
 3115 01a9 31       		.uleb128 0x31
 3116 01aa 13       		.uleb128 0x13
 3117 01ab 02       		.uleb128 0x2
 3118 01ac 18       		.uleb128 0x18
 3119 01ad 00       		.byte	0
 3120 01ae 00       		.byte	0
 3121 01af 21       		.uleb128 0x21
 3122 01b0 2E       		.uleb128 0x2e
 3123 01b1 01       		.byte	0x1
 3124 01b2 3F       		.uleb128 0x3f
 3125 01b3 19       		.uleb128 0x19
 3126 01b4 03       		.uleb128 0x3
 3127 01b5 0E       		.uleb128 0xe
 3128 01b6 3A       		.uleb128 0x3a
 3129 01b7 0B       		.uleb128 0xb
 3130 01b8 3B       		.uleb128 0x3b
 3131 01b9 0B       		.uleb128 0xb
ARM GAS  /tmp/ccbMFK8z.s 			page 56


 3132 01ba 27       		.uleb128 0x27
 3133 01bb 19       		.uleb128 0x19
 3134 01bc 49       		.uleb128 0x49
 3135 01bd 13       		.uleb128 0x13
 3136 01be 11       		.uleb128 0x11
 3137 01bf 01       		.uleb128 0x1
 3138 01c0 12       		.uleb128 0x12
 3139 01c1 06       		.uleb128 0x6
 3140 01c2 40       		.uleb128 0x40
 3141 01c3 18       		.uleb128 0x18
 3142 01c4 9742     		.uleb128 0x2117
 3143 01c6 19       		.uleb128 0x19
 3144 01c7 01       		.uleb128 0x1
 3145 01c8 13       		.uleb128 0x13
 3146 01c9 00       		.byte	0
 3147 01ca 00       		.byte	0
 3148 01cb 22       		.uleb128 0x22
 3149 01cc 05       		.uleb128 0x5
 3150 01cd 00       		.byte	0
 3151 01ce 03       		.uleb128 0x3
 3152 01cf 08       		.uleb128 0x8
 3153 01d0 3A       		.uleb128 0x3a
 3154 01d1 0B       		.uleb128 0xb
 3155 01d2 3B       		.uleb128 0x3b
 3156 01d3 0B       		.uleb128 0xb
 3157 01d4 49       		.uleb128 0x49
 3158 01d5 13       		.uleb128 0x13
 3159 01d6 02       		.uleb128 0x2
 3160 01d7 18       		.uleb128 0x18
 3161 01d8 00       		.byte	0
 3162 01d9 00       		.byte	0
 3163 01da 23       		.uleb128 0x23
 3164 01db 34       		.uleb128 0x34
 3165 01dc 00       		.byte	0
 3166 01dd 03       		.uleb128 0x3
 3167 01de 08       		.uleb128 0x8
 3168 01df 3A       		.uleb128 0x3a
 3169 01e0 0B       		.uleb128 0xb
 3170 01e1 3B       		.uleb128 0x3b
 3171 01e2 0B       		.uleb128 0xb
 3172 01e3 49       		.uleb128 0x49
 3173 01e4 13       		.uleb128 0x13
 3174 01e5 02       		.uleb128 0x2
 3175 01e6 17       		.uleb128 0x17
 3176 01e7 00       		.byte	0
 3177 01e8 00       		.byte	0
 3178 01e9 24       		.uleb128 0x24
 3179 01ea 34       		.uleb128 0x34
 3180 01eb 00       		.byte	0
 3181 01ec 03       		.uleb128 0x3
 3182 01ed 0E       		.uleb128 0xe
 3183 01ee 49       		.uleb128 0x49
 3184 01ef 13       		.uleb128 0x13
 3185 01f0 34       		.uleb128 0x34
 3186 01f1 19       		.uleb128 0x19
 3187 01f2 00       		.byte	0
 3188 01f3 00       		.byte	0
ARM GAS  /tmp/ccbMFK8z.s 			page 57


 3189 01f4 25       		.uleb128 0x25
 3190 01f5 01       		.uleb128 0x1
 3191 01f6 01       		.byte	0x1
 3192 01f7 49       		.uleb128 0x49
 3193 01f8 13       		.uleb128 0x13
 3194 01f9 01       		.uleb128 0x1
 3195 01fa 13       		.uleb128 0x13
 3196 01fb 00       		.byte	0
 3197 01fc 00       		.byte	0
 3198 01fd 26       		.uleb128 0x26
 3199 01fe 21       		.uleb128 0x21
 3200 01ff 00       		.byte	0
 3201 0200 49       		.uleb128 0x49
 3202 0201 13       		.uleb128 0x13
 3203 0202 2F       		.uleb128 0x2f
 3204 0203 0B       		.uleb128 0xb
 3205 0204 00       		.byte	0
 3206 0205 00       		.byte	0
 3207 0206 27       		.uleb128 0x27
 3208 0207 2E       		.uleb128 0x2e
 3209 0208 01       		.byte	0x1
 3210 0209 03       		.uleb128 0x3
 3211 020a 0E       		.uleb128 0xe
 3212 020b 3A       		.uleb128 0x3a
 3213 020c 0B       		.uleb128 0xb
 3214 020d 3B       		.uleb128 0x3b
 3215 020e 05       		.uleb128 0x5
 3216 020f 27       		.uleb128 0x27
 3217 0210 19       		.uleb128 0x19
 3218 0211 11       		.uleb128 0x11
 3219 0212 01       		.uleb128 0x1
 3220 0213 12       		.uleb128 0x12
 3221 0214 06       		.uleb128 0x6
 3222 0215 40       		.uleb128 0x40
 3223 0216 18       		.uleb128 0x18
 3224 0217 9742     		.uleb128 0x2117
 3225 0219 19       		.uleb128 0x19
 3226 021a 01       		.uleb128 0x1
 3227 021b 13       		.uleb128 0x13
 3228 021c 00       		.byte	0
 3229 021d 00       		.byte	0
 3230 021e 28       		.uleb128 0x28
 3231 021f 05       		.uleb128 0x5
 3232 0220 00       		.byte	0
 3233 0221 03       		.uleb128 0x3
 3234 0222 08       		.uleb128 0x8
 3235 0223 3A       		.uleb128 0x3a
 3236 0224 0B       		.uleb128 0xb
 3237 0225 3B       		.uleb128 0x3b
 3238 0226 05       		.uleb128 0x5
 3239 0227 49       		.uleb128 0x49
 3240 0228 13       		.uleb128 0x13
 3241 0229 02       		.uleb128 0x2
 3242 022a 17       		.uleb128 0x17
 3243 022b 00       		.byte	0
 3244 022c 00       		.byte	0
 3245 022d 29       		.uleb128 0x29
ARM GAS  /tmp/ccbMFK8z.s 			page 58


 3246 022e 34       		.uleb128 0x34
 3247 022f 00       		.byte	0
 3248 0230 03       		.uleb128 0x3
 3249 0231 08       		.uleb128 0x8
 3250 0232 3A       		.uleb128 0x3a
 3251 0233 0B       		.uleb128 0xb
 3252 0234 3B       		.uleb128 0x3b
 3253 0235 05       		.uleb128 0x5
 3254 0236 49       		.uleb128 0x49
 3255 0237 13       		.uleb128 0x13
 3256 0238 02       		.uleb128 0x2
 3257 0239 17       		.uleb128 0x17
 3258 023a 00       		.byte	0
 3259 023b 00       		.byte	0
 3260 023c 2A       		.uleb128 0x2a
 3261 023d 1D       		.uleb128 0x1d
 3262 023e 01       		.byte	0x1
 3263 023f 31       		.uleb128 0x31
 3264 0240 13       		.uleb128 0x13
 3265 0241 11       		.uleb128 0x11
 3266 0242 01       		.uleb128 0x1
 3267 0243 12       		.uleb128 0x12
 3268 0244 06       		.uleb128 0x6
 3269 0245 58       		.uleb128 0x58
 3270 0246 0B       		.uleb128 0xb
 3271 0247 59       		.uleb128 0x59
 3272 0248 05       		.uleb128 0x5
 3273 0249 01       		.uleb128 0x1
 3274 024a 13       		.uleb128 0x13
 3275 024b 00       		.byte	0
 3276 024c 00       		.byte	0
 3277 024d 2B       		.uleb128 0x2b
 3278 024e 1D       		.uleb128 0x1d
 3279 024f 01       		.byte	0x1
 3280 0250 31       		.uleb128 0x31
 3281 0251 13       		.uleb128 0x13
 3282 0252 11       		.uleb128 0x11
 3283 0253 01       		.uleb128 0x1
 3284 0254 12       		.uleb128 0x12
 3285 0255 06       		.uleb128 0x6
 3286 0256 58       		.uleb128 0x58
 3287 0257 0B       		.uleb128 0xb
 3288 0258 59       		.uleb128 0x59
 3289 0259 05       		.uleb128 0x5
 3290 025a 00       		.byte	0
 3291 025b 00       		.byte	0
 3292 025c 2C       		.uleb128 0x2c
 3293 025d 05       		.uleb128 0x5
 3294 025e 00       		.byte	0
 3295 025f 31       		.uleb128 0x31
 3296 0260 13       		.uleb128 0x13
 3297 0261 1C       		.uleb128 0x1c
 3298 0262 0B       		.uleb128 0xb
 3299 0263 00       		.byte	0
 3300 0264 00       		.byte	0
 3301 0265 2D       		.uleb128 0x2d
 3302 0266 898201   		.uleb128 0x4109
ARM GAS  /tmp/ccbMFK8z.s 			page 59


 3303 0269 00       		.byte	0
 3304 026a 11       		.uleb128 0x11
 3305 026b 01       		.uleb128 0x1
 3306 026c 31       		.uleb128 0x31
 3307 026d 13       		.uleb128 0x13
 3308 026e 00       		.byte	0
 3309 026f 00       		.byte	0
 3310 0270 2E       		.uleb128 0x2e
 3311 0271 05       		.uleb128 0x5
 3312 0272 00       		.byte	0
 3313 0273 31       		.uleb128 0x31
 3314 0274 13       		.uleb128 0x13
 3315 0275 02       		.uleb128 0x2
 3316 0276 17       		.uleb128 0x17
 3317 0277 00       		.byte	0
 3318 0278 00       		.byte	0
 3319 0279 2F       		.uleb128 0x2f
 3320 027a 898201   		.uleb128 0x4109
 3321 027d 01       		.byte	0x1
 3322 027e 11       		.uleb128 0x11
 3323 027f 01       		.uleb128 0x1
 3324 0280 31       		.uleb128 0x31
 3325 0281 13       		.uleb128 0x13
 3326 0282 00       		.byte	0
 3327 0283 00       		.byte	0
 3328 0284 30       		.uleb128 0x30
 3329 0285 8A8201   		.uleb128 0x410a
 3330 0288 00       		.byte	0
 3331 0289 02       		.uleb128 0x2
 3332 028a 18       		.uleb128 0x18
 3333 028b 9142     		.uleb128 0x2111
 3334 028d 18       		.uleb128 0x18
 3335 028e 00       		.byte	0
 3336 028f 00       		.byte	0
 3337 0290 31       		.uleb128 0x31
 3338 0291 2E       		.uleb128 0x2e
 3339 0292 01       		.byte	0x1
 3340 0293 3F       		.uleb128 0x3f
 3341 0294 19       		.uleb128 0x19
 3342 0295 03       		.uleb128 0x3
 3343 0296 0E       		.uleb128 0xe
 3344 0297 3A       		.uleb128 0x3a
 3345 0298 0B       		.uleb128 0xb
 3346 0299 3B       		.uleb128 0x3b
 3347 029a 05       		.uleb128 0x5
 3348 029b 27       		.uleb128 0x27
 3349 029c 19       		.uleb128 0x19
 3350 029d 49       		.uleb128 0x49
 3351 029e 13       		.uleb128 0x13
 3352 029f 11       		.uleb128 0x11
 3353 02a0 01       		.uleb128 0x1
 3354 02a1 12       		.uleb128 0x12
 3355 02a2 06       		.uleb128 0x6
 3356 02a3 40       		.uleb128 0x40
 3357 02a4 18       		.uleb128 0x18
 3358 02a5 9742     		.uleb128 0x2117
 3359 02a7 19       		.uleb128 0x19
ARM GAS  /tmp/ccbMFK8z.s 			page 60


 3360 02a8 01       		.uleb128 0x1
 3361 02a9 13       		.uleb128 0x13
 3362 02aa 00       		.byte	0
 3363 02ab 00       		.byte	0
 3364 02ac 32       		.uleb128 0x32
 3365 02ad 05       		.uleb128 0x5
 3366 02ae 00       		.byte	0
 3367 02af 03       		.uleb128 0x3
 3368 02b0 08       		.uleb128 0x8
 3369 02b1 3A       		.uleb128 0x3a
 3370 02b2 0B       		.uleb128 0xb
 3371 02b3 3B       		.uleb128 0x3b
 3372 02b4 05       		.uleb128 0x5
 3373 02b5 49       		.uleb128 0x49
 3374 02b6 13       		.uleb128 0x13
 3375 02b7 02       		.uleb128 0x2
 3376 02b8 18       		.uleb128 0x18
 3377 02b9 00       		.byte	0
 3378 02ba 00       		.byte	0
 3379 02bb 33       		.uleb128 0x33
 3380 02bc 2E       		.uleb128 0x2e
 3381 02bd 01       		.byte	0x1
 3382 02be 3F       		.uleb128 0x3f
 3383 02bf 19       		.uleb128 0x19
 3384 02c0 03       		.uleb128 0x3
 3385 02c1 0E       		.uleb128 0xe
 3386 02c2 3A       		.uleb128 0x3a
 3387 02c3 0B       		.uleb128 0xb
 3388 02c4 3B       		.uleb128 0x3b
 3389 02c5 05       		.uleb128 0x5
 3390 02c6 27       		.uleb128 0x27
 3391 02c7 19       		.uleb128 0x19
 3392 02c8 11       		.uleb128 0x11
 3393 02c9 01       		.uleb128 0x1
 3394 02ca 12       		.uleb128 0x12
 3395 02cb 06       		.uleb128 0x6
 3396 02cc 40       		.uleb128 0x40
 3397 02cd 18       		.uleb128 0x18
 3398 02ce 9742     		.uleb128 0x2117
 3399 02d0 19       		.uleb128 0x19
 3400 02d1 01       		.uleb128 0x1
 3401 02d2 13       		.uleb128 0x13
 3402 02d3 00       		.byte	0
 3403 02d4 00       		.byte	0
 3404 02d5 34       		.uleb128 0x34
 3405 02d6 05       		.uleb128 0x5
 3406 02d7 00       		.byte	0
 3407 02d8 03       		.uleb128 0x3
 3408 02d9 0E       		.uleb128 0xe
 3409 02da 3A       		.uleb128 0x3a
 3410 02db 0B       		.uleb128 0xb
 3411 02dc 3B       		.uleb128 0x3b
 3412 02dd 05       		.uleb128 0x5
 3413 02de 49       		.uleb128 0x49
 3414 02df 13       		.uleb128 0x13
 3415 02e0 02       		.uleb128 0x2
 3416 02e1 17       		.uleb128 0x17
ARM GAS  /tmp/ccbMFK8z.s 			page 61


 3417 02e2 00       		.byte	0
 3418 02e3 00       		.byte	0
 3419 02e4 35       		.uleb128 0x35
 3420 02e5 0B       		.uleb128 0xb
 3421 02e6 01       		.byte	0x1
 3422 02e7 11       		.uleb128 0x11
 3423 02e8 01       		.uleb128 0x1
 3424 02e9 12       		.uleb128 0x12
 3425 02ea 06       		.uleb128 0x6
 3426 02eb 00       		.byte	0
 3427 02ec 00       		.byte	0
 3428 02ed 36       		.uleb128 0x36
 3429 02ee 34       		.uleb128 0x34
 3430 02ef 00       		.byte	0
 3431 02f0 31       		.uleb128 0x31
 3432 02f1 13       		.uleb128 0x13
 3433 02f2 02       		.uleb128 0x2
 3434 02f3 17       		.uleb128 0x17
 3435 02f4 00       		.byte	0
 3436 02f5 00       		.byte	0
 3437 02f6 37       		.uleb128 0x37
 3438 02f7 898201   		.uleb128 0x4109
 3439 02fa 01       		.byte	0x1
 3440 02fb 11       		.uleb128 0x11
 3441 02fc 01       		.uleb128 0x1
 3442 02fd 31       		.uleb128 0x31
 3443 02fe 13       		.uleb128 0x13
 3444 02ff 01       		.uleb128 0x1
 3445 0300 13       		.uleb128 0x13
 3446 0301 00       		.byte	0
 3447 0302 00       		.byte	0
 3448 0303 38       		.uleb128 0x38
 3449 0304 898201   		.uleb128 0x4109
 3450 0307 00       		.byte	0
 3451 0308 11       		.uleb128 0x11
 3452 0309 01       		.uleb128 0x1
 3453 030a 9542     		.uleb128 0x2115
 3454 030c 19       		.uleb128 0x19
 3455 030d 31       		.uleb128 0x31
 3456 030e 13       		.uleb128 0x13
 3457 030f 00       		.byte	0
 3458 0310 00       		.byte	0
 3459 0311 39       		.uleb128 0x39
 3460 0312 0B       		.uleb128 0xb
 3461 0313 01       		.byte	0x1
 3462 0314 11       		.uleb128 0x11
 3463 0315 01       		.uleb128 0x1
 3464 0316 12       		.uleb128 0x12
 3465 0317 06       		.uleb128 0x6
 3466 0318 01       		.uleb128 0x1
 3467 0319 13       		.uleb128 0x13
 3468 031a 00       		.byte	0
 3469 031b 00       		.byte	0
 3470 031c 3A       		.uleb128 0x3a
 3471 031d 34       		.uleb128 0x34
 3472 031e 00       		.byte	0
 3473 031f 03       		.uleb128 0x3
ARM GAS  /tmp/ccbMFK8z.s 			page 62


 3474 0320 08       		.uleb128 0x8
 3475 0321 3A       		.uleb128 0x3a
 3476 0322 0B       		.uleb128 0xb
 3477 0323 3B       		.uleb128 0x3b
 3478 0324 05       		.uleb128 0x5
 3479 0325 49       		.uleb128 0x49
 3480 0326 13       		.uleb128 0x13
 3481 0327 02       		.uleb128 0x2
 3482 0328 18       		.uleb128 0x18
 3483 0329 00       		.byte	0
 3484 032a 00       		.byte	0
 3485 032b 3B       		.uleb128 0x3b
 3486 032c 898201   		.uleb128 0x4109
 3487 032f 01       		.byte	0x1
 3488 0330 11       		.uleb128 0x11
 3489 0331 01       		.uleb128 0x1
 3490 0332 9542     		.uleb128 0x2115
 3491 0334 19       		.uleb128 0x19
 3492 0335 31       		.uleb128 0x31
 3493 0336 13       		.uleb128 0x13
 3494 0337 01       		.uleb128 0x1
 3495 0338 13       		.uleb128 0x13
 3496 0339 00       		.byte	0
 3497 033a 00       		.byte	0
 3498 033b 3C       		.uleb128 0x3c
 3499 033c 898201   		.uleb128 0x4109
 3500 033f 01       		.byte	0x1
 3501 0340 11       		.uleb128 0x11
 3502 0341 01       		.uleb128 0x1
 3503 0342 9542     		.uleb128 0x2115
 3504 0344 19       		.uleb128 0x19
 3505 0345 31       		.uleb128 0x31
 3506 0346 13       		.uleb128 0x13
 3507 0347 00       		.byte	0
 3508 0348 00       		.byte	0
 3509 0349 3D       		.uleb128 0x3d
 3510 034a 1D       		.uleb128 0x1d
 3511 034b 01       		.byte	0x1
 3512 034c 31       		.uleb128 0x31
 3513 034d 13       		.uleb128 0x13
 3514 034e 52       		.uleb128 0x52
 3515 034f 01       		.uleb128 0x1
 3516 0350 55       		.uleb128 0x55
 3517 0351 17       		.uleb128 0x17
 3518 0352 58       		.uleb128 0x58
 3519 0353 0B       		.uleb128 0xb
 3520 0354 59       		.uleb128 0x59
 3521 0355 05       		.uleb128 0x5
 3522 0356 01       		.uleb128 0x1
 3523 0357 13       		.uleb128 0x13
 3524 0358 00       		.byte	0
 3525 0359 00       		.byte	0
 3526 035a 3E       		.uleb128 0x3e
 3527 035b 0B       		.uleb128 0xb
 3528 035c 01       		.byte	0x1
 3529 035d 55       		.uleb128 0x55
 3530 035e 17       		.uleb128 0x17
ARM GAS  /tmp/ccbMFK8z.s 			page 63


 3531 035f 00       		.byte	0
 3532 0360 00       		.byte	0
 3533 0361 3F       		.uleb128 0x3f
 3534 0362 2E       		.uleb128 0x2e
 3535 0363 00       		.byte	0
 3536 0364 03       		.uleb128 0x3
 3537 0365 0E       		.uleb128 0xe
 3538 0366 3A       		.uleb128 0x3a
 3539 0367 0B       		.uleb128 0xb
 3540 0368 3B       		.uleb128 0x3b
 3541 0369 05       		.uleb128 0x5
 3542 036a 27       		.uleb128 0x27
 3543 036b 19       		.uleb128 0x19
 3544 036c 49       		.uleb128 0x49
 3545 036d 13       		.uleb128 0x13
 3546 036e 20       		.uleb128 0x20
 3547 036f 0B       		.uleb128 0xb
 3548 0370 00       		.byte	0
 3549 0371 00       		.byte	0
 3550 0372 40       		.uleb128 0x40
 3551 0373 1D       		.uleb128 0x1d
 3552 0374 00       		.byte	0
 3553 0375 31       		.uleb128 0x31
 3554 0376 13       		.uleb128 0x13
 3555 0377 11       		.uleb128 0x11
 3556 0378 01       		.uleb128 0x1
 3557 0379 12       		.uleb128 0x12
 3558 037a 06       		.uleb128 0x6
 3559 037b 58       		.uleb128 0x58
 3560 037c 0B       		.uleb128 0xb
 3561 037d 59       		.uleb128 0x59
 3562 037e 05       		.uleb128 0x5
 3563 037f 00       		.byte	0
 3564 0380 00       		.byte	0
 3565 0381 41       		.uleb128 0x41
 3566 0382 34       		.uleb128 0x34
 3567 0383 00       		.byte	0
 3568 0384 03       		.uleb128 0x3
 3569 0385 0E       		.uleb128 0xe
 3570 0386 3A       		.uleb128 0x3a
 3571 0387 0B       		.uleb128 0xb
 3572 0388 3B       		.uleb128 0x3b
 3573 0389 05       		.uleb128 0x5
 3574 038a 49       		.uleb128 0x49
 3575 038b 13       		.uleb128 0x13
 3576 038c 3F       		.uleb128 0x3f
 3577 038d 19       		.uleb128 0x19
 3578 038e 3C       		.uleb128 0x3c
 3579 038f 19       		.uleb128 0x19
 3580 0390 00       		.byte	0
 3581 0391 00       		.byte	0
 3582 0392 42       		.uleb128 0x42
 3583 0393 34       		.uleb128 0x34
 3584 0394 00       		.byte	0
 3585 0395 03       		.uleb128 0x3
 3586 0396 08       		.uleb128 0x8
 3587 0397 3A       		.uleb128 0x3a
ARM GAS  /tmp/ccbMFK8z.s 			page 64


 3588 0398 0B       		.uleb128 0xb
 3589 0399 3B       		.uleb128 0x3b
 3590 039a 0B       		.uleb128 0xb
 3591 039b 49       		.uleb128 0x49
 3592 039c 13       		.uleb128 0x13
 3593 039d 3F       		.uleb128 0x3f
 3594 039e 19       		.uleb128 0x19
 3595 039f 02       		.uleb128 0x2
 3596 03a0 18       		.uleb128 0x18
 3597 03a1 00       		.byte	0
 3598 03a2 00       		.byte	0
 3599 03a3 43       		.uleb128 0x43
 3600 03a4 2E       		.uleb128 0x2e
 3601 03a5 00       		.byte	0
 3602 03a6 3F       		.uleb128 0x3f
 3603 03a7 19       		.uleb128 0x19
 3604 03a8 03       		.uleb128 0x3
 3605 03a9 0E       		.uleb128 0xe
 3606 03aa 3A       		.uleb128 0x3a
 3607 03ab 0B       		.uleb128 0xb
 3608 03ac 3B       		.uleb128 0x3b
 3609 03ad 0B       		.uleb128 0xb
 3610 03ae 27       		.uleb128 0x27
 3611 03af 19       		.uleb128 0x19
 3612 03b0 3C       		.uleb128 0x3c
 3613 03b1 19       		.uleb128 0x19
 3614 03b2 00       		.byte	0
 3615 03b3 00       		.byte	0
 3616 03b4 44       		.uleb128 0x44
 3617 03b5 2E       		.uleb128 0x2e
 3618 03b6 01       		.byte	0x1
 3619 03b7 3F       		.uleb128 0x3f
 3620 03b8 19       		.uleb128 0x19
 3621 03b9 03       		.uleb128 0x3
 3622 03ba 0E       		.uleb128 0xe
 3623 03bb 3A       		.uleb128 0x3a
 3624 03bc 0B       		.uleb128 0xb
 3625 03bd 3B       		.uleb128 0x3b
 3626 03be 0B       		.uleb128 0xb
 3627 03bf 27       		.uleb128 0x27
 3628 03c0 19       		.uleb128 0x19
 3629 03c1 3C       		.uleb128 0x3c
 3630 03c2 19       		.uleb128 0x19
 3631 03c3 01       		.uleb128 0x1
 3632 03c4 13       		.uleb128 0x13
 3633 03c5 00       		.byte	0
 3634 03c6 00       		.byte	0
 3635 03c7 45       		.uleb128 0x45
 3636 03c8 2E       		.uleb128 0x2e
 3637 03c9 01       		.byte	0x1
 3638 03ca 3F       		.uleb128 0x3f
 3639 03cb 19       		.uleb128 0x19
 3640 03cc 03       		.uleb128 0x3
 3641 03cd 0E       		.uleb128 0xe
 3642 03ce 3A       		.uleb128 0x3a
 3643 03cf 0B       		.uleb128 0xb
 3644 03d0 3B       		.uleb128 0x3b
ARM GAS  /tmp/ccbMFK8z.s 			page 65


 3645 03d1 05       		.uleb128 0x5
 3646 03d2 27       		.uleb128 0x27
 3647 03d3 19       		.uleb128 0x19
 3648 03d4 3C       		.uleb128 0x3c
 3649 03d5 19       		.uleb128 0x19
 3650 03d6 01       		.uleb128 0x1
 3651 03d7 13       		.uleb128 0x13
 3652 03d8 00       		.byte	0
 3653 03d9 00       		.byte	0
 3654 03da 46       		.uleb128 0x46
 3655 03db 2E       		.uleb128 0x2e
 3656 03dc 01       		.byte	0x1
 3657 03dd 3F       		.uleb128 0x3f
 3658 03de 19       		.uleb128 0x19
 3659 03df 03       		.uleb128 0x3
 3660 03e0 0E       		.uleb128 0xe
 3661 03e1 3A       		.uleb128 0x3a
 3662 03e2 0B       		.uleb128 0xb
 3663 03e3 3B       		.uleb128 0x3b
 3664 03e4 0B       		.uleb128 0xb
 3665 03e5 27       		.uleb128 0x27
 3666 03e6 19       		.uleb128 0x19
 3667 03e7 3C       		.uleb128 0x3c
 3668 03e8 19       		.uleb128 0x19
 3669 03e9 00       		.byte	0
 3670 03ea 00       		.byte	0
 3671 03eb 00       		.byte	0
 3672              		.section	.debug_loc,"",%progbits
 3673              	.Ldebug_loc0:
 3674              	.LLST0:
 3675 0000 06000000 		.4byte	.LVL2
 3676 0004 0A000000 		.4byte	.LVL3
 3677 0008 0600     		.2byte	0x6
 3678 000a 03       		.byte	0x3
 3679 000b 00000000 		.4byte	ch
 3680 000f 9F       		.byte	0x9f
 3681 0010 0A000000 		.4byte	.LVL3
 3682 0014 24000000 		.4byte	.LFE291
 3683 0018 0100     		.2byte	0x1
 3684 001a 53       		.byte	0x53
 3685 001b 00000000 		.4byte	0
 3686 001f 00000000 		.4byte	0
 3687              	.LLST1:
 3688 0023 00000000 		.4byte	.LVL5
 3689 0027 0D000000 		.4byte	.LVL7-1
 3690 002b 0100     		.2byte	0x1
 3691 002d 50       		.byte	0x50
 3692 002e 0D000000 		.4byte	.LVL7-1
 3693 0032 5E000000 		.4byte	.LFE294
 3694 0036 0100     		.2byte	0x1
 3695 0038 54       		.byte	0x54
 3696 0039 00000000 		.4byte	0
 3697 003d 00000000 		.4byte	0
 3698              	.LLST2:
 3699 0041 04000000 		.4byte	.LVL6
 3700 0045 0D000000 		.4byte	.LVL7-1
 3701 0049 0100     		.2byte	0x1
ARM GAS  /tmp/ccbMFK8z.s 			page 66


 3702 004b 50       		.byte	0x50
 3703 004c 0D000000 		.4byte	.LVL7-1
 3704 0050 5E000000 		.4byte	.LFE294
 3705 0054 0100     		.2byte	0x1
 3706 0056 54       		.byte	0x54
 3707 0057 00000000 		.4byte	0
 3708 005b 00000000 		.4byte	0
 3709              	.LLST3:
 3710 005f 28000000 		.4byte	.LVL8
 3711 0063 2E000000 		.4byte	.LVL9
 3712 0067 0200     		.2byte	0x2
 3713 0069 30       		.byte	0x30
 3714 006a 9F       		.byte	0x9f
 3715 006b 00000000 		.4byte	0
 3716 006f 00000000 		.4byte	0
 3717              	.LLST4:
 3718 0073 36000000 		.4byte	.LVL10
 3719 0077 3C000000 		.4byte	.LVL11
 3720 007b 0100     		.2byte	0x1
 3721 007d 52       		.byte	0x52
 3722 007e 00000000 		.4byte	0
 3723 0082 00000000 		.4byte	0
 3724              	.LLST5:
 3725 0086 3C000000 		.4byte	.LVL11
 3726 008a 46000000 		.4byte	.LVL12
 3727 008e 0100     		.2byte	0x1
 3728 0090 54       		.byte	0x54
 3729 0091 00000000 		.4byte	0
 3730 0095 00000000 		.4byte	0
 3731              	.LLST6:
 3732 0099 06000000 		.4byte	.LVL16
 3733 009d 0A000000 		.4byte	.LVL17
 3734 00a1 0600     		.2byte	0x6
 3735 00a3 03       		.byte	0x3
 3736 00a4 00000000 		.4byte	ch
 3737 00a8 9F       		.byte	0x9f
 3738 00a9 0A000000 		.4byte	.LVL17
 3739 00ad 24000000 		.4byte	.LFE292
 3740 00b1 0100     		.2byte	0x1
 3741 00b3 53       		.byte	0x53
 3742 00b4 00000000 		.4byte	0
 3743 00b8 00000000 		.4byte	0
 3744              	.LLST7:
 3745 00bc 00000000 		.4byte	.LVL19
 3746 00c0 0C000000 		.4byte	.LVL22
 3747 00c4 0100     		.2byte	0x1
 3748 00c6 50       		.byte	0x50
 3749 00c7 0C000000 		.4byte	.LVL22
 3750 00cb 18000000 		.4byte	.LVL23
 3751 00cf 0200     		.2byte	0x2
 3752 00d1 75       		.byte	0x75
 3753 00d2 20       		.sleb128 32
 3754 00d3 18000000 		.4byte	.LVL23
 3755 00d7 30000000 		.4byte	.LFE293
 3756 00db 0400     		.2byte	0x4
 3757 00dd F3       		.byte	0xf3
 3758 00de 01       		.uleb128 0x1
ARM GAS  /tmp/ccbMFK8z.s 			page 67


 3759 00df 50       		.byte	0x50
 3760 00e0 9F       		.byte	0x9f
 3761 00e1 00000000 		.4byte	0
 3762 00e5 00000000 		.4byte	0
 3763              	.LLST8:
 3764 00e9 06000000 		.4byte	.LVL20
 3765 00ed 28000000 		.4byte	.LVL25
 3766 00f1 0100     		.2byte	0x1
 3767 00f3 55       		.byte	0x55
 3768 00f4 28000000 		.4byte	.LVL25
 3769 00f8 2B000000 		.4byte	.LVL26-1
 3770 00fc 0100     		.2byte	0x1
 3771 00fe 51       		.byte	0x51
 3772 00ff 00000000 		.4byte	0
 3773 0103 00000000 		.4byte	0
 3774              	.LLST9:
 3775 0107 0C000000 		.4byte	.LVL22
 3776 010b 1F000000 		.4byte	.LVL24-1
 3777 010f 0100     		.2byte	0x1
 3778 0111 50       		.byte	0x50
 3779 0112 00000000 		.4byte	0
 3780 0116 00000000 		.4byte	0
 3781              	.LLST10:
 3782 011a 00000000 		.4byte	.LVL27
 3783 011e 12000000 		.4byte	.LVL28
 3784 0122 0100     		.2byte	0x1
 3785 0124 50       		.byte	0x50
 3786 0125 12000000 		.4byte	.LVL28
 3787 0129 28000000 		.4byte	.LVL33
 3788 012d 0400     		.2byte	0x4
 3789 012f F3       		.byte	0xf3
 3790 0130 01       		.uleb128 0x1
 3791 0131 50       		.byte	0x50
 3792 0132 9F       		.byte	0x9f
 3793 0133 28000000 		.4byte	.LVL33
 3794 0137 2B000000 		.4byte	.LVL34-1
 3795 013b 0100     		.2byte	0x1
 3796 013d 50       		.byte	0x50
 3797 013e 2B000000 		.4byte	.LVL34-1
 3798 0142 3C000000 		.4byte	.LFE295
 3799 0146 0400     		.2byte	0x4
 3800 0148 F3       		.byte	0xf3
 3801 0149 01       		.uleb128 0x1
 3802 014a 50       		.byte	0x50
 3803 014b 9F       		.byte	0x9f
 3804 014c 00000000 		.4byte	0
 3805 0150 00000000 		.4byte	0
 3806              	.LLST11:
 3807 0154 00000000 		.4byte	.LVL27
 3808 0158 15000000 		.4byte	.LVL29-1
 3809 015c 0100     		.2byte	0x1
 3810 015e 51       		.byte	0x51
 3811 015f 15000000 		.4byte	.LVL29-1
 3812 0163 28000000 		.4byte	.LVL33
 3813 0167 0400     		.2byte	0x4
 3814 0169 F3       		.byte	0xf3
 3815 016a 01       		.uleb128 0x1
ARM GAS  /tmp/ccbMFK8z.s 			page 68


 3816 016b 51       		.byte	0x51
 3817 016c 9F       		.byte	0x9f
 3818 016d 28000000 		.4byte	.LVL33
 3819 0171 2B000000 		.4byte	.LVL34-1
 3820 0175 0100     		.2byte	0x1
 3821 0177 51       		.byte	0x51
 3822 0178 2B000000 		.4byte	.LVL34-1
 3823 017c 3C000000 		.4byte	.LFE295
 3824 0180 0400     		.2byte	0x4
 3825 0182 F3       		.byte	0xf3
 3826 0183 01       		.uleb128 0x1
 3827 0184 51       		.byte	0x51
 3828 0185 9F       		.byte	0x9f
 3829 0186 00000000 		.4byte	0
 3830 018a 00000000 		.4byte	0
 3831              	.LLST12:
 3832 018e 00000000 		.4byte	.LVL35
 3833 0192 19000000 		.4byte	.LVL38-1
 3834 0196 0100     		.2byte	0x1
 3835 0198 50       		.byte	0x50
 3836 0199 19000000 		.4byte	.LVL38-1
 3837 019d 1A000000 		.4byte	.LVL38
 3838 01a1 0400     		.2byte	0x4
 3839 01a3 F3       		.byte	0xf3
 3840 01a4 01       		.uleb128 0x1
 3841 01a5 50       		.byte	0x50
 3842 01a6 9F       		.byte	0x9f
 3843 01a7 1A000000 		.4byte	.LVL38
 3844 01ab 1C000000 		.4byte	.LVL39
 3845 01af 0100     		.2byte	0x1
 3846 01b1 50       		.byte	0x50
 3847 01b2 1C000000 		.4byte	.LVL39
 3848 01b6 3A000000 		.4byte	.LVL44
 3849 01ba 0100     		.2byte	0x1
 3850 01bc 54       		.byte	0x54
 3851 01bd 3A000000 		.4byte	.LVL44
 3852 01c1 3D000000 		.4byte	.LVL45-1
 3853 01c5 0100     		.2byte	0x1
 3854 01c7 50       		.byte	0x50
 3855 01c8 3D000000 		.4byte	.LVL45-1
 3856 01cc 44000000 		.4byte	.LFE296
 3857 01d0 0400     		.2byte	0x4
 3858 01d2 F3       		.byte	0xf3
 3859 01d3 01       		.uleb128 0x1
 3860 01d4 50       		.byte	0x50
 3861 01d5 9F       		.byte	0x9f
 3862 01d6 00000000 		.4byte	0
 3863 01da 00000000 		.4byte	0
 3864              	.LLST13:
 3865 01de 00000000 		.4byte	.LVL35
 3866 01e2 0A000000 		.4byte	.LVL37
 3867 01e6 0100     		.2byte	0x1
 3868 01e8 51       		.byte	0x51
 3869 01e9 0A000000 		.4byte	.LVL37
 3870 01ed 19000000 		.4byte	.LVL38-1
 3871 01f1 0200     		.2byte	0x2
 3872 01f3 70       		.byte	0x70
ARM GAS  /tmp/ccbMFK8z.s 			page 69


 3873 01f4 24       		.sleb128 36
 3874 01f5 19000000 		.4byte	.LVL38-1
 3875 01f9 1A000000 		.4byte	.LVL38
 3876 01fd 0400     		.2byte	0x4
 3877 01ff F3       		.byte	0xf3
 3878 0200 01       		.uleb128 0x1
 3879 0201 51       		.byte	0x51
 3880 0202 9F       		.byte	0x9f
 3881 0203 1A000000 		.4byte	.LVL38
 3882 0207 1C000000 		.4byte	.LVL39
 3883 020b 0200     		.2byte	0x2
 3884 020d 70       		.byte	0x70
 3885 020e 24       		.sleb128 36
 3886 020f 1C000000 		.4byte	.LVL39
 3887 0213 1F000000 		.4byte	.LVL40-1
 3888 0217 0200     		.2byte	0x2
 3889 0219 74       		.byte	0x74
 3890 021a 24       		.sleb128 36
 3891 021b 1F000000 		.4byte	.LVL40-1
 3892 021f 44000000 		.4byte	.LFE296
 3893 0223 0400     		.2byte	0x4
 3894 0225 F3       		.byte	0xf3
 3895 0226 01       		.uleb128 0x1
 3896 0227 51       		.byte	0x51
 3897 0228 9F       		.byte	0x9f
 3898 0229 00000000 		.4byte	0
 3899 022d 00000000 		.4byte	0
 3900              	.LLST14:
 3901 0231 08000000 		.4byte	.LVL36
 3902 0235 19000000 		.4byte	.LVL38-1
 3903 0239 0100     		.2byte	0x1
 3904 023b 53       		.byte	0x53
 3905 023c 1A000000 		.4byte	.LVL38
 3906 0240 1F000000 		.4byte	.LVL40-1
 3907 0244 0100     		.2byte	0x1
 3908 0246 53       		.byte	0x53
 3909 0247 24000000 		.4byte	.LVL41
 3910 024b 28000000 		.4byte	.LVL42
 3911 024f 0100     		.2byte	0x1
 3912 0251 50       		.byte	0x50
 3913 0252 28000000 		.4byte	.LVL42
 3914 0256 31000000 		.4byte	.LVL43-1
 3915 025a 0100     		.2byte	0x1
 3916 025c 51       		.byte	0x51
 3917 025d 31000000 		.4byte	.LVL43-1
 3918 0261 3A000000 		.4byte	.LVL44
 3919 0265 0100     		.2byte	0x1
 3920 0267 55       		.byte	0x55
 3921 0268 3A000000 		.4byte	.LVL44
 3922 026c 3D000000 		.4byte	.LVL45-1
 3923 0270 0100     		.2byte	0x1
 3924 0272 51       		.byte	0x51
 3925 0273 00000000 		.4byte	0
 3926 0277 00000000 		.4byte	0
 3927              	.LLST15:
 3928 027b 08000000 		.4byte	.LVL47
 3929 027f 19000000 		.4byte	.LVL48-1
ARM GAS  /tmp/ccbMFK8z.s 			page 70


 3930 0283 0100     		.2byte	0x1
 3931 0285 50       		.byte	0x50
 3932 0286 1C000000 		.4byte	.LVL49
 3933 028a 20000000 		.4byte	.LVL50
 3934 028e 0100     		.2byte	0x1
 3935 0290 50       		.byte	0x50
 3936 0291 20000000 		.4byte	.LVL50
 3937 0295 23000000 		.4byte	.LVL51-1
 3938 0299 0100     		.2byte	0x1
 3939 029b 51       		.byte	0x51
 3940 029c 23000000 		.4byte	.LVL51-1
 3941 02a0 2C000000 		.4byte	.LVL52
 3942 02a4 0100     		.2byte	0x1
 3943 02a6 55       		.byte	0x55
 3944 02a7 2C000000 		.4byte	.LVL52
 3945 02ab 2F000000 		.4byte	.LVL53-1
 3946 02af 0100     		.2byte	0x1
 3947 02b1 51       		.byte	0x51
 3948 02b2 00000000 		.4byte	0
 3949 02b6 00000000 		.4byte	0
 3950              	.LLST16:
 3951 02ba 08000000 		.4byte	.LVL47
 3952 02be 19000000 		.4byte	.LVL48-1
 3953 02c2 0100     		.2byte	0x1
 3954 02c4 53       		.byte	0x53
 3955 02c5 00000000 		.4byte	0
 3956 02c9 00000000 		.4byte	0
 3957              	.LLST17:
 3958 02cd 08000000 		.4byte	.LVL54
 3959 02d1 19000000 		.4byte	.LVL55-1
 3960 02d5 0100     		.2byte	0x1
 3961 02d7 50       		.byte	0x50
 3962 02d8 1C000000 		.4byte	.LVL56
 3963 02dc 20000000 		.4byte	.LVL57
 3964 02e0 0100     		.2byte	0x1
 3965 02e2 50       		.byte	0x50
 3966 02e3 20000000 		.4byte	.LVL57
 3967 02e7 23000000 		.4byte	.LVL58-1
 3968 02eb 0100     		.2byte	0x1
 3969 02ed 51       		.byte	0x51
 3970 02ee 23000000 		.4byte	.LVL58-1
 3971 02f2 2C000000 		.4byte	.LVL59
 3972 02f6 0100     		.2byte	0x1
 3973 02f8 55       		.byte	0x55
 3974 02f9 2C000000 		.4byte	.LVL59
 3975 02fd 2F000000 		.4byte	.LVL60-1
 3976 0301 0100     		.2byte	0x1
 3977 0303 51       		.byte	0x51
 3978 0304 00000000 		.4byte	0
 3979 0308 00000000 		.4byte	0
 3980              	.LLST18:
 3981 030c 08000000 		.4byte	.LVL54
 3982 0310 19000000 		.4byte	.LVL55-1
 3983 0314 0100     		.2byte	0x1
 3984 0316 53       		.byte	0x53
 3985 0317 00000000 		.4byte	0
 3986 031b 00000000 		.4byte	0
ARM GAS  /tmp/ccbMFK8z.s 			page 71


 3987              	.LLST19:
 3988 031f 08000000 		.4byte	.LVL62
 3989 0323 19000000 		.4byte	.LVL63-1
 3990 0327 0100     		.2byte	0x1
 3991 0329 50       		.byte	0x50
 3992 032a 1C000000 		.4byte	.LVL64
 3993 032e 20000000 		.4byte	.LVL65
 3994 0332 0100     		.2byte	0x1
 3995 0334 50       		.byte	0x50
 3996 0335 20000000 		.4byte	.LVL65
 3997 0339 23000000 		.4byte	.LVL66-1
 3998 033d 0100     		.2byte	0x1
 3999 033f 51       		.byte	0x51
 4000 0340 23000000 		.4byte	.LVL66-1
 4001 0344 2C000000 		.4byte	.LVL67
 4002 0348 0100     		.2byte	0x1
 4003 034a 55       		.byte	0x55
 4004 034b 2C000000 		.4byte	.LVL67
 4005 034f 2F000000 		.4byte	.LVL68-1
 4006 0353 0100     		.2byte	0x1
 4007 0355 51       		.byte	0x51
 4008 0356 00000000 		.4byte	0
 4009 035a 00000000 		.4byte	0
 4010              	.LLST20:
 4011 035e 08000000 		.4byte	.LVL62
 4012 0362 19000000 		.4byte	.LVL63-1
 4013 0366 0100     		.2byte	0x1
 4014 0368 53       		.byte	0x53
 4015 0369 00000000 		.4byte	0
 4016 036d 00000000 		.4byte	0
 4017              		.section	.debug_aranges,"",%progbits
 4018 0000 74000000 		.4byte	0x74
 4019 0004 0200     		.2byte	0x2
 4020 0006 00000000 		.4byte	.Ldebug_info0
 4021 000a 04       		.byte	0x4
 4022 000b 00       		.byte	0
 4023 000c 0000     		.2byte	0
 4024 000e 0000     		.2byte	0
 4025 0010 00000000 		.4byte	.LFB290
 4026 0014 14000000 		.4byte	.LFE290-.LFB290
 4027 0018 00000000 		.4byte	.LFB291
 4028 001c 24000000 		.4byte	.LFE291-.LFB291
 4029 0020 00000000 		.4byte	.LFB294
 4030 0024 5E000000 		.4byte	.LFE294-.LFB294
 4031 0028 00000000 		.4byte	.LFB292
 4032 002c 24000000 		.4byte	.LFE292-.LFB292
 4033 0030 00000000 		.4byte	.LFB293
 4034 0034 30000000 		.4byte	.LFE293-.LFB293
 4035 0038 00000000 		.4byte	.LFB295
 4036 003c 3C000000 		.4byte	.LFE295-.LFB295
 4037 0040 00000000 		.4byte	.LFB296
 4038 0044 44000000 		.4byte	.LFE296-.LFB296
 4039 0048 00000000 		.4byte	.LFB298
 4040 004c 18000000 		.4byte	.LFE298-.LFB298
 4041 0050 00000000 		.4byte	.LFB299
 4042 0054 34000000 		.4byte	.LFE299-.LFB299
 4043 0058 00000000 		.4byte	.LFB300
ARM GAS  /tmp/ccbMFK8z.s 			page 72


 4044 005c 34000000 		.4byte	.LFE300-.LFB300
 4045 0060 00000000 		.4byte	.LFB297
 4046 0064 18000000 		.4byte	.LFE297-.LFB297
 4047 0068 00000000 		.4byte	.LFB301
 4048 006c 34000000 		.4byte	.LFE301-.LFB301
 4049 0070 00000000 		.4byte	0
 4050 0074 00000000 		.4byte	0
 4051              		.section	.debug_ranges,"",%progbits
 4052              	.Ldebug_ranges0:
 4053 0000 00000000 		.4byte	.LBB39
 4054 0004 02000000 		.4byte	.LBE39
 4055 0008 04000000 		.4byte	.LBB42
 4056 000c 08000000 		.4byte	.LBE42
 4057 0010 00000000 		.4byte	0
 4058 0014 00000000 		.4byte	0
 4059 0018 04000000 		.4byte	.LBB90
 4060 001c 06000000 		.4byte	.LBE90
 4061 0020 08000000 		.4byte	.LBB93
 4062 0024 0E000000 		.4byte	.LBE93
 4063 0028 00000000 		.4byte	0
 4064 002c 00000000 		.4byte	0
 4065 0030 04000000 		.4byte	.LBB94
 4066 0034 06000000 		.4byte	.LBE94
 4067 0038 08000000 		.4byte	.LBB97
 4068 003c 0E000000 		.4byte	.LBE97
 4069 0040 00000000 		.4byte	0
 4070 0044 00000000 		.4byte	0
 4071 0048 04000000 		.4byte	.LBB102
 4072 004c 06000000 		.4byte	.LBE102
 4073 0050 08000000 		.4byte	.LBB105
 4074 0054 0E000000 		.4byte	.LBE105
 4075 0058 00000000 		.4byte	0
 4076 005c 00000000 		.4byte	0
 4077 0060 00000000 		.4byte	.LFB290
 4078 0064 14000000 		.4byte	.LFE290
 4079 0068 00000000 		.4byte	.LFB291
 4080 006c 24000000 		.4byte	.LFE291
 4081 0070 00000000 		.4byte	.LFB294
 4082 0074 5E000000 		.4byte	.LFE294
 4083 0078 00000000 		.4byte	.LFB292
 4084 007c 24000000 		.4byte	.LFE292
 4085 0080 00000000 		.4byte	.LFB293
 4086 0084 30000000 		.4byte	.LFE293
 4087 0088 00000000 		.4byte	.LFB295
 4088 008c 3C000000 		.4byte	.LFE295
 4089 0090 00000000 		.4byte	.LFB296
 4090 0094 44000000 		.4byte	.LFE296
 4091 0098 00000000 		.4byte	.LFB298
 4092 009c 18000000 		.4byte	.LFE298
 4093 00a0 00000000 		.4byte	.LFB299
 4094 00a4 34000000 		.4byte	.LFE299
 4095 00a8 00000000 		.4byte	.LFB300
 4096 00ac 34000000 		.4byte	.LFE300
 4097 00b0 00000000 		.4byte	.LFB297
 4098 00b4 18000000 		.4byte	.LFE297
 4099 00b8 00000000 		.4byte	.LFB301
 4100 00bc 34000000 		.4byte	.LFE301
ARM GAS  /tmp/ccbMFK8z.s 			page 73


 4101 00c0 00000000 		.4byte	0
 4102 00c4 00000000 		.4byte	0
 4103              		.section	.debug_line,"",%progbits
 4104              	.Ldebug_line0:
 4105 0000 18040000 		.section	.debug_str,"MS",%progbits,1
 4105      02000B02 
 4105      00000201 
 4105      FB0E0D00 
 4105      01010101 
 4106              	.LASF52:
 4107 0000 72656164 		.ascii	"ready_list_t\000"
 4107      795F6C69 
 4107      73745F74 
 4107      00
 4108              	.LASF94:
 4109 000d 77747472 		.ascii	"wttrp\000"
 4109      7000
 4110              	.LASF58:
 4111 0013 64656C74 		.ascii	"delta\000"
 4111      6100
 4112              	.LASF91:
 4113 0019 7264796D 		.ascii	"rdymsg\000"
 4113      736700
 4114              	.LASF16:
 4115 0020 75696E74 		.ascii	"uint64_t\000"
 4115      36345F74 
 4115      00
 4116              	.LASF130:
 4117 0029 63685363 		.ascii	"chSchDoRescheduleAhead\000"
 4117      68446F52 
 4117      65736368 
 4117      6564756C 
 4117      65416865 
 4118              	.LASF24:
 4119 0040 6576656E 		.ascii	"eventmask_t\000"
 4119      746D6173 
 4119      6B5F7400 
 4120              	.LASF5:
 4121 004c 5F5F7569 		.ascii	"__uint8_t\000"
 4121      6E74385F 
 4121      7400
 4122              	.LASF51:
 4123 0056 70726576 		.ascii	"prev\000"
 4123      00
 4124              	.LASF78:
 4125 005b 706F7274 		.ascii	"port_intctx\000"
 4125      5F696E74 
 4125      63747800 
 4126              	.LASF50:
 4127 0067 63685F74 		.ascii	"ch_threads_queue\000"
 4127      68726561 
 4127      64735F71 
 4127      75657565 
 4127      00
 4128              	.LASF63:
 4129 0078 73797374 		.ascii	"system_debug_t\000"
 4129      656D5F64 
ARM GAS  /tmp/ccbMFK8z.s 			page 74


 4129      65627567 
 4129      5F7400
 4130              	.LASF113:
 4131 0087 71756575 		.ascii	"queue_init\000"
 4131      655F696E 
 4131      697400
 4132              	.LASF106:
 4133 0092 706F7274 		.ascii	"port_lock\000"
 4133      5F6C6F63 
 4133      6B00
 4134              	.LASF82:
 4135 009c 776F7273 		.ascii	"worst\000"
 4135      7400
 4136              	.LASF85:
 4137 00a2 74696D65 		.ascii	"time_measurement_t\000"
 4137      5F6D6561 
 4137      73757265 
 4137      6D656E74 
 4137      5F7400
 4138              	.LASF12:
 4139 00b5 6C6F6E67 		.ascii	"long long unsigned int\000"
 4139      206C6F6E 
 4139      6720756E 
 4139      7369676E 
 4139      65642069 
 4140              	.LASF144:
 4141 00cc 63685654 		.ascii	"chVTDoResetI\000"
 4141      446F5265 
 4141      73657449 
 4141      00
 4142              	.LASF92:
 4143 00d9 65786974 		.ascii	"exitcode\000"
 4143      636F6465 
 4143      00
 4144              	.LASF70:
 4145 00e2 6D61696E 		.ascii	"mainthread\000"
 4145      74687265 
 4145      616400
 4146              	.LASF95:
 4147 00ed 73656E74 		.ascii	"sentmsg\000"
 4147      6D736700 
 4148              	.LASF60:
 4149 00f5 76697274 		.ascii	"virtual_timers_list_t\000"
 4149      75616C5F 
 4149      74696D65 
 4149      72735F6C 
 4149      6973745F 
 4150              	.LASF133:
 4151 010b 49544D5F 		.ascii	"ITM_RxBuffer\000"
 4151      52784275 
 4151      66666572 
 4151      00
 4152              	.LASF48:
 4153 0118 6E657874 		.ascii	"next\000"
 4153      00
 4154              	.LASF18:
 4155 011d 72747469 		.ascii	"rttime_t\000"
ARM GAS  /tmp/ccbMFK8z.s 			page 75


 4155      6D655F74 
 4155      00
 4156              	.LASF122:
 4157 0126 5F736368 		.ascii	"_scheduler_init\000"
 4157      6564756C 
 4157      65725F69 
 4157      6E697400 
 4158              	.LASF10:
 4159 0136 6C6F6E67 		.ascii	"long long int\000"
 4159      206C6F6E 
 4159      6720696E 
 4159      7400
 4160              	.LASF1:
 4161 0144 7369676E 		.ascii	"signed char\000"
 4161      65642063 
 4161      68617200 
 4162              	.LASF108:
 4163 0150 62617365 		.ascii	"basePri\000"
 4163      50726900 
 4164              	.LASF69:
 4165 0158 76746C69 		.ascii	"vtlist\000"
 4165      737400
 4166              	.LASF107:
 4167 015f 706F7274 		.ascii	"port_unlock\000"
 4167      5F756E6C 
 4167      6F636B00 
 4168              	.LASF38:
 4169 016b 6D736771 		.ascii	"msgqueue\000"
 4169      75657565 
 4169      00
 4170              	.LASF34:
 4171 0174 73746174 		.ascii	"state\000"
 4171      6500
 4172              	.LASF7:
 4173 017a 6C6F6E67 		.ascii	"long int\000"
 4173      20696E74 
 4173      00
 4174              	.LASF118:
 4175 0183 71756575 		.ascii	"queue_dequeue\000"
 4175      655F6465 
 4175      71756575 
 4175      6500
 4176              	.LASF20:
 4177 0191 74737461 		.ascii	"tstate_t\000"
 4177      74655F74 
 4177      00
 4178              	.LASF59:
 4179 019a 66756E63 		.ascii	"func\000"
 4179      00
 4180              	.LASF43:
 4181 019f 73746174 		.ascii	"stats\000"
 4181      7300
 4182              	.LASF128:
 4183 01a5 63685363 		.ascii	"chSchIsPreemptionRequired\000"
 4183      68497350 
 4183      7265656D 
 4183      7074696F 
ARM GAS  /tmp/ccbMFK8z.s 			page 76


 4183      6E526571 
 4184              	.LASF131:
 4185 01bf 63685363 		.ascii	"chSchRescheduleS\000"
 4185      68526573 
 4185      63686564 
 4185      756C6553 
 4185      00
 4186              	.LASF8:
 4187 01d0 5F5F7569 		.ascii	"__uint32_t\000"
 4187      6E743332 
 4187      5F7400
 4188              	.LASF75:
 4189 01db 72656761 		.ascii	"regarm_t\000"
 4189      726D5F74 
 4189      00
 4190              	.LASF132:
 4191 01e4 63685363 		.ascii	"chSchDoReschedule\000"
 4191      68446F52 
 4191      65736368 
 4191      6564756C 
 4191      6500
 4192              	.LASF64:
 4193 01f6 63685F73 		.ascii	"ch_system_debug\000"
 4193      79737465 
 4193      6D5F6465 
 4193      62756700 
 4194              	.LASF37:
 4195 0206 77616974 		.ascii	"waiting\000"
 4195      696E6700 
 4196              	.LASF104:
 4197 020e 6D757465 		.ascii	"mutex_t\000"
 4197      785F7400 
 4198              	.LASF73:
 4199 0216 73797369 		.ascii	"sysinterval_t\000"
 4199      6E746572 
 4199      76616C5F 
 4199      7400
 4200              	.LASF25:
 4201 0224 636E745F 		.ascii	"cnt_t\000"
 4201      7400
 4202              	.LASF0:
 4203 022a 756E7369 		.ascii	"unsigned int\000"
 4203      676E6564 
 4203      20696E74 
 4203      00
 4204              	.LASF142:
 4205 0237 77616B65 		.ascii	"wakeup\000"
 4205      757000
 4206              	.LASF96:
 4207 023e 77747365 		.ascii	"wtsemp\000"
 4207      6D7000
 4208              	.LASF137:
 4209 0245 5F706F72 		.ascii	"_port_switch\000"
 4209      745F7377 
 4209      69746368 
 4209      00
 4210              	.LASF126:
ARM GAS  /tmp/ccbMFK8z.s 			page 77


 4211 0252 74696D65 		.ascii	"timeout\000"
 4211      6F757400 
 4212              	.LASF86:
 4213 025a 6E5F6972 		.ascii	"n_irq\000"
 4213      7100
 4214              	.LASF28:
 4215 0260 71756575 		.ascii	"queue\000"
 4215      6500
 4216              	.LASF42:
 4217 0266 6D706F6F 		.ascii	"mpool\000"
 4217      6C00
 4218              	.LASF4:
 4219 026c 73686F72 		.ascii	"short unsigned int\000"
 4219      7420756E 
 4219      7369676E 
 4219      65642069 
 4219      6E7400
 4220              	.LASF90:
 4221 027f 6B65726E 		.ascii	"kernel_stats_t\000"
 4221      656C5F73 
 4221      74617473 
 4221      5F7400
 4222              	.LASF46:
 4223 028e 63685F74 		.ascii	"ch_thread\000"
 4223      68726561 
 4223      6400
 4224              	.LASF32:
 4225 0298 6E616D65 		.ascii	"name\000"
 4225      00
 4226              	.LASF23:
 4227 029d 6D73675F 		.ascii	"msg_t\000"
 4227      7400
 4228              	.LASF83:
 4229 02a3 6C617374 		.ascii	"last\000"
 4229      00
 4230              	.LASF26:
 4231 02a8 75636E74 		.ascii	"ucnt_t\000"
 4231      5F7400
 4232              	.LASF39:
 4233 02af 6570656E 		.ascii	"epending\000"
 4233      64696E67 
 4233      00
 4234              	.LASF66:
 4235 02b8 63685F73 		.ascii	"ch_system_t\000"
 4235      79737465 
 4235      6D5F7400 
 4236              	.LASF139:
 4237 02c4 474E5520 		.ascii	"GNU C 4.9.3 20150529 (prerelease) -mcpu=cortex-m4 -"
 4237      4320342E 
 4237      392E3320 
 4237      32303135 
 4237      30353239 
 4238 02f7 6D666C6F 		.ascii	"mfloat-abi=hard -mfpu=fpv4-sp-d16 -mno-thumb-interw"
 4238      61742D61 
 4238      62693D68 
 4238      61726420 
 4238      2D6D6670 
ARM GAS  /tmp/ccbMFK8z.s 			page 78


 4239 032a 6F726B20 		.ascii	"ork -mthumb -g -Os -fomit-frame-pointer -falign-fun"
 4239      2D6D7468 
 4239      756D6220 
 4239      2D67202D 
 4239      4F73202D 
 4240 035d 6374696F 		.ascii	"ctions=16 -ffunction-sections -fdata-sections -fno-"
 4240      6E733D31 
 4240      36202D66 
 4240      66756E63 
 4240      74696F6E 
 4241 0390 636F6D6D 		.ascii	"common -fsingle-precision-constant\000"
 4241      6F6E202D 
 4241      6673696E 
 4241      676C652D 
 4241      70726563 
 4242              	.LASF93:
 4243 03b3 77746F62 		.ascii	"wtobjp\000"
 4243      6A7000
 4244              	.LASF89:
 4245 03ba 6D5F6372 		.ascii	"m_crit_isr\000"
 4245      69745F69 
 4245      737200
 4246              	.LASF53:
 4247 03c5 63685F72 		.ascii	"ch_ready_list\000"
 4247      65616479 
 4247      5F6C6973 
 4247      7400
 4248              	.LASF138:
 4249 03d3 63685654 		.ascii	"chVTDoSetI\000"
 4249      446F5365 
 4249      744900
 4250              	.LASF140:
 4251 03de 2E2E2F2E 		.ascii	"../../modules/ChibiOS/os/rt/src/chschd.c\000"
 4251      2E2F6D6F 
 4251      64756C65 
 4251      732F4368 
 4251      6962694F 
 4252              	.LASF76:
 4253 0407 73746B61 		.ascii	"stkalign_t\000"
 4253      6C69676E 
 4253      5F7400
 4254              	.LASF30:
 4255 0412 6E657765 		.ascii	"newer\000"
 4255      7200
 4256              	.LASF41:
 4257 0418 7265616C 		.ascii	"realprio\000"
 4257      7072696F 
 4257      00
 4258              	.LASF74:
 4259 0421 73697A65 		.ascii	"sizetype\000"
 4259      74797065 
 4259      00
 4260              	.LASF44:
 4261 042a 74687265 		.ascii	"thread_reference_t\000"
 4261      61645F72 
 4261      65666572 
 4261      656E6365 
ARM GAS  /tmp/ccbMFK8z.s 			page 79


 4261      5F7400
 4262              	.LASF61:
 4263 043d 63685F76 		.ascii	"ch_virtual_timers_list\000"
 4263      69727475 
 4263      616C5F74 
 4263      696D6572 
 4263      735F6C69 
 4264              	.LASF129:
 4265 0454 63685363 		.ascii	"chSchDoRescheduleBehind\000"
 4265      68446F52 
 4265      65736368 
 4265      6564756C 
 4265      65426568 
 4266              	.LASF77:
 4267 046c 706F7274 		.ascii	"port_context\000"
 4267      5F636F6E 
 4267      74657874 
 4267      00
 4268              	.LASF80:
 4269 0479 746D5F63 		.ascii	"tm_calibration_t\000"
 4269      616C6962 
 4269      72617469 
 4269      6F6E5F74 
 4269      00
 4270              	.LASF29:
 4271 048a 7072696F 		.ascii	"prio\000"
 4271      00
 4272              	.LASF134:
 4273 048f 5F737461 		.ascii	"_stats_start_measure_crit_isr\000"
 4273      74735F73 
 4273      74617274 
 4273      5F6D6561 
 4273      73757265 
 4274              	.LASF54:
 4275 04ad 63757272 		.ascii	"current\000"
 4275      656E7400 
 4276              	.LASF11:
 4277 04b5 5F5F7569 		.ascii	"__uint64_t\000"
 4277      6E743634 
 4277      5F7400
 4278              	.LASF84:
 4279 04c0 63756D75 		.ascii	"cumulative\000"
 4279      6C617469 
 4279      766500
 4280              	.LASF21:
 4281 04cb 74726566 		.ascii	"trefs_t\000"
 4281      735F7400 
 4282              	.LASF36:
 4283 04d3 72656673 		.ascii	"refs\000"
 4283      00
 4284              	.LASF56:
 4285 04d8 76697274 		.ascii	"virtual_timer_t\000"
 4285      75616C5F 
 4285      74696D65 
 4285      725F7400 
 4286              	.LASF22:
 4287 04e8 74707269 		.ascii	"tprio_t\000"
ARM GAS  /tmp/ccbMFK8z.s 			page 80


 4287      6F5F7400 
 4288              	.LASF117:
 4289 04f0 63685379 		.ascii	"chSysUnlockFromISR\000"
 4289      73556E6C 
 4289      6F636B46 
 4289      726F6D49 
 4289      535200
 4290              	.LASF87:
 4291 0503 6E5F6374 		.ascii	"n_ctxswc\000"
 4291      78737763 
 4291      00
 4292              	.LASF105:
 4293 050c 5F426F6F 		.ascii	"_Bool\000"
 4293      6C00
 4294              	.LASF14:
 4295 0512 696E7433 		.ascii	"int32_t\000"
 4295      325F7400 
 4296              	.LASF2:
 4297 051a 756E7369 		.ascii	"unsigned char\000"
 4297      676E6564 
 4297      20636861 
 4297      7200
 4298              	.LASF124:
 4299 0528 6E657773 		.ascii	"newstate\000"
 4299      74617465 
 4299      00
 4300              	.LASF3:
 4301 0531 73686F72 		.ascii	"short int\000"
 4301      7420696E 
 4301      7400
 4302              	.LASF62:
 4303 053b 6C617374 		.ascii	"lasttime\000"
 4303      74696D65 
 4303      00
 4304              	.LASF110:
 4305 0544 63685365 		.ascii	"chSemFastSignalI\000"
 4305      6D466173 
 4305      74536967 
 4305      6E616C49 
 4305      00
 4306              	.LASF98:
 4307 0555 65776D61 		.ascii	"ewmask\000"
 4307      736B00
 4308              	.LASF67:
 4309 055c 63685F73 		.ascii	"ch_system\000"
 4309      79737465 
 4309      6D00
 4310              	.LASF19:
 4311 0566 746D6F64 		.ascii	"tmode_t\000"
 4311      655F7400 
 4312              	.LASF121:
 4313 056e 5F5F6675 		.ascii	"__func__\000"
 4313      6E635F5F 
 4313      00
 4314              	.LASF114:
 4315 0577 63685654 		.ascii	"chVTIsArmedI\000"
 4315      49734172 
ARM GAS  /tmp/ccbMFK8z.s 			page 81


 4315      6D656449 
 4315      00
 4316              	.LASF103:
 4317 0584 73656D61 		.ascii	"semaphore_t\000"
 4317      70686F72 
 4317      655F7400 
 4318              	.LASF57:
 4319 0590 63685F76 		.ascii	"ch_virtual_timer\000"
 4319      69727475 
 4319      616C5F74 
 4319      696D6572 
 4319      00
 4320              	.LASF99:
 4321 05a1 63685F73 		.ascii	"ch_semaphore\000"
 4321      656D6170 
 4321      686F7265 
 4321      00
 4322              	.LASF123:
 4323 05ae 63685363 		.ascii	"chSchGoSleepS\000"
 4323      68476F53 
 4323      6C656570 
 4323      5300
 4324              	.LASF120:
 4325 05bc 63685363 		.ascii	"chSchReadyAheadI\000"
 4325      68526561 
 4325      64794168 
 4325      65616449 
 4325      00
 4326              	.LASF15:
 4327 05cd 75696E74 		.ascii	"uint32_t\000"
 4327      33325F74 
 4327      00
 4328              	.LASF97:
 4329 05d6 77746D74 		.ascii	"wtmtxp\000"
 4329      787000
 4330              	.LASF119:
 4331 05dd 63685363 		.ascii	"chSchReadyI\000"
 4331      68526561 
 4331      64794900 
 4332              	.LASF47:
 4333 05e9 63685F74 		.ascii	"ch_threads_list\000"
 4333      68726561 
 4333      64735F6C 
 4333      69737400 
 4334              	.LASF101:
 4335 05f9 6F776E65 		.ascii	"owner\000"
 4335      7200
 4336              	.LASF9:
 4337 05ff 6C6F6E67 		.ascii	"long unsigned int\000"
 4337      20756E73 
 4337      69676E65 
 4337      6420696E 
 4337      7400
 4338              	.LASF33:
 4339 0611 77616261 		.ascii	"wabase\000"
 4339      736500
 4340              	.LASF102:
ARM GAS  /tmp/ccbMFK8z.s 			page 82


 4341 0618 63686172 		.ascii	"char\000"
 4341      00
 4342              	.LASF31:
 4343 061d 6F6C6465 		.ascii	"older\000"
 4343      7200
 4344              	.LASF6:
 4345 0623 5F5F696E 		.ascii	"__int32_t\000"
 4345      7433325F 
 4345      7400
 4346              	.LASF112:
 4347 062d 706F7274 		.ascii	"port_unlock_from_isr\000"
 4347      5F756E6C 
 4347      6F636B5F 
 4347      66726F6D 
 4347      5F697372 
 4348              	.LASF27:
 4349 0642 74687265 		.ascii	"thread_t\000"
 4349      61645F74 
 4349      00
 4350              	.LASF81:
 4351 064b 62657374 		.ascii	"best\000"
 4351      00
 4352              	.LASF115:
 4353 0650 71756575 		.ascii	"queue_fifo_remove\000"
 4353      655F6669 
 4353      666F5F72 
 4353      656D6F76 
 4353      6500
 4354              	.LASF72:
 4355 0662 73797374 		.ascii	"systime_t\000"
 4355      696D655F 
 4355      7400
 4356              	.LASF55:
 4357 066c 76746675 		.ascii	"vtfunc_t\000"
 4357      6E635F74 
 4357      00
 4358              	.LASF109:
 4359 0675 5F5F7365 		.ascii	"__set_BASEPRI\000"
 4359      745F4241 
 4359      53455052 
 4359      4900
 4360              	.LASF65:
 4361 0683 70616E69 		.ascii	"panic_msg\000"
 4361      635F6D73 
 4361      6700
 4362              	.LASF79:
 4363 068d 6F666673 		.ascii	"offset\000"
 4363      657400
 4364              	.LASF71:
 4365 0694 6B65726E 		.ascii	"kernel_stats\000"
 4365      656C5F73 
 4365      74617473 
 4365      00
 4366              	.LASF141:
 4367 06a1 2F686F6D 		.ascii	"/home/kozinalexey/f4by/ardupilot/build/F4BY\000"
 4367      652F6B6F 
 4367      7A696E61 
ARM GAS  /tmp/ccbMFK8z.s 			page 83


 4367      6C657865 
 4367      792F6634 
 4368              	.LASF17:
 4369 06cd 7274636E 		.ascii	"rtcnt_t\000"
 4369      745F7400 
 4370              	.LASF111:
 4371 06d5 706F7274 		.ascii	"port_lock_from_isr\000"
 4371      5F6C6F63 
 4371      6B5F6672 
 4371      6F6D5F69 
 4371      737200
 4372              	.LASF127:
 4373 06e8 63685363 		.ascii	"chSchWakeupS\000"
 4373      6857616B 
 4373      65757053 
 4373      00
 4374              	.LASF49:
 4375 06f5 74687265 		.ascii	"threads_queue_t\000"
 4375      6164735F 
 4375      71756575 
 4375      655F7400 
 4376              	.LASF100:
 4377 0705 63685F6D 		.ascii	"ch_mutex\000"
 4377      75746578 
 4377      00
 4378              	.LASF68:
 4379 070e 726C6973 		.ascii	"rlist\000"
 4379      7400
 4380              	.LASF13:
 4381 0714 75696E74 		.ascii	"uint8_t\000"
 4381      385F7400 
 4382              	.LASF35:
 4383 071c 666C6167 		.ascii	"flags\000"
 4383      7300
 4384              	.LASF136:
 4385 0722 5F737461 		.ascii	"_stats_ctxswc\000"
 4385      74735F63 
 4385      74787377 
 4385      6300
 4386              	.LASF116:
 4387 0730 63685379 		.ascii	"chSysLockFromISR\000"
 4387      734C6F63 
 4387      6B46726F 
 4387      6D495352 
 4387      00
 4388              	.LASF45:
 4389 0741 74687265 		.ascii	"threads_list_t\000"
 4389      6164735F 
 4389      6C697374 
 4389      5F7400
 4390              	.LASF125:
 4391 0750 63685363 		.ascii	"chSchGoSleepTimeoutS\000"
 4391      68476F53 
 4391      6C656570 
 4391      54696D65 
 4391      6F757453 
 4392              	.LASF143:
ARM GAS  /tmp/ccbMFK8z.s 			page 84


 4393 0765 63685363 		.ascii	"chSchIsRescRequiredI\000"
 4393      68497352 
 4393      65736352 
 4393      65717569 
 4393      72656449 
 4394              	.LASF135:
 4395 077a 5F737461 		.ascii	"_stats_stop_measure_crit_isr\000"
 4395      74735F73 
 4395      746F705F 
 4395      6D656173 
 4395      7572655F 
 4396              	.LASF40:
 4397 0797 6D74786C 		.ascii	"mtxlist\000"
 4397      69737400 
 4398              	.LASF88:
 4399 079f 6D5F6372 		.ascii	"m_crit_thd\000"
 4399      69745F74 
 4399      686400
 4400              		.ident	"GCC: (15:4.9.3+svn231177-1) 4.9.3 20150529 (prerelease)"
ARM GAS  /tmp/ccbMFK8z.s 			page 85


DEFINED SYMBOLS
                            *ABS*:0000000000000000 chschd.c
     /tmp/ccbMFK8z.s:21     .text._scheduler_init:0000000000000000 $t
     /tmp/ccbMFK8z.s:26     .text._scheduler_init:0000000000000000 _scheduler_init
     /tmp/ccbMFK8z.s:62     .text._scheduler_init:0000000000000010 $d
     /tmp/ccbMFK8z.s:67     .text.chSchReadyI:0000000000000000 $t
     /tmp/ccbMFK8z.s:72     .text.chSchReadyI:0000000000000000 chSchReadyI
     /tmp/ccbMFK8z.s:112    .text.chSchReadyI:0000000000000020 $d
     /tmp/ccbMFK8z.s:117    .text.wakeup:0000000000000000 $t
     /tmp/ccbMFK8z.s:121    .text.wakeup:0000000000000000 wakeup
     /tmp/ccbMFK8z.s:167    .text.wakeup:000000000000001c $d
     /tmp/ccbMFK8z.s:175    .text.wakeup:0000000000000024 $t
     /tmp/ccbMFK8z.s:265    .text.chSchReadyAheadI:0000000000000000 $t
     /tmp/ccbMFK8z.s:270    .text.chSchReadyAheadI:0000000000000000 chSchReadyAheadI
     /tmp/ccbMFK8z.s:310    .text.chSchReadyAheadI:0000000000000020 $d
     /tmp/ccbMFK8z.s:315    .text.chSchGoSleepS:0000000000000000 $t
     /tmp/ccbMFK8z.s:320    .text.chSchGoSleepS:0000000000000000 chSchGoSleepS
     /tmp/ccbMFK8z.s:379    .text.chSchGoSleepS:000000000000002c $d
     /tmp/ccbMFK8z.s:384    .text.chSchGoSleepTimeoutS:0000000000000000 $t
     /tmp/ccbMFK8z.s:389    .text.chSchGoSleepTimeoutS:0000000000000000 chSchGoSleepTimeoutS
     /tmp/ccbMFK8z.s:450    .text.chSchGoSleepTimeoutS:0000000000000034 $d
     /tmp/ccbMFK8z.s:456    .text.chSchWakeupS:0000000000000000 $t
     /tmp/ccbMFK8z.s:461    .text.chSchWakeupS:0000000000000000 chSchWakeupS
     /tmp/ccbMFK8z.s:540    .text.chSchWakeupS:0000000000000040 $d
     /tmp/ccbMFK8z.s:545    .text.chSchIsPreemptionRequired:0000000000000000 $t
     /tmp/ccbMFK8z.s:550    .text.chSchIsPreemptionRequired:0000000000000000 chSchIsPreemptionRequired
     /tmp/ccbMFK8z.s:575    .text.chSchIsPreemptionRequired:0000000000000014 $d
     /tmp/ccbMFK8z.s:580    .text.chSchDoRescheduleBehind:0000000000000000 $t
     /tmp/ccbMFK8z.s:585    .text.chSchDoRescheduleBehind:0000000000000000 chSchDoRescheduleBehind
     /tmp/ccbMFK8z.s:649    .text.chSchDoRescheduleBehind:0000000000000030 $d
     /tmp/ccbMFK8z.s:654    .text.chSchDoRescheduleAhead:0000000000000000 $t
     /tmp/ccbMFK8z.s:659    .text.chSchDoRescheduleAhead:0000000000000000 chSchDoRescheduleAhead
     /tmp/ccbMFK8z.s:723    .text.chSchDoRescheduleAhead:0000000000000030 $d
     /tmp/ccbMFK8z.s:728    .text.chSchRescheduleS:0000000000000000 $t
     /tmp/ccbMFK8z.s:733    .text.chSchRescheduleS:0000000000000000 chSchRescheduleS
     /tmp/ccbMFK8z.s:761    .text.chSchRescheduleS:0000000000000014 $d
     /tmp/ccbMFK8z.s:766    .text.chSchDoReschedule:0000000000000000 $t
     /tmp/ccbMFK8z.s:771    .text.chSchDoReschedule:0000000000000000 chSchDoReschedule
     /tmp/ccbMFK8z.s:835    .text.chSchDoReschedule:0000000000000030 $d
     /tmp/ccbMFK8z.s:845    .bss.ch:0000000000000000 ch
     /tmp/ccbMFK8z.s:841    .bss.ch:0000000000000000 $d
                     .debug_frame:0000000000000010 $d

UNDEFINED SYMBOLS
_stats_start_measure_crit_isr
_stats_stop_measure_crit_isr
_stats_ctxswc
_port_switch
chVTDoSetI
chVTDoResetI
