ARM GAS  /tmp/ccKhn5WN.s 			page 1


   1              		.syntax unified
   2              		.cpu cortex-m4
   3              		.eabi_attribute 27, 1
   4              		.eabi_attribute 28, 1
   5              		.fpu fpv4-sp-d16
   6              		.eabi_attribute 20, 1
   7              		.eabi_attribute 21, 1
   8              		.eabi_attribute 23, 3
   9              		.eabi_attribute 24, 1
  10              		.eabi_attribute 25, 1
  11              		.eabi_attribute 26, 1
  12              		.eabi_attribute 30, 4
  13              		.eabi_attribute 34, 1
  14              		.eabi_attribute 18, 4
  15              		.thumb
  16              		.file	"chstats.c"
  17              		.text
  18              	.Ltext0:
  19              		.cfi_sections	.debug_frame
  20              		.section	.text._stats_init,"ax",%progbits
  21              		.align	1
  22              		.global	_stats_init
  23              		.thumb
  24              		.thumb_func
  25              		.type	_stats_init, %function
  26              	_stats_init:
  27              	.LFB290:
  28              		.file 1 "../../modules/ChibiOS/os/rt/src/chstats.c"
  29              		.loc 1 62 0
  30              		.cfi_startproc
  31              		@ args = 0, pretend = 0, frame = 0
  32              		@ frame_needed = 0, uses_anonymous_args = 0
  33 0000 10B5     		push	{r4, lr}
  34              		.cfi_def_cfa_offset 8
  35              		.cfi_offset 4, -8
  36              		.cfi_offset 14, -4
  37              		.loc 1 64 0
  38 0002 084C     		ldr	r4, .L2
  39 0004 0023     		movs	r3, #0
  40              		.loc 1 66 0
  41 0006 04F1A000 		add	r0, r4, #160
  42              		.loc 1 64 0
  43 000a C4F89830 		str	r3, [r4, #152]
  44              		.loc 1 65 0
  45 000e C4F89C30 		str	r3, [r4, #156]
  46              		.loc 1 66 0
  47 0012 FFF7FEFF 		bl	chTMObjectInit
  48              	.LVL0:
  49              		.loc 1 67 0
  50 0016 04F1B800 		add	r0, r4, #184
  51              		.loc 1 68 0
  52 001a BDE81040 		pop	{r4, lr}
  53              		.cfi_restore 14
  54              		.cfi_restore 4
  55              		.cfi_def_cfa_offset 0
  56              		.loc 1 67 0
  57 001e FFF7FEBF 		b	chTMObjectInit
ARM GAS  /tmp/ccKhn5WN.s 			page 2


  58              	.LVL1:
  59              	.L3:
  60 0022 00BF     		.align	2
  61              	.L2:
  62 0024 00000000 		.word	ch
  63              		.cfi_endproc
  64              	.LFE290:
  65              		.size	_stats_init, .-_stats_init
  66              		.section	.text._stats_increase_irq,"ax",%progbits
  67              		.align	1
  68              		.global	_stats_increase_irq
  69              		.thumb
  70              		.thumb_func
  71              		.type	_stats_increase_irq, %function
  72              	_stats_increase_irq:
  73              	.LFB291:
  74              		.loc 1 73 0
  75              		.cfi_startproc
  76              		@ args = 0, pretend = 0, frame = 0
  77              		@ frame_needed = 0, uses_anonymous_args = 0
  78              		@ link register save eliminated.
  79              	.LVL2:
  80              	.LBB24:
  81              	.LBB25:
  82              	.LBB26:
  83              	.LBB27:
  84              		.file 2 "../../modules/ChibiOS/os/common/ext/ARM/CMSIS/Core/Include/cmsis_gcc.h"
  85              		.loc 2 493 0
  86 0000 2023     		movs	r3, #32
  87              	@ 493 "../../modules/ChibiOS/os/common/ext/ARM/CMSIS/Core/Include/cmsis_gcc.h" 1
  88 0002 83F31188 		MSR basepri, r3
  89              	@ 0 "" 2
  90              		.thumb
  91              	.LBE27:
  92              	.LBE26:
  93              	.LBE25:
  94              	.LBE24:
  95              		.loc 1 76 0
  96 0006 054A     		ldr	r2, .L5
  97 0008 D2F89830 		ldr	r3, [r2, #152]
  98 000c 0133     		adds	r3, r3, #1
  99 000e C2F89830 		str	r3, [r2, #152]
 100              	.LVL3:
 101              	.LBB28:
 102              	.LBB29:
 103              	.LBB30:
 104              	.LBB31:
 105              		.loc 2 493 0
 106 0012 0023     		movs	r3, #0
 107              	@ 493 "../../modules/ChibiOS/os/common/ext/ARM/CMSIS/Core/Include/cmsis_gcc.h" 1
 108 0014 83F31188 		MSR basepri, r3
 109              	@ 0 "" 2
 110              		.thumb
 111 0018 7047     		bx	lr
 112              	.L6:
 113 001a 00BF     		.align	2
 114              	.L5:
ARM GAS  /tmp/ccKhn5WN.s 			page 3


 115 001c 00000000 		.word	ch
 116              	.LBE31:
 117              	.LBE30:
 118              	.LBE29:
 119              	.LBE28:
 120              		.cfi_endproc
 121              	.LFE291:
 122              		.size	_stats_increase_irq, .-_stats_increase_irq
 123              		.section	.text._stats_ctxswc,"ax",%progbits
 124              		.align	1
 125              		.global	_stats_ctxswc
 126              		.thumb
 127              		.thumb_func
 128              		.type	_stats_ctxswc, %function
 129              	_stats_ctxswc:
 130              	.LFB292:
 131              		.loc 1 86 0
 132              		.cfi_startproc
 133              		@ args = 0, pretend = 0, frame = 0
 134              		@ frame_needed = 0, uses_anonymous_args = 0
 135              		@ link register save eliminated.
 136              	.LVL4:
 137              		.loc 1 88 0
 138 0000 064A     		ldr	r2, .L8
 139 0002 D2F89C30 		ldr	r3, [r2, #156]
 140 0006 0133     		adds	r3, r3, #1
 141 0008 C2F89C30 		str	r3, [r2, #156]
 142              		.loc 1 89 0
 143 000c 00F14803 		add	r3, r0, #72
 144 0010 01F14800 		add	r0, r1, #72
 145              	.LVL5:
 146 0014 1946     		mov	r1, r3
 147              	.LVL6:
 148 0016 FFF7FEBF 		b	chTMChainMeasurementToX
 149              	.LVL7:
 150              	.L9:
 151 001a 00BF     		.align	2
 152              	.L8:
 153 001c 00000000 		.word	ch
 154              		.cfi_endproc
 155              	.LFE292:
 156              		.size	_stats_ctxswc, .-_stats_ctxswc
 157              		.section	.text._stats_start_measure_crit_thd,"ax",%progbits
 158              		.align	1
 159              		.global	_stats_start_measure_crit_thd
 160              		.thumb
 161              		.thumb_func
 162              		.type	_stats_start_measure_crit_thd, %function
 163              	_stats_start_measure_crit_thd:
 164              	.LFB293:
 165              		.loc 1 95 0
 166              		.cfi_startproc
 167              		@ args = 0, pretend = 0, frame = 0
 168              		@ frame_needed = 0, uses_anonymous_args = 0
 169              		@ link register save eliminated.
 170              		.loc 1 97 0
 171 0000 0148     		ldr	r0, .L11
ARM GAS  /tmp/ccKhn5WN.s 			page 4


 172 0002 FFF7FEBF 		b	chTMStartMeasurementX
 173              	.LVL8:
 174              	.L12:
 175 0006 00BF     		.align	2
 176              	.L11:
 177 0008 A0000000 		.word	ch+160
 178              		.cfi_endproc
 179              	.LFE293:
 180              		.size	_stats_start_measure_crit_thd, .-_stats_start_measure_crit_thd
 181              		.section	.text._stats_stop_measure_crit_thd,"ax",%progbits
 182              		.align	1
 183              		.global	_stats_stop_measure_crit_thd
 184              		.thumb
 185              		.thumb_func
 186              		.type	_stats_stop_measure_crit_thd, %function
 187              	_stats_stop_measure_crit_thd:
 188              	.LFB294:
 189              		.loc 1 103 0
 190              		.cfi_startproc
 191              		@ args = 0, pretend = 0, frame = 0
 192              		@ frame_needed = 0, uses_anonymous_args = 0
 193              		@ link register save eliminated.
 194              		.loc 1 105 0
 195 0000 0148     		ldr	r0, .L14
 196 0002 FFF7FEBF 		b	chTMStopMeasurementX
 197              	.LVL9:
 198              	.L15:
 199 0006 00BF     		.align	2
 200              	.L14:
 201 0008 A0000000 		.word	ch+160
 202              		.cfi_endproc
 203              	.LFE294:
 204              		.size	_stats_stop_measure_crit_thd, .-_stats_stop_measure_crit_thd
 205              		.section	.text._stats_start_measure_crit_isr,"ax",%progbits
 206              		.align	1
 207              		.global	_stats_start_measure_crit_isr
 208              		.thumb
 209              		.thumb_func
 210              		.type	_stats_start_measure_crit_isr, %function
 211              	_stats_start_measure_crit_isr:
 212              	.LFB295:
 213              		.loc 1 111 0
 214              		.cfi_startproc
 215              		@ args = 0, pretend = 0, frame = 0
 216              		@ frame_needed = 0, uses_anonymous_args = 0
 217              		@ link register save eliminated.
 218              		.loc 1 113 0
 219 0000 0148     		ldr	r0, .L17
 220 0002 FFF7FEBF 		b	chTMStartMeasurementX
 221              	.LVL10:
 222              	.L18:
 223 0006 00BF     		.align	2
 224              	.L17:
 225 0008 B8000000 		.word	ch+184
 226              		.cfi_endproc
 227              	.LFE295:
 228              		.size	_stats_start_measure_crit_isr, .-_stats_start_measure_crit_isr
ARM GAS  /tmp/ccKhn5WN.s 			page 5


 229              		.section	.text._stats_stop_measure_crit_isr,"ax",%progbits
 230              		.align	1
 231              		.global	_stats_stop_measure_crit_isr
 232              		.thumb
 233              		.thumb_func
 234              		.type	_stats_stop_measure_crit_isr, %function
 235              	_stats_stop_measure_crit_isr:
 236              	.LFB296:
 237              		.loc 1 119 0
 238              		.cfi_startproc
 239              		@ args = 0, pretend = 0, frame = 0
 240              		@ frame_needed = 0, uses_anonymous_args = 0
 241              		@ link register save eliminated.
 242              		.loc 1 121 0
 243 0000 0148     		ldr	r0, .L20
 244 0002 FFF7FEBF 		b	chTMStopMeasurementX
 245              	.LVL11:
 246              	.L21:
 247 0006 00BF     		.align	2
 248              	.L20:
 249 0008 B8000000 		.word	ch+184
 250              		.cfi_endproc
 251              	.LFE296:
 252              		.size	_stats_stop_measure_crit_isr, .-_stats_stop_measure_crit_isr
 253              		.text
 254              	.Letext0:
 255              		.file 3 "/usr/include/newlib/machine/_default_types.h"
 256              		.file 4 "/usr/include/newlib/sys/_stdint.h"
 257              		.file 5 "../../modules/ChibiOS/os/common/ports/ARMCMx/compilers/GCC/chtypes.h"
 258              		.file 6 "../../modules/ChibiOS/os/rt/include/chsystypes.h"
 259              		.file 7 "../../modules/ChibiOS/os/rt/include/chschd.h"
 260              		.file 8 "../../modules/ChibiOS/os/rt/include/chtime.h"
 261              		.file 9 "../../modules/ChibiOS/os/common/ports/ARMCMx/chcore.h"
 262              		.file 10 "../../modules/ChibiOS/os/common/ports/ARMCMx/chcore_v7m.h"
 263              		.file 11 "../../modules/ChibiOS/os/rt/include/chtm.h"
 264              		.file 12 "../../modules/ChibiOS/os/rt/include/chstats.h"
 265              		.file 13 "../../modules/ChibiOS/os/rt/include/chsem.h"
 266              		.file 14 "../../modules/ChibiOS/os/rt/include/chmtx.h"
 267              		.file 15 "../../modules/ChibiOS/os/common/ext/ARM/CMSIS/Core/Include/core_cm4.h"
 268              		.section	.debug_info,"",%progbits
 269              	.Ldebug_info0:
 270 0000 C4090000 		.4byte	0x9c4
 271 0004 0400     		.2byte	0x4
 272 0006 00000000 		.4byte	.Ldebug_abbrev0
 273 000a 04       		.byte	0x4
 274 000b 01       		.uleb128 0x1
 275 000c DB010000 		.4byte	.LASF120
 276 0010 01       		.byte	0x1
 277 0011 7E060000 		.4byte	.LASF121
 278 0015 9F050000 		.4byte	.LASF122
 279 0019 00000000 		.4byte	.Ldebug_ranges0+0
 280 001d 00000000 		.4byte	0
 281 0021 00000000 		.4byte	.Ldebug_line0
 282 0025 02       		.uleb128 0x2
 283 0026 04       		.byte	0x4
 284 0027 05       		.byte	0x5
 285 0028 696E7400 		.ascii	"int\000"
ARM GAS  /tmp/ccKhn5WN.s 			page 6


 286 002c 03       		.uleb128 0x3
 287 002d 04       		.byte	0x4
 288 002e 07       		.byte	0x7
 289 002f CE010000 		.4byte	.LASF0
 290 0033 03       		.uleb128 0x3
 291 0034 01       		.byte	0x1
 292 0035 06       		.byte	0x6
 293 0036 08010000 		.4byte	.LASF1
 294 003a 04       		.uleb128 0x4
 295 003b 36000000 		.4byte	.LASF5
 296 003f 03       		.byte	0x3
 297 0040 1D       		.byte	0x1d
 298 0041 45000000 		.4byte	0x45
 299 0045 03       		.uleb128 0x3
 300 0046 01       		.byte	0x1
 301 0047 08       		.byte	0x8
 302 0048 85040000 		.4byte	.LASF2
 303 004c 03       		.uleb128 0x3
 304 004d 02       		.byte	0x2
 305 004e 05       		.byte	0x5
 306 004f A0040000 		.4byte	.LASF3
 307 0053 03       		.uleb128 0x3
 308 0054 02       		.byte	0x2
 309 0055 07       		.byte	0x7
 310 0056 E3020000 		.4byte	.LASF4
 311 005a 04       		.uleb128 0x4
 312 005b 39050000 		.4byte	.LASF6
 313 005f 03       		.byte	0x3
 314 0060 3F       		.byte	0x3f
 315 0061 65000000 		.4byte	0x65
 316 0065 03       		.uleb128 0x3
 317 0066 04       		.byte	0x4
 318 0067 05       		.byte	0x5
 319 0068 60010000 		.4byte	.LASF7
 320 006c 04       		.uleb128 0x4
 321 006d 7D010000 		.4byte	.LASF8
 322 0071 03       		.byte	0x3
 323 0072 41       		.byte	0x41
 324 0073 77000000 		.4byte	0x77
 325 0077 03       		.uleb128 0x3
 326 0078 04       		.byte	0x4
 327 0079 07       		.byte	0x7
 328 007a 15050000 		.4byte	.LASF9
 329 007e 03       		.uleb128 0x3
 330 007f 08       		.byte	0x8
 331 0080 05       		.byte	0x5
 332 0081 FA000000 		.4byte	.LASF10
 333 0085 04       		.uleb128 0x4
 334 0086 33040000 		.4byte	.LASF11
 335 008a 03       		.byte	0x3
 336 008b 5B       		.byte	0x5b
 337 008c 90000000 		.4byte	0x90
 338 0090 03       		.uleb128 0x3
 339 0091 08       		.byte	0x8
 340 0092 07       		.byte	0x7
 341 0093 94000000 		.4byte	.LASF12
 342 0097 04       		.uleb128 0x4
ARM GAS  /tmp/ccKhn5WN.s 			page 7


 343 0098 05060000 		.4byte	.LASF13
 344 009c 04       		.byte	0x4
 345 009d 14       		.byte	0x14
 346 009e 3A000000 		.4byte	0x3a
 347 00a2 04       		.uleb128 0x4
 348 00a3 7D040000 		.4byte	.LASF14
 349 00a7 04       		.byte	0x4
 350 00a8 1F       		.byte	0x1f
 351 00a9 5A000000 		.4byte	0x5a
 352 00ad 04       		.uleb128 0x4
 353 00ae E2040000 		.4byte	.LASF15
 354 00b2 04       		.byte	0x4
 355 00b3 20       		.byte	0x20
 356 00b4 6C000000 		.4byte	0x6c
 357 00b8 04       		.uleb128 0x4
 358 00b9 20000000 		.4byte	.LASF16
 359 00bd 04       		.byte	0x4
 360 00be 26       		.byte	0x26
 361 00bf 85000000 		.4byte	0x85
 362 00c3 04       		.uleb128 0x4
 363 00c4 CB050000 		.4byte	.LASF17
 364 00c8 05       		.byte	0x5
 365 00c9 27       		.byte	0x27
 366 00ca AD000000 		.4byte	0xad
 367 00ce 04       		.uleb128 0x4
 368 00cf F1000000 		.4byte	.LASF18
 369 00d3 05       		.byte	0x5
 370 00d4 28       		.byte	0x28
 371 00d5 B8000000 		.4byte	0xb8
 372 00d9 04       		.uleb128 0x4
 373 00da 3B030000 		.4byte	.LASF19
 374 00de 05       		.byte	0x5
 375 00df 2A       		.byte	0x2a
 376 00e0 97000000 		.4byte	0x97
 377 00e4 04       		.uleb128 0x4
 378 00e5 69010000 		.4byte	.LASF20
 379 00e9 05       		.byte	0x5
 380 00ea 2B       		.byte	0x2b
 381 00eb 97000000 		.4byte	0x97
 382 00ef 04       		.uleb128 0x4
 383 00f0 49040000 		.4byte	.LASF21
 384 00f4 05       		.byte	0x5
 385 00f5 2C       		.byte	0x2c
 386 00f6 97000000 		.4byte	0x97
 387 00fa 04       		.uleb128 0x4
 388 00fb 66040000 		.4byte	.LASF22
 389 00ff 05       		.byte	0x5
 390 0100 2E       		.byte	0x2e
 391 0101 AD000000 		.4byte	0xad
 392 0105 04       		.uleb128 0x4
 393 0106 14030000 		.4byte	.LASF23
 394 010a 05       		.byte	0x5
 395 010b 2F       		.byte	0x2f
 396 010c A2000000 		.4byte	0xa2
 397 0110 04       		.uleb128 0x4
 398 0111 5C030000 		.4byte	.LASF24
 399 0115 05       		.byte	0x5
ARM GAS  /tmp/ccKhn5WN.s 			page 8


 400 0116 31       		.byte	0x31
 401 0117 AD000000 		.4byte	0xad
 402 011b 04       		.uleb128 0x4
 403 011c BF010000 		.4byte	.LASF25
 404 0120 05       		.byte	0x5
 405 0121 33       		.byte	0x33
 406 0122 A2000000 		.4byte	0xa2
 407 0126 04       		.uleb128 0x4
 408 0127 1F030000 		.4byte	.LASF26
 409 012b 05       		.byte	0x5
 410 012c 34       		.byte	0x34
 411 012d AD000000 		.4byte	0xad
 412 0131 04       		.uleb128 0x4
 413 0132 5F050000 		.4byte	.LASF27
 414 0136 06       		.byte	0x6
 415 0137 34       		.byte	0x34
 416 0138 3C010000 		.4byte	0x13c
 417 013c 05       		.uleb128 0x5
 418 013d 0A030000 		.4byte	.LASF46
 419 0141 60       		.byte	0x60
 420 0142 07       		.byte	0x7
 421 0143 8E       		.byte	0x8e
 422 0144 27020000 		.4byte	0x227
 423 0148 06       		.uleb128 0x6
 424 0149 D7020000 		.4byte	.LASF28
 425 014d 07       		.byte	0x7
 426 014e 8F       		.byte	0x8f
 427 014f 5C020000 		.4byte	0x25c
 428 0153 00       		.byte	0
 429 0154 06       		.uleb128 0x6
 430 0155 08040000 		.4byte	.LASF29
 431 0159 07       		.byte	0x7
 432 015a 90       		.byte	0x90
 433 015b FA000000 		.4byte	0xfa
 434 015f 08       		.byte	0x8
 435 0160 07       		.uleb128 0x7
 436 0161 63747800 		.ascii	"ctx\000"
 437 0165 07       		.byte	0x7
 438 0166 91       		.byte	0x91
 439 0167 77040000 		.4byte	0x477
 440 016b 0C       		.byte	0xc
 441 016c 06       		.uleb128 0x6
 442 016d 8B030000 		.4byte	.LASF30
 443 0171 07       		.byte	0x7
 444 0172 93       		.byte	0x93
 445 0173 32020000 		.4byte	0x232
 446 0177 10       		.byte	0x10
 447 0178 06       		.uleb128 0x6
 448 0179 33050000 		.4byte	.LASF31
 449 017d 07       		.byte	0x7
 450 017e 94       		.byte	0x94
 451 017f 32020000 		.4byte	0x232
 452 0183 14       		.byte	0x14
 453 0184 06       		.uleb128 0x6
 454 0185 05030000 		.4byte	.LASF32
 455 0189 07       		.byte	0x7
 456 018a 9B       		.byte	0x9b
ARM GAS  /tmp/ccKhn5WN.s 			page 9


 457 018b 5D070000 		.4byte	0x75d
 458 018f 18       		.byte	0x18
 459 0190 06       		.uleb128 0x6
 460 0191 27050000 		.4byte	.LASF33
 461 0195 07       		.byte	0x7
 462 0196 A4       		.byte	0xa4
 463 0197 6F070000 		.4byte	0x76f
 464 019b 1C       		.byte	0x1c
 465 019c 06       		.uleb128 0x6
 466 019d 45010000 		.4byte	.LASF34
 467 01a1 07       		.byte	0x7
 468 01a2 A9       		.byte	0xa9
 469 01a3 E4000000 		.4byte	0xe4
 470 01a7 20       		.byte	0x20
 471 01a8 06       		.uleb128 0x6
 472 01a9 0D060000 		.4byte	.LASF35
 473 01ad 07       		.byte	0x7
 474 01ae AD       		.byte	0xad
 475 01af D9000000 		.4byte	0xd9
 476 01b3 21       		.byte	0x21
 477 01b4 06       		.uleb128 0x6
 478 01b5 51040000 		.4byte	.LASF36
 479 01b9 07       		.byte	0x7
 480 01ba B2       		.byte	0xb2
 481 01bb EF000000 		.4byte	0xef
 482 01bf 22       		.byte	0x22
 483 01c0 08       		.uleb128 0x8
 484 01c1 7500     		.ascii	"u\000"
 485 01c3 07       		.byte	0x7
 486 01c4 0301     		.2byte	0x103
 487 01c6 93060000 		.4byte	0x693
 488 01ca 24       		.byte	0x24
 489 01cb 09       		.uleb128 0x9
 490 01cc A1010000 		.4byte	.LASF37
 491 01d0 07       		.byte	0x7
 492 01d1 0801     		.2byte	0x108
 493 01d3 38020000 		.4byte	0x238
 494 01d7 28       		.byte	0x28
 495 01d8 09       		.uleb128 0x9
 496 01d9 C5010000 		.4byte	.LASF38
 497 01dd 07       		.byte	0x7
 498 01de 0E01     		.2byte	0x10e
 499 01e0 5C020000 		.4byte	0x25c
 500 01e4 2C       		.byte	0x2c
 501 01e5 09       		.uleb128 0x9
 502 01e6 26030000 		.4byte	.LASF39
 503 01ea 07       		.byte	0x7
 504 01eb 1401     		.2byte	0x114
 505 01ed 10010000 		.4byte	0x110
 506 01f1 34       		.byte	0x34
 507 01f2 09       		.uleb128 0x9
 508 01f3 A8060000 		.4byte	.LASF40
 509 01f7 07       		.byte	0x7
 510 01f8 1B01     		.2byte	0x11b
 511 01fa 57070000 		.4byte	0x757
 512 01fe 38       		.byte	0x38
 513 01ff 09       		.uleb128 0x9
ARM GAS  /tmp/ccKhn5WN.s 			page 10


 514 0200 91030000 		.4byte	.LASF41
 515 0204 07       		.byte	0x7
 516 0205 1F01     		.2byte	0x11f
 517 0207 FA000000 		.4byte	0xfa
 518 020b 3C       		.byte	0x3c
 519 020c 09       		.uleb128 0x9
 520 020d DD020000 		.4byte	.LASF42
 521 0211 07       		.byte	0x7
 522 0212 2601     		.2byte	0x126
 523 0214 0F030000 		.4byte	0x30f
 524 0218 40       		.byte	0x40
 525 0219 09       		.uleb128 0x9
 526 021a 77010000 		.4byte	.LASF43
 527 021e 07       		.byte	0x7
 528 021f 2C01     		.2byte	0x12c
 529 0221 44060000 		.4byte	0x644
 530 0225 48       		.byte	0x48
 531 0226 00       		.byte	0
 532 0227 04       		.uleb128 0x4
 533 0228 C0030000 		.4byte	.LASF44
 534 022c 06       		.byte	0x6
 535 022d 39       		.byte	0x39
 536 022e 32020000 		.4byte	0x232
 537 0232 0A       		.uleb128 0xa
 538 0233 04       		.byte	0x4
 539 0234 31010000 		.4byte	0x131
 540 0238 04       		.uleb128 0x4
 541 0239 46060000 		.4byte	.LASF45
 542 023d 06       		.byte	0x6
 543 023e 3E       		.byte	0x3e
 544 023f 43020000 		.4byte	0x243
 545 0243 05       		.uleb128 0x5
 546 0244 FF040000 		.4byte	.LASF47
 547 0248 04       		.byte	0x4
 548 0249 07       		.byte	0x7
 549 024a 7C       		.byte	0x7c
 550 024b 5C020000 		.4byte	0x25c
 551 024f 06       		.uleb128 0x6
 552 0250 EC000000 		.4byte	.LASF48
 553 0254 07       		.byte	0x7
 554 0255 7D       		.byte	0x7d
 555 0256 32020000 		.4byte	0x232
 556 025a 00       		.byte	0
 557 025b 00       		.byte	0
 558 025c 04       		.uleb128 0x4
 559 025d E6050000 		.4byte	.LASF49
 560 0261 06       		.byte	0x6
 561 0262 45       		.byte	0x45
 562 0263 67020000 		.4byte	0x267
 563 0267 05       		.uleb128 0x5
 564 0268 51000000 		.4byte	.LASF50
 565 026c 08       		.byte	0x8
 566 026d 07       		.byte	0x7
 567 026e 83       		.byte	0x83
 568 026f 8C020000 		.4byte	0x28c
 569 0273 06       		.uleb128 0x6
 570 0274 EC000000 		.4byte	.LASF48
ARM GAS  /tmp/ccKhn5WN.s 			page 11


 571 0278 07       		.byte	0x7
 572 0279 84       		.byte	0x84
 573 027a 32020000 		.4byte	0x232
 574 027e 00       		.byte	0
 575 027f 06       		.uleb128 0x6
 576 0280 40000000 		.4byte	.LASF51
 577 0284 07       		.byte	0x7
 578 0285 85       		.byte	0x85
 579 0286 32020000 		.4byte	0x232
 580 028a 04       		.byte	0x4
 581 028b 00       		.byte	0
 582 028c 04       		.uleb128 0x4
 583 028d 00000000 		.4byte	.LASF52
 584 0291 06       		.byte	0x6
 585 0292 4C       		.byte	0x4c
 586 0293 97020000 		.4byte	0x297
 587 0297 0B       		.uleb128 0xb
 588 0298 4E030000 		.4byte	.LASF53
 589 029c 1C       		.byte	0x1c
 590 029d 07       		.byte	0x7
 591 029e 5E01     		.2byte	0x15e
 592 02a0 F3020000 		.4byte	0x2f3
 593 02a4 09       		.uleb128 0x9
 594 02a5 D7020000 		.4byte	.LASF28
 595 02a9 07       		.byte	0x7
 596 02aa 5F01     		.2byte	0x15f
 597 02ac 5C020000 		.4byte	0x25c
 598 02b0 00       		.byte	0
 599 02b1 09       		.uleb128 0x9
 600 02b2 08040000 		.4byte	.LASF29
 601 02b6 07       		.byte	0x7
 602 02b7 6001     		.2byte	0x160
 603 02b9 FA000000 		.4byte	0xfa
 604 02bd 08       		.byte	0x8
 605 02be 08       		.uleb128 0x8
 606 02bf 63747800 		.ascii	"ctx\000"
 607 02c3 07       		.byte	0x7
 608 02c4 6201     		.2byte	0x162
 609 02c6 77040000 		.4byte	0x477
 610 02ca 0C       		.byte	0xc
 611 02cb 09       		.uleb128 0x9
 612 02cc 8B030000 		.4byte	.LASF30
 613 02d0 07       		.byte	0x7
 614 02d1 6501     		.2byte	0x165
 615 02d3 32020000 		.4byte	0x232
 616 02d7 10       		.byte	0x10
 617 02d8 09       		.uleb128 0x9
 618 02d9 33050000 		.4byte	.LASF31
 619 02dd 07       		.byte	0x7
 620 02de 6601     		.2byte	0x166
 621 02e0 32020000 		.4byte	0x232
 622 02e4 14       		.byte	0x14
 623 02e5 09       		.uleb128 0x9
 624 02e6 2B040000 		.4byte	.LASF54
 625 02ea 07       		.byte	0x7
 626 02eb 6901     		.2byte	0x169
 627 02ed 32020000 		.4byte	0x232
ARM GAS  /tmp/ccKhn5WN.s 			page 12


 628 02f1 18       		.byte	0x18
 629 02f2 00       		.byte	0
 630 02f3 04       		.uleb128 0x4
 631 02f4 77050000 		.4byte	.LASF55
 632 02f8 06       		.byte	0x6
 633 02f9 51       		.byte	0x51
 634 02fa FE020000 		.4byte	0x2fe
 635 02fe 0A       		.uleb128 0xa
 636 02ff 04       		.byte	0x4
 637 0300 04030000 		.4byte	0x304
 638 0304 0C       		.uleb128 0xc
 639 0305 0F030000 		.4byte	0x30f
 640 0309 0D       		.uleb128 0xd
 641 030a 0F030000 		.4byte	0x30f
 642 030e 00       		.byte	0
 643 030f 0E       		.uleb128 0xe
 644 0310 04       		.byte	0x4
 645 0311 04       		.uleb128 0x4
 646 0312 56040000 		.4byte	.LASF56
 647 0316 06       		.byte	0x6
 648 0317 56       		.byte	0x56
 649 0318 1C030000 		.4byte	0x31c
 650 031c 0B       		.uleb128 0xb
 651 031d C4040000 		.4byte	.LASF57
 652 0321 14       		.byte	0x14
 653 0322 07       		.byte	0x7
 654 0323 3901     		.2byte	0x139
 655 0325 6B030000 		.4byte	0x36b
 656 0329 09       		.uleb128 0x9
 657 032a EC000000 		.4byte	.LASF48
 658 032e 07       		.byte	0x7
 659 032f 3A01     		.2byte	0x13a
 660 0331 75070000 		.4byte	0x775
 661 0335 00       		.byte	0
 662 0336 09       		.uleb128 0x9
 663 0337 40000000 		.4byte	.LASF51
 664 033b 07       		.byte	0x7
 665 033c 3B01     		.2byte	0x13b
 666 033e 75070000 		.4byte	0x775
 667 0342 04       		.byte	0x4
 668 0343 09       		.uleb128 0x9
 669 0344 13000000 		.4byte	.LASF58
 670 0348 07       		.byte	0x7
 671 0349 3C01     		.2byte	0x13c
 672 034b 4F040000 		.4byte	0x44f
 673 034f 08       		.byte	0x8
 674 0350 09       		.uleb128 0x9
 675 0351 72010000 		.4byte	.LASF59
 676 0355 07       		.byte	0x7
 677 0356 3D01     		.2byte	0x13d
 678 0358 F3020000 		.4byte	0x2f3
 679 035c 0C       		.byte	0xc
 680 035d 08       		.uleb128 0x8
 681 035e 70617200 		.ascii	"par\000"
 682 0362 07       		.byte	0x7
 683 0363 3F01     		.2byte	0x13f
 684 0365 0F030000 		.4byte	0x30f
ARM GAS  /tmp/ccKhn5WN.s 			page 13


 685 0369 10       		.byte	0x10
 686 036a 00       		.byte	0
 687 036b 04       		.uleb128 0x4
 688 036c C7000000 		.4byte	.LASF60
 689 0370 06       		.byte	0x6
 690 0371 5B       		.byte	0x5b
 691 0372 76030000 		.4byte	0x376
 692 0376 0B       		.uleb128 0xb
 693 0377 D3030000 		.4byte	.LASF61
 694 037b 10       		.byte	0x10
 695 037c 07       		.byte	0x7
 696 037d 4901     		.2byte	0x149
 697 037f B8030000 		.4byte	0x3b8
 698 0383 09       		.uleb128 0x9
 699 0384 EC000000 		.4byte	.LASF48
 700 0388 07       		.byte	0x7
 701 0389 4A01     		.2byte	0x14a
 702 038b 75070000 		.4byte	0x775
 703 038f 00       		.byte	0
 704 0390 09       		.uleb128 0x9
 705 0391 40000000 		.4byte	.LASF51
 706 0395 07       		.byte	0x7
 707 0396 4C01     		.2byte	0x14c
 708 0398 75070000 		.4byte	0x775
 709 039c 04       		.byte	0x4
 710 039d 09       		.uleb128 0x9
 711 039e 13000000 		.4byte	.LASF58
 712 03a2 07       		.byte	0x7
 713 03a3 4E01     		.2byte	0x14e
 714 03a5 4F040000 		.4byte	0x44f
 715 03a9 08       		.byte	0x8
 716 03aa 09       		.uleb128 0x9
 717 03ab AA040000 		.4byte	.LASF62
 718 03af 07       		.byte	0x7
 719 03b0 5601     		.2byte	0x156
 720 03b2 44040000 		.4byte	0x444
 721 03b6 0C       		.byte	0xc
 722 03b7 00       		.byte	0
 723 03b8 04       		.uleb128 0x4
 724 03b9 62000000 		.4byte	.LASF63
 725 03bd 06       		.byte	0x6
 726 03be 60       		.byte	0x60
 727 03bf C3030000 		.4byte	0x3c3
 728 03c3 0B       		.uleb128 0xb
 729 03c4 91010000 		.4byte	.LASF64
 730 03c8 04       		.byte	0x4
 731 03c9 07       		.byte	0x7
 732 03ca 7001     		.2byte	0x170
 733 03cc DE030000 		.4byte	0x3de
 734 03d0 09       		.uleb128 0x9
 735 03d1 8E050000 		.4byte	.LASF65
 736 03d5 07       		.byte	0x7
 737 03d6 7801     		.2byte	0x178
 738 03d8 7B070000 		.4byte	0x77b
 739 03dc 00       		.byte	0
 740 03dd 00       		.byte	0
 741 03de 04       		.uleb128 0x4
ARM GAS  /tmp/ccKhn5WN.s 			page 14


 742 03df 2F030000 		.4byte	.LASF66
 743 03e3 06       		.byte	0x6
 744 03e4 65       		.byte	0x65
 745 03e5 E9030000 		.4byte	0x3e9
 746 03e9 0B       		.uleb128 0xb
 747 03ea BA040000 		.4byte	.LASF67
 748 03ee D0       		.byte	0xd0
 749 03ef 07       		.byte	0x7
 750 03f0 9001     		.2byte	0x190
 751 03f2 44040000 		.4byte	0x444
 752 03f6 09       		.uleb128 0x9
 753 03f7 FF050000 		.4byte	.LASF68
 754 03fb 07       		.byte	0x7
 755 03fc 9401     		.2byte	0x194
 756 03fe 8C020000 		.4byte	0x28c
 757 0402 00       		.byte	0
 758 0403 09       		.uleb128 0x9
 759 0404 1C010000 		.4byte	.LASF69
 760 0408 07       		.byte	0x7
 761 0409 9801     		.2byte	0x198
 762 040b 6B030000 		.4byte	0x36b
 763 040f 1C       		.byte	0x1c
 764 0410 08       		.uleb128 0x8
 765 0411 64626700 		.ascii	"dbg\000"
 766 0415 07       		.byte	0x7
 767 0416 9C01     		.2byte	0x19c
 768 0418 B8030000 		.4byte	0x3b8
 769 041c 2C       		.byte	0x2c
 770 041d 09       		.uleb128 0x9
 771 041e B4000000 		.4byte	.LASF70
 772 0422 07       		.byte	0x7
 773 0423 A001     		.2byte	0x1a0
 774 0425 31010000 		.4byte	0x131
 775 0429 30       		.byte	0x30
 776 042a 08       		.uleb128 0x8
 777 042b 746D00   		.ascii	"tm\000"
 778 042e 07       		.byte	0x7
 779 042f A501     		.2byte	0x1a5
 780 0431 F6050000 		.4byte	0x5f6
 781 0435 90       		.byte	0x90
 782 0436 09       		.uleb128 0x9
 783 0437 29000000 		.4byte	.LASF71
 784 043b 07       		.byte	0x7
 785 043c AB01     		.2byte	0x1ab
 786 043e 88060000 		.4byte	0x688
 787 0442 98       		.byte	0x98
 788 0443 00       		.byte	0
 789 0444 04       		.uleb128 0x4
 790 0445 6D050000 		.4byte	.LASF72
 791 0449 08       		.byte	0x8
 792 044a 6D       		.byte	0x6d
 793 044b AD000000 		.4byte	0xad
 794 044f 04       		.uleb128 0x4
 795 0450 B1010000 		.4byte	.LASF73
 796 0454 08       		.byte	0x8
 797 0455 79       		.byte	0x79
 798 0456 AD000000 		.4byte	0xad
ARM GAS  /tmp/ccKhn5WN.s 			page 15


 799 045a 03       		.uleb128 0x3
 800 045b 04       		.byte	0x4
 801 045c 07       		.byte	0x7
 802 045d B7030000 		.4byte	.LASF74
 803 0461 04       		.uleb128 0x4
 804 0462 88010000 		.4byte	.LASF75
 805 0466 09       		.byte	0x9
 806 0467 65       		.byte	0x65
 807 0468 0F030000 		.4byte	0x30f
 808 046c 04       		.uleb128 0x4
 809 046d 80030000 		.4byte	.LASF76
 810 0471 09       		.byte	0x9
 811 0472 6D       		.byte	0x6d
 812 0473 B8000000 		.4byte	0xb8
 813 0477 05       		.uleb128 0x5
 814 0478 EA030000 		.4byte	.LASF77
 815 047c 04       		.byte	0x4
 816 047d 09       		.byte	0x9
 817 047e 89       		.byte	0x89
 818 047f 8F040000 		.4byte	0x48f
 819 0483 07       		.uleb128 0x7
 820 0484 737000   		.ascii	"sp\000"
 821 0487 09       		.byte	0x9
 822 0488 8A       		.byte	0x8a
 823 0489 DB050000 		.4byte	0x5db
 824 048d 00       		.byte	0
 825 048e 00       		.byte	0
 826 048f 0B       		.uleb128 0xb
 827 0490 45000000 		.4byte	.LASF78
 828 0494 64       		.byte	0x64
 829 0495 0A       		.byte	0xa
 830 0496 5901     		.2byte	0x159
 831 0498 DB050000 		.4byte	0x5db
 832 049c 08       		.uleb128 0x8
 833 049d 73313600 		.ascii	"s16\000"
 834 04a1 0A       		.byte	0xa
 835 04a2 5B01     		.2byte	0x15b
 836 04a4 61040000 		.4byte	0x461
 837 04a8 00       		.byte	0
 838 04a9 08       		.uleb128 0x8
 839 04aa 73313700 		.ascii	"s17\000"
 840 04ae 0A       		.byte	0xa
 841 04af 5C01     		.2byte	0x15c
 842 04b1 61040000 		.4byte	0x461
 843 04b5 04       		.byte	0x4
 844 04b6 08       		.uleb128 0x8
 845 04b7 73313800 		.ascii	"s18\000"
 846 04bb 0A       		.byte	0xa
 847 04bc 5D01     		.2byte	0x15d
 848 04be 61040000 		.4byte	0x461
 849 04c2 08       		.byte	0x8
 850 04c3 08       		.uleb128 0x8
 851 04c4 73313900 		.ascii	"s19\000"
 852 04c8 0A       		.byte	0xa
 853 04c9 5E01     		.2byte	0x15e
 854 04cb 61040000 		.4byte	0x461
 855 04cf 0C       		.byte	0xc
ARM GAS  /tmp/ccKhn5WN.s 			page 16


 856 04d0 08       		.uleb128 0x8
 857 04d1 73323000 		.ascii	"s20\000"
 858 04d5 0A       		.byte	0xa
 859 04d6 5F01     		.2byte	0x15f
 860 04d8 61040000 		.4byte	0x461
 861 04dc 10       		.byte	0x10
 862 04dd 08       		.uleb128 0x8
 863 04de 73323100 		.ascii	"s21\000"
 864 04e2 0A       		.byte	0xa
 865 04e3 6001     		.2byte	0x160
 866 04e5 61040000 		.4byte	0x461
 867 04e9 14       		.byte	0x14
 868 04ea 08       		.uleb128 0x8
 869 04eb 73323200 		.ascii	"s22\000"
 870 04ef 0A       		.byte	0xa
 871 04f0 6101     		.2byte	0x161
 872 04f2 61040000 		.4byte	0x461
 873 04f6 18       		.byte	0x18
 874 04f7 08       		.uleb128 0x8
 875 04f8 73323300 		.ascii	"s23\000"
 876 04fc 0A       		.byte	0xa
 877 04fd 6201     		.2byte	0x162
 878 04ff 61040000 		.4byte	0x461
 879 0503 1C       		.byte	0x1c
 880 0504 08       		.uleb128 0x8
 881 0505 73323400 		.ascii	"s24\000"
 882 0509 0A       		.byte	0xa
 883 050a 6301     		.2byte	0x163
 884 050c 61040000 		.4byte	0x461
 885 0510 20       		.byte	0x20
 886 0511 08       		.uleb128 0x8
 887 0512 73323500 		.ascii	"s25\000"
 888 0516 0A       		.byte	0xa
 889 0517 6401     		.2byte	0x164
 890 0519 61040000 		.4byte	0x461
 891 051d 24       		.byte	0x24
 892 051e 08       		.uleb128 0x8
 893 051f 73323600 		.ascii	"s26\000"
 894 0523 0A       		.byte	0xa
 895 0524 6501     		.2byte	0x165
 896 0526 61040000 		.4byte	0x461
 897 052a 28       		.byte	0x28
 898 052b 08       		.uleb128 0x8
 899 052c 73323700 		.ascii	"s27\000"
 900 0530 0A       		.byte	0xa
 901 0531 6601     		.2byte	0x166
 902 0533 61040000 		.4byte	0x461
 903 0537 2C       		.byte	0x2c
 904 0538 08       		.uleb128 0x8
 905 0539 73323800 		.ascii	"s28\000"
 906 053d 0A       		.byte	0xa
 907 053e 6701     		.2byte	0x167
 908 0540 61040000 		.4byte	0x461
 909 0544 30       		.byte	0x30
 910 0545 08       		.uleb128 0x8
 911 0546 73323900 		.ascii	"s29\000"
 912 054a 0A       		.byte	0xa
ARM GAS  /tmp/ccKhn5WN.s 			page 17


 913 054b 6801     		.2byte	0x168
 914 054d 61040000 		.4byte	0x461
 915 0551 34       		.byte	0x34
 916 0552 08       		.uleb128 0x8
 917 0553 73333000 		.ascii	"s30\000"
 918 0557 0A       		.byte	0xa
 919 0558 6901     		.2byte	0x169
 920 055a 61040000 		.4byte	0x461
 921 055e 38       		.byte	0x38
 922 055f 08       		.uleb128 0x8
 923 0560 73333100 		.ascii	"s31\000"
 924 0564 0A       		.byte	0xa
 925 0565 6A01     		.2byte	0x16a
 926 0567 61040000 		.4byte	0x461
 927 056b 3C       		.byte	0x3c
 928 056c 08       		.uleb128 0x8
 929 056d 723400   		.ascii	"r4\000"
 930 0570 0A       		.byte	0xa
 931 0571 6C01     		.2byte	0x16c
 932 0573 61040000 		.4byte	0x461
 933 0577 40       		.byte	0x40
 934 0578 08       		.uleb128 0x8
 935 0579 723500   		.ascii	"r5\000"
 936 057c 0A       		.byte	0xa
 937 057d 6D01     		.2byte	0x16d
 938 057f 61040000 		.4byte	0x461
 939 0583 44       		.byte	0x44
 940 0584 08       		.uleb128 0x8
 941 0585 723600   		.ascii	"r6\000"
 942 0588 0A       		.byte	0xa
 943 0589 6E01     		.2byte	0x16e
 944 058b 61040000 		.4byte	0x461
 945 058f 48       		.byte	0x48
 946 0590 08       		.uleb128 0x8
 947 0591 723700   		.ascii	"r7\000"
 948 0594 0A       		.byte	0xa
 949 0595 6F01     		.2byte	0x16f
 950 0597 61040000 		.4byte	0x461
 951 059b 4C       		.byte	0x4c
 952 059c 08       		.uleb128 0x8
 953 059d 723800   		.ascii	"r8\000"
 954 05a0 0A       		.byte	0xa
 955 05a1 7001     		.2byte	0x170
 956 05a3 61040000 		.4byte	0x461
 957 05a7 50       		.byte	0x50
 958 05a8 08       		.uleb128 0x8
 959 05a9 723900   		.ascii	"r9\000"
 960 05ac 0A       		.byte	0xa
 961 05ad 7101     		.2byte	0x171
 962 05af 61040000 		.4byte	0x461
 963 05b3 54       		.byte	0x54
 964 05b4 08       		.uleb128 0x8
 965 05b5 72313000 		.ascii	"r10\000"
 966 05b9 0A       		.byte	0xa
 967 05ba 7201     		.2byte	0x172
 968 05bc 61040000 		.4byte	0x461
 969 05c0 58       		.byte	0x58
ARM GAS  /tmp/ccKhn5WN.s 			page 18


 970 05c1 08       		.uleb128 0x8
 971 05c2 72313100 		.ascii	"r11\000"
 972 05c6 0A       		.byte	0xa
 973 05c7 7301     		.2byte	0x173
 974 05c9 61040000 		.4byte	0x461
 975 05cd 5C       		.byte	0x5c
 976 05ce 08       		.uleb128 0x8
 977 05cf 6C7200   		.ascii	"lr\000"
 978 05d2 0A       		.byte	0xa
 979 05d3 7401     		.2byte	0x174
 980 05d5 61040000 		.4byte	0x461
 981 05d9 60       		.byte	0x60
 982 05da 00       		.byte	0
 983 05db 0A       		.uleb128 0xa
 984 05dc 04       		.byte	0x4
 985 05dd 8F040000 		.4byte	0x48f
 986 05e1 0F       		.uleb128 0xf
 987 05e2 04       		.byte	0x4
 988 05e3 0B       		.byte	0xb
 989 05e4 38       		.byte	0x38
 990 05e5 F6050000 		.4byte	0x5f6
 991 05e9 06       		.uleb128 0x6
 992 05ea 98050000 		.4byte	.LASF79
 993 05ee 0B       		.byte	0xb
 994 05ef 3C       		.byte	0x3c
 995 05f0 C3000000 		.4byte	0xc3
 996 05f4 00       		.byte	0
 997 05f5 00       		.byte	0
 998 05f6 04       		.uleb128 0x4
 999 05f7 F7030000 		.4byte	.LASF80
 1000 05fb 0B       		.byte	0xb
 1001 05fc 3D       		.byte	0x3d
 1002 05fd E1050000 		.4byte	0x5e1
 1003 0601 0F       		.uleb128 0xf
 1004 0602 18       		.byte	0x18
 1005 0603 0B       		.byte	0xb
 1006 0604 48       		.byte	0x48
 1007 0605 44060000 		.4byte	0x644
 1008 0609 06       		.uleb128 0x6
 1009 060a 68050000 		.4byte	.LASF81
 1010 060e 0B       		.byte	0xb
 1011 060f 49       		.byte	0x49
 1012 0610 C3000000 		.4byte	0xc3
 1013 0614 00       		.byte	0
 1014 0615 06       		.uleb128 0x6
 1015 0616 7B000000 		.4byte	.LASF82
 1016 061a 0B       		.byte	0xb
 1017 061b 4A       		.byte	0x4a
 1018 061c C3000000 		.4byte	0xc3
 1019 0620 04       		.byte	0x4
 1020 0621 06       		.uleb128 0x6
 1021 0622 1A030000 		.4byte	.LASF83
 1022 0626 0B       		.byte	0xb
 1023 0627 4B       		.byte	0x4b
 1024 0628 C3000000 		.4byte	0xc3
 1025 062c 08       		.byte	0x8
 1026 062d 07       		.uleb128 0x7
ARM GAS  /tmp/ccKhn5WN.s 			page 19


 1027 062e 6E00     		.ascii	"n\000"
 1028 0630 0B       		.byte	0xb
 1029 0631 4C       		.byte	0x4c
 1030 0632 26010000 		.4byte	0x126
 1031 0636 0C       		.byte	0xc
 1032 0637 06       		.uleb128 0x6
 1033 0638 3E040000 		.4byte	.LASF84
 1034 063c 0B       		.byte	0xb
 1035 063d 4D       		.byte	0x4d
 1036 063e CE000000 		.4byte	0xce
 1037 0642 10       		.byte	0x10
 1038 0643 00       		.byte	0
 1039 0644 04       		.uleb128 0x4
 1040 0645 81000000 		.4byte	.LASF85
 1041 0649 0B       		.byte	0xb
 1042 064a 4E       		.byte	0x4e
 1043 064b 01060000 		.4byte	0x601
 1044 064f 0F       		.uleb128 0xf
 1045 0650 38       		.byte	0x38
 1046 0651 0C       		.byte	0xc
 1047 0652 38       		.byte	0x38
 1048 0653 88060000 		.4byte	0x688
 1049 0657 06       		.uleb128 0x6
 1050 0658 D1020000 		.4byte	.LASF86
 1051 065c 0C       		.byte	0xc
 1052 065d 39       		.byte	0x39
 1053 065e 26010000 		.4byte	0x126
 1054 0662 00       		.byte	0
 1055 0663 06       		.uleb128 0x6
 1056 0664 6E040000 		.4byte	.LASF87
 1057 0668 0C       		.byte	0xc
 1058 0669 3A       		.byte	0x3a
 1059 066a 26010000 		.4byte	0x126
 1060 066e 04       		.byte	0x4
 1061 066f 06       		.uleb128 0x6
 1062 0670 B0060000 		.4byte	.LASF88
 1063 0674 0C       		.byte	0xc
 1064 0675 3B       		.byte	0x3b
 1065 0676 44060000 		.4byte	0x644
 1066 067a 08       		.byte	0x8
 1067 067b 06       		.uleb128 0x6
 1068 067c 43030000 		.4byte	.LASF89
 1069 0680 0C       		.byte	0xc
 1070 0681 3D       		.byte	0x3d
 1071 0682 44060000 		.4byte	0x644
 1072 0686 20       		.byte	0x20
 1073 0687 00       		.byte	0
 1074 0688 04       		.uleb128 0x4
 1075 0689 F6020000 		.4byte	.LASF90
 1076 068d 0C       		.byte	0xc
 1077 068e 3F       		.byte	0x3f
 1078 068f 4F060000 		.4byte	0x64f
 1079 0693 10       		.uleb128 0x10
 1080 0694 04       		.byte	0x4
 1081 0695 07       		.byte	0x7
 1082 0696 C6       		.byte	0xc6
 1083 0697 F5060000 		.4byte	0x6f5
ARM GAS  /tmp/ccKhn5WN.s 			page 20


 1084 069b 11       		.uleb128 0x11
 1085 069c 19000000 		.4byte	.LASF91
 1086 06a0 07       		.byte	0x7
 1087 06a1 CD       		.byte	0xcd
 1088 06a2 05010000 		.4byte	0x105
 1089 06a6 11       		.uleb128 0x11
 1090 06a7 AB000000 		.4byte	.LASF92
 1091 06ab 07       		.byte	0x7
 1092 06ac D4       		.byte	0xd4
 1093 06ad 05010000 		.4byte	0x105
 1094 06b1 11       		.uleb128 0x11
 1095 06b2 3F060000 		.4byte	.LASF93
 1096 06b6 07       		.byte	0x7
 1097 06b7 DB       		.byte	0xdb
 1098 06b8 0F030000 		.4byte	0x30f
 1099 06bc 11       		.uleb128 0x11
 1100 06bd 0D000000 		.4byte	.LASF94
 1101 06c1 07       		.byte	0x7
 1102 06c2 E2       		.byte	0xe2
 1103 06c3 F5060000 		.4byte	0x6f5
 1104 06c7 11       		.uleb128 0x11
 1105 06c8 BF000000 		.4byte	.LASF95
 1106 06cc 07       		.byte	0x7
 1107 06cd E7       		.byte	0xe7
 1108 06ce 05010000 		.4byte	0x105
 1109 06d2 11       		.uleb128 0x11
 1110 06d3 CA020000 		.4byte	.LASF96
 1111 06d7 07       		.byte	0x7
 1112 06d8 F0       		.byte	0xf0
 1113 06d9 20070000 		.4byte	0x720
 1114 06dd 11       		.uleb128 0x11
 1115 06de 43050000 		.4byte	.LASF97
 1116 06e2 07       		.byte	0x7
 1117 06e3 F9       		.byte	0xf9
 1118 06e4 57070000 		.4byte	0x757
 1119 06e8 12       		.uleb128 0x12
 1120 06e9 B3040000 		.4byte	.LASF98
 1121 06ed 07       		.byte	0x7
 1122 06ee 0101     		.2byte	0x101
 1123 06f0 10010000 		.4byte	0x110
 1124 06f4 00       		.byte	0
 1125 06f5 0A       		.uleb128 0xa
 1126 06f6 04       		.byte	0x4
 1127 06f7 27020000 		.4byte	0x227
 1128 06fb 05       		.uleb128 0x5
 1129 06fc D5040000 		.4byte	.LASF99
 1130 0700 0C       		.byte	0xc
 1131 0701 0D       		.byte	0xd
 1132 0702 34       		.byte	0x34
 1133 0703 20070000 		.4byte	0x720
 1134 0707 06       		.uleb128 0x6
 1135 0708 D7020000 		.4byte	.LASF28
 1136 070c 0D       		.byte	0xd
 1137 070d 35       		.byte	0x35
 1138 070e 5C020000 		.4byte	0x25c
 1139 0712 00       		.byte	0
 1140 0713 07       		.uleb128 0x7
ARM GAS  /tmp/ccKhn5WN.s 			page 21


 1141 0714 636E7400 		.ascii	"cnt\000"
 1142 0718 0D       		.byte	0xd
 1143 0719 37       		.byte	0x37
 1144 071a 1B010000 		.4byte	0x11b
 1145 071e 08       		.byte	0x8
 1146 071f 00       		.byte	0
 1147 0720 0A       		.uleb128 0xa
 1148 0721 04       		.byte	0x4
 1149 0722 FB060000 		.4byte	0x6fb
 1150 0726 05       		.uleb128 0x5
 1151 0727 F6050000 		.4byte	.LASF100
 1152 072b 10       		.byte	0x10
 1153 072c 0E       		.byte	0xe
 1154 072d 39       		.byte	0x39
 1155 072e 57070000 		.4byte	0x757
 1156 0732 06       		.uleb128 0x6
 1157 0733 D7020000 		.4byte	.LASF28
 1158 0737 0E       		.byte	0xe
 1159 0738 3A       		.byte	0x3a
 1160 0739 5C020000 		.4byte	0x25c
 1161 073d 00       		.byte	0
 1162 073e 06       		.uleb128 0x6
 1163 073f 0F050000 		.4byte	.LASF101
 1164 0743 0E       		.byte	0xe
 1165 0744 3C       		.byte	0x3c
 1166 0745 32020000 		.4byte	0x232
 1167 0749 08       		.byte	0x8
 1168 074a 06       		.uleb128 0x6
 1169 074b EC000000 		.4byte	.LASF48
 1170 074f 0E       		.byte	0xe
 1171 0750 3E       		.byte	0x3e
 1172 0751 8B070000 		.4byte	0x78b
 1173 0755 0C       		.byte	0xc
 1174 0756 00       		.byte	0
 1175 0757 0A       		.uleb128 0xa
 1176 0758 04       		.byte	0x4
 1177 0759 26070000 		.4byte	0x726
 1178 075d 0A       		.uleb128 0xa
 1179 075e 04       		.byte	0x4
 1180 075f 63070000 		.4byte	0x763
 1181 0763 13       		.uleb128 0x13
 1182 0764 68070000 		.4byte	0x768
 1183 0768 03       		.uleb128 0x3
 1184 0769 01       		.byte	0x1
 1185 076a 08       		.byte	0x8
 1186 076b 2E050000 		.4byte	.LASF102
 1187 076f 0A       		.uleb128 0xa
 1188 0770 04       		.byte	0x4
 1189 0771 6C040000 		.4byte	0x46c
 1190 0775 0A       		.uleb128 0xa
 1191 0776 04       		.byte	0x4
 1192 0777 11030000 		.4byte	0x311
 1193 077b 14       		.uleb128 0x14
 1194 077c 5D070000 		.4byte	0x75d
 1195 0780 04       		.uleb128 0x4
 1196 0781 A9010000 		.4byte	.LASF103
 1197 0785 0E       		.byte	0xe
ARM GAS  /tmp/ccKhn5WN.s 			page 22


 1198 0786 34       		.byte	0x34
 1199 0787 26070000 		.4byte	0x726
 1200 078b 0A       		.uleb128 0xa
 1201 078c 04       		.byte	0x4
 1202 078d 80070000 		.4byte	0x780
 1203 0791 03       		.uleb128 0x3
 1204 0792 01       		.byte	0x1
 1205 0793 02       		.byte	0x2
 1206 0794 77040000 		.4byte	.LASF104
 1207 0798 15       		.uleb128 0x15
 1208 0799 80050000 		.4byte	.LASF123
 1209 079d 02       		.byte	0x2
 1210 079e EB01     		.2byte	0x1eb
 1211 07a0 03       		.byte	0x3
 1212 07a1 B2070000 		.4byte	0x7b2
 1213 07a5 16       		.uleb128 0x16
 1214 07a6 14010000 		.4byte	.LASF124
 1215 07aa 02       		.byte	0x2
 1216 07ab EB01     		.2byte	0x1eb
 1217 07ad AD000000 		.4byte	0xad
 1218 07b1 00       		.byte	0
 1219 07b2 17       		.uleb128 0x17
 1220 07b3 71000000 		.4byte	.LASF105
 1221 07b7 0A       		.byte	0xa
 1222 07b8 5A02     		.2byte	0x25a
 1223 07ba 03       		.byte	0x3
 1224 07bb 17       		.uleb128 0x17
 1225 07bc 23010000 		.4byte	.LASF106
 1226 07c0 0A       		.byte	0xa
 1227 07c1 7202     		.2byte	0x272
 1228 07c3 03       		.byte	0x3
 1229 07c4 17       		.uleb128 0x17
 1230 07c5 D3050000 		.4byte	.LASF107
 1231 07c9 0A       		.byte	0xa
 1232 07ca 8102     		.2byte	0x281
 1233 07cc 03       		.byte	0x3
 1234 07cd 17       		.uleb128 0x17
 1235 07ce 4A050000 		.4byte	.LASF108
 1236 07d2 0A       		.byte	0xa
 1237 07d3 8C02     		.2byte	0x28c
 1238 07d5 03       		.byte	0x3
 1239 07d6 18       		.uleb128 0x18
 1240 07d7 55060000 		.4byte	.LASF109
 1241 07db 01       		.byte	0x1
 1242 07dc 3E       		.byte	0x3e
 1243 07dd 00000000 		.4byte	.LFB290
 1244 07e1 28000000 		.4byte	.LFE290-.LFB290
 1245 07e5 01       		.uleb128 0x1
 1246 07e6 9C       		.byte	0x9c
 1247 07e7 0A080000 		.4byte	0x80a
 1248 07eb 19       		.uleb128 0x19
 1249 07ec 16000000 		.4byte	.LVL0
 1250 07f0 7C090000 		.4byte	0x97c
 1251 07f4 00080000 		.4byte	0x800
 1252 07f8 1A       		.uleb128 0x1a
 1253 07f9 01       		.uleb128 0x1
 1254 07fa 50       		.byte	0x50
ARM GAS  /tmp/ccKhn5WN.s 			page 23


 1255 07fb 03       		.uleb128 0x3
 1256 07fc 74       		.byte	0x74
 1257 07fd A001     		.sleb128 160
 1258 07ff 00       		.byte	0
 1259 0800 1B       		.uleb128 0x1b
 1260 0801 22000000 		.4byte	.LVL1
 1261 0805 7C090000 		.4byte	0x97c
 1262 0809 00       		.byte	0
 1263 080a 18       		.uleb128 0x18
 1264 080b EB040000 		.4byte	.LASF110
 1265 080f 01       		.byte	0x1
 1266 0810 49       		.byte	0x49
 1267 0811 00000000 		.4byte	.LFB291
 1268 0815 20000000 		.4byte	.LFE291-.LFB291
 1269 0819 01       		.uleb128 0x1
 1270 081a 9C       		.byte	0x9c
 1271 081b 94080000 		.4byte	0x894
 1272 081f 1C       		.uleb128 0x1c
 1273 0820 C4070000 		.4byte	0x7c4
 1274 0824 00000000 		.4byte	.LBB24
 1275 0828 06000000 		.4byte	.LBE24-.LBB24
 1276 082c 01       		.byte	0x1
 1277 082d 4B       		.byte	0x4b
 1278 082e 5B080000 		.4byte	0x85b
 1279 0832 1D       		.uleb128 0x1d
 1280 0833 B2070000 		.4byte	0x7b2
 1281 0837 00000000 		.4byte	.LBB25
 1282 083b 06000000 		.4byte	.LBE25-.LBB25
 1283 083f 0A       		.byte	0xa
 1284 0840 8302     		.2byte	0x283
 1285 0842 1D       		.uleb128 0x1d
 1286 0843 98070000 		.4byte	0x798
 1287 0847 00000000 		.4byte	.LBB26
 1288 084b 06000000 		.4byte	.LBE26-.LBB26
 1289 084f 0A       		.byte	0xa
 1290 0850 6202     		.2byte	0x262
 1291 0852 1E       		.uleb128 0x1e
 1292 0853 A5070000 		.4byte	0x7a5
 1293 0857 20       		.byte	0x20
 1294 0858 00       		.byte	0
 1295 0859 00       		.byte	0
 1296 085a 00       		.byte	0
 1297 085b 1F       		.uleb128 0x1f
 1298 085c CD070000 		.4byte	0x7cd
 1299 0860 12000000 		.4byte	.LBB28
 1300 0864 0E000000 		.4byte	.LBE28-.LBB28
 1301 0868 01       		.byte	0x1
 1302 0869 4D       		.byte	0x4d
 1303 086a 1D       		.uleb128 0x1d
 1304 086b BB070000 		.4byte	0x7bb
 1305 086f 12000000 		.4byte	.LBB29
 1306 0873 0E000000 		.4byte	.LBE29-.LBB29
 1307 0877 0A       		.byte	0xa
 1308 0878 8E02     		.2byte	0x28e
 1309 087a 1D       		.uleb128 0x1d
 1310 087b 98070000 		.4byte	0x798
 1311 087f 12000000 		.4byte	.LBB30
ARM GAS  /tmp/ccKhn5WN.s 			page 24


 1312 0883 0E000000 		.4byte	.LBE30-.LBB30
 1313 0887 0A       		.byte	0xa
 1314 0888 7502     		.2byte	0x275
 1315 088a 1E       		.uleb128 0x1e
 1316 088b A5070000 		.4byte	0x7a5
 1317 088f 00       		.byte	0
 1318 0890 00       		.byte	0
 1319 0891 00       		.byte	0
 1320 0892 00       		.byte	0
 1321 0893 00       		.byte	0
 1322 0894 18       		.uleb128 0x18
 1323 0895 31060000 		.4byte	.LASF111
 1324 0899 01       		.byte	0x1
 1325 089a 56       		.byte	0x56
 1326 089b 00000000 		.4byte	.LFB292
 1327 089f 20000000 		.4byte	.LFE292-.LFB292
 1328 08a3 01       		.uleb128 0x1
 1329 08a4 9C       		.byte	0x9c
 1330 08a5 E4080000 		.4byte	0x8e4
 1331 08a9 20       		.uleb128 0x20
 1332 08aa 6E747000 		.ascii	"ntp\000"
 1333 08ae 01       		.byte	0x1
 1334 08af 56       		.byte	0x56
 1335 08b0 32020000 		.4byte	0x232
 1336 08b4 00000000 		.4byte	.LLST0
 1337 08b8 20       		.uleb128 0x20
 1338 08b9 6F747000 		.ascii	"otp\000"
 1339 08bd 01       		.byte	0x1
 1340 08be 56       		.byte	0x56
 1341 08bf 32020000 		.4byte	0x232
 1342 08c3 2F000000 		.4byte	.LLST1
 1343 08c7 21       		.uleb128 0x21
 1344 08c8 1A000000 		.4byte	.LVL7
 1345 08cc 93090000 		.4byte	0x993
 1346 08d0 1A       		.uleb128 0x1a
 1347 08d1 01       		.uleb128 0x1
 1348 08d2 51       		.byte	0x51
 1349 08d3 05       		.uleb128 0x5
 1350 08d4 F3       		.byte	0xf3
 1351 08d5 01       		.uleb128 0x1
 1352 08d6 50       		.byte	0x50
 1353 08d7 23       		.byte	0x23
 1354 08d8 48       		.uleb128 0x48
 1355 08d9 1A       		.uleb128 0x1a
 1356 08da 01       		.uleb128 0x1
 1357 08db 50       		.byte	0x50
 1358 08dc 05       		.uleb128 0x5
 1359 08dd F3       		.byte	0xf3
 1360 08de 01       		.uleb128 0x1
 1361 08df 51       		.byte	0x51
 1362 08e0 23       		.byte	0x23
 1363 08e1 48       		.uleb128 0x48
 1364 08e2 00       		.byte	0
 1365 08e3 00       		.byte	0
 1366 08e4 18       		.uleb128 0x18
 1367 08e5 13060000 		.4byte	.LASF112
 1368 08e9 01       		.byte	0x1
ARM GAS  /tmp/ccKhn5WN.s 			page 25


 1369 08ea 5F       		.byte	0x5f
 1370 08eb 00000000 		.4byte	.LFB293
 1371 08ef 0C000000 		.4byte	.LFE293-.LFB293
 1372 08f3 01       		.uleb128 0x1
 1373 08f4 9C       		.byte	0x9c
 1374 08f5 03090000 		.4byte	0x903
 1375 08f9 1B       		.uleb128 0x1b
 1376 08fa 06000000 		.4byte	.LVL8
 1377 08fe A9090000 		.4byte	0x9a9
 1378 0902 00       		.byte	0
 1379 0903 18       		.uleb128 0x18
 1380 0904 9A030000 		.4byte	.LASF113
 1381 0908 01       		.byte	0x1
 1382 0909 67       		.byte	0x67
 1383 090a 00000000 		.4byte	.LFB294
 1384 090e 0C000000 		.4byte	.LFE294-.LFB294
 1385 0912 01       		.uleb128 0x1
 1386 0913 9C       		.byte	0x9c
 1387 0914 22090000 		.4byte	0x922
 1388 0918 1B       		.uleb128 0x1b
 1389 0919 06000000 		.4byte	.LVL9
 1390 091d BA090000 		.4byte	0x9ba
 1391 0921 00       		.byte	0
 1392 0922 18       		.uleb128 0x18
 1393 0923 0D040000 		.4byte	.LASF114
 1394 0927 01       		.byte	0x1
 1395 0928 6F       		.byte	0x6f
 1396 0929 00000000 		.4byte	.LFB295
 1397 092d 0C000000 		.4byte	.LFE295-.LFB295
 1398 0931 01       		.uleb128 0x1
 1399 0932 9C       		.byte	0x9c
 1400 0933 41090000 		.4byte	0x941
 1401 0937 1B       		.uleb128 0x1b
 1402 0938 06000000 		.4byte	.LVL10
 1403 093c A9090000 		.4byte	0x9a9
 1404 0940 00       		.byte	0
 1405 0941 18       		.uleb128 0x18
 1406 0942 61060000 		.4byte	.LASF115
 1407 0946 01       		.byte	0x1
 1408 0947 77       		.byte	0x77
 1409 0948 00000000 		.4byte	.LFB296
 1410 094c 0C000000 		.4byte	.LFE296-.LFB296
 1411 0950 01       		.uleb128 0x1
 1412 0951 9C       		.byte	0x9c
 1413 0952 60090000 		.4byte	0x960
 1414 0956 1B       		.uleb128 0x1b
 1415 0957 06000000 		.4byte	.LVL11
 1416 095b BA090000 		.4byte	0x9ba
 1417 095f 00       		.byte	0
 1418 0960 22       		.uleb128 0x22
 1419 0961 93040000 		.4byte	.LASF116
 1420 0965 0F       		.byte	0xf
 1421 0966 0408     		.2byte	0x804
 1422 0968 6C090000 		.4byte	0x96c
 1423 096c 14       		.uleb128 0x14
 1424 096d A2000000 		.4byte	0xa2
 1425 0971 23       		.uleb128 0x23
ARM GAS  /tmp/ccKhn5WN.s 			page 26


 1426 0972 636800   		.ascii	"ch\000"
 1427 0975 07       		.byte	0x7
 1428 0976 C701     		.2byte	0x1c7
 1429 0978 DE030000 		.4byte	0x3de
 1430 097c 24       		.uleb128 0x24
 1431 097d DD000000 		.4byte	.LASF117
 1432 0981 0B       		.byte	0xb
 1433 0982 5C       		.byte	0x5c
 1434 0983 8D090000 		.4byte	0x98d
 1435 0987 0D       		.uleb128 0xd
 1436 0988 8D090000 		.4byte	0x98d
 1437 098c 00       		.byte	0
 1438 098d 0A       		.uleb128 0xa
 1439 098e 04       		.byte	0x4
 1440 098f 44060000 		.4byte	0x644
 1441 0993 24       		.uleb128 0x24
 1442 0994 68030000 		.4byte	.LASF118
 1443 0998 0B       		.byte	0xb
 1444 0999 5F       		.byte	0x5f
 1445 099a A9090000 		.4byte	0x9a9
 1446 099e 0D       		.uleb128 0xd
 1447 099f 8D090000 		.4byte	0x98d
 1448 09a3 0D       		.uleb128 0xd
 1449 09a4 8D090000 		.4byte	0x98d
 1450 09a8 00       		.byte	0
 1451 09a9 24       		.uleb128 0x24
 1452 09aa 2F010000 		.4byte	.LASF119
 1453 09ae 0B       		.byte	0xb
 1454 09af 5D       		.byte	0x5d
 1455 09b0 BA090000 		.4byte	0x9ba
 1456 09b4 0D       		.uleb128 0xd
 1457 09b5 8D090000 		.4byte	0x98d
 1458 09b9 00       		.byte	0
 1459 09ba 25       		.uleb128 0x25
 1460 09bb 4B010000 		.4byte	.LASF125
 1461 09bf 0B       		.byte	0xb
 1462 09c0 5E       		.byte	0x5e
 1463 09c1 0D       		.uleb128 0xd
 1464 09c2 8D090000 		.4byte	0x98d
 1465 09c6 00       		.byte	0
 1466 09c7 00       		.byte	0
 1467              		.section	.debug_abbrev,"",%progbits
 1468              	.Ldebug_abbrev0:
 1469 0000 01       		.uleb128 0x1
 1470 0001 11       		.uleb128 0x11
 1471 0002 01       		.byte	0x1
 1472 0003 25       		.uleb128 0x25
 1473 0004 0E       		.uleb128 0xe
 1474 0005 13       		.uleb128 0x13
 1475 0006 0B       		.uleb128 0xb
 1476 0007 03       		.uleb128 0x3
 1477 0008 0E       		.uleb128 0xe
 1478 0009 1B       		.uleb128 0x1b
 1479 000a 0E       		.uleb128 0xe
 1480 000b 55       		.uleb128 0x55
 1481 000c 17       		.uleb128 0x17
 1482 000d 11       		.uleb128 0x11
ARM GAS  /tmp/ccKhn5WN.s 			page 27


 1483 000e 01       		.uleb128 0x1
 1484 000f 10       		.uleb128 0x10
 1485 0010 17       		.uleb128 0x17
 1486 0011 00       		.byte	0
 1487 0012 00       		.byte	0
 1488 0013 02       		.uleb128 0x2
 1489 0014 24       		.uleb128 0x24
 1490 0015 00       		.byte	0
 1491 0016 0B       		.uleb128 0xb
 1492 0017 0B       		.uleb128 0xb
 1493 0018 3E       		.uleb128 0x3e
 1494 0019 0B       		.uleb128 0xb
 1495 001a 03       		.uleb128 0x3
 1496 001b 08       		.uleb128 0x8
 1497 001c 00       		.byte	0
 1498 001d 00       		.byte	0
 1499 001e 03       		.uleb128 0x3
 1500 001f 24       		.uleb128 0x24
 1501 0020 00       		.byte	0
 1502 0021 0B       		.uleb128 0xb
 1503 0022 0B       		.uleb128 0xb
 1504 0023 3E       		.uleb128 0x3e
 1505 0024 0B       		.uleb128 0xb
 1506 0025 03       		.uleb128 0x3
 1507 0026 0E       		.uleb128 0xe
 1508 0027 00       		.byte	0
 1509 0028 00       		.byte	0
 1510 0029 04       		.uleb128 0x4
 1511 002a 16       		.uleb128 0x16
 1512 002b 00       		.byte	0
 1513 002c 03       		.uleb128 0x3
 1514 002d 0E       		.uleb128 0xe
 1515 002e 3A       		.uleb128 0x3a
 1516 002f 0B       		.uleb128 0xb
 1517 0030 3B       		.uleb128 0x3b
 1518 0031 0B       		.uleb128 0xb
 1519 0032 49       		.uleb128 0x49
 1520 0033 13       		.uleb128 0x13
 1521 0034 00       		.byte	0
 1522 0035 00       		.byte	0
 1523 0036 05       		.uleb128 0x5
 1524 0037 13       		.uleb128 0x13
 1525 0038 01       		.byte	0x1
 1526 0039 03       		.uleb128 0x3
 1527 003a 0E       		.uleb128 0xe
 1528 003b 0B       		.uleb128 0xb
 1529 003c 0B       		.uleb128 0xb
 1530 003d 3A       		.uleb128 0x3a
 1531 003e 0B       		.uleb128 0xb
 1532 003f 3B       		.uleb128 0x3b
 1533 0040 0B       		.uleb128 0xb
 1534 0041 01       		.uleb128 0x1
 1535 0042 13       		.uleb128 0x13
 1536 0043 00       		.byte	0
 1537 0044 00       		.byte	0
 1538 0045 06       		.uleb128 0x6
 1539 0046 0D       		.uleb128 0xd
ARM GAS  /tmp/ccKhn5WN.s 			page 28


 1540 0047 00       		.byte	0
 1541 0048 03       		.uleb128 0x3
 1542 0049 0E       		.uleb128 0xe
 1543 004a 3A       		.uleb128 0x3a
 1544 004b 0B       		.uleb128 0xb
 1545 004c 3B       		.uleb128 0x3b
 1546 004d 0B       		.uleb128 0xb
 1547 004e 49       		.uleb128 0x49
 1548 004f 13       		.uleb128 0x13
 1549 0050 38       		.uleb128 0x38
 1550 0051 0B       		.uleb128 0xb
 1551 0052 00       		.byte	0
 1552 0053 00       		.byte	0
 1553 0054 07       		.uleb128 0x7
 1554 0055 0D       		.uleb128 0xd
 1555 0056 00       		.byte	0
 1556 0057 03       		.uleb128 0x3
 1557 0058 08       		.uleb128 0x8
 1558 0059 3A       		.uleb128 0x3a
 1559 005a 0B       		.uleb128 0xb
 1560 005b 3B       		.uleb128 0x3b
 1561 005c 0B       		.uleb128 0xb
 1562 005d 49       		.uleb128 0x49
 1563 005e 13       		.uleb128 0x13
 1564 005f 38       		.uleb128 0x38
 1565 0060 0B       		.uleb128 0xb
 1566 0061 00       		.byte	0
 1567 0062 00       		.byte	0
 1568 0063 08       		.uleb128 0x8
 1569 0064 0D       		.uleb128 0xd
 1570 0065 00       		.byte	0
 1571 0066 03       		.uleb128 0x3
 1572 0067 08       		.uleb128 0x8
 1573 0068 3A       		.uleb128 0x3a
 1574 0069 0B       		.uleb128 0xb
 1575 006a 3B       		.uleb128 0x3b
 1576 006b 05       		.uleb128 0x5
 1577 006c 49       		.uleb128 0x49
 1578 006d 13       		.uleb128 0x13
 1579 006e 38       		.uleb128 0x38
 1580 006f 0B       		.uleb128 0xb
 1581 0070 00       		.byte	0
 1582 0071 00       		.byte	0
 1583 0072 09       		.uleb128 0x9
 1584 0073 0D       		.uleb128 0xd
 1585 0074 00       		.byte	0
 1586 0075 03       		.uleb128 0x3
 1587 0076 0E       		.uleb128 0xe
 1588 0077 3A       		.uleb128 0x3a
 1589 0078 0B       		.uleb128 0xb
 1590 0079 3B       		.uleb128 0x3b
 1591 007a 05       		.uleb128 0x5
 1592 007b 49       		.uleb128 0x49
 1593 007c 13       		.uleb128 0x13
 1594 007d 38       		.uleb128 0x38
 1595 007e 0B       		.uleb128 0xb
 1596 007f 00       		.byte	0
ARM GAS  /tmp/ccKhn5WN.s 			page 29


 1597 0080 00       		.byte	0
 1598 0081 0A       		.uleb128 0xa
 1599 0082 0F       		.uleb128 0xf
 1600 0083 00       		.byte	0
 1601 0084 0B       		.uleb128 0xb
 1602 0085 0B       		.uleb128 0xb
 1603 0086 49       		.uleb128 0x49
 1604 0087 13       		.uleb128 0x13
 1605 0088 00       		.byte	0
 1606 0089 00       		.byte	0
 1607 008a 0B       		.uleb128 0xb
 1608 008b 13       		.uleb128 0x13
 1609 008c 01       		.byte	0x1
 1610 008d 03       		.uleb128 0x3
 1611 008e 0E       		.uleb128 0xe
 1612 008f 0B       		.uleb128 0xb
 1613 0090 0B       		.uleb128 0xb
 1614 0091 3A       		.uleb128 0x3a
 1615 0092 0B       		.uleb128 0xb
 1616 0093 3B       		.uleb128 0x3b
 1617 0094 05       		.uleb128 0x5
 1618 0095 01       		.uleb128 0x1
 1619 0096 13       		.uleb128 0x13
 1620 0097 00       		.byte	0
 1621 0098 00       		.byte	0
 1622 0099 0C       		.uleb128 0xc
 1623 009a 15       		.uleb128 0x15
 1624 009b 01       		.byte	0x1
 1625 009c 27       		.uleb128 0x27
 1626 009d 19       		.uleb128 0x19
 1627 009e 01       		.uleb128 0x1
 1628 009f 13       		.uleb128 0x13
 1629 00a0 00       		.byte	0
 1630 00a1 00       		.byte	0
 1631 00a2 0D       		.uleb128 0xd
 1632 00a3 05       		.uleb128 0x5
 1633 00a4 00       		.byte	0
 1634 00a5 49       		.uleb128 0x49
 1635 00a6 13       		.uleb128 0x13
 1636 00a7 00       		.byte	0
 1637 00a8 00       		.byte	0
 1638 00a9 0E       		.uleb128 0xe
 1639 00aa 0F       		.uleb128 0xf
 1640 00ab 00       		.byte	0
 1641 00ac 0B       		.uleb128 0xb
 1642 00ad 0B       		.uleb128 0xb
 1643 00ae 00       		.byte	0
 1644 00af 00       		.byte	0
 1645 00b0 0F       		.uleb128 0xf
 1646 00b1 13       		.uleb128 0x13
 1647 00b2 01       		.byte	0x1
 1648 00b3 0B       		.uleb128 0xb
 1649 00b4 0B       		.uleb128 0xb
 1650 00b5 3A       		.uleb128 0x3a
 1651 00b6 0B       		.uleb128 0xb
 1652 00b7 3B       		.uleb128 0x3b
 1653 00b8 0B       		.uleb128 0xb
ARM GAS  /tmp/ccKhn5WN.s 			page 30


 1654 00b9 01       		.uleb128 0x1
 1655 00ba 13       		.uleb128 0x13
 1656 00bb 00       		.byte	0
 1657 00bc 00       		.byte	0
 1658 00bd 10       		.uleb128 0x10
 1659 00be 17       		.uleb128 0x17
 1660 00bf 01       		.byte	0x1
 1661 00c0 0B       		.uleb128 0xb
 1662 00c1 0B       		.uleb128 0xb
 1663 00c2 3A       		.uleb128 0x3a
 1664 00c3 0B       		.uleb128 0xb
 1665 00c4 3B       		.uleb128 0x3b
 1666 00c5 0B       		.uleb128 0xb
 1667 00c6 01       		.uleb128 0x1
 1668 00c7 13       		.uleb128 0x13
 1669 00c8 00       		.byte	0
 1670 00c9 00       		.byte	0
 1671 00ca 11       		.uleb128 0x11
 1672 00cb 0D       		.uleb128 0xd
 1673 00cc 00       		.byte	0
 1674 00cd 03       		.uleb128 0x3
 1675 00ce 0E       		.uleb128 0xe
 1676 00cf 3A       		.uleb128 0x3a
 1677 00d0 0B       		.uleb128 0xb
 1678 00d1 3B       		.uleb128 0x3b
 1679 00d2 0B       		.uleb128 0xb
 1680 00d3 49       		.uleb128 0x49
 1681 00d4 13       		.uleb128 0x13
 1682 00d5 00       		.byte	0
 1683 00d6 00       		.byte	0
 1684 00d7 12       		.uleb128 0x12
 1685 00d8 0D       		.uleb128 0xd
 1686 00d9 00       		.byte	0
 1687 00da 03       		.uleb128 0x3
 1688 00db 0E       		.uleb128 0xe
 1689 00dc 3A       		.uleb128 0x3a
 1690 00dd 0B       		.uleb128 0xb
 1691 00de 3B       		.uleb128 0x3b
 1692 00df 05       		.uleb128 0x5
 1693 00e0 49       		.uleb128 0x49
 1694 00e1 13       		.uleb128 0x13
 1695 00e2 00       		.byte	0
 1696 00e3 00       		.byte	0
 1697 00e4 13       		.uleb128 0x13
 1698 00e5 26       		.uleb128 0x26
 1699 00e6 00       		.byte	0
 1700 00e7 49       		.uleb128 0x49
 1701 00e8 13       		.uleb128 0x13
 1702 00e9 00       		.byte	0
 1703 00ea 00       		.byte	0
 1704 00eb 14       		.uleb128 0x14
 1705 00ec 35       		.uleb128 0x35
 1706 00ed 00       		.byte	0
 1707 00ee 49       		.uleb128 0x49
 1708 00ef 13       		.uleb128 0x13
 1709 00f0 00       		.byte	0
 1710 00f1 00       		.byte	0
ARM GAS  /tmp/ccKhn5WN.s 			page 31


 1711 00f2 15       		.uleb128 0x15
 1712 00f3 2E       		.uleb128 0x2e
 1713 00f4 01       		.byte	0x1
 1714 00f5 03       		.uleb128 0x3
 1715 00f6 0E       		.uleb128 0xe
 1716 00f7 3A       		.uleb128 0x3a
 1717 00f8 0B       		.uleb128 0xb
 1718 00f9 3B       		.uleb128 0x3b
 1719 00fa 05       		.uleb128 0x5
 1720 00fb 27       		.uleb128 0x27
 1721 00fc 19       		.uleb128 0x19
 1722 00fd 20       		.uleb128 0x20
 1723 00fe 0B       		.uleb128 0xb
 1724 00ff 01       		.uleb128 0x1
 1725 0100 13       		.uleb128 0x13
 1726 0101 00       		.byte	0
 1727 0102 00       		.byte	0
 1728 0103 16       		.uleb128 0x16
 1729 0104 05       		.uleb128 0x5
 1730 0105 00       		.byte	0
 1731 0106 03       		.uleb128 0x3
 1732 0107 0E       		.uleb128 0xe
 1733 0108 3A       		.uleb128 0x3a
 1734 0109 0B       		.uleb128 0xb
 1735 010a 3B       		.uleb128 0x3b
 1736 010b 05       		.uleb128 0x5
 1737 010c 49       		.uleb128 0x49
 1738 010d 13       		.uleb128 0x13
 1739 010e 00       		.byte	0
 1740 010f 00       		.byte	0
 1741 0110 17       		.uleb128 0x17
 1742 0111 2E       		.uleb128 0x2e
 1743 0112 00       		.byte	0
 1744 0113 03       		.uleb128 0x3
 1745 0114 0E       		.uleb128 0xe
 1746 0115 3A       		.uleb128 0x3a
 1747 0116 0B       		.uleb128 0xb
 1748 0117 3B       		.uleb128 0x3b
 1749 0118 05       		.uleb128 0x5
 1750 0119 27       		.uleb128 0x27
 1751 011a 19       		.uleb128 0x19
 1752 011b 20       		.uleb128 0x20
 1753 011c 0B       		.uleb128 0xb
 1754 011d 00       		.byte	0
 1755 011e 00       		.byte	0
 1756 011f 18       		.uleb128 0x18
 1757 0120 2E       		.uleb128 0x2e
 1758 0121 01       		.byte	0x1
 1759 0122 3F       		.uleb128 0x3f
 1760 0123 19       		.uleb128 0x19
 1761 0124 03       		.uleb128 0x3
 1762 0125 0E       		.uleb128 0xe
 1763 0126 3A       		.uleb128 0x3a
 1764 0127 0B       		.uleb128 0xb
 1765 0128 3B       		.uleb128 0x3b
 1766 0129 0B       		.uleb128 0xb
 1767 012a 27       		.uleb128 0x27
ARM GAS  /tmp/ccKhn5WN.s 			page 32


 1768 012b 19       		.uleb128 0x19
 1769 012c 11       		.uleb128 0x11
 1770 012d 01       		.uleb128 0x1
 1771 012e 12       		.uleb128 0x12
 1772 012f 06       		.uleb128 0x6
 1773 0130 40       		.uleb128 0x40
 1774 0131 18       		.uleb128 0x18
 1775 0132 9742     		.uleb128 0x2117
 1776 0134 19       		.uleb128 0x19
 1777 0135 01       		.uleb128 0x1
 1778 0136 13       		.uleb128 0x13
 1779 0137 00       		.byte	0
 1780 0138 00       		.byte	0
 1781 0139 19       		.uleb128 0x19
 1782 013a 898201   		.uleb128 0x4109
 1783 013d 01       		.byte	0x1
 1784 013e 11       		.uleb128 0x11
 1785 013f 01       		.uleb128 0x1
 1786 0140 31       		.uleb128 0x31
 1787 0141 13       		.uleb128 0x13
 1788 0142 01       		.uleb128 0x1
 1789 0143 13       		.uleb128 0x13
 1790 0144 00       		.byte	0
 1791 0145 00       		.byte	0
 1792 0146 1A       		.uleb128 0x1a
 1793 0147 8A8201   		.uleb128 0x410a
 1794 014a 00       		.byte	0
 1795 014b 02       		.uleb128 0x2
 1796 014c 18       		.uleb128 0x18
 1797 014d 9142     		.uleb128 0x2111
 1798 014f 18       		.uleb128 0x18
 1799 0150 00       		.byte	0
 1800 0151 00       		.byte	0
 1801 0152 1B       		.uleb128 0x1b
 1802 0153 898201   		.uleb128 0x4109
 1803 0156 00       		.byte	0
 1804 0157 11       		.uleb128 0x11
 1805 0158 01       		.uleb128 0x1
 1806 0159 9542     		.uleb128 0x2115
 1807 015b 19       		.uleb128 0x19
 1808 015c 31       		.uleb128 0x31
 1809 015d 13       		.uleb128 0x13
 1810 015e 00       		.byte	0
 1811 015f 00       		.byte	0
 1812 0160 1C       		.uleb128 0x1c
 1813 0161 1D       		.uleb128 0x1d
 1814 0162 01       		.byte	0x1
 1815 0163 31       		.uleb128 0x31
 1816 0164 13       		.uleb128 0x13
 1817 0165 11       		.uleb128 0x11
 1818 0166 01       		.uleb128 0x1
 1819 0167 12       		.uleb128 0x12
 1820 0168 06       		.uleb128 0x6
 1821 0169 58       		.uleb128 0x58
 1822 016a 0B       		.uleb128 0xb
 1823 016b 59       		.uleb128 0x59
 1824 016c 0B       		.uleb128 0xb
ARM GAS  /tmp/ccKhn5WN.s 			page 33


 1825 016d 01       		.uleb128 0x1
 1826 016e 13       		.uleb128 0x13
 1827 016f 00       		.byte	0
 1828 0170 00       		.byte	0
 1829 0171 1D       		.uleb128 0x1d
 1830 0172 1D       		.uleb128 0x1d
 1831 0173 01       		.byte	0x1
 1832 0174 31       		.uleb128 0x31
 1833 0175 13       		.uleb128 0x13
 1834 0176 11       		.uleb128 0x11
 1835 0177 01       		.uleb128 0x1
 1836 0178 12       		.uleb128 0x12
 1837 0179 06       		.uleb128 0x6
 1838 017a 58       		.uleb128 0x58
 1839 017b 0B       		.uleb128 0xb
 1840 017c 59       		.uleb128 0x59
 1841 017d 05       		.uleb128 0x5
 1842 017e 00       		.byte	0
 1843 017f 00       		.byte	0
 1844 0180 1E       		.uleb128 0x1e
 1845 0181 05       		.uleb128 0x5
 1846 0182 00       		.byte	0
 1847 0183 31       		.uleb128 0x31
 1848 0184 13       		.uleb128 0x13
 1849 0185 1C       		.uleb128 0x1c
 1850 0186 0B       		.uleb128 0xb
 1851 0187 00       		.byte	0
 1852 0188 00       		.byte	0
 1853 0189 1F       		.uleb128 0x1f
 1854 018a 1D       		.uleb128 0x1d
 1855 018b 01       		.byte	0x1
 1856 018c 31       		.uleb128 0x31
 1857 018d 13       		.uleb128 0x13
 1858 018e 11       		.uleb128 0x11
 1859 018f 01       		.uleb128 0x1
 1860 0190 12       		.uleb128 0x12
 1861 0191 06       		.uleb128 0x6
 1862 0192 58       		.uleb128 0x58
 1863 0193 0B       		.uleb128 0xb
 1864 0194 59       		.uleb128 0x59
 1865 0195 0B       		.uleb128 0xb
 1866 0196 00       		.byte	0
 1867 0197 00       		.byte	0
 1868 0198 20       		.uleb128 0x20
 1869 0199 05       		.uleb128 0x5
 1870 019a 00       		.byte	0
 1871 019b 03       		.uleb128 0x3
 1872 019c 08       		.uleb128 0x8
 1873 019d 3A       		.uleb128 0x3a
 1874 019e 0B       		.uleb128 0xb
 1875 019f 3B       		.uleb128 0x3b
 1876 01a0 0B       		.uleb128 0xb
 1877 01a1 49       		.uleb128 0x49
 1878 01a2 13       		.uleb128 0x13
 1879 01a3 02       		.uleb128 0x2
 1880 01a4 17       		.uleb128 0x17
 1881 01a5 00       		.byte	0
ARM GAS  /tmp/ccKhn5WN.s 			page 34


 1882 01a6 00       		.byte	0
 1883 01a7 21       		.uleb128 0x21
 1884 01a8 898201   		.uleb128 0x4109
 1885 01ab 01       		.byte	0x1
 1886 01ac 11       		.uleb128 0x11
 1887 01ad 01       		.uleb128 0x1
 1888 01ae 9542     		.uleb128 0x2115
 1889 01b0 19       		.uleb128 0x19
 1890 01b1 31       		.uleb128 0x31
 1891 01b2 13       		.uleb128 0x13
 1892 01b3 00       		.byte	0
 1893 01b4 00       		.byte	0
 1894 01b5 22       		.uleb128 0x22
 1895 01b6 34       		.uleb128 0x34
 1896 01b7 00       		.byte	0
 1897 01b8 03       		.uleb128 0x3
 1898 01b9 0E       		.uleb128 0xe
 1899 01ba 3A       		.uleb128 0x3a
 1900 01bb 0B       		.uleb128 0xb
 1901 01bc 3B       		.uleb128 0x3b
 1902 01bd 05       		.uleb128 0x5
 1903 01be 49       		.uleb128 0x49
 1904 01bf 13       		.uleb128 0x13
 1905 01c0 3F       		.uleb128 0x3f
 1906 01c1 19       		.uleb128 0x19
 1907 01c2 3C       		.uleb128 0x3c
 1908 01c3 19       		.uleb128 0x19
 1909 01c4 00       		.byte	0
 1910 01c5 00       		.byte	0
 1911 01c6 23       		.uleb128 0x23
 1912 01c7 34       		.uleb128 0x34
 1913 01c8 00       		.byte	0
 1914 01c9 03       		.uleb128 0x3
 1915 01ca 08       		.uleb128 0x8
 1916 01cb 3A       		.uleb128 0x3a
 1917 01cc 0B       		.uleb128 0xb
 1918 01cd 3B       		.uleb128 0x3b
 1919 01ce 05       		.uleb128 0x5
 1920 01cf 49       		.uleb128 0x49
 1921 01d0 13       		.uleb128 0x13
 1922 01d1 3F       		.uleb128 0x3f
 1923 01d2 19       		.uleb128 0x19
 1924 01d3 3C       		.uleb128 0x3c
 1925 01d4 19       		.uleb128 0x19
 1926 01d5 00       		.byte	0
 1927 01d6 00       		.byte	0
 1928 01d7 24       		.uleb128 0x24
 1929 01d8 2E       		.uleb128 0x2e
 1930 01d9 01       		.byte	0x1
 1931 01da 3F       		.uleb128 0x3f
 1932 01db 19       		.uleb128 0x19
 1933 01dc 03       		.uleb128 0x3
 1934 01dd 0E       		.uleb128 0xe
 1935 01de 3A       		.uleb128 0x3a
 1936 01df 0B       		.uleb128 0xb
 1937 01e0 3B       		.uleb128 0x3b
 1938 01e1 0B       		.uleb128 0xb
ARM GAS  /tmp/ccKhn5WN.s 			page 35


 1939 01e2 27       		.uleb128 0x27
 1940 01e3 19       		.uleb128 0x19
 1941 01e4 3C       		.uleb128 0x3c
 1942 01e5 19       		.uleb128 0x19
 1943 01e6 01       		.uleb128 0x1
 1944 01e7 13       		.uleb128 0x13
 1945 01e8 00       		.byte	0
 1946 01e9 00       		.byte	0
 1947 01ea 25       		.uleb128 0x25
 1948 01eb 2E       		.uleb128 0x2e
 1949 01ec 01       		.byte	0x1
 1950 01ed 3F       		.uleb128 0x3f
 1951 01ee 19       		.uleb128 0x19
 1952 01ef 03       		.uleb128 0x3
 1953 01f0 0E       		.uleb128 0xe
 1954 01f1 3A       		.uleb128 0x3a
 1955 01f2 0B       		.uleb128 0xb
 1956 01f3 3B       		.uleb128 0x3b
 1957 01f4 0B       		.uleb128 0xb
 1958 01f5 27       		.uleb128 0x27
 1959 01f6 19       		.uleb128 0x19
 1960 01f7 3C       		.uleb128 0x3c
 1961 01f8 19       		.uleb128 0x19
 1962 01f9 00       		.byte	0
 1963 01fa 00       		.byte	0
 1964 01fb 00       		.byte	0
 1965              		.section	.debug_loc,"",%progbits
 1966              	.Ldebug_loc0:
 1967              	.LLST0:
 1968 0000 00000000 		.4byte	.LVL4
 1969 0004 14000000 		.4byte	.LVL5
 1970 0008 0100     		.2byte	0x1
 1971 000a 50       		.byte	0x50
 1972 000b 14000000 		.4byte	.LVL5
 1973 000f 19000000 		.4byte	.LVL7-1
 1974 0013 0400     		.2byte	0x4
 1975 0015 73       		.byte	0x73
 1976 0016 B87F     		.sleb128 -72
 1977 0018 9F       		.byte	0x9f
 1978 0019 19000000 		.4byte	.LVL7-1
 1979 001d 20000000 		.4byte	.LFE292
 1980 0021 0400     		.2byte	0x4
 1981 0023 F3       		.byte	0xf3
 1982 0024 01       		.uleb128 0x1
 1983 0025 50       		.byte	0x50
 1984 0026 9F       		.byte	0x9f
 1985 0027 00000000 		.4byte	0
 1986 002b 00000000 		.4byte	0
 1987              	.LLST1:
 1988 002f 00000000 		.4byte	.LVL4
 1989 0033 16000000 		.4byte	.LVL6
 1990 0037 0100     		.2byte	0x1
 1991 0039 51       		.byte	0x51
 1992 003a 16000000 		.4byte	.LVL6
 1993 003e 19000000 		.4byte	.LVL7-1
 1994 0042 0400     		.2byte	0x4
 1995 0044 70       		.byte	0x70
ARM GAS  /tmp/ccKhn5WN.s 			page 36


 1996 0045 B87F     		.sleb128 -72
 1997 0047 9F       		.byte	0x9f
 1998 0048 19000000 		.4byte	.LVL7-1
 1999 004c 20000000 		.4byte	.LFE292
 2000 0050 0400     		.2byte	0x4
 2001 0052 F3       		.byte	0xf3
 2002 0053 01       		.uleb128 0x1
 2003 0054 51       		.byte	0x51
 2004 0055 9F       		.byte	0x9f
 2005 0056 00000000 		.4byte	0
 2006 005a 00000000 		.4byte	0
 2007              		.section	.debug_aranges,"",%progbits
 2008 0000 4C000000 		.4byte	0x4c
 2009 0004 0200     		.2byte	0x2
 2010 0006 00000000 		.4byte	.Ldebug_info0
 2011 000a 04       		.byte	0x4
 2012 000b 00       		.byte	0
 2013 000c 0000     		.2byte	0
 2014 000e 0000     		.2byte	0
 2015 0010 00000000 		.4byte	.LFB290
 2016 0014 28000000 		.4byte	.LFE290-.LFB290
 2017 0018 00000000 		.4byte	.LFB291
 2018 001c 20000000 		.4byte	.LFE291-.LFB291
 2019 0020 00000000 		.4byte	.LFB292
 2020 0024 20000000 		.4byte	.LFE292-.LFB292
 2021 0028 00000000 		.4byte	.LFB293
 2022 002c 0C000000 		.4byte	.LFE293-.LFB293
 2023 0030 00000000 		.4byte	.LFB294
 2024 0034 0C000000 		.4byte	.LFE294-.LFB294
 2025 0038 00000000 		.4byte	.LFB295
 2026 003c 0C000000 		.4byte	.LFE295-.LFB295
 2027 0040 00000000 		.4byte	.LFB296
 2028 0044 0C000000 		.4byte	.LFE296-.LFB296
 2029 0048 00000000 		.4byte	0
 2030 004c 00000000 		.4byte	0
 2031              		.section	.debug_ranges,"",%progbits
 2032              	.Ldebug_ranges0:
 2033 0000 00000000 		.4byte	.LFB290
 2034 0004 28000000 		.4byte	.LFE290
 2035 0008 00000000 		.4byte	.LFB291
 2036 000c 20000000 		.4byte	.LFE291
 2037 0010 00000000 		.4byte	.LFB292
 2038 0014 20000000 		.4byte	.LFE292
 2039 0018 00000000 		.4byte	.LFB293
 2040 001c 0C000000 		.4byte	.LFE293
 2041 0020 00000000 		.4byte	.LFB294
 2042 0024 0C000000 		.4byte	.LFE294
 2043 0028 00000000 		.4byte	.LFB295
 2044 002c 0C000000 		.4byte	.LFE295
 2045 0030 00000000 		.4byte	.LFB296
 2046 0034 0C000000 		.4byte	.LFE296
 2047 0038 00000000 		.4byte	0
 2048 003c 00000000 		.4byte	0
 2049              		.section	.debug_line,"",%progbits
 2050              	.Ldebug_line0:
 2051 0000 8C020000 		.section	.debug_str,"MS",%progbits,1
 2051      0200F701 
ARM GAS  /tmp/ccKhn5WN.s 			page 37


 2051      00000201 
 2051      FB0E0D00 
 2051      01010101 
 2052              	.LASF52:
 2053 0000 72656164 		.ascii	"ready_list_t\000"
 2053      795F6C69 
 2053      73745F74 
 2053      00
 2054              	.LASF94:
 2055 000d 77747472 		.ascii	"wttrp\000"
 2055      7000
 2056              	.LASF58:
 2057 0013 64656C74 		.ascii	"delta\000"
 2057      6100
 2058              	.LASF91:
 2059 0019 7264796D 		.ascii	"rdymsg\000"
 2059      736700
 2060              	.LASF16:
 2061 0020 75696E74 		.ascii	"uint64_t\000"
 2061      36345F74 
 2061      00
 2062              	.LASF71:
 2063 0029 6B65726E 		.ascii	"kernel_stats\000"
 2063      656C5F73 
 2063      74617473 
 2063      00
 2064              	.LASF5:
 2065 0036 5F5F7569 		.ascii	"__uint8_t\000"
 2065      6E74385F 
 2065      7400
 2066              	.LASF51:
 2067 0040 70726576 		.ascii	"prev\000"
 2067      00
 2068              	.LASF78:
 2069 0045 706F7274 		.ascii	"port_intctx\000"
 2069      5F696E74 
 2069      63747800 
 2070              	.LASF50:
 2071 0051 63685F74 		.ascii	"ch_threads_queue\000"
 2071      68726561 
 2071      64735F71 
 2071      75657565 
 2071      00
 2072              	.LASF63:
 2073 0062 73797374 		.ascii	"system_debug_t\000"
 2073      656D5F64 
 2073      65627567 
 2073      5F7400
 2074              	.LASF105:
 2075 0071 706F7274 		.ascii	"port_lock\000"
 2075      5F6C6F63 
 2075      6B00
 2076              	.LASF82:
 2077 007b 776F7273 		.ascii	"worst\000"
 2077      7400
 2078              	.LASF85:
 2079 0081 74696D65 		.ascii	"time_measurement_t\000"
ARM GAS  /tmp/ccKhn5WN.s 			page 38


 2079      5F6D6561 
 2079      73757265 
 2079      6D656E74 
 2079      5F7400
 2080              	.LASF12:
 2081 0094 6C6F6E67 		.ascii	"long long unsigned int\000"
 2081      206C6F6E 
 2081      6720756E 
 2081      7369676E 
 2081      65642069 
 2082              	.LASF92:
 2083 00ab 65786974 		.ascii	"exitcode\000"
 2083      636F6465 
 2083      00
 2084              	.LASF70:
 2085 00b4 6D61696E 		.ascii	"mainthread\000"
 2085      74687265 
 2085      616400
 2086              	.LASF95:
 2087 00bf 73656E74 		.ascii	"sentmsg\000"
 2087      6D736700 
 2088              	.LASF60:
 2089 00c7 76697274 		.ascii	"virtual_timers_list_t\000"
 2089      75616C5F 
 2089      74696D65 
 2089      72735F6C 
 2089      6973745F 
 2090              	.LASF117:
 2091 00dd 6368544D 		.ascii	"chTMObjectInit\000"
 2091      4F626A65 
 2091      6374496E 
 2091      697400
 2092              	.LASF48:
 2093 00ec 6E657874 		.ascii	"next\000"
 2093      00
 2094              	.LASF18:
 2095 00f1 72747469 		.ascii	"rttime_t\000"
 2095      6D655F74 
 2095      00
 2096              	.LASF10:
 2097 00fa 6C6F6E67 		.ascii	"long long int\000"
 2097      206C6F6E 
 2097      6720696E 
 2097      7400
 2098              	.LASF1:
 2099 0108 7369676E 		.ascii	"signed char\000"
 2099      65642063 
 2099      68617200 
 2100              	.LASF124:
 2101 0114 62617365 		.ascii	"basePri\000"
 2101      50726900 
 2102              	.LASF69:
 2103 011c 76746C69 		.ascii	"vtlist\000"
 2103      737400
 2104              	.LASF106:
 2105 0123 706F7274 		.ascii	"port_unlock\000"
 2105      5F756E6C 
ARM GAS  /tmp/ccKhn5WN.s 			page 39


 2105      6F636B00 
 2106              	.LASF119:
 2107 012f 6368544D 		.ascii	"chTMStartMeasurementX\000"
 2107      53746172 
 2107      744D6561 
 2107      73757265 
 2107      6D656E74 
 2108              	.LASF34:
 2109 0145 73746174 		.ascii	"state\000"
 2109      6500
 2110              	.LASF125:
 2111 014b 6368544D 		.ascii	"chTMStopMeasurementX\000"
 2111      53746F70 
 2111      4D656173 
 2111      7572656D 
 2111      656E7458 
 2112              	.LASF7:
 2113 0160 6C6F6E67 		.ascii	"long int\000"
 2113      20696E74 
 2113      00
 2114              	.LASF20:
 2115 0169 74737461 		.ascii	"tstate_t\000"
 2115      74655F74 
 2115      00
 2116              	.LASF59:
 2117 0172 66756E63 		.ascii	"func\000"
 2117      00
 2118              	.LASF43:
 2119 0177 73746174 		.ascii	"stats\000"
 2119      7300
 2120              	.LASF8:
 2121 017d 5F5F7569 		.ascii	"__uint32_t\000"
 2121      6E743332 
 2121      5F7400
 2122              	.LASF75:
 2123 0188 72656761 		.ascii	"regarm_t\000"
 2123      726D5F74 
 2123      00
 2124              	.LASF64:
 2125 0191 63685F73 		.ascii	"ch_system_debug\000"
 2125      79737465 
 2125      6D5F6465 
 2125      62756700 
 2126              	.LASF37:
 2127 01a1 77616974 		.ascii	"waiting\000"
 2127      696E6700 
 2128              	.LASF103:
 2129 01a9 6D757465 		.ascii	"mutex_t\000"
 2129      785F7400 
 2130              	.LASF73:
 2131 01b1 73797369 		.ascii	"sysinterval_t\000"
 2131      6E746572 
 2131      76616C5F 
 2131      7400
 2132              	.LASF25:
 2133 01bf 636E745F 		.ascii	"cnt_t\000"
 2133      7400
ARM GAS  /tmp/ccKhn5WN.s 			page 40


 2134              	.LASF38:
 2135 01c5 6D736771 		.ascii	"msgqueue\000"
 2135      75657565 
 2135      00
 2136              	.LASF0:
 2137 01ce 756E7369 		.ascii	"unsigned int\000"
 2137      676E6564 
 2137      20696E74 
 2137      00
 2138              	.LASF120:
 2139 01db 474E5520 		.ascii	"GNU C 4.9.3 20150529 (prerelease) -mcpu=cortex-m4 -"
 2139      4320342E 
 2139      392E3320 
 2139      32303135 
 2139      30353239 
 2140 020e 6D666C6F 		.ascii	"mfloat-abi=hard -mfpu=fpv4-sp-d16 -mno-thumb-interw"
 2140      61742D61 
 2140      62693D68 
 2140      61726420 
 2140      2D6D6670 
 2141 0241 6F726B20 		.ascii	"ork -mthumb -g -Os -fomit-frame-pointer -falign-fun"
 2141      2D6D7468 
 2141      756D6220 
 2141      2D67202D 
 2141      4F73202D 
 2142 0274 6374696F 		.ascii	"ctions=16 -ffunction-sections -fdata-sections -fno-"
 2142      6E733D31 
 2142      36202D66 
 2142      66756E63 
 2142      74696F6E 
 2143 02a7 636F6D6D 		.ascii	"common -fsingle-precision-constant\000"
 2143      6F6E202D 
 2143      6673696E 
 2143      676C652D 
 2143      70726563 
 2144              	.LASF96:
 2145 02ca 77747365 		.ascii	"wtsemp\000"
 2145      6D7000
 2146              	.LASF86:
 2147 02d1 6E5F6972 		.ascii	"n_irq\000"
 2147      7100
 2148              	.LASF28:
 2149 02d7 71756575 		.ascii	"queue\000"
 2149      6500
 2150              	.LASF42:
 2151 02dd 6D706F6F 		.ascii	"mpool\000"
 2151      6C00
 2152              	.LASF4:
 2153 02e3 73686F72 		.ascii	"short unsigned int\000"
 2153      7420756E 
 2153      7369676E 
 2153      65642069 
 2153      6E7400
 2154              	.LASF90:
 2155 02f6 6B65726E 		.ascii	"kernel_stats_t\000"
 2155      656C5F73 
 2155      74617473 
ARM GAS  /tmp/ccKhn5WN.s 			page 41


 2155      5F7400
 2156              	.LASF32:
 2157 0305 6E616D65 		.ascii	"name\000"
 2157      00
 2158              	.LASF46:
 2159 030a 63685F74 		.ascii	"ch_thread\000"
 2159      68726561 
 2159      6400
 2160              	.LASF23:
 2161 0314 6D73675F 		.ascii	"msg_t\000"
 2161      7400
 2162              	.LASF83:
 2163 031a 6C617374 		.ascii	"last\000"
 2163      00
 2164              	.LASF26:
 2165 031f 75636E74 		.ascii	"ucnt_t\000"
 2165      5F7400
 2166              	.LASF39:
 2167 0326 6570656E 		.ascii	"epending\000"
 2167      64696E67 
 2167      00
 2168              	.LASF66:
 2169 032f 63685F73 		.ascii	"ch_system_t\000"
 2169      79737465 
 2169      6D5F7400 
 2170              	.LASF19:
 2171 033b 746D6F64 		.ascii	"tmode_t\000"
 2171      655F7400 
 2172              	.LASF89:
 2173 0343 6D5F6372 		.ascii	"m_crit_isr\000"
 2173      69745F69 
 2173      737200
 2174              	.LASF53:
 2175 034e 63685F72 		.ascii	"ch_ready_list\000"
 2175      65616479 
 2175      5F6C6973 
 2175      7400
 2176              	.LASF24:
 2177 035c 6576656E 		.ascii	"eventmask_t\000"
 2177      746D6173 
 2177      6B5F7400 
 2178              	.LASF118:
 2179 0368 6368544D 		.ascii	"chTMChainMeasurementToX\000"
 2179      43686169 
 2179      6E4D6561 
 2179      73757265 
 2179      6D656E74 
 2180              	.LASF76:
 2181 0380 73746B61 		.ascii	"stkalign_t\000"
 2181      6C69676E 
 2181      5F7400
 2182              	.LASF30:
 2183 038b 6E657765 		.ascii	"newer\000"
 2183      7200
 2184              	.LASF41:
 2185 0391 7265616C 		.ascii	"realprio\000"
 2185      7072696F 
ARM GAS  /tmp/ccKhn5WN.s 			page 42


 2185      00
 2186              	.LASF113:
 2187 039a 5F737461 		.ascii	"_stats_stop_measure_crit_thd\000"
 2187      74735F73 
 2187      746F705F 
 2187      6D656173 
 2187      7572655F 
 2188              	.LASF74:
 2189 03b7 73697A65 		.ascii	"sizetype\000"
 2189      74797065 
 2189      00
 2190              	.LASF44:
 2191 03c0 74687265 		.ascii	"thread_reference_t\000"
 2191      61645F72 
 2191      65666572 
 2191      656E6365 
 2191      5F7400
 2192              	.LASF61:
 2193 03d3 63685F76 		.ascii	"ch_virtual_timers_list\000"
 2193      69727475 
 2193      616C5F74 
 2193      696D6572 
 2193      735F6C69 
 2194              	.LASF77:
 2195 03ea 706F7274 		.ascii	"port_context\000"
 2195      5F636F6E 
 2195      74657874 
 2195      00
 2196              	.LASF80:
 2197 03f7 746D5F63 		.ascii	"tm_calibration_t\000"
 2197      616C6962 
 2197      72617469 
 2197      6F6E5F74 
 2197      00
 2198              	.LASF29:
 2199 0408 7072696F 		.ascii	"prio\000"
 2199      00
 2200              	.LASF114:
 2201 040d 5F737461 		.ascii	"_stats_start_measure_crit_isr\000"
 2201      74735F73 
 2201      74617274 
 2201      5F6D6561 
 2201      73757265 
 2202              	.LASF54:
 2203 042b 63757272 		.ascii	"current\000"
 2203      656E7400 
 2204              	.LASF11:
 2205 0433 5F5F7569 		.ascii	"__uint64_t\000"
 2205      6E743634 
 2205      5F7400
 2206              	.LASF84:
 2207 043e 63756D75 		.ascii	"cumulative\000"
 2207      6C617469 
 2207      766500
 2208              	.LASF21:
 2209 0449 74726566 		.ascii	"trefs_t\000"
 2209      735F7400 
ARM GAS  /tmp/ccKhn5WN.s 			page 43


 2210              	.LASF36:
 2211 0451 72656673 		.ascii	"refs\000"
 2211      00
 2212              	.LASF56:
 2213 0456 76697274 		.ascii	"virtual_timer_t\000"
 2213      75616C5F 
 2213      74696D65 
 2213      725F7400 
 2214              	.LASF22:
 2215 0466 74707269 		.ascii	"tprio_t\000"
 2215      6F5F7400 
 2216              	.LASF87:
 2217 046e 6E5F6374 		.ascii	"n_ctxswc\000"
 2217      78737763 
 2217      00
 2218              	.LASF104:
 2219 0477 5F426F6F 		.ascii	"_Bool\000"
 2219      6C00
 2220              	.LASF14:
 2221 047d 696E7433 		.ascii	"int32_t\000"
 2221      325F7400 
 2222              	.LASF2:
 2223 0485 756E7369 		.ascii	"unsigned char\000"
 2223      676E6564 
 2223      20636861 
 2223      7200
 2224              	.LASF116:
 2225 0493 49544D5F 		.ascii	"ITM_RxBuffer\000"
 2225      52784275 
 2225      66666572 
 2225      00
 2226              	.LASF3:
 2227 04a0 73686F72 		.ascii	"short int\000"
 2227      7420696E 
 2227      7400
 2228              	.LASF62:
 2229 04aa 6C617374 		.ascii	"lasttime\000"
 2229      74696D65 
 2229      00
 2230              	.LASF98:
 2231 04b3 65776D61 		.ascii	"ewmask\000"
 2231      736B00
 2232              	.LASF67:
 2233 04ba 63685F73 		.ascii	"ch_system\000"
 2233      79737465 
 2233      6D00
 2234              	.LASF57:
 2235 04c4 63685F76 		.ascii	"ch_virtual_timer\000"
 2235      69727475 
 2235      616C5F74 
 2235      696D6572 
 2235      00
 2236              	.LASF99:
 2237 04d5 63685F73 		.ascii	"ch_semaphore\000"
 2237      656D6170 
 2237      686F7265 
 2237      00
ARM GAS  /tmp/ccKhn5WN.s 			page 44


 2238              	.LASF15:
 2239 04e2 75696E74 		.ascii	"uint32_t\000"
 2239      33325F74 
 2239      00
 2240              	.LASF110:
 2241 04eb 5F737461 		.ascii	"_stats_increase_irq\000"
 2241      74735F69 
 2241      6E637265 
 2241      6173655F 
 2241      69727100 
 2242              	.LASF47:
 2243 04ff 63685F74 		.ascii	"ch_threads_list\000"
 2243      68726561 
 2243      64735F6C 
 2243      69737400 
 2244              	.LASF101:
 2245 050f 6F776E65 		.ascii	"owner\000"
 2245      7200
 2246              	.LASF9:
 2247 0515 6C6F6E67 		.ascii	"long unsigned int\000"
 2247      20756E73 
 2247      69676E65 
 2247      6420696E 
 2247      7400
 2248              	.LASF33:
 2249 0527 77616261 		.ascii	"wabase\000"
 2249      736500
 2250              	.LASF102:
 2251 052e 63686172 		.ascii	"char\000"
 2251      00
 2252              	.LASF31:
 2253 0533 6F6C6465 		.ascii	"older\000"
 2253      7200
 2254              	.LASF6:
 2255 0539 5F5F696E 		.ascii	"__int32_t\000"
 2255      7433325F 
 2255      7400
 2256              	.LASF97:
 2257 0543 77746D74 		.ascii	"wtmtxp\000"
 2257      787000
 2258              	.LASF108:
 2259 054a 706F7274 		.ascii	"port_unlock_from_isr\000"
 2259      5F756E6C 
 2259      6F636B5F 
 2259      66726F6D 
 2259      5F697372 
 2260              	.LASF27:
 2261 055f 74687265 		.ascii	"thread_t\000"
 2261      61645F74 
 2261      00
 2262              	.LASF81:
 2263 0568 62657374 		.ascii	"best\000"
 2263      00
 2264              	.LASF72:
 2265 056d 73797374 		.ascii	"systime_t\000"
 2265      696D655F 
 2265      7400
ARM GAS  /tmp/ccKhn5WN.s 			page 45


 2266              	.LASF55:
 2267 0577 76746675 		.ascii	"vtfunc_t\000"
 2267      6E635F74 
 2267      00
 2268              	.LASF123:
 2269 0580 5F5F7365 		.ascii	"__set_BASEPRI\000"
 2269      745F4241 
 2269      53455052 
 2269      4900
 2270              	.LASF65:
 2271 058e 70616E69 		.ascii	"panic_msg\000"
 2271      635F6D73 
 2271      6700
 2272              	.LASF79:
 2273 0598 6F666673 		.ascii	"offset\000"
 2273      657400
 2274              	.LASF122:
 2275 059f 2F686F6D 		.ascii	"/home/kozinalexey/f4by/ardupilot/build/F4BY\000"
 2275      652F6B6F 
 2275      7A696E61 
 2275      6C657865 
 2275      792F6634 
 2276              	.LASF17:
 2277 05cb 7274636E 		.ascii	"rtcnt_t\000"
 2277      745F7400 
 2278              	.LASF107:
 2279 05d3 706F7274 		.ascii	"port_lock_from_isr\000"
 2279      5F6C6F63 
 2279      6B5F6672 
 2279      6F6D5F69 
 2279      737200
 2280              	.LASF49:
 2281 05e6 74687265 		.ascii	"threads_queue_t\000"
 2281      6164735F 
 2281      71756575 
 2281      655F7400 
 2282              	.LASF100:
 2283 05f6 63685F6D 		.ascii	"ch_mutex\000"
 2283      75746578 
 2283      00
 2284              	.LASF68:
 2285 05ff 726C6973 		.ascii	"rlist\000"
 2285      7400
 2286              	.LASF13:
 2287 0605 75696E74 		.ascii	"uint8_t\000"
 2287      385F7400 
 2288              	.LASF35:
 2289 060d 666C6167 		.ascii	"flags\000"
 2289      7300
 2290              	.LASF112:
 2291 0613 5F737461 		.ascii	"_stats_start_measure_crit_thd\000"
 2291      74735F73 
 2291      74617274 
 2291      5F6D6561 
 2291      73757265 
 2292              	.LASF111:
 2293 0631 5F737461 		.ascii	"_stats_ctxswc\000"
ARM GAS  /tmp/ccKhn5WN.s 			page 46


 2293      74735F63 
 2293      74787377 
 2293      6300
 2294              	.LASF93:
 2295 063f 77746F62 		.ascii	"wtobjp\000"
 2295      6A7000
 2296              	.LASF45:
 2297 0646 74687265 		.ascii	"threads_list_t\000"
 2297      6164735F 
 2297      6C697374 
 2297      5F7400
 2298              	.LASF109:
 2299 0655 5F737461 		.ascii	"_stats_init\000"
 2299      74735F69 
 2299      6E697400 
 2300              	.LASF115:
 2301 0661 5F737461 		.ascii	"_stats_stop_measure_crit_isr\000"
 2301      74735F73 
 2301      746F705F 
 2301      6D656173 
 2301      7572655F 
 2302              	.LASF121:
 2303 067e 2E2E2F2E 		.ascii	"../../modules/ChibiOS/os/rt/src/chstats.c\000"
 2303      2E2F6D6F 
 2303      64756C65 
 2303      732F4368 
 2303      6962694F 
 2304              	.LASF40:
 2305 06a8 6D74786C 		.ascii	"mtxlist\000"
 2305      69737400 
 2306              	.LASF88:
 2307 06b0 6D5F6372 		.ascii	"m_crit_thd\000"
 2307      69745F74 
 2307      686400
 2308              		.ident	"GCC: (15:4.9.3+svn231177-1) 4.9.3 20150529 (prerelease)"
ARM GAS  /tmp/ccKhn5WN.s 			page 47


DEFINED SYMBOLS
                            *ABS*:0000000000000000 chstats.c
     /tmp/ccKhn5WN.s:21     .text._stats_init:0000000000000000 $t
     /tmp/ccKhn5WN.s:26     .text._stats_init:0000000000000000 _stats_init
     /tmp/ccKhn5WN.s:62     .text._stats_init:0000000000000024 $d
     /tmp/ccKhn5WN.s:67     .text._stats_increase_irq:0000000000000000 $t
     /tmp/ccKhn5WN.s:72     .text._stats_increase_irq:0000000000000000 _stats_increase_irq
     /tmp/ccKhn5WN.s:115    .text._stats_increase_irq:000000000000001c $d
     /tmp/ccKhn5WN.s:124    .text._stats_ctxswc:0000000000000000 $t
     /tmp/ccKhn5WN.s:129    .text._stats_ctxswc:0000000000000000 _stats_ctxswc
     /tmp/ccKhn5WN.s:153    .text._stats_ctxswc:000000000000001c $d
     /tmp/ccKhn5WN.s:158    .text._stats_start_measure_crit_thd:0000000000000000 $t
     /tmp/ccKhn5WN.s:163    .text._stats_start_measure_crit_thd:0000000000000000 _stats_start_measure_crit_thd
     /tmp/ccKhn5WN.s:177    .text._stats_start_measure_crit_thd:0000000000000008 $d
     /tmp/ccKhn5WN.s:182    .text._stats_stop_measure_crit_thd:0000000000000000 $t
     /tmp/ccKhn5WN.s:187    .text._stats_stop_measure_crit_thd:0000000000000000 _stats_stop_measure_crit_thd
     /tmp/ccKhn5WN.s:201    .text._stats_stop_measure_crit_thd:0000000000000008 $d
     /tmp/ccKhn5WN.s:206    .text._stats_start_measure_crit_isr:0000000000000000 $t
     /tmp/ccKhn5WN.s:211    .text._stats_start_measure_crit_isr:0000000000000000 _stats_start_measure_crit_isr
     /tmp/ccKhn5WN.s:225    .text._stats_start_measure_crit_isr:0000000000000008 $d
     /tmp/ccKhn5WN.s:230    .text._stats_stop_measure_crit_isr:0000000000000000 $t
     /tmp/ccKhn5WN.s:235    .text._stats_stop_measure_crit_isr:0000000000000000 _stats_stop_measure_crit_isr
     /tmp/ccKhn5WN.s:249    .text._stats_stop_measure_crit_isr:0000000000000008 $d
                     .debug_frame:0000000000000010 $d

UNDEFINED SYMBOLS
chTMObjectInit
ch
chTMChainMeasurementToX
chTMStartMeasurementX
chTMStopMeasurementX
