ARM GAS  /tmp/ccKhn5WN.s 			page 1


   1              		.syntax unified
   2              		.cpu cortex-m4
   3              		.eabi_attribute 27, 1
   4              		.eabi_attribute 28, 1
   5              		.fpu fpv4-sp-d16
   6              		.eabi_attribute 20, 1
   7              		.eabi_attribute 21, 1
   8              		.eabi_attribute 23, 3
   9              		.eabi_attribute 24, 1
  10              		.eabi_attribute 25, 1
  11              		.eabi_attribute 26, 1
  12              		.eabi_attribute 30, 4
  13              		.eabi_attribute 34, 1
  14              		.eabi_attribute 18, 4
  15              		.thumb
  16              		.file	"chstats.c"
  17              		.text
  18              	.Ltext0:
  19              		.cfi_sections	.debug_frame
  20              		.section	.text._stats_init,"ax",%progbits
  21              		.align	1
  22              		.global	_stats_init
  23              		.thumb
  24              		.thumb_func
  25              		.type	_stats_init, %function
  26              	_stats_init:
  27              	.LFB290:
  28              		.file 1 "../../modules/ChibiOS/os/rt/src/chstats.c"
  29              		.loc 1 62 0
  30              		.cfi_startproc
  31              		@ args = 0, pretend = 0, frame = 0
  32              		@ frame_needed = 0, uses_anonymous_args = 0
  33 0000 10B5     		push	{r4, lr}
  34              		.cfi_def_cfa_offset 8
  35              		.cfi_offset 4, -8
  36              		.cfi_offset 14, -4
  37              		.loc 1 64 0
  38 0002 084C     		ldr	r4, .L2
  39 0004 0023     		movs	r3, #0
  40              		.loc 1 66 0
  41 0006 04F1A000 		add	r0, r4, #160
  42              		.loc 1 64 0
  43 000a C4F89830 		str	r3, [r4, #152]
  44              		.loc 1 65 0
  45 000e C4F89C30 		str	r3, [r4, #156]
  46              		.loc 1 66 0
  47 0012 FFF7FEFF 		bl	chTMObjectInit
  48              	.LVL0:
  49              		.loc 1 67 0
  50 0016 04F1B800 		add	r0, r4, #184
  51              		.loc 1 68 0
  52 001a BDE81040 		pop	{r4, lr}
  53              		.cfi_restore 14
  54              		.cfi_restore 4
  55              		.cfi_def_cfa_offset 0
  56              		.loc 1 67 0
  57 001e FFF7FEBF 		b	chTMObjectInit
ARM GAS  /tmp/ccKhn5WN.s 			page 2


  58              	.LVL1:
  59              	.L3:
  60 0022 00BF     		.align	2
  61              	.L2:
  62 0024 00000000 		.word	ch
  63              		.cfi_endproc
  64              	.LFE290:
  65              		.size	_stats_init, .-_stats_init
  66              		.section	.text._stats_increase_irq,"ax",%progbits
  67              		.align	1
  68              		.global	_stats_increase_irq
  69              		.thumb
  70              		.thumb_func
  71              		.type	_stats_increase_irq, %function
  72              	_stats_increase_irq:
  73              	.LFB291:
  74              		.loc 1 73 0
  75              		.cfi_startproc
  76              		@ args = 0, pretend = 0, frame = 0
  77              		@ frame_needed = 0, uses_anonymous_args = 0
  78              		@ link register save eliminated.
  79              	.LVL2:
  80              	.LBB24:
  81              	.LBB25:
  82              	.LBB26:
  83              	.LBB27:
  84              		.file 2 "../../modules/ChibiOS/os/common/ext/ARM/CMSIS/Core/Include/cmsis_gcc.h"
  85              		.loc 2 493 0
  86 0000 2023     		movs	r3, #32
  87              	@ 493 "../../modules/ChibiOS/os/common/ext/ARM/CMSIS/Core/Include/cmsis_gcc.h" 1
  88 0002 83F31188 		MSR basepri, r3
  89              	@ 0 "" 2
  90              		.thumb
  91              	.LBE27:
  92              	.LBE26:
  93              	.LBE25:
  94              	.LBE24:
  95              		.loc 1 76 0
  96 0006 054A     		ldr	r2, .L5
  97 0008 D2F89830 		ldr	r3, [r2, #152]
  98 000c 0133     		adds	r3, r3, #1
  99 000e C2F89830 		str	r3, [r2, #152]
 100              	.LVL3:
 101              	.LBB28:
 102              	.LBB29:
 103              	.LBB30:
 104              	.LBB31:
 105              		.loc 2 493 0
 106 0012 0023     		movs	r3, #0
 107              	@ 493 "../../modules/ChibiOS/os/common/ext/ARM/CMSIS/Core/Include/cmsis_gcc.h" 1
 108 0014 83F31188 		MSR basepri, r3
 109              	@ 0 "" 2
 110              		.thumb
 111 0018 7047     		bx	lr
 112              	.L6:
 113 001a 00BF     		.align	2
 114              	.L5:
ARM GAS  /tmp/ccKhn5WN.s 			page 3


 115 001c 00000000 		.word	ch
 116              	.LBE31:
 117              	.LBE30:
 118              	.LBE29:
 119              	.LBE28:
 120              		.cfi_endproc
 121              	.LFE291:
 122              		.size	_stats_increase_irq, .-_stats_increase_irq
 123              		.section	.text._stats_ctxswc,"ax",%progbits
 124              		.align	1
 125              		.global	_stats_ctxswc
 126              		.thumb
 127              		.thumb_func
 128              		.type	_stats_ctxswc, %function
 129              	_stats_ctxswc:
 130              	.LFB292:
 131              		.loc 1 86 0
 132              		.cfi_startproc
 133              		@ args = 0, pretend = 0, frame = 0
 134              		@ frame_needed = 0, uses_anonymous_args = 0
 135              		@ link register save eliminated.
 136              	.LVL4:
 137              		.loc 1 88 0
 138 0000 064A     		ldr	r2, .L8
 139 0002 D2F89C30 		ldr	r3, [r2, #156]
 140 0006 0133     		adds	r3, r3, #1
 141 0008 C2F89C30 		str	r3, [r2, #156]
 142              		.loc 1 89 0
 143 000c 00F14803 		add	r3, r0, #72
 144 0010 01F14800 		add	r0, r1, #72
 145              	.LVL5:
 146 0014 1946     		mov	r1, r3
 147              	.LVL6:
 148 0016 FFF7FEBF 		b	chTMChainMeasurementToX
 149              	.LVL7:
 150              	.L9:
 151 001a 00BF     		.align	2
 152              	.L8:
 153 001c 00000000 		.word	ch
 154              		.cfi_endproc
 155              	.LFE292:
 156              		.size	_stats_ctxswc, .-_stats_ctxswc
 157              		.section	.text._stats_start_measure_crit_thd,"ax",%progbits
 158              		.align	1
 159              		.global	_stats_start_measure_crit_thd
 160              		.thumb
 161              		.thumb_func
 162              		.type	_stats_start_measure_crit_thd, %function
 163              	_stats_start_measure_crit_thd:
 164              	.LFB293:
 165              		.loc 1 95 0
 166              		.cfi_startproc
 167              		@ args = 0, pretend = 0, frame = 0
 168              		@ frame_needed = 0, uses_anonymous_args = 0
 169              		@ link register save eliminated.
 170              		.loc 1 97 0
 171 0000 0148     		ldr	r0, .L11
ARM GAS  /tmp/ccKhn5WN.s 			page 4


 172 0002 FFF7FEBF 		b	chTMStartMeasurementX
 173              	.LVL8:
 174              	.L12:
 175 0006 00BF     		.align	2
 176              	.L11:
 177 0008 A0000000 		.word	ch+160
 178              		.cfi_endproc
 179              	.LFE293:
 180              		.size	_stats_start_measure_crit_thd, .-_stats_start_measure_crit_thd
 181              		.section	.text._stats_stop_measure_crit_thd,"ax",%progbits
 182              		.align	1
 183              		.global	_stats_stop_measure_crit_thd
 184              		.thumb
 185              		.thumb_func
 186              		.type	_stats_stop_measure_crit_thd, %function
 187              	_stats_stop_measure_crit_thd:
 188              	.LFB294:
 189              		.loc 1 103 0
 190              		.cfi_startproc
 191              		@ args = 0, pretend = 0, frame = 0
 192              		@ frame_needed = 0, uses_anonymous_args = 0
 193              		@ link register save eliminated.
 194              		.loc 1 105 0
 195 0000 0148     		ldr	r0, .L14
 196 0002 FFF7FEBF 		b	chTMStopMeasurementX
 197              	.LVL9:
 198              	.L15:
 199 0006 00BF     		.align	2
 200              	.L14:
 201 0008 A0000000 		.word	ch+160
 202              		.cfi_endproc
 203              	.LFE294:
 204              		.size	_stats_stop_measure_crit_thd, .-_stats_stop_measure_crit_thd
 205              		.section	.text._stats_start_measure_crit_isr,"ax",%progbits
 206              		.align	1
 207              		.global	_stats_start_measure_crit_isr
 208              		.thumb
 209              		.thumb_func
 210              		.type	_stats_start_measure_crit_isr, %function
 211              	_stats_start_measure_crit_isr:
 212              	.LFB295:
 213              		.loc 1 111 0
 214              		.cfi_startproc
 215              		@ args = 0, pretend = 0, frame = 0
 216              		@ frame_needed = 0, uses_anonymous_args = 0
 217              		@ link register save eliminated.
 218              		.loc 1 113 0
 219 0000 0148     		ldr	r0, .L17
 220 0002 FFF7FEBF 		b	chTMStartMeasurementX
 221              	.LVL10:
 222              	.L18:
 223 0006 00BF     		.align	2
 224              	.L17:
 225 0008 B8000000 		.word	ch+184
 226              		.cfi_endproc
 227              	.LFE295:
 228              		.size	_stats_start_measure_crit_isr, .-_stats_start_measure_crit_isr
ARM GAS  /tmp/ccKhn5WN.s 			page 5


 229              		.section	.text._stats_stop_measure_crit_isr,"ax",%progbits
 230              		.align	1
 231              		.global	_stats_stop_measure_crit_isr
 232              		.thumb
 233              		.thumb_func
 234              		.type	_stats_stop_measure_crit_isr, %function
 235              	_stats_stop_measure_crit_isr:
 236              	.LFB296:
 237              		.loc 1 119 0
 238              		.cfi_startproc
 239              		@ args = 0, pretend = 0, frame = 0
 240              		@ frame_needed = 0, uses_anonymous_args = 0
 241              		@ link register save eliminated.
 242              		.loc 1 121 0
 243 0000 0148     		ldr	r0, .L20
 244 0002 FFF7FEBF 		b	chTMStopMeasurementX
 245              	.LVL11:
 246              	.L21:
 247 0006 00BF     		.align	2
 248              	.L20:
 249 0008 B8000000 		.word	ch+184
 250              		.cfi_endproc
 251              	.LFE296:
 252              		.size	_stats_stop_measure_crit_isr, .-_stats_stop_measure_crit_isr
 253              		.text
 254              	.Letext0:
 255              		.file 3 "/usr/include/newlib/machine/_default_types.h"
 256              		.file 4 "/usr/include/newlib/sys/_stdint.h"
 257              		.file 5 "../../modules/ChibiOS/os/common/ports/ARMCMx/compilers/GCC/chtypes.h"
 258              		.file 6 "../../modules/ChibiOS/os/rt/include/chsystypes.h"
 259              		.file 7 "../../modules/ChibiOS/os/rt/include/chschd.h"
 260              		.file 8 "../../modules/ChibiOS/os/rt/include/chtime.h"
 261              		.file 9 "../../modules/ChibiOS/os/common/ports/ARMCMx/chcore.h"
 262              		.file 10 "../../modules/ChibiOS/os/common/ports/ARMCMx/chcore_v7m.h"
 263              		.file 11 "../../modules/ChibiOS/os/rt/include/chtm.h"
 264              		.file 12 "../../modules/ChibiOS/os/rt/include/chstats.h"
 265              		.file 13 "../../modules/ChibiOS/os/rt/include/chsem.h"
 266              		.file 14 "../../modules/ChibiOS/os/rt/include/chmtx.h"
 267              		.file 15 "../../modules/ChibiOS/os/common/ext/ARM/CMSIS/Core/Include/core_cm4.h"