ARM GAS  /tmp/ccmSIs1R.s 			page 1


   1              		.syntax unified
   2              		.cpu cortex-m4
   3              		.eabi_attribute 27, 1
   4              		.eabi_attribute 28, 1
   5              		.fpu fpv4-sp-d16
   6              		.eabi_attribute 20, 1
   7              		.eabi_attribute 21, 1
   8              		.eabi_attribute 23, 3
   9              		.eabi_attribute 24, 1
  10              		.eabi_attribute 25, 1
  11              		.eabi_attribute 26, 1
  12              		.eabi_attribute 30, 4
  13              		.eabi_attribute 34, 1
  14              		.eabi_attribute 18, 4
  15              		.thumb
  16              		.file	"chsys.c"
  17              		.text
  18              	.Ltext0:
  19              		.cfi_sections	.debug_frame
  20              		.section	.text._idle_thread,"ax",%progbits
  21              		.align	1
  22              		.thumb
  23              		.thumb_func
  24              		.type	_idle_thread, %function
  25              	_idle_thread:
  26              	.LFB290:
  27              		.file 1 "../../modules/ChibiOS/os/rt/src/chsys.c"
  28              		.loc 1 72 0
  29              		.cfi_startproc
  30              		@ Volatile: function does not return.
  31              		@ args = 0, pretend = 0, frame = 0
  32              		@ frame_needed = 0, uses_anonymous_args = 0
  33              		@ link register save eliminated.
  34              	.LVL0:
  35              	.L2:
  36 0000 FEE7     		b	.L2
  37              		.cfi_endproc
  38              	.LFE290:
  39              		.size	_idle_thread, .-_idle_thread
  40              		.section	.text.chSysInit,"ax",%progbits
  41              		.align	1
  42              		.global	chSysInit
  43              		.thumb
  44              		.thumb_func
  45              		.type	chSysInit, %function
  46              	chSysInit:
  47              	.LFB291:
  48              		.loc 1 100 0
  49              		.cfi_startproc
  50              		@ args = 0, pretend = 0, frame = 0
  51              		@ frame_needed = 0, uses_anonymous_args = 0
  52              		.loc 1 100 0
  53 0000 10B5     		push	{r4, lr}
  54              		.cfi_def_cfa_offset 8
  55              		.cfi_offset 4, -8
  56              		.cfi_offset 14, -4
  57              		.loc 1 129 0
ARM GAS  /tmp/ccmSIs1R.s 			page 2


  58 0002 1F4C     		ldr	r4, .L4
  59              		.loc 1 102 0
  60 0004 FFF7FEFF 		bl	_scheduler_init
  61              	.LVL1:
  62              		.loc 1 103 0
  63 0008 FFF7FEFF 		bl	_vt_init
  64              	.LVL2:
  65              		.loc 1 111 0
  66 000c FFF7FEFF 		bl	_tm_init
  67              	.LVL3:
  68              		.loc 1 114 0
  69 0010 FFF7FEFF 		bl	_core_init
  70              	.LVL4:
  71              		.loc 1 117 0
  72 0014 FFF7FEFF 		bl	_heap_init
  73              	.LVL5:
  74              		.loc 1 120 0
  75 0018 FFF7FEFF 		bl	_factory_init
  76              	.LVL6:
  77              		.loc 1 123 0
  78 001c FFF7FEFF 		bl	_stats_init
  79              	.LVL7:
  80              		.loc 1 129 0
  81 0020 2046     		mov	r0, r4
  82 0022 1849     		ldr	r1, .L4+4
  83 0024 8022     		movs	r2, #128
  84 0026 FFF7FEFF 		bl	_thread_init
  85              	.LVL8:
  86              		.loc 1 150 0
  87 002a 0123     		movs	r3, #1
  88 002c 80F82030 		strb	r3, [r0, #32]
  89              	.LVL9:
  90              	.LBB107:
  91              	.LBB108:
  92              	.LBB109:
  93              	.LBB110:
  94              		.file 2 "../../modules/ChibiOS/os/common/ext/ARM/CMSIS/Core/Include/core_cm4.h"
  95              		.loc 2 1662 0
  96 0030 154B     		ldr	r3, .L4+8
  97              		.loc 2 1664 0
  98 0032 164A     		ldr	r2, .L4+12
  99              		.loc 2 1662 0
 100 0034 D968     		ldr	r1, [r3, #12]
 101              	.LVL10:
 102              	.LBE110:
 103              	.LBE109:
 104              	.LBE108:
 105              	.LBE107:
 106              		.loc 1 129 0
 107 0036 44F8180C 		str	r0, [r4, #-24]
 108              	.LBB122:
 109              	.LBB119:
 110              	.LBB113:
 111              	.LBB111:
 112              		.loc 2 1663 0
 113 003a 21F4E061 		bic	r1, r1, #1792
 114              	.LVL11:
ARM GAS  /tmp/ccmSIs1R.s 			page 3


 115 003e 0904     		lsls	r1, r1, #16
 116 0040 090C     		lsrs	r1, r1, #16
 117              	.LVL12:
 118              		.loc 2 1664 0
 119 0042 0A43     		orrs	r2, r2, r1
 120              	.LVL13:
 121              	.LBE111:
 122              	.LBE113:
 123              	.LBE119:
 124              	.LBE122:
 125              		.loc 1 146 0
 126 0044 0024     		movs	r4, #0
 127              	.LBB123:
 128              	.LBB120:
 129              		.file 3 "../../modules/ChibiOS/os/common/ports/ARMCMx/chcore_v7m.h"
 130              		.loc 3 520 0
 131 0046 1249     		ldr	r1, .L4+16
 132              	.LBE120:
 133              	.LBE123:
 134              		.loc 1 146 0
 135 0048 C461     		str	r4, [r0, #28]
 136              	.LBB124:
 137              	.LBB121:
 138              	.LBB114:
 139              	.LBB112:
 140              		.loc 2 1667 0
 141 004a DA60     		str	r2, [r3, #12]
 142              	.LBE112:
 143              	.LBE114:
 144              		.loc 3 520 0
 145 004c CA68     		ldr	r2, [r1, #12]
 146              	.LVL14:
 147 004e 42F08072 		orr	r2, r2, #16777216
 148 0052 CA60     		str	r2, [r1, #12]
 149              	.LVL15:
 150              		.loc 3 524 0
 151 0054 0F49     		ldr	r1, .L4+20
 152 0056 0A68     		ldr	r2, [r1]
 153 0058 42F00102 		orr	r2, r2, #1
 154 005c 0A60     		str	r2, [r1]
 155              	.LVL16:
 156              	.LBB115:
 157              	.LBB116:
 158              		.loc 2 1824 0
 159 005e 1022     		movs	r2, #16
 160 0060 DA77     		strb	r2, [r3, #31]
 161              	.LVL17:
 162              	.LBE116:
 163              	.LBE115:
 164              	.LBB117:
 165              	.LBB118:
 166 0062 2022     		movs	r2, #32
 167 0064 83F82220 		strb	r2, [r3, #34]
 168              	.LBE118:
 169              	.LBE117:
 170              	.LBE121:
 171              	.LBE124:
ARM GAS  /tmp/ccmSIs1R.s 			page 4


 172              		.loc 1 158 0
 173 0068 4830     		adds	r0, r0, #72
 174 006a FFF7FEFF 		bl	chTMStartMeasurementX
 175              	.LVL18:
 176              	.LBB125:
 177              	.LBB126:
 178              	.LBB127:
 179              	.LBB128:
 180              		.file 4 "../../modules/ChibiOS/os/common/ext/ARM/CMSIS/Core/Include/cmsis_gcc.h"
 181              		.loc 4 493 0
 182              	@ 493 "../../modules/ChibiOS/os/common/ext/ARM/CMSIS/Core/Include/cmsis_gcc.h" 1
 183 006e 84F31188 		MSR basepri, r4
 184              	@ 0 "" 2
 185              		.thumb
 186              	.LBE128:
 187              	.LBE127:
 188              	.LBB129:
 189              	.LBB130:
 190              		.loc 4 131 0
 191              	@ 131 "../../modules/ChibiOS/os/common/ext/ARM/CMSIS/Core/Include/cmsis_gcc.h" 1
 192 0072 62B6     		cpsie i
 193              	@ 0 "" 2
 194              		.thumb
 195              	.LBE130:
 196              	.LBE129:
 197              	.LBE126:
 198              	.LBE125:
 199              	.LBB131:
 200              		.loc 1 181 0
 201 0074 0848     		ldr	r0, .L4+24
 202              	.LBE131:
 203              		.loc 1 184 0
 204 0076 BDE81040 		pop	{r4, lr}
 205              		.cfi_restore 14
 206              		.cfi_restore 4
 207              		.cfi_def_cfa_offset 0
 208              	.LBB132:
 209              		.loc 1 181 0
 210 007a FFF7FEBF 		b	chThdCreate
 211              	.LVL19:
 212              	.L5:
 213 007e 00BF     		.align	2
 214              	.L4:
 215 0080 30000000 		.word	ch+48
 216 0084 00000000 		.word	ch_debug
 217 0088 00ED00E0 		.word	-536810240
 218 008c 0003FA05 		.word	100270848
 219 0090 F0ED00E0 		.word	-536810000
 220 0094 001000E0 		.word	-536866816
 221 0098 00000000 		.word	.LANCHOR0
 222              	.LBE132:
 223              		.cfi_endproc
 224              	.LFE291:
 225              		.size	chSysInit, .-chSysInit
 226              		.section	.text.chSysHalt,"ax",%progbits
 227              		.align	1
 228              		.global	chSysHalt
ARM GAS  /tmp/ccmSIs1R.s 			page 5


 229              		.thumb
 230              		.thumb_func
 231              		.type	chSysHalt, %function
 232              	chSysHalt:
 233              	.LFB292:
 234              		.loc 1 198 0
 235              		.cfi_startproc
 236              		@ Volatile: function does not return.
 237              		@ args = 0, pretend = 0, frame = 0
 238              		@ frame_needed = 0, uses_anonymous_args = 0
 239              	.LVL20:
 240 0000 08B5     		push	{r3, lr}
 241              		.cfi_def_cfa_offset 8
 242              		.cfi_offset 3, -8
 243              		.cfi_offset 14, -4
 244              	.LBB133:
 245              	.LBB134:
 246              	.LBB135:
 247              		.loc 4 142 0
 248              	@ 142 "../../modules/ChibiOS/os/common/ext/ARM/CMSIS/Core/Include/cmsis_gcc.h" 1
 249 0002 72B6     		cpsid i
 250              	@ 0 "" 2
 251              		.thumb
 252              	.LBE135:
 253              	.LBE134:
 254              	.LBE133:
 255              		.loc 1 206 0
 256 0004 024B     		ldr	r3, .L9
 257 0006 D862     		str	r0, [r3, #44]
 258              	.LBB136:
 259              		.loc 1 209 0
 260 0008 FFF7FEFF 		bl	memory_flush_all
 261              	.LVL21:
 262              	.L7:
 263              	.LBE136:
 264              		.loc 1 213 0 discriminator 1
 265 000c FEE7     		b	.L7
 266              	.L10:
 267 000e 00BF     		.align	2
 268              	.L9:
 269 0010 00000000 		.word	ch
 270              		.cfi_endproc
 271              	.LFE292:
 272              		.size	chSysHalt, .-chSysHalt
 273              		.section	.text.chSysIntegrityCheckI,"ax",%progbits
 274              		.align	1
 275              		.global	chSysIntegrityCheckI
 276              		.thumb
 277              		.thumb_func
 278              		.type	chSysIntegrityCheckI, %function
 279              	chSysIntegrityCheckI:
 280              	.LFB293:
 281              		.loc 1 240 0
 282              		.cfi_startproc
 283              		@ args = 0, pretend = 0, frame = 0
 284              		@ frame_needed = 0, uses_anonymous_args = 0
 285              	.LVL22:
ARM GAS  /tmp/ccmSIs1R.s 			page 6


 286              		.loc 1 246 0
 287 0000 C207     		lsls	r2, r0, #31
 288              		.loc 1 240 0
 289 0002 10B5     		push	{r4, lr}
 290              		.cfi_def_cfa_offset 8
 291              		.cfi_offset 4, -8
 292              		.cfi_offset 14, -4
 293              		.loc 1 246 0
 294 0004 0ED5     		bpl	.L12
 295              	.LVL23:
 296              	.LBB137:
 297              		.loc 1 251 0
 298 0006 1C4B     		ldr	r3, .L42
 299 0008 1968     		ldr	r1, [r3]
 300              	.LVL24:
 301              		.loc 1 250 0
 302 000a 0022     		movs	r2, #0
 303              	.LVL25:
 304              	.L13:
 305              		.loc 1 252 0
 306 000c 9942     		cmp	r1, r3
 307 000e 02D0     		beq	.L36
 308              		.loc 1 253 0
 309 0010 0132     		adds	r2, r2, #1
 310              	.LVL26:
 311              		.loc 1 254 0
 312 0012 0968     		ldr	r1, [r1]
 313              	.LVL27:
 314 0014 FAE7     		b	.L13
 315              	.L36:
 316              		.loc 1 258 0
 317 0016 5968     		ldr	r1, [r3, #4]
 318              	.LVL28:
 319              	.L15:
 320              		.loc 1 259 0
 321 0018 9942     		cmp	r1, r3
 322 001a 02D0     		beq	.L37
 323              		.loc 1 260 0
 324 001c 013A     		subs	r2, r2, #1
 325              	.LVL29:
 326              		.loc 1 261 0
 327 001e 4968     		ldr	r1, [r1, #4]
 328              	.LVL30:
 329 0020 FAE7     		b	.L15
 330              	.L37:
 331              		.loc 1 265 0
 332 0022 3ABB     		cbnz	r2, .L28
 333              	.LVL31:
 334              	.L12:
 335              	.LBE137:
 336              		.loc 1 271 0
 337 0024 8307     		lsls	r3, r0, #30
 338 0026 10D5     		bpl	.L18
 339              	.LVL32:
 340              	.LBB138:
 341              		.loc 1 276 0
 342 0028 134A     		ldr	r2, .L42
ARM GAS  /tmp/ccmSIs1R.s 			page 7


 343 002a D469     		ldr	r4, [r2, #28]
 344              	.LVL33:
 345              		.loc 1 275 0
 346 002c 0023     		movs	r3, #0
 347 002e 1146     		mov	r1, r2
 348              	.LVL34:
 349              	.L19:
 350              		.loc 1 277 0
 351 0030 124A     		ldr	r2, .L42+4
 352 0032 9442     		cmp	r4, r2
 353 0034 02D0     		beq	.L38
 354              		.loc 1 278 0
 355 0036 0133     		adds	r3, r3, #1
 356              	.LVL35:
 357              		.loc 1 279 0
 358 0038 2468     		ldr	r4, [r4]
 359              	.LVL36:
 360 003a F9E7     		b	.L19
 361              	.L38:
 362              		.loc 1 283 0
 363 003c 096A     		ldr	r1, [r1, #32]
 364              	.LVL37:
 365              	.L21:
 366              		.loc 1 284 0
 367 003e 9142     		cmp	r1, r2
 368 0040 02D0     		beq	.L39
 369              		.loc 1 285 0
 370 0042 013B     		subs	r3, r3, #1
 371              	.LVL38:
 372              		.loc 1 286 0
 373 0044 4968     		ldr	r1, [r1, #4]
 374              	.LVL39:
 375 0046 FAE7     		b	.L21
 376              	.L39:
 377              		.loc 1 290 0
 378 0048 A3B9     		cbnz	r3, .L28
 379              	.LVL40:
 380              	.L18:
 381              	.LBE138:
 382              		.loc 1 296 0
 383 004a 10F00400 		ands	r0, r0, #4
 384              	.LVL41:
 385 004e 12D0     		beq	.L17
 386              	.LVL42:
 387              	.LBB139:
 388              		.loc 1 301 0
 389 0050 094B     		ldr	r3, .L42
 390 0052 1A69     		ldr	r2, [r3, #16]
 391              	.LVL43:
 392              		.loc 1 300 0
 393 0054 0020     		movs	r0, #0
 394              	.LVL44:
 395              	.L23:
 396              		.loc 1 302 0
 397 0056 9A42     		cmp	r2, r3
 398 0058 02D0     		beq	.L40
 399              		.loc 1 303 0
ARM GAS  /tmp/ccmSIs1R.s 			page 8


 400 005a 0130     		adds	r0, r0, #1
 401              	.LVL45:
 402              		.loc 1 304 0
 403 005c 1269     		ldr	r2, [r2, #16]
 404              	.LVL46:
 405 005e FAE7     		b	.L23
 406              	.L40:
 407              		.loc 1 308 0
 408 0060 5A69     		ldr	r2, [r3, #20]
 409              	.LVL47:
 410              	.L25:
 411              		.loc 1 309 0
 412 0062 9A42     		cmp	r2, r3
 413 0064 02D0     		beq	.L41
 414              		.loc 1 310 0
 415 0066 0138     		subs	r0, r0, #1
 416              	.LVL48:
 417              		.loc 1 311 0
 418 0068 5269     		ldr	r2, [r2, #20]
 419              	.LVL49:
 420 006a FAE7     		b	.L25
 421              	.L41:
 422              		.loc 1 315 0
 423 006c 0030     		adds	r0, r0, #0
 424 006e 18BF     		it	ne
 425 0070 0120     		movne	r0, #1
 426              	.LVL50:
 427 0072 10BD     		pop	{r4, pc}
 428              	.LVL51:
 429              	.L28:
 430              	.LBE139:
 431              	.LBB140:
 432              		.loc 1 266 0
 433 0074 0120     		movs	r0, #1
 434              	.LVL52:
 435              	.L17:
 436              	.LBE140:
 437              		.loc 1 328 0
 438 0076 10BD     		pop	{r4, pc}
 439              	.L43:
 440              		.align	2
 441              	.L42:
 442 0078 00000000 		.word	ch
 443 007c 1C000000 		.word	ch+28
 444              		.cfi_endproc
 445              	.LFE293:
 446              		.size	chSysIntegrityCheckI, .-chSysIntegrityCheckI
 447              		.section	.text.chSysTimerHandlerI,"ax",%progbits
 448              		.align	1
 449              		.global	chSysTimerHandlerI
 450              		.thumb
 451              		.thumb_func
 452              		.type	chSysTimerHandlerI, %function
 453              	chSysTimerHandlerI:
 454              	.LFB294:
 455              		.loc 1 341 0
 456              		.cfi_startproc
ARM GAS  /tmp/ccmSIs1R.s 			page 9


 457              		@ args = 0, pretend = 0, frame = 0
 458              		@ frame_needed = 0, uses_anonymous_args = 0
 459 0000 2DE9F843 		push	{r3, r4, r5, r6, r7, r8, r9, lr}
 460              		.cfi_def_cfa_offset 32
 461              		.cfi_offset 3, -32
 462              		.cfi_offset 4, -28
 463              		.cfi_offset 5, -24
 464              		.cfi_offset 6, -20
 465              		.cfi_offset 7, -16
 466              		.cfi_offset 8, -12
 467              		.cfi_offset 9, -8
 468              		.cfi_offset 14, -4
 469              	.LBB172:
 470              	.LBB173:
 471              		.file 5 "../../modules/ChibiOS/os/rt/include/chvt.h"
 472              		.loc 5 399 0
 473 0004 214D     		ldr	r5, .L52
 474 0006 EC69     		ldr	r4, [r5, #28]
 475              	.LVL53:
 476              	.L48:
 477              	.LBB174:
 478              	.LBB175:
 479              	.LBB176:
 480              	.LBB177:
 481              		.file 6 "../../modules/ChibiOS/os/hal/ports/STM32/LLD/TIMv1/hal_st_lld.h"
 482              		.loc 6 147 0
 483 0008 214B     		ldr	r3, .L52+4
 484              	.LBE177:
 485              	.LBE176:
 486              	.LBE175:
 487              	.LBE174:
 488              		.loc 5 409 0
 489 000a A268     		ldr	r2, [r4, #8]
 490              	.LBB181:
 491              	.LBB180:
 492              	.LBB179:
 493              	.LBB178:
 494              		.loc 6 147 0
 495 000c 586A     		ldr	r0, [r3, #36]
 496              	.LBE178:
 497              	.LBE179:
 498              	.LBE180:
 499              	.LBE181:
 500              		.loc 5 404 0
 501 000e AB6A     		ldr	r3, [r5, #40]
 502              	.LVL54:
 503 0010 1E49     		ldr	r1, .L52
 504              	.LBB182:
 505              	.LBB183:
 506              		.file 7 "../../modules/ChibiOS/os/rt/include/chtime.h"
 507              		.loc 7 514 0
 508 0012 C61A     		subs	r6, r0, r3
 509              	.LBE183:
 510              	.LBE182:
 511              		.loc 5 409 0
 512 0014 9642     		cmp	r6, r2
 513 0016 01F11C08 		add	r8, r1, #28
ARM GAS  /tmp/ccmSIs1R.s 			page 10


 514 001a 22D3     		bcc	.L45
 515              	.LVL55:
 516              	.L47:
 517              	.LBB184:
 518              		.loc 5 418 0
 519 001c A268     		ldr	r2, [r4, #8]
 520 001e AB6A     		ldr	r3, [r5, #40]
 521              		.loc 5 423 0
 522 0020 D4F80C90 		ldr	r9, [r4, #12]
 523              		.loc 5 418 0
 524 0024 1344     		add	r3, r3, r2
 525              		.loc 5 419 0
 526 0026 B61A     		subs	r6, r6, r2
 527              	.LVL56:
 528              		.loc 5 421 0
 529 0028 2268     		ldr	r2, [r4]
 530              		.loc 5 418 0
 531 002a AB62     		str	r3, [r5, #40]
 532              		.loc 5 427 0
 533 002c 4245     		cmp	r2, r8
 534              		.loc 5 424 0
 535 002e 4FF00003 		mov	r3, #0
 536              		.loc 5 421 0
 537 0032 C2F80480 		str	r8, [r2, #4]
 538 0036 1F46     		mov	r7, r3
 539              		.loc 5 422 0
 540 0038 EA61     		str	r2, [r5, #28]
 541              		.loc 5 424 0
 542 003a E360     		str	r3, [r4, #12]
 543              		.loc 5 427 0
 544 003c 01D1     		bne	.L46
 545              	.LBB185:
 546              	.LBB186:
 547              		.file 8 "../../modules/ChibiOS/os/common/ports/ARMCMx/chcore_timer.h"
 548              		.loc 8 83 0
 549 003e FFF7FEFF 		bl	stStopAlarm
 550              	.LVL57:
 551              	.L46:
 552              	.LBE186:
 553              	.LBE185:
 554              	.LBB187:
 555              	.LBB188:
 556              		.file 9 "../../modules/ChibiOS/os/rt/include/chsys.h"
 557              		.loc 9 416 0
 558 0042 FFF7FEFF 		bl	_stats_stop_measure_crit_isr
 559              	.LVL58:
 560              	.LBB189:
 561              	.LBB190:
 562              	.LBB191:
 563              	.LBB192:
 564              		.loc 4 493 0
 565              	@ 493 "../../modules/ChibiOS/os/common/ext/ARM/CMSIS/Core/Include/cmsis_gcc.h" 1
 566 0046 87F31188 		MSR basepri, r7
 567              	@ 0 "" 2
 568              		.thumb
 569              	.LBE192:
 570              	.LBE191:
ARM GAS  /tmp/ccmSIs1R.s 			page 11


 571              	.LBE190:
 572              	.LBE189:
 573              	.LBE188:
 574              	.LBE187:
 575              		.loc 5 433 0
 576 004a 2069     		ldr	r0, [r4, #16]
 577 004c C847     		blx	r9
 578              	.LVL59:
 579              	.LBB193:
 580              	.LBB194:
 581              	.LBB195:
 582              	.LBB196:
 583              	.LBB197:
 584              	.LBB198:
 585              		.loc 4 493 0
 586 004e 2023     		movs	r3, #32
 587              	@ 493 "../../modules/ChibiOS/os/common/ext/ARM/CMSIS/Core/Include/cmsis_gcc.h" 1
 588 0050 83F31188 		MSR basepri, r3
 589              	@ 0 "" 2
 590              		.thumb
 591              	.LBE198:
 592              	.LBE197:
 593              	.LBE196:
 594              	.LBE195:
 595              		.loc 9 396 0
 596 0054 FFF7FEFF 		bl	_stats_start_measure_crit_isr
 597              	.LVL60:
 598              	.LBE194:
 599              	.LBE193:
 600              		.loc 5 437 0
 601 0058 EC69     		ldr	r4, [r5, #28]
 602              	.LVL61:
 603              	.LBE184:
 604              		.loc 5 439 0
 605 005a A368     		ldr	r3, [r4, #8]
 606 005c B342     		cmp	r3, r6
 607 005e DDD9     		bls	.L47
 608 0060 D2E7     		b	.L48
 609              	.LVL62:
 610              	.L45:
 611              		.loc 5 443 0
 612 0062 CA69     		ldr	r2, [r1, #28]
 613 0064 4245     		cmp	r2, r8
 614 0066 0FD0     		beq	.L44
 615              		.loc 5 449 0
 616 0068 3344     		add	r3, r3, r6
 617              	.LVL63:
 618 006a 8B62     		str	r3, [r1, #40]
 619              	.LVL64:
 620              		.loc 5 450 0
 621 006c 9168     		ldr	r1, [r2, #8]
 622 006e 8E1B     		subs	r6, r1, r6
 623 0070 9660     		str	r6, [r2, #8]
 624              	.LVL65:
 625              	.LBB199:
 626              	.LBB200:
 627              		.loc 7 514 0
ARM GAS  /tmp/ccmSIs1R.s 			page 12


 628 0072 A268     		ldr	r2, [r4, #8]
 629 0074 1B1A     		subs	r3, r3, r0
 630              	.LVL66:
 631 0076 1344     		add	r3, r3, r2
 632              	.LBE200:
 633              	.LBE199:
 634              		.loc 5 455 0
 635 0078 012B     		cmp	r3, #1
 636 007a 98BF     		it	ls
 637 007c 0223     		movls	r3, #2
 638              	.LVL67:
 639              	.LBB201:
 640              	.LBB202:
 641              		.loc 8 95 0
 642 007e 1844     		add	r0, r0, r3
 643              	.LVL68:
 644              	.LBE202:
 645              	.LBE201:
 646              	.LBE173:
 647              	.LBE172:
 648              		.loc 1 357 0
 649 0080 BDE8F843 		pop	{r3, r4, r5, r6, r7, r8, r9, lr}
 650              		.cfi_remember_state
 651              		.cfi_restore 14
 652              		.cfi_restore 9
 653              		.cfi_restore 8
 654              		.cfi_restore 7
 655              		.cfi_restore 6
 656              		.cfi_restore 5
 657              		.cfi_restore 4
 658              		.cfi_restore 3
 659              		.cfi_def_cfa_offset 0
 660              	.LVL69:
 661              	.LBB206:
 662              	.LBB205:
 663              	.LBB204:
 664              	.LBB203:
 665              		.loc 8 95 0
 666 0084 FFF7FEBF 		b	stSetAlarm
 667              	.LVL70:
 668              	.L44:
 669              		.cfi_restore_state
 670 0088 BDE8F883 		pop	{r3, r4, r5, r6, r7, r8, r9, pc}
 671              	.LVL71:
 672              	.L53:
 673              		.align	2
 674              	.L52:
 675 008c 00000000 		.word	ch
 676 0090 000C0040 		.word	1073744896
 677              	.LBE203:
 678              	.LBE204:
 679              	.LBE205:
 680              	.LBE206:
 681              		.cfi_endproc
 682              	.LFE294:
 683              		.size	chSysTimerHandlerI, .-chSysTimerHandlerI
 684              		.section	.text.chSysGetStatusAndLockX,"ax",%progbits
ARM GAS  /tmp/ccmSIs1R.s 			page 13


 685              		.align	1
 686              		.global	chSysGetStatusAndLockX
 687              		.thumb
 688              		.thumb_func
 689              		.type	chSysGetStatusAndLockX, %function
 690              	chSysGetStatusAndLockX:
 691              	.LFB295:
 692              		.loc 1 372 0
 693              		.cfi_startproc
 694              		@ args = 0, pretend = 0, frame = 0
 695              		@ frame_needed = 0, uses_anonymous_args = 0
 696 0000 10B5     		push	{r4, lr}
 697              		.cfi_def_cfa_offset 8
 698              		.cfi_offset 4, -8
 699              		.cfi_offset 14, -4
 700              	.LBB226:
 701              	.LBB227:
 702              	.LBB228:
 703              	.LBB229:
 704              		.loc 4 465 0
 705              	@ 465 "../../modules/ChibiOS/os/common/ext/ARM/CMSIS/Core/Include/cmsis_gcc.h" 1
 706 0002 EFF31184 		MRS r4, basepri
 707              	@ 0 "" 2
 708              	.LVL72:
 709              		.thumb
 710              	.LBE229:
 711              	.LBE228:
 712              	.LBE227:
 713              	.LBE226:
 714              		.loc 1 375 0
 715 0006 74B9     		cbnz	r4, .L55
 716              	.LBB230:
 717              	.LBB231:
 718              	.LBB232:
 719              	.LBB233:
 720              		.loc 4 209 0
 721              	@ 209 "../../modules/ChibiOS/os/common/ext/ARM/CMSIS/Core/Include/cmsis_gcc.h" 1
 722 0008 EFF30583 		MRS r3, ipsr
 723              	@ 0 "" 2
 724              	.LVL73:
 725              		.thumb
 726              	.LBE233:
 727              	.LBE232:
 728              		.loc 3 594 0
 729 000c C3F30803 		ubfx	r3, r3, #0, #9
 730              	.LVL74:
 731 0010 2022     		movs	r2, #32
 732              	.LBE231:
 733              	.LBE230:
 734              		.loc 1 376 0
 735 0012 23B1     		cbz	r3, .L56
 736              	.LVL75:
 737              	.LBB234:
 738              	.LBB235:
 739              	.LBB236:
 740              	.LBB237:
 741              	.LBB238:
ARM GAS  /tmp/ccmSIs1R.s 			page 14


 742              	.LBB239:
 743              		.loc 4 493 0
 744              	@ 493 "../../modules/ChibiOS/os/common/ext/ARM/CMSIS/Core/Include/cmsis_gcc.h" 1
 745 0014 82F31188 		MSR basepri, r2
 746              	@ 0 "" 2
 747              		.thumb
 748              	.LBE239:
 749              	.LBE238:
 750              	.LBE237:
 751              	.LBE236:
 752              		.loc 9 396 0
 753 0018 FFF7FEFF 		bl	_stats_start_measure_crit_isr
 754              	.LVL76:
 755 001c 03E0     		b	.L55
 756              	.LVL77:
 757              	.L56:
 758              	.LBE235:
 759              	.LBE234:
 760              	.LBB240:
 761              	.LBB241:
 762              	.LBB242:
 763              	.LBB243:
 764              	.LBB244:
 765              		.loc 4 493 0
 766              	@ 493 "../../modules/ChibiOS/os/common/ext/ARM/CMSIS/Core/Include/cmsis_gcc.h" 1
 767 001e 82F31188 		MSR basepri, r2
 768              	@ 0 "" 2
 769              		.thumb
 770              	.LBE244:
 771              	.LBE243:
 772              	.LBE242:
 773              		.loc 9 356 0
 774 0022 FFF7FEFF 		bl	_stats_start_measure_crit_thd
 775              	.LVL78:
 776              	.L55:
 777              	.LBE241:
 778              	.LBE240:
 779              		.loc 1 384 0
 780 0026 2046     		mov	r0, r4
 781 0028 10BD     		pop	{r4, pc}
 782              		.cfi_endproc
 783              	.LFE295:
 784              		.size	chSysGetStatusAndLockX, .-chSysGetStatusAndLockX
 785              		.section	.text.chSysRestoreStatusX,"ax",%progbits
 786              		.align	1
 787              		.global	chSysRestoreStatusX
 788              		.thumb
 789              		.thumb_func
 790              		.type	chSysRestoreStatusX, %function
 791              	chSysRestoreStatusX:
 792              	.LFB296:
 793              		.loc 1 395 0
 794              		.cfi_startproc
 795              		@ args = 0, pretend = 0, frame = 0
 796              		@ frame_needed = 0, uses_anonymous_args = 0
 797              	.LVL79:
 798 0000 38B5     		push	{r3, r4, r5, lr}
ARM GAS  /tmp/ccmSIs1R.s 			page 15


 799              		.cfi_def_cfa_offset 16
 800              		.cfi_offset 3, -16
 801              		.cfi_offset 4, -12
 802              		.cfi_offset 5, -8
 803              		.cfi_offset 14, -4
 804              		.loc 1 397 0
 805 0002 0546     		mov	r5, r0
 806 0004 78B9     		cbnz	r0, .L57
 807              	.LBB260:
 808              	.LBB261:
 809              	.LBB262:
 810              	.LBB263:
 811              		.loc 4 209 0
 812              	@ 209 "../../modules/ChibiOS/os/common/ext/ARM/CMSIS/Core/Include/cmsis_gcc.h" 1
 813 0006 EFF30584 		MRS r4, ipsr
 814              	@ 0 "" 2
 815              	.LVL80:
 816              		.thumb
 817              	.LBE263:
 818              	.LBE262:
 819              		.loc 3 594 0
 820 000a C4F30804 		ubfx	r4, r4, #0, #9
 821              	.LVL81:
 822              	.LBE261:
 823              	.LBE260:
 824              		.loc 1 398 0
 825 000e 24B1     		cbz	r4, .L59
 826              	.LBB264:
 827              	.LBB265:
 828              		.loc 9 416 0
 829 0010 FFF7FEFF 		bl	_stats_stop_measure_crit_isr
 830              	.LVL82:
 831              	.LBB266:
 832              	.LBB267:
 833              	.LBB268:
 834              	.LBB269:
 835              		.loc 4 493 0
 836              	@ 493 "../../modules/ChibiOS/os/common/ext/ARM/CMSIS/Core/Include/cmsis_gcc.h" 1
 837 0014 85F31188 		MSR basepri, r5
 838              	@ 0 "" 2
 839              		.thumb
 840 0018 38BD     		pop	{r3, r4, r5, pc}
 841              	.LVL83:
 842              	.L59:
 843              	.LBE269:
 844              	.LBE268:
 845              	.LBE267:
 846              	.LBE266:
 847              	.LBE265:
 848              	.LBE264:
 849              		.loc 1 402 0
 850 001a FFF7FEFF 		bl	chSchRescheduleS
 851              	.LVL84:
 852              	.LBB270:
 853              	.LBB271:
 854              		.loc 9 368 0
 855 001e FFF7FEFF 		bl	_stats_stop_measure_crit_thd
ARM GAS  /tmp/ccmSIs1R.s 			page 16


 856              	.LVL85:
 857              	.LBB272:
 858              	.LBB273:
 859              	.LBB274:
 860              		.loc 4 493 0
 861              	@ 493 "../../modules/ChibiOS/os/common/ext/ARM/CMSIS/Core/Include/cmsis_gcc.h" 1
 862 0022 84F31188 		MSR basepri, r4
 863              	@ 0 "" 2
 864              	.LVL86:
 865              		.thumb
 866              	.L57:
 867 0026 38BD     		pop	{r3, r4, r5, pc}
 868              	.LBE274:
 869              	.LBE273:
 870              	.LBE272:
 871              	.LBE271:
 872              	.LBE270:
 873              		.cfi_endproc
 874              	.LFE296:
 875              		.size	chSysRestoreStatusX, .-chSysRestoreStatusX
 876              		.section	.text.chSysIsCounterWithinX,"ax",%progbits
 877              		.align	1
 878              		.global	chSysIsCounterWithinX
 879              		.thumb
 880              		.thumb_func
 881              		.type	chSysIsCounterWithinX, %function
 882              	chSysIsCounterWithinX:
 883              	.LFB297:
 884              		.loc 1 427 0
 885              		.cfi_startproc
 886              		@ args = 0, pretend = 0, frame = 0
 887              		@ frame_needed = 0, uses_anonymous_args = 0
 888              		@ link register save eliminated.
 889              	.LVL87:
 890              		.loc 1 429 0
 891 0000 401A     		subs	r0, r0, r1
 892              	.LVL88:
 893 0002 521A     		subs	r2, r2, r1
 894              	.LVL89:
 895              		.loc 1 430 0
 896 0004 9042     		cmp	r0, r2
 897 0006 2CBF     		ite	cs
 898 0008 0020     		movcs	r0, #0
 899 000a 0120     		movcc	r0, #1
 900 000c 7047     		bx	lr
 901              		.cfi_endproc
 902              	.LFE297:
 903              		.size	chSysIsCounterWithinX, .-chSysIsCounterWithinX
 904              		.section	.text.chSysPolledDelayX,"ax",%progbits
 905              		.align	1
 906              		.global	chSysPolledDelayX
 907              		.thumb
 908              		.thumb_func
 909              		.type	chSysPolledDelayX, %function
 910              	chSysPolledDelayX:
 911              	.LFB298:
 912              		.loc 1 443 0
ARM GAS  /tmp/ccmSIs1R.s 			page 17


 913              		.cfi_startproc
 914              		@ args = 0, pretend = 0, frame = 0
 915              		@ frame_needed = 0, uses_anonymous_args = 0
 916              		@ link register save eliminated.
 917              	.LVL90:
 918              	.LBB275:
 919              	.LBB276:
 920              		.loc 3 716 0
 921 0000 034B     		ldr	r3, .L64
 922 0002 5968     		ldr	r1, [r3, #4]
 923              	.LVL91:
 924              	.L62:
 925              	.LBE276:
 926              	.LBE275:
 927              	.LBB277:
 928              	.LBB278:
 929              		.loc 3 716 0 is_stmt 0 discriminator 1
 930 0004 5A68     		ldr	r2, [r3, #4]
 931              	.LVL92:
 932              	.LBE278:
 933              	.LBE277:
 934              	.LBB279:
 935              	.LBB280:
 936              		.loc 1 429 0 is_stmt 1 discriminator 1
 937 0006 521A     		subs	r2, r2, r1
 938              	.LVL93:
 939              	.LBE280:
 940              	.LBE279:
 941              		.loc 1 447 0 discriminator 1
 942 0008 8242     		cmp	r2, r0
 943 000a FBD3     		bcc	.L62
 944              		.loc 1 449 0
 945 000c 7047     		bx	lr
 946              	.L65:
 947 000e 00BF     		.align	2
 948              	.L64:
 949 0010 001000E0 		.word	-536866816
 950              		.cfi_endproc
 951              	.LFE298:
 952              		.size	chSysPolledDelayX, .-chSysPolledDelayX
 953              		.global	ch_idle_thread_wa
 954              		.section	.rodata.str1.1,"aMS",%progbits,1
 955              	.LC0:
 956 0000 69646C65 		.ascii	"idle\000"
 956      00
 957              		.section	.rodata.idle_descriptor.6981,"a",%progbits
 958              		.align	2
 959              		.set	.LANCHOR0,. + 0
 960              		.type	idle_descriptor.6981, %object
 961              		.size	idle_descriptor.6981, 24
 962              	idle_descriptor.6981:
 963 0000 00000000 		.word	.LC0
 964 0004 00000000 		.word	ch_idle_thread_wa
 965 0008 40020000 		.word	ch_idle_thread_wa+576
 966 000c 01000000 		.word	1
 967 0010 00000000 		.word	_idle_thread
 968 0014 00000000 		.word	0
ARM GAS  /tmp/ccmSIs1R.s 			page 18


 969              		.section	.bss.ch_idle_thread_wa,"aw",%nobits
 970              		.align	3
 971              		.type	ch_idle_thread_wa, %object
 972              		.size	ch_idle_thread_wa, 576
 973              	ch_idle_thread_wa:
 974 0000 00000000 		.space	576
 974      00000000 
 974      00000000 
 974      00000000 
 974      00000000 
 975              		.text
 976              	.Letext0:
 977              		.file 10 "/usr/lib/gcc/arm-none-eabi/4.9.3/include/stddef.h"
 978              		.file 11 "/usr/include/newlib/machine/_default_types.h"
 979              		.file 12 "/usr/include/newlib/sys/_stdint.h"
 980              		.file 13 "../../modules/ChibiOS/os/common/ports/ARMCMx/compilers/GCC/chtypes.h"
 981              		.file 14 "../../modules/ChibiOS/os/rt/include/chsystypes.h"
 982              		.file 15 "../../modules/ChibiOS/os/rt/include/chschd.h"
 983              		.file 16 "../../modules/ChibiOS/os/common/ext/ST/STM32F4xx/stm32f407xx.h"
 984              		.file 17 "../../modules/ChibiOS/os/common/ports/ARMCMx/chcore.h"
 985              		.file 18 "../../modules/ChibiOS/os/hal/ports/STM32/LLD/TIMv1/stm32_tim.h"
 986              		.file 19 "../../modules/ChibiOS/os/rt/include/chtm.h"
 987              		.file 20 "../../modules/ChibiOS/os/rt/include/chstats.h"
 988              		.file 21 "../../modules/ChibiOS/os/rt/include/chsem.h"
 989              		.file 22 "../../modules/ChibiOS/os/rt/include/chmtx.h"
 990              		.file 23 "../../modules/ChibiOS/os/rt/include/chthreads.h"
 991              		.file 24 "../../modules/ChibiOS/os/rt/include/chregistry.h"
 992              		.file 25 "../../modules/ChibiOS/os/oslib/include/chmemcore.h"
 993              		.file 26 "../../modules/ChibiOS/os/oslib/include/chmemheaps.h"
 994              		.file 27 "../../modules/ChibiOS/os/oslib/include/chfactory.h"
 995              		.file 28 "../../modules/ChibiOS/os/hal/include/hal_st.h"