ARM GAS  /tmp/ccHoZ5z1.s 			page 1


   1              		.syntax unified
   2              		.cpu cortex-m4
   3              		.eabi_attribute 27, 1
   4              		.eabi_attribute 28, 1
   5              		.fpu fpv4-sp-d16
   6              		.eabi_attribute 20, 1
   7              		.eabi_attribute 21, 1
   8              		.eabi_attribute 23, 3
   9              		.eabi_attribute 24, 1
  10              		.eabi_attribute 25, 1
  11              		.eabi_attribute 26, 1
  12              		.eabi_attribute 30, 4
  13              		.eabi_attribute 34, 1
  14              		.eabi_attribute 18, 4
  15              		.thumb
  16              		.file	"chthreads.c"
  17              		.text
  18              	.Ltext0:
  19              		.cfi_sections	.debug_frame
  20              		.section	.text.chSysLock,"ax",%progbits
  21              		.align	1
  22              		.thumb
  23              		.thumb_func
  24              		.type	chSysLock, %function
  25              	chSysLock:
  26              	.LFB184:
  27              		.file 1 "../../modules/ChibiOS/os/rt/include/chsys.h"
  28              		.loc 1 353 0
  29              		.cfi_startproc
  30              		@ args = 0, pretend = 0, frame = 0
  31              		@ frame_needed = 0, uses_anonymous_args = 0
  32              		@ link register save eliminated.
  33              	.LVL0:
  34              	.LBB74:
  35              	.LBB75:
  36              	.LBB76:
  37              		.file 2 "../../modules/ChibiOS/os/common/ext/ARM/CMSIS/Core/Include/cmsis_gcc.h"
  38              		.loc 2 493 0
  39 0000 2023     		movs	r3, #32
  40              	@ 493 "../../modules/ChibiOS/os/common/ext/ARM/CMSIS/Core/Include/cmsis_gcc.h" 1
  41 0002 83F31188 		MSR basepri, r3
  42              	@ 0 "" 2
  43              		.thumb
  44              	.LBE76:
  45              	.LBE75:
  46              	.LBE74:
  47              		.loc 1 356 0
  48 0006 FFF7FEBF 		b	_stats_start_measure_crit_thd
  49              	.LVL1:
  50              		.cfi_endproc
  51              	.LFE184:
  52              		.size	chSysLock, .-chSysLock
  53              		.section	.text.chSysUnlock,"ax",%progbits
  54              		.align	1
  55              		.thumb
  56              		.thumb_func
  57              		.type	chSysUnlock, %function
ARM GAS  /tmp/ccHoZ5z1.s 			page 2


  58              	chSysUnlock:
  59              	.LFB185:
  60              		.loc 1 365 0
  61              		.cfi_startproc
  62              		@ args = 0, pretend = 0, frame = 0
  63              		@ frame_needed = 0, uses_anonymous_args = 0
  64 0000 08B5     		push	{r3, lr}
  65              		.cfi_def_cfa_offset 8
  66              		.cfi_offset 3, -8
  67              		.cfi_offset 14, -4
  68              		.loc 1 368 0
  69 0002 FFF7FEFF 		bl	_stats_stop_measure_crit_thd
  70              	.LVL2:
  71              	.LBB77:
  72              	.LBB78:
  73              	.LBB79:
  74              		.loc 2 493 0
  75 0006 0023     		movs	r3, #0
  76              	@ 493 "../../modules/ChibiOS/os/common/ext/ARM/CMSIS/Core/Include/cmsis_gcc.h" 1
  77 0008 83F31188 		MSR basepri, r3
  78              	@ 0 "" 2
  79              		.thumb
  80 000c 08BD     		pop	{r3, pc}
  81              	.LBE79:
  82              	.LBE78:
  83              	.LBE77:
  84              		.cfi_endproc
  85              	.LFE185:
  86              		.size	chSysUnlock, .-chSysUnlock
  87              		.section	.text._thread_init,"ax",%progbits
  88              		.align	1
  89              		.global	_thread_init
  90              		.thumb
  91              		.thumb_func
  92              		.type	_thread_init, %function
  93              	_thread_init:
  94              	.LFB290:
  95              		.file 3 "../../modules/ChibiOS/os/rt/src/chthreads.c"
  96              		.loc 3 88 0
  97              		.cfi_startproc
  98              		@ args = 0, pretend = 0, frame = 0
  99              		@ frame_needed = 0, uses_anonymous_args = 0
 100              	.LVL3:
 101              		.loc 3 91 0
 102 0000 0223     		movs	r3, #2
 103              		.loc 3 88 0
 104 0002 10B5     		push	{r4, lr}
 105              		.cfi_def_cfa_offset 8
 106              		.cfi_offset 4, -8
 107              		.cfi_offset 14, -4
 108              		.loc 3 91 0
 109 0004 80F82030 		strb	r3, [r0, #32]
 110              		.loc 3 92 0
 111 0008 0023     		movs	r3, #0
 112 000a 80F82130 		strb	r3, [r0, #33]
 113              		.loc 3 98 0
 114 000e 8363     		str	r3, [r0, #56]
ARM GAS  /tmp/ccHoZ5z1.s 			page 3


 115              		.loc 3 101 0
 116 0010 4363     		str	r3, [r0, #52]
 117              		.loc 3 107 0
 118 0012 0123     		movs	r3, #1
 119 0014 80F82230 		strb	r3, [r0, #34]
 120              		.loc 3 109 0
 121 0018 0A4B     		ldr	r3, .L4
 122              		.loc 3 90 0
 123 001a 8260     		str	r2, [r0, #8]
 124              		.loc 3 97 0
 125 001c C263     		str	r2, [r0, #60]
 126              		.loc 3 109 0
 127 001e 5A69     		ldr	r2, [r3, #20]
 128              	.LVL4:
 129 0020 0361     		str	r3, [r0, #16]
 130 0022 4261     		str	r2, [r0, #20]
 131              		.loc 3 108 0
 132 0024 8161     		str	r1, [r0, #24]
 133              		.loc 3 109 0
 134 0026 1061     		str	r0, [r2, #16]
 135 0028 5861     		str	r0, [r3, #20]
 136              	.LVL5:
 137              		.loc 3 114 0
 138 002a 00F12803 		add	r3, r0, #40
 139              	.LVL6:
 140              	.LBB80:
 141              	.LBB81:
 142              		.file 4 "../../modules/ChibiOS/os/rt/include/chschd.h"
 143              		.loc 4 501 0
 144 002e 8362     		str	r3, [r0, #40]
 145              	.LBE81:
 146              	.LBE80:
 147              		.loc 3 117 0
 148 0030 00F12C03 		add	r3, r0, #44
 149              	.LVL7:
 150              	.LBB82:
 151              	.LBB83:
 152              		.loc 4 539 0
 153 0034 C362     		str	r3, [r0, #44]
 154              		.loc 4 540 0
 155 0036 0363     		str	r3, [r0, #48]
 156              	.LBE83:
 157              	.LBE82:
 158              		.loc 3 88 0
 159 0038 0446     		mov	r4, r0
 160              		.loc 3 120 0
 161 003a 4830     		adds	r0, r0, #72
 162              	.LVL8:
 163 003c FFF7FEFF 		bl	chTMObjectInit
 164              	.LVL9:
 165              		.loc 3 124 0
 166 0040 2046     		mov	r0, r4
 167 0042 10BD     		pop	{r4, pc}
 168              	.LVL10:
 169              	.L5:
 170              		.align	2
 171              	.L4:
ARM GAS  /tmp/ccHoZ5z1.s 			page 4


 172 0044 00000000 		.word	ch
 173              		.cfi_endproc
 174              	.LFE290:
 175              		.size	_thread_init, .-_thread_init
 176              		.section	.text._thread_memfill,"ax",%progbits
 177              		.align	1
 178              		.global	_thread_memfill
 179              		.thumb
 180              		.thumb_func
 181              		.type	_thread_memfill, %function
 182              	_thread_memfill:
 183              	.LFB291:
 184              		.loc 3 136 0
 185              		.cfi_startproc
 186              		@ args = 0, pretend = 0, frame = 0
 187              		@ frame_needed = 0, uses_anonymous_args = 0
 188              		@ link register save eliminated.
 189              	.LVL11:
 190              	.L7:
 191              		.loc 3 138 0
 192 0000 8842     		cmp	r0, r1
 193 0002 02D2     		bcs	.L10
 194              		.loc 3 139 0
 195 0004 00F8012B 		strb	r2, [r0], #1
 196              	.LVL12:
 197 0008 FAE7     		b	.L7
 198              	.LVL13:
 199              	.L10:
 200              		.loc 3 141 0
 201 000a 7047     		bx	lr
 202              		.cfi_endproc
 203              	.LFE291:
 204              		.size	_thread_memfill, .-_thread_memfill
 205              		.section	.text.chThdCreateSuspendedI,"ax",%progbits
 206              		.align	1
 207              		.global	chThdCreateSuspendedI
 208              		.thumb
 209              		.thumb_func
 210              		.type	chThdCreateSuspendedI, %function
 211              	chThdCreateSuspendedI:
 212              	.LFB292:
 213              		.loc 3 167 0
 214              		.cfi_startproc
 215              		@ args = 0, pretend = 0, frame = 0
 216              		@ frame_needed = 0, uses_anonymous_args = 0
 217              		@ link register save eliminated.
 218              	.LVL14:
 219              		.loc 3 167 0
 220 0000 0346     		mov	r3, r0
 221              		.loc 3 181 0
 222 0002 8068     		ldr	r0, [r0, #8]
 223              	.LVL15:
 224              		.loc 3 186 0
 225 0004 5A68     		ldr	r2, [r3, #4]
 226 0006 40F8442C 		str	r2, [r0, #-68]
 227              		.loc 3 190 0
 228 000a A0F1C402 		sub	r2, r0, #196
ARM GAS  /tmp/ccHoZ5z1.s 			page 5


 229 000e 40F8542C 		str	r2, [r0, #-84]
 230 0012 1A69     		ldr	r2, [r3, #16]
 231 0014 40F8842C 		str	r2, [r0, #-132]
 232 0018 5A69     		ldr	r2, [r3, #20]
 233 001a 40F8802C 		str	r2, [r0, #-128]
 234 001e 044A     		ldr	r2, .L12
 235 0020 40F8642C 		str	r2, [r0, #-100]
 236              		.loc 3 193 0
 237 0024 1968     		ldr	r1, [r3]
 238 0026 DA68     		ldr	r2, [r3, #12]
 239 0028 6038     		subs	r0, r0, #96
 240              	.LVL16:
 241 002a FFF7FEBF 		b	_thread_init
 242              	.LVL17:
 243              	.L13:
 244 002e 00BF     		.align	2
 245              	.L12:
 246 0030 00000000 		.word	_port_thread_start
 247              		.cfi_endproc
 248              	.LFE292:
 249              		.size	chThdCreateSuspendedI, .-chThdCreateSuspendedI
 250              		.section	.text.chThdCreateSuspended,"ax",%progbits
 251              		.align	1
 252              		.global	chThdCreateSuspended
 253              		.thumb
 254              		.thumb_func
 255              		.type	chThdCreateSuspended, %function
 256              	chThdCreateSuspended:
 257              	.LFB293:
 258              		.loc 3 216 0
 259              		.cfi_startproc
 260              		@ args = 0, pretend = 0, frame = 0
 261              		@ frame_needed = 0, uses_anonymous_args = 0
 262              	.LVL18:
 263              		.loc 3 225 0
 264 0000 4368     		ldr	r3, [r0, #4]
 265              		.loc 3 226 0
 266 0002 8268     		ldr	r2, [r0, #8]
 267              	.LVL19:
 268              		.loc 3 216 0
 269 0004 10B5     		push	{r4, lr}
 270              		.cfi_def_cfa_offset 8
 271              		.cfi_offset 4, -8
 272              		.cfi_offset 14, -4
 273              		.loc 3 216 0
 274 0006 0446     		mov	r4, r0
 275              	.LVL20:
 276              	.L15:
 277              	.LBB84:
 278              	.LBB85:
 279              		.loc 3 138 0
 280 0008 9342     		cmp	r3, r2
 281 000a 03D2     		bcs	.L17
 282              		.loc 3 139 0
 283 000c 5521     		movs	r1, #85
 284 000e 03F8011B 		strb	r1, [r3], #1
 285              	.LVL21:
ARM GAS  /tmp/ccHoZ5z1.s 			page 6


 286 0012 F9E7     		b	.L15
 287              	.LVL22:
 288              	.L17:
 289              	.LBE85:
 290              	.LBE84:
 291              		.loc 3 230 0
 292 0014 FFF7FEFF 		bl	chSysLock
 293              	.LVL23:
 294              		.loc 3 231 0
 295 0018 2046     		mov	r0, r4
 296 001a FFF7FEFF 		bl	chThdCreateSuspendedI
 297              	.LVL24:
 298 001e 0446     		mov	r4, r0
 299              	.LVL25:
 300              		.loc 3 232 0
 301 0020 FFF7FEFF 		bl	chSysUnlock
 302              	.LVL26:
 303              		.loc 3 235 0
 304 0024 2046     		mov	r0, r4
 305 0026 10BD     		pop	{r4, pc}
 306              		.cfi_endproc
 307              	.LFE293:
 308              		.size	chThdCreateSuspended, .-chThdCreateSuspended
 309              		.section	.text.chThdCreateI,"ax",%progbits
 310              		.align	1
 311              		.global	chThdCreateI
 312              		.thumb
 313              		.thumb_func
 314              		.type	chThdCreateI, %function
 315              	chThdCreateI:
 316              	.LFB294:
 317              		.loc 3 259 0
 318              		.cfi_startproc
 319              		@ args = 0, pretend = 0, frame = 0
 320              		@ frame_needed = 0, uses_anonymous_args = 0
 321              	.LVL27:
 322 0000 08B5     		push	{r3, lr}
 323              		.cfi_def_cfa_offset 8
 324              		.cfi_offset 3, -8
 325              		.cfi_offset 14, -4
 326              		.loc 3 261 0
 327 0002 FFF7FEFF 		bl	chThdCreateSuspendedI
 328              	.LVL28:
 329              		.loc 3 262 0
 330 0006 BDE80840 		pop	{r3, lr}
 331              		.cfi_restore 14
 332              		.cfi_restore 3
 333              		.cfi_def_cfa_offset 0
 334              		.loc 3 261 0
 335 000a FFF7FEBF 		b	chSchReadyI
 336              	.LVL29:
 337              		.cfi_endproc
 338              	.LFE294:
 339              		.size	chThdCreateI, .-chThdCreateI
 340              		.section	.text.chThdCreate,"ax",%progbits
 341              		.align	1
 342              		.global	chThdCreate
ARM GAS  /tmp/ccHoZ5z1.s 			page 7


 343              		.thumb
 344              		.thumb_func
 345              		.type	chThdCreate, %function
 346              	chThdCreate:
 347              	.LFB295:
 348              		.loc 3 280 0
 349              		.cfi_startproc
 350              		@ args = 0, pretend = 0, frame = 0
 351              		@ frame_needed = 0, uses_anonymous_args = 0
 352              	.LVL30:
 353              		.loc 3 290 0
 354 0000 4368     		ldr	r3, [r0, #4]
 355              		.loc 3 291 0
 356 0002 8268     		ldr	r2, [r0, #8]
 357              	.LVL31:
 358              		.loc 3 280 0
 359 0004 10B5     		push	{r4, lr}
 360              		.cfi_def_cfa_offset 8
 361              		.cfi_offset 4, -8
 362              		.cfi_offset 14, -4
 363              		.loc 3 280 0
 364 0006 0446     		mov	r4, r0
 365              	.LVL32:
 366              	.L20:
 367              	.LBB86:
 368              	.LBB87:
 369              		.loc 3 138 0
 370 0008 9342     		cmp	r3, r2
 371 000a 03D2     		bcs	.L22
 372              		.loc 3 139 0
 373 000c 5521     		movs	r1, #85
 374 000e 03F8011B 		strb	r1, [r3], #1
 375              	.LVL33:
 376 0012 F9E7     		b	.L20
 377              	.LVL34:
 378              	.L22:
 379              	.LBE87:
 380              	.LBE86:
 381              		.loc 3 295 0
 382 0014 FFF7FEFF 		bl	chSysLock
 383              	.LVL35:
 384              		.loc 3 296 0
 385 0018 2046     		mov	r0, r4
 386 001a FFF7FEFF 		bl	chThdCreateSuspendedI
 387              	.LVL36:
 388              		.loc 3 297 0
 389 001e 0021     		movs	r1, #0
 390              		.loc 3 296 0
 391 0020 0446     		mov	r4, r0
 392              	.LVL37:
 393              		.loc 3 297 0
 394 0022 FFF7FEFF 		bl	chSchWakeupS
 395              	.LVL38:
 396              		.loc 3 298 0
 397 0026 FFF7FEFF 		bl	chSysUnlock
 398              	.LVL39:
 399              		.loc 3 301 0
ARM GAS  /tmp/ccHoZ5z1.s 			page 8


 400 002a 2046     		mov	r0, r4
 401 002c 10BD     		pop	{r4, pc}
 402              		.cfi_endproc
 403              	.LFE295:
 404              		.size	chThdCreate, .-chThdCreate
 405              		.section	.text.chThdCreateStatic,"ax",%progbits
 406              		.align	1
 407              		.global	chThdCreateStatic
 408              		.thumb
 409              		.thumb_func
 410              		.type	chThdCreateStatic, %function
 411              	chThdCreateStatic:
 412              	.LFB296:
 413              		.loc 3 324 0
 414              		.cfi_startproc
 415              		@ args = 4, pretend = 0, frame = 0
 416              		@ frame_needed = 0, uses_anonymous_args = 0
 417              	.LVL40:
 418 0000 F8B5     		push	{r3, r4, r5, r6, r7, lr}
 419              		.cfi_def_cfa_offset 24
 420              		.cfi_offset 3, -24
 421              		.cfi_offset 4, -20
 422              		.cfi_offset 5, -16
 423              		.cfi_offset 6, -12
 424              		.cfi_offset 7, -8
 425              		.cfi_offset 14, -4
 426              		.loc 3 324 0
 427 0002 0C46     		mov	r4, r1
 428 0004 1F46     		mov	r7, r3
 429 0006 0546     		mov	r5, r0
 430              		.loc 3 340 0
 431 0008 4318     		adds	r3, r0, r1
 432              	.LVL41:
 433              		.loc 3 324 0
 434 000a 1646     		mov	r6, r2
 435              		.loc 3 340 0
 436 000c 0146     		mov	r1, r0
 437              	.LVL42:
 438              	.L24:
 439              	.LBB88:
 440              	.LBB89:
 441              		.loc 3 138 0
 442 000e 9942     		cmp	r1, r3
 443 0010 03D2     		bcs	.L26
 444              		.loc 3 139 0
 445 0012 5522     		movs	r2, #85
 446 0014 01F8012B 		strb	r2, [r1], #1
 447              	.LVL43:
 448 0018 F9E7     		b	.L24
 449              	.LVL44:
 450              	.L26:
 451              	.LBE89:
 452              	.LBE88:
 453              		.loc 3 345 0
 454 001a FFF7FEFF 		bl	chSysLock
 455              	.LVL45:
 456              		.loc 3 350 0
ARM GAS  /tmp/ccHoZ5z1.s 			page 9


 457 001e A4F16001 		sub	r1, r4, #96
 458 0022 6818     		adds	r0, r5, r1
 459              	.LVL46:
 460              		.loc 3 359 0
 461 0024 A0F16403 		sub	r3, r0, #100
 462 0028 C360     		str	r3, [r0, #12]
 463 002a 069B     		ldr	r3, [sp, #24]
 464 002c 40F8203C 		str	r3, [r0, #-32]
 465 0030 084B     		ldr	r3, .L27
 466 0032 40F8043C 		str	r3, [r0, #-4]
 467              		.loc 3 361 0
 468 0036 3246     		mov	r2, r6
 469              		.loc 3 355 0
 470 0038 C561     		str	r5, [r0, #28]
 471              		.loc 3 359 0
 472 003a 40F8247C 		str	r7, [r0, #-36]
 473              		.loc 3 361 0
 474 003e 0649     		ldr	r1, .L27+4
 475 0040 FFF7FEFF 		bl	_thread_init
 476              	.LVL47:
 477              		.loc 3 364 0
 478 0044 0021     		movs	r1, #0
 479              		.loc 3 361 0
 480 0046 0446     		mov	r4, r0
 481              	.LVL48:
 482              		.loc 3 364 0
 483 0048 FFF7FEFF 		bl	chSchWakeupS
 484              	.LVL49:
 485              		.loc 3 365 0
 486 004c FFF7FEFF 		bl	chSysUnlock
 487              	.LVL50:
 488              		.loc 3 368 0
 489 0050 2046     		mov	r0, r4
 490 0052 F8BD     		pop	{r3, r4, r5, r6, r7, pc}
 491              	.LVL51:
 492              	.L28:
 493              		.align	2
 494              	.L27:
 495 0054 00000000 		.word	_port_thread_start
 496 0058 00000000 		.word	.LC0
 497              		.cfi_endproc
 498              	.LFE296:
 499              		.size	chThdCreateStatic, .-chThdCreateStatic
 500              		.section	.text.chThdStart,"ax",%progbits
 501              		.align	1
 502              		.global	chThdStart
 503              		.thumb
 504              		.thumb_func
 505              		.type	chThdStart, %function
 506              	chThdStart:
 507              	.LFB297:
 508              		.loc 3 379 0
 509              		.cfi_startproc
 510              		@ args = 0, pretend = 0, frame = 0
 511              		@ frame_needed = 0, uses_anonymous_args = 0
 512              	.LVL52:
 513 0000 10B5     		push	{r4, lr}
ARM GAS  /tmp/ccHoZ5z1.s 			page 10


 514              		.cfi_def_cfa_offset 8
 515              		.cfi_offset 4, -8
 516              		.cfi_offset 14, -4
 517              		.loc 3 379 0
 518 0002 0446     		mov	r4, r0
 519              		.loc 3 381 0
 520 0004 FFF7FEFF 		bl	chSysLock
 521              	.LVL53:
 522              		.loc 3 383 0
 523 0008 2046     		mov	r0, r4
 524 000a 0021     		movs	r1, #0
 525 000c FFF7FEFF 		bl	chSchWakeupS
 526              	.LVL54:
 527              		.loc 3 384 0
 528 0010 FFF7FEFF 		bl	chSysUnlock
 529              	.LVL55:
 530              		.loc 3 387 0
 531 0014 2046     		mov	r0, r4
 532 0016 10BD     		pop	{r4, pc}
 533              		.cfi_endproc
 534              	.LFE297:
 535              		.size	chThdStart, .-chThdStart
 536              		.section	.text.chThdAddRef,"ax",%progbits
 537              		.align	1
 538              		.global	chThdAddRef
 539              		.thumb
 540              		.thumb_func
 541              		.type	chThdAddRef, %function
 542              	chThdAddRef:
 543              	.LFB298:
 544              		.loc 3 401 0
 545              		.cfi_startproc
 546              		@ args = 0, pretend = 0, frame = 0
 547              		@ frame_needed = 0, uses_anonymous_args = 0
 548              	.LVL56:
 549 0000 10B5     		push	{r4, lr}
 550              		.cfi_def_cfa_offset 8
 551              		.cfi_offset 4, -8
 552              		.cfi_offset 14, -4
 553              		.loc 3 401 0
 554 0002 0446     		mov	r4, r0
 555              		.loc 3 403 0
 556 0004 FFF7FEFF 		bl	chSysLock
 557              	.LVL57:
 558              		.loc 3 405 0
 559 0008 94F82230 		ldrb	r3, [r4, #34]	@ zero_extendqisi2
 560 000c 0133     		adds	r3, r3, #1
 561 000e 84F82230 		strb	r3, [r4, #34]
 562              		.loc 3 406 0
 563 0012 FFF7FEFF 		bl	chSysUnlock
 564              	.LVL58:
 565              		.loc 3 409 0
 566 0016 2046     		mov	r0, r4
 567 0018 10BD     		pop	{r4, pc}
 568              		.cfi_endproc
 569              	.LFE298:
 570              		.size	chThdAddRef, .-chThdAddRef
ARM GAS  /tmp/ccHoZ5z1.s 			page 11


 571              		.section	.text.chThdRelease,"ax",%progbits
 572              		.align	1
 573              		.global	chThdRelease
 574              		.thumb
 575              		.thumb_func
 576              		.type	chThdRelease, %function
 577              	chThdRelease:
 578              	.LFB299:
 579              		.loc 3 427 0
 580              		.cfi_startproc
 581              		@ args = 0, pretend = 0, frame = 0
 582              		@ frame_needed = 0, uses_anonymous_args = 0
 583              	.LVL59:
 584 0000 10B5     		push	{r4, lr}
 585              		.cfi_def_cfa_offset 8
 586              		.cfi_offset 4, -8
 587              		.cfi_offset 14, -4
 588              		.loc 3 427 0
 589 0002 0446     		mov	r4, r0
 590              		.loc 3 429 0
 591 0004 FFF7FEFF 		bl	chSysLock
 592              	.LVL60:
 593              		.loc 3 431 0
 594 0008 94F82230 		ldrb	r3, [r4, #34]	@ zero_extendqisi2
 595 000c 013B     		subs	r3, r3, #1
 596 000e 84F82230 		strb	r3, [r4, #34]
 597              		.loc 3 436 0
 598 0012 236A     		ldr	r3, [r4, #32]
 599 0014 03F0FF13 		and	r3, r3, #16711935
 600 0018 0F2B     		cmp	r3, #15
 601 001a 1AD1     		bne	.L32
 602              		.loc 3 437 0
 603 001c 6369     		ldr	r3, [r4, #20]
 604 001e 2269     		ldr	r2, [r4, #16]
 605 0020 1A61     		str	r2, [r3, #16]
 606 0022 2269     		ldr	r2, [r4, #16]
 607 0024 5361     		str	r3, [r2, #20]
 608              		.loc 3 438 0
 609 0026 FFF7FEFF 		bl	chSysUnlock
 610              	.LVL61:
 611              		.loc 3 441 0
 612 002a 94F82130 		ldrb	r3, [r4, #33]	@ zero_extendqisi2
 613 002e 03F00303 		and	r3, r3, #3
 614 0032 012B     		cmp	r3, #1
 615 0034 02D0     		beq	.L34
 616 0036 022B     		cmp	r3, #2
 617 0038 05D0     		beq	.L35
 618 003a 10BD     		pop	{r4, pc}
 619              	.LVL62:
 620              	.L34:
 621              		.loc 3 444 0
 622 003c E069     		ldr	r0, [r4, #28]
 623              		.loc 3 460 0
 624 003e BDE81040 		pop	{r4, lr}
 625              		.cfi_remember_state
 626              		.cfi_restore 14
 627              		.cfi_restore 4
ARM GAS  /tmp/ccHoZ5z1.s 			page 12


 628              		.cfi_def_cfa_offset 0
 629              	.LVL63:
 630              		.loc 3 444 0
 631 0042 FFF7FEBF 		b	chHeapFree
 632              	.LVL64:
 633              	.L35:
 634              		.cfi_restore_state
 635              	.LBB96:
 636              	.LBB97:
 637              		.loc 3 449 0
 638 0046 206C     		ldr	r0, [r4, #64]
 639 0048 E169     		ldr	r1, [r4, #28]
 640              	.LBE97:
 641              	.LBE96:
 642              		.loc 3 460 0
 643 004a BDE81040 		pop	{r4, lr}
 644              		.cfi_remember_state
 645              		.cfi_restore 14
 646              		.cfi_restore 4
 647              		.cfi_def_cfa_offset 0
 648              	.LVL65:
 649              	.LBB99:
 650              	.LBB98:
 651              		.loc 3 449 0
 652 004e FFF7FEBF 		b	chPoolFree
 653              	.LVL66:
 654              	.L32:
 655              		.cfi_restore_state
 656              	.LBE98:
 657              	.LBE99:
 658              		.loc 3 460 0
 659 0052 BDE81040 		pop	{r4, lr}
 660              		.cfi_restore 14
 661              		.cfi_restore 4
 662              		.cfi_def_cfa_offset 0
 663              	.LVL67:
 664              		.loc 3 459 0
 665 0056 FFF7FEBF 		b	chSysUnlock
 666              	.LVL68:
 667              		.cfi_endproc
 668              	.LFE299:
 669              		.size	chThdRelease, .-chThdRelease
 670              		.section	.text.chThdExitS,"ax",%progbits
 671              		.align	1
 672              		.global	chThdExitS
 673              		.thumb
 674              		.thumb_func
 675              		.type	chThdExitS, %function
 676              	chThdExitS:
 677              	.LFB301:
 678              		.loc 3 501 0
 679              		.cfi_startproc
 680              		@ args = 0, pretend = 0, frame = 0
 681              		@ frame_needed = 0, uses_anonymous_args = 0
 682              	.LVL69:
 683              		.loc 3 502 0
 684 0000 0F4B     		ldr	r3, .L42
ARM GAS  /tmp/ccHoZ5z1.s 			page 13


 685              		.loc 3 501 0
 686 0002 10B5     		push	{r4, lr}
 687              		.cfi_def_cfa_offset 8
 688              		.cfi_offset 4, -8
 689              		.cfi_offset 14, -4
 690              		.loc 3 502 0
 691 0004 9C69     		ldr	r4, [r3, #24]
 692              	.LVL70:
 693              		.loc 3 505 0
 694 0006 6062     		str	r0, [r4, #36]
 695              	.LVL71:
 696              	.L38:
 697              	.LBB100:
 698              	.LBB101:
 699              		.loc 4 527 0
 700 0008 2346     		mov	r3, r4
 701 000a 53F8280F 		ldr	r0, [r3, #40]!
 702              	.LVL72:
 703              	.LBE101:
 704              	.LBE100:
 705              		.loc 3 512 0
 706 000e 9842     		cmp	r0, r3
 707 0010 04D0     		beq	.L41
 708              	.LVL73:
 709              	.LBB102:
 710              	.LBB103:
 711              		.loc 4 581 0
 712 0012 0368     		ldr	r3, [r0]
 713              	.LVL74:
 714 0014 A362     		str	r3, [r4, #40]
 715              	.LBE103:
 716              	.LBE102:
 717              		.loc 3 513 0
 718 0016 FFF7FEFF 		bl	chSchReadyI
 719              	.LVL75:
 720 001a F5E7     		b	.L38
 721              	.LVL76:
 722              	.L41:
 723              		.loc 3 521 0
 724 001c 94F82230 		ldrb	r3, [r4, #34]	@ zero_extendqisi2
 725              	.LVL77:
 726 0020 4BB9     		cbnz	r3, .L40
 727              		.loc 3 522 0 discriminator 1
 728 0022 94F82130 		ldrb	r3, [r4, #33]	@ zero_extendqisi2
 729              		.loc 3 521 0 discriminator 1
 730 0026 9B07     		lsls	r3, r3, #30
 731              		.loc 3 523 0 discriminator 1
 732 0028 01BF     		itttt	eq
 733 002a 6369     		ldreq	r3, [r4, #20]
 734 002c 2269     		ldreq	r2, [r4, #16]
 735 002e 1A61     		streq	r2, [r3, #16]
 736 0030 2269     		ldreq	r2, [r4, #16]
 737 0032 08BF     		it	eq
 738 0034 5361     		streq	r3, [r2, #20]
 739              	.L40:
 740              		.loc 3 533 0
 741 0036 0F20     		movs	r0, #15
ARM GAS  /tmp/ccHoZ5z1.s 			page 14


 742              		.loc 3 537 0
 743 0038 BDE81040 		pop	{r4, lr}
 744              		.cfi_restore 14
 745              		.cfi_restore 4
 746              		.cfi_def_cfa_offset 0
 747              	.LVL78:
 748              		.loc 3 533 0
 749 003c FFF7FEBF 		b	chSchGoSleepS
 750              	.LVL79:
 751              	.L43:
 752              		.align	2
 753              	.L42:
 754 0040 00000000 		.word	ch
 755              		.cfi_endproc
 756              	.LFE301:
 757              		.size	chThdExitS, .-chThdExitS
 758              		.section	.text.chThdExit,"ax",%progbits
 759              		.align	1
 760              		.global	chThdExit
 761              		.thumb
 762              		.thumb_func
 763              		.type	chThdExit, %function
 764              	chThdExit:
 765              	.LFB300:
 766              		.loc 3 477 0
 767              		.cfi_startproc
 768              		@ args = 0, pretend = 0, frame = 0
 769              		@ frame_needed = 0, uses_anonymous_args = 0
 770              	.LVL80:
 771 0000 10B5     		push	{r4, lr}
 772              		.cfi_def_cfa_offset 8
 773              		.cfi_offset 4, -8
 774              		.cfi_offset 14, -4
 775              		.loc 3 477 0
 776 0002 0446     		mov	r4, r0
 777              		.loc 3 479 0
 778 0004 FFF7FEFF 		bl	chSysLock
 779              	.LVL81:
 780              		.loc 3 480 0
 781 0008 2046     		mov	r0, r4
 782              		.loc 3 482 0
 783 000a BDE81040 		pop	{r4, lr}
 784              		.cfi_restore 14
 785              		.cfi_restore 4
 786              		.cfi_def_cfa_offset 0
 787              	.LVL82:
 788              		.loc 3 480 0
 789 000e FFF7FEBF 		b	chThdExitS
 790              	.LVL83:
 791              		.cfi_endproc
 792              	.LFE300:
 793              		.size	chThdExit, .-chThdExit
 794              		.section	.text.chThdWait,"ax",%progbits
 795              		.align	1
 796              		.global	chThdWait
 797              		.thumb
 798              		.thumb_func
ARM GAS  /tmp/ccHoZ5z1.s 			page 15


 799              		.type	chThdWait, %function
 800              	chThdWait:
 801              	.LFB302:
 802              		.loc 3 559 0
 803              		.cfi_startproc
 804              		@ args = 0, pretend = 0, frame = 0
 805              		@ frame_needed = 0, uses_anonymous_args = 0
 806              	.LVL84:
 807 0000 38B5     		push	{r3, r4, r5, lr}
 808              		.cfi_def_cfa_offset 16
 809              		.cfi_offset 3, -16
 810              		.cfi_offset 4, -12
 811              		.cfi_offset 5, -8
 812              		.cfi_offset 14, -4
 813              		.loc 3 559 0
 814 0002 0446     		mov	r4, r0
 815              		.loc 3 564 0
 816 0004 FFF7FEFF 		bl	chSysLock
 817              	.LVL85:
 818              		.loc 3 570 0
 819 0008 94F82030 		ldrb	r3, [r4, #32]	@ zero_extendqisi2
 820 000c 0F2B     		cmp	r3, #15
 821 000e 07D0     		beq	.L46
 822              		.loc 3 571 0
 823 0010 074B     		ldr	r3, .L50
 824              	.LBB104:
 825              	.LBB105:
 826              		.loc 4 574 0
 827 0012 A26A     		ldr	r2, [r4, #40]
 828              	.LBE105:
 829              	.LBE104:
 830              		.loc 3 571 0
 831 0014 9B69     		ldr	r3, [r3, #24]
 832              	.LVL86:
 833              		.loc 3 572 0
 834 0016 0920     		movs	r0, #9
 835              	.LBB107:
 836              	.LBB106:
 837              		.loc 4 574 0
 838 0018 1A60     		str	r2, [r3]
 839              		.loc 4 575 0
 840 001a A362     		str	r3, [r4, #40]
 841              	.LBE106:
 842              	.LBE107:
 843              		.loc 3 572 0
 844 001c FFF7FEFF 		bl	chSchGoSleepS
 845              	.LVL87:
 846              	.L46:
 847              		.loc 3 574 0
 848 0020 656A     		ldr	r5, [r4, #36]
 849              	.LVL88:
 850              		.loc 3 575 0
 851 0022 FFF7FEFF 		bl	chSysUnlock
 852              	.LVL89:
 853              		.loc 3 579 0
 854 0026 2046     		mov	r0, r4
 855 0028 FFF7FEFF 		bl	chThdRelease
ARM GAS  /tmp/ccHoZ5z1.s 			page 16


 856              	.LVL90:
 857              		.loc 3 583 0
 858 002c 2846     		mov	r0, r5
 859 002e 38BD     		pop	{r3, r4, r5, pc}
 860              	.LVL91:
 861              	.L51:
 862              		.align	2
 863              	.L50:
 864 0030 00000000 		.word	ch
 865              		.cfi_endproc
 866              	.LFE302:
 867              		.size	chThdWait, .-chThdWait
 868              		.section	.text.chThdSetPriority,"ax",%progbits
 869              		.align	1
 870              		.global	chThdSetPriority
 871              		.thumb
 872              		.thumb_func
 873              		.type	chThdSetPriority, %function
 874              	chThdSetPriority:
 875              	.LFB303:
 876              		.loc 3 598 0
 877              		.cfi_startproc
 878              		@ args = 0, pretend = 0, frame = 0
 879              		@ frame_needed = 0, uses_anonymous_args = 0
 880              	.LVL92:
 881 0000 38B5     		push	{r3, r4, r5, lr}
 882              		.cfi_def_cfa_offset 16
 883              		.cfi_offset 3, -16
 884              		.cfi_offset 4, -12
 885              		.cfi_offset 5, -8
 886              		.cfi_offset 14, -4
 887              		.loc 3 598 0
 888 0002 0446     		mov	r4, r0
 889              		.loc 3 603 0
 890 0004 FFF7FEFF 		bl	chSysLock
 891              	.LVL93:
 892              		.loc 3 605 0
 893 0008 074B     		ldr	r3, .L55
 894 000a 9B69     		ldr	r3, [r3, #24]
 895 000c DD6B     		ldr	r5, [r3, #60]
 896              	.LVL94:
 897              		.loc 3 606 0
 898 000e 9A68     		ldr	r2, [r3, #8]
 899 0010 AA42     		cmp	r2, r5
 900 0012 01D0     		beq	.L53
 901              		.loc 3 606 0 is_stmt 0 discriminator 1
 902 0014 9442     		cmp	r4, r2
 903 0016 00D9     		bls	.L54
 904              	.L53:
 905              		.loc 3 607 0 is_stmt 1
 906 0018 9C60     		str	r4, [r3, #8]
 907              	.L54:
 908              		.loc 3 609 0
 909 001a DC63     		str	r4, [r3, #60]
 910              		.loc 3 614 0
 911 001c FFF7FEFF 		bl	chSchRescheduleS
 912              	.LVL95:
ARM GAS  /tmp/ccHoZ5z1.s 			page 17


 913              		.loc 3 615 0
 914 0020 FFF7FEFF 		bl	chSysUnlock
 915              	.LVL96:
 916              		.loc 3 618 0
 917 0024 2846     		mov	r0, r5
 918 0026 38BD     		pop	{r3, r4, r5, pc}
 919              	.LVL97:
 920              	.L56:
 921              		.align	2
 922              	.L55:
 923 0028 00000000 		.word	ch
 924              		.cfi_endproc
 925              	.LFE303:
 926              		.size	chThdSetPriority, .-chThdSetPriority
 927              		.section	.text.chThdTerminate,"ax",%progbits
 928              		.align	1
 929              		.global	chThdTerminate
 930              		.thumb
 931              		.thumb_func
 932              		.type	chThdTerminate, %function
 933              	chThdTerminate:
 934              	.LFB304:
 935              		.loc 3 632 0
 936              		.cfi_startproc
 937              		@ args = 0, pretend = 0, frame = 0
 938              		@ frame_needed = 0, uses_anonymous_args = 0
 939              	.LVL98:
 940 0000 10B5     		push	{r4, lr}
 941              		.cfi_def_cfa_offset 8
 942              		.cfi_offset 4, -8
 943              		.cfi_offset 14, -4
 944              		.loc 3 632 0
 945 0002 0446     		mov	r4, r0
 946              		.loc 3 634 0
 947 0004 FFF7FEFF 		bl	chSysLock
 948              	.LVL99:
 949              		.loc 3 635 0
 950 0008 94F82130 		ldrb	r3, [r4, #33]	@ zero_extendqisi2
 951 000c 43F00403 		orr	r3, r3, #4
 952 0010 84F82130 		strb	r3, [r4, #33]
 953              		.loc 3 637 0
 954 0014 BDE81040 		pop	{r4, lr}
 955              		.cfi_restore 14
 956              		.cfi_restore 4
 957              		.cfi_def_cfa_offset 0
 958              	.LVL100:
 959              		.loc 3 636 0
 960 0018 FFF7FEBF 		b	chSysUnlock
 961              	.LVL101:
 962              		.cfi_endproc
 963              	.LFE304:
 964              		.size	chThdTerminate, .-chThdTerminate
 965              		.section	.text.chThdSleep,"ax",%progbits
 966              		.align	1
 967              		.global	chThdSleep
 968              		.thumb
 969              		.thumb_func
ARM GAS  /tmp/ccHoZ5z1.s 			page 18


 970              		.type	chThdSleep, %function
 971              	chThdSleep:
 972              	.LFB305:
 973              		.loc 3 651 0
 974              		.cfi_startproc
 975              		@ args = 0, pretend = 0, frame = 0
 976              		@ frame_needed = 0, uses_anonymous_args = 0
 977              	.LVL102:
 978 0000 10B5     		push	{r4, lr}
 979              		.cfi_def_cfa_offset 8
 980              		.cfi_offset 4, -8
 981              		.cfi_offset 14, -4
 982              		.loc 3 651 0
 983 0002 0446     		mov	r4, r0
 984              		.loc 3 653 0
 985 0004 FFF7FEFF 		bl	chSysLock
 986              	.LVL103:
 987              	.LBB110:
 988              	.LBB111:
 989              		.file 5 "../../modules/ChibiOS/os/rt/include/chthreads.h"
 990              		.loc 5 382 0
 991 0008 2146     		mov	r1, r4
 992 000a 0820     		movs	r0, #8
 993 000c FFF7FEFF 		bl	chSchGoSleepTimeoutS
 994              	.LVL104:
 995              	.LBE111:
 996              	.LBE110:
 997              		.loc 3 656 0
 998 0010 BDE81040 		pop	{r4, lr}
 999              		.cfi_restore 14
 1000              		.cfi_restore 4
 1001              		.cfi_def_cfa_offset 0
 1002              	.LVL105:
 1003              		.loc 3 655 0
 1004 0014 FFF7FEBF 		b	chSysUnlock
 1005              	.LVL106:
 1006              		.cfi_endproc
 1007              	.LFE305:
 1008              		.size	chThdSleep, .-chThdSleep
 1009              		.section	.text.chThdSleepUntil,"ax",%progbits
 1010              		.align	1
 1011              		.global	chThdSleepUntil
 1012              		.thumb
 1013              		.thumb_func
 1014              		.type	chThdSleepUntil, %function
 1015              	chThdSleepUntil:
 1016              	.LFB306:
 1017              		.loc 3 671 0
 1018              		.cfi_startproc
 1019              		@ args = 0, pretend = 0, frame = 0
 1020              		@ frame_needed = 0, uses_anonymous_args = 0
 1021              	.LVL107:
 1022 0000 10B5     		push	{r4, lr}
 1023              		.cfi_def_cfa_offset 8
 1024              		.cfi_offset 4, -8
 1025              		.cfi_offset 14, -4
 1026              		.loc 3 671 0
ARM GAS  /tmp/ccHoZ5z1.s 			page 19


 1027 0002 0446     		mov	r4, r0
 1028              		.loc 3 674 0
 1029 0004 FFF7FEFF 		bl	chSysLock
 1030              	.LVL108:
 1031              	.LBB120:
 1032              	.LBB121:
 1033              	.LBB122:
 1034              	.LBB123:
 1035              		.file 6 "../../modules/ChibiOS/os/hal/ports/STM32/LLD/TIMv1/hal_st_lld.h"
 1036              		.loc 6 147 0
 1037 0008 054B     		ldr	r3, .L64
 1038 000a 596A     		ldr	r1, [r3, #36]
 1039              	.LVL109:
 1040              	.LBE123:
 1041              	.LBE122:
 1042              	.LBE121:
 1043              	.LBE120:
 1044              		.loc 3 676 0
 1045 000c 611A     		subs	r1, r4, r1
 1046              	.LVL110:
 1047 000e 02D0     		beq	.L60
 1048              	.LVL111:
 1049              	.LBB124:
 1050              	.LBB125:
 1051              		.loc 5 382 0
 1052 0010 0820     		movs	r0, #8
 1053 0012 FFF7FEFF 		bl	chSchGoSleepTimeoutS
 1054              	.LVL112:
 1055              	.L60:
 1056              	.LBE125:
 1057              	.LBE124:
 1058              		.loc 3 680 0
 1059 0016 BDE81040 		pop	{r4, lr}
 1060              		.cfi_restore 14
 1061              		.cfi_restore 4
 1062              		.cfi_def_cfa_offset 0
 1063              	.LVL113:
 1064              		.loc 3 679 0
 1065 001a FFF7FEBF 		b	chSysUnlock
 1066              	.LVL114:
 1067              	.L65:
 1068 001e 00BF     		.align	2
 1069              	.L64:
 1070 0020 000C0040 		.word	1073744896
 1071              		.cfi_endproc
 1072              	.LFE306:
 1073              		.size	chThdSleepUntil, .-chThdSleepUntil
 1074              		.section	.text.chThdSleepUntilWindowed,"ax",%progbits
 1075              		.align	1
 1076              		.global	chThdSleepUntilWindowed
 1077              		.thumb
 1078              		.thumb_func
 1079              		.type	chThdSleepUntilWindowed, %function
 1080              	chThdSleepUntilWindowed:
 1081              	.LFB307:
 1082              		.loc 3 696 0
 1083              		.cfi_startproc
ARM GAS  /tmp/ccHoZ5z1.s 			page 20


 1084              		@ args = 0, pretend = 0, frame = 0
 1085              		@ frame_needed = 0, uses_anonymous_args = 0
 1086              	.LVL115:
 1087 0000 38B5     		push	{r3, r4, r5, lr}
 1088              		.cfi_def_cfa_offset 16
 1089              		.cfi_offset 3, -16
 1090              		.cfi_offset 4, -12
 1091              		.cfi_offset 5, -8
 1092              		.cfi_offset 14, -4
 1093              		.loc 3 696 0
 1094 0002 0446     		mov	r4, r0
 1095 0004 0D46     		mov	r5, r1
 1096              		.loc 3 699 0
 1097 0006 FFF7FEFF 		bl	chSysLock
 1098              	.LVL116:
 1099              	.LBB136:
 1100              	.LBB137:
 1101              	.LBB138:
 1102              	.LBB139:
 1103              		.loc 6 147 0
 1104 000a 074B     		ldr	r3, .L68
 1105 000c 596A     		ldr	r1, [r3, #36]
 1106              	.LVL117:
 1107              	.LBE139:
 1108              	.LBE138:
 1109              	.LBE137:
 1110              	.LBE136:
 1111              	.LBB140:
 1112              	.LBB141:
 1113              		.file 7 "../../modules/ChibiOS/os/rt/include/chtime.h"
 1114              		.loc 7 535 0
 1115 000e 0B1B     		subs	r3, r1, r4
 1116 0010 2C1B     		subs	r4, r5, r4
 1117              	.LVL118:
 1118              	.LBE141:
 1119              	.LBE140:
 1120              		.loc 3 701 0
 1121 0012 A342     		cmp	r3, r4
 1122 0014 03D2     		bcs	.L67
 1123              	.LVL119:
 1124              	.LBB142:
 1125              	.LBB143:
 1126              		.loc 5 382 0
 1127 0016 0820     		movs	r0, #8
 1128 0018 691A     		subs	r1, r5, r1
 1129              	.LVL120:
 1130 001a FFF7FEFF 		bl	chSchGoSleepTimeoutS
 1131              	.LVL121:
 1132              	.L67:
 1133              	.LBE143:
 1134              	.LBE142:
 1135              		.loc 3 704 0
 1136 001e FFF7FEFF 		bl	chSysUnlock
 1137              	.LVL122:
 1138              		.loc 3 707 0
 1139 0022 2846     		mov	r0, r5
 1140 0024 38BD     		pop	{r3, r4, r5, pc}
ARM GAS  /tmp/ccHoZ5z1.s 			page 21


 1141              	.LVL123:
 1142              	.L69:
 1143 0026 00BF     		.align	2
 1144              	.L68:
 1145 0028 000C0040 		.word	1073744896
 1146              		.cfi_endproc
 1147              	.LFE307:
 1148              		.size	chThdSleepUntilWindowed, .-chThdSleepUntilWindowed
 1149              		.section	.text.chThdYield,"ax",%progbits
 1150              		.align	1
 1151              		.global	chThdYield
 1152              		.thumb
 1153              		.thumb_func
 1154              		.type	chThdYield, %function
 1155              	chThdYield:
 1156              	.LFB308:
 1157              		.loc 3 716 0
 1158              		.cfi_startproc
 1159              		@ args = 0, pretend = 0, frame = 0
 1160              		@ frame_needed = 0, uses_anonymous_args = 0
 1161 0000 08B5     		push	{r3, lr}
 1162              		.cfi_def_cfa_offset 8
 1163              		.cfi_offset 3, -8
 1164              		.cfi_offset 14, -4
 1165              		.loc 3 718 0
 1166 0002 FFF7FEFF 		bl	chSysLock
 1167              	.LVL124:
 1168              	.LBB148:
 1169              	.LBB149:
 1170              	.LBB150:
 1171              	.LBB151:
 1172              		.loc 4 666 0
 1173 0006 064B     		ldr	r3, .L72
 1174 0008 1A68     		ldr	r2, [r3]
 1175 000a 9B69     		ldr	r3, [r3, #24]
 1176              	.LBE151:
 1177              	.LBE150:
 1178              		.loc 4 680 0
 1179 000c 9268     		ldr	r2, [r2, #8]
 1180 000e 9B68     		ldr	r3, [r3, #8]
 1181 0010 9A42     		cmp	r2, r3
 1182 0012 01D3     		bcc	.L71
 1183              		.loc 4 681 0
 1184 0014 FFF7FEFF 		bl	chSchDoRescheduleBehind
 1185              	.LVL125:
 1186              	.L71:
 1187              	.LBE149:
 1188              	.LBE148:
 1189              		.loc 3 721 0
 1190 0018 BDE80840 		pop	{r3, lr}
 1191              		.cfi_restore 14
 1192              		.cfi_restore 3
 1193              		.cfi_def_cfa_offset 0
 1194              		.loc 3 720 0
 1195 001c FFF7FEBF 		b	chSysUnlock
 1196              	.LVL126:
 1197              	.L73:
ARM GAS  /tmp/ccHoZ5z1.s 			page 22


 1198              		.align	2
 1199              	.L72:
 1200 0020 00000000 		.word	ch
 1201              		.cfi_endproc
 1202              	.LFE308:
 1203              		.size	chThdYield, .-chThdYield
 1204              		.section	.text.chThdSuspendS,"ax",%progbits
 1205              		.align	1
 1206              		.global	chThdSuspendS
 1207              		.thumb
 1208              		.thumb_func
 1209              		.type	chThdSuspendS, %function
 1210              	chThdSuspendS:
 1211              	.LFB309:
 1212              		.loc 3 733 0
 1213              		.cfi_startproc
 1214              		@ args = 0, pretend = 0, frame = 0
 1215              		@ frame_needed = 0, uses_anonymous_args = 0
 1216              	.LVL127:
 1217 0000 10B5     		push	{r4, lr}
 1218              		.cfi_def_cfa_offset 8
 1219              		.cfi_offset 4, -8
 1220              		.cfi_offset 14, -4
 1221              	.LBB152:
 1222              	.LBB153:
 1223              		.loc 5 274 0
 1224 0002 054C     		ldr	r4, .L75
 1225 0004 A369     		ldr	r3, [r4, #24]
 1226              	.LBE153:
 1227              	.LBE152:
 1228              		.loc 3 738 0
 1229 0006 0360     		str	r3, [r0]
 1230              		.loc 3 739 0
 1231 0008 5862     		str	r0, [r3, #36]
 1232              		.loc 3 740 0
 1233 000a 0320     		movs	r0, #3
 1234              	.LVL128:
 1235 000c FFF7FEFF 		bl	chSchGoSleepS
 1236              	.LVL129:
 1237              		.loc 3 742 0
 1238 0010 A369     		ldr	r3, [r4, #24]
 1239              		.loc 3 743 0
 1240 0012 586A     		ldr	r0, [r3, #36]
 1241 0014 10BD     		pop	{r4, pc}
 1242              	.L76:
 1243 0016 00BF     		.align	2
 1244              	.L75:
 1245 0018 00000000 		.word	ch
 1246              		.cfi_endproc
 1247              	.LFE309:
 1248              		.size	chThdSuspendS, .-chThdSuspendS
 1249              		.section	.text.chThdSuspendTimeoutS,"ax",%progbits
 1250              		.align	1
 1251              		.global	chThdSuspendTimeoutS
 1252              		.thumb
 1253              		.thumb_func
 1254              		.type	chThdSuspendTimeoutS, %function
ARM GAS  /tmp/ccHoZ5z1.s 			page 23


 1255              	chThdSuspendTimeoutS:
 1256              	.LFB310:
 1257              		.loc 3 764 0
 1258              		.cfi_startproc
 1259              		@ args = 0, pretend = 0, frame = 0
 1260              		@ frame_needed = 0, uses_anonymous_args = 0
 1261              		@ link register save eliminated.
 1262              	.LVL130:
 1263              	.LBB154:
 1264              	.LBB155:
 1265              		.loc 5 274 0
 1266 0000 054B     		ldr	r3, .L79
 1267 0002 9B69     		ldr	r3, [r3, #24]
 1268              	.LBE155:
 1269              	.LBE154:
 1270              		.loc 3 769 0
 1271 0004 21B1     		cbz	r1, .L78
 1272              		.loc 3 773 0
 1273 0006 0360     		str	r3, [r0]
 1274              		.loc 3 774 0
 1275 0008 5862     		str	r0, [r3, #36]
 1276              		.loc 3 776 0
 1277 000a 0320     		movs	r0, #3
 1278              	.LVL131:
 1279 000c FFF7FEBF 		b	chSchGoSleepTimeoutS
 1280              	.LVL132:
 1281              	.L78:
 1282              		.loc 3 777 0
 1283 0010 4FF0FF30 		mov	r0, #-1
 1284              	.LVL133:
 1285 0014 7047     		bx	lr
 1286              	.L80:
 1287 0016 00BF     		.align	2
 1288              	.L79:
 1289 0018 00000000 		.word	ch
 1290              		.cfi_endproc
 1291              	.LFE310:
 1292              		.size	chThdSuspendTimeoutS, .-chThdSuspendTimeoutS
 1293              		.section	.text.chThdResumeI,"ax",%progbits
 1294              		.align	1
 1295              		.global	chThdResumeI
 1296              		.thumb
 1297              		.thumb_func
 1298              		.type	chThdResumeI, %function
 1299              	chThdResumeI:
 1300              	.LFB311:
 1301              		.loc 3 789 0
 1302              		.cfi_startproc
 1303              		@ args = 0, pretend = 0, frame = 0
 1304              		@ frame_needed = 0, uses_anonymous_args = 0
 1305              		@ link register save eliminated.
 1306              	.LVL134:
 1307              		.loc 3 791 0
 1308 0000 0368     		ldr	r3, [r0]
 1309 0002 2BB1     		cbz	r3, .L81
 1310              	.LVL135:
 1311              	.LBB156:
ARM GAS  /tmp/ccHoZ5z1.s 			page 24


 1312              		.loc 3 796 0
 1313 0004 0022     		movs	r2, #0
 1314 0006 0260     		str	r2, [r0]
 1315              		.loc 3 797 0
 1316 0008 5962     		str	r1, [r3, #36]
 1317              		.loc 3 798 0
 1318 000a 1846     		mov	r0, r3
 1319              	.LVL136:
 1320 000c FFF7FEBF 		b	chSchReadyI
 1321              	.LVL137:
 1322              	.L81:
 1323 0010 7047     		bx	lr
 1324              	.LBE156:
 1325              		.cfi_endproc
 1326              	.LFE311:
 1327              		.size	chThdResumeI, .-chThdResumeI
 1328              		.section	.text.chThdResumeS,"ax",%progbits
 1329              		.align	1
 1330              		.global	chThdResumeS
 1331              		.thumb
 1332              		.thumb_func
 1333              		.type	chThdResumeS, %function
 1334              	chThdResumeS:
 1335              	.LFB312:
 1336              		.loc 3 812 0
 1337              		.cfi_startproc
 1338              		@ args = 0, pretend = 0, frame = 0
 1339              		@ frame_needed = 0, uses_anonymous_args = 0
 1340              		@ link register save eliminated.
 1341              	.LVL138:
 1342              		.loc 3 814 0
 1343 0000 0368     		ldr	r3, [r0]
 1344 0002 23B1     		cbz	r3, .L83
 1345              	.LVL139:
 1346              	.LBB157:
 1347              		.loc 3 819 0
 1348 0004 0022     		movs	r2, #0
 1349 0006 0260     		str	r2, [r0]
 1350              		.loc 3 820 0
 1351 0008 1846     		mov	r0, r3
 1352              	.LVL140:
 1353 000a FFF7FEBF 		b	chSchWakeupS
 1354              	.LVL141:
 1355              	.L83:
 1356 000e 7047     		bx	lr
 1357              	.LBE157:
 1358              		.cfi_endproc
 1359              	.LFE312:
 1360              		.size	chThdResumeS, .-chThdResumeS
 1361              		.section	.text.chThdResume,"ax",%progbits
 1362              		.align	1
 1363              		.global	chThdResume
 1364              		.thumb
 1365              		.thumb_func
 1366              		.type	chThdResume, %function
 1367              	chThdResume:
 1368              	.LFB313:
ARM GAS  /tmp/ccHoZ5z1.s 			page 25


 1369              		.loc 3 834 0
 1370              		.cfi_startproc
 1371              		@ args = 0, pretend = 0, frame = 0
 1372              		@ frame_needed = 0, uses_anonymous_args = 0
 1373              	.LVL142:
 1374 0000 38B5     		push	{r3, r4, r5, lr}
 1375              		.cfi_def_cfa_offset 16
 1376              		.cfi_offset 3, -16
 1377              		.cfi_offset 4, -12
 1378              		.cfi_offset 5, -8
 1379              		.cfi_offset 14, -4
 1380              		.loc 3 834 0
 1381 0002 0546     		mov	r5, r0
 1382 0004 0C46     		mov	r4, r1
 1383              		.loc 3 836 0
 1384 0006 FFF7FEFF 		bl	chSysLock
 1385              	.LVL143:
 1386              		.loc 3 837 0
 1387 000a 2846     		mov	r0, r5
 1388 000c 2146     		mov	r1, r4
 1389 000e FFF7FEFF 		bl	chThdResumeS
 1390              	.LVL144:
 1391              		.loc 3 839 0
 1392 0012 BDE83840 		pop	{r3, r4, r5, lr}
 1393              		.cfi_restore 14
 1394              		.cfi_restore 5
 1395              		.cfi_restore 4
 1396              		.cfi_restore 3
 1397              		.cfi_def_cfa_offset 0
 1398              	.LVL145:
 1399              		.loc 3 838 0
 1400 0016 FFF7FEBF 		b	chSysUnlock
 1401              	.LVL146:
 1402              		.cfi_endproc
 1403              	.LFE313:
 1404              		.size	chThdResume, .-chThdResume
 1405              		.section	.text.chThdEnqueueTimeoutS,"ax",%progbits
 1406              		.align	1
 1407              		.global	chThdEnqueueTimeoutS
 1408              		.thumb
 1409              		.thumb_func
 1410              		.type	chThdEnqueueTimeoutS, %function
 1411              	chThdEnqueueTimeoutS:
 1412              	.LFB314:
 1413              		.loc 3 864 0
 1414              		.cfi_startproc
 1415              		@ args = 0, pretend = 0, frame = 0
 1416              		@ frame_needed = 0, uses_anonymous_args = 0
 1417              		@ link register save eliminated.
 1418              	.LVL147:
 1419              		.loc 3 866 0
 1420 0000 49B1     		cbz	r1, .L87
 1421              		.loc 3 870 0
 1422 0002 064B     		ldr	r3, .L88
 1423              	.LBB158:
 1424              	.LBB159:
 1425              		.loc 4 601 0
ARM GAS  /tmp/ccHoZ5z1.s 			page 26


 1426 0004 4268     		ldr	r2, [r0, #4]
 1427              	.LBE159:
 1428              	.LBE158:
 1429              		.loc 3 870 0
 1430 0006 9B69     		ldr	r3, [r3, #24]
 1431              	.LVL148:
 1432              	.LBB161:
 1433              	.LBB160:
 1434              		.loc 4 600 0
 1435 0008 1860     		str	r0, [r3]
 1436              		.loc 4 601 0
 1437 000a 5A60     		str	r2, [r3, #4]
 1438              		.loc 4 602 0
 1439 000c 1360     		str	r3, [r2]
 1440              		.loc 4 603 0
 1441 000e 4360     		str	r3, [r0, #4]
 1442              	.LBE160:
 1443              	.LBE161:
 1444              		.loc 3 872 0
 1445 0010 0420     		movs	r0, #4
 1446              	.LVL149:
 1447 0012 FFF7FEBF 		b	chSchGoSleepTimeoutS
 1448              	.LVL150:
 1449              	.L87:
 1450              		.loc 3 873 0
 1451 0016 4FF0FF30 		mov	r0, #-1
 1452              	.LVL151:
 1453 001a 7047     		bx	lr
 1454              	.L89:
 1455              		.align	2
 1456              	.L88:
 1457 001c 00000000 		.word	ch
 1458              		.cfi_endproc
 1459              	.LFE314:
 1460              		.size	chThdEnqueueTimeoutS, .-chThdEnqueueTimeoutS
 1461              		.section	.text.chThdDequeueNextI,"ax",%progbits
 1462              		.align	1
 1463              		.global	chThdDequeueNextI
 1464              		.thumb
 1465              		.thumb_func
 1466              		.type	chThdDequeueNextI, %function
 1467              	chThdDequeueNextI:
 1468              	.LFB315:
 1469              		.loc 3 884 0
 1470              		.cfi_startproc
 1471              		@ args = 0, pretend = 0, frame = 0
 1472              		@ frame_needed = 0, uses_anonymous_args = 0
 1473              		@ link register save eliminated.
 1474              	.LVL152:
 1475              	.LBB168:
 1476              	.LBB169:
 1477              		.loc 4 566 0
 1478 0000 0368     		ldr	r3, [r0]
 1479              	.LBE169:
 1480              	.LBE168:
 1481              		.loc 3 886 0
 1482 0002 8342     		cmp	r3, r0
ARM GAS  /tmp/ccHoZ5z1.s 			page 27


 1483 0004 06D0     		beq	.L90
 1484              	.LVL153:
 1485              	.LBB170:
 1486              	.LBB171:
 1487              	.LBB172:
 1488              	.LBB173:
 1489              		.loc 4 609 0
 1490 0006 1A68     		ldr	r2, [r3]
 1491 0008 0260     		str	r2, [r0]
 1492              		.loc 4 610 0
 1493 000a 5060     		str	r0, [r2, #4]
 1494              	.LBE173:
 1495              	.LBE172:
 1496              		.loc 5 434 0
 1497 000c 5962     		str	r1, [r3, #36]
 1498              		.loc 5 435 0
 1499 000e 1846     		mov	r0, r3
 1500              	.LVL154:
 1501 0010 FFF7FEBF 		b	chSchReadyI
 1502              	.LVL155:
 1503              	.L90:
 1504 0014 7047     		bx	lr
 1505              	.LBE171:
 1506              	.LBE170:
 1507              		.cfi_endproc
 1508              	.LFE315:
 1509              		.size	chThdDequeueNextI, .-chThdDequeueNextI
 1510              		.section	.text.chThdDequeueAllI,"ax",%progbits
 1511              		.align	1
 1512              		.global	chThdDequeueAllI
 1513              		.thumb
 1514              		.thumb_func
 1515              		.type	chThdDequeueAllI, %function
 1516              	chThdDequeueAllI:
 1517              	.LFB316:
 1518              		.loc 3 899 0
 1519              		.cfi_startproc
 1520              		@ args = 0, pretend = 0, frame = 0
 1521              		@ frame_needed = 0, uses_anonymous_args = 0
 1522              	.LVL156:
 1523 0000 38B5     		push	{r3, r4, r5, lr}
 1524              		.cfi_def_cfa_offset 16
 1525              		.cfi_offset 3, -16
 1526              		.cfi_offset 4, -12
 1527              		.cfi_offset 5, -8
 1528              		.cfi_offset 14, -4
 1529 0002 0446     		mov	r4, r0
 1530 0004 0D46     		mov	r5, r1
 1531              	.LVL157:
 1532              	.L93:
 1533              	.LBB180:
 1534              	.LBB181:
 1535              		.loc 4 566 0
 1536 0006 2068     		ldr	r0, [r4]
 1537              	.LBE181:
 1538              	.LBE180:
 1539              		.loc 3 901 0
ARM GAS  /tmp/ccHoZ5z1.s 			page 28


 1540 0008 A042     		cmp	r0, r4
 1541 000a 06D0     		beq	.L95
 1542              	.LVL158:
 1543              	.LBB182:
 1544              	.LBB183:
 1545              	.LBB184:
 1546              	.LBB185:
 1547              		.loc 4 609 0
 1548 000c 0368     		ldr	r3, [r0]
 1549 000e 2360     		str	r3, [r4]
 1550              		.loc 4 610 0
 1551 0010 5C60     		str	r4, [r3, #4]
 1552              	.LBE185:
 1553              	.LBE184:
 1554              		.loc 5 434 0
 1555 0012 4562     		str	r5, [r0, #36]
 1556              		.loc 5 435 0
 1557 0014 FFF7FEFF 		bl	chSchReadyI
 1558              	.LVL159:
 1559 0018 F5E7     		b	.L93
 1560              	.LVL160:
 1561              	.L95:
 1562              	.LBE183:
 1563              	.LBE182:
 1564              		.loc 3 904 0
 1565 001a 38BD     		pop	{r3, r4, r5, pc}
 1566              		.cfi_endproc
 1567              	.LFE316:
 1568              		.size	chThdDequeueAllI, .-chThdDequeueAllI
 1569              		.section	.rodata.str1.1,"aMS",%progbits,1
 1570              	.LC0:
 1571 0000 6E6F6E61 		.ascii	"noname\000"
 1571      6D6500
 1572              		.text
 1573              	.Letext0:
 1574              		.file 8 "/usr/lib/gcc/arm-none-eabi/4.9.3/include/stddef.h"
 1575              		.file 9 "/usr/include/newlib/machine/_default_types.h"
 1576              		.file 10 "/usr/include/newlib/sys/_stdint.h"
 1577              		.file 11 "../../modules/ChibiOS/os/common/ports/ARMCMx/compilers/GCC/chtypes.h"
 1578              		.file 12 "../../modules/ChibiOS/os/rt/include/chsystypes.h"
 1579              		.file 13 "../../modules/ChibiOS/os/common/ports/ARMCMx/chcore.h"
 1580              		.file 14 "../../modules/ChibiOS/os/common/ports/ARMCMx/chcore_v7m.h"
 1581              		.file 15 "../../modules/ChibiOS/os/hal/ports/STM32/LLD/TIMv1/stm32_tim.h"
 1582              		.file 16 "../../modules/ChibiOS/os/rt/include/chtm.h"
 1583              		.file 17 "../../modules/ChibiOS/os/rt/include/chstats.h"
 1584              		.file 18 "../../modules/ChibiOS/os/rt/include/chsem.h"
 1585              		.file 19 "../../modules/ChibiOS/os/rt/include/chmtx.h"
 1586              		.file 20 "../../modules/ChibiOS/os/oslib/include/chmemcore.h"
 1587              		.file 21 "../../modules/ChibiOS/os/oslib/include/chmempools.h"
 1588              		.file 22 "../../modules/ChibiOS/os/common/ports/ARMCMx/chcore_timer.h"
 1589              		.file 23 "../../modules/ChibiOS/os/rt/include/chvt.h"
 1590              		.file 24 "../../modules/ChibiOS/os/oslib/include/chmemheaps.h"
 1591              		.file 25 "../../modules/ChibiOS/os/common/ext/ARM/CMSIS/Core/Include/core_cm4.h"