ARM GAS  /tmp/cc6vtm71.s 			page 1


   1              		.syntax unified
   2              		.cpu cortex-m4
   3              		.eabi_attribute 27, 1
   4              		.eabi_attribute 28, 1
   5              		.fpu fpv4-sp-d16
   6              		.eabi_attribute 20, 1
   7              		.eabi_attribute 21, 1
   8              		.eabi_attribute 23, 3
   9              		.eabi_attribute 24, 1
  10              		.eabi_attribute 25, 1
  11              		.eabi_attribute 26, 1
  12              		.eabi_attribute 30, 4
  13              		.eabi_attribute 34, 1
  14              		.eabi_attribute 18, 4
  15              		.thumb
  16              		.file	"chtm.c"
  17              		.text
  18              	.Ltext0:
  19              		.cfi_sections	.debug_frame
  20              		.section	.text.chTMObjectInit,"ax",%progbits
  21              		.align	1
  22              		.global	chTMObjectInit
  23              		.thumb
  24              		.thumb_func
  25              		.type	chTMObjectInit, %function
  26              	chTMObjectInit:
  27              	.LFB292:
  28              		.file 1 "../../modules/ChibiOS/os/rt/src/chtm.c"
  29              		.loc 1 97 0
  30              		.cfi_startproc
  31              		@ args = 0, pretend = 0, frame = 0
  32              		@ frame_needed = 0, uses_anonymous_args = 0
  33              		@ link register save eliminated.
  34              	.LVL0:
  35              		.loc 1 99 0
  36 0000 4FF0FF33 		mov	r3, #-1
  37 0004 0360     		str	r3, [r0]
  38              		.loc 1 100 0
  39 0006 0023     		movs	r3, #0
  40 0008 4360     		str	r3, [r0, #4]
  41              		.loc 1 101 0
  42 000a 8360     		str	r3, [r0, #8]
  43              		.loc 1 102 0
  44 000c C360     		str	r3, [r0, #12]
  45              		.loc 1 103 0
  46 000e 0022     		movs	r2, #0
  47 0010 0023     		movs	r3, #0
  48 0012 C0E90423 		strd	r2, [r0, #16]
  49 0016 7047     		bx	lr
  50              		.cfi_endproc
  51              	.LFE292:
  52              		.size	chTMObjectInit, .-chTMObjectInit
  53              		.section	.text.chTMStartMeasurementX,"ax",%progbits
  54              		.align	1
  55              		.global	chTMStartMeasurementX
  56              		.thumb
  57              		.thumb_func
ARM GAS  /tmp/cc6vtm71.s 			page 2


  58              		.type	chTMStartMeasurementX, %function
  59              	chTMStartMeasurementX:
  60              	.LFB293:
  61              		.loc 1 114 0
  62              		.cfi_startproc
  63              		@ args = 0, pretend = 0, frame = 0
  64              		@ frame_needed = 0, uses_anonymous_args = 0
  65              		@ link register save eliminated.
  66              	.LVL1:
  67              	.LBB8:
  68              	.LBB9:
  69              		.file 2 "../../modules/ChibiOS/os/common/ports/ARMCMx/chcore_v7m.h"
  70              		.loc 2 716 0
  71 0000 014B     		ldr	r3, .L3
  72 0002 5B68     		ldr	r3, [r3, #4]
  73              	.LBE9:
  74              	.LBE8:
  75              		.loc 1 116 0
  76 0004 8360     		str	r3, [r0, #8]
  77 0006 7047     		bx	lr
  78              	.L4:
  79              		.align	2
  80              	.L3:
  81 0008 001000E0 		.word	-536866816
  82              		.cfi_endproc
  83              	.LFE293:
  84              		.size	chTMStartMeasurementX, .-chTMStartMeasurementX
  85              		.section	.text.chTMStopMeasurementX,"ax",%progbits
  86              		.align	1
  87              		.global	chTMStopMeasurementX
  88              		.thumb
  89              		.thumb_func
  90              		.type	chTMStopMeasurementX, %function
  91              	chTMStopMeasurementX:
  92              	.LFB294:
  93              		.loc 1 127 0
  94              		.cfi_startproc
  95              		@ args = 0, pretend = 0, frame = 0
  96              		@ frame_needed = 0, uses_anonymous_args = 0
  97              	.LVL2:
  98              	.LBB14:
  99              	.LBB15:
 100              		.loc 2 716 0
 101 0000 0E4B     		ldr	r3, .L8
 102              	.LBE15:
 103              	.LBE14:
 104              	.LBB17:
 105              	.LBB18:
 106              		.loc 1 57 0
 107 0002 C168     		ldr	r1, [r0, #12]
 108              	.LBE18:
 109              	.LBE17:
 110              	.LBB20:
 111              	.LBB16:
 112              		.loc 2 716 0
 113 0004 5A68     		ldr	r2, [r3, #4]
 114              	.LBE16:
ARM GAS  /tmp/cc6vtm71.s 			page 3


 115              	.LBE20:
 116              		.loc 1 129 0
 117 0006 0E4B     		ldr	r3, .L8+4
 118              		.loc 1 127 0
 119 0008 30B5     		push	{r4, r5, lr}
 120              		.cfi_def_cfa_offset 12
 121              		.cfi_offset 4, -12
 122              		.cfi_offset 5, -8
 123              		.cfi_offset 14, -4
 124              		.loc 1 129 0
 125 000a D3F89040 		ldr	r4, [r3, #144]
 126              	.LVL3:
 127              	.LBB21:
 128              	.LBB19:
 129              		.loc 1 58 0
 130 000e 8368     		ldr	r3, [r0, #8]
 131 0010 D31A     		subs	r3, r2, r3
 132 0012 1B1B     		subs	r3, r3, r4
 133              		.loc 1 59 0
 134 0014 D0E90445 		ldrd	r4, [r0, #16]
 135              	.LVL4:
 136              		.loc 1 60 0
 137 0018 4268     		ldr	r2, [r0, #4]
 138              	.LVL5:
 139              		.loc 1 58 0
 140 001a 8360     		str	r3, [r0, #8]
 141              		.loc 1 59 0
 142 001c E418     		adds	r4, r4, r3
 143 001e 45F10005 		adc	r5, r5, #0
 144              		.loc 1 60 0
 145 0022 9342     		cmp	r3, r2
 146              		.loc 1 63 0
 147 0024 0268     		ldr	r2, [r0]
 148              		.loc 1 61 0
 149 0026 88BF     		it	hi
 150 0028 4360     		strhi	r3, [r0, #4]
 151              		.loc 1 57 0
 152 002a 0131     		adds	r1, r1, #1
 153              		.loc 1 63 0
 154 002c 9342     		cmp	r3, r2
 155              		.loc 1 57 0
 156 002e C160     		str	r1, [r0, #12]
 157              		.loc 1 59 0
 158 0030 C0E90445 		strd	r4, [r0, #16]
 159              		.loc 1 64 0
 160 0034 38BF     		it	cc
 161 0036 0360     		strcc	r3, [r0]
 162 0038 30BD     		pop	{r4, r5, pc}
 163              	.L9:
 164 003a 00BF     		.align	2
 165              	.L8:
 166 003c 001000E0 		.word	-536866816
 167 0040 00000000 		.word	ch
 168              	.LBE19:
 169              	.LBE21:
 170              		.cfi_endproc
 171              	.LFE294:
ARM GAS  /tmp/cc6vtm71.s 			page 4


 172              		.size	chTMStopMeasurementX, .-chTMStopMeasurementX
 173              		.section	.text._tm_init,"ax",%progbits
 174              		.align	1
 175              		.global	_tm_init
 176              		.thumb
 177              		.thumb_func
 178              		.type	_tm_init, %function
 179              	_tm_init:
 180              	.LFB291:
 181              		.loc 1 77 0
 182              		.cfi_startproc
 183              		@ args = 0, pretend = 0, frame = 24
 184              		@ frame_needed = 0, uses_anonymous_args = 0
 185 0000 10B5     		push	{r4, lr}
 186              		.cfi_def_cfa_offset 8
 187              		.cfi_offset 4, -8
 188              		.cfi_offset 14, -4
 189              		.loc 1 83 0
 190 0002 094C     		ldr	r4, .L11
 191              		.loc 1 77 0
 192 0004 86B0     		sub	sp, sp, #24
 193              		.cfi_def_cfa_offset 32
 194              		.loc 1 83 0
 195 0006 0023     		movs	r3, #0
 196              		.loc 1 84 0
 197 0008 6846     		mov	r0, sp
 198              		.loc 1 83 0
 199 000a C4F89030 		str	r3, [r4, #144]
 200              		.loc 1 84 0
 201 000e FFF7FEFF 		bl	chTMObjectInit
 202              	.LVL6:
 203              		.loc 1 85 0
 204 0012 6846     		mov	r0, sp
 205 0014 FFF7FEFF 		bl	chTMStartMeasurementX
 206              	.LVL7:
 207              		.loc 1 86 0
 208 0018 6846     		mov	r0, sp
 209 001a FFF7FEFF 		bl	chTMStopMeasurementX
 210              	.LVL8:
 211              		.loc 1 87 0
 212 001e 029B     		ldr	r3, [sp, #8]
 213 0020 C4F89030 		str	r3, [r4, #144]
 214              		.loc 1 88 0
 215 0024 06B0     		add	sp, sp, #24
 216              		.cfi_def_cfa_offset 8
 217              		@ sp needed
 218 0026 10BD     		pop	{r4, pc}
 219              	.L12:
 220              		.align	2
 221              	.L11:
 222 0028 00000000 		.word	ch
 223              		.cfi_endproc
 224              	.LFE291:
 225              		.size	_tm_init, .-_tm_init
 226              		.section	.text.chTMChainMeasurementToX,"ax",%progbits
 227              		.align	1
 228              		.global	chTMChainMeasurementToX
ARM GAS  /tmp/cc6vtm71.s 			page 5


 229              		.thumb
 230              		.thumb_func
 231              		.type	chTMChainMeasurementToX, %function
 232              	chTMChainMeasurementToX:
 233              	.LFB295:
 234              		.loc 1 145 0
 235              		.cfi_startproc
 236              		@ args = 0, pretend = 0, frame = 0
 237              		@ frame_needed = 0, uses_anonymous_args = 0
 238              	.LVL9:
 239              	.LBB26:
 240              	.LBB27:
 241              		.loc 2 716 0
 242 0000 0C4B     		ldr	r3, .L16
 243              	.LBE27:
 244              	.LBE26:
 245              	.LBB29:
 246              	.LBB30:
 247              		.loc 1 57 0
 248 0002 C268     		ldr	r2, [r0, #12]
 249              	.LBE30:
 250              	.LBE29:
 251              	.LBB33:
 252              	.LBB28:
 253              		.loc 2 716 0
 254 0004 5B68     		ldr	r3, [r3, #4]
 255              	.LBE28:
 256              	.LBE33:
 257              		.loc 1 145 0
 258 0006 30B5     		push	{r4, r5, lr}
 259              		.cfi_def_cfa_offset 12
 260              		.cfi_offset 4, -12
 261              		.cfi_offset 5, -8
 262              		.cfi_offset 14, -4
 263              	.LBB34:
 264              	.LBB31:
 265              		.loc 1 57 0
 266 0008 0132     		adds	r2, r2, #1
 267              	.LBE31:
 268              	.LBE34:
 269              		.loc 1 148 0
 270 000a 8B60     		str	r3, [r1, #8]
 271              	.LVL10:
 272              	.LBB35:
 273              	.LBB32:
 274              		.loc 1 59 0
 275 000c D0E90445 		ldrd	r4, [r0, #16]
 276              		.loc 1 57 0
 277 0010 C260     		str	r2, [r0, #12]
 278              		.loc 1 58 0
 279 0012 8268     		ldr	r2, [r0, #8]
 280 0014 9B1A     		subs	r3, r3, r2
 281              	.LVL11:
 282              		.loc 1 60 0
 283 0016 4268     		ldr	r2, [r0, #4]
 284              		.loc 1 58 0
 285 0018 8360     		str	r3, [r0, #8]
ARM GAS  /tmp/cc6vtm71.s 			page 6


 286              	.LVL12:
 287              		.loc 1 59 0
 288 001a E418     		adds	r4, r4, r3
 289 001c 45F10005 		adc	r5, r5, #0
 290              		.loc 1 60 0
 291 0020 9342     		cmp	r3, r2
 292              		.loc 1 63 0
 293 0022 0268     		ldr	r2, [r0]
 294              		.loc 1 61 0
 295 0024 88BF     		it	hi
 296 0026 4360     		strhi	r3, [r0, #4]
 297              		.loc 1 63 0
 298 0028 9342     		cmp	r3, r2
 299              		.loc 1 59 0
 300 002a C0E90445 		strd	r4, [r0, #16]
 301              		.loc 1 64 0
 302 002e 38BF     		it	cc
 303 0030 0360     		strcc	r3, [r0]
 304 0032 30BD     		pop	{r4, r5, pc}
 305              	.L17:
 306              		.align	2
 307              	.L16:
 308 0034 001000E0 		.word	-536866816
 309              	.LBE32:
 310              	.LBE35:
 311              		.cfi_endproc
 312              	.LFE295:
 313              		.size	chTMChainMeasurementToX, .-chTMChainMeasurementToX
 314              		.text
 315              	.Letext0:
 316              		.file 3 "/usr/include/newlib/machine/_default_types.h"
 317              		.file 4 "/usr/include/newlib/sys/_stdint.h"
 318              		.file 5 "../../modules/ChibiOS/os/common/ports/ARMCMx/compilers/GCC/chtypes.h"
 319              		.file 6 "../../modules/ChibiOS/os/rt/include/chsystypes.h"
 320              		.file 7 "../../modules/ChibiOS/os/rt/include/chschd.h"
 321              		.file 8 "../../modules/ChibiOS/os/rt/include/chtime.h"
 322              		.file 9 "../../modules/ChibiOS/os/common/ext/ARM/CMSIS/Core/Include/core_cm4.h"
 323              		.file 10 "../../modules/ChibiOS/os/common/ports/ARMCMx/chcore.h"
 324              		.file 11 "../../modules/ChibiOS/os/rt/include/chtm.h"
 325              		.file 12 "../../modules/ChibiOS/os/rt/include/chstats.h"
 326              		.file 13 "../../modules/ChibiOS/os/rt/include/chsem.h"
 327              		.file 14 "../../modules/ChibiOS/os/rt/include/chmtx.h"
 328              		.section	.debug_info,"",%progbits
 329              	.Ldebug_info0:
 330 0000 BD0A0000 		.4byte	0xabd
 331 0004 0400     		.2byte	0x4
 332 0006 00000000 		.4byte	.Ldebug_abbrev0
 333 000a 04       		.byte	0x4
 334 000b 01       		.uleb128 0x1
 335 000c 11020000 		.4byte	.LASF137
 336 0010 01       		.byte	0x1
 337 0011 36000000 		.4byte	.LASF138
 338 0015 0C060000 		.4byte	.LASF139
 339 0019 68000000 		.4byte	.Ldebug_ranges0+0x68
 340 001d 00000000 		.4byte	0
 341 0021 00000000 		.4byte	.Ldebug_line0
 342 0025 02       		.uleb128 0x2
ARM GAS  /tmp/cc6vtm71.s 			page 7


 343 0026 04       		.byte	0x4
 344 0027 05       		.byte	0x5
 345 0028 696E7400 		.ascii	"int\000"
 346 002c 03       		.uleb128 0x3
 347 002d 04       		.byte	0x4
 348 002e 07       		.byte	0x7
 349 002f 04020000 		.4byte	.LASF0
 350 0033 03       		.uleb128 0x3
 351 0034 01       		.byte	0x1
 352 0035 06       		.byte	0x6
 353 0036 3C010000 		.4byte	.LASF1
 354 003a 04       		.uleb128 0x4
 355 003b 5D000000 		.4byte	.LASF5
 356 003f 03       		.byte	0x3
 357 0040 1D       		.byte	0x1d
 358 0041 45000000 		.4byte	0x45
 359 0045 03       		.uleb128 0x3
 360 0046 01       		.byte	0x1
 361 0047 08       		.byte	0x8
 362 0048 E0040000 		.4byte	.LASF2
 363 004c 03       		.uleb128 0x3
 364 004d 02       		.byte	0x2
 365 004e 05       		.byte	0x5
 366 004f 23050000 		.4byte	.LASF3
 367 0053 03       		.uleb128 0x3
 368 0054 02       		.byte	0x2
 369 0055 07       		.byte	0x7
 370 0056 33030000 		.4byte	.LASF4
 371 005a 04       		.uleb128 0x4
 372 005b BF030000 		.4byte	.LASF6
 373 005f 03       		.byte	0x3
 374 0060 3F       		.byte	0x3f
 375 0061 65000000 		.4byte	0x65
 376 0065 03       		.uleb128 0x3
 377 0066 04       		.byte	0x4
 378 0067 05       		.byte	0x5
 379 0068 87010000 		.4byte	.LASF7
 380 006c 04       		.uleb128 0x4
 381 006d AD010000 		.4byte	.LASF8
 382 0071 03       		.byte	0x3
 383 0072 41       		.byte	0x41
 384 0073 77000000 		.4byte	0x77
 385 0077 03       		.uleb128 0x3
 386 0078 04       		.byte	0x4
 387 0079 07       		.byte	0x7
 388 007a 98050000 		.4byte	.LASF9
 389 007e 03       		.uleb128 0x3
 390 007f 08       		.byte	0x8
 391 0080 05       		.byte	0x5
 392 0081 2E010000 		.4byte	.LASF10
 393 0085 04       		.uleb128 0x4
 394 0086 6B040000 		.4byte	.LASF11
 395 008a 03       		.byte	0x3
 396 008b 5B       		.byte	0x5b
 397 008c 90000000 		.4byte	0x90
 398 0090 03       		.uleb128 0x3
 399 0091 08       		.byte	0x8
ARM GAS  /tmp/cc6vtm71.s 			page 8


 400 0092 07       		.byte	0x7
 401 0093 BE000000 		.4byte	.LASF12
 402 0097 04       		.uleb128 0x4
 403 0098 64060000 		.4byte	.LASF13
 404 009c 04       		.byte	0x4
 405 009d 14       		.byte	0x14
 406 009e 3A000000 		.4byte	0x3a
 407 00a2 04       		.uleb128 0x4
 408 00a3 D8040000 		.4byte	.LASF14
 409 00a7 04       		.byte	0x4
 410 00a8 1F       		.byte	0x1f
 411 00a9 5A000000 		.4byte	0x5a
 412 00ad 04       		.uleb128 0x4
 413 00ae 6C050000 		.4byte	.LASF15
 414 00b2 04       		.byte	0x4
 415 00b3 20       		.byte	0x20
 416 00b4 6C000000 		.4byte	0x6c
 417 00b8 04       		.uleb128 0x4
 418 00b9 20000000 		.4byte	.LASF16
 419 00bd 04       		.byte	0x4
 420 00be 26       		.byte	0x26
 421 00bf 85000000 		.4byte	0x85
 422 00c3 04       		.uleb128 0x4
 423 00c4 38060000 		.4byte	.LASF17
 424 00c8 05       		.byte	0x5
 425 00c9 27       		.byte	0x27
 426 00ca AD000000 		.4byte	0xad
 427 00ce 04       		.uleb128 0x4
 428 00cf 1B010000 		.4byte	.LASF18
 429 00d3 05       		.byte	0x5
 430 00d4 28       		.byte	0x28
 431 00d5 B8000000 		.4byte	0xb8
 432 00d9 04       		.uleb128 0x4
 433 00da 92030000 		.4byte	.LASF19
 434 00de 05       		.byte	0x5
 435 00df 2A       		.byte	0x2a
 436 00e0 97000000 		.4byte	0x97
 437 00e4 04       		.uleb128 0x4
 438 00e5 90010000 		.4byte	.LASF20
 439 00e9 05       		.byte	0x5
 440 00ea 2B       		.byte	0x2b
 441 00eb 97000000 		.4byte	0x97
 442 00ef 04       		.uleb128 0x4
 443 00f0 81040000 		.4byte	.LASF21
 444 00f4 05       		.byte	0x5
 445 00f5 2C       		.byte	0x2c
 446 00f6 97000000 		.4byte	0x97
 447 00fa 04       		.uleb128 0x4
 448 00fb BC040000 		.4byte	.LASF22
 449 00ff 05       		.byte	0x5
 450 0100 2E       		.byte	0x2e
 451 0101 AD000000 		.4byte	0xad
 452 0105 04       		.uleb128 0x4
 453 0106 6B030000 		.4byte	.LASF23
 454 010a 05       		.byte	0x5
 455 010b 2F       		.byte	0x2f
 456 010c A2000000 		.4byte	0xa2
ARM GAS  /tmp/cc6vtm71.s 			page 9


 457 0110 04       		.uleb128 0x4
 458 0111 B3030000 		.4byte	.LASF24
 459 0115 05       		.byte	0x5
 460 0116 31       		.byte	0x31
 461 0117 AD000000 		.4byte	0xad
 462 011b 04       		.uleb128 0x4
 463 011c EF010000 		.4byte	.LASF25
 464 0120 05       		.byte	0x5
 465 0121 33       		.byte	0x33
 466 0122 A2000000 		.4byte	0xa2
 467 0126 04       		.uleb128 0x4
 468 0127 76030000 		.4byte	.LASF26
 469 012b 05       		.byte	0x5
 470 012c 34       		.byte	0x34
 471 012d AD000000 		.4byte	0xad
 472 0131 04       		.uleb128 0x4
 473 0132 BC050000 		.4byte	.LASF27
 474 0136 06       		.byte	0x6
 475 0137 34       		.byte	0x34
 476 0138 3C010000 		.4byte	0x13c
 477 013c 05       		.uleb128 0x5
 478 013d 5A030000 		.4byte	.LASF46
 479 0141 60       		.byte	0x60
 480 0142 07       		.byte	0x7
 481 0143 8E       		.byte	0x8e
 482 0144 27020000 		.4byte	0x227
 483 0148 06       		.uleb128 0x6
 484 0149 22030000 		.4byte	.LASF28
 485 014d 07       		.byte	0x7
 486 014e 8F       		.byte	0x8f
 487 014f 5C020000 		.4byte	0x25c
 488 0153 00       		.byte	0
 489 0154 06       		.uleb128 0x6
 490 0155 5E040000 		.4byte	.LASF29
 491 0159 07       		.byte	0x7
 492 015a 90       		.byte	0x90
 493 015b FA000000 		.4byte	0xfa
 494 015f 08       		.byte	0x8
 495 0160 07       		.uleb128 0x7
 496 0161 63747800 		.ascii	"ctx\000"
 497 0165 07       		.byte	0x7
 498 0166 91       		.byte	0x91
 499 0167 D2050000 		.4byte	0x5d2
 500 016b 0C       		.byte	0xc
 501 016c 06       		.uleb128 0x6
 502 016d EC030000 		.4byte	.LASF30
 503 0171 07       		.byte	0x7
 504 0172 93       		.byte	0x93
 505 0173 32020000 		.4byte	0x232
 506 0177 10       		.byte	0x10
 507 0178 06       		.uleb128 0x6
 508 0179 B6050000 		.4byte	.LASF31
 509 017d 07       		.byte	0x7
 510 017e 94       		.byte	0x94
 511 017f 32020000 		.4byte	0x232
 512 0183 14       		.byte	0x14
 513 0184 06       		.uleb128 0x6
ARM GAS  /tmp/cc6vtm71.s 			page 10


 514 0185 55030000 		.4byte	.LASF32
 515 0189 07       		.byte	0x7
 516 018a 9B       		.byte	0x9b
 517 018b B8080000 		.4byte	0x8b8
 518 018f 18       		.byte	0x18
 519 0190 06       		.uleb128 0x6
 520 0191 AA050000 		.4byte	.LASF33
 521 0195 07       		.byte	0x7
 522 0196 A4       		.byte	0xa4
 523 0197 CA080000 		.4byte	0x8ca
 524 019b 1C       		.byte	0x1c
 525 019c 06       		.uleb128 0x6
 526 019d 6C010000 		.4byte	.LASF34
 527 01a1 07       		.byte	0x7
 528 01a2 A9       		.byte	0xa9
 529 01a3 E4000000 		.4byte	0xe4
 530 01a7 20       		.byte	0x20
 531 01a8 06       		.uleb128 0x6
 532 01a9 6C060000 		.4byte	.LASF35
 533 01ad 07       		.byte	0x7
 534 01ae AD       		.byte	0xad
 535 01af D9000000 		.4byte	0xd9
 536 01b3 21       		.byte	0x21
 537 01b4 06       		.uleb128 0x6
 538 01b5 A7040000 		.4byte	.LASF36
 539 01b9 07       		.byte	0x7
 540 01ba B2       		.byte	0xb2
 541 01bb EF000000 		.4byte	0xef
 542 01bf 22       		.byte	0x22
 543 01c0 08       		.uleb128 0x8
 544 01c1 7500     		.ascii	"u\000"
 545 01c3 07       		.byte	0x7
 546 01c4 0301     		.2byte	0x103
 547 01c6 EE070000 		.4byte	0x7ee
 548 01ca 24       		.byte	0x24
 549 01cb 09       		.uleb128 0x9
 550 01cc D1010000 		.4byte	.LASF37
 551 01d0 07       		.byte	0x7
 552 01d1 0801     		.2byte	0x108
 553 01d3 38020000 		.4byte	0x238
 554 01d7 28       		.byte	0x28
 555 01d8 09       		.uleb128 0x9
 556 01d9 F5010000 		.4byte	.LASF38
 557 01dd 07       		.byte	0x7
 558 01de 0E01     		.2byte	0x10e
 559 01e0 5C020000 		.4byte	0x25c
 560 01e4 2C       		.byte	0x2c
 561 01e5 09       		.uleb128 0x9
 562 01e6 7D030000 		.4byte	.LASF39
 563 01ea 07       		.byte	0x7
 564 01eb 1401     		.2byte	0x114
 565 01ed 10010000 		.4byte	0x110
 566 01f1 34       		.byte	0x34
 567 01f2 09       		.uleb128 0x9
 568 01f3 90060000 		.4byte	.LASF40
 569 01f7 07       		.byte	0x7
 570 01f8 1B01     		.2byte	0x11b
ARM GAS  /tmp/cc6vtm71.s 			page 11


 571 01fa B2080000 		.4byte	0x8b2
 572 01fe 38       		.byte	0x38
 573 01ff 09       		.uleb128 0x9
 574 0200 F9030000 		.4byte	.LASF41
 575 0204 07       		.byte	0x7
 576 0205 1F01     		.2byte	0x11f
 577 0207 FA000000 		.4byte	0xfa
 578 020b 3C       		.byte	0x3c
 579 020c 09       		.uleb128 0x9
 580 020d 28030000 		.4byte	.LASF42
 581 0211 07       		.byte	0x7
 582 0212 2601     		.2byte	0x126
 583 0214 0F030000 		.4byte	0x30f
 584 0218 40       		.byte	0x40
 585 0219 09       		.uleb128 0x9
 586 021a 9E010000 		.4byte	.LASF43
 587 021e 07       		.byte	0x7
 588 021f 2C01     		.2byte	0x12c
 589 0221 9F070000 		.4byte	0x79f
 590 0225 48       		.byte	0x48
 591 0226 00       		.byte	0
 592 0227 04       		.uleb128 0x4
 593 0228 0B040000 		.4byte	.LASF44
 594 022c 06       		.byte	0x6
 595 022d 39       		.byte	0x39
 596 022e 32020000 		.4byte	0x232
 597 0232 0A       		.uleb128 0xa
 598 0233 04       		.byte	0x4
 599 0234 31010000 		.4byte	0x131
 600 0238 04       		.uleb128 0x4
 601 0239 81060000 		.4byte	.LASF45
 602 023d 06       		.byte	0x6
 603 023e 3E       		.byte	0x3e
 604 023f 43020000 		.4byte	0x243
 605 0243 05       		.uleb128 0x5
 606 0244 7C050000 		.4byte	.LASF47
 607 0248 04       		.byte	0x4
 608 0249 07       		.byte	0x7
 609 024a 7C       		.byte	0x7c
 610 024b 5C020000 		.4byte	0x25c
 611 024f 06       		.uleb128 0x6
 612 0250 16010000 		.4byte	.LASF48
 613 0254 07       		.byte	0x7
 614 0255 7D       		.byte	0x7d
 615 0256 32020000 		.4byte	0x232
 616 025a 00       		.byte	0
 617 025b 00       		.byte	0
 618 025c 04       		.uleb128 0x4
 619 025d 45060000 		.4byte	.LASF49
 620 0261 06       		.byte	0x6
 621 0262 45       		.byte	0x45
 622 0263 67020000 		.4byte	0x267
 623 0267 05       		.uleb128 0x5
 624 0268 78000000 		.4byte	.LASF50
 625 026c 08       		.byte	0x8
 626 026d 07       		.byte	0x7
 627 026e 83       		.byte	0x83
ARM GAS  /tmp/cc6vtm71.s 			page 12


 628 026f 8C020000 		.4byte	0x28c
 629 0273 06       		.uleb128 0x6
 630 0274 16010000 		.4byte	.LASF48
 631 0278 07       		.byte	0x7
 632 0279 84       		.byte	0x84
 633 027a 32020000 		.4byte	0x232
 634 027e 00       		.byte	0
 635 027f 06       		.uleb128 0x6
 636 0280 67000000 		.4byte	.LASF51
 637 0284 07       		.byte	0x7
 638 0285 85       		.byte	0x85
 639 0286 32020000 		.4byte	0x232
 640 028a 04       		.byte	0x4
 641 028b 00       		.byte	0
 642 028c 04       		.uleb128 0x4
 643 028d 00000000 		.4byte	.LASF52
 644 0291 06       		.byte	0x6
 645 0292 4C       		.byte	0x4c
 646 0293 97020000 		.4byte	0x297
 647 0297 0B       		.uleb128 0xb
 648 0298 A5030000 		.4byte	.LASF53
 649 029c 1C       		.byte	0x1c
 650 029d 07       		.byte	0x7
 651 029e 5E01     		.2byte	0x15e
 652 02a0 F3020000 		.4byte	0x2f3
 653 02a4 09       		.uleb128 0x9
 654 02a5 22030000 		.4byte	.LASF28
 655 02a9 07       		.byte	0x7
 656 02aa 5F01     		.2byte	0x15f
 657 02ac 5C020000 		.4byte	0x25c
 658 02b0 00       		.byte	0
 659 02b1 09       		.uleb128 0x9
 660 02b2 5E040000 		.4byte	.LASF29
 661 02b6 07       		.byte	0x7
 662 02b7 6001     		.2byte	0x160
 663 02b9 FA000000 		.4byte	0xfa
 664 02bd 08       		.byte	0x8
 665 02be 08       		.uleb128 0x8
 666 02bf 63747800 		.ascii	"ctx\000"
 667 02c3 07       		.byte	0x7
 668 02c4 6201     		.2byte	0x162
 669 02c6 D2050000 		.4byte	0x5d2
 670 02ca 0C       		.byte	0xc
 671 02cb 09       		.uleb128 0x9
 672 02cc EC030000 		.4byte	.LASF30
 673 02d0 07       		.byte	0x7
 674 02d1 6501     		.2byte	0x165
 675 02d3 32020000 		.4byte	0x232
 676 02d7 10       		.byte	0x10
 677 02d8 09       		.uleb128 0x9
 678 02d9 B6050000 		.4byte	.LASF31
 679 02dd 07       		.byte	0x7
 680 02de 6601     		.2byte	0x166
 681 02e0 32020000 		.4byte	0x232
 682 02e4 14       		.byte	0x14
 683 02e5 09       		.uleb128 0x9
 684 02e6 63040000 		.4byte	.LASF54
ARM GAS  /tmp/cc6vtm71.s 			page 13


 685 02ea 07       		.byte	0x7
 686 02eb 6901     		.2byte	0x169
 687 02ed 32020000 		.4byte	0x232
 688 02f1 18       		.byte	0x18
 689 02f2 00       		.byte	0
 690 02f3 04       		.uleb128 0x4
 691 02f4 E9050000 		.4byte	.LASF55
 692 02f8 06       		.byte	0x6
 693 02f9 51       		.byte	0x51
 694 02fa FE020000 		.4byte	0x2fe
 695 02fe 0A       		.uleb128 0xa
 696 02ff 04       		.byte	0x4
 697 0300 04030000 		.4byte	0x304
 698 0304 0C       		.uleb128 0xc
 699 0305 0F030000 		.4byte	0x30f
 700 0309 0D       		.uleb128 0xd
 701 030a 0F030000 		.4byte	0x30f
 702 030e 00       		.byte	0
 703 030f 0E       		.uleb128 0xe
 704 0310 04       		.byte	0x4
 705 0311 04       		.uleb128 0x4
 706 0312 AC040000 		.4byte	.LASF56
 707 0316 06       		.byte	0x6
 708 0317 56       		.byte	0x56
 709 0318 1C030000 		.4byte	0x31c
 710 031c 0B       		.uleb128 0xb
 711 031d 47050000 		.4byte	.LASF57
 712 0321 14       		.byte	0x14
 713 0322 07       		.byte	0x7
 714 0323 3901     		.2byte	0x139
 715 0325 6B030000 		.4byte	0x36b
 716 0329 09       		.uleb128 0x9
 717 032a 16010000 		.4byte	.LASF48
 718 032e 07       		.byte	0x7
 719 032f 3A01     		.2byte	0x13a
 720 0331 D0080000 		.4byte	0x8d0
 721 0335 00       		.byte	0
 722 0336 09       		.uleb128 0x9
 723 0337 67000000 		.4byte	.LASF51
 724 033b 07       		.byte	0x7
 725 033c 3B01     		.2byte	0x13b
 726 033e D0080000 		.4byte	0x8d0
 727 0342 04       		.byte	0x4
 728 0343 09       		.uleb128 0x9
 729 0344 13000000 		.4byte	.LASF58
 730 0348 07       		.byte	0x7
 731 0349 3C01     		.2byte	0x13c
 732 034b 4F040000 		.4byte	0x44f
 733 034f 08       		.byte	0x8
 734 0350 09       		.uleb128 0x9
 735 0351 99010000 		.4byte	.LASF59
 736 0355 07       		.byte	0x7
 737 0356 3D01     		.2byte	0x13d
 738 0358 F3020000 		.4byte	0x2f3
 739 035c 0C       		.byte	0xc
 740 035d 08       		.uleb128 0x8
 741 035e 70617200 		.ascii	"par\000"
ARM GAS  /tmp/cc6vtm71.s 			page 14


 742 0362 07       		.byte	0x7
 743 0363 3F01     		.2byte	0x13f
 744 0365 0F030000 		.4byte	0x30f
 745 0369 10       		.byte	0x10
 746 036a 00       		.byte	0
 747 036b 04       		.uleb128 0x4
 748 036c F1000000 		.4byte	.LASF60
 749 0370 06       		.byte	0x6
 750 0371 5B       		.byte	0x5b
 751 0372 76030000 		.4byte	0x376
 752 0376 0B       		.uleb128 0xb
 753 0377 1E040000 		.4byte	.LASF61
 754 037b 10       		.byte	0x10
 755 037c 07       		.byte	0x7
 756 037d 4901     		.2byte	0x149
 757 037f B8030000 		.4byte	0x3b8
 758 0383 09       		.uleb128 0x9
 759 0384 16010000 		.4byte	.LASF48
 760 0388 07       		.byte	0x7
 761 0389 4A01     		.2byte	0x14a
 762 038b D0080000 		.4byte	0x8d0
 763 038f 00       		.byte	0
 764 0390 09       		.uleb128 0x9
 765 0391 67000000 		.4byte	.LASF51
 766 0395 07       		.byte	0x7
 767 0396 4C01     		.2byte	0x14c
 768 0398 D0080000 		.4byte	0x8d0
 769 039c 04       		.byte	0x4
 770 039d 09       		.uleb128 0x9
 771 039e 13000000 		.4byte	.LASF58
 772 03a2 07       		.byte	0x7
 773 03a3 4E01     		.2byte	0x14e
 774 03a5 4F040000 		.4byte	0x44f
 775 03a9 08       		.byte	0x8
 776 03aa 09       		.uleb128 0x9
 777 03ab 2D050000 		.4byte	.LASF62
 778 03af 07       		.byte	0x7
 779 03b0 5601     		.2byte	0x156
 780 03b2 44040000 		.4byte	0x444
 781 03b6 0C       		.byte	0xc
 782 03b7 00       		.byte	0
 783 03b8 04       		.uleb128 0x4
 784 03b9 89000000 		.4byte	.LASF63
 785 03bd 06       		.byte	0x6
 786 03be 60       		.byte	0x60
 787 03bf C3030000 		.4byte	0x3c3
 788 03c3 0B       		.uleb128 0xb
 789 03c4 C1010000 		.4byte	.LASF64
 790 03c8 04       		.byte	0x4
 791 03c9 07       		.byte	0x7
 792 03ca 7001     		.2byte	0x170
 793 03cc DE030000 		.4byte	0x3de
 794 03d0 09       		.uleb128 0x9
 795 03d1 F2050000 		.4byte	.LASF65
 796 03d5 07       		.byte	0x7
 797 03d6 7801     		.2byte	0x178
 798 03d8 D6080000 		.4byte	0x8d6
ARM GAS  /tmp/cc6vtm71.s 			page 15


 799 03dc 00       		.byte	0
 800 03dd 00       		.byte	0
 801 03de 04       		.uleb128 0x4
 802 03df 86030000 		.4byte	.LASF66
 803 03e3 06       		.byte	0x6
 804 03e4 65       		.byte	0x65
 805 03e5 E9030000 		.4byte	0x3e9
 806 03e9 0B       		.uleb128 0xb
 807 03ea 3D050000 		.4byte	.LASF67
 808 03ee D0       		.byte	0xd0
 809 03ef 07       		.byte	0x7
 810 03f0 9001     		.2byte	0x190
 811 03f2 44040000 		.4byte	0x444
 812 03f6 09       		.uleb128 0x9
 813 03f7 5E060000 		.4byte	.LASF68
 814 03fb 07       		.byte	0x7
 815 03fc 9401     		.2byte	0x194
 816 03fe 8C020000 		.4byte	0x28c
 817 0402 00       		.byte	0
 818 0403 09       		.uleb128 0x9
 819 0404 4F010000 		.4byte	.LASF69
 820 0408 07       		.byte	0x7
 821 0409 9801     		.2byte	0x198
 822 040b 6B030000 		.4byte	0x36b
 823 040f 1C       		.byte	0x1c
 824 0410 08       		.uleb128 0x8
 825 0411 64626700 		.ascii	"dbg\000"
 826 0415 07       		.byte	0x7
 827 0416 9C01     		.2byte	0x19c
 828 0418 B8030000 		.4byte	0x3b8
 829 041c 2C       		.byte	0x2c
 830 041d 09       		.uleb128 0x9
 831 041e DE000000 		.4byte	.LASF70
 832 0422 07       		.byte	0x7
 833 0423 A001     		.2byte	0x1a0
 834 0425 31010000 		.4byte	0x131
 835 0429 30       		.byte	0x30
 836 042a 08       		.uleb128 0x8
 837 042b 746D00   		.ascii	"tm\000"
 838 042e 07       		.byte	0x7
 839 042f A501     		.2byte	0x1a5
 840 0431 51070000 		.4byte	0x751
 841 0435 90       		.byte	0x90
 842 0436 09       		.uleb128 0x9
 843 0437 29000000 		.4byte	.LASF71
 844 043b 07       		.byte	0x7
 845 043c AB01     		.2byte	0x1ab
 846 043e E3070000 		.4byte	0x7e3
 847 0442 98       		.byte	0x98
 848 0443 00       		.byte	0
 849 0444 04       		.uleb128 0x4
 850 0445 DF050000 		.4byte	.LASF72
 851 0449 08       		.byte	0x8
 852 044a 6D       		.byte	0x6d
 853 044b AD000000 		.4byte	0xad
 854 044f 04       		.uleb128 0x4
 855 0450 E1010000 		.4byte	.LASF73
ARM GAS  /tmp/cc6vtm71.s 			page 16


 856 0454 08       		.byte	0x8
 857 0455 79       		.byte	0x79
 858 0456 AD000000 		.4byte	0xad
 859 045a 03       		.uleb128 0x3
 860 045b 04       		.byte	0x4
 861 045c 07       		.byte	0x7
 862 045d 02040000 		.4byte	.LASF74
 863 0461 0F       		.uleb128 0xf
 864 0462 AD000000 		.4byte	0xad
 865 0466 10       		.uleb128 0x10
 866 0467 61040000 		.4byte	0x461
 867 046b 11       		.uleb128 0x11
 868 046c AD000000 		.4byte	0xad
 869 0470 7B040000 		.4byte	0x47b
 870 0474 12       		.uleb128 0x12
 871 0475 5A040000 		.4byte	0x45a
 872 0479 00       		.byte	0
 873 047a 00       		.byte	0
 874 047b 13       		.uleb128 0x13
 875 047c 5C       		.byte	0x5c
 876 047d 09       		.byte	0x9
 877 047e 9203     		.2byte	0x392
 878 0480 B0050000 		.4byte	0x5b0
 879 0484 09       		.uleb128 0x9
 880 0485 40060000 		.4byte	.LASF75
 881 0489 09       		.byte	0x9
 882 048a 9403     		.2byte	0x394
 883 048c 61040000 		.4byte	0x461
 884 0490 00       		.byte	0
 885 0491 09       		.uleb128 0x9
 886 0492 F2030000 		.4byte	.LASF76
 887 0496 09       		.byte	0x9
 888 0497 9503     		.2byte	0x395
 889 0499 61040000 		.4byte	0x461
 890 049d 04       		.byte	0x4
 891 049e 09       		.uleb128 0x9
 892 049f 48010000 		.4byte	.LASF77
 893 04a3 09       		.byte	0x9
 894 04a4 9603     		.2byte	0x396
 895 04a6 61040000 		.4byte	0x461
 896 04aa 08       		.byte	0x8
 897 04ab 09       		.uleb128 0x9
 898 04ac 64030000 		.4byte	.LASF78
 899 04b0 09       		.byte	0x9
 900 04b1 9703     		.2byte	0x397
 901 04b3 61040000 		.4byte	0x461
 902 04b7 0C       		.byte	0xc
 903 04b8 09       		.uleb128 0x9
 904 04b9 A4010000 		.4byte	.LASF79
 905 04bd 09       		.byte	0x9
 906 04be 9803     		.2byte	0x398
 907 04c0 61040000 		.4byte	0x461
 908 04c4 10       		.byte	0x10
 909 04c5 09       		.uleb128 0x9
 910 04c6 65050000 		.4byte	.LASF80
 911 04ca 09       		.byte	0x9
 912 04cb 9903     		.2byte	0x399
ARM GAS  /tmp/cc6vtm71.s 			page 17


 913 04cd 61040000 		.4byte	0x461
 914 04d1 14       		.byte	0x14
 915 04d2 09       		.uleb128 0x9
 916 04d3 72060000 		.4byte	.LASF81
 917 04d7 09       		.byte	0x9
 918 04d8 9A03     		.2byte	0x39a
 919 04da 61040000 		.4byte	0x461
 920 04de 18       		.byte	0x18
 921 04df 09       		.uleb128 0x9
 922 04e0 C4040000 		.4byte	.LASF82
 923 04e4 09       		.byte	0x9
 924 04e5 9B03     		.2byte	0x39b
 925 04e7 66040000 		.4byte	0x466
 926 04eb 1C       		.byte	0x1c
 927 04ec 09       		.uleb128 0x9
 928 04ed 46040000 		.4byte	.LASF83
 929 04f1 09       		.byte	0x9
 930 04f2 9C03     		.2byte	0x39c
 931 04f4 61040000 		.4byte	0x461
 932 04f8 20       		.byte	0x20
 933 04f9 09       		.uleb128 0x9
 934 04fa FE010000 		.4byte	.LASF84
 935 04fe 09       		.byte	0x9
 936 04ff 9D03     		.2byte	0x39d
 937 0501 61040000 		.4byte	0x461
 938 0505 24       		.byte	0x24
 939 0506 09       		.uleb128 0x9
 940 0507 FB040000 		.4byte	.LASF85
 941 050b 09       		.byte	0x9
 942 050c 9E03     		.2byte	0x39e
 943 050e 61040000 		.4byte	0x461
 944 0512 28       		.byte	0x28
 945 0513 09       		.uleb128 0x9
 946 0514 89040000 		.4byte	.LASF86
 947 0518 09       		.byte	0x9
 948 0519 9F03     		.2byte	0x39f
 949 051b 6B040000 		.4byte	0x46b
 950 051f 2C       		.byte	0x2c
 951 0520 09       		.uleb128 0x9
 952 0521 4C040000 		.4byte	.LASF87
 953 0525 09       		.byte	0x9
 954 0526 A003     		.2byte	0x3a0
 955 0528 61040000 		.4byte	0x461
 956 052c 30       		.byte	0x30
 957 052d 09       		.uleb128 0x9
 958 052e D2040000 		.4byte	.LASF88
 959 0532 09       		.byte	0x9
 960 0533 A103     		.2byte	0x3a1
 961 0535 61040000 		.4byte	0x461
 962 0539 34       		.byte	0x34
 963 053a 09       		.uleb128 0x9
 964 053b 05050000 		.4byte	.LASF89
 965 053f 09       		.byte	0x9
 966 0540 A203     		.2byte	0x3a2
 967 0542 61040000 		.4byte	0x461
 968 0546 38       		.byte	0x38
 969 0547 09       		.uleb128 0x9
ARM GAS  /tmp/cc6vtm71.s 			page 18


 970 0548 93040000 		.4byte	.LASF90
 971 054c 09       		.byte	0x9
 972 054d A303     		.2byte	0x3a3
 973 054f 6B040000 		.4byte	0x46b
 974 0553 3C       		.byte	0x3c
 975 0554 09       		.uleb128 0x9
 976 0555 52040000 		.4byte	.LASF91
 977 0559 09       		.byte	0x9
 978 055a A403     		.2byte	0x3a4
 979 055c 61040000 		.4byte	0x461
 980 0560 40       		.byte	0x40
 981 0561 09       		.uleb128 0x9
 982 0562 00030000 		.4byte	.LASF92
 983 0566 09       		.byte	0x9
 984 0567 A503     		.2byte	0x3a5
 985 0569 61040000 		.4byte	0x461
 986 056d 44       		.byte	0x44
 987 056e 09       		.uleb128 0x9
 988 056f 0F050000 		.4byte	.LASF93
 989 0573 09       		.byte	0x9
 990 0574 A603     		.2byte	0x3a6
 991 0576 61040000 		.4byte	0x461
 992 057a 48       		.byte	0x48
 993 057b 09       		.uleb128 0x9
 994 057c 9D040000 		.4byte	.LASF94
 995 0580 09       		.byte	0x9
 996 0581 A703     		.2byte	0x3a7
 997 0583 6B040000 		.4byte	0x46b
 998 0587 4C       		.byte	0x4c
 999 0588 09       		.uleb128 0x9
 1000 0589 58040000 		.4byte	.LASF95
 1001 058d 09       		.byte	0x9
 1002 058e A803     		.2byte	0x3a8
 1003 0590 61040000 		.4byte	0x461
 1004 0594 50       		.byte	0x50
 1005 0595 09       		.uleb128 0x9
 1006 0596 06030000 		.4byte	.LASF96
 1007 059a 09       		.byte	0x9
 1008 059b A903     		.2byte	0x3a9
 1009 059d 61040000 		.4byte	0x461
 1010 05a1 54       		.byte	0x54
 1011 05a2 09       		.uleb128 0x9
 1012 05a3 19050000 		.4byte	.LASF97
 1013 05a7 09       		.byte	0x9
 1014 05a8 AA03     		.2byte	0x3aa
 1015 05aa 61040000 		.4byte	0x461
 1016 05ae 58       		.byte	0x58
 1017 05af 00       		.byte	0
 1018 05b0 14       		.uleb128 0x14
 1019 05b1 03060000 		.4byte	.LASF98
 1020 05b5 09       		.byte	0x9
 1021 05b6 AB03     		.2byte	0x3ab
 1022 05b8 7B040000 		.4byte	0x47b
 1023 05bc 04       		.uleb128 0x4
 1024 05bd B8010000 		.4byte	.LASF99
 1025 05c1 0A       		.byte	0xa
 1026 05c2 65       		.byte	0x65
ARM GAS  /tmp/cc6vtm71.s 			page 19


 1027 05c3 0F030000 		.4byte	0x30f
 1028 05c7 04       		.uleb128 0x4
 1029 05c8 E1030000 		.4byte	.LASF100
 1030 05cc 0A       		.byte	0xa
 1031 05cd 6D       		.byte	0x6d
 1032 05ce B8000000 		.4byte	0xb8
 1033 05d2 05       		.uleb128 0x5
 1034 05d3 98000000 		.4byte	.LASF101
 1035 05d7 04       		.byte	0x4
 1036 05d8 0A       		.byte	0xa
 1037 05d9 89       		.byte	0x89
 1038 05da EA050000 		.4byte	0x5ea
 1039 05de 07       		.uleb128 0x7
 1040 05df 737000   		.ascii	"sp\000"
 1041 05e2 0A       		.byte	0xa
 1042 05e3 8A       		.byte	0x8a
 1043 05e4 36070000 		.4byte	0x736
 1044 05e8 00       		.byte	0
 1045 05e9 00       		.byte	0
 1046 05ea 0B       		.uleb128 0xb
 1047 05eb 6C000000 		.4byte	.LASF102
 1048 05ef 64       		.byte	0x64
 1049 05f0 02       		.byte	0x2
 1050 05f1 5901     		.2byte	0x159
 1051 05f3 36070000 		.4byte	0x736
 1052 05f7 08       		.uleb128 0x8
 1053 05f8 73313600 		.ascii	"s16\000"
 1054 05fc 02       		.byte	0x2
 1055 05fd 5B01     		.2byte	0x15b
 1056 05ff BC050000 		.4byte	0x5bc
 1057 0603 00       		.byte	0
 1058 0604 08       		.uleb128 0x8
 1059 0605 73313700 		.ascii	"s17\000"
 1060 0609 02       		.byte	0x2
 1061 060a 5C01     		.2byte	0x15c
 1062 060c BC050000 		.4byte	0x5bc
 1063 0610 04       		.byte	0x4
 1064 0611 08       		.uleb128 0x8
 1065 0612 73313800 		.ascii	"s18\000"
 1066 0616 02       		.byte	0x2
 1067 0617 5D01     		.2byte	0x15d
 1068 0619 BC050000 		.4byte	0x5bc
 1069 061d 08       		.byte	0x8
 1070 061e 08       		.uleb128 0x8
 1071 061f 73313900 		.ascii	"s19\000"
 1072 0623 02       		.byte	0x2
 1073 0624 5E01     		.2byte	0x15e
 1074 0626 BC050000 		.4byte	0x5bc
 1075 062a 0C       		.byte	0xc
 1076 062b 08       		.uleb128 0x8
 1077 062c 73323000 		.ascii	"s20\000"
 1078 0630 02       		.byte	0x2
 1079 0631 5F01     		.2byte	0x15f
 1080 0633 BC050000 		.4byte	0x5bc
 1081 0637 10       		.byte	0x10
 1082 0638 08       		.uleb128 0x8
 1083 0639 73323100 		.ascii	"s21\000"
ARM GAS  /tmp/cc6vtm71.s 			page 20


 1084 063d 02       		.byte	0x2
 1085 063e 6001     		.2byte	0x160
 1086 0640 BC050000 		.4byte	0x5bc
 1087 0644 14       		.byte	0x14
 1088 0645 08       		.uleb128 0x8
 1089 0646 73323200 		.ascii	"s22\000"
 1090 064a 02       		.byte	0x2
 1091 064b 6101     		.2byte	0x161
 1092 064d BC050000 		.4byte	0x5bc
 1093 0651 18       		.byte	0x18
 1094 0652 08       		.uleb128 0x8
 1095 0653 73323300 		.ascii	"s23\000"
 1096 0657 02       		.byte	0x2
 1097 0658 6201     		.2byte	0x162
 1098 065a BC050000 		.4byte	0x5bc
 1099 065e 1C       		.byte	0x1c
 1100 065f 08       		.uleb128 0x8
 1101 0660 73323400 		.ascii	"s24\000"
 1102 0664 02       		.byte	0x2
 1103 0665 6301     		.2byte	0x163
 1104 0667 BC050000 		.4byte	0x5bc
 1105 066b 20       		.byte	0x20
 1106 066c 08       		.uleb128 0x8
 1107 066d 73323500 		.ascii	"s25\000"
 1108 0671 02       		.byte	0x2
 1109 0672 6401     		.2byte	0x164
 1110 0674 BC050000 		.4byte	0x5bc
 1111 0678 24       		.byte	0x24
 1112 0679 08       		.uleb128 0x8
 1113 067a 73323600 		.ascii	"s26\000"
 1114 067e 02       		.byte	0x2
 1115 067f 6501     		.2byte	0x165
 1116 0681 BC050000 		.4byte	0x5bc
 1117 0685 28       		.byte	0x28
 1118 0686 08       		.uleb128 0x8
 1119 0687 73323700 		.ascii	"s27\000"
 1120 068b 02       		.byte	0x2
 1121 068c 6601     		.2byte	0x166
 1122 068e BC050000 		.4byte	0x5bc
 1123 0692 2C       		.byte	0x2c
 1124 0693 08       		.uleb128 0x8
 1125 0694 73323800 		.ascii	"s28\000"
 1126 0698 02       		.byte	0x2
 1127 0699 6701     		.2byte	0x167
 1128 069b BC050000 		.4byte	0x5bc
 1129 069f 30       		.byte	0x30
 1130 06a0 08       		.uleb128 0x8
 1131 06a1 73323900 		.ascii	"s29\000"
 1132 06a5 02       		.byte	0x2
 1133 06a6 6801     		.2byte	0x168
 1134 06a8 BC050000 		.4byte	0x5bc
 1135 06ac 34       		.byte	0x34
 1136 06ad 08       		.uleb128 0x8
 1137 06ae 73333000 		.ascii	"s30\000"
 1138 06b2 02       		.byte	0x2
 1139 06b3 6901     		.2byte	0x169
 1140 06b5 BC050000 		.4byte	0x5bc
ARM GAS  /tmp/cc6vtm71.s 			page 21


 1141 06b9 38       		.byte	0x38
 1142 06ba 08       		.uleb128 0x8
 1143 06bb 73333100 		.ascii	"s31\000"
 1144 06bf 02       		.byte	0x2
 1145 06c0 6A01     		.2byte	0x16a
 1146 06c2 BC050000 		.4byte	0x5bc
 1147 06c6 3C       		.byte	0x3c
 1148 06c7 08       		.uleb128 0x8
 1149 06c8 723400   		.ascii	"r4\000"
 1150 06cb 02       		.byte	0x2
 1151 06cc 6C01     		.2byte	0x16c
 1152 06ce BC050000 		.4byte	0x5bc
 1153 06d2 40       		.byte	0x40
 1154 06d3 08       		.uleb128 0x8
 1155 06d4 723500   		.ascii	"r5\000"
 1156 06d7 02       		.byte	0x2
 1157 06d8 6D01     		.2byte	0x16d
 1158 06da BC050000 		.4byte	0x5bc
 1159 06de 44       		.byte	0x44
 1160 06df 08       		.uleb128 0x8
 1161 06e0 723600   		.ascii	"r6\000"
 1162 06e3 02       		.byte	0x2
 1163 06e4 6E01     		.2byte	0x16e
 1164 06e6 BC050000 		.4byte	0x5bc
 1165 06ea 48       		.byte	0x48
 1166 06eb 08       		.uleb128 0x8
 1167 06ec 723700   		.ascii	"r7\000"
 1168 06ef 02       		.byte	0x2
 1169 06f0 6F01     		.2byte	0x16f
 1170 06f2 BC050000 		.4byte	0x5bc
 1171 06f6 4C       		.byte	0x4c
 1172 06f7 08       		.uleb128 0x8
 1173 06f8 723800   		.ascii	"r8\000"
 1174 06fb 02       		.byte	0x2
 1175 06fc 7001     		.2byte	0x170
 1176 06fe BC050000 		.4byte	0x5bc
 1177 0702 50       		.byte	0x50
 1178 0703 08       		.uleb128 0x8
 1179 0704 723900   		.ascii	"r9\000"
 1180 0707 02       		.byte	0x2
 1181 0708 7101     		.2byte	0x171
 1182 070a BC050000 		.4byte	0x5bc
 1183 070e 54       		.byte	0x54
 1184 070f 08       		.uleb128 0x8
 1185 0710 72313000 		.ascii	"r10\000"
 1186 0714 02       		.byte	0x2
 1187 0715 7201     		.2byte	0x172
 1188 0717 BC050000 		.4byte	0x5bc
 1189 071b 58       		.byte	0x58
 1190 071c 08       		.uleb128 0x8
 1191 071d 72313100 		.ascii	"r11\000"
 1192 0721 02       		.byte	0x2
 1193 0722 7301     		.2byte	0x173
 1194 0724 BC050000 		.4byte	0x5bc
 1195 0728 5C       		.byte	0x5c
 1196 0729 08       		.uleb128 0x8
 1197 072a 6C7200   		.ascii	"lr\000"
ARM GAS  /tmp/cc6vtm71.s 			page 22


 1198 072d 02       		.byte	0x2
 1199 072e 7401     		.2byte	0x174
 1200 0730 BC050000 		.4byte	0x5bc
 1201 0734 60       		.byte	0x60
 1202 0735 00       		.byte	0
 1203 0736 0A       		.uleb128 0xa
 1204 0737 04       		.byte	0x4
 1205 0738 EA050000 		.4byte	0x5ea
 1206 073c 15       		.uleb128 0x15
 1207 073d 04       		.byte	0x4
 1208 073e 0B       		.byte	0xb
 1209 073f 38       		.byte	0x38
 1210 0740 51070000 		.4byte	0x751
 1211 0744 06       		.uleb128 0x6
 1212 0745 FC050000 		.4byte	.LASF103
 1213 0749 0B       		.byte	0xb
 1214 074a 3C       		.byte	0x3c
 1215 074b C3000000 		.4byte	0xc3
 1216 074f 00       		.byte	0
 1217 0750 00       		.byte	0
 1218 0751 04       		.uleb128 0x4
 1219 0752 35040000 		.4byte	.LASF104
 1220 0756 0B       		.byte	0xb
 1221 0757 3D       		.byte	0x3d
 1222 0758 3C070000 		.4byte	0x73c
 1223 075c 15       		.uleb128 0x15
 1224 075d 18       		.byte	0x18
 1225 075e 0B       		.byte	0xb
 1226 075f 48       		.byte	0x48
 1227 0760 9F070000 		.4byte	0x79f
 1228 0764 06       		.uleb128 0x6
 1229 0765 2E030000 		.4byte	.LASF105
 1230 0769 0B       		.byte	0xb
 1231 076a 49       		.byte	0x49
 1232 076b C3000000 		.4byte	0xc3
 1233 076f 00       		.byte	0
 1234 0770 06       		.uleb128 0x6
 1235 0771 A5000000 		.4byte	.LASF106
 1236 0775 0B       		.byte	0xb
 1237 0776 4A       		.byte	0x4a
 1238 0777 C3000000 		.4byte	0xc3
 1239 077b 04       		.byte	0x4
 1240 077c 06       		.uleb128 0x6
 1241 077d 71030000 		.4byte	.LASF107
 1242 0781 0B       		.byte	0xb
 1243 0782 4B       		.byte	0x4b
 1244 0783 C3000000 		.4byte	0xc3
 1245 0787 08       		.byte	0x8
 1246 0788 07       		.uleb128 0x7
 1247 0789 6E00     		.ascii	"n\000"
 1248 078b 0B       		.byte	0xb
 1249 078c 4C       		.byte	0x4c
 1250 078d 26010000 		.4byte	0x126
 1251 0791 0C       		.byte	0xc
 1252 0792 06       		.uleb128 0x6
 1253 0793 76040000 		.4byte	.LASF108
 1254 0797 0B       		.byte	0xb
ARM GAS  /tmp/cc6vtm71.s 			page 23


 1255 0798 4D       		.byte	0x4d
 1256 0799 CE000000 		.4byte	0xce
 1257 079d 10       		.byte	0x10
 1258 079e 00       		.byte	0
 1259 079f 04       		.uleb128 0x4
 1260 07a0 AB000000 		.4byte	.LASF109
 1261 07a4 0B       		.byte	0xb
 1262 07a5 4E       		.byte	0x4e
 1263 07a6 5C070000 		.4byte	0x75c
 1264 07aa 15       		.uleb128 0x15
 1265 07ab 38       		.byte	0x38
 1266 07ac 0C       		.byte	0xc
 1267 07ad 38       		.byte	0x38
 1268 07ae E3070000 		.4byte	0x7e3
 1269 07b2 06       		.uleb128 0x6
 1270 07b3 1C030000 		.4byte	.LASF110
 1271 07b7 0C       		.byte	0xc
 1272 07b8 39       		.byte	0x39
 1273 07b9 26010000 		.4byte	0x126
 1274 07bd 00       		.byte	0
 1275 07be 06       		.uleb128 0x6
 1276 07bf C9040000 		.4byte	.LASF111
 1277 07c3 0C       		.byte	0xc
 1278 07c4 3A       		.byte	0x3a
 1279 07c5 26010000 		.4byte	0x126
 1280 07c9 04       		.byte	0x4
 1281 07ca 06       		.uleb128 0x6
 1282 07cb A0060000 		.4byte	.LASF112
 1283 07cf 0C       		.byte	0xc
 1284 07d0 3B       		.byte	0x3b
 1285 07d1 9F070000 		.4byte	0x79f
 1286 07d5 08       		.byte	0x8
 1287 07d6 06       		.uleb128 0x6
 1288 07d7 9A030000 		.4byte	.LASF113
 1289 07db 0C       		.byte	0xc
 1290 07dc 3D       		.byte	0x3d
 1291 07dd 9F070000 		.4byte	0x79f
 1292 07e1 20       		.byte	0x20
 1293 07e2 00       		.byte	0
 1294 07e3 04       		.uleb128 0x4
 1295 07e4 46030000 		.4byte	.LASF114
 1296 07e8 0C       		.byte	0xc
 1297 07e9 3F       		.byte	0x3f
 1298 07ea AA070000 		.4byte	0x7aa
 1299 07ee 16       		.uleb128 0x16
 1300 07ef 04       		.byte	0x4
 1301 07f0 07       		.byte	0x7
 1302 07f1 C6       		.byte	0xc6
 1303 07f2 50080000 		.4byte	0x850
 1304 07f6 17       		.uleb128 0x17
 1305 07f7 19000000 		.4byte	.LASF115
 1306 07fb 07       		.byte	0x7
 1307 07fc CD       		.byte	0xcd
 1308 07fd 05010000 		.4byte	0x105
 1309 0801 17       		.uleb128 0x17
 1310 0802 D5000000 		.4byte	.LASF116
 1311 0806 07       		.byte	0x7
ARM GAS  /tmp/cc6vtm71.s 			page 24


 1312 0807 D4       		.byte	0xd4
 1313 0808 05010000 		.4byte	0x105
 1314 080c 17       		.uleb128 0x17
 1315 080d 7A060000 		.4byte	.LASF117
 1316 0811 07       		.byte	0x7
 1317 0812 DB       		.byte	0xdb
 1318 0813 0F030000 		.4byte	0x30f
 1319 0817 17       		.uleb128 0x17
 1320 0818 0D000000 		.4byte	.LASF118
 1321 081c 07       		.byte	0x7
 1322 081d E2       		.byte	0xe2
 1323 081e 50080000 		.4byte	0x850
 1324 0822 17       		.uleb128 0x17
 1325 0823 98060000 		.4byte	.LASF119
 1326 0827 07       		.byte	0x7
 1327 0828 E7       		.byte	0xe7
 1328 0829 05010000 		.4byte	0x105
 1329 082d 17       		.uleb128 0x17
 1330 082e 0C030000 		.4byte	.LASF120
 1331 0832 07       		.byte	0x7
 1332 0833 F0       		.byte	0xf0
 1333 0834 7B080000 		.4byte	0x87b
 1334 0838 17       		.uleb128 0x17
 1335 0839 75050000 		.4byte	.LASF121
 1336 083d 07       		.byte	0x7
 1337 083e F9       		.byte	0xf9
 1338 083f B2080000 		.4byte	0x8b2
 1339 0843 18       		.uleb128 0x18
 1340 0844 36050000 		.4byte	.LASF122
 1341 0848 07       		.byte	0x7
 1342 0849 0101     		.2byte	0x101
 1343 084b 10010000 		.4byte	0x110
 1344 084f 00       		.byte	0
 1345 0850 0A       		.uleb128 0xa
 1346 0851 04       		.byte	0x4
 1347 0852 27020000 		.4byte	0x227
 1348 0856 05       		.uleb128 0x5
 1349 0857 58050000 		.4byte	.LASF123
 1350 085b 0C       		.byte	0xc
 1351 085c 0D       		.byte	0xd
 1352 085d 34       		.byte	0x34
 1353 085e 7B080000 		.4byte	0x87b
 1354 0862 06       		.uleb128 0x6
 1355 0863 22030000 		.4byte	.LASF28
 1356 0867 0D       		.byte	0xd
 1357 0868 35       		.byte	0x35
 1358 0869 5C020000 		.4byte	0x25c
 1359 086d 00       		.byte	0
 1360 086e 07       		.uleb128 0x7
 1361 086f 636E7400 		.ascii	"cnt\000"
 1362 0873 0D       		.byte	0xd
 1363 0874 37       		.byte	0x37
 1364 0875 1B010000 		.4byte	0x11b
 1365 0879 08       		.byte	0x8
 1366 087a 00       		.byte	0
 1367 087b 0A       		.uleb128 0xa
 1368 087c 04       		.byte	0x4
ARM GAS  /tmp/cc6vtm71.s 			page 25


 1369 087d 56080000 		.4byte	0x856
 1370 0881 05       		.uleb128 0x5
 1371 0882 55060000 		.4byte	.LASF124
 1372 0886 10       		.byte	0x10
 1373 0887 0E       		.byte	0xe
 1374 0888 39       		.byte	0x39
 1375 0889 B2080000 		.4byte	0x8b2
 1376 088d 06       		.uleb128 0x6
 1377 088e 22030000 		.4byte	.LASF28
 1378 0892 0E       		.byte	0xe
 1379 0893 3A       		.byte	0x3a
 1380 0894 5C020000 		.4byte	0x25c
 1381 0898 00       		.byte	0
 1382 0899 06       		.uleb128 0x6
 1383 089a 8C050000 		.4byte	.LASF125
 1384 089e 0E       		.byte	0xe
 1385 089f 3C       		.byte	0x3c
 1386 08a0 32020000 		.4byte	0x232
 1387 08a4 08       		.byte	0x8
 1388 08a5 06       		.uleb128 0x6
 1389 08a6 16010000 		.4byte	.LASF48
 1390 08aa 0E       		.byte	0xe
 1391 08ab 3E       		.byte	0x3e
 1392 08ac E6080000 		.4byte	0x8e6
 1393 08b0 0C       		.byte	0xc
 1394 08b1 00       		.byte	0
 1395 08b2 0A       		.uleb128 0xa
 1396 08b3 04       		.byte	0x4
 1397 08b4 81080000 		.4byte	0x881
 1398 08b8 0A       		.uleb128 0xa
 1399 08b9 04       		.byte	0x4
 1400 08ba BE080000 		.4byte	0x8be
 1401 08be 10       		.uleb128 0x10
 1402 08bf C3080000 		.4byte	0x8c3
 1403 08c3 03       		.uleb128 0x3
 1404 08c4 01       		.byte	0x1
 1405 08c5 08       		.byte	0x8
 1406 08c6 B1050000 		.4byte	.LASF126
 1407 08ca 0A       		.uleb128 0xa
 1408 08cb 04       		.byte	0x4
 1409 08cc C7050000 		.4byte	0x5c7
 1410 08d0 0A       		.uleb128 0xa
 1411 08d1 04       		.byte	0x4
 1412 08d2 11030000 		.4byte	0x311
 1413 08d6 0F       		.uleb128 0xf
 1414 08d7 B8080000 		.4byte	0x8b8
 1415 08db 04       		.uleb128 0x4
 1416 08dc D9010000 		.4byte	.LASF127
 1417 08e0 0E       		.byte	0xe
 1418 08e1 34       		.byte	0x34
 1419 08e2 81080000 		.4byte	0x881
 1420 08e6 0A       		.uleb128 0xa
 1421 08e7 04       		.byte	0x4
 1422 08e8 DB080000 		.4byte	0x8db
 1423 08ec 03       		.uleb128 0x3
 1424 08ed 01       		.byte	0x1
 1425 08ee 02       		.byte	0x2
ARM GAS  /tmp/cc6vtm71.s 			page 26


 1426 08ef 92050000 		.4byte	.LASF128
 1427 08f3 19       		.uleb128 0x19
 1428 08f4 C5050000 		.4byte	.LASF140
 1429 08f8 02       		.byte	0x2
 1430 08f9 CA02     		.2byte	0x2ca
 1431 08fb C3000000 		.4byte	0xc3
 1432 08ff 03       		.byte	0x3
 1433 0900 1A       		.uleb128 0x1a
 1434 0901 07010000 		.4byte	.LASF129
 1435 0905 01       		.byte	0x1
 1436 0906 61       		.byte	0x61
 1437 0907 00000000 		.4byte	.LFB292
 1438 090b 18000000 		.4byte	.LFE292-.LFB292
 1439 090f 01       		.uleb128 0x1
 1440 0910 9C       		.byte	0x9c
 1441 0911 23090000 		.4byte	0x923
 1442 0915 1B       		.uleb128 0x1b
 1443 0916 746D7000 		.ascii	"tmp\000"
 1444 091a 01       		.byte	0x1
 1445 091b 61       		.byte	0x61
 1446 091c 23090000 		.4byte	0x923
 1447 0920 01       		.uleb128 0x1
 1448 0921 50       		.byte	0x50
 1449 0922 00       		.byte	0
 1450 0923 0A       		.uleb128 0xa
 1451 0924 04       		.byte	0x4
 1452 0925 9F070000 		.4byte	0x79f
 1453 0929 1A       		.uleb128 0x1a
 1454 092a 56010000 		.4byte	.LASF130
 1455 092e 01       		.byte	0x1
 1456 092f 72       		.byte	0x72
 1457 0930 00000000 		.4byte	.LFB293
 1458 0934 0C000000 		.4byte	.LFE293-.LFB293
 1459 0938 01       		.uleb128 0x1
 1460 0939 9C       		.byte	0x9c
 1461 093a 5B090000 		.4byte	0x95b
 1462 093e 1B       		.uleb128 0x1b
 1463 093f 746D7000 		.ascii	"tmp\000"
 1464 0943 01       		.byte	0x1
 1465 0944 72       		.byte	0x72
 1466 0945 23090000 		.4byte	0x923
 1467 0949 01       		.uleb128 0x1
 1468 094a 50       		.byte	0x50
 1469 094b 1C       		.uleb128 0x1c
 1470 094c F3080000 		.4byte	0x8f3
 1471 0950 00000000 		.4byte	.LBB8
 1472 0954 04000000 		.4byte	.LBE8-.LBB8
 1473 0958 01       		.byte	0x1
 1474 0959 74       		.byte	0x74
 1475 095a 00       		.byte	0
 1476 095b 1D       		.uleb128 0x1d
 1477 095c E9000000 		.4byte	.LASF141
 1478 0960 01       		.byte	0x1
 1479 0961 35       		.byte	0x35
 1480 0962 03       		.byte	0x3
 1481 0963 89090000 		.4byte	0x989
 1482 0967 1E       		.uleb128 0x1e
ARM GAS  /tmp/cc6vtm71.s 			page 27


 1483 0968 746D7000 		.ascii	"tmp\000"
 1484 096c 01       		.byte	0x1
 1485 096d 35       		.byte	0x35
 1486 096e 23090000 		.4byte	0x923
 1487 0972 1E       		.uleb128 0x1e
 1488 0973 6E6F7700 		.ascii	"now\000"
 1489 0977 01       		.byte	0x1
 1490 0978 36       		.byte	0x36
 1491 0979 C3000000 		.4byte	0xc3
 1492 097d 1F       		.uleb128 0x1f
 1493 097e FC050000 		.4byte	.LASF103
 1494 0982 01       		.byte	0x1
 1495 0983 37       		.byte	0x37
 1496 0984 C3000000 		.4byte	0xc3
 1497 0988 00       		.byte	0
 1498 0989 1A       		.uleb128 0x1a
 1499 098a 72010000 		.4byte	.LASF131
 1500 098e 01       		.byte	0x1
 1501 098f 7F       		.byte	0x7f
 1502 0990 00000000 		.4byte	.LFB294
 1503 0994 44000000 		.4byte	.LFE294-.LFB294
 1504 0998 01       		.uleb128 0x1
 1505 0999 9C       		.byte	0x9c
 1506 099a E4090000 		.4byte	0x9e4
 1507 099e 1B       		.uleb128 0x1b
 1508 099f 746D7000 		.ascii	"tmp\000"
 1509 09a3 01       		.byte	0x1
 1510 09a4 7F       		.byte	0x7f
 1511 09a5 23090000 		.4byte	0x923
 1512 09a9 01       		.uleb128 0x1
 1513 09aa 50       		.byte	0x50
 1514 09ab 20       		.uleb128 0x20
 1515 09ac F3080000 		.4byte	0x8f3
 1516 09b0 00000000 		.4byte	.LBB14
 1517 09b4 00000000 		.4byte	.Ldebug_ranges0+0
 1518 09b8 01       		.byte	0x1
 1519 09b9 81       		.byte	0x81
 1520 09ba 21       		.uleb128 0x21
 1521 09bb 5B090000 		.4byte	0x95b
 1522 09bf 02000000 		.4byte	.LBB17
 1523 09c3 18000000 		.4byte	.Ldebug_ranges0+0x18
 1524 09c7 01       		.byte	0x1
 1525 09c8 81       		.byte	0x81
 1526 09c9 22       		.uleb128 0x22
 1527 09ca 7D090000 		.4byte	0x97d
 1528 09ce 00000000 		.4byte	.LLST0
 1529 09d2 22       		.uleb128 0x22
 1530 09d3 72090000 		.4byte	0x972
 1531 09d7 13000000 		.4byte	.LLST1
 1532 09db 23       		.uleb128 0x23
 1533 09dc 67090000 		.4byte	0x967
 1534 09e0 01       		.uleb128 0x1
 1535 09e1 50       		.byte	0x50
 1536 09e2 00       		.byte	0
 1537 09e3 00       		.byte	0
 1538 09e4 1A       		.uleb128 0x1a
 1539 09e5 13030000 		.4byte	.LASF132
ARM GAS  /tmp/cc6vtm71.s 			page 28


 1540 09e9 01       		.byte	0x1
 1541 09ea 4D       		.byte	0x4d
 1542 09eb 00000000 		.4byte	.LFB291
 1543 09ef 2C000000 		.4byte	.LFE291-.LFB291
 1544 09f3 01       		.uleb128 0x1
 1545 09f4 9C       		.byte	0x9c
 1546 09f5 3F0A0000 		.4byte	0xa3f
 1547 09f9 24       		.uleb128 0x24
 1548 09fa 746D00   		.ascii	"tm\000"
 1549 09fd 01       		.byte	0x1
 1550 09fe 4E       		.byte	0x4e
 1551 09ff 9F070000 		.4byte	0x79f
 1552 0a03 02       		.uleb128 0x2
 1553 0a04 91       		.byte	0x91
 1554 0a05 60       		.sleb128 -32
 1555 0a06 25       		.uleb128 0x25
 1556 0a07 12000000 		.4byte	.LVL6
 1557 0a0b 00090000 		.4byte	0x900
 1558 0a0f 1A0A0000 		.4byte	0xa1a
 1559 0a13 26       		.uleb128 0x26
 1560 0a14 01       		.uleb128 0x1
 1561 0a15 50       		.byte	0x50
 1562 0a16 02       		.uleb128 0x2
 1563 0a17 7D       		.byte	0x7d
 1564 0a18 00       		.sleb128 0
 1565 0a19 00       		.byte	0
 1566 0a1a 25       		.uleb128 0x25
 1567 0a1b 18000000 		.4byte	.LVL7
 1568 0a1f 29090000 		.4byte	0x929
 1569 0a23 2E0A0000 		.4byte	0xa2e
 1570 0a27 26       		.uleb128 0x26
 1571 0a28 01       		.uleb128 0x1
 1572 0a29 50       		.byte	0x50
 1573 0a2a 02       		.uleb128 0x2
 1574 0a2b 7D       		.byte	0x7d
 1575 0a2c 00       		.sleb128 0
 1576 0a2d 00       		.byte	0
 1577 0a2e 27       		.uleb128 0x27
 1578 0a2f 1E000000 		.4byte	.LVL8
 1579 0a33 89090000 		.4byte	0x989
 1580 0a37 26       		.uleb128 0x26
 1581 0a38 01       		.uleb128 0x1
 1582 0a39 50       		.byte	0x50
 1583 0a3a 02       		.uleb128 0x2
 1584 0a3b 7D       		.byte	0x7d
 1585 0a3c 00       		.sleb128 0
 1586 0a3d 00       		.byte	0
 1587 0a3e 00       		.byte	0
 1588 0a3f 1A       		.uleb128 0x1a
 1589 0a40 C9030000 		.4byte	.LASF133
 1590 0a44 01       		.byte	0x1
 1591 0a45 90       		.byte	0x90
 1592 0a46 00000000 		.4byte	.LFB295
 1593 0a4a 38000000 		.4byte	.LFE295-.LFB295
 1594 0a4e 01       		.uleb128 0x1
 1595 0a4f 9C       		.byte	0x9c
 1596 0a50 A40A0000 		.4byte	0xaa4
ARM GAS  /tmp/cc6vtm71.s 			page 29


 1597 0a54 28       		.uleb128 0x28
 1598 0a55 24010000 		.4byte	.LASF134
 1599 0a59 01       		.byte	0x1
 1600 0a5a 90       		.byte	0x90
 1601 0a5b 23090000 		.4byte	0x923
 1602 0a5f 01       		.uleb128 0x1
 1603 0a60 50       		.byte	0x50
 1604 0a61 28       		.uleb128 0x28
 1605 0a62 29010000 		.4byte	.LASF135
 1606 0a66 01       		.byte	0x1
 1607 0a67 91       		.byte	0x91
 1608 0a68 23090000 		.4byte	0x923
 1609 0a6c 01       		.uleb128 0x1
 1610 0a6d 51       		.byte	0x51
 1611 0a6e 20       		.uleb128 0x20
 1612 0a6f F3080000 		.4byte	0x8f3
 1613 0a73 00000000 		.4byte	.LBB26
 1614 0a77 30000000 		.4byte	.Ldebug_ranges0+0x30
 1615 0a7b 01       		.byte	0x1
 1616 0a7c 94       		.byte	0x94
 1617 0a7d 21       		.uleb128 0x21
 1618 0a7e 5B090000 		.4byte	0x95b
 1619 0a82 02000000 		.4byte	.LBB29
 1620 0a86 48000000 		.4byte	.Ldebug_ranges0+0x48
 1621 0a8a 01       		.byte	0x1
 1622 0a8b 97       		.byte	0x97
 1623 0a8c 29       		.uleb128 0x29
 1624 0a8d 7D090000 		.4byte	0x97d
 1625 0a91 00       		.byte	0
 1626 0a92 22       		.uleb128 0x22
 1627 0a93 72090000 		.4byte	0x972
 1628 0a97 26000000 		.4byte	.LLST2
 1629 0a9b 23       		.uleb128 0x23
 1630 0a9c 67090000 		.4byte	0x967
 1631 0aa0 01       		.uleb128 0x1
 1632 0aa1 50       		.byte	0x50
 1633 0aa2 00       		.byte	0
 1634 0aa3 00       		.byte	0
 1635 0aa4 2A       		.uleb128 0x2a
 1636 0aa5 EE040000 		.4byte	.LASF136
 1637 0aa9 09       		.byte	0x9
 1638 0aaa 0408     		.2byte	0x804
 1639 0aac B00A0000 		.4byte	0xab0
 1640 0ab0 0F       		.uleb128 0xf
 1641 0ab1 A2000000 		.4byte	0xa2
 1642 0ab5 2B       		.uleb128 0x2b
 1643 0ab6 636800   		.ascii	"ch\000"
 1644 0ab9 07       		.byte	0x7
 1645 0aba C701     		.2byte	0x1c7
 1646 0abc DE030000 		.4byte	0x3de
 1647 0ac0 00       		.byte	0
 1648              		.section	.debug_abbrev,"",%progbits
 1649              	.Ldebug_abbrev0:
 1650 0000 01       		.uleb128 0x1
 1651 0001 11       		.uleb128 0x11
 1652 0002 01       		.byte	0x1
 1653 0003 25       		.uleb128 0x25
ARM GAS  /tmp/cc6vtm71.s 			page 30


 1654 0004 0E       		.uleb128 0xe
 1655 0005 13       		.uleb128 0x13
 1656 0006 0B       		.uleb128 0xb
 1657 0007 03       		.uleb128 0x3
 1658 0008 0E       		.uleb128 0xe
 1659 0009 1B       		.uleb128 0x1b
 1660 000a 0E       		.uleb128 0xe
 1661 000b 55       		.uleb128 0x55
 1662 000c 17       		.uleb128 0x17
 1663 000d 11       		.uleb128 0x11
 1664 000e 01       		.uleb128 0x1
 1665 000f 10       		.uleb128 0x10
 1666 0010 17       		.uleb128 0x17
 1667 0011 00       		.byte	0
 1668 0012 00       		.byte	0
 1669 0013 02       		.uleb128 0x2
 1670 0014 24       		.uleb128 0x24
 1671 0015 00       		.byte	0
 1672 0016 0B       		.uleb128 0xb
 1673 0017 0B       		.uleb128 0xb
 1674 0018 3E       		.uleb128 0x3e
 1675 0019 0B       		.uleb128 0xb
 1676 001a 03       		.uleb128 0x3
 1677 001b 08       		.uleb128 0x8
 1678 001c 00       		.byte	0
 1679 001d 00       		.byte	0
 1680 001e 03       		.uleb128 0x3
 1681 001f 24       		.uleb128 0x24
 1682 0020 00       		.byte	0
 1683 0021 0B       		.uleb128 0xb
 1684 0022 0B       		.uleb128 0xb
 1685 0023 3E       		.uleb128 0x3e
 1686 0024 0B       		.uleb128 0xb
 1687 0025 03       		.uleb128 0x3
 1688 0026 0E       		.uleb128 0xe
 1689 0027 00       		.byte	0
 1690 0028 00       		.byte	0
 1691 0029 04       		.uleb128 0x4
 1692 002a 16       		.uleb128 0x16
 1693 002b 00       		.byte	0
 1694 002c 03       		.uleb128 0x3
 1695 002d 0E       		.uleb128 0xe
 1696 002e 3A       		.uleb128 0x3a
 1697 002f 0B       		.uleb128 0xb
 1698 0030 3B       		.uleb128 0x3b
 1699 0031 0B       		.uleb128 0xb
 1700 0032 49       		.uleb128 0x49
 1701 0033 13       		.uleb128 0x13
 1702 0034 00       		.byte	0
 1703 0035 00       		.byte	0
 1704 0036 05       		.uleb128 0x5
 1705 0037 13       		.uleb128 0x13
 1706 0038 01       		.byte	0x1
 1707 0039 03       		.uleb128 0x3
 1708 003a 0E       		.uleb128 0xe
 1709 003b 0B       		.uleb128 0xb
 1710 003c 0B       		.uleb128 0xb
ARM GAS  /tmp/cc6vtm71.s 			page 31


 1711 003d 3A       		.uleb128 0x3a
 1712 003e 0B       		.uleb128 0xb
 1713 003f 3B       		.uleb128 0x3b
 1714 0040 0B       		.uleb128 0xb
 1715 0041 01       		.uleb128 0x1
 1716 0042 13       		.uleb128 0x13
 1717 0043 00       		.byte	0
 1718 0044 00       		.byte	0
 1719 0045 06       		.uleb128 0x6
 1720 0046 0D       		.uleb128 0xd
 1721 0047 00       		.byte	0
 1722 0048 03       		.uleb128 0x3
 1723 0049 0E       		.uleb128 0xe
 1724 004a 3A       		.uleb128 0x3a
 1725 004b 0B       		.uleb128 0xb
 1726 004c 3B       		.uleb128 0x3b
 1727 004d 0B       		.uleb128 0xb
 1728 004e 49       		.uleb128 0x49
 1729 004f 13       		.uleb128 0x13
 1730 0050 38       		.uleb128 0x38
 1731 0051 0B       		.uleb128 0xb
 1732 0052 00       		.byte	0
 1733 0053 00       		.byte	0
 1734 0054 07       		.uleb128 0x7
 1735 0055 0D       		.uleb128 0xd
 1736 0056 00       		.byte	0
 1737 0057 03       		.uleb128 0x3
 1738 0058 08       		.uleb128 0x8
 1739 0059 3A       		.uleb128 0x3a
 1740 005a 0B       		.uleb128 0xb
 1741 005b 3B       		.uleb128 0x3b
 1742 005c 0B       		.uleb128 0xb
 1743 005d 49       		.uleb128 0x49
 1744 005e 13       		.uleb128 0x13
 1745 005f 38       		.uleb128 0x38
 1746 0060 0B       		.uleb128 0xb
 1747 0061 00       		.byte	0
 1748 0062 00       		.byte	0
 1749 0063 08       		.uleb128 0x8
 1750 0064 0D       		.uleb128 0xd
 1751 0065 00       		.byte	0
 1752 0066 03       		.uleb128 0x3
 1753 0067 08       		.uleb128 0x8
 1754 0068 3A       		.uleb128 0x3a
 1755 0069 0B       		.uleb128 0xb
 1756 006a 3B       		.uleb128 0x3b
 1757 006b 05       		.uleb128 0x5
 1758 006c 49       		.uleb128 0x49
 1759 006d 13       		.uleb128 0x13
 1760 006e 38       		.uleb128 0x38
 1761 006f 0B       		.uleb128 0xb
 1762 0070 00       		.byte	0
 1763 0071 00       		.byte	0
 1764 0072 09       		.uleb128 0x9
 1765 0073 0D       		.uleb128 0xd
 1766 0074 00       		.byte	0
 1767 0075 03       		.uleb128 0x3
ARM GAS  /tmp/cc6vtm71.s 			page 32


 1768 0076 0E       		.uleb128 0xe
 1769 0077 3A       		.uleb128 0x3a
 1770 0078 0B       		.uleb128 0xb
 1771 0079 3B       		.uleb128 0x3b
 1772 007a 05       		.uleb128 0x5
 1773 007b 49       		.uleb128 0x49
 1774 007c 13       		.uleb128 0x13
 1775 007d 38       		.uleb128 0x38
 1776 007e 0B       		.uleb128 0xb
 1777 007f 00       		.byte	0
 1778 0080 00       		.byte	0
 1779 0081 0A       		.uleb128 0xa
 1780 0082 0F       		.uleb128 0xf
 1781 0083 00       		.byte	0
 1782 0084 0B       		.uleb128 0xb
 1783 0085 0B       		.uleb128 0xb
 1784 0086 49       		.uleb128 0x49
 1785 0087 13       		.uleb128 0x13
 1786 0088 00       		.byte	0
 1787 0089 00       		.byte	0
 1788 008a 0B       		.uleb128 0xb
 1789 008b 13       		.uleb128 0x13
 1790 008c 01       		.byte	0x1
 1791 008d 03       		.uleb128 0x3
 1792 008e 0E       		.uleb128 0xe
 1793 008f 0B       		.uleb128 0xb
 1794 0090 0B       		.uleb128 0xb
 1795 0091 3A       		.uleb128 0x3a
 1796 0092 0B       		.uleb128 0xb
 1797 0093 3B       		.uleb128 0x3b
 1798 0094 05       		.uleb128 0x5
 1799 0095 01       		.uleb128 0x1
 1800 0096 13       		.uleb128 0x13
 1801 0097 00       		.byte	0
 1802 0098 00       		.byte	0
 1803 0099 0C       		.uleb128 0xc
 1804 009a 15       		.uleb128 0x15
 1805 009b 01       		.byte	0x1
 1806 009c 27       		.uleb128 0x27
 1807 009d 19       		.uleb128 0x19
 1808 009e 01       		.uleb128 0x1
 1809 009f 13       		.uleb128 0x13
 1810 00a0 00       		.byte	0
 1811 00a1 00       		.byte	0
 1812 00a2 0D       		.uleb128 0xd
 1813 00a3 05       		.uleb128 0x5
 1814 00a4 00       		.byte	0
 1815 00a5 49       		.uleb128 0x49
 1816 00a6 13       		.uleb128 0x13
 1817 00a7 00       		.byte	0
 1818 00a8 00       		.byte	0
 1819 00a9 0E       		.uleb128 0xe
 1820 00aa 0F       		.uleb128 0xf
 1821 00ab 00       		.byte	0
 1822 00ac 0B       		.uleb128 0xb
 1823 00ad 0B       		.uleb128 0xb
 1824 00ae 00       		.byte	0
ARM GAS  /tmp/cc6vtm71.s 			page 33


 1825 00af 00       		.byte	0
 1826 00b0 0F       		.uleb128 0xf
 1827 00b1 35       		.uleb128 0x35
 1828 00b2 00       		.byte	0
 1829 00b3 49       		.uleb128 0x49
 1830 00b4 13       		.uleb128 0x13
 1831 00b5 00       		.byte	0
 1832 00b6 00       		.byte	0
 1833 00b7 10       		.uleb128 0x10
 1834 00b8 26       		.uleb128 0x26
 1835 00b9 00       		.byte	0
 1836 00ba 49       		.uleb128 0x49
 1837 00bb 13       		.uleb128 0x13
 1838 00bc 00       		.byte	0
 1839 00bd 00       		.byte	0
 1840 00be 11       		.uleb128 0x11
 1841 00bf 01       		.uleb128 0x1
 1842 00c0 01       		.byte	0x1
 1843 00c1 49       		.uleb128 0x49
 1844 00c2 13       		.uleb128 0x13
 1845 00c3 01       		.uleb128 0x1
 1846 00c4 13       		.uleb128 0x13
 1847 00c5 00       		.byte	0
 1848 00c6 00       		.byte	0
 1849 00c7 12       		.uleb128 0x12
 1850 00c8 21       		.uleb128 0x21
 1851 00c9 00       		.byte	0
 1852 00ca 49       		.uleb128 0x49
 1853 00cb 13       		.uleb128 0x13
 1854 00cc 2F       		.uleb128 0x2f
 1855 00cd 0B       		.uleb128 0xb
 1856 00ce 00       		.byte	0
 1857 00cf 00       		.byte	0
 1858 00d0 13       		.uleb128 0x13
 1859 00d1 13       		.uleb128 0x13
 1860 00d2 01       		.byte	0x1
 1861 00d3 0B       		.uleb128 0xb
 1862 00d4 0B       		.uleb128 0xb
 1863 00d5 3A       		.uleb128 0x3a
 1864 00d6 0B       		.uleb128 0xb
 1865 00d7 3B       		.uleb128 0x3b
 1866 00d8 05       		.uleb128 0x5
 1867 00d9 01       		.uleb128 0x1
 1868 00da 13       		.uleb128 0x13
 1869 00db 00       		.byte	0
 1870 00dc 00       		.byte	0
 1871 00dd 14       		.uleb128 0x14
 1872 00de 16       		.uleb128 0x16
 1873 00df 00       		.byte	0
 1874 00e0 03       		.uleb128 0x3
 1875 00e1 0E       		.uleb128 0xe
 1876 00e2 3A       		.uleb128 0x3a
 1877 00e3 0B       		.uleb128 0xb
 1878 00e4 3B       		.uleb128 0x3b
 1879 00e5 05       		.uleb128 0x5
 1880 00e6 49       		.uleb128 0x49
 1881 00e7 13       		.uleb128 0x13
ARM GAS  /tmp/cc6vtm71.s 			page 34


 1882 00e8 00       		.byte	0
 1883 00e9 00       		.byte	0
 1884 00ea 15       		.uleb128 0x15
 1885 00eb 13       		.uleb128 0x13
 1886 00ec 01       		.byte	0x1
 1887 00ed 0B       		.uleb128 0xb
 1888 00ee 0B       		.uleb128 0xb
 1889 00ef 3A       		.uleb128 0x3a
 1890 00f0 0B       		.uleb128 0xb
 1891 00f1 3B       		.uleb128 0x3b
 1892 00f2 0B       		.uleb128 0xb
 1893 00f3 01       		.uleb128 0x1
 1894 00f4 13       		.uleb128 0x13
 1895 00f5 00       		.byte	0
 1896 00f6 00       		.byte	0
 1897 00f7 16       		.uleb128 0x16
 1898 00f8 17       		.uleb128 0x17
 1899 00f9 01       		.byte	0x1
 1900 00fa 0B       		.uleb128 0xb
 1901 00fb 0B       		.uleb128 0xb
 1902 00fc 3A       		.uleb128 0x3a
 1903 00fd 0B       		.uleb128 0xb
 1904 00fe 3B       		.uleb128 0x3b
 1905 00ff 0B       		.uleb128 0xb
 1906 0100 01       		.uleb128 0x1
 1907 0101 13       		.uleb128 0x13
 1908 0102 00       		.byte	0
 1909 0103 00       		.byte	0
 1910 0104 17       		.uleb128 0x17
 1911 0105 0D       		.uleb128 0xd
 1912 0106 00       		.byte	0
 1913 0107 03       		.uleb128 0x3
 1914 0108 0E       		.uleb128 0xe
 1915 0109 3A       		.uleb128 0x3a
 1916 010a 0B       		.uleb128 0xb
 1917 010b 3B       		.uleb128 0x3b
 1918 010c 0B       		.uleb128 0xb
 1919 010d 49       		.uleb128 0x49
 1920 010e 13       		.uleb128 0x13
 1921 010f 00       		.byte	0
 1922 0110 00       		.byte	0
 1923 0111 18       		.uleb128 0x18
 1924 0112 0D       		.uleb128 0xd
 1925 0113 00       		.byte	0
 1926 0114 03       		.uleb128 0x3
 1927 0115 0E       		.uleb128 0xe
 1928 0116 3A       		.uleb128 0x3a
 1929 0117 0B       		.uleb128 0xb
 1930 0118 3B       		.uleb128 0x3b
 1931 0119 05       		.uleb128 0x5
 1932 011a 49       		.uleb128 0x49
 1933 011b 13       		.uleb128 0x13
 1934 011c 00       		.byte	0
 1935 011d 00       		.byte	0
 1936 011e 19       		.uleb128 0x19
 1937 011f 2E       		.uleb128 0x2e
 1938 0120 00       		.byte	0
ARM GAS  /tmp/cc6vtm71.s 			page 35


 1939 0121 03       		.uleb128 0x3
 1940 0122 0E       		.uleb128 0xe
 1941 0123 3A       		.uleb128 0x3a
 1942 0124 0B       		.uleb128 0xb
 1943 0125 3B       		.uleb128 0x3b
 1944 0126 05       		.uleb128 0x5
 1945 0127 27       		.uleb128 0x27
 1946 0128 19       		.uleb128 0x19
 1947 0129 49       		.uleb128 0x49
 1948 012a 13       		.uleb128 0x13
 1949 012b 20       		.uleb128 0x20
 1950 012c 0B       		.uleb128 0xb
 1951 012d 00       		.byte	0
 1952 012e 00       		.byte	0
 1953 012f 1A       		.uleb128 0x1a
 1954 0130 2E       		.uleb128 0x2e
 1955 0131 01       		.byte	0x1
 1956 0132 3F       		.uleb128 0x3f
 1957 0133 19       		.uleb128 0x19
 1958 0134 03       		.uleb128 0x3
 1959 0135 0E       		.uleb128 0xe
 1960 0136 3A       		.uleb128 0x3a
 1961 0137 0B       		.uleb128 0xb
 1962 0138 3B       		.uleb128 0x3b
 1963 0139 0B       		.uleb128 0xb
 1964 013a 27       		.uleb128 0x27
 1965 013b 19       		.uleb128 0x19
 1966 013c 11       		.uleb128 0x11
 1967 013d 01       		.uleb128 0x1
 1968 013e 12       		.uleb128 0x12
 1969 013f 06       		.uleb128 0x6
 1970 0140 40       		.uleb128 0x40
 1971 0141 18       		.uleb128 0x18
 1972 0142 9742     		.uleb128 0x2117
 1973 0144 19       		.uleb128 0x19
 1974 0145 01       		.uleb128 0x1
 1975 0146 13       		.uleb128 0x13
 1976 0147 00       		.byte	0
 1977 0148 00       		.byte	0
 1978 0149 1B       		.uleb128 0x1b
 1979 014a 05       		.uleb128 0x5
 1980 014b 00       		.byte	0
 1981 014c 03       		.uleb128 0x3
 1982 014d 08       		.uleb128 0x8
 1983 014e 3A       		.uleb128 0x3a
 1984 014f 0B       		.uleb128 0xb
 1985 0150 3B       		.uleb128 0x3b
 1986 0151 0B       		.uleb128 0xb
 1987 0152 49       		.uleb128 0x49
 1988 0153 13       		.uleb128 0x13
 1989 0154 02       		.uleb128 0x2
 1990 0155 18       		.uleb128 0x18
 1991 0156 00       		.byte	0
 1992 0157 00       		.byte	0
 1993 0158 1C       		.uleb128 0x1c
 1994 0159 1D       		.uleb128 0x1d
 1995 015a 00       		.byte	0
ARM GAS  /tmp/cc6vtm71.s 			page 36


 1996 015b 31       		.uleb128 0x31
 1997 015c 13       		.uleb128 0x13
 1998 015d 11       		.uleb128 0x11
 1999 015e 01       		.uleb128 0x1
 2000 015f 12       		.uleb128 0x12
 2001 0160 06       		.uleb128 0x6
 2002 0161 58       		.uleb128 0x58
 2003 0162 0B       		.uleb128 0xb
 2004 0163 59       		.uleb128 0x59
 2005 0164 0B       		.uleb128 0xb
 2006 0165 00       		.byte	0
 2007 0166 00       		.byte	0
 2008 0167 1D       		.uleb128 0x1d
 2009 0168 2E       		.uleb128 0x2e
 2010 0169 01       		.byte	0x1
 2011 016a 03       		.uleb128 0x3
 2012 016b 0E       		.uleb128 0xe
 2013 016c 3A       		.uleb128 0x3a
 2014 016d 0B       		.uleb128 0xb
 2015 016e 3B       		.uleb128 0x3b
 2016 016f 0B       		.uleb128 0xb
 2017 0170 27       		.uleb128 0x27
 2018 0171 19       		.uleb128 0x19
 2019 0172 20       		.uleb128 0x20
 2020 0173 0B       		.uleb128 0xb
 2021 0174 01       		.uleb128 0x1
 2022 0175 13       		.uleb128 0x13
 2023 0176 00       		.byte	0
 2024 0177 00       		.byte	0
 2025 0178 1E       		.uleb128 0x1e
 2026 0179 05       		.uleb128 0x5
 2027 017a 00       		.byte	0
 2028 017b 03       		.uleb128 0x3
 2029 017c 08       		.uleb128 0x8
 2030 017d 3A       		.uleb128 0x3a
 2031 017e 0B       		.uleb128 0xb
 2032 017f 3B       		.uleb128 0x3b
 2033 0180 0B       		.uleb128 0xb
 2034 0181 49       		.uleb128 0x49
 2035 0182 13       		.uleb128 0x13
 2036 0183 00       		.byte	0
 2037 0184 00       		.byte	0
 2038 0185 1F       		.uleb128 0x1f
 2039 0186 05       		.uleb128 0x5
 2040 0187 00       		.byte	0
 2041 0188 03       		.uleb128 0x3
 2042 0189 0E       		.uleb128 0xe
 2043 018a 3A       		.uleb128 0x3a
 2044 018b 0B       		.uleb128 0xb
 2045 018c 3B       		.uleb128 0x3b
 2046 018d 0B       		.uleb128 0xb
 2047 018e 49       		.uleb128 0x49
 2048 018f 13       		.uleb128 0x13
 2049 0190 00       		.byte	0
 2050 0191 00       		.byte	0
 2051 0192 20       		.uleb128 0x20
 2052 0193 1D       		.uleb128 0x1d
ARM GAS  /tmp/cc6vtm71.s 			page 37


 2053 0194 00       		.byte	0
 2054 0195 31       		.uleb128 0x31
 2055 0196 13       		.uleb128 0x13
 2056 0197 52       		.uleb128 0x52
 2057 0198 01       		.uleb128 0x1
 2058 0199 55       		.uleb128 0x55
 2059 019a 17       		.uleb128 0x17
 2060 019b 58       		.uleb128 0x58
 2061 019c 0B       		.uleb128 0xb
 2062 019d 59       		.uleb128 0x59
 2063 019e 0B       		.uleb128 0xb
 2064 019f 00       		.byte	0
 2065 01a0 00       		.byte	0
 2066 01a1 21       		.uleb128 0x21
 2067 01a2 1D       		.uleb128 0x1d
 2068 01a3 01       		.byte	0x1
 2069 01a4 31       		.uleb128 0x31
 2070 01a5 13       		.uleb128 0x13
 2071 01a6 52       		.uleb128 0x52
 2072 01a7 01       		.uleb128 0x1
 2073 01a8 55       		.uleb128 0x55
 2074 01a9 17       		.uleb128 0x17
 2075 01aa 58       		.uleb128 0x58
 2076 01ab 0B       		.uleb128 0xb
 2077 01ac 59       		.uleb128 0x59
 2078 01ad 0B       		.uleb128 0xb
 2079 01ae 00       		.byte	0
 2080 01af 00       		.byte	0
 2081 01b0 22       		.uleb128 0x22
 2082 01b1 05       		.uleb128 0x5
 2083 01b2 00       		.byte	0
 2084 01b3 31       		.uleb128 0x31
 2085 01b4 13       		.uleb128 0x13
 2086 01b5 02       		.uleb128 0x2
 2087 01b6 17       		.uleb128 0x17
 2088 01b7 00       		.byte	0
 2089 01b8 00       		.byte	0
 2090 01b9 23       		.uleb128 0x23
 2091 01ba 05       		.uleb128 0x5
 2092 01bb 00       		.byte	0
 2093 01bc 31       		.uleb128 0x31
 2094 01bd 13       		.uleb128 0x13
 2095 01be 02       		.uleb128 0x2
 2096 01bf 18       		.uleb128 0x18
 2097 01c0 00       		.byte	0
 2098 01c1 00       		.byte	0
 2099 01c2 24       		.uleb128 0x24
 2100 01c3 34       		.uleb128 0x34
 2101 01c4 00       		.byte	0
 2102 01c5 03       		.uleb128 0x3
 2103 01c6 08       		.uleb128 0x8
 2104 01c7 3A       		.uleb128 0x3a
 2105 01c8 0B       		.uleb128 0xb
 2106 01c9 3B       		.uleb128 0x3b
 2107 01ca 0B       		.uleb128 0xb
 2108 01cb 49       		.uleb128 0x49
 2109 01cc 13       		.uleb128 0x13
ARM GAS  /tmp/cc6vtm71.s 			page 38


 2110 01cd 02       		.uleb128 0x2
 2111 01ce 18       		.uleb128 0x18
 2112 01cf 00       		.byte	0
 2113 01d0 00       		.byte	0
 2114 01d1 25       		.uleb128 0x25
 2115 01d2 898201   		.uleb128 0x4109
 2116 01d5 01       		.byte	0x1
 2117 01d6 11       		.uleb128 0x11
 2118 01d7 01       		.uleb128 0x1
 2119 01d8 31       		.uleb128 0x31
 2120 01d9 13       		.uleb128 0x13
 2121 01da 01       		.uleb128 0x1
 2122 01db 13       		.uleb128 0x13
 2123 01dc 00       		.byte	0
 2124 01dd 00       		.byte	0
 2125 01de 26       		.uleb128 0x26
 2126 01df 8A8201   		.uleb128 0x410a
 2127 01e2 00       		.byte	0
 2128 01e3 02       		.uleb128 0x2
 2129 01e4 18       		.uleb128 0x18
 2130 01e5 9142     		.uleb128 0x2111
 2131 01e7 18       		.uleb128 0x18
 2132 01e8 00       		.byte	0
 2133 01e9 00       		.byte	0
 2134 01ea 27       		.uleb128 0x27
 2135 01eb 898201   		.uleb128 0x4109
 2136 01ee 01       		.byte	0x1
 2137 01ef 11       		.uleb128 0x11
 2138 01f0 01       		.uleb128 0x1
 2139 01f1 31       		.uleb128 0x31
 2140 01f2 13       		.uleb128 0x13
 2141 01f3 00       		.byte	0
 2142 01f4 00       		.byte	0
 2143 01f5 28       		.uleb128 0x28
 2144 01f6 05       		.uleb128 0x5
 2145 01f7 00       		.byte	0
 2146 01f8 03       		.uleb128 0x3
 2147 01f9 0E       		.uleb128 0xe
 2148 01fa 3A       		.uleb128 0x3a
 2149 01fb 0B       		.uleb128 0xb
 2150 01fc 3B       		.uleb128 0x3b
 2151 01fd 0B       		.uleb128 0xb
 2152 01fe 49       		.uleb128 0x49
 2153 01ff 13       		.uleb128 0x13
 2154 0200 02       		.uleb128 0x2
 2155 0201 18       		.uleb128 0x18
 2156 0202 00       		.byte	0
 2157 0203 00       		.byte	0
 2158 0204 29       		.uleb128 0x29
 2159 0205 05       		.uleb128 0x5
 2160 0206 00       		.byte	0
 2161 0207 31       		.uleb128 0x31
 2162 0208 13       		.uleb128 0x13
 2163 0209 1C       		.uleb128 0x1c
 2164 020a 0B       		.uleb128 0xb
 2165 020b 00       		.byte	0
 2166 020c 00       		.byte	0
ARM GAS  /tmp/cc6vtm71.s 			page 39


 2167 020d 2A       		.uleb128 0x2a
 2168 020e 34       		.uleb128 0x34
 2169 020f 00       		.byte	0
 2170 0210 03       		.uleb128 0x3
 2171 0211 0E       		.uleb128 0xe
 2172 0212 3A       		.uleb128 0x3a
 2173 0213 0B       		.uleb128 0xb
 2174 0214 3B       		.uleb128 0x3b
 2175 0215 05       		.uleb128 0x5
 2176 0216 49       		.uleb128 0x49
 2177 0217 13       		.uleb128 0x13
 2178 0218 3F       		.uleb128 0x3f
 2179 0219 19       		.uleb128 0x19
 2180 021a 3C       		.uleb128 0x3c
 2181 021b 19       		.uleb128 0x19
 2182 021c 00       		.byte	0
 2183 021d 00       		.byte	0
 2184 021e 2B       		.uleb128 0x2b
 2185 021f 34       		.uleb128 0x34
 2186 0220 00       		.byte	0
 2187 0221 03       		.uleb128 0x3
 2188 0222 08       		.uleb128 0x8
 2189 0223 3A       		.uleb128 0x3a
 2190 0224 0B       		.uleb128 0xb
 2191 0225 3B       		.uleb128 0x3b
 2192 0226 05       		.uleb128 0x5
 2193 0227 49       		.uleb128 0x49
 2194 0228 13       		.uleb128 0x13
 2195 0229 3F       		.uleb128 0x3f
 2196 022a 19       		.uleb128 0x19
 2197 022b 3C       		.uleb128 0x3c
 2198 022c 19       		.uleb128 0x19
 2199 022d 00       		.byte	0
 2200 022e 00       		.byte	0
 2201 022f 00       		.byte	0
 2202              		.section	.debug_loc,"",%progbits
 2203              	.Ldebug_loc0:
 2204              	.LLST0:
 2205 0000 0E000000 		.4byte	.LVL3
 2206 0004 18000000 		.4byte	.LVL4
 2207 0008 0100     		.2byte	0x1
 2208 000a 54       		.byte	0x54
 2209 000b 00000000 		.4byte	0
 2210 000f 00000000 		.4byte	0
 2211              	.LLST1:
 2212 0013 0E000000 		.4byte	.LVL3
 2213 0017 1A000000 		.4byte	.LVL5
 2214 001b 0100     		.2byte	0x1
 2215 001d 52       		.byte	0x52
 2216 001e 00000000 		.4byte	0
 2217 0022 00000000 		.4byte	0
 2218              	.LLST2:
 2219 0026 0C000000 		.4byte	.LVL10
 2220 002a 16000000 		.4byte	.LVL11
 2221 002e 0100     		.2byte	0x1
 2222 0030 53       		.byte	0x53
 2223 0031 16000000 		.4byte	.LVL11
ARM GAS  /tmp/cc6vtm71.s 			page 40


 2224 0035 1A000000 		.4byte	.LVL12
 2225 0039 0200     		.2byte	0x2
 2226 003b 71       		.byte	0x71
 2227 003c 08       		.sleb128 8
 2228 003d 00000000 		.4byte	0
 2229 0041 00000000 		.4byte	0
 2230              		.section	.debug_aranges,"",%progbits
 2231 0000 3C000000 		.4byte	0x3c
 2232 0004 0200     		.2byte	0x2
 2233 0006 00000000 		.4byte	.Ldebug_info0
 2234 000a 04       		.byte	0x4
 2235 000b 00       		.byte	0
 2236 000c 0000     		.2byte	0
 2237 000e 0000     		.2byte	0
 2238 0010 00000000 		.4byte	.LFB292
 2239 0014 18000000 		.4byte	.LFE292-.LFB292
 2240 0018 00000000 		.4byte	.LFB293
 2241 001c 0C000000 		.4byte	.LFE293-.LFB293
 2242 0020 00000000 		.4byte	.LFB294
 2243 0024 44000000 		.4byte	.LFE294-.LFB294
 2244 0028 00000000 		.4byte	.LFB291
 2245 002c 2C000000 		.4byte	.LFE291-.LFB291
 2246 0030 00000000 		.4byte	.LFB295
 2247 0034 38000000 		.4byte	.LFE295-.LFB295
 2248 0038 00000000 		.4byte	0
 2249 003c 00000000 		.4byte	0
 2250              		.section	.debug_ranges,"",%progbits
 2251              	.Ldebug_ranges0:
 2252 0000 00000000 		.4byte	.LBB14
 2253 0004 02000000 		.4byte	.LBE14
 2254 0008 04000000 		.4byte	.LBB20
 2255 000c 06000000 		.4byte	.LBE20
 2256 0010 00000000 		.4byte	0
 2257 0014 00000000 		.4byte	0
 2258 0018 02000000 		.4byte	.LBB17
 2259 001c 04000000 		.4byte	.LBE17
 2260 0020 0E000000 		.4byte	.LBB21
 2261 0024 44000000 		.4byte	.LBE21
 2262 0028 00000000 		.4byte	0
 2263 002c 00000000 		.4byte	0
 2264 0030 00000000 		.4byte	.LBB26
 2265 0034 02000000 		.4byte	.LBE26
 2266 0038 04000000 		.4byte	.LBB33
 2267 003c 06000000 		.4byte	.LBE33
 2268 0040 00000000 		.4byte	0
 2269 0044 00000000 		.4byte	0
 2270 0048 02000000 		.4byte	.LBB29
 2271 004c 04000000 		.4byte	.LBE29
 2272 0050 08000000 		.4byte	.LBB34
 2273 0054 0A000000 		.4byte	.LBE34
 2274 0058 0C000000 		.4byte	.LBB35
 2275 005c 38000000 		.4byte	.LBE35
 2276 0060 00000000 		.4byte	0
 2277 0064 00000000 		.4byte	0
 2278 0068 00000000 		.4byte	.LFB292
 2279 006c 18000000 		.4byte	.LFE292
 2280 0070 00000000 		.4byte	.LFB293
ARM GAS  /tmp/cc6vtm71.s 			page 41


 2281 0074 0C000000 		.4byte	.LFE293
 2282 0078 00000000 		.4byte	.LFB294
 2283 007c 44000000 		.4byte	.LFE294
 2284 0080 00000000 		.4byte	.LFB291
 2285 0084 2C000000 		.4byte	.LFE291
 2286 0088 00000000 		.4byte	.LFB295
 2287 008c 38000000 		.4byte	.LFE295
 2288 0090 00000000 		.4byte	0
 2289 0094 00000000 		.4byte	0
 2290              		.section	.debug_line,"",%progbits
 2291              	.Ldebug_line0:
 2292 0000 B3020000 		.section	.debug_str,"MS",%progbits,1
 2292      0200E501 
 2292      00000201 
 2292      FB0E0D00 
 2292      01010101 
 2293              	.LASF52:
 2294 0000 72656164 		.ascii	"ready_list_t\000"
 2294      795F6C69 
 2294      73745F74 
 2294      00
 2295              	.LASF118:
 2296 000d 77747472 		.ascii	"wttrp\000"
 2296      7000
 2297              	.LASF58:
 2298 0013 64656C74 		.ascii	"delta\000"
 2298      6100
 2299              	.LASF115:
 2300 0019 7264796D 		.ascii	"rdymsg\000"
 2300      736700
 2301              	.LASF16:
 2302 0020 75696E74 		.ascii	"uint64_t\000"
 2302      36345F74 
 2302      00
 2303              	.LASF71:
 2304 0029 6B65726E 		.ascii	"kernel_stats\000"
 2304      656C5F73 
 2304      74617473 
 2304      00
 2305              	.LASF138:
 2306 0036 2E2E2F2E 		.ascii	"../../modules/ChibiOS/os/rt/src/chtm.c\000"
 2306      2E2F6D6F 
 2306      64756C65 
 2306      732F4368 
 2306      6962694F 
 2307              	.LASF5:
 2308 005d 5F5F7569 		.ascii	"__uint8_t\000"
 2308      6E74385F 
 2308      7400
 2309              	.LASF51:
 2310 0067 70726576 		.ascii	"prev\000"
 2310      00
 2311              	.LASF102:
 2312 006c 706F7274 		.ascii	"port_intctx\000"
 2312      5F696E74 
 2312      63747800 
 2313              	.LASF50:
ARM GAS  /tmp/cc6vtm71.s 			page 42


 2314 0078 63685F74 		.ascii	"ch_threads_queue\000"
 2314      68726561 
 2314      64735F71 
 2314      75657565 
 2314      00
 2315              	.LASF63:
 2316 0089 73797374 		.ascii	"system_debug_t\000"
 2316      656D5F64 
 2316      65627567 
 2316      5F7400
 2317              	.LASF101:
 2318 0098 706F7274 		.ascii	"port_context\000"
 2318      5F636F6E 
 2318      74657874 
 2318      00
 2319              	.LASF106:
 2320 00a5 776F7273 		.ascii	"worst\000"
 2320      7400
 2321              	.LASF109:
 2322 00ab 74696D65 		.ascii	"time_measurement_t\000"
 2322      5F6D6561 
 2322      73757265 
 2322      6D656E74 
 2322      5F7400
 2323              	.LASF12:
 2324 00be 6C6F6E67 		.ascii	"long long unsigned int\000"
 2324      206C6F6E 
 2324      6720756E 
 2324      7369676E 
 2324      65642069 
 2325              	.LASF116:
 2326 00d5 65786974 		.ascii	"exitcode\000"
 2326      636F6465 
 2326      00
 2327              	.LASF70:
 2328 00de 6D61696E 		.ascii	"mainthread\000"
 2328      74687265 
 2328      616400
 2329              	.LASF141:
 2330 00e9 746D5F73 		.ascii	"tm_stop\000"
 2330      746F7000 
 2331              	.LASF60:
 2332 00f1 76697274 		.ascii	"virtual_timers_list_t\000"
 2332      75616C5F 
 2332      74696D65 
 2332      72735F6C 
 2332      6973745F 
 2333              	.LASF129:
 2334 0107 6368544D 		.ascii	"chTMObjectInit\000"
 2334      4F626A65 
 2334      6374496E 
 2334      697400
 2335              	.LASF48:
 2336 0116 6E657874 		.ascii	"next\000"
 2336      00
 2337              	.LASF18:
 2338 011b 72747469 		.ascii	"rttime_t\000"
ARM GAS  /tmp/cc6vtm71.s 			page 43


 2338      6D655F74 
 2338      00
 2339              	.LASF134:
 2340 0124 746D7031 		.ascii	"tmp1\000"
 2340      00
 2341              	.LASF135:
 2342 0129 746D7032 		.ascii	"tmp2\000"
 2342      00
 2343              	.LASF10:
 2344 012e 6C6F6E67 		.ascii	"long long int\000"
 2344      206C6F6E 
 2344      6720696E 
 2344      7400
 2345              	.LASF1:
 2346 013c 7369676E 		.ascii	"signed char\000"
 2346      65642063 
 2346      68617200 
 2347              	.LASF77:
 2348 0148 43504943 		.ascii	"CPICNT\000"
 2348      4E5400
 2349              	.LASF69:
 2350 014f 76746C69 		.ascii	"vtlist\000"
 2350      737400
 2351              	.LASF130:
 2352 0156 6368544D 		.ascii	"chTMStartMeasurementX\000"
 2352      53746172 
 2352      744D6561 
 2352      73757265 
 2352      6D656E74 
 2353              	.LASF34:
 2354 016c 73746174 		.ascii	"state\000"
 2354      6500
 2355              	.LASF131:
 2356 0172 6368544D 		.ascii	"chTMStopMeasurementX\000"
 2356      53746F70 
 2356      4D656173 
 2356      7572656D 
 2356      656E7458 
 2357              	.LASF7:
 2358 0187 6C6F6E67 		.ascii	"long int\000"
 2358      20696E74 
 2358      00
 2359              	.LASF20:
 2360 0190 74737461 		.ascii	"tstate_t\000"
 2360      74655F74 
 2360      00
 2361              	.LASF59:
 2362 0199 66756E63 		.ascii	"func\000"
 2362      00
 2363              	.LASF43:
 2364 019e 73746174 		.ascii	"stats\000"
 2364      7300
 2365              	.LASF79:
 2366 01a4 534C4545 		.ascii	"SLEEPCNT\000"
 2366      50434E54 
 2366      00
 2367              	.LASF8:
ARM GAS  /tmp/cc6vtm71.s 			page 44


 2368 01ad 5F5F7569 		.ascii	"__uint32_t\000"
 2368      6E743332 
 2368      5F7400
 2369              	.LASF99:
 2370 01b8 72656761 		.ascii	"regarm_t\000"
 2370      726D5F74 
 2370      00
 2371              	.LASF64:
 2372 01c1 63685F73 		.ascii	"ch_system_debug\000"
 2372      79737465 
 2372      6D5F6465 
 2372      62756700 
 2373              	.LASF37:
 2374 01d1 77616974 		.ascii	"waiting\000"
 2374      696E6700 
 2375              	.LASF127:
 2376 01d9 6D757465 		.ascii	"mutex_t\000"
 2376      785F7400 
 2377              	.LASF73:
 2378 01e1 73797369 		.ascii	"sysinterval_t\000"
 2378      6E746572 
 2378      76616C5F 
 2378      7400
 2379              	.LASF25:
 2380 01ef 636E745F 		.ascii	"cnt_t\000"
 2380      7400
 2381              	.LASF38:
 2382 01f5 6D736771 		.ascii	"msgqueue\000"
 2382      75657565 
 2382      00
 2383              	.LASF84:
 2384 01fe 4D41534B 		.ascii	"MASK0\000"
 2384      3000
 2385              	.LASF0:
 2386 0204 756E7369 		.ascii	"unsigned int\000"
 2386      676E6564 
 2386      20696E74 
 2386      00
 2387              	.LASF137:
 2388 0211 474E5520 		.ascii	"GNU C 4.9.3 20150529 (prerelease) -mcpu=cortex-m4 -"
 2388      4320342E 
 2388      392E3320 
 2388      32303135 
 2388      30353239 
 2389 0244 6D666C6F 		.ascii	"mfloat-abi=hard -mfpu=fpv4-sp-d16 -mno-thumb-interw"
 2389      61742D61 
 2389      62693D68 
 2389      61726420 
 2389      2D6D6670 
 2390 0277 6F726B20 		.ascii	"ork -mthumb -g -Os -fomit-frame-pointer -falign-fun"
 2390      2D6D7468 
 2390      756D6220 
 2390      2D67202D 
 2390      4F73202D 
 2391 02aa 6374696F 		.ascii	"ctions=16 -ffunction-sections -fdata-sections -fno-"
 2391      6E733D31 
 2391      36202D66 
ARM GAS  /tmp/cc6vtm71.s 			page 45


 2391      66756E63 
 2391      74696F6E 
 2392 02dd 636F6D6D 		.ascii	"common -fsingle-precision-constant\000"
 2392      6F6E202D 
 2392      6673696E 
 2392      676C652D 
 2392      70726563 
 2393              	.LASF92:
 2394 0300 4D41534B 		.ascii	"MASK2\000"
 2394      3200
 2395              	.LASF96:
 2396 0306 4D41534B 		.ascii	"MASK3\000"
 2396      3300
 2397              	.LASF120:
 2398 030c 77747365 		.ascii	"wtsemp\000"
 2398      6D7000
 2399              	.LASF132:
 2400 0313 5F746D5F 		.ascii	"_tm_init\000"
 2400      696E6974 
 2400      00
 2401              	.LASF110:
 2402 031c 6E5F6972 		.ascii	"n_irq\000"
 2402      7100
 2403              	.LASF28:
 2404 0322 71756575 		.ascii	"queue\000"
 2404      6500
 2405              	.LASF42:
 2406 0328 6D706F6F 		.ascii	"mpool\000"
 2406      6C00
 2407              	.LASF105:
 2408 032e 62657374 		.ascii	"best\000"
 2408      00
 2409              	.LASF4:
 2410 0333 73686F72 		.ascii	"short unsigned int\000"
 2410      7420756E 
 2410      7369676E 
 2410      65642069 
 2410      6E7400
 2411              	.LASF114:
 2412 0346 6B65726E 		.ascii	"kernel_stats_t\000"
 2412      656C5F73 
 2412      74617473 
 2412      5F7400
 2413              	.LASF32:
 2414 0355 6E616D65 		.ascii	"name\000"
 2414      00
 2415              	.LASF46:
 2416 035a 63685F74 		.ascii	"ch_thread\000"
 2416      68726561 
 2416      6400
 2417              	.LASF78:
 2418 0364 45584343 		.ascii	"EXCCNT\000"
 2418      4E5400
 2419              	.LASF23:
 2420 036b 6D73675F 		.ascii	"msg_t\000"
 2420      7400
 2421              	.LASF107:
ARM GAS  /tmp/cc6vtm71.s 			page 46


 2422 0371 6C617374 		.ascii	"last\000"
 2422      00
 2423              	.LASF26:
 2424 0376 75636E74 		.ascii	"ucnt_t\000"
 2424      5F7400
 2425              	.LASF39:
 2426 037d 6570656E 		.ascii	"epending\000"
 2426      64696E67 
 2426      00
 2427              	.LASF66:
 2428 0386 63685F73 		.ascii	"ch_system_t\000"
 2428      79737465 
 2428      6D5F7400 
 2429              	.LASF19:
 2430 0392 746D6F64 		.ascii	"tmode_t\000"
 2430      655F7400 
 2431              	.LASF113:
 2432 039a 6D5F6372 		.ascii	"m_crit_isr\000"
 2432      69745F69 
 2432      737200
 2433              	.LASF53:
 2434 03a5 63685F72 		.ascii	"ch_ready_list\000"
 2434      65616479 
 2434      5F6C6973 
 2434      7400
 2435              	.LASF24:
 2436 03b3 6576656E 		.ascii	"eventmask_t\000"
 2436      746D6173 
 2436      6B5F7400 
 2437              	.LASF6:
 2438 03bf 5F5F696E 		.ascii	"__int32_t\000"
 2438      7433325F 
 2438      7400
 2439              	.LASF133:
 2440 03c9 6368544D 		.ascii	"chTMChainMeasurementToX\000"
 2440      43686169 
 2440      6E4D6561 
 2440      73757265 
 2440      6D656E74 
 2441              	.LASF100:
 2442 03e1 73746B61 		.ascii	"stkalign_t\000"
 2442      6C69676E 
 2442      5F7400
 2443              	.LASF30:
 2444 03ec 6E657765 		.ascii	"newer\000"
 2444      7200
 2445              	.LASF76:
 2446 03f2 43594343 		.ascii	"CYCCNT\000"
 2446      4E5400
 2447              	.LASF41:
 2448 03f9 7265616C 		.ascii	"realprio\000"
 2448      7072696F 
 2448      00
 2449              	.LASF74:
 2450 0402 73697A65 		.ascii	"sizetype\000"
 2450      74797065 
 2450      00
ARM GAS  /tmp/cc6vtm71.s 			page 47


 2451              	.LASF44:
 2452 040b 74687265 		.ascii	"thread_reference_t\000"
 2452      61645F72 
 2452      65666572 
 2452      656E6365 
 2452      5F7400
 2453              	.LASF61:
 2454 041e 63685F76 		.ascii	"ch_virtual_timers_list\000"
 2454      69727475 
 2454      616C5F74 
 2454      696D6572 
 2454      735F6C69 
 2455              	.LASF104:
 2456 0435 746D5F63 		.ascii	"tm_calibration_t\000"
 2456      616C6962 
 2456      72617469 
 2456      6F6E5F74 
 2456      00
 2457              	.LASF83:
 2458 0446 434F4D50 		.ascii	"COMP0\000"
 2458      3000
 2459              	.LASF87:
 2460 044c 434F4D50 		.ascii	"COMP1\000"
 2460      3100
 2461              	.LASF91:
 2462 0452 434F4D50 		.ascii	"COMP2\000"
 2462      3200
 2463              	.LASF95:
 2464 0458 434F4D50 		.ascii	"COMP3\000"
 2464      3300
 2465              	.LASF29:
 2466 045e 7072696F 		.ascii	"prio\000"
 2466      00
 2467              	.LASF54:
 2468 0463 63757272 		.ascii	"current\000"
 2468      656E7400 
 2469              	.LASF11:
 2470 046b 5F5F7569 		.ascii	"__uint64_t\000"
 2470      6E743634 
 2470      5F7400
 2471              	.LASF108:
 2472 0476 63756D75 		.ascii	"cumulative\000"
 2472      6C617469 
 2472      766500
 2473              	.LASF21:
 2474 0481 74726566 		.ascii	"trefs_t\000"
 2474      735F7400 
 2475              	.LASF86:
 2476 0489 52455345 		.ascii	"RESERVED0\000"
 2476      52564544 
 2476      3000
 2477              	.LASF90:
 2478 0493 52455345 		.ascii	"RESERVED1\000"
 2478      52564544 
 2478      3100
 2479              	.LASF94:
 2480 049d 52455345 		.ascii	"RESERVED2\000"
ARM GAS  /tmp/cc6vtm71.s 			page 48


 2480      52564544 
 2480      3200
 2481              	.LASF36:
 2482 04a7 72656673 		.ascii	"refs\000"
 2482      00
 2483              	.LASF56:
 2484 04ac 76697274 		.ascii	"virtual_timer_t\000"
 2484      75616C5F 
 2484      74696D65 
 2484      725F7400 
 2485              	.LASF22:
 2486 04bc 74707269 		.ascii	"tprio_t\000"
 2486      6F5F7400 
 2487              	.LASF82:
 2488 04c4 50435352 		.ascii	"PCSR\000"
 2488      00
 2489              	.LASF111:
 2490 04c9 6E5F6374 		.ascii	"n_ctxswc\000"
 2490      78737763 
 2490      00
 2491              	.LASF88:
 2492 04d2 4D41534B 		.ascii	"MASK1\000"
 2492      3100
 2493              	.LASF14:
 2494 04d8 696E7433 		.ascii	"int32_t\000"
 2494      325F7400 
 2495              	.LASF2:
 2496 04e0 756E7369 		.ascii	"unsigned char\000"
 2496      676E6564 
 2496      20636861 
 2496      7200
 2497              	.LASF136:
 2498 04ee 49544D5F 		.ascii	"ITM_RxBuffer\000"
 2498      52784275 
 2498      66666572 
 2498      00
 2499              	.LASF85:
 2500 04fb 46554E43 		.ascii	"FUNCTION0\000"
 2500      54494F4E 
 2500      3000
 2501              	.LASF89:
 2502 0505 46554E43 		.ascii	"FUNCTION1\000"
 2502      54494F4E 
 2502      3100
 2503              	.LASF93:
 2504 050f 46554E43 		.ascii	"FUNCTION2\000"
 2504      54494F4E 
 2504      3200
 2505              	.LASF97:
 2506 0519 46554E43 		.ascii	"FUNCTION3\000"
 2506      54494F4E 
 2506      3300
 2507              	.LASF3:
 2508 0523 73686F72 		.ascii	"short int\000"
 2508      7420696E 
 2508      7400
 2509              	.LASF62:
ARM GAS  /tmp/cc6vtm71.s 			page 49


 2510 052d 6C617374 		.ascii	"lasttime\000"
 2510      74696D65 
 2510      00
 2511              	.LASF122:
 2512 0536 65776D61 		.ascii	"ewmask\000"
 2512      736B00
 2513              	.LASF67:
 2514 053d 63685F73 		.ascii	"ch_system\000"
 2514      79737465 
 2514      6D00
 2515              	.LASF57:
 2516 0547 63685F76 		.ascii	"ch_virtual_timer\000"
 2516      69727475 
 2516      616C5F74 
 2516      696D6572 
 2516      00
 2517              	.LASF123:
 2518 0558 63685F73 		.ascii	"ch_semaphore\000"
 2518      656D6170 
 2518      686F7265 
 2518      00
 2519              	.LASF80:
 2520 0565 4C535543 		.ascii	"LSUCNT\000"
 2520      4E5400
 2521              	.LASF15:
 2522 056c 75696E74 		.ascii	"uint32_t\000"
 2522      33325F74 
 2522      00
 2523              	.LASF121:
 2524 0575 77746D74 		.ascii	"wtmtxp\000"
 2524      787000
 2525              	.LASF47:
 2526 057c 63685F74 		.ascii	"ch_threads_list\000"
 2526      68726561 
 2526      64735F6C 
 2526      69737400 
 2527              	.LASF125:
 2528 058c 6F776E65 		.ascii	"owner\000"
 2528      7200
 2529              	.LASF128:
 2530 0592 5F426F6F 		.ascii	"_Bool\000"
 2530      6C00
 2531              	.LASF9:
 2532 0598 6C6F6E67 		.ascii	"long unsigned int\000"
 2532      20756E73 
 2532      69676E65 
 2532      6420696E 
 2532      7400
 2533              	.LASF33:
 2534 05aa 77616261 		.ascii	"wabase\000"
 2534      736500
 2535              	.LASF126:
 2536 05b1 63686172 		.ascii	"char\000"
 2536      00
 2537              	.LASF31:
 2538 05b6 6F6C6465 		.ascii	"older\000"
 2538      7200
ARM GAS  /tmp/cc6vtm71.s 			page 50


 2539              	.LASF27:
 2540 05bc 74687265 		.ascii	"thread_t\000"
 2540      61645F74 
 2540      00
 2541              	.LASF140:
 2542 05c5 706F7274 		.ascii	"port_rt_get_counter_value\000"
 2542      5F72745F 
 2542      6765745F 
 2542      636F756E 
 2542      7465725F 
 2543              	.LASF72:
 2544 05df 73797374 		.ascii	"systime_t\000"
 2544      696D655F 
 2544      7400
 2545              	.LASF55:
 2546 05e9 76746675 		.ascii	"vtfunc_t\000"
 2546      6E635F74 
 2546      00
 2547              	.LASF65:
 2548 05f2 70616E69 		.ascii	"panic_msg\000"
 2548      635F6D73 
 2548      6700
 2549              	.LASF103:
 2550 05fc 6F666673 		.ascii	"offset\000"
 2550      657400
 2551              	.LASF98:
 2552 0603 4457545F 		.ascii	"DWT_Type\000"
 2552      54797065 
 2552      00
 2553              	.LASF139:
 2554 060c 2F686F6D 		.ascii	"/home/kozinalexey/f4by/ardupilot/build/F4BY\000"
 2554      652F6B6F 
 2554      7A696E61 
 2554      6C657865 
 2554      792F6634 
 2555              	.LASF17:
 2556 0638 7274636E 		.ascii	"rtcnt_t\000"
 2556      745F7400 
 2557              	.LASF75:
 2558 0640 4354524C 		.ascii	"CTRL\000"
 2558      00
 2559              	.LASF49:
 2560 0645 74687265 		.ascii	"threads_queue_t\000"
 2560      6164735F 
 2560      71756575 
 2560      655F7400 
 2561              	.LASF124:
 2562 0655 63685F6D 		.ascii	"ch_mutex\000"
 2562      75746578 
 2562      00
 2563              	.LASF68:
 2564 065e 726C6973 		.ascii	"rlist\000"
 2564      7400
 2565              	.LASF13:
 2566 0664 75696E74 		.ascii	"uint8_t\000"
 2566      385F7400 
 2567              	.LASF35:
ARM GAS  /tmp/cc6vtm71.s 			page 51


 2568 066c 666C6167 		.ascii	"flags\000"
 2568      7300
 2569              	.LASF81:
 2570 0672 464F4C44 		.ascii	"FOLDCNT\000"
 2570      434E5400 
 2571              	.LASF117:
 2572 067a 77746F62 		.ascii	"wtobjp\000"
 2572      6A7000
 2573              	.LASF45:
 2574 0681 74687265 		.ascii	"threads_list_t\000"
 2574      6164735F 
 2574      6C697374 
 2574      5F7400
 2575              	.LASF40:
 2576 0690 6D74786C 		.ascii	"mtxlist\000"
 2576      69737400 
 2577              	.LASF119:
 2578 0698 73656E74 		.ascii	"sentmsg\000"
 2578      6D736700 
 2579              	.LASF112:
 2580 06a0 6D5F6372 		.ascii	"m_crit_thd\000"
 2580      69745F74 
 2580      686400
 2581              		.ident	"GCC: (15:4.9.3+svn231177-1) 4.9.3 20150529 (prerelease)"
ARM GAS  /tmp/cc6vtm71.s 			page 52


DEFINED SYMBOLS
                            *ABS*:0000000000000000 chtm.c
     /tmp/cc6vtm71.s:21     .text.chTMObjectInit:0000000000000000 $t
     /tmp/cc6vtm71.s:26     .text.chTMObjectInit:0000000000000000 chTMObjectInit
     /tmp/cc6vtm71.s:54     .text.chTMStartMeasurementX:0000000000000000 $t
     /tmp/cc6vtm71.s:59     .text.chTMStartMeasurementX:0000000000000000 chTMStartMeasurementX
     /tmp/cc6vtm71.s:81     .text.chTMStartMeasurementX:0000000000000008 $d
     /tmp/cc6vtm71.s:86     .text.chTMStopMeasurementX:0000000000000000 $t
     /tmp/cc6vtm71.s:91     .text.chTMStopMeasurementX:0000000000000000 chTMStopMeasurementX
     /tmp/cc6vtm71.s:166    .text.chTMStopMeasurementX:000000000000003c $d
     /tmp/cc6vtm71.s:174    .text._tm_init:0000000000000000 $t
     /tmp/cc6vtm71.s:179    .text._tm_init:0000000000000000 _tm_init
     /tmp/cc6vtm71.s:222    .text._tm_init:0000000000000028 $d
     /tmp/cc6vtm71.s:227    .text.chTMChainMeasurementToX:0000000000000000 $t
     /tmp/cc6vtm71.s:232    .text.chTMChainMeasurementToX:0000000000000000 chTMChainMeasurementToX
     /tmp/cc6vtm71.s:308    .text.chTMChainMeasurementToX:0000000000000034 $d
                     .debug_frame:0000000000000010 $d

UNDEFINED SYMBOLS
ch
