ARM GAS  /tmp/cc6JER7H.s 			page 1


   1              		.syntax unified
   2              		.cpu cortex-m4
   3              		.eabi_attribute 27, 1
   4              		.eabi_attribute 28, 1
   5              		.fpu fpv4-sp-d16
   6              		.eabi_attribute 20, 1
   7              		.eabi_attribute 21, 1
   8              		.eabi_attribute 23, 3
   9              		.eabi_attribute 24, 1
  10              		.eabi_attribute 25, 1
  11              		.eabi_attribute 26, 1
  12              		.eabi_attribute 30, 4
  13              		.eabi_attribute 34, 1
  14              		.eabi_attribute 18, 4
  15              		.thumb
  16              		.file	"chvt.c"
  17              		.text
  18              	.Ltext0:
  19              		.cfi_sections	.debug_frame
  20              		.section	.text._vt_init,"ax",%progbits
  21              		.align	1
  22              		.global	_vt_init
  23              		.thumb
  24              		.thumb_func
  25              		.type	_vt_init, %function
  26              	_vt_init:
  27              	.LFB290:
  28              		.file 1 "../../modules/ChibiOS/os/rt/src/chvt.c"
  29              		.loc 1 61 0
  30              		.cfi_startproc
  31              		@ args = 0, pretend = 0, frame = 0
  32              		@ frame_needed = 0, uses_anonymous_args = 0
  33              		@ link register save eliminated.
  34              		.loc 1 63 0
  35 0000 054B     		ldr	r3, .L2
  36 0002 03F11C02 		add	r2, r3, #28
  37 0006 DA61     		str	r2, [r3, #28]
  38              		.loc 1 64 0
  39 0008 1A62     		str	r2, [r3, #32]
  40              		.loc 1 65 0
  41 000a 4FF0FF32 		mov	r2, #-1
  42 000e 5A62     		str	r2, [r3, #36]
  43              		.loc 1 69 0
  44 0010 0022     		movs	r2, #0
  45 0012 9A62     		str	r2, [r3, #40]
  46 0014 7047     		bx	lr
  47              	.L3:
  48 0016 00BF     		.align	2
  49              	.L2:
  50 0018 00000000 		.word	ch
  51              		.cfi_endproc
  52              	.LFE290:
  53              		.size	_vt_init, .-_vt_init
  54              		.section	.text.chVTDoSetI,"ax",%progbits
  55              		.align	1
  56              		.global	chVTDoSetI
  57              		.thumb
ARM GAS  /tmp/cc6JER7H.s 			page 2


  58              		.thumb_func
  59              		.type	chVTDoSetI, %function
  60              	chVTDoSetI:
  61              	.LFB291:
  62              		.loc 1 96 0
  63              		.cfi_startproc
  64              		@ args = 0, pretend = 0, frame = 0
  65              		@ frame_needed = 0, uses_anonymous_args = 0
  66              	.LVL0:
  67 0000 F8B5     		push	{r3, r4, r5, r6, r7, lr}
  68              		.cfi_def_cfa_offset 24
  69              		.cfi_offset 3, -24
  70              		.cfi_offset 4, -20
  71              		.cfi_offset 5, -16
  72              		.cfi_offset 6, -12
  73              		.cfi_offset 7, -8
  74              		.cfi_offset 14, -4
  75              		.loc 1 103 0
  76 0002 0361     		str	r3, [r0, #16]
  77              	.LBB40:
  78              	.LBB41:
  79              	.LBB42:
  80              	.LBB43:
  81              	.LBB44:
  82              		.file 2 "../../modules/ChibiOS/os/hal/ports/STM32/LLD/TIMv1/hal_st_lld.h"
  83              		.loc 2 147 0
  84 0004 1A4B     		ldr	r3, .L12
  85              	.LVL1:
  86              	.LBE44:
  87              	.LBE43:
  88              	.LBE42:
  89              	.LBE41:
  90              	.LBE40:
  91              		.loc 1 104 0
  92 0006 C260     		str	r2, [r0, #12]
  93              	.LBB58:
  94              	.LBB48:
  95              	.LBB47:
  96              	.LBB46:
  97              	.LBB45:
  98              		.loc 2 147 0
  99 0008 5C6A     		ldr	r4, [r3, #36]
 100              	.LBE45:
 101              	.LBE46:
 102              	.LBE47:
 103              	.LBE48:
 104              		.loc 1 117 0
 105 000a 1A4B     		ldr	r3, .L12+4
 106 000c 1A46     		mov	r2, r3
 107              	.LVL2:
 108              		.loc 1 113 0
 109 000e 0129     		cmp	r1, #1
 110 0010 98BF     		it	ls
 111 0012 0221     		movls	r1, #2
 112              	.LVL3:
 113              		.loc 1 117 0
 114 0014 52F81C5F 		ldr	r5, [r2, #28]!
ARM GAS  /tmp/cc6JER7H.s 			page 3


 115 0018 9542     		cmp	r5, r2
 116              	.LBE58:
 117              		.loc 1 96 0
 118 001a 0646     		mov	r6, r0
 119 001c 1F46     		mov	r7, r3
 120              	.LBB59:
 121              		.loc 1 117 0
 122 001e 0AD1     		bne	.L6
 123              		.loc 1 122 0
 124 0020 D861     		str	r0, [r3, #28]
 125              		.loc 1 123 0
 126 0022 1862     		str	r0, [r3, #32]
 127              		.loc 1 121 0
 128 0024 9C62     		str	r4, [r3, #40]
 129              		.loc 1 124 0
 130 0026 0560     		str	r5, [r0]
 131              		.loc 1 125 0
 132 0028 4560     		str	r5, [r0, #4]
 133              		.loc 1 126 0
 134 002a 8160     		str	r1, [r0, #8]
 135              	.LVL4:
 136              	.LBB49:
 137              	.LBB50:
 138              		.file 3 "../../modules/ChibiOS/os/common/ports/ARMCMx/chcore_timer.h"
 139              		.loc 3 73 0
 140 002c 0819     		adds	r0, r1, r4
 141              	.LVL5:
 142              	.LBE50:
 143              	.LBE49:
 144              	.LBE59:
 145              		.loc 1 201 0
 146 002e BDE8F840 		pop	{r3, r4, r5, r6, r7, lr}
 147              		.cfi_remember_state
 148              		.cfi_restore 14
 149              		.cfi_restore 7
 150              		.cfi_restore 6
 151              		.cfi_restore 5
 152              		.cfi_restore 4
 153              		.cfi_restore 3
 154              		.cfi_def_cfa_offset 0
 155              	.LVL6:
 156              	.LBB60:
 157              	.LBB52:
 158              	.LBB51:
 159              		.loc 3 73 0
 160 0032 FFF7FEBF 		b	stStartAlarm
 161              	.LVL7:
 162              	.L6:
 163              		.cfi_restore_state
 164              	.LBE51:
 165              	.LBE52:
 166              		.loc 1 146 0
 167 0036 986A     		ldr	r0, [r3, #40]
 168              	.LVL8:
 169 0038 AB68     		ldr	r3, [r5, #8]
 170              	.LBB53:
 171              	.LBB54:
ARM GAS  /tmp/cc6JER7H.s 			page 4


 172              		.file 4 "../../modules/ChibiOS/os/rt/include/chtime.h"
 173              		.loc 4 514 0
 174 003a 241A     		subs	r4, r4, r0
 175              	.LVL9:
 176              	.LBE54:
 177              	.LBE53:
 178              		.loc 1 148 0
 179 003c 0C19     		adds	r4, r1, r4
 180              	.LVL10:
 181 003e 05D2     		bcs	.L10
 182              		.loc 1 155 0
 183 0040 9C42     		cmp	r4, r3
 184 0042 05D2     		bcs	.L8
 185              	.LVL11:
 186              	.LBB55:
 187              	.LBB56:
 188              	.LBB57:
 189              		.loc 3 95 0
 190 0044 2044     		add	r0, r0, r4
 191              	.LVL12:
 192 0046 FFF7FEFF 		bl	stSetAlarm
 193              	.LVL13:
 194 004a 01E0     		b	.L8
 195              	.LVL14:
 196              	.L10:
 197              	.LBE57:
 198              	.LBE56:
 199              	.LBE55:
 200              	.LBE60:
 201              		.loc 1 185 0
 202 004c 2D68     		ldr	r5, [r5]
 203              	.LVL15:
 204              		.loc 1 184 0
 205 004e E41A     		subs	r4, r4, r3
 206              	.LVL16:
 207              	.L8:
 208              		.loc 1 180 0
 209 0050 AB68     		ldr	r3, [r5, #8]
 210 0052 A342     		cmp	r3, r4
 211 0054 FAD3     		bcc	.L10
 212              		.loc 1 190 0
 213 0056 6B68     		ldr	r3, [r5, #4]
 214 0058 7360     		str	r3, [r6, #4]
 215              		.loc 1 189 0
 216 005a 3560     		str	r5, [r6]
 217              		.loc 1 191 0
 218 005c 1E60     		str	r6, [r3]
 219              		.loc 1 192 0
 220 005e 6E60     		str	r6, [r5, #4]
 221              		.loc 1 193 0
 222 0060 B460     		str	r4, [r6, #8]
 223              		.loc 1 196 0
 224 0062 A968     		ldr	r1, [r5, #8]
 225              		.loc 1 200 0
 226 0064 4FF0FF33 		mov	r3, #-1
 227              		.loc 1 196 0
 228 0068 091B     		subs	r1, r1, r4
ARM GAS  /tmp/cc6JER7H.s 			page 5


 229 006a A960     		str	r1, [r5, #8]
 230              		.loc 1 200 0
 231 006c 7B62     		str	r3, [r7, #36]
 232 006e F8BD     		pop	{r3, r4, r5, r6, r7, pc}
 233              	.LVL17:
 234              	.L13:
 235              		.align	2
 236              	.L12:
 237 0070 000C0040 		.word	1073744896
 238 0074 00000000 		.word	ch
 239              		.cfi_endproc
 240              	.LFE291:
 241              		.size	chVTDoSetI, .-chVTDoSetI
 242              		.section	.text.chVTDoResetI,"ax",%progbits
 243              		.align	1
 244              		.global	chVTDoResetI
 245              		.thumb
 246              		.thumb_func
 247              		.type	chVTDoResetI, %function
 248              	chVTDoResetI:
 249              	.LFB292:
 250              		.loc 1 211 0
 251              		.cfi_startproc
 252              		@ args = 0, pretend = 0, frame = 0
 253              		@ frame_needed = 0, uses_anonymous_args = 0
 254              	.LVL18:
 255 0000 10B5     		push	{r4, lr}
 256              		.cfi_def_cfa_offset 8
 257              		.cfi_offset 4, -8
 258              		.cfi_offset 14, -4
 259              		.loc 1 235 0
 260 0002 1A4C     		ldr	r4, .L21
 261 0004 2346     		mov	r3, r4
 262 0006 53F81C1F 		ldr	r1, [r3, #28]!
 263 000a 8142     		cmp	r1, r0
 264 000c 0ED0     		beq	.L15
 265              		.loc 1 237 0
 266 000e 4168     		ldr	r1, [r0, #4]
 267 0010 0268     		ldr	r2, [r0]
 268 0012 0A60     		str	r2, [r1]
 269              		.loc 1 238 0
 270 0014 0268     		ldr	r2, [r0]
 271 0016 5160     		str	r1, [r2, #4]
 272              		.loc 1 242 0
 273 0018 9A42     		cmp	r2, r3
 274              		.loc 1 239 0
 275 001a 4FF00001 		mov	r1, #0
 276 001e C160     		str	r1, [r0, #12]
 277              		.loc 1 242 0
 278 0020 22D0     		beq	.L14
 279              		.loc 1 243 0
 280 0022 9168     		ldr	r1, [r2, #8]
 281 0024 8368     		ldr	r3, [r0, #8]
 282 0026 0B44     		add	r3, r3, r1
 283 0028 9360     		str	r3, [r2, #8]
 284 002a 10BD     		pop	{r4, pc}
 285              	.L15:
ARM GAS  /tmp/cc6JER7H.s 			page 6


 286              		.loc 1 249 0
 287 002c 0A68     		ldr	r2, [r1]
 288 002e E261     		str	r2, [r4, #28]
 289              		.loc 1 251 0
 290 0030 0020     		movs	r0, #0
 291              	.LVL19:
 292              		.loc 1 254 0
 293 0032 9A42     		cmp	r2, r3
 294              		.loc 1 250 0
 295 0034 5360     		str	r3, [r2, #4]
 296              		.loc 1 251 0
 297 0036 C860     		str	r0, [r1, #12]
 298              		.loc 1 254 0
 299 0038 03D1     		bne	.L18
 300              		.loc 1 297 0
 301 003a BDE81040 		pop	{r4, lr}
 302              		.cfi_remember_state
 303              		.cfi_restore 14
 304              		.cfi_restore 4
 305              		.cfi_def_cfa_offset 0
 306              	.LBB61:
 307              	.LBB62:
 308              		.loc 3 83 0
 309 003e FFF7FEBF 		b	stStopAlarm
 310              	.LVL20:
 311              	.L18:
 312              		.cfi_restore_state
 313              	.LBE62:
 314              	.LBE61:
 315              		.loc 1 261 0
 316 0042 8868     		ldr	r0, [r1, #8]
 317 0044 9368     		ldr	r3, [r2, #8]
 318 0046 0344     		add	r3, r3, r0
 319 0048 9360     		str	r3, [r2, #8]
 320              	.LBB63:
 321              	.LBB64:
 322              	.LBB65:
 323              	.LBB66:
 324              		.loc 2 147 0
 325 004a 094A     		ldr	r2, .L21+4
 326              	.LBE66:
 327              	.LBE65:
 328              	.LBE64:
 329              	.LBE63:
 330              		.loc 1 270 0
 331 004c A06A     		ldr	r0, [r4, #40]
 332              	.LBB70:
 333              	.LBB69:
 334              	.LBB68:
 335              	.LBB67:
 336              		.loc 2 147 0
 337 004e 526A     		ldr	r2, [r2, #36]
 338              	.LVL21:
 339              	.LBE67:
 340              	.LBE68:
 341              	.LBE69:
 342              	.LBE70:
ARM GAS  /tmp/cc6JER7H.s 			page 7


 343              	.LBB71:
 344              	.LBB72:
 345              		.loc 4 514 0
 346 0050 121A     		subs	r2, r2, r0
 347              	.LVL22:
 348              	.LBE72:
 349              	.LBE71:
 350              		.loc 1 274 0
 351 0052 9A42     		cmp	r2, r3
 352 0054 08D2     		bcs	.L14
 353              	.LVL23:
 354              		.loc 1 279 0
 355 0056 991A     		subs	r1, r3, r2
 356              	.LVL24:
 357              		.loc 1 283 0
 358 0058 0129     		cmp	r1, #1
 359              		.loc 1 284 0
 360 005a 98BF     		it	ls
 361 005c 931C     		addls	r3, r2, #2
 362              	.LVL25:
 363              	.LBB73:
 364              	.LBB74:
 365              		.loc 3 95 0
 366 005e 1844     		add	r0, r0, r3
 367              	.LVL26:
 368              	.LBE74:
 369              	.LBE73:
 370              		.loc 1 297 0
 371 0060 BDE81040 		pop	{r4, lr}
 372              		.cfi_remember_state
 373              		.cfi_restore 14
 374              		.cfi_restore 4
 375              		.cfi_def_cfa_offset 0
 376              	.LVL27:
 377              	.LBB76:
 378              	.LBB75:
 379              		.loc 3 95 0
 380 0064 FFF7FEBF 		b	stSetAlarm
 381              	.LVL28:
 382              	.L14:
 383              		.cfi_restore_state
 384 0068 10BD     		pop	{r4, pc}
 385              	.L22:
 386 006a 00BF     		.align	2
 387              	.L21:
 388 006c 00000000 		.word	ch
 389 0070 000C0040 		.word	1073744896
 390              	.LBE75:
 391              	.LBE76:
 392              		.cfi_endproc
 393              	.LFE292:
 394              		.size	chVTDoResetI, .-chVTDoResetI
 395              		.text
 396              	.Letext0:
 397              		.file 5 "/usr/include/newlib/machine/_default_types.h"
 398              		.file 6 "/usr/include/newlib/sys/_stdint.h"
 399              		.file 7 "../../modules/ChibiOS/os/common/ports/ARMCMx/compilers/GCC/chtypes.h"
ARM GAS  /tmp/cc6JER7H.s 			page 8


 400              		.file 8 "../../modules/ChibiOS/os/rt/include/chsystypes.h"
 401              		.file 9 "../../modules/ChibiOS/os/rt/include/chschd.h"
 402              		.file 10 "../../modules/ChibiOS/os/common/ports/ARMCMx/chcore.h"
 403              		.file 11 "../../modules/ChibiOS/os/common/ports/ARMCMx/chcore_v7m.h"
 404              		.file 12 "../../modules/ChibiOS/os/hal/ports/STM32/LLD/TIMv1/stm32_tim.h"
 405              		.file 13 "../../modules/ChibiOS/os/rt/include/chtm.h"
 406              		.file 14 "../../modules/ChibiOS/os/rt/include/chstats.h"
 407              		.file 15 "../../modules/ChibiOS/os/rt/include/chsem.h"
 408              		.file 16 "../../modules/ChibiOS/os/rt/include/chmtx.h"
 409              		.file 17 "../../modules/ChibiOS/os/rt/include/chvt.h"
 410              		.file 18 "../../modules/ChibiOS/os/hal/include/hal_st.h"
 411              		.file 19 "../../modules/ChibiOS/os/common/ext/ARM/CMSIS/Core/Include/core_cm4.h"
 412              		.section	.debug_info,"",%progbits
 413              	.Ldebug_info0:
 414 0000 290C0000 		.4byte	0xc29
 415 0004 0400     		.2byte	0x4
 416 0006 00000000 		.4byte	.Ldebug_abbrev0
 417 000a 04       		.byte	0x4
 418 000b 01       		.uleb128 0x1
 419 000c E4010000 		.4byte	.LASF136
 420 0010 01       		.byte	0x1
 421 0011 08040000 		.4byte	.LASF137
 422 0015 E3050000 		.4byte	.LASF138
 423 0019 88000000 		.4byte	.Ldebug_ranges0+0x88
 424 001d 00000000 		.4byte	0
 425 0021 00000000 		.4byte	.Ldebug_line0
 426 0025 02       		.uleb128 0x2
 427 0026 04       		.byte	0x4
 428 0027 05       		.byte	0x5
 429 0028 696E7400 		.ascii	"int\000"
 430 002c 03       		.uleb128 0x3
 431 002d 04       		.byte	0x4
 432 002e 07       		.byte	0x7
 433 002f 7F050000 		.4byte	.LASF0
 434 0033 03       		.uleb128 0x3
 435 0034 01       		.byte	0x1
 436 0035 06       		.byte	0x6
 437 0036 32010000 		.4byte	.LASF1
 438 003a 04       		.uleb128 0x4
 439 003b 4C000000 		.4byte	.LASF5
 440 003f 05       		.byte	0x5
 441 0040 1D       		.byte	0x1d
 442 0041 45000000 		.4byte	0x45
 443 0045 03       		.uleb128 0x3
 444 0046 01       		.byte	0x1
 445 0047 08       		.byte	0x8
 446 0048 AA040000 		.4byte	.LASF2
 447 004c 03       		.uleb128 0x3
 448 004d 02       		.byte	0x2
 449 004e 05       		.byte	0x5
 450 004f BE040000 		.4byte	.LASF3
 451 0053 03       		.uleb128 0x3
 452 0054 02       		.byte	0x2
 453 0055 07       		.byte	0x7
 454 0056 D0050000 		.4byte	.LASF4
 455 005a 04       		.uleb128 0x4
 456 005b 93030000 		.4byte	.LASF6
ARM GAS  /tmp/cc6JER7H.s 			page 9


 457 005f 05       		.byte	0x5
 458 0060 3F       		.byte	0x3f
 459 0061 65000000 		.4byte	0x65
 460 0065 03       		.uleb128 0x3
 461 0066 04       		.byte	0x4
 462 0067 05       		.byte	0x5
 463 0068 54010000 		.4byte	.LASF7
 464 006c 04       		.uleb128 0x4
 465 006d 7A010000 		.4byte	.LASF8
 466 0071 05       		.byte	0x5
 467 0072 41       		.byte	0x41
 468 0073 77000000 		.4byte	0x77
 469 0077 03       		.uleb128 0x3
 470 0078 04       		.byte	0x4
 471 0079 07       		.byte	0x7
 472 007a 4F050000 		.4byte	.LASF9
 473 007e 03       		.uleb128 0x3
 474 007f 08       		.byte	0x8
 475 0080 05       		.byte	0x5
 476 0081 A6010000 		.4byte	.LASF10
 477 0085 04       		.uleb128 0x4
 478 0086 4C040000 		.4byte	.LASF11
 479 008a 05       		.byte	0x5
 480 008b 5B       		.byte	0x5b
 481 008c 90000000 		.4byte	0x90
 482 0090 03       		.uleb128 0x3
 483 0091 08       		.byte	0x8
 484 0092 07       		.byte	0x7
 485 0093 AC000000 		.4byte	.LASF12
 486 0097 04       		.uleb128 0x4
 487 0098 E2040000 		.4byte	.LASF13
 488 009c 06       		.byte	0x6
 489 009d 14       		.byte	0x14
 490 009e 3A000000 		.4byte	0x3a
 491 00a2 04       		.uleb128 0x4
 492 00a3 A2040000 		.4byte	.LASF14
 493 00a7 06       		.byte	0x6
 494 00a8 1F       		.byte	0x1f
 495 00a9 5A000000 		.4byte	0x5a
 496 00ad 04       		.uleb128 0x4
 497 00ae 29050000 		.4byte	.LASF15
 498 00b2 06       		.byte	0x6
 499 00b3 20       		.byte	0x20
 500 00b4 6C000000 		.4byte	0x6c
 501 00b8 04       		.uleb128 0x4
 502 00b9 2A000000 		.4byte	.LASF16
 503 00bd 06       		.byte	0x6
 504 00be 26       		.byte	0x26
 505 00bf 85000000 		.4byte	0x85
 506 00c3 04       		.uleb128 0x4
 507 00c4 23060000 		.4byte	.LASF17
 508 00c8 07       		.byte	0x7
 509 00c9 27       		.byte	0x27
 510 00ca AD000000 		.4byte	0xad
 511 00ce 04       		.uleb128 0x4
 512 00cf 14010000 		.4byte	.LASF18
 513 00d3 07       		.byte	0x7
ARM GAS  /tmp/cc6JER7H.s 			page 10


 514 00d4 28       		.byte	0x28
 515 00d5 B8000000 		.4byte	0xb8
 516 00d9 04       		.uleb128 0x4
 517 00da A3060000 		.4byte	.LASF19
 518 00de 07       		.byte	0x7
 519 00df 2A       		.byte	0x2a
 520 00e0 97000000 		.4byte	0x97
 521 00e4 04       		.uleb128 0x4
 522 00e5 5D010000 		.4byte	.LASF20
 523 00e9 07       		.byte	0x7
 524 00ea 2B       		.byte	0x2b
 525 00eb 97000000 		.4byte	0x97
 526 00ef 04       		.uleb128 0x4
 527 00f0 62040000 		.4byte	.LASF21
 528 00f4 07       		.byte	0x7
 529 00f5 2C       		.byte	0x2c
 530 00f6 97000000 		.4byte	0x97
 531 00fa 04       		.uleb128 0x4
 532 00fb 8B040000 		.4byte	.LASF22
 533 00ff 07       		.byte	0x7
 534 0100 2E       		.byte	0x2e
 535 0101 AD000000 		.4byte	0xad
 536 0105 04       		.uleb128 0x4
 537 0106 56000000 		.4byte	.LASF23
 538 010a 07       		.byte	0x7
 539 010b 2F       		.byte	0x2f
 540 010c A2000000 		.4byte	0xa2
 541 0110 04       		.uleb128 0x4
 542 0111 40000000 		.4byte	.LASF24
 543 0115 07       		.byte	0x7
 544 0116 31       		.byte	0x31
 545 0117 AD000000 		.4byte	0xad
 546 011b 04       		.uleb128 0x4
 547 011c C2010000 		.4byte	.LASF25
 548 0120 07       		.byte	0x7
 549 0121 33       		.byte	0x33
 550 0122 A2000000 		.4byte	0xa2
 551 0126 04       		.uleb128 0x4
 552 0127 3F030000 		.4byte	.LASF26
 553 012b 07       		.byte	0x7
 554 012c 34       		.byte	0x34
 555 012d AD000000 		.4byte	0xad
 556 0131 04       		.uleb128 0x4
 557 0132 91050000 		.4byte	.LASF27
 558 0136 08       		.byte	0x8
 559 0137 34       		.byte	0x34
 560 0138 3C010000 		.4byte	0x13c
 561 013c 05       		.uleb128 0x5
 562 013d 19030000 		.4byte	.LASF46
 563 0141 60       		.byte	0x60
 564 0142 09       		.byte	0x9
 565 0143 8E       		.byte	0x8e
 566 0144 27020000 		.4byte	0x227
 567 0148 06       		.uleb128 0x6
 568 0149 EF020000 		.4byte	.LASF28
 569 014d 09       		.byte	0x9
 570 014e 8F       		.byte	0x8f
ARM GAS  /tmp/cc6JER7H.s 			page 11


 571 014f 5C020000 		.4byte	0x25c
 572 0153 00       		.byte	0
 573 0154 06       		.uleb128 0x6
 574 0155 34040000 		.4byte	.LASF29
 575 0159 09       		.byte	0x9
 576 015a 90       		.byte	0x90
 577 015b FA000000 		.4byte	0xfa
 578 015f 08       		.byte	0x8
 579 0160 07       		.uleb128 0x7
 580 0161 63747800 		.ascii	"ctx\000"
 581 0165 09       		.byte	0x9
 582 0166 91       		.byte	0x91
 583 0167 9C040000 		.4byte	0x49c
 584 016b 0C       		.byte	0xc
 585 016c 06       		.uleb128 0x6
 586 016d A8030000 		.4byte	.LASF30
 587 0171 09       		.byte	0x9
 588 0172 93       		.byte	0x93
 589 0173 32020000 		.4byte	0x232
 590 0177 10       		.byte	0x10
 591 0178 06       		.uleb128 0x6
 592 0179 79050000 		.4byte	.LASF31
 593 017d 09       		.byte	0x9
 594 017e 94       		.byte	0x94
 595 017f 32020000 		.4byte	0x232
 596 0183 14       		.byte	0x14
 597 0184 06       		.uleb128 0x6
 598 0185 14030000 		.4byte	.LASF32
 599 0189 09       		.byte	0x9
 600 018a 9B       		.byte	0x9b
 601 018b A4080000 		.4byte	0x8a4
 602 018f 18       		.byte	0x18
 603 0190 06       		.uleb128 0x6
 604 0191 61050000 		.4byte	.LASF33
 605 0195 09       		.byte	0x9
 606 0196 A4       		.byte	0xa4
 607 0197 B6080000 		.4byte	0x8b6
 608 019b 1C       		.byte	0x1c
 609 019c 06       		.uleb128 0x6
 610 019d 4E010000 		.4byte	.LASF34
 611 01a1 09       		.byte	0x9
 612 01a2 A9       		.byte	0xa9
 613 01a3 E4000000 		.4byte	0xe4
 614 01a7 20       		.byte	0x20
 615 01a8 06       		.uleb128 0x6
 616 01a9 5C060000 		.4byte	.LASF35
 617 01ad 09       		.byte	0x9
 618 01ae AD       		.byte	0xad
 619 01af D9000000 		.4byte	0xd9
 620 01b3 21       		.byte	0x21
 621 01b4 06       		.uleb128 0x6
 622 01b5 6A040000 		.4byte	.LASF36
 623 01b9 09       		.byte	0x9
 624 01ba B2       		.byte	0xb2
 625 01bb EF000000 		.4byte	0xef
 626 01bf 22       		.byte	0x22
 627 01c0 08       		.uleb128 0x8
ARM GAS  /tmp/cc6JER7H.s 			page 12


 628 01c1 7500     		.ascii	"u\000"
 629 01c3 09       		.byte	0x9
 630 01c4 0301     		.2byte	0x103
 631 01c6 DA070000 		.4byte	0x7da
 632 01ca 24       		.byte	0x24
 633 01cb 09       		.uleb128 0x9
 634 01cc 9E010000 		.4byte	.LASF37
 635 01d0 09       		.byte	0x9
 636 01d1 0801     		.2byte	0x108
 637 01d3 38020000 		.4byte	0x238
 638 01d7 28       		.byte	0x28
 639 01d8 09       		.uleb128 0x9
 640 01d9 45010000 		.4byte	.LASF38
 641 01dd 09       		.byte	0x9
 642 01de 0E01     		.2byte	0x10e
 643 01e0 5C020000 		.4byte	0x25c
 644 01e4 2C       		.byte	0x2c
 645 01e5 09       		.uleb128 0x9
 646 01e6 46030000 		.4byte	.LASF39
 647 01ea 09       		.byte	0x9
 648 01eb 1401     		.2byte	0x114
 649 01ed 10010000 		.4byte	0x110
 650 01f1 34       		.byte	0x34
 651 01f2 09       		.uleb128 0x9
 652 01f3 B1060000 		.4byte	.LASF40
 653 01f7 09       		.byte	0x9
 654 01f8 1B01     		.2byte	0x11b
 655 01fa 9E080000 		.4byte	0x89e
 656 01fe 38       		.byte	0x38
 657 01ff 09       		.uleb128 0x9
 658 0200 AE030000 		.4byte	.LASF41
 659 0204 09       		.byte	0x9
 660 0205 1F01     		.2byte	0x11f
 661 0207 FA000000 		.4byte	0xfa
 662 020b 3C       		.byte	0x3c
 663 020c 09       		.uleb128 0x9
 664 020d F5020000 		.4byte	.LASF42
 665 0211 09       		.byte	0x9
 666 0212 2601     		.2byte	0x126
 667 0214 0F030000 		.4byte	0x30f
 668 0218 40       		.byte	0x40
 669 0219 09       		.uleb128 0x9
 670 021a 6B010000 		.4byte	.LASF43
 671 021e 09       		.byte	0x9
 672 021f 2C01     		.2byte	0x12c
 673 0221 8B070000 		.4byte	0x78b
 674 0225 48       		.byte	0x48
 675 0226 00       		.byte	0
 676 0227 04       		.uleb128 0x4
 677 0228 C0030000 		.4byte	.LASF44
 678 022c 08       		.byte	0x8
 679 022d 39       		.byte	0x39
 680 022e 32020000 		.4byte	0x232
 681 0232 0A       		.uleb128 0xa
 682 0233 04       		.byte	0x4
 683 0234 31010000 		.4byte	0x131
 684 0238 04       		.uleb128 0x4
ARM GAS  /tmp/cc6JER7H.s 			page 13


 685 0239 94060000 		.4byte	.LASF45
 686 023d 08       		.byte	0x8
 687 023e 3E       		.byte	0x3e
 688 023f 43020000 		.4byte	0x243
 689 0243 05       		.uleb128 0x5
 690 0244 39050000 		.4byte	.LASF47
 691 0248 04       		.byte	0x4
 692 0249 09       		.byte	0x9
 693 024a 7C       		.byte	0x7c
 694 024b 5C020000 		.4byte	0x25c
 695 024f 06       		.uleb128 0x6
 696 0250 18000000 		.4byte	.LASF48
 697 0254 09       		.byte	0x9
 698 0255 7D       		.byte	0x7d
 699 0256 32020000 		.4byte	0x232
 700 025a 00       		.byte	0
 701 025b 00       		.byte	0
 702 025c 04       		.uleb128 0x4
 703 025d 32060000 		.4byte	.LASF49
 704 0261 08       		.byte	0x8
 705 0262 45       		.byte	0x45
 706 0263 67020000 		.4byte	0x267
 707 0267 05       		.uleb128 0x5
 708 0268 6D000000 		.4byte	.LASF50
 709 026c 08       		.byte	0x8
 710 026d 09       		.byte	0x9
 711 026e 83       		.byte	0x83
 712 026f 8C020000 		.4byte	0x28c
 713 0273 06       		.uleb128 0x6
 714 0274 18000000 		.4byte	.LASF48
 715 0278 09       		.byte	0x9
 716 0279 84       		.byte	0x84
 717 027a 32020000 		.4byte	0x232
 718 027e 00       		.byte	0
 719 027f 06       		.uleb128 0x6
 720 0280 5C000000 		.4byte	.LASF51
 721 0284 09       		.byte	0x9
 722 0285 85       		.byte	0x85
 723 0286 32020000 		.4byte	0x232
 724 028a 04       		.byte	0x4
 725 028b 00       		.byte	0
 726 028c 04       		.uleb128 0x4
 727 028d 00000000 		.4byte	.LASF52
 728 0291 08       		.byte	0x8
 729 0292 4C       		.byte	0x4c
 730 0293 97020000 		.4byte	0x297
 731 0297 0B       		.uleb128 0xb
 732 0298 7A030000 		.4byte	.LASF53
 733 029c 1C       		.byte	0x1c
 734 029d 09       		.byte	0x9
 735 029e 5E01     		.2byte	0x15e
 736 02a0 F3020000 		.4byte	0x2f3
 737 02a4 09       		.uleb128 0x9
 738 02a5 EF020000 		.4byte	.LASF28
 739 02a9 09       		.byte	0x9
 740 02aa 5F01     		.2byte	0x15f
 741 02ac 5C020000 		.4byte	0x25c
ARM GAS  /tmp/cc6JER7H.s 			page 14


 742 02b0 00       		.byte	0
 743 02b1 09       		.uleb128 0x9
 744 02b2 34040000 		.4byte	.LASF29
 745 02b6 09       		.byte	0x9
 746 02b7 6001     		.2byte	0x160
 747 02b9 FA000000 		.4byte	0xfa
 748 02bd 08       		.byte	0x8
 749 02be 08       		.uleb128 0x8
 750 02bf 63747800 		.ascii	"ctx\000"
 751 02c3 09       		.byte	0x9
 752 02c4 6201     		.2byte	0x162
 753 02c6 9C040000 		.4byte	0x49c
 754 02ca 0C       		.byte	0xc
 755 02cb 09       		.uleb128 0x9
 756 02cc A8030000 		.4byte	.LASF30
 757 02d0 09       		.byte	0x9
 758 02d1 6501     		.2byte	0x165
 759 02d3 32020000 		.4byte	0x232
 760 02d7 10       		.byte	0x10
 761 02d8 09       		.uleb128 0x9
 762 02d9 79050000 		.4byte	.LASF31
 763 02dd 09       		.byte	0x9
 764 02de 6601     		.2byte	0x166
 765 02e0 32020000 		.4byte	0x232
 766 02e4 14       		.byte	0x14
 767 02e5 09       		.uleb128 0x9
 768 02e6 39040000 		.4byte	.LASF54
 769 02ea 09       		.byte	0x9
 770 02eb 6901     		.2byte	0x169
 771 02ed 32020000 		.4byte	0x232
 772 02f1 18       		.byte	0x18
 773 02f2 00       		.byte	0
 774 02f3 04       		.uleb128 0x4
 775 02f4 A9050000 		.4byte	.LASF55
 776 02f8 08       		.byte	0x8
 777 02f9 51       		.byte	0x51
 778 02fa FE020000 		.4byte	0x2fe
 779 02fe 0A       		.uleb128 0xa
 780 02ff 04       		.byte	0x4
 781 0300 04030000 		.4byte	0x304
 782 0304 0C       		.uleb128 0xc
 783 0305 0F030000 		.4byte	0x30f
 784 0309 0D       		.uleb128 0xd
 785 030a 0F030000 		.4byte	0x30f
 786 030e 00       		.byte	0
 787 030f 0E       		.uleb128 0xe
 788 0310 04       		.byte	0x4
 789 0311 04       		.uleb128 0x4
 790 0312 6F040000 		.4byte	.LASF56
 791 0316 08       		.byte	0x8
 792 0317 56       		.byte	0x56
 793 0318 1C030000 		.4byte	0x31c
 794 031c 0B       		.uleb128 0xb
 795 031d F3040000 		.4byte	.LASF57
 796 0321 14       		.byte	0x14
 797 0322 09       		.byte	0x9
 798 0323 3901     		.2byte	0x139
ARM GAS  /tmp/cc6JER7H.s 			page 15


 799 0325 6B030000 		.4byte	0x36b
 800 0329 09       		.uleb128 0x9
 801 032a 18000000 		.4byte	.LASF48
 802 032e 09       		.byte	0x9
 803 032f 3A01     		.2byte	0x13a
 804 0331 BC080000 		.4byte	0x8bc
 805 0335 00       		.byte	0
 806 0336 09       		.uleb128 0x9
 807 0337 5C000000 		.4byte	.LASF51
 808 033b 09       		.byte	0x9
 809 033c 3B01     		.2byte	0x13b
 810 033e BC080000 		.4byte	0x8bc
 811 0342 04       		.byte	0x4
 812 0343 09       		.uleb128 0x9
 813 0344 1D000000 		.4byte	.LASF58
 814 0348 09       		.byte	0x9
 815 0349 3C01     		.2byte	0x13c
 816 034b 4F040000 		.4byte	0x44f
 817 034f 08       		.byte	0x8
 818 0350 09       		.uleb128 0x9
 819 0351 66010000 		.4byte	.LASF59
 820 0355 09       		.byte	0x9
 821 0356 3D01     		.2byte	0x13d
 822 0358 F3020000 		.4byte	0x2f3
 823 035c 0C       		.byte	0xc
 824 035d 08       		.uleb128 0x8
 825 035e 70617200 		.ascii	"par\000"
 826 0362 09       		.byte	0x9
 827 0363 3F01     		.2byte	0x13f
 828 0365 0F030000 		.4byte	0x30f
 829 0369 10       		.byte	0x10
 830 036a 00       		.byte	0
 831 036b 04       		.uleb128 0x4
 832 036c EC000000 		.4byte	.LASF60
 833 0370 08       		.byte	0x8
 834 0371 5B       		.byte	0x5b
 835 0372 76030000 		.4byte	0x376
 836 0376 0B       		.uleb128 0xb
 837 0377 D3030000 		.4byte	.LASF61
 838 037b 10       		.byte	0x10
 839 037c 09       		.byte	0x9
 840 037d 4901     		.2byte	0x149
 841 037f B8030000 		.4byte	0x3b8
 842 0383 09       		.uleb128 0x9
 843 0384 18000000 		.4byte	.LASF48
 844 0388 09       		.byte	0x9
 845 0389 4A01     		.2byte	0x14a
 846 038b BC080000 		.4byte	0x8bc
 847 038f 00       		.byte	0
 848 0390 09       		.uleb128 0x9
 849 0391 5C000000 		.4byte	.LASF51
 850 0395 09       		.byte	0x9
 851 0396 4C01     		.2byte	0x14c
 852 0398 BC080000 		.4byte	0x8bc
 853 039c 04       		.byte	0x4
 854 039d 09       		.uleb128 0x9
 855 039e 1D000000 		.4byte	.LASF58
ARM GAS  /tmp/cc6JER7H.s 			page 16


 856 03a2 09       		.byte	0x9
 857 03a3 4E01     		.2byte	0x14e
 858 03a5 4F040000 		.4byte	0x44f
 859 03a9 08       		.byte	0x8
 860 03aa 09       		.uleb128 0x9
 861 03ab C8040000 		.4byte	.LASF62
 862 03af 09       		.byte	0x9
 863 03b0 5601     		.2byte	0x156
 864 03b2 44040000 		.4byte	0x444
 865 03b6 0C       		.byte	0xc
 866 03b7 00       		.byte	0
 867 03b8 04       		.uleb128 0x4
 868 03b9 7E000000 		.4byte	.LASF63
 869 03bd 08       		.byte	0x8
 870 03be 60       		.byte	0x60
 871 03bf C3030000 		.4byte	0x3c3
 872 03c3 0B       		.uleb128 0xb
 873 03c4 8E010000 		.4byte	.LASF64
 874 03c8 04       		.byte	0x4
 875 03c9 09       		.byte	0x9
 876 03ca 7001     		.2byte	0x170
 877 03cc DE030000 		.4byte	0x3de
 878 03d0 09       		.uleb128 0x9
 879 03d1 B2050000 		.4byte	.LASF65
 880 03d5 09       		.byte	0x9
 881 03d6 7801     		.2byte	0x178
 882 03d8 C2080000 		.4byte	0x8c2
 883 03dc 00       		.byte	0
 884 03dd 00       		.byte	0
 885 03de 04       		.uleb128 0x4
 886 03df 4F030000 		.4byte	.LASF66
 887 03e3 08       		.byte	0x8
 888 03e4 65       		.byte	0x65
 889 03e5 E9030000 		.4byte	0x3e9
 890 03e9 0B       		.uleb128 0xb
 891 03ea D8040000 		.4byte	.LASF67
 892 03ee D0       		.byte	0xd0
 893 03ef 09       		.byte	0x9
 894 03f0 9001     		.2byte	0x190
 895 03f2 44040000 		.4byte	0x444
 896 03f6 09       		.uleb128 0x9
 897 03f7 4B060000 		.4byte	.LASF68
 898 03fb 09       		.byte	0x9
 899 03fc 9401     		.2byte	0x194
 900 03fe 8C020000 		.4byte	0x28c
 901 0402 00       		.byte	0
 902 0403 09       		.uleb128 0x9
 903 0404 3E010000 		.4byte	.LASF69
 904 0408 09       		.byte	0x9
 905 0409 9801     		.2byte	0x198
 906 040b 6B030000 		.4byte	0x36b
 907 040f 1C       		.byte	0x1c
 908 0410 08       		.uleb128 0x8
 909 0411 64626700 		.ascii	"dbg\000"
 910 0415 09       		.byte	0x9
 911 0416 9C01     		.2byte	0x19c
 912 0418 B8030000 		.4byte	0x3b8
ARM GAS  /tmp/cc6JER7H.s 			page 17


 913 041c 2C       		.byte	0x2c
 914 041d 09       		.uleb128 0x9
 915 041e D9000000 		.4byte	.LASF70
 916 0422 09       		.byte	0x9
 917 0423 A001     		.2byte	0x1a0
 918 0425 31010000 		.4byte	0x131
 919 0429 30       		.byte	0x30
 920 042a 08       		.uleb128 0x8
 921 042b 746D00   		.ascii	"tm\000"
 922 042e 09       		.byte	0x9
 923 042f A501     		.2byte	0x1a5
 924 0431 3D070000 		.4byte	0x73d
 925 0435 90       		.byte	0x90
 926 0436 09       		.uleb128 0x9
 927 0437 33000000 		.4byte	.LASF71
 928 043b 09       		.byte	0x9
 929 043c AB01     		.2byte	0x1ab
 930 043e CF070000 		.4byte	0x7cf
 931 0442 98       		.byte	0x98
 932 0443 00       		.byte	0
 933 0444 04       		.uleb128 0x4
 934 0445 9F050000 		.4byte	.LASF72
 935 0449 04       		.byte	0x4
 936 044a 6D       		.byte	0x6d
 937 044b AD000000 		.4byte	0xad
 938 044f 04       		.uleb128 0x4
 939 0450 B4010000 		.4byte	.LASF73
 940 0454 04       		.byte	0x4
 941 0455 79       		.byte	0x79
 942 0456 AD000000 		.4byte	0xad
 943 045a 03       		.uleb128 0x3
 944 045b 04       		.byte	0x4
 945 045c 07       		.byte	0x7
 946 045d B7030000 		.4byte	.LASF74
 947 0461 0F       		.uleb128 0xf
 948 0462 AD000000 		.4byte	0xad
 949 0466 10       		.uleb128 0x10
 950 0467 AD000000 		.4byte	0xad
 951 046b 76040000 		.4byte	0x476
 952 046f 11       		.uleb128 0x11
 953 0470 5A040000 		.4byte	0x45a
 954 0474 01       		.byte	0x1
 955 0475 00       		.byte	0
 956 0476 10       		.uleb128 0x10
 957 0477 AD000000 		.4byte	0xad
 958 047b 86040000 		.4byte	0x486
 959 047f 11       		.uleb128 0x11
 960 0480 5A040000 		.4byte	0x45a
 961 0484 03       		.byte	0x3
 962 0485 00       		.byte	0
 963 0486 04       		.uleb128 0x4
 964 0487 85010000 		.4byte	.LASF75
 965 048b 0A       		.byte	0xa
 966 048c 65       		.byte	0x65
 967 048d 0F030000 		.4byte	0x30f
 968 0491 04       		.uleb128 0x4
 969 0492 9D030000 		.4byte	.LASF76
ARM GAS  /tmp/cc6JER7H.s 			page 18


 970 0496 0A       		.byte	0xa
 971 0497 6D       		.byte	0x6d
 972 0498 B8000000 		.4byte	0xb8
 973 049c 05       		.uleb128 0x5
 974 049d EA030000 		.4byte	.LASF77
 975 04a1 04       		.byte	0x4
 976 04a2 0A       		.byte	0xa
 977 04a3 89       		.byte	0x89
 978 04a4 B4040000 		.4byte	0x4b4
 979 04a8 07       		.uleb128 0x7
 980 04a9 737000   		.ascii	"sp\000"
 981 04ac 0A       		.byte	0xa
 982 04ad 8A       		.byte	0x8a
 983 04ae 00060000 		.4byte	0x600
 984 04b2 00       		.byte	0
 985 04b3 00       		.byte	0
 986 04b4 0B       		.uleb128 0xb
 987 04b5 61000000 		.4byte	.LASF78
 988 04b9 64       		.byte	0x64
 989 04ba 0B       		.byte	0xb
 990 04bb 5901     		.2byte	0x159
 991 04bd 00060000 		.4byte	0x600
 992 04c1 08       		.uleb128 0x8
 993 04c2 73313600 		.ascii	"s16\000"
 994 04c6 0B       		.byte	0xb
 995 04c7 5B01     		.2byte	0x15b
 996 04c9 86040000 		.4byte	0x486
 997 04cd 00       		.byte	0
 998 04ce 08       		.uleb128 0x8
 999 04cf 73313700 		.ascii	"s17\000"
 1000 04d3 0B       		.byte	0xb
 1001 04d4 5C01     		.2byte	0x15c
 1002 04d6 86040000 		.4byte	0x486
 1003 04da 04       		.byte	0x4
 1004 04db 08       		.uleb128 0x8
 1005 04dc 73313800 		.ascii	"s18\000"
 1006 04e0 0B       		.byte	0xb
 1007 04e1 5D01     		.2byte	0x15d
 1008 04e3 86040000 		.4byte	0x486
 1009 04e7 08       		.byte	0x8
 1010 04e8 08       		.uleb128 0x8
 1011 04e9 73313900 		.ascii	"s19\000"
 1012 04ed 0B       		.byte	0xb
 1013 04ee 5E01     		.2byte	0x15e
 1014 04f0 86040000 		.4byte	0x486
 1015 04f4 0C       		.byte	0xc
 1016 04f5 08       		.uleb128 0x8
 1017 04f6 73323000 		.ascii	"s20\000"
 1018 04fa 0B       		.byte	0xb
 1019 04fb 5F01     		.2byte	0x15f
 1020 04fd 86040000 		.4byte	0x486
 1021 0501 10       		.byte	0x10
 1022 0502 08       		.uleb128 0x8
 1023 0503 73323100 		.ascii	"s21\000"
 1024 0507 0B       		.byte	0xb
 1025 0508 6001     		.2byte	0x160
 1026 050a 86040000 		.4byte	0x486
ARM GAS  /tmp/cc6JER7H.s 			page 19


 1027 050e 14       		.byte	0x14
 1028 050f 08       		.uleb128 0x8
 1029 0510 73323200 		.ascii	"s22\000"
 1030 0514 0B       		.byte	0xb
 1031 0515 6101     		.2byte	0x161
 1032 0517 86040000 		.4byte	0x486
 1033 051b 18       		.byte	0x18
 1034 051c 08       		.uleb128 0x8
 1035 051d 73323300 		.ascii	"s23\000"
 1036 0521 0B       		.byte	0xb
 1037 0522 6201     		.2byte	0x162
 1038 0524 86040000 		.4byte	0x486
 1039 0528 1C       		.byte	0x1c
 1040 0529 08       		.uleb128 0x8
 1041 052a 73323400 		.ascii	"s24\000"
 1042 052e 0B       		.byte	0xb
 1043 052f 6301     		.2byte	0x163
 1044 0531 86040000 		.4byte	0x486
 1045 0535 20       		.byte	0x20
 1046 0536 08       		.uleb128 0x8
 1047 0537 73323500 		.ascii	"s25\000"
 1048 053b 0B       		.byte	0xb
 1049 053c 6401     		.2byte	0x164
 1050 053e 86040000 		.4byte	0x486
 1051 0542 24       		.byte	0x24
 1052 0543 08       		.uleb128 0x8
 1053 0544 73323600 		.ascii	"s26\000"
 1054 0548 0B       		.byte	0xb
 1055 0549 6501     		.2byte	0x165
 1056 054b 86040000 		.4byte	0x486
 1057 054f 28       		.byte	0x28
 1058 0550 08       		.uleb128 0x8
 1059 0551 73323700 		.ascii	"s27\000"
 1060 0555 0B       		.byte	0xb
 1061 0556 6601     		.2byte	0x166
 1062 0558 86040000 		.4byte	0x486
 1063 055c 2C       		.byte	0x2c
 1064 055d 08       		.uleb128 0x8
 1065 055e 73323800 		.ascii	"s28\000"
 1066 0562 0B       		.byte	0xb
 1067 0563 6701     		.2byte	0x167
 1068 0565 86040000 		.4byte	0x486
 1069 0569 30       		.byte	0x30
 1070 056a 08       		.uleb128 0x8
 1071 056b 73323900 		.ascii	"s29\000"
 1072 056f 0B       		.byte	0xb
 1073 0570 6801     		.2byte	0x168
 1074 0572 86040000 		.4byte	0x486
 1075 0576 34       		.byte	0x34
 1076 0577 08       		.uleb128 0x8
 1077 0578 73333000 		.ascii	"s30\000"
 1078 057c 0B       		.byte	0xb
 1079 057d 6901     		.2byte	0x169
 1080 057f 86040000 		.4byte	0x486
 1081 0583 38       		.byte	0x38
 1082 0584 08       		.uleb128 0x8
 1083 0585 73333100 		.ascii	"s31\000"
ARM GAS  /tmp/cc6JER7H.s 			page 20


 1084 0589 0B       		.byte	0xb
 1085 058a 6A01     		.2byte	0x16a
 1086 058c 86040000 		.4byte	0x486
 1087 0590 3C       		.byte	0x3c
 1088 0591 08       		.uleb128 0x8
 1089 0592 723400   		.ascii	"r4\000"
 1090 0595 0B       		.byte	0xb
 1091 0596 6C01     		.2byte	0x16c
 1092 0598 86040000 		.4byte	0x486
 1093 059c 40       		.byte	0x40
 1094 059d 08       		.uleb128 0x8
 1095 059e 723500   		.ascii	"r5\000"
 1096 05a1 0B       		.byte	0xb
 1097 05a2 6D01     		.2byte	0x16d
 1098 05a4 86040000 		.4byte	0x486
 1099 05a8 44       		.byte	0x44
 1100 05a9 08       		.uleb128 0x8
 1101 05aa 723600   		.ascii	"r6\000"
 1102 05ad 0B       		.byte	0xb
 1103 05ae 6E01     		.2byte	0x16e
 1104 05b0 86040000 		.4byte	0x486
 1105 05b4 48       		.byte	0x48
 1106 05b5 08       		.uleb128 0x8
 1107 05b6 723700   		.ascii	"r7\000"
 1108 05b9 0B       		.byte	0xb
 1109 05ba 6F01     		.2byte	0x16f
 1110 05bc 86040000 		.4byte	0x486
 1111 05c0 4C       		.byte	0x4c
 1112 05c1 08       		.uleb128 0x8
 1113 05c2 723800   		.ascii	"r8\000"
 1114 05c5 0B       		.byte	0xb
 1115 05c6 7001     		.2byte	0x170
 1116 05c8 86040000 		.4byte	0x486
 1117 05cc 50       		.byte	0x50
 1118 05cd 08       		.uleb128 0x8
 1119 05ce 723900   		.ascii	"r9\000"
 1120 05d1 0B       		.byte	0xb
 1121 05d2 7101     		.2byte	0x171
 1122 05d4 86040000 		.4byte	0x486
 1123 05d8 54       		.byte	0x54
 1124 05d9 08       		.uleb128 0x8
 1125 05da 72313000 		.ascii	"r10\000"
 1126 05de 0B       		.byte	0xb
 1127 05df 7201     		.2byte	0x172
 1128 05e1 86040000 		.4byte	0x486
 1129 05e5 58       		.byte	0x58
 1130 05e6 08       		.uleb128 0x8
 1131 05e7 72313100 		.ascii	"r11\000"
 1132 05eb 0B       		.byte	0xb
 1133 05ec 7301     		.2byte	0x173
 1134 05ee 86040000 		.4byte	0x486
 1135 05f2 5C       		.byte	0x5c
 1136 05f3 08       		.uleb128 0x8
 1137 05f4 6C7200   		.ascii	"lr\000"
 1138 05f7 0B       		.byte	0xb
 1139 05f8 7401     		.2byte	0x174
 1140 05fa 86040000 		.4byte	0x486
ARM GAS  /tmp/cc6JER7H.s 			page 21


 1141 05fe 60       		.byte	0x60
 1142 05ff 00       		.byte	0
 1143 0600 0A       		.uleb128 0xa
 1144 0601 04       		.byte	0x4
 1145 0602 B4040000 		.4byte	0x4b4
 1146 0606 12       		.uleb128 0x12
 1147 0607 60       		.byte	0x60
 1148 0608 0C       		.byte	0xc
 1149 0609 F501     		.2byte	0x1f5
 1150 060b 12070000 		.4byte	0x712
 1151 060f 08       		.uleb128 0x8
 1152 0610 43523100 		.ascii	"CR1\000"
 1153 0614 0C       		.byte	0xc
 1154 0615 F601     		.2byte	0x1f6
 1155 0617 61040000 		.4byte	0x461
 1156 061b 00       		.byte	0
 1157 061c 08       		.uleb128 0x8
 1158 061d 43523200 		.ascii	"CR2\000"
 1159 0621 0C       		.byte	0xc
 1160 0622 F701     		.2byte	0x1f7
 1161 0624 61040000 		.4byte	0x461
 1162 0628 04       		.byte	0x4
 1163 0629 09       		.uleb128 0x9
 1164 062a 00030000 		.4byte	.LASF79
 1165 062e 0C       		.byte	0xc
 1166 062f F801     		.2byte	0x1f8
 1167 0631 61040000 		.4byte	0x461
 1168 0635 08       		.byte	0x8
 1169 0636 09       		.uleb128 0x9
 1170 0637 0D000000 		.4byte	.LASF80
 1171 063b 0C       		.byte	0xc
 1172 063c F901     		.2byte	0x1f9
 1173 063e 61040000 		.4byte	0x461
 1174 0642 0C       		.byte	0xc
 1175 0643 08       		.uleb128 0x8
 1176 0644 535200   		.ascii	"SR\000"
 1177 0647 0C       		.byte	0xc
 1178 0648 FA01     		.2byte	0x1fa
 1179 064a 61040000 		.4byte	0x461
 1180 064e 10       		.byte	0x10
 1181 064f 08       		.uleb128 0x8
 1182 0650 45475200 		.ascii	"EGR\000"
 1183 0654 0C       		.byte	0xc
 1184 0655 FB01     		.2byte	0x1fb
 1185 0657 61040000 		.4byte	0x461
 1186 065b 14       		.byte	0x14
 1187 065c 09       		.uleb128 0x9
 1188 065d 1D010000 		.4byte	.LASF81
 1189 0661 0C       		.byte	0xc
 1190 0662 FC01     		.2byte	0x1fc
 1191 0664 61040000 		.4byte	0x461
 1192 0668 18       		.byte	0x18
 1193 0669 09       		.uleb128 0x9
 1194 066a 8D000000 		.4byte	.LASF82
 1195 066e 0C       		.byte	0xc
 1196 066f FD01     		.2byte	0x1fd
 1197 0671 61040000 		.4byte	0x461
ARM GAS  /tmp/cc6JER7H.s 			page 22


 1198 0675 1C       		.byte	0x1c
 1199 0676 09       		.uleb128 0x9
 1200 0677 9A050000 		.4byte	.LASF83
 1201 067b 0C       		.byte	0xc
 1202 067c FE01     		.2byte	0x1fe
 1203 067e 61040000 		.4byte	0x461
 1204 0682 20       		.byte	0x20
 1205 0683 08       		.uleb128 0x8
 1206 0684 434E5400 		.ascii	"CNT\000"
 1207 0688 0C       		.byte	0xc
 1208 0689 FF01     		.2byte	0x1ff
 1209 068b 61040000 		.4byte	0x461
 1210 068f 24       		.byte	0x24
 1211 0690 08       		.uleb128 0x8
 1212 0691 50534300 		.ascii	"PSC\000"
 1213 0695 0C       		.byte	0xc
 1214 0696 0002     		.2byte	0x200
 1215 0698 61040000 		.4byte	0x461
 1216 069c 28       		.byte	0x28
 1217 069d 08       		.uleb128 0x8
 1218 069e 41525200 		.ascii	"ARR\000"
 1219 06a2 0C       		.byte	0xc
 1220 06a3 0102     		.2byte	0x201
 1221 06a5 61040000 		.4byte	0x461
 1222 06a9 2C       		.byte	0x2c
 1223 06aa 08       		.uleb128 0x8
 1224 06ab 52435200 		.ascii	"RCR\000"
 1225 06af 0C       		.byte	0xc
 1226 06b0 0202     		.2byte	0x202
 1227 06b2 61040000 		.4byte	0x461
 1228 06b6 30       		.byte	0x30
 1229 06b7 08       		.uleb128 0x8
 1230 06b8 43435200 		.ascii	"CCR\000"
 1231 06bc 0C       		.byte	0xc
 1232 06bd 0302     		.2byte	0x203
 1233 06bf 12070000 		.4byte	0x712
 1234 06c3 34       		.byte	0x34
 1235 06c4 09       		.uleb128 0x9
 1236 06c5 0F010000 		.4byte	.LASF84
 1237 06c9 0C       		.byte	0xc
 1238 06ca 0402     		.2byte	0x204
 1239 06cc 61040000 		.4byte	0x461
 1240 06d0 44       		.byte	0x44
 1241 06d1 08       		.uleb128 0x8
 1242 06d2 44435200 		.ascii	"DCR\000"
 1243 06d6 0C       		.byte	0xc
 1244 06d7 0502     		.2byte	0x205
 1245 06d9 61040000 		.4byte	0x461
 1246 06dd 48       		.byte	0x48
 1247 06de 09       		.uleb128 0x9
 1248 06df 8C050000 		.4byte	.LASF85
 1249 06e3 0C       		.byte	0xc
 1250 06e4 0602     		.2byte	0x206
 1251 06e6 61040000 		.4byte	0x461
 1252 06ea 4C       		.byte	0x4c
 1253 06eb 08       		.uleb128 0x8
 1254 06ec 4F5200   		.ascii	"OR\000"
ARM GAS  /tmp/cc6JER7H.s 			page 23


 1255 06ef 0C       		.byte	0xc
 1256 06f0 0702     		.2byte	0x207
 1257 06f2 61040000 		.4byte	0x461
 1258 06f6 50       		.byte	0x50
 1259 06f7 09       		.uleb128 0x9
 1260 06f8 2C010000 		.4byte	.LASF86
 1261 06fc 0C       		.byte	0xc
 1262 06fd 0802     		.2byte	0x208
 1263 06ff 61040000 		.4byte	0x461
 1264 0703 54       		.byte	0x54
 1265 0704 09       		.uleb128 0x9
 1266 0705 11050000 		.4byte	.LASF87
 1267 0709 0C       		.byte	0xc
 1268 070a 0902     		.2byte	0x209
 1269 070c 17070000 		.4byte	0x717
 1270 0710 58       		.byte	0x58
 1271 0711 00       		.byte	0
 1272 0712 0F       		.uleb128 0xf
 1273 0713 76040000 		.4byte	0x476
 1274 0717 0F       		.uleb128 0xf
 1275 0718 66040000 		.4byte	0x466
 1276 071c 13       		.uleb128 0x13
 1277 071d 5B030000 		.4byte	.LASF88
 1278 0721 0C       		.byte	0xc
 1279 0722 0A02     		.2byte	0x20a
 1280 0724 06060000 		.4byte	0x606
 1281 0728 14       		.uleb128 0x14
 1282 0729 04       		.byte	0x4
 1283 072a 0D       		.byte	0xd
 1284 072b 38       		.byte	0x38
 1285 072c 3D070000 		.4byte	0x73d
 1286 0730 06       		.uleb128 0x6
 1287 0731 BC050000 		.4byte	.LASF89
 1288 0735 0D       		.byte	0xd
 1289 0736 3C       		.byte	0x3c
 1290 0737 C3000000 		.4byte	0xc3
 1291 073b 00       		.byte	0
 1292 073c 00       		.byte	0
 1293 073d 04       		.uleb128 0x4
 1294 073e F7030000 		.4byte	.LASF90
 1295 0742 0D       		.byte	0xd
 1296 0743 3D       		.byte	0x3d
 1297 0744 28070000 		.4byte	0x728
 1298 0748 14       		.uleb128 0x14
 1299 0749 18       		.byte	0x18
 1300 074a 0D       		.byte	0xd
 1301 074b 48       		.byte	0x48
 1302 074c 8B070000 		.4byte	0x78b
 1303 0750 06       		.uleb128 0x6
 1304 0751 FB020000 		.4byte	.LASF91
 1305 0755 0D       		.byte	0xd
 1306 0756 49       		.byte	0x49
 1307 0757 C3000000 		.4byte	0xc3
 1308 075b 00       		.byte	0
 1309 075c 06       		.uleb128 0x6
 1310 075d 93000000 		.4byte	.LASF92
 1311 0761 0D       		.byte	0xd
ARM GAS  /tmp/cc6JER7H.s 			page 24


 1312 0762 4A       		.byte	0x4a
 1313 0763 C3000000 		.4byte	0xc3
 1314 0767 04       		.byte	0x4
 1315 0768 06       		.uleb128 0x6
 1316 0769 3A030000 		.4byte	.LASF93
 1317 076d 0D       		.byte	0xd
 1318 076e 4B       		.byte	0x4b
 1319 076f C3000000 		.4byte	0xc3
 1320 0773 08       		.byte	0x8
 1321 0774 07       		.uleb128 0x7
 1322 0775 6E00     		.ascii	"n\000"
 1323 0777 0D       		.byte	0xd
 1324 0778 4C       		.byte	0x4c
 1325 0779 26010000 		.4byte	0x126
 1326 077d 0C       		.byte	0xc
 1327 077e 06       		.uleb128 0x6
 1328 077f 57040000 		.4byte	.LASF94
 1329 0783 0D       		.byte	0xd
 1330 0784 4D       		.byte	0x4d
 1331 0785 CE000000 		.4byte	0xce
 1332 0789 10       		.byte	0x10
 1333 078a 00       		.byte	0
 1334 078b 04       		.uleb128 0x4
 1335 078c 99000000 		.4byte	.LASF95
 1336 0790 0D       		.byte	0xd
 1337 0791 4E       		.byte	0x4e
 1338 0792 48070000 		.4byte	0x748
 1339 0796 14       		.uleb128 0x14
 1340 0797 38       		.byte	0x38
 1341 0798 0E       		.byte	0xe
 1342 0799 38       		.byte	0x38
 1343 079a CF070000 		.4byte	0x7cf
 1344 079e 06       		.uleb128 0x6
 1345 079f E9020000 		.4byte	.LASF96
 1346 07a3 0E       		.byte	0xe
 1347 07a4 39       		.byte	0x39
 1348 07a5 26010000 		.4byte	0x126
 1349 07a9 00       		.byte	0
 1350 07aa 06       		.uleb128 0x6
 1351 07ab 93040000 		.4byte	.LASF97
 1352 07af 0E       		.byte	0xe
 1353 07b0 3A       		.byte	0x3a
 1354 07b1 26010000 		.4byte	0x126
 1355 07b5 04       		.byte	0x4
 1356 07b6 06       		.uleb128 0x6
 1357 07b7 C1060000 		.4byte	.LASF98
 1358 07bb 0E       		.byte	0xe
 1359 07bc 3B       		.byte	0x3b
 1360 07bd 8B070000 		.4byte	0x78b
 1361 07c1 08       		.byte	0x8
 1362 07c2 06       		.uleb128 0x6
 1363 07c3 6F030000 		.4byte	.LASF99
 1364 07c7 0E       		.byte	0xe
 1365 07c8 3D       		.byte	0x3d
 1366 07c9 8B070000 		.4byte	0x78b
 1367 07cd 20       		.byte	0x20
 1368 07ce 00       		.byte	0
ARM GAS  /tmp/cc6JER7H.s 			page 25


 1369 07cf 04       		.uleb128 0x4
 1370 07d0 05030000 		.4byte	.LASF100
 1371 07d4 0E       		.byte	0xe
 1372 07d5 3F       		.byte	0x3f
 1373 07d6 96070000 		.4byte	0x796
 1374 07da 15       		.uleb128 0x15
 1375 07db 04       		.byte	0x4
 1376 07dc 09       		.byte	0x9
 1377 07dd C6       		.byte	0xc6
 1378 07de 3C080000 		.4byte	0x83c
 1379 07e2 16       		.uleb128 0x16
 1380 07e3 23000000 		.4byte	.LASF101
 1381 07e7 09       		.byte	0x9
 1382 07e8 CD       		.byte	0xcd
 1383 07e9 05010000 		.4byte	0x105
 1384 07ed 16       		.uleb128 0x16
 1385 07ee D0000000 		.4byte	.LASF102
 1386 07f2 09       		.byte	0x9
 1387 07f3 D4       		.byte	0xd4
 1388 07f4 05010000 		.4byte	0x105
 1389 07f8 16       		.uleb128 0x16
 1390 07f9 8D060000 		.4byte	.LASF103
 1391 07fd 09       		.byte	0x9
 1392 07fe DB       		.byte	0xdb
 1393 07ff 0F030000 		.4byte	0x30f
 1394 0803 16       		.uleb128 0x16
 1395 0804 12000000 		.4byte	.LASF104
 1396 0808 09       		.byte	0x9
 1397 0809 E2       		.byte	0xe2
 1398 080a 3C080000 		.4byte	0x83c
 1399 080e 16       		.uleb128 0x16
 1400 080f E4000000 		.4byte	.LASF105
 1401 0813 09       		.byte	0x9
 1402 0814 E7       		.byte	0xe7
 1403 0815 05010000 		.4byte	0x105
 1404 0819 16       		.uleb128 0x16
 1405 081a D3020000 		.4byte	.LASF106
 1406 081e 09       		.byte	0x9
 1407 081f F0       		.byte	0xf0
 1408 0820 67080000 		.4byte	0x867
 1409 0824 16       		.uleb128 0x16
 1410 0825 32050000 		.4byte	.LASF107
 1411 0829 09       		.byte	0x9
 1412 082a F9       		.byte	0xf9
 1413 082b 9E080000 		.4byte	0x89e
 1414 082f 17       		.uleb128 0x17
 1415 0830 D1040000 		.4byte	.LASF108
 1416 0834 09       		.byte	0x9
 1417 0835 0101     		.2byte	0x101
 1418 0837 10010000 		.4byte	0x110
 1419 083b 00       		.byte	0
 1420 083c 0A       		.uleb128 0xa
 1421 083d 04       		.byte	0x4
 1422 083e 27020000 		.4byte	0x227
 1423 0842 05       		.uleb128 0x5
 1424 0843 04050000 		.4byte	.LASF109
 1425 0847 0C       		.byte	0xc
ARM GAS  /tmp/cc6JER7H.s 			page 26


 1426 0848 0F       		.byte	0xf
 1427 0849 34       		.byte	0x34
 1428 084a 67080000 		.4byte	0x867
 1429 084e 06       		.uleb128 0x6
 1430 084f EF020000 		.4byte	.LASF28
 1431 0853 0F       		.byte	0xf
 1432 0854 35       		.byte	0x35
 1433 0855 5C020000 		.4byte	0x25c
 1434 0859 00       		.byte	0
 1435 085a 07       		.uleb128 0x7
 1436 085b 636E7400 		.ascii	"cnt\000"
 1437 085f 0F       		.byte	0xf
 1438 0860 37       		.byte	0x37
 1439 0861 1B010000 		.4byte	0x11b
 1440 0865 08       		.byte	0x8
 1441 0866 00       		.byte	0
 1442 0867 0A       		.uleb128 0xa
 1443 0868 04       		.byte	0x4
 1444 0869 42080000 		.4byte	0x842
 1445 086d 05       		.uleb128 0x5
 1446 086e 42060000 		.4byte	.LASF110
 1447 0872 10       		.byte	0x10
 1448 0873 10       		.byte	0x10
 1449 0874 39       		.byte	0x39
 1450 0875 9E080000 		.4byte	0x89e
 1451 0879 06       		.uleb128 0x6
 1452 087a EF020000 		.4byte	.LASF28
 1453 087e 10       		.byte	0x10
 1454 087f 3A       		.byte	0x3a
 1455 0880 5C020000 		.4byte	0x25c
 1456 0884 00       		.byte	0
 1457 0885 06       		.uleb128 0x6
 1458 0886 49050000 		.4byte	.LASF111
 1459 088a 10       		.byte	0x10
 1460 088b 3C       		.byte	0x3c
 1461 088c 32020000 		.4byte	0x232
 1462 0890 08       		.byte	0x8
 1463 0891 06       		.uleb128 0x6
 1464 0892 18000000 		.4byte	.LASF48
 1465 0896 10       		.byte	0x10
 1466 0897 3E       		.byte	0x3e
 1467 0898 D2080000 		.4byte	0x8d2
 1468 089c 0C       		.byte	0xc
 1469 089d 00       		.byte	0
 1470 089e 0A       		.uleb128 0xa
 1471 089f 04       		.byte	0x4
 1472 08a0 6D080000 		.4byte	0x86d
 1473 08a4 0A       		.uleb128 0xa
 1474 08a5 04       		.byte	0x4
 1475 08a6 AA080000 		.4byte	0x8aa
 1476 08aa 18       		.uleb128 0x18
 1477 08ab AF080000 		.4byte	0x8af
 1478 08af 03       		.uleb128 0x3
 1479 08b0 01       		.byte	0x1
 1480 08b1 08       		.byte	0x8
 1481 08b2 74050000 		.4byte	.LASF112
 1482 08b6 0A       		.uleb128 0xa
ARM GAS  /tmp/cc6JER7H.s 			page 27


 1483 08b7 04       		.byte	0x4
 1484 08b8 91040000 		.4byte	0x491
 1485 08bc 0A       		.uleb128 0xa
 1486 08bd 04       		.byte	0x4
 1487 08be 11030000 		.4byte	0x311
 1488 08c2 0F       		.uleb128 0xf
 1489 08c3 A4080000 		.4byte	0x8a4
 1490 08c7 04       		.uleb128 0x4
 1491 08c8 B9060000 		.4byte	.LASF113
 1492 08cc 10       		.byte	0x10
 1493 08cd 34       		.byte	0x34
 1494 08ce 6D080000 		.4byte	0x86d
 1495 08d2 0A       		.uleb128 0xa
 1496 08d3 04       		.byte	0x4
 1497 08d4 C7080000 		.4byte	0x8c7
 1498 08d8 03       		.uleb128 0x3
 1499 08d9 01       		.byte	0x1
 1500 08da 02       		.byte	0x2
 1501 08db 9C040000 		.4byte	.LASF114
 1502 08df 19       		.uleb128 0x19
 1503 08e0 16050000 		.4byte	.LASF115
 1504 08e4 02       		.byte	0x2
 1505 08e5 91       		.byte	0x91
 1506 08e6 44040000 		.4byte	0x444
 1507 08ea 03       		.byte	0x3
 1508 08eb 19       		.uleb128 0x19
 1509 08ec 0F060000 		.4byte	.LASF116
 1510 08f0 03       		.byte	0x3
 1511 08f1 69       		.byte	0x69
 1512 08f2 44040000 		.4byte	0x444
 1513 08f6 03       		.byte	0x3
 1514 08f7 19       		.uleb128 0x19
 1515 08f8 C8010000 		.4byte	.LASF117
 1516 08fc 11       		.byte	0x11
 1517 08fd 73       		.byte	0x73
 1518 08fe 44040000 		.4byte	0x444
 1519 0902 03       		.byte	0x3
 1520 0903 1A       		.uleb128 0x1a
 1521 0904 41040000 		.4byte	.LASF121
 1522 0908 04       		.byte	0x4
 1523 0909 EB01     		.2byte	0x1eb
 1524 090b 44040000 		.4byte	0x444
 1525 090f 03       		.byte	0x3
 1526 0910 2D090000 		.4byte	0x92d
 1527 0914 1B       		.uleb128 0x1b
 1528 0915 67030000 		.4byte	.LASF118
 1529 0919 04       		.byte	0x4
 1530 091a EB01     		.2byte	0x1eb
 1531 091c 44040000 		.4byte	0x444
 1532 0920 1B       		.uleb128 0x1b
 1533 0921 71010000 		.4byte	.LASF119
 1534 0925 04       		.byte	0x4
 1535 0926 EC01     		.2byte	0x1ec
 1536 0928 4F040000 		.4byte	0x44f
 1537 092c 00       		.byte	0
 1538 092d 1C       		.uleb128 0x1c
 1539 092e 23030000 		.4byte	.LASF124
ARM GAS  /tmp/cc6JER7H.s 			page 28


 1540 0932 03       		.byte	0x3
 1541 0933 47       		.byte	0x47
 1542 0934 03       		.byte	0x3
 1543 0935 45090000 		.4byte	0x945
 1544 0939 1D       		.uleb128 0x1d
 1545 093a 2F040000 		.4byte	.LASF120
 1546 093e 03       		.byte	0x3
 1547 093f 47       		.byte	0x47
 1548 0940 44040000 		.4byte	0x444
 1549 0944 00       		.byte	0
 1550 0945 1A       		.uleb128 0x1a
 1551 0946 7F040000 		.4byte	.LASF122
 1552 094a 04       		.byte	0x4
 1553 094b FE01     		.2byte	0x1fe
 1554 094d 4F040000 		.4byte	0x44f
 1555 0951 03       		.byte	0x3
 1556 0952 6F090000 		.4byte	0x96f
 1557 0956 1B       		.uleb128 0x1b
 1558 0957 AB060000 		.4byte	.LASF123
 1559 095b 04       		.byte	0x4
 1560 095c FE01     		.2byte	0x1fe
 1561 095e 44040000 		.4byte	0x444
 1562 0962 1E       		.uleb128 0x1e
 1563 0963 656E6400 		.ascii	"end\000"
 1564 0967 04       		.byte	0x4
 1565 0968 FE01     		.2byte	0x1fe
 1566 096a 44040000 		.4byte	0x444
 1567 096e 00       		.byte	0
 1568 096f 1C       		.uleb128 0x1c
 1569 0970 78060000 		.4byte	.LASF125
 1570 0974 03       		.byte	0x3
 1571 0975 5D       		.byte	0x5d
 1572 0976 03       		.byte	0x3
 1573 0977 87090000 		.4byte	0x987
 1574 097b 1D       		.uleb128 0x1d
 1575 097c 2F040000 		.4byte	.LASF120
 1576 0980 03       		.byte	0x3
 1577 0981 5D       		.byte	0x5d
 1578 0982 44040000 		.4byte	0x444
 1579 0986 00       		.byte	0
 1580 0987 1F       		.uleb128 0x1f
 1581 0988 62060000 		.4byte	.LASF139
 1582 098c 03       		.byte	0x3
 1583 098d 51       		.byte	0x51
 1584 098e 03       		.byte	0x3
 1585 098f 20       		.uleb128 0x20
 1586 0990 23010000 		.4byte	.LASF140
 1587 0994 01       		.byte	0x1
 1588 0995 3D       		.byte	0x3d
 1589 0996 00000000 		.4byte	.LFB290
 1590 099a 1C000000 		.4byte	.LFE290-.LFB290
 1591 099e 01       		.uleb128 0x1
 1592 099f 9C       		.byte	0x9c
 1593 09a0 21       		.uleb128 0x21
 1594 09a1 88030000 		.4byte	.LASF129
 1595 09a5 01       		.byte	0x1
 1596 09a6 5F       		.byte	0x5f
ARM GAS  /tmp/cc6JER7H.s 			page 29


 1597 09a7 00000000 		.4byte	.LFB291
 1598 09ab 78000000 		.4byte	.LFE291-.LFB291
 1599 09af 01       		.uleb128 0x1
 1600 09b0 9C       		.byte	0x9c
 1601 09b1 DA0A0000 		.4byte	0xada
 1602 09b5 22       		.uleb128 0x22
 1603 09b6 76747000 		.ascii	"vtp\000"
 1604 09ba 01       		.byte	0x1
 1605 09bb 5F       		.byte	0x5f
 1606 09bc BC080000 		.4byte	0x8bc
 1607 09c0 00000000 		.4byte	.LLST0
 1608 09c4 23       		.uleb128 0x23
 1609 09c5 B8040000 		.4byte	.LASF126
 1610 09c9 01       		.byte	0x1
 1611 09ca 5F       		.byte	0x5f
 1612 09cb 4F040000 		.4byte	0x44f
 1613 09cf 5C000000 		.4byte	.LLST1
 1614 09d3 23       		.uleb128 0x23
 1615 09d4 2B060000 		.4byte	.LASF127
 1616 09d8 01       		.byte	0x1
 1617 09d9 60       		.byte	0x60
 1618 09da F3020000 		.4byte	0x2f3
 1619 09de C7000000 		.4byte	.LLST2
 1620 09e2 22       		.uleb128 0x22
 1621 09e3 70617200 		.ascii	"par\000"
 1622 09e7 01       		.byte	0x1
 1623 09e8 60       		.byte	0x60
 1624 09e9 0F030000 		.4byte	0x30f
 1625 09ed 35010000 		.4byte	.LLST3
 1626 09f1 24       		.uleb128 0x24
 1627 09f2 7000     		.ascii	"p\000"
 1628 09f4 01       		.byte	0x1
 1629 09f5 61       		.byte	0x61
 1630 09f6 BC080000 		.4byte	0x8bc
 1631 09fa A3010000 		.4byte	.LLST4
 1632 09fe 25       		.uleb128 0x25
 1633 09ff 1D000000 		.4byte	.LASF58
 1634 0a03 01       		.byte	0x1
 1635 0a04 62       		.byte	0x62
 1636 0a05 4F040000 		.4byte	0x44f
 1637 0a09 C1010000 		.4byte	.LLST5
 1638 0a0d 26       		.uleb128 0x26
 1639 0a0e EA040000 		.4byte	.LASF131
 1640 0a12 EA0A0000 		.4byte	0xaea
 1641 0a16 27       		.uleb128 0x27
 1642 0a17 00000000 		.4byte	.Ldebug_ranges0+0
 1643 0a1b 28       		.uleb128 0x28
 1644 0a1c 6E6F7700 		.ascii	"now\000"
 1645 0a20 01       		.byte	0x1
 1646 0a21 6C       		.byte	0x6c
 1647 0a22 44040000 		.4byte	0x444
 1648 0a26 29       		.uleb128 0x29
 1649 0a27 F7080000 		.4byte	0x8f7
 1650 0a2b 04000000 		.4byte	.LBB41
 1651 0a2f 28000000 		.4byte	.Ldebug_ranges0+0x28
 1652 0a33 01       		.byte	0x1
 1653 0a34 6C       		.byte	0x6c
ARM GAS  /tmp/cc6JER7H.s 			page 30


 1654 0a35 590A0000 		.4byte	0xa59
 1655 0a39 2A       		.uleb128 0x2a
 1656 0a3a EB080000 		.4byte	0x8eb
 1657 0a3e 04000000 		.4byte	.LBB42
 1658 0a42 28000000 		.4byte	.Ldebug_ranges0+0x28
 1659 0a46 11       		.byte	0x11
 1660 0a47 78       		.byte	0x78
 1661 0a48 2B       		.uleb128 0x2b
 1662 0a49 DF080000 		.4byte	0x8df
 1663 0a4d 04000000 		.4byte	.LBB43
 1664 0a51 28000000 		.4byte	.Ldebug_ranges0+0x28
 1665 0a55 03       		.byte	0x3
 1666 0a56 6B       		.byte	0x6b
 1667 0a57 00       		.byte	0
 1668 0a58 00       		.byte	0
 1669 0a59 29       		.uleb128 0x29
 1670 0a5a 2D090000 		.4byte	0x92d
 1671 0a5e 2C000000 		.4byte	.LBB49
 1672 0a62 40000000 		.4byte	.Ldebug_ranges0+0x40
 1673 0a66 01       		.byte	0x1
 1674 0a67 88       		.byte	0x88
 1675 0a68 7B0A0000 		.4byte	0xa7b
 1676 0a6c 2C       		.uleb128 0x2c
 1677 0a6d 39090000 		.4byte	0x939
 1678 0a71 2D       		.uleb128 0x2d
 1679 0a72 36000000 		.4byte	.LVL7
 1680 0a76 030C0000 		.4byte	0xc03
 1681 0a7a 00       		.byte	0
 1682 0a7b 2E       		.uleb128 0x2e
 1683 0a7c 45090000 		.4byte	0x945
 1684 0a80 3A000000 		.4byte	.LBB53
 1685 0a84 02000000 		.4byte	.LBE53-.LBB53
 1686 0a88 01       		.byte	0x1
 1687 0a89 92       		.byte	0x92
 1688 0a8a 9D0A0000 		.4byte	0xa9d
 1689 0a8e 2C       		.uleb128 0x2c
 1690 0a8f 62090000 		.4byte	0x962
 1691 0a93 2F       		.uleb128 0x2f
 1692 0a94 56090000 		.4byte	0x956
 1693 0a98 E4010000 		.4byte	.LLST6
 1694 0a9c 00       		.byte	0
 1695 0a9d 30       		.uleb128 0x30
 1696 0a9e 44000000 		.4byte	.LBB55
 1697 0aa2 08000000 		.4byte	.LBE55-.LBB55
 1698 0aa6 25       		.uleb128 0x25
 1699 0aa7 DA020000 		.4byte	.LASF128
 1700 0aab 01       		.byte	0x1
 1701 0aac 9C       		.byte	0x9c
 1702 0aad 4F040000 		.4byte	0x44f
 1703 0ab1 03020000 		.4byte	.LLST7
 1704 0ab5 31       		.uleb128 0x31
 1705 0ab6 6F090000 		.4byte	0x96f
 1706 0aba 44000000 		.4byte	.LBB56
 1707 0abe 08000000 		.4byte	.LBE56-.LBB56
 1708 0ac2 01       		.byte	0x1
 1709 0ac3 A7       		.byte	0xa7
 1710 0ac4 2F       		.uleb128 0x2f
ARM GAS  /tmp/cc6JER7H.s 			page 31


 1711 0ac5 7B090000 		.4byte	0x97b
 1712 0ac9 16020000 		.4byte	.LLST8
 1713 0acd 32       		.uleb128 0x32
 1714 0ace 4A000000 		.4byte	.LVL13
 1715 0ad2 140C0000 		.4byte	0xc14
 1716 0ad6 00       		.byte	0
 1717 0ad7 00       		.byte	0
 1718 0ad8 00       		.byte	0
 1719 0ad9 00       		.byte	0
 1720 0ada 10       		.uleb128 0x10
 1721 0adb AF080000 		.4byte	0x8af
 1722 0adf EA0A0000 		.4byte	0xaea
 1723 0ae3 11       		.uleb128 0x11
 1724 0ae4 5A040000 		.4byte	0x45a
 1725 0ae8 0A       		.byte	0xa
 1726 0ae9 00       		.byte	0
 1727 0aea 18       		.uleb128 0x18
 1728 0aeb DA0A0000 		.4byte	0xada
 1729 0aef 21       		.uleb128 0x21
 1730 0af0 C3000000 		.4byte	.LASF130
 1731 0af4 01       		.byte	0x1
 1732 0af5 D3       		.byte	0xd3
 1733 0af6 00000000 		.4byte	.LFB292
 1734 0afa 74000000 		.4byte	.LFE292-.LFB292
 1735 0afe 01       		.uleb128 0x1
 1736 0aff 9C       		.byte	0x9c
 1737 0b00 D20B0000 		.4byte	0xbd2
 1738 0b04 22       		.uleb128 0x22
 1739 0b05 76747000 		.ascii	"vtp\000"
 1740 0b09 01       		.byte	0x1
 1741 0b0a D3       		.byte	0xd3
 1742 0b0b BC080000 		.4byte	0x8bc
 1743 0b0f 39020000 		.4byte	.LLST9
 1744 0b13 26       		.uleb128 0x26
 1745 0b14 EA040000 		.4byte	.LASF131
 1746 0b18 E20B0000 		.4byte	0xbe2
 1747 0b1c 33       		.uleb128 0x33
 1748 0b1d DB010000 		.4byte	.LASF132
 1749 0b21 01       		.byte	0x1
 1750 0b22 E7       		.byte	0xe7
 1751 0b23 4F040000 		.4byte	0x44f
 1752 0b27 25       		.uleb128 0x25
 1753 0b28 1D000000 		.4byte	.LASF58
 1754 0b2c 01       		.byte	0x1
 1755 0b2d E7       		.byte	0xe7
 1756 0b2e 4F040000 		.4byte	0x44f
 1757 0b32 5A020000 		.4byte	.LLST10
 1758 0b36 2E       		.uleb128 0x2e
 1759 0b37 87090000 		.4byte	0x987
 1760 0b3b 3E000000 		.4byte	.LBB61
 1761 0b3f 04000000 		.4byte	.LBE61-.LBB61
 1762 0b43 01       		.byte	0x1
 1763 0b44 FF       		.byte	0xff
 1764 0b45 530B0000 		.4byte	0xb53
 1765 0b49 2D       		.uleb128 0x2d
 1766 0b4a 42000000 		.4byte	.LVL20
 1767 0b4e 250C0000 		.4byte	0xc25
ARM GAS  /tmp/cc6JER7H.s 			page 32


 1768 0b52 00       		.byte	0
 1769 0b53 34       		.uleb128 0x34
 1770 0b54 F7080000 		.4byte	0x8f7
 1771 0b58 4A000000 		.4byte	.LBB63
 1772 0b5c 58000000 		.4byte	.Ldebug_ranges0+0x58
 1773 0b60 01       		.byte	0x1
 1774 0b61 0E01     		.2byte	0x10e
 1775 0b63 870B0000 		.4byte	0xb87
 1776 0b67 2A       		.uleb128 0x2a
 1777 0b68 EB080000 		.4byte	0x8eb
 1778 0b6c 4A000000 		.4byte	.LBB64
 1779 0b70 58000000 		.4byte	.Ldebug_ranges0+0x58
 1780 0b74 11       		.byte	0x11
 1781 0b75 78       		.byte	0x78
 1782 0b76 2B       		.uleb128 0x2b
 1783 0b77 DF080000 		.4byte	0x8df
 1784 0b7b 4A000000 		.4byte	.LBB65
 1785 0b7f 58000000 		.4byte	.Ldebug_ranges0+0x58
 1786 0b83 03       		.byte	0x3
 1787 0b84 6B       		.byte	0x6b
 1788 0b85 00       		.byte	0
 1789 0b86 00       		.byte	0
 1790 0b87 35       		.uleb128 0x35
 1791 0b88 45090000 		.4byte	0x945
 1792 0b8c 50000000 		.4byte	.LBB71
 1793 0b90 02000000 		.4byte	.LBE71-.LBB71
 1794 0b94 01       		.byte	0x1
 1795 0b95 0E01     		.2byte	0x10e
 1796 0b97 AE0B0000 		.4byte	0xbae
 1797 0b9b 2F       		.uleb128 0x2f
 1798 0b9c 62090000 		.4byte	0x962
 1799 0ba0 88020000 		.4byte	.LLST11
 1800 0ba4 2F       		.uleb128 0x2f
 1801 0ba5 56090000 		.4byte	0x956
 1802 0ba9 9B020000 		.4byte	.LLST12
 1803 0bad 00       		.byte	0
 1804 0bae 36       		.uleb128 0x36
 1805 0baf 6F090000 		.4byte	0x96f
 1806 0bb3 5E000000 		.4byte	.LBB73
 1807 0bb7 70000000 		.4byte	.Ldebug_ranges0+0x70
 1808 0bbb 01       		.byte	0x1
 1809 0bbc 2701     		.2byte	0x127
 1810 0bbe 2F       		.uleb128 0x2f
 1811 0bbf 7B090000 		.4byte	0x97b
 1812 0bc3 BA020000 		.4byte	.LLST13
 1813 0bc7 2D       		.uleb128 0x2d
 1814 0bc8 68000000 		.4byte	.LVL28
 1815 0bcc 140C0000 		.4byte	0xc14
 1816 0bd0 00       		.byte	0
 1817 0bd1 00       		.byte	0
 1818 0bd2 10       		.uleb128 0x10
 1819 0bd3 AF080000 		.4byte	0x8af
 1820 0bd7 E20B0000 		.4byte	0xbe2
 1821 0bdb 11       		.uleb128 0x11
 1822 0bdc 5A040000 		.4byte	0x45a
 1823 0be0 0C       		.byte	0xc
 1824 0be1 00       		.byte	0
ARM GAS  /tmp/cc6JER7H.s 			page 33


 1825 0be2 18       		.uleb128 0x18
 1826 0be3 D20B0000 		.4byte	0xbd2
 1827 0be7 37       		.uleb128 0x37
 1828 0be8 02010000 		.4byte	.LASF133
 1829 0bec 13       		.byte	0x13
 1830 0bed 0408     		.2byte	0x804
 1831 0bef F30B0000 		.4byte	0xbf3
 1832 0bf3 0F       		.uleb128 0xf
 1833 0bf4 A2000000 		.4byte	0xa2
 1834 0bf8 38       		.uleb128 0x38
 1835 0bf9 636800   		.ascii	"ch\000"
 1836 0bfc 09       		.byte	0x9
 1837 0bfd C701     		.2byte	0x1c7
 1838 0bff DE030000 		.4byte	0x3de
 1839 0c03 39       		.uleb128 0x39
 1840 0c04 C3050000 		.4byte	.LASF134
 1841 0c08 12       		.byte	0x12
 1842 0c09 57       		.byte	0x57
 1843 0c0a 140C0000 		.4byte	0xc14
 1844 0c0e 0D       		.uleb128 0xd
 1845 0c0f 44040000 		.4byte	0x444
 1846 0c13 00       		.byte	0
 1847 0c14 39       		.uleb128 0x39
 1848 0c15 51060000 		.4byte	.LASF135
 1849 0c19 12       		.byte	0x12
 1850 0c1a 59       		.byte	0x59
 1851 0c1b 250C0000 		.4byte	0xc25
 1852 0c1f 0D       		.uleb128 0xd
 1853 0c20 44040000 		.4byte	0x444
 1854 0c24 00       		.byte	0
 1855 0c25 3A       		.uleb128 0x3a
 1856 0c26 68050000 		.4byte	.LASF141
 1857 0c2a 12       		.byte	0x12
 1858 0c2b 58       		.byte	0x58
 1859 0c2c 00       		.byte	0
 1860              		.section	.debug_abbrev,"",%progbits
 1861              	.Ldebug_abbrev0:
 1862 0000 01       		.uleb128 0x1
 1863 0001 11       		.uleb128 0x11
 1864 0002 01       		.byte	0x1
 1865 0003 25       		.uleb128 0x25
 1866 0004 0E       		.uleb128 0xe
 1867 0005 13       		.uleb128 0x13
 1868 0006 0B       		.uleb128 0xb
 1869 0007 03       		.uleb128 0x3
 1870 0008 0E       		.uleb128 0xe
 1871 0009 1B       		.uleb128 0x1b
 1872 000a 0E       		.uleb128 0xe
 1873 000b 55       		.uleb128 0x55
 1874 000c 17       		.uleb128 0x17
 1875 000d 11       		.uleb128 0x11
 1876 000e 01       		.uleb128 0x1
 1877 000f 10       		.uleb128 0x10
 1878 0010 17       		.uleb128 0x17
 1879 0011 00       		.byte	0
 1880 0012 00       		.byte	0
 1881 0013 02       		.uleb128 0x2
ARM GAS  /tmp/cc6JER7H.s 			page 34


 1882 0014 24       		.uleb128 0x24
 1883 0015 00       		.byte	0
 1884 0016 0B       		.uleb128 0xb
 1885 0017 0B       		.uleb128 0xb
 1886 0018 3E       		.uleb128 0x3e
 1887 0019 0B       		.uleb128 0xb
 1888 001a 03       		.uleb128 0x3
 1889 001b 08       		.uleb128 0x8
 1890 001c 00       		.byte	0
 1891 001d 00       		.byte	0
 1892 001e 03       		.uleb128 0x3
 1893 001f 24       		.uleb128 0x24
 1894 0020 00       		.byte	0
 1895 0021 0B       		.uleb128 0xb
 1896 0022 0B       		.uleb128 0xb
 1897 0023 3E       		.uleb128 0x3e
 1898 0024 0B       		.uleb128 0xb
 1899 0025 03       		.uleb128 0x3
 1900 0026 0E       		.uleb128 0xe
 1901 0027 00       		.byte	0
 1902 0028 00       		.byte	0
 1903 0029 04       		.uleb128 0x4
 1904 002a 16       		.uleb128 0x16
 1905 002b 00       		.byte	0
 1906 002c 03       		.uleb128 0x3
 1907 002d 0E       		.uleb128 0xe
 1908 002e 3A       		.uleb128 0x3a
 1909 002f 0B       		.uleb128 0xb
 1910 0030 3B       		.uleb128 0x3b
 1911 0031 0B       		.uleb128 0xb
 1912 0032 49       		.uleb128 0x49
 1913 0033 13       		.uleb128 0x13
 1914 0034 00       		.byte	0
 1915 0035 00       		.byte	0
 1916 0036 05       		.uleb128 0x5
 1917 0037 13       		.uleb128 0x13
 1918 0038 01       		.byte	0x1
 1919 0039 03       		.uleb128 0x3
 1920 003a 0E       		.uleb128 0xe
 1921 003b 0B       		.uleb128 0xb
 1922 003c 0B       		.uleb128 0xb
 1923 003d 3A       		.uleb128 0x3a
 1924 003e 0B       		.uleb128 0xb
 1925 003f 3B       		.uleb128 0x3b
 1926 0040 0B       		.uleb128 0xb
 1927 0041 01       		.uleb128 0x1
 1928 0042 13       		.uleb128 0x13
 1929 0043 00       		.byte	0
 1930 0044 00       		.byte	0
 1931 0045 06       		.uleb128 0x6
 1932 0046 0D       		.uleb128 0xd
 1933 0047 00       		.byte	0
 1934 0048 03       		.uleb128 0x3
 1935 0049 0E       		.uleb128 0xe
 1936 004a 3A       		.uleb128 0x3a
 1937 004b 0B       		.uleb128 0xb
 1938 004c 3B       		.uleb128 0x3b
ARM GAS  /tmp/cc6JER7H.s 			page 35


 1939 004d 0B       		.uleb128 0xb
 1940 004e 49       		.uleb128 0x49
 1941 004f 13       		.uleb128 0x13
 1942 0050 38       		.uleb128 0x38
 1943 0051 0B       		.uleb128 0xb
 1944 0052 00       		.byte	0
 1945 0053 00       		.byte	0
 1946 0054 07       		.uleb128 0x7
 1947 0055 0D       		.uleb128 0xd
 1948 0056 00       		.byte	0
 1949 0057 03       		.uleb128 0x3
 1950 0058 08       		.uleb128 0x8
 1951 0059 3A       		.uleb128 0x3a
 1952 005a 0B       		.uleb128 0xb
 1953 005b 3B       		.uleb128 0x3b
 1954 005c 0B       		.uleb128 0xb
 1955 005d 49       		.uleb128 0x49
 1956 005e 13       		.uleb128 0x13
 1957 005f 38       		.uleb128 0x38
 1958 0060 0B       		.uleb128 0xb
 1959 0061 00       		.byte	0
 1960 0062 00       		.byte	0
 1961 0063 08       		.uleb128 0x8
 1962 0064 0D       		.uleb128 0xd
 1963 0065 00       		.byte	0
 1964 0066 03       		.uleb128 0x3
 1965 0067 08       		.uleb128 0x8
 1966 0068 3A       		.uleb128 0x3a
 1967 0069 0B       		.uleb128 0xb
 1968 006a 3B       		.uleb128 0x3b
 1969 006b 05       		.uleb128 0x5
 1970 006c 49       		.uleb128 0x49
 1971 006d 13       		.uleb128 0x13
 1972 006e 38       		.uleb128 0x38
 1973 006f 0B       		.uleb128 0xb
 1974 0070 00       		.byte	0
 1975 0071 00       		.byte	0
 1976 0072 09       		.uleb128 0x9
 1977 0073 0D       		.uleb128 0xd
 1978 0074 00       		.byte	0
 1979 0075 03       		.uleb128 0x3
 1980 0076 0E       		.uleb128 0xe
 1981 0077 3A       		.uleb128 0x3a
 1982 0078 0B       		.uleb128 0xb
 1983 0079 3B       		.uleb128 0x3b
 1984 007a 05       		.uleb128 0x5
 1985 007b 49       		.uleb128 0x49
 1986 007c 13       		.uleb128 0x13
 1987 007d 38       		.uleb128 0x38
 1988 007e 0B       		.uleb128 0xb
 1989 007f 00       		.byte	0
 1990 0080 00       		.byte	0
 1991 0081 0A       		.uleb128 0xa
 1992 0082 0F       		.uleb128 0xf
 1993 0083 00       		.byte	0
 1994 0084 0B       		.uleb128 0xb
 1995 0085 0B       		.uleb128 0xb
ARM GAS  /tmp/cc6JER7H.s 			page 36


 1996 0086 49       		.uleb128 0x49
 1997 0087 13       		.uleb128 0x13
 1998 0088 00       		.byte	0
 1999 0089 00       		.byte	0
 2000 008a 0B       		.uleb128 0xb
 2001 008b 13       		.uleb128 0x13
 2002 008c 01       		.byte	0x1
 2003 008d 03       		.uleb128 0x3
 2004 008e 0E       		.uleb128 0xe
 2005 008f 0B       		.uleb128 0xb
 2006 0090 0B       		.uleb128 0xb
 2007 0091 3A       		.uleb128 0x3a
 2008 0092 0B       		.uleb128 0xb
 2009 0093 3B       		.uleb128 0x3b
 2010 0094 05       		.uleb128 0x5
 2011 0095 01       		.uleb128 0x1
 2012 0096 13       		.uleb128 0x13
 2013 0097 00       		.byte	0
 2014 0098 00       		.byte	0
 2015 0099 0C       		.uleb128 0xc
 2016 009a 15       		.uleb128 0x15
 2017 009b 01       		.byte	0x1
 2018 009c 27       		.uleb128 0x27
 2019 009d 19       		.uleb128 0x19
 2020 009e 01       		.uleb128 0x1
 2021 009f 13       		.uleb128 0x13
 2022 00a0 00       		.byte	0
 2023 00a1 00       		.byte	0
 2024 00a2 0D       		.uleb128 0xd
 2025 00a3 05       		.uleb128 0x5
 2026 00a4 00       		.byte	0
 2027 00a5 49       		.uleb128 0x49
 2028 00a6 13       		.uleb128 0x13
 2029 00a7 00       		.byte	0
 2030 00a8 00       		.byte	0
 2031 00a9 0E       		.uleb128 0xe
 2032 00aa 0F       		.uleb128 0xf
 2033 00ab 00       		.byte	0
 2034 00ac 0B       		.uleb128 0xb
 2035 00ad 0B       		.uleb128 0xb
 2036 00ae 00       		.byte	0
 2037 00af 00       		.byte	0
 2038 00b0 0F       		.uleb128 0xf
 2039 00b1 35       		.uleb128 0x35
 2040 00b2 00       		.byte	0
 2041 00b3 49       		.uleb128 0x49
 2042 00b4 13       		.uleb128 0x13
 2043 00b5 00       		.byte	0
 2044 00b6 00       		.byte	0
 2045 00b7 10       		.uleb128 0x10
 2046 00b8 01       		.uleb128 0x1
 2047 00b9 01       		.byte	0x1
 2048 00ba 49       		.uleb128 0x49
 2049 00bb 13       		.uleb128 0x13
 2050 00bc 01       		.uleb128 0x1
 2051 00bd 13       		.uleb128 0x13
 2052 00be 00       		.byte	0
ARM GAS  /tmp/cc6JER7H.s 			page 37


 2053 00bf 00       		.byte	0
 2054 00c0 11       		.uleb128 0x11
 2055 00c1 21       		.uleb128 0x21
 2056 00c2 00       		.byte	0
 2057 00c3 49       		.uleb128 0x49
 2058 00c4 13       		.uleb128 0x13
 2059 00c5 2F       		.uleb128 0x2f
 2060 00c6 0B       		.uleb128 0xb
 2061 00c7 00       		.byte	0
 2062 00c8 00       		.byte	0
 2063 00c9 12       		.uleb128 0x12
 2064 00ca 13       		.uleb128 0x13
 2065 00cb 01       		.byte	0x1
 2066 00cc 0B       		.uleb128 0xb
 2067 00cd 0B       		.uleb128 0xb
 2068 00ce 3A       		.uleb128 0x3a
 2069 00cf 0B       		.uleb128 0xb
 2070 00d0 3B       		.uleb128 0x3b
 2071 00d1 05       		.uleb128 0x5
 2072 00d2 01       		.uleb128 0x1
 2073 00d3 13       		.uleb128 0x13
 2074 00d4 00       		.byte	0
 2075 00d5 00       		.byte	0
 2076 00d6 13       		.uleb128 0x13
 2077 00d7 16       		.uleb128 0x16
 2078 00d8 00       		.byte	0
 2079 00d9 03       		.uleb128 0x3
 2080 00da 0E       		.uleb128 0xe
 2081 00db 3A       		.uleb128 0x3a
 2082 00dc 0B       		.uleb128 0xb
 2083 00dd 3B       		.uleb128 0x3b
 2084 00de 05       		.uleb128 0x5
 2085 00df 49       		.uleb128 0x49
 2086 00e0 13       		.uleb128 0x13
 2087 00e1 00       		.byte	0
 2088 00e2 00       		.byte	0
 2089 00e3 14       		.uleb128 0x14
 2090 00e4 13       		.uleb128 0x13
 2091 00e5 01       		.byte	0x1
 2092 00e6 0B       		.uleb128 0xb
 2093 00e7 0B       		.uleb128 0xb
 2094 00e8 3A       		.uleb128 0x3a
 2095 00e9 0B       		.uleb128 0xb
 2096 00ea 3B       		.uleb128 0x3b
 2097 00eb 0B       		.uleb128 0xb
 2098 00ec 01       		.uleb128 0x1
 2099 00ed 13       		.uleb128 0x13
 2100 00ee 00       		.byte	0
 2101 00ef 00       		.byte	0
 2102 00f0 15       		.uleb128 0x15
 2103 00f1 17       		.uleb128 0x17
 2104 00f2 01       		.byte	0x1
 2105 00f3 0B       		.uleb128 0xb
 2106 00f4 0B       		.uleb128 0xb
 2107 00f5 3A       		.uleb128 0x3a
 2108 00f6 0B       		.uleb128 0xb
 2109 00f7 3B       		.uleb128 0x3b
ARM GAS  /tmp/cc6JER7H.s 			page 38


 2110 00f8 0B       		.uleb128 0xb
 2111 00f9 01       		.uleb128 0x1
 2112 00fa 13       		.uleb128 0x13
 2113 00fb 00       		.byte	0
 2114 00fc 00       		.byte	0
 2115 00fd 16       		.uleb128 0x16
 2116 00fe 0D       		.uleb128 0xd
 2117 00ff 00       		.byte	0
 2118 0100 03       		.uleb128 0x3
 2119 0101 0E       		.uleb128 0xe
 2120 0102 3A       		.uleb128 0x3a
 2121 0103 0B       		.uleb128 0xb
 2122 0104 3B       		.uleb128 0x3b
 2123 0105 0B       		.uleb128 0xb
 2124 0106 49       		.uleb128 0x49
 2125 0107 13       		.uleb128 0x13
 2126 0108 00       		.byte	0
 2127 0109 00       		.byte	0
 2128 010a 17       		.uleb128 0x17
 2129 010b 0D       		.uleb128 0xd
 2130 010c 00       		.byte	0
 2131 010d 03       		.uleb128 0x3
 2132 010e 0E       		.uleb128 0xe
 2133 010f 3A       		.uleb128 0x3a
 2134 0110 0B       		.uleb128 0xb
 2135 0111 3B       		.uleb128 0x3b
 2136 0112 05       		.uleb128 0x5
 2137 0113 49       		.uleb128 0x49
 2138 0114 13       		.uleb128 0x13
 2139 0115 00       		.byte	0
 2140 0116 00       		.byte	0
 2141 0117 18       		.uleb128 0x18
 2142 0118 26       		.uleb128 0x26
 2143 0119 00       		.byte	0
 2144 011a 49       		.uleb128 0x49
 2145 011b 13       		.uleb128 0x13
 2146 011c 00       		.byte	0
 2147 011d 00       		.byte	0
 2148 011e 19       		.uleb128 0x19
 2149 011f 2E       		.uleb128 0x2e
 2150 0120 00       		.byte	0
 2151 0121 03       		.uleb128 0x3
 2152 0122 0E       		.uleb128 0xe
 2153 0123 3A       		.uleb128 0x3a
 2154 0124 0B       		.uleb128 0xb
 2155 0125 3B       		.uleb128 0x3b
 2156 0126 0B       		.uleb128 0xb
 2157 0127 27       		.uleb128 0x27
 2158 0128 19       		.uleb128 0x19
 2159 0129 49       		.uleb128 0x49
 2160 012a 13       		.uleb128 0x13
 2161 012b 20       		.uleb128 0x20
 2162 012c 0B       		.uleb128 0xb
 2163 012d 00       		.byte	0
 2164 012e 00       		.byte	0
 2165 012f 1A       		.uleb128 0x1a
 2166 0130 2E       		.uleb128 0x2e
ARM GAS  /tmp/cc6JER7H.s 			page 39


 2167 0131 01       		.byte	0x1
 2168 0132 03       		.uleb128 0x3
 2169 0133 0E       		.uleb128 0xe
 2170 0134 3A       		.uleb128 0x3a
 2171 0135 0B       		.uleb128 0xb
 2172 0136 3B       		.uleb128 0x3b
 2173 0137 05       		.uleb128 0x5
 2174 0138 27       		.uleb128 0x27
 2175 0139 19       		.uleb128 0x19
 2176 013a 49       		.uleb128 0x49
 2177 013b 13       		.uleb128 0x13
 2178 013c 20       		.uleb128 0x20
 2179 013d 0B       		.uleb128 0xb
 2180 013e 01       		.uleb128 0x1
 2181 013f 13       		.uleb128 0x13
 2182 0140 00       		.byte	0
 2183 0141 00       		.byte	0
 2184 0142 1B       		.uleb128 0x1b
 2185 0143 05       		.uleb128 0x5
 2186 0144 00       		.byte	0
 2187 0145 03       		.uleb128 0x3
 2188 0146 0E       		.uleb128 0xe
 2189 0147 3A       		.uleb128 0x3a
 2190 0148 0B       		.uleb128 0xb
 2191 0149 3B       		.uleb128 0x3b
 2192 014a 05       		.uleb128 0x5
 2193 014b 49       		.uleb128 0x49
 2194 014c 13       		.uleb128 0x13
 2195 014d 00       		.byte	0
 2196 014e 00       		.byte	0
 2197 014f 1C       		.uleb128 0x1c
 2198 0150 2E       		.uleb128 0x2e
 2199 0151 01       		.byte	0x1
 2200 0152 03       		.uleb128 0x3
 2201 0153 0E       		.uleb128 0xe
 2202 0154 3A       		.uleb128 0x3a
 2203 0155 0B       		.uleb128 0xb
 2204 0156 3B       		.uleb128 0x3b
 2205 0157 0B       		.uleb128 0xb
 2206 0158 27       		.uleb128 0x27
 2207 0159 19       		.uleb128 0x19
 2208 015a 20       		.uleb128 0x20
 2209 015b 0B       		.uleb128 0xb
 2210 015c 01       		.uleb128 0x1
 2211 015d 13       		.uleb128 0x13
 2212 015e 00       		.byte	0
 2213 015f 00       		.byte	0
 2214 0160 1D       		.uleb128 0x1d
 2215 0161 05       		.uleb128 0x5
 2216 0162 00       		.byte	0
 2217 0163 03       		.uleb128 0x3
 2218 0164 0E       		.uleb128 0xe
 2219 0165 3A       		.uleb128 0x3a
 2220 0166 0B       		.uleb128 0xb
 2221 0167 3B       		.uleb128 0x3b
 2222 0168 0B       		.uleb128 0xb
 2223 0169 49       		.uleb128 0x49
ARM GAS  /tmp/cc6JER7H.s 			page 40


 2224 016a 13       		.uleb128 0x13
 2225 016b 00       		.byte	0
 2226 016c 00       		.byte	0
 2227 016d 1E       		.uleb128 0x1e
 2228 016e 05       		.uleb128 0x5
 2229 016f 00       		.byte	0
 2230 0170 03       		.uleb128 0x3
 2231 0171 08       		.uleb128 0x8
 2232 0172 3A       		.uleb128 0x3a
 2233 0173 0B       		.uleb128 0xb
 2234 0174 3B       		.uleb128 0x3b
 2235 0175 05       		.uleb128 0x5
 2236 0176 49       		.uleb128 0x49
 2237 0177 13       		.uleb128 0x13
 2238 0178 00       		.byte	0
 2239 0179 00       		.byte	0
 2240 017a 1F       		.uleb128 0x1f
 2241 017b 2E       		.uleb128 0x2e
 2242 017c 00       		.byte	0
 2243 017d 03       		.uleb128 0x3
 2244 017e 0E       		.uleb128 0xe
 2245 017f 3A       		.uleb128 0x3a
 2246 0180 0B       		.uleb128 0xb
 2247 0181 3B       		.uleb128 0x3b
 2248 0182 0B       		.uleb128 0xb
 2249 0183 27       		.uleb128 0x27
 2250 0184 19       		.uleb128 0x19
 2251 0185 20       		.uleb128 0x20
 2252 0186 0B       		.uleb128 0xb
 2253 0187 00       		.byte	0
 2254 0188 00       		.byte	0
 2255 0189 20       		.uleb128 0x20
 2256 018a 2E       		.uleb128 0x2e
 2257 018b 00       		.byte	0
 2258 018c 3F       		.uleb128 0x3f
 2259 018d 19       		.uleb128 0x19
 2260 018e 03       		.uleb128 0x3
 2261 018f 0E       		.uleb128 0xe
 2262 0190 3A       		.uleb128 0x3a
 2263 0191 0B       		.uleb128 0xb
 2264 0192 3B       		.uleb128 0x3b
 2265 0193 0B       		.uleb128 0xb
 2266 0194 27       		.uleb128 0x27
 2267 0195 19       		.uleb128 0x19
 2268 0196 11       		.uleb128 0x11
 2269 0197 01       		.uleb128 0x1
 2270 0198 12       		.uleb128 0x12
 2271 0199 06       		.uleb128 0x6
 2272 019a 40       		.uleb128 0x40
 2273 019b 18       		.uleb128 0x18
 2274 019c 9742     		.uleb128 0x2117
 2275 019e 19       		.uleb128 0x19
 2276 019f 00       		.byte	0
 2277 01a0 00       		.byte	0
 2278 01a1 21       		.uleb128 0x21
 2279 01a2 2E       		.uleb128 0x2e
 2280 01a3 01       		.byte	0x1
ARM GAS  /tmp/cc6JER7H.s 			page 41


 2281 01a4 3F       		.uleb128 0x3f
 2282 01a5 19       		.uleb128 0x19
 2283 01a6 03       		.uleb128 0x3
 2284 01a7 0E       		.uleb128 0xe
 2285 01a8 3A       		.uleb128 0x3a
 2286 01a9 0B       		.uleb128 0xb
 2287 01aa 3B       		.uleb128 0x3b
 2288 01ab 0B       		.uleb128 0xb
 2289 01ac 27       		.uleb128 0x27
 2290 01ad 19       		.uleb128 0x19
 2291 01ae 11       		.uleb128 0x11
 2292 01af 01       		.uleb128 0x1
 2293 01b0 12       		.uleb128 0x12
 2294 01b1 06       		.uleb128 0x6
 2295 01b2 40       		.uleb128 0x40
 2296 01b3 18       		.uleb128 0x18
 2297 01b4 9742     		.uleb128 0x2117
 2298 01b6 19       		.uleb128 0x19
 2299 01b7 01       		.uleb128 0x1
 2300 01b8 13       		.uleb128 0x13
 2301 01b9 00       		.byte	0
 2302 01ba 00       		.byte	0
 2303 01bb 22       		.uleb128 0x22
 2304 01bc 05       		.uleb128 0x5
 2305 01bd 00       		.byte	0
 2306 01be 03       		.uleb128 0x3
 2307 01bf 08       		.uleb128 0x8
 2308 01c0 3A       		.uleb128 0x3a
 2309 01c1 0B       		.uleb128 0xb
 2310 01c2 3B       		.uleb128 0x3b
 2311 01c3 0B       		.uleb128 0xb
 2312 01c4 49       		.uleb128 0x49
 2313 01c5 13       		.uleb128 0x13
 2314 01c6 02       		.uleb128 0x2
 2315 01c7 17       		.uleb128 0x17
 2316 01c8 00       		.byte	0
 2317 01c9 00       		.byte	0
 2318 01ca 23       		.uleb128 0x23
 2319 01cb 05       		.uleb128 0x5
 2320 01cc 00       		.byte	0
 2321 01cd 03       		.uleb128 0x3
 2322 01ce 0E       		.uleb128 0xe
 2323 01cf 3A       		.uleb128 0x3a
 2324 01d0 0B       		.uleb128 0xb
 2325 01d1 3B       		.uleb128 0x3b
 2326 01d2 0B       		.uleb128 0xb
 2327 01d3 49       		.uleb128 0x49
 2328 01d4 13       		.uleb128 0x13
 2329 01d5 02       		.uleb128 0x2
 2330 01d6 17       		.uleb128 0x17
 2331 01d7 00       		.byte	0
 2332 01d8 00       		.byte	0
 2333 01d9 24       		.uleb128 0x24
 2334 01da 34       		.uleb128 0x34
 2335 01db 00       		.byte	0
 2336 01dc 03       		.uleb128 0x3
 2337 01dd 08       		.uleb128 0x8
ARM GAS  /tmp/cc6JER7H.s 			page 42


 2338 01de 3A       		.uleb128 0x3a
 2339 01df 0B       		.uleb128 0xb
 2340 01e0 3B       		.uleb128 0x3b
 2341 01e1 0B       		.uleb128 0xb
 2342 01e2 49       		.uleb128 0x49
 2343 01e3 13       		.uleb128 0x13
 2344 01e4 02       		.uleb128 0x2
 2345 01e5 17       		.uleb128 0x17
 2346 01e6 00       		.byte	0
 2347 01e7 00       		.byte	0
 2348 01e8 25       		.uleb128 0x25
 2349 01e9 34       		.uleb128 0x34
 2350 01ea 00       		.byte	0
 2351 01eb 03       		.uleb128 0x3
 2352 01ec 0E       		.uleb128 0xe
 2353 01ed 3A       		.uleb128 0x3a
 2354 01ee 0B       		.uleb128 0xb
 2355 01ef 3B       		.uleb128 0x3b
 2356 01f0 0B       		.uleb128 0xb
 2357 01f1 49       		.uleb128 0x49
 2358 01f2 13       		.uleb128 0x13
 2359 01f3 02       		.uleb128 0x2
 2360 01f4 17       		.uleb128 0x17
 2361 01f5 00       		.byte	0
 2362 01f6 00       		.byte	0
 2363 01f7 26       		.uleb128 0x26
 2364 01f8 34       		.uleb128 0x34
 2365 01f9 00       		.byte	0
 2366 01fa 03       		.uleb128 0x3
 2367 01fb 0E       		.uleb128 0xe
 2368 01fc 49       		.uleb128 0x49
 2369 01fd 13       		.uleb128 0x13
 2370 01fe 34       		.uleb128 0x34
 2371 01ff 19       		.uleb128 0x19
 2372 0200 00       		.byte	0
 2373 0201 00       		.byte	0
 2374 0202 27       		.uleb128 0x27
 2375 0203 0B       		.uleb128 0xb
 2376 0204 01       		.byte	0x1
 2377 0205 55       		.uleb128 0x55
 2378 0206 17       		.uleb128 0x17
 2379 0207 00       		.byte	0
 2380 0208 00       		.byte	0
 2381 0209 28       		.uleb128 0x28
 2382 020a 34       		.uleb128 0x34
 2383 020b 00       		.byte	0
 2384 020c 03       		.uleb128 0x3
 2385 020d 08       		.uleb128 0x8
 2386 020e 3A       		.uleb128 0x3a
 2387 020f 0B       		.uleb128 0xb
 2388 0210 3B       		.uleb128 0x3b
 2389 0211 0B       		.uleb128 0xb
 2390 0212 49       		.uleb128 0x49
 2391 0213 13       		.uleb128 0x13
 2392 0214 00       		.byte	0
 2393 0215 00       		.byte	0
 2394 0216 29       		.uleb128 0x29
ARM GAS  /tmp/cc6JER7H.s 			page 43


 2395 0217 1D       		.uleb128 0x1d
 2396 0218 01       		.byte	0x1
 2397 0219 31       		.uleb128 0x31
 2398 021a 13       		.uleb128 0x13
 2399 021b 52       		.uleb128 0x52
 2400 021c 01       		.uleb128 0x1
 2401 021d 55       		.uleb128 0x55
 2402 021e 17       		.uleb128 0x17
 2403 021f 58       		.uleb128 0x58
 2404 0220 0B       		.uleb128 0xb
 2405 0221 59       		.uleb128 0x59
 2406 0222 0B       		.uleb128 0xb
 2407 0223 01       		.uleb128 0x1
 2408 0224 13       		.uleb128 0x13
 2409 0225 00       		.byte	0
 2410 0226 00       		.byte	0
 2411 0227 2A       		.uleb128 0x2a
 2412 0228 1D       		.uleb128 0x1d
 2413 0229 01       		.byte	0x1
 2414 022a 31       		.uleb128 0x31
 2415 022b 13       		.uleb128 0x13
 2416 022c 52       		.uleb128 0x52
 2417 022d 01       		.uleb128 0x1
 2418 022e 55       		.uleb128 0x55
 2419 022f 17       		.uleb128 0x17
 2420 0230 58       		.uleb128 0x58
 2421 0231 0B       		.uleb128 0xb
 2422 0232 59       		.uleb128 0x59
 2423 0233 0B       		.uleb128 0xb
 2424 0234 00       		.byte	0
 2425 0235 00       		.byte	0
 2426 0236 2B       		.uleb128 0x2b
 2427 0237 1D       		.uleb128 0x1d
 2428 0238 00       		.byte	0
 2429 0239 31       		.uleb128 0x31
 2430 023a 13       		.uleb128 0x13
 2431 023b 52       		.uleb128 0x52
 2432 023c 01       		.uleb128 0x1
 2433 023d 55       		.uleb128 0x55
 2434 023e 17       		.uleb128 0x17
 2435 023f 58       		.uleb128 0x58
 2436 0240 0B       		.uleb128 0xb
 2437 0241 59       		.uleb128 0x59
 2438 0242 0B       		.uleb128 0xb
 2439 0243 00       		.byte	0
 2440 0244 00       		.byte	0
 2441 0245 2C       		.uleb128 0x2c
 2442 0246 05       		.uleb128 0x5
 2443 0247 00       		.byte	0
 2444 0248 31       		.uleb128 0x31
 2445 0249 13       		.uleb128 0x13
 2446 024a 00       		.byte	0
 2447 024b 00       		.byte	0
 2448 024c 2D       		.uleb128 0x2d
 2449 024d 898201   		.uleb128 0x4109
 2450 0250 00       		.byte	0
 2451 0251 11       		.uleb128 0x11
ARM GAS  /tmp/cc6JER7H.s 			page 44


 2452 0252 01       		.uleb128 0x1
 2453 0253 9542     		.uleb128 0x2115
 2454 0255 19       		.uleb128 0x19
 2455 0256 31       		.uleb128 0x31
 2456 0257 13       		.uleb128 0x13
 2457 0258 00       		.byte	0
 2458 0259 00       		.byte	0
 2459 025a 2E       		.uleb128 0x2e
 2460 025b 1D       		.uleb128 0x1d
 2461 025c 01       		.byte	0x1
 2462 025d 31       		.uleb128 0x31
 2463 025e 13       		.uleb128 0x13
 2464 025f 11       		.uleb128 0x11
 2465 0260 01       		.uleb128 0x1
 2466 0261 12       		.uleb128 0x12
 2467 0262 06       		.uleb128 0x6
 2468 0263 58       		.uleb128 0x58
 2469 0264 0B       		.uleb128 0xb
 2470 0265 59       		.uleb128 0x59
 2471 0266 0B       		.uleb128 0xb
 2472 0267 01       		.uleb128 0x1
 2473 0268 13       		.uleb128 0x13
 2474 0269 00       		.byte	0
 2475 026a 00       		.byte	0
 2476 026b 2F       		.uleb128 0x2f
 2477 026c 05       		.uleb128 0x5
 2478 026d 00       		.byte	0
 2479 026e 31       		.uleb128 0x31
 2480 026f 13       		.uleb128 0x13
 2481 0270 02       		.uleb128 0x2
 2482 0271 17       		.uleb128 0x17
 2483 0272 00       		.byte	0
 2484 0273 00       		.byte	0
 2485 0274 30       		.uleb128 0x30
 2486 0275 0B       		.uleb128 0xb
 2487 0276 01       		.byte	0x1
 2488 0277 11       		.uleb128 0x11
 2489 0278 01       		.uleb128 0x1
 2490 0279 12       		.uleb128 0x12
 2491 027a 06       		.uleb128 0x6
 2492 027b 00       		.byte	0
 2493 027c 00       		.byte	0
 2494 027d 31       		.uleb128 0x31
 2495 027e 1D       		.uleb128 0x1d
 2496 027f 01       		.byte	0x1
 2497 0280 31       		.uleb128 0x31
 2498 0281 13       		.uleb128 0x13
 2499 0282 11       		.uleb128 0x11
 2500 0283 01       		.uleb128 0x1
 2501 0284 12       		.uleb128 0x12
 2502 0285 06       		.uleb128 0x6
 2503 0286 58       		.uleb128 0x58
 2504 0287 0B       		.uleb128 0xb
 2505 0288 59       		.uleb128 0x59
 2506 0289 0B       		.uleb128 0xb
 2507 028a 00       		.byte	0
 2508 028b 00       		.byte	0
ARM GAS  /tmp/cc6JER7H.s 			page 45


 2509 028c 32       		.uleb128 0x32
 2510 028d 898201   		.uleb128 0x4109
 2511 0290 00       		.byte	0
 2512 0291 11       		.uleb128 0x11
 2513 0292 01       		.uleb128 0x1
 2514 0293 31       		.uleb128 0x31
 2515 0294 13       		.uleb128 0x13
 2516 0295 00       		.byte	0
 2517 0296 00       		.byte	0
 2518 0297 33       		.uleb128 0x33
 2519 0298 34       		.uleb128 0x34
 2520 0299 00       		.byte	0
 2521 029a 03       		.uleb128 0x3
 2522 029b 0E       		.uleb128 0xe
 2523 029c 3A       		.uleb128 0x3a
 2524 029d 0B       		.uleb128 0xb
 2525 029e 3B       		.uleb128 0x3b
 2526 029f 0B       		.uleb128 0xb
 2527 02a0 49       		.uleb128 0x49
 2528 02a1 13       		.uleb128 0x13
 2529 02a2 00       		.byte	0
 2530 02a3 00       		.byte	0
 2531 02a4 34       		.uleb128 0x34
 2532 02a5 1D       		.uleb128 0x1d
 2533 02a6 01       		.byte	0x1
 2534 02a7 31       		.uleb128 0x31
 2535 02a8 13       		.uleb128 0x13
 2536 02a9 52       		.uleb128 0x52
 2537 02aa 01       		.uleb128 0x1
 2538 02ab 55       		.uleb128 0x55
 2539 02ac 17       		.uleb128 0x17
 2540 02ad 58       		.uleb128 0x58
 2541 02ae 0B       		.uleb128 0xb
 2542 02af 59       		.uleb128 0x59
 2543 02b0 05       		.uleb128 0x5
 2544 02b1 01       		.uleb128 0x1
 2545 02b2 13       		.uleb128 0x13
 2546 02b3 00       		.byte	0
 2547 02b4 00       		.byte	0
 2548 02b5 35       		.uleb128 0x35
 2549 02b6 1D       		.uleb128 0x1d
 2550 02b7 01       		.byte	0x1
 2551 02b8 31       		.uleb128 0x31
 2552 02b9 13       		.uleb128 0x13
 2553 02ba 11       		.uleb128 0x11
 2554 02bb 01       		.uleb128 0x1
 2555 02bc 12       		.uleb128 0x12
 2556 02bd 06       		.uleb128 0x6
 2557 02be 58       		.uleb128 0x58
 2558 02bf 0B       		.uleb128 0xb
 2559 02c0 59       		.uleb128 0x59
 2560 02c1 05       		.uleb128 0x5
 2561 02c2 01       		.uleb128 0x1
 2562 02c3 13       		.uleb128 0x13
 2563 02c4 00       		.byte	0
 2564 02c5 00       		.byte	0
 2565 02c6 36       		.uleb128 0x36
ARM GAS  /tmp/cc6JER7H.s 			page 46


 2566 02c7 1D       		.uleb128 0x1d
 2567 02c8 01       		.byte	0x1
 2568 02c9 31       		.uleb128 0x31
 2569 02ca 13       		.uleb128 0x13
 2570 02cb 52       		.uleb128 0x52
 2571 02cc 01       		.uleb128 0x1
 2572 02cd 55       		.uleb128 0x55
 2573 02ce 17       		.uleb128 0x17
 2574 02cf 58       		.uleb128 0x58
 2575 02d0 0B       		.uleb128 0xb
 2576 02d1 59       		.uleb128 0x59
 2577 02d2 05       		.uleb128 0x5
 2578 02d3 00       		.byte	0
 2579 02d4 00       		.byte	0
 2580 02d5 37       		.uleb128 0x37
 2581 02d6 34       		.uleb128 0x34
 2582 02d7 00       		.byte	0
 2583 02d8 03       		.uleb128 0x3
 2584 02d9 0E       		.uleb128 0xe
 2585 02da 3A       		.uleb128 0x3a
 2586 02db 0B       		.uleb128 0xb
 2587 02dc 3B       		.uleb128 0x3b
 2588 02dd 05       		.uleb128 0x5
 2589 02de 49       		.uleb128 0x49
 2590 02df 13       		.uleb128 0x13
 2591 02e0 3F       		.uleb128 0x3f
 2592 02e1 19       		.uleb128 0x19
 2593 02e2 3C       		.uleb128 0x3c
 2594 02e3 19       		.uleb128 0x19
 2595 02e4 00       		.byte	0
 2596 02e5 00       		.byte	0
 2597 02e6 38       		.uleb128 0x38
 2598 02e7 34       		.uleb128 0x34
 2599 02e8 00       		.byte	0
 2600 02e9 03       		.uleb128 0x3
 2601 02ea 08       		.uleb128 0x8
 2602 02eb 3A       		.uleb128 0x3a
 2603 02ec 0B       		.uleb128 0xb
 2604 02ed 3B       		.uleb128 0x3b
 2605 02ee 05       		.uleb128 0x5
 2606 02ef 49       		.uleb128 0x49
 2607 02f0 13       		.uleb128 0x13
 2608 02f1 3F       		.uleb128 0x3f
 2609 02f2 19       		.uleb128 0x19
 2610 02f3 3C       		.uleb128 0x3c
 2611 02f4 19       		.uleb128 0x19
 2612 02f5 00       		.byte	0
 2613 02f6 00       		.byte	0
 2614 02f7 39       		.uleb128 0x39
 2615 02f8 2E       		.uleb128 0x2e
 2616 02f9 01       		.byte	0x1
 2617 02fa 3F       		.uleb128 0x3f
 2618 02fb 19       		.uleb128 0x19
 2619 02fc 03       		.uleb128 0x3
 2620 02fd 0E       		.uleb128 0xe
 2621 02fe 3A       		.uleb128 0x3a
 2622 02ff 0B       		.uleb128 0xb
ARM GAS  /tmp/cc6JER7H.s 			page 47


 2623 0300 3B       		.uleb128 0x3b
 2624 0301 0B       		.uleb128 0xb
 2625 0302 27       		.uleb128 0x27
 2626 0303 19       		.uleb128 0x19
 2627 0304 3C       		.uleb128 0x3c
 2628 0305 19       		.uleb128 0x19
 2629 0306 01       		.uleb128 0x1
 2630 0307 13       		.uleb128 0x13
 2631 0308 00       		.byte	0
 2632 0309 00       		.byte	0
 2633 030a 3A       		.uleb128 0x3a
 2634 030b 2E       		.uleb128 0x2e
 2635 030c 00       		.byte	0
 2636 030d 3F       		.uleb128 0x3f
 2637 030e 19       		.uleb128 0x19
 2638 030f 03       		.uleb128 0x3
 2639 0310 0E       		.uleb128 0xe
 2640 0311 3A       		.uleb128 0x3a
 2641 0312 0B       		.uleb128 0xb
 2642 0313 3B       		.uleb128 0x3b
 2643 0314 0B       		.uleb128 0xb
 2644 0315 27       		.uleb128 0x27
 2645 0316 19       		.uleb128 0x19
 2646 0317 3C       		.uleb128 0x3c
 2647 0318 19       		.uleb128 0x19
 2648 0319 00       		.byte	0
 2649 031a 00       		.byte	0
 2650 031b 00       		.byte	0
 2651              		.section	.debug_loc,"",%progbits
 2652              	.Ldebug_loc0:
 2653              	.LLST0:
 2654 0000 00000000 		.4byte	.LVL0
 2655 0004 2E000000 		.4byte	.LVL5
 2656 0008 0100     		.2byte	0x1
 2657 000a 50       		.byte	0x50
 2658 000b 2E000000 		.4byte	.LVL5
 2659 000f 32000000 		.4byte	.LVL6
 2660 0013 0100     		.2byte	0x1
 2661 0015 56       		.byte	0x56
 2662 0016 32000000 		.4byte	.LVL6
 2663 001a 35000000 		.4byte	.LVL7-1
 2664 001e 0200     		.2byte	0x2
 2665 0020 72       		.byte	0x72
 2666 0021 00       		.sleb128 0
 2667 0022 35000000 		.4byte	.LVL7-1
 2668 0026 36000000 		.4byte	.LVL7
 2669 002a 0400     		.2byte	0x4
 2670 002c F3       		.byte	0xf3
 2671 002d 01       		.uleb128 0x1
 2672 002e 50       		.byte	0x50
 2673 002f 9F       		.byte	0x9f
 2674 0030 36000000 		.4byte	.LVL7
 2675 0034 38000000 		.4byte	.LVL8
 2676 0038 0100     		.2byte	0x1
 2677 003a 50       		.byte	0x50
 2678 003b 38000000 		.4byte	.LVL8
 2679 003f 70000000 		.4byte	.LVL17
ARM GAS  /tmp/cc6JER7H.s 			page 48


 2680 0043 0100     		.2byte	0x1
 2681 0045 56       		.byte	0x56
 2682 0046 70000000 		.4byte	.LVL17
 2683 004a 78000000 		.4byte	.LFE291
 2684 004e 0400     		.2byte	0x4
 2685 0050 F3       		.byte	0xf3
 2686 0051 01       		.uleb128 0x1
 2687 0052 50       		.byte	0x50
 2688 0053 9F       		.byte	0x9f
 2689 0054 00000000 		.4byte	0
 2690 0058 00000000 		.4byte	0
 2691              	.LLST1:
 2692 005c 00000000 		.4byte	.LVL0
 2693 0060 14000000 		.4byte	.LVL3
 2694 0064 0100     		.2byte	0x1
 2695 0066 51       		.byte	0x51
 2696 0067 14000000 		.4byte	.LVL3
 2697 006b 35000000 		.4byte	.LVL7-1
 2698 006f 0100     		.2byte	0x1
 2699 0071 51       		.byte	0x51
 2700 0072 35000000 		.4byte	.LVL7-1
 2701 0076 36000000 		.4byte	.LVL7
 2702 007a 1700     		.2byte	0x17
 2703 007c F3       		.byte	0xf3
 2704 007d 01       		.uleb128 0x1
 2705 007e 51       		.byte	0x51
 2706 007f 32       		.byte	0x32
 2707 0080 F3       		.byte	0xf3
 2708 0081 01       		.uleb128 0x1
 2709 0082 51       		.byte	0x51
 2710 0083 40       		.byte	0x40
 2711 0084 4B       		.byte	0x4b
 2712 0085 24       		.byte	0x24
 2713 0086 22       		.byte	0x22
 2714 0087 0C       		.byte	0xc
 2715 0088 01000080 		.4byte	0x80000001
 2716 008c 2B       		.byte	0x2b
 2717 008d 28       		.byte	0x28
 2718 008e 0100     		.2byte	0x1
 2719 0090 16       		.byte	0x16
 2720 0091 13       		.byte	0x13
 2721 0092 9F       		.byte	0x9f
 2722 0093 36000000 		.4byte	.LVL7
 2723 0097 49000000 		.4byte	.LVL13-1
 2724 009b 0100     		.2byte	0x1
 2725 009d 51       		.byte	0x51
 2726 009e 49000000 		.4byte	.LVL13-1
 2727 00a2 78000000 		.4byte	.LFE291
 2728 00a6 1700     		.2byte	0x17
 2729 00a8 F3       		.byte	0xf3
 2730 00a9 01       		.uleb128 0x1
 2731 00aa 51       		.byte	0x51
 2732 00ab 32       		.byte	0x32
 2733 00ac F3       		.byte	0xf3
 2734 00ad 01       		.uleb128 0x1
 2735 00ae 51       		.byte	0x51
 2736 00af 40       		.byte	0x40
ARM GAS  /tmp/cc6JER7H.s 			page 49


 2737 00b0 4B       		.byte	0x4b
 2738 00b1 24       		.byte	0x24
 2739 00b2 22       		.byte	0x22
 2740 00b3 0C       		.byte	0xc
 2741 00b4 01000080 		.4byte	0x80000001
 2742 00b8 2B       		.byte	0x2b
 2743 00b9 28       		.byte	0x28
 2744 00ba 0100     		.2byte	0x1
 2745 00bc 16       		.byte	0x16
 2746 00bd 13       		.byte	0x13
 2747 00be 9F       		.byte	0x9f
 2748 00bf 00000000 		.4byte	0
 2749 00c3 00000000 		.4byte	0
 2750              	.LLST2:
 2751 00c7 00000000 		.4byte	.LVL0
 2752 00cb 0E000000 		.4byte	.LVL2
 2753 00cf 0100     		.2byte	0x1
 2754 00d1 52       		.byte	0x52
 2755 00d2 0E000000 		.4byte	.LVL2
 2756 00d6 2E000000 		.4byte	.LVL5
 2757 00da 0200     		.2byte	0x2
 2758 00dc 70       		.byte	0x70
 2759 00dd 0C       		.sleb128 12
 2760 00de 2E000000 		.4byte	.LVL5
 2761 00e2 32000000 		.4byte	.LVL6
 2762 00e6 0200     		.2byte	0x2
 2763 00e8 76       		.byte	0x76
 2764 00e9 0C       		.sleb128 12
 2765 00ea 32000000 		.4byte	.LVL6
 2766 00ee 35000000 		.4byte	.LVL7-1
 2767 00f2 0500     		.2byte	0x5
 2768 00f4 72       		.byte	0x72
 2769 00f5 00       		.sleb128 0
 2770 00f6 06       		.byte	0x6
 2771 00f7 23       		.byte	0x23
 2772 00f8 0C       		.uleb128 0xc
 2773 00f9 35000000 		.4byte	.LVL7-1
 2774 00fd 36000000 		.4byte	.LVL7
 2775 0101 0400     		.2byte	0x4
 2776 0103 F3       		.byte	0xf3
 2777 0104 01       		.uleb128 0x1
 2778 0105 52       		.byte	0x52
 2779 0106 9F       		.byte	0x9f
 2780 0107 36000000 		.4byte	.LVL7
 2781 010b 38000000 		.4byte	.LVL8
 2782 010f 0200     		.2byte	0x2
 2783 0111 70       		.byte	0x70
 2784 0112 0C       		.sleb128 12
 2785 0113 38000000 		.4byte	.LVL8
 2786 0117 49000000 		.4byte	.LVL13-1
 2787 011b 0200     		.2byte	0x2
 2788 011d 76       		.byte	0x76
 2789 011e 0C       		.sleb128 12
 2790 011f 49000000 		.4byte	.LVL13-1
 2791 0123 78000000 		.4byte	.LFE291
 2792 0127 0400     		.2byte	0x4
 2793 0129 F3       		.byte	0xf3
ARM GAS  /tmp/cc6JER7H.s 			page 50


 2794 012a 01       		.uleb128 0x1
 2795 012b 52       		.byte	0x52
 2796 012c 9F       		.byte	0x9f
 2797 012d 00000000 		.4byte	0
 2798 0131 00000000 		.4byte	0
 2799              	.LLST3:
 2800 0135 00000000 		.4byte	.LVL0
 2801 0139 06000000 		.4byte	.LVL1
 2802 013d 0100     		.2byte	0x1
 2803 013f 53       		.byte	0x53
 2804 0140 06000000 		.4byte	.LVL1
 2805 0144 2E000000 		.4byte	.LVL5
 2806 0148 0200     		.2byte	0x2
 2807 014a 70       		.byte	0x70
 2808 014b 10       		.sleb128 16
 2809 014c 2E000000 		.4byte	.LVL5
 2810 0150 32000000 		.4byte	.LVL6
 2811 0154 0200     		.2byte	0x2
 2812 0156 76       		.byte	0x76
 2813 0157 10       		.sleb128 16
 2814 0158 32000000 		.4byte	.LVL6
 2815 015c 35000000 		.4byte	.LVL7-1
 2816 0160 0500     		.2byte	0x5
 2817 0162 72       		.byte	0x72
 2818 0163 00       		.sleb128 0
 2819 0164 06       		.byte	0x6
 2820 0165 23       		.byte	0x23
 2821 0166 10       		.uleb128 0x10
 2822 0167 35000000 		.4byte	.LVL7-1
 2823 016b 36000000 		.4byte	.LVL7
 2824 016f 0400     		.2byte	0x4
 2825 0171 F3       		.byte	0xf3
 2826 0172 01       		.uleb128 0x1
 2827 0173 53       		.byte	0x53
 2828 0174 9F       		.byte	0x9f
 2829 0175 36000000 		.4byte	.LVL7
 2830 0179 38000000 		.4byte	.LVL8
 2831 017d 0200     		.2byte	0x2
 2832 017f 70       		.byte	0x70
 2833 0180 10       		.sleb128 16
 2834 0181 38000000 		.4byte	.LVL8
 2835 0185 49000000 		.4byte	.LVL13-1
 2836 0189 0200     		.2byte	0x2
 2837 018b 76       		.byte	0x76
 2838 018c 10       		.sleb128 16
 2839 018d 49000000 		.4byte	.LVL13-1
 2840 0191 78000000 		.4byte	.LFE291
 2841 0195 0400     		.2byte	0x4
 2842 0197 F3       		.byte	0xf3
 2843 0198 01       		.uleb128 0x1
 2844 0199 53       		.byte	0x53
 2845 019a 9F       		.byte	0x9f
 2846 019b 00000000 		.4byte	0
 2847 019f 00000000 		.4byte	0
 2848              	.LLST4:
 2849 01a3 36000000 		.4byte	.LVL7
 2850 01a7 4E000000 		.4byte	.LVL15
ARM GAS  /tmp/cc6JER7H.s 			page 51


 2851 01ab 0100     		.2byte	0x1
 2852 01ad 55       		.byte	0x55
 2853 01ae 50000000 		.4byte	.LVL16
 2854 01b2 70000000 		.4byte	.LVL17
 2855 01b6 0100     		.2byte	0x1
 2856 01b8 55       		.byte	0x55
 2857 01b9 00000000 		.4byte	0
 2858 01bd 00000000 		.4byte	0
 2859              	.LLST5:
 2860 01c1 3C000000 		.4byte	.LVL9
 2861 01c5 3E000000 		.4byte	.LVL10
 2862 01c9 0600     		.2byte	0x6
 2863 01cb 71       		.byte	0x71
 2864 01cc 00       		.sleb128 0
 2865 01cd 74       		.byte	0x74
 2866 01ce 00       		.sleb128 0
 2867 01cf 22       		.byte	0x22
 2868 01d0 9F       		.byte	0x9f
 2869 01d1 3E000000 		.4byte	.LVL10
 2870 01d5 70000000 		.4byte	.LVL17
 2871 01d9 0100     		.2byte	0x1
 2872 01db 54       		.byte	0x54
 2873 01dc 00000000 		.4byte	0
 2874 01e0 00000000 		.4byte	0
 2875              	.LLST6:
 2876 01e4 38000000 		.4byte	.LVL8
 2877 01e8 46000000 		.4byte	.LVL12
 2878 01ec 0100     		.2byte	0x1
 2879 01ee 50       		.byte	0x50
 2880 01ef 46000000 		.4byte	.LVL12
 2881 01f3 49000000 		.4byte	.LVL13-1
 2882 01f7 0200     		.2byte	0x2
 2883 01f9 77       		.byte	0x77
 2884 01fa 28       		.sleb128 40
 2885 01fb 00000000 		.4byte	0
 2886 01ff 00000000 		.4byte	0
 2887              	.LLST7:
 2888 0203 44000000 		.4byte	.LVL11
 2889 0207 4C000000 		.4byte	.LVL14
 2890 020b 0100     		.2byte	0x1
 2891 020d 54       		.byte	0x54
 2892 020e 00000000 		.4byte	0
 2893 0212 00000000 		.4byte	0
 2894              	.LLST8:
 2895 0216 44000000 		.4byte	.LVL11
 2896 021a 46000000 		.4byte	.LVL12
 2897 021e 0600     		.2byte	0x6
 2898 0220 74       		.byte	0x74
 2899 0221 00       		.sleb128 0
 2900 0222 70       		.byte	0x70
 2901 0223 00       		.sleb128 0
 2902 0224 22       		.byte	0x22
 2903 0225 9F       		.byte	0x9f
 2904 0226 46000000 		.4byte	.LVL12
 2905 022a 49000000 		.4byte	.LVL13-1
 2906 022e 0100     		.2byte	0x1
 2907 0230 50       		.byte	0x50
ARM GAS  /tmp/cc6JER7H.s 			page 52


 2908 0231 00000000 		.4byte	0
 2909 0235 00000000 		.4byte	0
 2910              	.LLST9:
 2911 0239 00000000 		.4byte	.LVL18
 2912 023d 32000000 		.4byte	.LVL19
 2913 0241 0100     		.2byte	0x1
 2914 0243 50       		.byte	0x50
 2915 0244 32000000 		.4byte	.LVL19
 2916 0248 74000000 		.4byte	.LFE292
 2917 024c 0400     		.2byte	0x4
 2918 024e F3       		.byte	0xf3
 2919 024f 01       		.uleb128 0x1
 2920 0250 50       		.byte	0x50
 2921 0251 9F       		.byte	0x9f
 2922 0252 00000000 		.4byte	0
 2923 0256 00000000 		.4byte	0
 2924              	.LLST10:
 2925 025a 56000000 		.4byte	.LVL23
 2926 025e 58000000 		.4byte	.LVL24
 2927 0262 0600     		.2byte	0x6
 2928 0264 73       		.byte	0x73
 2929 0265 00       		.sleb128 0
 2930 0266 72       		.byte	0x72
 2931 0267 00       		.sleb128 0
 2932 0268 1C       		.byte	0x1c
 2933 0269 9F       		.byte	0x9f
 2934 026a 58000000 		.4byte	.LVL24
 2935 026e 5E000000 		.4byte	.LVL25
 2936 0272 0100     		.2byte	0x1
 2937 0274 51       		.byte	0x51
 2938 0275 5E000000 		.4byte	.LVL25
 2939 0279 67000000 		.4byte	.LVL28-1
 2940 027d 0100     		.2byte	0x1
 2941 027f 53       		.byte	0x53
 2942 0280 00000000 		.4byte	0
 2943 0284 00000000 		.4byte	0
 2944              	.LLST11:
 2945 0288 50000000 		.4byte	.LVL21
 2946 028c 52000000 		.4byte	.LVL22
 2947 0290 0100     		.2byte	0x1
 2948 0292 52       		.byte	0x52
 2949 0293 00000000 		.4byte	0
 2950 0297 00000000 		.4byte	0
 2951              	.LLST12:
 2952 029b 50000000 		.4byte	.LVL21
 2953 029f 60000000 		.4byte	.LVL26
 2954 02a3 0100     		.2byte	0x1
 2955 02a5 50       		.byte	0x50
 2956 02a6 60000000 		.4byte	.LVL26
 2957 02aa 64000000 		.4byte	.LVL27
 2958 02ae 0200     		.2byte	0x2
 2959 02b0 74       		.byte	0x74
 2960 02b1 28       		.sleb128 40
 2961 02b2 00000000 		.4byte	0
 2962 02b6 00000000 		.4byte	0
 2963              	.LLST13:
 2964 02ba 5E000000 		.4byte	.LVL25
ARM GAS  /tmp/cc6JER7H.s 			page 53


 2965 02be 60000000 		.4byte	.LVL26
 2966 02c2 0600     		.2byte	0x6
 2967 02c4 73       		.byte	0x73
 2968 02c5 00       		.sleb128 0
 2969 02c6 70       		.byte	0x70
 2970 02c7 00       		.sleb128 0
 2971 02c8 22       		.byte	0x22
 2972 02c9 9F       		.byte	0x9f
 2973 02ca 60000000 		.4byte	.LVL26
 2974 02ce 67000000 		.4byte	.LVL28-1
 2975 02d2 0100     		.2byte	0x1
 2976 02d4 50       		.byte	0x50
 2977 02d5 00000000 		.4byte	0
 2978 02d9 00000000 		.4byte	0
 2979              		.section	.debug_aranges,"",%progbits
 2980 0000 2C000000 		.4byte	0x2c
 2981 0004 0200     		.2byte	0x2
 2982 0006 00000000 		.4byte	.Ldebug_info0
 2983 000a 04       		.byte	0x4
 2984 000b 00       		.byte	0
 2985 000c 0000     		.2byte	0
 2986 000e 0000     		.2byte	0
 2987 0010 00000000 		.4byte	.LFB290
 2988 0014 1C000000 		.4byte	.LFE290-.LFB290
 2989 0018 00000000 		.4byte	.LFB291
 2990 001c 78000000 		.4byte	.LFE291-.LFB291
 2991 0020 00000000 		.4byte	.LFB292
 2992 0024 74000000 		.4byte	.LFE292-.LFB292
 2993 0028 00000000 		.4byte	0
 2994 002c 00000000 		.4byte	0
 2995              		.section	.debug_ranges,"",%progbits
 2996              	.Ldebug_ranges0:
 2997 0000 04000000 		.4byte	.LBB40
 2998 0004 06000000 		.4byte	.LBE40
 2999 0008 08000000 		.4byte	.LBB58
 3000 000c 1A000000 		.4byte	.LBE58
 3001 0010 1E000000 		.4byte	.LBB59
 3002 0014 2E000000 		.4byte	.LBE59
 3003 0018 32000000 		.4byte	.LBB60
 3004 001c 4C000000 		.4byte	.LBE60
 3005 0020 00000000 		.4byte	0
 3006 0024 00000000 		.4byte	0
 3007 0028 04000000 		.4byte	.LBB41
 3008 002c 06000000 		.4byte	.LBE41
 3009 0030 08000000 		.4byte	.LBB48
 3010 0034 0A000000 		.4byte	.LBE48
 3011 0038 00000000 		.4byte	0
 3012 003c 00000000 		.4byte	0
 3013 0040 2C000000 		.4byte	.LBB49
 3014 0044 2E000000 		.4byte	.LBE49
 3015 0048 32000000 		.4byte	.LBB52
 3016 004c 36000000 		.4byte	.LBE52
 3017 0050 00000000 		.4byte	0
 3018 0054 00000000 		.4byte	0
 3019 0058 4A000000 		.4byte	.LBB63
 3020 005c 4C000000 		.4byte	.LBE63
 3021 0060 4E000000 		.4byte	.LBB70
ARM GAS  /tmp/cc6JER7H.s 			page 54


 3022 0064 50000000 		.4byte	.LBE70
 3023 0068 00000000 		.4byte	0
 3024 006c 00000000 		.4byte	0
 3025 0070 5E000000 		.4byte	.LBB73
 3026 0074 60000000 		.4byte	.LBE73
 3027 0078 64000000 		.4byte	.LBB76
 3028 007c 74000000 		.4byte	.LBE76
 3029 0080 00000000 		.4byte	0
 3030 0084 00000000 		.4byte	0
 3031 0088 00000000 		.4byte	.LFB290
 3032 008c 1C000000 		.4byte	.LFE290
 3033 0090 00000000 		.4byte	.LFB291
 3034 0094 78000000 		.4byte	.LFE291
 3035 0098 00000000 		.4byte	.LFB292
 3036 009c 74000000 		.4byte	.LFE292
 3037 00a0 00000000 		.4byte	0
 3038 00a4 00000000 		.4byte	0
 3039              		.section	.debug_line,"",%progbits
 3040              	.Ldebug_line0:
 3041 0000 6D030000 		.section	.debug_str,"MS",%progbits,1
 3041      02008402 
 3041      00000201 
 3041      FB0E0D00 
 3041      01010101 
 3042              	.LASF52:
 3043 0000 72656164 		.ascii	"ready_list_t\000"
 3043      795F6C69 
 3043      73745F74 
 3043      00
 3044              	.LASF80:
 3045 000d 44494552 		.ascii	"DIER\000"
 3045      00
 3046              	.LASF104:
 3047 0012 77747472 		.ascii	"wttrp\000"
 3047      7000
 3048              	.LASF48:
 3049 0018 6E657874 		.ascii	"next\000"
 3049      00
 3050              	.LASF58:
 3051 001d 64656C74 		.ascii	"delta\000"
 3051      6100
 3052              	.LASF101:
 3053 0023 7264796D 		.ascii	"rdymsg\000"
 3053      736700
 3054              	.LASF16:
 3055 002a 75696E74 		.ascii	"uint64_t\000"
 3055      36345F74 
 3055      00
 3056              	.LASF71:
 3057 0033 6B65726E 		.ascii	"kernel_stats\000"
 3057      656C5F73 
 3057      74617473 
 3057      00
 3058              	.LASF24:
 3059 0040 6576656E 		.ascii	"eventmask_t\000"
 3059      746D6173 
 3059      6B5F7400 
ARM GAS  /tmp/cc6JER7H.s 			page 55


 3060              	.LASF5:
 3061 004c 5F5F7569 		.ascii	"__uint8_t\000"
 3061      6E74385F 
 3061      7400
 3062              	.LASF23:
 3063 0056 6D73675F 		.ascii	"msg_t\000"
 3063      7400
 3064              	.LASF51:
 3065 005c 70726576 		.ascii	"prev\000"
 3065      00
 3066              	.LASF78:
 3067 0061 706F7274 		.ascii	"port_intctx\000"
 3067      5F696E74 
 3067      63747800 
 3068              	.LASF50:
 3069 006d 63685F74 		.ascii	"ch_threads_queue\000"
 3069      68726561 
 3069      64735F71 
 3069      75657565 
 3069      00
 3070              	.LASF63:
 3071 007e 73797374 		.ascii	"system_debug_t\000"
 3071      656D5F64 
 3071      65627567 
 3071      5F7400
 3072              	.LASF82:
 3073 008d 43434D52 		.ascii	"CCMR2\000"
 3073      3200
 3074              	.LASF92:
 3075 0093 776F7273 		.ascii	"worst\000"
 3075      7400
 3076              	.LASF95:
 3077 0099 74696D65 		.ascii	"time_measurement_t\000"
 3077      5F6D6561 
 3077      73757265 
 3077      6D656E74 
 3077      5F7400
 3078              	.LASF12:
 3079 00ac 6C6F6E67 		.ascii	"long long unsigned int\000"
 3079      206C6F6E 
 3079      6720756E 
 3079      7369676E 
 3079      65642069 
 3080              	.LASF130:
 3081 00c3 63685654 		.ascii	"chVTDoResetI\000"
 3081      446F5265 
 3081      73657449 
 3081      00
 3082              	.LASF102:
 3083 00d0 65786974 		.ascii	"exitcode\000"
 3083      636F6465 
 3083      00
 3084              	.LASF70:
 3085 00d9 6D61696E 		.ascii	"mainthread\000"
 3085      74687265 
 3085      616400
 3086              	.LASF105:
ARM GAS  /tmp/cc6JER7H.s 			page 56


 3087 00e4 73656E74 		.ascii	"sentmsg\000"
 3087      6D736700 
 3088              	.LASF60:
 3089 00ec 76697274 		.ascii	"virtual_timers_list_t\000"
 3089      75616C5F 
 3089      74696D65 
 3089      72735F6C 
 3089      6973745F 
 3090              	.LASF133:
 3091 0102 49544D5F 		.ascii	"ITM_RxBuffer\000"
 3091      52784275 
 3091      66666572 
 3091      00
 3092              	.LASF84:
 3093 010f 42445452 		.ascii	"BDTR\000"
 3093      00
 3094              	.LASF18:
 3095 0114 72747469 		.ascii	"rttime_t\000"
 3095      6D655F74 
 3095      00
 3096              	.LASF81:
 3097 011d 43434D52 		.ascii	"CCMR1\000"
 3097      3100
 3098              	.LASF140:
 3099 0123 5F76745F 		.ascii	"_vt_init\000"
 3099      696E6974 
 3099      00
 3100              	.LASF86:
 3101 012c 43434D52 		.ascii	"CCMR3\000"
 3101      3300
 3102              	.LASF1:
 3103 0132 7369676E 		.ascii	"signed char\000"
 3103      65642063 
 3103      68617200 
 3104              	.LASF69:
 3105 013e 76746C69 		.ascii	"vtlist\000"
 3105      737400
 3106              	.LASF38:
 3107 0145 6D736771 		.ascii	"msgqueue\000"
 3107      75657565 
 3107      00
 3108              	.LASF34:
 3109 014e 73746174 		.ascii	"state\000"
 3109      6500
 3110              	.LASF7:
 3111 0154 6C6F6E67 		.ascii	"long int\000"
 3111      20696E74 
 3111      00
 3112              	.LASF20:
 3113 015d 74737461 		.ascii	"tstate_t\000"
 3113      74655F74 
 3113      00
 3114              	.LASF59:
 3115 0166 66756E63 		.ascii	"func\000"
 3115      00
 3116              	.LASF43:
 3117 016b 73746174 		.ascii	"stats\000"
ARM GAS  /tmp/cc6JER7H.s 			page 57


 3117      7300
 3118              	.LASF119:
 3119 0171 696E7465 		.ascii	"interval\000"
 3119      7276616C 
 3119      00
 3120              	.LASF8:
 3121 017a 5F5F7569 		.ascii	"__uint32_t\000"
 3121      6E743332 
 3121      5F7400
 3122              	.LASF75:
 3123 0185 72656761 		.ascii	"regarm_t\000"
 3123      726D5F74 
 3123      00
 3124              	.LASF64:
 3125 018e 63685F73 		.ascii	"ch_system_debug\000"
 3125      79737465 
 3125      6D5F6465 
 3125      62756700 
 3126              	.LASF37:
 3127 019e 77616974 		.ascii	"waiting\000"
 3127      696E6700 
 3128              	.LASF10:
 3129 01a6 6C6F6E67 		.ascii	"long long int\000"
 3129      206C6F6E 
 3129      6720696E 
 3129      7400
 3130              	.LASF73:
 3131 01b4 73797369 		.ascii	"sysinterval_t\000"
 3131      6E746572 
 3131      76616C5F 
 3131      7400
 3132              	.LASF25:
 3133 01c2 636E745F 		.ascii	"cnt_t\000"
 3133      7400
 3134              	.LASF117:
 3135 01c8 63685654 		.ascii	"chVTGetSystemTimeX\000"
 3135      47657453 
 3135      79737465 
 3135      6D54696D 
 3135      655800
 3136              	.LASF132:
 3137 01db 6E6F7764 		.ascii	"nowdelta\000"
 3137      656C7461 
 3137      00
 3138              	.LASF136:
 3139 01e4 474E5520 		.ascii	"GNU C 4.9.3 20150529 (prerelease) -mcpu=cortex-m4 -"
 3139      4320342E 
 3139      392E3320 
 3139      32303135 
 3139      30353239 
 3140 0217 6D666C6F 		.ascii	"mfloat-abi=hard -mfpu=fpv4-sp-d16 -mno-thumb-interw"
 3140      61742D61 
 3140      62693D68 
 3140      61726420 
 3140      2D6D6670 
 3141 024a 6F726B20 		.ascii	"ork -mthumb -g -Os -fomit-frame-pointer -falign-fun"
 3141      2D6D7468 
ARM GAS  /tmp/cc6JER7H.s 			page 58


 3141      756D6220 
 3141      2D67202D 
 3141      4F73202D 
 3142 027d 6374696F 		.ascii	"ctions=16 -ffunction-sections -fdata-sections -fno-"
 3142      6E733D31 
 3142      36202D66 
 3142      66756E63 
 3142      74696F6E 
 3143 02b0 636F6D6D 		.ascii	"common -fsingle-precision-constant\000"
 3143      6F6E202D 
 3143      6673696E 
 3143      676C652D 
 3143      70726563 
 3144              	.LASF106:
 3145 02d3 77747365 		.ascii	"wtsemp\000"
 3145      6D7000
 3146              	.LASF128:
 3147 02da 64656164 		.ascii	"deadline_delta\000"
 3147      6C696E65 
 3147      5F64656C 
 3147      746100
 3148              	.LASF96:
 3149 02e9 6E5F6972 		.ascii	"n_irq\000"
 3149      7100
 3150              	.LASF28:
 3151 02ef 71756575 		.ascii	"queue\000"
 3151      6500
 3152              	.LASF42:
 3153 02f5 6D706F6F 		.ascii	"mpool\000"
 3153      6C00
 3154              	.LASF91:
 3155 02fb 62657374 		.ascii	"best\000"
 3155      00
 3156              	.LASF79:
 3157 0300 534D4352 		.ascii	"SMCR\000"
 3157      00
 3158              	.LASF100:
 3159 0305 6B65726E 		.ascii	"kernel_stats_t\000"
 3159      656C5F73 
 3159      74617473 
 3159      5F7400
 3160              	.LASF32:
 3161 0314 6E616D65 		.ascii	"name\000"
 3161      00
 3162              	.LASF46:
 3163 0319 63685F74 		.ascii	"ch_thread\000"
 3163      68726561 
 3163      6400
 3164              	.LASF124:
 3165 0323 706F7274 		.ascii	"port_timer_start_alarm\000"
 3165      5F74696D 
 3165      65725F73 
 3165      74617274 
 3165      5F616C61 
 3166              	.LASF93:
 3167 033a 6C617374 		.ascii	"last\000"
 3167      00
ARM GAS  /tmp/cc6JER7H.s 			page 59


 3168              	.LASF26:
 3169 033f 75636E74 		.ascii	"ucnt_t\000"
 3169      5F7400
 3170              	.LASF39:
 3171 0346 6570656E 		.ascii	"epending\000"
 3171      64696E67 
 3171      00
 3172              	.LASF66:
 3173 034f 63685F73 		.ascii	"ch_system_t\000"
 3173      79737465 
 3173      6D5F7400 
 3174              	.LASF88:
 3175 035b 73746D33 		.ascii	"stm32_tim_t\000"
 3175      325F7469 
 3175      6D5F7400 
 3176              	.LASF118:
 3177 0367 73797374 		.ascii	"systime\000"
 3177      696D6500 
 3178              	.LASF99:
 3179 036f 6D5F6372 		.ascii	"m_crit_isr\000"
 3179      69745F69 
 3179      737200
 3180              	.LASF53:
 3181 037a 63685F72 		.ascii	"ch_ready_list\000"
 3181      65616479 
 3181      5F6C6973 
 3181      7400
 3182              	.LASF129:
 3183 0388 63685654 		.ascii	"chVTDoSetI\000"
 3183      446F5365 
 3183      744900
 3184              	.LASF6:
 3185 0393 5F5F696E 		.ascii	"__int32_t\000"
 3185      7433325F 
 3185      7400
 3186              	.LASF76:
 3187 039d 73746B61 		.ascii	"stkalign_t\000"
 3187      6C69676E 
 3187      5F7400
 3188              	.LASF30:
 3189 03a8 6E657765 		.ascii	"newer\000"
 3189      7200
 3190              	.LASF41:
 3191 03ae 7265616C 		.ascii	"realprio\000"
 3191      7072696F 
 3191      00
 3192              	.LASF74:
 3193 03b7 73697A65 		.ascii	"sizetype\000"
 3193      74797065 
 3193      00
 3194              	.LASF44:
 3195 03c0 74687265 		.ascii	"thread_reference_t\000"
 3195      61645F72 
 3195      65666572 
 3195      656E6365 
 3195      5F7400
 3196              	.LASF61:
ARM GAS  /tmp/cc6JER7H.s 			page 60


 3197 03d3 63685F76 		.ascii	"ch_virtual_timers_list\000"
 3197      69727475 
 3197      616C5F74 
 3197      696D6572 
 3197      735F6C69 
 3198              	.LASF77:
 3199 03ea 706F7274 		.ascii	"port_context\000"
 3199      5F636F6E 
 3199      74657874 
 3199      00
 3200              	.LASF90:
 3201 03f7 746D5F63 		.ascii	"tm_calibration_t\000"
 3201      616C6962 
 3201      72617469 
 3201      6F6E5F74 
 3201      00
 3202              	.LASF137:
 3203 0408 2E2E2F2E 		.ascii	"../../modules/ChibiOS/os/rt/src/chvt.c\000"
 3203      2E2F6D6F 
 3203      64756C65 
 3203      732F4368 
 3203      6962694F 
 3204              	.LASF120:
 3205 042f 74696D65 		.ascii	"time\000"
 3205      00
 3206              	.LASF29:
 3207 0434 7072696F 		.ascii	"prio\000"
 3207      00
 3208              	.LASF54:
 3209 0439 63757272 		.ascii	"current\000"
 3209      656E7400 
 3210              	.LASF121:
 3211 0441 63685469 		.ascii	"chTimeAddX\000"
 3211      6D654164 
 3211      645800
 3212              	.LASF11:
 3213 044c 5F5F7569 		.ascii	"__uint64_t\000"
 3213      6E743634 
 3213      5F7400
 3214              	.LASF94:
 3215 0457 63756D75 		.ascii	"cumulative\000"
 3215      6C617469 
 3215      766500
 3216              	.LASF21:
 3217 0462 74726566 		.ascii	"trefs_t\000"
 3217      735F7400 
 3218              	.LASF36:
 3219 046a 72656673 		.ascii	"refs\000"
 3219      00
 3220              	.LASF56:
 3221 046f 76697274 		.ascii	"virtual_timer_t\000"
 3221      75616C5F 
 3221      74696D65 
 3221      725F7400 
 3222              	.LASF122:
 3223 047f 63685469 		.ascii	"chTimeDiffX\000"
 3223      6D654469 
ARM GAS  /tmp/cc6JER7H.s 			page 61


 3223      66665800 
 3224              	.LASF22:
 3225 048b 74707269 		.ascii	"tprio_t\000"
 3225      6F5F7400 
 3226              	.LASF97:
 3227 0493 6E5F6374 		.ascii	"n_ctxswc\000"
 3227      78737763 
 3227      00
 3228              	.LASF114:
 3229 049c 5F426F6F 		.ascii	"_Bool\000"
 3229      6C00
 3230              	.LASF14:
 3231 04a2 696E7433 		.ascii	"int32_t\000"
 3231      325F7400 
 3232              	.LASF2:
 3233 04aa 756E7369 		.ascii	"unsigned char\000"
 3233      676E6564 
 3233      20636861 
 3233      7200
 3234              	.LASF126:
 3235 04b8 64656C61 		.ascii	"delay\000"
 3235      7900
 3236              	.LASF3:
 3237 04be 73686F72 		.ascii	"short int\000"
 3237      7420696E 
 3237      7400
 3238              	.LASF62:
 3239 04c8 6C617374 		.ascii	"lasttime\000"
 3239      74696D65 
 3239      00
 3240              	.LASF108:
 3241 04d1 65776D61 		.ascii	"ewmask\000"
 3241      736B00
 3242              	.LASF67:
 3243 04d8 63685F73 		.ascii	"ch_system\000"
 3243      79737465 
 3243      6D00
 3244              	.LASF13:
 3245 04e2 75696E74 		.ascii	"uint8_t\000"
 3245      385F7400 
 3246              	.LASF131:
 3247 04ea 5F5F6675 		.ascii	"__func__\000"
 3247      6E635F5F 
 3247      00
 3248              	.LASF57:
 3249 04f3 63685F76 		.ascii	"ch_virtual_timer\000"
 3249      69727475 
 3249      616C5F74 
 3249      696D6572 
 3249      00
 3250              	.LASF109:
 3251 0504 63685F73 		.ascii	"ch_semaphore\000"
 3251      656D6170 
 3251      686F7265 
 3251      00
 3252              	.LASF87:
 3253 0511 43435852 		.ascii	"CCXR\000"
ARM GAS  /tmp/cc6JER7H.s 			page 62


 3253      00
 3254              	.LASF115:
 3255 0516 73745F6C 		.ascii	"st_lld_get_counter\000"
 3255      6C645F67 
 3255      65745F63 
 3255      6F756E74 
 3255      657200
 3256              	.LASF15:
 3257 0529 75696E74 		.ascii	"uint32_t\000"
 3257      33325F74 
 3257      00
 3258              	.LASF107:
 3259 0532 77746D74 		.ascii	"wtmtxp\000"
 3259      787000
 3260              	.LASF47:
 3261 0539 63685F74 		.ascii	"ch_threads_list\000"
 3261      68726561 
 3261      64735F6C 
 3261      69737400 
 3262              	.LASF111:
 3263 0549 6F776E65 		.ascii	"owner\000"
 3263      7200
 3264              	.LASF9:
 3265 054f 6C6F6E67 		.ascii	"long unsigned int\000"
 3265      20756E73 
 3265      69676E65 
 3265      6420696E 
 3265      7400
 3266              	.LASF33:
 3267 0561 77616261 		.ascii	"wabase\000"
 3267      736500
 3268              	.LASF141:
 3269 0568 73745374 		.ascii	"stStopAlarm\000"
 3269      6F70416C 
 3269      61726D00 
 3270              	.LASF112:
 3271 0574 63686172 		.ascii	"char\000"
 3271      00
 3272              	.LASF31:
 3273 0579 6F6C6465 		.ascii	"older\000"
 3273      7200
 3274              	.LASF0:
 3275 057f 756E7369 		.ascii	"unsigned int\000"
 3275      676E6564 
 3275      20696E74 
 3275      00
 3276              	.LASF85:
 3277 058c 444D4152 		.ascii	"DMAR\000"
 3277      00
 3278              	.LASF27:
 3279 0591 74687265 		.ascii	"thread_t\000"
 3279      61645F74 
 3279      00
 3280              	.LASF83:
 3281 059a 43434552 		.ascii	"CCER\000"
 3281      00
 3282              	.LASF72:
ARM GAS  /tmp/cc6JER7H.s 			page 63


 3283 059f 73797374 		.ascii	"systime_t\000"
 3283      696D655F 
 3283      7400
 3284              	.LASF55:
 3285 05a9 76746675 		.ascii	"vtfunc_t\000"
 3285      6E635F74 
 3285      00
 3286              	.LASF65:
 3287 05b2 70616E69 		.ascii	"panic_msg\000"
 3287      635F6D73 
 3287      6700
 3288              	.LASF89:
 3289 05bc 6F666673 		.ascii	"offset\000"
 3289      657400
 3290              	.LASF134:
 3291 05c3 73745374 		.ascii	"stStartAlarm\000"
 3291      61727441 
 3291      6C61726D 
 3291      00
 3292              	.LASF4:
 3293 05d0 73686F72 		.ascii	"short unsigned int\000"
 3293      7420756E 
 3293      7369676E 
 3293      65642069 
 3293      6E7400
 3294              	.LASF138:
 3295 05e3 2F686F6D 		.ascii	"/home/kozinalexey/f4by/ardupilot/build/F4BY\000"
 3295      652F6B6F 
 3295      7A696E61 
 3295      6C657865 
 3295      792F6634 
 3296              	.LASF116:
 3297 060f 706F7274 		.ascii	"port_timer_get_time\000"
 3297      5F74696D 
 3297      65725F67 
 3297      65745F74 
 3297      696D6500 
 3298              	.LASF17:
 3299 0623 7274636E 		.ascii	"rtcnt_t\000"
 3299      745F7400 
 3300              	.LASF127:
 3301 062b 76746675 		.ascii	"vtfunc\000"
 3301      6E6300
 3302              	.LASF49:
 3303 0632 74687265 		.ascii	"threads_queue_t\000"
 3303      6164735F 
 3303      71756575 
 3303      655F7400 
 3304              	.LASF110:
 3305 0642 63685F6D 		.ascii	"ch_mutex\000"
 3305      75746578 
 3305      00
 3306              	.LASF68:
 3307 064b 726C6973 		.ascii	"rlist\000"
 3307      7400
 3308              	.LASF135:
 3309 0651 73745365 		.ascii	"stSetAlarm\000"
ARM GAS  /tmp/cc6JER7H.s 			page 64


 3309      74416C61 
 3309      726D00
 3310              	.LASF35:
 3311 065c 666C6167 		.ascii	"flags\000"
 3311      7300
 3312              	.LASF139:
 3313 0662 706F7274 		.ascii	"port_timer_stop_alarm\000"
 3313      5F74696D 
 3313      65725F73 
 3313      746F705F 
 3313      616C6172 
 3314              	.LASF125:
 3315 0678 706F7274 		.ascii	"port_timer_set_alarm\000"
 3315      5F74696D 
 3315      65725F73 
 3315      65745F61 
 3315      6C61726D 
 3316              	.LASF103:
 3317 068d 77746F62 		.ascii	"wtobjp\000"
 3317      6A7000
 3318              	.LASF45:
 3319 0694 74687265 		.ascii	"threads_list_t\000"
 3319      6164735F 
 3319      6C697374 
 3319      5F7400
 3320              	.LASF19:
 3321 06a3 746D6F64 		.ascii	"tmode_t\000"
 3321      655F7400 
 3322              	.LASF123:
 3323 06ab 73746172 		.ascii	"start\000"
 3323      7400
 3324              	.LASF40:
 3325 06b1 6D74786C 		.ascii	"mtxlist\000"
 3325      69737400 
 3326              	.LASF113:
 3327 06b9 6D757465 		.ascii	"mutex_t\000"
 3327      785F7400 
 3328              	.LASF98:
 3329 06c1 6D5F6372 		.ascii	"m_crit_thd\000"
 3329      69745F74 
 3329      686400
 3330              		.ident	"GCC: (15:4.9.3+svn231177-1) 4.9.3 20150529 (prerelease)"
ARM GAS  /tmp/cc6JER7H.s 			page 65


DEFINED SYMBOLS
                            *ABS*:0000000000000000 chvt.c
     /tmp/cc6JER7H.s:21     .text._vt_init:0000000000000000 $t
     /tmp/cc6JER7H.s:26     .text._vt_init:0000000000000000 _vt_init
     /tmp/cc6JER7H.s:50     .text._vt_init:0000000000000018 $d
     /tmp/cc6JER7H.s:55     .text.chVTDoSetI:0000000000000000 $t
     /tmp/cc6JER7H.s:60     .text.chVTDoSetI:0000000000000000 chVTDoSetI
     /tmp/cc6JER7H.s:237    .text.chVTDoSetI:0000000000000070 $d
     /tmp/cc6JER7H.s:243    .text.chVTDoResetI:0000000000000000 $t
     /tmp/cc6JER7H.s:248    .text.chVTDoResetI:0000000000000000 chVTDoResetI
     /tmp/cc6JER7H.s:388    .text.chVTDoResetI:000000000000006c $d
                     .debug_frame:0000000000000010 $d

UNDEFINED SYMBOLS
ch
stStartAlarm
stSetAlarm
stStopAlarm
