ARM GAS  /tmp/cc6JER7H.s 			page 1


   1              		.syntax unified
   2              		.cpu cortex-m4
   3              		.eabi_attribute 27, 1
   4              		.eabi_attribute 28, 1
   5              		.fpu fpv4-sp-d16
   6              		.eabi_attribute 20, 1
   7              		.eabi_attribute 21, 1
   8              		.eabi_attribute 23, 3
   9              		.eabi_attribute 24, 1
  10              		.eabi_attribute 25, 1
  11              		.eabi_attribute 26, 1
  12              		.eabi_attribute 30, 4
  13              		.eabi_attribute 34, 1
  14              		.eabi_attribute 18, 4
  15              		.thumb
  16              		.file	"chvt.c"
  17              		.text
  18              	.Ltext0:
  19              		.cfi_sections	.debug_frame
  20              		.section	.text._vt_init,"ax",%progbits
  21              		.align	1
  22              		.global	_vt_init
  23              		.thumb
  24              		.thumb_func
  25              		.type	_vt_init, %function
  26              	_vt_init:
  27              	.LFB290:
  28              		.file 1 "../../modules/ChibiOS/os/rt/src/chvt.c"
  29              		.loc 1 61 0
  30              		.cfi_startproc
  31              		@ args = 0, pretend = 0, frame = 0
  32              		@ frame_needed = 0, uses_anonymous_args = 0
  33              		@ link register save eliminated.
  34              		.loc 1 63 0
  35 0000 054B     		ldr	r3, .L2
  36 0002 03F11C02 		add	r2, r3, #28
  37 0006 DA61     		str	r2, [r3, #28]
  38              		.loc 1 64 0
  39 0008 1A62     		str	r2, [r3, #32]
  40              		.loc 1 65 0
  41 000a 4FF0FF32 		mov	r2, #-1
  42 000e 5A62     		str	r2, [r3, #36]
  43              		.loc 1 69 0
  44 0010 0022     		movs	r2, #0
  45 0012 9A62     		str	r2, [r3, #40]
  46 0014 7047     		bx	lr
  47              	.L3:
  48 0016 00BF     		.align	2
  49              	.L2:
  50 0018 00000000 		.word	ch
  51              		.cfi_endproc
  52              	.LFE290:
  53              		.size	_vt_init, .-_vt_init
  54              		.section	.text.chVTDoSetI,"ax",%progbits
  55              		.align	1
  56              		.global	chVTDoSetI
  57              		.thumb
ARM GAS  /tmp/cc6JER7H.s 			page 2


  58              		.thumb_func
  59              		.type	chVTDoSetI, %function
  60              	chVTDoSetI:
  61              	.LFB291:
  62              		.loc 1 96 0
  63              		.cfi_startproc
  64              		@ args = 0, pretend = 0, frame = 0
  65              		@ frame_needed = 0, uses_anonymous_args = 0
  66              	.LVL0:
  67 0000 F8B5     		push	{r3, r4, r5, r6, r7, lr}
  68              		.cfi_def_cfa_offset 24
  69              		.cfi_offset 3, -24
  70              		.cfi_offset 4, -20
  71              		.cfi_offset 5, -16
  72              		.cfi_offset 6, -12
  73              		.cfi_offset 7, -8
  74              		.cfi_offset 14, -4
  75              		.loc 1 103 0
  76 0002 0361     		str	r3, [r0, #16]
  77              	.LBB40:
  78              	.LBB41:
  79              	.LBB42:
  80              	.LBB43:
  81              	.LBB44:
  82              		.file 2 "../../modules/ChibiOS/os/hal/ports/STM32/LLD/TIMv1/hal_st_lld.h"
  83              		.loc 2 147 0
  84 0004 1A4B     		ldr	r3, .L12
  85              	.LVL1:
  86              	.LBE44:
  87              	.LBE43:
  88              	.LBE42:
  89              	.LBE41:
  90              	.LBE40:
  91              		.loc 1 104 0
  92 0006 C260     		str	r2, [r0, #12]
  93              	.LBB58:
  94              	.LBB48:
  95              	.LBB47:
  96              	.LBB46:
  97              	.LBB45:
  98              		.loc 2 147 0
  99 0008 5C6A     		ldr	r4, [r3, #36]
 100              	.LBE45:
 101              	.LBE46:
 102              	.LBE47:
 103              	.LBE48:
 104              		.loc 1 117 0
 105 000a 1A4B     		ldr	r3, .L12+4
 106 000c 1A46     		mov	r2, r3
 107              	.LVL2:
 108              		.loc 1 113 0
 109 000e 0129     		cmp	r1, #1
 110 0010 98BF     		it	ls
 111 0012 0221     		movls	r1, #2
 112              	.LVL3:
 113              		.loc 1 117 0
 114 0014 52F81C5F 		ldr	r5, [r2, #28]!
ARM GAS  /tmp/cc6JER7H.s 			page 3


 115 0018 9542     		cmp	r5, r2
 116              	.LBE58:
 117              		.loc 1 96 0
 118 001a 0646     		mov	r6, r0
 119 001c 1F46     		mov	r7, r3
 120              	.LBB59:
 121              		.loc 1 117 0
 122 001e 0AD1     		bne	.L6
 123              		.loc 1 122 0
 124 0020 D861     		str	r0, [r3, #28]
 125              		.loc 1 123 0
 126 0022 1862     		str	r0, [r3, #32]
 127              		.loc 1 121 0
 128 0024 9C62     		str	r4, [r3, #40]
 129              		.loc 1 124 0
 130 0026 0560     		str	r5, [r0]
 131              		.loc 1 125 0
 132 0028 4560     		str	r5, [r0, #4]
 133              		.loc 1 126 0
 134 002a 8160     		str	r1, [r0, #8]
 135              	.LVL4:
 136              	.LBB49:
 137              	.LBB50:
 138              		.file 3 "../../modules/ChibiOS/os/common/ports/ARMCMx/chcore_timer.h"
 139              		.loc 3 73 0
 140 002c 0819     		adds	r0, r1, r4
 141              	.LVL5:
 142              	.LBE50:
 143              	.LBE49:
 144              	.LBE59:
 145              		.loc 1 201 0
 146 002e BDE8F840 		pop	{r3, r4, r5, r6, r7, lr}
 147              		.cfi_remember_state
 148              		.cfi_restore 14
 149              		.cfi_restore 7
 150              		.cfi_restore 6
 151              		.cfi_restore 5
 152              		.cfi_restore 4
 153              		.cfi_restore 3
 154              		.cfi_def_cfa_offset 0
 155              	.LVL6:
 156              	.LBB60:
 157              	.LBB52:
 158              	.LBB51:
 159              		.loc 3 73 0
 160 0032 FFF7FEBF 		b	stStartAlarm
 161              	.LVL7:
 162              	.L6:
 163              		.cfi_restore_state
 164              	.LBE51:
 165              	.LBE52:
 166              		.loc 1 146 0
 167 0036 986A     		ldr	r0, [r3, #40]
 168              	.LVL8:
 169 0038 AB68     		ldr	r3, [r5, #8]
 170              	.LBB53:
 171              	.LBB54:
ARM GAS  /tmp/cc6JER7H.s 			page 4


 172              		.file 4 "../../modules/ChibiOS/os/rt/include/chtime.h"
 173              		.loc 4 514 0
 174 003a 241A     		subs	r4, r4, r0
 175              	.LVL9:
 176              	.LBE54:
 177              	.LBE53:
 178              		.loc 1 148 0
 179 003c 0C19     		adds	r4, r1, r4
 180              	.LVL10:
 181 003e 05D2     		bcs	.L10
 182              		.loc 1 155 0
 183 0040 9C42     		cmp	r4, r3
 184 0042 05D2     		bcs	.L8
 185              	.LVL11:
 186              	.LBB55:
 187              	.LBB56:
 188              	.LBB57:
 189              		.loc 3 95 0
 190 0044 2044     		add	r0, r0, r4
 191              	.LVL12:
 192 0046 FFF7FEFF 		bl	stSetAlarm
 193              	.LVL13:
 194 004a 01E0     		b	.L8
 195              	.LVL14:
 196              	.L10:
 197              	.LBE57:
 198              	.LBE56:
 199              	.LBE55:
 200              	.LBE60:
 201              		.loc 1 185 0
 202 004c 2D68     		ldr	r5, [r5]
 203              	.LVL15:
 204              		.loc 1 184 0
 205 004e E41A     		subs	r4, r4, r3
 206              	.LVL16:
 207              	.L8:
 208              		.loc 1 180 0
 209 0050 AB68     		ldr	r3, [r5, #8]
 210 0052 A342     		cmp	r3, r4
 211 0054 FAD3     		bcc	.L10
 212              		.loc 1 190 0
 213 0056 6B68     		ldr	r3, [r5, #4]
 214 0058 7360     		str	r3, [r6, #4]
 215              		.loc 1 189 0
 216 005a 3560     		str	r5, [r6]
 217              		.loc 1 191 0
 218 005c 1E60     		str	r6, [r3]
 219              		.loc 1 192 0
 220 005e 6E60     		str	r6, [r5, #4]
 221              		.loc 1 193 0
 222 0060 B460     		str	r4, [r6, #8]
 223              		.loc 1 196 0
 224 0062 A968     		ldr	r1, [r5, #8]
 225              		.loc 1 200 0
 226 0064 4FF0FF33 		mov	r3, #-1
 227              		.loc 1 196 0
 228 0068 091B     		subs	r1, r1, r4
ARM GAS  /tmp/cc6JER7H.s 			page 5


 229 006a A960     		str	r1, [r5, #8]
 230              		.loc 1 200 0
 231 006c 7B62     		str	r3, [r7, #36]
 232 006e F8BD     		pop	{r3, r4, r5, r6, r7, pc}
 233              	.LVL17:
 234              	.L13:
 235              		.align	2
 236              	.L12:
 237 0070 000C0040 		.word	1073744896
 238 0074 00000000 		.word	ch
 239              		.cfi_endproc
 240              	.LFE291:
 241              		.size	chVTDoSetI, .-chVTDoSetI
 242              		.section	.text.chVTDoResetI,"ax",%progbits
 243              		.align	1
 244              		.global	chVTDoResetI
 245              		.thumb
 246              		.thumb_func
 247              		.type	chVTDoResetI, %function
 248              	chVTDoResetI:
 249              	.LFB292:
 250              		.loc 1 211 0
 251              		.cfi_startproc
 252              		@ args = 0, pretend = 0, frame = 0
 253              		@ frame_needed = 0, uses_anonymous_args = 0
 254              	.LVL18:
 255 0000 10B5     		push	{r4, lr}
 256              		.cfi_def_cfa_offset 8
 257              		.cfi_offset 4, -8
 258              		.cfi_offset 14, -4
 259              		.loc 1 235 0
 260 0002 1A4C     		ldr	r4, .L21
 261 0004 2346     		mov	r3, r4
 262 0006 53F81C1F 		ldr	r1, [r3, #28]!
 263 000a 8142     		cmp	r1, r0
 264 000c 0ED0     		beq	.L15
 265              		.loc 1 237 0
 266 000e 4168     		ldr	r1, [r0, #4]
 267 0010 0268     		ldr	r2, [r0]
 268 0012 0A60     		str	r2, [r1]
 269              		.loc 1 238 0
 270 0014 0268     		ldr	r2, [r0]
 271 0016 5160     		str	r1, [r2, #4]
 272              		.loc 1 242 0
 273 0018 9A42     		cmp	r2, r3
 274              		.loc 1 239 0
 275 001a 4FF00001 		mov	r1, #0
 276 001e C160     		str	r1, [r0, #12]
 277              		.loc 1 242 0
 278 0020 22D0     		beq	.L14
 279              		.loc 1 243 0
 280 0022 9168     		ldr	r1, [r2, #8]
 281 0024 8368     		ldr	r3, [r0, #8]
 282 0026 0B44     		add	r3, r3, r1
 283 0028 9360     		str	r3, [r2, #8]
 284 002a 10BD     		pop	{r4, pc}
 285              	.L15:
ARM GAS  /tmp/cc6JER7H.s 			page 6


 286              		.loc 1 249 0
 287 002c 0A68     		ldr	r2, [r1]
 288 002e E261     		str	r2, [r4, #28]
 289              		.loc 1 251 0
 290 0030 0020     		movs	r0, #0
 291              	.LVL19:
 292              		.loc 1 254 0
 293 0032 9A42     		cmp	r2, r3
 294              		.loc 1 250 0
 295 0034 5360     		str	r3, [r2, #4]
 296              		.loc 1 251 0
 297 0036 C860     		str	r0, [r1, #12]
 298              		.loc 1 254 0
 299 0038 03D1     		bne	.L18
 300              		.loc 1 297 0
 301 003a BDE81040 		pop	{r4, lr}
 302              		.cfi_remember_state
 303              		.cfi_restore 14
 304              		.cfi_restore 4
 305              		.cfi_def_cfa_offset 0
 306              	.LBB61:
 307              	.LBB62:
 308              		.loc 3 83 0
 309 003e FFF7FEBF 		b	stStopAlarm
 310              	.LVL20:
 311              	.L18:
 312              		.cfi_restore_state
 313              	.LBE62:
 314              	.LBE61:
 315              		.loc 1 261 0
 316 0042 8868     		ldr	r0, [r1, #8]
 317 0044 9368     		ldr	r3, [r2, #8]
 318 0046 0344     		add	r3, r3, r0
 319 0048 9360     		str	r3, [r2, #8]
 320              	.LBB63:
 321              	.LBB64:
 322              	.LBB65:
 323              	.LBB66:
 324              		.loc 2 147 0
 325 004a 094A     		ldr	r2, .L21+4
 326              	.LBE66:
 327              	.LBE65:
 328              	.LBE64:
 329              	.LBE63:
 330              		.loc 1 270 0
 331 004c A06A     		ldr	r0, [r4, #40]
 332              	.LBB70:
 333              	.LBB69:
 334              	.LBB68:
 335              	.LBB67:
 336              		.loc 2 147 0
 337 004e 526A     		ldr	r2, [r2, #36]
 338              	.LVL21:
 339              	.LBE67:
 340              	.LBE68:
 341              	.LBE69:
 342              	.LBE70:
ARM GAS  /tmp/cc6JER7H.s 			page 7


 343              	.LBB71:
 344              	.LBB72:
 345              		.loc 4 514 0
 346 0050 121A     		subs	r2, r2, r0
 347              	.LVL22:
 348              	.LBE72:
 349              	.LBE71:
 350              		.loc 1 274 0
 351 0052 9A42     		cmp	r2, r3
 352 0054 08D2     		bcs	.L14
 353              	.LVL23:
 354              		.loc 1 279 0
 355 0056 991A     		subs	r1, r3, r2
 356              	.LVL24:
 357              		.loc 1 283 0
 358 0058 0129     		cmp	r1, #1
 359              		.loc 1 284 0
 360 005a 98BF     		it	ls
 361 005c 931C     		addls	r3, r2, #2
 362              	.LVL25:
 363              	.LBB73:
 364              	.LBB74:
 365              		.loc 3 95 0
 366 005e 1844     		add	r0, r0, r3
 367              	.LVL26:
 368              	.LBE74:
 369              	.LBE73:
 370              		.loc 1 297 0
 371 0060 BDE81040 		pop	{r4, lr}
 372              		.cfi_remember_state
 373              		.cfi_restore 14
 374              		.cfi_restore 4
 375              		.cfi_def_cfa_offset 0
 376              	.LVL27:
 377              	.LBB76:
 378              	.LBB75:
 379              		.loc 3 95 0
 380 0064 FFF7FEBF 		b	stSetAlarm
 381              	.LVL28:
 382              	.L14:
 383              		.cfi_restore_state
 384 0068 10BD     		pop	{r4, pc}
 385              	.L22:
 386 006a 00BF     		.align	2
 387              	.L21:
 388 006c 00000000 		.word	ch
 389 0070 000C0040 		.word	1073744896
 390              	.LBE75:
 391              	.LBE76:
 392              		.cfi_endproc
 393              	.LFE292:
 394              		.size	chVTDoResetI, .-chVTDoResetI
 395              		.text
 396              	.Letext0:
 397              		.file 5 "/usr/include/newlib/machine/_default_types.h"
 398              		.file 6 "/usr/include/newlib/sys/_stdint.h"
 399              		.file 7 "../../modules/ChibiOS/os/common/ports/ARMCMx/compilers/GCC/chtypes.h"
ARM GAS  /tmp/cc6JER7H.s 			page 8


 400              		.file 8 "../../modules/ChibiOS/os/rt/include/chsystypes.h"
 401              		.file 9 "../../modules/ChibiOS/os/rt/include/chschd.h"
 402              		.file 10 "../../modules/ChibiOS/os/common/ports/ARMCMx/chcore.h"
 403              		.file 11 "../../modules/ChibiOS/os/common/ports/ARMCMx/chcore_v7m.h"
 404              		.file 12 "../../modules/ChibiOS/os/hal/ports/STM32/LLD/TIMv1/stm32_tim.h"
 405              		.file 13 "../../modules/ChibiOS/os/rt/include/chtm.h"
 406              		.file 14 "../../modules/ChibiOS/os/rt/include/chstats.h"
 407              		.file 15 "../../modules/ChibiOS/os/rt/include/chsem.h"
 408              		.file 16 "../../modules/ChibiOS/os/rt/include/chmtx.h"
 409              		.file 17 "../../modules/ChibiOS/os/rt/include/chvt.h"
 410              		.file 18 "../../modules/ChibiOS/os/hal/include/hal_st.h"
 411              		.file 19 "../../modules/ChibiOS/os/common/ext/ARM/CMSIS/Core/Include/core_cm4.h"