ARM GAS  /tmp/cc10cbgJ.s 			page 1


   1              		.syntax unified
   2              		.cpu cortex-m4
   3              		.eabi_attribute 27, 1
   4              		.eabi_attribute 28, 1
   5              		.fpu fpv4-sp-d16
   6              		.eabi_attribute 20, 1
   7              		.eabi_attribute 21, 1
   8              		.eabi_attribute 23, 3
   9              		.eabi_attribute 24, 1
  10              		.eabi_attribute 25, 1
  11              		.eabi_attribute 26, 1
  12              		.eabi_attribute 30, 4
  13              		.eabi_attribute 34, 1
  14              		.eabi_attribute 18, 4
  15              		.thumb
  16              		.file	"fatfs_diskio.c"
  17              		.text
  18              	.Ltext0:
  19              		.cfi_sections	.debug_frame
  20              		.section	.text.disk_initialize,"ax",%progbits
  21              		.align	1
  22              		.global	disk_initialize
  23              		.thumb
  24              		.thumb_func
  25              		.type	disk_initialize, %function
  26              	disk_initialize:
  27              	.LFB323:
  28              		.file 1 "../../modules/ChibiOS/os/various/fatfs_bindings/fatfs_diskio.c"
  29              		.loc 1 55 0
  30              		.cfi_startproc
  31              		@ args = 0, pretend = 0, frame = 0
  32              		@ frame_needed = 0, uses_anonymous_args = 0
  33              	.LVL0:
  34 0000 10B5     		push	{r4, lr}
  35              		.cfi_def_cfa_offset 8
  36              		.cfi_offset 4, -8
  37              		.cfi_offset 14, -4
  38              		.loc 1 58 0
  39 0002 58B9     		cbnz	r0, .L8
  40              	.LVL1:
  41              		.loc 1 63 0
  42 0004 0748     		ldr	r0, .L10
  43              	.LVL2:
  44 0006 0479     		ldrb	r4, [r0, #4]	@ zero_extendqisi2
  45              		.loc 1 61 0
  46 0008 053C     		subs	r4, r4, #5
  47 000a 18BF     		it	ne
  48 000c 0124     		movne	r4, #1
  49              	.LVL3:
  50              		.loc 1 65 0
  51 000e FFF7FEFF 		bl	mmc_lld_is_write_protected
  52              	.LVL4:
  53 0012 20B1     		cbz	r0, .L2
  54              		.loc 1 66 0
  55 0014 44F00404 		orr	r4, r4, #4
  56              	.LVL5:
  57 0018 E4B2     		uxtb	r4, r4
ARM GAS  /tmp/cc10cbgJ.s 			page 2


  58 001a 00E0     		b	.L2
  59              	.LVL6:
  60              	.L8:
  61              		.loc 1 79 0
  62 001c 0124     		movs	r4, #1
  63              	.LVL7:
  64              	.L2:
  65              		.loc 1 80 0
  66 001e 2046     		mov	r0, r4
  67 0020 10BD     		pop	{r4, pc}
  68              	.L11:
  69 0022 00BF     		.align	2
  70              	.L10:
  71 0024 00000000 		.word	MMCD1
  72              		.cfi_endproc
  73              	.LFE323:
  74              		.size	disk_initialize, .-disk_initialize
  75              		.section	.text.disk_status,"ax",%progbits
  76              		.align	1
  77              		.global	disk_status
  78              		.thumb
  79              		.thumb_func
  80              		.type	disk_status, %function
  81              	disk_status:
  82              	.LFB324:
  83              		.loc 1 90 0
  84              		.cfi_startproc
  85              		@ args = 0, pretend = 0, frame = 0
  86              		@ frame_needed = 0, uses_anonymous_args = 0
  87              	.LVL8:
  88 0000 10B5     		push	{r4, lr}
  89              		.cfi_def_cfa_offset 8
  90              		.cfi_offset 4, -8
  91              		.cfi_offset 14, -4
  92              		.loc 1 93 0
  93 0002 58B9     		cbnz	r0, .L19
  94              	.LVL9:
  95              		.loc 1 98 0
  96 0004 0748     		ldr	r0, .L20
  97              	.LVL10:
  98 0006 0479     		ldrb	r4, [r0, #4]	@ zero_extendqisi2
  99              		.loc 1 96 0
 100 0008 053C     		subs	r4, r4, #5
 101 000a 18BF     		it	ne
 102 000c 0124     		movne	r4, #1
 103              	.LVL11:
 104              		.loc 1 100 0
 105 000e FFF7FEFF 		bl	mmc_lld_is_write_protected
 106              	.LVL12:
 107 0012 20B1     		cbz	r0, .L13
 108              		.loc 1 101 0
 109 0014 44F00404 		orr	r4, r4, #4
 110              	.LVL13:
 111 0018 E4B2     		uxtb	r4, r4
 112 001a 00E0     		b	.L13
 113              	.LVL14:
 114              	.L19:
ARM GAS  /tmp/cc10cbgJ.s 			page 3


 115              		.loc 1 114 0
 116 001c 0124     		movs	r4, #1
 117              	.LVL15:
 118              	.L13:
 119              		.loc 1 115 0
 120 001e 2046     		mov	r0, r4
 121 0020 10BD     		pop	{r4, pc}
 122              	.L21:
 123 0022 00BF     		.align	2
 124              	.L20:
 125 0024 00000000 		.word	MMCD1
 126              		.cfi_endproc
 127              	.LFE324:
 128              		.size	disk_status, .-disk_status
 129              		.section	.text.disk_read,"ax",%progbits
 130              		.align	1
 131              		.global	disk_read
 132              		.thumb
 133              		.thumb_func
 134              		.type	disk_read, %function
 135              	disk_read:
 136              	.LFB325:
 137              		.loc 1 128 0
 138              		.cfi_startproc
 139              		@ args = 0, pretend = 0, frame = 0
 140              		@ frame_needed = 0, uses_anonymous_args = 0
 141              	.LVL16:
 142 0000 F8B5     		push	{r3, r4, r5, r6, r7, lr}
 143              		.cfi_def_cfa_offset 24
 144              		.cfi_offset 3, -24
 145              		.cfi_offset 4, -20
 146              		.cfi_offset 5, -16
 147              		.cfi_offset 6, -12
 148              		.cfi_offset 7, -8
 149              		.cfi_offset 14, -4
 150              		.loc 1 128 0
 151 0002 0E46     		mov	r6, r1
 152 0004 1746     		mov	r7, r2
 153 0006 1D46     		mov	r5, r3
 154              		.loc 1 129 0
 155 0008 48BB     		cbnz	r0, .L43
 156              		.loc 1 132 0
 157 000a 174B     		ldr	r3, .L44
 158              	.LVL17:
 159 000c 1C79     		ldrb	r4, [r3, #4]	@ zero_extendqisi2
 160 000e 052C     		cmp	r4, #5
 161 0010 27D1     		bne	.L34
 162              	.LVL18:
 163              	.L25:
 164              	.LBB2:
 165              		.loc 1 134 0 discriminator 5
 166 0012 1548     		ldr	r0, .L44
 167 0014 3946     		mov	r1, r7
 168 0016 FFF7FEFF 		bl	mmcStartSequentialRead
 169              	.LVL19:
 170 001a 90B1     		cbz	r0, .L27
 171 001c 013C     		subs	r4, r4, #1
ARM GAS  /tmp/cc10cbgJ.s 			page 4


 172              	.LVL20:
 173              		.loc 1 134 0 is_stmt 0 discriminator 2
 174 001e 14F0FF04 		ands	r4, r4, #255
 175 0022 F6D1     		bne	.L25
 176              	.L28:
 177              		.loc 1 134 0
 178 0024 0120     		movs	r0, #1
 179 0026 F8BD     		pop	{r3, r4, r5, r6, r7, pc}
 180              	.LVL21:
 181              	.L29:
 182 0028 013C     		subs	r4, r4, #1
 183              	.LVL22:
 184              	.LBE2:
 185              	.LBB3:
 186              		.loc 1 136 0 is_stmt 1 discriminator 2
 187 002a 14F0FF04 		ands	r4, r4, #255
 188 002e F9D0     		beq	.L28
 189              	.L30:
 190              	.LVL23:
 191              		.loc 1 136 0 is_stmt 0 discriminator 5
 192 0030 0D48     		ldr	r0, .L44
 193 0032 3146     		mov	r1, r6
 194 0034 FFF7FEFF 		bl	mmcSequentialRead
 195              	.LVL24:
 196 0038 0028     		cmp	r0, #0
 197 003a F5D1     		bne	.L29
 198              	.LBE3:
 199              		.loc 1 137 0 is_stmt 1
 200 003c 06F50076 		add	r6, r6, #512
 201              	.LVL25:
 202              		.loc 1 138 0
 203 0040 013D     		subs	r5, r5, #1
 204              	.LVL26:
 205              	.L27:
 206 0042 0524     		movs	r4, #5
 207              		.loc 1 135 0
 208 0044 002D     		cmp	r5, #0
 209 0046 F3D1     		bne	.L30
 210 0048 03E0     		b	.L31
 211              	.LVL27:
 212              	.L32:
 213 004a 013C     		subs	r4, r4, #1
 214              	.LVL28:
 215              	.LBB4:
 216              		.loc 1 140 0 discriminator 2
 217 004c 14F0FF04 		ands	r4, r4, #255
 218 0050 E8D0     		beq	.L28
 219              	.L31:
 220              	.LVL29:
 221              		.loc 1 140 0 is_stmt 0 discriminator 5
 222 0052 0548     		ldr	r0, .L44
 223 0054 FFF7FEFF 		bl	mmcStopSequentialRead
 224              	.LVL30:
 225 0058 0028     		cmp	r0, #0
 226 005a F6D1     		bne	.L32
 227 005c F8BD     		pop	{r3, r4, r5, r6, r7, pc}
 228              	.LVL31:
ARM GAS  /tmp/cc10cbgJ.s 			page 5


 229              	.L43:
 230              	.LBE4:
 231              		.loc 1 150 0 is_stmt 1
 232 005e 0420     		movs	r0, #4
 233              	.LVL32:
 234 0060 F8BD     		pop	{r3, r4, r5, r6, r7, pc}
 235              	.LVL33:
 236              	.L34:
 237              		.loc 1 133 0
 238 0062 0320     		movs	r0, #3
 239              	.LVL34:
 240              		.loc 1 151 0
 241 0064 F8BD     		pop	{r3, r4, r5, r6, r7, pc}
 242              	.LVL35:
 243              	.L45:
 244 0066 00BF     		.align	2
 245              	.L44:
 246 0068 00000000 		.word	MMCD1
 247              		.cfi_endproc
 248              	.LFE325:
 249              		.size	disk_read, .-disk_read
 250              		.section	.text.disk_write,"ax",%progbits
 251              		.align	1
 252              		.global	disk_write
 253              		.thumb
 254              		.thumb_func
 255              		.type	disk_write, %function
 256              	disk_write:
 257              	.LFB326:
 258              		.loc 1 165 0
 259              		.cfi_startproc
 260              		@ args = 0, pretend = 0, frame = 0
 261              		@ frame_needed = 0, uses_anonymous_args = 0
 262              	.LVL36:
 263 0000 F8B5     		push	{r3, r4, r5, r6, r7, lr}
 264              		.cfi_def_cfa_offset 24
 265              		.cfi_offset 3, -24
 266              		.cfi_offset 4, -20
 267              		.cfi_offset 5, -16
 268              		.cfi_offset 6, -12
 269              		.cfi_offset 7, -8
 270              		.cfi_offset 14, -4
 271              		.loc 1 165 0
 272 0002 0E46     		mov	r6, r1
 273 0004 1746     		mov	r7, r2
 274 0006 1D46     		mov	r5, r3
 275              		.loc 1 166 0
 276 0008 60BB     		cbnz	r0, .L68
 277              		.loc 1 169 0
 278 000a 1948     		ldr	r0, .L69
 279              	.LVL37:
 280 000c 0479     		ldrb	r4, [r0, #4]	@ zero_extendqisi2
 281 000e 052C     		cmp	r4, #5
 282 0010 2AD1     		bne	.L58
 283              		.loc 1 171 0
 284 0012 FFF7FEFF 		bl	mmc_lld_is_write_protected
 285              	.LVL38:
ARM GAS  /tmp/cc10cbgJ.s 			page 6


 286 0016 48BB     		cbnz	r0, .L59
 287              	.L49:
 288              	.LVL39:
 289              	.LBB5:
 290              		.loc 1 173 0 discriminator 5
 291 0018 1548     		ldr	r0, .L69
 292 001a 3946     		mov	r1, r7
 293 001c FFF7FEFF 		bl	mmcStartSequentialWrite
 294              	.LVL40:
 295 0020 90B1     		cbz	r0, .L51
 296 0022 013C     		subs	r4, r4, #1
 297              	.LVL41:
 298              		.loc 1 173 0 is_stmt 0 discriminator 2
 299 0024 14F0FF04 		ands	r4, r4, #255
 300 0028 F6D1     		bne	.L49
 301              	.L52:
 302              		.loc 1 173 0
 303 002a 0120     		movs	r0, #1
 304 002c F8BD     		pop	{r3, r4, r5, r6, r7, pc}
 305              	.LVL42:
 306              	.L53:
 307 002e 013C     		subs	r4, r4, #1
 308              	.LVL43:
 309              	.LBE5:
 310              	.LBB6:
 311              		.loc 1 175 0 is_stmt 1 discriminator 2
 312 0030 14F0FF04 		ands	r4, r4, #255
 313 0034 F9D0     		beq	.L52
 314              	.L54:
 315              	.LVL44:
 316              		.loc 1 175 0 is_stmt 0 discriminator 5
 317 0036 0E48     		ldr	r0, .L69
 318 0038 3146     		mov	r1, r6
 319 003a FFF7FEFF 		bl	mmcSequentialWrite
 320              	.LVL45:
 321 003e 0028     		cmp	r0, #0
 322 0040 F5D1     		bne	.L53
 323              	.LBE6:
 324              		.loc 1 176 0 is_stmt 1
 325 0042 06F50076 		add	r6, r6, #512
 326              	.LVL46:
 327              		.loc 1 177 0
 328 0046 013D     		subs	r5, r5, #1
 329              	.LVL47:
 330              	.L51:
 331 0048 0524     		movs	r4, #5
 332              		.loc 1 174 0
 333 004a 002D     		cmp	r5, #0
 334 004c F3D1     		bne	.L54
 335 004e 03E0     		b	.L55
 336              	.LVL48:
 337              	.L56:
 338 0050 013C     		subs	r4, r4, #1
 339              	.LVL49:
 340              	.LBB7:
 341              		.loc 1 179 0 discriminator 2
 342 0052 14F0FF04 		ands	r4, r4, #255
ARM GAS  /tmp/cc10cbgJ.s 			page 7


 343 0056 E8D0     		beq	.L52
 344              	.L55:
 345              	.LVL50:
 346              		.loc 1 179 0 is_stmt 0 discriminator 5
 347 0058 0548     		ldr	r0, .L69
 348 005a FFF7FEFF 		bl	mmcStopSequentialWrite
 349              	.LVL51:
 350 005e 0028     		cmp	r0, #0
 351 0060 F6D1     		bne	.L56
 352 0062 F8BD     		pop	{r3, r4, r5, r6, r7, pc}
 353              	.LVL52:
 354              	.L68:
 355              	.LBE7:
 356              		.loc 1 189 0 is_stmt 1
 357 0064 0420     		movs	r0, #4
 358              	.LVL53:
 359 0066 F8BD     		pop	{r3, r4, r5, r6, r7, pc}
 360              	.LVL54:
 361              	.L58:
 362              		.loc 1 170 0
 363 0068 0320     		movs	r0, #3
 364 006a F8BD     		pop	{r3, r4, r5, r6, r7, pc}
 365              	.LVL55:
 366              	.L59:
 367              		.loc 1 172 0
 368 006c 0220     		movs	r0, #2
 369              		.loc 1 190 0
 370 006e F8BD     		pop	{r3, r4, r5, r6, r7, pc}
 371              	.LVL56:
 372              	.L70:
 373              		.align	2
 374              	.L69:
 375 0070 00000000 		.word	MMCD1
 376              		.cfi_endproc
 377              	.LFE326:
 378              		.size	disk_write, .-disk_write
 379              		.section	.text.disk_ioctl,"ax",%progbits
 380              		.align	1
 381              		.global	disk_ioctl
 382              		.thumb
 383              		.thumb_func
 384              		.type	disk_ioctl, %function
 385              	disk_ioctl:
 386              	.LFB327:
 387              		.loc 1 203 0
 388              		.cfi_startproc
 389              		@ args = 0, pretend = 0, frame = 0
 390              		@ frame_needed = 0, uses_anonymous_args = 0
 391              		@ link register save eliminated.
 392              	.LVL57:
 393              		.loc 1 206 0
 394 0000 20B9     		cbnz	r0, .L77
 395              		.loc 1 209 0
 396 0002 0029     		cmp	r1, #0
 397              		.loc 1 223 0
 398 0004 0CBF     		ite	eq
 399 0006 0020     		moveq	r0, #0
ARM GAS  /tmp/cc10cbgJ.s 			page 8


 400              	.LVL58:
 401 0008 0420     		movne	r0, #4
 402 000a 7047     		bx	lr
 403              	.LVL59:
 404              	.L77:
 405              		.loc 1 251 0
 406 000c 0420     		movs	r0, #4
 407              	.LVL60:
 408              		.loc 1 252 0
 409 000e 7047     		bx	lr
 410              		.cfi_endproc
 411              	.LFE327:
 412              		.size	disk_ioctl, .-disk_ioctl
 413              		.text
 414              	.Letext0:
 415              		.file 2 "/usr/lib/gcc/arm-none-eabi/4.9.3/include/stddef.h"
 416              		.file 3 "/usr/include/newlib/machine/_default_types.h"
 417              		.file 4 "/usr/include/newlib/sys/_stdint.h"
 418              		.file 5 "/usr/include/newlib/stdint.h"
 419              		.file 6 "../../modules/ChibiOS/os/common/ports/ARMCMx/compilers/GCC/chtypes.h"
 420              		.file 7 "../../modules/ChibiOS/os/rt/include/chsystypes.h"
 421              		.file 8 "../../modules/ChibiOS/os/rt/include/chschd.h"
 422              		.file 9 "../../modules/ChibiOS/os/rt/include/chtime.h"
 423              		.file 10 "../../modules/ChibiOS/os/common/ext/ST/STM32F4xx/stm32f407xx.h"
 424              		.file 11 "../../modules/ChibiOS/os/common/ports/ARMCMx/chcore.h"
 425              		.file 12 "../../modules/ChibiOS/os/common/ports/ARMCMx/chcore_v7m.h"
 426              		.file 13 "../../modules/ChibiOS/os/rt/include/chtm.h"
 427              		.file 14 "../../modules/ChibiOS/os/rt/include/chstats.h"
 428              		.file 15 "../../modules/ChibiOS/os/rt/include/chsem.h"
 429              		.file 16 "../../modules/ChibiOS/os/rt/include/chmtx.h"
 430              		.file 17 "../../modules/ChibiOS/os/hal/ports/STM32/LLD/DMAv2/stm32_dma.h"
 431              		.file 18 "../../modules/ChibiOS/os/hal/include/hal_ioblock.h"
 432              		.file 19 "../../modules/ChibiOS/os/hal/ports/STM32/LLD/GPIOv2/stm32_gpio.h"
 433              		.file 20 "../../modules/ChibiOS/os/hal/ports/STM32/LLD/GPIOv2/hal_pal_lld.h"
 434              		.file 21 "../../modules/ChibiOS/os/hal/include/hal_spi.h"
 435              		.file 22 "../../modules/ChibiOS/os/hal/include/hal_mmc_spi.h"
 436              		.file 23 "../../modules/ChibiOS/ext/fatfs/src/integer.h"
 437              		.file 24 "../../modules/ChibiOS/ext/fatfs/src/diskio.h"
 438              		.file 25 "../../modules/ChibiOS/os/common/ext/ARM/CMSIS/Core/Include/core_cm4.h"