ARM GAS  /tmp/ccWRkTKh.s 			page 1


   1              		.syntax unified
   2              		.cpu cortex-m4
   3              		.eabi_attribute 27, 1
   4              		.eabi_attribute 28, 1
   5              		.fpu fpv4-sp-d16
   6              		.eabi_attribute 20, 1
   7              		.eabi_attribute 21, 1
   8              		.eabi_attribute 23, 3
   9              		.eabi_attribute 24, 1
  10              		.eabi_attribute 25, 1
  11              		.eabi_attribute 26, 1
  12              		.eabi_attribute 30, 4
  13              		.eabi_attribute 34, 1
  14              		.eabi_attribute 18, 4
  15              		.thumb
  16              		.file	"ff.c"
  17              		.text
  18              	.Ltext0:
  19              		.cfi_sections	.debug_frame
  20              		.section	.text.ld_dword,"ax",%progbits
  21              		.align	1
  22              		.thumb
  23              		.thumb_func
  24              		.type	ld_dword, %function
  25              	ld_dword:
  26              	.LFB291:
  27              		.file 1 "../../modules/ChibiOS/ext/fatfs/src/ff.c"
  28              		.loc 1 559 0
  29              		.cfi_startproc
  30              		@ args = 0, pretend = 0, frame = 0
  31              		@ frame_needed = 0, uses_anonymous_args = 0
  32              		@ link register save eliminated.
  33              	.LVL0:
  34              		.loc 1 563 0
  35 0000 8378     		ldrb	r3, [r0, #2]	@ zero_extendqisi2
  36              		.loc 1 562 0
  37 0002 C278     		ldrb	r2, [r0, #3]	@ zero_extendqisi2
  38              	.LVL1:
  39              		.loc 1 563 0
  40 0004 43EA0222 		orr	r2, r3, r2, lsl #8
  41              	.LVL2:
  42              		.loc 1 564 0
  43 0008 4378     		ldrb	r3, [r0, #1]	@ zero_extendqisi2
  44              		.loc 1 565 0
  45 000a 0078     		ldrb	r0, [r0]	@ zero_extendqisi2
  46              	.LVL3:
  47              		.loc 1 564 0
  48 000c 43EA0223 		orr	r3, r3, r2, lsl #8
  49              	.LVL4:
  50              		.loc 1 567 0
  51 0010 40EA0320 		orr	r0, r0, r3, lsl #8
  52 0014 7047     		bx	lr
  53              		.cfi_endproc
  54              	.LFE291:
  55              		.size	ld_dword, .-ld_dword
  56              		.section	.text.ld_qword,"ax",%progbits
  57              		.align	1
ARM GAS  /tmp/ccWRkTKh.s 			page 2


  58              		.thumb
  59              		.thumb_func
  60              		.type	ld_qword, %function
  61              	ld_qword:
  62              	.LFB292:
  63              		.loc 1 572 0
  64              		.cfi_startproc
  65              		@ args = 0, pretend = 0, frame = 0
  66              		@ frame_needed = 0, uses_anonymous_args = 0
  67              	.LVL5:
  68 0000 30B5     		push	{r4, r5, lr}
  69              		.cfi_def_cfa_offset 12
  70              		.cfi_offset 4, -12
  71              		.cfi_offset 5, -8
  72              		.cfi_offset 14, -4
  73              		.loc 1 575 0
  74 0002 C479     		ldrb	r4, [r0, #7]	@ zero_extendqisi2
  75              		.loc 1 576 0
  76 0004 0023     		movs	r3, #0
  77 0006 2202     		lsls	r2, r4, #8
  78              	.LVL6:
  79 0008 0025     		movs	r5, #0
  80 000a 8479     		ldrb	r4, [r0, #6]	@ zero_extendqisi2
  81 000c 1D43     		orrs	r5, r5, r3
  82 000e 1443     		orrs	r4, r4, r2
  83              		.loc 1 577 0
  84 0010 2B02     		lsls	r3, r5, #8
  85 0012 43EA1463 		orr	r3, r3, r4, lsr #24
  86 0016 2202     		lsls	r2, r4, #8
  87              	.LVL7:
  88 0018 0025     		movs	r5, #0
  89 001a 4479     		ldrb	r4, [r0, #5]	@ zero_extendqisi2
  90 001c 1D43     		orrs	r5, r5, r3
  91 001e 1443     		orrs	r4, r4, r2
  92              		.loc 1 578 0
  93 0020 2B02     		lsls	r3, r5, #8
  94 0022 43EA1463 		orr	r3, r3, r4, lsr #24
  95 0026 2202     		lsls	r2, r4, #8
  96              	.LVL8:
  97 0028 0025     		movs	r5, #0
  98 002a 0479     		ldrb	r4, [r0, #4]	@ zero_extendqisi2
  99 002c 1D43     		orrs	r5, r5, r3
 100 002e 1443     		orrs	r4, r4, r2
 101              		.loc 1 579 0
 102 0030 2B02     		lsls	r3, r5, #8
 103 0032 43EA1463 		orr	r3, r3, r4, lsr #24
 104 0036 2202     		lsls	r2, r4, #8
 105              	.LVL9:
 106 0038 0025     		movs	r5, #0
 107 003a C478     		ldrb	r4, [r0, #3]	@ zero_extendqisi2
 108 003c 1D43     		orrs	r5, r5, r3
 109 003e 1443     		orrs	r4, r4, r2
 110              		.loc 1 580 0
 111 0040 2B02     		lsls	r3, r5, #8
 112 0042 43EA1463 		orr	r3, r3, r4, lsr #24
 113 0046 2202     		lsls	r2, r4, #8
 114              	.LVL10:
ARM GAS  /tmp/ccWRkTKh.s 			page 3


 115 0048 0025     		movs	r5, #0
 116 004a 8478     		ldrb	r4, [r0, #2]	@ zero_extendqisi2
 117 004c 1D43     		orrs	r5, r5, r3
 118 004e 1443     		orrs	r4, r4, r2
 119              		.loc 1 581 0
 120 0050 2B02     		lsls	r3, r5, #8
 121 0052 43EA1463 		orr	r3, r3, r4, lsr #24
 122 0056 2202     		lsls	r2, r4, #8
 123              	.LVL11:
 124 0058 0025     		movs	r5, #0
 125 005a 4478     		ldrb	r4, [r0, #1]	@ zero_extendqisi2
 126              		.loc 1 582 0
 127 005c 0078     		ldrb	r0, [r0]	@ zero_extendqisi2
 128              	.LVL12:
 129              		.loc 1 581 0
 130 005e 2B43     		orrs	r3, r3, r5
 131 0060 2243     		orrs	r2, r2, r4
 132              	.LVL13:
 133              		.loc 1 582 0
 134 0062 1D02     		lsls	r5, r3, #8
 135 0064 45EA1265 		orr	r5, r5, r2, lsr #24
 136 0068 1402     		lsls	r4, r2, #8
 137 006a 0021     		movs	r1, #0
 138              		.loc 1 584 0
 139 006c 2043     		orrs	r0, r0, r4
 140 006e 2943     		orrs	r1, r1, r5
 141 0070 30BD     		pop	{r4, r5, pc}
 142              		.cfi_endproc
 143              	.LFE292:
 144              		.size	ld_qword, .-ld_qword
 145              		.section	.text.st_dword,"ax",%progbits
 146              		.align	1
 147              		.thumb
 148              		.thumb_func
 149              		.type	st_dword, %function
 150              	st_dword:
 151              	.LFB294:
 152              		.loc 1 597 0
 153              		.cfi_startproc
 154              		@ args = 0, pretend = 0, frame = 0
 155              		@ frame_needed = 0, uses_anonymous_args = 0
 156              		@ link register save eliminated.
 157              	.LVL14:
 158              		.loc 1 598 0
 159 0000 0B0A     		lsrs	r3, r1, #8
 160              	.LVL15:
 161 0002 0170     		strb	r1, [r0]
 162              		.loc 1 599 0
 163 0004 4370     		strb	r3, [r0, #1]
 164 0006 0B0C     		lsrs	r3, r1, #16
 165              	.LVL16:
 166              		.loc 1 600 0
 167 0008 090E     		lsrs	r1, r1, #24
 168 000a 8370     		strb	r3, [r0, #2]
 169              	.LVL17:
 170              		.loc 1 601 0
 171 000c C170     		strb	r1, [r0, #3]
ARM GAS  /tmp/ccWRkTKh.s 			page 4


 172 000e 7047     		bx	lr
 173              		.cfi_endproc
 174              	.LFE294:
 175              		.size	st_dword, .-st_dword
 176              		.section	.text.st_qword,"ax",%progbits
 177              		.align	1
 178              		.thumb
 179              		.thumb_func
 180              		.type	st_qword, %function
 181              	st_qword:
 182              	.LFB295:
 183              		.loc 1 607 0
 184              		.cfi_startproc
 185              		@ args = 0, pretend = 0, frame = 0
 186              		@ frame_needed = 0, uses_anonymous_args = 0
 187              		@ link register save eliminated.
 188              	.LVL18:
 189              		.loc 1 608 0
 190 0000 0270     		strb	r2, [r0]
 191 0002 120A     		lsrs	r2, r2, #8
 192              	.LVL19:
 193 0004 42EA0362 		orr	r2, r2, r3, lsl #24
 194 0008 190A     		lsrs	r1, r3, #8
 195              	.LVL20:
 196              		.loc 1 609 0
 197 000a 4270     		strb	r2, [r0, #1]
 198 000c 120A     		lsrs	r2, r2, #8
 199              	.LVL21:
 200 000e 42EA0162 		orr	r2, r2, r1, lsl #24
 201              		.loc 1 610 0
 202 0012 8270     		strb	r2, [r0, #2]
 203              		.loc 1 609 0
 204 0014 190C     		lsrs	r1, r3, #16
 205              	.LVL22:
 206              		.loc 1 610 0
 207 0016 120A     		lsrs	r2, r2, #8
 208              	.LVL23:
 209 0018 42EA0162 		orr	r2, r2, r1, lsl #24
 210              	.LVL24:
 211              		.loc 1 611 0
 212 001c 03F07F43 		and	r3, r3, #-16777216
 213              	.LVL25:
 214 0020 C270     		strb	r2, [r0, #3]
 215 0022 43EA1222 		orr	r2, r3, r2, lsr #8
 216              	.LVL26:
 217              		.loc 1 612 0
 218 0026 130A     		lsrs	r3, r2, #8
 219              	.LVL27:
 220 0028 0271     		strb	r2, [r0, #4]
 221              		.loc 1 613 0
 222 002a 4371     		strb	r3, [r0, #5]
 223 002c 130C     		lsrs	r3, r2, #16
 224              	.LVL28:
 225              		.loc 1 614 0
 226 002e 120E     		lsrs	r2, r2, #24
 227 0030 8371     		strb	r3, [r0, #6]
 228              	.LVL29:
ARM GAS  /tmp/ccWRkTKh.s 			page 5


 229              		.loc 1 615 0
 230 0032 C271     		strb	r2, [r0, #7]
 231 0034 7047     		bx	lr
 232              		.cfi_endproc
 233              	.LFE295:
 234              		.size	st_qword, .-st_qword
 235              		.section	.text.mem_set,"ax",%progbits
 236              		.align	1
 237              		.thumb
 238              		.thumb_func
 239              		.type	mem_set, %function
 240              	mem_set:
 241              	.LFB297:
 242              		.loc 1 644 0
 243              		.cfi_startproc
 244              		@ args = 0, pretend = 0, frame = 0
 245              		@ frame_needed = 0, uses_anonymous_args = 0
 246              		@ link register save eliminated.
 247              	.LVL30:
 248 0000 0244     		add	r2, r2, r0
 249              	.LVL31:
 250              	.L6:
 251              		.loc 1 648 0 discriminator 1
 252 0002 00F8011B 		strb	r1, [r0], #1
 253              	.LVL32:
 254              		.loc 1 649 0 discriminator 1
 255 0006 9042     		cmp	r0, r2
 256 0008 FBD1     		bne	.L6
 257              		.loc 1 650 0
 258 000a 7047     		bx	lr
 259              		.cfi_endproc
 260              	.LFE297:
 261              		.size	mem_set, .-mem_set
 262              		.section	.text.mem_cmp,"ax",%progbits
 263              		.align	1
 264              		.thumb
 265              		.thumb_func
 266              		.type	mem_cmp, %function
 267              	mem_cmp:
 268              	.LFB298:
 269              		.loc 1 656 0
 270              		.cfi_startproc
 271              		@ args = 0, pretend = 0, frame = 0
 272              		@ frame_needed = 0, uses_anonymous_args = 0
 273              	.LVL33:
 274 0000 30B5     		push	{r4, r5, lr}
 275              		.cfi_def_cfa_offset 12
 276              		.cfi_offset 4, -12
 277              		.cfi_offset 5, -8
 278              		.cfi_offset 14, -4
 279              		.loc 1 657 0
 280 0002 0446     		mov	r4, r0
 281              	.LVL34:
 282              	.L11:
 283              		.loc 1 661 0 discriminator 2
 284 0004 14F8013B 		ldrb	r3, [r4], #1	@ zero_extendqisi2
 285              	.LVL35:
ARM GAS  /tmp/ccWRkTKh.s 			page 6


 286 0008 11F8015B 		ldrb	r5, [r1], #1	@ zero_extendqisi2
 287              	.LVL36:
 288 000c 5B1B     		subs	r3, r3, r5
 289              	.LVL37:
 290 000e 151B     		subs	r5, r2, r4
 291              		.loc 1 662 0 discriminator 2
 292 0010 E842     		cmn	r0, r5
 293 0012 01D0     		beq	.L15
 294              		.loc 1 662 0 is_stmt 0 discriminator 1
 295 0014 002B     		cmp	r3, #0
 296 0016 F5D0     		beq	.L11
 297              	.L15:
 298              		.loc 1 665 0 is_stmt 1
 299 0018 1846     		mov	r0, r3
 300              	.LVL38:
 301 001a 30BD     		pop	{r4, r5, pc}
 302              		.cfi_endproc
 303              	.LFE298:
 304              		.size	mem_cmp, .-mem_cmp
 305              		.section	.text.clst2sect,"ax",%progbits
 306              		.align	1
 307              		.thumb
 308              		.thumb_func
 309              		.type	clst2sect, %function
 310              	clst2sect:
 311              	.LFB307:
 312              		.loc 1 966 0
 313              		.cfi_startproc
 314              		@ args = 0, pretend = 0, frame = 0
 315              		@ frame_needed = 0, uses_anonymous_args = 0
 316              		@ link register save eliminated.
 317              	.LVL39:
 318              		.loc 1 968 0
 319 0000 036B     		ldr	r3, [r0, #48]
 320              		.loc 1 967 0
 321 0002 0239     		subs	r1, r1, #2
 322              	.LVL40:
 323              		.loc 1 968 0
 324 0004 023B     		subs	r3, r3, #2
 325 0006 9942     		cmp	r1, r3
 326              		.loc 1 969 0
 327 0008 3DBF     		ittte	cc
 328 000a 4289     		ldrhcc	r2, [r0, #10]
 329 000c 436C     		ldrcc	r3, [r0, #68]
 330 000e 02FB0130 		mlacc	r0, r2, r1, r3
 331              	.LVL41:
 332              		.loc 1 968 0
 333 0012 0020     		movcs	r0, #0
 334              		.loc 1 970 0
 335 0014 7047     		bx	lr
 336              		.cfi_endproc
 337              	.LFE307:
 338              		.size	clst2sect, .-clst2sect
 339              		.section	.text.sum_sfn,"ax",%progbits
 340              		.align	1
 341              		.thumb
 342              		.thumb_func
ARM GAS  /tmp/ccWRkTKh.s 			page 7


 343              		.type	sum_sfn, %function
 344              	sum_sfn:
 345              	.LFB326:
 346              		.loc 1 1887 0
 347              		.cfi_startproc
 348              		@ args = 0, pretend = 0, frame = 0
 349              		@ frame_needed = 0, uses_anonymous_args = 0
 350              		@ link register save eliminated.
 351              	.LVL42:
 352 0000 00F10B01 		add	r1, r0, #11
 353              		.loc 1 1888 0
 354 0004 0023     		movs	r3, #0
 355              	.LVL43:
 356              	.L20:
 357              		.loc 1 1892 0 discriminator 1
 358 0006 DA01     		lsls	r2, r3, #7
 359 0008 42EA5303 		orr	r3, r2, r3, lsr #1
 360              	.LVL44:
 361 000c 10F8012B 		ldrb	r2, [r0], #1	@ zero_extendqisi2
 362              	.LVL45:
 363 0010 52FA83F3 		uxtab	r3, r2, r3
 364              		.loc 1 1893 0 discriminator 1
 365 0014 8842     		cmp	r0, r1
 366              		.loc 1 1892 0 discriminator 1
 367 0016 DBB2     		uxtb	r3, r3
 368              	.LVL46:
 369              		.loc 1 1893 0 discriminator 1
 370 0018 F5D1     		bne	.L20
 371              		.loc 1 1895 0
 372 001a 1846     		mov	r0, r3
 373              	.LVL47:
 374 001c 7047     		bx	lr
 375              		.cfi_endproc
 376              	.LFE326:
 377              		.size	sum_sfn, .-sum_sfn
 378              		.section	.text.xdir_sum,"ax",%progbits
 379              		.align	1
 380              		.thumb
 381              		.thumb_func
 382              		.type	xdir_sum, %function
 383              	xdir_sum:
 384              	.LFB327:
 385              		.loc 1 1910 0
 386              		.cfi_startproc
 387              		@ args = 0, pretend = 0, frame = 0
 388              		@ frame_needed = 0, uses_anonymous_args = 0
 389              	.LVL48:
 390 0000 30B5     		push	{r4, r5, lr}
 391              		.cfi_def_cfa_offset 12
 392              		.cfi_offset 4, -12
 393              		.cfi_offset 5, -8
 394              		.cfi_offset 14, -4
 395              		.loc 1 1915 0
 396 0002 4178     		ldrb	r1, [r0, #1]	@ zero_extendqisi2
 397              		.loc 1 1916 0
 398 0004 0023     		movs	r3, #0
 399              		.loc 1 1915 0
ARM GAS  /tmp/ccWRkTKh.s 			page 8


 400 0006 0131     		adds	r1, r1, #1
 401 0008 4901     		lsls	r1, r1, #5
 402              	.LVL49:
 403              		.loc 1 1916 0
 404 000a 1A46     		mov	r2, r3
 405              	.LVL50:
 406              	.L25:
 407              		.loc 1 1917 0
 408 000c 022A     		cmp	r2, #2
 409 000e 0AD0     		beq	.L26
 410              		.loc 1 1920 0
 411 0010 855C     		ldrb	r5, [r0, r2]	@ zero_extendqisi2
 412 0012 13F00104 		ands	r4, r3, #1
 413 0016 18BF     		it	ne
 414 0018 4FF40044 		movne	r4, #32768
 415 001c 05EB5303 		add	r3, r5, r3, lsr #1
 416              	.LVL51:
 417 0020 2344     		add	r3, r3, r4
 418 0022 9BB2     		uxth	r3, r3
 419              	.LVL52:
 420 0024 00E0     		b	.L23
 421              	.L26:
 422              		.loc 1 1918 0
 423 0026 0322     		movs	r2, #3
 424              	.LVL53:
 425              	.L23:
 426              		.loc 1 1916 0 discriminator 2
 427 0028 0132     		adds	r2, r2, #1
 428              	.LVL54:
 429 002a 8A42     		cmp	r2, r1
 430 002c EED3     		bcc	.L25
 431              		.loc 1 1924 0
 432 002e 1846     		mov	r0, r3
 433              	.LVL55:
 434 0030 30BD     		pop	{r4, r5, pc}
 435              		.cfi_endproc
 436              	.LFE327:
 437              		.size	xdir_sum, .-xdir_sum
 438              		.section	.text.get_ldnumber,"ax",%progbits
 439              		.align	1
 440              		.thumb
 441              		.thumb_func
 442              		.type	get_ldnumber, %function
 443              	get_ldnumber:
 444              	.LFB341:
 445              		.loc 1 2953 0
 446              		.cfi_startproc
 447              		@ args = 0, pretend = 0, frame = 0
 448              		@ frame_needed = 0, uses_anonymous_args = 0
 449              	.LVL56:
 450              		.loc 1 2965 0
 451 0000 0368     		ldr	r3, [r0]
 452              		.loc 1 2953 0
 453 0002 10B5     		push	{r4, lr}
 454              		.cfi_def_cfa_offset 8
 455              		.cfi_offset 4, -8
 456              		.cfi_offset 14, -4
ARM GAS  /tmp/ccWRkTKh.s 			page 9


 457              		.loc 1 2965 0
 458 0004 93B1     		cbz	r3, .L40
 459 0006 1A46     		mov	r2, r3
 460              	.L31:
 461 0008 1446     		mov	r4, r2
 462              	.LVL57:
 463              		.loc 1 2966 0 discriminator 1
 464 000a 12F8011B 		ldrb	r1, [r2], #1	@ zero_extendqisi2
 465              	.LVL58:
 466 000e 1F29     		cmp	r1, #31
 467 0010 0AD9     		bls	.L35
 468              		.loc 1 2966 0 is_stmt 0 discriminator 3
 469 0012 3A29     		cmp	r1, #58
 470 0014 F8D1     		bne	.L31
 471              	.LVL59:
 472              		.loc 1 2969 0 is_stmt 1
 473 0016 1A46     		mov	r2, r3
 474 0018 12F8011B 		ldrb	r1, [r2], #1	@ zero_extendqisi2
 475              	.LVL60:
 476              		.loc 1 2970 0
 477 001c 9442     		cmp	r4, r2
 478 001e 05D1     		bne	.L40
 479              	.LVL61:
 480              		.loc 1 2971 0
 481 0020 3029     		cmp	r1, #48
 482 0022 03D1     		bne	.L40
 483              	.LVL62:
 484              		.loc 1 2973 0
 485 0024 0233     		adds	r3, r3, #2
 486              	.LVL63:
 487 0026 0360     		str	r3, [r0]
 488              	.LVL64:
 489              	.L35:
 490              		.loc 1 2996 0
 491 0028 0020     		movs	r0, #0
 492              	.LVL65:
 493 002a 10BD     		pop	{r4, pc}
 494              	.LVL66:
 495              	.L40:
 496              		.loc 1 2956 0
 497 002c 4FF0FF30 		mov	r0, #-1
 498              	.LVL67:
 499              		.loc 1 3001 0
 500 0030 10BD     		pop	{r4, pc}
 501              		.cfi_endproc
 502              	.LFE341:
 503              		.size	get_ldnumber, .-get_ldnumber
 504              		.section	.text.get_fileinfo,"ax",%progbits
 505              		.align	1
 506              		.thumb
 507              		.thumb_func
 508              		.type	get_fileinfo, %function
 509              	get_fileinfo:
 510              	.LFB338:
 511              		.loc 1 2481 0
 512              		.cfi_startproc
 513              		@ args = 0, pretend = 0, frame = 0
ARM GAS  /tmp/ccWRkTKh.s 			page 10


 514              		@ frame_needed = 0, uses_anonymous_args = 0
 515              	.LVL68:
 516 0000 2DE9F041 		push	{r4, r5, r6, r7, r8, lr}
 517              		.cfi_def_cfa_offset 24
 518              		.cfi_offset 4, -24
 519              		.cfi_offset 5, -20
 520              		.cfi_offset 6, -16
 521              		.cfi_offset 7, -12
 522              		.cfi_offset 8, -8
 523              		.cfi_offset 14, -4
 524              		.loc 1 2491 0
 525 0004 0025     		movs	r5, #0
 526              		.loc 1 2487 0
 527 0006 D0F80080 		ldr	r8, [r0]
 528              	.LVL69:
 529              		.loc 1 2491 0
 530 000a 8D76     		strb	r5, [r1, #26]
 531              		.loc 1 2492 0
 532 000c 836B     		ldr	r3, [r0, #56]
 533              		.loc 1 2481 0
 534 000e 0746     		mov	r7, r0
 535 0010 0C46     		mov	r4, r1
 536              		.loc 1 2492 0
 537 0012 002B     		cmp	r3, #0
 538 0014 00F0B880 		beq	.L41
 539              		.loc 1 2496 0
 540 0018 98F80030 		ldrb	r3, [r8]	@ zero_extendqisi2
 541 001c 042B     		cmp	r3, #4
 542 001e 4AD1     		bne	.L43
 543              		.loc 1 2497 0
 544 0020 D8F81070 		ldr	r7, [r8, #16]
 545              	.LVL70:
 546              	.LBB110:
 547              	.LBB111:
 548              		.loc 1 1974 0
 549 0024 2E46     		mov	r6, r5
 550 0026 4FF04008 		mov	r8, #64
 551              	.LVL71:
 552              	.L44:
 553 002a 97F82330 		ldrb	r3, [r7, #35]	@ zero_extendqisi2
 554 002e 9D42     		cmp	r5, r3
 555 0030 20D2     		bcs	.L85
 556              		.loc 1 1975 0
 557 0032 18F01F0F 		tst	r8, #31
 558 0036 08BF     		it	eq
 559 0038 08F10208 		addeq	r8, r8, #2
 560              	.LVL72:
 561              		.loc 1 1976 0
 562 003c 07EB0803 		add	r3, r7, r8
 563              	.LVL73:
 564              		.loc 1 1978 0
 565 0040 40F25231 		movw	r1, #850
 566              	.LBB112:
 567              	.LBB113:
 568              		.loc 1 553 0
 569 0044 5878     		ldrb	r0, [r3, #1]	@ zero_extendqisi2
 570 0046 17F80830 		ldrb	r3, [r7, r8]	@ zero_extendqisi2
ARM GAS  /tmp/ccWRkTKh.s 			page 11


 571              	.LVL74:
 572              	.LBE113:
 573              	.LBE112:
 574              		.loc 1 1978 0
 575 004a 43EA0020 		orr	r0, r3, r0, lsl #8
 576              	.LVL75:
 577 004e FFF7FEFF 		bl	ff_uni2oem
 578              	.LVL76:
 579              		.loc 1 1979 0
 580 0052 FF28     		cmp	r0, #255
 581 0054 04D9     		bls	.L46
 582              	.LVL77:
 583              		.loc 1 1980 0
 584 0056 A319     		adds	r3, r4, r6
 585 0058 020A     		lsrs	r2, r0, #8
 586 005a 9A76     		strb	r2, [r3, #26]
 587 005c 0136     		adds	r6, r6, #1
 588              	.LVL78:
 589 005e 00E0     		b	.L47
 590              	.L46:
 591              		.loc 1 1983 0
 592 0060 48B1     		cbz	r0, .L68
 593              	.L47:
 594 0062 FE2E     		cmp	r6, #254
 595 0064 07D8     		bhi	.L68
 596              	.LVL79:
 597              		.loc 1 1984 0
 598 0066 A319     		adds	r3, r4, r6
 599              		.loc 1 1974 0
 600 0068 08F10208 		add	r8, r8, #2
 601              	.LVL80:
 602              		.loc 1 1984 0
 603 006c 9876     		strb	r0, [r3, #26]
 604              		.loc 1 1974 0
 605 006e 0135     		adds	r5, r5, #1
 606              	.LVL81:
 607              		.loc 1 1984 0
 608 0070 0136     		adds	r6, r6, #1
 609              	.LVL82:
 610 0072 DAE7     		b	.L44
 611              	.LVL83:
 612              	.L85:
 613              		.loc 1 1986 0
 614 0074 16B9     		cbnz	r6, .L50
 615              	.L68:
 616              	.LVL84:
 617 0076 3F23     		movs	r3, #63
 618 0078 A376     		strb	r3, [r4, #26]
 619 007a 0126     		movs	r6, #1
 620              	.LVL85:
 621              	.L50:
 622              		.loc 1 1987 0
 623 007c 2644     		add	r6, r6, r4
 624              	.LVL86:
 625 007e 0023     		movs	r3, #0
 626 0080 B376     		strb	r3, [r6, #26]
 627              		.loc 1 1989 0
ARM GAS  /tmp/ccWRkTKh.s 			page 12


 628 0082 6373     		strb	r3, [r4, #13]
 629              		.loc 1 1990 0
 630 0084 3B79     		ldrb	r3, [r7, #4]	@ zero_extendqisi2
 631 0086 2373     		strb	r3, [r4, #12]
 632              		.loc 1 1991 0
 633 0088 DB06     		lsls	r3, r3, #27
 634 008a 04D4     		bmi	.L69
 635 008c 07F13800 		add	r0, r7, #56
 636 0090 FFF7FEFF 		bl	ld_qword
 637              	.LVL87:
 638 0094 01E0     		b	.L51
 639              	.L69:
 640 0096 0020     		movs	r0, #0
 641 0098 0021     		movs	r1, #0
 642              	.L51:
 643 009a C4E90001 		strd	r0, [r4]
 644              	.LVL88:
 645              	.LBB114:
 646              	.LBB115:
 647              		.loc 1 553 0
 648 009e 7A7B     		ldrb	r2, [r7, #13]	@ zero_extendqisi2
 649 00a0 3B7B     		ldrb	r3, [r7, #12]	@ zero_extendqisi2
 650 00a2 43EA0223 		orr	r3, r3, r2, lsl #8
 651              	.LBE115:
 652              	.LBE114:
 653              		.loc 1 1992 0
 654 00a6 6381     		strh	r3, [r4, #10]	@ movhi
 655              	.LVL89:
 656              	.LBB116:
 657              	.LBB117:
 658              		.loc 1 553 0
 659 00a8 FA7B     		ldrb	r2, [r7, #15]	@ zero_extendqisi2
 660 00aa BB7B     		ldrb	r3, [r7, #14]	@ zero_extendqisi2
 661 00ac 43EA0223 		orr	r3, r3, r2, lsl #8
 662              	.LBE117:
 663              	.LBE116:
 664              		.loc 1 1993 0
 665 00b0 2381     		strh	r3, [r4, #8]	@ movhi
 666              	.LVL90:
 667 00b2 BDE8F081 		pop	{r4, r5, r6, r7, r8, pc}
 668              	.LVL91:
 669              	.L43:
 670              	.LBE111:
 671              	.LBE110:
 672              		.loc 1 2502 0
 673 00b6 C36C     		ldr	r3, [r0, #76]
 674 00b8 0133     		adds	r3, r3, #1
 675 00ba 1CD0     		beq	.L53
 676 00bc 2E46     		mov	r6, r5
 677              	.LVL92:
 678              	.L52:
 679              		.loc 1 2504 0
 680 00be D8F80C30 		ldr	r3, [r8, #12]
 681 00c2 585B     		ldrh	r0, [r3, r5]
 682              	.LVL93:
 683 00c4 A0B1     		cbz	r0, .L55
 684              		.loc 1 2506 0
ARM GAS  /tmp/ccWRkTKh.s 			page 13


 685 00c6 40F25231 		movw	r1, #850
 686 00ca FFF7FEFF 		bl	ff_uni2oem
 687              	.LVL94:
 688              		.loc 1 2507 0
 689 00ce 08B9     		cbnz	r0, .L54
 690              	.L57:
 691 00d0 0026     		movs	r6, #0
 692              	.LVL95:
 693 00d2 0DE0     		b	.L55
 694              	.LVL96:
 695              	.L54:
 696              		.loc 1 2508 0
 697 00d4 FF28     		cmp	r0, #255
 698              		.loc 1 2509 0
 699 00d6 81BF     		itttt	hi
 700 00d8 A319     		addhi	r3, r4, r6
 701 00da 020A     		lsrhi	r2, r0, #8
 702 00dc 0136     		addhi	r6, r6, #1
 703              	.LVL97:
 704 00de 9A76     		strbhi	r2, [r3, #26]
 705              		.loc 1 2512 0
 706 00e0 FE2E     		cmp	r6, #254
 707 00e2 05F10205 		add	r5, r5, #2
 708 00e6 F3D8     		bhi	.L57
 709              	.LVL98:
 710              		.loc 1 2513 0
 711 00e8 A319     		adds	r3, r4, r6
 712 00ea 0136     		adds	r6, r6, #1
 713              	.LVL99:
 714 00ec 9876     		strb	r0, [r3, #26]
 715 00ee E6E7     		b	.L52
 716              	.LVL100:
 717              	.L55:
 718              		.loc 1 2515 0
 719 00f0 2644     		add	r6, r6, r4
 720              	.LVL101:
 721 00f2 0023     		movs	r3, #0
 722 00f4 B376     		strb	r3, [r6, #26]
 723              	.LVL102:
 724              	.L53:
 725              		.loc 1 2519 0
 726 00f6 0023     		movs	r3, #0
 727              		.loc 1 2520 0
 728 00f8 A17E     		ldrb	r1, [r4, #26]	@ zero_extendqisi2
 729              	.LVL103:
 730              		.loc 1 2519 0
 731 00fa 1A46     		mov	r2, r3
 732              	.LVL104:
 733              	.L66:
 734              		.loc 1 2522 0
 735 00fc FD6B     		ldr	r5, [r7, #60]
 736 00fe 501C     		adds	r0, r2, #1
 737              	.LVL105:
 738 0100 AA5C     		ldrb	r2, [r5, r2]	@ zero_extendqisi2
 739              	.LVL106:
 740              		.loc 1 2523 0
 741 0102 202A     		cmp	r2, #32
ARM GAS  /tmp/ccWRkTKh.s 			page 14


 742 0104 21D0     		beq	.L59
 743              		.loc 1 2524 0
 744 0106 052A     		cmp	r2, #5
 745 0108 08BF     		it	eq
 746 010a E522     		moveq	r2, #229
 747              	.LVL107:
 748              		.loc 1 2525 0
 749 010c 0928     		cmp	r0, #9
 750 010e 06D1     		bne	.L61
 751 0110 E518     		adds	r5, r4, r3
 752              		.loc 1 2526 0
 753 0112 09B9     		cbnz	r1, .L62
 754              		.loc 1 2526 0 is_stmt 0 discriminator 1
 755 0114 2E26     		movs	r6, #46
 756 0116 AE76     		strb	r6, [r5, #26]
 757              	.L62:
 758              	.LVL108:
 759              		.loc 1 2527 0 is_stmt 1
 760 0118 2E26     		movs	r6, #46
 761 011a 6E73     		strb	r6, [r5, #13]
 762 011c 0133     		adds	r3, r3, #1
 763              	.LVL109:
 764              	.L61:
 765              		.loc 1 2536 0
 766 011e E518     		adds	r5, r4, r3
 767 0120 6A73     		strb	r2, [r5, #13]
 768              		.loc 1 2537 0
 769 0122 89B9     		cbnz	r1, .L63
 770              		.loc 1 2538 0
 771 0124 A2F14106 		sub	r6, r2, #65
 772 0128 192E     		cmp	r6, #25
 773 012a 0CD8     		bhi	.L64
 774              		.loc 1 2538 0 is_stmt 0 discriminator 1
 775 012c FE6B     		ldr	r6, [r7, #60]
 776 012e 0828     		cmp	r0, #8
 777 0130 367B     		ldrb	r6, [r6, #12]	@ zero_extendqisi2
 778 0132 8CBF     		ite	hi
 779 0134 4FF0100E 		movhi	lr, #16
 780 0138 4FF0080E 		movls	lr, #8
 781 013c 1EEA060F 		tst	lr, r6
 782              		.loc 1 2539 0 is_stmt 1 discriminator 1
 783 0140 1CBF     		itt	ne
 784 0142 2032     		addne	r2, r2, #32
 785              	.LVL110:
 786 0144 D2B2     		uxtbne	r2, r2
 787              	.LVL111:
 788              	.L64:
 789              		.loc 1 2541 0
 790 0146 AA76     		strb	r2, [r5, #26]
 791              	.L63:
 792              		.loc 1 2543 0
 793 0148 0133     		adds	r3, r3, #1
 794              	.LVL112:
 795              	.L59:
 796              		.loc 1 2521 0
 797 014a 0B28     		cmp	r0, #11
 798 014c 0246     		mov	r2, r0
ARM GAS  /tmp/ccWRkTKh.s 			page 15


 799              	.LVL113:
 800 014e D5D1     		bne	.L66
 801              		.loc 1 2545 0
 802 0150 31B9     		cbnz	r1, .L67
 803              		.loc 1 2546 0
 804 0152 E218     		adds	r2, r4, r3
 805 0154 9176     		strb	r1, [r2, #26]
 806              		.loc 1 2547 0
 807 0156 FA6B     		ldr	r2, [r7, #60]
 808 0158 127B     		ldrb	r2, [r2, #12]	@ zero_extendqisi2
 809 015a 002A     		cmp	r2, #0
 810 015c 08BF     		it	eq
 811 015e 0023     		moveq	r3, #0
 812              	.LVL114:
 813              	.L67:
 814              		.loc 1 2549 0
 815 0160 2344     		add	r3, r3, r4
 816              	.LVL115:
 817 0162 0026     		movs	r6, #0
 818 0164 5E73     		strb	r6, [r3, #13]
 819              		.loc 1 2563 0
 820 0166 FB6B     		ldr	r3, [r7, #60]
 821 0168 DB7A     		ldrb	r3, [r3, #11]	@ zero_extendqisi2
 822 016a 2373     		strb	r3, [r4, #12]
 823              		.loc 1 2564 0
 824 016c FD6B     		ldr	r5, [r7, #60]
 825 016e 05F11C00 		add	r0, r5, #28
 826              	.LVL116:
 827 0172 FFF7FEFF 		bl	ld_dword
 828              	.LVL117:
 829 0176 84E84100 		stmia	r4, {r0, r6}
 830              		.loc 1 2565 0
 831 017a 05F11600 		add	r0, r5, #22
 832 017e FFF7FEFF 		bl	ld_dword
 833              	.LVL118:
 834              		.loc 1 2566 0
 835 0182 6081     		strh	r0, [r4, #10]	@ movhi
 836 0184 000C     		lsrs	r0, r0, #16
 837              	.LVL119:
 838 0186 2081     		strh	r0, [r4, #8]	@ movhi
 839              	.L41:
 840 0188 BDE8F081 		pop	{r4, r5, r6, r7, r8, pc}
 841              		.cfi_endproc
 842              	.LFE338:
 843              		.size	get_fileinfo, .-get_fileinfo
 844              		.section	.text.xname_sum,"ax",%progbits
 845              		.align	1
 846              		.thumb
 847              		.thumb_func
 848              		.type	xname_sum, %function
 849              	xname_sum:
 850              	.LFB328:
 851              		.loc 1 1932 0
 852              		.cfi_startproc
 853              		@ args = 0, pretend = 0, frame = 0
 854              		@ frame_needed = 0, uses_anonymous_args = 0
 855              	.LVL120:
ARM GAS  /tmp/ccWRkTKh.s 			page 16


 856 0000 38B5     		push	{r3, r4, r5, lr}
 857              		.cfi_def_cfa_offset 16
 858              		.cfi_offset 3, -16
 859              		.cfi_offset 4, -12
 860              		.cfi_offset 5, -8
 861              		.cfi_offset 14, -4
 862              		.loc 1 1932 0
 863 0002 0546     		mov	r5, r0
 864              		.loc 1 1934 0
 865 0004 0024     		movs	r4, #0
 866              	.LVL121:
 867              	.L87:
 868              		.loc 1 1937 0
 869 0006 35F8020B 		ldrh	r0, [r5], #2
 870              	.LVL122:
 871 000a C8B1     		cbz	r0, .L93
 872              		.loc 1 1938 0
 873 000c FFF7FEFF 		bl	ff_wtoupper
 874              	.LVL123:
 875              		.loc 1 1939 0
 876 0010 14F00102 		ands	r2, r4, #1
 877 0014 4FEA5403 		lsr	r3, r4, #1
 878 0018 18BF     		it	ne
 879 001a 4FF40042 		movne	r2, #32768
 880 001e 53FA80F3 		uxtab	r3, r3, r0
 881 0022 1344     		add	r3, r3, r2
 882 0024 9BB2     		uxth	r3, r3
 883              	.LVL124:
 884              		.loc 1 1940 0
 885 0026 13F00104 		ands	r4, r3, #1
 886 002a 4FEA1020 		lsr	r0, r0, #8
 887              	.LVL125:
 888 002e 18BF     		it	ne
 889 0030 4FF40044 		movne	r4, #32768
 890 0034 00EB5303 		add	r3, r0, r3, lsr #1
 891              	.LVL126:
 892 0038 14FA83F4 		uxtah	r4, r4, r3
 893 003c A4B2     		uxth	r4, r4
 894              	.LVL127:
 895 003e E2E7     		b	.L87
 896              	.LVL128:
 897              	.L93:
 898              		.loc 1 1943 0
 899 0040 2046     		mov	r0, r4
 900              	.LVL129:
 901 0042 38BD     		pop	{r3, r4, r5, pc}
 902              		.cfi_endproc
 903              	.LFE328:
 904              		.size	xname_sum, .-xname_sum
 905              		.section	.text.mem_cpy.part.0,"ax",%progbits
 906              		.align	1
 907              		.thumb
 908              		.thumb_func
 909              		.type	mem_cpy.part.0, %function
 910              	mem_cpy.part.0:
 911              	.LFB364:
 912              		.loc 1 628 0
ARM GAS  /tmp/ccWRkTKh.s 			page 17


 913              		.cfi_startproc
 914              		@ args = 0, pretend = 0, frame = 0
 915              		@ frame_needed = 0, uses_anonymous_args = 0
 916              		@ link register save eliminated.
 917              	.LVL130:
 918 0000 0138     		subs	r0, r0, #1
 919              	.LVL131:
 920 0002 0A44     		add	r2, r2, r1
 921              	.LVL132:
 922              	.L95:
 923              		.loc 1 635 0
 924 0004 11F8013B 		ldrb	r3, [r1], #1	@ zero_extendqisi2
 925              	.LVL133:
 926 0008 00F8013F 		strb	r3, [r0, #1]!
 927              		.loc 1 636 0
 928 000c 9142     		cmp	r1, r2
 929 000e F9D1     		bne	.L95
 930              		.loc 1 638 0
 931 0010 7047     		bx	lr
 932              		.cfi_endproc
 933              	.LFE364:
 934              		.size	mem_cpy.part.0, .-mem_cpy.part.0
 935              		.section	.text.ld_clust.isra.3,"ax",%progbits
 936              		.align	1
 937              		.thumb
 938              		.thumb_func
 939              		.type	ld_clust.isra.3, %function
 940              	ld_clust.isra.3:
 941              	.LFB367:
 942              		.loc 1 1675 0
 943              		.cfi_startproc
 944              		@ args = 0, pretend = 0, frame = 0
 945              		@ frame_needed = 0, uses_anonymous_args = 0
 946              		@ link register save eliminated.
 947              	.LVL134:
 948              	.LBB118:
 949              	.LBB119:
 950              		.loc 1 553 0
 951 0000 CA7E     		ldrb	r2, [r1, #27]	@ zero_extendqisi2
 952 0002 8B7E     		ldrb	r3, [r1, #26]	@ zero_extendqisi2
 953              	.LBE119:
 954              	.LBE118:
 955              		.loc 1 1683 0
 956 0004 0328     		cmp	r0, #3
 957              		.loc 1 1682 0
 958 0006 43EA0223 		orr	r3, r3, r2, lsl #8
 959              	.LVL135:
 960              	.LBB120:
 961              	.LBB121:
 962              		.loc 1 553 0
 963 000a 01BF     		itttt	eq
 964 000c 487D     		ldrbeq	r0, [r1, #21]	@ zero_extendqisi2
 965 000e 0A7D     		ldrbeq	r2, [r1, #20]	@ zero_extendqisi2
 966              	.LBE121:
 967              	.LBE120:
 968              		.loc 1 1684 0
 969 0010 42EA0022 		orreq	r2, r2, r0, lsl #8
ARM GAS  /tmp/ccWRkTKh.s 			page 18


 970 0014 43EA0243 		orreq	r3, r3, r2, lsl #16
 971              	.LVL136:
 972              		.loc 1 1688 0
 973 0018 1846     		mov	r0, r3
 974 001a 7047     		bx	lr
 975              		.cfi_endproc
 976              	.LFE367:
 977              		.size	ld_clust.isra.3, .-ld_clust.isra.3
 978              		.section	.text.st_clust.isra.4,"ax",%progbits
 979              		.align	1
 980              		.thumb
 981              		.thumb_func
 982              		.type	st_clust.isra.4, %function
 983              	st_clust.isra.4:
 984              	.LFB368:
 985              		.loc 1 1693 0
 986              		.cfi_startproc
 987              		@ args = 0, pretend = 0, frame = 0
 988              		@ frame_needed = 0, uses_anonymous_args = 0
 989              		@ link register save eliminated.
 990              	.LVL137:
 991              	.LBB122:
 992              	.LBB123:
 993              		.loc 1 591 0
 994 0000 C2F30723 		ubfx	r3, r2, #8, #8
 995 0004 8A76     		strb	r2, [r1, #26]
 996              	.LVL138:
 997              		.loc 1 592 0
 998 0006 CB76     		strb	r3, [r1, #27]
 999              	.LBE123:
 1000              	.LBE122:
 1001              		.loc 1 1700 0
 1002 0008 0378     		ldrb	r3, [r0]	@ zero_extendqisi2
 1003 000a 032B     		cmp	r3, #3
 1004              		.loc 1 1701 0
 1005 000c 01BF     		itttt	eq
 1006 000e 120C     		lsreq	r2, r2, #16
 1007              	.LVL139:
 1008              	.LBB124:
 1009              	.LBB125:
 1010              		.loc 1 591 0
 1011 0010 0A75     		strbeq	r2, [r1, #20]
 1012              	.LVL140:
 1013 0012 120A     		lsreq	r2, r2, #8
 1014              	.LVL141:
 1015              		.loc 1 592 0
 1016 0014 4A75     		strbeq	r2, [r1, #21]
 1017 0016 7047     		bx	lr
 1018              	.LBE125:
 1019              	.LBE124:
 1020              		.cfi_endproc
 1021              	.LFE368:
 1022              		.size	st_clust.isra.4, .-st_clust.isra.4
 1023              		.section	.text.sync_window,"ax",%progbits
 1024              		.align	1
 1025              		.thumb
 1026              		.thumb_func
ARM GAS  /tmp/ccWRkTKh.s 			page 19


 1027              		.type	sync_window, %function
 1028              	sync_window:
 1029              	.LFB304:
 1030              		.loc 1 872 0
 1031              		.cfi_startproc
 1032              		@ args = 0, pretend = 0, frame = 0
 1033              		@ frame_needed = 0, uses_anonymous_args = 0
 1034              	.LVL142:
 1035 0000 F8B5     		push	{r3, r4, r5, r6, r7, lr}
 1036              		.cfi_def_cfa_offset 24
 1037              		.cfi_offset 3, -24
 1038              		.cfi_offset 4, -20
 1039              		.cfi_offset 5, -16
 1040              		.cfi_offset 6, -12
 1041              		.cfi_offset 7, -8
 1042              		.cfi_offset 14, -4
 1043              		.loc 1 876 0
 1044 0002 C378     		ldrb	r3, [r0, #3]	@ zero_extendqisi2
 1045              		.loc 1 872 0
 1046 0004 0446     		mov	r4, r0
 1047              		.loc 1 876 0
 1048 0006 0BB9     		cbnz	r3, .L102
 1049              	.LVL143:
 1050              	.L104:
 1051              		.loc 1 873 0
 1052 0008 0020     		movs	r0, #0
 1053 000a F8BD     		pop	{r3, r4, r5, r6, r7, pc}
 1054              	.LVL144:
 1055              	.L102:
 1056              	.LBB128:
 1057              	.LBB129:
 1058              		.loc 1 877 0
 1059 000c 00F14C07 		add	r7, r0, #76
 1060 0010 3946     		mov	r1, r7
 1061 0012 4078     		ldrb	r0, [r0, #1]	@ zero_extendqisi2
 1062              	.LVL145:
 1063 0014 A26C     		ldr	r2, [r4, #72]
 1064 0016 0123     		movs	r3, #1
 1065 0018 FFF7FEFF 		bl	disk_write
 1066              	.LVL146:
 1067 001c 80B9     		cbnz	r0, .L105
 1068              		.loc 1 879 0
 1069 001e A26C     		ldr	r2, [r4, #72]
 1070 0020 E36B     		ldr	r3, [r4, #60]
 1071 0022 666B     		ldr	r6, [r4, #52]
 1072              		.loc 1 878 0
 1073 0024 E070     		strb	r0, [r4, #3]
 1074              		.loc 1 879 0
 1075 0026 D31A     		subs	r3, r2, r3
 1076 0028 B342     		cmp	r3, r6
 1077 002a EDD2     		bcs	.L104
 1078              		.loc 1 880 0
 1079 002c A378     		ldrb	r3, [r4, #2]	@ zero_extendqisi2
 1080 002e 022B     		cmp	r3, #2
 1081 0030 EAD1     		bne	.L104
 1082 0032 6078     		ldrb	r0, [r4, #1]	@ zero_extendqisi2
 1083 0034 3946     		mov	r1, r7
ARM GAS  /tmp/ccWRkTKh.s 			page 20


 1084 0036 3244     		add	r2, r2, r6
 1085 0038 0123     		movs	r3, #1
 1086 003a FFF7FEFF 		bl	disk_write
 1087              	.LVL147:
 1088 003e E3E7     		b	.L104
 1089              	.L105:
 1090              		.loc 1 883 0
 1091 0040 0120     		movs	r0, #1
 1092              	.LVL148:
 1093              	.LBE129:
 1094              	.LBE128:
 1095              		.loc 1 887 0
 1096 0042 F8BD     		pop	{r3, r4, r5, r6, r7, pc}
 1097              		.cfi_endproc
 1098              	.LFE304:
 1099              		.size	sync_window, .-sync_window
 1100              		.section	.text.dir_clear,"ax",%progbits
 1101              		.align	1
 1102              		.thumb
 1103              		.thumb_func
 1104              		.type	dir_clear, %function
 1105              	dir_clear:
 1106              	.LFB316:
 1107              		.loc 1 1486 0
 1108              		.cfi_startproc
 1109              		@ args = 0, pretend = 0, frame = 0
 1110              		@ frame_needed = 0, uses_anonymous_args = 0
 1111              	.LVL149:
 1112 0000 2DE9F041 		push	{r4, r5, r6, r7, r8, lr}
 1113              		.cfi_def_cfa_offset 24
 1114              		.cfi_offset 4, -24
 1115              		.cfi_offset 5, -20
 1116              		.cfi_offset 6, -16
 1117              		.cfi_offset 7, -12
 1118              		.cfi_offset 8, -8
 1119              		.cfi_offset 14, -4
 1120              		.loc 1 1486 0
 1121 0004 0646     		mov	r6, r0
 1122 0006 0D46     		mov	r5, r1
 1123              		.loc 1 1492 0
 1124 0008 FFF7FEFF 		bl	sync_window
 1125              	.LVL150:
 1126 000c 0446     		mov	r4, r0
 1127 000e 0028     		cmp	r0, #0
 1128 0010 3FD1     		bne	.L118
 1129              		.loc 1 1493 0
 1130 0012 2946     		mov	r1, r5
 1131 0014 3046     		mov	r0, r6
 1132 0016 FFF7FEFF 		bl	clst2sect
 1133              	.LVL151:
 1134              		.loc 1 1495 0
 1135 001a 06F14C05 		add	r5, r6, #76
 1136              	.LVL152:
 1137              		.loc 1 1494 0
 1138 001e B064     		str	r0, [r6, #72]
 1139              		.loc 1 1495 0
 1140 0020 2146     		mov	r1, r4
ARM GAS  /tmp/ccWRkTKh.s 			page 21


 1141              		.loc 1 1493 0
 1142 0022 0746     		mov	r7, r0
 1143              	.LVL153:
 1144              		.loc 1 1495 0
 1145 0024 4FF40072 		mov	r2, #512
 1146 0028 2846     		mov	r0, r5
 1147              	.LVL154:
 1148 002a FFF7FEFF 		bl	mem_set
 1149              	.LVL155:
 1150              		.loc 1 1498 0
 1151 002e 7489     		ldrh	r4, [r6, #10]
 1152 0030 6402     		lsls	r4, r4, #9
 1153 0032 B4F5004F 		cmp	r4, #32768
 1154 0036 28BF     		it	cs
 1155 0038 4FF40044 		movcs	r4, #32768
 1156              	.LVL156:
 1157              	.L108:
 1158              		.loc 1 1498 0 is_stmt 0 discriminator 1
 1159 003c B4F5007F 		cmp	r4, #512
 1160 0040 06D9     		bls	.L119
 1161              		.loc 1 1498 0 discriminator 3
 1162 0042 2046     		mov	r0, r4
 1163 0044 FFF7FEFF 		bl	ff_memalloc
 1164              	.LVL157:
 1165 0048 8046     		mov	r8, r0
 1166 004a 28BB     		cbnz	r0, .L122
 1167              		.loc 1 1498 0 discriminator 4
 1168 004c 6408     		lsrs	r4, r4, #1
 1169              	.LVL158:
 1170 004e F5E7     		b	.L108
 1171              	.LVL159:
 1172              	.L119:
 1173 0050 0024     		movs	r4, #0
 1174              	.LVL160:
 1175              	.L109:
 1176              		.loc 1 1508 0 is_stmt 1 discriminator 1
 1177 0052 7389     		ldrh	r3, [r6, #10]
 1178 0054 9C42     		cmp	r4, r3
 1179 0056 16D2     		bcs	.L113
 1180              		.loc 1 1508 0 is_stmt 0 discriminator 3
 1181 0058 7078     		ldrb	r0, [r6, #1]	@ zero_extendqisi2
 1182 005a 2946     		mov	r1, r5
 1183 005c E219     		adds	r2, r4, r7
 1184 005e 0123     		movs	r3, #1
 1185 0060 FFF7FEFF 		bl	disk_write
 1186              	.LVL161:
 1187 0064 78B9     		cbnz	r0, .L113
 1188              		.loc 1 1508 0 discriminator 4
 1189 0066 0134     		adds	r4, r4, #1
 1190              	.LVL162:
 1191 0068 F3E7     		b	.L109
 1192              	.LVL163:
 1193              	.L112:
 1194              		.loc 1 1502 0 is_stmt 1 discriminator 3
 1195 006a 7078     		ldrb	r0, [r6, #1]	@ zero_extendqisi2
 1196 006c 4146     		mov	r1, r8
 1197 006e E219     		adds	r2, r4, r7
ARM GAS  /tmp/ccWRkTKh.s 			page 22


 1198 0070 2B46     		mov	r3, r5
 1199 0072 FFF7FEFF 		bl	disk_write
 1200              	.LVL164:
 1201 0076 18B9     		cbnz	r0, .L115
 1202              		.loc 1 1502 0 is_stmt 0 discriminator 4
 1203 0078 2C44     		add	r4, r4, r5
 1204              	.LVL165:
 1205              	.L117:
 1206              		.loc 1 1502 0 discriminator 1
 1207 007a 7389     		ldrh	r3, [r6, #10]
 1208 007c 9C42     		cmp	r4, r3
 1209 007e F4D3     		bcc	.L112
 1210              	.L115:
 1211              		.loc 1 1503 0 is_stmt 1
 1212 0080 4046     		mov	r0, r8
 1213 0082 FFF7FEFF 		bl	ff_memfree
 1214              	.LVL166:
 1215              	.L113:
 1216              		.loc 1 1510 0
 1217 0086 7089     		ldrh	r0, [r6, #10]
 1218 0088 201A     		subs	r0, r4, r0
 1219 008a 18BF     		it	ne
 1220 008c 0120     		movne	r0, #1
 1221 008e BDE8F081 		pop	{r4, r5, r6, r7, r8, pc}
 1222              	.LVL167:
 1223              	.L118:
 1224              		.loc 1 1492 0
 1225 0092 0120     		movs	r0, #1
 1226 0094 BDE8F081 		pop	{r4, r5, r6, r7, r8, pc}
 1227              	.LVL168:
 1228              	.L122:
 1229              		.loc 1 1500 0
 1230 0098 2246     		mov	r2, r4
 1231 009a 0021     		movs	r1, #0
 1232              		.loc 1 1501 0
 1233 009c 650A     		lsrs	r5, r4, #9
 1234              		.loc 1 1500 0
 1235 009e FFF7FEFF 		bl	mem_set
 1236              	.LVL169:
 1237              		.loc 1 1502 0
 1238 00a2 0024     		movs	r4, #0
 1239 00a4 E9E7     		b	.L117
 1240              		.cfi_endproc
 1241              	.LFE316:
 1242              		.size	dir_clear, .-dir_clear
 1243              		.section	.text.move_window,"ax",%progbits
 1244              		.align	1
 1245              		.thumb
 1246              		.thumb_func
 1247              		.type	move_window, %function
 1248              	move_window:
 1249              	.LFB305:
 1250              		.loc 1 896 0
 1251              		.cfi_startproc
 1252              		@ args = 0, pretend = 0, frame = 0
 1253              		@ frame_needed = 0, uses_anonymous_args = 0
 1254              	.LVL170:
ARM GAS  /tmp/ccWRkTKh.s 			page 23


 1255              		.loc 1 900 0
 1256 0000 836C     		ldr	r3, [r0, #72]
 1257 0002 9942     		cmp	r1, r3
 1258              		.loc 1 896 0
 1259 0004 70B5     		push	{r4, r5, r6, lr}
 1260              		.cfi_def_cfa_offset 16
 1261              		.cfi_offset 4, -16
 1262              		.cfi_offset 5, -12
 1263              		.cfi_offset 6, -8
 1264              		.cfi_offset 14, -4
 1265              		.loc 1 896 0
 1266 0006 0646     		mov	r6, r0
 1267 0008 0D46     		mov	r5, r1
 1268              		.loc 1 900 0
 1269 000a 11D0     		beq	.L126
 1270              	.LVL171:
 1271              	.LBB132:
 1272              	.LBB133:
 1273              		.loc 1 902 0
 1274 000c FFF7FEFF 		bl	sync_window
 1275              	.LVL172:
 1276              		.loc 1 904 0
 1277 0010 0446     		mov	r4, r0
 1278 0012 70B9     		cbnz	r0, .L124
 1279              		.loc 1 905 0
 1280 0014 2A46     		mov	r2, r5
 1281 0016 7078     		ldrb	r0, [r6, #1]	@ zero_extendqisi2
 1282              	.LVL173:
 1283 0018 06F14C01 		add	r1, r6, #76
 1284 001c 0123     		movs	r3, #1
 1285 001e FFF7FEFF 		bl	disk_read
 1286              	.LVL174:
 1287 0022 0028     		cmp	r0, #0
 1288              		.loc 1 907 0
 1289 0024 1CBF     		itt	ne
 1290 0026 4FF0FF35 		movne	r5, #-1
 1291              	.LVL175:
 1292 002a 0124     		movne	r4, #1
 1293              	.LVL176:
 1294              		.loc 1 909 0
 1295 002c B564     		str	r5, [r6, #72]
 1296 002e 00E0     		b	.L124
 1297              	.LVL177:
 1298              	.L126:
 1299              	.LBE133:
 1300              	.LBE132:
 1301              		.loc 1 897 0
 1302 0030 0024     		movs	r4, #0
 1303              	.LVL178:
 1304              	.L124:
 1305              		.loc 1 913 0
 1306 0032 2046     		mov	r0, r4
 1307 0034 70BD     		pop	{r4, r5, r6, pc}
 1308              		.cfi_endproc
 1309              	.LFE305:
 1310              		.size	move_window, .-move_window
 1311              		.section	.text.change_bitmap,"ax",%progbits
ARM GAS  /tmp/ccWRkTKh.s 			page 24


 1312              		.align	1
 1313              		.thumb
 1314              		.thumb_func
 1315              		.type	change_bitmap, %function
 1316              	change_bitmap:
 1317              	.LFB311:
 1318              		.loc 1 1171 0
 1319              		.cfi_startproc
 1320              		@ args = 0, pretend = 0, frame = 0
 1321              		@ frame_needed = 0, uses_anonymous_args = 0
 1322              	.LVL179:
 1323 0000 2DE9F843 		push	{r3, r4, r5, r6, r7, r8, r9, lr}
 1324              		.cfi_def_cfa_offset 32
 1325              		.cfi_offset 3, -32
 1326              		.cfi_offset 4, -28
 1327              		.cfi_offset 5, -24
 1328              		.cfi_offset 6, -20
 1329              		.cfi_offset 7, -16
 1330              		.cfi_offset 8, -12
 1331              		.cfi_offset 9, -8
 1332              		.cfi_offset 14, -4
 1333              		.loc 1 1171 0
 1334 0004 0646     		mov	r6, r0
 1335              		.loc 1 1177 0
 1336 0006 881E     		subs	r0, r1, #2
 1337              	.LVL180:
 1338              		.loc 1 1178 0
 1339 0008 716C     		ldr	r1, [r6, #68]
 1340              		.loc 1 1179 0
 1341 000a C0F3C805 		ubfx	r5, r0, #3, #9
 1342              		.loc 1 1178 0
 1343 000e 01EB1031 		add	r1, r1, r0, lsr #12
 1344              	.LVL181:
 1345              		.loc 1 1180 0
 1346 0012 0124     		movs	r4, #1
 1347 0014 00F00700 		and	r0, r0, #7
 1348              	.LVL182:
 1349 0018 8440     		lsls	r4, r4, r0
 1350              		.loc 1 1171 0
 1351 001a 1746     		mov	r7, r2
 1352 001c 9846     		mov	r8, r3
 1353              		.loc 1 1180 0
 1354 001e E4B2     		uxtb	r4, r4
 1355              	.LVL183:
 1356              	.L133:
 1357              		.loc 1 1182 0
 1358 0020 3046     		mov	r0, r6
 1359 0022 01F10109 		add	r9, r1, #1
 1360              	.LVL184:
 1361 0026 FFF7FEFF 		bl	move_window
 1362              	.LVL185:
 1363 002a E0B9     		cbnz	r0, .L141
 1364              	.LVL186:
 1365              	.L131:
 1366              		.loc 1 1185 0
 1367 002c 7319     		adds	r3, r6, r5
 1368 002e 93F84C10 		ldrb	r1, [r3, #76]	@ zero_extendqisi2
ARM GAS  /tmp/ccWRkTKh.s 			page 25


 1369 0032 2142     		tst	r1, r4
 1370 0034 14BF     		ite	ne
 1371 0036 0122     		movne	r2, #1
 1372 0038 0022     		moveq	r2, #0
 1373 003a 9045     		cmp	r8, r2
 1374 003c 16D0     		beq	.L135
 1375              	.LVL187:
 1376              		.loc 1 1186 0
 1377 003e 6140     		eors	r1, r1, r4
 1378 0040 83F84C10 		strb	r1, [r3, #76]
 1379              		.loc 1 1188 0
 1380 0044 013F     		subs	r7, r7, #1
 1381              	.LVL188:
 1382              		.loc 1 1187 0
 1383 0046 4FF00103 		mov	r3, #1
 1384 004a F370     		strb	r3, [r6, #3]
 1385              		.loc 1 1188 0
 1386 004c 0FD0     		beq	.L130
 1387              		.loc 1 1189 0
 1388 004e 9C40     		lsls	r4, r4, r3
 1389              	.LVL189:
 1390 0050 14F0FF04 		ands	r4, r4, #255
 1391              	.LVL190:
 1392 0054 EAD1     		bne	.L131
 1393              	.LVL191:
 1394              		.loc 1 1191 0
 1395 0056 1D44     		add	r5, r5, r3
 1396              	.LVL192:
 1397 0058 B5F5007F 		cmp	r5, #512
 1398              		.loc 1 1190 0
 1399 005c 1C46     		mov	r4, r3
 1400              		.loc 1 1191 0
 1401 005e E5D1     		bne	.L131
 1402              		.loc 1 1192 0
 1403 0060 0025     		movs	r5, #0
 1404              	.LVL193:
 1405              		.loc 1 1182 0
 1406 0062 4946     		mov	r1, r9
 1407 0064 DCE7     		b	.L133
 1408              	.LVL194:
 1409              	.L141:
 1410 0066 0120     		movs	r0, #1
 1411 0068 BDE8F883 		pop	{r3, r4, r5, r6, r7, r8, r9, pc}
 1412              	.LVL195:
 1413              	.L135:
 1414              		.loc 1 1185 0
 1415 006c 0220     		movs	r0, #2
 1416              	.L130:
 1417              		.loc 1 1194 0
 1418 006e BDE8F883 		pop	{r3, r4, r5, r6, r7, r8, r9, pc}
 1419              		.cfi_endproc
 1420              	.LFE311:
 1421              		.size	change_bitmap, .-change_bitmap
 1422              		.section	.text.get_fat,"ax",%progbits
 1423              		.align	1
 1424              		.thumb
 1425              		.thumb_func
ARM GAS  /tmp/ccWRkTKh.s 			page 26


 1426              		.type	get_fat, %function
 1427              	get_fat:
 1428              	.LFB308:
 1429              		.loc 1 984 0
 1430              		.cfi_startproc
 1431              		@ args = 0, pretend = 0, frame = 0
 1432              		@ frame_needed = 0, uses_anonymous_args = 0
 1433              	.LVL196:
 1434              		.loc 1 990 0
 1435 0000 0129     		cmp	r1, #1
 1436              		.loc 1 984 0
 1437 0002 F8B5     		push	{r3, r4, r5, r6, r7, lr}
 1438              		.cfi_def_cfa_offset 24
 1439              		.cfi_offset 3, -24
 1440              		.cfi_offset 4, -20
 1441              		.cfi_offset 5, -16
 1442              		.cfi_offset 6, -12
 1443              		.cfi_offset 7, -8
 1444              		.cfi_offset 14, -4
 1445              		.loc 1 984 0
 1446 0004 0C46     		mov	r4, r1
 1447              		.loc 1 987 0
 1448 0006 0668     		ldr	r6, [r0]
 1449              	.LVL197:
 1450              		.loc 1 990 0
 1451 0008 40F28D80 		bls	.L159
 1452              		.loc 1 990 0 is_stmt 0 discriminator 1
 1453 000c 336B     		ldr	r3, [r6, #48]
 1454 000e 9942     		cmp	r1, r3
 1455 0010 80F08980 		bcs	.L159
 1456              	.LVL198:
 1457              		.loc 1 996 0 is_stmt 1
 1458 0014 3378     		ldrb	r3, [r6]	@ zero_extendqisi2
 1459 0016 013B     		subs	r3, r3, #1
 1460 0018 032B     		cmp	r3, #3
 1461 001a 00F28480 		bhi	.L159
 1462 001e DFE803F0 		tbb	[pc, r3]
 1463              	.L145:
 1464 0022 02       		.byte	(.L144-.L145)/2
 1465 0023 29       		.byte	(.L146-.L145)/2
 1466 0024 3D       		.byte	(.L147-.L145)/2
 1467 0025 4F       		.byte	(.L148-.L145)/2
 1468              		.p2align 1
 1469              	.L144:
 1470              	.LVL199:
 1471              		.loc 1 998 0
 1472 0026 01EB5105 		add	r5, r1, r1, lsr #1
 1473              	.LVL200:
 1474              		.loc 1 999 0
 1475 002a F16B     		ldr	r1, [r6, #60]
 1476              	.LVL201:
 1477 002c 3046     		mov	r0, r6
 1478              	.LVL202:
 1479 002e 01EB5521 		add	r1, r1, r5, lsr #9
 1480 0032 FFF7FEFF 		bl	move_window
 1481              	.LVL203:
 1482 0036 10B1     		cbz	r0, .L149
ARM GAS  /tmp/ccWRkTKh.s 			page 27


 1483              	.LVL204:
 1484              	.L150:
 1485              		.loc 1 994 0
 1486 0038 4FF0FF30 		mov	r0, #-1
 1487 003c F8BD     		pop	{r3, r4, r5, r6, r7, pc}
 1488              	.LVL205:
 1489              	.L149:
 1490              		.loc 1 1000 0
 1491 003e 6F1C     		adds	r7, r5, #1
 1492              	.LVL206:
 1493              		.loc 1 1001 0
 1494 0040 F16B     		ldr	r1, [r6, #60]
 1495              		.loc 1 1000 0
 1496 0042 C5F30805 		ubfx	r5, r5, #0, #9
 1497 0046 3544     		add	r5, r5, r6
 1498              		.loc 1 1001 0
 1499 0048 3046     		mov	r0, r6
 1500 004a 01EB5721 		add	r1, r1, r7, lsr #9
 1501              		.loc 1 1000 0
 1502 004e 95F84C50 		ldrb	r5, [r5, #76]	@ zero_extendqisi2
 1503              	.LVL207:
 1504              		.loc 1 1001 0
 1505 0052 FFF7FEFF 		bl	move_window
 1506              	.LVL208:
 1507 0056 0028     		cmp	r0, #0
 1508 0058 EED1     		bne	.L150
 1509              		.loc 1 1002 0
 1510 005a C7F30800 		ubfx	r0, r7, #0, #9
 1511 005e 3044     		add	r0, r0, r6
 1512              		.loc 1 1003 0
 1513 0060 E307     		lsls	r3, r4, #31
 1514              		.loc 1 1002 0
 1515 0062 90F84C00 		ldrb	r0, [r0, #76]	@ zero_extendqisi2
 1516 0066 45EA0020 		orr	r0, r5, r0, lsl #8
 1517              	.LVL209:
 1518              		.loc 1 1003 0
 1519 006a 4CBF     		ite	mi
 1520 006c 0009     		lsrmi	r0, r0, #4
 1521              	.LVL210:
 1522 006e C0F30B00 		ubfxpl	r0, r0, #0, #12
 1523 0072 F8BD     		pop	{r3, r4, r5, r6, r7, pc}
 1524              	.LVL211:
 1525              	.L146:
 1526              		.loc 1 1007 0
 1527 0074 F16B     		ldr	r1, [r6, #60]
 1528              	.LVL212:
 1529 0076 3046     		mov	r0, r6
 1530              	.LVL213:
 1531 0078 01EB1421 		add	r1, r1, r4, lsr #8
 1532 007c FFF7FEFF 		bl	move_window
 1533              	.LVL214:
 1534 0080 0028     		cmp	r0, #0
 1535 0082 D9D1     		bne	.L150
 1536              		.loc 1 1008 0
 1537 0084 6400     		lsls	r4, r4, #1
 1538              	.LVL215:
 1539 0086 04F4FF74 		and	r4, r4, #510
ARM GAS  /tmp/ccWRkTKh.s 			page 28


 1540              	.LVL216:
 1541              	.LBB134:
 1542              	.LBB135:
 1543              		.loc 1 553 0
 1544 008a 3319     		adds	r3, r6, r4
 1545              	.LVL217:
 1546              		.loc 1 552 0
 1547 008c 3444     		add	r4, r4, r6
 1548              	.LVL218:
 1549              		.loc 1 553 0
 1550 008e 93F84C30 		ldrb	r3, [r3, #76]	@ zero_extendqisi2
 1551              	.LVL219:
 1552 0092 94F84D00 		ldrb	r0, [r4, #77]	@ zero_extendqisi2
 1553              	.LBE135:
 1554              	.LBE134:
 1555              		.loc 1 1008 0
 1556 0096 43EA0020 		orr	r0, r3, r0, lsl #8
 1557              	.LVL220:
 1558              		.loc 1 1009 0
 1559 009a F8BD     		pop	{r3, r4, r5, r6, r7, pc}
 1560              	.LVL221:
 1561              	.L147:
 1562              		.loc 1 1012 0
 1563 009c F16B     		ldr	r1, [r6, #60]
 1564              	.LVL222:
 1565 009e 3046     		mov	r0, r6
 1566              	.LVL223:
 1567 00a0 01EBD411 		add	r1, r1, r4, lsr #7
 1568 00a4 FFF7FEFF 		bl	move_window
 1569              	.LVL224:
 1570 00a8 0028     		cmp	r0, #0
 1571 00aa C5D1     		bne	.L150
 1572              		.loc 1 1013 0
 1573 00ac A000     		lsls	r0, r4, #2
 1574 00ae 00F4FE70 		and	r0, r0, #508
 1575 00b2 3044     		add	r0, r0, r6
 1576 00b4 4C30     		adds	r0, r0, #76
 1577 00b6 FFF7FEFF 		bl	ld_dword
 1578              	.LVL225:
 1579 00ba 20F07040 		bic	r0, r0, #-268435456
 1580              	.LVL226:
 1581              		.loc 1 1014 0
 1582 00be F8BD     		pop	{r3, r4, r5, r6, r7, pc}
 1583              	.LVL227:
 1584              	.L148:
 1585              		.loc 1 1017 0
 1586 00c0 D0E90423 		ldrd	r2, [r0, #16]
 1587 00c4 52EA0301 		orrs	r1, r2, r3
 1588              	.LVL228:
 1589 00c8 2DD0     		beq	.L159
 1590              	.LBB136:
 1591              		.loc 1 1021 0
 1592 00ca C179     		ldrb	r1, [r0, #7]	@ zero_extendqisi2
 1593              		.loc 1 1018 0
 1594 00cc 8568     		ldr	r5, [r0, #8]
 1595              		.loc 1 1019 0
 1596 00ce 7789     		ldrh	r7, [r6, #10]
ARM GAS  /tmp/ccWRkTKh.s 			page 29


 1597              		.loc 1 1021 0
 1598 00d0 0229     		cmp	r1, #2
 1599              		.loc 1 1018 0
 1600 00d2 A4EB0505 		sub	r5, r4, r5
 1601              	.LVL229:
 1602              		.loc 1 1021 0
 1603 00d6 0DD1     		bne	.L152
 1604              		.loc 1 1019 0 discriminator 1
 1605 00d8 12F1FF30 		adds	r0, r2, #-1
 1606              	.LVL230:
 1607 00dc 43F1FF31 		adc	r1, r3, #-1
 1608 00e0 430A     		lsrs	r3, r0, #9
 1609 00e2 43EAC153 		orr	r3, r3, r1, lsl #23
 1610 00e6 B3FBF7F3 		udiv	r3, r3, r7
 1611              		.loc 1 1021 0 discriminator 1
 1612 00ea 9D42     		cmp	r5, r3
 1613 00ec 1BD8     		bhi	.L159
 1614              		.loc 1 1022 0
 1615 00ee 1CD0     		beq	.L161
 1616              	.L154:
 1617              		.loc 1 1022 0 is_stmt 0 discriminator 1
 1618 00f0 601C     		adds	r0, r4, #1
 1619 00f2 F8BD     		pop	{r3, r4, r5, r6, r7, pc}
 1620              	.LVL231:
 1621              	.L152:
 1622              		.loc 1 1025 0 is_stmt 1
 1623 00f4 0329     		cmp	r1, #3
 1624 00f6 02D1     		bne	.L153
 1625              		.loc 1 1025 0 is_stmt 0 discriminator 1
 1626 00f8 8369     		ldr	r3, [r0, #24]
 1627 00fa 9D42     		cmp	r5, r3
 1628 00fc F8D3     		bcc	.L154
 1629              	.L153:
 1630              		.loc 1 1030 0 is_stmt 1
 1631 00fe C369     		ldr	r3, [r0, #28]
 1632 0100 9BB9     		cbnz	r3, .L161
 1633              		.loc 1 1033 0
 1634 0102 F16B     		ldr	r1, [r6, #60]
 1635 0104 3046     		mov	r0, r6
 1636              	.LVL232:
 1637 0106 01EBD411 		add	r1, r1, r4, lsr #7
 1638 010a FFF7FEFF 		bl	move_window
 1639              	.LVL233:
 1640 010e 0028     		cmp	r0, #0
 1641 0110 92D1     		bne	.L150
 1642              		.loc 1 1034 0
 1643 0112 A000     		lsls	r0, r4, #2
 1644 0114 00F4FE70 		and	r0, r0, #508
 1645 0118 3044     		add	r0, r0, r6
 1646 011a 4C30     		adds	r0, r0, #76
 1647 011c FFF7FEFF 		bl	ld_dword
 1648              	.LVL234:
 1649 0120 20F00040 		bic	r0, r0, #-2147483648
 1650              	.LVL235:
 1651 0124 F8BD     		pop	{r3, r4, r5, r6, r7, pc}
 1652              	.LVL236:
 1653              	.L159:
ARM GAS  /tmp/ccWRkTKh.s 			page 30


 1654              	.LBE136:
 1655              		.loc 1 991 0
 1656 0126 0120     		movs	r0, #1
 1657 0128 F8BD     		pop	{r3, r4, r5, r6, r7, pc}
 1658              	.LVL237:
 1659              	.L161:
 1660              	.LBB137:
 1661              		.loc 1 1022 0
 1662 012a 6FF00040 		mvn	r0, #-2147483648
 1663              	.LVL238:
 1664              	.LBE137:
 1665              		.loc 1 1047 0
 1666 012e F8BD     		pop	{r3, r4, r5, r6, r7, pc}
 1667              		.cfi_endproc
 1668              	.LFE308:
 1669              		.size	get_fat, .-get_fat
 1670              		.section	.text.dir_sdi,"ax",%progbits
 1671              		.align	1
 1672              		.thumb
 1673              		.thumb_func
 1674              		.type	dir_sdi, %function
 1675              	dir_sdi:
 1676              	.LFB317:
 1677              		.loc 1 1526 0
 1678              		.cfi_startproc
 1679              		@ args = 0, pretend = 0, frame = 0
 1680              		@ frame_needed = 0, uses_anonymous_args = 0
 1681              	.LVL239:
 1682 0000 2DE9F041 		push	{r4, r5, r6, r7, r8, lr}
 1683              		.cfi_def_cfa_offset 24
 1684              		.cfi_offset 4, -24
 1685              		.cfi_offset 5, -20
 1686              		.cfi_offset 6, -16
 1687              		.cfi_offset 7, -12
 1688              		.cfi_offset 8, -8
 1689              		.cfi_offset 14, -4
 1690              		.loc 1 1528 0
 1691 0004 0768     		ldr	r7, [r0]
 1692              	.LVL240:
 1693              		.loc 1 1531 0
 1694 0006 3B78     		ldrb	r3, [r7]	@ zero_extendqisi2
 1695 0008 042B     		cmp	r3, #4
 1696 000a 0CBF     		ite	eq
 1697 000c 4FF08053 		moveq	r3, #268435456
 1698 0010 4FF40013 		movne	r3, #2097152
 1699 0014 9942     		cmp	r1, r3
 1700              		.loc 1 1526 0
 1701 0016 0546     		mov	r5, r0
 1702 0018 0C46     		mov	r4, r1
 1703              		.loc 1 1531 0
 1704 001a 02D3     		bcc	.L164
 1705              	.LVL241:
 1706              	.L166:
 1707              		.loc 1 1532 0
 1708 001c 0220     		movs	r0, #2
 1709 001e BDE8F081 		pop	{r4, r5, r6, r7, r8, pc}
 1710              	.LVL242:
ARM GAS  /tmp/ccWRkTKh.s 			page 31


 1711              	.L164:
 1712              		.loc 1 1531 0 discriminator 5
 1713 0022 CA06     		lsls	r2, r1, #27
 1714 0024 FAD1     		bne	.L166
 1715              		.loc 1 1535 0
 1716 0026 8668     		ldr	r6, [r0, #8]
 1717              	.LVL243:
 1718              		.loc 1 1534 0
 1719 0028 2963     		str	r1, [r5, #48]
 1720              		.loc 1 1536 0
 1721 002a 76B9     		cbnz	r6, .L167
 1722              		.loc 1 1536 0 is_stmt 0 discriminator 1
 1723 002c 3B78     		ldrb	r3, [r7]	@ zero_extendqisi2
 1724 002e 022B     		cmp	r3, #2
 1725 0030 06D8     		bhi	.L168
 1726              	.LVL244:
 1727              	.L170:
 1728              		.loc 1 1542 0 is_stmt 1
 1729 0032 3B89     		ldrh	r3, [r7, #8]
 1730 0034 B3EB541F 		cmp	r3, r4, lsr #5
 1731 0038 F0D9     		bls	.L166
 1732              		.loc 1 1543 0
 1733 003a 3B6C     		ldr	r3, [r7, #64]
 1734 003c AB63     		str	r3, [r5, #56]
 1735 003e 1EE0     		b	.L171
 1736              	.LVL245:
 1737              	.L168:
 1738              		.loc 1 1537 0
 1739 0040 3B6C     		ldr	r3, [r7, #64]
 1740              	.LVL246:
 1741              		.loc 1 1538 0
 1742 0042 C671     		strb	r6, [r0, #7]
 1743              		.loc 1 1541 0
 1744 0044 002B     		cmp	r3, #0
 1745 0046 F4D0     		beq	.L170
 1746 0048 1E46     		mov	r6, r3
 1747              	.LVL247:
 1748              	.L167:
 1749              		.loc 1 1546 0
 1750 004a B7F80A80 		ldrh	r8, [r7, #10]
 1751 004e 4FEA4828 		lsl	r8, r8, #9
 1752              	.LVL248:
 1753              	.L172:
 1754              		.loc 1 1547 0
 1755 0052 4445     		cmp	r4, r8
 1756 0054 0ED3     		bcc	.L183
 1757              		.loc 1 1548 0
 1758 0056 3146     		mov	r1, r6
 1759 0058 2846     		mov	r0, r5
 1760 005a FFF7FEFF 		bl	get_fat
 1761              	.LVL249:
 1762              		.loc 1 1549 0
 1763 005e 431C     		adds	r3, r0, #1
 1764              		.loc 1 1548 0
 1765 0060 0646     		mov	r6, r0
 1766              	.LVL250:
 1767              		.loc 1 1549 0
ARM GAS  /tmp/ccWRkTKh.s 			page 32


 1768 0062 1BD0     		beq	.L175
 1769              		.loc 1 1550 0
 1770 0064 0128     		cmp	r0, #1
 1771 0066 D9D9     		bls	.L166
 1772              		.loc 1 1550 0 is_stmt 0 discriminator 2
 1773 0068 3B6B     		ldr	r3, [r7, #48]
 1774 006a 9842     		cmp	r0, r3
 1775 006c D6D2     		bcs	.L166
 1776              		.loc 1 1551 0 is_stmt 1
 1777 006e C8EB0404 		rsb	r4, r8, r4
 1778              	.LVL251:
 1779 0072 EEE7     		b	.L172
 1780              	.LVL252:
 1781              	.L183:
 1782              		.loc 1 1553 0
 1783 0074 3846     		mov	r0, r7
 1784 0076 3146     		mov	r1, r6
 1785 0078 FFF7FEFF 		bl	clst2sect
 1786              	.LVL253:
 1787 007c A863     		str	r0, [r5, #56]
 1788              	.LVL254:
 1789              	.L171:
 1790              		.loc 1 1556 0
 1791 007e AB6B     		ldr	r3, [r5, #56]
 1792              		.loc 1 1555 0
 1793 0080 6E63     		str	r6, [r5, #52]
 1794              		.loc 1 1556 0
 1795 0082 002B     		cmp	r3, #0
 1796 0084 CAD0     		beq	.L166
 1797              		.loc 1 1557 0
 1798 0086 03EB5423 		add	r3, r3, r4, lsr #9
 1799              		.loc 1 1558 0
 1800 008a C4F30804 		ubfx	r4, r4, #0, #9
 1801              	.LVL255:
 1802 008e 3C44     		add	r4, r4, r7
 1803 0090 4C34     		adds	r4, r4, #76
 1804              		.loc 1 1557 0
 1805 0092 AB63     		str	r3, [r5, #56]
 1806              		.loc 1 1558 0
 1807 0094 EC63     		str	r4, [r5, #60]
 1808              		.loc 1 1560 0
 1809 0096 0020     		movs	r0, #0
 1810 0098 BDE8F081 		pop	{r4, r5, r6, r7, r8, pc}
 1811              	.LVL256:
 1812              	.L175:
 1813              		.loc 1 1549 0
 1814 009c 0120     		movs	r0, #1
 1815              	.LVL257:
 1816              		.loc 1 1561 0
 1817 009e BDE8F081 		pop	{r4, r5, r6, r7, r8, pc}
 1818              		.cfi_endproc
 1819              	.LFE317:
 1820              		.size	dir_sdi, .-dir_sdi
 1821              		.section	.text.check_fs,"ax",%progbits
 1822              		.align	1
 1823              		.thumb
 1824              		.thumb_func
ARM GAS  /tmp/ccWRkTKh.s 			page 33


 1825              		.type	check_fs, %function
 1826              	check_fs:
 1827              	.LFB342:
 1828              		.loc 1 3015 0
 1829              		.cfi_startproc
 1830              		@ args = 0, pretend = 0, frame = 0
 1831              		@ frame_needed = 0, uses_anonymous_args = 0
 1832              	.LVL258:
 1833              		.loc 1 3016 0
 1834 0000 0023     		movs	r3, #0
 1835              		.loc 1 3015 0
 1836 0002 10B5     		push	{r4, lr}
 1837              		.cfi_def_cfa_offset 8
 1838              		.cfi_offset 4, -8
 1839              		.cfi_offset 14, -4
 1840              		.loc 1 3016 0
 1841 0004 C370     		strb	r3, [r0, #3]
 1842 0006 4FF0FF33 		mov	r3, #-1
 1843 000a 8364     		str	r3, [r0, #72]
 1844              		.loc 1 3015 0
 1845 000c 0446     		mov	r4, r0
 1846              		.loc 1 3017 0
 1847 000e FFF7FEFF 		bl	move_window
 1848              	.LVL259:
 1849 0012 60BB     		cbnz	r0, .L187
 1850              	.LVL260:
 1851              	.LBB144:
 1852              	.LBB145:
 1853              		.loc 1 553 0
 1854 0014 94F84B22 		ldrb	r2, [r4, #587]	@ zero_extendqisi2
 1855 0018 94F84A32 		ldrb	r3, [r4, #586]	@ zero_extendqisi2
 1856 001c 43EA0223 		orr	r3, r3, r2, lsl #8
 1857              	.LBE145:
 1858              	.LBE144:
 1859              		.loc 1 3019 0
 1860 0020 4AF65522 		movw	r2, #43605
 1861 0024 9342     		cmp	r3, r2
 1862 0026 24D1     		bne	.L188
 1863              		.loc 1 3022 0
 1864 0028 04F14C00 		add	r0, r4, #76
 1865 002c 1449     		ldr	r1, .L196
 1866 002e 0B22     		movs	r2, #11
 1867 0030 FFF7FEFF 		bl	mem_cmp
 1868              	.LVL261:
 1869 0034 F8B1     		cbz	r0, .L189
 1870              	.LVL262:
 1871              	.LBB146:
 1872              	.LBB147:
 1873              		.loc 1 3024 0
 1874 0036 94F84C30 		ldrb	r3, [r4, #76]	@ zero_extendqisi2
 1875 003a E92B     		cmp	r3, #233
 1876 003c 05D0     		beq	.L186
 1877 003e E36C     		ldr	r3, [r4, #76]
 1878 0040 104A     		ldr	r2, .L196+4
 1879 0042 03F0FF13 		and	r3, r3, #16711935
 1880 0046 9342     		cmp	r3, r2
 1881 0048 17D1     		bne	.L190
ARM GAS  /tmp/ccWRkTKh.s 			page 34


 1882              	.L186:
 1883              		.loc 1 3025 0
 1884 004a 04F18200 		add	r0, r4, #130
 1885 004e 0E49     		ldr	r1, .L196+8
 1886 0050 0322     		movs	r2, #3
 1887 0052 FFF7FEFF 		bl	mem_cmp
 1888              	.LVL263:
 1889 0056 88B1     		cbz	r0, .L185
 1890              		.loc 1 3026 0
 1891 0058 04F19E00 		add	r0, r4, #158
 1892 005c 0B49     		ldr	r1, .L196+12
 1893 005e 0522     		movs	r2, #5
 1894 0060 FFF7FEFF 		bl	mem_cmp
 1895              	.LVL264:
 1896              		.loc 1 3025 0
 1897 0064 0028     		cmp	r0, #0
 1898 0066 14BF     		ite	ne
 1899 0068 0220     		movne	r0, #2
 1900 006a 0020     		moveq	r0, #0
 1901 006c 10BD     		pop	{r4, pc}
 1902              	.LVL265:
 1903              	.L187:
 1904              	.LBE147:
 1905              	.LBE146:
 1906              		.loc 1 3017 0
 1907 006e 0420     		movs	r0, #4
 1908 0070 10BD     		pop	{r4, pc}
 1909              	.LVL266:
 1910              	.L188:
 1911              		.loc 1 3019 0
 1912 0072 0320     		movs	r0, #3
 1913 0074 10BD     		pop	{r4, pc}
 1914              	.LVL267:
 1915              	.L189:
 1916              		.loc 1 3022 0
 1917 0076 0120     		movs	r0, #1
 1918 0078 10BD     		pop	{r4, pc}
 1919              	.LVL268:
 1920              	.L190:
 1921              	.LBB149:
 1922              	.LBB148:
 1923              		.loc 1 3028 0
 1924 007a 0220     		movs	r0, #2
 1925              	.L185:
 1926              	.LBE148:
 1927              	.LBE149:
 1928              		.loc 1 3029 0
 1929 007c 10BD     		pop	{r4, pc}
 1930              	.LVL269:
 1931              	.L197:
 1932 007e 00BF     		.align	2
 1933              	.L196:
 1934 0080 00000000 		.word	.LC0
 1935 0084 EB009000 		.word	9437419
 1936 0088 0C000000 		.word	.LC1
 1937 008c 10000000 		.word	.LC2
 1938              		.cfi_endproc
ARM GAS  /tmp/ccWRkTKh.s 			page 35


 1939              	.LFE342:
 1940              		.size	check_fs, .-check_fs
 1941              		.section	.text.find_volume,"ax",%progbits
 1942              		.align	1
 1943              		.thumb
 1944              		.thumb_func
 1945              		.type	find_volume, %function
 1946              	find_volume:
 1947              	.LFB343:
 1948              		.loc 1 3044 0
 1949              		.cfi_startproc
 1950              		@ args = 0, pretend = 0, frame = 16
 1951              		@ frame_needed = 0, uses_anonymous_args = 0
 1952              	.LVL270:
 1953 0000 2DE9FF47 		push	{r0, r1, r2, r3, r4, r5, r6, r7, r8, r9, r10, lr}
 1954              		.cfi_def_cfa_offset 48
 1955              		.cfi_offset 4, -32
 1956              		.cfi_offset 5, -28
 1957              		.cfi_offset 6, -24
 1958              		.cfi_offset 7, -20
 1959              		.cfi_offset 8, -16
 1960              		.cfi_offset 9, -12
 1961              		.cfi_offset 10, -8
 1962              		.cfi_offset 14, -4
 1963              		.loc 1 3055 0
 1964 0004 0023     		movs	r3, #0
 1965 0006 0B60     		str	r3, [r1]
 1966              		.loc 1 3044 0
 1967 0008 0F46     		mov	r7, r1
 1968 000a 1546     		mov	r5, r2
 1969              		.loc 1 3056 0
 1970 000c FFF7FEFF 		bl	get_ldnumber
 1971              	.LVL271:
 1972              		.loc 1 3057 0
 1973 0010 061E     		subs	r6, r0, #0
 1974 0012 C0F24481 		blt	.L231
 1975              		.loc 1 3060 0
 1976 0016 A74B     		ldr	r3, .L273
 1977 0018 53F82640 		ldr	r4, [r3, r6, lsl #2]
 1978              	.LVL272:
 1979              		.loc 1 3061 0
 1980 001c 002C     		cmp	r4, #0
 1981 001e 00F04081 		beq	.L232
 1982              	.LVL273:
 1983              	.LBB150:
 1984              	.LBB151:
 1985              		.loc 1 731 0
 1986 0022 6069     		ldr	r0, [r4, #20]
 1987              	.LVL274:
 1988 0024 FFF7FEFF 		bl	ff_req_grant
 1989              	.LVL275:
 1990              	.LBE151:
 1991              	.LBE150:
 1992              		.loc 1 3063 0
 1993 0028 0028     		cmp	r0, #0
 1994 002a 00F03C81 		beq	.L233
 1995              		.loc 1 3065 0
ARM GAS  /tmp/ccWRkTKh.s 			page 36


 1996 002e 3C60     		str	r4, [r7]
 1997              		.loc 1 3068 0
 1998 0030 2378     		ldrb	r3, [r4]	@ zero_extendqisi2
 1999              		.loc 1 3067 0
 2000 0032 05F0FE05 		and	r5, r5, #254
 2001              	.LVL276:
 2002              		.loc 1 3068 0
 2003 0036 83B1     		cbz	r3, .L200
 2004              		.loc 1 3069 0
 2005 0038 6078     		ldrb	r0, [r4, #1]	@ zero_extendqisi2
 2006 003a FFF7FEFF 		bl	disk_status
 2007              	.LVL277:
 2008              		.loc 1 3070 0
 2009 003e C107     		lsls	r1, r0, #31
 2010 0040 0BD4     		bmi	.L200
 2011              		.loc 1 3071 0
 2012 0042 002D     		cmp	r5, #0
 2013 0044 00F03181 		beq	.L234
 2014              		.loc 1 3071 0 is_stmt 0 discriminator 1
 2015 0048 00F00403 		and	r3, r0, #4
 2016 004c 03F0FF00 		and	r0, r3, #255
 2017              	.LVL278:
 2018 0050 002B     		cmp	r3, #0
 2019 0052 00F0BE81 		beq	.L269
 2020              	.L202:
 2021              		.loc 1 3072 0 is_stmt 1
 2022 0056 0A20     		movs	r0, #10
 2023 0058 BBE1     		b	.L269
 2024              	.L200:
 2025              		.loc 1 3081 0
 2026 005a 0023     		movs	r3, #0
 2027              		.loc 1 3082 0
 2028 005c F0B2     		uxtb	r0, r6
 2029              		.loc 1 3081 0
 2030 005e 2370     		strb	r3, [r4]
 2031              		.loc 1 3082 0
 2032 0060 6070     		strb	r0, [r4, #1]
 2033              		.loc 1 3083 0
 2034 0062 FFF7FEFF 		bl	disk_initialize
 2035              	.LVL279:
 2036              		.loc 1 3084 0
 2037 0066 C207     		lsls	r2, r0, #31
 2038 0068 00F12181 		bmi	.L236
 2039              		.loc 1 3087 0
 2040 006c 0DB1     		cbz	r5, .L201
 2041              		.loc 1 3087 0 is_stmt 0 discriminator 1
 2042 006e 4307     		lsls	r3, r0, #29
 2043 0070 F1D4     		bmi	.L202
 2044              	.L201:
 2045              	.LVL280:
 2046              		.loc 1 3097 0 is_stmt 1
 2047 0072 2046     		mov	r0, r4
 2048              	.LVL281:
 2049 0074 0021     		movs	r1, #0
 2050 0076 FFF7FEFF 		bl	check_fs
 2051              	.LVL282:
 2052              		.loc 1 3098 0
ARM GAS  /tmp/ccWRkTKh.s 			page 37


 2053 007a 0228     		cmp	r0, #2
 2054 007c 21D1     		bne	.L203
 2055 007e 04F21226 		addw	r6, r4, #530
 2056              	.LVL283:
 2057 0082 0025     		movs	r5, #0
 2058              	.LVL284:
 2059              	.L205:
 2060              		.loc 1 3101 0
 2061 0084 16F8040C 		ldrb	r0, [r6, #-4]	@ zero_extendqisi2
 2062 0088 10B1     		cbz	r0, .L204
 2063              		.loc 1 3101 0 is_stmt 0 discriminator 1
 2064 008a 3046     		mov	r0, r6
 2065 008c FFF7FEFF 		bl	ld_dword
 2066              	.LVL285:
 2067              	.L204:
 2068              		.loc 1 3101 0 discriminator 4
 2069 0090 4DF82500 		str	r0, [sp, r5, lsl #2]
 2070              		.loc 1 3099 0 is_stmt 1 discriminator 4
 2071 0094 0135     		adds	r5, r5, #1
 2072              	.LVL286:
 2073 0096 042D     		cmp	r5, #4
 2074 0098 06F11006 		add	r6, r6, #16
 2075              	.LVL287:
 2076 009c F2D1     		bne	.L205
 2077 009e 0025     		movs	r5, #0
 2078              	.LVL288:
 2079              	.L208:
 2080              		.loc 1 3106 0
 2081 00a0 5DF82580 		ldr	r8, [sp, r5, lsl #2]
 2082              	.LVL289:
 2083              		.loc 1 3107 0
 2084 00a4 B8F1000F 		cmp	r8, #0
 2085 00a8 06D0     		beq	.L238
 2086              		.loc 1 3107 0 is_stmt 0 discriminator 1
 2087 00aa 2046     		mov	r0, r4
 2088 00ac 4146     		mov	r1, r8
 2089 00ae FFF7FEFF 		bl	check_fs
 2090              	.LVL290:
 2091              		.loc 1 3108 0 is_stmt 1 discriminator 1
 2092 00b2 0128     		cmp	r0, #1
 2093 00b4 01D8     		bhi	.L206
 2094 00b6 0EE0     		b	.L207
 2095              	.LVL291:
 2096              	.L238:
 2097              		.loc 1 3107 0
 2098 00b8 0320     		movs	r0, #3
 2099              	.L206:
 2100              		.loc 1 3108 0 discriminator 1
 2101 00ba 0135     		adds	r5, r5, #1
 2102              	.LVL292:
 2103 00bc 042D     		cmp	r5, #4
 2104 00be EFD1     		bne	.L208
 2105 00c0 83E1     		b	.L272
 2106              	.LVL293:
 2107              	.L203:
 2108              		.loc 1 3110 0
 2109 00c2 0428     		cmp	r0, #4
ARM GAS  /tmp/ccWRkTKh.s 			page 38


 2110              		.loc 1 3096 0
 2111 00c4 4FF00008 		mov	r8, #0
 2112              		.loc 1 3110 0
 2113 00c8 01D1     		bne	.L210
 2114              	.LVL294:
 2115              	.L216:
 2116 00ca 0120     		movs	r0, #1
 2117 00cc 81E1     		b	.L269
 2118              	.LVL295:
 2119              	.L210:
 2120              		.loc 1 3111 0
 2121 00ce 0128     		cmp	r0, #1
 2122 00d0 01D9     		bls	.L207
 2123              	.LVL296:
 2124              	.L215:
 2125 00d2 0D20     		movs	r0, #13
 2126 00d4 7DE1     		b	.L269
 2127              	.LVL297:
 2128              	.L207:
 2129              		.loc 1 3116 0
 2130 00d6 0128     		cmp	r0, #1
 2131 00d8 0AD1     		bne	.L211
 2132 00da 04F15603 		add	r3, r4, #86
 2133 00de 04F18B01 		add	r1, r4, #139
 2134              	.L212:
 2135              	.LBB152:
 2136              		.loc 1 3119 0 discriminator 3
 2137 00e2 13F8012F 		ldrb	r2, [r3, #1]!	@ zero_extendqisi2
 2138 00e6 002A     		cmp	r2, #0
 2139 00e8 F3D1     		bne	.L215
 2140              		.loc 1 3119 0 is_stmt 0 discriminator 4
 2141 00ea 8B42     		cmp	r3, r1
 2142 00ec F9D1     		bne	.L212
 2143 00ee EBE0     		b	.L213
 2144              	.L211:
 2145              	.LVL298:
 2146              	.LBE152:
 2147              	.LBB155:
 2148              	.LBB156:
 2149              		.loc 1 553 0 is_stmt 1
 2150 00f0 94F85820 		ldrb	r2, [r4, #88]	@ zero_extendqisi2
 2151 00f4 94F85730 		ldrb	r3, [r4, #87]	@ zero_extendqisi2
 2152 00f8 43EA0223 		orr	r3, r3, r2, lsl #8
 2153              	.LBE156:
 2154              	.LBE155:
 2155              		.loc 1 3163 0
 2156 00fc B3F5007F 		cmp	r3, #512
 2157 0100 E7D1     		bne	.L215
 2158              	.LVL299:
 2159              	.LBB157:
 2160              	.LBB158:
 2161              		.loc 1 553 0
 2162 0102 94F86370 		ldrb	r7, [r4, #99]	@ zero_extendqisi2
 2163              	.LVL300:
 2164 0106 94F86230 		ldrb	r3, [r4, #98]	@ zero_extendqisi2
 2165              	.LVL301:
 2166              	.LBE158:
ARM GAS  /tmp/ccWRkTKh.s 			page 39


 2167              	.LBE157:
 2168              		.loc 1 3166 0
 2169 010a 53EA0727 		orrs	r7, r3, r7, lsl #8
 2170              	.LVL302:
 2171 010e 04D1     		bne	.L221
 2172              		.loc 1 3166 0 is_stmt 0 discriminator 1
 2173 0110 04F17000 		add	r0, r4, #112
 2174              	.LVL303:
 2175 0114 FFF7FEFF 		bl	ld_dword
 2176              	.LVL304:
 2177 0118 0746     		mov	r7, r0
 2178              	.LVL305:
 2179              	.L221:
 2180              		.loc 1 3169 0 is_stmt 1
 2181 011a 94F85CA0 		ldrb	r10, [r4, #92]	@ zero_extendqisi2
 2182              		.loc 1 3167 0
 2183 011e 6763     		str	r7, [r4, #52]
 2184              		.loc 1 3170 0
 2185 0120 0AF1FF33 		add	r3, r10, #-1
 2186 0124 012B     		cmp	r3, #1
 2187              		.loc 1 3169 0
 2188 0126 84F802A0 		strb	r10, [r4, #2]
 2189              		.loc 1 3170 0
 2190 012a D2D8     		bhi	.L215
 2191              		.loc 1 3173 0
 2192 012c 94F85950 		ldrb	r5, [r4, #89]	@ zero_extendqisi2
 2193 0130 ABB2     		uxth	r3, r5
 2194              		.loc 1 3171 0
 2195 0132 0AFB07FA 		mul	r10, r10, r7
 2196              	.LVL306:
 2197              		.loc 1 3173 0
 2198 0136 6381     		strh	r3, [r4, #10]	@ movhi
 2199              		.loc 1 3174 0
 2200 0138 002B     		cmp	r3, #0
 2201 013a CAD0     		beq	.L215
 2202              		.loc 1 3174 0 is_stmt 0 discriminator 2
 2203 013c 6B1E     		subs	r3, r5, #1
 2204 013e 2B42     		tst	r3, r5
 2205 0140 C7D1     		bne	.L215
 2206              	.LVL307:
 2207              	.LBB159:
 2208              	.LBB160:
 2209              		.loc 1 553 0 is_stmt 1
 2210 0142 94F85E90 		ldrb	r9, [r4, #94]	@ zero_extendqisi2
 2211 0146 94F85D30 		ldrb	r3, [r4, #93]	@ zero_extendqisi2
 2212 014a 43EA0929 		orr	r9, r3, r9, lsl #8
 2213              	.LVL308:
 2214              	.LBE160:
 2215              	.LBE159:
 2216              		.loc 1 3177 0
 2217 014e 19F00F0F 		tst	r9, #15
 2218              		.loc 1 3176 0
 2219 0152 A4F80890 		strh	r9, [r4, #8]	@ movhi
 2220              		.loc 1 3177 0
 2221 0156 BCD1     		bne	.L215
 2222              	.LVL309:
 2223              	.LBB161:
ARM GAS  /tmp/ccWRkTKh.s 			page 40


 2224              	.LBB162:
 2225              		.loc 1 553 0
 2226 0158 94F86000 		ldrb	r0, [r4, #96]	@ zero_extendqisi2
 2227 015c 94F85F30 		ldrb	r3, [r4, #95]	@ zero_extendqisi2
 2228              	.LVL310:
 2229              	.LBE162:
 2230              	.LBE161:
 2231              		.loc 1 3180 0
 2232 0160 53EA0020 		orrs	r0, r3, r0, lsl #8
 2233              	.LVL311:
 2234 0164 03D1     		bne	.L222
 2235              		.loc 1 3180 0 is_stmt 0 discriminator 1
 2236 0166 04F16C00 		add	r0, r4, #108
 2237              	.LVL312:
 2238 016a FFF7FEFF 		bl	ld_dword
 2239              	.LVL313:
 2240              	.L222:
 2241              	.LBB163:
 2242              	.LBB164:
 2243              		.loc 1 553 0 is_stmt 1
 2244 016e 94F85B20 		ldrb	r2, [r4, #91]	@ zero_extendqisi2
 2245 0172 94F85A30 		ldrb	r3, [r4, #90]	@ zero_extendqisi2
 2246              	.LVL314:
 2247              	.LBE164:
 2248              	.LBE163:
 2249              		.loc 1 3183 0
 2250 0176 53EA0223 		orrs	r3, r3, r2, lsl #8
 2251              	.LVL315:
 2252 017a AAD0     		beq	.L215
 2253 017c 03EB1912 		add	r2, r3, r9, lsr #4
 2254              	.LVL316:
 2255              		.loc 1 3186 0
 2256 0180 5244     		add	r2, r2, r10
 2257              	.LVL317:
 2258              		.loc 1 3187 0
 2259 0182 9042     		cmp	r0, r2
 2260 0184 A5D3     		bcc	.L215
 2261              		.loc 1 3188 0
 2262 0186 801A     		subs	r0, r0, r2
 2263              	.LVL318:
 2264 0188 B0FBF5F5 		udiv	r5, r0, r5
 2265              	.LVL319:
 2266              		.loc 1 3189 0
 2267 018c 002D     		cmp	r5, #0
 2268 018e A0D0     		beq	.L215
 2269              	.LVL320:
 2270              		.loc 1 3191 0
 2271 0190 4949     		ldr	r1, .L273+4
 2272 0192 8D42     		cmp	r5, r1
 2273 0194 9DD8     		bhi	.L215
 2274              	.LVL321:
 2275              		.loc 1 3192 0
 2276 0196 4FF6F571 		movw	r1, #65525
 2277 019a 8D42     		cmp	r5, r1
 2278 019c 06D8     		bhi	.L239
 2279              	.LVL322:
 2280              		.loc 1 3193 0
ARM GAS  /tmp/ccWRkTKh.s 			page 41


 2281 019e 40F6F576 		movw	r6, #4085
 2282 01a2 B542     		cmp	r5, r6
 2283 01a4 8CBF     		ite	hi
 2284 01a6 0226     		movhi	r6, #2
 2285 01a8 0126     		movls	r6, #1
 2286 01aa 00E0     		b	.L223
 2287              	.LVL323:
 2288              	.L239:
 2289              		.loc 1 3191 0
 2290 01ac 0326     		movs	r6, #3
 2291              	.LVL324:
 2292              	.L223:
 2293              		.loc 1 3197 0
 2294 01ae 0235     		adds	r5, r5, #2
 2295              	.LVL325:
 2296              		.loc 1 3199 0
 2297 01b0 4344     		add	r3, r3, r8
 2298              		.loc 1 3200 0
 2299 01b2 4244     		add	r2, r2, r8
 2300              	.LVL326:
 2301              		.loc 1 3201 0
 2302 01b4 032E     		cmp	r6, #3
 2303              		.loc 1 3197 0
 2304 01b6 2563     		str	r5, [r4, #48]
 2305              		.loc 1 3198 0
 2306 01b8 C4F83880 		str	r8, [r4, #56]
 2307              		.loc 1 3199 0
 2308 01bc E363     		str	r3, [r4, #60]
 2309              		.loc 1 3200 0
 2310 01be 6264     		str	r2, [r4, #68]
 2311              		.loc 1 3201 0
 2312 01c0 11D1     		bne	.L224
 2313              	.LVL327:
 2314              	.LBB165:
 2315              	.LBB166:
 2316              		.loc 1 553 0
 2317 01c2 94F87720 		ldrb	r2, [r4, #119]	@ zero_extendqisi2
 2318 01c6 94F87630 		ldrb	r3, [r4, #118]	@ zero_extendqisi2
 2319              	.LBE166:
 2320              	.LBE165:
 2321              		.loc 1 3202 0
 2322 01ca 53EA0223 		orrs	r3, r3, r2, lsl #8
 2323 01ce 80D1     		bne	.L215
 2324              		.loc 1 3203 0
 2325 01d0 B9F1000F 		cmp	r9, #0
 2326 01d4 7FF47DAF 		bne	.L215
 2327              		.loc 1 3204 0
 2328 01d8 04F17800 		add	r0, r4, #120
 2329 01dc FFF7FEFF 		bl	ld_dword
 2330              	.LVL328:
 2331              		.loc 1 3205 0
 2332 01e0 AD00     		lsls	r5, r5, #2
 2333              	.LVL329:
 2334              		.loc 1 3204 0
 2335 01e2 2064     		str	r0, [r4, #64]
 2336 01e4 11E0     		b	.L225
 2337              	.LVL330:
ARM GAS  /tmp/ccWRkTKh.s 			page 42


 2338              	.L224:
 2339              		.loc 1 3207 0
 2340 01e6 B9F1000F 		cmp	r9, #0
 2341 01ea 3FF472AF 		beq	.L215
 2342              		.loc 1 3210 0
 2343 01ee 022E     		cmp	r6, #2
 2344 01f0 4FEA4500 		lsl	r0, r5, #1
 2345 01f4 18BF     		it	ne
 2346 01f6 4019     		addne	r0, r0, r5
 2347              		.loc 1 3208 0
 2348 01f8 5344     		add	r3, r3, r10
 2349              		.loc 1 3210 0
 2350 01fa 18BF     		it	ne
 2351 01fc 05F00105 		andne	r5, r5, #1
 2352              	.LVL331:
 2353              		.loc 1 3208 0
 2354 0200 2364     		str	r3, [r4, #64]
 2355              		.loc 1 3210 0
 2356 0202 0CBF     		ite	eq
 2357 0204 0546     		moveq	r5, r0
 2358 0206 05EB5005 		addne	r5, r5, r0, lsr #1
 2359              	.LVL332:
 2360              	.L225:
 2361              		.loc 1 3212 0
 2362 020a 05F2FF15 		addw	r5, r5, #511
 2363              	.LVL333:
 2364 020e B7EB552F 		cmp	r7, r5, lsr #9
 2365 0212 FFF45EAF 		bcc	.L215
 2366              		.loc 1 3216 0
 2367 0216 4FF0FF33 		mov	r3, #-1
 2368 021a E361     		str	r3, [r4, #28]
 2369 021c A361     		str	r3, [r4, #24]
 2370              		.loc 1 3219 0
 2371 021e 032E     		cmp	r6, #3
 2372              		.loc 1 3217 0
 2373 0220 4FF08003 		mov	r3, #128
 2374 0224 2371     		strb	r3, [r4, #4]
 2375              		.loc 1 3219 0
 2376 0226 30D1     		bne	.L227
 2377              	.LVL334:
 2378              	.LBB167:
 2379              	.LBB168:
 2380              		.loc 1 553 0
 2381 0228 94F87D20 		ldrb	r2, [r4, #125]	@ zero_extendqisi2
 2382 022c 94F87C30 		ldrb	r3, [r4, #124]	@ zero_extendqisi2
 2383 0230 43EA0223 		orr	r3, r3, r2, lsl #8
 2384              	.LBE168:
 2385              	.LBE167:
 2386              		.loc 1 3220 0
 2387 0234 012B     		cmp	r3, #1
 2388 0236 28D1     		bne	.L227
 2389              		.loc 1 3221 0
 2390 0238 2046     		mov	r0, r4
 2391 023a 08F10101 		add	r1, r8, #1
 2392 023e FFF7FEFF 		bl	move_window
 2393              	.LVL335:
 2394 0242 10BB     		cbnz	r0, .L227
ARM GAS  /tmp/ccWRkTKh.s 			page 43


 2395              	.LBB169:
 2396              	.LBB170:
 2397              		.loc 1 553 0
 2398 0244 94F84B22 		ldrb	r2, [r4, #587]	@ zero_extendqisi2
 2399 0248 94F84A32 		ldrb	r3, [r4, #586]	@ zero_extendqisi2
 2400              	.LBE170:
 2401              	.LBE169:
 2402              		.loc 1 3223 0
 2403 024c 2071     		strb	r0, [r4, #4]
 2404              	.LVL336:
 2405              	.LBB172:
 2406              	.LBB171:
 2407              		.loc 1 553 0
 2408 024e 43EA0223 		orr	r3, r3, r2, lsl #8
 2409              	.LBE171:
 2410              	.LBE172:
 2411              		.loc 1 3224 0
 2412 0252 4AF65522 		movw	r2, #43605
 2413 0256 9342     		cmp	r3, r2
 2414 0258 17D1     		bne	.L227
 2415              		.loc 1 3225 0
 2416 025a 04F14C00 		add	r0, r4, #76
 2417 025e FFF7FEFF 		bl	ld_dword
 2418              	.LVL337:
 2419 0262 164B     		ldr	r3, .L273+8
 2420 0264 9842     		cmp	r0, r3
 2421 0266 10D1     		bne	.L227
 2422              		.loc 1 3226 0
 2423 0268 04F50C70 		add	r0, r4, #560
 2424 026c FFF7FEFF 		bl	ld_dword
 2425              	.LVL338:
 2426 0270 134B     		ldr	r3, .L273+12
 2427 0272 9842     		cmp	r0, r3
 2428 0274 09D1     		bne	.L227
 2429              		.loc 1 3229 0
 2430 0276 04F50D70 		add	r0, r4, #564
 2431 027a FFF7FEFF 		bl	ld_dword
 2432              	.LVL339:
 2433 027e E061     		str	r0, [r4, #28]
 2434              		.loc 1 3232 0
 2435 0280 04F50E70 		add	r0, r4, #568
 2436 0284 FFF7FEFF 		bl	ld_dword
 2437              	.LVL340:
 2438 0288 A061     		str	r0, [r4, #24]
 2439              	.LVL341:
 2440              	.L227:
 2441              		.loc 1 3241 0
 2442 028a 0E4A     		ldr	r2, .L273+16
 2443              		.loc 1 3240 0
 2444 028c 2670     		strb	r6, [r4]
 2445              		.loc 1 3241 0
 2446 028e 1388     		ldrh	r3, [r2]
 2447 0290 0133     		adds	r3, r3, #1
 2448 0292 9BB2     		uxth	r3, r3
 2449              		.loc 1 3249 0
 2450 0294 0020     		movs	r0, #0
 2451              		.loc 1 3241 0
ARM GAS  /tmp/ccWRkTKh.s 			page 44


 2452 0296 1380     		strh	r3, [r2]	@ movhi
 2453 0298 E380     		strh	r3, [r4, #6]	@ movhi
 2454              		.loc 1 3249 0
 2455 029a 2062     		str	r0, [r4, #32]
 2456              		.loc 1 3254 0
 2457 029c 99E0     		b	.L269
 2458              	.LVL342:
 2459              	.L231:
 2460              		.loc 1 3057 0
 2461 029e 0B20     		movs	r0, #11
 2462              	.LVL343:
 2463 02a0 97E0     		b	.L269
 2464              	.LVL344:
 2465              	.L232:
 2466              		.loc 1 3061 0
 2467 02a2 0C20     		movs	r0, #12
 2468              	.LVL345:
 2469 02a4 95E0     		b	.L269
 2470              	.LVL346:
 2471              	.L233:
 2472              		.loc 1 3063 0
 2473 02a6 0F20     		movs	r0, #15
 2474 02a8 93E0     		b	.L269
 2475              	.LVL347:
 2476              	.L234:
 2477              		.loc 1 3074 0
 2478 02aa 2846     		mov	r0, r5
 2479              	.LVL348:
 2480 02ac 91E0     		b	.L269
 2481              	.LVL349:
 2482              	.L236:
 2483              		.loc 1 3085 0
 2484 02ae 0320     		movs	r0, #3
 2485              	.LVL350:
 2486 02b0 8FE0     		b	.L269
 2487              	.L274:
 2488 02b2 00BF     		.align	2
 2489              	.L273:
 2490 02b4 00000000 		.word	.LANCHOR0
 2491 02b8 F5FFFF0F 		.word	268435445
 2492 02bc 52526141 		.word	1096897106
 2493 02c0 72724161 		.word	1631679090
 2494 02c4 00000000 		.word	.LANCHOR1
 2495              	.LVL351:
 2496              	.L213:
 2497              	.LBB173:
 2498              	.LBB153:
 2499              	.LBB154:
 2500              		.loc 1 553 0
 2501 02c8 94F8B520 		ldrb	r2, [r4, #181]	@ zero_extendqisi2
 2502 02cc 94F8B430 		ldrb	r3, [r4, #180]	@ zero_extendqisi2
 2503 02d0 43EA0223 		orr	r3, r3, r2, lsl #8
 2504              	.LBE154:
 2505              	.LBE153:
 2506              		.loc 1 3122 0
 2507 02d4 B3F5807F 		cmp	r3, #256
 2508 02d8 7FF4FBAE 		bne	.L215
ARM GAS  /tmp/ccWRkTKh.s 			page 45


 2509              		.loc 1 3124 0
 2510 02dc 94F8B820 		ldrb	r2, [r4, #184]	@ zero_extendqisi2
 2511 02e0 0123     		movs	r3, #1
 2512 02e2 9340     		lsls	r3, r3, r2
 2513 02e4 B3F5007F 		cmp	r3, #512
 2514 02e8 7FF4F3AE 		bne	.L215
 2515              		.loc 1 3128 0
 2516 02ec 04F19400 		add	r0, r4, #148
 2517              	.LVL352:
 2518 02f0 FFF7FEFF 		bl	ld_qword
 2519              	.LVL353:
 2520 02f4 10EB0806 		adds	r6, r0, r8
 2521 02f8 41F10007 		adc	r7, r1, #0
 2522              	.LVL354:
 2523              		.loc 1 3129 0
 2524 02fc 012F     		cmp	r7, #1
 2525 02fe 08BF     		it	eq
 2526 0300 002E     		cmpeq	r6, #0
 2527 0302 BFF4E6AE 		bcs	.L215
 2528              		.loc 1 3131 0
 2529 0306 04F1A000 		add	r0, r4, #160
 2530 030a FFF7FEFF 		bl	ld_dword
 2531              	.LVL355:
 2532              		.loc 1 3133 0
 2533 030e 94F8BA50 		ldrb	r5, [r4, #186]	@ zero_extendqisi2
 2534              		.loc 1 3131 0
 2535 0312 6063     		str	r0, [r4, #52]
 2536              		.loc 1 3134 0
 2537 0314 012D     		cmp	r5, #1
 2538              		.loc 1 3133 0
 2539 0316 A570     		strb	r5, [r4, #2]
 2540              		.loc 1 3134 0
 2541 0318 7FF4DBAE 		bne	.L215
 2542              		.loc 1 3136 0
 2543 031c 94F8B930 		ldrb	r3, [r4, #185]	@ zero_extendqisi2
 2544 0320 9D40     		lsls	r5, r5, r3
 2545 0322 ADB2     		uxth	r5, r5
 2546 0324 6581     		strh	r5, [r4, #10]	@ movhi
 2547              		.loc 1 3137 0
 2548 0326 002D     		cmp	r5, #0
 2549 0328 3FF4D3AE 		beq	.L215
 2550              		.loc 1 3139 0
 2551 032c 04F1A800 		add	r0, r4, #168
 2552 0330 FFF7FEFF 		bl	ld_dword
 2553              	.LVL356:
 2554              		.loc 1 3140 0
 2555 0334 284B     		ldr	r3, .L275
 2556 0336 9842     		cmp	r0, r3
 2557              		.loc 1 3139 0
 2558 0338 8146     		mov	r9, r0
 2559              	.LVL357:
 2560              		.loc 1 3140 0
 2561 033a 3FF6CAAE 		bhi	.L215
 2562              		.loc 1 3141 0
 2563 033e 831C     		adds	r3, r0, #2
 2564 0340 2363     		str	r3, [r4, #48]
 2565              		.loc 1 3144 0
ARM GAS  /tmp/ccWRkTKh.s 			page 46


 2566 0342 C4F83880 		str	r8, [r4, #56]
 2567              		.loc 1 3145 0
 2568 0346 04F1A400 		add	r0, r4, #164
 2569              	.LVL358:
 2570 034a FFF7FEFF 		bl	ld_dword
 2571              	.LVL359:
 2572 034e 00EB080A 		add	r10, r0, r8
 2573 0352 C4F844A0 		str	r10, [r4, #68]
 2574              		.loc 1 3146 0
 2575 0356 04F19C00 		add	r0, r4, #156
 2576 035a FFF7FEFF 		bl	ld_dword
 2577              	.LVL360:
 2578 035e 4044     		add	r0, r0, r8
 2579 0360 E063     		str	r0, [r4, #60]
 2580              		.loc 1 3147 0
 2581 0362 05FB09F0 		mul	r0, r5, r9
 2582 0366 10EB0A00 		adds	r0, r0, r10
 2583 036a 4FF00001 		mov	r1, #0
 2584 036e 41F10001 		adc	r1, r1, #0
 2585 0372 8F42     		cmp	r7, r1
 2586 0374 08BF     		it	eq
 2587 0376 8642     		cmpeq	r6, r0
 2588 0378 FFF4ABAE 		bcc	.L215
 2589              		.loc 1 3148 0
 2590 037c 04F1AC00 		add	r0, r4, #172
 2591 0380 FFF7FEFF 		bl	ld_dword
 2592              	.LVL361:
 2593 0384 0146     		mov	r1, r0
 2594 0386 2064     		str	r0, [r4, #64]
 2595              		.loc 1 3151 0
 2596 0388 2046     		mov	r0, r4
 2597 038a FFF7FEFF 		bl	clst2sect
 2598              	.LVL362:
 2599 038e 0146     		mov	r1, r0
 2600 0390 2046     		mov	r0, r4
 2601 0392 FFF7FEFF 		bl	move_window
 2602              	.LVL363:
 2603 0396 0028     		cmp	r0, #0
 2604 0398 7FF497AE 		bne	.L216
 2605 039c 04F16005 		add	r5, r4, #96
 2606 03a0 04F51876 		add	r6, r4, #608
 2607              	.LVL364:
 2608              	.L219:
 2609              		.loc 1 3153 0
 2610 03a4 15F8143C 		ldrb	r3, [r5, #-20]	@ zero_extendqisi2
 2611 03a8 812B     		cmp	r3, #129
 2612 03aa 04D1     		bne	.L217
 2613              		.loc 1 3153 0 is_stmt 0 discriminator 1
 2614 03ac 2846     		mov	r0, r5
 2615 03ae FFF7FEFF 		bl	ld_dword
 2616              	.LVL365:
 2617 03b2 0228     		cmp	r0, #2
 2618 03b4 03D0     		beq	.L218
 2619              	.L217:
 2620 03b6 2035     		adds	r5, r5, #32
 2621              		.loc 1 3152 0 is_stmt 1 discriminator 2
 2622 03b8 B542     		cmp	r5, r6
ARM GAS  /tmp/ccWRkTKh.s 			page 47


 2623 03ba F3D1     		bne	.L219
 2624 03bc 89E6     		b	.L215
 2625              	.L218:
 2626              		.loc 1 3157 0
 2627 03be 4FF0FF33 		mov	r3, #-1
 2628 03c2 E361     		str	r3, [r4, #28]
 2629 03c4 A361     		str	r3, [r4, #24]
 2630              	.LVL366:
 2631              		.loc 1 3159 0
 2632 03c6 0426     		movs	r6, #4
 2633              	.LBE173:
 2634 03c8 5FE7     		b	.L227
 2635              	.LVL367:
 2636              	.L272:
 2637              		.loc 1 3110 0
 2638 03ca 0428     		cmp	r0, #4
 2639 03cc 7FF481AE 		bne	.L215
 2640 03d0 7BE6     		b	.L216
 2641              	.LVL368:
 2642              	.L269:
 2643              		.loc 1 3255 0
 2644 03d2 04B0     		add	sp, sp, #16
 2645              		.cfi_def_cfa_offset 32
 2646              		@ sp needed
 2647 03d4 BDE8F087 		pop	{r4, r5, r6, r7, r8, r9, r10, pc}
 2648              	.L276:
 2649              		.align	2
 2650              	.L275:
 2651 03d8 FDFFFF7F 		.word	2147483645
 2652              		.cfi_endproc
 2653              	.LFE343:
 2654              		.size	find_volume, .-find_volume
 2655              		.section	.text.put_fat,"ax",%progbits
 2656              		.align	1
 2657              		.thumb
 2658              		.thumb_func
 2659              		.type	put_fat, %function
 2660              	put_fat:
 2661              	.LFB309:
 2662              		.loc 1 1063 0
 2663              		.cfi_startproc
 2664              		@ args = 0, pretend = 0, frame = 0
 2665              		@ frame_needed = 0, uses_anonymous_args = 0
 2666              	.LVL369:
 2667              		.loc 1 1069 0
 2668 0000 0129     		cmp	r1, #1
 2669              		.loc 1 1063 0
 2670 0002 2DE9F843 		push	{r3, r4, r5, r6, r7, r8, r9, lr}
 2671              		.cfi_def_cfa_offset 32
 2672              		.cfi_offset 3, -32
 2673              		.cfi_offset 4, -28
 2674              		.cfi_offset 5, -24
 2675              		.cfi_offset 6, -20
 2676              		.cfi_offset 7, -16
 2677              		.cfi_offset 8, -12
 2678              		.cfi_offset 9, -8
 2679              		.cfi_offset 14, -4
ARM GAS  /tmp/ccWRkTKh.s 			page 48


 2680              		.loc 1 1063 0
 2681 0006 0546     		mov	r5, r0
 2682 0008 0C46     		mov	r4, r1
 2683 000a 1646     		mov	r6, r2
 2684              		.loc 1 1069 0
 2685 000c 76D9     		bls	.L290
 2686              		.loc 1 1069 0 is_stmt 0 discriminator 1
 2687 000e 036B     		ldr	r3, [r0, #48]
 2688 0010 9942     		cmp	r1, r3
 2689 0012 73D2     		bcs	.L290
 2690              	.LVL370:
 2691              	.LBB178:
 2692              	.LBB179:
 2693              		.loc 1 1070 0 is_stmt 1
 2694 0014 0378     		ldrb	r3, [r0]	@ zero_extendqisi2
 2695 0016 013B     		subs	r3, r3, #1
 2696 0018 032B     		cmp	r3, #3
 2697 001a 6FD8     		bhi	.L290
 2698 001c DFE803F0 		tbb	[pc, r3]
 2699              	.LVL371:
 2700              	.L280:
 2701 0020 02       		.byte	(.L279-.L280)/2
 2702 0021 3B       		.byte	(.L281-.L280)/2
 2703 0022 4D       		.byte	(.L282-.L280)/2
 2704 0023 4D       		.byte	(.L282-.L280)/2
 2705              		.p2align 1
 2706              	.L279:
 2707              		.loc 1 1072 0
 2708 0024 01EB5107 		add	r7, r1, r1, lsr #1
 2709              	.LVL372:
 2710              		.loc 1 1073 0
 2711 0028 C16B     		ldr	r1, [r0, #60]
 2712              	.LVL373:
 2713 002a 01EB5721 		add	r1, r1, r7, lsr #9
 2714 002e FFF7FEFF 		bl	move_window
 2715              	.LVL374:
 2716              		.loc 1 1074 0
 2717 0032 8046     		mov	r8, r0
 2718 0034 0028     		cmp	r0, #0
 2719 0036 63D1     		bne	.L278
 2720              		.loc 1 1075 0
 2721 0038 07F10109 		add	r9, r7, #1
 2722              	.LVL375:
 2723 003c C7F30807 		ubfx	r7, r7, #0, #9
 2724              	.LVL376:
 2725 0040 2F44     		add	r7, r7, r5
 2726              	.LVL377:
 2727              		.loc 1 1076 0
 2728 0042 14F00104 		ands	r4, r4, #1
 2729              	.LVL378:
 2730 0046 18BF     		it	ne
 2731 0048 97F84C20 		ldrbne	r2, [r7, #76]	@ zero_extendqisi2
 2732              		.loc 1 1078 0
 2733 004c E96B     		ldr	r1, [r5, #60]
 2734 004e F3B2     		uxtb	r3, r6
 2735              		.loc 1 1076 0
 2736 0050 1EBF     		ittt	ne
ARM GAS  /tmp/ccWRkTKh.s 			page 49


 2737 0052 02F00F02 		andne	r2, r2, #15
 2738 0056 42EA0313 		orrne	r3, r2, r3, lsl #4
 2739 005a DBB2     		uxtbne	r3, r3
 2740 005c 87F84C30 		strb	r3, [r7, #76]
 2741              		.loc 1 1077 0
 2742 0060 0123     		movs	r3, #1
 2743 0062 EB70     		strb	r3, [r5, #3]
 2744              		.loc 1 1078 0
 2745 0064 2846     		mov	r0, r5
 2746              	.LVL379:
 2747 0066 01EB5921 		add	r1, r1, r9, lsr #9
 2748 006a FFF7FEFF 		bl	move_window
 2749              	.LVL380:
 2750              		.loc 1 1079 0
 2751 006e 8046     		mov	r8, r0
 2752 0070 0028     		cmp	r0, #0
 2753 0072 45D1     		bne	.L278
 2754              		.loc 1 1080 0
 2755 0074 C9F30803 		ubfx	r3, r9, #0, #9
 2756              	.LVL381:
 2757 0078 2B44     		add	r3, r3, r5
 2758              	.LVL382:
 2759              		.loc 1 1081 0
 2760 007a 14B1     		cbz	r4, .L285
 2761 007c C6F30716 		ubfx	r6, r6, #4, #8
 2762              	.LVL383:
 2763 0080 06E0     		b	.L286
 2764              	.LVL384:
 2765              	.L285:
 2766 0082 93F84C20 		ldrb	r2, [r3, #76]	@ zero_extendqisi2
 2767 0086 C6F30326 		ubfx	r6, r6, #8, #4
 2768              	.LVL385:
 2769 008a 22F00F02 		bic	r2, r2, #15
 2770 008e 1643     		orrs	r6, r6, r2
 2771              	.LVL386:
 2772              	.L286:
 2773 0090 83F84C60 		strb	r6, [r3, #76]
 2774 0094 2FE0     		b	.L294
 2775              	.LVL387:
 2776              	.L281:
 2777              		.loc 1 1086 0
 2778 0096 C16B     		ldr	r1, [r0, #60]
 2779              	.LVL388:
 2780 0098 01EB1421 		add	r1, r1, r4, lsr #8
 2781 009c FFF7FEFF 		bl	move_window
 2782              	.LVL389:
 2783              		.loc 1 1087 0
 2784 00a0 8046     		mov	r8, r0
 2785 00a2 68BB     		cbnz	r0, .L278
 2786              		.loc 1 1088 0
 2787 00a4 6400     		lsls	r4, r4, #1
 2788              	.LVL390:
 2789 00a6 04F4FF74 		and	r4, r4, #510
 2790              	.LVL391:
 2791              	.LBB180:
 2792              	.LBB181:
 2793              		.loc 1 591 0
ARM GAS  /tmp/ccWRkTKh.s 			page 50


 2794 00aa 2B19     		adds	r3, r5, r4
 2795 00ac 83F84C60 		strb	r6, [r3, #76]
 2796              	.LVL392:
 2797 00b0 C6F30726 		ubfx	r6, r6, #8, #8
 2798              	.LVL393:
 2799              		.loc 1 592 0
 2800 00b4 83F84D60 		strb	r6, [r3, #77]
 2801 00b8 1DE0     		b	.L294
 2802              	.LVL394:
 2803              	.L282:
 2804              	.LBE181:
 2805              	.LBE180:
 2806              		.loc 1 1096 0
 2807 00ba C16B     		ldr	r1, [r0, #60]
 2808              	.LVL395:
 2809 00bc 01EBD411 		add	r1, r1, r4, lsr #7
 2810 00c0 FFF7FEFF 		bl	move_window
 2811              	.LVL396:
 2812              		.loc 1 1097 0
 2813 00c4 8046     		mov	r8, r0
 2814 00c6 D8B9     		cbnz	r0, .L278
 2815              		.loc 1 1098 0
 2816 00c8 2B78     		ldrb	r3, [r5]	@ zero_extendqisi2
 2817 00ca 042B     		cmp	r3, #4
 2818 00cc 4FEA8404 		lsl	r4, r4, #2
 2819              	.LVL397:
 2820 00d0 0AD0     		beq	.L287
 2821              		.loc 1 1099 0
 2822 00d2 04F4FE70 		and	r0, r4, #508
 2823              	.LVL398:
 2824 00d6 2844     		add	r0, r0, r5
 2825 00d8 4C30     		adds	r0, r0, #76
 2826 00da FFF7FEFF 		bl	ld_dword
 2827              	.LVL399:
 2828 00de 26F07046 		bic	r6, r6, #-268435456
 2829              	.LVL400:
 2830 00e2 00F07040 		and	r0, r0, #-268435456
 2831 00e6 0643     		orrs	r6, r6, r0
 2832              	.LVL401:
 2833              	.L287:
 2834              		.loc 1 1101 0
 2835 00e8 04F4FE74 		and	r4, r4, #508
 2836 00ec 2819     		adds	r0, r5, r4
 2837 00ee 4C30     		adds	r0, r0, #76
 2838 00f0 3146     		mov	r1, r6
 2839 00f2 FFF7FEFF 		bl	st_dword
 2840              	.LVL402:
 2841              	.L294:
 2842              		.loc 1 1102 0
 2843 00f6 0123     		movs	r3, #1
 2844 00f8 EB70     		strb	r3, [r5, #3]
 2845 00fa 01E0     		b	.L278
 2846              	.LVL403:
 2847              	.L290:
 2848              		.loc 1 1066 0
 2849 00fc 4FF00208 		mov	r8, #2
 2850              	.LVL404:
ARM GAS  /tmp/ccWRkTKh.s 			page 51


 2851              	.L278:
 2852              	.LBE179:
 2853              	.LBE178:
 2854              		.loc 1 1107 0
 2855 0100 4046     		mov	r0, r8
 2856 0102 BDE8F883 		pop	{r3, r4, r5, r6, r7, r8, r9, pc}
 2857              		.cfi_endproc
 2858              	.LFE309:
 2859              		.size	put_fat, .-put_fat
 2860              		.section	.text.fill_last_frag,"ax",%progbits
 2861              		.align	1
 2862              		.thumb
 2863              		.thumb_func
 2864              		.type	fill_last_frag, %function
 2865              	fill_last_frag:
 2866              	.LFB313:
 2867              		.loc 1 1231 0
 2868              		.cfi_startproc
 2869              		@ args = 0, pretend = 0, frame = 0
 2870              		@ frame_needed = 0, uses_anonymous_args = 0
 2871              	.LVL405:
 2872 0000 70B5     		push	{r4, r5, r6, lr}
 2873              		.cfi_def_cfa_offset 16
 2874              		.cfi_offset 4, -16
 2875              		.cfi_offset 5, -12
 2876              		.cfi_offset 6, -8
 2877              		.cfi_offset 14, -4
 2878 0002 0446     		mov	r4, r0
 2879 0004 0D46     		mov	r5, r1
 2880 0006 1646     		mov	r6, r2
 2881              	.LVL406:
 2882              	.L296:
 2883              		.loc 1 1235 0
 2884 0008 E369     		ldr	r3, [r4, #28]
 2885 000a 73B1     		cbz	r3, .L302
 2886              		.loc 1 1236 0
 2887 000c EA1A     		subs	r2, r5, r3
 2888 000e 012B     		cmp	r3, #1
 2889 0010 02F10101 		add	r1, r2, #1
 2890 0014 2068     		ldr	r0, [r4]
 2891 0016 8CBF     		ite	hi
 2892 0018 0232     		addhi	r2, r2, #2
 2893 001a 3246     		movls	r2, r6
 2894 001c FFF7FEFF 		bl	put_fat
 2895              	.LVL407:
 2896              		.loc 1 1237 0
 2897 0020 20B9     		cbnz	r0, .L298
 2898              		.loc 1 1238 0
 2899 0022 E369     		ldr	r3, [r4, #28]
 2900 0024 013B     		subs	r3, r3, #1
 2901 0026 E361     		str	r3, [r4, #28]
 2902 0028 EEE7     		b	.L296
 2903              	.LVL408:
 2904              	.L302:
 2905              		.loc 1 1240 0
 2906 002a 1846     		mov	r0, r3
 2907              	.L298:
ARM GAS  /tmp/ccWRkTKh.s 			page 52


 2908              		.loc 1 1241 0
 2909 002c 70BD     		pop	{r4, r5, r6, pc}
 2910              		.cfi_endproc
 2911              	.LFE313:
 2912              		.size	fill_last_frag, .-fill_last_frag
 2913              		.section	.text.remove_chain,"ax",%progbits
 2914              		.align	1
 2915              		.thumb
 2916              		.thumb_func
 2917              		.type	remove_chain, %function
 2918              	remove_chain:
 2919              	.LFB314:
 2920              		.loc 1 1257 0
 2921              		.cfi_startproc
 2922              		@ args = 0, pretend = 0, frame = 0
 2923              		@ frame_needed = 0, uses_anonymous_args = 0
 2924              	.LVL409:
 2925              		.loc 1 1268 0
 2926 0000 0129     		cmp	r1, #1
 2927              		.loc 1 1257 0
 2928 0002 2DE9F843 		push	{r3, r4, r5, r6, r7, r8, r9, lr}
 2929              		.cfi_def_cfa_offset 32
 2930              		.cfi_offset 3, -32
 2931              		.cfi_offset 4, -28
 2932              		.cfi_offset 5, -24
 2933              		.cfi_offset 6, -20
 2934              		.cfi_offset 7, -16
 2935              		.cfi_offset 8, -12
 2936              		.cfi_offset 9, -8
 2937              		.cfi_offset 14, -4
 2938              		.loc 1 1257 0
 2939 0006 0646     		mov	r6, r0
 2940 0008 0D46     		mov	r5, r1
 2941 000a 1746     		mov	r7, r2
 2942              		.loc 1 1260 0
 2943 000c 0468     		ldr	r4, [r0]
 2944              	.LVL410:
 2945              		.loc 1 1268 0
 2946 000e 02D8     		bhi	.L304
 2947              	.LVL411:
 2948              	.L306:
 2949 0010 0220     		movs	r0, #2
 2950 0012 BDE8F883 		pop	{r3, r4, r5, r6, r7, r8, r9, pc}
 2951              	.LVL412:
 2952              	.L304:
 2953              		.loc 1 1268 0 is_stmt 0 discriminator 2
 2954 0016 236B     		ldr	r3, [r4, #48]
 2955 0018 9942     		cmp	r1, r3
 2956 001a F9D2     		bcs	.L306
 2957              		.loc 1 1271 0 is_stmt 1
 2958 001c 0AB9     		cbnz	r2, .L307
 2959              	.LVL413:
 2960              	.L310:
 2961              		.loc 1 1257 0
 2962 001e A946     		mov	r9, r5
 2963 0020 2BE0     		b	.L308
 2964              	.LVL414:
ARM GAS  /tmp/ccWRkTKh.s 			page 53


 2965              	.L307:
 2966              		.loc 1 1271 0 discriminator 1
 2967 0022 2378     		ldrb	r3, [r4]	@ zero_extendqisi2
 2968 0024 042B     		cmp	r3, #4
 2969 0026 02D1     		bne	.L309
 2970              		.loc 1 1271 0 is_stmt 0 discriminator 2
 2971 0028 C379     		ldrb	r3, [r0, #7]	@ zero_extendqisi2
 2972 002a 022B     		cmp	r3, #2
 2973 002c F7D0     		beq	.L310
 2974              	.L309:
 2975              		.loc 1 1272 0 is_stmt 1
 2976 002e 2046     		mov	r0, r4
 2977              	.LVL415:
 2978 0030 3946     		mov	r1, r7
 2979              	.LVL416:
 2980 0032 4FF0FF32 		mov	r2, #-1
 2981              	.LVL417:
 2982 0036 FFF7FEFF 		bl	put_fat
 2983              	.LVL418:
 2984              		.loc 1 1273 0
 2985 003a 0028     		cmp	r0, #0
 2986 003c EFD0     		beq	.L310
 2987 003e BDE8F883 		pop	{r3, r4, r5, r6, r7, r8, r9, pc}
 2988              	.LVL419:
 2989              	.L311:
 2990              		.loc 1 1280 0
 2991 0042 0128     		cmp	r0, #1
 2992 0044 E4D0     		beq	.L306
 2993              		.loc 1 1281 0
 2994 0046 B0F1FF3F 		cmp	r0, #-1
 2995 004a 2ED0     		beq	.L322
 2996              		.loc 1 1282 0
 2997 004c 2378     		ldrb	r3, [r4]	@ zero_extendqisi2
 2998 004e 042B     		cmp	r3, #4
 2999 0050 2ED1     		bne	.L345
 3000              	.LVL420:
 3001              	.L315:
 3002              		.loc 1 1286 0
 3003 0052 226B     		ldr	r2, [r4, #48]
 3004 0054 E369     		ldr	r3, [r4, #28]
 3005 0056 023A     		subs	r2, r2, #2
 3006 0058 9342     		cmp	r3, r2
 3007              		.loc 1 1287 0
 3008 005a 3EBF     		ittt	cc
 3009 005c 0133     		addcc	r3, r3, #1
 3010 005e E361     		strcc	r3, [r4, #28]
 3011              		.loc 1 1288 0
 3012 0060 2379     		ldrbcc	r3, [r4, #4]	@ zero_extendqisi2
 3013              		.loc 1 1291 0
 3014 0062 05F10102 		add	r2, r5, #1
 3015              		.loc 1 1288 0
 3016 0066 3CBF     		itt	cc
 3017 0068 43F00103 		orrcc	r3, r3, #1
 3018 006c 2371     		strbcc	r3, [r4, #4]
 3019              		.loc 1 1291 0
 3020 006e 4245     		cmp	r2, r8
 3021 0070 26D1     		bne	.L346
ARM GAS  /tmp/ccWRkTKh.s 			page 54


 3022              	.LVL421:
 3023              	.L317:
 3024              		.loc 1 1309 0
 3025 0072 236B     		ldr	r3, [r4, #48]
 3026 0074 9845     		cmp	r8, r3
 3027 0076 4546     		mov	r5, r8
 3028 0078 06D2     		bcs	.L318
 3029              	.LVL422:
 3030              	.L308:
 3031              		.loc 1 1278 0
 3032 007a 3046     		mov	r0, r6
 3033 007c 2946     		mov	r1, r5
 3034 007e FFF7FEFF 		bl	get_fat
 3035              	.LVL423:
 3036              		.loc 1 1279 0
 3037 0082 8046     		mov	r8, r0
 3038 0084 0028     		cmp	r0, #0
 3039 0086 DCD1     		bne	.L311
 3040              	.LVL424:
 3041              	.L318:
 3042              		.loc 1 1313 0
 3043 0088 2378     		ldrb	r3, [r4]	@ zero_extendqisi2
 3044 008a 042B     		cmp	r3, #4
 3045 008c 38D1     		bne	.L344
 3046 008e 23E0     		b	.L347
 3047              	.L319:
 3048              		.loc 1 1317 0
 3049 0090 F379     		ldrb	r3, [r6, #7]	@ zero_extendqisi2
 3050 0092 53BB     		cbnz	r3, .L320
 3051              		.loc 1 1318 0
 3052 0094 B468     		ldr	r4, [r6, #8]
 3053              	.LVL425:
 3054              	.L321:
 3055              		.loc 1 1319 0
 3056 0096 BC42     		cmp	r4, r7
 3057 0098 30D0     		beq	.L325
 3058              		.loc 1 1320 0
 3059 009a 3046     		mov	r0, r6
 3060 009c 2146     		mov	r1, r4
 3061 009e FFF7FEFF 		bl	get_fat
 3062              	.LVL426:
 3063              		.loc 1 1321 0
 3064 00a2 0128     		cmp	r0, #1
 3065 00a4 B4D9     		bls	.L306
 3066              		.loc 1 1322 0
 3067 00a6 431C     		adds	r3, r0, #1
 3068 00a8 1AD1     		bne	.L348
 3069              	.LVL427:
 3070              	.L322:
 3071              		.loc 1 1281 0
 3072 00aa 0120     		movs	r0, #1
 3073              	.LVL428:
 3074 00ac BDE8F883 		pop	{r3, r4, r5, r6, r7, r8, r9, pc}
 3075              	.LVL429:
 3076              	.L345:
 3077              		.loc 1 1283 0
 3078 00b0 2046     		mov	r0, r4
ARM GAS  /tmp/ccWRkTKh.s 			page 55


 3079              	.LVL430:
 3080 00b2 2946     		mov	r1, r5
 3081 00b4 0022     		movs	r2, #0
 3082 00b6 FFF7FEFF 		bl	put_fat
 3083              	.LVL431:
 3084              		.loc 1 1284 0
 3085 00ba 0028     		cmp	r0, #0
 3086 00bc C9D0     		beq	.L315
 3087 00be 22E0     		b	.L305
 3088              	.LVL432:
 3089              	.L346:
 3090              		.loc 1 1295 0
 3091 00c0 2378     		ldrb	r3, [r4]	@ zero_extendqisi2
 3092 00c2 042B     		cmp	r3, #4
 3093 00c4 06D1     		bne	.L329
 3094              		.loc 1 1296 0
 3095 00c6 4946     		mov	r1, r9
 3096 00c8 2046     		mov	r0, r4
 3097 00ca 521A     		subs	r2, r2, r1
 3098 00cc 0023     		movs	r3, #0
 3099 00ce FFF7FEFF 		bl	change_bitmap
 3100              	.LVL433:
 3101              		.loc 1 1297 0
 3102 00d2 C0B9     		cbnz	r0, .L305
 3103              	.LVL434:
 3104              	.L329:
 3105 00d4 C146     		mov	r9, r8
 3106              	.LVL435:
 3107 00d6 CCE7     		b	.L317
 3108              	.LVL436:
 3109              	.L347:
 3110              		.loc 1 1314 0
 3111 00d8 002F     		cmp	r7, #0
 3112 00da D9D1     		bne	.L319
 3113              		.loc 1 1315 0
 3114 00dc F771     		strb	r7, [r6, #7]
 3115 00de 0FE0     		b	.L344
 3116              	.LVL437:
 3117              	.L348:
 3118              		.loc 1 1323 0
 3119 00e0 0134     		adds	r4, r4, #1
 3120              	.LVL438:
 3121 00e2 A042     		cmp	r0, r4
 3122 00e4 0CD1     		bne	.L344
 3123 00e6 0446     		mov	r4, r0
 3124              	.LVL439:
 3125 00e8 D5E7     		b	.L321
 3126              	.LVL440:
 3127              	.L320:
 3128              		.loc 1 1330 0
 3129 00ea 032B     		cmp	r3, #3
 3130 00ec 08D1     		bne	.L344
 3131              		.loc 1 1330 0 is_stmt 0 discriminator 1
 3132 00ee B268     		ldr	r2, [r6, #8]
 3133 00f0 9742     		cmp	r7, r2
 3134 00f2 05D3     		bcc	.L344
 3135              		.loc 1 1330 0 discriminator 2
ARM GAS  /tmp/ccWRkTKh.s 			page 56


 3136 00f4 B369     		ldr	r3, [r6, #24]
 3137 00f6 1344     		add	r3, r3, r2
 3138 00f8 9F42     		cmp	r7, r3
 3139 00fa 01D8     		bhi	.L344
 3140              	.LVL441:
 3141              	.L325:
 3142              		.loc 1 1327 0 is_stmt 1
 3143 00fc 0223     		movs	r3, #2
 3144 00fe F371     		strb	r3, [r6, #7]
 3145              	.L344:
 3146              		.loc 1 1337 0
 3147 0100 0020     		movs	r0, #0
 3148 0102 BDE8F883 		pop	{r3, r4, r5, r6, r7, r8, r9, pc}
 3149              	.LVL442:
 3150              	.L305:
 3151              		.loc 1 1338 0
 3152 0106 BDE8F883 		pop	{r3, r4, r5, r6, r7, r8, r9, pc}
 3153              		.cfi_endproc
 3154              	.LFE314:
 3155              		.size	remove_chain, .-remove_chain
 3156              		.section	.text.fill_first_frag,"ax",%progbits
 3157              		.align	1
 3158              		.thumb
 3159              		.thumb_func
 3160              		.type	fill_first_frag, %function
 3161              	fill_first_frag:
 3162              	.LFB312:
 3163              		.loc 1 1205 0
 3164              		.cfi_startproc
 3165              		@ args = 0, pretend = 0, frame = 0
 3166              		@ frame_needed = 0, uses_anonymous_args = 0
 3167              	.LVL443:
 3168 0000 70B5     		push	{r4, r5, r6, lr}
 3169              		.cfi_def_cfa_offset 16
 3170              		.cfi_offset 4, -16
 3171              		.cfi_offset 5, -12
 3172              		.cfi_offset 6, -8
 3173              		.cfi_offset 14, -4
 3174              		.loc 1 1210 0
 3175 0002 C379     		ldrb	r3, [r0, #7]	@ zero_extendqisi2
 3176 0004 032B     		cmp	r3, #3
 3177              		.loc 1 1205 0
 3178 0006 0446     		mov	r4, r0
 3179              		.loc 1 1210 0
 3180 0008 0FD1     		bne	.L353
 3181              	.LVL444:
 3182              	.LBB184:
 3183              	.LBB185:
 3184              		.loc 1 1211 0
 3185 000a 8168     		ldr	r1, [r0, #8]
 3186              	.LVL445:
 3187 000c 8369     		ldr	r3, [r0, #24]
 3188 000e CD18     		adds	r5, r1, r3
 3189              	.LVL446:
 3190              	.L351:
 3191 0010 A942     		cmp	r1, r5
 3192 0012 07D0     		beq	.L355
ARM GAS  /tmp/ccWRkTKh.s 			page 57


 3193              		.loc 1 1212 0
 3194 0014 4E1C     		adds	r6, r1, #1
 3195 0016 2068     		ldr	r0, [r4]
 3196 0018 3246     		mov	r2, r6
 3197 001a FFF7FEFF 		bl	put_fat
 3198              	.LVL447:
 3199              		.loc 1 1213 0
 3200 001e 28B9     		cbnz	r0, .L350
 3201              		.loc 1 1211 0
 3202 0020 3146     		mov	r1, r6
 3203 0022 F5E7     		b	.L351
 3204              	.LVL448:
 3205              	.L355:
 3206              		.loc 1 1215 0
 3207 0024 0020     		movs	r0, #0
 3208 0026 E071     		strb	r0, [r4, #7]
 3209 0028 70BD     		pop	{r4, r5, r6, pc}
 3210              	.LVL449:
 3211              	.L353:
 3212              	.LBE185:
 3213              	.LBE184:
 3214              		.loc 1 1217 0
 3215 002a 0020     		movs	r0, #0
 3216              	.LVL450:
 3217              	.L350:
 3218              		.loc 1 1218 0
 3219 002c 70BD     		pop	{r4, r5, r6, pc}
 3220              		.cfi_endproc
 3221              	.LFE312:
 3222              		.size	fill_first_frag, .-fill_first_frag
 3223              		.section	.text.unlock_fs,"ax",%progbits
 3224              		.align	1
 3225              		.thumb
 3226              		.thumb_func
 3227              		.type	unlock_fs, %function
 3228              	unlock_fs:
 3229              	.LFB303:
 3230              		.loc 1 740 0
 3231              		.cfi_startproc
 3232              		@ args = 0, pretend = 0, frame = 0
 3233              		@ frame_needed = 0, uses_anonymous_args = 0
 3234              		@ link register save eliminated.
 3235              	.LVL451:
 3236              		.loc 1 741 0
 3237 0000 40B1     		cbz	r0, .L356
 3238              		.loc 1 741 0 is_stmt 0 discriminator 2
 3239 0002 A1F10B03 		sub	r3, r1, #11
 3240 0006 012B     		cmp	r3, #1
 3241 0008 04D9     		bls	.L356
 3242              	.LVL452:
 3243              	.LBB188:
 3244              	.LBB189:
 3245              		.loc 1 741 0
 3246 000a 0F29     		cmp	r1, #15
 3247 000c 02D0     		beq	.L356
 3248              		.loc 1 742 0 is_stmt 1
 3249 000e 4069     		ldr	r0, [r0, #20]
ARM GAS  /tmp/ccWRkTKh.s 			page 58


 3250              	.LVL453:
 3251 0010 FFF7FEBF 		b	ff_rel_grant
 3252              	.LVL454:
 3253              	.L356:
 3254 0014 7047     		bx	lr
 3255              	.LBE189:
 3256              	.LBE188:
 3257              		.cfi_endproc
 3258              	.LFE303:
 3259              		.size	unlock_fs, .-unlock_fs
 3260              		.section	.text.validate,"ax",%progbits
 3261              		.align	1
 3262              		.thumb
 3263              		.thumb_func
 3264              		.type	validate, %function
 3265              	validate:
 3266              	.LFB344:
 3267              		.loc 1 3269 0
 3268              		.cfi_startproc
 3269              		@ args = 0, pretend = 0, frame = 0
 3270              		@ frame_needed = 0, uses_anonymous_args = 0
 3271              	.LVL455:
 3272 0000 38B5     		push	{r3, r4, r5, lr}
 3273              		.cfi_def_cfa_offset 16
 3274              		.cfi_offset 3, -16
 3275              		.cfi_offset 4, -12
 3276              		.cfi_offset 5, -8
 3277              		.cfi_offset 14, -4
 3278              		.loc 1 3269 0
 3279 0002 0D46     		mov	r5, r1
 3280              		.loc 1 3273 0
 3281 0004 0446     		mov	r4, r0
 3282 0006 C8B1     		cbz	r0, .L371
 3283              		.loc 1 3273 0 is_stmt 0 discriminator 1
 3284 0008 0368     		ldr	r3, [r0]
 3285 000a BBB1     		cbz	r3, .L371
 3286              		.loc 1 3273 0 discriminator 2
 3287 000c 1A78     		ldrb	r2, [r3]	@ zero_extendqisi2
 3288 000e AAB1     		cbz	r2, .L371
 3289              		.loc 1 3273 0 discriminator 3
 3290 0010 8188     		ldrh	r1, [r0, #4]
 3291              	.LVL456:
 3292 0012 DA88     		ldrh	r2, [r3, #6]
 3293 0014 9142     		cmp	r1, r2
 3294 0016 11D1     		bne	.L371
 3295              	.LVL457:
 3296              	.LBB190:
 3297              	.LBB191:
 3298              		.loc 1 731 0 is_stmt 1
 3299 0018 5869     		ldr	r0, [r3, #20]
 3300              	.LVL458:
 3301 001a FFF7FEFF 		bl	ff_req_grant
 3302              	.LVL459:
 3303              	.LBE191:
 3304              	.LBE190:
 3305              		.loc 1 3275 0
 3306 001e 78B1     		cbz	r0, .L372
ARM GAS  /tmp/ccWRkTKh.s 			page 59


 3307              		.loc 1 3276 0
 3308 0020 2368     		ldr	r3, [r4]
 3309 0022 5878     		ldrb	r0, [r3, #1]	@ zero_extendqisi2
 3310 0024 FFF7FEFF 		bl	disk_status
 3311              	.LVL460:
 3312 0028 10F00100 		ands	r0, r0, #1
 3313 002c 04D0     		beq	.L366
 3314              		.loc 1 3279 0
 3315 002e 2068     		ldr	r0, [r4]
 3316 0030 0021     		movs	r1, #0
 3317 0032 FFF7FEFF 		bl	unlock_fs
 3318              	.LVL461:
 3319 0036 01E0     		b	.L371
 3320              	.L366:
 3321              	.LVL462:
 3322              		.loc 1 3290 0
 3323 0038 2368     		ldr	r3, [r4]
 3324 003a 03E0     		b	.L367
 3325              	.LVL463:
 3326              	.L371:
 3327              		.loc 1 3270 0
 3328 003c 0920     		movs	r0, #9
 3329 003e 00E0     		b	.L365
 3330              	.L372:
 3331              		.loc 1 3282 0
 3332 0040 0F20     		movs	r0, #15
 3333              	.L365:
 3334              	.LVL464:
 3335              		.loc 1 3290 0
 3336 0042 0023     		movs	r3, #0
 3337              	.LVL465:
 3338              	.L367:
 3339              		.loc 1 3290 0 is_stmt 0 discriminator 4
 3340 0044 2B60     		str	r3, [r5]
 3341              		.loc 1 3292 0 is_stmt 1 discriminator 4
 3342 0046 38BD     		pop	{r3, r4, r5, pc}
 3343              		.cfi_endproc
 3344              	.LFE344:
 3345              		.size	validate, .-validate
 3346              		.section	.text.create_chain,"ax",%progbits
 3347              		.align	1
 3348              		.thumb
 3349              		.thumb_func
 3350              		.type	create_chain, %function
 3351              	create_chain:
 3352              	.LFB315:
 3353              		.loc 1 1351 0
 3354              		.cfi_startproc
 3355              		@ args = 0, pretend = 0, frame = 0
 3356              		@ frame_needed = 0, uses_anonymous_args = 0
 3357              	.LVL466:
 3358 0000 2DE9F843 		push	{r3, r4, r5, r6, r7, r8, r9, lr}
 3359              		.cfi_def_cfa_offset 32
 3360              		.cfi_offset 3, -32
 3361              		.cfi_offset 4, -28
 3362              		.cfi_offset 5, -24
 3363              		.cfi_offset 6, -20
ARM GAS  /tmp/ccWRkTKh.s 			page 60


 3364              		.cfi_offset 7, -16
 3365              		.cfi_offset 8, -12
 3366              		.cfi_offset 9, -8
 3367              		.cfi_offset 14, -4
 3368              		.loc 1 1351 0
 3369 0004 0746     		mov	r7, r0
 3370              		.loc 1 1354 0
 3371 0006 0568     		ldr	r5, [r0]
 3372              	.LVL467:
 3373              		.loc 1 1357 0
 3374 0008 8846     		mov	r8, r1
 3375 000a 31B9     		cbnz	r1, .L375
 3376              		.loc 1 1358 0
 3377 000c AE69     		ldr	r6, [r5, #24]
 3378              	.LVL468:
 3379              		.loc 1 1359 0
 3380 000e AEB1     		cbz	r6, .L412
 3381              		.loc 1 1359 0 is_stmt 0 discriminator 2
 3382 0010 2B6B     		ldr	r3, [r5, #48]
 3383 0012 9E42     		cmp	r6, r3
 3384 0014 28BF     		it	cs
 3385 0016 0126     		movcs	r6, #1
 3386              	.LVL469:
 3387 0018 11E0     		b	.L376
 3388              	.LVL470:
 3389              	.L375:
 3390              		.loc 1 1362 0 is_stmt 1
 3391 001a FFF7FEFF 		bl	get_fat
 3392              	.LVL471:
 3393              		.loc 1 1363 0
 3394 001e 0128     		cmp	r0, #1
 3395 0020 40F2DB80 		bls	.L452
 3396              		.loc 1 1364 0
 3397 0024 411C     		adds	r1, r0, #1
 3398 0026 03D1     		bne	.L379
 3399              	.LVL472:
 3400              	.L390:
 3401              		.loc 1 1363 0
 3402 0028 4FF0FF30 		mov	r0, #-1
 3403 002c BDE8F883 		pop	{r3, r4, r5, r6, r7, r8, r9, pc}
 3404              	.LVL473:
 3405              	.L379:
 3406              		.loc 1 1365 0
 3407 0030 2B6B     		ldr	r3, [r5, #48]
 3408 0032 9842     		cmp	r0, r3
 3409 0034 C0F0DA80 		bcc	.L450
 3410 0038 4646     		mov	r6, r8
 3411 003a 00E0     		b	.L376
 3412              	.LVL474:
 3413              	.L412:
 3414              		.loc 1 1359 0
 3415 003c 0126     		movs	r6, #1
 3416              	.LVL475:
 3417              	.L376:
 3418              		.loc 1 1368 0
 3419 003e EB69     		ldr	r3, [r5, #28]
 3420 0040 13B9     		cbnz	r3, .L380
ARM GAS  /tmp/ccWRkTKh.s 			page 61


 3421              	.L404:
 3422 0042 0020     		movs	r0, #0
 3423 0044 BDE8F883 		pop	{r3, r4, r5, r6, r7, r8, r9, pc}
 3424              	.LVL476:
 3425              	.L380:
 3426              		.loc 1 1371 0
 3427 0048 2B78     		ldrb	r3, [r5]	@ zero_extendqisi2
 3428 004a 042B     		cmp	r3, #4
 3429 004c 2B6B     		ldr	r3, [r5, #48]
 3430 004e 75D1     		bne	.L381
 3431              	.LVL477:
 3432              	.LBB194:
 3433              	.LBB195:
 3434              		.loc 1 1135 0
 3435 0050 A6F10209 		sub	r9, r6, #2
 3436              	.LVL478:
 3437              		.loc 1 1136 0
 3438 0054 023B     		subs	r3, r3, #2
 3439 0056 9945     		cmp	r9, r3
 3440 0058 28BF     		it	cs
 3441 005a 4FF00009 		movcs	r9, #0
 3442              	.LVL479:
 3443              		.loc 1 1137 0
 3444 005e 4C46     		mov	r4, r9
 3445              	.LVL480:
 3446              	.L388:
 3447              		.loc 1 1139 0
 3448 0060 696C     		ldr	r1, [r5, #68]
 3449 0062 2846     		mov	r0, r5
 3450 0064 01EB1431 		add	r1, r1, r4, lsr #12
 3451 0068 FFF7FEFF 		bl	move_window
 3452              	.LVL481:
 3453 006c 48BB     		cbnz	r0, .L414
 3454              		.loc 1 1140 0
 3455 006e 04F00702 		and	r2, r4, #7
 3456 0072 0123     		movs	r3, #1
 3457 0074 9340     		lsls	r3, r3, r2
 3458              		.loc 1 1144 0
 3459 0076 2A6B     		ldr	r2, [r5, #48]
 3460              		.loc 1 1140 0
 3461 0078 C4F3C801 		ubfx	r1, r4, #3, #9
 3462              	.LVL482:
 3463 007c DBB2     		uxtb	r3, r3
 3464              	.LVL483:
 3465              		.loc 1 1144 0
 3466 007e 901E     		subs	r0, r2, #2
 3467              	.LVL484:
 3468              	.L384:
 3469              		.loc 1 1143 0
 3470 0080 6A18     		adds	r2, r5, r1
 3471 0082 92F84CE0 		ldrb	lr, [r2, #76]	@ zero_extendqisi2
 3472              		.loc 1 1144 0
 3473 0086 621C     		adds	r2, r4, #1
 3474 0088 8242     		cmp	r2, r0
 3475              		.loc 1 1143 0
 3476 008a 03EA0E0E 		and	lr, r3, lr
 3477              	.LVL485:
ARM GAS  /tmp/ccWRkTKh.s 			page 62


 3478              		.loc 1 1145 0
 3479 008e 2DBF     		iteet	cs
 3480 0090 0022     		movcs	r2, #0
 3481              	.LVL486:
 3482              		.loc 1 1143 0
 3483 0092 5B00     		lslcc	r3, r3, #1
 3484              	.LVL487:
 3485 0094 DBB2     		uxtbcc	r3, r3
 3486              		.loc 1 1145 0
 3487 0096 4FF40071 		movcs	r1, #512
 3488              	.LVL488:
 3489 009a 28BF     		it	cs
 3490 009c 1346     		movcs	r3, r2
 3491              	.LVL489:
 3492              		.loc 1 1147 0
 3493 009e BEF1000F 		cmp	lr, #0
 3494 00a2 01D1     		bne	.L386
 3495              	.LVL490:
 3496              		.loc 1 1148 0
 3497 00a4 0234     		adds	r4, r4, #2
 3498              	.LVL491:
 3499 00a6 10E0     		b	.L383
 3500              	.LVL492:
 3501              	.L386:
 3502              		.loc 1 1152 0
 3503 00a8 4A45     		cmp	r2, r9
 3504 00aa 0DD0     		beq	.L416
 3505              		.loc 1 1153 0
 3506 00ac 0BB1     		cbz	r3, .L453
 3507              	.LVL493:
 3508              	.L387:
 3509              		.loc 1 1154 0
 3510 00ae 1446     		mov	r4, r2
 3511 00b0 E6E7     		b	.L384
 3512              	.LVL494:
 3513              	.L453:
 3514              		.loc 1 1155 0
 3515 00b2 0131     		adds	r1, r1, #1
 3516              	.LVL495:
 3517 00b4 B1F5007F 		cmp	r1, #512
 3518 00b8 01D2     		bcs	.L454
 3519              		.loc 1 1154 0
 3520 00ba 0123     		movs	r3, #1
 3521 00bc F7E7     		b	.L387
 3522              	.L454:
 3523              		.loc 1 1155 0
 3524 00be 1446     		mov	r4, r2
 3525 00c0 CEE7     		b	.L388
 3526              	.LVL496:
 3527              	.L414:
 3528              		.loc 1 1139 0
 3529 00c2 4FF0FF34 		mov	r4, #-1
 3530              	.LVL497:
 3531 00c6 00E0     		b	.L383
 3532              	.LVL498:
 3533              	.L416:
 3534              		.loc 1 1152 0
ARM GAS  /tmp/ccWRkTKh.s 			page 63


 3535 00c8 0024     		movs	r4, #0
 3536              	.LVL499:
 3537              	.L383:
 3538              	.LBE195:
 3539              	.LBE194:
 3540              		.loc 1 1373 0
 3541 00ca 631E     		subs	r3, r4, #1
 3542 00cc 0333     		adds	r3, r3, #3
 3543 00ce 00F28780 		bhi	.L418
 3544              		.loc 1 1374 0
 3545 00d2 0122     		movs	r2, #1
 3546 00d4 2846     		mov	r0, r5
 3547 00d6 2146     		mov	r1, r4
 3548 00d8 1346     		mov	r3, r2
 3549 00da FFF7FEFF 		bl	change_bitmap
 3550              	.LVL500:
 3551              		.loc 1 1375 0
 3552 00de 0228     		cmp	r0, #2
 3553 00e0 7BD0     		beq	.L452
 3554              		.loc 1 1376 0
 3555 00e2 0128     		cmp	r0, #1
 3556 00e4 A0D0     		beq	.L390
 3557              		.loc 1 1377 0
 3558 00e6 B8F1000F 		cmp	r8, #0
 3559 00ea 01D1     		bne	.L391
 3560              		.loc 1 1378 0
 3561 00ec 0223     		movs	r3, #2
 3562 00ee 09E0     		b	.L451
 3563              	.L391:
 3564              		.loc 1 1380 0
 3565 00f0 FB79     		ldrb	r3, [r7, #7]	@ zero_extendqisi2
 3566 00f2 022B     		cmp	r3, #2
 3567 00f4 07D1     		bne	.L392
 3568              		.loc 1 1380 0 is_stmt 0 discriminator 1
 3569 00f6 731C     		adds	r3, r6, #1
 3570 00f8 9C42     		cmp	r4, r3
 3571 00fa 04D0     		beq	.L392
 3572              		.loc 1 1381 0 is_stmt 1
 3573 00fc BB68     		ldr	r3, [r7, #8]
 3574 00fe F61A     		subs	r6, r6, r3
 3575              	.LVL501:
 3576 0100 BE61     		str	r6, [r7, #24]
 3577              		.loc 1 1382 0
 3578 0102 0323     		movs	r3, #3
 3579              	.L451:
 3580 0104 FB71     		strb	r3, [r7, #7]
 3581              	.L392:
 3582              		.loc 1 1385 0
 3583 0106 FB79     		ldrb	r3, [r7, #7]	@ zero_extendqisi2
 3584 0108 022B     		cmp	r3, #2
 3585 010a 6CD0     		beq	.L393
 3586              		.loc 1 1386 0
 3587 010c 08F10103 		add	r3, r8, #1
 3588 0110 9C42     		cmp	r4, r3
 3589 0112 FB69     		ldr	r3, [r7, #28]
 3590 0114 05D1     		bne	.L394
 3591              		.loc 1 1387 0
ARM GAS  /tmp/ccWRkTKh.s 			page 64


 3592 0116 0BB1     		cbz	r3, .L419
 3593              		.loc 1 1387 0 is_stmt 0 discriminator 1
 3594 0118 0133     		adds	r3, r3, #1
 3595 011a 00E0     		b	.L395
 3596              	.L419:
 3597              		.loc 1 1387 0
 3598 011c 0223     		movs	r3, #2
 3599              	.L395:
 3600              		.loc 1 1387 0 discriminator 4
 3601 011e FB61     		str	r3, [r7, #28]
 3602 0120 61E0     		b	.L393
 3603              	.L394:
 3604              		.loc 1 1389 0 is_stmt 1
 3605 0122 0BB9     		cbnz	r3, .L396
 3606              		.loc 1 1389 0 is_stmt 0 discriminator 1
 3607 0124 0123     		movs	r3, #1
 3608 0126 FB61     		str	r3, [r7, #28]
 3609              	.L396:
 3610              		.loc 1 1390 0 is_stmt 1
 3611 0128 3846     		mov	r0, r7
 3612              	.LVL502:
 3613 012a 4146     		mov	r1, r8
 3614 012c 2246     		mov	r2, r4
 3615 012e FFF7FEFF 		bl	fill_last_frag
 3616              	.LVL503:
 3617              		.loc 1 1391 0
 3618 0132 0028     		cmp	r0, #0
 3619 0134 4ED1     		bne	.L408
 3620              		.loc 1 1391 0 is_stmt 0 discriminator 1
 3621 0136 0123     		movs	r3, #1
 3622 0138 FB61     		str	r3, [r7, #28]
 3623 013a 3DE0     		b	.L411
 3624              	.LVL504:
 3625              	.L381:
 3626              		.loc 1 1398 0 is_stmt 1
 3627 013c 4645     		cmp	r6, r8
 3628 013e 16D1     		bne	.L410
 3629              		.loc 1 1399 0
 3630 0140 741C     		adds	r4, r6, #1
 3631              	.LVL505:
 3632              		.loc 1 1400 0
 3633 0142 9C42     		cmp	r4, r3
 3634 0144 28BF     		it	cs
 3635 0146 0224     		movcs	r4, #2
 3636              	.LVL506:
 3637              		.loc 1 1401 0
 3638 0148 3846     		mov	r0, r7
 3639 014a 2146     		mov	r1, r4
 3640 014c FFF7FEFF 		bl	get_fat
 3641              	.LVL507:
 3642              		.loc 1 1402 0
 3643 0150 0128     		cmp	r0, #1
 3644 0152 42D0     		beq	.L452
 3645              		.loc 1 1402 0 is_stmt 0 discriminator 2
 3646 0154 421C     		adds	r2, r0, #1
 3647 0156 3FF467AF 		beq	.L390
 3648              		.loc 1 1403 0 is_stmt 1
ARM GAS  /tmp/ccWRkTKh.s 			page 65


 3649 015a 38B1     		cbz	r0, .L401
 3650              		.loc 1 1404 0
 3651 015c AB69     		ldr	r3, [r5, #24]
 3652              	.LVL508:
 3653              		.loc 1 1405 0
 3654 015e 012B     		cmp	r3, #1
 3655 0160 05D9     		bls	.L410
 3656              		.loc 1 1405 0 is_stmt 0 discriminator 1
 3657 0162 2A6B     		ldr	r2, [r5, #48]
 3658 0164 9342     		cmp	r3, r2
 3659 0166 38BF     		it	cc
 3660 0168 1E46     		movcc	r6, r3
 3661              	.LVL509:
 3662 016a 00E0     		b	.L410
 3663              	.LVL510:
 3664              	.L401:
 3665              		.loc 1 1409 0 is_stmt 1
 3666 016c A4B9     		cbnz	r4, .L402
 3667              	.LVL511:
 3668              	.L410:
 3669              		.loc 1 1400 0
 3670 016e 3446     		mov	r4, r6
 3671              	.L407:
 3672              	.LVL512:
 3673              		.loc 1 1413 0
 3674 0170 2B6B     		ldr	r3, [r5, #48]
 3675              		.loc 1 1412 0
 3676 0172 0134     		adds	r4, r4, #1
 3677              	.LVL513:
 3678              		.loc 1 1413 0
 3679 0174 9C42     		cmp	r4, r3
 3680 0176 03D3     		bcc	.L403
 3681              	.LVL514:
 3682              		.loc 1 1415 0
 3683 0178 012E     		cmp	r6, #1
 3684 017a 7FF662AF 		bls	.L404
 3685              		.loc 1 1414 0
 3686 017e 0224     		movs	r4, #2
 3687              	.LVL515:
 3688              	.L403:
 3689              		.loc 1 1417 0
 3690 0180 3846     		mov	r0, r7
 3691 0182 2146     		mov	r1, r4
 3692 0184 FFF7FEFF 		bl	get_fat
 3693              	.LVL516:
 3694              		.loc 1 1418 0
 3695 0188 30B1     		cbz	r0, .L402
 3696              		.loc 1 1419 0
 3697 018a 0128     		cmp	r0, #1
 3698 018c 2ED0     		beq	.L450
 3699              		.loc 1 1419 0 is_stmt 0 discriminator 2
 3700 018e 431C     		adds	r3, r0, #1
 3701 0190 2CD0     		beq	.L450
 3702              		.loc 1 1420 0 is_stmt 1
 3703 0192 B442     		cmp	r4, r6
 3704 0194 ECD1     		bne	.L407
 3705 0196 54E7     		b	.L404
ARM GAS  /tmp/ccWRkTKh.s 			page 66


 3706              	.L402:
 3707              		.loc 1 1423 0
 3708 0198 2846     		mov	r0, r5
 3709              	.LVL517:
 3710 019a 2146     		mov	r1, r4
 3711 019c 4FF0FF32 		mov	r2, #-1
 3712 01a0 FFF7FEFF 		bl	put_fat
 3713              	.LVL518:
 3714              		.loc 1 1424 0
 3715 01a4 B0B9     		cbnz	r0, .L408
 3716              		.loc 1 1424 0 is_stmt 0 discriminator 1
 3717 01a6 B8F1000F 		cmp	r8, #0
 3718 01aa 05D0     		beq	.L411
 3719              		.loc 1 1425 0 is_stmt 1
 3720 01ac 2846     		mov	r0, r5
 3721              	.LVL519:
 3722 01ae 4146     		mov	r1, r8
 3723 01b0 2246     		mov	r2, r4
 3724 01b2 FFF7FEFF 		bl	put_fat
 3725              	.LVL520:
 3726              		.loc 1 1429 0
 3727 01b6 68B9     		cbnz	r0, .L408
 3728              	.LVL521:
 3729              	.L411:
 3730              		.loc 1 1431 0
 3731 01b8 2A6B     		ldr	r2, [r5, #48]
 3732 01ba EB69     		ldr	r3, [r5, #28]
 3733              		.loc 1 1430 0
 3734 01bc AC61     		str	r4, [r5, #24]
 3735              		.loc 1 1431 0
 3736 01be 023A     		subs	r2, r2, #2
 3737 01c0 9342     		cmp	r3, r2
 3738 01c2 9CBF     		itt	ls
 3739 01c4 03F1FF33 		addls	r3, r3, #-1
 3740 01c8 EB61     		strls	r3, [r5, #28]
 3741              		.loc 1 1432 0
 3742 01ca 2B79     		ldrb	r3, [r5, #4]	@ zero_extendqisi2
 3743 01cc 43F00103 		orr	r3, r3, #1
 3744 01d0 2B71     		strb	r3, [r5, #4]
 3745 01d2 05E0     		b	.L418
 3746              	.LVL522:
 3747              	.L408:
 3748              		.loc 1 1434 0
 3749 01d4 0128     		cmp	r0, #1
 3750 01d6 3FF427AF 		beq	.L390
 3751              	.LVL523:
 3752              	.L452:
 3753 01da 0120     		movs	r0, #1
 3754 01dc BDE8F883 		pop	{r3, r4, r5, r6, r7, r8, r9, pc}
 3755              	.LVL524:
 3756              	.L418:
 3757 01e0 2046     		mov	r0, r4
 3758 01e2 BDE8F883 		pop	{r3, r4, r5, r6, r7, r8, r9, pc}
 3759              	.LVL525:
 3760              	.L393:
 3761              		.loc 1 1429 0
 3762 01e6 0028     		cmp	r0, #0
ARM GAS  /tmp/ccWRkTKh.s 			page 67


 3763 01e8 E6D0     		beq	.L411
 3764 01ea F6E7     		b	.L452
 3765              	.LVL526:
 3766              	.L450:
 3767              		.loc 1 1438 0
 3768 01ec BDE8F883 		pop	{r3, r4, r5, r6, r7, r8, r9, pc}
 3769              		.cfi_endproc
 3770              	.LFE315:
 3771              		.size	create_chain, .-create_chain
 3772              		.section	.text.dir_next,"ax",%progbits
 3773              		.align	1
 3774              		.thumb
 3775              		.thumb_func
 3776              		.type	dir_next, %function
 3777              	dir_next:
 3778              	.LFB318:
 3779              		.loc 1 1575 0
 3780              		.cfi_startproc
 3781              		@ args = 0, pretend = 0, frame = 0
 3782              		@ frame_needed = 0, uses_anonymous_args = 0
 3783              	.LVL527:
 3784 0000 2DE9F843 		push	{r3, r4, r5, r6, r7, r8, r9, lr}
 3785              		.cfi_def_cfa_offset 32
 3786              		.cfi_offset 3, -32
 3787              		.cfi_offset 4, -28
 3788              		.cfi_offset 5, -24
 3789              		.cfi_offset 6, -20
 3790              		.cfi_offset 7, -16
 3791              		.cfi_offset 8, -12
 3792              		.cfi_offset 9, -8
 3793              		.cfi_offset 14, -4
 3794              		.loc 1 1581 0
 3795 0004 836B     		ldr	r3, [r0, #56]
 3796              		.loc 1 1577 0
 3797 0006 0668     		ldr	r6, [r0]
 3798              	.LVL528:
 3799              		.loc 1 1580 0
 3800 0008 076B     		ldr	r7, [r0, #48]
 3801              	.LVL529:
 3802              		.loc 1 1575 0
 3803 000a 0446     		mov	r4, r0
 3804 000c 8946     		mov	r9, r1
 3805              		.loc 1 1581 0
 3806 000e 002B     		cmp	r3, #0
 3807 0010 52D0     		beq	.L470
 3808              		.loc 1 1581 0 is_stmt 0 discriminator 2
 3809 0012 3278     		ldrb	r2, [r6]	@ zero_extendqisi2
 3810 0014 042A     		cmp	r2, #4
 3811 0016 0CBF     		ite	eq
 3812 0018 4FF08052 		moveq	r2, #268435456
 3813 001c 4FF40012 		movne	r2, #2097152
 3814              		.loc 1 1580 0 is_stmt 1 discriminator 2
 3815 0020 2037     		adds	r7, r7, #32
 3816              	.LVL530:
 3817              		.loc 1 1581 0 discriminator 2
 3818 0022 9742     		cmp	r7, r2
 3819 0024 48D2     		bcs	.L470
ARM GAS  /tmp/ccWRkTKh.s 			page 68


 3820              		.loc 1 1583 0
 3821 0026 C7F30808 		ubfx	r8, r7, #0, #9
 3822 002a B8F1000F 		cmp	r8, #0
 3823 002e 3CD1     		bne	.L459
 3824              		.loc 1 1586 0
 3825 0030 416B     		ldr	r1, [r0, #52]
 3826              	.LVL531:
 3827              		.loc 1 1584 0
 3828 0032 0133     		adds	r3, r3, #1
 3829 0034 8363     		str	r3, [r0, #56]
 3830              		.loc 1 1586 0
 3831 0036 31B9     		cbnz	r1, .L460
 3832              		.loc 1 1587 0
 3833 0038 3389     		ldrh	r3, [r6, #8]
 3834 003a B3EB571F 		cmp	r3, r7, lsr #5
 3835 003e 34D8     		bhi	.L459
 3836              	.LVL532:
 3837              	.L465:
 3838              		.loc 1 1588 0
 3839 0040 0023     		movs	r3, #0
 3840 0042 A363     		str	r3, [r4, #56]
 3841 0044 38E0     		b	.L470
 3842              	.LVL533:
 3843              	.L460:
 3844              		.loc 1 1592 0
 3845 0046 7389     		ldrh	r3, [r6, #10]
 3846 0048 013B     		subs	r3, r3, #1
 3847 004a 13EA5723 		ands	r3, r3, r7, lsr #9
 3848 004e 2CD1     		bne	.L459
 3849              		.loc 1 1593 0
 3850 0050 FFF7FEFF 		bl	get_fat
 3851              	.LVL534:
 3852              		.loc 1 1594 0
 3853 0054 0128     		cmp	r0, #1
 3854              		.loc 1 1593 0
 3855 0056 0546     		mov	r5, r0
 3856              	.LVL535:
 3857              		.loc 1 1594 0
 3858 0058 02D8     		bhi	.L462
 3859              	.L466:
 3860 005a 0220     		movs	r0, #2
 3861              	.LVL536:
 3862 005c BDE8F883 		pop	{r3, r4, r5, r6, r7, r8, r9, pc}
 3863              	.LVL537:
 3864              	.L462:
 3865              		.loc 1 1595 0
 3866 0060 421C     		adds	r2, r0, #1
 3867 0062 02D1     		bne	.L463
 3868              	.LVL538:
 3869              	.L467:
 3870 0064 0120     		movs	r0, #1
 3871 0066 BDE8F883 		pop	{r3, r4, r5, r6, r7, r8, r9, pc}
 3872              	.LVL539:
 3873              	.L463:
 3874              		.loc 1 1596 0
 3875 006a 336B     		ldr	r3, [r6, #48]
 3876 006c 9842     		cmp	r0, r3
ARM GAS  /tmp/ccWRkTKh.s 			page 69


 3877 006e 16D3     		bcc	.L464
 3878              		.loc 1 1598 0
 3879 0070 B9F1000F 		cmp	r9, #0
 3880 0074 E4D0     		beq	.L465
 3881              		.loc 1 1601 0
 3882 0076 2046     		mov	r0, r4
 3883              	.LVL540:
 3884 0078 616B     		ldr	r1, [r4, #52]
 3885 007a FFF7FEFF 		bl	create_chain
 3886              	.LVL541:
 3887              		.loc 1 1602 0
 3888 007e 0546     		mov	r5, r0
 3889 0080 E8B1     		cbz	r0, .L471
 3890              		.loc 1 1603 0
 3891 0082 0128     		cmp	r0, #1
 3892 0084 E9D0     		beq	.L466
 3893              		.loc 1 1604 0
 3894 0086 431C     		adds	r3, r0, #1
 3895 0088 ECD0     		beq	.L467
 3896              		.loc 1 1605 0
 3897 008a 3046     		mov	r0, r6
 3898              	.LVL542:
 3899 008c 2946     		mov	r1, r5
 3900 008e FFF7FEFF 		bl	dir_clear
 3901              	.LVL543:
 3902 0092 0028     		cmp	r0, #0
 3903 0094 E6D1     		bne	.L467
 3904              		.loc 1 1606 0 discriminator 1
 3905 0096 E379     		ldrb	r3, [r4, #7]	@ zero_extendqisi2
 3906 0098 43F00403 		orr	r3, r3, #4
 3907 009c E371     		strb	r3, [r4, #7]
 3908              	.L464:
 3909              		.loc 1 1612 0
 3910 009e 6563     		str	r5, [r4, #52]
 3911              		.loc 1 1613 0
 3912 00a0 3046     		mov	r0, r6
 3913 00a2 2946     		mov	r1, r5
 3914 00a4 FFF7FEFF 		bl	clst2sect
 3915              	.LVL544:
 3916 00a8 A063     		str	r0, [r4, #56]
 3917              	.LVL545:
 3918              	.L459:
 3919              		.loc 1 1618 0
 3920 00aa 4644     		add	r6, r6, r8
 3921              	.LVL546:
 3922 00ac 4C36     		adds	r6, r6, #76
 3923              		.loc 1 1617 0
 3924 00ae 2763     		str	r7, [r4, #48]
 3925              		.loc 1 1618 0
 3926 00b0 E663     		str	r6, [r4, #60]
 3927              		.loc 1 1620 0
 3928 00b2 0020     		movs	r0, #0
 3929 00b4 BDE8F883 		pop	{r3, r4, r5, r6, r7, r8, r9, pc}
 3930              	.LVL547:
 3931              	.L470:
 3932              		.loc 1 1581 0
 3933 00b8 0420     		movs	r0, #4
ARM GAS  /tmp/ccWRkTKh.s 			page 70


 3934 00ba BDE8F883 		pop	{r3, r4, r5, r6, r7, r8, r9, pc}
 3935              	.LVL548:
 3936              	.L471:
 3937              		.loc 1 1602 0
 3938 00be 0720     		movs	r0, #7
 3939              	.LVL549:
 3940              		.loc 1 1621 0
 3941 00c0 BDE8F883 		pop	{r3, r4, r5, r6, r7, r8, r9, pc}
 3942              		.cfi_endproc
 3943              	.LFE318:
 3944              		.size	dir_next, .-dir_next
 3945              		.section	.text.dir_alloc,"ax",%progbits
 3946              		.align	1
 3947              		.thumb
 3948              		.thumb_func
 3949              		.type	dir_alloc, %function
 3950              	dir_alloc:
 3951              	.LFB319:
 3952              		.loc 1 1636 0
 3953              		.cfi_startproc
 3954              		@ args = 0, pretend = 0, frame = 0
 3955              		@ frame_needed = 0, uses_anonymous_args = 0
 3956              	.LVL550:
 3957 0000 F8B5     		push	{r3, r4, r5, r6, r7, lr}
 3958              		.cfi_def_cfa_offset 24
 3959              		.cfi_offset 3, -24
 3960              		.cfi_offset 4, -20
 3961              		.cfi_offset 5, -16
 3962              		.cfi_offset 6, -12
 3963              		.cfi_offset 7, -8
 3964              		.cfi_offset 14, -4
 3965              		.loc 1 1636 0
 3966 0002 0E46     		mov	r6, r1
 3967              		.loc 1 1642 0
 3968 0004 0021     		movs	r1, #0
 3969              	.LVL551:
 3970              		.loc 1 1636 0
 3971 0006 0446     		mov	r4, r0
 3972              		.loc 1 1639 0
 3973 0008 0568     		ldr	r5, [r0]
 3974              	.LVL552:
 3975              		.loc 1 1642 0
 3976 000a FFF7FEFF 		bl	dir_sdi
 3977              	.LVL553:
 3978              		.loc 1 1643 0
 3979 000e 00BB     		cbnz	r0, .L482
 3980 0010 0746     		mov	r7, r0
 3981              	.L488:
 3982              	.LVL554:
 3983              		.loc 1 1646 0
 3984 0012 2846     		mov	r0, r5
 3985              	.LVL555:
 3986 0014 A16B     		ldr	r1, [r4, #56]
 3987 0016 FFF7FEFF 		bl	move_window
 3988              	.LVL556:
 3989              		.loc 1 1647 0
 3990 001a D0B9     		cbnz	r0, .L482
ARM GAS  /tmp/ccWRkTKh.s 			page 71


 3991              		.loc 1 1649 0
 3992 001c 2B78     		ldrb	r3, [r5]	@ zero_extendqisi2
 3993 001e 042B     		cmp	r3, #4
 3994 0020 E36B     		ldr	r3, [r4, #60]
 3995 0022 1B78     		ldrb	r3, [r3]	@ zero_extendqisi2
 3996 0024 03D1     		bne	.L483
 3997              		.loc 1 1649 0 is_stmt 0 discriminator 1
 3998 0026 DB43     		mvns	r3, r3
 3999 0028 C3F3C013 		ubfx	r3, r3, #7, #1
 4000 002c 05E0     		b	.L484
 4001              	.L483:
 4002              		.loc 1 1649 0 discriminator 2
 4003 002e E52B     		cmp	r3, #229
 4004 0030 0EBF     		itee	eq
 4005 0032 0123     		moveq	r3, #1
 4006 0034 B3FA83F3 		clzne	r3, r3
 4007 0038 5B09     		lsrne	r3, r3, #5
 4008              	.L484:
 4009              		.loc 1 1649 0 discriminator 10
 4010 003a 1BB1     		cbz	r3, .L491
 4011              		.loc 1 1653 0 is_stmt 1
 4012 003c 0137     		adds	r7, r7, #1
 4013              	.LVL557:
 4014 003e B742     		cmp	r7, r6
 4015 0040 01D1     		bne	.L486
 4016 0042 F8BD     		pop	{r3, r4, r5, r6, r7, pc}
 4017              	.LVL558:
 4018              	.L491:
 4019              		.loc 1 1655 0
 4020 0044 1F46     		mov	r7, r3
 4021              	.LVL559:
 4022              	.L486:
 4023              		.loc 1 1657 0
 4024 0046 2046     		mov	r0, r4
 4025              	.LVL560:
 4026 0048 0121     		movs	r1, #1
 4027 004a FFF7FEFF 		bl	dir_next
 4028              	.LVL561:
 4029              		.loc 1 1658 0
 4030 004e 0028     		cmp	r0, #0
 4031 0050 DFD0     		beq	.L488
 4032              	.LVL562:
 4033              	.L482:
 4034              		.loc 1 1661 0
 4035 0052 0428     		cmp	r0, #4
 4036 0054 08BF     		it	eq
 4037 0056 0720     		moveq	r0, #7
 4038              	.LVL563:
 4039              		.loc 1 1663 0
 4040 0058 F8BD     		pop	{r3, r4, r5, r6, r7, pc}
 4041              		.cfi_endproc
 4042              	.LFE319:
 4043              		.size	dir_alloc, .-dir_alloc
 4044              		.section	.text.dir_remove,"ax",%progbits
 4045              		.align	1
 4046              		.thumb
 4047              		.thumb_func
ARM GAS  /tmp/ccWRkTKh.s 			page 72


 4048              		.type	dir_remove, %function
 4049              	dir_remove:
 4050              	.LFB337:
 4051              		.loc 1 2432 0
 4052              		.cfi_startproc
 4053              		@ args = 0, pretend = 0, frame = 0
 4054              		@ frame_needed = 0, uses_anonymous_args = 0
 4055              	.LVL564:
 4056              		.loc 1 2438 0
 4057 0000 C16C     		ldr	r1, [r0, #76]
 4058 0002 4B1C     		adds	r3, r1, #1
 4059              		.loc 1 2432 0
 4060 0004 70B5     		push	{r4, r5, r6, lr}
 4061              		.cfi_def_cfa_offset 16
 4062              		.cfi_offset 4, -16
 4063              		.cfi_offset 5, -12
 4064              		.cfi_offset 6, -8
 4065              		.cfi_offset 14, -4
 4066              		.loc 1 2432 0
 4067 0006 0446     		mov	r4, r0
 4068              		.loc 1 2434 0
 4069 0008 0568     		ldr	r5, [r0]
 4070              	.LVL565:
 4071              		.loc 1 2436 0
 4072 000a 066B     		ldr	r6, [r0, #48]
 4073              	.LVL566:
 4074              		.loc 1 2438 0
 4075 000c 02D0     		beq	.L497
 4076              		.loc 1 2438 0 is_stmt 0 discriminator 1
 4077 000e FFF7FEFF 		bl	dir_sdi
 4078              	.LVL567:
 4079              		.loc 1 2439 0 is_stmt 1 discriminator 1
 4080 0012 D8B9     		cbnz	r0, .L499
 4081              	.LVL568:
 4082              	.L497:
 4083              		.loc 1 2441 0
 4084 0014 2846     		mov	r0, r5
 4085 0016 A16B     		ldr	r1, [r4, #56]
 4086 0018 FFF7FEFF 		bl	move_window
 4087              	.LVL569:
 4088              		.loc 1 2442 0
 4089 001c 98B9     		cbnz	r0, .L500
 4090              		.loc 1 2444 0
 4091 001e 2B78     		ldrb	r3, [r5]	@ zero_extendqisi2
 4092 0020 042B     		cmp	r3, #4
 4093 0022 E36B     		ldr	r3, [r4, #60]
 4094              		.loc 1 2445 0
 4095 0024 0ABF     		itet	eq
 4096 0026 1A78     		ldrbeq	r2, [r3]	@ zero_extendqisi2
 4097              		.loc 1 2447 0
 4098 0028 E522     		movne	r2, #229
 4099              		.loc 1 2445 0
 4100 002a 02F07F02 		andeq	r2, r2, #127
 4101              		.loc 1 2447 0
 4102 002e 1A70     		strb	r2, [r3]
 4103              		.loc 1 2449 0
 4104 0030 0123     		movs	r3, #1
ARM GAS  /tmp/ccWRkTKh.s 			page 73


 4105 0032 EB70     		strb	r3, [r5, #3]
 4106              		.loc 1 2450 0
 4107 0034 236B     		ldr	r3, [r4, #48]
 4108 0036 B342     		cmp	r3, r6
 4109 0038 08D2     		bcs	.L499
 4110              		.loc 1 2451 0
 4111 003a 2046     		mov	r0, r4
 4112              	.LVL570:
 4113 003c 0021     		movs	r1, #0
 4114 003e FFF7FEFF 		bl	dir_next
 4115              	.LVL571:
 4116              		.loc 1 2452 0
 4117 0042 0028     		cmp	r0, #0
 4118 0044 E6D0     		beq	.L497
 4119              	.L500:
 4120              		.loc 1 2453 0
 4121 0046 0428     		cmp	r0, #4
 4122 0048 08BF     		it	eq
 4123 004a 0220     		moveq	r0, #2
 4124              	.LVL572:
 4125              	.L499:
 4126              		.loc 1 2465 0
 4127 004c 70BD     		pop	{r4, r5, r6, pc}
 4128              		.cfi_endproc
 4129              	.LFE337:
 4130              		.size	dir_remove, .-dir_remove
 4131              		.section	.text.sync_fs,"ax",%progbits
 4132              		.align	1
 4133              		.thumb
 4134              		.thumb_func
 4135              		.type	sync_fs, %function
 4136              	sync_fs:
 4137              	.LFB306:
 4138              		.loc 1 927 0
 4139              		.cfi_startproc
 4140              		@ args = 0, pretend = 0, frame = 0
 4141              		@ frame_needed = 0, uses_anonymous_args = 0
 4142              	.LVL573:
 4143 0000 F8B5     		push	{r3, r4, r5, r6, r7, lr}
 4144              		.cfi_def_cfa_offset 24
 4145              		.cfi_offset 3, -24
 4146              		.cfi_offset 4, -20
 4147              		.cfi_offset 5, -16
 4148              		.cfi_offset 6, -12
 4149              		.cfi_offset 7, -8
 4150              		.cfi_offset 14, -4
 4151              		.loc 1 927 0
 4152 0002 0446     		mov	r4, r0
 4153              		.loc 1 931 0
 4154 0004 FFF7FEFF 		bl	sync_window
 4155              	.LVL574:
 4156 0008 0546     		mov	r5, r0
 4157              	.LVL575:
 4158              		.loc 1 932 0
 4159 000a 002D     		cmp	r5, #0
 4160 000c 42D1     		bne	.L512
 4161              		.loc 1 933 0
ARM GAS  /tmp/ccWRkTKh.s 			page 74


 4162 000e 2378     		ldrb	r3, [r4]	@ zero_extendqisi2
 4163 0010 032B     		cmp	r3, #3
 4164 0012 37D1     		bne	.L513
 4165              		.loc 1 933 0 is_stmt 0 discriminator 1
 4166 0014 2679     		ldrb	r6, [r4, #4]	@ zero_extendqisi2
 4167 0016 012E     		cmp	r6, #1
 4168 0018 34D1     		bne	.L513
 4169              		.loc 1 935 0 is_stmt 1
 4170 001a 04F14C07 		add	r7, r4, #76
 4171 001e 3846     		mov	r0, r7
 4172 0020 2946     		mov	r1, r5
 4173 0022 4FF40072 		mov	r2, #512
 4174 0026 FFF7FEFF 		bl	mem_set
 4175              	.LVL576:
 4176              	.LBB202:
 4177              	.LBB203:
 4178              		.loc 1 591 0
 4179 002a 5523     		movs	r3, #85
 4180 002c 84F84A32 		strb	r3, [r4, #586]
 4181              	.LVL577:
 4182              		.loc 1 592 0
 4183 0030 AA23     		movs	r3, #170
 4184 0032 84F84B32 		strb	r3, [r4, #587]
 4185              	.LVL578:
 4186              	.LBE203:
 4187              	.LBE202:
 4188              	.LBB204:
 4189              	.LBB205:
 4190              		.loc 1 598 0
 4191 0036 5223     		movs	r3, #82
 4192              		.loc 1 601 0
 4193 0038 4122     		movs	r2, #65
 4194              	.LBE205:
 4195              	.LBE204:
 4196              	.LBB207:
 4197              	.LBB208:
 4198              		.loc 1 598 0
 4199 003a 7221     		movs	r1, #114
 4200              	.LBE208:
 4201              	.LBE207:
 4202              	.LBB210:
 4203              	.LBB206:
 4204 003c 84F84C30 		strb	r3, [r4, #76]
 4205              	.LVL579:
 4206              		.loc 1 599 0
 4207 0040 84F84D30 		strb	r3, [r4, #77]
 4208              	.LVL580:
 4209              		.loc 1 600 0
 4210 0044 6123     		movs	r3, #97
 4211 0046 84F84E30 		strb	r3, [r4, #78]
 4212              	.LVL581:
 4213              		.loc 1 601 0
 4214 004a 84F84F20 		strb	r2, [r4, #79]
 4215              	.LVL582:
 4216              	.LBE206:
 4217              	.LBE210:
 4218              	.LBB211:
ARM GAS  /tmp/ccWRkTKh.s 			page 75


 4219              	.LBB209:
 4220              		.loc 1 600 0
 4221 004e 84F83222 		strb	r2, [r4, #562]
 4222              		.loc 1 601 0
 4223 0052 84F83332 		strb	r3, [r4, #563]
 4224              		.loc 1 598 0
 4225 0056 84F83012 		strb	r1, [r4, #560]
 4226              	.LVL583:
 4227              		.loc 1 599 0
 4228 005a 84F83112 		strb	r1, [r4, #561]
 4229              	.LVL584:
 4230              	.LBE209:
 4231              	.LBE211:
 4232              		.loc 1 939 0
 4233 005e 04F50D70 		add	r0, r4, #564
 4234 0062 E169     		ldr	r1, [r4, #28]
 4235 0064 FFF7FEFF 		bl	st_dword
 4236              	.LVL585:
 4237              		.loc 1 940 0
 4238 0068 04F50E70 		add	r0, r4, #568
 4239 006c A169     		ldr	r1, [r4, #24]
 4240 006e FFF7FEFF 		bl	st_dword
 4241              	.LVL586:
 4242              		.loc 1 942 0
 4243 0072 A26B     		ldr	r2, [r4, #56]
 4244              		.loc 1 943 0
 4245 0074 6078     		ldrb	r0, [r4, #1]	@ zero_extendqisi2
 4246              		.loc 1 942 0
 4247 0076 0132     		adds	r2, r2, #1
 4248 0078 A264     		str	r2, [r4, #72]
 4249              		.loc 1 943 0
 4250 007a 3946     		mov	r1, r7
 4251 007c 3346     		mov	r3, r6
 4252 007e FFF7FEFF 		bl	disk_write
 4253              	.LVL587:
 4254              		.loc 1 944 0
 4255 0082 2571     		strb	r5, [r4, #4]
 4256              	.LVL588:
 4257              	.L513:
 4258              		.loc 1 947 0
 4259 0084 0021     		movs	r1, #0
 4260 0086 6078     		ldrb	r0, [r4, #1]	@ zero_extendqisi2
 4261 0088 0A46     		mov	r2, r1
 4262 008a FFF7FEFF 		bl	disk_ioctl
 4263              	.LVL589:
 4264 008e 0030     		adds	r0, r0, #0
 4265 0090 18BF     		it	ne
 4266 0092 0120     		movne	r0, #1
 4267              	.L512:
 4268              	.LVL590:
 4269              		.loc 1 951 0
 4270 0094 F8BD     		pop	{r3, r4, r5, r6, r7, pc}
 4271              		.cfi_endproc
 4272              	.LFE306:
 4273              		.size	sync_fs, .-sync_fs
 4274              		.section	.text.store_xdir,"ax",%progbits
 4275              		.align	1
ARM GAS  /tmp/ccWRkTKh.s 			page 76


 4276              		.thumb
 4277              		.thumb_func
 4278              		.type	store_xdir, %function
 4279              	store_xdir:
 4280              	.LFB332:
 4281              		.loc 1 2088 0
 4282              		.cfi_startproc
 4283              		@ args = 0, pretend = 0, frame = 0
 4284              		@ frame_needed = 0, uses_anonymous_args = 0
 4285              	.LVL591:
 4286 0000 F8B5     		push	{r3, r4, r5, r6, r7, lr}
 4287              		.cfi_def_cfa_offset 24
 4288              		.cfi_offset 3, -24
 4289              		.cfi_offset 4, -20
 4290              		.cfi_offset 5, -16
 4291              		.cfi_offset 6, -12
 4292              		.cfi_offset 7, -8
 4293              		.cfi_offset 14, -4
 4294              		.loc 1 2091 0
 4295 0002 0368     		ldr	r3, [r0]
 4296 0004 1E69     		ldr	r6, [r3, #16]
 4297              	.LVL592:
 4298              		.loc 1 2088 0
 4299 0006 0546     		mov	r5, r0
 4300              		.loc 1 2094 0
 4301 0008 3046     		mov	r0, r6
 4302              	.LVL593:
 4303 000a FFF7FEFF 		bl	xdir_sum
 4304              	.LVL594:
 4305              	.LBB216:
 4306              	.LBB217:
 4307              		.loc 1 591 0
 4308 000e B070     		strb	r0, [r6, #2]
 4309              	.LVL595:
 4310 0010 000A     		lsrs	r0, r0, #8
 4311              	.LVL596:
 4312              		.loc 1 592 0
 4313 0012 F070     		strb	r0, [r6, #3]
 4314              	.LBE217:
 4315              	.LBE216:
 4316              		.loc 1 2098 0
 4317 0014 E96C     		ldr	r1, [r5, #76]
 4318              		.loc 1 2095 0
 4319 0016 7778     		ldrb	r7, [r6, #1]	@ zero_extendqisi2
 4320              	.LVL597:
 4321              		.loc 1 2098 0
 4322 0018 2846     		mov	r0, r5
 4323 001a FFF7FEFF 		bl	dir_sdi
 4324              	.LVL598:
 4325 001e 0446     		mov	r4, r0
 4326              	.LVL599:
 4327              	.L515:
 4328              		.loc 1 2099 0
 4329 0020 B4B9     		cbnz	r4, .L516
 4330              		.loc 1 2100 0
 4331 0022 2868     		ldr	r0, [r5]
 4332 0024 A96B     		ldr	r1, [r5, #56]
ARM GAS  /tmp/ccWRkTKh.s 			page 77


 4333 0026 FFF7FEFF 		bl	move_window
 4334              	.LVL600:
 4335              		.loc 1 2101 0
 4336 002a 0446     		mov	r4, r0
 4337 002c 80B9     		cbnz	r0, .L516
 4338              	.LVL601:
 4339              	.LBB218:
 4340              	.LBB219:
 4341 002e 2022     		movs	r2, #32
 4342 0030 E86B     		ldr	r0, [r5, #60]
 4343              	.LVL602:
 4344 0032 3146     		mov	r1, r6
 4345 0034 FFF7FEFF 		bl	mem_cpy.part.0
 4346              	.LVL603:
 4347              	.LBE219:
 4348              	.LBE218:
 4349              		.loc 1 2103 0
 4350 0038 2B68     		ldr	r3, [r5]
 4351 003a 0122     		movs	r2, #1
 4352 003c DA70     		strb	r2, [r3, #3]
 4353              	.LVL604:
 4354              		.loc 1 2104 0
 4355 003e 3FB1     		cbz	r7, .L516
 4356              		.loc 1 2106 0
 4357 0040 2146     		mov	r1, r4
 4358 0042 2846     		mov	r0, r5
 4359 0044 FFF7FEFF 		bl	dir_next
 4360              	.LVL605:
 4361              		.loc 1 2105 0
 4362 0048 2036     		adds	r6, r6, #32
 4363              	.LVL606:
 4364              		.loc 1 2106 0
 4365 004a 0446     		mov	r4, r0
 4366              	.LVL607:
 4367 004c 013F     		subs	r7, r7, #1
 4368              	.LVL608:
 4369 004e E7E7     		b	.L515
 4370              	.LVL609:
 4371              	.L516:
 4372              		.loc 1 2108 0
 4373 0050 022C     		cmp	r4, #2
 4374 0052 2046     		mov	r0, r4
 4375 0054 28BF     		it	cs
 4376 0056 0220     		movcs	r0, #2
 4377              		.loc 1 2109 0
 4378 0058 C0B2     		uxtb	r0, r0
 4379 005a F8BD     		pop	{r3, r4, r5, r6, r7, pc}
 4380              		.cfi_endproc
 4381              	.LFE332:
 4382              		.size	store_xdir, .-store_xdir
 4383              		.section	.text.load_xdir,"ax",%progbits
 4384              		.align	1
 4385              		.thumb
 4386              		.thumb_func
 4387              		.type	load_xdir, %function
 4388              	load_xdir:
 4389              	.LFB330:
ARM GAS  /tmp/ccWRkTKh.s 			page 78


 4390              		.loc 1 2007 0
 4391              		.cfi_startproc
 4392              		@ args = 0, pretend = 0, frame = 0
 4393              		@ frame_needed = 0, uses_anonymous_args = 0
 4394              	.LVL610:
 4395 0000 F8B5     		push	{r3, r4, r5, r6, r7, lr}
 4396              		.cfi_def_cfa_offset 24
 4397              		.cfi_offset 3, -24
 4398              		.cfi_offset 4, -20
 4399              		.cfi_offset 5, -16
 4400              		.cfi_offset 6, -12
 4401              		.cfi_offset 7, -8
 4402              		.cfi_offset 14, -4
 4403              		.loc 1 2007 0
 4404 0002 0546     		mov	r5, r0
 4405              		.loc 1 2010 0
 4406 0004 0068     		ldr	r0, [r0]
 4407              	.LVL611:
 4408              		.loc 1 2014 0
 4409 0006 A96B     		ldr	r1, [r5, #56]
 4410              		.loc 1 2010 0
 4411 0008 0669     		ldr	r6, [r0, #16]
 4412              	.LVL612:
 4413              		.loc 1 2014 0
 4414 000a FFF7FEFF 		bl	move_window
 4415              	.LVL613:
 4416              		.loc 1 2015 0
 4417 000e 0446     		mov	r4, r0
 4418 0010 0028     		cmp	r0, #0
 4419 0012 5AD1     		bne	.L529
 4420              		.loc 1 2016 0
 4421 0014 E96B     		ldr	r1, [r5, #60]
 4422 0016 0B78     		ldrb	r3, [r1]	@ zero_extendqisi2
 4423 0018 852B     		cmp	r3, #133
 4424 001a 3DD1     		bne	.L532
 4425              	.LVL614:
 4426              	.LBB228:
 4427              	.LBB229:
 4428 001c 3046     		mov	r0, r6
 4429              	.LVL615:
 4430 001e 2022     		movs	r2, #32
 4431 0020 FFF7FEFF 		bl	mem_cpy.part.0
 4432              	.LVL616:
 4433              	.LBE229:
 4434              	.LBE228:
 4435              		.loc 1 2018 0
 4436 0024 7778     		ldrb	r7, [r6, #1]	@ zero_extendqisi2
 4437 0026 0137     		adds	r7, r7, #1
 4438 0028 7F01     		lsls	r7, r7, #5
 4439              	.LVL617:
 4440              		.loc 1 2019 0
 4441 002a A7F16003 		sub	r3, r7, #96
 4442 002e B3F5007F 		cmp	r3, #512
 4443 0032 31D8     		bhi	.L532
 4444              		.loc 1 2022 0
 4445 0034 2846     		mov	r0, r5
 4446 0036 2146     		mov	r1, r4
ARM GAS  /tmp/ccWRkTKh.s 			page 79


 4447 0038 FFF7FEFF 		bl	dir_next
 4448              	.LVL618:
 4449              		.loc 1 2023 0
 4450 003c 0428     		cmp	r0, #4
 4451 003e 2BD0     		beq	.L532
 4452              		.loc 1 2024 0
 4453 0040 0028     		cmp	r0, #0
 4454 0042 44D1     		bne	.L522
 4455              		.loc 1 2025 0
 4456 0044 2868     		ldr	r0, [r5]
 4457              	.LVL619:
 4458 0046 A96B     		ldr	r1, [r5, #56]
 4459 0048 FFF7FEFF 		bl	move_window
 4460              	.LVL620:
 4461              		.loc 1 2026 0
 4462 004c 0028     		cmp	r0, #0
 4463 004e 3ED1     		bne	.L522
 4464              		.loc 1 2027 0
 4465 0050 E96B     		ldr	r1, [r5, #60]
 4466 0052 0B78     		ldrb	r3, [r1]	@ zero_extendqisi2
 4467 0054 C02B     		cmp	r3, #192
 4468 0056 1FD1     		bne	.L532
 4469              	.LVL621:
 4470              	.LBB230:
 4471              	.LBB231:
 4472 0058 2022     		movs	r2, #32
 4473 005a 06F12000 		add	r0, r6, #32
 4474              	.LVL622:
 4475 005e FFF7FEFF 		bl	mem_cpy.part.0
 4476              	.LVL623:
 4477              	.LBE231:
 4478              	.LBE230:
 4479              		.loc 1 2029 0
 4480 0062 96F82330 		ldrb	r3, [r6, #35]	@ zero_extendqisi2
 4481 0066 0F22     		movs	r2, #15
 4482 0068 2C33     		adds	r3, r3, #44
 4483 006a B3FBF2F3 		udiv	r3, r3, r2
 4484 006e B7EB431F 		cmp	r7, r3, lsl #5
 4485 0072 11D3     		bcc	.L532
 4486 0074 4024     		movs	r4, #64
 4487              	.L528:
 4488              	.LVL624:
 4489              		.loc 1 2034 0
 4490 0076 2846     		mov	r0, r5
 4491 0078 0021     		movs	r1, #0
 4492 007a FFF7FEFF 		bl	dir_next
 4493              	.LVL625:
 4494              		.loc 1 2035 0
 4495 007e 0428     		cmp	r0, #4
 4496 0080 0AD0     		beq	.L532
 4497              		.loc 1 2036 0
 4498 0082 00B1     		cbz	r0, .L526
 4499 0084 F8BD     		pop	{r3, r4, r5, r6, r7, pc}
 4500              	.LVL626:
 4501              	.L526:
 4502              		.loc 1 2037 0
 4503 0086 2868     		ldr	r0, [r5]
ARM GAS  /tmp/ccWRkTKh.s 			page 80


 4504              	.LVL627:
 4505 0088 A96B     		ldr	r1, [r5, #56]
 4506 008a FFF7FEFF 		bl	move_window
 4507              	.LVL628:
 4508              		.loc 1 2038 0
 4509 008e F0B9     		cbnz	r0, .L522
 4510              		.loc 1 2039 0
 4511 0090 E96B     		ldr	r1, [r5, #60]
 4512 0092 0B78     		ldrb	r3, [r1]	@ zero_extendqisi2
 4513 0094 C12B     		cmp	r3, #193
 4514 0096 01D0     		beq	.L539
 4515              	.LVL629:
 4516              	.L532:
 4517              		.loc 1 2035 0
 4518 0098 0220     		movs	r0, #2
 4519              		.loc 1 2036 0
 4520 009a F8BD     		pop	{r3, r4, r5, r6, r7, pc}
 4521              	.LVL630:
 4522              	.L539:
 4523              		.loc 1 2040 0
 4524 009c B4F5187F 		cmp	r4, #608
 4525 00a0 03D2     		bcs	.L527
 4526              	.LVL631:
 4527              	.LBB232:
 4528              	.LBB233:
 4529 00a2 3019     		adds	r0, r6, r4
 4530              	.LVL632:
 4531 00a4 2022     		movs	r2, #32
 4532 00a6 FFF7FEFF 		bl	mem_cpy.part.0
 4533              	.LVL633:
 4534              	.L527:
 4535              	.LBE233:
 4536              	.LBE232:
 4537              		.loc 1 2041 0
 4538 00aa 2034     		adds	r4, r4, #32
 4539              	.LVL634:
 4540 00ac BC42     		cmp	r4, r7
 4541 00ae E2D3     		bcc	.L528
 4542              		.loc 1 2044 0
 4543 00b0 B4F5187F 		cmp	r4, #608
 4544 00b4 0AD8     		bhi	.L534
 4545              		.loc 1 2045 0
 4546 00b6 3046     		mov	r0, r6
 4547 00b8 FFF7FEFF 		bl	xdir_sum
 4548              	.LVL635:
 4549              	.LBB234:
 4550              	.LBB235:
 4551              		.loc 1 553 0
 4552 00bc F278     		ldrb	r2, [r6, #3]	@ zero_extendqisi2
 4553 00be B378     		ldrb	r3, [r6, #2]	@ zero_extendqisi2
 4554              	.LBE235:
 4555              	.LBE234:
 4556              		.loc 1 2045 0
 4557 00c0 43EA0223 		orr	r3, r3, r2, lsl #8
 4558 00c4 9842     		cmp	r0, r3
 4559 00c6 E7D1     		bne	.L532
 4560 00c8 00E0     		b	.L534
ARM GAS  /tmp/ccWRkTKh.s 			page 81


 4561              	.LVL636:
 4562              	.L529:
 4563 00ca F8BD     		pop	{r3, r4, r5, r6, r7, pc}
 4564              	.LVL637:
 4565              	.L534:
 4566              		.loc 1 2047 0
 4567 00cc 0020     		movs	r0, #0
 4568              	.LVL638:
 4569              	.L522:
 4570              		.loc 1 2048 0
 4571 00ce F8BD     		pop	{r3, r4, r5, r6, r7, pc}
 4572              		.cfi_endproc
 4573              	.LFE330:
 4574              		.size	load_xdir, .-load_xdir
 4575              		.section	.text.load_obj_xdir,"ax",%progbits
 4576              		.align	1
 4577              		.thumb
 4578              		.thumb_func
 4579              		.type	load_obj_xdir, %function
 4580              	load_obj_xdir:
 4581              	.LFB331:
 4582              		.loc 1 2060 0
 4583              		.cfi_startproc
 4584              		@ args = 0, pretend = 0, frame = 0
 4585              		@ frame_needed = 0, uses_anonymous_args = 0
 4586              	.LVL639:
 4587              		.loc 1 2064 0
 4588 0000 0B68     		ldr	r3, [r1]
 4589              		.loc 1 2060 0
 4590 0002 10B5     		push	{r4, lr}
 4591              		.cfi_def_cfa_offset 8
 4592              		.cfi_offset 4, -8
 4593              		.cfi_offset 14, -4
 4594              		.loc 1 2064 0
 4595 0004 0360     		str	r3, [r0]
 4596              		.loc 1 2065 0
 4597 0006 0B6A     		ldr	r3, [r1, #32]
 4598 0008 8360     		str	r3, [r0, #8]
 4599              		.loc 1 2066 0
 4600 000a 4B6A     		ldr	r3, [r1, #36]
 4601 000c C371     		strb	r3, [r0, #7]
 4602              		.loc 1 2067 0
 4603 000e 0022     		movs	r2, #0
 4604 0010 23F0FF03 		bic	r3, r3, #255
 4605              		.loc 1 2069 0
 4606 0014 896A     		ldr	r1, [r1, #40]
 4607              	.LVL640:
 4608              		.loc 1 2067 0
 4609 0016 0361     		str	r3, [r0, #16]
 4610 0018 4261     		str	r2, [r0, #20]
 4611              		.loc 1 2068 0
 4612 001a C261     		str	r2, [r0, #28]
 4613              		.loc 1 2069 0
 4614 001c C164     		str	r1, [r0, #76]
 4615              		.loc 1 2060 0
 4616 001e 0446     		mov	r4, r0
 4617              		.loc 1 2071 0
ARM GAS  /tmp/ccWRkTKh.s 			page 82


 4618 0020 FFF7FEFF 		bl	dir_sdi
 4619              	.LVL641:
 4620              		.loc 1 2072 0
 4621 0024 20B9     		cbnz	r0, .L541
 4622              		.loc 1 2073 0
 4623 0026 2046     		mov	r0, r4
 4624              	.LVL642:
 4625              		.loc 1 2076 0
 4626 0028 BDE81040 		pop	{r4, lr}
 4627              		.cfi_remember_state
 4628              		.cfi_restore 14
 4629              		.cfi_restore 4
 4630              		.cfi_def_cfa_offset 0
 4631              	.LVL643:
 4632              		.loc 1 2073 0
 4633 002c FFF7FEBF 		b	load_xdir
 4634              	.LVL644:
 4635              	.L541:
 4636              		.cfi_restore_state
 4637              		.loc 1 2076 0
 4638 0030 10BD     		pop	{r4, pc}
 4639              		.cfi_endproc
 4640              	.LFE331:
 4641              		.size	load_obj_xdir, .-load_obj_xdir
 4642              		.section	.text.dir_read.constprop.12,"ax",%progbits
 4643              		.align	1
 4644              		.thumb
 4645              		.thumb_func
 4646              		.type	dir_read.constprop.12, %function
 4647              	dir_read.constprop.12:
 4648              	.LFB377:
 4649              		.loc 1 2161 0
 4650              		.cfi_startproc
 4651              		@ args = 0, pretend = 0, frame = 0
 4652              		@ frame_needed = 0, uses_anonymous_args = 0
 4653              	.LVL645:
 4654 0000 2DE9F843 		push	{r3, r4, r5, r6, r7, r8, r9, lr}
 4655              		.cfi_def_cfa_offset 32
 4656              		.cfi_offset 3, -32
 4657              		.cfi_offset 4, -28
 4658              		.cfi_offset 5, -24
 4659              		.cfi_offset 6, -20
 4660              		.cfi_offset 7, -16
 4661              		.cfi_offset 8, -12
 4662              		.cfi_offset 9, -8
 4663              		.cfi_offset 14, -4
 4664              		.loc 1 2170 0
 4665 0004 FF27     		movs	r7, #255
 4666              		.loc 1 2167 0
 4667 0006 0668     		ldr	r6, [r0]
 4668              	.LVL646:
 4669              		.loc 1 2161 0
 4670 0008 0446     		mov	r4, r0
 4671              		.loc 1 2170 0
 4672 000a 3D46     		mov	r5, r7
 4673              		.loc 1 2166 0
 4674 000c 4FF00408 		mov	r8, #4
ARM GAS  /tmp/ccWRkTKh.s 			page 83


 4675              	.LVL647:
 4676              	.L543:
 4677              		.loc 1 2173 0
 4678 0010 A16B     		ldr	r1, [r4, #56]
 4679 0012 0029     		cmp	r1, #0
 4680 0014 7ED0     		beq	.L575
 4681              		.loc 1 2174 0
 4682 0016 3046     		mov	r0, r6
 4683 0018 FFF7FEFF 		bl	move_window
 4684              	.LVL648:
 4685              		.loc 1 2175 0
 4686 001c 8046     		mov	r8, r0
 4687 001e 0028     		cmp	r0, #0
 4688 0020 7BD1     		bne	.L559
 4689              		.loc 1 2176 0
 4690 0022 E06B     		ldr	r0, [r4, #60]
 4691              	.LVL649:
 4692 0024 0378     		ldrb	r3, [r0]	@ zero_extendqisi2
 4693              	.LVL650:
 4694              		.loc 1 2177 0
 4695 0026 002B     		cmp	r3, #0
 4696 0028 7DD0     		beq	.L560
 4697              		.loc 1 2181 0
 4698 002a 3278     		ldrb	r2, [r6]	@ zero_extendqisi2
 4699 002c 042A     		cmp	r2, #4
 4700 002e 0ED1     		bne	.L545
 4701              		.loc 1 2185 0
 4702 0030 852B     		cmp	r3, #133
 4703 0032 66D1     		bne	.L546
 4704              		.loc 1 2186 0
 4705 0034 236B     		ldr	r3, [r4, #48]
 4706              	.LVL651:
 4707 0036 E364     		str	r3, [r4, #76]
 4708              	.LVL652:
 4709              		.loc 1 2187 0
 4710 0038 2046     		mov	r0, r4
 4711 003a FFF7FEFF 		bl	load_xdir
 4712              	.LVL653:
 4713              		.loc 1 2188 0
 4714 003e 0028     		cmp	r0, #0
 4715 0040 74D1     		bne	.L561
 4716              		.loc 1 2189 0
 4717 0042 3369     		ldr	r3, [r6, #16]
 4718 0044 1B79     		ldrb	r3, [r3, #4]	@ zero_extendqisi2
 4719 0046 03F03F03 		and	r3, r3, #63
 4720 004a A371     		strb	r3, [r4, #6]
 4721 004c 70E0     		b	.L569
 4722              	.LVL654:
 4723              	.L545:
 4724              		.loc 1 2197 0
 4725 004e C27A     		ldrb	r2, [r0, #11]	@ zero_extendqisi2
 4726              		.loc 1 2199 0
 4727 0050 E52B     		cmp	r3, #229
 4728              		.loc 1 2197 0
 4729 0052 02F03F02 		and	r2, r2, #63
 4730              	.LVL655:
 4731 0056 A271     		strb	r2, [r4, #6]
ARM GAS  /tmp/ccWRkTKh.s 			page 84


 4732              		.loc 1 2199 0
 4733 0058 52D0     		beq	.L566
 4734 005a 2E2B     		cmp	r3, #46
 4735 005c 50D0     		beq	.L566
 4736 005e 22F02001 		bic	r1, r2, #32
 4737 0062 0829     		cmp	r1, #8
 4738 0064 4CD0     		beq	.L566
 4739              		.loc 1 2202 0
 4740 0066 0F2A     		cmp	r2, #15
 4741 0068 41D1     		bne	.L548
 4742              		.loc 1 2203 0
 4743 006a 5A06     		lsls	r2, r3, #25
 4744              	.LVL656:
 4745 006c 05D5     		bpl	.L549
 4746              		.loc 1 2205 0
 4747 006e 03F0BF05 		and	r5, r3, #191
 4748              	.LVL657:
 4749              		.loc 1 2206 0
 4750 0072 236B     		ldr	r3, [r4, #48]
 4751              	.LVL658:
 4752              		.loc 1 2204 0
 4753 0074 477B     		ldrb	r7, [r0, #13]	@ zero_extendqisi2
 4754              	.LVL659:
 4755              		.loc 1 2206 0
 4756 0076 E364     		str	r3, [r4, #76]
 4757 0078 01E0     		b	.L550
 4758              	.LVL660:
 4759              	.L549:
 4760              		.loc 1 2209 0
 4761 007a AB42     		cmp	r3, r5
 4762 007c 40D1     		bne	.L566
 4763              	.LVL661:
 4764              	.L550:
 4765 007e 437B     		ldrb	r3, [r0, #13]	@ zero_extendqisi2
 4766 0080 BB42     		cmp	r3, r7
 4767 0082 3DD1     		bne	.L566
 4768              	.LBB242:
 4769              	.LBB243:
 4770              	.LBB244:
 4771              	.LBB245:
 4772              		.loc 1 553 0
 4773 0084 C27E     		ldrb	r2, [r0, #27]	@ zero_extendqisi2
 4774 0086 837E     		ldrb	r3, [r0, #26]	@ zero_extendqisi2
 4775              	.LBE245:
 4776              	.LBE244:
 4777              	.LBE243:
 4778              	.LBE242:
 4779              		.loc 1 2209 0
 4780 0088 D6F80CE0 		ldr	lr, [r6, #12]
 4781              	.LVL662:
 4782              	.LBB253:
 4783              	.LBB252:
 4784              	.LBB247:
 4785              	.LBB246:
 4786              		.loc 1 553 0
 4787 008c 43EA0223 		orr	r3, r3, r2, lsl #8
 4788              	.LBE246:
ARM GAS  /tmp/ccWRkTKh.s 			page 85


 4789              	.LBE247:
 4790              		.loc 1 1758 0
 4791 0090 1BB2     		sxth	r3, r3
 4792 0092 ABBB     		cbnz	r3, .L566
 4793              		.loc 1 1760 0
 4794 0094 0278     		ldrb	r2, [r0]	@ zero_extendqisi2
 4795 0096 22F04002 		bic	r2, r2, #64
 4796 009a 013A     		subs	r2, r2, #1
 4797 009c 0D21     		movs	r1, #13
 4798 009e 4A43     		muls	r2, r1, r2
 4799              	.LVL663:
 4800              		.loc 1 1762 0
 4801 00a0 4FF0010C 		mov	ip, #1
 4802              	.LVL664:
 4803              	.L554:
 4804              		.loc 1 1763 0
 4805 00a4 2449     		ldr	r1, .L576
 4806 00a6 13F80180 		ldrb	r8, [r3, r1]	@ zero_extendqisi2
 4807 00aa 00EB0801 		add	r1, r0, r8
 4808              	.LVL665:
 4809              	.LBB248:
 4810              	.LBB249:
 4811              		.loc 1 553 0
 4812 00ae 91F80190 		ldrb	r9, [r1, #1]	@ zero_extendqisi2
 4813 00b2 10F80810 		ldrb	r1, [r0, r8]	@ zero_extendqisi2
 4814              	.LVL666:
 4815 00b6 41EA0921 		orr	r1, r1, r9, lsl #8
 4816              	.LVL667:
 4817              	.LBE249:
 4818              	.LBE248:
 4819              		.loc 1 1764 0
 4820 00ba BCF1000F 		cmp	ip, #0
 4821 00be 06D0     		beq	.L552
 4822              		.loc 1 1765 0
 4823 00c0 FE2A     		cmp	r2, #254
 4824 00c2 1DD8     		bhi	.L566
 4825              	.LVL668:
 4826              		.loc 1 1766 0
 4827 00c4 2EF81210 		strh	r1, [lr, r2, lsl #1]	@ movhi
 4828              	.LBB251:
 4829              	.LBB250:
 4830              		.loc 1 553 0
 4831 00c8 8C46     		mov	ip, r1
 4832              	.LBE250:
 4833              	.LBE251:
 4834              		.loc 1 1766 0
 4835 00ca 0132     		adds	r2, r2, #1
 4836              	.LVL669:
 4837 00cc 03E0     		b	.L553
 4838              	.LVL670:
 4839              	.L552:
 4840              		.loc 1 1768 0
 4841 00ce 4FF6FF78 		movw	r8, #65535
 4842              	.LVL671:
 4843 00d2 4145     		cmp	r1, r8
 4844 00d4 14D1     		bne	.L566
 4845              	.L553:
ARM GAS  /tmp/ccWRkTKh.s 			page 86


 4846              		.loc 1 1762 0
 4847 00d6 0133     		adds	r3, r3, #1
 4848              	.LVL672:
 4849 00d8 0D2B     		cmp	r3, #13
 4850 00da E3D1     		bne	.L554
 4851              		.loc 1 1772 0
 4852 00dc 0378     		ldrb	r3, [r0]	@ zero_extendqisi2
 4853              	.LVL673:
 4854 00de 5B06     		lsls	r3, r3, #25
 4855 00e0 1ED5     		bpl	.L555
 4856              		.loc 1 1773 0
 4857 00e2 FE2A     		cmp	r2, #254
 4858 00e4 0CD8     		bhi	.L566
 4859              		.loc 1 1774 0
 4860 00e6 0023     		movs	r3, #0
 4861 00e8 2EF81230 		strh	r3, [lr, r2, lsl #1]	@ movhi
 4862 00ec 18E0     		b	.L555
 4863              	.LVL674:
 4864              	.L548:
 4865              	.LBE252:
 4866              	.LBE253:
 4867              		.loc 1 2211 0
 4868 00ee 1DB9     		cbnz	r5, .L556
 4869 00f0 FFF7FEFF 		bl	sum_sfn
 4870              	.LVL675:
 4871 00f4 8742     		cmp	r7, r0
 4872 00f6 1BD0     		beq	.L569
 4873              	.L556:
 4874              		.loc 1 2212 0
 4875 00f8 4FF0FF33 		mov	r3, #-1
 4876 00fc E364     		str	r3, [r4, #76]
 4877 00fe 17E0     		b	.L569
 4878              	.L566:
 4879              		.loc 1 2209 0
 4880 0100 FF25     		movs	r5, #255
 4881              	.LVL676:
 4882              	.L546:
 4883              		.loc 1 2223 0
 4884 0102 2046     		mov	r0, r4
 4885 0104 0021     		movs	r1, #0
 4886 0106 FFF7FEFF 		bl	dir_next
 4887              	.LVL677:
 4888              		.loc 1 2224 0
 4889 010a 8046     		mov	r8, r0
 4890 010c 0028     		cmp	r0, #0
 4891 010e 3FF47FAF 		beq	.L543
 4892 0112 02E0     		b	.L559
 4893              	.LVL678:
 4894              	.L575:
 4895              		.loc 1 2227 0
 4896 0114 B8F1000F 		cmp	r8, #0
 4897 0118 0AD0     		beq	.L569
 4898              	.LVL679:
 4899              	.L559:
 4900 011a 0023     		movs	r3, #0
 4901 011c A363     		str	r3, [r4, #56]
 4902 011e 07E0     		b	.L569
ARM GAS  /tmp/ccWRkTKh.s 			page 87


 4903              	.LVL680:
 4904              	.L555:
 4905              		.loc 1 2209 0
 4906 0120 013D     		subs	r5, r5, #1
 4907              	.LVL681:
 4908 0122 EDB2     		uxtb	r5, r5
 4909 0124 EDE7     		b	.L546
 4910              	.LVL682:
 4911              	.L560:
 4912              		.loc 1 2178 0
 4913 0126 4FF00408 		mov	r8, #4
 4914 012a F6E7     		b	.L559
 4915              	.LVL683:
 4916              	.L561:
 4917              		.loc 1 2188 0
 4918 012c 8046     		mov	r8, r0
 4919 012e F4E7     		b	.L559
 4920              	.LVL684:
 4921              	.L569:
 4922              		.loc 1 2229 0
 4923 0130 4046     		mov	r0, r8
 4924 0132 BDE8F883 		pop	{r3, r4, r5, r6, r7, r8, r9, pc}
 4925              	.LVL685:
 4926              	.L577:
 4927 0136 00BF     		.align	2
 4928              	.L576:
 4929 0138 00000000 		.word	.LANCHOR2
 4930              		.cfi_endproc
 4931              	.LFE377:
 4932              		.size	dir_read.constprop.12, .-dir_read.constprop.12
 4933              		.section	.text.dir_find,"ax",%progbits
 4934              		.align	1
 4935              		.thumb
 4936              		.thumb_func
 4937              		.type	dir_find, %function
 4938              	dir_find:
 4939              	.LFB335:
 4940              		.loc 1 2243 0
 4941              		.cfi_startproc
 4942              		@ args = 0, pretend = 0, frame = 16
 4943              		@ frame_needed = 0, uses_anonymous_args = 0
 4944              	.LVL686:
 4945 0000 2DE9F04F 		push	{r4, r5, r6, r7, r8, r9, r10, fp, lr}
 4946              		.cfi_def_cfa_offset 36
 4947              		.cfi_offset 4, -36
 4948              		.cfi_offset 5, -32
 4949              		.cfi_offset 6, -28
 4950              		.cfi_offset 7, -24
 4951              		.cfi_offset 8, -20
 4952              		.cfi_offset 9, -16
 4953              		.cfi_offset 10, -12
 4954              		.cfi_offset 11, -8
 4955              		.cfi_offset 14, -4
 4956              		.loc 1 2251 0
 4957 0004 0021     		movs	r1, #0
 4958              		.loc 1 2243 0
 4959 0006 85B0     		sub	sp, sp, #20
ARM GAS  /tmp/ccWRkTKh.s 			page 88


 4960              		.cfi_def_cfa_offset 56
 4961              		.loc 1 2243 0
 4962 0008 0546     		mov	r5, r0
 4963              		.loc 1 2245 0
 4964 000a D0F80080 		ldr	r8, [r0]
 4965              	.LVL687:
 4966              		.loc 1 2251 0
 4967 000e FFF7FEFF 		bl	dir_sdi
 4968              	.LVL688:
 4969              		.loc 1 2252 0
 4970 0012 0028     		cmp	r0, #0
 4971 0014 40F0D780 		bne	.L632
 4972              		.loc 1 2254 0
 4973 0018 98F80030 		ldrb	r3, [r8]	@ zero_extendqisi2
 4974 001c 042B     		cmp	r3, #4
 4975 001e 34D1     		bne	.L580
 4976              	.LBB265:
 4977              		.loc 1 2257 0
 4978 0020 D8F80C00 		ldr	r0, [r8, #12]
 4979              	.LVL689:
 4980 0024 FFF7FEFF 		bl	xname_sum
 4981              	.LVL690:
 4982 0028 8146     		mov	r9, r0
 4983              	.LVL691:
 4984              	.L582:
 4985              		.loc 1 2259 0
 4986 002a 2846     		mov	r0, r5
 4987 002c FFF7FEFF 		bl	dir_read.constprop.12
 4988              	.LVL692:
 4989 0030 0446     		mov	r4, r0
 4990 0032 0028     		cmp	r0, #0
 4991 0034 40F0C280 		bne	.L610
 4992              		.loc 1 2263 0
 4993 0038 D8F81030 		ldr	r3, [r8, #16]
 4994              	.LVL693:
 4995              	.LBB266:
 4996              	.LBB267:
 4997              		.loc 1 553 0
 4998 003c 93F82510 		ldrb	r1, [r3, #37]	@ zero_extendqisi2
 4999 0040 93F82420 		ldrb	r2, [r3, #36]	@ zero_extendqisi2
 5000              	.LBE267:
 5001              	.LBE266:
 5002              		.loc 1 2263 0
 5003 0044 42EA0122 		orr	r2, r2, r1, lsl #8
 5004 0048 4A45     		cmp	r2, r9
 5005 004a EED1     		bne	.L582
 5006              		.loc 1 2264 0
 5007 004c 93F823A0 		ldrb	r10, [r3, #35]	@ zero_extendqisi2
 5008              	.LVL694:
 5009 0050 2646     		mov	r6, r4
 5010 0052 4027     		movs	r7, #64
 5011              	.LVL695:
 5012              	.L583:
 5013              		.loc 1 2264 0 is_stmt 0 discriminator 1
 5014 0054 5645     		cmp	r6, r10
 5015 0056 00F0A980 		beq	.L633
 5016              		.loc 1 2265 0 is_stmt 1
ARM GAS  /tmp/ccWRkTKh.s 			page 89


 5017 005a F806     		lsls	r0, r7, #27
 5018              		.loc 1 2266 0
 5019 005c D8F81030 		ldr	r3, [r8, #16]
 5020              		.loc 1 2265 0
 5021 0060 08BF     		it	eq
 5022 0062 0237     		addeq	r7, r7, #2
 5023              	.LVL696:
 5024              		.loc 1 2266 0
 5025 0064 DA19     		adds	r2, r3, r7
 5026              	.LVL697:
 5027              	.LBB268:
 5028              	.LBB269:
 5029              		.loc 1 553 0
 5030 0066 DB5D     		ldrb	r3, [r3, r7]	@ zero_extendqisi2
 5031 0068 5078     		ldrb	r0, [r2, #1]	@ zero_extendqisi2
 5032              	.LBE269:
 5033              	.LBE268:
 5034              		.loc 1 2266 0
 5035 006a 43EA0020 		orr	r0, r3, r0, lsl #8
 5036 006e FFF7FEFF 		bl	ff_wtoupper
 5037              	.LVL698:
 5038 0072 D8F80C30 		ldr	r3, [r8, #12]
 5039 0076 8346     		mov	fp, r0
 5040 0078 33F81600 		ldrh	r0, [r3, r6, lsl #1]
 5041 007c FFF7FEFF 		bl	ff_wtoupper
 5042              	.LVL699:
 5043 0080 8345     		cmp	fp, r0
 5044 0082 D2D1     		bne	.L582
 5045              	.LVL700:
 5046              		.loc 1 2264 0 discriminator 2
 5047 0084 0237     		adds	r7, r7, #2
 5048              	.LVL701:
 5049 0086 0136     		adds	r6, r6, #1
 5050              	.LVL702:
 5051 0088 E4E7     		b	.L583
 5052              	.LVL703:
 5053              	.L580:
 5054              	.LBE265:
 5055              		.loc 1 2275 0
 5056 008a 4FF0FF33 		mov	r3, #-1
 5057 008e 4FF0FF09 		mov	r9, #255
 5058 0092 EB64     		str	r3, [r5, #76]
 5059 0094 4C46     		mov	r4, r9
 5060              	.LVL704:
 5061              	.L603:
 5062              		.loc 1 2278 0
 5063 0096 4046     		mov	r0, r8
 5064              	.LVL705:
 5065 0098 A96B     		ldr	r1, [r5, #56]
 5066 009a FFF7FEFF 		bl	move_window
 5067              	.LVL706:
 5068              		.loc 1 2279 0
 5069 009e 0028     		cmp	r0, #0
 5070 00a0 40F09180 		bne	.L632
 5071              		.loc 1 2280 0
 5072 00a4 EE6B     		ldr	r6, [r5, #60]
 5073 00a6 3378     		ldrb	r3, [r6]	@ zero_extendqisi2
ARM GAS  /tmp/ccWRkTKh.s 			page 90


 5074              	.LVL707:
 5075              		.loc 1 2281 0
 5076 00a8 002B     		cmp	r3, #0
 5077 00aa 7DD0     		beq	.L607
 5078              		.loc 1 2283 0
 5079 00ac F17A     		ldrb	r1, [r6, #11]	@ zero_extendqisi2
 5080              		.loc 1 2284 0
 5081 00ae E52B     		cmp	r3, #229
 5082              		.loc 1 2283 0
 5083 00b0 01F03F02 		and	r2, r1, #63
 5084              	.LVL708:
 5085 00b4 AA71     		strb	r2, [r5, #6]
 5086              		.loc 1 2284 0
 5087 00b6 6BD0     		beq	.L602
 5088              		.loc 1 2284 0 is_stmt 0 discriminator 1
 5089 00b8 0907     		lsls	r1, r1, #28
 5090 00ba 02D5     		bpl	.L590
 5091              		.loc 1 2284 0 discriminator 2
 5092 00bc 0F2A     		cmp	r2, #15
 5093 00be 67D1     		bne	.L602
 5094 00c0 01E0     		b	.L591
 5095              	.L590:
 5096              		.loc 1 2287 0 is_stmt 1
 5097 00c2 0F2A     		cmp	r2, #15
 5098 00c4 53D1     		bne	.L593
 5099              	.L591:
 5100              		.loc 1 2288 0
 5101 00c6 95F84B20 		ldrb	r2, [r5, #75]	@ zero_extendqisi2
 5102              	.LVL709:
 5103 00ca 5706     		lsls	r7, r2, #25
 5104 00cc 64D4     		bmi	.L592
 5105              		.loc 1 2289 0
 5106 00ce 5806     		lsls	r0, r3, #25
 5107              	.LVL710:
 5108 00d0 06D5     		bpl	.L594
 5109              		.loc 1 2291 0
 5110 00d2 03F0BF04 		and	r4, r3, #191
 5111              	.LVL711:
 5112              		.loc 1 2292 0
 5113 00d6 2B6B     		ldr	r3, [r5, #48]
 5114              	.LVL712:
 5115              		.loc 1 2290 0
 5116 00d8 96F80D90 		ldrb	r9, [r6, #13]	@ zero_extendqisi2
 5117              	.LVL713:
 5118              		.loc 1 2292 0
 5119 00dc EB64     		str	r3, [r5, #76]
 5120 00de 01E0     		b	.L595
 5121              	.LVL714:
 5122              	.L594:
 5123              		.loc 1 2295 0
 5124 00e0 A342     		cmp	r3, r4
 5125 00e2 58D1     		bne	.L609
 5126              	.LVL715:
 5127              	.L595:
 5128              		.loc 1 2295 0 is_stmt 0 discriminator 1
 5129 00e4 737B     		ldrb	r3, [r6, #13]	@ zero_extendqisi2
 5130 00e6 4B45     		cmp	r3, r9
ARM GAS  /tmp/ccWRkTKh.s 			page 91


 5131 00e8 55D1     		bne	.L609
 5132              	.LBB270:
 5133              	.LBB271:
 5134              	.LBB272:
 5135              	.LBB273:
 5136              		.loc 1 553 0 is_stmt 1 discriminator 3
 5137 00ea F77E     		ldrb	r7, [r6, #27]	@ zero_extendqisi2
 5138 00ec B37E     		ldrb	r3, [r6, #26]	@ zero_extendqisi2
 5139              	.LBE273:
 5140              	.LBE272:
 5141              	.LBE271:
 5142              	.LBE270:
 5143              		.loc 1 2295 0 discriminator 3
 5144 00ee D8F80CA0 		ldr	r10, [r8, #12]
 5145              	.LVL716:
 5146              	.LBB283:
 5147              	.LBB282:
 5148              	.LBB275:
 5149              	.LBB274:
 5150              		.loc 1 553 0 discriminator 3
 5151 00f2 43EA0727 		orr	r7, r3, r7, lsl #8
 5152              	.LBE274:
 5153              	.LBE275:
 5154              		.loc 1 1722 0 discriminator 3
 5155 00f6 3FB2     		sxth	r7, r7
 5156 00f8 002F     		cmp	r7, #0
 5157 00fa 4CD1     		bne	.L609
 5158              		.loc 1 1724 0
 5159 00fc 96F800B0 		ldrb	fp, [r6]	@ zero_extendqisi2
 5160 0100 0BF03F0B 		and	fp, fp, #63
 5161 0104 0BF1FF33 		add	r3, fp, #-1
 5162 0108 4FF00D0B 		mov	fp, #13
 5163 010c 0BFB03FB 		mul	fp, fp, r3
 5164              	.LVL717:
 5165              		.loc 1 1726 0
 5166 0110 0122     		movs	r2, #1
 5167              	.LVL718:
 5168              	.L599:
 5169              		.loc 1 1727 0
 5170 0112 2E4B     		ldr	r3, .L634
 5171 0114 F95C     		ldrb	r1, [r7, r3]	@ zero_extendqisi2
 5172 0116 7318     		adds	r3, r6, r1
 5173              	.LVL719:
 5174              	.LBB276:
 5175              	.LBB277:
 5176              		.loc 1 553 0
 5177 0118 5878     		ldrb	r0, [r3, #1]	@ zero_extendqisi2
 5178 011a 735C     		ldrb	r3, [r6, r1]	@ zero_extendqisi2
 5179              	.LVL720:
 5180 011c 43EA0023 		orr	r3, r3, r0, lsl #8
 5181              	.LVL721:
 5182              	.LBE277:
 5183              	.LBE276:
 5184              		.loc 1 1728 0
 5185 0120 B2B1     		cbz	r2, .L597
 5186              		.loc 1 1729 0
 5187 0122 BBF1FE0F 		cmp	fp, #254
ARM GAS  /tmp/ccWRkTKh.s 			page 92


 5188 0126 36D8     		bhi	.L609
 5189 0128 1846     		mov	r0, r3
 5190 012a 0393     		str	r3, [sp, #12]
 5191 012c FFF7FEFF 		bl	ff_wtoupper
 5192              	.LVL722:
 5193 0130 0BF10101 		add	r1, fp, #1
 5194 0134 0290     		str	r0, [sp, #8]
 5195 0136 3AF81B00 		ldrh	r0, [r10, fp, lsl #1]
 5196 013a 0191     		str	r1, [sp, #4]
 5197              	.LVL723:
 5198 013c FFF7FEFF 		bl	ff_wtoupper
 5199              	.LVL724:
 5200 0140 029A     		ldr	r2, [sp, #8]
 5201 0142 8242     		cmp	r2, r0
 5202 0144 27D1     		bne	.L609
 5203              	.LVL725:
 5204              	.LBB280:
 5205              	.LBB278:
 5206              		.loc 1 553 0
 5207 0146 039B     		ldr	r3, [sp, #12]
 5208              	.LBE278:
 5209              	.LBE280:
 5210              		.loc 1 1729 0
 5211 0148 0199     		ldr	r1, [sp, #4]
 5212              	.LBB281:
 5213              	.LBB279:
 5214              		.loc 1 553 0
 5215 014a 1A46     		mov	r2, r3
 5216              	.LBE279:
 5217              	.LBE281:
 5218              		.loc 1 1729 0
 5219 014c 8B46     		mov	fp, r1
 5220 014e 03E0     		b	.L598
 5221              	.LVL726:
 5222              	.L597:
 5223              		.loc 1 1734 0
 5224 0150 4FF6FF71 		movw	r1, #65535
 5225              	.LVL727:
 5226 0154 8B42     		cmp	r3, r1
 5227 0156 1ED1     		bne	.L609
 5228              	.LVL728:
 5229              	.L598:
 5230              		.loc 1 1726 0
 5231 0158 0137     		adds	r7, r7, #1
 5232              	.LVL729:
 5233 015a 0D2F     		cmp	r7, #13
 5234 015c D9D1     		bne	.L599
 5235              		.loc 1 1738 0
 5236 015e 3378     		ldrb	r3, [r6]	@ zero_extendqisi2
 5237 0160 5906     		lsls	r1, r3, #25
 5238 0162 2DD5     		bpl	.L600
 5239 0164 62B3     		cbz	r2, .L600
 5240 0166 3AF81B30 		ldrh	r3, [r10, fp, lsl #1]
 5241 016a 4BB3     		cbz	r3, .L600
 5242 016c 13E0     		b	.L609
 5243              	.LVL730:
 5244              	.L593:
ARM GAS  /tmp/ccWRkTKh.s 			page 93


 5245              	.LBE282:
 5246              	.LBE283:
 5247              		.loc 1 2298 0
 5248 016e 24B9     		cbnz	r4, .L601
 5249              		.loc 1 2298 0 is_stmt 0 discriminator 1
 5250 0170 3046     		mov	r0, r6
 5251              	.LVL731:
 5252 0172 FFF7FEFF 		bl	sum_sfn
 5253              	.LVL732:
 5254 0176 8145     		cmp	r9, r0
 5255 0178 20D0     		beq	.L610
 5256              	.L601:
 5257              		.loc 1 2299 0 is_stmt 1
 5258 017a 95F84B30 		ldrb	r3, [r5, #75]	@ zero_extendqisi2
 5259 017e DB07     		lsls	r3, r3, #31
 5260 0180 06D4     		bmi	.L602
 5261              		.loc 1 2299 0 is_stmt 0 discriminator 1
 5262 0182 3046     		mov	r0, r6
 5263 0184 05F14001 		add	r1, r5, #64
 5264 0188 0B22     		movs	r2, #11
 5265 018a FFF7FEFF 		bl	mem_cmp
 5266              	.LVL733:
 5267 018e D0B1     		cbz	r0, .L632
 5268              	.L602:
 5269              	.LVL734:
 5270              		.loc 1 2300 0 is_stmt 1
 5271 0190 4FF0FF33 		mov	r3, #-1
 5272 0194 EB64     		str	r3, [r5, #76]
 5273              	.LVL735:
 5274              	.L609:
 5275              		.loc 1 2295 0
 5276 0196 FF24     		movs	r4, #255
 5277              	.L592:
 5278              	.LVL736:
 5279              		.loc 1 2307 0
 5280 0198 2846     		mov	r0, r5
 5281 019a 0021     		movs	r1, #0
 5282 019c FFF7FEFF 		bl	dir_next
 5283              	.LVL737:
 5284              		.loc 1 2308 0
 5285 01a0 0028     		cmp	r0, #0
 5286 01a2 3FF478AF 		beq	.L603
 5287 01a6 0EE0     		b	.L632
 5288              	.LVL738:
 5289              	.L607:
 5290              		.loc 1 2281 0
 5291 01a8 0420     		movs	r0, #4
 5292              	.LVL739:
 5293 01aa 0CE0     		b	.L632
 5294              	.LVL740:
 5295              	.L633:
 5296              	.LBB284:
 5297              		.loc 1 2268 0
 5298 01ac 36B2     		sxth	r6, r6
 5299              	.LVL741:
 5300 01ae D8F80C30 		ldr	r3, [r8, #12]
 5301 01b2 33F81630 		ldrh	r3, [r3, r6, lsl #1]
ARM GAS  /tmp/ccWRkTKh.s 			page 94


 5302 01b6 002B     		cmp	r3, #0
 5303 01b8 7FF437AF 		bne	.L582
 5304              	.LVL742:
 5305              	.L610:
 5306              	.LBE284:
 5307 01bc 2046     		mov	r0, r4
 5308 01be 02E0     		b	.L632
 5309              	.LVL743:
 5310              	.L600:
 5311              		.loc 1 2295 0
 5312 01c0 013C     		subs	r4, r4, #1
 5313              	.LVL744:
 5314 01c2 E4B2     		uxtb	r4, r4
 5315 01c4 E8E7     		b	.L592
 5316              	.LVL745:
 5317              	.L632:
 5318              		.loc 1 2311 0
 5319 01c6 05B0     		add	sp, sp, #20
 5320              		.cfi_def_cfa_offset 36
 5321              		@ sp needed
 5322 01c8 BDE8F08F 		pop	{r4, r5, r6, r7, r8, r9, r10, fp, pc}
 5323              	.LVL746:
 5324              	.L635:
 5325              		.align	2
 5326              	.L634:
 5327 01cc 00000000 		.word	.LANCHOR2
 5328              		.cfi_endproc
 5329              	.LFE335:
 5330              		.size	dir_find, .-dir_find
 5331              		.section	.text.dir_register,"ax",%progbits
 5332              		.align	1
 5333              		.thumb
 5334              		.thumb_func
 5335              		.type	dir_register, %function
 5336              	dir_register:
 5337              	.LFB336:
 5338              		.loc 1 2325 0
 5339              		.cfi_startproc
 5340              		@ args = 0, pretend = 0, frame = 88
 5341              		@ frame_needed = 0, uses_anonymous_args = 0
 5342              	.LVL747:
 5343 0000 2DE9F047 		push	{r4, r5, r6, r7, r8, r9, r10, lr}
 5344              		.cfi_def_cfa_offset 32
 5345              		.cfi_offset 4, -32
 5346              		.cfi_offset 5, -28
 5347              		.cfi_offset 6, -24
 5348              		.cfi_offset 7, -20
 5349              		.cfi_offset 8, -16
 5350              		.cfi_offset 9, -12
 5351              		.cfi_offset 10, -8
 5352              		.cfi_offset 14, -4
 5353              		.loc 1 2333 0
 5354 0004 90F84B40 		ldrb	r4, [r0, #75]	@ zero_extendqisi2
 5355              		.loc 1 2327 0
 5356 0008 0568     		ldr	r5, [r0]
 5357              	.LVL748:
 5358              		.loc 1 2333 0
ARM GAS  /tmp/ccWRkTKh.s 			page 95


 5359 000a 14F0A004 		ands	r4, r4, #160
 5360              		.loc 1 2325 0
 5361 000e 96B0     		sub	sp, sp, #88
 5362              		.cfi_def_cfa_offset 120
 5363              		.loc 1 2325 0
 5364 0010 0646     		mov	r6, r0
 5365              		.loc 1 2333 0
 5366 0012 40F06D81 		bne	.L674
 5367              		.loc 1 2334 0
 5368 0016 EA68     		ldr	r2, [r5, #12]
 5369              	.L638:
 5370              	.LVL749:
 5371              		.loc 1 2334 0 is_stmt 0 discriminator 1
 5372 0018 32F81430 		ldrh	r3, [r2, r4, lsl #1]
 5373 001c 0BB1     		cbz	r3, .L716
 5374              		.loc 1 2334 0 discriminator 3
 5375 001e 0134     		adds	r4, r4, #1
 5376              	.LVL750:
 5377 0020 FAE7     		b	.L638
 5378              	.L716:
 5379              		.loc 1 2337 0 is_stmt 1
 5380 0022 2B78     		ldrb	r3, [r5]	@ zero_extendqisi2
 5381 0024 042B     		cmp	r3, #4
 5382 0026 40F08B80 		bne	.L640
 5383              		.loc 1 2338 0
 5384 002a 0E34     		adds	r4, r4, #14
 5385              	.LVL751:
 5386 002c 0F23     		movs	r3, #15
 5387              		.loc 1 2339 0
 5388 002e 3046     		mov	r0, r6
 5389              	.LVL752:
 5390              		.loc 1 2338 0
 5391 0030 B4FBF3F4 		udiv	r4, r4, r3
 5392              	.LVL753:
 5393              		.loc 1 2339 0
 5394 0034 A11C     		adds	r1, r4, #2
 5395              	.LVL754:
 5396 0036 FFF7FEFF 		bl	dir_alloc
 5397              	.LVL755:
 5398              		.loc 1 2340 0
 5399 003a 0028     		cmp	r0, #0
 5400 003c 40F07381 		bne	.L713
 5401              		.loc 1 2341 0
 5402 0040 336B     		ldr	r3, [r6, #48]
 5403 0042 04F10064 		add	r4, r4, #134217728
 5404              	.LVL756:
 5405 0046 0134     		adds	r4, r4, #1
 5406              	.LVL757:
 5407 0048 A3EB4414 		sub	r4, r3, r4, lsl #5
 5408              	.LVL758:
 5409              		.loc 1 2343 0
 5410 004c F379     		ldrb	r3, [r6, #7]	@ zero_extendqisi2
 5411              		.loc 1 2341 0
 5412 004e F464     		str	r4, [r6, #76]
 5413              		.loc 1 2343 0
 5414 0050 5F07     		lsls	r7, r3, #29
 5415 0052 39D5     		bpl	.L643
ARM GAS  /tmp/ccWRkTKh.s 			page 96


 5416              		.loc 1 2344 0
 5417 0054 23F00403 		bic	r3, r3, #4
 5418 0058 F371     		strb	r3, [r6, #7]
 5419              		.loc 1 2345 0
 5420 005a 3046     		mov	r0, r6
 5421              	.LVL759:
 5422 005c FFF7FEFF 		bl	fill_first_frag
 5423              	.LVL760:
 5424              		.loc 1 2346 0
 5425 0060 0028     		cmp	r0, #0
 5426 0062 40F06081 		bne	.L713
 5427              		.loc 1 2347 0
 5428 0066 3046     		mov	r0, r6
 5429              	.LVL761:
 5430 0068 716B     		ldr	r1, [r6, #52]
 5431 006a 4FF0FF32 		mov	r2, #-1
 5432 006e FFF7FEFF 		bl	fill_last_frag
 5433              	.LVL762:
 5434              		.loc 1 2348 0
 5435 0072 0028     		cmp	r0, #0
 5436 0074 40F05781 		bne	.L713
 5437              		.loc 1 2349 0
 5438 0078 B368     		ldr	r3, [r6, #8]
 5439 007a 2BB3     		cbz	r3, .L643
 5440              	.LBB306:
 5441              		.loc 1 2352 0
 5442 007c 02A8     		add	r0, sp, #8
 5443              	.LVL763:
 5444 007e 3146     		mov	r1, r6
 5445 0080 FFF7FEFF 		bl	load_obj_xdir
 5446              	.LVL764:
 5447              		.loc 1 2353 0
 5448 0084 0028     		cmp	r0, #0
 5449 0086 40F04E81 		bne	.L713
 5450              		.loc 1 2354 0
 5451 008a D6E90423 		ldrd	r2, [r6, #16]
 5452 008e 6889     		ldrh	r0, [r5, #10]
 5453              	.LVL765:
 5454 0090 4FF40071 		mov	r1, #512
 5455 0094 E1FB0023 		umlal	r2, r3, r1, r0
 5456              		.loc 1 2355 0
 5457 0098 2869     		ldr	r0, [r5, #16]
 5458              		.loc 1 2354 0
 5459 009a C6E90423 		strd	r2, [r6, #16]
 5460              		.loc 1 2355 0
 5461 009e 3830     		adds	r0, r0, #56
 5462 00a0 FFF7FEFF 		bl	st_qword
 5463              	.LVL766:
 5464              		.loc 1 2356 0
 5465 00a4 2869     		ldr	r0, [r5, #16]
 5466 00a6 D6E90423 		ldrd	r2, [r6, #16]
 5467 00aa 2830     		adds	r0, r0, #40
 5468 00ac FFF7FEFF 		bl	st_qword
 5469              	.LVL767:
 5470              		.loc 1 2357 0
 5471 00b0 F379     		ldrb	r3, [r6, #7]	@ zero_extendqisi2
 5472 00b2 2A69     		ldr	r2, [r5, #16]
ARM GAS  /tmp/ccWRkTKh.s 			page 97


 5473 00b4 43F00103 		orr	r3, r3, #1
 5474 00b8 82F82130 		strb	r3, [r2, #33]
 5475              		.loc 1 2358 0
 5476 00bc 02A8     		add	r0, sp, #8
 5477 00be FFF7FEFF 		bl	store_xdir
 5478              	.LVL768:
 5479              		.loc 1 2359 0
 5480 00c2 0028     		cmp	r0, #0
 5481 00c4 40F02F81 		bne	.L713
 5482              	.L643:
 5483              	.LBE306:
 5484              		.loc 1 2363 0
 5485 00c8 2E69     		ldr	r6, [r5, #16]
 5486              	.LVL769:
 5487 00ca ED68     		ldr	r5, [r5, #12]
 5488              	.LVL770:
 5489              	.LBB307:
 5490              	.LBB308:
 5491              		.loc 1 2129 0
 5492 00cc 3046     		mov	r0, r6
 5493              	.LVL771:
 5494 00ce 0021     		movs	r1, #0
 5495 00d0 4022     		movs	r2, #64
 5496 00d2 FFF7FEFF 		bl	mem_set
 5497              	.LVL772:
 5498              		.loc 1 2130 0
 5499 00d6 8523     		movs	r3, #133
 5500 00d8 3370     		strb	r3, [r6]
 5501              		.loc 1 2131 0
 5502 00da 0020     		movs	r0, #0
 5503 00dc C023     		movs	r3, #192
 5504 00de 86F82030 		strb	r3, [r6, #32]
 5505              	.LVL773:
 5506              		.loc 1 2134 0
 5507 00e2 0121     		movs	r1, #1
 5508 00e4 0246     		mov	r2, r0
 5509 00e6 4023     		movs	r3, #64
 5510              	.LVL774:
 5511              	.L646:
 5512              		.loc 1 2136 0
 5513 00e8 5C1C     		adds	r4, r3, #1
 5514 00ea 4FF0C10E 		mov	lr, #193
 5515 00ee 06F803E0 		strb	lr, [r6, r3]
 5516 00f2 4FF0000E 		mov	lr, #0
 5517 00f6 06F804E0 		strb	lr, [r6, r4]
 5518 00fa C7B2     		uxtb	r7, r0
 5519              	.LVL775:
 5520 00fc 0233     		adds	r3, r3, #2
 5521              	.LVL776:
 5522              	.L645:
 5523              		.loc 1 2138 0
 5524 00fe 21B1     		cbz	r1, .L644
 5525 0100 35F81210 		ldrh	r1, [r5, r2, lsl #1]
 5526              	.LVL777:
 5527 0104 09B1     		cbz	r1, .L644
 5528 0106 0132     		adds	r2, r2, #1
 5529              	.LVL778:
ARM GAS  /tmp/ccWRkTKh.s 			page 98


 5530 0108 D2B2     		uxtb	r2, r2
 5531              	.LVL779:
 5532              	.L644:
 5533 010a F418     		adds	r4, r6, r3
 5534              	.LVL780:
 5535              	.LBB309:
 5536              	.LBB310:
 5537              		.loc 1 591 0
 5538 010c F154     		strb	r1, [r6, r3]
 5539              	.LVL781:
 5540 010e 4FEA112E 		lsr	lr, r1, #8
 5541              	.LBE310:
 5542              	.LBE309:
 5543              		.loc 1 2140 0
 5544 0112 0233     		adds	r3, r3, #2
 5545              	.LVL782:
 5546              	.LBB312:
 5547              	.LBB311:
 5548              		.loc 1 592 0
 5549 0114 84F801E0 		strb	lr, [r4, #1]
 5550              	.LBE311:
 5551              	.LBE312:
 5552              		.loc 1 2141 0
 5553 0118 DC06     		lsls	r4, r3, #27
 5554              	.LVL783:
 5555 011a F0D1     		bne	.L645
 5556              	.LVL784:
 5557              		.loc 1 2143 0
 5558 011c 35F81240 		ldrh	r4, [r5, r2, lsl #1]
 5559 0120 0130     		adds	r0, r0, #1
 5560              	.LVL785:
 5561 0122 002C     		cmp	r4, #0
 5562 0124 E0D1     		bne	.L646
 5563              		.loc 1 2146 0
 5564 0126 BB1C     		adds	r3, r7, #2
 5565              	.LVL786:
 5566              		.loc 1 2145 0
 5567 0128 86F82320 		strb	r2, [r6, #35]
 5568              		.loc 1 2146 0
 5569 012c 7370     		strb	r3, [r6, #1]
 5570              		.loc 1 2147 0
 5571 012e 2846     		mov	r0, r5
 5572 0130 FFF7FEFF 		bl	xname_sum
 5573              	.LVL787:
 5574              	.LBB313:
 5575              	.LBB314:
 5576              		.loc 1 591 0
 5577 0134 86F82400 		strb	r0, [r6, #36]
 5578              	.LVL788:
 5579 0138 000A     		lsrs	r0, r0, #8
 5580              	.LVL789:
 5581              		.loc 1 592 0
 5582 013a 86F82500 		strb	r0, [r6, #37]
 5583 013e F1E0     		b	.L715
 5584              	.LVL790:
 5585              	.L640:
 5586              	.LBE314:
ARM GAS  /tmp/ccWRkTKh.s 			page 99


 5587              	.LBE313:
 5588              	.LBE308:
 5589              	.LBE307:
 5590              		.loc 1 2368 0
 5591 0140 06F14007 		add	r7, r6, #64
 5592              	.LVL791:
 5593              	.LBB315:
 5594              	.LBB316:
 5595 0144 02A8     		add	r0, sp, #8
 5596              	.LVL792:
 5597 0146 3946     		mov	r1, r7
 5598 0148 0C22     		movs	r2, #12
 5599 014a FFF7FEFF 		bl	mem_cpy.part.0
 5600              	.LVL793:
 5601              	.LBE316:
 5602              	.LBE315:
 5603              		.loc 1 2369 0
 5604 014e 9DF81330 		ldrb	r3, [sp, #19]	@ zero_extendqisi2
 5605 0152 DB07     		lsls	r3, r3, #31
 5606 0154 65D5     		bpl	.L647
 5607              		.loc 1 2370 0
 5608 0156 4023     		movs	r3, #64
 5609 0158 86F84B30 		strb	r3, [r6, #75]
 5610              	.LVL794:
 5611              		.loc 1 2371 0
 5612 015c 4FF00108 		mov	r8, #1
 5613              	.LVL795:
 5614              	.L662:
 5615              	.LBB317:
 5616              	.LBB318:
 5617              	.LBB319:
 5618              	.LBB320:
 5619 0160 3846     		mov	r0, r7
 5620 0162 02A9     		add	r1, sp, #8
 5621              	.LVL796:
 5622 0164 0B22     		movs	r2, #11
 5623              	.LBE320:
 5624              	.LBE319:
 5625              	.LBE318:
 5626              	.LBE317:
 5627              		.loc 1 2372 0
 5628 0166 D5F80C90 		ldr	r9, [r5, #12]
 5629              	.LVL797:
 5630              	.LBB324:
 5631              	.LBB323:
 5632              	.LBB322:
 5633              	.LBB321:
 5634 016a FFF7FEFF 		bl	mem_cpy.part.0
 5635              	.LVL798:
 5636              	.LBE321:
 5637              	.LBE322:
 5638              		.loc 1 1840 0
 5639 016e B8F1050F 		cmp	r8, #5
 5640 0172 16D9     		bls	.L680
 5641 0174 A9F10201 		sub	r1, r9, #2
 5642 0178 4346     		mov	r3, r8
 5643              	.LVL799:
ARM GAS  /tmp/ccWRkTKh.s 			page 100


 5644              	.L649:
 5645              		.loc 1 1842 0
 5646 017a 31F8022F 		ldrh	r2, [r1, #2]!
 5647              	.LVL800:
 5648 017e 8AB1     		cbz	r2, .L648
 5649 0180 1020     		movs	r0, #16
 5650              	.L651:
 5651              	.LVL801:
 5652              		.loc 1 1845 0
 5653 0182 02F0010E 		and	lr, r2, #1
 5654 0186 0EEB4303 		add	r3, lr, r3, lsl #1
 5655              	.LVL802:
 5656              		.loc 1 1847 0
 5657 018a 13F4803F 		tst	r3, #65536
 5658 018e 1CBF     		itt	ne
 5659 0190 83F48833 		eorne	r3, r3, #69632
 5660              	.LVL803:
 5661 0194 83F02103 		eorne	r3, r3, #33
 5662              		.loc 1 1844 0
 5663 0198 0138     		subs	r0, r0, #1
 5664              	.LVL804:
 5665              		.loc 1 1846 0
 5666 019a 4FEA5202 		lsr	r2, r2, #1
 5667              	.LVL805:
 5668              		.loc 1 1844 0
 5669 019e F0D1     		bne	.L651
 5670 01a0 EBE7     		b	.L649
 5671              	.LVL806:
 5672              	.L680:
 5673              		.loc 1 1840 0
 5674 01a2 4346     		mov	r3, r8
 5675              	.LVL807:
 5676              	.L648:
 5677 01a4 0722     		movs	r2, #7
 5678              	.LVL808:
 5679              	.L654:
 5680              		.loc 1 1856 0
 5681 01a6 03F00F00 		and	r0, r3, #15
 5682 01aa 00F13001 		add	r1, r0, #48
 5683              	.LVL809:
 5684              		.loc 1 1857 0
 5685 01ae 3929     		cmp	r1, #57
 5686 01b0 88BF     		it	hi
 5687 01b2 00F13701 		addhi	r1, r0, #55
 5688              	.LVL810:
 5689              		.loc 1 1858 0
 5690 01b6 013A     		subs	r2, r2, #1
 5691              	.LVL811:
 5692 01b8 16A8     		add	r0, sp, #88
 5693 01ba 1044     		add	r0, r0, r2
 5694              		.loc 1 1860 0
 5695 01bc 1B09     		lsrs	r3, r3, #4
 5696              	.LVL812:
 5697              		.loc 1 1858 0
 5698 01be 00F8571C 		strb	r1, [r0, #-87]
 5699              		.loc 1 1860 0
 5700 01c2 F0D1     		bne	.L654
ARM GAS  /tmp/ccWRkTKh.s 			page 101


 5701              		.loc 1 1861 0
 5702 01c4 16A9     		add	r1, sp, #88
 5703              	.LVL813:
 5704 01c6 1144     		add	r1, r1, r2
 5705 01c8 7E20     		movs	r0, #126
 5706              	.LVL814:
 5707 01ca 01F8580C 		strb	r0, [r1, #-88]
 5708              	.LVL815:
 5709              	.L655:
 5710              		.loc 1 1864 0
 5711 01ce 9342     		cmp	r3, r2
 5712 01d0 01D1     		bne	.L656
 5713              	.L659:
 5714 01d2 3B44     		add	r3, r3, r7
 5715              	.LVL816:
 5716 01d4 04E0     		b	.L657
 5717              	.LVL817:
 5718              	.L656:
 5719 01d6 F95C     		ldrb	r1, [r7, r3]	@ zero_extendqisi2
 5720 01d8 2029     		cmp	r1, #32
 5721 01da FAD0     		beq	.L659
 5722              	.LVL818:
 5723 01dc 0133     		adds	r3, r3, #1
 5724              	.LVL819:
 5725 01de F6E7     		b	.L655
 5726              	.LVL820:
 5727              	.L657:
 5728              		.loc 1 1871 0
 5729 01e0 072A     		cmp	r2, #7
 5730 01e2 9BBF     		ittet	ls
 5731 01e4 16A9     		addls	r1, sp, #88
 5732 01e6 8918     		addls	r1, r1, r2
 5733 01e8 2021     		movhi	r1, #32
 5734 01ea 11F8581C 		ldrbls	r1, [r1, #-88]	@ zero_extendqisi2
 5735 01ee 03F8011B 		strb	r1, [r3], #1
 5736 01f2 A3EB0701 		sub	r1, r3, r7
 5737 01f6 98BF     		it	ls
 5738 01f8 0132     		addls	r2, r2, #1
 5739              	.LVL821:
 5740              		.loc 1 1872 0
 5741 01fa 0729     		cmp	r1, #7
 5742 01fc F0D9     		bls	.L657
 5743              	.LBE323:
 5744              	.LBE324:
 5745              		.loc 1 2373 0
 5746 01fe 3046     		mov	r0, r6
 5747 0200 FFF7FEFF 		bl	dir_find
 5748              	.LVL822:
 5749              		.loc 1 2374 0
 5750 0204 30B9     		cbnz	r0, .L661
 5751              		.loc 1 2371 0 discriminator 2
 5752 0206 08F10108 		add	r8, r8, #1
 5753              	.LVL823:
 5754 020a B8F1640F 		cmp	r8, #100
 5755 020e A7D1     		bne	.L662
 5756              		.loc 1 2376 0
 5757 0210 0720     		movs	r0, #7
ARM GAS  /tmp/ccWRkTKh.s 			page 102


 5758 0212 88E0     		b	.L713
 5759              	.LVL824:
 5760              	.L661:
 5761              		.loc 1 2377 0
 5762 0214 0428     		cmp	r0, #4
 5763 0216 40F08680 		bne	.L713
 5764              		.loc 1 2378 0
 5765 021a 9DF81330 		ldrb	r3, [sp, #19]	@ zero_extendqisi2
 5766 021e 86F84B30 		strb	r3, [r6, #75]
 5767              	.LVL825:
 5768              	.L647:
 5769              		.loc 1 2382 0
 5770 0222 9DF81330 		ldrb	r3, [sp, #19]	@ zero_extendqisi2
 5771 0226 9B07     		lsls	r3, r3, #30
 5772 0228 45BF     		ittet	mi
 5773 022a 0C34     		addmi	r4, r4, #12
 5774              	.LVL826:
 5775 022c 0D23     		movmi	r3, #13
 5776 022e 0124     		movpl	r4, #1
 5777 0230 B4FBF3F4 		udivmi	r4, r4, r3
 5778 0234 48BF     		it	mi
 5779 0236 0134     		addmi	r4, r4, #1
 5780              	.LVL827:
 5781              		.loc 1 2383 0
 5782 0238 3046     		mov	r0, r6
 5783 023a 2146     		mov	r1, r4
 5784 023c FFF7FEFF 		bl	dir_alloc
 5785              	.LVL828:
 5786              		.loc 1 2384 0
 5787 0240 0028     		cmp	r0, #0
 5788 0242 70D1     		bne	.L713
 5789              	.LVL829:
 5790              		.loc 1 2384 0 is_stmt 0 discriminator 1
 5791 0244 013C     		subs	r4, r4, #1
 5792              	.LVL830:
 5793 0246 55D0     		beq	.L665
 5794              		.loc 1 2385 0 is_stmt 1
 5795 0248 316B     		ldr	r1, [r6, #48]
 5796 024a 3046     		mov	r0, r6
 5797              	.LVL831:
 5798 024c A1EB4411 		sub	r1, r1, r4, lsl #5
 5799 0250 FFF7FEFF 		bl	dir_sdi
 5800              	.LVL832:
 5801              		.loc 1 2386 0
 5802 0254 0028     		cmp	r0, #0
 5803 0256 66D1     		bne	.L713
 5804              		.loc 1 2387 0
 5805 0258 3846     		mov	r0, r7
 5806              	.LVL833:
 5807 025a FFF7FEFF 		bl	sum_sfn
 5808              	.LVL834:
 5809 025e 8046     		mov	r8, r0
 5810              	.LVL835:
 5811              	.L671:
 5812              		.loc 1 2389 0
 5813 0260 2846     		mov	r0, r5
 5814 0262 B16B     		ldr	r1, [r6, #56]
ARM GAS  /tmp/ccWRkTKh.s 			page 103


 5815 0264 FFF7FEFF 		bl	move_window
 5816              	.LVL836:
 5817 0268 0346     		mov	r3, r0
 5818              	.LVL837:
 5819              		.loc 1 2390 0
 5820 026a 002B     		cmp	r3, #0
 5821 026c 5BD1     		bne	.L713
 5822              		.loc 1 2391 0
 5823 026e F26B     		ldr	r2, [r6, #60]
 5824 0270 D5F80CC0 		ldr	ip, [r5, #12]
 5825              	.LBB325:
 5826              	.LBB326:
 5827              		.loc 1 1798 0
 5828 0274 82F80D80 		strb	r8, [r2, #13]
 5829              		.loc 1 1799 0
 5830 0278 0F21     		movs	r1, #15
 5831              	.LBE326:
 5832              	.LBE325:
 5833              		.loc 1 2391 0
 5834 027a 5FFA84FE 		uxtb	lr, r4
 5835              	.LVL838:
 5836              	.LBB333:
 5837              	.LBB331:
 5838              		.loc 1 1803 0
 5839 027e 0D20     		movs	r0, #13
 5840              		.loc 1 1799 0
 5841 0280 D172     		strb	r1, [r2, #11]
 5842              		.loc 1 1803 0
 5843 0282 0EF1FF31 		add	r1, lr, #-1
 5844 0286 4143     		muls	r1, r0, r1
 5845              		.loc 1 1800 0
 5846 0288 1373     		strb	r3, [r2, #12]
 5847              	.LVL839:
 5848              	.LBB327:
 5849              	.LBB328:
 5850              		.loc 1 591 0
 5851 028a 9376     		strb	r3, [r2, #26]
 5852              	.LVL840:
 5853              		.loc 1 592 0
 5854 028c D376     		strb	r3, [r2, #27]
 5855              	.LBE328:
 5856              	.LBE327:
 5857              		.loc 1 1804 0
 5858 028e 1846     		mov	r0, r3
 5859              	.LVL841:
 5860              	.L668:
 5861              		.loc 1 1806 0
 5862 0290 4FF6FF79 		movw	r9, #65535
 5863 0294 4845     		cmp	r0, r9
 5864              	.LVL842:
 5865              		.loc 1 1807 0
 5866 0296 DFF89490 		ldr	r9, .L717
 5867              		.loc 1 1806 0
 5868 029a 18BF     		it	ne
 5869 029c 3CF81100 		ldrhne	r0, [ip, r1, lsl #1]
 5870              		.loc 1 1807 0
 5871 02a0 13F80990 		ldrb	r9, [r3, r9]	@ zero_extendqisi2
ARM GAS  /tmp/ccWRkTKh.s 			page 104


 5872 02a4 02EB090A 		add	r10, r2, r9
 5873              	.LBB329:
 5874              	.LBB330:
 5875              		.loc 1 591 0
 5876 02a8 02F80900 		strb	r0, [r2, r9]
 5877              	.LVL843:
 5878 02ac 4FEA1029 		lsr	r9, r0, #8
 5879              		.loc 1 592 0
 5880 02b0 8AF80190 		strb	r9, [r10, #1]
 5881              	.LBE330:
 5882              	.LBE329:
 5883              		.loc 1 1809 0
 5884 02b4 03F10103 		add	r3, r3, #1
 5885              	.LVL844:
 5886              		.loc 1 1808 0
 5887 02b8 4FF6FF79 		movw	r9, #65535
 5888              		.loc 1 1806 0
 5889 02bc 18BF     		it	ne
 5890 02be 0131     		addne	r1, r1, #1
 5891              	.LVL845:
 5892              		.loc 1 1808 0
 5893 02c0 0028     		cmp	r0, #0
 5894 02c2 08BF     		it	eq
 5895 02c4 4846     		moveq	r0, r9
 5896              	.LVL846:
 5897              		.loc 1 1809 0
 5898 02c6 0D2B     		cmp	r3, #13
 5899 02c8 E2D1     		bne	.L668
 5900              		.loc 1 1810 0
 5901 02ca 4845     		cmp	r0, r9
 5902 02cc 02D0     		beq	.L669
 5903 02ce 3CF81130 		ldrh	r3, [ip, r1, lsl #1]
 5904              	.LVL847:
 5905 02d2 0BB9     		cbnz	r3, .L670
 5906              	.L669:
 5907 02d4 4EF0400E 		orr	lr, lr, #64
 5908              	.LVL848:
 5909              	.L670:
 5910              	.LBE331:
 5911              	.LBE333:
 5912              		.loc 1 2392 0
 5913 02d8 0123     		movs	r3, #1
 5914              	.LBB334:
 5915              	.LBB332:
 5916              		.loc 1 1811 0
 5917 02da 82F800E0 		strb	lr, [r2]
 5918              	.LBE332:
 5919              	.LBE334:
 5920              		.loc 1 2393 0
 5921 02de 3046     		mov	r0, r6
 5922              		.loc 1 2392 0
 5923 02e0 EB70     		strb	r3, [r5, #3]
 5924              		.loc 1 2393 0
 5925 02e2 0021     		movs	r1, #0
 5926              	.LVL849:
 5927 02e4 FFF7FEFF 		bl	dir_next
 5928              	.LVL850:
ARM GAS  /tmp/ccWRkTKh.s 			page 105


 5929              		.loc 1 2394 0
 5930 02e8 E8B9     		cbnz	r0, .L713
 5931              	.LVL851:
 5932              		.loc 1 2394 0 is_stmt 0 discriminator 1
 5933 02ea 013C     		subs	r4, r4, #1
 5934              	.LVL852:
 5935 02ec B8D1     		bne	.L671
 5936 02ee 01E0     		b	.L665
 5937              	.LVL853:
 5938              	.L674:
 5939              		.loc 1 2333 0 is_stmt 1
 5940 02f0 0620     		movs	r0, #6
 5941              	.LVL854:
 5942 02f2 18E0     		b	.L713
 5943              	.LVL855:
 5944              	.L665:
 5945              		.loc 1 2405 0
 5946 02f4 2846     		mov	r0, r5
 5947 02f6 B16B     		ldr	r1, [r6, #56]
 5948 02f8 FFF7FEFF 		bl	move_window
 5949              	.LVL856:
 5950              		.loc 1 2406 0
 5951 02fc 0446     		mov	r4, r0
 5952              	.LVL857:
 5953 02fe 88B9     		cbnz	r0, .L715
 5954              		.loc 1 2407 0
 5955 0300 F06B     		ldr	r0, [r6, #60]
 5956              	.LVL858:
 5957 0302 2146     		mov	r1, r4
 5958 0304 2022     		movs	r2, #32
 5959 0306 FFF7FEFF 		bl	mem_set
 5960              	.LVL859:
 5961              	.LBB335:
 5962              	.LBB336:
 5963 030a 0B22     		movs	r2, #11
 5964 030c F06B     		ldr	r0, [r6, #60]
 5965 030e 3946     		mov	r1, r7
 5966 0310 FFF7FEFF 		bl	mem_cpy.part.0
 5967              	.LVL860:
 5968              	.LBE336:
 5969              	.LBE335:
 5970              		.loc 1 2410 0
 5971 0314 96F84B30 		ldrb	r3, [r6, #75]	@ zero_extendqisi2
 5972 0318 F26B     		ldr	r2, [r6, #60]
 5973 031a 03F01803 		and	r3, r3, #24
 5974 031e 1373     		strb	r3, [r2, #12]
 5975              		.loc 1 2412 0
 5976 0320 0123     		movs	r3, #1
 5977 0322 EB70     		strb	r3, [r5, #3]
 5978              	.LVL861:
 5979              	.L715:
 5980 0324 2046     		mov	r0, r4
 5981              	.L713:
 5982              		.loc 1 2417 0
 5983 0326 16B0     		add	sp, sp, #88
 5984              		.cfi_def_cfa_offset 32
 5985              		@ sp needed
ARM GAS  /tmp/ccWRkTKh.s 			page 106


 5986 0328 BDE8F087 		pop	{r4, r5, r6, r7, r8, r9, r10, pc}
 5987              	.L718:
 5988              		.align	2
 5989              	.L717:
 5990 032c 00000000 		.word	.LANCHOR2
 5991              		.cfi_endproc
 5992              	.LFE336:
 5993              		.size	dir_register, .-dir_register
 5994              		.section	.text.follow_path,"ax",%progbits
 5995              		.align	1
 5996              		.thumb
 5997              		.thumb_func
 5998              		.type	follow_path, %function
 5999              	follow_path:
 6000              	.LFB340:
 6001              		.loc 1 2864 0
 6002              		.cfi_startproc
 6003              		@ args = 0, pretend = 0, frame = 96
 6004              		@ frame_needed = 0, uses_anonymous_args = 0
 6005              	.LVL862:
 6006 0000 2DE9F04F 		push	{r4, r5, r6, r7, r8, r9, r10, fp, lr}
 6007              		.cfi_def_cfa_offset 36
 6008              		.cfi_offset 4, -36
 6009              		.cfi_offset 5, -32
 6010              		.cfi_offset 6, -28
 6011              		.cfi_offset 7, -24
 6012              		.cfi_offset 8, -20
 6013              		.cfi_offset 9, -16
 6014              		.cfi_offset 10, -12
 6015              		.cfi_offset 11, -8
 6016              		.cfi_offset 14, -4
 6017              		.loc 1 2871 0
 6018 0004 0B78     		ldrb	r3, [r1]	@ zero_extendqisi2
 6019              		.loc 1 2867 0
 6020 0006 D0F800A0 		ldr	r10, [r0]
 6021              	.LVL863:
 6022              		.loc 1 2871 0
 6023 000a 2F2B     		cmp	r3, #47
 6024              		.loc 1 2864 0
 6025 000c 99B0     		sub	sp, sp, #100
 6026              		.cfi_def_cfa_offset 136
 6027              		.loc 1 2864 0
 6028 000e 0546     		mov	r5, r0
 6029 0010 8946     		mov	r9, r1
 6030              		.loc 1 2871 0
 6031 0012 01D0     		beq	.L720
 6032              		.loc 1 2871 0 is_stmt 0 discriminator 1
 6033 0014 5C2B     		cmp	r3, #92
 6034 0016 01D1     		bne	.L721
 6035              	.L720:
 6036 0018 4A46     		mov	r2, r9
 6037 001a 02E0     		b	.L722
 6038              	.L721:
 6039              		.loc 1 2872 0 is_stmt 1
 6040 001c DAF82030 		ldr	r3, [r10, #32]
 6041 0020 08E0     		b	.L872
 6042              	.LVL864:
ARM GAS  /tmp/ccWRkTKh.s 			page 107


 6043              	.L722:
 6044              		.loc 1 2876 0 discriminator 1
 6045 0022 1378     		ldrb	r3, [r2]	@ zero_extendqisi2
 6046 0024 2F2B     		cmp	r3, #47
 6047 0026 9146     		mov	r9, r2
 6048              	.LVL865:
 6049 0028 02F10102 		add	r2, r2, #1
 6050              	.LVL866:
 6051 002c F9D0     		beq	.L722
 6052              		.loc 1 2876 0 is_stmt 0 discriminator 3
 6053 002e 5C2B     		cmp	r3, #92
 6054 0030 F7D0     		beq	.L722
 6055              		.loc 1 2877 0 is_stmt 1
 6056 0032 0023     		movs	r3, #0
 6057              	.L872:
 6058 0034 AB60     		str	r3, [r5, #8]
 6059              		.loc 1 2880 0
 6060 0036 0023     		movs	r3, #0
 6061 0038 EB61     		str	r3, [r5, #28]
 6062              		.loc 1 2882 0
 6063 003a 9AF80030 		ldrb	r3, [r10]	@ zero_extendqisi2
 6064 003e 042B     		cmp	r3, #4
 6065 0040 1FD1     		bne	.L725
 6066              		.loc 1 2882 0 is_stmt 0 discriminator 1
 6067 0042 AB68     		ldr	r3, [r5, #8]
 6068 0044 EBB1     		cbz	r3, .L725
 6069              	.LBB344:
 6070              		.loc 1 2885 0 is_stmt 1
 6071 0046 DAF82430 		ldr	r3, [r10, #36]
 6072 004a 2B62     		str	r3, [r5, #32]
 6073              		.loc 1 2886 0
 6074 004c DAF82830 		ldr	r3, [r10, #40]
 6075 0050 6B62     		str	r3, [r5, #36]
 6076              		.loc 1 2887 0
 6077 0052 DAF82C30 		ldr	r3, [r10, #44]
 6078 0056 AB62     		str	r3, [r5, #40]
 6079              		.loc 1 2888 0
 6080 0058 04A8     		add	r0, sp, #16
 6081              	.LVL867:
 6082 005a 2946     		mov	r1, r5
 6083 005c FFF7FEFF 		bl	load_obj_xdir
 6084              	.LVL868:
 6085              		.loc 1 2889 0
 6086 0060 0446     		mov	r4, r0
 6087 0062 0028     		cmp	r0, #0
 6088 0064 40F09F81 		bne	.L868
 6089              		.loc 1 2890 0
 6090 0068 DAF81060 		ldr	r6, [r10, #16]
 6091 006c 06F13800 		add	r0, r6, #56
 6092              	.LVL869:
 6093 0070 FFF7FEFF 		bl	ld_dword
 6094              	.LVL870:
 6095 0074 6C61     		str	r4, [r5, #20]
 6096 0076 2861     		str	r0, [r5, #16]
 6097              		.loc 1 2891 0
 6098 0078 96F82130 		ldrb	r3, [r6, #33]	@ zero_extendqisi2
 6099 007c 03F00203 		and	r3, r3, #2
ARM GAS  /tmp/ccWRkTKh.s 			page 108


 6100 0080 EB71     		strb	r3, [r5, #7]
 6101              	.L725:
 6102              	.LBE344:
 6103              		.loc 1 2896 0
 6104 0082 99F80030 		ldrb	r3, [r9]	@ zero_extendqisi2
 6105 0086 1F2B     		cmp	r3, #31
 6106 0088 74D8     		bhi	.L729
 6107              		.loc 1 2897 0
 6108 008a 8023     		movs	r3, #128
 6109 008c 85F84B30 		strb	r3, [r5, #75]
 6110              		.loc 1 2898 0
 6111 0090 2846     		mov	r0, r5
 6112 0092 0021     		movs	r1, #0
 6113 0094 FFF7FEFF 		bl	dir_sdi
 6114              	.LVL871:
 6115 0098 85E1     		b	.L868
 6116              	.LVL872:
 6117              	.L876:
 6118              	.LBB345:
 6119              	.LBB346:
 6120              		.loc 1 2671 0
 6121 009a 2F28     		cmp	r0, #47
 6122 009c 73D0     		beq	.L731
 6123 009e 5C28     		cmp	r0, #92
 6124 00a0 71D0     		beq	.L731
 6125              		.loc 1 2675 0
 6126 00a2 B4F5807F 		cmp	r4, #256
 6127 00a6 00F06E81 		beq	.L735
 6128              	.LVL873:
 6129              		.loc 1 2683 0
 6130 00aa 40F25231 		movw	r1, #850
 6131 00ae FFF7FEFF 		bl	ff_oem2uni
 6132              	.LVL874:
 6133              		.loc 1 2684 0
 6134 00b2 0028     		cmp	r0, #0
 6135 00b4 00F06781 		beq	.L735
 6136              		.loc 1 2686 0
 6137 00b8 7F28     		cmp	r0, #127
 6138 00ba 04D8     		bhi	.L736
 6139              	.LVL875:
 6140 00bc BB4A     		ldr	r2, .L880
 6141              	.LVL876:
 6142              	.L737:
 6143              	.LBB347:
 6144              	.LBB348:
 6145              		.loc 1 672 0
 6146 00be 12F8013F 		ldrb	r3, [r2, #1]!	@ zero_extendqisi2
 6147              	.LVL877:
 6148 00c2 002B     		cmp	r3, #0
 6149 00c4 6AD1     		bne	.L875
 6150              	.LVL878:
 6151              	.L736:
 6152              	.LBE348:
 6153              	.LBE347:
 6154              		.loc 1 2687 0
 6155 00c6 27F8020F 		strh	r0, [r7, #2]!	@ movhi
 6156 00ca 2646     		mov	r6, r4
ARM GAS  /tmp/ccWRkTKh.s 			page 109


 6157              	.LVL879:
 6158              	.L738:
 6159              		.loc 1 2669 0
 6160 00cc 18F8010F 		ldrb	r0, [r8, #1]!	@ zero_extendqisi2
 6161              		.loc 1 2670 0
 6162 00d0 1F28     		cmp	r0, #31
 6163              		.loc 1 2669 0
 6164 00d2 06F10104 		add	r4, r6, #1
 6165              	.LVL880:
 6166              		.loc 1 2670 0
 6167 00d6 E0D8     		bhi	.L876
 6168              	.L730:
 6169              		.loc 1 2690 0
 6170 00d8 2028     		cmp	r0, #32
 6171              		.loc 1 2689 0
 6172 00da A144     		add	r9, r9, r4
 6173              	.LVL881:
 6174              		.loc 1 2690 0
 6175 00dc 34BF     		ite	cc
 6176 00de 0424     		movcc	r4, #4
 6177              	.LVL882:
 6178 00e0 0024     		movcs	r4, #0
 6179              	.LVL883:
 6180              		.loc 1 2692 0
 6181 00e2 012E     		cmp	r6, #1
 6182 00e4 5DD1     		bne	.L740
 6183              	.L743:
 6184              		.loc 1 2693 0
 6185 00e6 BBF80030 		ldrh	r3, [fp]
 6186 00ea 2E2B     		cmp	r3, #46
 6187 00ec 5FD1     		bne	.L742
 6188              		.loc 1 2694 0
 6189 00ee 0023     		movs	r3, #0
 6190 00f0 2BF81630 		strh	r3, [fp, r6, lsl #1]	@ movhi
 6191              	.LVL884:
 6192 00f4 05F13F02 		add	r2, r5, #63
 6193              	.LVL885:
 6194              	.L746:
 6195              		.loc 1 2696 0
 6196 00f8 B342     		cmp	r3, r6
 6197 00fa 34BF     		ite	cc
 6198 00fc 2E21     		movcc	r1, #46
 6199 00fe 2021     		movcs	r1, #32
 6200              		.loc 1 2695 0
 6201 0100 0133     		adds	r3, r3, #1
 6202              	.LVL886:
 6203 0102 0B2B     		cmp	r3, #11
 6204              		.loc 1 2696 0
 6205 0104 02F8011F 		strb	r1, [r2, #1]!
 6206              		.loc 1 2695 0
 6207 0108 F6D1     		bne	.L746
 6208              		.loc 1 2697 0
 6209 010a 44F02004 		orr	r4, r4, #32
 6210              	.LVL887:
 6211              	.L780:
 6212              		.loc 1 2783 0
 6213 010e 85F84B40 		strb	r4, [r5, #75]
ARM GAS  /tmp/ccWRkTKh.s 			page 110


 6214              	.LBE346:
 6215              	.LBE345:
 6216              		.loc 1 2904 0
 6217 0112 2846     		mov	r0, r5
 6218              	.LVL888:
 6219 0114 FFF7FEFF 		bl	dir_find
 6220              	.LVL889:
 6221              		.loc 1 2905 0
 6222 0118 95F84B30 		ldrb	r3, [r5, #75]	@ zero_extendqisi2
 6223              	.LVL890:
 6224              		.loc 1 2906 0
 6225 011c 0028     		cmp	r0, #0
 6226 011e 40F01381 		bne	.L785
 6227              		.loc 1 2918 0
 6228 0122 5A07     		lsls	r2, r3, #29
 6229 0124 00F13F81 		bmi	.L868
 6230              		.loc 1 2920 0
 6231 0128 AB79     		ldrb	r3, [r5, #6]	@ zero_extendqisi2
 6232              	.LVL891:
 6233 012a DB06     		lsls	r3, r3, #27
 6234 012c 40F12981 		bpl	.L797
 6235              		.loc 1 2924 0
 6236 0130 9AF80000 		ldrb	r0, [r10]	@ zero_extendqisi2
 6237              	.LVL892:
 6238 0134 0428     		cmp	r0, #4
 6239 0136 40F01B81 		bne	.L784
 6240              		.loc 1 2925 0
 6241 013a AB68     		ldr	r3, [r5, #8]
 6242 013c 2B62     		str	r3, [r5, #32]
 6243              		.loc 1 2926 0
 6244 013e 2B69     		ldr	r3, [r5, #16]
 6245              		.loc 1 2928 0
 6246 0140 DAF81040 		ldr	r4, [r10, #16]
 6247              	.LVL893:
 6248              		.loc 1 2926 0
 6249 0144 23F0FF02 		bic	r2, r3, #255
 6250 0148 EB79     		ldrb	r3, [r5, #7]	@ zero_extendqisi2
 6251 014a 1343     		orrs	r3, r3, r2
 6252 014c 6B62     		str	r3, [r5, #36]
 6253              		.loc 1 2927 0
 6254 014e EB6C     		ldr	r3, [r5, #76]
 6255 0150 AB62     		str	r3, [r5, #40]
 6256              		.loc 1 2928 0
 6257 0152 04F13400 		add	r0, r4, #52
 6258 0156 FFF7FEFF 		bl	ld_dword
 6259              	.LVL894:
 6260 015a A860     		str	r0, [r5, #8]
 6261              		.loc 1 2929 0
 6262 015c 94F82130 		ldrb	r3, [r4, #33]	@ zero_extendqisi2
 6263 0160 03F00203 		and	r3, r3, #2
 6264 0164 EB71     		strb	r3, [r5, #7]
 6265              		.loc 1 2930 0
 6266 0166 DAF81000 		ldr	r0, [r10, #16]
 6267 016a 3830     		adds	r0, r0, #56
 6268 016c FFF7FEFF 		bl	ld_qword
 6269              	.LVL895:
 6270 0170 C5E90401 		strd	r0, [r5, #16]
ARM GAS  /tmp/ccWRkTKh.s 			page 111


 6271              	.LVL896:
 6272              	.L729:
 6273              	.LBB355:
 6274              	.LBB353:
 6275              		.loc 1 2667 0
 6276 0174 2B68     		ldr	r3, [r5]
 6277 0176 D3F80CB0 		ldr	fp, [r3, #12]
 6278              	.LVL897:
 6279 017a 09F1FF38 		add	r8, r9, #-1
 6280 017e ABF10207 		sub	r7, fp, #2
 6281 0182 0026     		movs	r6, #0
 6282 0184 A2E7     		b	.L738
 6283              	.LVL898:
 6284              	.L731:
 6285 0186 09EB0403 		add	r3, r9, r4
 6286              	.L733:
 6287 018a C9EB0304 		rsb	r4, r9, r3
 6288              	.LVL899:
 6289              		.loc 1 2672 0
 6290 018e 13F8012B 		ldrb	r2, [r3], #1	@ zero_extendqisi2
 6291 0192 2F2A     		cmp	r2, #47
 6292 0194 F9D0     		beq	.L733
 6293 0196 5C2A     		cmp	r2, #92
 6294 0198 F7D0     		beq	.L733
 6295 019a 9DE7     		b	.L730
 6296              	.LVL900:
 6297              	.L875:
 6298              	.LBB350:
 6299              	.LBB349:
 6300              		.loc 1 672 0
 6301 019c 8342     		cmp	r3, r0
 6302 019e 8ED1     		bne	.L737
 6303 01a0 F1E0     		b	.L735
 6304              	.LVL901:
 6305              	.L740:
 6306              	.LBE349:
 6307              	.LBE350:
 6308              		.loc 1 2692 0
 6309 01a2 022E     		cmp	r6, #2
 6310 01a4 03D1     		bne	.L742
 6311              		.loc 1 2693 0
 6312 01a6 BBF80230 		ldrh	r3, [fp, #2]
 6313 01aa 2E2B     		cmp	r3, #46
 6314 01ac 9BD0     		beq	.L743
 6315              	.L742:
 6316 01ae 0BEB4603 		add	r3, fp, r6, lsl #1
 6317 01b2 04E0     		b	.L744
 6318              	.LVL902:
 6319              	.L750:
 6320              		.loc 1 2702 0
 6321 01b4 33F8022D 		ldrh	r2, [r3, #-2]!
 6322              	.LVL903:
 6323              		.loc 1 2703 0
 6324 01b8 202A     		cmp	r2, #32
 6325 01ba 03D1     		bne	.L877
 6326              	.L748:
 6327              		.loc 1 2704 0
ARM GAS  /tmp/ccWRkTKh.s 			page 112


 6328 01bc 013E     		subs	r6, r6, #1
 6329              	.LVL904:
 6330              	.L744:
 6331              		.loc 1 2701 0
 6332 01be 002E     		cmp	r6, #0
 6333 01c0 F8D1     		bne	.L750
 6334 01c2 01E0     		b	.L749
 6335              	.LVL905:
 6336              	.L877:
 6337              		.loc 1 2703 0
 6338 01c4 2E2A     		cmp	r2, #46
 6339 01c6 F9D0     		beq	.L748
 6340              	.LVL906:
 6341              	.L749:
 6342              		.loc 1 2706 0
 6343 01c8 0027     		movs	r7, #0
 6344 01ca 0BEB4608 		add	r8, fp, r6, lsl #1
 6345 01ce 2BF81670 		strh	r7, [fp, r6, lsl #1]	@ movhi
 6346              		.loc 1 2707 0
 6347 01d2 002E     		cmp	r6, #0
 6348 01d4 00F0D780 		beq	.L735
 6349              		.loc 1 2710 0
 6350 01d8 0B22     		movs	r2, #11
 6351 01da 05F14000 		add	r0, r5, #64
 6352 01de 2021     		movs	r1, #32
 6353 01e0 FFF7FEFF 		bl	mem_set
 6354              	.LVL907:
 6355              		.loc 1 2711 0
 6356 01e4 3A46     		mov	r2, r7
 6357              	.LVL908:
 6358              	.L751:
 6359 01e6 3BF81230 		ldrh	r3, [fp, r2, lsl #1]
 6360 01ea 202B     		cmp	r3, #32
 6361 01ec 01D1     		bne	.L878
 6362              	.L752:
 6363 01ee 0132     		adds	r2, r2, #1
 6364              	.LVL909:
 6365 01f0 F9E7     		b	.L751
 6366              	.L878:
 6367 01f2 2E2B     		cmp	r3, #46
 6368 01f4 FBD0     		beq	.L752
 6369              		.loc 1 2712 0
 6370 01f6 12B1     		cbz	r2, .L753
 6371 01f8 44F00304 		orr	r4, r4, #3
 6372              	.LVL910:
 6373 01fc E4B2     		uxtb	r4, r4
 6374              	.LVL911:
 6375              	.L753:
 6376 01fe 4346     		mov	r3, r8
 6377              	.LVL912:
 6378              	.L754:
 6379              		.loc 1 2713 0
 6380 0200 33F8021D 		ldrh	r1, [r3, #-2]!
 6381 0204 2E29     		cmp	r1, #46
 6382 0206 01D0     		beq	.L757
 6383              	.LVL913:
 6384 0208 013E     		subs	r6, r6, #1
ARM GAS  /tmp/ccWRkTKh.s 			page 113


 6385              	.LVL914:
 6386 020a F9D1     		bne	.L754
 6387              	.L757:
 6388              		.loc 1 2771 0
 6389 020c 4FF00008 		mov	r8, #0
 6390 0210 0823     		movs	r3, #8
 6391 0212 4746     		mov	r7, r8
 6392              	.LVL915:
 6393              	.L755:
 6394              		.loc 1 2717 0
 6395 0214 3BF81200 		ldrh	r0, [fp, r2, lsl #1]
 6396 0218 02F1010C 		add	ip, r2, #1
 6397              	.LVL916:
 6398              		.loc 1 2718 0
 6399 021c 0028     		cmp	r0, #0
 6400 021e 6CD0     		beq	.L793
 6401              		.loc 1 2719 0
 6402 0220 2028     		cmp	r0, #32
 6403 0222 04D0     		beq	.L759
 6404 0224 2E28     		cmp	r0, #46
 6405 0226 07D1     		bne	.L760
 6406 0228 B445     		cmp	ip, r6
 6407 022a 00F0AE80 		beq	.L761
 6408              	.L759:
 6409              		.loc 1 2720 0
 6410 022e 44F00304 		orr	r4, r4, #3
 6411              	.LVL917:
 6412 0232 E4B2     		uxtb	r4, r4
 6413              	.LVL918:
 6414              	.L762:
 6415              		.loc 1 2771 0
 6416 0234 6246     		mov	r2, ip
 6417 0236 EDE7     		b	.L755
 6418              	.LVL919:
 6419              	.L760:
 6420              		.loc 1 2724 0
 6421 0238 9845     		cmp	r8, r3
 6422 023a 02D2     		bcs	.L763
 6423 023c B445     		cmp	ip, r6
 6424 023e 15D1     		bne	.L869
 6425 0240 A3E0     		b	.L761
 6426              	.L763:
 6427              		.loc 1 2725 0
 6428 0242 0B2B     		cmp	r3, #11
 6429 0244 05D1     		bne	.L766
 6430              	.L787:
 6431              		.loc 1 2726 0
 6432 0246 44F00304 		orr	r4, r4, #3
 6433              	.LVL920:
 6434 024a E4B2     		uxtb	r4, r4
 6435              	.LVL921:
 6436 024c 3A46     		mov	r2, r7
 6437 024e 0B23     		movs	r3, #11
 6438              	.LVL922:
 6439 0250 54E0     		b	.L758
 6440              	.LVL923:
 6441              	.L766:
ARM GAS  /tmp/ccWRkTKh.s 			page 114


 6442              		.loc 1 2729 0
 6443 0252 B445     		cmp	ip, r6
 6444 0254 03D0     		beq	.L767
 6445 0256 44F00304 		orr	r4, r4, #3
 6446              	.LVL924:
 6447 025a E4B2     		uxtb	r4, r4
 6448              	.LVL925:
 6449              		.loc 1 2730 0
 6450 025c 4DD8     		bhi	.L793
 6451              	.L767:
 6452              	.LVL926:
 6453              		.loc 1 2732 0
 6454 025e BF00     		lsls	r7, r7, #2
 6455              	.LVL927:
 6456 0260 FFB2     		uxtb	r7, r7
 6457              	.LVL928:
 6458 0262 B446     		mov	ip, r6
 6459              		.loc 1 2731 0
 6460 0264 0B23     		movs	r3, #11
 6461 0266 4FF00808 		mov	r8, #8
 6462 026a E3E7     		b	.L762
 6463              	.LVL929:
 6464              	.L869:
 6465              		.loc 1 2735 0
 6466 026c 7F28     		cmp	r0, #127
 6467 026e 28D9     		bls	.L768
 6468              		.loc 1 2736 0
 6469 0270 44F00202 		orr	r2, r4, #2
 6470 0274 D2B2     		uxtb	r2, r2
 6471              		.loc 1 2745 0
 6472 0276 40F25231 		movw	r1, #850
 6473 027a CDF80CC0 		str	ip, [sp, #12]
 6474 027e 0293     		str	r3, [sp, #8]
 6475              		.loc 1 2736 0
 6476 0280 0192     		str	r2, [sp, #4]
 6477              	.LVL930:
 6478              		.loc 1 2745 0
 6479 0282 FFF7FEFF 		bl	ff_uni2oem
 6480              	.LVL931:
 6481              		.loc 1 2746 0
 6482 0286 01AA     		add	r2, sp, #4
 6483              	.LVL932:
 6484 0288 10F0800F 		tst	r0, #128
 6485 028c 92E80C10 		ldmia	r2, {r2, r3, ip}
 6486              	.LVL933:
 6487 0290 05D0     		beq	.L769
 6488 0292 00F07F00 		and	r0, r0, #127
 6489              	.LVL934:
 6490 0296 4649     		ldr	r1, .L880+4
 6491              		.loc 1 2736 0
 6492 0298 1446     		mov	r4, r2
 6493              		.loc 1 2746 0
 6494 029a 085C     		ldrb	r0, [r1, r0]	@ zero_extendqisi2
 6495              	.LVL935:
 6496 029c 11E0     		b	.L768
 6497              	.L769:
 6498              	.LVL936:
ARM GAS  /tmp/ccWRkTKh.s 			page 115


 6499              		.loc 1 2752 0
 6500 029e FF28     		cmp	r0, #255
 6501 02a0 10D9     		bls	.L770
 6502              		.loc 1 2753 0
 6503 02a2 591E     		subs	r1, r3, #1
 6504 02a4 8845     		cmp	r8, r1
 6505 02a6 04D3     		bcc	.L771
 6506              		.loc 1 2754 0
 6507 02a8 44F00304 		orr	r4, r4, #3
 6508 02ac E4B2     		uxtb	r4, r4
 6509              	.LVL937:
 6510 02ae 9846     		mov	r8, r3
 6511 02b0 C0E7     		b	.L762
 6512              	.LVL938:
 6513              	.L771:
 6514              		.loc 1 2757 0
 6515 02b2 05EB0801 		add	r1, r5, r8
 6516 02b6 040A     		lsrs	r4, r0, #8
 6517 02b8 81F84040 		strb	r4, [r1, #64]
 6518 02bc 08F10108 		add	r8, r8, #1
 6519              	.LVL939:
 6520 02c0 13E0     		b	.L772
 6521              	.LVL940:
 6522              	.L768:
 6523              		.loc 1 2771 0
 6524 02c2 2246     		mov	r2, r4
 6525              	.LVL941:
 6526              	.L770:
 6527              		.loc 1 2759 0
 6528 02c4 28B1     		cbz	r0, .L773
 6529              	.LVL942:
 6530 02c6 3B4C     		ldr	r4, .L880+8
 6531              	.LVL943:
 6532              	.L775:
 6533              	.LBB351:
 6534              	.LBB352:
 6535              		.loc 1 672 0
 6536 02c8 14F8011F 		ldrb	r1, [r4, #1]!	@ zero_extendqisi2
 6537              	.LVL944:
 6538 02cc 31B1     		cbz	r1, .L774
 6539 02ce 8142     		cmp	r1, r0
 6540 02d0 FAD1     		bne	.L775
 6541              	.LVL945:
 6542              	.L773:
 6543              	.LBE352:
 6544              	.LBE351:
 6545              		.loc 1 2760 0
 6546 02d2 42F00302 		orr	r2, r2, #3
 6547              	.LVL946:
 6548 02d6 D2B2     		uxtb	r2, r2
 6549              	.LVL947:
 6550 02d8 5F20     		movs	r0, #95
 6551 02da 06E0     		b	.L772
 6552              	.LVL948:
 6553              	.L774:
 6554              		.loc 1 2762 0
 6555 02dc A0F14101 		sub	r1, r0, #65
ARM GAS  /tmp/ccWRkTKh.s 			page 116


 6556 02e0 89B2     		uxth	r1, r1
 6557 02e2 1929     		cmp	r1, #25
 6558 02e4 55D8     		bhi	.L879
 6559              		.loc 1 2763 0
 6560 02e6 47F00207 		orr	r7, r7, #2
 6561              	.LVL949:
 6562              	.L772:
 6563              		.loc 1 2771 0
 6564 02ea 05EB0801 		add	r1, r5, r8
 6565 02ee 1446     		mov	r4, r2
 6566 02f0 81F84000 		strb	r0, [r1, #64]
 6567 02f4 08F10108 		add	r8, r8, #1
 6568              	.LVL950:
 6569 02f8 9CE7     		b	.L762
 6570              	.LVL951:
 6571              	.L793:
 6572              		.loc 1 2730 0
 6573 02fa 3A46     		mov	r2, r7
 6574              	.LVL952:
 6575              	.L758:
 6576              		.loc 1 2774 0
 6577 02fc 95F84010 		ldrb	r1, [r5, #64]	@ zero_extendqisi2
 6578 0300 E529     		cmp	r1, #229
 6579 0302 04BF     		itt	eq
 6580 0304 0521     		moveq	r1, #5
 6581 0306 85F84010 		strbeq	r1, [r5, #64]
 6582              		.loc 1 2776 0
 6583 030a 082B     		cmp	r3, #8
 6584 030c 04BF     		itt	eq
 6585 030e BF00     		lsleq	r7, r7, #2
 6586              	.LVL953:
 6587 0310 FAB2     		uxtbeq	r2, r7
 6588              	.LVL954:
 6589              		.loc 1 2777 0
 6590 0312 02F00C03 		and	r3, r2, #12
 6591 0316 0C2B     		cmp	r3, #12
 6592 0318 03D0     		beq	.L778
 6593 031a 02F00301 		and	r1, r2, #3
 6594 031e 0329     		cmp	r1, #3
 6595 0320 02D1     		bne	.L779
 6596              	.L778:
 6597 0322 44F00204 		orr	r4, r4, #2
 6598              	.LVL955:
 6599 0326 E4B2     		uxtb	r4, r4
 6600              	.LVL956:
 6601              	.L779:
 6602              		.loc 1 2778 0
 6603 0328 A107     		lsls	r1, r4, #30
 6604 032a 3FF5F0AE 		bmi	.L780
 6605              		.loc 1 2779 0
 6606 032e 02F00302 		and	r2, r2, #3
 6607              	.LVL957:
 6608 0332 012A     		cmp	r2, #1
 6609 0334 04BF     		itt	eq
 6610 0336 44F01004 		orreq	r4, r4, #16
 6611              	.LVL958:
 6612 033a E4B2     		uxtbeq	r4, r4
ARM GAS  /tmp/ccWRkTKh.s 			page 117


 6613              	.LVL959:
 6614              		.loc 1 2780 0
 6615 033c 042B     		cmp	r3, #4
 6616 033e 04BF     		itt	eq
 6617 0340 44F00804 		orreq	r4, r4, #8
 6618              	.LVL960:
 6619 0344 E4B2     		uxtbeq	r4, r4
 6620              	.LVL961:
 6621 0346 E2E6     		b	.L780
 6622              	.LVL962:
 6623              	.L785:
 6624              	.LBE353:
 6625              	.LBE355:
 6626              		.loc 1 2907 0
 6627 0348 0428     		cmp	r0, #4
 6628 034a 2CD1     		bne	.L868
 6629              		.loc 1 2908 0
 6630 034c 13F0200F 		tst	r3, #32
 6631 0350 03F00403 		and	r3, r3, #4
 6632              	.LVL963:
 6633 0354 07D0     		beq	.L782
 6634              		.loc 1 2909 0
 6635 0356 002B     		cmp	r3, #0
 6636 0358 3FF40CAF 		beq	.L729
 6637              		.loc 1 2910 0
 6638 035c 8023     		movs	r3, #128
 6639 035e 85F84B30 		strb	r3, [r5, #75]
 6640              	.LVL964:
 6641              		.loc 1 2911 0
 6642 0362 0020     		movs	r0, #0
 6643 0364 1FE0     		b	.L868
 6644              	.LVL965:
 6645              	.L782:
 6646              		.loc 1 2913 0
 6647 0366 002B     		cmp	r3, #0
 6648 0368 14BF     		ite	ne
 6649 036a 0420     		movne	r0, #4
 6650              	.LVL966:
 6651 036c 0520     		moveq	r0, #5
 6652 036e 1AE0     		b	.L868
 6653              	.L784:
 6654              		.loc 1 2934 0
 6655 0370 296B     		ldr	r1, [r5, #48]
 6656 0372 C1F30801 		ubfx	r1, r1, #0, #9
 6657 0376 5144     		add	r1, r1, r10
 6658 0378 4C31     		adds	r1, r1, #76
 6659 037a FFF7FEFF 		bl	ld_clust.isra.3
 6660              	.LVL967:
 6661 037e A860     		str	r0, [r5, #8]
 6662 0380 F8E6     		b	.L729
 6663              	.LVL968:
 6664              	.L797:
 6665              		.loc 1 2921 0
 6666 0382 0520     		movs	r0, #5
 6667              	.LVL969:
 6668 0384 0FE0     		b	.L868
 6669              	.LVL970:
ARM GAS  /tmp/ccWRkTKh.s 			page 118


 6670              	.L735:
 6671              	.LBB356:
 6672              		.loc 1 2889 0
 6673 0386 0620     		movs	r0, #6
 6674 0388 0DE0     		b	.L868
 6675              	.LVL971:
 6676              	.L761:
 6677              	.LBE356:
 6678              	.LBB357:
 6679              	.LBB354:
 6680              		.loc 1 2725 0
 6681 038a 0B2B     		cmp	r3, #11
 6682 038c 7FF467AF 		bne	.L767
 6683 0390 59E7     		b	.L787
 6684              	.LVL972:
 6685              	.L879:
 6686              		.loc 1 2765 0
 6687 0392 A0F16101 		sub	r1, r0, #97
 6688 0396 89B2     		uxth	r1, r1
 6689 0398 1929     		cmp	r1, #25
 6690              		.loc 1 2766 0
 6691 039a 9EBF     		ittt	ls
 6692 039c 2038     		subls	r0, r0, #32
 6693              	.LVL973:
 6694 039e 47F00107 		orrls	r7, r7, #1
 6695              	.LVL974:
 6696 03a2 80B2     		uxthls	r0, r0
 6697              	.LVL975:
 6698 03a4 A1E7     		b	.L772
 6699              	.LVL976:
 6700              	.L868:
 6701              	.LBE354:
 6702              	.LBE357:
 6703              		.loc 1 2940 0
 6704 03a6 19B0     		add	sp, sp, #100
 6705              		.cfi_def_cfa_offset 36
 6706              		@ sp needed
 6707 03a8 BDE8F08F 		pop	{r4, r5, r6, r7, r8, r9, r10, fp, pc}
 6708              	.LVL977:
 6709              	.L881:
 6710              		.align	2
 6711              	.L880:
 6712 03ac FFFFFFFF 		.word	.LC3-1
 6713 03b0 00000000 		.word	.LANCHOR3
 6714 03b4 FFFFFFFF 		.word	.LC4-1
 6715              		.cfi_endproc
 6716              	.LFE340:
 6717              		.size	follow_path, .-follow_path
 6718              		.section	.text.f_mount,"ax",%progbits
 6719              		.align	1
 6720              		.global	f_mount
 6721              		.thumb
 6722              		.thumb_func
 6723              		.type	f_mount, %function
 6724              	f_mount:
 6725              	.LFB345:
 6726              		.loc 1 3314 0
ARM GAS  /tmp/ccWRkTKh.s 			page 119


 6727              		.cfi_startproc
 6728              		@ args = 0, pretend = 0, frame = 16
 6729              		@ frame_needed = 0, uses_anonymous_args = 0
 6730              	.LVL978:
 6731 0000 F0B5     		push	{r4, r5, r6, r7, lr}
 6732              		.cfi_def_cfa_offset 20
 6733              		.cfi_offset 4, -20
 6734              		.cfi_offset 5, -16
 6735              		.cfi_offset 6, -12
 6736              		.cfi_offset 7, -8
 6737              		.cfi_offset 14, -4
 6738 0002 85B0     		sub	sp, sp, #20
 6739              		.cfi_def_cfa_offset 40
 6740              		.loc 1 3314 0
 6741 0004 1446     		mov	r4, r2
 6742 0006 0190     		str	r0, [sp, #4]
 6743              		.loc 1 3318 0
 6744 0008 04A8     		add	r0, sp, #16
 6745              	.LVL979:
 6746              		.loc 1 3314 0
 6747 000a 0091     		str	r1, [sp]
 6748              		.loc 1 3318 0
 6749 000c 40F8041D 		str	r1, [r0, #-4]!
 6750              		.loc 1 3322 0
 6751 0010 FFF7FEFF 		bl	get_ldnumber
 6752              	.LVL980:
 6753              		.loc 1 3323 0
 6754 0014 051E     		subs	r5, r0, #0
 6755 0016 26DB     		blt	.L890
 6756              		.loc 1 3324 0
 6757 0018 154B     		ldr	r3, .L899
 6758 001a 53F82560 		ldr	r6, [r3, r5, lsl #2]
 6759              	.LVL981:
 6760 001e 1F46     		mov	r7, r3
 6761              		.loc 1 3326 0
 6762 0020 3EB1     		cbz	r6, .L884
 6763              		.loc 1 3331 0
 6764 0022 7069     		ldr	r0, [r6, #20]
 6765              	.LVL982:
 6766 0024 FFF7FEFF 		bl	ff_del_syncobj
 6767              	.LVL983:
 6768 0028 08B9     		cbnz	r0, .L885
 6769              	.L888:
 6770 002a 0220     		movs	r0, #2
 6771 002c 1EE0     		b	.L883
 6772              	.L885:
 6773              		.loc 1 3333 0
 6774 002e 0023     		movs	r3, #0
 6775 0030 3370     		strb	r3, [r6]
 6776              	.L884:
 6777              		.loc 1 3336 0
 6778 0032 0199     		ldr	r1, [sp, #4]
 6779 0034 71B9     		cbnz	r1, .L886
 6780              	.L889:
 6781              		.loc 1 3342 0
 6782 0036 019B     		ldr	r3, [sp, #4]
 6783 0038 47F82530 		str	r3, [r7, r5, lsl #2]
ARM GAS  /tmp/ccWRkTKh.s 			page 120


 6784              		.loc 1 3344 0
 6785 003c ACB1     		cbz	r4, .L891
 6786              		.loc 1 3346 0
 6787 003e 01A9     		add	r1, sp, #4
 6788              	.LVL984:
 6789 0040 6846     		mov	r0, sp
 6790 0042 0022     		movs	r2, #0
 6791 0044 FFF7FEFF 		bl	find_volume
 6792              	.LVL985:
 6793 0048 0446     		mov	r4, r0
 6794              	.LVL986:
 6795              		.loc 1 3347 0
 6796 004a 2146     		mov	r1, r4
 6797 004c 0198     		ldr	r0, [sp, #4]
 6798 004e FFF7FEFF 		bl	unlock_fs
 6799              	.LVL987:
 6800 0052 0AE0     		b	.L891
 6801              	.LVL988:
 6802              	.L886:
 6803              		.loc 1 3337 0
 6804 0054 0023     		movs	r3, #0
 6805 0056 01F8143B 		strb	r3, [r1], #20
 6806              		.loc 1 3339 0
 6807 005a E8B2     		uxtb	r0, r5
 6808 005c FFF7FEFF 		bl	ff_cre_syncobj
 6809              	.LVL989:
 6810 0060 0028     		cmp	r0, #0
 6811 0062 E2D0     		beq	.L888
 6812 0064 E7E7     		b	.L889
 6813              	.LVL990:
 6814              	.L890:
 6815              		.loc 1 3323 0
 6816 0066 0B20     		movs	r0, #11
 6817              	.LVL991:
 6818 0068 00E0     		b	.L883
 6819              	.LVL992:
 6820              	.L891:
 6821              		.loc 1 3344 0
 6822 006a 2046     		mov	r0, r4
 6823              	.LVL993:
 6824              	.L883:
 6825              		.loc 1 3348 0
 6826 006c 05B0     		add	sp, sp, #20
 6827              		.cfi_def_cfa_offset 20
 6828              	.LVL994:
 6829              		@ sp needed
 6830 006e F0BD     		pop	{r4, r5, r6, r7, pc}
 6831              	.LVL995:
 6832              	.L900:
 6833              		.align	2
 6834              	.L899:
 6835 0070 00000000 		.word	.LANCHOR0
 6836              		.cfi_endproc
 6837              	.LFE345:
 6838              		.size	f_mount, .-f_mount
 6839              		.section	.text.f_open,"ax",%progbits
 6840              		.align	1
ARM GAS  /tmp/ccWRkTKh.s 			page 121


 6841              		.global	f_open
 6842              		.thumb
 6843              		.thumb_func
 6844              		.type	f_open, %function
 6845              	f_open:
 6846              	.LFB346:
 6847              		.loc 1 3362 0
 6848              		.cfi_startproc
 6849              		@ args = 0, pretend = 0, frame = 96
 6850              		@ frame_needed = 0, uses_anonymous_args = 0
 6851              	.LVL996:
 6852 0000 2DE9F04F 		push	{r4, r5, r6, r7, r8, r9, r10, fp, lr}
 6853              		.cfi_def_cfa_offset 36
 6854              		.cfi_offset 4, -36
 6855              		.cfi_offset 5, -32
 6856              		.cfi_offset 6, -28
 6857              		.cfi_offset 7, -24
 6858              		.cfi_offset 8, -20
 6859              		.cfi_offset 9, -16
 6860              		.cfi_offset 10, -12
 6861              		.cfi_offset 11, -8
 6862              		.cfi_offset 14, -4
 6863 0004 99B0     		sub	sp, sp, #100
 6864              		.cfi_def_cfa_offset 136
 6865              		.loc 1 3362 0
 6866 0006 1746     		mov	r7, r2
 6867 0008 0191     		str	r1, [sp, #4]
 6868              		.loc 1 3373 0
 6869 000a 0546     		mov	r5, r0
 6870 000c 0028     		cmp	r0, #0
 6871 000e 00F06B81 		beq	.L929
 6872              		.loc 1 3376 0
 6873 0012 02F03F06 		and	r6, r2, #63
 6874              	.LVL997:
 6875              		.loc 1 3377 0
 6876 0016 01A8     		add	r0, sp, #4
 6877              	.LVL998:
 6878 0018 03A9     		add	r1, sp, #12
 6879              	.LVL999:
 6880 001a 3246     		mov	r2, r6
 6881 001c FFF7FEFF 		bl	find_volume
 6882              	.LVL1000:
 6883              		.loc 1 3378 0
 6884 0020 0028     		cmp	r0, #0
 6885 0022 40F05881 		bne	.L930
 6886              		.loc 1 3379 0
 6887 0026 039B     		ldr	r3, [sp, #12]
 6888 0028 0493     		str	r3, [sp, #16]
 6889              		.loc 1 3380 0
 6890 002a 4FF48C60 		mov	r0, #1120
 6891              	.LVL1001:
 6892 002e FFF7FEFF 		bl	ff_memalloc
 6893              	.LVL1002:
 6894 0032 8046     		mov	r8, r0
 6895 0034 28B9     		cbnz	r0, .L904
 6896              		.loc 1 3380 0 is_stmt 0 discriminator 1
 6897 0036 0398     		ldr	r0, [sp, #12]
ARM GAS  /tmp/ccWRkTKh.s 			page 122


 6898              	.LVL1003:
 6899 0038 1121     		movs	r1, #17
 6900 003a FFF7FEFF 		bl	unlock_fs
 6901              	.LVL1004:
 6902 003e 1120     		movs	r0, #17
 6903 0040 5AE1     		b	.L965
 6904              	.LVL1005:
 6905              	.L904:
 6906              		.loc 1 3380 0 discriminator 2
 6907 0042 039B     		ldr	r3, [sp, #12]
 6908              		.loc 1 3381 0 is_stmt 1 discriminator 2
 6909 0044 0199     		ldr	r1, [sp, #4]
 6910              		.loc 1 3380 0 discriminator 2
 6911 0046 D860     		str	r0, [r3, #12]
 6912 0048 00F50072 		add	r2, r0, #512
 6913 004c 1A61     		str	r2, [r3, #16]
 6914              		.loc 1 3381 0 discriminator 2
 6915 004e 04A8     		add	r0, sp, #16
 6916              	.LVL1006:
