ARM GAS  /tmp/ccQFxnAu.s 			page 1


   1              		.syntax unified
   2              		.cpu cortex-m4
   3              		.eabi_attribute 27, 1
   4              		.eabi_attribute 28, 1
   5              		.fpu fpv4-sp-d16
   6              		.eabi_attribute 20, 1
   7              		.eabi_attribute 21, 1
   8              		.eabi_attribute 23, 3
   9              		.eabi_attribute 24, 1
  10              		.eabi_attribute 25, 1
  11              		.eabi_attribute 26, 1
  12              		.eabi_attribute 30, 4
  13              		.eabi_attribute 34, 1
  14              		.eabi_attribute 18, 4
  15              		.thumb
  16              		.file	"ffunicode.c"
  17              		.text
  18              	.Ltext0:
  19              		.cfi_sections	.debug_frame
  20              		.section	.text.ff_uni2oem,"ax",%progbits
  21              		.align	1
  22              		.global	ff_uni2oem
  23              		.thumb
  24              		.thumb_func
  25              		.type	ff_uni2oem, %function
  26              	ff_uni2oem:
  27              	.LFB290:
  28              		.file 1 "../../modules/ChibiOS/ext/fatfs/src/ffunicode.c"
  29              		.loc 1 15251 0
  30              		.cfi_startproc
  31              		@ args = 0, pretend = 0, frame = 0
  32              		@ frame_needed = 0, uses_anonymous_args = 0
  33              		@ link register save eliminated.
  34              	.LVL0:
  35              		.loc 1 15256 0
  36 0000 7F28     		cmp	r0, #127
  37 0002 13D9     		bls	.L2
  38              		.loc 1 15260 0
  39 0004 40F25233 		movw	r3, #850
  40 0008 9942     		cmp	r1, r3
  41 000a 01D0     		beq	.L6
  42              		.loc 1 15252 0
  43 000c 0020     		movs	r0, #0
  44              	.LVL1:
  45 000e 7047     		bx	lr
  46              	.LVL2:
  47              	.L6:
  48 0010 0023     		movs	r3, #0
  49              	.LVL3:
  50              	.L3:
  51              		.loc 1 15261 0 discriminator 3
  52 0012 0749     		ldr	r1, .L10
  53 0014 31F81310 		ldrh	r1, [r1, r3, lsl #1]
  54 0018 8142     		cmp	r1, r0
  55 001a 9AB2     		uxth	r2, r3
  56              	.LVL4:
  57 001c 03D0     		beq	.L4
ARM GAS  /tmp/ccQFxnAu.s 			page 2


  58              	.LVL5:
  59 001e 0133     		adds	r3, r3, #1
  60              	.LVL6:
  61              		.loc 1 15261 0 is_stmt 0 discriminator 4
  62 0020 802B     		cmp	r3, #128
  63 0022 F6D1     		bne	.L3
  64 0024 1A46     		mov	r2, r3
  65              	.LVL7:
  66              	.L4:
  67              		.loc 1 15262 0 is_stmt 1
  68 0026 02F18000 		add	r0, r2, #128
  69              	.LVL8:
  70 002a C0B2     		uxtb	r0, r0
  71              	.LVL9:
  72              	.L2:
  73              		.loc 1 15266 0
  74 002c 7047     		bx	lr
  75              	.L11:
  76 002e 00BF     		.align	2
  77              	.L10:
  78 0030 00000000 		.word	.LANCHOR0
  79              		.cfi_endproc
  80              	.LFE290:
  81              		.size	ff_uni2oem, .-ff_uni2oem
  82              		.section	.text.ff_oem2uni,"ax",%progbits
  83              		.align	1
  84              		.global	ff_oem2uni
  85              		.thumb
  86              		.thumb_func
  87              		.type	ff_oem2uni, %function
  88              	ff_oem2uni:
  89              	.LFB291:
  90              		.loc 1 15272 0
  91              		.cfi_startproc
  92              		@ args = 0, pretend = 0, frame = 0
  93              		@ frame_needed = 0, uses_anonymous_args = 0
  94              		@ link register save eliminated.
  95              	.LVL10:
  96              		.loc 1 15277 0
  97 0000 7F28     		cmp	r0, #127
  98 0002 0DD9     		bls	.L13
  99              		.loc 1 15281 0
 100 0004 40F25233 		movw	r3, #850
 101 0008 9942     		cmp	r1, r3
 102 000a 08D1     		bne	.L15
 103              		.loc 1 15282 0
 104 000c FF28     		cmp	r0, #255
 105 000e 06D8     		bhi	.L15
 106              		.loc 1 15282 0 is_stmt 0 discriminator 1
 107 0010 00F10040 		add	r0, r0, #-2147483648
 108              	.LVL11:
 109 0014 034B     		ldr	r3, .L16
 110 0016 8038     		subs	r0, r0, #128
 111 0018 33F81000 		ldrh	r0, [r3, r0, lsl #1]
 112              	.LVL12:
 113 001c 7047     		bx	lr
 114              	.LVL13:
ARM GAS  /tmp/ccQFxnAu.s 			page 3


 115              	.L15:
 116              		.loc 1 15273 0 is_stmt 1
 117 001e 0020     		movs	r0, #0
 118              	.LVL14:
 119              	.L13:
 120              		.loc 1 15286 0
 121 0020 7047     		bx	lr
 122              	.L17:
 123 0022 00BF     		.align	2
 124              	.L16:
 125 0024 00000000 		.word	.LANCHOR0
 126              		.cfi_endproc
 127              	.LFE291:
 128              		.size	ff_oem2uni, .-ff_oem2uni
 129              		.section	.text.ff_wtoupper,"ax",%progbits
 130              		.align	1
 131              		.global	ff_wtoupper
 132              		.thumb
 133              		.thumb_func
 134              		.type	ff_wtoupper, %function
 135              	ff_wtoupper:
 136              	.LFB292:
 137              		.loc 1 15482 0
 138              		.cfi_startproc
 139              		@ args = 0, pretend = 0, frame = 0
 140              		@ frame_needed = 0, uses_anonymous_args = 0
 141              	.LVL15:
 142 0000 70B5     		push	{r4, r5, r6, lr}
 143              		.cfi_def_cfa_offset 16
 144              		.cfi_offset 4, -16
 145              		.cfi_offset 5, -12
 146              		.cfi_offset 6, -8
 147              		.cfi_offset 14, -4
 148              		.loc 1 15540 0
 149 0002 1E4A     		ldr	r2, .L40
 150 0004 1E4B     		ldr	r3, .L40+4
 151 0006 B0F5805F 		cmp	r0, #4096
 152 000a 28BF     		it	cs
 153 000c 1346     		movcs	r3, r2
 154              	.L33:
 155 000e 191D     		adds	r1, r3, #4
 156              	.L32:
 157              	.LVL16:
 158              		.loc 1 15542 0
 159 0010 31F8043C 		ldrh	r3, [r1, #-4]
 160              	.LVL17:
 161 0014 0A46     		mov	r2, r1
 162              		.loc 1 15543 0
 163 0016 83B3     		cbz	r3, .L20
 164              		.loc 1 15543 0 is_stmt 0 discriminator 1
 165 0018 9842     		cmp	r0, r3
 166 001a 2ED3     		bcc	.L20
 167              	.LVL18:
 168              		.loc 1 15544 0 is_stmt 1
 169 001c 31F8024C 		ldrh	r4, [r1, #-2]
 170              	.LVL19:
 171 0020 250A     		lsrs	r5, r4, #8
ARM GAS  /tmp/ccQFxnAu.s 			page 4


 172              	.LVL20:
 173 0022 E4B2     		uxtb	r4, r4
 174              	.LVL21:
 175              		.loc 1 15545 0
 176 0024 1E19     		adds	r6, r3, r4
 177 0026 B042     		cmp	r0, r6
 178 0028 21DA     		bge	.L21
 179              		.loc 1 15546 0
 180 002a 082D     		cmp	r5, #8
 181 002c 25D8     		bhi	.L20
 182 002e DFE805F0 		tbb	[pc, r5]
 183              	.L23:
 184 0032 05       		.byte	(.L22-.L23)/2
 185 0033 09       		.byte	(.L24-.L23)/2
 186 0034 0E       		.byte	(.L25-.L23)/2
 187 0035 10       		.byte	(.L26-.L23)/2
 188 0036 12       		.byte	(.L27-.L23)/2
 189 0037 14       		.byte	(.L28-.L23)/2
 190 0038 16       		.byte	(.L29-.L23)/2
 191 0039 18       		.byte	(.L30-.L23)/2
 192 003a 1A       		.byte	(.L31-.L23)/2
 193 003b 00       		.p2align 1
 194              	.L22:
 195              		.loc 1 15547 0
 196 003c C01A     		subs	r0, r0, r3
 197              	.LVL22:
 198 003e 31F81000 		ldrh	r0, [r1, r0, lsl #1]
 199              	.LVL23:
 200 0042 70BD     		pop	{r4, r5, r6, pc}
 201              	.LVL24:
 202              	.L24:
 203              		.loc 1 15548 0
 204 0044 C31A     		subs	r3, r0, r3
 205              	.LVL25:
 206 0046 03F00103 		and	r3, r3, #1
 207 004a C01A     		subs	r0, r0, r3
 208              	.LVL26:
 209 004c 0DE0     		b	.L39
 210              	.LVL27:
 211              	.L25:
 212              		.loc 1 15549 0
 213 004e 1038     		subs	r0, r0, #16
 214              	.LVL28:
 215 0050 0BE0     		b	.L39
 216              	.LVL29:
 217              	.L26:
 218              		.loc 1 15550 0
 219 0052 2038     		subs	r0, r0, #32
 220              	.LVL30:
 221 0054 09E0     		b	.L39
 222              	.LVL31:
 223              	.L27:
 224              		.loc 1 15551 0
 225 0056 3038     		subs	r0, r0, #48
 226              	.LVL32:
 227 0058 07E0     		b	.L39
 228              	.LVL33:
ARM GAS  /tmp/ccQFxnAu.s 			page 5


 229              	.L28:
 230              		.loc 1 15552 0
 231 005a 1A38     		subs	r0, r0, #26
 232              	.LVL34:
 233 005c 05E0     		b	.L39
 234              	.LVL35:
 235              	.L29:
 236              		.loc 1 15553 0
 237 005e 0830     		adds	r0, r0, #8
 238              	.LVL36:
 239 0060 03E0     		b	.L39
 240              	.LVL37:
 241              	.L30:
 242              		.loc 1 15554 0
 243 0062 5038     		subs	r0, r0, #80
 244              	.LVL38:
 245 0064 01E0     		b	.L39
 246              	.LVL39:
 247              	.L31:
 248              		.loc 1 15555 0
 249 0066 A0F5E350 		sub	r0, r0, #7264
 250              	.LVL40:
 251              	.L39:
 252 006a 80B2     		uxth	r0, r0
 253              	.LVL41:
 254 006c 70BD     		pop	{r4, r5, r6, pc}
 255              	.LVL42:
 256              	.L21:
 257 006e 0431     		adds	r1, r1, #4
 258              	.LVL43:
 259              		.loc 1 15559 0
 260 0070 002D     		cmp	r5, #0
 261 0072 CDD1     		bne	.L32
 262              		.loc 1 15559 0 is_stmt 0 discriminator 1
 263 0074 02EB4403 		add	r3, r2, r4, lsl #1
 264              	.LVL44:
 265 0078 C9E7     		b	.L33
 266              	.LVL45:
 267              	.L20:
 268              		.loc 1 15563 0 is_stmt 1
 269 007a 70BD     		pop	{r4, r5, r6, pc}
 270              	.L41:
 271              		.align	2
 272              	.L40:
 273 007c 00000000 		.word	.LANCHOR1
 274 0080 00000000 		.word	.LANCHOR2
 275              		.cfi_endproc
 276              	.LFE292:
 277              		.size	ff_wtoupper, .-ff_wtoupper
 278              		.section	.rodata.uc850,"a",%progbits
 279              		.align	1
 280              		.set	.LANCHOR0,. + 0
 281              		.type	uc850, %object
 282              		.size	uc850, 256
 283              	uc850:
 284 0000 C700     		.short	199
 285 0002 FC00     		.short	252
ARM GAS  /tmp/ccQFxnAu.s 			page 6


 286 0004 E900     		.short	233
 287 0006 E200     		.short	226
 288 0008 E400     		.short	228
 289 000a E000     		.short	224
 290 000c E500     		.short	229
 291 000e E700     		.short	231
 292 0010 EA00     		.short	234
 293 0012 EB00     		.short	235
 294 0014 E800     		.short	232
 295 0016 EF00     		.short	239
 296 0018 EE00     		.short	238
 297 001a EC00     		.short	236
 298 001c C400     		.short	196
 299 001e C500     		.short	197
 300 0020 C900     		.short	201
 301 0022 E600     		.short	230
 302 0024 C600     		.short	198
 303 0026 F400     		.short	244
 304 0028 F600     		.short	246
 305 002a F200     		.short	242
 306 002c FB00     		.short	251
 307 002e F900     		.short	249
 308 0030 FF00     		.short	255
 309 0032 D600     		.short	214
 310 0034 DC00     		.short	220
 311 0036 F800     		.short	248
 312 0038 A300     		.short	163
 313 003a D800     		.short	216
 314 003c D700     		.short	215
 315 003e 9201     		.short	402
 316 0040 E100     		.short	225
 317 0042 ED00     		.short	237
 318 0044 F300     		.short	243
 319 0046 FA00     		.short	250
 320 0048 F100     		.short	241
 321 004a D100     		.short	209
 322 004c AA00     		.short	170
 323 004e BA00     		.short	186
 324 0050 BF00     		.short	191
 325 0052 AE00     		.short	174
 326 0054 AC00     		.short	172
 327 0056 BD00     		.short	189
 328 0058 BC00     		.short	188
 329 005a A100     		.short	161
 330 005c AB00     		.short	171
 331 005e BB00     		.short	187
 332 0060 9125     		.short	9617
 333 0062 9225     		.short	9618
 334 0064 9325     		.short	9619
 335 0066 0225     		.short	9474
 336 0068 2425     		.short	9508
 337 006a C100     		.short	193
 338 006c C200     		.short	194
 339 006e C000     		.short	192
 340 0070 A900     		.short	169
 341 0072 6325     		.short	9571
 342 0074 5125     		.short	9553
ARM GAS  /tmp/ccQFxnAu.s 			page 7


 343 0076 5725     		.short	9559
 344 0078 5D25     		.short	9565
 345 007a A200     		.short	162
 346 007c A500     		.short	165
 347 007e 1025     		.short	9488
 348 0080 1425     		.short	9492
 349 0082 3425     		.short	9524
 350 0084 2C25     		.short	9516
 351 0086 1C25     		.short	9500
 352 0088 0025     		.short	9472
 353 008a 3C25     		.short	9532
 354 008c E300     		.short	227
 355 008e C300     		.short	195
 356 0090 5A25     		.short	9562
 357 0092 5425     		.short	9556
 358 0094 6925     		.short	9577
 359 0096 6625     		.short	9574
 360 0098 6025     		.short	9568
 361 009a 5025     		.short	9552
 362 009c 6C25     		.short	9580
 363 009e A400     		.short	164
 364 00a0 F000     		.short	240
 365 00a2 D000     		.short	208
 366 00a4 CA00     		.short	202
 367 00a6 CB00     		.short	203
 368 00a8 C800     		.short	200
 369 00aa 3101     		.short	305
 370 00ac CD00     		.short	205
 371 00ae CE00     		.short	206
 372 00b0 CF00     		.short	207
 373 00b2 1825     		.short	9496
 374 00b4 0C25     		.short	9484
 375 00b6 8825     		.short	9608
 376 00b8 8425     		.short	9604
 377 00ba A600     		.short	166
 378 00bc CC00     		.short	204
 379 00be 8025     		.short	9600
 380 00c0 D300     		.short	211
 381 00c2 DF00     		.short	223
 382 00c4 D400     		.short	212
 383 00c6 D200     		.short	210
 384 00c8 F500     		.short	245
 385 00ca D500     		.short	213
 386 00cc B500     		.short	181
 387 00ce FE00     		.short	254
 388 00d0 DE00     		.short	222
 389 00d2 DA00     		.short	218
 390 00d4 DB00     		.short	219
 391 00d6 D900     		.short	217
 392 00d8 FD00     		.short	253
 393 00da DD00     		.short	221
 394 00dc AF00     		.short	175
 395 00de B400     		.short	180
 396 00e0 AD00     		.short	173
 397 00e2 B100     		.short	177
 398 00e4 1720     		.short	8215
 399 00e6 BE00     		.short	190
ARM GAS  /tmp/ccQFxnAu.s 			page 8


 400 00e8 B600     		.short	182
 401 00ea A700     		.short	167
 402 00ec F700     		.short	247
 403 00ee B800     		.short	184
 404 00f0 B000     		.short	176
 405 00f2 A800     		.short	168
 406 00f4 B700     		.short	183
 407 00f6 B900     		.short	185
 408 00f8 B300     		.short	179
 409 00fa B200     		.short	178
 410 00fc A025     		.short	9632
 411 00fe A000     		.short	160
 412              		.section	.rodata.cvt2.7230,"a",%progbits
 413              		.align	1
 414              		.set	.LANCHOR1,. + 0
 415              		.type	cvt2.7230, %object
 416              		.size	cvt2.7230, 188
 417              	cvt2.7230:
 418 0000 7D1D     		.short	7549
 419 0002 0100     		.short	1
 420 0004 632C     		.short	11363
 421 0006 001E     		.short	7680
 422 0008 9601     		.short	406
 423 000a A01E     		.short	7840
 424 000c 5A01     		.short	346
 425 000e 001F     		.short	7936
 426 0010 0806     		.short	1544
 427 0012 101F     		.short	7952
 428 0014 0606     		.short	1542
 429 0016 201F     		.short	7968
 430 0018 0806     		.short	1544
 431 001a 301F     		.short	7984
 432 001c 0806     		.short	1544
 433 001e 401F     		.short	8000
 434 0020 0606     		.short	1542
 435 0022 511F     		.short	8017
 436 0024 0700     		.short	7
 437 0026 591F     		.short	8025
 438 0028 521F     		.short	8018
 439 002a 5B1F     		.short	8027
 440 002c 541F     		.short	8020
 441 002e 5D1F     		.short	8029
 442 0030 561F     		.short	8022
 443 0032 5F1F     		.short	8031
 444 0034 601F     		.short	8032
 445 0036 0806     		.short	1544
 446 0038 701F     		.short	8048
 447 003a 0E00     		.short	14
 448 003c BA1F     		.short	8122
 449 003e BB1F     		.short	8123
 450 0040 C81F     		.short	8136
 451 0042 C91F     		.short	8137
 452 0044 CA1F     		.short	8138
 453 0046 CB1F     		.short	8139
 454 0048 DA1F     		.short	8154
 455 004a DB1F     		.short	8155
 456 004c F81F     		.short	8184
ARM GAS  /tmp/ccQFxnAu.s 			page 9


 457 004e F91F     		.short	8185
 458 0050 EA1F     		.short	8170
 459 0052 EB1F     		.short	8171
 460 0054 FA1F     		.short	8186
 461 0056 FB1F     		.short	8187
 462 0058 801F     		.short	8064
 463 005a 0806     		.short	1544
 464 005c 901F     		.short	8080
 465 005e 0806     		.short	1544
 466 0060 A01F     		.short	8096
 467 0062 0806     		.short	1544
 468 0064 B01F     		.short	8112
 469 0066 0400     		.short	4
 470 0068 B81F     		.short	8120
 471 006a B91F     		.short	8121
 472 006c B21F     		.short	8114
 473 006e BC1F     		.short	8124
 474 0070 CC1F     		.short	8140
 475 0072 0100     		.short	1
 476 0074 C31F     		.short	8131
 477 0076 D01F     		.short	8144
 478 0078 0206     		.short	1538
 479 007a E01F     		.short	8160
 480 007c 0206     		.short	1538
 481 007e E51F     		.short	8165
 482 0080 0100     		.short	1
 483 0082 EC1F     		.short	8172
 484 0084 F31F     		.short	8179
 485 0086 0100     		.short	1
 486 0088 FC1F     		.short	8188
 487 008a 4E21     		.short	8526
 488 008c 0100     		.short	1
 489 008e 3221     		.short	8498
 490 0090 7021     		.short	8560
 491 0092 1002     		.short	528
 492 0094 8421     		.short	8580
 493 0096 0100     		.short	1
 494 0098 8321     		.short	8579
 495 009a D024     		.short	9424
 496 009c 1A05     		.short	1306
 497 009e 302C     		.short	11312
 498 00a0 2F04     		.short	1071
 499 00a2 602C     		.short	11360
 500 00a4 0201     		.short	258
 501 00a6 672C     		.short	11367
 502 00a8 0601     		.short	262
 503 00aa 752C     		.short	11381
 504 00ac 0201     		.short	258
 505 00ae 802C     		.short	11392
 506 00b0 6401     		.short	356
 507 00b2 002D     		.short	11520
 508 00b4 2608     		.short	2086
 509 00b6 41FF     		.short	-191
 510 00b8 1A03     		.short	794
 511 00ba 0000     		.short	0
 512              		.section	.rodata.cvt1.7229,"a",%progbits
 513              		.align	1
ARM GAS  /tmp/ccQFxnAu.s 			page 10


 514              		.set	.LANCHOR2,. + 0
 515              		.type	cvt1.7229, %object
 516              		.size	cvt1.7229, 498
 517              	cvt1.7229:
 518 0000 6100     		.short	97
 519 0002 1A03     		.short	794
 520 0004 E000     		.short	224
 521 0006 1703     		.short	791
 522 0008 F800     		.short	248
 523 000a 0703     		.short	775
 524 000c FF00     		.short	255
 525 000e 0100     		.short	1
 526 0010 7801     		.short	376
 527 0012 0001     		.short	256
 528 0014 3001     		.short	304
 529 0016 3201     		.short	306
 530 0018 0601     		.short	262
 531 001a 3901     		.short	313
 532 001c 1001     		.short	272
 533 001e 4A01     		.short	330
 534 0020 2E01     		.short	302
 535 0022 7901     		.short	377
 536 0024 0601     		.short	262
 537 0026 8001     		.short	384
 538 0028 4D00     		.short	77
 539 002a 4302     		.short	579
 540 002c 8101     		.short	385
 541 002e 8201     		.short	386
 542 0030 8201     		.short	386
 543 0032 8401     		.short	388
 544 0034 8401     		.short	388
 545 0036 8601     		.short	390
 546 0038 8701     		.short	391
 547 003a 8701     		.short	391
 548 003c 8901     		.short	393
 549 003e 8A01     		.short	394
 550 0040 8B01     		.short	395
 551 0042 8B01     		.short	395
 552 0044 8D01     		.short	397
 553 0046 8E01     		.short	398
 554 0048 8F01     		.short	399
 555 004a 9001     		.short	400
 556 004c 9101     		.short	401
 557 004e 9101     		.short	401
 558 0050 9301     		.short	403
 559 0052 9401     		.short	404
 560 0054 F601     		.short	502
 561 0056 9601     		.short	406
 562 0058 9701     		.short	407
 563 005a 9801     		.short	408
 564 005c 9801     		.short	408
 565 005e 3D02     		.short	573
 566 0060 9B01     		.short	411
 567 0062 9C01     		.short	412
 568 0064 9D01     		.short	413
 569 0066 2002     		.short	544
 570 0068 9F01     		.short	415
ARM GAS  /tmp/ccQFxnAu.s 			page 11


 571 006a A001     		.short	416
 572 006c A001     		.short	416
 573 006e A201     		.short	418
 574 0070 A201     		.short	418
 575 0072 A401     		.short	420
 576 0074 A401     		.short	420
 577 0076 A601     		.short	422
 578 0078 A701     		.short	423
 579 007a A701     		.short	423
 580 007c A901     		.short	425
 581 007e AA01     		.short	426
 582 0080 AB01     		.short	427
 583 0082 AC01     		.short	428
 584 0084 AC01     		.short	428
 585 0086 AE01     		.short	430
 586 0088 AF01     		.short	431
 587 008a AF01     		.short	431
 588 008c B101     		.short	433
 589 008e B201     		.short	434
 590 0090 B301     		.short	435
 591 0092 B301     		.short	435
 592 0094 B501     		.short	437
 593 0096 B501     		.short	437
 594 0098 B701     		.short	439
 595 009a B801     		.short	440
 596 009c B801     		.short	440
 597 009e BA01     		.short	442
 598 00a0 BB01     		.short	443
 599 00a2 BC01     		.short	444
 600 00a4 BC01     		.short	444
 601 00a6 BE01     		.short	446
 602 00a8 F701     		.short	503
 603 00aa C001     		.short	448
 604 00ac C101     		.short	449
 605 00ae C201     		.short	450
 606 00b0 C301     		.short	451
 607 00b2 C401     		.short	452
 608 00b4 C501     		.short	453
 609 00b6 C401     		.short	452
 610 00b8 C701     		.short	455
 611 00ba C801     		.short	456
 612 00bc C701     		.short	455
 613 00be CA01     		.short	458
 614 00c0 CB01     		.short	459
 615 00c2 CA01     		.short	458
 616 00c4 CD01     		.short	461
 617 00c6 1001     		.short	272
 618 00c8 DD01     		.short	477
 619 00ca 0100     		.short	1
 620 00cc 8E01     		.short	398
 621 00ce DE01     		.short	478
 622 00d0 1201     		.short	274
 623 00d2 F301     		.short	499
 624 00d4 0300     		.short	3
 625 00d6 F101     		.short	497
 626 00d8 F401     		.short	500
 627 00da F401     		.short	500
ARM GAS  /tmp/ccQFxnAu.s 			page 12


 628 00dc F801     		.short	504
 629 00de 2801     		.short	296
 630 00e0 2202     		.short	546
 631 00e2 1201     		.short	274
 632 00e4 3A02     		.short	570
 633 00e6 0900     		.short	9
 634 00e8 652C     		.short	11365
 635 00ea 3B02     		.short	571
 636 00ec 3B02     		.short	571
 637 00ee 3D02     		.short	573
 638 00f0 662C     		.short	11366
 639 00f2 3F02     		.short	575
 640 00f4 4002     		.short	576
 641 00f6 4102     		.short	577
 642 00f8 4102     		.short	577
 643 00fa 4602     		.short	582
 644 00fc 0A01     		.short	266
 645 00fe 5302     		.short	595
 646 0100 4000     		.short	64
 647 0102 8101     		.short	385
 648 0104 8601     		.short	390
 649 0106 5502     		.short	597
 650 0108 8901     		.short	393
 651 010a 8A01     		.short	394
 652 010c 5802     		.short	600
 653 010e 8F01     		.short	399
 654 0110 5A02     		.short	602
 655 0112 9001     		.short	400
 656 0114 5C02     		.short	604
 657 0116 5D02     		.short	605
 658 0118 5E02     		.short	606
 659 011a 5F02     		.short	607
 660 011c 9301     		.short	403
 661 011e 6102     		.short	609
 662 0120 6202     		.short	610
 663 0122 9401     		.short	404
 664 0124 6402     		.short	612
 665 0126 6502     		.short	613
 666 0128 6602     		.short	614
 667 012a 6702     		.short	615
 668 012c 9701     		.short	407
 669 012e 9601     		.short	406
 670 0130 6A02     		.short	618
 671 0132 622C     		.short	11362
 672 0134 6C02     		.short	620
 673 0136 6D02     		.short	621
 674 0138 6E02     		.short	622
 675 013a 9C01     		.short	412
 676 013c 7002     		.short	624
 677 013e 7102     		.short	625
 678 0140 9D01     		.short	413
 679 0142 7302     		.short	627
 680 0144 7402     		.short	628
 681 0146 9F01     		.short	415
 682 0148 7602     		.short	630
 683 014a 7702     		.short	631
 684 014c 7802     		.short	632
ARM GAS  /tmp/ccQFxnAu.s 			page 13


 685 014e 7902     		.short	633
 686 0150 7A02     		.short	634
 687 0152 7B02     		.short	635
 688 0154 7C02     		.short	636
 689 0156 642C     		.short	11364
 690 0158 7E02     		.short	638
 691 015a 7F02     		.short	639
 692 015c A601     		.short	422
 693 015e 8102     		.short	641
 694 0160 8202     		.short	642
 695 0162 A901     		.short	425
 696 0164 8402     		.short	644
 697 0166 8502     		.short	645
 698 0168 8602     		.short	646
 699 016a 8702     		.short	647
 700 016c AE01     		.short	430
 701 016e 4402     		.short	580
 702 0170 B101     		.short	433
 703 0172 B201     		.short	434
 704 0174 4502     		.short	581
 705 0176 8D02     		.short	653
 706 0178 8E02     		.short	654
 707 017a 8F02     		.short	655
 708 017c 9002     		.short	656
 709 017e 9102     		.short	657
 710 0180 B701     		.short	439
 711 0182 7B03     		.short	891
 712 0184 0300     		.short	3
 713 0186 FD03     		.short	1021
 714 0188 FE03     		.short	1022
 715 018a FF03     		.short	1023
 716 018c AC03     		.short	940
 717 018e 0400     		.short	4
 718 0190 8603     		.short	902
 719 0192 8803     		.short	904
 720 0194 8903     		.short	905
 721 0196 8A03     		.short	906
 722 0198 B103     		.short	945
 723 019a 1103     		.short	785
 724 019c C203     		.short	962
 725 019e 0200     		.short	2
 726 01a0 A303     		.short	931
 727 01a2 A303     		.short	931
 728 01a4 C403     		.short	964
 729 01a6 0803     		.short	776
 730 01a8 CC03     		.short	972
 731 01aa 0300     		.short	3
 732 01ac 8C03     		.short	908
 733 01ae 8E03     		.short	910
 734 01b0 8F03     		.short	911
 735 01b2 D803     		.short	984
 736 01b4 1801     		.short	280
 737 01b6 F203     		.short	1010
 738 01b8 0A00     		.short	10
 739 01ba F903     		.short	1017
 740 01bc F303     		.short	1011
 741 01be F403     		.short	1012
ARM GAS  /tmp/ccQFxnAu.s 			page 14


 742 01c0 F503     		.short	1013
 743 01c2 F603     		.short	1014
 744 01c4 F703     		.short	1015
 745 01c6 F703     		.short	1015
 746 01c8 F903     		.short	1017
 747 01ca FA03     		.short	1018
 748 01cc FA03     		.short	1018
 749 01ce 3004     		.short	1072
 750 01d0 2003     		.short	800
 751 01d2 5004     		.short	1104
 752 01d4 1007     		.short	1808
 753 01d6 6004     		.short	1120
 754 01d8 2201     		.short	290
 755 01da 8A04     		.short	1162
 756 01dc 3601     		.short	310
 757 01de C104     		.short	1217
 758 01e0 0E01     		.short	270
 759 01e2 CF04     		.short	1231
 760 01e4 0100     		.short	1
 761 01e6 C004     		.short	1216
 762 01e8 D004     		.short	1232
 763 01ea 4401     		.short	324
 764 01ec 6105     		.short	1377
 765 01ee 2604     		.short	1062
 766 01f0 0000     		.short	0
 767              		.text
 768              	.Letext0:
 769              		.file 2 "../../modules/ChibiOS/ext/fatfs/src/integer.h"
 770              		.file 3 "/usr/include/newlib/machine/_default_types.h"
 771              		.file 4 "/usr/include/newlib/sys/_stdint.h"
 772              		.file 5 "../../modules/ChibiOS/os/common/ports/ARMCMx/compilers/GCC/chtypes.h"
 773              		.file 6 "../../modules/ChibiOS/os/rt/include/chsystypes.h"
 774              		.file 7 "../../modules/ChibiOS/os/rt/include/chschd.h"
 775              		.file 8 "../../modules/ChibiOS/os/rt/include/chtime.h"
 776              		.file 9 "../../modules/ChibiOS/os/common/ports/ARMCMx/chcore.h"
 777              		.file 10 "../../modules/ChibiOS/os/common/ports/ARMCMx/chcore_v7m.h"
 778              		.file 11 "../../modules/ChibiOS/os/rt/include/chtm.h"
 779              		.file 12 "../../modules/ChibiOS/os/rt/include/chstats.h"
 780              		.file 13 "../../modules/ChibiOS/os/rt/include/chsem.h"
 781              		.file 14 "../../modules/ChibiOS/os/rt/include/chmtx.h"
 782              		.file 15 "../../modules/ChibiOS/os/common/ext/ARM/CMSIS/Core/Include/core_cm4.h"
 783              		.section	.debug_info,"",%progbits
 784              	.Ldebug_info0:
 785 0000 5E090000 		.4byte	0x95e
 786 0004 0400     		.2byte	0x4
 787 0006 00000000 		.4byte	.Ldebug_abbrev0
 788 000a 04       		.byte	0x4
 789 000b 01       		.uleb128 0x1
 790 000c C5010000 		.4byte	.LASF114
 791 0010 01       		.byte	0x1
 792 0011 19000000 		.4byte	.LASF115
 793 0015 24050000 		.4byte	.LASF116
 794 0019 00000000 		.4byte	.Ldebug_ranges0+0
 795 001d 00000000 		.4byte	0
 796 0021 00000000 		.4byte	.Ldebug_line0
 797 0025 02       		.uleb128 0x2
 798 0026 04       		.byte	0x4
ARM GAS  /tmp/ccQFxnAu.s 			page 15


 799 0027 05       		.byte	0x5
 800 0028 696E7400 		.ascii	"int\000"
 801 002c 03       		.uleb128 0x3
 802 002d 04       		.byte	0x4
 803 002e 07       		.byte	0x7
 804 002f B8010000 		.4byte	.LASF0
 805 0033 03       		.uleb128 0x3
 806 0034 01       		.byte	0x1
 807 0035 08       		.byte	0x8
 808 0036 46040000 		.4byte	.LASF1
 809 003a 03       		.uleb128 0x3
 810 003b 02       		.byte	0x2
 811 003c 05       		.byte	0x5
 812 003d 54040000 		.4byte	.LASF2
 813 0041 04       		.uleb128 0x4
 814 0042 BA030000 		.4byte	.LASF4
 815 0046 02       		.byte	0x2
 816 0047 1A       		.byte	0x1a
 817 0048 4C000000 		.4byte	0x4c
 818 004c 03       		.uleb128 0x3
 819 004d 02       		.byte	0x2
 820 004e 07       		.byte	0x7
 821 004f D3020000 		.4byte	.LASF3
 822 0053 04       		.uleb128 0x4
 823 0054 8C050000 		.4byte	.LASF5
 824 0058 02       		.byte	0x2
 825 0059 1B       		.byte	0x1b
 826 005a 4C000000 		.4byte	0x4c
 827 005e 03       		.uleb128 0x3
 828 005f 04       		.byte	0x4
 829 0060 05       		.byte	0x5
 830 0061 53010000 		.4byte	.LASF6
 831 0065 03       		.uleb128 0x3
 832 0066 04       		.byte	0x4
 833 0067 07       		.byte	0x7
 834 0068 C3040000 		.4byte	.LASF7
 835 006c 03       		.uleb128 0x3
 836 006d 08       		.byte	0x8
 837 006e 07       		.byte	0x7
 838 006f B3000000 		.4byte	.LASF8
 839 0073 03       		.uleb128 0x3
 840 0074 01       		.byte	0x1
 841 0075 06       		.byte	0x6
 842 0076 25010000 		.4byte	.LASF9
 843 007a 04       		.uleb128 0x4
 844 007b 5F000000 		.4byte	.LASF10
 845 007f 03       		.byte	0x3
 846 0080 1D       		.byte	0x1d
 847 0081 33000000 		.4byte	0x33
 848 0085 04       		.uleb128 0x4
 849 0086 58030000 		.4byte	.LASF11
 850 008a 03       		.byte	0x3
 851 008b 3F       		.byte	0x3f
 852 008c 5E000000 		.4byte	0x5e
 853 0090 04       		.uleb128 0x4
 854 0091 70010000 		.4byte	.LASF12
 855 0095 03       		.byte	0x3
ARM GAS  /tmp/ccQFxnAu.s 			page 16


 856 0096 41       		.byte	0x41
 857 0097 65000000 		.4byte	0x65
 858 009b 03       		.uleb128 0x3
 859 009c 08       		.byte	0x8
 860 009d 05       		.byte	0x5
 861 009e 17010000 		.4byte	.LASF13
 862 00a2 04       		.uleb128 0x4
 863 00a3 EA030000 		.4byte	.LASF14
 864 00a7 03       		.byte	0x3
 865 00a8 5B       		.byte	0x5b
 866 00a9 6C000000 		.4byte	0x6c
 867 00ad 04       		.uleb128 0x4
 868 00ae 77050000 		.4byte	.LASF15
 869 00b2 04       		.byte	0x4
 870 00b3 14       		.byte	0x14
 871 00b4 7A000000 		.4byte	0x7a
 872 00b8 04       		.uleb128 0x4
 873 00b9 3E040000 		.4byte	.LASF16
 874 00bd 04       		.byte	0x4
 875 00be 1F       		.byte	0x1f
 876 00bf 85000000 		.4byte	0x85
 877 00c3 04       		.uleb128 0x4
 878 00c4 9D040000 		.4byte	.LASF17
 879 00c8 04       		.byte	0x4
 880 00c9 20       		.byte	0x20
 881 00ca 90000000 		.4byte	0x90
 882 00ce 04       		.uleb128 0x4
 883 00cf 49000000 		.4byte	.LASF18
 884 00d3 04       		.byte	0x4
 885 00d4 26       		.byte	0x26
 886 00d5 A2000000 		.4byte	0xa2
 887 00d9 04       		.uleb128 0x4
 888 00da 50050000 		.4byte	.LASF19
 889 00de 05       		.byte	0x5
 890 00df 27       		.byte	0x27
 891 00e0 C3000000 		.4byte	0xc3
 892 00e4 04       		.uleb128 0x4
 893 00e5 0E010000 		.4byte	.LASF20
 894 00e9 05       		.byte	0x5
 895 00ea 28       		.byte	0x28
 896 00eb CE000000 		.4byte	0xce
 897 00ef 04       		.uleb128 0x4
 898 00f0 2B030000 		.4byte	.LASF21
 899 00f4 05       		.byte	0x5
 900 00f5 2A       		.byte	0x2a
 901 00f6 AD000000 		.4byte	0xad
 902 00fa 04       		.uleb128 0x4
 903 00fb 5C010000 		.4byte	.LASF22
 904 00ff 05       		.byte	0x5
 905 0100 2B       		.byte	0x2b
 906 0101 AD000000 		.4byte	0xad
 907 0105 04       		.uleb128 0x4
 908 0106 0A040000 		.4byte	.LASF23
 909 010a 05       		.byte	0x5
 910 010b 2C       		.byte	0x2c
 911 010c AD000000 		.4byte	0xad
 912 0110 04       		.uleb128 0x4
ARM GAS  /tmp/ccQFxnAu.s 			page 17


 913 0111 27040000 		.4byte	.LASF24
 914 0115 05       		.byte	0x5
 915 0116 2E       		.byte	0x2e
 916 0117 C3000000 		.4byte	0xc3
 917 011b 04       		.uleb128 0x4
 918 011c 04030000 		.4byte	.LASF25
 919 0120 05       		.byte	0x5
 920 0121 2F       		.byte	0x2f
 921 0122 B8000000 		.4byte	0xb8
 922 0126 04       		.uleb128 0x4
 923 0127 4C030000 		.4byte	.LASF26
 924 012b 05       		.byte	0x5
 925 012c 31       		.byte	0x31
 926 012d C3000000 		.4byte	0xc3
 927 0131 04       		.uleb128 0x4
 928 0132 B2010000 		.4byte	.LASF27
 929 0136 05       		.byte	0x5
 930 0137 33       		.byte	0x33
 931 0138 B8000000 		.4byte	0xb8
 932 013c 04       		.uleb128 0x4
 933 013d 0F030000 		.4byte	.LASF28
 934 0141 05       		.byte	0x5
 935 0142 34       		.byte	0x34
 936 0143 C3000000 		.4byte	0xc3
 937 0147 04       		.uleb128 0x4
 938 0148 E7040000 		.4byte	.LASF29
 939 014c 06       		.byte	0x6
 940 014d 34       		.byte	0x34
 941 014e 52010000 		.4byte	0x152
 942 0152 05       		.uleb128 0x5
 943 0153 FA020000 		.4byte	.LASF48
 944 0157 60       		.byte	0x60
 945 0158 07       		.byte	0x7
 946 0159 8E       		.byte	0x8e
 947 015a 3D020000 		.4byte	0x23d
 948 015e 06       		.uleb128 0x6
 949 015f C7020000 		.4byte	.LASF30
 950 0163 07       		.byte	0x7
 951 0164 8F       		.byte	0x8f
 952 0165 72020000 		.4byte	0x272
 953 0169 00       		.byte	0
 954 016a 06       		.uleb128 0x6
 955 016b DD030000 		.4byte	.LASF31
 956 016f 07       		.byte	0x7
 957 0170 90       		.byte	0x90
 958 0171 10010000 		.4byte	0x110
 959 0175 08       		.byte	0x8
 960 0176 07       		.uleb128 0x7
 961 0177 63747800 		.ascii	"ctx\000"
 962 017b 07       		.byte	0x7
 963 017c 91       		.byte	0x91
 964 017d 8D040000 		.4byte	0x48d
 965 0181 0C       		.byte	0xc
 966 0182 06       		.uleb128 0x6
 967 0183 6D030000 		.4byte	.LASF32
 968 0187 07       		.byte	0x7
 969 0188 93       		.byte	0x93
ARM GAS  /tmp/ccQFxnAu.s 			page 18


 970 0189 48020000 		.4byte	0x248
 971 018d 10       		.byte	0x10
 972 018e 06       		.uleb128 0x6
 973 018f E1040000 		.4byte	.LASF33
 974 0193 07       		.byte	0x7
 975 0194 94       		.byte	0x94
 976 0195 48020000 		.4byte	0x248
 977 0199 14       		.byte	0x14
 978 019a 06       		.uleb128 0x6
 979 019b F5020000 		.4byte	.LASF34
 980 019f 07       		.byte	0x7
 981 01a0 9B       		.byte	0x9b
 982 01a1 73070000 		.4byte	0x773
 983 01a5 18       		.byte	0x18
 984 01a6 06       		.uleb128 0x6
 985 01a7 D5040000 		.4byte	.LASF35
 986 01ab 07       		.byte	0x7
 987 01ac A4       		.byte	0xa4
 988 01ad 85070000 		.4byte	0x785
 989 01b1 1C       		.byte	0x1c
 990 01b2 06       		.uleb128 0x6
 991 01b3 4D010000 		.4byte	.LASF36
 992 01b7 07       		.byte	0x7
 993 01b8 A9       		.byte	0xa9
 994 01b9 FA000000 		.4byte	0xfa
 995 01bd 20       		.byte	0x20
 996 01be 06       		.uleb128 0x6
 997 01bf 7F050000 		.4byte	.LASF37
 998 01c3 07       		.byte	0x7
 999 01c4 AD       		.byte	0xad
 1000 01c5 EF000000 		.4byte	0xef
 1001 01c9 21       		.byte	0x21
 1002 01ca 06       		.uleb128 0x6
 1003 01cb 12040000 		.4byte	.LASF38
 1004 01cf 07       		.byte	0x7
 1005 01d0 B2       		.byte	0xb2
 1006 01d1 05010000 		.4byte	0x105
 1007 01d5 22       		.byte	0x22
 1008 01d6 08       		.uleb128 0x8
 1009 01d7 7500     		.ascii	"u\000"
 1010 01d9 07       		.byte	0x7
 1011 01da 0301     		.2byte	0x103
 1012 01dc A9060000 		.4byte	0x6a9
 1013 01e0 24       		.byte	0x24
 1014 01e1 09       		.uleb128 0x9
 1015 01e2 94010000 		.4byte	.LASF39
 1016 01e6 07       		.byte	0x7
 1017 01e7 0801     		.2byte	0x108
 1018 01e9 4E020000 		.4byte	0x24e
 1019 01ed 28       		.byte	0x28
 1020 01ee 09       		.uleb128 0x9
 1021 01ef 44010000 		.4byte	.LASF40
 1022 01f3 07       		.byte	0x7
 1023 01f4 0E01     		.2byte	0x10e
 1024 01f6 72020000 		.4byte	0x272
 1025 01fa 2C       		.byte	0x2c
 1026 01fb 09       		.uleb128 0x9
ARM GAS  /tmp/ccQFxnAu.s 			page 19


 1027 01fc 16030000 		.4byte	.LASF41
 1028 0200 07       		.byte	0x7
 1029 0201 1401     		.2byte	0x114
 1030 0203 26010000 		.4byte	0x126
 1031 0207 34       		.byte	0x34
 1032 0208 09       		.uleb128 0x9
 1033 0209 A1050000 		.4byte	.LASF42
 1034 020d 07       		.byte	0x7
 1035 020e 1B01     		.2byte	0x11b
 1036 0210 6D070000 		.4byte	0x76d
 1037 0214 38       		.byte	0x38
 1038 0215 09       		.uleb128 0x9
 1039 0216 73030000 		.4byte	.LASF43
 1040 021a 07       		.byte	0x7
 1041 021b 1F01     		.2byte	0x11f
 1042 021d 10010000 		.4byte	0x110
 1043 0221 3C       		.byte	0x3c
 1044 0222 09       		.uleb128 0x9
 1045 0223 CD020000 		.4byte	.LASF44
 1046 0227 07       		.byte	0x7
 1047 0228 2601     		.2byte	0x126
 1048 022a 25030000 		.4byte	0x325
 1049 022e 40       		.byte	0x40
 1050 022f 09       		.uleb128 0x9
 1051 0230 6A010000 		.4byte	.LASF45
 1052 0234 07       		.byte	0x7
 1053 0235 2C01     		.2byte	0x12c
 1054 0237 5A060000 		.4byte	0x65a
 1055 023b 48       		.byte	0x48
 1056 023c 00       		.byte	0
 1057 023d 04       		.uleb128 0x4
 1058 023e 85030000 		.4byte	.LASF46
 1059 0242 06       		.byte	0x6
 1060 0243 39       		.byte	0x39
 1061 0244 48020000 		.4byte	0x248
 1062 0248 0A       		.uleb128 0xa
 1063 0249 04       		.byte	0x4
 1064 024a 47010000 		.4byte	0x147
 1065 024e 04       		.uleb128 0x4
 1066 024f 92050000 		.4byte	.LASF47
 1067 0253 06       		.byte	0x6
 1068 0254 3E       		.byte	0x3e
 1069 0255 59020000 		.4byte	0x259
 1070 0259 05       		.uleb128 0x5
 1071 025a AD040000 		.4byte	.LASF49
 1072 025e 04       		.byte	0x4
 1073 025f 07       		.byte	0x7
 1074 0260 7C       		.byte	0x7c
 1075 0261 72020000 		.4byte	0x272
 1076 0265 06       		.uleb128 0x6
 1077 0266 09010000 		.4byte	.LASF50
 1078 026a 07       		.byte	0x7
 1079 026b 7D       		.byte	0x7d
 1080 026c 48020000 		.4byte	0x248
 1081 0270 00       		.byte	0
 1082 0271 00       		.byte	0
 1083 0272 04       		.uleb128 0x4
ARM GAS  /tmp/ccQFxnAu.s 			page 20


 1084 0273 58050000 		.4byte	.LASF51
 1085 0277 06       		.byte	0x6
 1086 0278 45       		.byte	0x45
 1087 0279 7D020000 		.4byte	0x27d
 1088 027d 05       		.uleb128 0x5
 1089 027e 7A000000 		.4byte	.LASF52
 1090 0282 08       		.byte	0x8
 1091 0283 07       		.byte	0x7
 1092 0284 83       		.byte	0x83
 1093 0285 A2020000 		.4byte	0x2a2
 1094 0289 06       		.uleb128 0x6
 1095 028a 09010000 		.4byte	.LASF50
 1096 028e 07       		.byte	0x7
 1097 028f 84       		.byte	0x84
 1098 0290 48020000 		.4byte	0x248
 1099 0294 00       		.byte	0
 1100 0295 06       		.uleb128 0x6
 1101 0296 69000000 		.4byte	.LASF53
 1102 029a 07       		.byte	0x7
 1103 029b 85       		.byte	0x85
 1104 029c 48020000 		.4byte	0x248
 1105 02a0 04       		.byte	0x4
 1106 02a1 00       		.byte	0
 1107 02a2 04       		.uleb128 0x4
 1108 02a3 00000000 		.4byte	.LASF54
 1109 02a7 06       		.byte	0x6
 1110 02a8 4C       		.byte	0x4c
 1111 02a9 AD020000 		.4byte	0x2ad
 1112 02ad 0B       		.uleb128 0xb
 1113 02ae 3E030000 		.4byte	.LASF55
 1114 02b2 1C       		.byte	0x1c
 1115 02b3 07       		.byte	0x7
 1116 02b4 5E01     		.2byte	0x15e
 1117 02b6 09030000 		.4byte	0x309
 1118 02ba 09       		.uleb128 0x9
 1119 02bb C7020000 		.4byte	.LASF30
 1120 02bf 07       		.byte	0x7
 1121 02c0 5F01     		.2byte	0x15f
 1122 02c2 72020000 		.4byte	0x272
 1123 02c6 00       		.byte	0
 1124 02c7 09       		.uleb128 0x9
 1125 02c8 DD030000 		.4byte	.LASF31
 1126 02cc 07       		.byte	0x7
 1127 02cd 6001     		.2byte	0x160
 1128 02cf 10010000 		.4byte	0x110
 1129 02d3 08       		.byte	0x8
 1130 02d4 08       		.uleb128 0x8
 1131 02d5 63747800 		.ascii	"ctx\000"
 1132 02d9 07       		.byte	0x7
 1133 02da 6201     		.2byte	0x162
 1134 02dc 8D040000 		.4byte	0x48d
 1135 02e0 0C       		.byte	0xc
 1136 02e1 09       		.uleb128 0x9
 1137 02e2 6D030000 		.4byte	.LASF32
 1138 02e6 07       		.byte	0x7
 1139 02e7 6501     		.2byte	0x165
 1140 02e9 48020000 		.4byte	0x248
ARM GAS  /tmp/ccQFxnAu.s 			page 21


 1141 02ed 10       		.byte	0x10
 1142 02ee 09       		.uleb128 0x9
 1143 02ef E1040000 		.4byte	.LASF33
 1144 02f3 07       		.byte	0x7
 1145 02f4 6601     		.2byte	0x166
 1146 02f6 48020000 		.4byte	0x248
 1147 02fa 14       		.byte	0x14
 1148 02fb 09       		.uleb128 0x9
 1149 02fc E2030000 		.4byte	.LASF56
 1150 0300 07       		.byte	0x7
 1151 0301 6901     		.2byte	0x169
 1152 0303 48020000 		.4byte	0x248
 1153 0307 18       		.byte	0x18
 1154 0308 00       		.byte	0
 1155 0309 04       		.uleb128 0x4
 1156 030a FF040000 		.4byte	.LASF57
 1157 030e 06       		.byte	0x6
 1158 030f 51       		.byte	0x51
 1159 0310 14030000 		.4byte	0x314
 1160 0314 0A       		.uleb128 0xa
 1161 0315 04       		.byte	0x4
 1162 0316 1A030000 		.4byte	0x31a
 1163 031a 0C       		.uleb128 0xc
 1164 031b 25030000 		.4byte	0x325
 1165 031f 0D       		.uleb128 0xd
 1166 0320 25030000 		.4byte	0x325
 1167 0324 00       		.byte	0
 1168 0325 0E       		.uleb128 0xe
 1169 0326 04       		.byte	0x4
 1170 0327 04       		.uleb128 0x4
 1171 0328 17040000 		.4byte	.LASF58
 1172 032c 06       		.byte	0x6
 1173 032d 56       		.byte	0x56
 1174 032e 32030000 		.4byte	0x332
 1175 0332 0B       		.uleb128 0xb
 1176 0333 7F040000 		.4byte	.LASF59
 1177 0337 14       		.byte	0x14
 1178 0338 07       		.byte	0x7
 1179 0339 3901     		.2byte	0x139
 1180 033b 81030000 		.4byte	0x381
 1181 033f 09       		.uleb128 0x9
 1182 0340 09010000 		.4byte	.LASF50
 1183 0344 07       		.byte	0x7
 1184 0345 3A01     		.2byte	0x13a
 1185 0347 8B070000 		.4byte	0x78b
 1186 034b 00       		.byte	0
 1187 034c 09       		.uleb128 0x9
 1188 034d 69000000 		.4byte	.LASF53
 1189 0351 07       		.byte	0x7
 1190 0352 3B01     		.2byte	0x13b
 1191 0354 8B070000 		.4byte	0x78b
 1192 0358 04       		.byte	0x4
 1193 0359 09       		.uleb128 0x9
 1194 035a 13000000 		.4byte	.LASF60
 1195 035e 07       		.byte	0x7
 1196 035f 3C01     		.2byte	0x13c
 1197 0361 65040000 		.4byte	0x465
ARM GAS  /tmp/ccQFxnAu.s 			page 22


 1198 0365 08       		.byte	0x8
 1199 0366 09       		.uleb128 0x9
 1200 0367 65010000 		.4byte	.LASF61
 1201 036b 07       		.byte	0x7
 1202 036c 3D01     		.2byte	0x13d
 1203 036e 09030000 		.4byte	0x309
 1204 0372 0C       		.byte	0xc
 1205 0373 08       		.uleb128 0x8
 1206 0374 70617200 		.ascii	"par\000"
 1207 0378 07       		.byte	0x7
 1208 0379 3F01     		.2byte	0x13f
 1209 037b 25030000 		.4byte	0x325
 1210 037f 10       		.byte	0x10
 1211 0380 00       		.byte	0
 1212 0381 04       		.uleb128 0x4
 1213 0382 E6000000 		.4byte	.LASF62
 1214 0386 06       		.byte	0x6
 1215 0387 5B       		.byte	0x5b
 1216 0388 8C030000 		.4byte	0x38c
 1217 038c 0B       		.uleb128 0xb
 1218 038d 98030000 		.4byte	.LASF63
 1219 0391 10       		.byte	0x10
 1220 0392 07       		.byte	0x7
 1221 0393 4901     		.2byte	0x149
 1222 0395 CE030000 		.4byte	0x3ce
 1223 0399 09       		.uleb128 0x9
 1224 039a 09010000 		.4byte	.LASF50
 1225 039e 07       		.byte	0x7
 1226 039f 4A01     		.2byte	0x14a
 1227 03a1 8B070000 		.4byte	0x78b
 1228 03a5 00       		.byte	0
 1229 03a6 09       		.uleb128 0x9
 1230 03a7 69000000 		.4byte	.LASF53
 1231 03ab 07       		.byte	0x7
 1232 03ac 4C01     		.2byte	0x14c
 1233 03ae 8B070000 		.4byte	0x78b
 1234 03b2 04       		.byte	0x4
 1235 03b3 09       		.uleb128 0x9
 1236 03b4 13000000 		.4byte	.LASF60
 1237 03b8 07       		.byte	0x7
 1238 03b9 4E01     		.2byte	0x14e
 1239 03bb 65040000 		.4byte	0x465
 1240 03bf 08       		.byte	0x8
 1241 03c0 09       		.uleb128 0x9
 1242 03c1 5E040000 		.4byte	.LASF64
 1243 03c5 07       		.byte	0x7
 1244 03c6 5601     		.2byte	0x156
 1245 03c8 5A040000 		.4byte	0x45a
 1246 03cc 0C       		.byte	0xc
 1247 03cd 00       		.byte	0
 1248 03ce 04       		.uleb128 0x4
 1249 03cf 8B000000 		.4byte	.LASF65
 1250 03d3 06       		.byte	0x6
 1251 03d4 60       		.byte	0x60
 1252 03d5 D9030000 		.4byte	0x3d9
 1253 03d9 0B       		.uleb128 0xb
 1254 03da 84010000 		.4byte	.LASF66
ARM GAS  /tmp/ccQFxnAu.s 			page 23


 1255 03de 04       		.byte	0x4
 1256 03df 07       		.byte	0x7
 1257 03e0 7001     		.2byte	0x170
 1258 03e2 F4030000 		.4byte	0x3f4
 1259 03e6 09       		.uleb128 0x9
 1260 03e7 08050000 		.4byte	.LASF67
 1261 03eb 07       		.byte	0x7
 1262 03ec 7801     		.2byte	0x178
 1263 03ee 91070000 		.4byte	0x791
 1264 03f2 00       		.byte	0
 1265 03f3 00       		.byte	0
 1266 03f4 04       		.uleb128 0x4
 1267 03f5 1F030000 		.4byte	.LASF68
 1268 03f9 06       		.byte	0x6
 1269 03fa 65       		.byte	0x65
 1270 03fb FF030000 		.4byte	0x3ff
 1271 03ff 0B       		.uleb128 0xb
 1272 0400 6E040000 		.4byte	.LASF69
 1273 0404 D0       		.byte	0xd0
 1274 0405 07       		.byte	0x7
 1275 0406 9001     		.2byte	0x190
 1276 0408 5A040000 		.4byte	0x45a
 1277 040c 09       		.uleb128 0x9
 1278 040d 71050000 		.4byte	.LASF70
 1279 0411 07       		.byte	0x7
 1280 0412 9401     		.2byte	0x194
 1281 0414 A2020000 		.4byte	0x2a2
 1282 0418 00       		.byte	0
 1283 0419 09       		.uleb128 0x9
 1284 041a 3D010000 		.4byte	.LASF71
 1285 041e 07       		.byte	0x7
 1286 041f 9801     		.2byte	0x198
 1287 0421 81030000 		.4byte	0x381
 1288 0425 1C       		.byte	0x1c
 1289 0426 08       		.uleb128 0x8
 1290 0427 64626700 		.ascii	"dbg\000"
 1291 042b 07       		.byte	0x7
 1292 042c 9C01     		.2byte	0x19c
 1293 042e CE030000 		.4byte	0x3ce
 1294 0432 2C       		.byte	0x2c
 1295 0433 09       		.uleb128 0x9
 1296 0434 D3000000 		.4byte	.LASF72
 1297 0438 07       		.byte	0x7
 1298 0439 A001     		.2byte	0x1a0
 1299 043b 47010000 		.4byte	0x147
 1300 043f 30       		.byte	0x30
 1301 0440 08       		.uleb128 0x8
 1302 0441 746D00   		.ascii	"tm\000"
 1303 0444 07       		.byte	0x7
 1304 0445 A501     		.2byte	0x1a5
 1305 0447 0C060000 		.4byte	0x60c
 1306 044b 90       		.byte	0x90
 1307 044c 09       		.uleb128 0x9
 1308 044d 52000000 		.4byte	.LASF73
 1309 0451 07       		.byte	0x7
 1310 0452 AB01     		.2byte	0x1ab
 1311 0454 9E060000 		.4byte	0x69e
ARM GAS  /tmp/ccQFxnAu.s 			page 24


 1312 0458 98       		.byte	0x98
 1313 0459 00       		.byte	0
 1314 045a 04       		.uleb128 0x4
 1315 045b F5040000 		.4byte	.LASF74
 1316 045f 08       		.byte	0x8
 1317 0460 6D       		.byte	0x6d
 1318 0461 C3000000 		.4byte	0xc3
 1319 0465 04       		.uleb128 0x4
 1320 0466 A4010000 		.4byte	.LASF75
 1321 046a 08       		.byte	0x8
 1322 046b 79       		.byte	0x79
 1323 046c C3000000 		.4byte	0xc3
 1324 0470 03       		.uleb128 0x3
 1325 0471 04       		.byte	0x4
 1326 0472 07       		.byte	0x7
 1327 0473 7C030000 		.4byte	.LASF76
 1328 0477 04       		.uleb128 0x4
 1329 0478 7B010000 		.4byte	.LASF77
 1330 047c 09       		.byte	0x9
 1331 047d 65       		.byte	0x65
 1332 047e 25030000 		.4byte	0x325
 1333 0482 04       		.uleb128 0x4
 1334 0483 62030000 		.4byte	.LASF78
 1335 0487 09       		.byte	0x9
 1336 0488 6D       		.byte	0x6d
 1337 0489 CE000000 		.4byte	0xce
 1338 048d 05       		.uleb128 0x5
 1339 048e BF030000 		.4byte	.LASF79
 1340 0492 04       		.byte	0x4
 1341 0493 09       		.byte	0x9
 1342 0494 89       		.byte	0x89
 1343 0495 A5040000 		.4byte	0x4a5
 1344 0499 07       		.uleb128 0x7
 1345 049a 737000   		.ascii	"sp\000"
 1346 049d 09       		.byte	0x9
 1347 049e 8A       		.byte	0x8a
 1348 049f F1050000 		.4byte	0x5f1
 1349 04a3 00       		.byte	0
 1350 04a4 00       		.byte	0
 1351 04a5 0B       		.uleb128 0xb
 1352 04a6 6E000000 		.4byte	.LASF80
 1353 04aa 64       		.byte	0x64
 1354 04ab 0A       		.byte	0xa
 1355 04ac 5901     		.2byte	0x159
 1356 04ae F1050000 		.4byte	0x5f1
 1357 04b2 08       		.uleb128 0x8
 1358 04b3 73313600 		.ascii	"s16\000"
 1359 04b7 0A       		.byte	0xa
 1360 04b8 5B01     		.2byte	0x15b
 1361 04ba 77040000 		.4byte	0x477
 1362 04be 00       		.byte	0
 1363 04bf 08       		.uleb128 0x8
 1364 04c0 73313700 		.ascii	"s17\000"
 1365 04c4 0A       		.byte	0xa
 1366 04c5 5C01     		.2byte	0x15c
 1367 04c7 77040000 		.4byte	0x477
 1368 04cb 04       		.byte	0x4
ARM GAS  /tmp/ccQFxnAu.s 			page 25


 1369 04cc 08       		.uleb128 0x8
 1370 04cd 73313800 		.ascii	"s18\000"
 1371 04d1 0A       		.byte	0xa
 1372 04d2 5D01     		.2byte	0x15d
 1373 04d4 77040000 		.4byte	0x477
 1374 04d8 08       		.byte	0x8
 1375 04d9 08       		.uleb128 0x8
 1376 04da 73313900 		.ascii	"s19\000"
 1377 04de 0A       		.byte	0xa
 1378 04df 5E01     		.2byte	0x15e
 1379 04e1 77040000 		.4byte	0x477
 1380 04e5 0C       		.byte	0xc
 1381 04e6 08       		.uleb128 0x8
 1382 04e7 73323000 		.ascii	"s20\000"
 1383 04eb 0A       		.byte	0xa
 1384 04ec 5F01     		.2byte	0x15f
 1385 04ee 77040000 		.4byte	0x477
 1386 04f2 10       		.byte	0x10
 1387 04f3 08       		.uleb128 0x8
 1388 04f4 73323100 		.ascii	"s21\000"
 1389 04f8 0A       		.byte	0xa
 1390 04f9 6001     		.2byte	0x160
 1391 04fb 77040000 		.4byte	0x477
 1392 04ff 14       		.byte	0x14
 1393 0500 08       		.uleb128 0x8
 1394 0501 73323200 		.ascii	"s22\000"
 1395 0505 0A       		.byte	0xa
 1396 0506 6101     		.2byte	0x161
 1397 0508 77040000 		.4byte	0x477
 1398 050c 18       		.byte	0x18
 1399 050d 08       		.uleb128 0x8
 1400 050e 73323300 		.ascii	"s23\000"
 1401 0512 0A       		.byte	0xa
 1402 0513 6201     		.2byte	0x162
 1403 0515 77040000 		.4byte	0x477
 1404 0519 1C       		.byte	0x1c
 1405 051a 08       		.uleb128 0x8
 1406 051b 73323400 		.ascii	"s24\000"
 1407 051f 0A       		.byte	0xa
 1408 0520 6301     		.2byte	0x163
 1409 0522 77040000 		.4byte	0x477
 1410 0526 20       		.byte	0x20
 1411 0527 08       		.uleb128 0x8
 1412 0528 73323500 		.ascii	"s25\000"
 1413 052c 0A       		.byte	0xa
 1414 052d 6401     		.2byte	0x164
 1415 052f 77040000 		.4byte	0x477
 1416 0533 24       		.byte	0x24
 1417 0534 08       		.uleb128 0x8
 1418 0535 73323600 		.ascii	"s26\000"
 1419 0539 0A       		.byte	0xa
 1420 053a 6501     		.2byte	0x165
 1421 053c 77040000 		.4byte	0x477
 1422 0540 28       		.byte	0x28
 1423 0541 08       		.uleb128 0x8
 1424 0542 73323700 		.ascii	"s27\000"
 1425 0546 0A       		.byte	0xa
ARM GAS  /tmp/ccQFxnAu.s 			page 26


 1426 0547 6601     		.2byte	0x166
 1427 0549 77040000 		.4byte	0x477
 1428 054d 2C       		.byte	0x2c
 1429 054e 08       		.uleb128 0x8
 1430 054f 73323800 		.ascii	"s28\000"
 1431 0553 0A       		.byte	0xa
 1432 0554 6701     		.2byte	0x167
 1433 0556 77040000 		.4byte	0x477
 1434 055a 30       		.byte	0x30
 1435 055b 08       		.uleb128 0x8
 1436 055c 73323900 		.ascii	"s29\000"
 1437 0560 0A       		.byte	0xa
 1438 0561 6801     		.2byte	0x168
 1439 0563 77040000 		.4byte	0x477
 1440 0567 34       		.byte	0x34
 1441 0568 08       		.uleb128 0x8
 1442 0569 73333000 		.ascii	"s30\000"
 1443 056d 0A       		.byte	0xa
 1444 056e 6901     		.2byte	0x169
 1445 0570 77040000 		.4byte	0x477
 1446 0574 38       		.byte	0x38
 1447 0575 08       		.uleb128 0x8
 1448 0576 73333100 		.ascii	"s31\000"
 1449 057a 0A       		.byte	0xa
 1450 057b 6A01     		.2byte	0x16a
 1451 057d 77040000 		.4byte	0x477
 1452 0581 3C       		.byte	0x3c
 1453 0582 08       		.uleb128 0x8
 1454 0583 723400   		.ascii	"r4\000"
 1455 0586 0A       		.byte	0xa
 1456 0587 6C01     		.2byte	0x16c
 1457 0589 77040000 		.4byte	0x477
 1458 058d 40       		.byte	0x40
 1459 058e 08       		.uleb128 0x8
 1460 058f 723500   		.ascii	"r5\000"
 1461 0592 0A       		.byte	0xa
 1462 0593 6D01     		.2byte	0x16d
 1463 0595 77040000 		.4byte	0x477
 1464 0599 44       		.byte	0x44
 1465 059a 08       		.uleb128 0x8
 1466 059b 723600   		.ascii	"r6\000"
 1467 059e 0A       		.byte	0xa
 1468 059f 6E01     		.2byte	0x16e
 1469 05a1 77040000 		.4byte	0x477
 1470 05a5 48       		.byte	0x48
 1471 05a6 08       		.uleb128 0x8
 1472 05a7 723700   		.ascii	"r7\000"
 1473 05aa 0A       		.byte	0xa
 1474 05ab 6F01     		.2byte	0x16f
 1475 05ad 77040000 		.4byte	0x477
 1476 05b1 4C       		.byte	0x4c
 1477 05b2 08       		.uleb128 0x8
 1478 05b3 723800   		.ascii	"r8\000"
 1479 05b6 0A       		.byte	0xa
 1480 05b7 7001     		.2byte	0x170
 1481 05b9 77040000 		.4byte	0x477
 1482 05bd 50       		.byte	0x50
ARM GAS  /tmp/ccQFxnAu.s 			page 27


 1483 05be 08       		.uleb128 0x8
 1484 05bf 723900   		.ascii	"r9\000"
 1485 05c2 0A       		.byte	0xa
 1486 05c3 7101     		.2byte	0x171
 1487 05c5 77040000 		.4byte	0x477
 1488 05c9 54       		.byte	0x54
 1489 05ca 08       		.uleb128 0x8
 1490 05cb 72313000 		.ascii	"r10\000"
 1491 05cf 0A       		.byte	0xa
 1492 05d0 7201     		.2byte	0x172
 1493 05d2 77040000 		.4byte	0x477
 1494 05d6 58       		.byte	0x58
 1495 05d7 08       		.uleb128 0x8
 1496 05d8 72313100 		.ascii	"r11\000"
 1497 05dc 0A       		.byte	0xa
 1498 05dd 7301     		.2byte	0x173
 1499 05df 77040000 		.4byte	0x477
 1500 05e3 5C       		.byte	0x5c
 1501 05e4 08       		.uleb128 0x8
 1502 05e5 6C7200   		.ascii	"lr\000"
 1503 05e8 0A       		.byte	0xa
 1504 05e9 7401     		.2byte	0x174
 1505 05eb 77040000 		.4byte	0x477
 1506 05ef 60       		.byte	0x60
 1507 05f0 00       		.byte	0
 1508 05f1 0A       		.uleb128 0xa
 1509 05f2 04       		.byte	0x4
 1510 05f3 A5040000 		.4byte	0x4a5
 1511 05f7 0F       		.uleb128 0xf
 1512 05f8 04       		.byte	0x4
 1513 05f9 0B       		.byte	0xb
 1514 05fa 38       		.byte	0x38
 1515 05fb 0C060000 		.4byte	0x60c
 1516 05ff 06       		.uleb128 0x6
 1517 0600 12050000 		.4byte	.LASF81
 1518 0604 0B       		.byte	0xb
 1519 0605 3C       		.byte	0x3c
 1520 0606 D9000000 		.4byte	0xd9
 1521 060a 00       		.byte	0
 1522 060b 00       		.byte	0
 1523 060c 04       		.uleb128 0x4
 1524 060d CC030000 		.4byte	.LASF82
 1525 0611 0B       		.byte	0xb
 1526 0612 3D       		.byte	0x3d
 1527 0613 F7050000 		.4byte	0x5f7
 1528 0617 0F       		.uleb128 0xf
 1529 0618 18       		.byte	0x18
 1530 0619 0B       		.byte	0xb
 1531 061a 48       		.byte	0x48
 1532 061b 5A060000 		.4byte	0x65a
 1533 061f 06       		.uleb128 0x6
 1534 0620 F0040000 		.4byte	.LASF83
 1535 0624 0B       		.byte	0xb
 1536 0625 49       		.byte	0x49
 1537 0626 D9000000 		.4byte	0xd9
 1538 062a 00       		.byte	0
 1539 062b 06       		.uleb128 0x6
ARM GAS  /tmp/ccQFxnAu.s 			page 28


 1540 062c 9A000000 		.4byte	.LASF84
 1541 0630 0B       		.byte	0xb
 1542 0631 4A       		.byte	0x4a
 1543 0632 D9000000 		.4byte	0xd9
 1544 0636 04       		.byte	0x4
 1545 0637 06       		.uleb128 0x6
 1546 0638 0A030000 		.4byte	.LASF85
 1547 063c 0B       		.byte	0xb
 1548 063d 4B       		.byte	0x4b
 1549 063e D9000000 		.4byte	0xd9
 1550 0642 08       		.byte	0x8
 1551 0643 07       		.uleb128 0x7
 1552 0644 6E00     		.ascii	"n\000"
 1553 0646 0B       		.byte	0xb
 1554 0647 4C       		.byte	0x4c
 1555 0648 3C010000 		.4byte	0x13c
 1556 064c 0C       		.byte	0xc
 1557 064d 06       		.uleb128 0x6
 1558 064e F5030000 		.4byte	.LASF86
 1559 0652 0B       		.byte	0xb
 1560 0653 4D       		.byte	0x4d
 1561 0654 E4000000 		.4byte	0xe4
 1562 0658 10       		.byte	0x10
 1563 0659 00       		.byte	0
 1564 065a 04       		.uleb128 0x4
 1565 065b A0000000 		.4byte	.LASF87
 1566 065f 0B       		.byte	0xb
 1567 0660 4E       		.byte	0x4e
 1568 0661 17060000 		.4byte	0x617
 1569 0665 0F       		.uleb128 0xf
 1570 0666 38       		.byte	0x38
 1571 0667 0C       		.byte	0xc
 1572 0668 38       		.byte	0x38
 1573 0669 9E060000 		.4byte	0x69e
 1574 066d 06       		.uleb128 0x6
 1575 066e C1020000 		.4byte	.LASF88
 1576 0672 0C       		.byte	0xc
 1577 0673 39       		.byte	0x39
 1578 0674 3C010000 		.4byte	0x13c
 1579 0678 00       		.byte	0
 1580 0679 06       		.uleb128 0x6
 1581 067a 2F040000 		.4byte	.LASF89
 1582 067e 0C       		.byte	0xc
 1583 067f 3A       		.byte	0x3a
 1584 0680 3C010000 		.4byte	0x13c
 1585 0684 04       		.byte	0x4
 1586 0685 06       		.uleb128 0x6
 1587 0686 A9050000 		.4byte	.LASF90
 1588 068a 0C       		.byte	0xc
 1589 068b 3B       		.byte	0x3b
 1590 068c 5A060000 		.4byte	0x65a
 1591 0690 08       		.byte	0x8
 1592 0691 06       		.uleb128 0x6
 1593 0692 33030000 		.4byte	.LASF91
 1594 0696 0C       		.byte	0xc
 1595 0697 3D       		.byte	0x3d
 1596 0698 5A060000 		.4byte	0x65a
ARM GAS  /tmp/ccQFxnAu.s 			page 29


 1597 069c 20       		.byte	0x20
 1598 069d 00       		.byte	0
 1599 069e 04       		.uleb128 0x4
 1600 069f E6020000 		.4byte	.LASF92
 1601 06a3 0C       		.byte	0xc
 1602 06a4 3F       		.byte	0x3f
 1603 06a5 65060000 		.4byte	0x665
 1604 06a9 10       		.uleb128 0x10
 1605 06aa 04       		.byte	0x4
 1606 06ab 07       		.byte	0x7
 1607 06ac C6       		.byte	0xc6
 1608 06ad 0B070000 		.4byte	0x70b
 1609 06b1 11       		.uleb128 0x11
 1610 06b2 78040000 		.4byte	.LASF93
 1611 06b6 07       		.byte	0x7
 1612 06b7 CD       		.byte	0xcd
 1613 06b8 1B010000 		.4byte	0x11b
 1614 06bc 11       		.uleb128 0x11
 1615 06bd CA000000 		.4byte	.LASF94
 1616 06c1 07       		.byte	0x7
 1617 06c2 D4       		.byte	0xd4
 1618 06c3 1B010000 		.4byte	0x11b
 1619 06c7 11       		.uleb128 0x11
 1620 06c8 85050000 		.4byte	.LASF95
 1621 06cc 07       		.byte	0x7
 1622 06cd DB       		.byte	0xdb
 1623 06ce 25030000 		.4byte	0x325
 1624 06d2 11       		.uleb128 0x11
 1625 06d3 0D000000 		.4byte	.LASF96
 1626 06d7 07       		.byte	0x7
 1627 06d8 E2       		.byte	0xe2
 1628 06d9 0B070000 		.4byte	0x70b
 1629 06dd 11       		.uleb128 0x11
 1630 06de DE000000 		.4byte	.LASF97
 1631 06e2 07       		.byte	0x7
 1632 06e3 E7       		.byte	0xe7
 1633 06e4 1B010000 		.4byte	0x11b
 1634 06e8 11       		.uleb128 0x11
 1635 06e9 BA020000 		.4byte	.LASF98
 1636 06ed 07       		.byte	0x7
 1637 06ee F0       		.byte	0xf0
 1638 06ef 36070000 		.4byte	0x736
 1639 06f3 11       		.uleb128 0x11
 1640 06f4 A6040000 		.4byte	.LASF99
 1641 06f8 07       		.byte	0x7
 1642 06f9 F9       		.byte	0xf9
 1643 06fa 6D070000 		.4byte	0x76d
 1644 06fe 12       		.uleb128 0x12
 1645 06ff 67040000 		.4byte	.LASF100
 1646 0703 07       		.byte	0x7
 1647 0704 0101     		.2byte	0x101
 1648 0706 26010000 		.4byte	0x126
 1649 070a 00       		.byte	0
 1650 070b 0A       		.uleb128 0xa
 1651 070c 04       		.byte	0x4
 1652 070d 3D020000 		.4byte	0x23d
 1653 0711 05       		.uleb128 0x5
ARM GAS  /tmp/ccQFxnAu.s 			page 30


 1654 0712 90040000 		.4byte	.LASF101
 1655 0716 0C       		.byte	0xc
 1656 0717 0D       		.byte	0xd
 1657 0718 34       		.byte	0x34
 1658 0719 36070000 		.4byte	0x736
 1659 071d 06       		.uleb128 0x6
 1660 071e C7020000 		.4byte	.LASF30
 1661 0722 0D       		.byte	0xd
 1662 0723 35       		.byte	0x35
 1663 0724 72020000 		.4byte	0x272
 1664 0728 00       		.byte	0
 1665 0729 07       		.uleb128 0x7
 1666 072a 636E7400 		.ascii	"cnt\000"
 1667 072e 0D       		.byte	0xd
 1668 072f 37       		.byte	0x37
 1669 0730 31010000 		.4byte	0x131
 1670 0734 08       		.byte	0x8
 1671 0735 00       		.byte	0
 1672 0736 0A       		.uleb128 0xa
 1673 0737 04       		.byte	0x4
 1674 0738 11070000 		.4byte	0x711
 1675 073c 05       		.uleb128 0x5
 1676 073d 68050000 		.4byte	.LASF102
 1677 0741 10       		.byte	0x10
 1678 0742 0E       		.byte	0xe
 1679 0743 39       		.byte	0x39
 1680 0744 6D070000 		.4byte	0x76d
 1681 0748 06       		.uleb128 0x6
 1682 0749 C7020000 		.4byte	.LASF30
 1683 074d 0E       		.byte	0xe
 1684 074e 3A       		.byte	0x3a
 1685 074f 72020000 		.4byte	0x272
 1686 0753 00       		.byte	0
 1687 0754 06       		.uleb128 0x6
 1688 0755 BD040000 		.4byte	.LASF103
 1689 0759 0E       		.byte	0xe
 1690 075a 3C       		.byte	0x3c
 1691 075b 48020000 		.4byte	0x248
 1692 075f 08       		.byte	0x8
 1693 0760 06       		.uleb128 0x6
 1694 0761 09010000 		.4byte	.LASF50
 1695 0765 0E       		.byte	0xe
 1696 0766 3E       		.byte	0x3e
 1697 0767 A1070000 		.4byte	0x7a1
 1698 076b 0C       		.byte	0xc
 1699 076c 00       		.byte	0
 1700 076d 0A       		.uleb128 0xa
 1701 076e 04       		.byte	0x4
 1702 076f 3C070000 		.4byte	0x73c
 1703 0773 0A       		.uleb128 0xa
 1704 0774 04       		.byte	0x4
 1705 0775 79070000 		.4byte	0x779
 1706 0779 13       		.uleb128 0x13
 1707 077a 7E070000 		.4byte	0x77e
 1708 077e 03       		.uleb128 0x3
 1709 077f 01       		.byte	0x1
 1710 0780 08       		.byte	0x8
ARM GAS  /tmp/ccQFxnAu.s 			page 31


 1711 0781 DC040000 		.4byte	.LASF104
 1712 0785 0A       		.uleb128 0xa
 1713 0786 04       		.byte	0x4
 1714 0787 82040000 		.4byte	0x482
 1715 078b 0A       		.uleb128 0xa
 1716 078c 04       		.byte	0x4
 1717 078d 27030000 		.4byte	0x327
 1718 0791 14       		.uleb128 0x14
 1719 0792 73070000 		.4byte	0x773
 1720 0796 04       		.uleb128 0x4
 1721 0797 9C010000 		.4byte	.LASF105
 1722 079b 0E       		.byte	0xe
 1723 079c 34       		.byte	0x34
 1724 079d 3C070000 		.4byte	0x73c
 1725 07a1 0A       		.uleb128 0xa
 1726 07a2 04       		.byte	0x4
 1727 07a3 96070000 		.4byte	0x796
 1728 07a7 03       		.uleb128 0x3
 1729 07a8 01       		.byte	0x1
 1730 07a9 02       		.byte	0x2
 1731 07aa 38040000 		.4byte	.LASF106
 1732 07ae 15       		.uleb128 0x15
 1733 07af AF030000 		.4byte	.LASF107
 1734 07b3 01       		.byte	0x1
 1735 07b4 8F3B     		.2byte	0x3b8f
 1736 07b6 53000000 		.4byte	0x53
 1737 07ba 00000000 		.4byte	.LFB290
 1738 07be 34000000 		.4byte	.LFE290-.LFB290
 1739 07c2 01       		.uleb128 0x1
 1740 07c3 9C       		.byte	0x9c
 1741 07c4 07080000 		.4byte	0x807
 1742 07c8 16       		.uleb128 0x16
 1743 07c9 756E6900 		.ascii	"uni\000"
 1744 07cd 01       		.byte	0x1
 1745 07ce 903B     		.2byte	0x3b90
 1746 07d0 53000000 		.4byte	0x53
 1747 07d4 00000000 		.4byte	.LLST0
 1748 07d8 16       		.uleb128 0x16
 1749 07d9 637000   		.ascii	"cp\000"
 1750 07dc 01       		.byte	0x1
 1751 07dd 913B     		.2byte	0x3b91
 1752 07df 41000000 		.4byte	0x41
 1753 07e3 3A000000 		.4byte	.LLST1
 1754 07e7 17       		.uleb128 0x17
 1755 07e8 6300     		.ascii	"c\000"
 1756 07ea 01       		.byte	0x1
 1757 07eb 943B     		.2byte	0x3b94
 1758 07ed 53000000 		.4byte	0x53
 1759 07f1 5B000000 		.4byte	.LLST2
 1760 07f5 18       		.uleb128 0x18
 1761 07f6 7000     		.ascii	"p\000"
 1762 07f8 01       		.byte	0x1
 1763 07f9 953B     		.2byte	0x3b95
 1764 07fb 07080000 		.4byte	0x807
 1765 07ff 06       		.uleb128 0x6
 1766 0800 03       		.byte	0x3
 1767 0801 00000000 		.4byte	uc850
ARM GAS  /tmp/ccQFxnAu.s 			page 32


 1768 0805 9F       		.byte	0x9f
 1769 0806 00       		.byte	0
 1770 0807 0A       		.uleb128 0xa
 1771 0808 04       		.byte	0x4
 1772 0809 0D080000 		.4byte	0x80d
 1773 080d 13       		.uleb128 0x13
 1774 080e 53000000 		.4byte	0x53
 1775 0812 15       		.uleb128 0x15
 1776 0813 19050000 		.4byte	.LASF108
 1777 0817 01       		.byte	0x1
 1778 0818 A43B     		.2byte	0x3ba4
 1779 081a 53000000 		.4byte	0x53
 1780 081e 00000000 		.4byte	.LFB291
 1781 0822 28000000 		.4byte	.LFE291-.LFB291
 1782 0826 01       		.uleb128 0x1
 1783 0827 9C       		.byte	0x9c
 1784 0828 69080000 		.4byte	0x869
 1785 082c 16       		.uleb128 0x16
 1786 082d 6F656D00 		.ascii	"oem\000"
 1787 0831 01       		.byte	0x1
 1788 0832 A53B     		.2byte	0x3ba5
 1789 0834 53000000 		.4byte	0x53
 1790 0838 9F000000 		.4byte	.LLST3
 1791 083c 19       		.uleb128 0x19
 1792 083d 637000   		.ascii	"cp\000"
 1793 0840 01       		.byte	0x1
 1794 0841 A63B     		.2byte	0x3ba6
 1795 0843 41000000 		.4byte	0x41
 1796 0847 01       		.uleb128 0x1
 1797 0848 51       		.byte	0x51
 1798 0849 17       		.uleb128 0x17
 1799 084a 6300     		.ascii	"c\000"
 1800 084c 01       		.byte	0x1
 1801 084d A93B     		.2byte	0x3ba9
 1802 084f 53000000 		.4byte	0x53
 1803 0853 D9000000 		.4byte	.LLST4
 1804 0857 18       		.uleb128 0x18
 1805 0858 7000     		.ascii	"p\000"
 1806 085a 01       		.byte	0x1
 1807 085b AA3B     		.2byte	0x3baa
 1808 085d 07080000 		.4byte	0x807
 1809 0861 06       		.uleb128 0x6
 1810 0862 03       		.byte	0x3
 1811 0863 00000000 		.4byte	uc850
 1812 0867 9F       		.byte	0x9f
 1813 0868 00       		.byte	0
 1814 0869 15       		.uleb128 0x15
 1815 086a 31010000 		.4byte	.LASF109
 1816 086e 01       		.byte	0x1
 1817 086f 773C     		.2byte	0x3c77
 1818 0871 53000000 		.4byte	0x53
 1819 0875 00000000 		.4byte	.LFB292
 1820 0879 84000000 		.4byte	.LFE292-.LFB292
 1821 087d 01       		.uleb128 0x1
 1822 087e 9C       		.byte	0x9c
 1823 087f F4080000 		.4byte	0x8f4
 1824 0883 16       		.uleb128 0x16
ARM GAS  /tmp/ccQFxnAu.s 			page 33


 1825 0884 756E6900 		.ascii	"uni\000"
 1826 0888 01       		.byte	0x1
 1827 0889 783C     		.2byte	0x3c78
 1828 088b 53000000 		.4byte	0x53
 1829 088f 0F010000 		.4byte	.LLST5
 1830 0893 1A       		.uleb128 0x1a
 1831 0894 00040000 		.4byte	.LASF110
 1832 0898 01       		.byte	0x1
 1833 0899 7C3C     		.2byte	0x3c7c
 1834 089b 04090000 		.4byte	0x904
 1835 089f 05       		.uleb128 0x5
 1836 08a0 03       		.byte	0x3
 1837 08a1 00000000 		.4byte	cvt1.7229
 1838 08a5 1A       		.uleb128 0x1a
 1839 08a6 05040000 		.4byte	.LASF111
 1840 08aa 01       		.byte	0x1
 1841 08ab 943C     		.2byte	0x3c94
 1842 08ad 19090000 		.4byte	0x919
 1843 08b1 05       		.uleb128 0x5
 1844 08b2 03       		.byte	0x3
 1845 08b3 00000000 		.4byte	cvt2.7230
 1846 08b7 17       		.uleb128 0x17
 1847 08b8 7000     		.ascii	"p\000"
 1848 08ba 01       		.byte	0x1
 1849 08bb B03C     		.2byte	0x3cb0
 1850 08bd 07080000 		.4byte	0x807
 1851 08c1 03020000 		.4byte	.LLST6
 1852 08c5 17       		.uleb128 0x17
 1853 08c6 626300   		.ascii	"bc\000"
 1854 08c9 01       		.byte	0x1
 1855 08ca B13C     		.2byte	0x3cb1
 1856 08cc 53000000 		.4byte	0x53
 1857 08d0 39020000 		.4byte	.LLST7
 1858 08d4 17       		.uleb128 0x17
 1859 08d5 6E6300   		.ascii	"nc\000"
 1860 08d8 01       		.byte	0x1
 1861 08d9 B13C     		.2byte	0x3cb1
 1862 08db 53000000 		.4byte	0x53
 1863 08df 91020000 		.4byte	.LLST8
 1864 08e3 17       		.uleb128 0x17
 1865 08e4 636D6400 		.ascii	"cmd\000"
 1866 08e8 01       		.byte	0x1
 1867 08e9 B13C     		.2byte	0x3cb1
 1868 08eb 53000000 		.4byte	0x53
 1869 08ef A4020000 		.4byte	.LLST9
 1870 08f3 00       		.byte	0
 1871 08f4 1B       		.uleb128 0x1b
 1872 08f5 53000000 		.4byte	0x53
 1873 08f9 04090000 		.4byte	0x904
 1874 08fd 1C       		.uleb128 0x1c
 1875 08fe 70040000 		.4byte	0x470
 1876 0902 F8       		.byte	0xf8
 1877 0903 00       		.byte	0
 1878 0904 13       		.uleb128 0x13
 1879 0905 F4080000 		.4byte	0x8f4
 1880 0909 1B       		.uleb128 0x1b
 1881 090a 53000000 		.4byte	0x53
ARM GAS  /tmp/ccQFxnAu.s 			page 34


 1882 090e 19090000 		.4byte	0x919
 1883 0912 1C       		.uleb128 0x1c
 1884 0913 70040000 		.4byte	0x470
 1885 0917 5D       		.byte	0x5d
 1886 0918 00       		.byte	0
 1887 0919 13       		.uleb128 0x13
 1888 091a 09090000 		.4byte	0x909
 1889 091e 1B       		.uleb128 0x1b
 1890 091f 53000000 		.4byte	0x53
 1891 0923 2E090000 		.4byte	0x92e
 1892 0927 1C       		.uleb128 0x1c
 1893 0928 70040000 		.4byte	0x470
 1894 092c 7F       		.byte	0x7f
 1895 092d 00       		.byte	0
 1896 092e 1A       		.uleb128 0x1a
 1897 092f B4020000 		.4byte	.LASF112
 1898 0933 01       		.byte	0x1
 1899 0934 EB3A     		.2byte	0x3aeb
 1900 0936 40090000 		.4byte	0x940
 1901 093a 05       		.uleb128 0x5
 1902 093b 03       		.byte	0x3
 1903 093c 00000000 		.4byte	uc850
 1904 0940 13       		.uleb128 0x13
 1905 0941 1E090000 		.4byte	0x91e
 1906 0945 1D       		.uleb128 0x1d
 1907 0946 FC000000 		.4byte	.LASF113
 1908 094a 0F       		.byte	0xf
 1909 094b 0408     		.2byte	0x804
 1910 094d 51090000 		.4byte	0x951
 1911 0951 14       		.uleb128 0x14
 1912 0952 B8000000 		.4byte	0xb8
 1913 0956 1E       		.uleb128 0x1e
 1914 0957 636800   		.ascii	"ch\000"
 1915 095a 07       		.byte	0x7
 1916 095b C701     		.2byte	0x1c7
 1917 095d F4030000 		.4byte	0x3f4
 1918 0961 00       		.byte	0
 1919              		.section	.debug_abbrev,"",%progbits
 1920              	.Ldebug_abbrev0:
 1921 0000 01       		.uleb128 0x1
 1922 0001 11       		.uleb128 0x11
 1923 0002 01       		.byte	0x1
 1924 0003 25       		.uleb128 0x25
 1925 0004 0E       		.uleb128 0xe
 1926 0005 13       		.uleb128 0x13
 1927 0006 0B       		.uleb128 0xb
 1928 0007 03       		.uleb128 0x3
 1929 0008 0E       		.uleb128 0xe
 1930 0009 1B       		.uleb128 0x1b
 1931 000a 0E       		.uleb128 0xe
 1932 000b 55       		.uleb128 0x55
 1933 000c 17       		.uleb128 0x17
 1934 000d 11       		.uleb128 0x11
 1935 000e 01       		.uleb128 0x1
 1936 000f 10       		.uleb128 0x10
 1937 0010 17       		.uleb128 0x17
 1938 0011 00       		.byte	0
ARM GAS  /tmp/ccQFxnAu.s 			page 35


 1939 0012 00       		.byte	0
 1940 0013 02       		.uleb128 0x2
 1941 0014 24       		.uleb128 0x24
 1942 0015 00       		.byte	0
 1943 0016 0B       		.uleb128 0xb
 1944 0017 0B       		.uleb128 0xb
 1945 0018 3E       		.uleb128 0x3e
 1946 0019 0B       		.uleb128 0xb
 1947 001a 03       		.uleb128 0x3
 1948 001b 08       		.uleb128 0x8
 1949 001c 00       		.byte	0
 1950 001d 00       		.byte	0
 1951 001e 03       		.uleb128 0x3
 1952 001f 24       		.uleb128 0x24
 1953 0020 00       		.byte	0
 1954 0021 0B       		.uleb128 0xb
 1955 0022 0B       		.uleb128 0xb
 1956 0023 3E       		.uleb128 0x3e
 1957 0024 0B       		.uleb128 0xb
 1958 0025 03       		.uleb128 0x3
 1959 0026 0E       		.uleb128 0xe
 1960 0027 00       		.byte	0
 1961 0028 00       		.byte	0
 1962 0029 04       		.uleb128 0x4
 1963 002a 16       		.uleb128 0x16
 1964 002b 00       		.byte	0
 1965 002c 03       		.uleb128 0x3
 1966 002d 0E       		.uleb128 0xe
 1967 002e 3A       		.uleb128 0x3a
 1968 002f 0B       		.uleb128 0xb
 1969 0030 3B       		.uleb128 0x3b
 1970 0031 0B       		.uleb128 0xb
 1971 0032 49       		.uleb128 0x49
 1972 0033 13       		.uleb128 0x13
 1973 0034 00       		.byte	0
 1974 0035 00       		.byte	0
 1975 0036 05       		.uleb128 0x5
 1976 0037 13       		.uleb128 0x13
 1977 0038 01       		.byte	0x1
 1978 0039 03       		.uleb128 0x3
 1979 003a 0E       		.uleb128 0xe
 1980 003b 0B       		.uleb128 0xb
 1981 003c 0B       		.uleb128 0xb
 1982 003d 3A       		.uleb128 0x3a
 1983 003e 0B       		.uleb128 0xb
 1984 003f 3B       		.uleb128 0x3b
 1985 0040 0B       		.uleb128 0xb
 1986 0041 01       		.uleb128 0x1
 1987 0042 13       		.uleb128 0x13
 1988 0043 00       		.byte	0
 1989 0044 00       		.byte	0
 1990 0045 06       		.uleb128 0x6
 1991 0046 0D       		.uleb128 0xd
 1992 0047 00       		.byte	0
 1993 0048 03       		.uleb128 0x3
 1994 0049 0E       		.uleb128 0xe
 1995 004a 3A       		.uleb128 0x3a
ARM GAS  /tmp/ccQFxnAu.s 			page 36


 1996 004b 0B       		.uleb128 0xb
 1997 004c 3B       		.uleb128 0x3b
 1998 004d 0B       		.uleb128 0xb
 1999 004e 49       		.uleb128 0x49
 2000 004f 13       		.uleb128 0x13
 2001 0050 38       		.uleb128 0x38
 2002 0051 0B       		.uleb128 0xb
 2003 0052 00       		.byte	0
 2004 0053 00       		.byte	0
 2005 0054 07       		.uleb128 0x7
 2006 0055 0D       		.uleb128 0xd
 2007 0056 00       		.byte	0
 2008 0057 03       		.uleb128 0x3
 2009 0058 08       		.uleb128 0x8
 2010 0059 3A       		.uleb128 0x3a
 2011 005a 0B       		.uleb128 0xb
 2012 005b 3B       		.uleb128 0x3b
 2013 005c 0B       		.uleb128 0xb
 2014 005d 49       		.uleb128 0x49
 2015 005e 13       		.uleb128 0x13
 2016 005f 38       		.uleb128 0x38
 2017 0060 0B       		.uleb128 0xb
 2018 0061 00       		.byte	0
 2019 0062 00       		.byte	0
 2020 0063 08       		.uleb128 0x8
 2021 0064 0D       		.uleb128 0xd
 2022 0065 00       		.byte	0
 2023 0066 03       		.uleb128 0x3
 2024 0067 08       		.uleb128 0x8
 2025 0068 3A       		.uleb128 0x3a
 2026 0069 0B       		.uleb128 0xb
 2027 006a 3B       		.uleb128 0x3b
 2028 006b 05       		.uleb128 0x5
 2029 006c 49       		.uleb128 0x49
 2030 006d 13       		.uleb128 0x13
 2031 006e 38       		.uleb128 0x38
 2032 006f 0B       		.uleb128 0xb
 2033 0070 00       		.byte	0
 2034 0071 00       		.byte	0
 2035 0072 09       		.uleb128 0x9
 2036 0073 0D       		.uleb128 0xd
 2037 0074 00       		.byte	0
 2038 0075 03       		.uleb128 0x3
 2039 0076 0E       		.uleb128 0xe
 2040 0077 3A       		.uleb128 0x3a
 2041 0078 0B       		.uleb128 0xb
 2042 0079 3B       		.uleb128 0x3b
 2043 007a 05       		.uleb128 0x5
 2044 007b 49       		.uleb128 0x49
 2045 007c 13       		.uleb128 0x13
 2046 007d 38       		.uleb128 0x38
 2047 007e 0B       		.uleb128 0xb
 2048 007f 00       		.byte	0
 2049 0080 00       		.byte	0
 2050 0081 0A       		.uleb128 0xa
 2051 0082 0F       		.uleb128 0xf
 2052 0083 00       		.byte	0
ARM GAS  /tmp/ccQFxnAu.s 			page 37


 2053 0084 0B       		.uleb128 0xb
 2054 0085 0B       		.uleb128 0xb
 2055 0086 49       		.uleb128 0x49
 2056 0087 13       		.uleb128 0x13
 2057 0088 00       		.byte	0
 2058 0089 00       		.byte	0
 2059 008a 0B       		.uleb128 0xb
 2060 008b 13       		.uleb128 0x13
 2061 008c 01       		.byte	0x1
 2062 008d 03       		.uleb128 0x3
 2063 008e 0E       		.uleb128 0xe
 2064 008f 0B       		.uleb128 0xb
 2065 0090 0B       		.uleb128 0xb
 2066 0091 3A       		.uleb128 0x3a
 2067 0092 0B       		.uleb128 0xb
 2068 0093 3B       		.uleb128 0x3b
 2069 0094 05       		.uleb128 0x5
 2070 0095 01       		.uleb128 0x1
 2071 0096 13       		.uleb128 0x13
 2072 0097 00       		.byte	0
 2073 0098 00       		.byte	0
 2074 0099 0C       		.uleb128 0xc
 2075 009a 15       		.uleb128 0x15
 2076 009b 01       		.byte	0x1
 2077 009c 27       		.uleb128 0x27
 2078 009d 19       		.uleb128 0x19
 2079 009e 01       		.uleb128 0x1
 2080 009f 13       		.uleb128 0x13
 2081 00a0 00       		.byte	0
 2082 00a1 00       		.byte	0
 2083 00a2 0D       		.uleb128 0xd
 2084 00a3 05       		.uleb128 0x5
 2085 00a4 00       		.byte	0
 2086 00a5 49       		.uleb128 0x49
 2087 00a6 13       		.uleb128 0x13
 2088 00a7 00       		.byte	0
 2089 00a8 00       		.byte	0
 2090 00a9 0E       		.uleb128 0xe
 2091 00aa 0F       		.uleb128 0xf
 2092 00ab 00       		.byte	0
 2093 00ac 0B       		.uleb128 0xb
 2094 00ad 0B       		.uleb128 0xb
 2095 00ae 00       		.byte	0
 2096 00af 00       		.byte	0
 2097 00b0 0F       		.uleb128 0xf
 2098 00b1 13       		.uleb128 0x13
 2099 00b2 01       		.byte	0x1
 2100 00b3 0B       		.uleb128 0xb
 2101 00b4 0B       		.uleb128 0xb
 2102 00b5 3A       		.uleb128 0x3a
 2103 00b6 0B       		.uleb128 0xb
 2104 00b7 3B       		.uleb128 0x3b
 2105 00b8 0B       		.uleb128 0xb
 2106 00b9 01       		.uleb128 0x1
 2107 00ba 13       		.uleb128 0x13
 2108 00bb 00       		.byte	0
 2109 00bc 00       		.byte	0
ARM GAS  /tmp/ccQFxnAu.s 			page 38


 2110 00bd 10       		.uleb128 0x10
 2111 00be 17       		.uleb128 0x17
 2112 00bf 01       		.byte	0x1
 2113 00c0 0B       		.uleb128 0xb
 2114 00c1 0B       		.uleb128 0xb
 2115 00c2 3A       		.uleb128 0x3a
 2116 00c3 0B       		.uleb128 0xb
 2117 00c4 3B       		.uleb128 0x3b
 2118 00c5 0B       		.uleb128 0xb
 2119 00c6 01       		.uleb128 0x1
 2120 00c7 13       		.uleb128 0x13
 2121 00c8 00       		.byte	0
 2122 00c9 00       		.byte	0
 2123 00ca 11       		.uleb128 0x11
 2124 00cb 0D       		.uleb128 0xd
 2125 00cc 00       		.byte	0
 2126 00cd 03       		.uleb128 0x3
 2127 00ce 0E       		.uleb128 0xe
 2128 00cf 3A       		.uleb128 0x3a
 2129 00d0 0B       		.uleb128 0xb
 2130 00d1 3B       		.uleb128 0x3b
 2131 00d2 0B       		.uleb128 0xb
 2132 00d3 49       		.uleb128 0x49
 2133 00d4 13       		.uleb128 0x13
 2134 00d5 00       		.byte	0
 2135 00d6 00       		.byte	0
 2136 00d7 12       		.uleb128 0x12
 2137 00d8 0D       		.uleb128 0xd
 2138 00d9 00       		.byte	0
 2139 00da 03       		.uleb128 0x3
 2140 00db 0E       		.uleb128 0xe
 2141 00dc 3A       		.uleb128 0x3a
 2142 00dd 0B       		.uleb128 0xb
 2143 00de 3B       		.uleb128 0x3b
 2144 00df 05       		.uleb128 0x5
 2145 00e0 49       		.uleb128 0x49
 2146 00e1 13       		.uleb128 0x13
 2147 00e2 00       		.byte	0
 2148 00e3 00       		.byte	0
 2149 00e4 13       		.uleb128 0x13
 2150 00e5 26       		.uleb128 0x26
 2151 00e6 00       		.byte	0
 2152 00e7 49       		.uleb128 0x49
 2153 00e8 13       		.uleb128 0x13
 2154 00e9 00       		.byte	0
 2155 00ea 00       		.byte	0
 2156 00eb 14       		.uleb128 0x14
 2157 00ec 35       		.uleb128 0x35
 2158 00ed 00       		.byte	0
 2159 00ee 49       		.uleb128 0x49
 2160 00ef 13       		.uleb128 0x13
 2161 00f0 00       		.byte	0
 2162 00f1 00       		.byte	0
 2163 00f2 15       		.uleb128 0x15
 2164 00f3 2E       		.uleb128 0x2e
 2165 00f4 01       		.byte	0x1
 2166 00f5 3F       		.uleb128 0x3f
ARM GAS  /tmp/ccQFxnAu.s 			page 39


 2167 00f6 19       		.uleb128 0x19
 2168 00f7 03       		.uleb128 0x3
 2169 00f8 0E       		.uleb128 0xe
 2170 00f9 3A       		.uleb128 0x3a
 2171 00fa 0B       		.uleb128 0xb
 2172 00fb 3B       		.uleb128 0x3b
 2173 00fc 05       		.uleb128 0x5
 2174 00fd 27       		.uleb128 0x27
 2175 00fe 19       		.uleb128 0x19
 2176 00ff 49       		.uleb128 0x49
 2177 0100 13       		.uleb128 0x13
 2178 0101 11       		.uleb128 0x11
 2179 0102 01       		.uleb128 0x1
 2180 0103 12       		.uleb128 0x12
 2181 0104 06       		.uleb128 0x6
 2182 0105 40       		.uleb128 0x40
 2183 0106 18       		.uleb128 0x18
 2184 0107 9742     		.uleb128 0x2117
 2185 0109 19       		.uleb128 0x19
 2186 010a 01       		.uleb128 0x1
 2187 010b 13       		.uleb128 0x13
 2188 010c 00       		.byte	0
 2189 010d 00       		.byte	0
 2190 010e 16       		.uleb128 0x16
 2191 010f 05       		.uleb128 0x5
 2192 0110 00       		.byte	0
 2193 0111 03       		.uleb128 0x3
 2194 0112 08       		.uleb128 0x8
 2195 0113 3A       		.uleb128 0x3a
 2196 0114 0B       		.uleb128 0xb
 2197 0115 3B       		.uleb128 0x3b
 2198 0116 05       		.uleb128 0x5
 2199 0117 49       		.uleb128 0x49
 2200 0118 13       		.uleb128 0x13
 2201 0119 02       		.uleb128 0x2
 2202 011a 17       		.uleb128 0x17
 2203 011b 00       		.byte	0
 2204 011c 00       		.byte	0
 2205 011d 17       		.uleb128 0x17
 2206 011e 34       		.uleb128 0x34
 2207 011f 00       		.byte	0
 2208 0120 03       		.uleb128 0x3
 2209 0121 08       		.uleb128 0x8
 2210 0122 3A       		.uleb128 0x3a
 2211 0123 0B       		.uleb128 0xb
 2212 0124 3B       		.uleb128 0x3b
 2213 0125 05       		.uleb128 0x5
 2214 0126 49       		.uleb128 0x49
 2215 0127 13       		.uleb128 0x13
 2216 0128 02       		.uleb128 0x2
 2217 0129 17       		.uleb128 0x17
 2218 012a 00       		.byte	0
 2219 012b 00       		.byte	0
 2220 012c 18       		.uleb128 0x18
 2221 012d 34       		.uleb128 0x34
 2222 012e 00       		.byte	0
 2223 012f 03       		.uleb128 0x3
ARM GAS  /tmp/ccQFxnAu.s 			page 40


 2224 0130 08       		.uleb128 0x8
 2225 0131 3A       		.uleb128 0x3a
 2226 0132 0B       		.uleb128 0xb
 2227 0133 3B       		.uleb128 0x3b
 2228 0134 05       		.uleb128 0x5
 2229 0135 49       		.uleb128 0x49
 2230 0136 13       		.uleb128 0x13
 2231 0137 02       		.uleb128 0x2
 2232 0138 18       		.uleb128 0x18
 2233 0139 00       		.byte	0
 2234 013a 00       		.byte	0
 2235 013b 19       		.uleb128 0x19
 2236 013c 05       		.uleb128 0x5
 2237 013d 00       		.byte	0
 2238 013e 03       		.uleb128 0x3
 2239 013f 08       		.uleb128 0x8
 2240 0140 3A       		.uleb128 0x3a
 2241 0141 0B       		.uleb128 0xb
 2242 0142 3B       		.uleb128 0x3b
 2243 0143 05       		.uleb128 0x5
 2244 0144 49       		.uleb128 0x49
 2245 0145 13       		.uleb128 0x13
 2246 0146 02       		.uleb128 0x2
 2247 0147 18       		.uleb128 0x18
 2248 0148 00       		.byte	0
 2249 0149 00       		.byte	0
 2250 014a 1A       		.uleb128 0x1a
 2251 014b 34       		.uleb128 0x34
 2252 014c 00       		.byte	0
 2253 014d 03       		.uleb128 0x3
 2254 014e 0E       		.uleb128 0xe
 2255 014f 3A       		.uleb128 0x3a
 2256 0150 0B       		.uleb128 0xb
 2257 0151 3B       		.uleb128 0x3b
 2258 0152 05       		.uleb128 0x5
 2259 0153 49       		.uleb128 0x49
 2260 0154 13       		.uleb128 0x13
 2261 0155 02       		.uleb128 0x2
 2262 0156 18       		.uleb128 0x18
 2263 0157 00       		.byte	0
 2264 0158 00       		.byte	0
 2265 0159 1B       		.uleb128 0x1b
 2266 015a 01       		.uleb128 0x1
 2267 015b 01       		.byte	0x1
 2268 015c 49       		.uleb128 0x49
 2269 015d 13       		.uleb128 0x13
 2270 015e 01       		.uleb128 0x1
 2271 015f 13       		.uleb128 0x13
 2272 0160 00       		.byte	0
 2273 0161 00       		.byte	0
 2274 0162 1C       		.uleb128 0x1c
 2275 0163 21       		.uleb128 0x21
 2276 0164 00       		.byte	0
 2277 0165 49       		.uleb128 0x49
 2278 0166 13       		.uleb128 0x13
 2279 0167 2F       		.uleb128 0x2f
 2280 0168 0B       		.uleb128 0xb
ARM GAS  /tmp/ccQFxnAu.s 			page 41


 2281 0169 00       		.byte	0
 2282 016a 00       		.byte	0
 2283 016b 1D       		.uleb128 0x1d
 2284 016c 34       		.uleb128 0x34
 2285 016d 00       		.byte	0
 2286 016e 03       		.uleb128 0x3
 2287 016f 0E       		.uleb128 0xe
 2288 0170 3A       		.uleb128 0x3a
 2289 0171 0B       		.uleb128 0xb
 2290 0172 3B       		.uleb128 0x3b
 2291 0173 05       		.uleb128 0x5
 2292 0174 49       		.uleb128 0x49
 2293 0175 13       		.uleb128 0x13
 2294 0176 3F       		.uleb128 0x3f
 2295 0177 19       		.uleb128 0x19
 2296 0178 3C       		.uleb128 0x3c
 2297 0179 19       		.uleb128 0x19
 2298 017a 00       		.byte	0
 2299 017b 00       		.byte	0
 2300 017c 1E       		.uleb128 0x1e
 2301 017d 34       		.uleb128 0x34
 2302 017e 00       		.byte	0
 2303 017f 03       		.uleb128 0x3
 2304 0180 08       		.uleb128 0x8
 2305 0181 3A       		.uleb128 0x3a
 2306 0182 0B       		.uleb128 0xb
 2307 0183 3B       		.uleb128 0x3b
 2308 0184 05       		.uleb128 0x5
 2309 0185 49       		.uleb128 0x49
 2310 0186 13       		.uleb128 0x13
 2311 0187 3F       		.uleb128 0x3f
 2312 0188 19       		.uleb128 0x19
 2313 0189 3C       		.uleb128 0x3c
 2314 018a 19       		.uleb128 0x19
 2315 018b 00       		.byte	0
 2316 018c 00       		.byte	0
 2317 018d 00       		.byte	0
 2318              		.section	.debug_loc,"",%progbits
 2319              	.Ldebug_loc0:
 2320              	.LLST0:
 2321 0000 00000000 		.4byte	.LVL0
 2322 0004 0E000000 		.4byte	.LVL1
 2323 0008 0100     		.2byte	0x1
 2324 000a 50       		.byte	0x50
 2325 000b 0E000000 		.4byte	.LVL1
 2326 000f 10000000 		.4byte	.LVL2
 2327 0013 0400     		.2byte	0x4
 2328 0015 F3       		.byte	0xf3
 2329 0016 01       		.uleb128 0x1
 2330 0017 50       		.byte	0x50
 2331 0018 9F       		.byte	0x9f
 2332 0019 10000000 		.4byte	.LVL2
 2333 001d 2A000000 		.4byte	.LVL8
 2334 0021 0100     		.2byte	0x1
 2335 0023 50       		.byte	0x50
 2336 0024 2A000000 		.4byte	.LVL8
 2337 0028 34000000 		.4byte	.LFE290
ARM GAS  /tmp/ccQFxnAu.s 			page 42


 2338 002c 0400     		.2byte	0x4
 2339 002e F3       		.byte	0xf3
 2340 002f 01       		.uleb128 0x1
 2341 0030 50       		.byte	0x50
 2342 0031 9F       		.byte	0x9f
 2343 0032 00000000 		.4byte	0
 2344 0036 00000000 		.4byte	0
 2345              	.LLST1:
 2346 003a 00000000 		.4byte	.LVL0
 2347 003e 12000000 		.4byte	.LVL3
 2348 0042 0100     		.2byte	0x1
 2349 0044 51       		.byte	0x51
 2350 0045 12000000 		.4byte	.LVL3
 2351 0049 34000000 		.4byte	.LFE290
 2352 004d 0400     		.2byte	0x4
 2353 004f F3       		.byte	0xf3
 2354 0050 01       		.uleb128 0x1
 2355 0051 51       		.byte	0x51
 2356 0052 9F       		.byte	0x9f
 2357 0053 00000000 		.4byte	0
 2358 0057 00000000 		.4byte	0
 2359              	.LLST2:
 2360 005b 00000000 		.4byte	.LVL0
 2361 005f 12000000 		.4byte	.LVL3
 2362 0063 0200     		.2byte	0x2
 2363 0065 30       		.byte	0x30
 2364 0066 9F       		.byte	0x9f
 2365 0067 1C000000 		.4byte	.LVL4
 2366 006b 1E000000 		.4byte	.LVL5
 2367 006f 0100     		.2byte	0x1
 2368 0071 52       		.byte	0x52
 2369 0072 1E000000 		.4byte	.LVL5
 2370 0076 20000000 		.4byte	.LVL6
 2371 007a 0300     		.2byte	0x3
 2372 007c 73       		.byte	0x73
 2373 007d 01       		.sleb128 1
 2374 007e 9F       		.byte	0x9f
 2375 007f 20000000 		.4byte	.LVL6
 2376 0083 26000000 		.4byte	.LVL7
 2377 0087 0300     		.2byte	0x3
 2378 0089 72       		.byte	0x72
 2379 008a 01       		.sleb128 1
 2380 008b 9F       		.byte	0x9f
 2381 008c 2C000000 		.4byte	.LVL9
 2382 0090 34000000 		.4byte	.LFE290
 2383 0094 0100     		.2byte	0x1
 2384 0096 50       		.byte	0x50
 2385 0097 00000000 		.4byte	0
 2386 009b 00000000 		.4byte	0
 2387              	.LLST3:
 2388 009f 00000000 		.4byte	.LVL10
 2389 00a3 14000000 		.4byte	.LVL11
 2390 00a7 0100     		.2byte	0x1
 2391 00a9 50       		.byte	0x50
 2392 00aa 14000000 		.4byte	.LVL11
 2393 00ae 1E000000 		.4byte	.LVL13
 2394 00b2 0400     		.2byte	0x4
ARM GAS  /tmp/ccQFxnAu.s 			page 43


 2395 00b4 F3       		.byte	0xf3
 2396 00b5 01       		.uleb128 0x1
 2397 00b6 50       		.byte	0x50
 2398 00b7 9F       		.byte	0x9f
 2399 00b8 1E000000 		.4byte	.LVL13
 2400 00bc 20000000 		.4byte	.LVL14
 2401 00c0 0100     		.2byte	0x1
 2402 00c2 50       		.byte	0x50
 2403 00c3 20000000 		.4byte	.LVL14
 2404 00c7 28000000 		.4byte	.LFE291
 2405 00cb 0400     		.2byte	0x4
 2406 00cd F3       		.byte	0xf3
 2407 00ce 01       		.uleb128 0x1
 2408 00cf 50       		.byte	0x50
 2409 00d0 9F       		.byte	0x9f
 2410 00d1 00000000 		.4byte	0
 2411 00d5 00000000 		.4byte	0
 2412              	.LLST4:
 2413 00d9 00000000 		.4byte	.LVL10
 2414 00dd 1C000000 		.4byte	.LVL12
 2415 00e1 0200     		.2byte	0x2
 2416 00e3 30       		.byte	0x30
 2417 00e4 9F       		.byte	0x9f
 2418 00e5 1C000000 		.4byte	.LVL12
 2419 00e9 1E000000 		.4byte	.LVL13
 2420 00ed 0100     		.2byte	0x1
 2421 00ef 50       		.byte	0x50
 2422 00f0 1E000000 		.4byte	.LVL13
 2423 00f4 20000000 		.4byte	.LVL14
 2424 00f8 0200     		.2byte	0x2
 2425 00fa 30       		.byte	0x30
 2426 00fb 9F       		.byte	0x9f
 2427 00fc 20000000 		.4byte	.LVL14
 2428 0100 28000000 		.4byte	.LFE291
 2429 0104 0100     		.2byte	0x1
 2430 0106 50       		.byte	0x50
 2431 0107 00000000 		.4byte	0
 2432 010b 00000000 		.4byte	0
 2433              	.LLST5:
 2434 010f 00000000 		.4byte	.LVL15
 2435 0113 3E000000 		.4byte	.LVL22
 2436 0117 0100     		.2byte	0x1
 2437 0119 50       		.byte	0x50
 2438 011a 3E000000 		.4byte	.LVL22
 2439 011e 42000000 		.4byte	.LVL23
 2440 0122 0400     		.2byte	0x4
 2441 0124 F3       		.byte	0xf3
 2442 0125 01       		.uleb128 0x1
 2443 0126 50       		.byte	0x50
 2444 0127 9F       		.byte	0x9f
 2445 0128 42000000 		.4byte	.LVL23
 2446 012c 4C000000 		.4byte	.LVL26
 2447 0130 0100     		.2byte	0x1
 2448 0132 50       		.byte	0x50
 2449 0133 4C000000 		.4byte	.LVL26
 2450 0137 4E000000 		.4byte	.LVL27
 2451 013b 0400     		.2byte	0x4
ARM GAS  /tmp/ccQFxnAu.s 			page 44


 2452 013d F3       		.byte	0xf3
 2453 013e 01       		.uleb128 0x1
 2454 013f 50       		.byte	0x50
 2455 0140 9F       		.byte	0x9f
 2456 0141 4E000000 		.4byte	.LVL27
 2457 0145 50000000 		.4byte	.LVL28
 2458 0149 0100     		.2byte	0x1
 2459 014b 50       		.byte	0x50
 2460 014c 50000000 		.4byte	.LVL28
 2461 0150 52000000 		.4byte	.LVL29
 2462 0154 0400     		.2byte	0x4
 2463 0156 F3       		.byte	0xf3
 2464 0157 01       		.uleb128 0x1
 2465 0158 50       		.byte	0x50
 2466 0159 9F       		.byte	0x9f
 2467 015a 52000000 		.4byte	.LVL29
 2468 015e 54000000 		.4byte	.LVL30
 2469 0162 0100     		.2byte	0x1
 2470 0164 50       		.byte	0x50
 2471 0165 54000000 		.4byte	.LVL30
 2472 0169 56000000 		.4byte	.LVL31
 2473 016d 0400     		.2byte	0x4
 2474 016f F3       		.byte	0xf3
 2475 0170 01       		.uleb128 0x1
 2476 0171 50       		.byte	0x50
 2477 0172 9F       		.byte	0x9f
 2478 0173 56000000 		.4byte	.LVL31
 2479 0177 58000000 		.4byte	.LVL32
 2480 017b 0100     		.2byte	0x1
 2481 017d 50       		.byte	0x50
 2482 017e 58000000 		.4byte	.LVL32
 2483 0182 5A000000 		.4byte	.LVL33
 2484 0186 0400     		.2byte	0x4
 2485 0188 F3       		.byte	0xf3
 2486 0189 01       		.uleb128 0x1
 2487 018a 50       		.byte	0x50
 2488 018b 9F       		.byte	0x9f
 2489 018c 5A000000 		.4byte	.LVL33
 2490 0190 5C000000 		.4byte	.LVL34
 2491 0194 0100     		.2byte	0x1
 2492 0196 50       		.byte	0x50
 2493 0197 5C000000 		.4byte	.LVL34
 2494 019b 5E000000 		.4byte	.LVL35
 2495 019f 0400     		.2byte	0x4
 2496 01a1 F3       		.byte	0xf3
 2497 01a2 01       		.uleb128 0x1
 2498 01a3 50       		.byte	0x50
 2499 01a4 9F       		.byte	0x9f
 2500 01a5 5E000000 		.4byte	.LVL35
 2501 01a9 60000000 		.4byte	.LVL36
 2502 01ad 0100     		.2byte	0x1
 2503 01af 50       		.byte	0x50
 2504 01b0 60000000 		.4byte	.LVL36
 2505 01b4 62000000 		.4byte	.LVL37
 2506 01b8 0400     		.2byte	0x4
 2507 01ba F3       		.byte	0xf3
 2508 01bb 01       		.uleb128 0x1
ARM GAS  /tmp/ccQFxnAu.s 			page 45


 2509 01bc 50       		.byte	0x50
 2510 01bd 9F       		.byte	0x9f
 2511 01be 62000000 		.4byte	.LVL37
 2512 01c2 64000000 		.4byte	.LVL38
 2513 01c6 0100     		.2byte	0x1
 2514 01c8 50       		.byte	0x50
 2515 01c9 64000000 		.4byte	.LVL38
 2516 01cd 66000000 		.4byte	.LVL39
 2517 01d1 0400     		.2byte	0x4
 2518 01d3 F3       		.byte	0xf3
 2519 01d4 01       		.uleb128 0x1
 2520 01d5 50       		.byte	0x50
 2521 01d6 9F       		.byte	0x9f
 2522 01d7 66000000 		.4byte	.LVL39
 2523 01db 6A000000 		.4byte	.LVL40
 2524 01df 0100     		.2byte	0x1
 2525 01e1 50       		.byte	0x50
 2526 01e2 6A000000 		.4byte	.LVL40
 2527 01e6 6C000000 		.4byte	.LVL41
 2528 01ea 0400     		.2byte	0x4
 2529 01ec F3       		.byte	0xf3
 2530 01ed 01       		.uleb128 0x1
 2531 01ee 50       		.byte	0x50
 2532 01ef 9F       		.byte	0x9f
 2533 01f0 6C000000 		.4byte	.LVL41
 2534 01f4 84000000 		.4byte	.LFE292
 2535 01f8 0100     		.2byte	0x1
 2536 01fa 50       		.byte	0x50
 2537 01fb 00000000 		.4byte	0
 2538 01ff 00000000 		.4byte	0
 2539              	.LLST6:
 2540 0203 10000000 		.4byte	.LVL16
 2541 0207 1C000000 		.4byte	.LVL18
 2542 020b 0300     		.2byte	0x3
 2543 020d 71       		.byte	0x71
 2544 020e 7E       		.sleb128 -2
 2545 020f 9F       		.byte	0x9f
 2546 0210 1C000000 		.4byte	.LVL18
 2547 0214 70000000 		.4byte	.LVL43
 2548 0218 0100     		.2byte	0x1
 2549 021a 51       		.byte	0x51
 2550 021b 70000000 		.4byte	.LVL43
 2551 021f 78000000 		.4byte	.LVL44
 2552 0223 0100     		.2byte	0x1
 2553 0225 52       		.byte	0x52
 2554 0226 78000000 		.4byte	.LVL44
 2555 022a 7A000000 		.4byte	.LVL45
 2556 022e 0100     		.2byte	0x1
 2557 0230 53       		.byte	0x53
 2558 0231 00000000 		.4byte	0
 2559 0235 00000000 		.4byte	0
 2560              	.LLST7:
 2561 0239 14000000 		.4byte	.LVL17
 2562 023d 46000000 		.4byte	.LVL25
 2563 0241 0100     		.2byte	0x1
 2564 0243 53       		.byte	0x53
 2565 0244 46000000 		.4byte	.LVL25
ARM GAS  /tmp/ccQFxnAu.s 			page 46


 2566 0248 4E000000 		.4byte	.LVL27
 2567 024c 0200     		.2byte	0x2
 2568 024e 71       		.byte	0x71
 2569 024f 7C       		.sleb128 -4
 2570 0250 4E000000 		.4byte	.LVL27
 2571 0254 6A000000 		.4byte	.LVL40
 2572 0258 0100     		.2byte	0x1
 2573 025a 53       		.byte	0x53
 2574 025b 6A000000 		.4byte	.LVL40
 2575 025f 6E000000 		.4byte	.LVL42
 2576 0263 0200     		.2byte	0x2
 2577 0265 71       		.byte	0x71
 2578 0266 7C       		.sleb128 -4
 2579 0267 6E000000 		.4byte	.LVL42
 2580 026b 78000000 		.4byte	.LVL44
 2581 026f 0100     		.2byte	0x1
 2582 0271 53       		.byte	0x53
 2583 0272 78000000 		.4byte	.LVL44
 2584 0276 7A000000 		.4byte	.LVL45
 2585 027a 0200     		.2byte	0x2
 2586 027c 72       		.byte	0x72
 2587 027d 7C       		.sleb128 -4
 2588 027e 7A000000 		.4byte	.LVL45
 2589 0282 84000000 		.4byte	.LFE292
 2590 0286 0100     		.2byte	0x1
 2591 0288 53       		.byte	0x53
 2592 0289 00000000 		.4byte	0
 2593 028d 00000000 		.4byte	0
 2594              	.LLST8:
 2595 0291 20000000 		.4byte	.LVL19
 2596 0295 7A000000 		.4byte	.LVL45
 2597 0299 0100     		.2byte	0x1
 2598 029b 54       		.byte	0x54
 2599 029c 00000000 		.4byte	0
 2600 02a0 00000000 		.4byte	0
 2601              	.LLST9:
 2602 02a4 22000000 		.4byte	.LVL20
 2603 02a8 7A000000 		.4byte	.LVL45
 2604 02ac 0100     		.2byte	0x1
 2605 02ae 55       		.byte	0x55
 2606 02af 00000000 		.4byte	0
 2607 02b3 00000000 		.4byte	0
 2608              		.section	.debug_aranges,"",%progbits
 2609 0000 2C000000 		.4byte	0x2c
 2610 0004 0200     		.2byte	0x2
 2611 0006 00000000 		.4byte	.Ldebug_info0
 2612 000a 04       		.byte	0x4
 2613 000b 00       		.byte	0
 2614 000c 0000     		.2byte	0
 2615 000e 0000     		.2byte	0
 2616 0010 00000000 		.4byte	.LFB290
 2617 0014 34000000 		.4byte	.LFE290-.LFB290
 2618 0018 00000000 		.4byte	.LFB291
 2619 001c 28000000 		.4byte	.LFE291-.LFB291
 2620 0020 00000000 		.4byte	.LFB292
 2621 0024 84000000 		.4byte	.LFE292-.LFB292
 2622 0028 00000000 		.4byte	0
ARM GAS  /tmp/ccQFxnAu.s 			page 47


 2623 002c 00000000 		.4byte	0
 2624              		.section	.debug_ranges,"",%progbits
 2625              	.Ldebug_ranges0:
 2626 0000 00000000 		.4byte	.LFB290
 2627 0004 34000000 		.4byte	.LFE290
 2628 0008 00000000 		.4byte	.LFB291
 2629 000c 28000000 		.4byte	.LFE291
 2630 0010 00000000 		.4byte	.LFB292
 2631 0014 84000000 		.4byte	.LFE292
 2632 0018 00000000 		.4byte	0
 2633 001c 00000000 		.4byte	0
 2634              		.section	.debug_line,"",%progbits
 2635              	.Ldebug_line0:
 2636 0000 7A020000 		.section	.debug_str,"MS",%progbits,1
 2636      0200FB01 
 2636      00000201 
 2636      FB0E0D00 
 2636      01010101 
 2637              	.LASF54:
 2638 0000 72656164 		.ascii	"ready_list_t\000"
 2638      795F6C69 
 2638      73745F74 
 2638      00
 2639              	.LASF96:
 2640 000d 77747472 		.ascii	"wttrp\000"
 2640      7000
 2641              	.LASF60:
 2642 0013 64656C74 		.ascii	"delta\000"
 2642      6100
 2643              	.LASF115:
 2644 0019 2E2E2F2E 		.ascii	"../../modules/ChibiOS/ext/fatfs/src/ffunicode.c\000"
 2644      2E2F6D6F 
 2644      64756C65 
 2644      732F4368 
 2644      6962694F 
 2645              	.LASF18:
 2646 0049 75696E74 		.ascii	"uint64_t\000"
 2646      36345F74 
 2646      00
 2647              	.LASF73:
 2648 0052 6B65726E 		.ascii	"kernel_stats\000"
 2648      656C5F73 
 2648      74617473 
 2648      00
 2649              	.LASF10:
 2650 005f 5F5F7569 		.ascii	"__uint8_t\000"
 2650      6E74385F 
 2650      7400
 2651              	.LASF53:
 2652 0069 70726576 		.ascii	"prev\000"
 2652      00
 2653              	.LASF80:
 2654 006e 706F7274 		.ascii	"port_intctx\000"
 2654      5F696E74 
 2654      63747800 
 2655              	.LASF52:
 2656 007a 63685F74 		.ascii	"ch_threads_queue\000"
ARM GAS  /tmp/ccQFxnAu.s 			page 48


 2656      68726561 
 2656      64735F71 
 2656      75657565 
 2656      00
 2657              	.LASF65:
 2658 008b 73797374 		.ascii	"system_debug_t\000"
 2658      656D5F64 
 2658      65627567 
 2658      5F7400
 2659              	.LASF84:
 2660 009a 776F7273 		.ascii	"worst\000"
 2660      7400
 2661              	.LASF87:
 2662 00a0 74696D65 		.ascii	"time_measurement_t\000"
 2662      5F6D6561 
 2662      73757265 
 2662      6D656E74 
 2662      5F7400
 2663              	.LASF8:
 2664 00b3 6C6F6E67 		.ascii	"long long unsigned int\000"
 2664      206C6F6E 
 2664      6720756E 
 2664      7369676E 
 2664      65642069 
 2665              	.LASF94:
 2666 00ca 65786974 		.ascii	"exitcode\000"
 2666      636F6465 
 2666      00
 2667              	.LASF72:
 2668 00d3 6D61696E 		.ascii	"mainthread\000"
 2668      74687265 
 2668      616400
 2669              	.LASF97:
 2670 00de 73656E74 		.ascii	"sentmsg\000"
 2670      6D736700 
 2671              	.LASF62:
 2672 00e6 76697274 		.ascii	"virtual_timers_list_t\000"
 2672      75616C5F 
 2672      74696D65 
 2672      72735F6C 
 2672      6973745F 
 2673              	.LASF113:
 2674 00fc 49544D5F 		.ascii	"ITM_RxBuffer\000"
 2674      52784275 
 2674      66666572 
 2674      00
 2675              	.LASF50:
 2676 0109 6E657874 		.ascii	"next\000"
 2676      00
 2677              	.LASF20:
 2678 010e 72747469 		.ascii	"rttime_t\000"
 2678      6D655F74 
 2678      00
 2679              	.LASF13:
 2680 0117 6C6F6E67 		.ascii	"long long int\000"
 2680      206C6F6E 
 2680      6720696E 
ARM GAS  /tmp/ccQFxnAu.s 			page 49


 2680      7400
 2681              	.LASF9:
 2682 0125 7369676E 		.ascii	"signed char\000"
 2682      65642063 
 2682      68617200 
 2683              	.LASF109:
 2684 0131 66665F77 		.ascii	"ff_wtoupper\000"
 2684      746F7570 
 2684      70657200 
 2685              	.LASF71:
 2686 013d 76746C69 		.ascii	"vtlist\000"
 2686      737400
 2687              	.LASF40:
 2688 0144 6D736771 		.ascii	"msgqueue\000"
 2688      75657565 
 2688      00
 2689              	.LASF36:
 2690 014d 73746174 		.ascii	"state\000"
 2690      6500
 2691              	.LASF6:
 2692 0153 6C6F6E67 		.ascii	"long int\000"
 2692      20696E74 
 2692      00
 2693              	.LASF22:
 2694 015c 74737461 		.ascii	"tstate_t\000"
 2694      74655F74 
 2694      00
 2695              	.LASF61:
 2696 0165 66756E63 		.ascii	"func\000"
 2696      00
 2697              	.LASF45:
 2698 016a 73746174 		.ascii	"stats\000"
 2698      7300
 2699              	.LASF12:
 2700 0170 5F5F7569 		.ascii	"__uint32_t\000"
 2700      6E743332 
 2700      5F7400
 2701              	.LASF77:
 2702 017b 72656761 		.ascii	"regarm_t\000"
 2702      726D5F74 
 2702      00
 2703              	.LASF66:
 2704 0184 63685F73 		.ascii	"ch_system_debug\000"
 2704      79737465 
 2704      6D5F6465 
 2704      62756700 
 2705              	.LASF39:
 2706 0194 77616974 		.ascii	"waiting\000"
 2706      696E6700 
 2707              	.LASF105:
 2708 019c 6D757465 		.ascii	"mutex_t\000"
 2708      785F7400 
 2709              	.LASF75:
 2710 01a4 73797369 		.ascii	"sysinterval_t\000"
 2710      6E746572 
 2710      76616C5F 
 2710      7400
ARM GAS  /tmp/ccQFxnAu.s 			page 50


 2711              	.LASF27:
 2712 01b2 636E745F 		.ascii	"cnt_t\000"
 2712      7400
 2713              	.LASF0:
 2714 01b8 756E7369 		.ascii	"unsigned int\000"
 2714      676E6564 
 2714      20696E74 
 2714      00
 2715              	.LASF114:
 2716 01c5 474E5520 		.ascii	"GNU C 4.9.3 20150529 (prerelease) -mcpu=cortex-m4 -"
 2716      4320342E 
 2716      392E3320 
 2716      32303135 
 2716      30353239 
 2717 01f8 6D666C6F 		.ascii	"mfloat-abi=hard -mfpu=fpv4-sp-d16 -mno-thumb-interw"
 2717      61742D61 
 2717      62693D68 
 2717      61726420 
 2717      2D6D6670 
 2718 022b 6F726B20 		.ascii	"ork -mthumb -g -Os -fomit-frame-pointer -falign-fun"
 2718      2D6D7468 
 2718      756D6220 
 2718      2D67202D 
 2718      4F73202D 
 2719 025e 6374696F 		.ascii	"ctions=16 -ffunction-sections -fdata-sections -fno-"
 2719      6E733D31 
 2719      36202D66 
 2719      66756E63 
 2719      74696F6E 
 2720 0291 636F6D6D 		.ascii	"common -fsingle-precision-constant\000"
 2720      6F6E202D 
 2720      6673696E 
 2720      676C652D 
 2720      70726563 
 2721              	.LASF112:
 2722 02b4 75633835 		.ascii	"uc850\000"
 2722      3000
 2723              	.LASF98:
 2724 02ba 77747365 		.ascii	"wtsemp\000"
 2724      6D7000
 2725              	.LASF88:
 2726 02c1 6E5F6972 		.ascii	"n_irq\000"
 2726      7100
 2727              	.LASF30:
 2728 02c7 71756575 		.ascii	"queue\000"
 2728      6500
 2729              	.LASF44:
 2730 02cd 6D706F6F 		.ascii	"mpool\000"
 2730      6C00
 2731              	.LASF3:
 2732 02d3 73686F72 		.ascii	"short unsigned int\000"
 2732      7420756E 
 2732      7369676E 
 2732      65642069 
 2732      6E7400
 2733              	.LASF92:
 2734 02e6 6B65726E 		.ascii	"kernel_stats_t\000"
ARM GAS  /tmp/ccQFxnAu.s 			page 51


 2734      656C5F73 
 2734      74617473 
 2734      5F7400
 2735              	.LASF34:
 2736 02f5 6E616D65 		.ascii	"name\000"
 2736      00
 2737              	.LASF48:
 2738 02fa 63685F74 		.ascii	"ch_thread\000"
 2738      68726561 
 2738      6400
 2739              	.LASF25:
 2740 0304 6D73675F 		.ascii	"msg_t\000"
 2740      7400
 2741              	.LASF85:
 2742 030a 6C617374 		.ascii	"last\000"
 2742      00
 2743              	.LASF28:
 2744 030f 75636E74 		.ascii	"ucnt_t\000"
 2744      5F7400
 2745              	.LASF41:
 2746 0316 6570656E 		.ascii	"epending\000"
 2746      64696E67 
 2746      00
 2747              	.LASF68:
 2748 031f 63685F73 		.ascii	"ch_system_t\000"
 2748      79737465 
 2748      6D5F7400 
 2749              	.LASF21:
 2750 032b 746D6F64 		.ascii	"tmode_t\000"
 2750      655F7400 
 2751              	.LASF91:
 2752 0333 6D5F6372 		.ascii	"m_crit_isr\000"
 2752      69745F69 
 2752      737200
 2753              	.LASF55:
 2754 033e 63685F72 		.ascii	"ch_ready_list\000"
 2754      65616479 
 2754      5F6C6973 
 2754      7400
 2755              	.LASF26:
 2756 034c 6576656E 		.ascii	"eventmask_t\000"
 2756      746D6173 
 2756      6B5F7400 
 2757              	.LASF11:
 2758 0358 5F5F696E 		.ascii	"__int32_t\000"
 2758      7433325F 
 2758      7400
 2759              	.LASF78:
 2760 0362 73746B61 		.ascii	"stkalign_t\000"
 2760      6C69676E 
 2760      5F7400
 2761              	.LASF32:
 2762 036d 6E657765 		.ascii	"newer\000"
 2762      7200
 2763              	.LASF43:
 2764 0373 7265616C 		.ascii	"realprio\000"
 2764      7072696F 
ARM GAS  /tmp/ccQFxnAu.s 			page 52


 2764      00
 2765              	.LASF76:
 2766 037c 73697A65 		.ascii	"sizetype\000"
 2766      74797065 
 2766      00
 2767              	.LASF46:
 2768 0385 74687265 		.ascii	"thread_reference_t\000"
 2768      61645F72 
 2768      65666572 
 2768      656E6365 
 2768      5F7400
 2769              	.LASF63:
 2770 0398 63685F76 		.ascii	"ch_virtual_timers_list\000"
 2770      69727475 
 2770      616C5F74 
 2770      696D6572 
 2770      735F6C69 
 2771              	.LASF107:
 2772 03af 66665F75 		.ascii	"ff_uni2oem\000"
 2772      6E69326F 
 2772      656D00
 2773              	.LASF4:
 2774 03ba 574F5244 		.ascii	"WORD\000"
 2774      00
 2775              	.LASF79:
 2776 03bf 706F7274 		.ascii	"port_context\000"
 2776      5F636F6E 
 2776      74657874 
 2776      00
 2777              	.LASF82:
 2778 03cc 746D5F63 		.ascii	"tm_calibration_t\000"
 2778      616C6962 
 2778      72617469 
 2778      6F6E5F74 
 2778      00
 2779              	.LASF31:
 2780 03dd 7072696F 		.ascii	"prio\000"
 2780      00
 2781              	.LASF56:
 2782 03e2 63757272 		.ascii	"current\000"
 2782      656E7400 
 2783              	.LASF14:
 2784 03ea 5F5F7569 		.ascii	"__uint64_t\000"
 2784      6E743634 
 2784      5F7400
 2785              	.LASF86:
 2786 03f5 63756D75 		.ascii	"cumulative\000"
 2786      6C617469 
 2786      766500
 2787              	.LASF110:
 2788 0400 63767431 		.ascii	"cvt1\000"
 2788      00
 2789              	.LASF111:
 2790 0405 63767432 		.ascii	"cvt2\000"
 2790      00
 2791              	.LASF23:
 2792 040a 74726566 		.ascii	"trefs_t\000"
ARM GAS  /tmp/ccQFxnAu.s 			page 53


 2792      735F7400 
 2793              	.LASF38:
 2794 0412 72656673 		.ascii	"refs\000"
 2794      00
 2795              	.LASF58:
 2796 0417 76697274 		.ascii	"virtual_timer_t\000"
 2796      75616C5F 
 2796      74696D65 
 2796      725F7400 
 2797              	.LASF24:
 2798 0427 74707269 		.ascii	"tprio_t\000"
 2798      6F5F7400 
 2799              	.LASF89:
 2800 042f 6E5F6374 		.ascii	"n_ctxswc\000"
 2800      78737763 
 2800      00
 2801              	.LASF106:
 2802 0438 5F426F6F 		.ascii	"_Bool\000"
 2802      6C00
 2803              	.LASF16:
 2804 043e 696E7433 		.ascii	"int32_t\000"
 2804      325F7400 
 2805              	.LASF1:
 2806 0446 756E7369 		.ascii	"unsigned char\000"
 2806      676E6564 
 2806      20636861 
 2806      7200
 2807              	.LASF2:
 2808 0454 73686F72 		.ascii	"short int\000"
 2808      7420696E 
 2808      7400
 2809              	.LASF64:
 2810 045e 6C617374 		.ascii	"lasttime\000"
 2810      74696D65 
 2810      00
 2811              	.LASF100:
 2812 0467 65776D61 		.ascii	"ewmask\000"
 2812      736B00
 2813              	.LASF69:
 2814 046e 63685F73 		.ascii	"ch_system\000"
 2814      79737465 
 2814      6D00
 2815              	.LASF93:
 2816 0478 7264796D 		.ascii	"rdymsg\000"
 2816      736700
 2817              	.LASF59:
 2818 047f 63685F76 		.ascii	"ch_virtual_timer\000"
 2818      69727475 
 2818      616C5F74 
 2818      696D6572 
 2818      00
 2819              	.LASF101:
 2820 0490 63685F73 		.ascii	"ch_semaphore\000"
 2820      656D6170 
 2820      686F7265 
 2820      00
 2821              	.LASF17:
ARM GAS  /tmp/ccQFxnAu.s 			page 54


 2822 049d 75696E74 		.ascii	"uint32_t\000"
 2822      33325F74 
 2822      00
 2823              	.LASF99:
 2824 04a6 77746D74 		.ascii	"wtmtxp\000"
 2824      787000
 2825              	.LASF49:
 2826 04ad 63685F74 		.ascii	"ch_threads_list\000"
 2826      68726561 
 2826      64735F6C 
 2826      69737400 
 2827              	.LASF103:
 2828 04bd 6F776E65 		.ascii	"owner\000"
 2828      7200
 2829              	.LASF7:
 2830 04c3 6C6F6E67 		.ascii	"long unsigned int\000"
 2830      20756E73 
 2830      69676E65 
 2830      6420696E 
 2830      7400
 2831              	.LASF35:
 2832 04d5 77616261 		.ascii	"wabase\000"
 2832      736500
 2833              	.LASF104:
 2834 04dc 63686172 		.ascii	"char\000"
 2834      00
 2835              	.LASF33:
 2836 04e1 6F6C6465 		.ascii	"older\000"
 2836      7200
 2837              	.LASF29:
 2838 04e7 74687265 		.ascii	"thread_t\000"
 2838      61645F74 
 2838      00
 2839              	.LASF83:
 2840 04f0 62657374 		.ascii	"best\000"
 2840      00
 2841              	.LASF74:
 2842 04f5 73797374 		.ascii	"systime_t\000"
 2842      696D655F 
 2842      7400
 2843              	.LASF57:
 2844 04ff 76746675 		.ascii	"vtfunc_t\000"
 2844      6E635F74 
 2844      00
 2845              	.LASF67:
 2846 0508 70616E69 		.ascii	"panic_msg\000"
 2846      635F6D73 
 2846      6700
 2847              	.LASF81:
 2848 0512 6F666673 		.ascii	"offset\000"
 2848      657400
 2849              	.LASF108:
 2850 0519 66665F6F 		.ascii	"ff_oem2uni\000"
 2850      656D3275 
 2850      6E6900
 2851              	.LASF116:
 2852 0524 2F686F6D 		.ascii	"/home/kozinalexey/f4by/ardupilot/build/F4BY\000"
ARM GAS  /tmp/ccQFxnAu.s 			page 55


 2852      652F6B6F 
 2852      7A696E61 
 2852      6C657865 
 2852      792F6634 
 2853              	.LASF19:
 2854 0550 7274636E 		.ascii	"rtcnt_t\000"
 2854      745F7400 
 2855              	.LASF51:
 2856 0558 74687265 		.ascii	"threads_queue_t\000"
 2856      6164735F 
 2856      71756575 
 2856      655F7400 
 2857              	.LASF102:
 2858 0568 63685F6D 		.ascii	"ch_mutex\000"
 2858      75746578 
 2858      00
 2859              	.LASF70:
 2860 0571 726C6973 		.ascii	"rlist\000"
 2860      7400
 2861              	.LASF15:
 2862 0577 75696E74 		.ascii	"uint8_t\000"
 2862      385F7400 
 2863              	.LASF37:
 2864 057f 666C6167 		.ascii	"flags\000"
 2864      7300
 2865              	.LASF95:
 2866 0585 77746F62 		.ascii	"wtobjp\000"
 2866      6A7000
 2867              	.LASF5:
 2868 058c 57434841 		.ascii	"WCHAR\000"
 2868      5200
 2869              	.LASF47:
 2870 0592 74687265 		.ascii	"threads_list_t\000"
 2870      6164735F 
 2870      6C697374 
 2870      5F7400
 2871              	.LASF42:
 2872 05a1 6D74786C 		.ascii	"mtxlist\000"
 2872      69737400 
 2873              	.LASF90:
 2874 05a9 6D5F6372 		.ascii	"m_crit_thd\000"
 2874      69745F74 
 2874      686400
 2875              		.ident	"GCC: (15:4.9.3+svn231177-1) 4.9.3 20150529 (prerelease)"
ARM GAS  /tmp/ccQFxnAu.s 			page 56


DEFINED SYMBOLS
                            *ABS*:0000000000000000 ffunicode.c
     /tmp/ccQFxnAu.s:21     .text.ff_uni2oem:0000000000000000 $t
     /tmp/ccQFxnAu.s:26     .text.ff_uni2oem:0000000000000000 ff_uni2oem
     /tmp/ccQFxnAu.s:78     .text.ff_uni2oem:0000000000000030 $d
     /tmp/ccQFxnAu.s:83     .text.ff_oem2uni:0000000000000000 $t
     /tmp/ccQFxnAu.s:88     .text.ff_oem2uni:0000000000000000 ff_oem2uni
     /tmp/ccQFxnAu.s:125    .text.ff_oem2uni:0000000000000024 $d
     /tmp/ccQFxnAu.s:130    .text.ff_wtoupper:0000000000000000 $t
     /tmp/ccQFxnAu.s:135    .text.ff_wtoupper:0000000000000000 ff_wtoupper
     /tmp/ccQFxnAu.s:184    .text.ff_wtoupper:0000000000000032 $d
     /tmp/ccQFxnAu.s:273    .text.ff_wtoupper:000000000000007c $d
     /tmp/ccQFxnAu.s:279    .rodata.uc850:0000000000000000 $d
     /tmp/ccQFxnAu.s:283    .rodata.uc850:0000000000000000 uc850
     /tmp/ccQFxnAu.s:413    .rodata.cvt2.7230:0000000000000000 $d
     /tmp/ccQFxnAu.s:417    .rodata.cvt2.7230:0000000000000000 cvt2.7230
     /tmp/ccQFxnAu.s:513    .rodata.cvt1.7229:0000000000000000 $d
     /tmp/ccQFxnAu.s:517    .rodata.cvt1.7229:0000000000000000 cvt1.7229
                     .debug_frame:0000000000000010 $d
     /tmp/ccQFxnAu.s:193    .text.ff_wtoupper:000000000000003b $d
     /tmp/ccQFxnAu.s:193    .text.ff_wtoupper:000000000000003c $t

NO UNDEFINED SYMBOLS
