ARM GAS  /tmp/ccvX7cVE.s 			page 1


   1              		.syntax unified
   2              		.cpu cortex-m4
   3              		.eabi_attribute 27, 1
   4              		.eabi_attribute 28, 1
   5              		.fpu fpv4-sp-d16
   6              		.eabi_attribute 20, 1
   7              		.eabi_attribute 21, 1
   8              		.eabi_attribute 23, 3
   9              		.eabi_attribute 24, 1
  10              		.eabi_attribute 25, 1
  11              		.eabi_attribute 26, 1
  12              		.eabi_attribute 30, 4
  13              		.eabi_attribute 34, 1
  14              		.eabi_attribute 18, 4
  15              		.thumb
  16              		.file	"flash.c"
  17              		.text
  18              	.Ltext0:
  19              		.cfi_sections	.debug_frame
  20              		.section	.text.stm32_flash_wait_idle,"ax",%progbits
  21              		.align	1
  22              		.thumb
  23              		.thumb_func
  24              		.type	stm32_flash_wait_idle, %function
  25              	stm32_flash_wait_idle:
  26              	.LFB327:
  27              		.file 1 "../../libraries/AP_HAL_ChibiOS/hwdef/common/flash.c"
  28              		.loc 1 160 0
  29              		.cfi_startproc
  30              		@ args = 0, pretend = 0, frame = 0
  31              		@ frame_needed = 0, uses_anonymous_args = 0
  32              		@ link register save eliminated.
  33              	.LBB39:
  34              	.LBB40:
  35              		.file 2 "../../modules/ChibiOS/os/common/ext/ARM/CMSIS/Core/Include/cmsis_gcc.h"
  36              		.loc 2 879 0
  37              	@ 879 "../../modules/ChibiOS/os/common/ext/ARM/CMSIS/Core/Include/cmsis_gcc.h" 1
  38 0000 BFF34F8F 		dsb 0xF
  39              	@ 0 "" 2
  40              		.thumb
  41              	.L2:
  42              	.LBE40:
  43              	.LBE39:
  44              		.loc 1 168 0 discriminator 1
  45 0004 024B     		ldr	r3, .L5
  46 0006 DB68     		ldr	r3, [r3, #12]
  47 0008 DB03     		lsls	r3, r3, #15
  48 000a FBD4     		bmi	.L2
  49              		.loc 1 172 0
  50 000c 7047     		bx	lr
  51              	.L6:
  52 000e 00BF     		.align	2
  53              	.L5:
  54 0010 003C0240 		.word	1073888256
  55              		.cfi_endproc
  56              	.LFE327:
  57              		.size	stm32_flash_wait_idle, .-stm32_flash_wait_idle
ARM GAS  /tmp/ccvX7cVE.s 			page 2


  58              		.section	.text.stm32_flash_unlock,"ax",%progbits
  59              		.align	1
  60              		.thumb
  61              		.thumb_func
  62              		.type	stm32_flash_unlock, %function
  63              	stm32_flash_unlock:
  64              	.LFB329:
  65              		.loc 1 185 0
  66              		.cfi_startproc
  67              		@ args = 0, pretend = 0, frame = 0
  68              		@ frame_needed = 0, uses_anonymous_args = 0
  69 0000 08B5     		push	{r3, lr}
  70              		.cfi_def_cfa_offset 8
  71              		.cfi_offset 3, -8
  72              		.cfi_offset 14, -4
  73              		.loc 1 186 0
  74 0002 094B     		ldr	r3, .L10
  75 0004 1B78     		ldrb	r3, [r3]	@ zero_extendqisi2
  76 0006 73B9     		cbnz	r3, .L7
  77              	.LBB43:
  78              	.LBB44:
  79              		.loc 1 189 0
  80 0008 FFF7FEFF 		bl	stm32_flash_wait_idle
  81              	.LVL0:
  82              		.loc 1 203 0
  83 000c 074B     		ldr	r3, .L10+4
  84 000e 1A69     		ldr	r2, [r3, #16]
  85 0010 002A     		cmp	r2, #0
  86              		.loc 1 205 0
  87 0012 BFBF     		itttt	lt
  88 0014 064A     		ldrlt	r2, .L10+8
  89 0016 5A60     		strlt	r2, [r3, #4]
  90              		.loc 1 206 0
  91 0018 02F18832 		addlt	r2, r2, #-2004318072
  92 001c 5A60     		strlt	r2, [r3, #4]
  93              		.loc 1 212 0
  94 001e 1A68     		ldr	r2, [r3]
  95 0020 22F48062 		bic	r2, r2, #1024
  96 0024 1A60     		str	r2, [r3]
  97              	.L7:
  98 0026 08BD     		pop	{r3, pc}
  99              	.L11:
 100              		.align	2
 101              	.L10:
 102 0028 00000000 		.word	.LANCHOR0
 103 002c 003C0240 		.word	1073888256
 104 0030 23016745 		.word	1164378403
 105              	.LBE44:
 106              	.LBE43:
 107              		.cfi_endproc
 108              	.LFE329:
 109              		.size	stm32_flash_unlock, .-stm32_flash_unlock
 110              		.section	.text.stm32_flash_lock,"ax",%progbits
 111              		.align	1
 112              		.global	stm32_flash_lock
 113              		.thumb
 114              		.thumb_func
ARM GAS  /tmp/ccvX7cVE.s 			page 3


 115              		.type	stm32_flash_lock, %function
 116              	stm32_flash_lock:
 117              	.LFB330:
 118              		.loc 1 217 0
 119              		.cfi_startproc
 120              		@ args = 0, pretend = 0, frame = 0
 121              		@ frame_needed = 0, uses_anonymous_args = 0
 122 0000 08B5     		push	{r3, lr}
 123              		.cfi_def_cfa_offset 8
 124              		.cfi_offset 3, -8
 125              		.cfi_offset 14, -4
 126              		.loc 1 218 0
 127 0002 0B4B     		ldr	r3, .L14
 128 0004 1B78     		ldrb	r3, [r3]	@ zero_extendqisi2
 129 0006 93B9     		cbnz	r3, .L12
 130              	.LBB47:
 131              	.LBB48:
 132              		.loc 1 232 0
 133 0008 FFF7FEFF 		bl	stm32_flash_wait_idle
 134              	.LVL1:
 135              		.loc 1 233 0
 136 000c 094B     		ldr	r3, .L14+4
 137 000e 1A69     		ldr	r2, [r3, #16]
 138 0010 42F00042 		orr	r2, r2, #-2147483648
 139 0014 1A61     		str	r2, [r3, #16]
 140              		.loc 1 238 0
 141 0016 1A68     		ldr	r2, [r3]
 142 0018 42F48052 		orr	r2, r2, #4096
 143 001c 1A60     		str	r2, [r3]
 144              		.loc 1 239 0
 145 001e 1A68     		ldr	r2, [r3]
 146 0020 22F48052 		bic	r2, r2, #4096
 147 0024 1A60     		str	r2, [r3]
 148              		.loc 1 240 0
 149 0026 1A68     		ldr	r2, [r3]
 150 0028 42F48062 		orr	r2, r2, #1024
 151 002c 1A60     		str	r2, [r3]
 152              	.L12:
 153 002e 08BD     		pop	{r3, pc}
 154              	.L15:
 155              		.align	2
 156              	.L14:
 157 0030 00000000 		.word	.LANCHOR0
 158 0034 003C0240 		.word	1073888256
 159              	.LBE48:
 160              	.LBE47:
 161              		.cfi_endproc
 162              	.LFE330:
 163              		.size	stm32_flash_lock, .-stm32_flash_lock
 164              		.section	.text.stm32_flash_getpageaddr,"ax",%progbits
 165              		.align	1
 166              		.global	stm32_flash_getpageaddr
 167              		.thumb
 168              		.thumb_func
 169              		.type	stm32_flash_getpageaddr, %function
 170              	stm32_flash_getpageaddr:
 171              	.LFB331:
ARM GAS  /tmp/ccvX7cVE.s 			page 4


 172              		.loc 1 250 0
 173              		.cfi_startproc
 174              		@ args = 0, pretend = 0, frame = 0
 175              		@ frame_needed = 0, uses_anonymous_args = 0
 176              	.LVL2:
 177              		.loc 1 251 0
 178 0000 0B28     		cmp	r0, #11
 179              		.loc 1 250 0
 180 0002 30B5     		push	{r4, r5, lr}
 181              		.cfi_def_cfa_offset 12
 182              		.cfi_offset 4, -12
 183              		.cfi_offset 5, -8
 184              		.cfi_offset 14, -4
 185              		.loc 1 251 0
 186 0004 13D8     		bhi	.L20
 187              	.LVL3:
 188              	.LBB54:
 189              	.LBB55:
 190              		.loc 1 257 0
 191 0006 0B4A     		ldr	r2, .L22
 192 0008 0B4C     		ldr	r4, .L22+4
 193 000a 1378     		ldrb	r3, [r2]	@ zero_extendqisi2
 194 000c 63B9     		cbnz	r3, .L18
 195 000e 4FF00061 		mov	r1, #134217728
 196              	.L19:
 197              	.LVL4:
 198              	.LBB56:
 199              	.LBB57:
 200              	.LBB58:
 201              		.loc 1 281 0
 202 0012 0A4D     		ldr	r5, .L22+8
 203              	.LBE58:
 204              	.LBE57:
 205              		.loc 1 262 0
 206 0014 44F82310 		str	r1, [r4, r3, lsl #2]
 207              	.LVL5:
 208              		.loc 1 263 0
 209 0018 55F82350 		ldr	r5, [r5, r3, lsl #2]
 210 001c 0133     		adds	r3, r3, #1
 211              	.LVL6:
 212              		.loc 1 261 0
 213 001e 0C2B     		cmp	r3, #12
 214              		.loc 1 263 0
 215 0020 2944     		add	r1, r1, r5
 216              	.LVL7:
 217              		.loc 1 261 0
 218 0022 F6D1     		bne	.L19
 219              		.loc 1 265 0
 220 0024 0123     		movs	r3, #1
 221              	.LVL8:
 222 0026 1370     		strb	r3, [r2]
 223              	.LVL9:
 224              	.L18:
 225              	.LBE56:
 226              		.loc 1 268 0
 227 0028 54F82000 		ldr	r0, [r4, r0, lsl #2]
 228              	.LVL10:
ARM GAS  /tmp/ccvX7cVE.s 			page 5


 229 002c 30BD     		pop	{r4, r5, pc}
 230              	.LVL11:
 231              	.L20:
 232              	.LBE55:
 233              	.LBE54:
 234              		.loc 1 252 0
 235 002e 0020     		movs	r0, #0
 236              	.LVL12:
 237              		.loc 1 270 0
 238 0030 30BD     		pop	{r4, r5, pc}
 239              	.L23:
 240 0032 00BF     		.align	2
 241              	.L22:
 242 0034 00000000 		.word	.LANCHOR1
 243 0038 00000000 		.word	.LANCHOR2
 244 003c 00000000 		.word	.LANCHOR3
 245              		.cfi_endproc
 246              	.LFE331:
 247              		.size	stm32_flash_getpageaddr, .-stm32_flash_getpageaddr
 248              		.section	.text.stm32_flash_getpagesize,"ax",%progbits
 249              		.align	1
 250              		.global	stm32_flash_getpagesize
 251              		.thumb
 252              		.thumb_func
 253              		.type	stm32_flash_getpagesize, %function
 254              	stm32_flash_getpagesize:
 255              	.LFB332:
 256              		.loc 1 276 0
 257              		.cfi_startproc
 258              		@ args = 0, pretend = 0, frame = 0
 259              		@ frame_needed = 0, uses_anonymous_args = 0
 260              		@ link register save eliminated.
 261              	.LVL13:
 262              		.loc 1 283 0
 263 0000 014B     		ldr	r3, .L25
 264 0002 53F82000 		ldr	r0, [r3, r0, lsl #2]
 265              	.LVL14:
 266 0006 7047     		bx	lr
 267              	.L26:
 268              		.align	2
 269              	.L25:
 270 0008 00000000 		.word	.LANCHOR3
 271              		.cfi_endproc
 272              	.LFE332:
 273              		.size	stm32_flash_getpagesize, .-stm32_flash_getpagesize
 274              		.section	.text.stm32_flash_getnumpages,"ax",%progbits
 275              		.align	1
 276              		.global	stm32_flash_getnumpages
 277              		.thumb
 278              		.thumb_func
 279              		.type	stm32_flash_getnumpages, %function
 280              	stm32_flash_getnumpages:
 281              	.LFB333:
 282              		.loc 1 289 0
 283              		.cfi_startproc
 284              		@ args = 0, pretend = 0, frame = 0
 285              		@ frame_needed = 0, uses_anonymous_args = 0
ARM GAS  /tmp/ccvX7cVE.s 			page 6


 286              		@ link register save eliminated.
 287              		.loc 1 291 0
 288 0000 0C20     		movs	r0, #12
 289 0002 7047     		bx	lr
 290              		.cfi_endproc
 291              	.LFE333:
 292              		.size	stm32_flash_getnumpages, .-stm32_flash_getnumpages
 293              		.section	.text.stm32_flash_ispageerased,"ax",%progbits
 294              		.align	1
 295              		.global	stm32_flash_ispageerased
 296              		.thumb
 297              		.thumb_func
 298              		.type	stm32_flash_ispageerased, %function
 299              	stm32_flash_ispageerased:
 300              	.LFB334:
 301              		.loc 1 294 0
 302              		.cfi_startproc
 303              		@ args = 0, pretend = 0, frame = 0
 304              		@ frame_needed = 0, uses_anonymous_args = 0
 305              	.LVL15:
 306              		.loc 1 298 0
 307 0000 0B28     		cmp	r0, #11
 308              		.loc 1 294 0
 309 0002 10B5     		push	{r4, lr}
 310              		.cfi_def_cfa_offset 8
 311              		.cfi_offset 4, -8
 312              		.cfi_offset 14, -4
 313              		.loc 1 294 0
 314 0004 0446     		mov	r4, r0
 315              		.loc 1 298 0
 316 0006 01D9     		bls	.L29
 317              	.LVL16:
 318              	.L32:
 319              		.loc 1 299 0
 320 0008 0020     		movs	r0, #0
 321 000a 10BD     		pop	{r4, pc}
 322              	.LVL17:
 323              	.L29:
 324              	.LBB66:
 325              	.LBB67:
 326              		.loc 1 302 0
 327 000c FFF7FEFF 		bl	stm32_flash_getpageaddr
 328              	.LVL18:
 329              	.LBB68:
 330              	.LBB69:
 331              		.loc 1 281 0
 332 0010 064B     		ldr	r3, .L35
 333 0012 53F82410 		ldr	r1, [r3, r4, lsl #2]
 334              	.LBE69:
 335              	.LBE68:
 336              		.loc 1 302 0
 337 0016 0A46     		mov	r2, r1
 338              	.LVL19:
 339              	.L31:
 340 0018 4318     		adds	r3, r0, r1
 341 001a 9B1A     		subs	r3, r3, r2
 342              	.LVL20:
ARM GAS  /tmp/ccvX7cVE.s 			page 7


 343 001c 22B1     		cbz	r2, .L34
 344              	.LVL21:
 345              	.LBB70:
 346              	.LBB71:
 347              	.LBB72:
 348              		.loc 1 149 0
 349              	@ 149 "../../libraries/AP_HAL_ChibiOS/hwdef/common/flash.c" 1
 350 001e 1B68     			ldr r3, [r3]
 351              		
 352              	@ 0 "" 2
 353              	.LVL22:
 354              		.thumb
 355              	.LBE72:
 356              	.LBE71:
 357              		.loc 1 305 0
 358 0020 0133     		adds	r3, r3, #1
 359              	.LVL23:
 360 0022 F1D1     		bne	.L32
 361              	.LBE70:
 362              		.loc 1 303 0
 363 0024 043A     		subs	r2, r2, #4
 364              	.LVL24:
 365 0026 F7E7     		b	.L31
 366              	.LVL25:
 367              	.L34:
 368              		.loc 1 310 0
 369 0028 0120     		movs	r0, #1
 370              	.LBE67:
 371              	.LBE66:
 372              		.loc 1 311 0
 373 002a 10BD     		pop	{r4, pc}
 374              	.LVL26:
 375              	.L36:
 376              		.align	2
 377              	.L35:
 378 002c 00000000 		.word	.LANCHOR3
 379              		.cfi_endproc
 380              	.LFE334:
 381              		.size	stm32_flash_ispageerased, .-stm32_flash_ispageerased
 382              		.section	.text.stm32_flash_erasepage,"ax",%progbits
 383              		.align	1
 384              		.global	stm32_flash_erasepage
 385              		.thumb
 386              		.thumb_func
 387              		.type	stm32_flash_erasepage, %function
 388              	stm32_flash_erasepage:
 389              	.LFB335:
 390              		.loc 1 317 0
 391              		.cfi_startproc
 392              		@ args = 0, pretend = 0, frame = 0
 393              		@ frame_needed = 0, uses_anonymous_args = 0
 394              	.LVL27:
 395              		.loc 1 318 0
 396 0000 0B28     		cmp	r0, #11
 397              		.loc 1 317 0
 398 0002 38B5     		push	{r3, r4, r5, lr}
 399              		.cfi_def_cfa_offset 16
ARM GAS  /tmp/ccvX7cVE.s 			page 8


 400              		.cfi_offset 3, -16
 401              		.cfi_offset 4, -12
 402              		.cfi_offset 5, -8
 403              		.cfi_offset 14, -4
 404              		.loc 1 317 0
 405 0004 0446     		mov	r4, r0
 406              		.loc 1 318 0
 407 0006 24D8     		bhi	.L38
 408              	.LBB73:
 409              	.LBB74:
 410              		.loc 1 180 0
 411 0008 134D     		ldr	r5, .L39
 412              	.LBE74:
 413              	.LBE73:
 414              		.loc 1 325 0
 415 000a FFF7FEFF 		bl	stm32_flash_wait_idle
 416              	.LVL28:
 417              		.loc 1 326 0
 418 000e FFF7FEFF 		bl	stm32_flash_unlock
 419              	.LVL29:
 420              	.LBB76:
 421              	.LBB75:
 422              		.loc 1 180 0
 423 0012 F323     		movs	r3, #243
 424 0014 EB60     		str	r3, [r5, #12]
 425              	.LBE75:
 426              	.LBE76:
 427              		.loc 1 358 0
 428 0016 FFF7FEFF 		bl	stm32_flash_wait_idle
 429              	.LVL30:
 430              		.loc 1 361 0
 431 001a 0C22     		movs	r2, #12
 432 001c B4FBF2F3 		udiv	r3, r4, r2
 433 0020 02FB1343 		mls	r3, r2, r3, r4
 434 0024 DB00     		lsls	r3, r3, #3
 435              		.loc 1 364 0
 436 0026 DBB2     		uxtb	r3, r3
 437 0028 43F40073 		orr	r3, r3, #512
 438 002c 43F00203 		orr	r3, r3, #2
 439 0030 2B61     		str	r3, [r5, #16]
 440              		.loc 1 365 0
 441 0032 2B69     		ldr	r3, [r5, #16]
 442 0034 43F48033 		orr	r3, r3, #65536
 443 0038 2B61     		str	r3, [r5, #16]
 444              		.loc 1 368 0
 445 003a FFF7FEFF 		bl	stm32_flash_wait_idle
 446              	.LVL31:
 447              		.loc 1 370 0
 448 003e 2046     		mov	r0, r4
 449 0040 FFF7FEFF 		bl	stm32_flash_getpageaddr
 450              	.LVL32:
 451              		.loc 1 372 0
 452 0044 FFF7FEFF 		bl	stm32_flash_lock
 453              	.LVL33:
 454              		.loc 1 376 0
 455 0048 2046     		mov	r0, r4
 456              		.loc 1 377 0
ARM GAS  /tmp/ccvX7cVE.s 			page 9


 457 004a BDE83840 		pop	{r3, r4, r5, lr}
 458              		.cfi_remember_state
 459              		.cfi_restore 14
 460              		.cfi_restore 5
 461              		.cfi_restore 4
 462              		.cfi_restore 3
 463              		.cfi_def_cfa_offset 0
 464              	.LVL34:
 465              		.loc 1 376 0
 466 004e FFF7FEBF 		b	stm32_flash_ispageerased
 467              	.LVL35:
 468              	.L38:
 469              		.cfi_restore_state
 470              		.loc 1 377 0
 471 0052 0020     		movs	r0, #0
 472              	.LVL36:
 473 0054 38BD     		pop	{r3, r4, r5, pc}
 474              	.LVL37:
 475              	.L40:
 476 0056 00BF     		.align	2
 477              	.L39:
 478 0058 003C0240 		.word	1073888256
 479              		.cfi_endproc
 480              	.LFE335:
 481              		.size	stm32_flash_erasepage, .-stm32_flash_erasepage
 482              		.section	.text.stm32_flash_write,"ax",%progbits
 483              		.align	1
 484              		.global	stm32_flash_write
 485              		.thumb
 486              		.thumb_func
 487              		.type	stm32_flash_write, %function
 488              	stm32_flash_write:
 489              	.LFB336:
 490              		.loc 1 444 0
 491              		.cfi_startproc
 492              		@ args = 0, pretend = 0, frame = 0
 493              		@ frame_needed = 0, uses_anonymous_args = 0
 494              	.LVL38:
 495              		.loc 1 448 0
 496 0000 12F00103 		ands	r3, r2, #1
 497              		.loc 1 444 0
 498 0004 2DE9F047 		push	{r4, r5, r6, r7, r8, r9, r10, lr}
 499              		.cfi_def_cfa_offset 32
 500              		.cfi_offset 4, -32
 501              		.cfi_offset 5, -28
 502              		.cfi_offset 6, -24
 503              		.cfi_offset 7, -20
 504              		.cfi_offset 8, -16
 505              		.cfi_offset 9, -12
 506              		.cfi_offset 10, -8
 507              		.cfi_offset 14, -4
 508              		.loc 1 444 0
 509 0008 0746     		mov	r7, r0
 510              	.LVL39:
 511 000a 8846     		mov	r8, r1
 512 000c 1646     		mov	r6, r2
 513              		.loc 1 448 0
ARM GAS  /tmp/ccvX7cVE.s 			page 10


 514 000e 5DD1     		bne	.L56
 515              		.loc 1 452 0
 516 0010 0244     		add	r2, r2, r0
 517              	.LVL40:
 518 0012 B2F1016F 		cmp	r2, #135266304
 519 0016 59D2     		bcs	.L56
 520              		.loc 1 458 0
 521 0018 2E4B     		ldr	r3, .L58
 522 001a 1B68     		ldr	r3, [r3]
 523 001c 13F00103 		ands	r3, r3, #1
 524 0020 54D0     		beq	.L56
 525              		.loc 1 466 0
 526 0022 FFF7FEFF 		bl	stm32_flash_unlock
 527              	.LVL41:
 528              	.LBB77:
 529              	.LBB78:
 530              		.loc 1 180 0
 531 0026 2C4B     		ldr	r3, .L58+4
 532 0028 F322     		movs	r2, #243
 533 002a DA60     		str	r2, [r3, #12]
 534              	.LBE78:
 535              	.LBE77:
 536              		.loc 1 471 0
 537 002c FFF7FEFF 		bl	stm32_flash_wait_idle
 538              	.LVL42:
 539              	.L43:
 540              		.loc 1 474 0
 541 0030 032E     		cmp	r6, #3
 542 0032 01D8     		bhi	.L46
 543              	.L49:
 544              		.loc 1 444 0
 545 0034 C146     		mov	r9, r8
 546 0036 19E0     		b	.L47
 547              	.L46:
 548              		.loc 1 474 0 discriminator 1
 549 0038 BB07     		lsls	r3, r7, #30
 550 003a FBD1     		bne	.L49
 551              	.LBB79:
 552              		.loc 1 475 0
 553 003c 264C     		ldr	r4, .L58+4
 554 003e 2369     		ldr	r3, [r4, #16]
 555 0040 23F44073 		bic	r3, r3, #768
 556 0044 2361     		str	r3, [r4, #16]
 557              		.loc 1 476 0
 558 0046 2369     		ldr	r3, [r4, #16]
 559 0048 43F40073 		orr	r3, r3, #512
 560 004c 43F00103 		orr	r3, r3, #1
 561 0050 2361     		str	r3, [r4, #16]
 562              		.loc 1 477 0
 563 0052 58F8045B 		ldr	r5, [r8], #4
 564              	.LVL43:
 565              	.LBB80:
 566              	.LBB81:
 567              		.loc 1 156 0
 568 0056 3D60     		str	r5, [r7]
 569              	.LBE81:
 570              	.LBE80:
ARM GAS  /tmp/ccvX7cVE.s 			page 11


 571              	.LBB82:
 572              	.LBB83:
 573              		.loc 2 879 0
 574              	@ 879 "../../modules/ChibiOS/os/common/ext/ARM/CMSIS/Core/Include/cmsis_gcc.h" 1
 575 0058 BFF34F8F 		dsb 0xF
 576              	@ 0 "" 2
 577              		.thumb
 578              	.LBE83:
 579              	.LBE82:
 580              		.loc 1 484 0
 581 005c FFF7FEFF 		bl	stm32_flash_wait_idle
 582              	.LVL44:
 583              	.LBB84:
 584              	.LBB85:
 585              		.loc 1 149 0
 586              	@ 149 "../../libraries/AP_HAL_ChibiOS/hwdef/common/flash.c" 1
 587 0060 3B68     			ldr r3, [r7]
 588              		
 589              	@ 0 "" 2
 590              	.LVL45:
 591              		.thumb
 592              	.LBE85:
 593              	.LBE84:
 594              		.loc 1 487 0
 595 0062 AB42     		cmp	r3, r5
 596 0064 23D1     		bne	.L55
 597              		.loc 1 492 0
 598 0066 043E     		subs	r6, r6, #4
 599              	.LVL46:
 600              		.loc 1 494 0
 601 0068 0437     		adds	r7, r7, #4
 602              	.LVL47:
 603 006a E1E7     		b	.L43
 604              	.LVL48:
 605              	.L47:
 606 006c C9EB0603 		rsb	r3, r9, r6
 607 0070 4344     		add	r3, r3, r8
 608 0072 194C     		ldr	r4, .L58+4
 609 0074 C8EB0705 		rsb	r5, r8, r7
 610              	.LBE79:
 611              		.loc 1 498 0
 612 0078 012B     		cmp	r3, #1
 613 007a 4D44     		add	r5, r5, r9
 614              	.LVL49:
 615              		.loc 1 499 0
 616 007c 2369     		ldr	r3, [r4, #16]
 617              		.loc 1 498 0
 618 007e 1DD9     		bls	.L57
 619              		.loc 1 499 0
 620 0080 23F44073 		bic	r3, r3, #768
 621 0084 2361     		str	r3, [r4, #16]
 622              		.loc 1 500 0
 623 0086 2369     		ldr	r3, [r4, #16]
 624 0088 43F48073 		orr	r3, r3, #256
 625 008c 43F00103 		orr	r3, r3, #1
 626 0090 2361     		str	r3, [r4, #16]
 627 0092 CA46     		mov	r10, r9
ARM GAS  /tmp/ccvX7cVE.s 			page 12


 628              	.LVL50:
 629              	.LBB86:
 630              	.LBB87:
 631              		.loc 1 142 0
 632 0094 39F8023B 		ldrh	r3, [r9], #2
 633              	.LVL51:
 634              	@ 142 "../../libraries/AP_HAL_ChibiOS/hwdef/common/flash.c" 1
 635 0098 2B80     			strh r3, [r5]
 636              		
 637              	@ 0 "" 2
 638              		.thumb
 639              	.LBE87:
 640              	.LBE86:
 641              	.LBB88:
 642              	.LBB89:
 643              		.loc 2 879 0
 644              	@ 879 "../../modules/ChibiOS/os/common/ext/ARM/CMSIS/Core/Include/cmsis_gcc.h" 1
 645 009a BFF34F8F 		dsb 0xF
 646              	@ 0 "" 2
 647              		.thumb
 648              	.LBE89:
 649              	.LBE88:
 650              		.loc 1 507 0
 651 009e FFF7FEFF 		bl	stm32_flash_wait_idle
 652              	.LVL52:
 653              	.LBB90:
 654              	.LBB91:
 655              		.loc 1 135 0
 656              	@ 135 "../../libraries/AP_HAL_ChibiOS/hwdef/common/flash.c" 1
 657 00a2 2D88     			ldrh r5, [r5]
 658              		
 659              	@ 0 "" 2
 660              	.LVL53:
 661              		.thumb
 662              	.LBE91:
 663              	.LBE90:
 664              		.loc 1 509 0
 665 00a4 BAF80030 		ldrh	r3, [r10]
 666              	.LBB93:
 667              	.LBB92:
 668              		.loc 1 135 0
 669 00a8 ADB2     		uxth	r5, r5
 670              	.LVL54:
 671              	.LBE92:
 672              	.LBE93:
 673              		.loc 1 509 0
 674 00aa AB42     		cmp	r3, r5
 675 00ac DED0     		beq	.L47
 676              	.LVL55:
 677              	.L55:
 678              	.L45:
 679              		.loc 1 510 0
 680 00ae 2369     		ldr	r3, [r4, #16]
 681 00b0 23F00103 		bic	r3, r3, #1
 682 00b4 2361     		str	r3, [r4, #16]
 683              		.loc 1 528 0
 684 00b6 FFF7FEFF 		bl	stm32_flash_lock
ARM GAS  /tmp/ccvX7cVE.s 			page 13


 685              	.LVL56:
 686 00ba 07E0     		b	.L56
 687              	.LVL57:
 688              	.L57:
 689              		.loc 1 519 0
 690 00bc 23F00103 		bic	r3, r3, #1
 691 00c0 2361     		str	r3, [r4, #16]
 692              		.loc 1 521 0
 693 00c2 FFF7FEFF 		bl	stm32_flash_lock
 694              	.LVL58:
 695              		.loc 1 525 0
 696 00c6 0120     		movs	r0, #1
 697 00c8 BDE8F087 		pop	{r4, r5, r6, r7, r8, r9, r10, pc}
 698              	.LVL59:
 699              	.L56:
 700              		.loc 1 532 0
 701 00cc 0020     		movs	r0, #0
 702 00ce BDE8F087 		pop	{r4, r5, r6, r7, r8, r9, r10, pc}
 703              	.L59:
 704 00d2 00BF     		.align	2
 705              	.L58:
 706 00d4 00380240 		.word	1073887232
 707 00d8 003C0240 		.word	1073888256
 708              		.cfi_endproc
 709              	.LFE336:
 710              		.size	stm32_flash_write, .-stm32_flash_write
 711              		.section	.text.stm32_flash_keep_unlocked,"ax",%progbits
 712              		.align	1
 713              		.global	stm32_flash_keep_unlocked
 714              		.thumb
 715              		.thumb_func
 716              		.type	stm32_flash_keep_unlocked, %function
 717              	stm32_flash_keep_unlocked:
 718              	.LFB337:
 719              		.loc 1 537 0
 720              		.cfi_startproc
 721              		@ args = 0, pretend = 0, frame = 0
 722              		@ frame_needed = 0, uses_anonymous_args = 0
 723              	.LVL60:
 724 0000 10B5     		push	{r4, lr}
 725              		.cfi_def_cfa_offset 8
 726              		.cfi_offset 4, -8
 727              		.cfi_offset 14, -4
 728 0002 084C     		ldr	r4, .L66
 729              		.loc 1 538 0
 730 0004 2378     		ldrb	r3, [r4]	@ zero_extendqisi2
 731 0006 28B1     		cbz	r0, .L61
 732              		.loc 1 538 0 is_stmt 0 discriminator 1
 733 0008 53B9     		cbnz	r3, .L60
 734              		.loc 1 539 0 is_stmt 1
 735 000a FFF7FEFF 		bl	stm32_flash_unlock
 736              	.LVL61:
 737              		.loc 1 540 0
 738 000e 0123     		movs	r3, #1
 739 0010 2370     		strb	r3, [r4]
 740 0012 10BD     		pop	{r4, pc}
 741              	.LVL62:
ARM GAS  /tmp/ccvX7cVE.s 			page 14


 742              	.L61:
 743              		.loc 1 541 0 discriminator 1
 744 0014 23B1     		cbz	r3, .L60
 745              		.loc 1 542 0
 746 0016 2070     		strb	r0, [r4]
 747              		.loc 1 545 0
 748 0018 BDE81040 		pop	{r4, lr}
 749              		.cfi_remember_state
 750              		.cfi_restore 14
 751              		.cfi_restore 4
 752              		.cfi_def_cfa_offset 0
 753              		.loc 1 543 0
 754 001c FFF7FEBF 		b	stm32_flash_lock
 755              	.LVL63:
 756              	.L60:
 757              		.cfi_restore_state
 758 0020 10BD     		pop	{r4, pc}
 759              	.L67:
 760 0022 00BF     		.align	2
 761              	.L66:
 762 0024 00000000 		.word	.LANCHOR0
 763              		.cfi_endproc
 764              	.LFE337:
 765              		.size	stm32_flash_keep_unlocked, .-stm32_flash_keep_unlocked
 766              		.section	.bss.flash_pageaddr,"aw",%nobits
 767              		.align	2
 768              		.set	.LANCHOR2,. + 0
 769              		.type	flash_pageaddr, %object
 770              		.size	flash_pageaddr, 48
 771              	flash_pageaddr:
 772 0000 00000000 		.space	48
 772      00000000 
 772      00000000 
 772      00000000 
 772      00000000 
 773              		.section	.rodata.flash_memmap,"a",%progbits
 774              		.align	2
 775              		.set	.LANCHOR3,. + 0
 776              		.type	flash_memmap, %object
 777              		.size	flash_memmap, 48
 778              	flash_memmap:
 779 0000 00400000 		.word	16384
 780 0004 00400000 		.word	16384
 781 0008 00400000 		.word	16384
 782 000c 00400000 		.word	16384
 783 0010 00000100 		.word	65536
 784 0014 00000200 		.word	131072
 785 0018 00000200 		.word	131072
 786 001c 00000200 		.word	131072
 787 0020 00000200 		.word	131072
 788 0024 00000200 		.word	131072
 789 0028 00000200 		.word	131072
 790 002c 00000200 		.word	131072
 791              		.section	.bss.flash_pageaddr_initialised,"aw",%nobits
 792              		.set	.LANCHOR1,. + 0
 793              		.type	flash_pageaddr_initialised, %object
 794              		.size	flash_pageaddr_initialised, 1
ARM GAS  /tmp/ccvX7cVE.s 			page 15


 795              	flash_pageaddr_initialised:
 796 0000 00       		.space	1
 797              		.section	.bss.flash_keep_unlocked,"aw",%nobits
 798              		.set	.LANCHOR0,. + 0
 799              		.type	flash_keep_unlocked, %object
 800              		.size	flash_keep_unlocked, 1
 801              	flash_keep_unlocked:
 802 0000 00       		.space	1
 803              		.text
 804              	.Letext0:
 805              		.file 3 "/usr/lib/gcc/arm-none-eabi/4.9.3/include/stddef.h"
 806              		.file 4 "/usr/include/newlib/machine/_default_types.h"
 807              		.file 5 "/usr/include/newlib/sys/_stdint.h"
 808              		.file 6 "../../modules/ChibiOS/os/common/ports/ARMCMx/compilers/GCC/chtypes.h"
 809              		.file 7 "../../modules/ChibiOS/os/rt/include/chsystypes.h"
 810              		.file 8 "../../modules/ChibiOS/os/rt/include/chschd.h"
 811              		.file 9 "../../modules/ChibiOS/os/rt/include/chtime.h"
 812              		.file 10 "../../modules/ChibiOS/os/common/ext/ST/STM32F4xx/stm32f407xx.h"
 813              		.file 11 "../../modules/ChibiOS/os/common/ports/ARMCMx/chcore.h"
 814              		.file 12 "../../modules/ChibiOS/os/common/ports/ARMCMx/chcore_v7m.h"
 815              		.file 13 "../../modules/ChibiOS/os/rt/include/chtm.h"
 816              		.file 14 "../../modules/ChibiOS/os/rt/include/chstats.h"
 817              		.file 15 "../../modules/ChibiOS/os/rt/include/chsem.h"
 818              		.file 16 "../../modules/ChibiOS/os/rt/include/chmtx.h"
 819              		.file 17 "../../modules/ChibiOS/os/common/ext/ARM/CMSIS/Core/Include/core_cm4.h"