ARM GAS  /tmp/ccvX7cVE.s 			page 1


   1              		.syntax unified
   2              		.cpu cortex-m4
   3              		.eabi_attribute 27, 1
   4              		.eabi_attribute 28, 1
   5              		.fpu fpv4-sp-d16
   6              		.eabi_attribute 20, 1
   7              		.eabi_attribute 21, 1
   8              		.eabi_attribute 23, 3
   9              		.eabi_attribute 24, 1
  10              		.eabi_attribute 25, 1
  11              		.eabi_attribute 26, 1
  12              		.eabi_attribute 30, 4
  13              		.eabi_attribute 34, 1
  14              		.eabi_attribute 18, 4
  15              		.thumb
  16              		.file	"flash.c"
  17              		.text
  18              	.Ltext0:
  19              		.cfi_sections	.debug_frame
  20              		.section	.text.stm32_flash_wait_idle,"ax",%progbits
  21              		.align	1
  22              		.thumb
  23              		.thumb_func
  24              		.type	stm32_flash_wait_idle, %function
  25              	stm32_flash_wait_idle:
  26              	.LFB327:
  27              		.file 1 "../../libraries/AP_HAL_ChibiOS/hwdef/common/flash.c"
  28              		.loc 1 160 0
  29              		.cfi_startproc
  30              		@ args = 0, pretend = 0, frame = 0
  31              		@ frame_needed = 0, uses_anonymous_args = 0
  32              		@ link register save eliminated.
  33              	.LBB39:
  34              	.LBB40:
  35              		.file 2 "../../modules/ChibiOS/os/common/ext/ARM/CMSIS/Core/Include/cmsis_gcc.h"
  36              		.loc 2 879 0
  37              	@ 879 "../../modules/ChibiOS/os/common/ext/ARM/CMSIS/Core/Include/cmsis_gcc.h" 1
  38 0000 BFF34F8F 		dsb 0xF
  39              	@ 0 "" 2
  40              		.thumb
  41              	.L2:
  42              	.LBE40:
  43              	.LBE39:
  44              		.loc 1 168 0 discriminator 1
  45 0004 024B     		ldr	r3, .L5
  46 0006 DB68     		ldr	r3, [r3, #12]
  47 0008 DB03     		lsls	r3, r3, #15
  48 000a FBD4     		bmi	.L2
  49              		.loc 1 172 0
  50 000c 7047     		bx	lr
  51              	.L6:
  52 000e 00BF     		.align	2
  53              	.L5:
  54 0010 003C0240 		.word	1073888256
  55              		.cfi_endproc
  56              	.LFE327:
  57              		.size	stm32_flash_wait_idle, .-stm32_flash_wait_idle
ARM GAS  /tmp/ccvX7cVE.s 			page 2


  58              		.section	.text.stm32_flash_unlock,"ax",%progbits
  59              		.align	1
  60              		.thumb
  61              		.thumb_func
  62              		.type	stm32_flash_unlock, %function
  63              	stm32_flash_unlock:
  64              	.LFB329:
  65              		.loc 1 185 0
  66              		.cfi_startproc
  67              		@ args = 0, pretend = 0, frame = 0
  68              		@ frame_needed = 0, uses_anonymous_args = 0
  69 0000 08B5     		push	{r3, lr}
  70              		.cfi_def_cfa_offset 8
  71              		.cfi_offset 3, -8
  72              		.cfi_offset 14, -4
  73              		.loc 1 186 0
  74 0002 094B     		ldr	r3, .L10
  75 0004 1B78     		ldrb	r3, [r3]	@ zero_extendqisi2
  76 0006 73B9     		cbnz	r3, .L7
  77              	.LBB43:
  78              	.LBB44:
  79              		.loc 1 189 0
  80 0008 FFF7FEFF 		bl	stm32_flash_wait_idle
  81              	.LVL0:
  82              		.loc 1 203 0
  83 000c 074B     		ldr	r3, .L10+4
  84 000e 1A69     		ldr	r2, [r3, #16]
  85 0010 002A     		cmp	r2, #0
  86              		.loc 1 205 0
  87 0012 BFBF     		itttt	lt
  88 0014 064A     		ldrlt	r2, .L10+8
  89 0016 5A60     		strlt	r2, [r3, #4]
  90              		.loc 1 206 0
  91 0018 02F18832 		addlt	r2, r2, #-2004318072
  92 001c 5A60     		strlt	r2, [r3, #4]
  93              		.loc 1 212 0
  94 001e 1A68     		ldr	r2, [r3]
  95 0020 22F48062 		bic	r2, r2, #1024
  96 0024 1A60     		str	r2, [r3]
  97              	.L7:
  98 0026 08BD     		pop	{r3, pc}
  99              	.L11:
 100              		.align	2
 101              	.L10:
 102 0028 00000000 		.word	.LANCHOR0
 103 002c 003C0240 		.word	1073888256
 104 0030 23016745 		.word	1164378403
 105              	.LBE44:
 106              	.LBE43:
 107              		.cfi_endproc
 108              	.LFE329:
 109              		.size	stm32_flash_unlock, .-stm32_flash_unlock
 110              		.section	.text.stm32_flash_lock,"ax",%progbits
 111              		.align	1
 112              		.global	stm32_flash_lock
 113              		.thumb
 114              		.thumb_func
ARM GAS  /tmp/ccvX7cVE.s 			page 3


 115              		.type	stm32_flash_lock, %function
 116              	stm32_flash_lock:
 117              	.LFB330:
 118              		.loc 1 217 0
 119              		.cfi_startproc
 120              		@ args = 0, pretend = 0, frame = 0
 121              		@ frame_needed = 0, uses_anonymous_args = 0
 122 0000 08B5     		push	{r3, lr}
 123              		.cfi_def_cfa_offset 8
 124              		.cfi_offset 3, -8
 125              		.cfi_offset 14, -4
 126              		.loc 1 218 0
 127 0002 0B4B     		ldr	r3, .L14
 128 0004 1B78     		ldrb	r3, [r3]	@ zero_extendqisi2
 129 0006 93B9     		cbnz	r3, .L12
 130              	.LBB47:
 131              	.LBB48:
 132              		.loc 1 232 0
 133 0008 FFF7FEFF 		bl	stm32_flash_wait_idle
 134              	.LVL1:
 135              		.loc 1 233 0
 136 000c 094B     		ldr	r3, .L14+4
 137 000e 1A69     		ldr	r2, [r3, #16]
 138 0010 42F00042 		orr	r2, r2, #-2147483648
 139 0014 1A61     		str	r2, [r3, #16]
 140              		.loc 1 238 0
 141 0016 1A68     		ldr	r2, [r3]
 142 0018 42F48052 		orr	r2, r2, #4096
 143 001c 1A60     		str	r2, [r3]
 144              		.loc 1 239 0
 145 001e 1A68     		ldr	r2, [r3]
 146 0020 22F48052 		bic	r2, r2, #4096
 147 0024 1A60     		str	r2, [r3]
 148              		.loc 1 240 0
 149 0026 1A68     		ldr	r2, [r3]
 150 0028 42F48062 		orr	r2, r2, #1024
 151 002c 1A60     		str	r2, [r3]
 152              	.L12:
 153 002e 08BD     		pop	{r3, pc}
 154              	.L15:
 155              		.align	2
 156              	.L14:
 157 0030 00000000 		.word	.LANCHOR0
 158 0034 003C0240 		.word	1073888256
 159              	.LBE48:
 160              	.LBE47:
 161              		.cfi_endproc
 162              	.LFE330:
 163              		.size	stm32_flash_lock, .-stm32_flash_lock
 164              		.section	.text.stm32_flash_getpageaddr,"ax",%progbits
 165              		.align	1
 166              		.global	stm32_flash_getpageaddr
 167              		.thumb
 168              		.thumb_func
 169              		.type	stm32_flash_getpageaddr, %function
 170              	stm32_flash_getpageaddr:
 171              	.LFB331:
ARM GAS  /tmp/ccvX7cVE.s 			page 4


 172              		.loc 1 250 0
 173              		.cfi_startproc
 174              		@ args = 0, pretend = 0, frame = 0
 175              		@ frame_needed = 0, uses_anonymous_args = 0
 176              	.LVL2:
 177              		.loc 1 251 0
 178 0000 0B28     		cmp	r0, #11
 179              		.loc 1 250 0
 180 0002 30B5     		push	{r4, r5, lr}
 181              		.cfi_def_cfa_offset 12
 182              		.cfi_offset 4, -12
 183              		.cfi_offset 5, -8
 184              		.cfi_offset 14, -4
 185              		.loc 1 251 0
 186 0004 13D8     		bhi	.L20
 187              	.LVL3:
 188              	.LBB54:
 189              	.LBB55:
 190              		.loc 1 257 0
 191 0006 0B4A     		ldr	r2, .L22
 192 0008 0B4C     		ldr	r4, .L22+4
 193 000a 1378     		ldrb	r3, [r2]	@ zero_extendqisi2
 194 000c 63B9     		cbnz	r3, .L18
 195 000e 4FF00061 		mov	r1, #134217728
 196              	.L19:
 197              	.LVL4:
 198              	.LBB56:
 199              	.LBB57:
 200              	.LBB58:
 201              		.loc 1 281 0
 202 0012 0A4D     		ldr	r5, .L22+8
 203              	.LBE58:
 204              	.LBE57:
 205              		.loc 1 262 0
 206 0014 44F82310 		str	r1, [r4, r3, lsl #2]
 207              	.LVL5:
 208              		.loc 1 263 0
 209 0018 55F82350 		ldr	r5, [r5, r3, lsl #2]
 210 001c 0133     		adds	r3, r3, #1
 211              	.LVL6:
 212              		.loc 1 261 0
 213 001e 0C2B     		cmp	r3, #12
 214              		.loc 1 263 0
 215 0020 2944     		add	r1, r1, r5
 216              	.LVL7:
 217              		.loc 1 261 0
 218 0022 F6D1     		bne	.L19
 219              		.loc 1 265 0
 220 0024 0123     		movs	r3, #1
 221              	.LVL8:
 222 0026 1370     		strb	r3, [r2]
 223              	.LVL9:
 224              	.L18:
 225              	.LBE56:
 226              		.loc 1 268 0
 227 0028 54F82000 		ldr	r0, [r4, r0, lsl #2]
 228              	.LVL10:
ARM GAS  /tmp/ccvX7cVE.s 			page 5


 229 002c 30BD     		pop	{r4, r5, pc}
 230              	.LVL11:
 231              	.L20:
 232              	.LBE55:
 233              	.LBE54:
 234              		.loc 1 252 0
 235 002e 0020     		movs	r0, #0
 236              	.LVL12:
 237              		.loc 1 270 0
 238 0030 30BD     		pop	{r4, r5, pc}
 239              	.L23:
 240 0032 00BF     		.align	2
 241              	.L22:
 242 0034 00000000 		.word	.LANCHOR1
 243 0038 00000000 		.word	.LANCHOR2
 244 003c 00000000 		.word	.LANCHOR3
 245              		.cfi_endproc
 246              	.LFE331:
 247              		.size	stm32_flash_getpageaddr, .-stm32_flash_getpageaddr
 248              		.section	.text.stm32_flash_getpagesize,"ax",%progbits
 249              		.align	1
 250              		.global	stm32_flash_getpagesize
 251              		.thumb
 252              		.thumb_func
 253              		.type	stm32_flash_getpagesize, %function
 254              	stm32_flash_getpagesize:
 255              	.LFB332:
 256              		.loc 1 276 0
 257              		.cfi_startproc
 258              		@ args = 0, pretend = 0, frame = 0
 259              		@ frame_needed = 0, uses_anonymous_args = 0
 260              		@ link register save eliminated.
 261              	.LVL13:
 262              		.loc 1 283 0
 263 0000 014B     		ldr	r3, .L25
 264 0002 53F82000 		ldr	r0, [r3, r0, lsl #2]
 265              	.LVL14:
 266 0006 7047     		bx	lr
 267              	.L26:
 268              		.align	2
 269              	.L25:
 270 0008 00000000 		.word	.LANCHOR3
 271              		.cfi_endproc
 272              	.LFE332:
 273              		.size	stm32_flash_getpagesize, .-stm32_flash_getpagesize
 274              		.section	.text.stm32_flash_getnumpages,"ax",%progbits
 275              		.align	1
 276              		.global	stm32_flash_getnumpages
 277              		.thumb
 278              		.thumb_func
 279              		.type	stm32_flash_getnumpages, %function
 280              	stm32_flash_getnumpages:
 281              	.LFB333:
 282              		.loc 1 289 0
 283              		.cfi_startproc
 284              		@ args = 0, pretend = 0, frame = 0
 285              		@ frame_needed = 0, uses_anonymous_args = 0
ARM GAS  /tmp/ccvX7cVE.s 			page 6


 286              		@ link register save eliminated.
 287              		.loc 1 291 0
 288 0000 0C20     		movs	r0, #12
 289 0002 7047     		bx	lr
 290              		.cfi_endproc
 291              	.LFE333:
 292              		.size	stm32_flash_getnumpages, .-stm32_flash_getnumpages
 293              		.section	.text.stm32_flash_ispageerased,"ax",%progbits
 294              		.align	1
 295              		.global	stm32_flash_ispageerased
 296              		.thumb
 297              		.thumb_func
 298              		.type	stm32_flash_ispageerased, %function
 299              	stm32_flash_ispageerased:
 300              	.LFB334:
 301              		.loc 1 294 0
 302              		.cfi_startproc
 303              		@ args = 0, pretend = 0, frame = 0
 304              		@ frame_needed = 0, uses_anonymous_args = 0
 305              	.LVL15:
 306              		.loc 1 298 0
 307 0000 0B28     		cmp	r0, #11
 308              		.loc 1 294 0
 309 0002 10B5     		push	{r4, lr}
 310              		.cfi_def_cfa_offset 8
 311              		.cfi_offset 4, -8
 312              		.cfi_offset 14, -4
 313              		.loc 1 294 0
 314 0004 0446     		mov	r4, r0
 315              		.loc 1 298 0
 316 0006 01D9     		bls	.L29
 317              	.LVL16:
 318              	.L32:
 319              		.loc 1 299 0
 320 0008 0020     		movs	r0, #0
 321 000a 10BD     		pop	{r4, pc}
 322              	.LVL17:
 323              	.L29:
 324              	.LBB66:
 325              	.LBB67:
 326              		.loc 1 302 0
 327 000c FFF7FEFF 		bl	stm32_flash_getpageaddr
 328              	.LVL18:
 329              	.LBB68:
 330              	.LBB69:
 331              		.loc 1 281 0
 332 0010 064B     		ldr	r3, .L35
 333 0012 53F82410 		ldr	r1, [r3, r4, lsl #2]
 334              	.LBE69:
 335              	.LBE68:
 336              		.loc 1 302 0
 337 0016 0A46     		mov	r2, r1
 338              	.LVL19:
 339              	.L31:
 340 0018 4318     		adds	r3, r0, r1
 341 001a 9B1A     		subs	r3, r3, r2
 342              	.LVL20:
ARM GAS  /tmp/ccvX7cVE.s 			page 7


 343 001c 22B1     		cbz	r2, .L34
 344              	.LVL21:
 345              	.LBB70:
 346              	.LBB71:
 347              	.LBB72:
 348              		.loc 1 149 0
 349              	@ 149 "../../libraries/AP_HAL_ChibiOS/hwdef/common/flash.c" 1
 350 001e 1B68     			ldr r3, [r3]
 351              		
 352              	@ 0 "" 2
 353              	.LVL22:
 354              		.thumb
 355              	.LBE72:
 356              	.LBE71:
 357              		.loc 1 305 0
 358 0020 0133     		adds	r3, r3, #1
 359              	.LVL23:
 360 0022 F1D1     		bne	.L32
 361              	.LBE70:
 362              		.loc 1 303 0
 363 0024 043A     		subs	r2, r2, #4
 364              	.LVL24:
 365 0026 F7E7     		b	.L31
 366              	.LVL25:
 367              	.L34:
 368              		.loc 1 310 0
 369 0028 0120     		movs	r0, #1
 370              	.LBE67:
 371              	.LBE66:
 372              		.loc 1 311 0
 373 002a 10BD     		pop	{r4, pc}
 374              	.LVL26:
 375              	.L36:
 376              		.align	2
 377              	.L35:
 378 002c 00000000 		.word	.LANCHOR3
 379              		.cfi_endproc
 380              	.LFE334:
 381              		.size	stm32_flash_ispageerased, .-stm32_flash_ispageerased
 382              		.section	.text.stm32_flash_erasepage,"ax",%progbits
 383              		.align	1
 384              		.global	stm32_flash_erasepage
 385              		.thumb
 386              		.thumb_func
 387              		.type	stm32_flash_erasepage, %function
 388              	stm32_flash_erasepage:
 389              	.LFB335:
 390              		.loc 1 317 0
 391              		.cfi_startproc
 392              		@ args = 0, pretend = 0, frame = 0
 393              		@ frame_needed = 0, uses_anonymous_args = 0
 394              	.LVL27:
 395              		.loc 1 318 0
 396 0000 0B28     		cmp	r0, #11
 397              		.loc 1 317 0
 398 0002 38B5     		push	{r3, r4, r5, lr}
 399              		.cfi_def_cfa_offset 16
ARM GAS  /tmp/ccvX7cVE.s 			page 8


 400              		.cfi_offset 3, -16
 401              		.cfi_offset 4, -12
 402              		.cfi_offset 5, -8
 403              		.cfi_offset 14, -4
 404              		.loc 1 317 0
 405 0004 0446     		mov	r4, r0
 406              		.loc 1 318 0
 407 0006 24D8     		bhi	.L38
 408              	.LBB73:
 409              	.LBB74:
 410              		.loc 1 180 0
 411 0008 134D     		ldr	r5, .L39
 412              	.LBE74:
 413              	.LBE73:
 414              		.loc 1 325 0
 415 000a FFF7FEFF 		bl	stm32_flash_wait_idle
 416              	.LVL28:
 417              		.loc 1 326 0
 418 000e FFF7FEFF 		bl	stm32_flash_unlock
 419              	.LVL29:
 420              	.LBB76:
 421              	.LBB75:
 422              		.loc 1 180 0
 423 0012 F323     		movs	r3, #243
 424 0014 EB60     		str	r3, [r5, #12]
 425              	.LBE75:
 426              	.LBE76:
 427              		.loc 1 358 0
 428 0016 FFF7FEFF 		bl	stm32_flash_wait_idle
 429              	.LVL30:
 430              		.loc 1 361 0
 431 001a 0C22     		movs	r2, #12
 432 001c B4FBF2F3 		udiv	r3, r4, r2
 433 0020 02FB1343 		mls	r3, r2, r3, r4
 434 0024 DB00     		lsls	r3, r3, #3
 435              		.loc 1 364 0
 436 0026 DBB2     		uxtb	r3, r3
 437 0028 43F40073 		orr	r3, r3, #512
 438 002c 43F00203 		orr	r3, r3, #2
 439 0030 2B61     		str	r3, [r5, #16]
 440              		.loc 1 365 0
 441 0032 2B69     		ldr	r3, [r5, #16]
 442 0034 43F48033 		orr	r3, r3, #65536
 443 0038 2B61     		str	r3, [r5, #16]
 444              		.loc 1 368 0
 445 003a FFF7FEFF 		bl	stm32_flash_wait_idle
 446              	.LVL31:
 447              		.loc 1 370 0
 448 003e 2046     		mov	r0, r4
 449 0040 FFF7FEFF 		bl	stm32_flash_getpageaddr
 450              	.LVL32:
 451              		.loc 1 372 0
 452 0044 FFF7FEFF 		bl	stm32_flash_lock
 453              	.LVL33:
 454              		.loc 1 376 0
 455 0048 2046     		mov	r0, r4
 456              		.loc 1 377 0
ARM GAS  /tmp/ccvX7cVE.s 			page 9


 457 004a BDE83840 		pop	{r3, r4, r5, lr}
 458              		.cfi_remember_state
 459              		.cfi_restore 14
 460              		.cfi_restore 5
 461              		.cfi_restore 4
 462              		.cfi_restore 3
 463              		.cfi_def_cfa_offset 0
 464              	.LVL34:
 465              		.loc 1 376 0
 466 004e FFF7FEBF 		b	stm32_flash_ispageerased
 467              	.LVL35:
 468              	.L38:
 469              		.cfi_restore_state
 470              		.loc 1 377 0
 471 0052 0020     		movs	r0, #0
 472              	.LVL36:
 473 0054 38BD     		pop	{r3, r4, r5, pc}
 474              	.LVL37:
 475              	.L40:
 476 0056 00BF     		.align	2
 477              	.L39:
 478 0058 003C0240 		.word	1073888256
 479              		.cfi_endproc
 480              	.LFE335:
 481              		.size	stm32_flash_erasepage, .-stm32_flash_erasepage
 482              		.section	.text.stm32_flash_write,"ax",%progbits
 483              		.align	1
 484              		.global	stm32_flash_write
 485              		.thumb
 486              		.thumb_func
 487              		.type	stm32_flash_write, %function
 488              	stm32_flash_write:
 489              	.LFB336:
 490              		.loc 1 444 0
 491              		.cfi_startproc
 492              		@ args = 0, pretend = 0, frame = 0
 493              		@ frame_needed = 0, uses_anonymous_args = 0
 494              	.LVL38:
 495              		.loc 1 448 0
 496 0000 12F00103 		ands	r3, r2, #1
 497              		.loc 1 444 0
 498 0004 2DE9F047 		push	{r4, r5, r6, r7, r8, r9, r10, lr}
 499              		.cfi_def_cfa_offset 32
 500              		.cfi_offset 4, -32
 501              		.cfi_offset 5, -28
 502              		.cfi_offset 6, -24
 503              		.cfi_offset 7, -20
 504              		.cfi_offset 8, -16
 505              		.cfi_offset 9, -12
 506              		.cfi_offset 10, -8
 507              		.cfi_offset 14, -4
 508              		.loc 1 444 0
 509 0008 0746     		mov	r7, r0
 510              	.LVL39:
 511 000a 8846     		mov	r8, r1
 512 000c 1646     		mov	r6, r2
 513              		.loc 1 448 0
ARM GAS  /tmp/ccvX7cVE.s 			page 10


 514 000e 5DD1     		bne	.L56
 515              		.loc 1 452 0
 516 0010 0244     		add	r2, r2, r0
 517              	.LVL40:
 518 0012 B2F1016F 		cmp	r2, #135266304
 519 0016 59D2     		bcs	.L56
 520              		.loc 1 458 0
 521 0018 2E4B     		ldr	r3, .L58
 522 001a 1B68     		ldr	r3, [r3]
 523 001c 13F00103 		ands	r3, r3, #1
 524 0020 54D0     		beq	.L56
 525              		.loc 1 466 0
 526 0022 FFF7FEFF 		bl	stm32_flash_unlock
 527              	.LVL41:
 528              	.LBB77:
 529              	.LBB78:
 530              		.loc 1 180 0
 531 0026 2C4B     		ldr	r3, .L58+4
 532 0028 F322     		movs	r2, #243
 533 002a DA60     		str	r2, [r3, #12]
 534              	.LBE78:
 535              	.LBE77:
 536              		.loc 1 471 0
 537 002c FFF7FEFF 		bl	stm32_flash_wait_idle
 538              	.LVL42:
 539              	.L43:
 540              		.loc 1 474 0
 541 0030 032E     		cmp	r6, #3
 542 0032 01D8     		bhi	.L46
 543              	.L49:
 544              		.loc 1 444 0
 545 0034 C146     		mov	r9, r8
 546 0036 19E0     		b	.L47
 547              	.L46:
 548              		.loc 1 474 0 discriminator 1
 549 0038 BB07     		lsls	r3, r7, #30
 550 003a FBD1     		bne	.L49
 551              	.LBB79:
 552              		.loc 1 475 0
 553 003c 264C     		ldr	r4, .L58+4
 554 003e 2369     		ldr	r3, [r4, #16]
 555 0040 23F44073 		bic	r3, r3, #768
 556 0044 2361     		str	r3, [r4, #16]
 557              		.loc 1 476 0
 558 0046 2369     		ldr	r3, [r4, #16]
 559 0048 43F40073 		orr	r3, r3, #512
 560 004c 43F00103 		orr	r3, r3, #1
 561 0050 2361     		str	r3, [r4, #16]
 562              		.loc 1 477 0
 563 0052 58F8045B 		ldr	r5, [r8], #4
 564              	.LVL43:
 565              	.LBB80:
 566              	.LBB81:
 567              		.loc 1 156 0
 568 0056 3D60     		str	r5, [r7]
 569              	.LBE81:
 570              	.LBE80:
ARM GAS  /tmp/ccvX7cVE.s 			page 11


 571              	.LBB82:
 572              	.LBB83:
 573              		.loc 2 879 0
 574              	@ 879 "../../modules/ChibiOS/os/common/ext/ARM/CMSIS/Core/Include/cmsis_gcc.h" 1
 575 0058 BFF34F8F 		dsb 0xF
 576              	@ 0 "" 2
 577              		.thumb
 578              	.LBE83:
 579              	.LBE82:
 580              		.loc 1 484 0
 581 005c FFF7FEFF 		bl	stm32_flash_wait_idle
 582              	.LVL44:
 583              	.LBB84:
 584              	.LBB85:
 585              		.loc 1 149 0
 586              	@ 149 "../../libraries/AP_HAL_ChibiOS/hwdef/common/flash.c" 1
 587 0060 3B68     			ldr r3, [r7]
 588              		
 589              	@ 0 "" 2
 590              	.LVL45:
 591              		.thumb
 592              	.LBE85:
 593              	.LBE84:
 594              		.loc 1 487 0
 595 0062 AB42     		cmp	r3, r5
 596 0064 23D1     		bne	.L55
 597              		.loc 1 492 0
 598 0066 043E     		subs	r6, r6, #4
 599              	.LVL46:
 600              		.loc 1 494 0
 601 0068 0437     		adds	r7, r7, #4
 602              	.LVL47:
 603 006a E1E7     		b	.L43
 604              	.LVL48:
 605              	.L47:
 606 006c C9EB0603 		rsb	r3, r9, r6
 607 0070 4344     		add	r3, r3, r8
 608 0072 194C     		ldr	r4, .L58+4
 609 0074 C8EB0705 		rsb	r5, r8, r7
 610              	.LBE79:
 611              		.loc 1 498 0
 612 0078 012B     		cmp	r3, #1
 613 007a 4D44     		add	r5, r5, r9
 614              	.LVL49:
 615              		.loc 1 499 0
 616 007c 2369     		ldr	r3, [r4, #16]
 617              		.loc 1 498 0
 618 007e 1DD9     		bls	.L57
 619              		.loc 1 499 0
 620 0080 23F44073 		bic	r3, r3, #768
 621 0084 2361     		str	r3, [r4, #16]
 622              		.loc 1 500 0
 623 0086 2369     		ldr	r3, [r4, #16]
 624 0088 43F48073 		orr	r3, r3, #256
 625 008c 43F00103 		orr	r3, r3, #1
 626 0090 2361     		str	r3, [r4, #16]
 627 0092 CA46     		mov	r10, r9
ARM GAS  /tmp/ccvX7cVE.s 			page 12


 628              	.LVL50:
 629              	.LBB86:
 630              	.LBB87:
 631              		.loc 1 142 0
 632 0094 39F8023B 		ldrh	r3, [r9], #2
 633              	.LVL51:
 634              	@ 142 "../../libraries/AP_HAL_ChibiOS/hwdef/common/flash.c" 1
 635 0098 2B80     			strh r3, [r5]
 636              		
 637              	@ 0 "" 2
 638              		.thumb
 639              	.LBE87:
 640              	.LBE86:
 641              	.LBB88:
 642              	.LBB89:
 643              		.loc 2 879 0
 644              	@ 879 "../../modules/ChibiOS/os/common/ext/ARM/CMSIS/Core/Include/cmsis_gcc.h" 1
 645 009a BFF34F8F 		dsb 0xF
 646              	@ 0 "" 2
 647              		.thumb
 648              	.LBE89:
 649              	.LBE88:
 650              		.loc 1 507 0
 651 009e FFF7FEFF 		bl	stm32_flash_wait_idle
 652              	.LVL52:
 653              	.LBB90:
 654              	.LBB91:
 655              		.loc 1 135 0
 656              	@ 135 "../../libraries/AP_HAL_ChibiOS/hwdef/common/flash.c" 1
 657 00a2 2D88     			ldrh r5, [r5]
 658              		
 659              	@ 0 "" 2
 660              	.LVL53:
 661              		.thumb
 662              	.LBE91:
 663              	.LBE90:
 664              		.loc 1 509 0
 665 00a4 BAF80030 		ldrh	r3, [r10]
 666              	.LBB93:
 667              	.LBB92:
 668              		.loc 1 135 0
 669 00a8 ADB2     		uxth	r5, r5
 670              	.LVL54:
 671              	.LBE92:
 672              	.LBE93:
 673              		.loc 1 509 0
 674 00aa AB42     		cmp	r3, r5
 675 00ac DED0     		beq	.L47
 676              	.LVL55:
 677              	.L55:
 678              	.L45:
 679              		.loc 1 510 0
 680 00ae 2369     		ldr	r3, [r4, #16]
 681 00b0 23F00103 		bic	r3, r3, #1
 682 00b4 2361     		str	r3, [r4, #16]
 683              		.loc 1 528 0
 684 00b6 FFF7FEFF 		bl	stm32_flash_lock
ARM GAS  /tmp/ccvX7cVE.s 			page 13


 685              	.LVL56:
 686 00ba 07E0     		b	.L56
 687              	.LVL57:
 688              	.L57:
 689              		.loc 1 519 0
 690 00bc 23F00103 		bic	r3, r3, #1
 691 00c0 2361     		str	r3, [r4, #16]
 692              		.loc 1 521 0
 693 00c2 FFF7FEFF 		bl	stm32_flash_lock
 694              	.LVL58:
 695              		.loc 1 525 0
 696 00c6 0120     		movs	r0, #1
 697 00c8 BDE8F087 		pop	{r4, r5, r6, r7, r8, r9, r10, pc}
 698              	.LVL59:
 699              	.L56:
 700              		.loc 1 532 0
 701 00cc 0020     		movs	r0, #0
 702 00ce BDE8F087 		pop	{r4, r5, r6, r7, r8, r9, r10, pc}
 703              	.L59:
 704 00d2 00BF     		.align	2
 705              	.L58:
 706 00d4 00380240 		.word	1073887232
 707 00d8 003C0240 		.word	1073888256
 708              		.cfi_endproc
 709              	.LFE336:
 710              		.size	stm32_flash_write, .-stm32_flash_write
 711              		.section	.text.stm32_flash_keep_unlocked,"ax",%progbits
 712              		.align	1
 713              		.global	stm32_flash_keep_unlocked
 714              		.thumb
 715              		.thumb_func
 716              		.type	stm32_flash_keep_unlocked, %function
 717              	stm32_flash_keep_unlocked:
 718              	.LFB337:
 719              		.loc 1 537 0
 720              		.cfi_startproc
 721              		@ args = 0, pretend = 0, frame = 0
 722              		@ frame_needed = 0, uses_anonymous_args = 0
 723              	.LVL60:
 724 0000 10B5     		push	{r4, lr}
 725              		.cfi_def_cfa_offset 8
 726              		.cfi_offset 4, -8
 727              		.cfi_offset 14, -4
 728 0002 084C     		ldr	r4, .L66
 729              		.loc 1 538 0
 730 0004 2378     		ldrb	r3, [r4]	@ zero_extendqisi2
 731 0006 28B1     		cbz	r0, .L61
 732              		.loc 1 538 0 is_stmt 0 discriminator 1
 733 0008 53B9     		cbnz	r3, .L60
 734              		.loc 1 539 0 is_stmt 1
 735 000a FFF7FEFF 		bl	stm32_flash_unlock
 736              	.LVL61:
 737              		.loc 1 540 0
 738 000e 0123     		movs	r3, #1
 739 0010 2370     		strb	r3, [r4]
 740 0012 10BD     		pop	{r4, pc}
 741              	.LVL62:
ARM GAS  /tmp/ccvX7cVE.s 			page 14


 742              	.L61:
 743              		.loc 1 541 0 discriminator 1
 744 0014 23B1     		cbz	r3, .L60
 745              		.loc 1 542 0
 746 0016 2070     		strb	r0, [r4]
 747              		.loc 1 545 0
 748 0018 BDE81040 		pop	{r4, lr}
 749              		.cfi_remember_state
 750              		.cfi_restore 14
 751              		.cfi_restore 4
 752              		.cfi_def_cfa_offset 0
 753              		.loc 1 543 0
 754 001c FFF7FEBF 		b	stm32_flash_lock
 755              	.LVL63:
 756              	.L60:
 757              		.cfi_restore_state
 758 0020 10BD     		pop	{r4, pc}
 759              	.L67:
 760 0022 00BF     		.align	2
 761              	.L66:
 762 0024 00000000 		.word	.LANCHOR0
 763              		.cfi_endproc
 764              	.LFE337:
 765              		.size	stm32_flash_keep_unlocked, .-stm32_flash_keep_unlocked
 766              		.section	.bss.flash_pageaddr,"aw",%nobits
 767              		.align	2
 768              		.set	.LANCHOR2,. + 0
 769              		.type	flash_pageaddr, %object
 770              		.size	flash_pageaddr, 48
 771              	flash_pageaddr:
 772 0000 00000000 		.space	48
 772      00000000 
 772      00000000 
 772      00000000 
 772      00000000 
 773              		.section	.rodata.flash_memmap,"a",%progbits
 774              		.align	2
 775              		.set	.LANCHOR3,. + 0
 776              		.type	flash_memmap, %object
 777              		.size	flash_memmap, 48
 778              	flash_memmap:
 779 0000 00400000 		.word	16384
 780 0004 00400000 		.word	16384
 781 0008 00400000 		.word	16384
 782 000c 00400000 		.word	16384
 783 0010 00000100 		.word	65536
 784 0014 00000200 		.word	131072
 785 0018 00000200 		.word	131072
 786 001c 00000200 		.word	131072
 787 0020 00000200 		.word	131072
 788 0024 00000200 		.word	131072
 789 0028 00000200 		.word	131072
 790 002c 00000200 		.word	131072
 791              		.section	.bss.flash_pageaddr_initialised,"aw",%nobits
 792              		.set	.LANCHOR1,. + 0
 793              		.type	flash_pageaddr_initialised, %object
 794              		.size	flash_pageaddr_initialised, 1
ARM GAS  /tmp/ccvX7cVE.s 			page 15


 795              	flash_pageaddr_initialised:
 796 0000 00       		.space	1
 797              		.section	.bss.flash_keep_unlocked,"aw",%nobits
 798              		.set	.LANCHOR0,. + 0
 799              		.type	flash_keep_unlocked, %object
 800              		.size	flash_keep_unlocked, 1
 801              	flash_keep_unlocked:
 802 0000 00       		.space	1
 803              		.text
 804              	.Letext0:
 805              		.file 3 "/usr/lib/gcc/arm-none-eabi/4.9.3/include/stddef.h"
 806              		.file 4 "/usr/include/newlib/machine/_default_types.h"
 807              		.file 5 "/usr/include/newlib/sys/_stdint.h"
 808              		.file 6 "../../modules/ChibiOS/os/common/ports/ARMCMx/compilers/GCC/chtypes.h"
 809              		.file 7 "../../modules/ChibiOS/os/rt/include/chsystypes.h"
 810              		.file 8 "../../modules/ChibiOS/os/rt/include/chschd.h"
 811              		.file 9 "../../modules/ChibiOS/os/rt/include/chtime.h"
 812              		.file 10 "../../modules/ChibiOS/os/common/ext/ST/STM32F4xx/stm32f407xx.h"
 813              		.file 11 "../../modules/ChibiOS/os/common/ports/ARMCMx/chcore.h"
 814              		.file 12 "../../modules/ChibiOS/os/common/ports/ARMCMx/chcore_v7m.h"
 815              		.file 13 "../../modules/ChibiOS/os/rt/include/chtm.h"
 816              		.file 14 "../../modules/ChibiOS/os/rt/include/chstats.h"
 817              		.file 15 "../../modules/ChibiOS/os/rt/include/chsem.h"
 818              		.file 16 "../../modules/ChibiOS/os/rt/include/chmtx.h"
 819              		.file 17 "../../modules/ChibiOS/os/common/ext/ARM/CMSIS/Core/Include/core_cm4.h"
 820              		.section	.debug_info,"",%progbits
 821              	.Ldebug_info0:
 822 0000 CD0F0000 		.4byte	0xfcd
 823 0004 0400     		.2byte	0x4
 824 0006 00000000 		.4byte	.Ldebug_abbrev0
 825 000a 04       		.byte	0x4
 826 000b 01       		.uleb128 0x1
 827 000c 55020000 		.4byte	.LASF163
 828 0010 01       		.byte	0x1
 829 0011 33070000 		.4byte	.LASF164
 830 0015 67070000 		.4byte	.LASF165
 831 0019 30000000 		.4byte	.Ldebug_ranges0+0x30
 832 001d 00000000 		.4byte	0
 833 0021 00000000 		.4byte	.Ldebug_line0
 834 0025 02       		.uleb128 0x2
 835 0026 04       		.byte	0x4
 836 0027 05       		.byte	0x5
 837 0028 696E7400 		.ascii	"int\000"
 838 002c 03       		.uleb128 0x3
 839 002d 16000000 		.4byte	.LASF2
 840 0031 03       		.byte	0x3
 841 0032 D4       		.byte	0xd4
 842 0033 37000000 		.4byte	0x37
 843 0037 04       		.uleb128 0x4
 844 0038 04       		.byte	0x4
 845 0039 07       		.byte	0x7
 846 003a 48020000 		.4byte	.LASF0
 847 003e 04       		.uleb128 0x4
 848 003f 01       		.byte	0x1
 849 0040 06       		.byte	0x6
 850 0041 45010000 		.4byte	.LASF1
 851 0045 03       		.uleb128 0x3
ARM GAS  /tmp/ccvX7cVE.s 			page 16


 852 0046 55000000 		.4byte	.LASF3
 853 004a 04       		.byte	0x4
 854 004b 1D       		.byte	0x1d
 855 004c 50000000 		.4byte	0x50
 856 0050 04       		.uleb128 0x4
 857 0051 01       		.byte	0x1
 858 0052 08       		.byte	0x8
 859 0053 F3050000 		.4byte	.LASF4
 860 0057 04       		.uleb128 0x4
 861 0058 02       		.byte	0x2
 862 0059 05       		.byte	0x5
 863 005a 2B040000 		.4byte	.LASF5
 864 005e 03       		.uleb128 0x3
 865 005f E0060000 		.4byte	.LASF6
 866 0063 04       		.byte	0x4
 867 0064 2B       		.byte	0x2b
 868 0065 69000000 		.4byte	0x69
 869 0069 04       		.uleb128 0x4
 870 006a 02       		.byte	0x2
 871 006b 07       		.byte	0x7
 872 006c 8A030000 		.4byte	.LASF7
 873 0070 03       		.uleb128 0x3
 874 0071 35040000 		.4byte	.LASF8
 875 0075 04       		.byte	0x4
 876 0076 3F       		.byte	0x3f
 877 0077 7B000000 		.4byte	0x7b
 878 007b 04       		.uleb128 0x4
 879 007c 04       		.byte	0x4
 880 007d 05       		.byte	0x5
 881 007e B3010000 		.4byte	.LASF9
 882 0082 03       		.uleb128 0x3
 883 0083 01020000 		.4byte	.LASF10
 884 0087 04       		.byte	0x4
 885 0088 41       		.byte	0x41
 886 0089 8D000000 		.4byte	0x8d
 887 008d 04       		.uleb128 0x4
 888 008e 04       		.byte	0x4
 889 008f 07       		.byte	0x7
 890 0090 A9060000 		.4byte	.LASF11
 891 0094 04       		.uleb128 0x4
 892 0095 08       		.byte	0x8
 893 0096 05       		.byte	0x5
 894 0097 37010000 		.4byte	.LASF12
 895 009b 03       		.uleb128 0x3
 896 009c 43050000 		.4byte	.LASF13
 897 00a0 04       		.byte	0x4
 898 00a1 5B       		.byte	0x5b
 899 00a2 A6000000 		.4byte	0xa6
 900 00a6 04       		.uleb128 0x4
 901 00a7 08       		.byte	0x8
 902 00a8 07       		.byte	0x7
 903 00a9 7C010000 		.4byte	.LASF14
 904 00ad 03       		.uleb128 0x3
 905 00ae E1070000 		.4byte	.LASF15
 906 00b2 05       		.byte	0x5
 907 00b3 14       		.byte	0x14
 908 00b4 45000000 		.4byte	0x45
ARM GAS  /tmp/ccvX7cVE.s 			page 17


 909 00b8 03       		.uleb128 0x3
 910 00b9 D8010000 		.4byte	.LASF16
 911 00bd 05       		.byte	0x5
 912 00be 1A       		.byte	0x1a
 913 00bf 5E000000 		.4byte	0x5e
 914 00c3 03       		.uleb128 0x3
 915 00c4 EB050000 		.4byte	.LASF17
 916 00c8 05       		.byte	0x5
 917 00c9 1F       		.byte	0x1f
 918 00ca 70000000 		.4byte	0x70
 919 00ce 03       		.uleb128 0x3
 920 00cf 65060000 		.4byte	.LASF18
 921 00d3 05       		.byte	0x5
 922 00d4 20       		.byte	0x20
 923 00d5 82000000 		.4byte	0x82
 924 00d9 03       		.uleb128 0x3
 925 00da 3F000000 		.4byte	.LASF19
 926 00de 05       		.byte	0x5
 927 00df 26       		.byte	0x26
 928 00e0 9B000000 		.4byte	0x9b
 929 00e4 03       		.uleb128 0x3
 930 00e5 9C040000 		.4byte	.LASF20
 931 00e9 06       		.byte	0x6
 932 00ea 27       		.byte	0x27
 933 00eb CE000000 		.4byte	0xce
 934 00ef 03       		.uleb128 0x3
 935 00f0 00000000 		.4byte	.LASF21
 936 00f4 06       		.byte	0x6
 937 00f5 28       		.byte	0x28
 938 00f6 D9000000 		.4byte	0xd9
 939 00fa 03       		.uleb128 0x3
 940 00fb F4030000 		.4byte	.LASF22
 941 00ff 06       		.byte	0x6
 942 0100 2A       		.byte	0x2a
 943 0101 AD000000 		.4byte	0xad
 944 0105 03       		.uleb128 0x3
 945 0106 CF010000 		.4byte	.LASF23
 946 010a 06       		.byte	0x6
 947 010b 2B       		.byte	0x2b
 948 010c AD000000 		.4byte	0xad
 949 0110 03       		.uleb128 0x3
 950 0111 85050000 		.4byte	.LASF24
 951 0115 06       		.byte	0x6
 952 0116 2C       		.byte	0x2c
 953 0117 AD000000 		.4byte	0xad
 954 011b 03       		.uleb128 0x3
 955 011c CF050000 		.4byte	.LASF25
 956 0120 06       		.byte	0x6
 957 0121 2E       		.byte	0x2e
 958 0122 CE000000 		.4byte	0xce
 959 0126 03       		.uleb128 0x3
 960 0127 C1030000 		.4byte	.LASF26
 961 012b 06       		.byte	0x6
 962 012c 2F       		.byte	0x2f
 963 012d C3000000 		.4byte	0xc3
 964 0131 03       		.uleb128 0x3
 965 0132 1F040000 		.4byte	.LASF27
ARM GAS  /tmp/ccvX7cVE.s 			page 18


 966 0136 06       		.byte	0x6
 967 0137 31       		.byte	0x31
 968 0138 CE000000 		.4byte	0xce
 969 013c 03       		.uleb128 0x3
 970 013d 42020000 		.4byte	.LASF28
 971 0141 06       		.byte	0x6
 972 0142 33       		.byte	0x33
 973 0143 C3000000 		.4byte	0xc3
 974 0147 03       		.uleb128 0x3
 975 0148 D0030000 		.4byte	.LASF29
 976 014c 06       		.byte	0x6
 977 014d 34       		.byte	0x34
 978 014e CE000000 		.4byte	0xce
 979 0152 03       		.uleb128 0x3
 980 0153 F4060000 		.4byte	.LASF30
 981 0157 07       		.byte	0x7
 982 0158 34       		.byte	0x34
 983 0159 5D010000 		.4byte	0x15d
 984 015d 05       		.uleb128 0x5
 985 015e AC030000 		.4byte	.LASF49
 986 0162 60       		.byte	0x60
 987 0163 08       		.byte	0x8
 988 0164 8E       		.byte	0x8e
 989 0165 48020000 		.4byte	0x248
 990 0169 06       		.uleb128 0x6
 991 016a 76030000 		.4byte	.LASF31
 992 016e 08       		.byte	0x8
 993 016f 8F       		.byte	0x8f
 994 0170 7D020000 		.4byte	0x27d
 995 0174 00       		.byte	0
 996 0175 06       		.uleb128 0x6
 997 0176 2D050000 		.4byte	.LASF32
 998 017a 08       		.byte	0x8
 999 017b 90       		.byte	0x90
 1000 017c 1B010000 		.4byte	0x11b
 1001 0180 08       		.byte	0x8
 1002 0181 07       		.uleb128 0x7
 1003 0182 63747800 		.ascii	"ctx\000"
 1004 0186 08       		.byte	0x8
 1005 0187 91       		.byte	0x91
 1006 0188 C7060000 		.4byte	0x6c7
 1007 018c 0C       		.byte	0xc
 1008 018d 06       		.uleb128 0x6
 1009 018e 66040000 		.4byte	.LASF33
 1010 0192 08       		.byte	0x8
 1011 0193 93       		.byte	0x93
 1012 0194 53020000 		.4byte	0x253
 1013 0198 10       		.byte	0x10
 1014 0199 06       		.uleb128 0x6
 1015 019a C7060000 		.4byte	.LASF34
 1016 019e 08       		.byte	0x8
 1017 019f 94       		.byte	0x94
 1018 01a0 53020000 		.4byte	0x253
 1019 01a4 14       		.byte	0x14
 1020 01a5 06       		.uleb128 0x6
 1021 01a6 7C030000 		.4byte	.LASF35
 1022 01aa 08       		.byte	0x8
ARM GAS  /tmp/ccvX7cVE.s 			page 19


 1023 01ab 9B       		.byte	0x9b
 1024 01ac AD090000 		.4byte	0x9ad
 1025 01b0 18       		.byte	0x18
 1026 01b1 06       		.uleb128 0x6
 1027 01b2 BB060000 		.4byte	.LASF36
 1028 01b6 08       		.byte	0x8
 1029 01b7 A4       		.byte	0xa4
 1030 01b8 BF090000 		.4byte	0x9bf
 1031 01bc 1C       		.byte	0x1c
 1032 01bd 06       		.uleb128 0x6
 1033 01be A3010000 		.4byte	.LASF37
 1034 01c2 08       		.byte	0x8
 1035 01c3 A9       		.byte	0xa9
 1036 01c4 05010000 		.4byte	0x105
 1037 01c8 20       		.byte	0x20
 1038 01c9 06       		.uleb128 0x6
 1039 01ca E9070000 		.4byte	.LASF38
 1040 01ce 08       		.byte	0x8
 1041 01cf AD       		.byte	0xad
 1042 01d0 FA000000 		.4byte	0xfa
 1043 01d4 21       		.byte	0x21
 1044 01d5 06       		.uleb128 0x6
 1045 01d6 A6050000 		.4byte	.LASF39
 1046 01da 08       		.byte	0x8
 1047 01db B2       		.byte	0xb2
 1048 01dc 10010000 		.4byte	0x110
 1049 01e0 22       		.byte	0x22
 1050 01e1 08       		.uleb128 0x8
 1051 01e2 7500     		.ascii	"u\000"
 1052 01e4 08       		.byte	0x8
 1053 01e5 0301     		.2byte	0x103
 1054 01e7 E3080000 		.4byte	0x8e3
 1055 01eb 24       		.byte	0x24
 1056 01ec 09       		.uleb128 0x9
 1057 01ed 25020000 		.4byte	.LASF40
 1058 01f1 08       		.byte	0x8
 1059 01f2 0801     		.2byte	0x108
 1060 01f4 59020000 		.4byte	0x259
 1061 01f8 28       		.byte	0x28
 1062 01f9 09       		.uleb128 0x9
 1063 01fa 9A010000 		.4byte	.LASF41
 1064 01fe 08       		.byte	0x8
 1065 01ff 0E01     		.2byte	0x10e
 1066 0201 7D020000 		.4byte	0x27d
 1067 0205 2C       		.byte	0x2c
 1068 0206 09       		.uleb128 0x9
 1069 0207 D7030000 		.4byte	.LASF42
 1070 020b 08       		.byte	0x8
 1071 020c 1401     		.2byte	0x114
 1072 020e 31010000 		.4byte	0x131
 1073 0212 34       		.byte	0x34
 1074 0213 09       		.uleb128 0x9
 1075 0214 1F080000 		.4byte	.LASF43
 1076 0218 08       		.byte	0x8
 1077 0219 1B01     		.2byte	0x11b
 1078 021b A7090000 		.4byte	0x9a7
 1079 021f 38       		.byte	0x38
ARM GAS  /tmp/ccvX7cVE.s 			page 20


 1080 0220 09       		.uleb128 0x9
 1081 0221 82040000 		.4byte	.LASF44
 1082 0225 08       		.byte	0x8
 1083 0226 1F01     		.2byte	0x11f
 1084 0228 1B010000 		.4byte	0x11b
 1085 022c 3C       		.byte	0x3c
 1086 022d 09       		.uleb128 0x9
 1087 022e C0070000 		.4byte	.LASF45
 1088 0232 08       		.byte	0x8
 1089 0233 2601     		.2byte	0x126
 1090 0235 30030000 		.4byte	0x330
 1091 0239 40       		.byte	0x40
 1092 023a 09       		.uleb128 0x9
 1093 023b E1010000 		.4byte	.LASF46
 1094 023f 08       		.byte	0x8
 1095 0240 2C01     		.2byte	0x12c
 1096 0242 94080000 		.4byte	0x894
 1097 0246 48       		.byte	0x48
 1098 0247 00       		.byte	0
 1099 0248 03       		.uleb128 0x3
 1100 0249 A4040000 		.4byte	.LASF47
 1101 024d 07       		.byte	0x7
 1102 024e 39       		.byte	0x39
 1103 024f 53020000 		.4byte	0x253
 1104 0253 0A       		.uleb128 0xa
 1105 0254 04       		.byte	0x4
 1106 0255 52010000 		.4byte	0x152
 1107 0259 03       		.uleb128 0x3
 1108 025a 10080000 		.4byte	.LASF48
 1109 025e 07       		.byte	0x7
 1110 025f 3E       		.byte	0x3e
 1111 0260 64020000 		.4byte	0x264
 1112 0264 05       		.uleb128 0x5
 1113 0265 7D060000 		.4byte	.LASF50
 1114 0269 04       		.byte	0x4
 1115 026a 08       		.byte	0x8
 1116 026b 7C       		.byte	0x7c
 1117 026c 7D020000 		.4byte	0x27d
 1118 0270 06       		.uleb128 0x6
 1119 0271 0E010000 		.4byte	.LASF51
 1120 0275 08       		.byte	0x8
 1121 0276 7D       		.byte	0x7d
 1122 0277 53020000 		.4byte	0x253
 1123 027b 00       		.byte	0
 1124 027c 00       		.byte	0
 1125 027d 03       		.uleb128 0x3
 1126 027e C6070000 		.4byte	.LASF52
 1127 0282 07       		.byte	0x7
 1128 0283 45       		.byte	0x45
 1129 0284 88020000 		.4byte	0x288
 1130 0288 05       		.uleb128 0x5
 1131 0289 13010000 		.4byte	.LASF53
 1132 028d 08       		.byte	0x8
 1133 028e 08       		.byte	0x8
 1134 028f 83       		.byte	0x83
 1135 0290 AD020000 		.4byte	0x2ad
 1136 0294 06       		.uleb128 0x6
ARM GAS  /tmp/ccvX7cVE.s 			page 21


 1137 0295 0E010000 		.4byte	.LASF51
 1138 0299 08       		.byte	0x8
 1139 029a 84       		.byte	0x84
 1140 029b 53020000 		.4byte	0x253
 1141 029f 00       		.byte	0
 1142 02a0 06       		.uleb128 0x6
 1143 02a1 5F000000 		.4byte	.LASF54
 1144 02a5 08       		.byte	0x8
 1145 02a6 85       		.byte	0x85
 1146 02a7 53020000 		.4byte	0x253
 1147 02ab 04       		.byte	0x4
 1148 02ac 00       		.byte	0
 1149 02ad 03       		.uleb128 0x3
 1150 02ae 09000000 		.4byte	.LASF55
 1151 02b2 07       		.byte	0x7
 1152 02b3 4C       		.byte	0x4c
 1153 02b4 B8020000 		.4byte	0x2b8
 1154 02b8 0B       		.uleb128 0xb
 1155 02b9 11040000 		.4byte	.LASF56
 1156 02bd 1C       		.byte	0x1c
 1157 02be 08       		.byte	0x8
 1158 02bf 5E01     		.2byte	0x15e
 1159 02c1 14030000 		.4byte	0x314
 1160 02c5 09       		.uleb128 0x9
 1161 02c6 76030000 		.4byte	.LASF31
 1162 02ca 08       		.byte	0x8
 1163 02cb 5F01     		.2byte	0x15f
 1164 02cd 7D020000 		.4byte	0x27d
 1165 02d1 00       		.byte	0
 1166 02d2 09       		.uleb128 0x9
 1167 02d3 2D050000 		.4byte	.LASF32
 1168 02d7 08       		.byte	0x8
 1169 02d8 6001     		.2byte	0x160
 1170 02da 1B010000 		.4byte	0x11b
 1171 02de 08       		.byte	0x8
 1172 02df 08       		.uleb128 0x8
 1173 02e0 63747800 		.ascii	"ctx\000"
 1174 02e4 08       		.byte	0x8
 1175 02e5 6201     		.2byte	0x162
 1176 02e7 C7060000 		.4byte	0x6c7
 1177 02eb 0C       		.byte	0xc
 1178 02ec 09       		.uleb128 0x9
 1179 02ed 66040000 		.4byte	.LASF33
 1180 02f1 08       		.byte	0x8
 1181 02f2 6501     		.2byte	0x165
 1182 02f4 53020000 		.4byte	0x253
 1183 02f8 10       		.byte	0x10
 1184 02f9 09       		.uleb128 0x9
 1185 02fa C7060000 		.4byte	.LASF34
 1186 02fe 08       		.byte	0x8
 1187 02ff 6601     		.2byte	0x166
 1188 0301 53020000 		.4byte	0x253
 1189 0305 14       		.byte	0x14
 1190 0306 09       		.uleb128 0x9
 1191 0307 3B050000 		.4byte	.LASF57
 1192 030b 08       		.byte	0x8
 1193 030c 6901     		.2byte	0x169
ARM GAS  /tmp/ccvX7cVE.s 			page 22


 1194 030e 53020000 		.4byte	0x253
 1195 0312 18       		.byte	0x18
 1196 0313 00       		.byte	0
 1197 0314 03       		.uleb128 0x3
 1198 0315 0C070000 		.4byte	.LASF58
 1199 0319 07       		.byte	0x7
 1200 031a 51       		.byte	0x51
 1201 031b 1F030000 		.4byte	0x31f
 1202 031f 0A       		.uleb128 0xa
 1203 0320 04       		.byte	0x4
 1204 0321 25030000 		.4byte	0x325
 1205 0325 0C       		.uleb128 0xc
 1206 0326 30030000 		.4byte	0x330
 1207 032a 0D       		.uleb128 0xd
 1208 032b 30030000 		.4byte	0x330
 1209 032f 00       		.byte	0
 1210 0330 0E       		.uleb128 0xe
 1211 0331 04       		.byte	0x4
 1212 0332 03       		.uleb128 0x3
 1213 0333 AB050000 		.4byte	.LASF59
 1214 0337 07       		.byte	0x7
 1215 0338 56       		.byte	0x56
 1216 0339 3D030000 		.4byte	0x33d
 1217 033d 0B       		.uleb128 0xb
 1218 033e 93070000 		.4byte	.LASF60
 1219 0342 14       		.byte	0x14
 1220 0343 08       		.byte	0x8
 1221 0344 3901     		.2byte	0x139
 1222 0346 8C030000 		.4byte	0x38c
 1223 034a 09       		.uleb128 0x9
 1224 034b 0E010000 		.4byte	.LASF51
 1225 034f 08       		.byte	0x8
 1226 0350 3A01     		.2byte	0x13a
 1227 0352 C5090000 		.4byte	0x9c5
 1228 0356 00       		.byte	0
 1229 0357 09       		.uleb128 0x9
 1230 0358 5F000000 		.4byte	.LASF54
 1231 035c 08       		.byte	0x8
 1232 035d 3B01     		.2byte	0x13b
 1233 035f C5090000 		.4byte	0x9c5
 1234 0363 04       		.byte	0x4
 1235 0364 09       		.uleb128 0x9
 1236 0365 E3000000 		.4byte	.LASF61
 1237 0369 08       		.byte	0x8
 1238 036a 3C01     		.2byte	0x13c
 1239 036c 70040000 		.4byte	0x470
 1240 0370 08       		.byte	0x8
 1241 0371 09       		.uleb128 0x9
 1242 0372 01060000 		.4byte	.LASF62
 1243 0376 08       		.byte	0x8
 1244 0377 3D01     		.2byte	0x13d
 1245 0379 14030000 		.4byte	0x314
 1246 037d 0C       		.byte	0xc
 1247 037e 08       		.uleb128 0x8
 1248 037f 70617200 		.ascii	"par\000"
 1249 0383 08       		.byte	0x8
 1250 0384 3F01     		.2byte	0x13f
ARM GAS  /tmp/ccvX7cVE.s 			page 23


 1251 0386 30030000 		.4byte	0x330
 1252 038a 10       		.byte	0x10
 1253 038b 00       		.byte	0
 1254 038c 03       		.uleb128 0x3
 1255 038d 45040000 		.4byte	.LASF63
 1256 0391 07       		.byte	0x7
 1257 0392 5B       		.byte	0x5b
 1258 0393 97030000 		.4byte	0x397
 1259 0397 0B       		.uleb128 0xb
 1260 0398 C8040000 		.4byte	.LASF64
 1261 039c 10       		.byte	0x10
 1262 039d 08       		.byte	0x8
 1263 039e 4901     		.2byte	0x149
 1264 03a0 D9030000 		.4byte	0x3d9
 1265 03a4 09       		.uleb128 0x9
 1266 03a5 0E010000 		.4byte	.LASF51
 1267 03a9 08       		.byte	0x8
 1268 03aa 4A01     		.2byte	0x14a
 1269 03ac C5090000 		.4byte	0x9c5
 1270 03b0 00       		.byte	0
 1271 03b1 09       		.uleb128 0x9
 1272 03b2 5F000000 		.4byte	.LASF54
 1273 03b6 08       		.byte	0x8
 1274 03b7 4C01     		.2byte	0x14c
 1275 03b9 C5090000 		.4byte	0x9c5
 1276 03bd 04       		.byte	0x4
 1277 03be 09       		.uleb128 0x9
 1278 03bf E3000000 		.4byte	.LASF61
 1279 03c3 08       		.byte	0x8
 1280 03c4 4E01     		.2byte	0x14e
 1281 03c6 70040000 		.4byte	0x470
 1282 03ca 08       		.byte	0x8
 1283 03cb 09       		.uleb128 0x9
 1284 03cc 06060000 		.4byte	.LASF65
 1285 03d0 08       		.byte	0x8
 1286 03d1 5601     		.2byte	0x156
 1287 03d3 65040000 		.4byte	0x465
 1288 03d7 0C       		.byte	0xc
 1289 03d8 00       		.byte	0
 1290 03d9 03       		.uleb128 0x3
 1291 03da 50030000 		.4byte	.LASF66
 1292 03de 07       		.byte	0x7
 1293 03df 60       		.byte	0x60
 1294 03e0 E4030000 		.4byte	0x3e4
 1295 03e4 0B       		.uleb128 0xb
 1296 03e5 15020000 		.4byte	.LASF67
 1297 03e9 04       		.byte	0x4
 1298 03ea 08       		.byte	0x8
 1299 03eb 7001     		.2byte	0x170
 1300 03ed FF030000 		.4byte	0x3ff
 1301 03f1 09       		.uleb128 0x9
 1302 03f2 1A070000 		.4byte	.LASF68
 1303 03f6 08       		.byte	0x8
 1304 03f7 7801     		.2byte	0x178
 1305 03f9 CB090000 		.4byte	0x9cb
 1306 03fd 00       		.byte	0
 1307 03fe 00       		.byte	0
ARM GAS  /tmp/ccvX7cVE.s 			page 24


 1308 03ff 03       		.uleb128 0x3
 1309 0400 E0030000 		.4byte	.LASF69
 1310 0404 07       		.byte	0x7
 1311 0405 65       		.byte	0x65
 1312 0406 0A040000 		.4byte	0x40a
 1313 040a 0B       		.uleb128 0xb
 1314 040b A9010000 		.4byte	.LASF70
 1315 040f D0       		.byte	0xd0
 1316 0410 08       		.byte	0x8
 1317 0411 9001     		.2byte	0x190
 1318 0413 65040000 		.4byte	0x465
 1319 0417 09       		.uleb128 0x9
 1320 0418 DB070000 		.4byte	.LASF71
 1321 041c 08       		.byte	0x8
 1322 041d 9401     		.2byte	0x194
 1323 041f AD020000 		.4byte	0x2ad
 1324 0423 00       		.byte	0
 1325 0424 09       		.uleb128 0x9
 1326 0425 70000000 		.4byte	.LASF72
 1327 0429 08       		.byte	0x8
 1328 042a 9801     		.2byte	0x198
 1329 042c 8C030000 		.4byte	0x38c
 1330 0430 1C       		.byte	0x1c
 1331 0431 08       		.uleb128 0x8
 1332 0432 64626700 		.ascii	"dbg\000"
 1333 0436 08       		.byte	0x8
 1334 0437 9C01     		.2byte	0x19c
 1335 0439 D9030000 		.4byte	0x3d9
 1336 043d 2C       		.byte	0x2c
 1337 043e 09       		.uleb128 0x9
 1338 043f D0000000 		.4byte	.LASF73
 1339 0443 08       		.byte	0x8
 1340 0444 A001     		.2byte	0x1a0
 1341 0446 52010000 		.4byte	0x152
 1342 044a 30       		.byte	0x30
 1343 044b 08       		.uleb128 0x8
 1344 044c 746D00   		.ascii	"tm\000"
 1345 044f 08       		.byte	0x8
 1346 0450 A501     		.2byte	0x1a5
 1347 0452 46080000 		.4byte	0x846
 1348 0456 90       		.byte	0x90
 1349 0457 09       		.uleb128 0x9
 1350 0458 48000000 		.4byte	.LASF74
 1351 045c 08       		.byte	0x8
 1352 045d AB01     		.2byte	0x1ab
 1353 045f D8080000 		.4byte	0x8d8
 1354 0463 98       		.byte	0x98
 1355 0464 00       		.byte	0
 1356 0465 03       		.uleb128 0x3
 1357 0466 02070000 		.4byte	.LASF75
 1358 046a 09       		.byte	0x9
 1359 046b 6D       		.byte	0x6d
 1360 046c CE000000 		.4byte	0xce
 1361 0470 03       		.uleb128 0x3
 1362 0471 F6000000 		.4byte	.LASF76
 1363 0475 09       		.byte	0x9
 1364 0476 79       		.byte	0x79
ARM GAS  /tmp/ccvX7cVE.s 			page 25


 1365 0477 CE000000 		.4byte	0xce
 1366 047b 04       		.uleb128 0x4
 1367 047c 04       		.byte	0x4
 1368 047d 07       		.byte	0x7
 1369 047e EF070000 		.4byte	.LASF77
 1370 0482 0F       		.uleb128 0xf
 1371 0483 CE000000 		.4byte	0xce
 1372 0487 10       		.uleb128 0x10
 1373 0488 CE000000 		.4byte	0xce
 1374 048c 97040000 		.4byte	0x497
 1375 0490 11       		.uleb128 0x11
 1376 0491 7B040000 		.4byte	0x47b
 1377 0495 01       		.byte	0x1
 1378 0496 00       		.byte	0
 1379 0497 10       		.uleb128 0x10
 1380 0498 CE000000 		.4byte	0xce
 1381 049c A7040000 		.4byte	0x4a7
 1382 04a0 11       		.uleb128 0x11
 1383 04a1 7B040000 		.4byte	0x47b
 1384 04a5 0B       		.byte	0xb
 1385 04a6 00       		.byte	0
 1386 04a7 12       		.uleb128 0x12
 1387 04a8 1C       		.byte	0x1c
 1388 04a9 0A       		.byte	0xa
 1389 04aa D901     		.2byte	0x1d9
 1390 04ac 0A050000 		.4byte	0x50a
 1391 04b0 08       		.uleb128 0x8
 1392 04b1 41435200 		.ascii	"ACR\000"
 1393 04b5 0A       		.byte	0xa
 1394 04b6 DB01     		.2byte	0x1db
 1395 04b8 82040000 		.4byte	0x482
 1396 04bc 00       		.byte	0
 1397 04bd 09       		.uleb128 0x9
 1398 04be 97050000 		.4byte	.LASF78
 1399 04c2 0A       		.byte	0xa
 1400 04c3 DC01     		.2byte	0x1dc
 1401 04c5 82040000 		.4byte	0x482
 1402 04c9 04       		.byte	0x4
 1403 04ca 09       		.uleb128 0x9
 1404 04cb 75060000 		.4byte	.LASF79
 1405 04cf 0A       		.byte	0xa
 1406 04d0 DD01     		.2byte	0x1dd
 1407 04d2 82040000 		.4byte	0x482
 1408 04d6 08       		.byte	0x8
 1409 04d7 08       		.uleb128 0x8
 1410 04d8 535200   		.ascii	"SR\000"
 1411 04db 0A       		.byte	0xa
 1412 04dc DE01     		.2byte	0x1de
 1413 04de 82040000 		.4byte	0x482
 1414 04e2 0C       		.byte	0xc
 1415 04e3 08       		.uleb128 0x8
 1416 04e4 435200   		.ascii	"CR\000"
 1417 04e7 0A       		.byte	0xa
 1418 04e8 DF01     		.2byte	0x1df
 1419 04ea 82040000 		.4byte	0x482
 1420 04ee 10       		.byte	0x10
 1421 04ef 09       		.uleb128 0x9
ARM GAS  /tmp/ccvX7cVE.s 			page 26


 1422 04f0 77000000 		.4byte	.LASF80
 1423 04f4 0A       		.byte	0xa
 1424 04f5 E001     		.2byte	0x1e0
 1425 04f7 82040000 		.4byte	0x482
 1426 04fb 14       		.byte	0x14
 1427 04fc 09       		.uleb128 0x9
 1428 04fd 83000000 		.4byte	.LASF81
 1429 0501 0A       		.byte	0xa
 1430 0502 E101     		.2byte	0x1e1
 1431 0504 82040000 		.4byte	0x482
 1432 0508 18       		.byte	0x18
 1433 0509 00       		.byte	0
 1434 050a 13       		.uleb128 0x13
 1435 050b 58010000 		.4byte	.LASF82
 1436 050f 0A       		.byte	0xa
 1437 0510 E201     		.2byte	0x1e2
 1438 0512 A7040000 		.4byte	0x4a7
 1439 0516 12       		.uleb128 0x12
 1440 0517 88       		.byte	0x88
 1441 0518 0A       		.byte	0xa
 1442 0519 6602     		.2byte	0x266
 1443 051b A5060000 		.4byte	0x6a5
 1444 051f 08       		.uleb128 0x8
 1445 0520 435200   		.ascii	"CR\000"
 1446 0523 0A       		.byte	0xa
 1447 0524 6802     		.2byte	0x268
 1448 0526 82040000 		.4byte	0x482
 1449 052a 00       		.byte	0
 1450 052b 09       		.uleb128 0x9
 1451 052c F0010000 		.4byte	.LASF83
 1452 0530 0A       		.byte	0xa
 1453 0531 6902     		.2byte	0x269
 1454 0533 82040000 		.4byte	0x482
 1455 0537 04       		.byte	0x4
 1456 0538 09       		.uleb128 0x9
 1457 0539 44030000 		.4byte	.LASF84
 1458 053d 0A       		.byte	0xa
 1459 053e 6A02     		.2byte	0x26a
 1460 0540 82040000 		.4byte	0x482
 1461 0544 08       		.byte	0x8
 1462 0545 08       		.uleb128 0x8
 1463 0546 43495200 		.ascii	"CIR\000"
 1464 054a 0A       		.byte	0xa
 1465 054b 6B02     		.2byte	0x26b
 1466 054d 82040000 		.4byte	0x482
 1467 0551 0C       		.byte	0xc
 1468 0552 09       		.uleb128 0x9
 1469 0553 A4070000 		.4byte	.LASF85
 1470 0557 0A       		.byte	0xa
 1471 0558 6C02     		.2byte	0x26c
 1472 055a 82040000 		.4byte	0x482
 1473 055e 10       		.byte	0x10
 1474 055f 09       		.uleb128 0x9
 1475 0560 EB060000 		.4byte	.LASF86
 1476 0564 0A       		.byte	0xa
 1477 0565 6D02     		.2byte	0x26d
 1478 0567 82040000 		.4byte	0x482
ARM GAS  /tmp/ccvX7cVE.s 			page 27


 1479 056b 14       		.byte	0x14
 1480 056c 09       		.uleb128 0x9
 1481 056d C7030000 		.4byte	.LASF87
 1482 0571 0A       		.byte	0xa
 1483 0572 6E02     		.2byte	0x26e
 1484 0574 82040000 		.4byte	0x482
 1485 0578 18       		.byte	0x18
 1486 0579 09       		.uleb128 0x9
 1487 057a 8D050000 		.4byte	.LASF88
 1488 057e 0A       		.byte	0xa
 1489 057f 6F02     		.2byte	0x26f
 1490 0581 CE000000 		.4byte	0xce
 1491 0585 1C       		.byte	0x1c
 1492 0586 09       		.uleb128 0x9
 1493 0587 32050000 		.4byte	.LASF89
 1494 058b 0A       		.byte	0xa
 1495 058c 7002     		.2byte	0x270
 1496 058e 82040000 		.4byte	0x482
 1497 0592 20       		.byte	0x20
 1498 0593 09       		.uleb128 0x9
 1499 0594 BC010000 		.4byte	.LASF90
 1500 0598 0A       		.byte	0xa
 1501 0599 7102     		.2byte	0x271
 1502 059b 82040000 		.4byte	0x482
 1503 059f 24       		.byte	0x24
 1504 05a0 09       		.uleb128 0x9
 1505 05a1 04010000 		.4byte	.LASF91
 1506 05a5 0A       		.byte	0xa
 1507 05a6 7202     		.2byte	0x272
 1508 05a8 87040000 		.4byte	0x487
 1509 05ac 28       		.byte	0x28
 1510 05ad 09       		.uleb128 0x9
 1511 05ae 08080000 		.4byte	.LASF92
 1512 05b2 0A       		.byte	0xa
 1513 05b3 7302     		.2byte	0x273
 1514 05b5 82040000 		.4byte	0x482
 1515 05b9 30       		.byte	0x30
 1516 05ba 09       		.uleb128 0x9
 1517 05bb EC030000 		.4byte	.LASF93
 1518 05bf 0A       		.byte	0xa
 1519 05c0 7402     		.2byte	0x274
 1520 05c2 82040000 		.4byte	0x482
 1521 05c6 34       		.byte	0x34
 1522 05c7 09       		.uleb128 0x9
 1523 05c8 3C060000 		.4byte	.LASF94
 1524 05cc 0A       		.byte	0xa
 1525 05cd 7502     		.2byte	0x275
 1526 05cf 82040000 		.4byte	0x482
 1527 05d3 38       		.byte	0x38
 1528 05d4 09       		.uleb128 0x9
 1529 05d5 9C050000 		.4byte	.LASF95
 1530 05d9 0A       		.byte	0xa
 1531 05da 7602     		.2byte	0x276
 1532 05dc CE000000 		.4byte	0xce
 1533 05e0 3C       		.byte	0x3c
 1534 05e1 09       		.uleb128 0x9
 1535 05e2 2B070000 		.4byte	.LASF96
ARM GAS  /tmp/ccvX7cVE.s 			page 28


 1536 05e6 0A       		.byte	0xa
 1537 05e7 7702     		.2byte	0x277
 1538 05e9 82040000 		.4byte	0x482
 1539 05ed 40       		.byte	0x40
 1540 05ee 09       		.uleb128 0x9
 1541 05ef 2B060000 		.4byte	.LASF97
 1542 05f3 0A       		.byte	0xa
 1543 05f4 7802     		.2byte	0x278
 1544 05f6 82040000 		.4byte	0x482
 1545 05fa 44       		.byte	0x44
 1546 05fb 09       		.uleb128 0x9
 1547 05fc 51060000 		.4byte	.LASF98
 1548 0600 0A       		.byte	0xa
 1549 0601 7902     		.2byte	0x279
 1550 0603 87040000 		.4byte	0x487
 1551 0607 48       		.byte	0x48
 1552 0608 09       		.uleb128 0x9
 1553 0609 2D010000 		.4byte	.LASF99
 1554 060d 0A       		.byte	0xa
 1555 060e 7A02     		.2byte	0x27a
 1556 0610 82040000 		.4byte	0x482
 1557 0614 50       		.byte	0x50
 1558 0615 09       		.uleb128 0x9
 1559 0616 0B050000 		.4byte	.LASF100
 1560 061a 0A       		.byte	0xa
 1561 061b 7B02     		.2byte	0x27b
 1562 061d 82040000 		.4byte	0x482
 1563 0621 54       		.byte	0x54
 1564 0622 09       		.uleb128 0x9
 1565 0623 0F060000 		.4byte	.LASF101
 1566 0627 0A       		.byte	0xa
 1567 0628 7C02     		.2byte	0x27c
 1568 062a 82040000 		.4byte	0x482
 1569 062e 58       		.byte	0x58
 1570 062f 09       		.uleb128 0x9
 1571 0630 5B060000 		.4byte	.LASF102
 1572 0634 0A       		.byte	0xa
 1573 0635 7D02     		.2byte	0x27d
 1574 0637 CE000000 		.4byte	0xce
 1575 063b 5C       		.byte	0x5c
 1576 063c 09       		.uleb128 0x9
 1577 063d C5010000 		.4byte	.LASF103
 1578 0641 0A       		.byte	0xa
 1579 0642 7E02     		.2byte	0x27e
 1580 0644 82040000 		.4byte	0x482
 1581 0648 60       		.byte	0x60
 1582 0649 09       		.uleb128 0x9
 1583 064a FC030000 		.4byte	.LASF104
 1584 064e 0A       		.byte	0xa
 1585 064f 7F02     		.2byte	0x27f
 1586 0651 82040000 		.4byte	0x482
 1587 0655 64       		.byte	0x64
 1588 0656 09       		.uleb128 0x9
 1589 0657 BB050000 		.4byte	.LASF105
 1590 065b 0A       		.byte	0xa
 1591 065c 8002     		.2byte	0x280
 1592 065e 87040000 		.4byte	0x487
ARM GAS  /tmp/ccvX7cVE.s 			page 29


 1593 0662 68       		.byte	0x68
 1594 0663 09       		.uleb128 0x9
 1595 0664 D6070000 		.4byte	.LASF106
 1596 0668 0A       		.byte	0xa
 1597 0669 8102     		.2byte	0x281
 1598 066b 82040000 		.4byte	0x482
 1599 066f 70       		.byte	0x70
 1600 0670 08       		.uleb128 0x8
 1601 0671 43535200 		.ascii	"CSR\000"
 1602 0675 0A       		.byte	0xa
 1603 0676 8202     		.2byte	0x282
 1604 0678 82040000 		.4byte	0x482
 1605 067c 74       		.byte	0x74
 1606 067d 09       		.uleb128 0x9
 1607 067e C5050000 		.4byte	.LASF107
 1608 0682 0A       		.byte	0xa
 1609 0683 8302     		.2byte	0x283
 1610 0685 87040000 		.4byte	0x487
 1611 0689 78       		.byte	0x78
 1612 068a 09       		.uleb128 0x9
 1613 068b BA070000 		.4byte	.LASF108
 1614 068f 0A       		.byte	0xa
 1615 0690 8402     		.2byte	0x284
 1616 0692 82040000 		.4byte	0x482
 1617 0696 80       		.byte	0x80
 1618 0697 09       		.uleb128 0x9
 1619 0698 B6030000 		.4byte	.LASF109
 1620 069c 0A       		.byte	0xa
 1621 069d 8502     		.2byte	0x285
 1622 069f 82040000 		.4byte	0x482
 1623 06a3 84       		.byte	0x84
 1624 06a4 00       		.byte	0
 1625 06a5 13       		.uleb128 0x13
 1626 06a6 64030000 		.4byte	.LASF110
 1627 06aa 0A       		.byte	0xa
 1628 06ab 8602     		.2byte	0x286
 1629 06ad 16050000 		.4byte	0x516
 1630 06b1 03       		.uleb128 0x3
 1631 06b2 0C020000 		.4byte	.LASF111
 1632 06b6 0B       		.byte	0xb
 1633 06b7 65       		.byte	0x65
 1634 06b8 30030000 		.4byte	0x330
 1635 06bc 03       		.uleb128 0x3
 1636 06bd 5B040000 		.4byte	.LASF112
 1637 06c1 0B       		.byte	0xb
 1638 06c2 6D       		.byte	0x6d
 1639 06c3 D9000000 		.4byte	0xd9
 1640 06c7 05       		.uleb128 0x5
 1641 06c8 35020000 		.4byte	.LASF113
 1642 06cc 04       		.byte	0x4
 1643 06cd 0B       		.byte	0xb
 1644 06ce 89       		.byte	0x89
 1645 06cf DF060000 		.4byte	0x6df
 1646 06d3 07       		.uleb128 0x7
 1647 06d4 737000   		.ascii	"sp\000"
 1648 06d7 0B       		.byte	0xb
 1649 06d8 8A       		.byte	0x8a
ARM GAS  /tmp/ccvX7cVE.s 			page 30


 1650 06d9 2B080000 		.4byte	0x82b
 1651 06dd 00       		.byte	0
 1652 06de 00       		.byte	0
 1653 06df 0B       		.uleb128 0xb
 1654 06e0 64000000 		.4byte	.LASF114
 1655 06e4 64       		.byte	0x64
 1656 06e5 0C       		.byte	0xc
 1657 06e6 5901     		.2byte	0x159
 1658 06e8 2B080000 		.4byte	0x82b
 1659 06ec 08       		.uleb128 0x8
 1660 06ed 73313600 		.ascii	"s16\000"
 1661 06f1 0C       		.byte	0xc
 1662 06f2 5B01     		.2byte	0x15b
 1663 06f4 B1060000 		.4byte	0x6b1
 1664 06f8 00       		.byte	0
 1665 06f9 08       		.uleb128 0x8
 1666 06fa 73313700 		.ascii	"s17\000"
 1667 06fe 0C       		.byte	0xc
 1668 06ff 5C01     		.2byte	0x15c
 1669 0701 B1060000 		.4byte	0x6b1
 1670 0705 04       		.byte	0x4
 1671 0706 08       		.uleb128 0x8
 1672 0707 73313800 		.ascii	"s18\000"
 1673 070b 0C       		.byte	0xc
 1674 070c 5D01     		.2byte	0x15d
 1675 070e B1060000 		.4byte	0x6b1
 1676 0712 08       		.byte	0x8
 1677 0713 08       		.uleb128 0x8
 1678 0714 73313900 		.ascii	"s19\000"
 1679 0718 0C       		.byte	0xc
 1680 0719 5E01     		.2byte	0x15e
 1681 071b B1060000 		.4byte	0x6b1
 1682 071f 0C       		.byte	0xc
 1683 0720 08       		.uleb128 0x8
 1684 0721 73323000 		.ascii	"s20\000"
 1685 0725 0C       		.byte	0xc
 1686 0726 5F01     		.2byte	0x15f
 1687 0728 B1060000 		.4byte	0x6b1
 1688 072c 10       		.byte	0x10
 1689 072d 08       		.uleb128 0x8
 1690 072e 73323100 		.ascii	"s21\000"
 1691 0732 0C       		.byte	0xc
 1692 0733 6001     		.2byte	0x160
 1693 0735 B1060000 		.4byte	0x6b1
 1694 0739 14       		.byte	0x14
 1695 073a 08       		.uleb128 0x8
 1696 073b 73323200 		.ascii	"s22\000"
 1697 073f 0C       		.byte	0xc
 1698 0740 6101     		.2byte	0x161
 1699 0742 B1060000 		.4byte	0x6b1
 1700 0746 18       		.byte	0x18
 1701 0747 08       		.uleb128 0x8
 1702 0748 73323300 		.ascii	"s23\000"
 1703 074c 0C       		.byte	0xc
 1704 074d 6201     		.2byte	0x162
 1705 074f B1060000 		.4byte	0x6b1
 1706 0753 1C       		.byte	0x1c
ARM GAS  /tmp/ccvX7cVE.s 			page 31


 1707 0754 08       		.uleb128 0x8
 1708 0755 73323400 		.ascii	"s24\000"
 1709 0759 0C       		.byte	0xc
 1710 075a 6301     		.2byte	0x163
 1711 075c B1060000 		.4byte	0x6b1
 1712 0760 20       		.byte	0x20
 1713 0761 08       		.uleb128 0x8
 1714 0762 73323500 		.ascii	"s25\000"
 1715 0766 0C       		.byte	0xc
 1716 0767 6401     		.2byte	0x164
 1717 0769 B1060000 		.4byte	0x6b1
 1718 076d 24       		.byte	0x24
 1719 076e 08       		.uleb128 0x8
 1720 076f 73323600 		.ascii	"s26\000"
 1721 0773 0C       		.byte	0xc
 1722 0774 6501     		.2byte	0x165
 1723 0776 B1060000 		.4byte	0x6b1
 1724 077a 28       		.byte	0x28
 1725 077b 08       		.uleb128 0x8
 1726 077c 73323700 		.ascii	"s27\000"
 1727 0780 0C       		.byte	0xc
 1728 0781 6601     		.2byte	0x166
 1729 0783 B1060000 		.4byte	0x6b1
 1730 0787 2C       		.byte	0x2c
 1731 0788 08       		.uleb128 0x8
 1732 0789 73323800 		.ascii	"s28\000"
 1733 078d 0C       		.byte	0xc
 1734 078e 6701     		.2byte	0x167
 1735 0790 B1060000 		.4byte	0x6b1
 1736 0794 30       		.byte	0x30
 1737 0795 08       		.uleb128 0x8
 1738 0796 73323900 		.ascii	"s29\000"
 1739 079a 0C       		.byte	0xc
 1740 079b 6801     		.2byte	0x168
 1741 079d B1060000 		.4byte	0x6b1
 1742 07a1 34       		.byte	0x34
 1743 07a2 08       		.uleb128 0x8
 1744 07a3 73333000 		.ascii	"s30\000"
 1745 07a7 0C       		.byte	0xc
 1746 07a8 6901     		.2byte	0x169
 1747 07aa B1060000 		.4byte	0x6b1
 1748 07ae 38       		.byte	0x38
 1749 07af 08       		.uleb128 0x8
 1750 07b0 73333100 		.ascii	"s31\000"
 1751 07b4 0C       		.byte	0xc
 1752 07b5 6A01     		.2byte	0x16a
 1753 07b7 B1060000 		.4byte	0x6b1
 1754 07bb 3C       		.byte	0x3c
 1755 07bc 08       		.uleb128 0x8
 1756 07bd 723400   		.ascii	"r4\000"
 1757 07c0 0C       		.byte	0xc
 1758 07c1 6C01     		.2byte	0x16c
 1759 07c3 B1060000 		.4byte	0x6b1
 1760 07c7 40       		.byte	0x40
 1761 07c8 08       		.uleb128 0x8
 1762 07c9 723500   		.ascii	"r5\000"
 1763 07cc 0C       		.byte	0xc
ARM GAS  /tmp/ccvX7cVE.s 			page 32


 1764 07cd 6D01     		.2byte	0x16d
 1765 07cf B1060000 		.4byte	0x6b1
 1766 07d3 44       		.byte	0x44
 1767 07d4 08       		.uleb128 0x8
 1768 07d5 723600   		.ascii	"r6\000"
 1769 07d8 0C       		.byte	0xc
 1770 07d9 6E01     		.2byte	0x16e
 1771 07db B1060000 		.4byte	0x6b1
 1772 07df 48       		.byte	0x48
 1773 07e0 08       		.uleb128 0x8
 1774 07e1 723700   		.ascii	"r7\000"
 1775 07e4 0C       		.byte	0xc
 1776 07e5 6F01     		.2byte	0x16f
 1777 07e7 B1060000 		.4byte	0x6b1
 1778 07eb 4C       		.byte	0x4c
 1779 07ec 08       		.uleb128 0x8
 1780 07ed 723800   		.ascii	"r8\000"
 1781 07f0 0C       		.byte	0xc
 1782 07f1 7001     		.2byte	0x170
 1783 07f3 B1060000 		.4byte	0x6b1
 1784 07f7 50       		.byte	0x50
 1785 07f8 08       		.uleb128 0x8
 1786 07f9 723900   		.ascii	"r9\000"
 1787 07fc 0C       		.byte	0xc
 1788 07fd 7101     		.2byte	0x171
 1789 07ff B1060000 		.4byte	0x6b1
 1790 0803 54       		.byte	0x54
 1791 0804 08       		.uleb128 0x8
 1792 0805 72313000 		.ascii	"r10\000"
 1793 0809 0C       		.byte	0xc
 1794 080a 7201     		.2byte	0x172
 1795 080c B1060000 		.4byte	0x6b1
 1796 0810 58       		.byte	0x58
 1797 0811 08       		.uleb128 0x8
 1798 0812 72313100 		.ascii	"r11\000"
 1799 0816 0C       		.byte	0xc
 1800 0817 7301     		.2byte	0x173
 1801 0819 B1060000 		.4byte	0x6b1
 1802 081d 5C       		.byte	0x5c
 1803 081e 08       		.uleb128 0x8
 1804 081f 6C7200   		.ascii	"lr\000"
 1805 0822 0C       		.byte	0xc
 1806 0823 7401     		.2byte	0x174
 1807 0825 B1060000 		.4byte	0x6b1
 1808 0829 60       		.byte	0x60
 1809 082a 00       		.byte	0
 1810 082b 0A       		.uleb128 0xa
 1811 082c 04       		.byte	0x4
 1812 082d DF060000 		.4byte	0x6df
 1813 0831 14       		.uleb128 0x14
 1814 0832 04       		.byte	0x4
 1815 0833 0D       		.byte	0xd
 1816 0834 38       		.byte	0x38
 1817 0835 46080000 		.4byte	0x846
 1818 0839 06       		.uleb128 0x6
 1819 083a 24070000 		.4byte	.LASF115
 1820 083e 0D       		.byte	0xd
ARM GAS  /tmp/ccvX7cVE.s 			page 33


 1821 083f 3C       		.byte	0x3c
 1822 0840 E4000000 		.4byte	0xe4
 1823 0844 00       		.byte	0
 1824 0845 00       		.byte	0
 1825 0846 03       		.uleb128 0x3
 1826 0847 B7040000 		.4byte	.LASF116
 1827 084b 0D       		.byte	0xd
 1828 084c 3D       		.byte	0x3d
 1829 084d 31080000 		.4byte	0x831
 1830 0851 14       		.uleb128 0x14
 1831 0852 18       		.byte	0x18
 1832 0853 0D       		.byte	0xd
 1833 0854 48       		.byte	0x48
 1834 0855 94080000 		.4byte	0x894
 1835 0859 06       		.uleb128 0x6
 1836 085a FD060000 		.4byte	.LASF117
 1837 085e 0D       		.byte	0xd
 1838 085f 49       		.byte	0x49
 1839 0860 E4000000 		.4byte	0xe4
 1840 0864 00       		.byte	0
 1841 0865 06       		.uleb128 0x6
 1842 0866 7D000000 		.4byte	.LASF118
 1843 086a 0D       		.byte	0xd
 1844 086b 4A       		.byte	0x4a
 1845 086c E4000000 		.4byte	0xe4
 1846 0870 04       		.byte	0x4
 1847 0871 06       		.uleb128 0x6
 1848 0872 15070000 		.4byte	.LASF119
 1849 0876 0D       		.byte	0xd
 1850 0877 4B       		.byte	0x4b
 1851 0878 E4000000 		.4byte	0xe4
 1852 087c 08       		.byte	0x8
 1853 087d 07       		.uleb128 0x7
 1854 087e 6E00     		.ascii	"n\000"
 1855 0880 0D       		.byte	0xd
 1856 0881 4C       		.byte	0x4c
 1857 0882 47010000 		.4byte	0x147
 1858 0886 0C       		.byte	0xc
 1859 0887 06       		.uleb128 0x6
 1860 0888 4E050000 		.4byte	.LASF120
 1861 088c 0D       		.byte	0xd
 1862 088d 4D       		.byte	0x4d
 1863 088e EF000000 		.4byte	0xef
 1864 0892 10       		.byte	0x10
 1865 0893 00       		.byte	0
 1866 0894 03       		.uleb128 0x3
 1867 0895 8A000000 		.4byte	.LASF121
 1868 0899 0D       		.byte	0xd
 1869 089a 4E       		.byte	0x4e
 1870 089b 51080000 		.4byte	0x851
 1871 089f 14       		.uleb128 0x14
 1872 08a0 38       		.byte	0x38
 1873 08a1 0E       		.byte	0xe
 1874 08a2 38       		.byte	0x38
 1875 08a3 D8080000 		.4byte	0x8d8
 1876 08a7 06       		.uleb128 0x6
 1877 08a8 70030000 		.4byte	.LASF122
ARM GAS  /tmp/ccvX7cVE.s 			page 34


 1878 08ac 0E       		.byte	0xe
 1879 08ad 39       		.byte	0x39
 1880 08ae 47010000 		.4byte	0x147
 1881 08b2 00       		.byte	0
 1882 08b3 06       		.uleb128 0x6
 1883 08b4 DC050000 		.4byte	.LASF123
 1884 08b8 0E       		.byte	0xe
 1885 08b9 3A       		.byte	0x3a
 1886 08ba 47010000 		.4byte	0x147
 1887 08be 04       		.byte	0x4
 1888 08bf 06       		.uleb128 0x6
 1889 08c0 27080000 		.4byte	.LASF124
 1890 08c4 0E       		.byte	0xe
 1891 08c5 3B       		.byte	0x3b
 1892 08c6 94080000 		.4byte	0x894
 1893 08ca 08       		.byte	0x8
 1894 08cb 06       		.uleb128 0x6
 1895 08cc 06040000 		.4byte	.LASF125
 1896 08d0 0E       		.byte	0xe
 1897 08d1 3D       		.byte	0x3d
 1898 08d2 94080000 		.4byte	0x894
 1899 08d6 20       		.byte	0x20
 1900 08d7 00       		.byte	0
 1901 08d8 03       		.uleb128 0x3
 1902 08d9 9D030000 		.4byte	.LASF126
 1903 08dd 0E       		.byte	0xe
 1904 08de 3F       		.byte	0x3f
 1905 08df 9F080000 		.4byte	0x89f
 1906 08e3 15       		.uleb128 0x15
 1907 08e4 04       		.byte	0x4
 1908 08e5 08       		.byte	0x8
 1909 08e6 C6       		.byte	0xc6
 1910 08e7 45090000 		.4byte	0x945
 1911 08eb 16       		.uleb128 0x16
 1912 08ec 1D000000 		.4byte	.LASF127
 1913 08f0 08       		.byte	0x8
 1914 08f1 CD       		.byte	0xcd
 1915 08f2 26010000 		.4byte	0x126
 1916 08f6 16       		.uleb128 0x16
 1917 08f7 F8010000 		.4byte	.LASF128
 1918 08fb 08       		.byte	0x8
 1919 08fc D4       		.byte	0xd4
 1920 08fd 26010000 		.4byte	0x126
 1921 0901 16       		.uleb128 0x16
 1922 0902 93010000 		.4byte	.LASF129
 1923 0906 08       		.byte	0x8
 1924 0907 DB       		.byte	0xdb
 1925 0908 30030000 		.4byte	0x330
 1926 090c 16       		.uleb128 0x16
 1927 090d DF040000 		.4byte	.LASF130
 1928 0911 08       		.byte	0x8
 1929 0912 E2       		.byte	0xe2
 1930 0913 45090000 		.4byte	0x945
 1931 0917 16       		.uleb128 0x16
 1932 0918 DB000000 		.4byte	.LASF131
 1933 091c 08       		.byte	0x8
 1934 091d E7       		.byte	0xe7
ARM GAS  /tmp/ccvX7cVE.s 			page 35


 1935 091e 26010000 		.4byte	0x126
 1936 0922 16       		.uleb128 0x16
 1937 0923 49030000 		.4byte	.LASF132
 1938 0927 08       		.byte	0x8
 1939 0928 F0       		.byte	0xf0
 1940 0929 70090000 		.4byte	0x970
 1941 092d 16       		.uleb128 0x16
 1942 092e 6E060000 		.4byte	.LASF133
 1943 0932 08       		.byte	0x8
 1944 0933 F9       		.byte	0xf9
 1945 0934 A7090000 		.4byte	0x9a7
 1946 0938 17       		.uleb128 0x17
 1947 0939 51010000 		.4byte	.LASF134
 1948 093d 08       		.byte	0x8
 1949 093e 0101     		.2byte	0x101
 1950 0940 31010000 		.4byte	0x131
 1951 0944 00       		.byte	0
 1952 0945 0A       		.uleb128 0xa
 1953 0946 04       		.byte	0x4
 1954 0947 48020000 		.4byte	0x248
 1955 094b 05       		.uleb128 0x5
 1956 094c 44060000 		.4byte	.LASF135
 1957 0950 0C       		.byte	0xc
 1958 0951 0F       		.byte	0xf
 1959 0952 34       		.byte	0x34
 1960 0953 70090000 		.4byte	0x970
 1961 0957 06       		.uleb128 0x6
 1962 0958 76030000 		.4byte	.LASF31
 1963 095c 0F       		.byte	0xf
 1964 095d 35       		.byte	0x35
 1965 095e 7D020000 		.4byte	0x27d
 1966 0962 00       		.byte	0
 1967 0963 07       		.uleb128 0x7
 1968 0964 636E7400 		.ascii	"cnt\000"
 1969 0968 0F       		.byte	0xf
 1970 0969 37       		.byte	0x37
 1971 096a 3C010000 		.4byte	0x13c
 1972 096e 08       		.byte	0x8
 1973 096f 00       		.byte	0
 1974 0970 0A       		.uleb128 0xa
 1975 0971 04       		.byte	0x4
 1976 0972 4B090000 		.4byte	0x94b
 1977 0976 05       		.uleb128 0x5
 1978 0977 F8070000 		.4byte	.LASF136
 1979 097b 10       		.byte	0x10
 1980 097c 10       		.byte	0x10
 1981 097d 39       		.byte	0x39
 1982 097e A7090000 		.4byte	0x9a7
 1983 0982 06       		.uleb128 0x6
 1984 0983 76030000 		.4byte	.LASF31
 1985 0987 10       		.byte	0x10
 1986 0988 3A       		.byte	0x3a
 1987 0989 7D020000 		.4byte	0x27d
 1988 098d 00       		.byte	0
 1989 098e 06       		.uleb128 0x6
 1990 098f 8D060000 		.4byte	.LASF137
 1991 0993 10       		.byte	0x10
ARM GAS  /tmp/ccvX7cVE.s 			page 36


 1992 0994 3C       		.byte	0x3c
 1993 0995 53020000 		.4byte	0x253
 1994 0999 08       		.byte	0x8
 1995 099a 06       		.uleb128 0x6
 1996 099b 0E010000 		.4byte	.LASF51
 1997 099f 10       		.byte	0x10
 1998 09a0 3E       		.byte	0x3e
 1999 09a1 DB090000 		.4byte	0x9db
 2000 09a5 0C       		.byte	0xc
 2001 09a6 00       		.byte	0
 2002 09a7 0A       		.uleb128 0xa
 2003 09a8 04       		.byte	0x4
 2004 09a9 76090000 		.4byte	0x976
 2005 09ad 0A       		.uleb128 0xa
 2006 09ae 04       		.byte	0x4
 2007 09af B3090000 		.4byte	0x9b3
 2008 09b3 18       		.uleb128 0x18
 2009 09b4 B8090000 		.4byte	0x9b8
 2010 09b8 04       		.uleb128 0x4
 2011 09b9 01       		.byte	0x1
 2012 09ba 08       		.byte	0x8
 2013 09bb C2060000 		.4byte	.LASF138
 2014 09bf 0A       		.uleb128 0xa
 2015 09c0 04       		.byte	0x4
 2016 09c1 BC060000 		.4byte	0x6bc
 2017 09c5 0A       		.uleb128 0xa
 2018 09c6 04       		.byte	0x4
 2019 09c7 32030000 		.4byte	0x332
 2020 09cb 0F       		.uleb128 0xf
 2021 09cc AD090000 		.4byte	0x9ad
 2022 09d0 03       		.uleb128 0x3
 2023 09d1 2D020000 		.4byte	.LASF139
 2024 09d5 10       		.byte	0x10
 2025 09d6 34       		.byte	0x34
 2026 09d7 76090000 		.4byte	0x976
 2027 09db 0A       		.uleb128 0xa
 2028 09dc 04       		.byte	0x4
 2029 09dd D0090000 		.4byte	0x9d0
 2030 09e1 04       		.uleb128 0x4
 2031 09e2 01       		.byte	0x1
 2032 09e3 02       		.byte	0x2
 2033 09e4 E5050000 		.4byte	.LASF140
 2034 09e8 0A       		.uleb128 0xa
 2035 09e9 04       		.byte	0x4
 2036 09ea AD000000 		.4byte	0xad
 2037 09ee 19       		.uleb128 0x19
 2038 09ef 3F040000 		.4byte	.LASF141
 2039 09f3 02       		.byte	0x2
 2040 09f4 6D03     		.2byte	0x36d
 2041 09f6 03       		.byte	0x3
 2042 09f7 1A       		.uleb128 0x1a
 2043 09f8 CD060000 		.4byte	.LASF142
 2044 09fc 01       		.byte	0x1
 2045 09fd B8       		.byte	0xb8
 2046 09fe 01       		.byte	0x1
 2047 09ff 1B       		.uleb128 0x1b
 2048 0a00 8B040000 		.4byte	.LASF166
ARM GAS  /tmp/ccvX7cVE.s 			page 37


 2049 0a04 01       		.byte	0x1
 2050 0a05 D8       		.byte	0xd8
 2051 0a06 01       		.byte	0x1
 2052 0a07 1C       		.uleb128 0x1c
 2053 0a08 F3040000 		.4byte	.LASF143
 2054 0a0c 01       		.byte	0x1
 2055 0a0d 1301     		.2byte	0x113
 2056 0a0f CE000000 		.4byte	0xce
 2057 0a13 01       		.byte	0x1
 2058 0a14 250A0000 		.4byte	0xa25
 2059 0a18 1D       		.uleb128 0x1d
 2060 0a19 5F030000 		.4byte	.LASF145
 2061 0a1d 01       		.byte	0x1
 2062 0a1e 1301     		.2byte	0x113
 2063 0a20 CE000000 		.4byte	0xce
 2064 0a24 00       		.byte	0
 2065 0a25 1E       		.uleb128 0x1e
 2066 0a26 15050000 		.4byte	.LASF144
 2067 0a2a 01       		.byte	0x1
 2068 0a2b F9       		.byte	0xf9
 2069 0a2c CE000000 		.4byte	0xce
 2070 0a30 01       		.byte	0x1
 2071 0a31 590A0000 		.4byte	0xa59
 2072 0a35 1F       		.uleb128 0x1f
 2073 0a36 5F030000 		.4byte	.LASF145
 2074 0a3a 01       		.byte	0x1
 2075 0a3b F9       		.byte	0xf9
 2076 0a3c CE000000 		.4byte	0xce
 2077 0a40 20       		.uleb128 0x20
 2078 0a41 21       		.uleb128 0x21
 2079 0a42 E5040000 		.4byte	.LASF146
 2080 0a46 01       		.byte	0x1
 2081 0a47 0201     		.2byte	0x102
 2082 0a49 CE000000 		.4byte	0xce
 2083 0a4d 22       		.uleb128 0x22
 2084 0a4e 6900     		.ascii	"i\000"
 2085 0a50 01       		.byte	0x1
 2086 0a51 0301     		.2byte	0x103
 2087 0a53 AD000000 		.4byte	0xad
 2088 0a57 00       		.byte	0
 2089 0a58 00       		.byte	0
 2090 0a59 23       		.uleb128 0x23
 2091 0a5a 81030000 		.4byte	.LASF154
 2092 0a5e 01       		.byte	0x1
 2093 0a5f 92       		.byte	0x92
 2094 0a60 CE000000 		.4byte	0xce
 2095 0a64 03       		.byte	0x3
 2096 0a65 800A0000 		.4byte	0xa80
 2097 0a69 1F       		.uleb128 0x1f
 2098 0a6a D7050000 		.4byte	.LASF147
 2099 0a6e 01       		.byte	0x1
 2100 0a6f 92       		.byte	0x92
 2101 0a70 37000000 		.4byte	0x37
 2102 0a74 24       		.uleb128 0x24
 2103 0a75 01080000 		.4byte	.LASF148
 2104 0a79 01       		.byte	0x1
 2105 0a7a 94       		.byte	0x94
ARM GAS  /tmp/ccvX7cVE.s 			page 38


 2106 0a7b CE000000 		.4byte	0xce
 2107 0a7f 00       		.byte	0
 2108 0a80 1C       		.uleb128 0x1c
 2109 0a81 32080000 		.4byte	.LASF149
 2110 0a85 01       		.byte	0x1
 2111 0a86 2501     		.2byte	0x125
 2112 0a88 E1090000 		.4byte	0x9e1
 2113 0a8c 01       		.byte	0x1
 2114 0a8d C20A0000 		.4byte	0xac2
 2115 0a91 1D       		.uleb128 0x1d
 2116 0a92 5F030000 		.4byte	.LASF145
 2117 0a96 01       		.byte	0x1
 2118 0a97 2501     		.2byte	0x125
 2119 0a99 CE000000 		.4byte	0xce
 2120 0a9d 21       		.uleb128 0x21
 2121 0a9e D7050000 		.4byte	.LASF147
 2122 0aa2 01       		.byte	0x1
 2123 0aa3 2701     		.2byte	0x127
 2124 0aa5 CE000000 		.4byte	0xce
 2125 0aa9 21       		.uleb128 0x21
 2126 0aaa ED040000 		.4byte	.LASF150
 2127 0aae 01       		.byte	0x1
 2128 0aaf 2801     		.2byte	0x128
 2129 0ab1 CE000000 		.4byte	0xce
 2130 0ab5 20       		.uleb128 0x20
 2131 0ab6 22       		.uleb128 0x22
 2132 0ab7 7600     		.ascii	"v\000"
 2133 0ab9 01       		.byte	0x1
 2134 0aba 3001     		.2byte	0x130
 2135 0abc CE000000 		.4byte	0xce
 2136 0ac0 00       		.byte	0
 2137 0ac1 00       		.byte	0
 2138 0ac2 1A       		.uleb128 0x1a
 2139 0ac3 B7000000 		.4byte	.LASF151
 2140 0ac7 01       		.byte	0x1
 2141 0ac8 AE       		.byte	0xae
 2142 0ac9 01       		.byte	0x1
 2143 0aca 25       		.uleb128 0x25
 2144 0acb 33060000 		.4byte	.LASF152
 2145 0acf 01       		.byte	0x1
 2146 0ad0 9A       		.byte	0x9a
 2147 0ad1 03       		.byte	0x3
 2148 0ad2 ED0A0000 		.4byte	0xaed
 2149 0ad6 26       		.uleb128 0x26
 2150 0ad7 76616C00 		.ascii	"val\000"
 2151 0adb 01       		.byte	0x1
 2152 0adc 9A       		.byte	0x9a
 2153 0add CE000000 		.4byte	0xce
 2154 0ae1 1F       		.uleb128 0x1f
 2155 0ae2 D7050000 		.4byte	.LASF147
 2156 0ae6 01       		.byte	0x1
 2157 0ae7 9A       		.byte	0x9a
 2158 0ae8 37000000 		.4byte	0x37
 2159 0aec 00       		.byte	0
 2160 0aed 25       		.uleb128 0x25
 2161 0aee E7010000 		.4byte	.LASF153
 2162 0af2 01       		.byte	0x1
ARM GAS  /tmp/ccvX7cVE.s 			page 39


 2163 0af3 8C       		.byte	0x8c
 2164 0af4 03       		.byte	0x3
 2165 0af5 100B0000 		.4byte	0xb10
 2166 0af9 26       		.uleb128 0x26
 2167 0afa 76616C00 		.ascii	"val\000"
 2168 0afe 01       		.byte	0x1
 2169 0aff 8C       		.byte	0x8c
 2170 0b00 B8000000 		.4byte	0xb8
 2171 0b04 1F       		.uleb128 0x1f
 2172 0b05 D7050000 		.4byte	.LASF147
 2173 0b09 01       		.byte	0x1
 2174 0b0a 8C       		.byte	0x8c
 2175 0b0b 37000000 		.4byte	0x37
 2176 0b0f 00       		.byte	0
 2177 0b10 23       		.uleb128 0x23
 2178 0b11 24010000 		.4byte	.LASF155
 2179 0b15 01       		.byte	0x1
 2180 0b16 84       		.byte	0x84
 2181 0b17 B8000000 		.4byte	0xb8
 2182 0b1b 03       		.byte	0x3
 2183 0b1c 370B0000 		.4byte	0xb37
 2184 0b20 1F       		.uleb128 0x1f
 2185 0b21 D7050000 		.4byte	.LASF147
 2186 0b25 01       		.byte	0x1
 2187 0b26 84       		.byte	0x84
 2188 0b27 37000000 		.4byte	0x37
 2189 0b2b 24       		.uleb128 0x24
 2190 0b2c 01080000 		.4byte	.LASF148
 2191 0b30 01       		.byte	0x1
 2192 0b31 86       		.byte	0x86
 2193 0b32 B8000000 		.4byte	0xb8
 2194 0b36 00       		.byte	0
 2195 0b37 27       		.uleb128 0x27
 2196 0b38 93060000 		.4byte	.LASF167
 2197 0b3c 01       		.byte	0x1
 2198 0b3d 9F       		.byte	0x9f
 2199 0b3e 00000000 		.4byte	.LFB327
 2200 0b42 14000000 		.4byte	.LFE327-.LFB327
 2201 0b46 01       		.uleb128 0x1
 2202 0b47 9C       		.byte	0x9c
 2203 0b48 5C0B0000 		.4byte	0xb5c
 2204 0b4c 28       		.uleb128 0x28
 2205 0b4d EE090000 		.4byte	0x9ee
 2206 0b51 00000000 		.4byte	.LBB39
 2207 0b55 04000000 		.4byte	.LBE39-.LBB39
 2208 0b59 01       		.byte	0x1
 2209 0b5a A1       		.byte	0xa1
 2210 0b5b 00       		.byte	0
 2211 0b5c 29       		.uleb128 0x29
 2212 0b5d F7090000 		.4byte	0x9f7
 2213 0b61 00000000 		.4byte	.LFB329
 2214 0b65 34000000 		.4byte	.LFE329-.LFB329
 2215 0b69 01       		.uleb128 0x1
 2216 0b6a 9C       		.byte	0x9c
 2217 0b6b 790B0000 		.4byte	0xb79
 2218 0b6f 2A       		.uleb128 0x2a
 2219 0b70 0C000000 		.4byte	.LVL0
ARM GAS  /tmp/ccvX7cVE.s 			page 40


 2220 0b74 370B0000 		.4byte	0xb37
 2221 0b78 00       		.byte	0
 2222 0b79 29       		.uleb128 0x29
 2223 0b7a FF090000 		.4byte	0x9ff
 2224 0b7e 00000000 		.4byte	.LFB330
 2225 0b82 38000000 		.4byte	.LFE330-.LFB330
 2226 0b86 01       		.uleb128 0x1
 2227 0b87 9C       		.byte	0x9c
 2228 0b88 960B0000 		.4byte	0xb96
 2229 0b8c 2A       		.uleb128 0x2a
 2230 0b8d 0C000000 		.4byte	.LVL1
 2231 0b91 370B0000 		.4byte	0xb37
 2232 0b95 00       		.byte	0
 2233 0b96 29       		.uleb128 0x29
 2234 0b97 250A0000 		.4byte	0xa25
 2235 0b9b 00000000 		.4byte	.LFB331
 2236 0b9f 40000000 		.4byte	.LFE331-.LFB331
 2237 0ba3 01       		.uleb128 0x1
 2238 0ba4 9C       		.byte	0x9c
 2239 0ba5 FC0B0000 		.4byte	0xbfc
 2240 0ba9 2B       		.uleb128 0x2b
 2241 0baa 350A0000 		.4byte	0xa35
 2242 0bae 00000000 		.4byte	.LLST0
 2243 0bb2 2C       		.uleb128 0x2c
 2244 0bb3 06000000 		.4byte	.LBB54
 2245 0bb7 28000000 		.4byte	.LBE54-.LBB54
 2246 0bbb 2B       		.uleb128 0x2b
 2247 0bbc 350A0000 		.4byte	0xa35
 2248 0bc0 3A000000 		.4byte	.LLST1
 2249 0bc4 2C       		.uleb128 0x2c
 2250 0bc5 12000000 		.4byte	.LBB56
 2251 0bc9 16000000 		.4byte	.LBE56-.LBB56
 2252 0bcd 2D       		.uleb128 0x2d
 2253 0bce 410A0000 		.4byte	0xa41
 2254 0bd2 5B000000 		.4byte	.LLST2
 2255 0bd6 2D       		.uleb128 0x2d
 2256 0bd7 4D0A0000 		.4byte	0xa4d
 2257 0bdb 6E000000 		.4byte	.LLST3
 2258 0bdf 2E       		.uleb128 0x2e
 2259 0be0 070A0000 		.4byte	0xa07
 2260 0be4 12000000 		.4byte	.LBB57
 2261 0be8 02000000 		.4byte	.LBE57-.LBB57
 2262 0bec 01       		.byte	0x1
 2263 0bed 0701     		.2byte	0x107
 2264 0bef 2B       		.uleb128 0x2b
 2265 0bf0 180A0000 		.4byte	0xa18
 2266 0bf4 81000000 		.4byte	.LLST4
 2267 0bf8 00       		.byte	0
 2268 0bf9 00       		.byte	0
 2269 0bfa 00       		.byte	0
 2270 0bfb 00       		.byte	0
 2271 0bfc 29       		.uleb128 0x29
 2272 0bfd 070A0000 		.4byte	0xa07
 2273 0c01 00000000 		.4byte	.LFB332
 2274 0c05 0C000000 		.4byte	.LFE332-.LFB332
 2275 0c09 01       		.uleb128 0x1
 2276 0c0a 9C       		.byte	0x9c
ARM GAS  /tmp/ccvX7cVE.s 			page 41


 2277 0c0b 190C0000 		.4byte	0xc19
 2278 0c0f 2B       		.uleb128 0x2b
 2279 0c10 180A0000 		.4byte	0xa18
 2280 0c14 A1000000 		.4byte	.LLST5
 2281 0c18 00       		.byte	0
 2282 0c19 2F       		.uleb128 0x2f
 2283 0c1a 6D050000 		.4byte	.LASF168
 2284 0c1e 01       		.byte	0x1
 2285 0c1f 2001     		.2byte	0x120
 2286 0c21 CE000000 		.4byte	0xce
 2287 0c25 00000000 		.4byte	.LFB333
 2288 0c29 04000000 		.4byte	.LFE333-.LFB333
 2289 0c2d 01       		.uleb128 0x1
 2290 0c2e 9C       		.byte	0x9c
 2291 0c2f 29       		.uleb128 0x29
 2292 0c30 800A0000 		.4byte	0xa80
 2293 0c34 00000000 		.4byte	.LFB334
 2294 0c38 30000000 		.4byte	.LFE334-.LFB334
 2295 0c3c 01       		.uleb128 0x1
 2296 0c3d 9C       		.byte	0x9c
 2297 0c3e EA0C0000 		.4byte	0xcea
 2298 0c42 2B       		.uleb128 0x2b
 2299 0c43 910A0000 		.4byte	0xa91
 2300 0c47 C2000000 		.4byte	.LLST6
 2301 0c4b 30       		.uleb128 0x30
 2302 0c4c 9D0A0000 		.4byte	0xa9d
 2303 0c50 30       		.uleb128 0x30
 2304 0c51 A90A0000 		.4byte	0xaa9
 2305 0c55 2C       		.uleb128 0x2c
 2306 0c56 0C000000 		.4byte	.LBB66
 2307 0c5a 1E000000 		.4byte	.LBE66-.LBB66
 2308 0c5e 2B       		.uleb128 0x2b
 2309 0c5f 910A0000 		.4byte	0xa91
 2310 0c63 04010000 		.4byte	.LLST7
 2311 0c67 2C       		.uleb128 0x2c
 2312 0c68 0C000000 		.4byte	.LBB67
 2313 0c6c 1E000000 		.4byte	.LBE67-.LBB67
 2314 0c70 2D       		.uleb128 0x2d
 2315 0c71 9D0A0000 		.4byte	0xa9d
 2316 0c75 30010000 		.4byte	.LLST8
 2317 0c79 31       		.uleb128 0x31
 2318 0c7a A90A0000 		.4byte	0xaa9
 2319 0c7e 01       		.uleb128 0x1
 2320 0c7f 52       		.byte	0x52
 2321 0c80 32       		.uleb128 0x32
 2322 0c81 070A0000 		.4byte	0xa07
 2323 0c85 10000000 		.4byte	.LBB68
 2324 0c89 06000000 		.4byte	.LBE68-.LBB68
 2325 0c8d 01       		.byte	0x1
 2326 0c8e 2E01     		.2byte	0x12e
 2327 0c90 9E0C0000 		.4byte	0xc9e
 2328 0c94 2B       		.uleb128 0x2b
 2329 0c95 180A0000 		.4byte	0xa18
 2330 0c99 6C010000 		.4byte	.LLST9
 2331 0c9d 00       		.byte	0
 2332 0c9e 33       		.uleb128 0x33
 2333 0c9f 1E000000 		.4byte	.LBB70
ARM GAS  /tmp/ccvX7cVE.s 			page 42


 2334 0ca3 06000000 		.4byte	.LBE70-.LBB70
 2335 0ca7 DE0C0000 		.4byte	0xcde
 2336 0cab 30       		.uleb128 0x30
 2337 0cac B60A0000 		.4byte	0xab6
 2338 0cb0 2E       		.uleb128 0x2e
 2339 0cb1 590A0000 		.4byte	0xa59
 2340 0cb5 1E000000 		.4byte	.LBB71
 2341 0cb9 02000000 		.4byte	.LBE71-.LBB71
 2342 0cbd 01       		.byte	0x1
 2343 0cbe 3001     		.2byte	0x130
 2344 0cc0 2B       		.uleb128 0x2b
 2345 0cc1 690A0000 		.4byte	0xa69
 2346 0cc5 8D010000 		.4byte	.LLST10
 2347 0cc9 2C       		.uleb128 0x2c
 2348 0cca 1E000000 		.4byte	.LBB72
 2349 0cce 02000000 		.4byte	.LBE72-.LBB72
 2350 0cd2 2D       		.uleb128 0x2d
 2351 0cd3 740A0000 		.4byte	0xa74
 2352 0cd7 C8010000 		.4byte	.LLST11
 2353 0cdb 00       		.byte	0
 2354 0cdc 00       		.byte	0
 2355 0cdd 00       		.byte	0
 2356 0cde 2A       		.uleb128 0x2a
 2357 0cdf 10000000 		.4byte	.LVL18
 2358 0ce3 250A0000 		.4byte	0xa25
 2359 0ce7 00       		.byte	0
 2360 0ce8 00       		.byte	0
 2361 0ce9 00       		.byte	0
 2362 0cea 34       		.uleb128 0x34
 2363 0ceb 66010000 		.4byte	.LASF156
 2364 0cef 01       		.byte	0x1
 2365 0cf0 3C01     		.2byte	0x13c
 2366 0cf2 E1090000 		.4byte	0x9e1
 2367 0cf6 00000000 		.4byte	.LFB335
 2368 0cfa 5C000000 		.4byte	.LFE335-.LFB335
 2369 0cfe 01       		.uleb128 0x1
 2370 0cff 9C       		.byte	0x9c
 2371 0d00 870D0000 		.4byte	0xd87
 2372 0d04 35       		.uleb128 0x35
 2373 0d05 5F030000 		.4byte	.LASF145
 2374 0d09 01       		.byte	0x1
 2375 0d0a 3C01     		.2byte	0x13c
 2376 0d0c CE000000 		.4byte	0xce
 2377 0d10 E8010000 		.4byte	.LLST12
 2378 0d14 36       		.uleb128 0x36
 2379 0d15 736E6200 		.ascii	"snb\000"
 2380 0d19 01       		.byte	0x1
 2381 0d1a 6901     		.2byte	0x169
 2382 0d1c AD000000 		.4byte	0xad
 2383 0d20 43020000 		.4byte	.LLST13
 2384 0d24 37       		.uleb128 0x37
 2385 0d25 C20A0000 		.4byte	0xac2
 2386 0d29 08000000 		.4byte	.LBB73
 2387 0d2d 00000000 		.4byte	.Ldebug_ranges0+0
 2388 0d31 01       		.byte	0x1
 2389 0d32 4901     		.2byte	0x149
 2390 0d34 2A       		.uleb128 0x2a
ARM GAS  /tmp/ccvX7cVE.s 			page 43


 2391 0d35 0E000000 		.4byte	.LVL28
 2392 0d39 370B0000 		.4byte	0xb37
 2393 0d3d 2A       		.uleb128 0x2a
 2394 0d3e 12000000 		.4byte	.LVL29
 2395 0d42 F7090000 		.4byte	0x9f7
 2396 0d46 2A       		.uleb128 0x2a
 2397 0d47 1A000000 		.4byte	.LVL30
 2398 0d4b 370B0000 		.4byte	0xb37
 2399 0d4f 2A       		.uleb128 0x2a
 2400 0d50 3E000000 		.4byte	.LVL31
 2401 0d54 370B0000 		.4byte	0xb37
 2402 0d58 38       		.uleb128 0x38
 2403 0d59 44000000 		.4byte	.LVL32
 2404 0d5d 250A0000 		.4byte	0xa25
 2405 0d61 6C0D0000 		.4byte	0xd6c
 2406 0d65 39       		.uleb128 0x39
 2407 0d66 01       		.uleb128 0x1
 2408 0d67 50       		.byte	0x50
 2409 0d68 02       		.uleb128 0x2
 2410 0d69 74       		.byte	0x74
 2411 0d6a 00       		.sleb128 0
 2412 0d6b 00       		.byte	0
 2413 0d6c 2A       		.uleb128 0x2a
 2414 0d6d 48000000 		.4byte	.LVL33
 2415 0d71 FF090000 		.4byte	0x9ff
 2416 0d75 3A       		.uleb128 0x3a
 2417 0d76 52000000 		.4byte	.LVL35
 2418 0d7a 800A0000 		.4byte	0xa80
 2419 0d7e 39       		.uleb128 0x39
 2420 0d7f 01       		.uleb128 0x1
 2421 0d80 50       		.byte	0x50
 2422 0d81 03       		.uleb128 0x3
 2423 0d82 F3       		.byte	0xf3
 2424 0d83 01       		.uleb128 0x1
 2425 0d84 50       		.byte	0x50
 2426 0d85 00       		.byte	0
 2427 0d86 00       		.byte	0
 2428 0d87 34       		.uleb128 0x34
 2429 0d88 19060000 		.4byte	.LASF157
 2430 0d8c 01       		.byte	0x1
 2431 0d8d BB01     		.2byte	0x1bb
 2432 0d8f E1090000 		.4byte	0x9e1
 2433 0d93 00000000 		.4byte	.LFB336
 2434 0d97 DC000000 		.4byte	.LFE336-.LFB336
 2435 0d9b 01       		.uleb128 0x1
 2436 0d9c 9C       		.byte	0x9c
 2437 0d9d 260F0000 		.4byte	0xf26
 2438 0da1 35       		.uleb128 0x35
 2439 0da2 D7050000 		.4byte	.LASF147
 2440 0da6 01       		.byte	0x1
 2441 0da7 BB01     		.2byte	0x1bb
 2442 0da9 CE000000 		.4byte	0xce
 2443 0dad 7F020000 		.4byte	.LLST14
 2444 0db1 3B       		.uleb128 0x3b
 2445 0db2 62756600 		.ascii	"buf\000"
 2446 0db6 01       		.byte	0x1
 2447 0db7 BB01     		.2byte	0x1bb
ARM GAS  /tmp/ccvX7cVE.s 			page 44


 2448 0db9 260F0000 		.4byte	0xf26
 2449 0dbd C6020000 		.4byte	.LLST15
 2450 0dc1 35       		.uleb128 0x35
 2451 0dc2 ED040000 		.4byte	.LASF150
 2452 0dc6 01       		.byte	0x1
 2453 0dc7 BB01     		.2byte	0x1bb
 2454 0dc9 CE000000 		.4byte	0xce
 2455 0dcd F2020000 		.4byte	.LLST16
 2456 0dd1 36       		.uleb128 0x36
 2457 0dd2 6200     		.ascii	"b\000"
 2458 0dd4 01       		.byte	0x1
 2459 0dd5 BD01     		.2byte	0x1bd
 2460 0dd7 E8090000 		.4byte	0x9e8
 2461 0ddb 49030000 		.4byte	.LLST17
 2462 0ddf 3C       		.uleb128 0x3c
 2463 0de0 7B040000 		.4byte	.LASF169
 2464 0de4 01       		.byte	0x1
 2465 0de5 0F02     		.2byte	0x20f
 2466 0de7 AE000000 		.4byte	.L45
 2467 0deb 3D       		.uleb128 0x3d
 2468 0dec C20A0000 		.4byte	0xac2
 2469 0df0 26000000 		.4byte	.LBB77
 2470 0df4 06000000 		.4byte	.LBE77-.LBB77
 2471 0df8 01       		.byte	0x1
 2472 0df9 D501     		.2byte	0x1d5
 2473 0dfb 33       		.uleb128 0x33
 2474 0dfc 3C000000 		.4byte	.LBB79
 2475 0e00 3C000000 		.4byte	.LBE79-.LBB79
 2476 0e04 940E0000 		.4byte	0xe94
 2477 0e08 36       		.uleb128 0x36
 2478 0e09 763100   		.ascii	"v1\000"
 2479 0e0c 01       		.byte	0x1
 2480 0e0d DD01     		.2byte	0x1dd
 2481 0e0f 2D0F0000 		.4byte	0xf2d
 2482 0e13 A5030000 		.4byte	.LLST18
 2483 0e17 22       		.uleb128 0x22
 2484 0e18 763200   		.ascii	"v2\000"
 2485 0e1b 01       		.byte	0x1
 2486 0e1c E601     		.2byte	0x1e6
 2487 0e1e 2D0F0000 		.4byte	0xf2d
 2488 0e22 32       		.uleb128 0x32
 2489 0e23 CA0A0000 		.4byte	0xaca
 2490 0e27 56000000 		.4byte	.LBB80
 2491 0e2b 02000000 		.4byte	.LBE80-.LBB80
 2492 0e2f 01       		.byte	0x1
 2493 0e30 DF01     		.2byte	0x1df
 2494 0e32 490E0000 		.4byte	0xe49
 2495 0e36 2B       		.uleb128 0x2b
 2496 0e37 E10A0000 		.4byte	0xae1
 2497 0e3b B8030000 		.4byte	.LLST19
 2498 0e3f 2B       		.uleb128 0x2b
 2499 0e40 D60A0000 		.4byte	0xad6
 2500 0e44 A5030000 		.4byte	.LLST18
 2501 0e48 00       		.byte	0
 2502 0e49 3D       		.uleb128 0x3d
 2503 0e4a EE090000 		.4byte	0x9ee
 2504 0e4e 58000000 		.4byte	.LBB82
ARM GAS  /tmp/ccvX7cVE.s 			page 45


 2505 0e52 04000000 		.4byte	.LBE82-.LBB82
 2506 0e56 01       		.byte	0x1
 2507 0e57 E201     		.2byte	0x1e2
 2508 0e59 32       		.uleb128 0x32
 2509 0e5a 590A0000 		.4byte	0xa59
 2510 0e5e 60000000 		.4byte	.LBB84
 2511 0e62 02000000 		.4byte	.LBE84-.LBB84
 2512 0e66 01       		.byte	0x1
 2513 0e67 E601     		.2byte	0x1e6
 2514 0e69 8A0E0000 		.4byte	0xe8a
 2515 0e6d 2B       		.uleb128 0x2b
 2516 0e6e 690A0000 		.4byte	0xa69
 2517 0e72 D8030000 		.4byte	.LLST21
 2518 0e76 2C       		.uleb128 0x2c
 2519 0e77 60000000 		.4byte	.LBB85
 2520 0e7b 02000000 		.4byte	.LBE85-.LBB85
 2521 0e7f 2D       		.uleb128 0x2d
 2522 0e80 740A0000 		.4byte	0xa74
 2523 0e84 F8030000 		.4byte	.LLST22
 2524 0e88 00       		.byte	0
 2525 0e89 00       		.byte	0
 2526 0e8a 2A       		.uleb128 0x2a
 2527 0e8b 60000000 		.4byte	.LVL44
 2528 0e8f 370B0000 		.4byte	0xb37
 2529 0e93 00       		.byte	0
 2530 0e94 32       		.uleb128 0x32
 2531 0e95 ED0A0000 		.4byte	0xaed
 2532 0e99 94000000 		.4byte	.LBB86
 2533 0e9d 06000000 		.4byte	.LBE86-.LBB86
 2534 0ea1 01       		.byte	0x1
 2535 0ea2 F601     		.2byte	0x1f6
 2536 0ea4 BB0E0000 		.4byte	0xebb
 2537 0ea8 2B       		.uleb128 0x2b
 2538 0ea9 040B0000 		.4byte	0xb04
 2539 0ead 0B040000 		.4byte	.LLST23
 2540 0eb1 2B       		.uleb128 0x2b
 2541 0eb2 F90A0000 		.4byte	0xaf9
 2542 0eb6 31040000 		.4byte	.LLST24
 2543 0eba 00       		.byte	0
 2544 0ebb 3D       		.uleb128 0x3d
 2545 0ebc EE090000 		.4byte	0x9ee
 2546 0ec0 9A000000 		.4byte	.LBB88
 2547 0ec4 04000000 		.4byte	.LBE88-.LBB88
 2548 0ec8 01       		.byte	0x1
 2549 0ec9 F901     		.2byte	0x1f9
 2550 0ecb 3E       		.uleb128 0x3e
 2551 0ecc 100B0000 		.4byte	0xb10
 2552 0ed0 A2000000 		.4byte	.LBB90
 2553 0ed4 18000000 		.4byte	.Ldebug_ranges0+0x18
 2554 0ed8 01       		.byte	0x1
 2555 0ed9 FD01     		.2byte	0x1fd
 2556 0edb F80E0000 		.4byte	0xef8
 2557 0edf 2B       		.uleb128 0x2b
 2558 0ee0 200B0000 		.4byte	0xb20
 2559 0ee4 51040000 		.4byte	.LLST25
 2560 0ee8 3F       		.uleb128 0x3f
 2561 0ee9 18000000 		.4byte	.Ldebug_ranges0+0x18
ARM GAS  /tmp/ccvX7cVE.s 			page 46


 2562 0eed 2D       		.uleb128 0x2d
 2563 0eee 2B0B0000 		.4byte	0xb2b
 2564 0ef2 77040000 		.4byte	.LLST26
 2565 0ef6 00       		.byte	0
 2566 0ef7 00       		.byte	0
 2567 0ef8 2A       		.uleb128 0x2a
 2568 0ef9 26000000 		.4byte	.LVL41
 2569 0efd F7090000 		.4byte	0x9f7
 2570 0f01 2A       		.uleb128 0x2a
 2571 0f02 30000000 		.4byte	.LVL42
 2572 0f06 370B0000 		.4byte	0xb37
 2573 0f0a 2A       		.uleb128 0x2a
 2574 0f0b A2000000 		.4byte	.LVL52
 2575 0f0f 370B0000 		.4byte	0xb37
 2576 0f13 2A       		.uleb128 0x2a
 2577 0f14 BA000000 		.4byte	.LVL56
 2578 0f18 FF090000 		.4byte	0x9ff
 2579 0f1c 2A       		.uleb128 0x2a
 2580 0f1d C6000000 		.4byte	.LVL58
 2581 0f21 FF090000 		.4byte	0x9ff
 2582 0f25 00       		.byte	0
 2583 0f26 0A       		.uleb128 0xa
 2584 0f27 04       		.byte	0x4
 2585 0f28 2C0F0000 		.4byte	0xf2c
 2586 0f2c 40       		.uleb128 0x40
 2587 0f2d 18       		.uleb128 0x18
 2588 0f2e CE000000 		.4byte	0xce
 2589 0f32 41       		.uleb128 0x41
 2590 0f33 9D000000 		.4byte	.LASF170
 2591 0f37 01       		.byte	0x1
 2592 0f38 1802     		.2byte	0x218
 2593 0f3a 00000000 		.4byte	.LFB337
 2594 0f3e 28000000 		.4byte	.LFE337-.LFB337
 2595 0f42 01       		.uleb128 0x1
 2596 0f43 9C       		.byte	0x9c
 2597 0f44 6B0F0000 		.4byte	0xf6b
 2598 0f48 3B       		.uleb128 0x3b
 2599 0f49 73657400 		.ascii	"set\000"
 2600 0f4d 01       		.byte	0x1
 2601 0f4e 1802     		.2byte	0x218
 2602 0f50 E1090000 		.4byte	0x9e1
 2603 0f54 8A040000 		.4byte	.LLST27
 2604 0f58 2A       		.uleb128 0x2a
 2605 0f59 0E000000 		.4byte	.LVL61
 2606 0f5d F7090000 		.4byte	0x9f7
 2607 0f61 42       		.uleb128 0x42
 2608 0f62 20000000 		.4byte	.LVL63
 2609 0f66 FF090000 		.4byte	0x9ff
 2610 0f6a 00       		.byte	0
 2611 0f6b 43       		.uleb128 0x43
 2612 0f6c AD070000 		.4byte	.LASF158
 2613 0f70 01       		.byte	0x1
 2614 0f71 56       		.byte	0x56
 2615 0f72 7C0F0000 		.4byte	0xf7c
 2616 0f76 05       		.uleb128 0x5
 2617 0f77 03       		.byte	0x3
 2618 0f78 00000000 		.4byte	flash_memmap
ARM GAS  /tmp/ccvX7cVE.s 			page 47


 2619 0f7c 18       		.uleb128 0x18
 2620 0f7d 97040000 		.4byte	0x497
 2621 0f81 43       		.uleb128 0x43
 2622 0f82 6C040000 		.4byte	.LASF159
 2623 0f86 01       		.byte	0x1
 2624 0f87 78       		.byte	0x78
 2625 0f88 97040000 		.4byte	0x497
 2626 0f8c 05       		.uleb128 0x5
 2627 0f8d 03       		.byte	0x3
 2628 0f8e 00000000 		.4byte	flash_pageaddr
 2629 0f92 43       		.uleb128 0x43
 2630 0f93 24000000 		.4byte	.LASF160
 2631 0f97 01       		.byte	0x1
 2632 0f98 79       		.byte	0x79
 2633 0f99 E1090000 		.4byte	0x9e1
 2634 0f9d 05       		.uleb128 0x5
 2635 0f9e 03       		.byte	0x3
 2636 0f9f 00000000 		.4byte	flash_pageaddr_initialised
 2637 0fa3 43       		.uleb128 0x43
 2638 0fa4 59050000 		.4byte	.LASF161
 2639 0fa8 01       		.byte	0x1
 2640 0fa9 7C       		.byte	0x7c
 2641 0faa E1090000 		.4byte	0x9e1
 2642 0fae 05       		.uleb128 0x5
 2643 0faf 03       		.byte	0x3
 2644 0fb0 00000000 		.4byte	flash_keep_unlocked
 2645 0fb4 44       		.uleb128 0x44
 2646 0fb5 E9000000 		.4byte	.LASF162
 2647 0fb9 11       		.byte	0x11
 2648 0fba 0408     		.2byte	0x804
 2649 0fbc C00F0000 		.4byte	0xfc0
 2650 0fc0 0F       		.uleb128 0xf
 2651 0fc1 C3000000 		.4byte	0xc3
 2652 0fc5 45       		.uleb128 0x45
 2653 0fc6 636800   		.ascii	"ch\000"
 2654 0fc9 08       		.byte	0x8
 2655 0fca C701     		.2byte	0x1c7
 2656 0fcc FF030000 		.4byte	0x3ff
 2657 0fd0 00       		.byte	0
 2658              		.section	.debug_abbrev,"",%progbits
 2659              	.Ldebug_abbrev0:
 2660 0000 01       		.uleb128 0x1
 2661 0001 11       		.uleb128 0x11
 2662 0002 01       		.byte	0x1
 2663 0003 25       		.uleb128 0x25
 2664 0004 0E       		.uleb128 0xe
 2665 0005 13       		.uleb128 0x13
 2666 0006 0B       		.uleb128 0xb
 2667 0007 03       		.uleb128 0x3
 2668 0008 0E       		.uleb128 0xe
 2669 0009 1B       		.uleb128 0x1b
 2670 000a 0E       		.uleb128 0xe
 2671 000b 55       		.uleb128 0x55
 2672 000c 17       		.uleb128 0x17
 2673 000d 11       		.uleb128 0x11
 2674 000e 01       		.uleb128 0x1
 2675 000f 10       		.uleb128 0x10
ARM GAS  /tmp/ccvX7cVE.s 			page 48


 2676 0010 17       		.uleb128 0x17
 2677 0011 00       		.byte	0
 2678 0012 00       		.byte	0
 2679 0013 02       		.uleb128 0x2
 2680 0014 24       		.uleb128 0x24
 2681 0015 00       		.byte	0
 2682 0016 0B       		.uleb128 0xb
 2683 0017 0B       		.uleb128 0xb
 2684 0018 3E       		.uleb128 0x3e
 2685 0019 0B       		.uleb128 0xb
 2686 001a 03       		.uleb128 0x3
 2687 001b 08       		.uleb128 0x8
 2688 001c 00       		.byte	0
 2689 001d 00       		.byte	0
 2690 001e 03       		.uleb128 0x3
 2691 001f 16       		.uleb128 0x16
 2692 0020 00       		.byte	0
 2693 0021 03       		.uleb128 0x3
 2694 0022 0E       		.uleb128 0xe
 2695 0023 3A       		.uleb128 0x3a
 2696 0024 0B       		.uleb128 0xb
 2697 0025 3B       		.uleb128 0x3b
 2698 0026 0B       		.uleb128 0xb
 2699 0027 49       		.uleb128 0x49
 2700 0028 13       		.uleb128 0x13
 2701 0029 00       		.byte	0
 2702 002a 00       		.byte	0
 2703 002b 04       		.uleb128 0x4
 2704 002c 24       		.uleb128 0x24
 2705 002d 00       		.byte	0
 2706 002e 0B       		.uleb128 0xb
 2707 002f 0B       		.uleb128 0xb
 2708 0030 3E       		.uleb128 0x3e
 2709 0031 0B       		.uleb128 0xb
 2710 0032 03       		.uleb128 0x3
 2711 0033 0E       		.uleb128 0xe
 2712 0034 00       		.byte	0
 2713 0035 00       		.byte	0
 2714 0036 05       		.uleb128 0x5
 2715 0037 13       		.uleb128 0x13
 2716 0038 01       		.byte	0x1
 2717 0039 03       		.uleb128 0x3
 2718 003a 0E       		.uleb128 0xe
 2719 003b 0B       		.uleb128 0xb
 2720 003c 0B       		.uleb128 0xb
 2721 003d 3A       		.uleb128 0x3a
 2722 003e 0B       		.uleb128 0xb
 2723 003f 3B       		.uleb128 0x3b
 2724 0040 0B       		.uleb128 0xb
 2725 0041 01       		.uleb128 0x1
 2726 0042 13       		.uleb128 0x13
 2727 0043 00       		.byte	0
 2728 0044 00       		.byte	0
 2729 0045 06       		.uleb128 0x6
 2730 0046 0D       		.uleb128 0xd
 2731 0047 00       		.byte	0
 2732 0048 03       		.uleb128 0x3
ARM GAS  /tmp/ccvX7cVE.s 			page 49


 2733 0049 0E       		.uleb128 0xe
 2734 004a 3A       		.uleb128 0x3a
 2735 004b 0B       		.uleb128 0xb
 2736 004c 3B       		.uleb128 0x3b
 2737 004d 0B       		.uleb128 0xb
 2738 004e 49       		.uleb128 0x49
 2739 004f 13       		.uleb128 0x13
 2740 0050 38       		.uleb128 0x38
 2741 0051 0B       		.uleb128 0xb
 2742 0052 00       		.byte	0
 2743 0053 00       		.byte	0
 2744 0054 07       		.uleb128 0x7
 2745 0055 0D       		.uleb128 0xd
 2746 0056 00       		.byte	0
 2747 0057 03       		.uleb128 0x3
 2748 0058 08       		.uleb128 0x8
 2749 0059 3A       		.uleb128 0x3a
 2750 005a 0B       		.uleb128 0xb
 2751 005b 3B       		.uleb128 0x3b
 2752 005c 0B       		.uleb128 0xb
 2753 005d 49       		.uleb128 0x49
 2754 005e 13       		.uleb128 0x13
 2755 005f 38       		.uleb128 0x38
 2756 0060 0B       		.uleb128 0xb
 2757 0061 00       		.byte	0
 2758 0062 00       		.byte	0
 2759 0063 08       		.uleb128 0x8
 2760 0064 0D       		.uleb128 0xd
 2761 0065 00       		.byte	0
 2762 0066 03       		.uleb128 0x3
 2763 0067 08       		.uleb128 0x8
 2764 0068 3A       		.uleb128 0x3a
 2765 0069 0B       		.uleb128 0xb
 2766 006a 3B       		.uleb128 0x3b
 2767 006b 05       		.uleb128 0x5
 2768 006c 49       		.uleb128 0x49
 2769 006d 13       		.uleb128 0x13
 2770 006e 38       		.uleb128 0x38
 2771 006f 0B       		.uleb128 0xb
 2772 0070 00       		.byte	0
 2773 0071 00       		.byte	0
 2774 0072 09       		.uleb128 0x9
 2775 0073 0D       		.uleb128 0xd
 2776 0074 00       		.byte	0
 2777 0075 03       		.uleb128 0x3
 2778 0076 0E       		.uleb128 0xe
 2779 0077 3A       		.uleb128 0x3a
 2780 0078 0B       		.uleb128 0xb
 2781 0079 3B       		.uleb128 0x3b
 2782 007a 05       		.uleb128 0x5
 2783 007b 49       		.uleb128 0x49
 2784 007c 13       		.uleb128 0x13
 2785 007d 38       		.uleb128 0x38
 2786 007e 0B       		.uleb128 0xb
 2787 007f 00       		.byte	0
 2788 0080 00       		.byte	0
 2789 0081 0A       		.uleb128 0xa
ARM GAS  /tmp/ccvX7cVE.s 			page 50


 2790 0082 0F       		.uleb128 0xf
 2791 0083 00       		.byte	0
 2792 0084 0B       		.uleb128 0xb
 2793 0085 0B       		.uleb128 0xb
 2794 0086 49       		.uleb128 0x49
 2795 0087 13       		.uleb128 0x13
 2796 0088 00       		.byte	0
 2797 0089 00       		.byte	0
 2798 008a 0B       		.uleb128 0xb
 2799 008b 13       		.uleb128 0x13
 2800 008c 01       		.byte	0x1
 2801 008d 03       		.uleb128 0x3
 2802 008e 0E       		.uleb128 0xe
 2803 008f 0B       		.uleb128 0xb
 2804 0090 0B       		.uleb128 0xb
 2805 0091 3A       		.uleb128 0x3a
 2806 0092 0B       		.uleb128 0xb
 2807 0093 3B       		.uleb128 0x3b
 2808 0094 05       		.uleb128 0x5
 2809 0095 01       		.uleb128 0x1
 2810 0096 13       		.uleb128 0x13
 2811 0097 00       		.byte	0
 2812 0098 00       		.byte	0
 2813 0099 0C       		.uleb128 0xc
 2814 009a 15       		.uleb128 0x15
 2815 009b 01       		.byte	0x1
 2816 009c 27       		.uleb128 0x27
 2817 009d 19       		.uleb128 0x19
 2818 009e 01       		.uleb128 0x1
 2819 009f 13       		.uleb128 0x13
 2820 00a0 00       		.byte	0
 2821 00a1 00       		.byte	0
 2822 00a2 0D       		.uleb128 0xd
 2823 00a3 05       		.uleb128 0x5
 2824 00a4 00       		.byte	0
 2825 00a5 49       		.uleb128 0x49
 2826 00a6 13       		.uleb128 0x13
 2827 00a7 00       		.byte	0
 2828 00a8 00       		.byte	0
 2829 00a9 0E       		.uleb128 0xe
 2830 00aa 0F       		.uleb128 0xf
 2831 00ab 00       		.byte	0
 2832 00ac 0B       		.uleb128 0xb
 2833 00ad 0B       		.uleb128 0xb
 2834 00ae 00       		.byte	0
 2835 00af 00       		.byte	0
 2836 00b0 0F       		.uleb128 0xf
 2837 00b1 35       		.uleb128 0x35
 2838 00b2 00       		.byte	0
 2839 00b3 49       		.uleb128 0x49
 2840 00b4 13       		.uleb128 0x13
 2841 00b5 00       		.byte	0
 2842 00b6 00       		.byte	0
 2843 00b7 10       		.uleb128 0x10
 2844 00b8 01       		.uleb128 0x1
 2845 00b9 01       		.byte	0x1
 2846 00ba 49       		.uleb128 0x49
ARM GAS  /tmp/ccvX7cVE.s 			page 51


 2847 00bb 13       		.uleb128 0x13
 2848 00bc 01       		.uleb128 0x1
 2849 00bd 13       		.uleb128 0x13
 2850 00be 00       		.byte	0
 2851 00bf 00       		.byte	0
 2852 00c0 11       		.uleb128 0x11
 2853 00c1 21       		.uleb128 0x21
 2854 00c2 00       		.byte	0
 2855 00c3 49       		.uleb128 0x49
 2856 00c4 13       		.uleb128 0x13
 2857 00c5 2F       		.uleb128 0x2f
 2858 00c6 0B       		.uleb128 0xb
 2859 00c7 00       		.byte	0
 2860 00c8 00       		.byte	0
 2861 00c9 12       		.uleb128 0x12
 2862 00ca 13       		.uleb128 0x13
 2863 00cb 01       		.byte	0x1
 2864 00cc 0B       		.uleb128 0xb
 2865 00cd 0B       		.uleb128 0xb
 2866 00ce 3A       		.uleb128 0x3a
 2867 00cf 0B       		.uleb128 0xb
 2868 00d0 3B       		.uleb128 0x3b
 2869 00d1 05       		.uleb128 0x5
 2870 00d2 01       		.uleb128 0x1
 2871 00d3 13       		.uleb128 0x13
 2872 00d4 00       		.byte	0
 2873 00d5 00       		.byte	0
 2874 00d6 13       		.uleb128 0x13
 2875 00d7 16       		.uleb128 0x16
 2876 00d8 00       		.byte	0
 2877 00d9 03       		.uleb128 0x3
 2878 00da 0E       		.uleb128 0xe
 2879 00db 3A       		.uleb128 0x3a
 2880 00dc 0B       		.uleb128 0xb
 2881 00dd 3B       		.uleb128 0x3b
 2882 00de 05       		.uleb128 0x5
 2883 00df 49       		.uleb128 0x49
 2884 00e0 13       		.uleb128 0x13
 2885 00e1 00       		.byte	0
 2886 00e2 00       		.byte	0
 2887 00e3 14       		.uleb128 0x14
 2888 00e4 13       		.uleb128 0x13
 2889 00e5 01       		.byte	0x1
 2890 00e6 0B       		.uleb128 0xb
 2891 00e7 0B       		.uleb128 0xb
 2892 00e8 3A       		.uleb128 0x3a
 2893 00e9 0B       		.uleb128 0xb
 2894 00ea 3B       		.uleb128 0x3b
 2895 00eb 0B       		.uleb128 0xb
 2896 00ec 01       		.uleb128 0x1
 2897 00ed 13       		.uleb128 0x13
 2898 00ee 00       		.byte	0
 2899 00ef 00       		.byte	0
 2900 00f0 15       		.uleb128 0x15
 2901 00f1 17       		.uleb128 0x17
 2902 00f2 01       		.byte	0x1
 2903 00f3 0B       		.uleb128 0xb
ARM GAS  /tmp/ccvX7cVE.s 			page 52


 2904 00f4 0B       		.uleb128 0xb
 2905 00f5 3A       		.uleb128 0x3a
 2906 00f6 0B       		.uleb128 0xb
 2907 00f7 3B       		.uleb128 0x3b
 2908 00f8 0B       		.uleb128 0xb
 2909 00f9 01       		.uleb128 0x1
 2910 00fa 13       		.uleb128 0x13
 2911 00fb 00       		.byte	0
 2912 00fc 00       		.byte	0
 2913 00fd 16       		.uleb128 0x16
 2914 00fe 0D       		.uleb128 0xd
 2915 00ff 00       		.byte	0
 2916 0100 03       		.uleb128 0x3
 2917 0101 0E       		.uleb128 0xe
 2918 0102 3A       		.uleb128 0x3a
 2919 0103 0B       		.uleb128 0xb
 2920 0104 3B       		.uleb128 0x3b
 2921 0105 0B       		.uleb128 0xb
 2922 0106 49       		.uleb128 0x49
 2923 0107 13       		.uleb128 0x13
 2924 0108 00       		.byte	0
 2925 0109 00       		.byte	0
 2926 010a 17       		.uleb128 0x17
 2927 010b 0D       		.uleb128 0xd
 2928 010c 00       		.byte	0
 2929 010d 03       		.uleb128 0x3
 2930 010e 0E       		.uleb128 0xe
 2931 010f 3A       		.uleb128 0x3a
 2932 0110 0B       		.uleb128 0xb
 2933 0111 3B       		.uleb128 0x3b
 2934 0112 05       		.uleb128 0x5
 2935 0113 49       		.uleb128 0x49
 2936 0114 13       		.uleb128 0x13
 2937 0115 00       		.byte	0
 2938 0116 00       		.byte	0
 2939 0117 18       		.uleb128 0x18
 2940 0118 26       		.uleb128 0x26
 2941 0119 00       		.byte	0
 2942 011a 49       		.uleb128 0x49
 2943 011b 13       		.uleb128 0x13
 2944 011c 00       		.byte	0
 2945 011d 00       		.byte	0
 2946 011e 19       		.uleb128 0x19
 2947 011f 2E       		.uleb128 0x2e
 2948 0120 00       		.byte	0
 2949 0121 03       		.uleb128 0x3
 2950 0122 0E       		.uleb128 0xe
 2951 0123 3A       		.uleb128 0x3a
 2952 0124 0B       		.uleb128 0xb
 2953 0125 3B       		.uleb128 0x3b
 2954 0126 05       		.uleb128 0x5
 2955 0127 27       		.uleb128 0x27
 2956 0128 19       		.uleb128 0x19
 2957 0129 20       		.uleb128 0x20
 2958 012a 0B       		.uleb128 0xb
 2959 012b 00       		.byte	0
 2960 012c 00       		.byte	0
ARM GAS  /tmp/ccvX7cVE.s 			page 53


 2961 012d 1A       		.uleb128 0x1a
 2962 012e 2E       		.uleb128 0x2e
 2963 012f 00       		.byte	0
 2964 0130 03       		.uleb128 0x3
 2965 0131 0E       		.uleb128 0xe
 2966 0132 3A       		.uleb128 0x3a
 2967 0133 0B       		.uleb128 0xb
 2968 0134 3B       		.uleb128 0x3b
 2969 0135 0B       		.uleb128 0xb
 2970 0136 27       		.uleb128 0x27
 2971 0137 19       		.uleb128 0x19
 2972 0138 20       		.uleb128 0x20
 2973 0139 0B       		.uleb128 0xb
 2974 013a 00       		.byte	0
 2975 013b 00       		.byte	0
 2976 013c 1B       		.uleb128 0x1b
 2977 013d 2E       		.uleb128 0x2e
 2978 013e 00       		.byte	0
 2979 013f 3F       		.uleb128 0x3f
 2980 0140 19       		.uleb128 0x19
 2981 0141 03       		.uleb128 0x3
 2982 0142 0E       		.uleb128 0xe
 2983 0143 3A       		.uleb128 0x3a
 2984 0144 0B       		.uleb128 0xb
 2985 0145 3B       		.uleb128 0x3b
 2986 0146 0B       		.uleb128 0xb
 2987 0147 27       		.uleb128 0x27
 2988 0148 19       		.uleb128 0x19
 2989 0149 20       		.uleb128 0x20
 2990 014a 0B       		.uleb128 0xb
 2991 014b 00       		.byte	0
 2992 014c 00       		.byte	0
 2993 014d 1C       		.uleb128 0x1c
 2994 014e 2E       		.uleb128 0x2e
 2995 014f 01       		.byte	0x1
 2996 0150 3F       		.uleb128 0x3f
 2997 0151 19       		.uleb128 0x19
 2998 0152 03       		.uleb128 0x3
 2999 0153 0E       		.uleb128 0xe
 3000 0154 3A       		.uleb128 0x3a
 3001 0155 0B       		.uleb128 0xb
 3002 0156 3B       		.uleb128 0x3b
 3003 0157 05       		.uleb128 0x5
 3004 0158 27       		.uleb128 0x27
 3005 0159 19       		.uleb128 0x19
 3006 015a 49       		.uleb128 0x49
 3007 015b 13       		.uleb128 0x13
 3008 015c 20       		.uleb128 0x20
 3009 015d 0B       		.uleb128 0xb
 3010 015e 01       		.uleb128 0x1
 3011 015f 13       		.uleb128 0x13
 3012 0160 00       		.byte	0
 3013 0161 00       		.byte	0
 3014 0162 1D       		.uleb128 0x1d
 3015 0163 05       		.uleb128 0x5
 3016 0164 00       		.byte	0
 3017 0165 03       		.uleb128 0x3
ARM GAS  /tmp/ccvX7cVE.s 			page 54


 3018 0166 0E       		.uleb128 0xe
 3019 0167 3A       		.uleb128 0x3a
 3020 0168 0B       		.uleb128 0xb
 3021 0169 3B       		.uleb128 0x3b
 3022 016a 05       		.uleb128 0x5
 3023 016b 49       		.uleb128 0x49
 3024 016c 13       		.uleb128 0x13
 3025 016d 00       		.byte	0
 3026 016e 00       		.byte	0
 3027 016f 1E       		.uleb128 0x1e
 3028 0170 2E       		.uleb128 0x2e
 3029 0171 01       		.byte	0x1
 3030 0172 3F       		.uleb128 0x3f
 3031 0173 19       		.uleb128 0x19
 3032 0174 03       		.uleb128 0x3
 3033 0175 0E       		.uleb128 0xe
 3034 0176 3A       		.uleb128 0x3a
 3035 0177 0B       		.uleb128 0xb
 3036 0178 3B       		.uleb128 0x3b
 3037 0179 0B       		.uleb128 0xb
 3038 017a 27       		.uleb128 0x27
 3039 017b 19       		.uleb128 0x19
 3040 017c 49       		.uleb128 0x49
 3041 017d 13       		.uleb128 0x13
 3042 017e 20       		.uleb128 0x20
 3043 017f 0B       		.uleb128 0xb
 3044 0180 01       		.uleb128 0x1
 3045 0181 13       		.uleb128 0x13
 3046 0182 00       		.byte	0
 3047 0183 00       		.byte	0
 3048 0184 1F       		.uleb128 0x1f
 3049 0185 05       		.uleb128 0x5
 3050 0186 00       		.byte	0
 3051 0187 03       		.uleb128 0x3
 3052 0188 0E       		.uleb128 0xe
 3053 0189 3A       		.uleb128 0x3a
 3054 018a 0B       		.uleb128 0xb
 3055 018b 3B       		.uleb128 0x3b
 3056 018c 0B       		.uleb128 0xb
 3057 018d 49       		.uleb128 0x49
 3058 018e 13       		.uleb128 0x13
 3059 018f 00       		.byte	0
 3060 0190 00       		.byte	0
 3061 0191 20       		.uleb128 0x20
 3062 0192 0B       		.uleb128 0xb
 3063 0193 01       		.byte	0x1
 3064 0194 00       		.byte	0
 3065 0195 00       		.byte	0
 3066 0196 21       		.uleb128 0x21
 3067 0197 34       		.uleb128 0x34
 3068 0198 00       		.byte	0
 3069 0199 03       		.uleb128 0x3
 3070 019a 0E       		.uleb128 0xe
 3071 019b 3A       		.uleb128 0x3a
 3072 019c 0B       		.uleb128 0xb
 3073 019d 3B       		.uleb128 0x3b
 3074 019e 05       		.uleb128 0x5
ARM GAS  /tmp/ccvX7cVE.s 			page 55


 3075 019f 49       		.uleb128 0x49
 3076 01a0 13       		.uleb128 0x13
 3077 01a1 00       		.byte	0
 3078 01a2 00       		.byte	0
 3079 01a3 22       		.uleb128 0x22
 3080 01a4 34       		.uleb128 0x34
 3081 01a5 00       		.byte	0
 3082 01a6 03       		.uleb128 0x3
 3083 01a7 08       		.uleb128 0x8
 3084 01a8 3A       		.uleb128 0x3a
 3085 01a9 0B       		.uleb128 0xb
 3086 01aa 3B       		.uleb128 0x3b
 3087 01ab 05       		.uleb128 0x5
 3088 01ac 49       		.uleb128 0x49
 3089 01ad 13       		.uleb128 0x13
 3090 01ae 00       		.byte	0
 3091 01af 00       		.byte	0
 3092 01b0 23       		.uleb128 0x23
 3093 01b1 2E       		.uleb128 0x2e
 3094 01b2 01       		.byte	0x1
 3095 01b3 03       		.uleb128 0x3
 3096 01b4 0E       		.uleb128 0xe
 3097 01b5 3A       		.uleb128 0x3a
 3098 01b6 0B       		.uleb128 0xb
 3099 01b7 3B       		.uleb128 0x3b
 3100 01b8 0B       		.uleb128 0xb
 3101 01b9 27       		.uleb128 0x27
 3102 01ba 19       		.uleb128 0x19
 3103 01bb 49       		.uleb128 0x49
 3104 01bc 13       		.uleb128 0x13
 3105 01bd 20       		.uleb128 0x20
 3106 01be 0B       		.uleb128 0xb
 3107 01bf 01       		.uleb128 0x1
 3108 01c0 13       		.uleb128 0x13
 3109 01c1 00       		.byte	0
 3110 01c2 00       		.byte	0
 3111 01c3 24       		.uleb128 0x24
 3112 01c4 34       		.uleb128 0x34
 3113 01c5 00       		.byte	0
 3114 01c6 03       		.uleb128 0x3
 3115 01c7 0E       		.uleb128 0xe
 3116 01c8 3A       		.uleb128 0x3a
 3117 01c9 0B       		.uleb128 0xb
 3118 01ca 3B       		.uleb128 0x3b
 3119 01cb 0B       		.uleb128 0xb
 3120 01cc 49       		.uleb128 0x49
 3121 01cd 13       		.uleb128 0x13
 3122 01ce 00       		.byte	0
 3123 01cf 00       		.byte	0
 3124 01d0 25       		.uleb128 0x25
 3125 01d1 2E       		.uleb128 0x2e
 3126 01d2 01       		.byte	0x1
 3127 01d3 03       		.uleb128 0x3
 3128 01d4 0E       		.uleb128 0xe
 3129 01d5 3A       		.uleb128 0x3a
 3130 01d6 0B       		.uleb128 0xb
 3131 01d7 3B       		.uleb128 0x3b
ARM GAS  /tmp/ccvX7cVE.s 			page 56


 3132 01d8 0B       		.uleb128 0xb
 3133 01d9 27       		.uleb128 0x27
 3134 01da 19       		.uleb128 0x19
 3135 01db 20       		.uleb128 0x20
 3136 01dc 0B       		.uleb128 0xb
 3137 01dd 01       		.uleb128 0x1
 3138 01de 13       		.uleb128 0x13
 3139 01df 00       		.byte	0
 3140 01e0 00       		.byte	0
 3141 01e1 26       		.uleb128 0x26
 3142 01e2 05       		.uleb128 0x5
 3143 01e3 00       		.byte	0
 3144 01e4 03       		.uleb128 0x3
 3145 01e5 08       		.uleb128 0x8
 3146 01e6 3A       		.uleb128 0x3a
 3147 01e7 0B       		.uleb128 0xb
 3148 01e8 3B       		.uleb128 0x3b
 3149 01e9 0B       		.uleb128 0xb
 3150 01ea 49       		.uleb128 0x49
 3151 01eb 13       		.uleb128 0x13
 3152 01ec 00       		.byte	0
 3153 01ed 00       		.byte	0
 3154 01ee 27       		.uleb128 0x27
 3155 01ef 2E       		.uleb128 0x2e
 3156 01f0 01       		.byte	0x1
 3157 01f1 03       		.uleb128 0x3
 3158 01f2 0E       		.uleb128 0xe
 3159 01f3 3A       		.uleb128 0x3a
 3160 01f4 0B       		.uleb128 0xb
 3161 01f5 3B       		.uleb128 0x3b
 3162 01f6 0B       		.uleb128 0xb
 3163 01f7 27       		.uleb128 0x27
 3164 01f8 19       		.uleb128 0x19
 3165 01f9 11       		.uleb128 0x11
 3166 01fa 01       		.uleb128 0x1
 3167 01fb 12       		.uleb128 0x12
 3168 01fc 06       		.uleb128 0x6
 3169 01fd 40       		.uleb128 0x40
 3170 01fe 18       		.uleb128 0x18
 3171 01ff 9742     		.uleb128 0x2117
 3172 0201 19       		.uleb128 0x19
 3173 0202 01       		.uleb128 0x1
 3174 0203 13       		.uleb128 0x13
 3175 0204 00       		.byte	0
 3176 0205 00       		.byte	0
 3177 0206 28       		.uleb128 0x28
 3178 0207 1D       		.uleb128 0x1d
 3179 0208 00       		.byte	0
 3180 0209 31       		.uleb128 0x31
 3181 020a 13       		.uleb128 0x13
 3182 020b 11       		.uleb128 0x11
 3183 020c 01       		.uleb128 0x1
 3184 020d 12       		.uleb128 0x12
 3185 020e 06       		.uleb128 0x6
 3186 020f 58       		.uleb128 0x58
 3187 0210 0B       		.uleb128 0xb
 3188 0211 59       		.uleb128 0x59
ARM GAS  /tmp/ccvX7cVE.s 			page 57


 3189 0212 0B       		.uleb128 0xb
 3190 0213 00       		.byte	0
 3191 0214 00       		.byte	0
 3192 0215 29       		.uleb128 0x29
 3193 0216 2E       		.uleb128 0x2e
 3194 0217 01       		.byte	0x1
 3195 0218 31       		.uleb128 0x31
 3196 0219 13       		.uleb128 0x13
 3197 021a 11       		.uleb128 0x11
 3198 021b 01       		.uleb128 0x1
 3199 021c 12       		.uleb128 0x12
 3200 021d 06       		.uleb128 0x6
 3201 021e 40       		.uleb128 0x40
 3202 021f 18       		.uleb128 0x18
 3203 0220 9742     		.uleb128 0x2117
 3204 0222 19       		.uleb128 0x19
 3205 0223 01       		.uleb128 0x1
 3206 0224 13       		.uleb128 0x13
 3207 0225 00       		.byte	0
 3208 0226 00       		.byte	0
 3209 0227 2A       		.uleb128 0x2a
 3210 0228 898201   		.uleb128 0x4109
 3211 022b 00       		.byte	0
 3212 022c 11       		.uleb128 0x11
 3213 022d 01       		.uleb128 0x1
 3214 022e 31       		.uleb128 0x31
 3215 022f 13       		.uleb128 0x13
 3216 0230 00       		.byte	0
 3217 0231 00       		.byte	0
 3218 0232 2B       		.uleb128 0x2b
 3219 0233 05       		.uleb128 0x5
 3220 0234 00       		.byte	0
 3221 0235 31       		.uleb128 0x31
 3222 0236 13       		.uleb128 0x13
 3223 0237 02       		.uleb128 0x2
 3224 0238 17       		.uleb128 0x17
 3225 0239 00       		.byte	0
 3226 023a 00       		.byte	0
 3227 023b 2C       		.uleb128 0x2c
 3228 023c 0B       		.uleb128 0xb
 3229 023d 01       		.byte	0x1
 3230 023e 11       		.uleb128 0x11
 3231 023f 01       		.uleb128 0x1
 3232 0240 12       		.uleb128 0x12
 3233 0241 06       		.uleb128 0x6
 3234 0242 00       		.byte	0
 3235 0243 00       		.byte	0
 3236 0244 2D       		.uleb128 0x2d
 3237 0245 34       		.uleb128 0x34
 3238 0246 00       		.byte	0
 3239 0247 31       		.uleb128 0x31
 3240 0248 13       		.uleb128 0x13
 3241 0249 02       		.uleb128 0x2
 3242 024a 17       		.uleb128 0x17
 3243 024b 00       		.byte	0
 3244 024c 00       		.byte	0
 3245 024d 2E       		.uleb128 0x2e
ARM GAS  /tmp/ccvX7cVE.s 			page 58


 3246 024e 1D       		.uleb128 0x1d
 3247 024f 01       		.byte	0x1
 3248 0250 31       		.uleb128 0x31
 3249 0251 13       		.uleb128 0x13
 3250 0252 11       		.uleb128 0x11
 3251 0253 01       		.uleb128 0x1
 3252 0254 12       		.uleb128 0x12
 3253 0255 06       		.uleb128 0x6
 3254 0256 58       		.uleb128 0x58
 3255 0257 0B       		.uleb128 0xb
 3256 0258 59       		.uleb128 0x59
 3257 0259 05       		.uleb128 0x5
 3258 025a 00       		.byte	0
 3259 025b 00       		.byte	0
 3260 025c 2F       		.uleb128 0x2f
 3261 025d 2E       		.uleb128 0x2e
 3262 025e 00       		.byte	0
 3263 025f 3F       		.uleb128 0x3f
 3264 0260 19       		.uleb128 0x19
 3265 0261 03       		.uleb128 0x3
 3266 0262 0E       		.uleb128 0xe
 3267 0263 3A       		.uleb128 0x3a
 3268 0264 0B       		.uleb128 0xb
 3269 0265 3B       		.uleb128 0x3b
 3270 0266 05       		.uleb128 0x5
 3271 0267 27       		.uleb128 0x27
 3272 0268 19       		.uleb128 0x19
 3273 0269 49       		.uleb128 0x49
 3274 026a 13       		.uleb128 0x13
 3275 026b 11       		.uleb128 0x11
 3276 026c 01       		.uleb128 0x1
 3277 026d 12       		.uleb128 0x12
 3278 026e 06       		.uleb128 0x6
 3279 026f 40       		.uleb128 0x40
 3280 0270 18       		.uleb128 0x18
 3281 0271 9742     		.uleb128 0x2117
 3282 0273 19       		.uleb128 0x19
 3283 0274 00       		.byte	0
 3284 0275 00       		.byte	0
 3285 0276 30       		.uleb128 0x30
 3286 0277 34       		.uleb128 0x34
 3287 0278 00       		.byte	0
 3288 0279 31       		.uleb128 0x31
 3289 027a 13       		.uleb128 0x13
 3290 027b 00       		.byte	0
 3291 027c 00       		.byte	0
 3292 027d 31       		.uleb128 0x31
 3293 027e 34       		.uleb128 0x34
 3294 027f 00       		.byte	0
 3295 0280 31       		.uleb128 0x31
 3296 0281 13       		.uleb128 0x13
 3297 0282 02       		.uleb128 0x2
 3298 0283 18       		.uleb128 0x18
 3299 0284 00       		.byte	0
 3300 0285 00       		.byte	0
 3301 0286 32       		.uleb128 0x32
 3302 0287 1D       		.uleb128 0x1d
ARM GAS  /tmp/ccvX7cVE.s 			page 59


 3303 0288 01       		.byte	0x1
 3304 0289 31       		.uleb128 0x31
 3305 028a 13       		.uleb128 0x13
 3306 028b 11       		.uleb128 0x11
 3307 028c 01       		.uleb128 0x1
 3308 028d 12       		.uleb128 0x12
 3309 028e 06       		.uleb128 0x6
 3310 028f 58       		.uleb128 0x58
 3311 0290 0B       		.uleb128 0xb
 3312 0291 59       		.uleb128 0x59
 3313 0292 05       		.uleb128 0x5
 3314 0293 01       		.uleb128 0x1
 3315 0294 13       		.uleb128 0x13
 3316 0295 00       		.byte	0
 3317 0296 00       		.byte	0
 3318 0297 33       		.uleb128 0x33
 3319 0298 0B       		.uleb128 0xb
 3320 0299 01       		.byte	0x1
 3321 029a 11       		.uleb128 0x11
 3322 029b 01       		.uleb128 0x1
 3323 029c 12       		.uleb128 0x12
 3324 029d 06       		.uleb128 0x6
 3325 029e 01       		.uleb128 0x1
 3326 029f 13       		.uleb128 0x13
 3327 02a0 00       		.byte	0
 3328 02a1 00       		.byte	0
 3329 02a2 34       		.uleb128 0x34
 3330 02a3 2E       		.uleb128 0x2e
 3331 02a4 01       		.byte	0x1
 3332 02a5 3F       		.uleb128 0x3f
 3333 02a6 19       		.uleb128 0x19
 3334 02a7 03       		.uleb128 0x3
 3335 02a8 0E       		.uleb128 0xe
 3336 02a9 3A       		.uleb128 0x3a
 3337 02aa 0B       		.uleb128 0xb
 3338 02ab 3B       		.uleb128 0x3b
 3339 02ac 05       		.uleb128 0x5
 3340 02ad 27       		.uleb128 0x27
 3341 02ae 19       		.uleb128 0x19
 3342 02af 49       		.uleb128 0x49
 3343 02b0 13       		.uleb128 0x13
 3344 02b1 11       		.uleb128 0x11
 3345 02b2 01       		.uleb128 0x1
 3346 02b3 12       		.uleb128 0x12
 3347 02b4 06       		.uleb128 0x6
 3348 02b5 40       		.uleb128 0x40
 3349 02b6 18       		.uleb128 0x18
 3350 02b7 9742     		.uleb128 0x2117
 3351 02b9 19       		.uleb128 0x19
 3352 02ba 01       		.uleb128 0x1
 3353 02bb 13       		.uleb128 0x13
 3354 02bc 00       		.byte	0
 3355 02bd 00       		.byte	0
 3356 02be 35       		.uleb128 0x35
 3357 02bf 05       		.uleb128 0x5
 3358 02c0 00       		.byte	0
 3359 02c1 03       		.uleb128 0x3
ARM GAS  /tmp/ccvX7cVE.s 			page 60


 3360 02c2 0E       		.uleb128 0xe
 3361 02c3 3A       		.uleb128 0x3a
 3362 02c4 0B       		.uleb128 0xb
 3363 02c5 3B       		.uleb128 0x3b
 3364 02c6 05       		.uleb128 0x5
 3365 02c7 49       		.uleb128 0x49
 3366 02c8 13       		.uleb128 0x13
 3367 02c9 02       		.uleb128 0x2
 3368 02ca 17       		.uleb128 0x17
 3369 02cb 00       		.byte	0
 3370 02cc 00       		.byte	0
 3371 02cd 36       		.uleb128 0x36
 3372 02ce 34       		.uleb128 0x34
 3373 02cf 00       		.byte	0
 3374 02d0 03       		.uleb128 0x3
 3375 02d1 08       		.uleb128 0x8
 3376 02d2 3A       		.uleb128 0x3a
 3377 02d3 0B       		.uleb128 0xb
 3378 02d4 3B       		.uleb128 0x3b
 3379 02d5 05       		.uleb128 0x5
 3380 02d6 49       		.uleb128 0x49
 3381 02d7 13       		.uleb128 0x13
 3382 02d8 02       		.uleb128 0x2
 3383 02d9 17       		.uleb128 0x17
 3384 02da 00       		.byte	0
 3385 02db 00       		.byte	0
 3386 02dc 37       		.uleb128 0x37
 3387 02dd 1D       		.uleb128 0x1d
 3388 02de 00       		.byte	0
 3389 02df 31       		.uleb128 0x31
 3390 02e0 13       		.uleb128 0x13
 3391 02e1 52       		.uleb128 0x52
 3392 02e2 01       		.uleb128 0x1
 3393 02e3 55       		.uleb128 0x55
 3394 02e4 17       		.uleb128 0x17
 3395 02e5 58       		.uleb128 0x58
 3396 02e6 0B       		.uleb128 0xb
 3397 02e7 59       		.uleb128 0x59
 3398 02e8 05       		.uleb128 0x5
 3399 02e9 00       		.byte	0
 3400 02ea 00       		.byte	0
 3401 02eb 38       		.uleb128 0x38
 3402 02ec 898201   		.uleb128 0x4109
 3403 02ef 01       		.byte	0x1
 3404 02f0 11       		.uleb128 0x11
 3405 02f1 01       		.uleb128 0x1
 3406 02f2 31       		.uleb128 0x31
 3407 02f3 13       		.uleb128 0x13
 3408 02f4 01       		.uleb128 0x1
 3409 02f5 13       		.uleb128 0x13
 3410 02f6 00       		.byte	0
 3411 02f7 00       		.byte	0
 3412 02f8 39       		.uleb128 0x39
 3413 02f9 8A8201   		.uleb128 0x410a
 3414 02fc 00       		.byte	0
 3415 02fd 02       		.uleb128 0x2
 3416 02fe 18       		.uleb128 0x18
ARM GAS  /tmp/ccvX7cVE.s 			page 61


 3417 02ff 9142     		.uleb128 0x2111
 3418 0301 18       		.uleb128 0x18
 3419 0302 00       		.byte	0
 3420 0303 00       		.byte	0
 3421 0304 3A       		.uleb128 0x3a
 3422 0305 898201   		.uleb128 0x4109
 3423 0308 01       		.byte	0x1
 3424 0309 11       		.uleb128 0x11
 3425 030a 01       		.uleb128 0x1
 3426 030b 9542     		.uleb128 0x2115
 3427 030d 19       		.uleb128 0x19
 3428 030e 31       		.uleb128 0x31
 3429 030f 13       		.uleb128 0x13
 3430 0310 00       		.byte	0
 3431 0311 00       		.byte	0
 3432 0312 3B       		.uleb128 0x3b
 3433 0313 05       		.uleb128 0x5
 3434 0314 00       		.byte	0
 3435 0315 03       		.uleb128 0x3
 3436 0316 08       		.uleb128 0x8
 3437 0317 3A       		.uleb128 0x3a
 3438 0318 0B       		.uleb128 0xb
 3439 0319 3B       		.uleb128 0x3b
 3440 031a 05       		.uleb128 0x5
 3441 031b 49       		.uleb128 0x49
 3442 031c 13       		.uleb128 0x13
 3443 031d 02       		.uleb128 0x2
 3444 031e 17       		.uleb128 0x17
 3445 031f 00       		.byte	0
 3446 0320 00       		.byte	0
 3447 0321 3C       		.uleb128 0x3c
 3448 0322 0A       		.uleb128 0xa
 3449 0323 00       		.byte	0
 3450 0324 03       		.uleb128 0x3
 3451 0325 0E       		.uleb128 0xe
 3452 0326 3A       		.uleb128 0x3a
 3453 0327 0B       		.uleb128 0xb
 3454 0328 3B       		.uleb128 0x3b
 3455 0329 05       		.uleb128 0x5
 3456 032a 11       		.uleb128 0x11
 3457 032b 01       		.uleb128 0x1
 3458 032c 00       		.byte	0
 3459 032d 00       		.byte	0
 3460 032e 3D       		.uleb128 0x3d
 3461 032f 1D       		.uleb128 0x1d
 3462 0330 00       		.byte	0
 3463 0331 31       		.uleb128 0x31
 3464 0332 13       		.uleb128 0x13
 3465 0333 11       		.uleb128 0x11
 3466 0334 01       		.uleb128 0x1
 3467 0335 12       		.uleb128 0x12
 3468 0336 06       		.uleb128 0x6
 3469 0337 58       		.uleb128 0x58
 3470 0338 0B       		.uleb128 0xb
 3471 0339 59       		.uleb128 0x59
 3472 033a 05       		.uleb128 0x5
 3473 033b 00       		.byte	0
ARM GAS  /tmp/ccvX7cVE.s 			page 62


 3474 033c 00       		.byte	0
 3475 033d 3E       		.uleb128 0x3e
 3476 033e 1D       		.uleb128 0x1d
 3477 033f 01       		.byte	0x1
 3478 0340 31       		.uleb128 0x31
 3479 0341 13       		.uleb128 0x13
 3480 0342 52       		.uleb128 0x52
 3481 0343 01       		.uleb128 0x1
 3482 0344 55       		.uleb128 0x55
 3483 0345 17       		.uleb128 0x17
 3484 0346 58       		.uleb128 0x58
 3485 0347 0B       		.uleb128 0xb
 3486 0348 59       		.uleb128 0x59
 3487 0349 05       		.uleb128 0x5
 3488 034a 01       		.uleb128 0x1
 3489 034b 13       		.uleb128 0x13
 3490 034c 00       		.byte	0
 3491 034d 00       		.byte	0
 3492 034e 3F       		.uleb128 0x3f
 3493 034f 0B       		.uleb128 0xb
 3494 0350 01       		.byte	0x1
 3495 0351 55       		.uleb128 0x55
 3496 0352 17       		.uleb128 0x17
 3497 0353 00       		.byte	0
 3498 0354 00       		.byte	0
 3499 0355 40       		.uleb128 0x40
 3500 0356 26       		.uleb128 0x26
 3501 0357 00       		.byte	0
 3502 0358 00       		.byte	0
 3503 0359 00       		.byte	0
 3504 035a 41       		.uleb128 0x41
 3505 035b 2E       		.uleb128 0x2e
 3506 035c 01       		.byte	0x1
 3507 035d 3F       		.uleb128 0x3f
 3508 035e 19       		.uleb128 0x19
 3509 035f 03       		.uleb128 0x3
 3510 0360 0E       		.uleb128 0xe
 3511 0361 3A       		.uleb128 0x3a
 3512 0362 0B       		.uleb128 0xb
 3513 0363 3B       		.uleb128 0x3b
 3514 0364 05       		.uleb128 0x5
 3515 0365 27       		.uleb128 0x27
 3516 0366 19       		.uleb128 0x19
 3517 0367 11       		.uleb128 0x11
 3518 0368 01       		.uleb128 0x1
 3519 0369 12       		.uleb128 0x12
 3520 036a 06       		.uleb128 0x6
 3521 036b 40       		.uleb128 0x40
 3522 036c 18       		.uleb128 0x18
 3523 036d 9742     		.uleb128 0x2117
 3524 036f 19       		.uleb128 0x19
 3525 0370 01       		.uleb128 0x1
 3526 0371 13       		.uleb128 0x13
 3527 0372 00       		.byte	0
 3528 0373 00       		.byte	0
 3529 0374 42       		.uleb128 0x42
 3530 0375 898201   		.uleb128 0x4109
ARM GAS  /tmp/ccvX7cVE.s 			page 63


 3531 0378 00       		.byte	0
 3532 0379 11       		.uleb128 0x11
 3533 037a 01       		.uleb128 0x1
 3534 037b 9542     		.uleb128 0x2115
 3535 037d 19       		.uleb128 0x19
 3536 037e 31       		.uleb128 0x31
 3537 037f 13       		.uleb128 0x13
 3538 0380 00       		.byte	0
 3539 0381 00       		.byte	0
 3540 0382 43       		.uleb128 0x43
 3541 0383 34       		.uleb128 0x34
 3542 0384 00       		.byte	0
 3543 0385 03       		.uleb128 0x3
 3544 0386 0E       		.uleb128 0xe
 3545 0387 3A       		.uleb128 0x3a
 3546 0388 0B       		.uleb128 0xb
 3547 0389 3B       		.uleb128 0x3b
 3548 038a 0B       		.uleb128 0xb
 3549 038b 49       		.uleb128 0x49
 3550 038c 13       		.uleb128 0x13
 3551 038d 02       		.uleb128 0x2
 3552 038e 18       		.uleb128 0x18
 3553 038f 00       		.byte	0
 3554 0390 00       		.byte	0
 3555 0391 44       		.uleb128 0x44
 3556 0392 34       		.uleb128 0x34
 3557 0393 00       		.byte	0
 3558 0394 03       		.uleb128 0x3
 3559 0395 0E       		.uleb128 0xe
 3560 0396 3A       		.uleb128 0x3a
 3561 0397 0B       		.uleb128 0xb
 3562 0398 3B       		.uleb128 0x3b
 3563 0399 05       		.uleb128 0x5
 3564 039a 49       		.uleb128 0x49
 3565 039b 13       		.uleb128 0x13
 3566 039c 3F       		.uleb128 0x3f
 3567 039d 19       		.uleb128 0x19
 3568 039e 3C       		.uleb128 0x3c
 3569 039f 19       		.uleb128 0x19
 3570 03a0 00       		.byte	0
 3571 03a1 00       		.byte	0
 3572 03a2 45       		.uleb128 0x45
 3573 03a3 34       		.uleb128 0x34
 3574 03a4 00       		.byte	0
 3575 03a5 03       		.uleb128 0x3
 3576 03a6 08       		.uleb128 0x8
 3577 03a7 3A       		.uleb128 0x3a
 3578 03a8 0B       		.uleb128 0xb
 3579 03a9 3B       		.uleb128 0x3b
 3580 03aa 05       		.uleb128 0x5
 3581 03ab 49       		.uleb128 0x49
 3582 03ac 13       		.uleb128 0x13
 3583 03ad 3F       		.uleb128 0x3f
 3584 03ae 19       		.uleb128 0x19
 3585 03af 3C       		.uleb128 0x3c
 3586 03b0 19       		.uleb128 0x19
 3587 03b1 00       		.byte	0
ARM GAS  /tmp/ccvX7cVE.s 			page 64


 3588 03b2 00       		.byte	0
 3589 03b3 00       		.byte	0
 3590              		.section	.debug_loc,"",%progbits
 3591              	.Ldebug_loc0:
 3592              	.LLST0:
 3593 0000 00000000 		.4byte	.LVL2
 3594 0004 2C000000 		.4byte	.LVL10
 3595 0008 0100     		.2byte	0x1
 3596 000a 50       		.byte	0x50
 3597 000b 2C000000 		.4byte	.LVL10
 3598 000f 2E000000 		.4byte	.LVL11
 3599 0013 0400     		.2byte	0x4
 3600 0015 F3       		.byte	0xf3
 3601 0016 01       		.uleb128 0x1
 3602 0017 50       		.byte	0x50
 3603 0018 9F       		.byte	0x9f
 3604 0019 2E000000 		.4byte	.LVL11
 3605 001d 30000000 		.4byte	.LVL12
 3606 0021 0100     		.2byte	0x1
 3607 0023 50       		.byte	0x50
 3608 0024 30000000 		.4byte	.LVL12
 3609 0028 40000000 		.4byte	.LFE331
 3610 002c 0400     		.2byte	0x4
 3611 002e F3       		.byte	0xf3
 3612 002f 01       		.uleb128 0x1
 3613 0030 50       		.byte	0x50
 3614 0031 9F       		.byte	0x9f
 3615 0032 00000000 		.4byte	0
 3616 0036 00000000 		.4byte	0
 3617              	.LLST1:
 3618 003a 06000000 		.4byte	.LVL3
 3619 003e 2C000000 		.4byte	.LVL10
 3620 0042 0100     		.2byte	0x1
 3621 0044 50       		.byte	0x50
 3622 0045 2C000000 		.4byte	.LVL10
 3623 0049 2E000000 		.4byte	.LVL11
 3624 004d 0400     		.2byte	0x4
 3625 004f F3       		.byte	0xf3
 3626 0050 01       		.uleb128 0x1
 3627 0051 50       		.byte	0x50
 3628 0052 9F       		.byte	0x9f
 3629 0053 00000000 		.4byte	0
 3630 0057 00000000 		.4byte	0
 3631              	.LLST2:
 3632 005b 12000000 		.4byte	.LVL4
 3633 005f 28000000 		.4byte	.LVL9
 3634 0063 0100     		.2byte	0x1
 3635 0065 51       		.byte	0x51
 3636 0066 00000000 		.4byte	0
 3637 006a 00000000 		.4byte	0
 3638              	.LLST3:
 3639 006e 12000000 		.4byte	.LVL4
 3640 0072 1E000000 		.4byte	.LVL6
 3641 0076 0100     		.2byte	0x1
 3642 0078 53       		.byte	0x53
 3643 0079 00000000 		.4byte	0
 3644 007d 00000000 		.4byte	0
ARM GAS  /tmp/ccvX7cVE.s 			page 65


 3645              	.LLST4:
 3646 0081 18000000 		.4byte	.LVL5
 3647 0085 1E000000 		.4byte	.LVL6
 3648 0089 0100     		.2byte	0x1
 3649 008b 53       		.byte	0x53
 3650 008c 1E000000 		.4byte	.LVL6
 3651 0090 26000000 		.4byte	.LVL8
 3652 0094 0300     		.2byte	0x3
 3653 0096 73       		.byte	0x73
 3654 0097 7F       		.sleb128 -1
 3655 0098 9F       		.byte	0x9f
 3656 0099 00000000 		.4byte	0
 3657 009d 00000000 		.4byte	0
 3658              	.LLST5:
 3659 00a1 00000000 		.4byte	.LVL13
 3660 00a5 06000000 		.4byte	.LVL14
 3661 00a9 0100     		.2byte	0x1
 3662 00ab 50       		.byte	0x50
 3663 00ac 06000000 		.4byte	.LVL14
 3664 00b0 0C000000 		.4byte	.LFE332
 3665 00b4 0400     		.2byte	0x4
 3666 00b6 F3       		.byte	0xf3
 3667 00b7 01       		.uleb128 0x1
 3668 00b8 50       		.byte	0x50
 3669 00b9 9F       		.byte	0x9f
 3670 00ba 00000000 		.4byte	0
 3671 00be 00000000 		.4byte	0
 3672              	.LLST6:
 3673 00c2 00000000 		.4byte	.LVL15
 3674 00c6 08000000 		.4byte	.LVL16
 3675 00ca 0100     		.2byte	0x1
 3676 00cc 50       		.byte	0x50
 3677 00cd 08000000 		.4byte	.LVL16
 3678 00d1 0C000000 		.4byte	.LVL17
 3679 00d5 0100     		.2byte	0x1
 3680 00d7 54       		.byte	0x54
 3681 00d8 0C000000 		.4byte	.LVL17
 3682 00dc 0F000000 		.4byte	.LVL18-1
 3683 00e0 0100     		.2byte	0x1
 3684 00e2 50       		.byte	0x50
 3685 00e3 0F000000 		.4byte	.LVL18-1
 3686 00e7 2C000000 		.4byte	.LVL26
 3687 00eb 0100     		.2byte	0x1
 3688 00ed 54       		.byte	0x54
 3689 00ee 2C000000 		.4byte	.LVL26
 3690 00f2 30000000 		.4byte	.LFE334
 3691 00f6 0400     		.2byte	0x4
 3692 00f8 F3       		.byte	0xf3
 3693 00f9 01       		.uleb128 0x1
 3694 00fa 50       		.byte	0x50
 3695 00fb 9F       		.byte	0x9f
 3696 00fc 00000000 		.4byte	0
 3697 0100 00000000 		.4byte	0
 3698              	.LLST7:
 3699 0104 0C000000 		.4byte	.LVL17
 3700 0108 0F000000 		.4byte	.LVL18-1
 3701 010c 0100     		.2byte	0x1
ARM GAS  /tmp/ccvX7cVE.s 			page 66


 3702 010e 50       		.byte	0x50
 3703 010f 0F000000 		.4byte	.LVL18-1
 3704 0113 2C000000 		.4byte	.LVL26
 3705 0117 0100     		.2byte	0x1
 3706 0119 54       		.byte	0x54
 3707 011a 2C000000 		.4byte	.LVL26
 3708 011e 30000000 		.4byte	.LFE334
 3709 0122 0400     		.2byte	0x4
 3710 0124 F3       		.byte	0xf3
 3711 0125 01       		.uleb128 0x1
 3712 0126 50       		.byte	0x50
 3713 0127 9F       		.byte	0x9f
 3714 0128 00000000 		.4byte	0
 3715 012c 00000000 		.4byte	0
 3716              	.LLST8:
 3717 0130 10000000 		.4byte	.LVL18
 3718 0134 18000000 		.4byte	.LVL19
 3719 0138 0100     		.2byte	0x1
 3720 013a 50       		.byte	0x50
 3721 013b 1C000000 		.4byte	.LVL20
 3722 013f 20000000 		.4byte	.LVL22
 3723 0143 0100     		.2byte	0x1
 3724 0145 53       		.byte	0x53
 3725 0146 20000000 		.4byte	.LVL22
 3726 014a 26000000 		.4byte	.LVL24
 3727 014e 0900     		.2byte	0x9
 3728 0150 70       		.byte	0x70
 3729 0151 00       		.sleb128 0
 3730 0152 71       		.byte	0x71
 3731 0153 00       		.sleb128 0
 3732 0154 22       		.byte	0x22
 3733 0155 72       		.byte	0x72
 3734 0156 00       		.sleb128 0
 3735 0157 1C       		.byte	0x1c
 3736 0158 9F       		.byte	0x9f
 3737 0159 28000000 		.4byte	.LVL25
 3738 015d 30000000 		.4byte	.LFE334
 3739 0161 0100     		.2byte	0x1
 3740 0163 53       		.byte	0x53
 3741 0164 00000000 		.4byte	0
 3742 0168 00000000 		.4byte	0
 3743              	.LLST9:
 3744 016c 10000000 		.4byte	.LVL18
 3745 0170 2C000000 		.4byte	.LVL26
 3746 0174 0100     		.2byte	0x1
 3747 0176 54       		.byte	0x54
 3748 0177 2C000000 		.4byte	.LVL26
 3749 017b 30000000 		.4byte	.LFE334
 3750 017f 0400     		.2byte	0x4
 3751 0181 F3       		.byte	0xf3
 3752 0182 01       		.uleb128 0x1
 3753 0183 50       		.byte	0x50
 3754 0184 9F       		.byte	0x9f
 3755 0185 00000000 		.4byte	0
 3756 0189 00000000 		.4byte	0
 3757              	.LLST10:
 3758 018d 1E000000 		.4byte	.LVL21
ARM GAS  /tmp/ccvX7cVE.s 			page 67


 3759 0191 20000000 		.4byte	.LVL22
 3760 0195 0100     		.2byte	0x1
 3761 0197 53       		.byte	0x53
 3762 0198 20000000 		.4byte	.LVL22
 3763 019c 26000000 		.4byte	.LVL24
 3764 01a0 0900     		.2byte	0x9
 3765 01a2 70       		.byte	0x70
 3766 01a3 00       		.sleb128 0
 3767 01a4 71       		.byte	0x71
 3768 01a5 00       		.sleb128 0
 3769 01a6 22       		.byte	0x22
 3770 01a7 72       		.byte	0x72
 3771 01a8 00       		.sleb128 0
 3772 01a9 1C       		.byte	0x1c
 3773 01aa 9F       		.byte	0x9f
 3774 01ab 26000000 		.4byte	.LVL24
 3775 01af 28000000 		.4byte	.LVL25
 3776 01b3 0B00     		.2byte	0xb
 3777 01b5 70       		.byte	0x70
 3778 01b6 00       		.sleb128 0
 3779 01b7 71       		.byte	0x71
 3780 01b8 00       		.sleb128 0
 3781 01b9 22       		.byte	0x22
 3782 01ba 72       		.byte	0x72
 3783 01bb 00       		.sleb128 0
 3784 01bc 1C       		.byte	0x1c
 3785 01bd 34       		.byte	0x34
 3786 01be 1C       		.byte	0x1c
 3787 01bf 9F       		.byte	0x9f
 3788 01c0 00000000 		.4byte	0
 3789 01c4 00000000 		.4byte	0
 3790              	.LLST11:
 3791 01c8 20000000 		.4byte	.LVL22
 3792 01cc 22000000 		.4byte	.LVL23
 3793 01d0 0100     		.2byte	0x1
 3794 01d2 53       		.byte	0x53
 3795 01d3 22000000 		.4byte	.LVL23
 3796 01d7 28000000 		.4byte	.LVL25
 3797 01db 0300     		.2byte	0x3
 3798 01dd 73       		.byte	0x73
 3799 01de 7F       		.sleb128 -1
 3800 01df 9F       		.byte	0x9f
 3801 01e0 00000000 		.4byte	0
 3802 01e4 00000000 		.4byte	0
 3803              	.LLST12:
 3804 01e8 00000000 		.4byte	.LVL27
 3805 01ec 0D000000 		.4byte	.LVL28-1
 3806 01f0 0100     		.2byte	0x1
 3807 01f2 50       		.byte	0x50
 3808 01f3 0D000000 		.4byte	.LVL28-1
 3809 01f7 4E000000 		.4byte	.LVL34
 3810 01fb 0100     		.2byte	0x1
 3811 01fd 54       		.byte	0x54
 3812 01fe 4E000000 		.4byte	.LVL34
 3813 0202 51000000 		.4byte	.LVL35-1
 3814 0206 0100     		.2byte	0x1
 3815 0208 50       		.byte	0x50
ARM GAS  /tmp/ccvX7cVE.s 			page 68


 3816 0209 51000000 		.4byte	.LVL35-1
 3817 020d 52000000 		.4byte	.LVL35
 3818 0211 0400     		.2byte	0x4
 3819 0213 F3       		.byte	0xf3
 3820 0214 01       		.uleb128 0x1
 3821 0215 50       		.byte	0x50
 3822 0216 9F       		.byte	0x9f
 3823 0217 52000000 		.4byte	.LVL35
 3824 021b 54000000 		.4byte	.LVL36
 3825 021f 0100     		.2byte	0x1
 3826 0221 50       		.byte	0x50
 3827 0222 54000000 		.4byte	.LVL36
 3828 0226 56000000 		.4byte	.LVL37
 3829 022a 0100     		.2byte	0x1
 3830 022c 54       		.byte	0x54
 3831 022d 56000000 		.4byte	.LVL37
 3832 0231 5C000000 		.4byte	.LFE335
 3833 0235 0400     		.2byte	0x4
 3834 0237 F3       		.byte	0xf3
 3835 0238 01       		.uleb128 0x1
 3836 0239 50       		.byte	0x50
 3837 023a 9F       		.byte	0x9f
 3838 023b 00000000 		.4byte	0
 3839 023f 00000000 		.4byte	0
 3840              	.LLST13:
 3841 0243 1A000000 		.4byte	.LVL30
 3842 0247 4E000000 		.4byte	.LVL34
 3843 024b 0700     		.2byte	0x7
 3844 024d 74       		.byte	0x74
 3845 024e 00       		.sleb128 0
 3846 024f 3C       		.byte	0x3c
 3847 0250 1D       		.byte	0x1d
 3848 0251 33       		.byte	0x33
 3849 0252 24       		.byte	0x24
 3850 0253 9F       		.byte	0x9f
 3851 0254 4E000000 		.4byte	.LVL34
 3852 0258 51000000 		.4byte	.LVL35-1
 3853 025c 0700     		.2byte	0x7
 3854 025e 70       		.byte	0x70
 3855 025f 00       		.sleb128 0
 3856 0260 3C       		.byte	0x3c
 3857 0261 1D       		.byte	0x1d
 3858 0262 33       		.byte	0x33
 3859 0263 24       		.byte	0x24
 3860 0264 9F       		.byte	0x9f
 3861 0265 51000000 		.4byte	.LVL35-1
 3862 0269 52000000 		.4byte	.LVL35
 3863 026d 0800     		.2byte	0x8
 3864 026f F3       		.byte	0xf3
 3865 0270 01       		.uleb128 0x1
 3866 0271 50       		.byte	0x50
 3867 0272 3C       		.byte	0x3c
 3868 0273 1D       		.byte	0x1d
 3869 0274 33       		.byte	0x33
 3870 0275 24       		.byte	0x24
 3871 0276 9F       		.byte	0x9f
 3872 0277 00000000 		.4byte	0
ARM GAS  /tmp/ccvX7cVE.s 			page 69


 3873 027b 00000000 		.4byte	0
 3874              	.LLST14:
 3875 027f 00000000 		.4byte	.LVL38
 3876 0283 25000000 		.4byte	.LVL41-1
 3877 0287 0100     		.2byte	0x1
 3878 0289 50       		.byte	0x50
 3879 028a 25000000 		.4byte	.LVL41-1
 3880 028e 6C000000 		.4byte	.LVL48
 3881 0292 0100     		.2byte	0x1
 3882 0294 57       		.byte	0x57
 3883 0295 7C000000 		.4byte	.LVL49
 3884 0299 A4000000 		.4byte	.LVL53
 3885 029d 0100     		.2byte	0x1
 3886 029f 55       		.byte	0x55
 3887 02a0 A4000000 		.4byte	.LVL53
 3888 02a4 AE000000 		.4byte	.LVL55
 3889 02a8 0900     		.2byte	0x9
 3890 02aa 7A       		.byte	0x7a
 3891 02ab 00       		.sleb128 0
 3892 02ac 78       		.byte	0x78
 3893 02ad 00       		.sleb128 0
 3894 02ae 1C       		.byte	0x1c
 3895 02af 77       		.byte	0x77
 3896 02b0 00       		.sleb128 0
 3897 02b1 22       		.byte	0x22
 3898 02b2 9F       		.byte	0x9f
 3899 02b3 BC000000 		.4byte	.LVL57
 3900 02b7 CC000000 		.4byte	.LVL59
 3901 02bb 0100     		.2byte	0x1
 3902 02bd 55       		.byte	0x55
 3903 02be 00000000 		.4byte	0
 3904 02c2 00000000 		.4byte	0
 3905              	.LLST15:
 3906 02c6 00000000 		.4byte	.LVL38
 3907 02ca 25000000 		.4byte	.LVL41-1
 3908 02ce 0100     		.2byte	0x1
 3909 02d0 51       		.byte	0x51
 3910 02d1 25000000 		.4byte	.LVL41-1
 3911 02d5 30000000 		.4byte	.LVL42
 3912 02d9 0100     		.2byte	0x1
 3913 02db 58       		.byte	0x58
 3914 02dc 30000000 		.4byte	.LVL42
 3915 02e0 DC000000 		.4byte	.LFE336
 3916 02e4 0400     		.2byte	0x4
 3917 02e6 F3       		.byte	0xf3
 3918 02e7 01       		.uleb128 0x1
 3919 02e8 51       		.byte	0x51
 3920 02e9 9F       		.byte	0x9f
 3921 02ea 00000000 		.4byte	0
 3922 02ee 00000000 		.4byte	0
 3923              	.LLST16:
 3924 02f2 00000000 		.4byte	.LVL38
 3925 02f6 12000000 		.4byte	.LVL40
 3926 02fa 0100     		.2byte	0x1
 3927 02fc 52       		.byte	0x52
 3928 02fd 12000000 		.4byte	.LVL40
 3929 0301 6C000000 		.4byte	.LVL48
ARM GAS  /tmp/ccvX7cVE.s 			page 70


 3930 0305 0100     		.2byte	0x1
 3931 0307 56       		.byte	0x56
 3932 0308 7C000000 		.4byte	.LVL49
 3933 030c 98000000 		.4byte	.LVL51
 3934 0310 0900     		.2byte	0x9
 3935 0312 78       		.byte	0x78
 3936 0313 00       		.sleb128 0
 3937 0314 79       		.byte	0x79
 3938 0315 00       		.sleb128 0
 3939 0316 1C       		.byte	0x1c
 3940 0317 76       		.byte	0x76
 3941 0318 00       		.sleb128 0
 3942 0319 22       		.byte	0x22
 3943 031a 9F       		.byte	0x9f
 3944 031b 98000000 		.4byte	.LVL51
 3945 031f AE000000 		.4byte	.LVL55
 3946 0323 0900     		.2byte	0x9
 3947 0325 78       		.byte	0x78
 3948 0326 00       		.sleb128 0
 3949 0327 7A       		.byte	0x7a
 3950 0328 00       		.sleb128 0
 3951 0329 1C       		.byte	0x1c
 3952 032a 76       		.byte	0x76
 3953 032b 00       		.sleb128 0
 3954 032c 22       		.byte	0x22
 3955 032d 9F       		.byte	0x9f
 3956 032e BC000000 		.4byte	.LVL57
 3957 0332 CC000000 		.4byte	.LVL59
 3958 0336 0900     		.2byte	0x9
 3959 0338 78       		.byte	0x78
 3960 0339 00       		.sleb128 0
 3961 033a 79       		.byte	0x79
 3962 033b 00       		.sleb128 0
 3963 033c 1C       		.byte	0x1c
 3964 033d 76       		.byte	0x76
 3965 033e 00       		.sleb128 0
 3966 033f 22       		.byte	0x22
 3967 0340 9F       		.byte	0x9f
 3968 0341 00000000 		.4byte	0
 3969 0345 00000000 		.4byte	0
 3970              	.LLST17:
 3971 0349 0A000000 		.4byte	.LVL39
 3972 034d 25000000 		.4byte	.LVL41-1
 3973 0351 0100     		.2byte	0x1
 3974 0353 51       		.byte	0x51
 3975 0354 25000000 		.4byte	.LVL41-1
 3976 0358 56000000 		.4byte	.LVL43
 3977 035c 0100     		.2byte	0x1
 3978 035e 58       		.byte	0x58
 3979 035f 56000000 		.4byte	.LVL43
 3980 0363 68000000 		.4byte	.LVL46
 3981 0367 0300     		.2byte	0x3
 3982 0369 78       		.byte	0x78
 3983 036a 7C       		.sleb128 -4
 3984 036b 9F       		.byte	0x9f
 3985 036c 68000000 		.4byte	.LVL46
 3986 0370 6C000000 		.4byte	.LVL48
ARM GAS  /tmp/ccvX7cVE.s 			page 71


 3987 0374 0600     		.2byte	0x6
 3988 0376 F3       		.byte	0xf3
 3989 0377 01       		.uleb128 0x1
 3990 0378 51       		.byte	0x51
 3991 0379 23       		.byte	0x23
 3992 037a 04       		.uleb128 0x4
 3993 037b 9F       		.byte	0x9f
 3994 037c 7C000000 		.4byte	.LVL49
 3995 0380 98000000 		.4byte	.LVL51
 3996 0384 0100     		.2byte	0x1
 3997 0386 59       		.byte	0x59
 3998 0387 98000000 		.4byte	.LVL51
 3999 038b AE000000 		.4byte	.LVL55
 4000 038f 0100     		.2byte	0x1
 4001 0391 5A       		.byte	0x5a
 4002 0392 BC000000 		.4byte	.LVL57
 4003 0396 CC000000 		.4byte	.LVL59
 4004 039a 0100     		.2byte	0x1
 4005 039c 59       		.byte	0x59
 4006 039d 00000000 		.4byte	0
 4007 03a1 00000000 		.4byte	0
 4008              	.LLST18:
 4009 03a5 56000000 		.4byte	.LVL43
 4010 03a9 6C000000 		.4byte	.LVL48
 4011 03ad 0100     		.2byte	0x1
 4012 03af 55       		.byte	0x55
 4013 03b0 00000000 		.4byte	0
 4014 03b4 00000000 		.4byte	0
 4015              	.LLST19:
 4016 03b8 56000000 		.4byte	.LVL43
 4017 03bc 6A000000 		.4byte	.LVL47
 4018 03c0 0100     		.2byte	0x1
 4019 03c2 57       		.byte	0x57
 4020 03c3 6A000000 		.4byte	.LVL47
 4021 03c7 6C000000 		.4byte	.LVL48
 4022 03cb 0300     		.2byte	0x3
 4023 03cd 77       		.byte	0x77
 4024 03ce 7C       		.sleb128 -4
 4025 03cf 9F       		.byte	0x9f
 4026 03d0 00000000 		.4byte	0
 4027 03d4 00000000 		.4byte	0
 4028              	.LLST21:
 4029 03d8 60000000 		.4byte	.LVL44
 4030 03dc 6A000000 		.4byte	.LVL47
 4031 03e0 0100     		.2byte	0x1
 4032 03e2 57       		.byte	0x57
 4033 03e3 6A000000 		.4byte	.LVL47
 4034 03e7 6C000000 		.4byte	.LVL48
 4035 03eb 0300     		.2byte	0x3
 4036 03ed 77       		.byte	0x77
 4037 03ee 7C       		.sleb128 -4
 4038 03ef 9F       		.byte	0x9f
 4039 03f0 00000000 		.4byte	0
 4040 03f4 00000000 		.4byte	0
 4041              	.LLST22:
 4042 03f8 62000000 		.4byte	.LVL45
 4043 03fc 6C000000 		.4byte	.LVL48
ARM GAS  /tmp/ccvX7cVE.s 			page 72


 4044 0400 0100     		.2byte	0x1
 4045 0402 53       		.byte	0x53
 4046 0403 00000000 		.4byte	0
 4047 0407 00000000 		.4byte	0
 4048              	.LLST23:
 4049 040b 94000000 		.4byte	.LVL50
 4050 040f A4000000 		.4byte	.LVL53
 4051 0413 0100     		.2byte	0x1
 4052 0415 55       		.byte	0x55
 4053 0416 A4000000 		.4byte	.LVL53
 4054 041a AE000000 		.4byte	.LVL55
 4055 041e 0900     		.2byte	0x9
 4056 0420 7A       		.byte	0x7a
 4057 0421 00       		.sleb128 0
 4058 0422 78       		.byte	0x78
 4059 0423 00       		.sleb128 0
 4060 0424 1C       		.byte	0x1c
 4061 0425 77       		.byte	0x77
 4062 0426 00       		.sleb128 0
 4063 0427 22       		.byte	0x22
 4064 0428 9F       		.byte	0x9f
 4065 0429 00000000 		.4byte	0
 4066 042d 00000000 		.4byte	0
 4067              	.LLST24:
 4068 0431 94000000 		.4byte	.LVL50
 4069 0435 98000000 		.4byte	.LVL51
 4070 0439 0200     		.2byte	0x2
 4071 043b 79       		.byte	0x79
 4072 043c 00       		.sleb128 0
 4073 043d 98000000 		.4byte	.LVL51
 4074 0441 A1000000 		.4byte	.LVL52-1
 4075 0445 0200     		.2byte	0x2
 4076 0447 7A       		.byte	0x7a
 4077 0448 00       		.sleb128 0
 4078 0449 00000000 		.4byte	0
 4079 044d 00000000 		.4byte	0
 4080              	.LLST25:
 4081 0451 A2000000 		.4byte	.LVL52
 4082 0455 A4000000 		.4byte	.LVL53
 4083 0459 0100     		.2byte	0x1
 4084 045b 55       		.byte	0x55
 4085 045c A4000000 		.4byte	.LVL53
 4086 0460 AE000000 		.4byte	.LVL55
 4087 0464 0900     		.2byte	0x9
 4088 0466 7A       		.byte	0x7a
 4089 0467 00       		.sleb128 0
 4090 0468 78       		.byte	0x78
 4091 0469 00       		.sleb128 0
 4092 046a 1C       		.byte	0x1c
 4093 046b 77       		.byte	0x77
 4094 046c 00       		.sleb128 0
 4095 046d 22       		.byte	0x22
 4096 046e 9F       		.byte	0x9f
 4097 046f 00000000 		.4byte	0
 4098 0473 00000000 		.4byte	0
 4099              	.LLST26:
 4100 0477 AA000000 		.4byte	.LVL54
ARM GAS  /tmp/ccvX7cVE.s 			page 73


 4101 047b AE000000 		.4byte	.LVL55
 4102 047f 0100     		.2byte	0x1
 4103 0481 55       		.byte	0x55
 4104 0482 00000000 		.4byte	0
 4105 0486 00000000 		.4byte	0
 4106              	.LLST27:
 4107 048a 00000000 		.4byte	.LVL60
 4108 048e 0D000000 		.4byte	.LVL61-1
 4109 0492 0100     		.2byte	0x1
 4110 0494 50       		.byte	0x50
 4111 0495 0D000000 		.4byte	.LVL61-1
 4112 0499 14000000 		.4byte	.LVL62
 4113 049d 0400     		.2byte	0x4
 4114 049f F3       		.byte	0xf3
 4115 04a0 01       		.uleb128 0x1
 4116 04a1 50       		.byte	0x50
 4117 04a2 9F       		.byte	0x9f
 4118 04a3 14000000 		.4byte	.LVL62
 4119 04a7 1F000000 		.4byte	.LVL63-1
 4120 04ab 0100     		.2byte	0x1
 4121 04ad 50       		.byte	0x50
 4122 04ae 1F000000 		.4byte	.LVL63-1
 4123 04b2 20000000 		.4byte	.LVL63
 4124 04b6 0400     		.2byte	0x4
 4125 04b8 F3       		.byte	0xf3
 4126 04b9 01       		.uleb128 0x1
 4127 04ba 50       		.byte	0x50
 4128 04bb 9F       		.byte	0x9f
 4129 04bc 20000000 		.4byte	.LVL63
 4130 04c0 28000000 		.4byte	.LFE337
 4131 04c4 0100     		.2byte	0x1
 4132 04c6 50       		.byte	0x50
 4133 04c7 00000000 		.4byte	0
 4134 04cb 00000000 		.4byte	0
 4135              		.section	.debug_aranges,"",%progbits
 4136 0000 64000000 		.4byte	0x64
 4137 0004 0200     		.2byte	0x2
 4138 0006 00000000 		.4byte	.Ldebug_info0
 4139 000a 04       		.byte	0x4
 4140 000b 00       		.byte	0
 4141 000c 0000     		.2byte	0
 4142 000e 0000     		.2byte	0
 4143 0010 00000000 		.4byte	.LFB327
 4144 0014 14000000 		.4byte	.LFE327-.LFB327
 4145 0018 00000000 		.4byte	.LFB329
 4146 001c 34000000 		.4byte	.LFE329-.LFB329
 4147 0020 00000000 		.4byte	.LFB330
 4148 0024 38000000 		.4byte	.LFE330-.LFB330
 4149 0028 00000000 		.4byte	.LFB331
 4150 002c 40000000 		.4byte	.LFE331-.LFB331
 4151 0030 00000000 		.4byte	.LFB332
 4152 0034 0C000000 		.4byte	.LFE332-.LFB332
 4153 0038 00000000 		.4byte	.LFB333
 4154 003c 04000000 		.4byte	.LFE333-.LFB333
 4155 0040 00000000 		.4byte	.LFB334
 4156 0044 30000000 		.4byte	.LFE334-.LFB334
 4157 0048 00000000 		.4byte	.LFB335
ARM GAS  /tmp/ccvX7cVE.s 			page 74


 4158 004c 5C000000 		.4byte	.LFE335-.LFB335
 4159 0050 00000000 		.4byte	.LFB336
 4160 0054 DC000000 		.4byte	.LFE336-.LFB336
 4161 0058 00000000 		.4byte	.LFB337
 4162 005c 28000000 		.4byte	.LFE337-.LFB337
 4163 0060 00000000 		.4byte	0
 4164 0064 00000000 		.4byte	0
 4165              		.section	.debug_ranges,"",%progbits
 4166              	.Ldebug_ranges0:
 4167 0000 08000000 		.4byte	.LBB73
 4168 0004 0A000000 		.4byte	.LBE73
 4169 0008 12000000 		.4byte	.LBB76
 4170 000c 16000000 		.4byte	.LBE76
 4171 0010 00000000 		.4byte	0
 4172 0014 00000000 		.4byte	0
 4173 0018 A2000000 		.4byte	.LBB90
 4174 001c A4000000 		.4byte	.LBE90
 4175 0020 A8000000 		.4byte	.LBB93
 4176 0024 AA000000 		.4byte	.LBE93
 4177 0028 00000000 		.4byte	0
 4178 002c 00000000 		.4byte	0
 4179 0030 00000000 		.4byte	.LFB327
 4180 0034 14000000 		.4byte	.LFE327
 4181 0038 00000000 		.4byte	.LFB329
 4182 003c 34000000 		.4byte	.LFE329
 4183 0040 00000000 		.4byte	.LFB330
 4184 0044 38000000 		.4byte	.LFE330
 4185 0048 00000000 		.4byte	.LFB331
 4186 004c 40000000 		.4byte	.LFE331
 4187 0050 00000000 		.4byte	.LFB332
 4188 0054 0C000000 		.4byte	.LFE332
 4189 0058 00000000 		.4byte	.LFB333
 4190 005c 04000000 		.4byte	.LFE333
 4191 0060 00000000 		.4byte	.LFB334
 4192 0064 30000000 		.4byte	.LFE334
 4193 0068 00000000 		.4byte	.LFB335
 4194 006c 5C000000 		.4byte	.LFE335
 4195 0070 00000000 		.4byte	.LFB336
 4196 0074 DC000000 		.4byte	.LFE336
 4197 0078 00000000 		.4byte	.LFB337
 4198 007c 28000000 		.4byte	.LFE337
 4199 0080 00000000 		.4byte	0
 4200 0084 00000000 		.4byte	0
 4201              		.section	.debug_line,"",%progbits
 4202              	.Ldebug_line0:
 4203 0000 05040000 		.section	.debug_str,"MS",%progbits,1
 4203      02007802 
 4203      00000201 
 4203      FB0E0D00 
 4203      01010101 
 4204              	.LASF21:
 4205 0000 72747469 		.ascii	"rttime_t\000"
 4205      6D655F74 
 4205      00
 4206              	.LASF55:
 4207 0009 72656164 		.ascii	"ready_list_t\000"
 4207      795F6C69 
ARM GAS  /tmp/ccvX7cVE.s 			page 75


 4207      73745F74 
 4207      00
 4208              	.LASF2:
 4209 0016 73697A65 		.ascii	"size_t\000"
 4209      5F7400
 4210              	.LASF127:
 4211 001d 7264796D 		.ascii	"rdymsg\000"
 4211      736700
 4212              	.LASF160:
 4213 0024 666C6173 		.ascii	"flash_pageaddr_initialised\000"
 4213      685F7061 
 4213      67656164 
 4213      64725F69 
 4213      6E697469 
 4214              	.LASF19:
 4215 003f 75696E74 		.ascii	"uint64_t\000"
 4215      36345F74 
 4215      00
 4216              	.LASF74:
 4217 0048 6B65726E 		.ascii	"kernel_stats\000"
 4217      656C5F73 
 4217      74617473 
 4217      00
 4218              	.LASF3:
 4219 0055 5F5F7569 		.ascii	"__uint8_t\000"
 4219      6E74385F 
 4219      7400
 4220              	.LASF54:
 4221 005f 70726576 		.ascii	"prev\000"
 4221      00
 4222              	.LASF114:
 4223 0064 706F7274 		.ascii	"port_intctx\000"
 4223      5F696E74 
 4223      63747800 
 4224              	.LASF72:
 4225 0070 76746C69 		.ascii	"vtlist\000"
 4225      737400
 4226              	.LASF80:
 4227 0077 4F505443 		.ascii	"OPTCR\000"
 4227      5200
 4228              	.LASF118:
 4229 007d 776F7273 		.ascii	"worst\000"
 4229      7400
 4230              	.LASF81:
 4231 0083 4F505443 		.ascii	"OPTCR1\000"
 4231      523100
 4232              	.LASF121:
 4233 008a 74696D65 		.ascii	"time_measurement_t\000"
 4233      5F6D6561 
 4233      73757265 
 4233      6D656E74 
 4233      5F7400
 4234              	.LASF170:
 4235 009d 73746D33 		.ascii	"stm32_flash_keep_unlocked\000"
 4235      325F666C 
 4235      6173685F 
 4235      6B656570 
ARM GAS  /tmp/ccvX7cVE.s 			page 76


 4235      5F756E6C 
 4236              	.LASF151:
 4237 00b7 73746D33 		.ascii	"stm32_flash_clear_errors\000"
 4237      325F666C 
 4237      6173685F 
 4237      636C6561 
 4237      725F6572 
 4238              	.LASF73:
 4239 00d0 6D61696E 		.ascii	"mainthread\000"
 4239      74687265 
 4239      616400
 4240              	.LASF131:
 4241 00db 73656E74 		.ascii	"sentmsg\000"
 4241      6D736700 
 4242              	.LASF61:
 4243 00e3 64656C74 		.ascii	"delta\000"
 4243      6100
 4244              	.LASF162:
 4245 00e9 49544D5F 		.ascii	"ITM_RxBuffer\000"
 4245      52784275 
 4245      66666572 
 4245      00
 4246              	.LASF76:
 4247 00f6 73797369 		.ascii	"sysinterval_t\000"
 4247      6E746572 
 4247      76616C5F 
 4247      7400
 4248              	.LASF91:
 4249 0104 52455345 		.ascii	"RESERVED1\000"
 4249      52564544 
 4249      3100
 4250              	.LASF51:
 4251 010e 6E657874 		.ascii	"next\000"
 4251      00
 4252              	.LASF53:
 4253 0113 63685F74 		.ascii	"ch_threads_queue\000"
 4253      68726561 
 4253      64735F71 
 4253      75657565 
 4253      00
 4254              	.LASF155:
 4255 0124 67657472 		.ascii	"getreg16\000"
 4255      65673136 
 4255      00
 4256              	.LASF99:
 4257 012d 41484231 		.ascii	"AHB1LPENR\000"
 4257      4C50454E 
 4257      5200
 4258              	.LASF12:
 4259 0137 6C6F6E67 		.ascii	"long long int\000"
 4259      206C6F6E 
 4259      6720696E 
 4259      7400
 4260              	.LASF1:
 4261 0145 7369676E 		.ascii	"signed char\000"
 4261      65642063 
 4261      68617200 
ARM GAS  /tmp/ccvX7cVE.s 			page 77


 4262              	.LASF134:
 4263 0151 65776D61 		.ascii	"ewmask\000"
 4263      736B00
 4264              	.LASF82:
 4265 0158 464C4153 		.ascii	"FLASH_TypeDef\000"
 4265      485F5479 
 4265      70654465 
 4265      6600
 4266              	.LASF156:
 4267 0166 73746D33 		.ascii	"stm32_flash_erasepage\000"
 4267      325F666C 
 4267      6173685F 
 4267      65726173 
 4267      65706167 
 4268              	.LASF14:
 4269 017c 6C6F6E67 		.ascii	"long long unsigned int\000"
 4269      206C6F6E 
 4269      6720756E 
 4269      7369676E 
 4269      65642069 
 4270              	.LASF129:
 4271 0193 77746F62 		.ascii	"wtobjp\000"
 4271      6A7000
 4272              	.LASF41:
 4273 019a 6D736771 		.ascii	"msgqueue\000"
 4273      75657565 
 4273      00
 4274              	.LASF37:
 4275 01a3 73746174 		.ascii	"state\000"
 4275      6500
 4276              	.LASF70:
 4277 01a9 63685F73 		.ascii	"ch_system\000"
 4277      79737465 
 4277      6D00
 4278              	.LASF9:
 4279 01b3 6C6F6E67 		.ascii	"long int\000"
 4279      20696E74 
 4279      00
 4280              	.LASF90:
 4281 01bc 41504232 		.ascii	"APB2RSTR\000"
 4281      52535452 
 4281      00
 4282              	.LASF103:
 4283 01c5 41504231 		.ascii	"APB1LPENR\000"
 4283      4C50454E 
 4283      5200
 4284              	.LASF23:
 4285 01cf 74737461 		.ascii	"tstate_t\000"
 4285      74655F74 
 4285      00
 4286              	.LASF16:
 4287 01d8 75696E74 		.ascii	"uint16_t\000"
 4287      31365F74 
 4287      00
 4288              	.LASF46:
 4289 01e1 73746174 		.ascii	"stats\000"
 4289      7300
ARM GAS  /tmp/ccvX7cVE.s 			page 78


 4290              	.LASF153:
 4291 01e7 70757472 		.ascii	"putreg16\000"
 4291      65673136 
 4291      00
 4292              	.LASF83:
 4293 01f0 504C4C43 		.ascii	"PLLCFGR\000"
 4293      46475200 
 4294              	.LASF128:
 4295 01f8 65786974 		.ascii	"exitcode\000"
 4295      636F6465 
 4295      00
 4296              	.LASF10:
 4297 0201 5F5F7569 		.ascii	"__uint32_t\000"
 4297      6E743332 
 4297      5F7400
 4298              	.LASF111:
 4299 020c 72656761 		.ascii	"regarm_t\000"
 4299      726D5F74 
 4299      00
 4300              	.LASF67:
 4301 0215 63685F73 		.ascii	"ch_system_debug\000"
 4301      79737465 
 4301      6D5F6465 
 4301      62756700 
 4302              	.LASF40:
 4303 0225 77616974 		.ascii	"waiting\000"
 4303      696E6700 
 4304              	.LASF139:
 4305 022d 6D757465 		.ascii	"mutex_t\000"
 4305      785F7400 
 4306              	.LASF113:
 4307 0235 706F7274 		.ascii	"port_context\000"
 4307      5F636F6E 
 4307      74657874 
 4307      00
 4308              	.LASF28:
 4309 0242 636E745F 		.ascii	"cnt_t\000"
 4309      7400
 4310              	.LASF0:
 4311 0248 756E7369 		.ascii	"unsigned int\000"
 4311      676E6564 
 4311      20696E74 
 4311      00
 4312              	.LASF163:
 4313 0255 474E5520 		.ascii	"GNU C 4.9.3 20150529 (prerelease) -mcpu=cortex-m4 -"
 4313      4320342E 
 4313      392E3320 
 4313      32303135 
 4313      30353239 
 4314 0288 6D666C6F 		.ascii	"mfloat-abi=hard -mfpu=fpv4-sp-d16 -mno-thumb-interw"
 4314      61742D61 
 4314      62693D68 
 4314      61726420 
 4314      2D6D6670 
 4315 02bb 6F726B20 		.ascii	"ork -mthumb -g -Os -fomit-frame-pointer -falign-fun"
 4315      2D6D7468 
 4315      756D6220 
ARM GAS  /tmp/ccvX7cVE.s 			page 79


 4315      2D67202D 
 4315      4F73202D 
 4316 02ee 6374696F 		.ascii	"ctions=16 -ffunction-sections -fdata-sections -fno-"
 4316      6E733D31 
 4316      36202D66 
 4316      66756E63 
 4316      74696F6E 
 4317 0321 636F6D6D 		.ascii	"common -fsingle-precision-constant\000"
 4317      6F6E202D 
 4317      6673696E 
 4317      676C652D 
 4317      70726563 
 4318              	.LASF84:
 4319 0344 43464752 		.ascii	"CFGR\000"
 4319      00
 4320              	.LASF132:
 4321 0349 77747365 		.ascii	"wtsemp\000"
 4321      6D7000
 4322              	.LASF66:
 4323 0350 73797374 		.ascii	"system_debug_t\000"
 4323      656D5F64 
 4323      65627567 
 4323      5F7400
 4324              	.LASF145:
 4325 035f 70616765 		.ascii	"page\000"
 4325      00
 4326              	.LASF110:
 4327 0364 5243435F 		.ascii	"RCC_TypeDef\000"
 4327      54797065 
 4327      44656600 
 4328              	.LASF122:
 4329 0370 6E5F6972 		.ascii	"n_irq\000"
 4329      7100
 4330              	.LASF31:
 4331 0376 71756575 		.ascii	"queue\000"
 4331      6500
 4332              	.LASF35:
 4333 037c 6E616D65 		.ascii	"name\000"
 4333      00
 4334              	.LASF154:
 4335 0381 67657472 		.ascii	"getreg32\000"
 4335      65673332 
 4335      00
 4336              	.LASF7:
 4337 038a 73686F72 		.ascii	"short unsigned int\000"
 4337      7420756E 
 4337      7369676E 
 4337      65642069 
 4337      6E7400
 4338              	.LASF126:
 4339 039d 6B65726E 		.ascii	"kernel_stats_t\000"
 4339      656C5F73 
 4339      74617473 
 4339      5F7400
 4340              	.LASF49:
 4341 03ac 63685F74 		.ascii	"ch_thread\000"
 4341      68726561 
ARM GAS  /tmp/ccvX7cVE.s 			page 80


 4341      6400
 4342              	.LASF109:
 4343 03b6 504C4C49 		.ascii	"PLLI2SCFGR\000"
 4343      32534346 
 4343      475200
 4344              	.LASF26:
 4345 03c1 6D73675F 		.ascii	"msg_t\000"
 4345      7400
 4346              	.LASF87:
 4347 03c7 41484233 		.ascii	"AHB3RSTR\000"
 4347      52535452 
 4347      00
 4348              	.LASF29:
 4349 03d0 75636E74 		.ascii	"ucnt_t\000"
 4349      5F7400
 4350              	.LASF42:
 4351 03d7 6570656E 		.ascii	"epending\000"
 4351      64696E67 
 4351      00
 4352              	.LASF69:
 4353 03e0 63685F73 		.ascii	"ch_system_t\000"
 4353      79737465 
 4353      6D5F7400 
 4354              	.LASF93:
 4355 03ec 41484232 		.ascii	"AHB2ENR\000"
 4355      454E5200 
 4356              	.LASF22:
 4357 03f4 746D6F64 		.ascii	"tmode_t\000"
 4357      655F7400 
 4358              	.LASF104:
 4359 03fc 41504232 		.ascii	"APB2LPENR\000"
 4359      4C50454E 
 4359      5200
 4360              	.LASF125:
 4361 0406 6D5F6372 		.ascii	"m_crit_isr\000"
 4361      69745F69 
 4361      737200
 4362              	.LASF56:
 4363 0411 63685F72 		.ascii	"ch_ready_list\000"
 4363      65616479 
 4363      5F6C6973 
 4363      7400
 4364              	.LASF27:
 4365 041f 6576656E 		.ascii	"eventmask_t\000"
 4365      746D6173 
 4365      6B5F7400 
 4366              	.LASF5:
 4367 042b 73686F72 		.ascii	"short int\000"
 4367      7420696E 
 4367      7400
 4368              	.LASF8:
 4369 0435 5F5F696E 		.ascii	"__int32_t\000"
 4369      7433325F 
 4369      7400
 4370              	.LASF141:
 4371 043f 5F5F4453 		.ascii	"__DSB\000"
 4371      4200
ARM GAS  /tmp/ccvX7cVE.s 			page 81


 4372              	.LASF63:
 4373 0445 76697274 		.ascii	"virtual_timers_list_t\000"
 4373      75616C5F 
 4373      74696D65 
 4373      72735F6C 
 4373      6973745F 
 4374              	.LASF112:
 4375 045b 73746B61 		.ascii	"stkalign_t\000"
 4375      6C69676E 
 4375      5F7400
 4376              	.LASF33:
 4377 0466 6E657765 		.ascii	"newer\000"
 4377      7200
 4378              	.LASF159:
 4379 046c 666C6173 		.ascii	"flash_pageaddr\000"
 4379      685F7061 
 4379      67656164 
 4379      647200
 4380              	.LASF169:
 4381 047b 6661696C 		.ascii	"failed\000"
 4381      656400
 4382              	.LASF44:
 4383 0482 7265616C 		.ascii	"realprio\000"
 4383      7072696F 
 4383      00
 4384              	.LASF166:
 4385 048b 73746D33 		.ascii	"stm32_flash_lock\000"
 4385      325F666C 
 4385      6173685F 
 4385      6C6F636B 
 4385      00
 4386              	.LASF20:
 4387 049c 7274636E 		.ascii	"rtcnt_t\000"
 4387      745F7400 
 4388              	.LASF47:
 4389 04a4 74687265 		.ascii	"thread_reference_t\000"
 4389      61645F72 
 4389      65666572 
 4389      656E6365 
 4389      5F7400
 4390              	.LASF116:
 4391 04b7 746D5F63 		.ascii	"tm_calibration_t\000"
 4391      616C6962 
 4391      72617469 
 4391      6F6E5F74 
 4391      00
 4392              	.LASF64:
 4393 04c8 63685F76 		.ascii	"ch_virtual_timers_list\000"
 4393      69727475 
 4393      616C5F74 
 4393      696D6572 
 4393      735F6C69 
 4394              	.LASF130:
 4395 04df 77747472 		.ascii	"wttrp\000"
 4395      7000
 4396              	.LASF146:
 4397 04e5 61646472 		.ascii	"address\000"
ARM GAS  /tmp/ccvX7cVE.s 			page 82


 4397      65737300 
 4398              	.LASF150:
 4399 04ed 636F756E 		.ascii	"count\000"
 4399      7400
 4400              	.LASF143:
 4401 04f3 73746D33 		.ascii	"stm32_flash_getpagesize\000"
 4401      325F666C 
 4401      6173685F 
 4401      67657470 
 4401      61676573 
 4402              	.LASF100:
 4403 050b 41484232 		.ascii	"AHB2LPENR\000"
 4403      4C50454E 
 4403      5200
 4404              	.LASF144:
 4405 0515 73746D33 		.ascii	"stm32_flash_getpageaddr\000"
 4405      325F666C 
 4405      6173685F 
 4405      67657470 
 4405      61676561 
 4406              	.LASF32:
 4407 052d 7072696F 		.ascii	"prio\000"
 4407      00
 4408              	.LASF89:
 4409 0532 41504231 		.ascii	"APB1RSTR\000"
 4409      52535452 
 4409      00
 4410              	.LASF57:
 4411 053b 63757272 		.ascii	"current\000"
 4411      656E7400 
 4412              	.LASF13:
 4413 0543 5F5F7569 		.ascii	"__uint64_t\000"
 4413      6E743634 
 4413      5F7400
 4414              	.LASF120:
 4415 054e 63756D75 		.ascii	"cumulative\000"
 4415      6C617469 
 4415      766500
 4416              	.LASF161:
 4417 0559 666C6173 		.ascii	"flash_keep_unlocked\000"
 4417      685F6B65 
 4417      65705F75 
 4417      6E6C6F63 
 4417      6B656400 
 4418              	.LASF168:
 4419 056d 73746D33 		.ascii	"stm32_flash_getnumpages\000"
 4419      325F666C 
 4419      6173685F 
 4419      6765746E 
 4419      756D7061 
 4420              	.LASF24:
 4421 0585 74726566 		.ascii	"trefs_t\000"
 4421      735F7400 
 4422              	.LASF88:
 4423 058d 52455345 		.ascii	"RESERVED0\000"
 4423      52564544 
 4423      3000
ARM GAS  /tmp/ccvX7cVE.s 			page 83


 4424              	.LASF78:
 4425 0597 4B455952 		.ascii	"KEYR\000"
 4425      00
 4426              	.LASF95:
 4427 059c 52455345 		.ascii	"RESERVED2\000"
 4427      52564544 
 4427      3200
 4428              	.LASF39:
 4429 05a6 72656673 		.ascii	"refs\000"
 4429      00
 4430              	.LASF59:
 4431 05ab 76697274 		.ascii	"virtual_timer_t\000"
 4431      75616C5F 
 4431      74696D65 
 4431      725F7400 
 4432              	.LASF105:
 4433 05bb 52455345 		.ascii	"RESERVED5\000"
 4433      52564544 
 4433      3500
 4434              	.LASF107:
 4435 05c5 52455345 		.ascii	"RESERVED6\000"
 4435      52564544 
 4435      3600
 4436              	.LASF25:
 4437 05cf 74707269 		.ascii	"tprio_t\000"
 4437      6F5F7400 
 4438              	.LASF147:
 4439 05d7 61646472 		.ascii	"addr\000"
 4439      00
 4440              	.LASF123:
 4441 05dc 6E5F6374 		.ascii	"n_ctxswc\000"
 4441      78737763 
 4441      00
 4442              	.LASF140:
 4443 05e5 5F426F6F 		.ascii	"_Bool\000"
 4443      6C00
 4444              	.LASF17:
 4445 05eb 696E7433 		.ascii	"int32_t\000"
 4445      325F7400 
 4446              	.LASF4:
 4447 05f3 756E7369 		.ascii	"unsigned char\000"
 4447      676E6564 
 4447      20636861 
 4447      7200
 4448              	.LASF62:
 4449 0601 66756E63 		.ascii	"func\000"
 4449      00
 4450              	.LASF65:
 4451 0606 6C617374 		.ascii	"lasttime\000"
 4451      74696D65 
 4451      00
 4452              	.LASF101:
 4453 060f 41484233 		.ascii	"AHB3LPENR\000"
 4453      4C50454E 
 4453      5200
 4454              	.LASF157:
 4455 0619 73746D33 		.ascii	"stm32_flash_write\000"
ARM GAS  /tmp/ccvX7cVE.s 			page 84


 4455      325F666C 
 4455      6173685F 
 4455      77726974 
 4455      6500
 4456              	.LASF97:
 4457 062b 41504232 		.ascii	"APB2ENR\000"
 4457      454E5200 
 4458              	.LASF152:
 4459 0633 70757472 		.ascii	"putreg32\000"
 4459      65673332 
 4459      00
 4460              	.LASF94:
 4461 063c 41484233 		.ascii	"AHB3ENR\000"
 4461      454E5200 
 4462              	.LASF135:
 4463 0644 63685F73 		.ascii	"ch_semaphore\000"
 4463      656D6170 
 4463      686F7265 
 4463      00
 4464              	.LASF98:
 4465 0651 52455345 		.ascii	"RESERVED3\000"
 4465      52564544 
 4465      3300
 4466              	.LASF102:
 4467 065b 52455345 		.ascii	"RESERVED4\000"
 4467      52564544 
 4467      3400
 4468              	.LASF18:
 4469 0665 75696E74 		.ascii	"uint32_t\000"
 4469      33325F74 
 4469      00
 4470              	.LASF133:
 4471 066e 77746D74 		.ascii	"wtmtxp\000"
 4471      787000
 4472              	.LASF79:
 4473 0675 4F50544B 		.ascii	"OPTKEYR\000"
 4473      45595200 
 4474              	.LASF50:
 4475 067d 63685F74 		.ascii	"ch_threads_list\000"
 4475      68726561 
 4475      64735F6C 
 4475      69737400 
 4476              	.LASF137:
 4477 068d 6F776E65 		.ascii	"owner\000"
 4477      7200
 4478              	.LASF167:
 4479 0693 73746D33 		.ascii	"stm32_flash_wait_idle\000"
 4479      325F666C 
 4479      6173685F 
 4479      77616974 
 4479      5F69646C 
 4480              	.LASF11:
 4481 06a9 6C6F6E67 		.ascii	"long unsigned int\000"
 4481      20756E73 
 4481      69676E65 
 4481      6420696E 
 4481      7400
ARM GAS  /tmp/ccvX7cVE.s 			page 85


 4482              	.LASF36:
 4483 06bb 77616261 		.ascii	"wabase\000"
 4483      736500
 4484              	.LASF138:
 4485 06c2 63686172 		.ascii	"char\000"
 4485      00
 4486              	.LASF34:
 4487 06c7 6F6C6465 		.ascii	"older\000"
 4487      7200
 4488              	.LASF142:
 4489 06cd 73746D33 		.ascii	"stm32_flash_unlock\000"
 4489      325F666C 
 4489      6173685F 
 4489      756E6C6F 
 4489      636B00
 4490              	.LASF6:
 4491 06e0 5F5F7569 		.ascii	"__uint16_t\000"
 4491      6E743136 
 4491      5F7400
 4492              	.LASF86:
 4493 06eb 41484232 		.ascii	"AHB2RSTR\000"
 4493      52535452 
 4493      00
 4494              	.LASF30:
 4495 06f4 74687265 		.ascii	"thread_t\000"
 4495      61645F74 
 4495      00
 4496              	.LASF117:
 4497 06fd 62657374 		.ascii	"best\000"
 4497      00
 4498              	.LASF75:
 4499 0702 73797374 		.ascii	"systime_t\000"
 4499      696D655F 
 4499      7400
 4500              	.LASF58:
 4501 070c 76746675 		.ascii	"vtfunc_t\000"
 4501      6E635F74 
 4501      00
 4502              	.LASF119:
 4503 0715 6C617374 		.ascii	"last\000"
 4503      00
 4504              	.LASF68:
 4505 071a 70616E69 		.ascii	"panic_msg\000"
 4505      635F6D73 
 4505      6700
 4506              	.LASF115:
 4507 0724 6F666673 		.ascii	"offset\000"
 4507      657400
 4508              	.LASF96:
 4509 072b 41504231 		.ascii	"APB1ENR\000"
 4509      454E5200 
 4510              	.LASF164:
 4511 0733 2E2E2F2E 		.ascii	"../../libraries/AP_HAL_ChibiOS/hwdef/common/flash.c"
 4511      2E2F6C69 
 4511      62726172 
 4511      6965732F 
 4511      41505F48 
ARM GAS  /tmp/ccvX7cVE.s 			page 86


 4512 0766 00       		.ascii	"\000"
 4513              	.LASF165:
 4514 0767 2F686F6D 		.ascii	"/home/kozinalexey/f4by/ardupilot/build/F4BY\000"
 4514      652F6B6F 
 4514      7A696E61 
 4514      6C657865 
 4514      792F6634 
 4515              	.LASF60:
 4516 0793 63685F76 		.ascii	"ch_virtual_timer\000"
 4516      69727475 
 4516      616C5F74 
 4516      696D6572 
 4516      00
 4517              	.LASF85:
 4518 07a4 41484231 		.ascii	"AHB1RSTR\000"
 4518      52535452 
 4518      00
 4519              	.LASF158:
 4520 07ad 666C6173 		.ascii	"flash_memmap\000"
 4520      685F6D65 
 4520      6D6D6170 
 4520      00
 4521              	.LASF108:
 4522 07ba 53534347 		.ascii	"SSCGR\000"
 4522      5200
 4523              	.LASF45:
 4524 07c0 6D706F6F 		.ascii	"mpool\000"
 4524      6C00
 4525              	.LASF52:
 4526 07c6 74687265 		.ascii	"threads_queue_t\000"
 4526      6164735F 
 4526      71756575 
 4526      655F7400 
 4527              	.LASF106:
 4528 07d6 42444352 		.ascii	"BDCR\000"
 4528      00
 4529              	.LASF71:
 4530 07db 726C6973 		.ascii	"rlist\000"
 4530      7400
 4531              	.LASF15:
 4532 07e1 75696E74 		.ascii	"uint8_t\000"
 4532      385F7400 
 4533              	.LASF38:
 4534 07e9 666C6167 		.ascii	"flags\000"
 4534      7300
 4535              	.LASF77:
 4536 07ef 73697A65 		.ascii	"sizetype\000"
 4536      74797065 
 4536      00
 4537              	.LASF136:
 4538 07f8 63685F6D 		.ascii	"ch_mutex\000"
 4538      75746578 
 4538      00
 4539              	.LASF148:
 4540 0801 72657476 		.ascii	"retval\000"
 4540      616C00
 4541              	.LASF92:
ARM GAS  /tmp/ccvX7cVE.s 			page 87


 4542 0808 41484231 		.ascii	"AHB1ENR\000"
 4542      454E5200 
 4543              	.LASF48:
 4544 0810 74687265 		.ascii	"threads_list_t\000"
 4544      6164735F 
 4544      6C697374 
 4544      5F7400
 4545              	.LASF43:
 4546 081f 6D74786C 		.ascii	"mtxlist\000"
 4546      69737400 
 4547              	.LASF124:
 4548 0827 6D5F6372 		.ascii	"m_crit_thd\000"
 4548      69745F74 
 4548      686400
 4549              	.LASF149:
 4550 0832 73746D33 		.ascii	"stm32_flash_ispageerased\000"
 4550      325F666C 
 4550      6173685F 
 4550      69737061 
 4550      67656572 
 4551              		.ident	"GCC: (15:4.9.3+svn231177-1) 4.9.3 20150529 (prerelease)"
ARM GAS  /tmp/ccvX7cVE.s 			page 88


DEFINED SYMBOLS
                            *ABS*:0000000000000000 flash.c
     /tmp/ccvX7cVE.s:21     .text.stm32_flash_wait_idle:0000000000000000 $t
     /tmp/ccvX7cVE.s:25     .text.stm32_flash_wait_idle:0000000000000000 stm32_flash_wait_idle
     /tmp/ccvX7cVE.s:54     .text.stm32_flash_wait_idle:0000000000000010 $d
     /tmp/ccvX7cVE.s:59     .text.stm32_flash_unlock:0000000000000000 $t
     /tmp/ccvX7cVE.s:63     .text.stm32_flash_unlock:0000000000000000 stm32_flash_unlock
     /tmp/ccvX7cVE.s:102    .text.stm32_flash_unlock:0000000000000028 $d
     /tmp/ccvX7cVE.s:111    .text.stm32_flash_lock:0000000000000000 $t
     /tmp/ccvX7cVE.s:116    .text.stm32_flash_lock:0000000000000000 stm32_flash_lock
     /tmp/ccvX7cVE.s:157    .text.stm32_flash_lock:0000000000000030 $d
     /tmp/ccvX7cVE.s:165    .text.stm32_flash_getpageaddr:0000000000000000 $t
     /tmp/ccvX7cVE.s:170    .text.stm32_flash_getpageaddr:0000000000000000 stm32_flash_getpageaddr
     /tmp/ccvX7cVE.s:242    .text.stm32_flash_getpageaddr:0000000000000034 $d
     /tmp/ccvX7cVE.s:249    .text.stm32_flash_getpagesize:0000000000000000 $t
     /tmp/ccvX7cVE.s:254    .text.stm32_flash_getpagesize:0000000000000000 stm32_flash_getpagesize
     /tmp/ccvX7cVE.s:270    .text.stm32_flash_getpagesize:0000000000000008 $d
     /tmp/ccvX7cVE.s:275    .text.stm32_flash_getnumpages:0000000000000000 $t
     /tmp/ccvX7cVE.s:280    .text.stm32_flash_getnumpages:0000000000000000 stm32_flash_getnumpages
     /tmp/ccvX7cVE.s:294    .text.stm32_flash_ispageerased:0000000000000000 $t
     /tmp/ccvX7cVE.s:299    .text.stm32_flash_ispageerased:0000000000000000 stm32_flash_ispageerased
     /tmp/ccvX7cVE.s:378    .text.stm32_flash_ispageerased:000000000000002c $d
     /tmp/ccvX7cVE.s:383    .text.stm32_flash_erasepage:0000000000000000 $t
     /tmp/ccvX7cVE.s:388    .text.stm32_flash_erasepage:0000000000000000 stm32_flash_erasepage
     /tmp/ccvX7cVE.s:478    .text.stm32_flash_erasepage:0000000000000058 $d
     /tmp/ccvX7cVE.s:483    .text.stm32_flash_write:0000000000000000 $t
     /tmp/ccvX7cVE.s:488    .text.stm32_flash_write:0000000000000000 stm32_flash_write
     /tmp/ccvX7cVE.s:706    .text.stm32_flash_write:00000000000000d4 $d
     /tmp/ccvX7cVE.s:712    .text.stm32_flash_keep_unlocked:0000000000000000 $t
     /tmp/ccvX7cVE.s:717    .text.stm32_flash_keep_unlocked:0000000000000000 stm32_flash_keep_unlocked
     /tmp/ccvX7cVE.s:762    .text.stm32_flash_keep_unlocked:0000000000000024 $d
     /tmp/ccvX7cVE.s:767    .bss.flash_pageaddr:0000000000000000 $d
     /tmp/ccvX7cVE.s:771    .bss.flash_pageaddr:0000000000000000 flash_pageaddr
     /tmp/ccvX7cVE.s:774    .rodata.flash_memmap:0000000000000000 $d
     /tmp/ccvX7cVE.s:778    .rodata.flash_memmap:0000000000000000 flash_memmap
     /tmp/ccvX7cVE.s:795    .bss.flash_pageaddr_initialised:0000000000000000 flash_pageaddr_initialised
     /tmp/ccvX7cVE.s:796    .bss.flash_pageaddr_initialised:0000000000000000 $d
     /tmp/ccvX7cVE.s:801    .bss.flash_keep_unlocked:0000000000000000 flash_keep_unlocked
     /tmp/ccvX7cVE.s:802    .bss.flash_keep_unlocked:0000000000000000 $d
                     .debug_frame:0000000000000010 $d

NO UNDEFINED SYMBOLS
