ARM GAS  /tmp/ccn5KXlU.s 			page 1


   1              		.syntax unified
   2              		.cpu cortex-m4
   3              		.eabi_attribute 27, 1
   4              		.eabi_attribute 28, 1
   5              		.fpu fpv4-sp-d16
   6              		.eabi_attribute 20, 1
   7              		.eabi_attribute 21, 1
   8              		.eabi_attribute 23, 3
   9              		.eabi_attribute 24, 1
  10              		.eabi_attribute 25, 1
  11              		.eabi_attribute 26, 1
  12              		.eabi_attribute 30, 4
  13              		.eabi_attribute 34, 1
  14              		.eabi_attribute 18, 4
  15              		.thumb
  16              		.file	"hal.c"
  17              		.text
  18              	.Ltext0:
  19              		.cfi_sections	.debug_frame
  20              		.section	.text.halInit,"ax",%progbits
  21              		.align	1
  22              		.global	halInit
  23              		.thumb
  24              		.thumb_func
  25              		.type	halInit, %function
  26              	halInit:
  27              	.LFB323:
  28              		.file 1 "../../modules/ChibiOS/os/hal/src/hal.c"
  29              		.loc 1 56 0
  30              		.cfi_startproc
  31              		@ args = 0, pretend = 0, frame = 0
  32              		@ frame_needed = 0, uses_anonymous_args = 0
  33 0000 08B5     		push	{r3, lr}
  34              		.cfi_def_cfa_offset 8
  35              		.cfi_offset 3, -8
  36              		.cfi_offset 14, -4
  37              		.loc 1 62 0
  38 0002 FFF7FEFF 		bl	hal_lld_init
  39              	.LVL0:
  40              		.loc 1 66 0
  41 0006 FFF7FEFF 		bl	_pal_lld_init
  42              	.LVL1:
  43              		.loc 1 72 0
  44 000a FFF7FEFF 		bl	adcInit
  45              	.LVL2:
  46              		.loc 1 87 0
  47 000e FFF7FEFF 		bl	i2cInit
  48              	.LVL3:
  49              		.loc 1 93 0
  50 0012 FFF7FEFF 		bl	icuInit
  51              	.LVL4:
  52              		.loc 1 102 0
  53 0016 FFF7FEFF 		bl	pwmInit
  54              	.LVL5:
  55              		.loc 1 105 0
  56 001a FFF7FEFF 		bl	sdInit
  57              	.LVL6:
ARM GAS  /tmp/ccn5KXlU.s 			page 2


  58              		.loc 1 111 0
  59 001e FFF7FEFF 		bl	spiInit
  60              	.LVL7:
  61              		.loc 1 120 0
  62 0022 FFF7FEFF 		bl	usbInit
  63              	.LVL8:
  64              		.loc 1 123 0
  65 0026 FFF7FEFF 		bl	mmcInit
  66              	.LVL9:
  67              		.loc 1 126 0
  68 002a FFF7FEFF 		bl	sduInit
  69              	.LVL10:
  70              		.loc 1 146 0
  71 002e FFF7FEFF 		bl	boardInit
  72              	.LVL11:
  73              		.loc 1 155 0
  74 0032 BDE80840 		pop	{r3, lr}
  75              		.cfi_restore 14
  76              		.cfi_restore 3
  77              		.cfi_def_cfa_offset 0
  78              		.loc 1 153 0
  79 0036 FFF7FEBF 		b	stInit
  80              	.LVL12:
  81              		.cfi_endproc
  82              	.LFE323:
  83              		.size	halInit, .-halInit
  84              		.text
  85              	.Letext0:
  86              		.file 2 "/usr/include/newlib/machine/_default_types.h"
  87              		.file 3 "/usr/include/newlib/sys/_stdint.h"
  88              		.file 4 "../../modules/ChibiOS/os/common/ports/ARMCMx/compilers/GCC/chtypes.h"
  89              		.file 5 "../../modules/ChibiOS/os/rt/include/chsystypes.h"
  90              		.file 6 "../../modules/ChibiOS/os/rt/include/chschd.h"
  91              		.file 7 "../../modules/ChibiOS/os/rt/include/chtime.h"
  92              		.file 8 "../../modules/ChibiOS/os/common/ports/ARMCMx/chcore.h"
  93              		.file 9 "../../modules/ChibiOS/os/common/ports/ARMCMx/chcore_v7m.h"
  94              		.file 10 "../../modules/ChibiOS/os/rt/include/chtm.h"
  95              		.file 11 "../../modules/ChibiOS/os/rt/include/chstats.h"
  96              		.file 12 "../../modules/ChibiOS/os/rt/include/chsem.h"
  97              		.file 13 "../../modules/ChibiOS/os/rt/include/chmtx.h"
  98              		.file 14 "../../modules/ChibiOS/os/hal/ports/STM32/STM32F4xx/hal_lld_type1.h"
  99              		.file 15 "../../modules/ChibiOS/os/hal/ports/STM32/LLD/GPIOv2/hal_pal_lld.h"
 100              		.file 16 "../../modules/ChibiOS/os/hal/include/hal_adc.h"
 101              		.file 17 "../../modules/ChibiOS/os/hal/include/hal_i2c.h"
 102              		.file 18 "../../modules/ChibiOS/os/hal/include/hal_icu.h"
 103              		.file 19 "../../modules/ChibiOS/os/hal/include/hal_pwm.h"
 104              		.file 20 "../../modules/ChibiOS/os/hal/include/hal_serial.h"
 105              		.file 21 "../../modules/ChibiOS/os/hal/include/hal_spi.h"
 106              		.file 22 "../../modules/ChibiOS/os/hal/include/hal_usb.h"
 107              		.file 23 "../../modules/ChibiOS/os/hal/include/hal_mmc_spi.h"
 108              		.file 24 "../../modules/ChibiOS/os/hal/include/hal_serial_usb.h"
 109              		.file 25 "../../libraries/AP_HAL_ChibiOS/hwdef/common/board.h"
 110              		.file 26 "../../modules/ChibiOS/os/hal/include/hal_st.h"
 111              		.file 27 "../../modules/ChibiOS/os/hal/osal/rt/osal.h"
 112              		.file 28 "../../modules/ChibiOS/os/common/ext/ARM/CMSIS/Core/Include/core_cm4.h"
 113              		.section	.debug_info,"",%progbits
 114              	.Ldebug_info0:
ARM GAS  /tmp/ccn5KXlU.s 			page 3


 115 0000 A7080000 		.4byte	0x8a7
 116 0004 0400     		.2byte	0x4
 117 0006 00000000 		.4byte	.Ldebug_abbrev0
 118 000a 04       		.byte	0x4
 119 000b 01       		.uleb128 0x1
 120 000c A7010000 		.4byte	.LASF119
 121 0010 01       		.byte	0x1
 122 0011 62040000 		.4byte	.LASF120
 123 0015 FA020000 		.4byte	.LASF121
 124 0019 00000000 		.4byte	.Ldebug_ranges0+0
 125 001d 00000000 		.4byte	0
 126 0021 00000000 		.4byte	.Ldebug_line0
 127 0025 02       		.uleb128 0x2
 128 0026 04       		.byte	0x4
 129 0027 05       		.byte	0x5
 130 0028 696E7400 		.ascii	"int\000"
 131 002c 03       		.uleb128 0x3
 132 002d 04       		.byte	0x4
 133 002e 07       		.byte	0x7
 134 002f 9A010000 		.4byte	.LASF0
 135 0033 03       		.uleb128 0x3
 136 0034 01       		.byte	0x1
 137 0035 06       		.byte	0x6
 138 0036 10010000 		.4byte	.LASF1
 139 003a 04       		.uleb128 0x4
 140 003b 3D000000 		.4byte	.LASF5
 141 003f 02       		.byte	0x2
 142 0040 1D       		.byte	0x1d
 143 0041 45000000 		.4byte	0x45
 144 0045 03       		.uleb128 0x3
 145 0046 01       		.byte	0x1
 146 0047 08       		.byte	0x8
 147 0048 4C040000 		.4byte	.LASF2
 148 004c 03       		.uleb128 0x3
 149 004d 02       		.byte	0x2
 150 004e 05       		.byte	0x5
 151 004f 89040000 		.4byte	.LASF3
 152 0053 03       		.uleb128 0x3
 153 0054 02       		.byte	0x2
 154 0055 07       		.byte	0x7
 155 0056 B7020000 		.4byte	.LASF4
 156 005a 04       		.uleb128 0x4
 157 005b 5F030000 		.4byte	.LASF6
 158 005f 02       		.byte	0x2
 159 0060 3F       		.byte	0x3f
 160 0061 65000000 		.4byte	0x65
 161 0065 03       		.uleb128 0x3
 162 0066 04       		.byte	0x4
 163 0067 05       		.byte	0x5
 164 0068 32010000 		.4byte	.LASF7
 165 006c 04       		.uleb128 0x4
 166 006d 52010000 		.4byte	.LASF8
 167 0071 02       		.byte	0x2
 168 0072 41       		.byte	0x41
 169 0073 77000000 		.4byte	0x77
 170 0077 03       		.uleb128 0x3
 171 0078 04       		.byte	0x4
ARM GAS  /tmp/ccn5KXlU.s 			page 4


 172 0079 07       		.byte	0x7
 173 007a FB040000 		.4byte	.LASF9
 174 007e 03       		.uleb128 0x3
 175 007f 08       		.byte	0x8
 176 0080 05       		.byte	0x5
 177 0081 02010000 		.4byte	.LASF10
 178 0085 04       		.uleb128 0x4
 179 0086 F1030000 		.4byte	.LASF11
 180 008a 02       		.byte	0x2
 181 008b 5B       		.byte	0x5b
 182 008c 90000000 		.4byte	0x90
 183 0090 03       		.uleb128 0x3
 184 0091 08       		.byte	0x8
 185 0092 07       		.byte	0x7
 186 0093 99000000 		.4byte	.LASF12
 187 0097 04       		.uleb128 0x4
 188 0098 A4050000 		.4byte	.LASF13
 189 009c 03       		.byte	0x3
 190 009d 14       		.byte	0x14
 191 009e 3A000000 		.4byte	0x3a
 192 00a2 04       		.uleb128 0x4
 193 00a3 44040000 		.4byte	.LASF14
 194 00a7 03       		.byte	0x3
 195 00a8 1F       		.byte	0x1f
 196 00a9 5A000000 		.4byte	0x5a
 197 00ad 04       		.uleb128 0x4
 198 00ae D5040000 		.4byte	.LASF15
 199 00b2 03       		.byte	0x3
 200 00b3 20       		.byte	0x20
 201 00b4 6C000000 		.4byte	0x6c
 202 00b8 04       		.uleb128 0x4
 203 00b9 27000000 		.4byte	.LASF16
 204 00bd 03       		.byte	0x3
 205 00be 26       		.byte	0x26
 206 00bf 85000000 		.4byte	0x85
 207 00c3 04       		.uleb128 0x4
 208 00c4 6F050000 		.4byte	.LASF17
 209 00c8 04       		.byte	0x4
 210 00c9 27       		.byte	0x27
 211 00ca AD000000 		.4byte	0xad
 212 00ce 04       		.uleb128 0x4
 213 00cf F9000000 		.4byte	.LASF18
 214 00d3 04       		.byte	0x4
 215 00d4 28       		.byte	0x28
 216 00d5 B8000000 		.4byte	0xb8
 217 00d9 04       		.uleb128 0x4
 218 00da 32030000 		.4byte	.LASF19
 219 00de 04       		.byte	0x4
 220 00df 2A       		.byte	0x2a
 221 00e0 97000000 		.4byte	0x97
 222 00e4 04       		.uleb128 0x4
 223 00e5 3B010000 		.4byte	.LASF20
 224 00e9 04       		.byte	0x4
 225 00ea 2B       		.byte	0x2b
 226 00eb 97000000 		.4byte	0x97
 227 00ef 04       		.uleb128 0x4
 228 00f0 07040000 		.4byte	.LASF21
ARM GAS  /tmp/ccn5KXlU.s 			page 5


 229 00f4 04       		.byte	0x4
 230 00f5 2C       		.byte	0x2c
 231 00f6 97000000 		.4byte	0x97
 232 00fa 04       		.uleb128 0x4
 233 00fb 2D040000 		.4byte	.LASF22
 234 00ff 04       		.byte	0x4
 235 0100 2E       		.byte	0x2e
 236 0101 AD000000 		.4byte	0xad
 237 0105 04       		.uleb128 0x4
 238 0106 E8020000 		.4byte	.LASF23
 239 010a 04       		.byte	0x4
 240 010b 2F       		.byte	0x2f
 241 010c A2000000 		.4byte	0xa2
 242 0110 04       		.uleb128 0x4
 243 0111 53030000 		.4byte	.LASF24
 244 0115 04       		.byte	0x4
 245 0116 31       		.byte	0x31
 246 0117 AD000000 		.4byte	0xad
 247 011b 04       		.uleb128 0x4
 248 011c 94010000 		.4byte	.LASF25
 249 0120 04       		.byte	0x4
 250 0121 33       		.byte	0x33
 251 0122 A2000000 		.4byte	0xa2
 252 0126 04       		.uleb128 0x4
 253 0127 F3020000 		.4byte	.LASF26
 254 012b 04       		.byte	0x4
 255 012c 34       		.byte	0x34
 256 012d AD000000 		.4byte	0xad
 257 0131 04       		.uleb128 0x4
 258 0132 27050000 		.4byte	.LASF27
 259 0136 05       		.byte	0x5
 260 0137 34       		.byte	0x34
 261 0138 3C010000 		.4byte	0x13c
 262 013c 05       		.uleb128 0x5
 263 013d DE020000 		.4byte	.LASF46
 264 0141 60       		.byte	0x60
 265 0142 06       		.byte	0x6
 266 0143 8E       		.byte	0x8e
 267 0144 27020000 		.4byte	0x227
 268 0148 06       		.uleb128 0x6
 269 0149 AB020000 		.4byte	.LASF28
 270 014d 06       		.byte	0x6
 271 014e 8F       		.byte	0x8f
 272 014f 5C020000 		.4byte	0x25c
 273 0153 00       		.byte	0
 274 0154 06       		.uleb128 0x6
 275 0155 E4030000 		.4byte	.LASF29
 276 0159 06       		.byte	0x6
 277 015a 90       		.byte	0x90
 278 015b FA000000 		.4byte	0xfa
 279 015f 08       		.byte	0x8
 280 0160 07       		.uleb128 0x7
 281 0161 63747800 		.ascii	"ctx\000"
 282 0165 06       		.byte	0x6
 283 0166 91       		.byte	0x91
 284 0167 77040000 		.4byte	0x477
 285 016b 0C       		.byte	0xc
ARM GAS  /tmp/ccn5KXlU.s 			page 6


 286 016c 06       		.uleb128 0x6
 287 016d 7C030000 		.4byte	.LASF30
 288 0171 06       		.byte	0x6
 289 0172 93       		.byte	0x93
 290 0173 32020000 		.4byte	0x232
 291 0177 10       		.byte	0x10
 292 0178 06       		.uleb128 0x6
 293 0179 19050000 		.4byte	.LASF31
 294 017d 06       		.byte	0x6
 295 017e 94       		.byte	0x94
 296 017f 32020000 		.4byte	0x232
 297 0183 14       		.byte	0x14
 298 0184 06       		.uleb128 0x6
 299 0185 D9020000 		.4byte	.LASF32
 300 0189 06       		.byte	0x6
 301 018a 9B       		.byte	0x9b
 302 018b 5D070000 		.4byte	0x75d
 303 018f 18       		.byte	0x18
 304 0190 06       		.uleb128 0x6
 305 0191 0D050000 		.4byte	.LASF33
 306 0195 06       		.byte	0x6
 307 0196 A4       		.byte	0xa4
 308 0197 6F070000 		.4byte	0x76f
 309 019b 1C       		.byte	0x1c
 310 019c 06       		.uleb128 0x6
 311 019d 2C010000 		.4byte	.LASF34
 312 01a1 06       		.byte	0x6
 313 01a2 A9       		.byte	0xa9
 314 01a3 E4000000 		.4byte	0xe4
 315 01a7 20       		.byte	0x20
 316 01a8 06       		.uleb128 0x6
 317 01a9 AC050000 		.4byte	.LASF35
 318 01ad 06       		.byte	0x6
 319 01ae AD       		.byte	0xad
 320 01af D9000000 		.4byte	0xd9
 321 01b3 21       		.byte	0x21
 322 01b4 06       		.uleb128 0x6
 323 01b5 0F040000 		.4byte	.LASF36
 324 01b9 06       		.byte	0x6
 325 01ba B2       		.byte	0xb2
 326 01bb EF000000 		.4byte	0xef
 327 01bf 22       		.byte	0x22
 328 01c0 08       		.uleb128 0x8
 329 01c1 7500     		.ascii	"u\000"
 330 01c3 06       		.byte	0x6
 331 01c4 0301     		.2byte	0x103
 332 01c6 93060000 		.4byte	0x693
 333 01ca 24       		.byte	0x24
 334 01cb 09       		.uleb128 0x9
 335 01cc 76010000 		.4byte	.LASF37
 336 01d0 06       		.byte	0x6
 337 01d1 0801     		.2byte	0x108
 338 01d3 38020000 		.4byte	0x238
 339 01d7 28       		.byte	0x28
 340 01d8 09       		.uleb128 0x9
 341 01d9 23010000 		.4byte	.LASF38
 342 01dd 06       		.byte	0x6
ARM GAS  /tmp/ccn5KXlU.s 			page 7


 343 01de 0E01     		.2byte	0x10e
 344 01e0 5C020000 		.4byte	0x25c
 345 01e4 2C       		.byte	0x2c
 346 01e5 09       		.uleb128 0x9
 347 01e6 87050000 		.4byte	.LASF39
 348 01ea 06       		.byte	0x6
 349 01eb 1401     		.2byte	0x114
 350 01ed 10010000 		.4byte	0x110
 351 01f1 34       		.byte	0x34
 352 01f2 09       		.uleb128 0x9
 353 01f3 DF050000 		.4byte	.LASF40
 354 01f7 06       		.byte	0x6
 355 01f8 1B01     		.2byte	0x11b
 356 01fa 57070000 		.4byte	0x757
 357 01fe 38       		.byte	0x38
 358 01ff 09       		.uleb128 0x9
 359 0200 8A030000 		.4byte	.LASF41
 360 0204 06       		.byte	0x6
 361 0205 1F01     		.2byte	0x11f
 362 0207 FA000000 		.4byte	0xfa
 363 020b 3C       		.byte	0x3c
 364 020c 09       		.uleb128 0x9
 365 020d B1020000 		.4byte	.LASF42
 366 0211 06       		.byte	0x6
 367 0212 2601     		.2byte	0x126
 368 0214 0F030000 		.4byte	0x30f
 369 0218 40       		.byte	0x40
 370 0219 09       		.uleb128 0x9
 371 021a 4C010000 		.4byte	.LASF43
 372 021e 06       		.byte	0x6
 373 021f 2C01     		.2byte	0x12c
 374 0221 44060000 		.4byte	0x644
 375 0225 48       		.byte	0x48
 376 0226 00       		.byte	0
 377 0227 04       		.uleb128 0x4
 378 0228 9C030000 		.4byte	.LASF44
 379 022c 05       		.byte	0x5
 380 022d 39       		.byte	0x39
 381 022e 32020000 		.4byte	0x232
 382 0232 0A       		.uleb128 0xa
 383 0233 04       		.byte	0x4
 384 0234 31010000 		.4byte	0x131
 385 0238 04       		.uleb128 0x4
 386 0239 B9050000 		.4byte	.LASF45
 387 023d 05       		.byte	0x5
 388 023e 3E       		.byte	0x3e
 389 023f 43020000 		.4byte	0x243
 390 0243 05       		.uleb128 0x5
 391 0244 E5040000 		.4byte	.LASF47
 392 0248 04       		.byte	0x4
 393 0249 06       		.byte	0x6
 394 024a 7C       		.byte	0x7c
 395 024b 5C020000 		.4byte	0x25c
 396 024f 06       		.uleb128 0x6
 397 0250 F4000000 		.4byte	.LASF48
 398 0254 06       		.byte	0x6
 399 0255 7D       		.byte	0x7d
ARM GAS  /tmp/ccn5KXlU.s 			page 8


 400 0256 32020000 		.4byte	0x232
 401 025a 00       		.byte	0
 402 025b 00       		.byte	0
 403 025c 04       		.uleb128 0x4
 404 025d 77050000 		.4byte	.LASF49
 405 0261 05       		.byte	0x5
 406 0262 45       		.byte	0x45
 407 0263 67020000 		.4byte	0x267
 408 0267 05       		.uleb128 0x5
 409 0268 58000000 		.4byte	.LASF50
 410 026c 08       		.byte	0x8
 411 026d 06       		.byte	0x6
 412 026e 83       		.byte	0x83
 413 026f 8C020000 		.4byte	0x28c
 414 0273 06       		.uleb128 0x6
 415 0274 F4000000 		.4byte	.LASF48
 416 0278 06       		.byte	0x6
 417 0279 84       		.byte	0x84
 418 027a 32020000 		.4byte	0x232
 419 027e 00       		.byte	0
 420 027f 06       		.uleb128 0x6
 421 0280 47000000 		.4byte	.LASF51
 422 0284 06       		.byte	0x6
 423 0285 85       		.byte	0x85
 424 0286 32020000 		.4byte	0x232
 425 028a 04       		.byte	0x4
 426 028b 00       		.byte	0
 427 028c 04       		.uleb128 0x4
 428 028d 00000000 		.4byte	.LASF52
 429 0291 05       		.byte	0x5
 430 0292 4C       		.byte	0x4c
 431 0293 97020000 		.4byte	0x297
 432 0297 0B       		.uleb128 0xb
 433 0298 45030000 		.4byte	.LASF53
 434 029c 1C       		.byte	0x1c
 435 029d 06       		.byte	0x6
 436 029e 5E01     		.2byte	0x15e
 437 02a0 F3020000 		.4byte	0x2f3
 438 02a4 09       		.uleb128 0x9
 439 02a5 AB020000 		.4byte	.LASF28
 440 02a9 06       		.byte	0x6
 441 02aa 5F01     		.2byte	0x15f
 442 02ac 5C020000 		.4byte	0x25c
 443 02b0 00       		.byte	0
 444 02b1 09       		.uleb128 0x9
 445 02b2 E4030000 		.4byte	.LASF29
 446 02b6 06       		.byte	0x6
 447 02b7 6001     		.2byte	0x160
 448 02b9 FA000000 		.4byte	0xfa
 449 02bd 08       		.byte	0x8
 450 02be 08       		.uleb128 0x8
 451 02bf 63747800 		.ascii	"ctx\000"
 452 02c3 06       		.byte	0x6
 453 02c4 6201     		.2byte	0x162
 454 02c6 77040000 		.4byte	0x477
 455 02ca 0C       		.byte	0xc
 456 02cb 09       		.uleb128 0x9
ARM GAS  /tmp/ccn5KXlU.s 			page 9


 457 02cc 7C030000 		.4byte	.LASF30
 458 02d0 06       		.byte	0x6
 459 02d1 6501     		.2byte	0x165
 460 02d3 32020000 		.4byte	0x232
 461 02d7 10       		.byte	0x10
 462 02d8 09       		.uleb128 0x9
 463 02d9 19050000 		.4byte	.LASF31
 464 02dd 06       		.byte	0x6
 465 02de 6601     		.2byte	0x166
 466 02e0 32020000 		.4byte	0x232
 467 02e4 14       		.byte	0x14
 468 02e5 09       		.uleb128 0x9
 469 02e6 E9030000 		.4byte	.LASF54
 470 02ea 06       		.byte	0x6
 471 02eb 6901     		.2byte	0x169
 472 02ed 32020000 		.4byte	0x232
 473 02f1 18       		.byte	0x18
 474 02f2 00       		.byte	0
 475 02f3 04       		.uleb128 0x4
 476 02f4 3F050000 		.4byte	.LASF55
 477 02f8 05       		.byte	0x5
 478 02f9 51       		.byte	0x51
 479 02fa FE020000 		.4byte	0x2fe
 480 02fe 0A       		.uleb128 0xa
 481 02ff 04       		.byte	0x4
 482 0300 04030000 		.4byte	0x304
 483 0304 0C       		.uleb128 0xc
 484 0305 0F030000 		.4byte	0x30f
 485 0309 0D       		.uleb128 0xd
 486 030a 0F030000 		.4byte	0x30f
 487 030e 00       		.byte	0
 488 030f 0E       		.uleb128 0xe
 489 0310 04       		.byte	0x4
 490 0311 04       		.uleb128 0x4
 491 0312 14040000 		.4byte	.LASF56
 492 0316 05       		.byte	0x5
 493 0317 56       		.byte	0x56
 494 0318 1C030000 		.4byte	0x31c
 495 031c 0B       		.uleb128 0xb
 496 031d B7040000 		.4byte	.LASF57
 497 0321 14       		.byte	0x14
 498 0322 06       		.byte	0x6
 499 0323 3901     		.2byte	0x139
 500 0325 6B030000 		.4byte	0x36b
 501 0329 09       		.uleb128 0x9
 502 032a F4000000 		.4byte	.LASF48
 503 032e 06       		.byte	0x6
 504 032f 3A01     		.2byte	0x13a
 505 0331 75070000 		.4byte	0x775
 506 0335 00       		.byte	0
 507 0336 09       		.uleb128 0x9
 508 0337 47000000 		.4byte	.LASF51
 509 033b 06       		.byte	0x6
 510 033c 3B01     		.2byte	0x13b
 511 033e 75070000 		.4byte	0x775
 512 0342 04       		.byte	0x4
 513 0343 09       		.uleb128 0x9
ARM GAS  /tmp/ccn5KXlU.s 			page 10


 514 0344 1A000000 		.4byte	.LASF58
 515 0348 06       		.byte	0x6
 516 0349 3C01     		.2byte	0x13c
 517 034b 4F040000 		.4byte	0x44f
 518 034f 08       		.byte	0x8
 519 0350 09       		.uleb128 0x9
 520 0351 EF000000 		.4byte	.LASF59
 521 0355 06       		.byte	0x6
 522 0356 3D01     		.2byte	0x13d
 523 0358 F3020000 		.4byte	0x2f3
 524 035c 0C       		.byte	0xc
 525 035d 08       		.uleb128 0x8
 526 035e 70617200 		.ascii	"par\000"
 527 0362 06       		.byte	0x6
 528 0363 3F01     		.2byte	0x13f
 529 0365 0F030000 		.4byte	0x30f
 530 0369 10       		.byte	0x10
 531 036a 00       		.byte	0
 532 036b 04       		.uleb128 0x4
 533 036c CC000000 		.4byte	.LASF60
 534 0370 05       		.byte	0x5
 535 0371 5B       		.byte	0x5b
 536 0372 76030000 		.4byte	0x376
 537 0376 0B       		.uleb128 0xb
 538 0377 AF030000 		.4byte	.LASF61
 539 037b 10       		.byte	0x10
 540 037c 06       		.byte	0x6
 541 037d 4901     		.2byte	0x149
 542 037f B8030000 		.4byte	0x3b8
 543 0383 09       		.uleb128 0x9
 544 0384 F4000000 		.4byte	.LASF48
 545 0388 06       		.byte	0x6
 546 0389 4A01     		.2byte	0x14a
 547 038b 75070000 		.4byte	0x775
 548 038f 00       		.byte	0
 549 0390 09       		.uleb128 0x9
 550 0391 47000000 		.4byte	.LASF51
 551 0395 06       		.byte	0x6
 552 0396 4C01     		.2byte	0x14c
 553 0398 75070000 		.4byte	0x775
 554 039c 04       		.byte	0x4
 555 039d 09       		.uleb128 0x9
 556 039e 1A000000 		.4byte	.LASF58
 557 03a2 06       		.byte	0x6
 558 03a3 4E01     		.2byte	0x14e
 559 03a5 4F040000 		.4byte	0x44f
 560 03a9 08       		.byte	0x8
 561 03aa 09       		.uleb128 0x9
 562 03ab 93040000 		.4byte	.LASF62
 563 03af 06       		.byte	0x6
 564 03b0 5601     		.2byte	0x156
 565 03b2 44040000 		.4byte	0x444
 566 03b6 0C       		.byte	0xc
 567 03b7 00       		.byte	0
 568 03b8 04       		.uleb128 0x4
 569 03b9 69000000 		.4byte	.LASF63
 570 03bd 05       		.byte	0x5
ARM GAS  /tmp/ccn5KXlU.s 			page 11


 571 03be 60       		.byte	0x60
 572 03bf C3030000 		.4byte	0x3c3
 573 03c3 0B       		.uleb128 0xb
 574 03c4 66010000 		.4byte	.LASF64
 575 03c8 04       		.byte	0x4
 576 03c9 06       		.byte	0x6
 577 03ca 7001     		.2byte	0x170
 578 03cc DE030000 		.4byte	0x3de
 579 03d0 09       		.uleb128 0x9
 580 03d1 48050000 		.4byte	.LASF65
 581 03d5 06       		.byte	0x6
 582 03d6 7801     		.2byte	0x178
 583 03d8 7B070000 		.4byte	0x77b
 584 03dc 00       		.byte	0
 585 03dd 00       		.byte	0
 586 03de 04       		.uleb128 0x4
 587 03df 26030000 		.4byte	.LASF66
 588 03e3 05       		.byte	0x5
 589 03e4 65       		.byte	0x65
 590 03e5 E9030000 		.4byte	0x3e9
 591 03e9 0B       		.uleb128 0xb
 592 03ea AD040000 		.4byte	.LASF67
 593 03ee D0       		.byte	0xd0
 594 03ef 06       		.byte	0x6
 595 03f0 9001     		.2byte	0x190
 596 03f2 44040000 		.4byte	0x444
 597 03f6 09       		.uleb128 0x9
 598 03f7 9E050000 		.4byte	.LASF68
 599 03fb 06       		.byte	0x6
 600 03fc 9401     		.2byte	0x194
 601 03fe 8C020000 		.4byte	0x28c
 602 0402 00       		.byte	0
 603 0403 09       		.uleb128 0x9
 604 0404 1C010000 		.4byte	.LASF69
 605 0408 06       		.byte	0x6
 606 0409 9801     		.2byte	0x198
 607 040b 6B030000 		.4byte	0x36b
 608 040f 1C       		.byte	0x1c
 609 0410 08       		.uleb128 0x8
 610 0411 64626700 		.ascii	"dbg\000"
 611 0415 06       		.byte	0x6
 612 0416 9C01     		.2byte	0x19c
 613 0418 B8030000 		.4byte	0x3b8
 614 041c 2C       		.byte	0x2c
 615 041d 09       		.uleb128 0x9
 616 041e B9000000 		.4byte	.LASF70
 617 0422 06       		.byte	0x6
 618 0423 A001     		.2byte	0x1a0
 619 0425 31010000 		.4byte	0x131
 620 0429 30       		.byte	0x30
 621 042a 08       		.uleb128 0x8
 622 042b 746D00   		.ascii	"tm\000"
 623 042e 06       		.byte	0x6
 624 042f A501     		.2byte	0x1a5
 625 0431 F6050000 		.4byte	0x5f6
 626 0435 90       		.byte	0x90
 627 0436 09       		.uleb128 0x9
ARM GAS  /tmp/ccn5KXlU.s 			page 12


 628 0437 30000000 		.4byte	.LASF71
 629 043b 06       		.byte	0x6
 630 043c AB01     		.2byte	0x1ab
 631 043e 88060000 		.4byte	0x688
 632 0442 98       		.byte	0x98
 633 0443 00       		.byte	0
 634 0444 04       		.uleb128 0x4
 635 0445 35050000 		.4byte	.LASF72
 636 0449 07       		.byte	0x7
 637 044a 6D       		.byte	0x6d
 638 044b AD000000 		.4byte	0xad
 639 044f 04       		.uleb128 0x4
 640 0450 86010000 		.4byte	.LASF73
 641 0454 07       		.byte	0x7
 642 0455 79       		.byte	0x79
 643 0456 AD000000 		.4byte	0xad
 644 045a 03       		.uleb128 0x3
 645 045b 04       		.byte	0x4
 646 045c 07       		.byte	0x7
 647 045d 93030000 		.4byte	.LASF74
 648 0461 04       		.uleb128 0x4
 649 0462 5D010000 		.4byte	.LASF75
 650 0466 08       		.byte	0x8
 651 0467 65       		.byte	0x65
 652 0468 0F030000 		.4byte	0x30f
 653 046c 04       		.uleb128 0x4
 654 046d 71030000 		.4byte	.LASF76
 655 0471 08       		.byte	0x8
 656 0472 6D       		.byte	0x6d
 657 0473 B8000000 		.4byte	0xb8
 658 0477 05       		.uleb128 0x5
 659 0478 C6030000 		.4byte	.LASF77
 660 047c 04       		.byte	0x4
 661 047d 08       		.byte	0x8
 662 047e 89       		.byte	0x89
 663 047f 8F040000 		.4byte	0x48f
 664 0483 07       		.uleb128 0x7
 665 0484 737000   		.ascii	"sp\000"
 666 0487 08       		.byte	0x8
 667 0488 8A       		.byte	0x8a
 668 0489 DB050000 		.4byte	0x5db
 669 048d 00       		.byte	0
 670 048e 00       		.byte	0
 671 048f 0B       		.uleb128 0xb
 672 0490 4C000000 		.4byte	.LASF78
 673 0494 64       		.byte	0x64
 674 0495 09       		.byte	0x9
 675 0496 5901     		.2byte	0x159
 676 0498 DB050000 		.4byte	0x5db
 677 049c 08       		.uleb128 0x8
 678 049d 73313600 		.ascii	"s16\000"
 679 04a1 09       		.byte	0x9
 680 04a2 5B01     		.2byte	0x15b
 681 04a4 61040000 		.4byte	0x461
 682 04a8 00       		.byte	0
 683 04a9 08       		.uleb128 0x8
 684 04aa 73313700 		.ascii	"s17\000"
ARM GAS  /tmp/ccn5KXlU.s 			page 13


 685 04ae 09       		.byte	0x9
 686 04af 5C01     		.2byte	0x15c
 687 04b1 61040000 		.4byte	0x461
 688 04b5 04       		.byte	0x4
 689 04b6 08       		.uleb128 0x8
 690 04b7 73313800 		.ascii	"s18\000"
 691 04bb 09       		.byte	0x9
 692 04bc 5D01     		.2byte	0x15d
 693 04be 61040000 		.4byte	0x461
 694 04c2 08       		.byte	0x8
 695 04c3 08       		.uleb128 0x8
 696 04c4 73313900 		.ascii	"s19\000"
 697 04c8 09       		.byte	0x9
 698 04c9 5E01     		.2byte	0x15e
 699 04cb 61040000 		.4byte	0x461
 700 04cf 0C       		.byte	0xc
 701 04d0 08       		.uleb128 0x8
 702 04d1 73323000 		.ascii	"s20\000"
 703 04d5 09       		.byte	0x9
 704 04d6 5F01     		.2byte	0x15f
 705 04d8 61040000 		.4byte	0x461
 706 04dc 10       		.byte	0x10
 707 04dd 08       		.uleb128 0x8
 708 04de 73323100 		.ascii	"s21\000"
 709 04e2 09       		.byte	0x9
 710 04e3 6001     		.2byte	0x160
 711 04e5 61040000 		.4byte	0x461
 712 04e9 14       		.byte	0x14
 713 04ea 08       		.uleb128 0x8
 714 04eb 73323200 		.ascii	"s22\000"
 715 04ef 09       		.byte	0x9
 716 04f0 6101     		.2byte	0x161
 717 04f2 61040000 		.4byte	0x461
 718 04f6 18       		.byte	0x18
 719 04f7 08       		.uleb128 0x8
 720 04f8 73323300 		.ascii	"s23\000"
 721 04fc 09       		.byte	0x9
 722 04fd 6201     		.2byte	0x162
 723 04ff 61040000 		.4byte	0x461
 724 0503 1C       		.byte	0x1c
 725 0504 08       		.uleb128 0x8
 726 0505 73323400 		.ascii	"s24\000"
 727 0509 09       		.byte	0x9
 728 050a 6301     		.2byte	0x163
 729 050c 61040000 		.4byte	0x461
 730 0510 20       		.byte	0x20
 731 0511 08       		.uleb128 0x8
 732 0512 73323500 		.ascii	"s25\000"
 733 0516 09       		.byte	0x9
 734 0517 6401     		.2byte	0x164
 735 0519 61040000 		.4byte	0x461
 736 051d 24       		.byte	0x24
 737 051e 08       		.uleb128 0x8
 738 051f 73323600 		.ascii	"s26\000"
 739 0523 09       		.byte	0x9
 740 0524 6501     		.2byte	0x165
 741 0526 61040000 		.4byte	0x461
ARM GAS  /tmp/ccn5KXlU.s 			page 14


 742 052a 28       		.byte	0x28
 743 052b 08       		.uleb128 0x8
 744 052c 73323700 		.ascii	"s27\000"
 745 0530 09       		.byte	0x9
 746 0531 6601     		.2byte	0x166
 747 0533 61040000 		.4byte	0x461
 748 0537 2C       		.byte	0x2c
 749 0538 08       		.uleb128 0x8
 750 0539 73323800 		.ascii	"s28\000"
 751 053d 09       		.byte	0x9
 752 053e 6701     		.2byte	0x167
 753 0540 61040000 		.4byte	0x461
 754 0544 30       		.byte	0x30
 755 0545 08       		.uleb128 0x8
 756 0546 73323900 		.ascii	"s29\000"
 757 054a 09       		.byte	0x9
 758 054b 6801     		.2byte	0x168
 759 054d 61040000 		.4byte	0x461
 760 0551 34       		.byte	0x34
 761 0552 08       		.uleb128 0x8
 762 0553 73333000 		.ascii	"s30\000"
 763 0557 09       		.byte	0x9
 764 0558 6901     		.2byte	0x169
 765 055a 61040000 		.4byte	0x461
 766 055e 38       		.byte	0x38
 767 055f 08       		.uleb128 0x8
 768 0560 73333100 		.ascii	"s31\000"
 769 0564 09       		.byte	0x9
 770 0565 6A01     		.2byte	0x16a
 771 0567 61040000 		.4byte	0x461
 772 056b 3C       		.byte	0x3c
 773 056c 08       		.uleb128 0x8
 774 056d 723400   		.ascii	"r4\000"
 775 0570 09       		.byte	0x9
 776 0571 6C01     		.2byte	0x16c
 777 0573 61040000 		.4byte	0x461
 778 0577 40       		.byte	0x40
 779 0578 08       		.uleb128 0x8
 780 0579 723500   		.ascii	"r5\000"
 781 057c 09       		.byte	0x9
 782 057d 6D01     		.2byte	0x16d
 783 057f 61040000 		.4byte	0x461
 784 0583 44       		.byte	0x44
 785 0584 08       		.uleb128 0x8
 786 0585 723600   		.ascii	"r6\000"
 787 0588 09       		.byte	0x9
 788 0589 6E01     		.2byte	0x16e
 789 058b 61040000 		.4byte	0x461
 790 058f 48       		.byte	0x48
 791 0590 08       		.uleb128 0x8
 792 0591 723700   		.ascii	"r7\000"
 793 0594 09       		.byte	0x9
 794 0595 6F01     		.2byte	0x16f
 795 0597 61040000 		.4byte	0x461
 796 059b 4C       		.byte	0x4c
 797 059c 08       		.uleb128 0x8
 798 059d 723800   		.ascii	"r8\000"
ARM GAS  /tmp/ccn5KXlU.s 			page 15


 799 05a0 09       		.byte	0x9
 800 05a1 7001     		.2byte	0x170
 801 05a3 61040000 		.4byte	0x461
 802 05a7 50       		.byte	0x50
 803 05a8 08       		.uleb128 0x8
 804 05a9 723900   		.ascii	"r9\000"
 805 05ac 09       		.byte	0x9
 806 05ad 7101     		.2byte	0x171
 807 05af 61040000 		.4byte	0x461
 808 05b3 54       		.byte	0x54
 809 05b4 08       		.uleb128 0x8
 810 05b5 72313000 		.ascii	"r10\000"
 811 05b9 09       		.byte	0x9
 812 05ba 7201     		.2byte	0x172
 813 05bc 61040000 		.4byte	0x461
 814 05c0 58       		.byte	0x58
 815 05c1 08       		.uleb128 0x8
 816 05c2 72313100 		.ascii	"r11\000"
 817 05c6 09       		.byte	0x9
 818 05c7 7301     		.2byte	0x173
 819 05c9 61040000 		.4byte	0x461
 820 05cd 5C       		.byte	0x5c
 821 05ce 08       		.uleb128 0x8
 822 05cf 6C7200   		.ascii	"lr\000"
 823 05d2 09       		.byte	0x9
 824 05d3 7401     		.2byte	0x174
 825 05d5 61040000 		.4byte	0x461
 826 05d9 60       		.byte	0x60
 827 05da 00       		.byte	0
 828 05db 0A       		.uleb128 0xa
 829 05dc 04       		.byte	0x4
 830 05dd 8F040000 		.4byte	0x48f
 831 05e1 0F       		.uleb128 0xf
 832 05e2 04       		.byte	0x4
 833 05e3 0A       		.byte	0xa
 834 05e4 38       		.byte	0x38
 835 05e5 F6050000 		.4byte	0x5f6
 836 05e9 06       		.uleb128 0x6
 837 05ea 52050000 		.4byte	.LASF79
 838 05ee 0A       		.byte	0xa
 839 05ef 3C       		.byte	0x3c
 840 05f0 C3000000 		.4byte	0xc3
 841 05f4 00       		.byte	0
 842 05f5 00       		.byte	0
 843 05f6 04       		.uleb128 0x4
 844 05f7 D3030000 		.4byte	.LASF80
 845 05fb 0A       		.byte	0xa
 846 05fc 3D       		.byte	0x3d
 847 05fd E1050000 		.4byte	0x5e1
 848 0601 0F       		.uleb128 0xf
 849 0602 18       		.byte	0x18
 850 0603 0A       		.byte	0xa
 851 0604 48       		.byte	0x48
 852 0605 44060000 		.4byte	0x644
 853 0609 06       		.uleb128 0x6
 854 060a 30050000 		.4byte	.LASF81
 855 060e 0A       		.byte	0xa
ARM GAS  /tmp/ccn5KXlU.s 			page 16


 856 060f 49       		.byte	0x49
 857 0610 C3000000 		.4byte	0xc3
 858 0614 00       		.byte	0
 859 0615 06       		.uleb128 0x6
 860 0616 80000000 		.4byte	.LASF82
 861 061a 0A       		.byte	0xa
 862 061b 4A       		.byte	0x4a
 863 061c C3000000 		.4byte	0xc3
 864 0620 04       		.byte	0x4
 865 0621 06       		.uleb128 0x6
 866 0622 EE020000 		.4byte	.LASF83
 867 0626 0A       		.byte	0xa
 868 0627 4B       		.byte	0x4b
 869 0628 C3000000 		.4byte	0xc3
 870 062c 08       		.byte	0x8
 871 062d 07       		.uleb128 0x7
 872 062e 6E00     		.ascii	"n\000"
 873 0630 0A       		.byte	0xa
 874 0631 4C       		.byte	0x4c
 875 0632 26010000 		.4byte	0x126
 876 0636 0C       		.byte	0xc
 877 0637 06       		.uleb128 0x6
 878 0638 FC030000 		.4byte	.LASF84
 879 063c 0A       		.byte	0xa
 880 063d 4D       		.byte	0x4d
 881 063e CE000000 		.4byte	0xce
 882 0642 10       		.byte	0x10
 883 0643 00       		.byte	0
 884 0644 04       		.uleb128 0x4
 885 0645 86000000 		.4byte	.LASF85
 886 0649 0A       		.byte	0xa
 887 064a 4E       		.byte	0x4e
 888 064b 01060000 		.4byte	0x601
 889 064f 0F       		.uleb128 0xf
 890 0650 38       		.byte	0x38
 891 0651 0B       		.byte	0xb
 892 0652 38       		.byte	0x38
 893 0653 88060000 		.4byte	0x688
 894 0657 06       		.uleb128 0x6
 895 0658 A5020000 		.4byte	.LASF86
 896 065c 0B       		.byte	0xb
 897 065d 39       		.byte	0x39
 898 065e 26010000 		.4byte	0x126
 899 0662 00       		.byte	0
 900 0663 06       		.uleb128 0x6
 901 0664 35040000 		.4byte	.LASF87
 902 0668 0B       		.byte	0xb
 903 0669 3A       		.byte	0x3a
 904 066a 26010000 		.4byte	0x126
 905 066e 04       		.byte	0x4
 906 066f 06       		.uleb128 0x6
 907 0670 E7050000 		.4byte	.LASF88
 908 0674 0B       		.byte	0xb
 909 0675 3B       		.byte	0x3b
 910 0676 44060000 		.4byte	0x644
 911 067a 08       		.byte	0x8
 912 067b 06       		.uleb128 0x6
ARM GAS  /tmp/ccn5KXlU.s 			page 17


 913 067c 3A030000 		.4byte	.LASF89
 914 0680 0B       		.byte	0xb
 915 0681 3D       		.byte	0x3d
 916 0682 44060000 		.4byte	0x644
 917 0686 20       		.byte	0x20
 918 0687 00       		.byte	0
 919 0688 04       		.uleb128 0x4
 920 0689 CA020000 		.4byte	.LASF90
 921 068d 0B       		.byte	0xb
 922 068e 3F       		.byte	0x3f
 923 068f 4F060000 		.4byte	0x64f
 924 0693 10       		.uleb128 0x10
 925 0694 04       		.byte	0x4
 926 0695 06       		.byte	0x6
 927 0696 C6       		.byte	0xc6
 928 0697 F5060000 		.4byte	0x6f5
 929 069b 11       		.uleb128 0x11
 930 069c 20000000 		.4byte	.LASF91
 931 06a0 06       		.byte	0x6
 932 06a1 CD       		.byte	0xcd
 933 06a2 05010000 		.4byte	0x105
 934 06a6 11       		.uleb128 0x11
 935 06a7 B0000000 		.4byte	.LASF92
 936 06ab 06       		.byte	0x6
 937 06ac D4       		.byte	0xd4
 938 06ad 05010000 		.4byte	0x105
 939 06b1 11       		.uleb128 0x11
 940 06b2 B2050000 		.4byte	.LASF93
 941 06b6 06       		.byte	0x6
 942 06b7 DB       		.byte	0xdb
 943 06b8 0F030000 		.4byte	0x30f
 944 06bc 11       		.uleb128 0x11
 945 06bd 14000000 		.4byte	.LASF94
 946 06c1 06       		.byte	0x6
 947 06c2 E2       		.byte	0xe2
 948 06c3 F5060000 		.4byte	0x6f5
 949 06c7 11       		.uleb128 0x11
 950 06c8 C4000000 		.4byte	.LASF95
 951 06cc 06       		.byte	0x6
 952 06cd E7       		.byte	0xe7
 953 06ce 05010000 		.4byte	0x105
 954 06d2 11       		.uleb128 0x11
 955 06d3 96020000 		.4byte	.LASF96
 956 06d7 06       		.byte	0x6
 957 06d8 F0       		.byte	0xf0
 958 06d9 20070000 		.4byte	0x720
 959 06dd 11       		.uleb128 0x11
 960 06de DE040000 		.4byte	.LASF97
 961 06e2 06       		.byte	0x6
 962 06e3 F9       		.byte	0xf9
 963 06e4 57070000 		.4byte	0x757
 964 06e8 12       		.uleb128 0x12
 965 06e9 A6040000 		.4byte	.LASF98
 966 06ed 06       		.byte	0x6
 967 06ee 0101     		.2byte	0x101
 968 06f0 10010000 		.4byte	0x110
 969 06f4 00       		.byte	0
ARM GAS  /tmp/ccn5KXlU.s 			page 18


 970 06f5 0A       		.uleb128 0xa
 971 06f6 04       		.byte	0x4
 972 06f7 27020000 		.4byte	0x227
 973 06fb 05       		.uleb128 0x5
 974 06fc C8040000 		.4byte	.LASF99
 975 0700 0C       		.byte	0xc
 976 0701 0C       		.byte	0xc
 977 0702 34       		.byte	0x34
 978 0703 20070000 		.4byte	0x720
 979 0707 06       		.uleb128 0x6
 980 0708 AB020000 		.4byte	.LASF28
 981 070c 0C       		.byte	0xc
 982 070d 35       		.byte	0x35
 983 070e 5C020000 		.4byte	0x25c
 984 0712 00       		.byte	0
 985 0713 07       		.uleb128 0x7
 986 0714 636E7400 		.ascii	"cnt\000"
 987 0718 0C       		.byte	0xc
 988 0719 37       		.byte	0x37
 989 071a 1B010000 		.4byte	0x11b
 990 071e 08       		.byte	0x8
 991 071f 00       		.byte	0
 992 0720 0A       		.uleb128 0xa
 993 0721 04       		.byte	0x4
 994 0722 FB060000 		.4byte	0x6fb
 995 0726 05       		.uleb128 0x5
 996 0727 59050000 		.4byte	.LASF100
 997 072b 10       		.byte	0x10
 998 072c 0D       		.byte	0xd
 999 072d 39       		.byte	0x39
 1000 072e 57070000 		.4byte	0x757
 1001 0732 06       		.uleb128 0x6
 1002 0733 AB020000 		.4byte	.LASF28
 1003 0737 0D       		.byte	0xd
 1004 0738 3A       		.byte	0x3a
 1005 0739 5C020000 		.4byte	0x25c
 1006 073d 00       		.byte	0
 1007 073e 06       		.uleb128 0x6
 1008 073f F5040000 		.4byte	.LASF101
 1009 0743 0D       		.byte	0xd
 1010 0744 3C       		.byte	0x3c
 1011 0745 32020000 		.4byte	0x232
 1012 0749 08       		.byte	0x8
 1013 074a 06       		.uleb128 0x6
 1014 074b F4000000 		.4byte	.LASF48
 1015 074f 0D       		.byte	0xd
 1016 0750 3E       		.byte	0x3e
 1017 0751 8B070000 		.4byte	0x78b
 1018 0755 0C       		.byte	0xc
 1019 0756 00       		.byte	0
 1020 0757 0A       		.uleb128 0xa
 1021 0758 04       		.byte	0x4
 1022 0759 26070000 		.4byte	0x726
 1023 075d 0A       		.uleb128 0xa
 1024 075e 04       		.byte	0x4
 1025 075f 63070000 		.4byte	0x763
 1026 0763 13       		.uleb128 0x13
ARM GAS  /tmp/ccn5KXlU.s 			page 19


 1027 0764 68070000 		.4byte	0x768
 1028 0768 03       		.uleb128 0x3
 1029 0769 01       		.byte	0x1
 1030 076a 08       		.byte	0x8
 1031 076b 14050000 		.4byte	.LASF102
 1032 076f 0A       		.uleb128 0xa
 1033 0770 04       		.byte	0x4
 1034 0771 6C040000 		.4byte	0x46c
 1035 0775 0A       		.uleb128 0xa
 1036 0776 04       		.byte	0x4
 1037 0777 11030000 		.4byte	0x311
 1038 077b 14       		.uleb128 0x14
 1039 077c 5D070000 		.4byte	0x75d
 1040 0780 04       		.uleb128 0x4
 1041 0781 7E010000 		.4byte	.LASF103
 1042 0785 0D       		.byte	0xd
 1043 0786 34       		.byte	0x34
 1044 0787 26070000 		.4byte	0x726
 1045 078b 0A       		.uleb128 0xa
 1046 078c 04       		.byte	0x4
 1047 078d 80070000 		.4byte	0x780
 1048 0791 03       		.uleb128 0x3
 1049 0792 01       		.byte	0x1
 1050 0793 02       		.byte	0x2
 1051 0794 3E040000 		.4byte	.LASF104
 1052 0798 15       		.uleb128 0x15
 1053 0799 24040000 		.4byte	.LASF122
 1054 079d 1B       		.byte	0x1b
 1055 079e D301     		.2byte	0x1d3
 1056 07a0 03       		.byte	0x3
 1057 07a1 16       		.uleb128 0x16
 1058 07a2 9D020000 		.4byte	.LASF123
 1059 07a6 01       		.byte	0x1
 1060 07a7 38       		.byte	0x38
 1061 07a8 00000000 		.4byte	.LFB323
 1062 07ac 3A000000 		.4byte	.LFE323-.LFB323
 1063 07b0 01       		.uleb128 0x1
 1064 07b1 9C       		.byte	0x9c
 1065 07b2 2C080000 		.4byte	0x82c
 1066 07b6 17       		.uleb128 0x17
 1067 07b7 06000000 		.4byte	.LVL0
 1068 07bb 48080000 		.4byte	0x848
 1069 07bf 17       		.uleb128 0x17
 1070 07c0 0A000000 		.4byte	.LVL1
 1071 07c4 50080000 		.4byte	0x850
 1072 07c8 17       		.uleb128 0x17
 1073 07c9 0E000000 		.4byte	.LVL2
 1074 07cd 58080000 		.4byte	0x858
 1075 07d1 17       		.uleb128 0x17
 1076 07d2 12000000 		.4byte	.LVL3
 1077 07d6 60080000 		.4byte	0x860
 1078 07da 17       		.uleb128 0x17
 1079 07db 16000000 		.4byte	.LVL4
 1080 07df 67080000 		.4byte	0x867
 1081 07e3 17       		.uleb128 0x17
 1082 07e4 1A000000 		.4byte	.LVL5
 1083 07e8 6E080000 		.4byte	0x86e
ARM GAS  /tmp/ccn5KXlU.s 			page 20


 1084 07ec 17       		.uleb128 0x17
 1085 07ed 1E000000 		.4byte	.LVL6
 1086 07f1 76080000 		.4byte	0x876
 1087 07f5 17       		.uleb128 0x17
 1088 07f6 22000000 		.4byte	.LVL7
 1089 07fa 7E080000 		.4byte	0x87e
 1090 07fe 17       		.uleb128 0x17
 1091 07ff 26000000 		.4byte	.LVL8
 1092 0803 86080000 		.4byte	0x886
 1093 0807 17       		.uleb128 0x17
 1094 0808 2A000000 		.4byte	.LVL9
 1095 080c 8E080000 		.4byte	0x88e
 1096 0810 17       		.uleb128 0x17
 1097 0811 2E000000 		.4byte	.LVL10
 1098 0815 95080000 		.4byte	0x895
 1099 0819 17       		.uleb128 0x17
 1100 081a 32000000 		.4byte	.LVL11
 1101 081e 9C080000 		.4byte	0x89c
 1102 0822 18       		.uleb128 0x18
 1103 0823 3A000000 		.4byte	.LVL12
 1104 0827 A3080000 		.4byte	0x8a3
 1105 082b 00       		.byte	0
 1106 082c 19       		.uleb128 0x19
 1107 082d E2000000 		.4byte	.LASF105
 1108 0831 1C       		.byte	0x1c
 1109 0832 0408     		.2byte	0x804
 1110 0834 38080000 		.4byte	0x838
 1111 0838 14       		.uleb128 0x14
 1112 0839 A2000000 		.4byte	0xa2
 1113 083d 1A       		.uleb128 0x1a
 1114 083e 636800   		.ascii	"ch\000"
 1115 0841 06       		.byte	0x6
 1116 0842 C701     		.2byte	0x1c7
 1117 0844 DE030000 		.4byte	0x3de
 1118 0848 1B       		.uleb128 0x1b
 1119 0849 62050000 		.4byte	.LASF106
 1120 084d 0E       		.byte	0xe
 1121 084e A007     		.2byte	0x7a0
 1122 0850 1B       		.uleb128 0x1b
 1123 0851 90050000 		.4byte	.LASF107
 1124 0855 0F       		.byte	0xf
 1125 0856 F201     		.2byte	0x1f2
 1126 0858 1B       		.uleb128 0x1b
 1127 0859 69030000 		.4byte	.LASF108
 1128 085d 10       		.byte	0x10
 1129 085e 7E01     		.2byte	0x17e
 1130 0860 1C       		.uleb128 0x1c
 1131 0861 D0050000 		.4byte	.LASF109
 1132 0865 11       		.byte	0x11
 1133 0866 8B       		.byte	0x8b
 1134 0867 1C       		.uleb128 0x1c
 1135 0868 78000000 		.4byte	.LASF110
 1136 086c 12       		.byte	0x12
 1137 086d DF       		.byte	0xdf
 1138 086e 1B       		.uleb128 0x1b
 1139 086f 44010000 		.4byte	.LASF111
 1140 0873 13       		.byte	0x13
ARM GAS  /tmp/ccn5KXlU.s 			page 21


 1141 0874 1F01     		.2byte	0x11f
 1142 0876 1B       		.uleb128 0x1b
 1143 0877 D8050000 		.4byte	.LASF112
 1144 087b 14       		.byte	0x14
 1145 087c 2201     		.2byte	0x122
 1146 087e 1B       		.uleb128 0x1b
 1147 087f 82030000 		.4byte	.LASF113
 1148 0883 15       		.byte	0x15
 1149 0884 F301     		.2byte	0x1f3
 1150 0886 1B       		.uleb128 0x1b
 1151 0887 1F050000 		.4byte	.LASF114
 1152 088b 16       		.byte	0x16
 1153 088c 5D02     		.2byte	0x25d
 1154 088e 1C       		.uleb128 0x1c
 1155 088f C8050000 		.4byte	.LASF115
 1156 0893 17       		.byte	0x17
 1157 0894 AA       		.byte	0xaa
 1158 0895 1C       		.uleb128 0x1c
 1159 0896 5A040000 		.4byte	.LASF116
 1160 089a 18       		.byte	0x18
 1161 089b B0       		.byte	0xb0
 1162 089c 1C       		.uleb128 0x1c
 1163 089d 9C040000 		.4byte	.LASF117
 1164 08a1 19       		.byte	0x19
 1165 08a2 26       		.byte	0x26
 1166 08a3 1C       		.uleb128 0x1c
 1167 08a4 0D000000 		.4byte	.LASF118
 1168 08a8 1A       		.byte	0x1a
 1169 08a9 56       		.byte	0x56
 1170 08aa 00       		.byte	0
 1171              		.section	.debug_abbrev,"",%progbits
 1172              	.Ldebug_abbrev0:
 1173 0000 01       		.uleb128 0x1
 1174 0001 11       		.uleb128 0x11
 1175 0002 01       		.byte	0x1
 1176 0003 25       		.uleb128 0x25
 1177 0004 0E       		.uleb128 0xe
 1178 0005 13       		.uleb128 0x13
 1179 0006 0B       		.uleb128 0xb
 1180 0007 03       		.uleb128 0x3
 1181 0008 0E       		.uleb128 0xe
 1182 0009 1B       		.uleb128 0x1b
 1183 000a 0E       		.uleb128 0xe
 1184 000b 55       		.uleb128 0x55
 1185 000c 17       		.uleb128 0x17
 1186 000d 11       		.uleb128 0x11
 1187 000e 01       		.uleb128 0x1
 1188 000f 10       		.uleb128 0x10
 1189 0010 17       		.uleb128 0x17
 1190 0011 00       		.byte	0
 1191 0012 00       		.byte	0
 1192 0013 02       		.uleb128 0x2
 1193 0014 24       		.uleb128 0x24
 1194 0015 00       		.byte	0
 1195 0016 0B       		.uleb128 0xb
 1196 0017 0B       		.uleb128 0xb
 1197 0018 3E       		.uleb128 0x3e
ARM GAS  /tmp/ccn5KXlU.s 			page 22


 1198 0019 0B       		.uleb128 0xb
 1199 001a 03       		.uleb128 0x3
 1200 001b 08       		.uleb128 0x8
 1201 001c 00       		.byte	0
 1202 001d 00       		.byte	0
 1203 001e 03       		.uleb128 0x3
 1204 001f 24       		.uleb128 0x24
 1205 0020 00       		.byte	0
 1206 0021 0B       		.uleb128 0xb
 1207 0022 0B       		.uleb128 0xb
 1208 0023 3E       		.uleb128 0x3e
 1209 0024 0B       		.uleb128 0xb
 1210 0025 03       		.uleb128 0x3
 1211 0026 0E       		.uleb128 0xe
 1212 0027 00       		.byte	0
 1213 0028 00       		.byte	0
 1214 0029 04       		.uleb128 0x4
 1215 002a 16       		.uleb128 0x16
 1216 002b 00       		.byte	0
 1217 002c 03       		.uleb128 0x3
 1218 002d 0E       		.uleb128 0xe
 1219 002e 3A       		.uleb128 0x3a
 1220 002f 0B       		.uleb128 0xb
 1221 0030 3B       		.uleb128 0x3b
 1222 0031 0B       		.uleb128 0xb
 1223 0032 49       		.uleb128 0x49
 1224 0033 13       		.uleb128 0x13
 1225 0034 00       		.byte	0
 1226 0035 00       		.byte	0
 1227 0036 05       		.uleb128 0x5
 1228 0037 13       		.uleb128 0x13
 1229 0038 01       		.byte	0x1
 1230 0039 03       		.uleb128 0x3
 1231 003a 0E       		.uleb128 0xe
 1232 003b 0B       		.uleb128 0xb
 1233 003c 0B       		.uleb128 0xb
 1234 003d 3A       		.uleb128 0x3a
 1235 003e 0B       		.uleb128 0xb
 1236 003f 3B       		.uleb128 0x3b
 1237 0040 0B       		.uleb128 0xb
 1238 0041 01       		.uleb128 0x1
 1239 0042 13       		.uleb128 0x13
 1240 0043 00       		.byte	0
 1241 0044 00       		.byte	0
 1242 0045 06       		.uleb128 0x6
 1243 0046 0D       		.uleb128 0xd
 1244 0047 00       		.byte	0
 1245 0048 03       		.uleb128 0x3
 1246 0049 0E       		.uleb128 0xe
 1247 004a 3A       		.uleb128 0x3a
 1248 004b 0B       		.uleb128 0xb
 1249 004c 3B       		.uleb128 0x3b
 1250 004d 0B       		.uleb128 0xb
 1251 004e 49       		.uleb128 0x49
 1252 004f 13       		.uleb128 0x13
 1253 0050 38       		.uleb128 0x38
 1254 0051 0B       		.uleb128 0xb
ARM GAS  /tmp/ccn5KXlU.s 			page 23


 1255 0052 00       		.byte	0
 1256 0053 00       		.byte	0
 1257 0054 07       		.uleb128 0x7
 1258 0055 0D       		.uleb128 0xd
 1259 0056 00       		.byte	0
 1260 0057 03       		.uleb128 0x3
 1261 0058 08       		.uleb128 0x8
 1262 0059 3A       		.uleb128 0x3a
 1263 005a 0B       		.uleb128 0xb
 1264 005b 3B       		.uleb128 0x3b
 1265 005c 0B       		.uleb128 0xb
 1266 005d 49       		.uleb128 0x49
 1267 005e 13       		.uleb128 0x13
 1268 005f 38       		.uleb128 0x38
 1269 0060 0B       		.uleb128 0xb
 1270 0061 00       		.byte	0
 1271 0062 00       		.byte	0
 1272 0063 08       		.uleb128 0x8
 1273 0064 0D       		.uleb128 0xd
 1274 0065 00       		.byte	0
 1275 0066 03       		.uleb128 0x3
 1276 0067 08       		.uleb128 0x8
 1277 0068 3A       		.uleb128 0x3a
 1278 0069 0B       		.uleb128 0xb
 1279 006a 3B       		.uleb128 0x3b
 1280 006b 05       		.uleb128 0x5
 1281 006c 49       		.uleb128 0x49
 1282 006d 13       		.uleb128 0x13
 1283 006e 38       		.uleb128 0x38
 1284 006f 0B       		.uleb128 0xb
 1285 0070 00       		.byte	0
 1286 0071 00       		.byte	0
 1287 0072 09       		.uleb128 0x9
 1288 0073 0D       		.uleb128 0xd
 1289 0074 00       		.byte	0
 1290 0075 03       		.uleb128 0x3
 1291 0076 0E       		.uleb128 0xe
 1292 0077 3A       		.uleb128 0x3a
 1293 0078 0B       		.uleb128 0xb
 1294 0079 3B       		.uleb128 0x3b
 1295 007a 05       		.uleb128 0x5
 1296 007b 49       		.uleb128 0x49
 1297 007c 13       		.uleb128 0x13
 1298 007d 38       		.uleb128 0x38
 1299 007e 0B       		.uleb128 0xb
 1300 007f 00       		.byte	0
 1301 0080 00       		.byte	0
 1302 0081 0A       		.uleb128 0xa
 1303 0082 0F       		.uleb128 0xf
 1304 0083 00       		.byte	0
 1305 0084 0B       		.uleb128 0xb
 1306 0085 0B       		.uleb128 0xb
 1307 0086 49       		.uleb128 0x49
 1308 0087 13       		.uleb128 0x13
 1309 0088 00       		.byte	0
 1310 0089 00       		.byte	0
 1311 008a 0B       		.uleb128 0xb
ARM GAS  /tmp/ccn5KXlU.s 			page 24


 1312 008b 13       		.uleb128 0x13
 1313 008c 01       		.byte	0x1
 1314 008d 03       		.uleb128 0x3
 1315 008e 0E       		.uleb128 0xe
 1316 008f 0B       		.uleb128 0xb
 1317 0090 0B       		.uleb128 0xb
 1318 0091 3A       		.uleb128 0x3a
 1319 0092 0B       		.uleb128 0xb
 1320 0093 3B       		.uleb128 0x3b
 1321 0094 05       		.uleb128 0x5
 1322 0095 01       		.uleb128 0x1
 1323 0096 13       		.uleb128 0x13
 1324 0097 00       		.byte	0
 1325 0098 00       		.byte	0
 1326 0099 0C       		.uleb128 0xc
 1327 009a 15       		.uleb128 0x15
 1328 009b 01       		.byte	0x1
 1329 009c 27       		.uleb128 0x27
 1330 009d 19       		.uleb128 0x19
 1331 009e 01       		.uleb128 0x1
 1332 009f 13       		.uleb128 0x13
 1333 00a0 00       		.byte	0
 1334 00a1 00       		.byte	0
 1335 00a2 0D       		.uleb128 0xd
 1336 00a3 05       		.uleb128 0x5
 1337 00a4 00       		.byte	0
 1338 00a5 49       		.uleb128 0x49
 1339 00a6 13       		.uleb128 0x13
 1340 00a7 00       		.byte	0
 1341 00a8 00       		.byte	0
 1342 00a9 0E       		.uleb128 0xe
 1343 00aa 0F       		.uleb128 0xf
 1344 00ab 00       		.byte	0
 1345 00ac 0B       		.uleb128 0xb
 1346 00ad 0B       		.uleb128 0xb
 1347 00ae 00       		.byte	0
 1348 00af 00       		.byte	0
 1349 00b0 0F       		.uleb128 0xf
 1350 00b1 13       		.uleb128 0x13
 1351 00b2 01       		.byte	0x1
 1352 00b3 0B       		.uleb128 0xb
 1353 00b4 0B       		.uleb128 0xb
 1354 00b5 3A       		.uleb128 0x3a
 1355 00b6 0B       		.uleb128 0xb
 1356 00b7 3B       		.uleb128 0x3b
 1357 00b8 0B       		.uleb128 0xb
 1358 00b9 01       		.uleb128 0x1
 1359 00ba 13       		.uleb128 0x13
 1360 00bb 00       		.byte	0
 1361 00bc 00       		.byte	0
 1362 00bd 10       		.uleb128 0x10
 1363 00be 17       		.uleb128 0x17
 1364 00bf 01       		.byte	0x1
 1365 00c0 0B       		.uleb128 0xb
 1366 00c1 0B       		.uleb128 0xb
 1367 00c2 3A       		.uleb128 0x3a
 1368 00c3 0B       		.uleb128 0xb
ARM GAS  /tmp/ccn5KXlU.s 			page 25


 1369 00c4 3B       		.uleb128 0x3b
 1370 00c5 0B       		.uleb128 0xb
 1371 00c6 01       		.uleb128 0x1
 1372 00c7 13       		.uleb128 0x13
 1373 00c8 00       		.byte	0
 1374 00c9 00       		.byte	0
 1375 00ca 11       		.uleb128 0x11
 1376 00cb 0D       		.uleb128 0xd
 1377 00cc 00       		.byte	0
 1378 00cd 03       		.uleb128 0x3
 1379 00ce 0E       		.uleb128 0xe
 1380 00cf 3A       		.uleb128 0x3a
 1381 00d0 0B       		.uleb128 0xb
 1382 00d1 3B       		.uleb128 0x3b
 1383 00d2 0B       		.uleb128 0xb
 1384 00d3 49       		.uleb128 0x49
 1385 00d4 13       		.uleb128 0x13
 1386 00d5 00       		.byte	0
 1387 00d6 00       		.byte	0
 1388 00d7 12       		.uleb128 0x12
 1389 00d8 0D       		.uleb128 0xd
 1390 00d9 00       		.byte	0
 1391 00da 03       		.uleb128 0x3
 1392 00db 0E       		.uleb128 0xe
 1393 00dc 3A       		.uleb128 0x3a
 1394 00dd 0B       		.uleb128 0xb
 1395 00de 3B       		.uleb128 0x3b
 1396 00df 05       		.uleb128 0x5
 1397 00e0 49       		.uleb128 0x49
 1398 00e1 13       		.uleb128 0x13
 1399 00e2 00       		.byte	0
 1400 00e3 00       		.byte	0
 1401 00e4 13       		.uleb128 0x13
 1402 00e5 26       		.uleb128 0x26
 1403 00e6 00       		.byte	0
 1404 00e7 49       		.uleb128 0x49
 1405 00e8 13       		.uleb128 0x13
 1406 00e9 00       		.byte	0
 1407 00ea 00       		.byte	0
 1408 00eb 14       		.uleb128 0x14
 1409 00ec 35       		.uleb128 0x35
 1410 00ed 00       		.byte	0
 1411 00ee 49       		.uleb128 0x49
 1412 00ef 13       		.uleb128 0x13
 1413 00f0 00       		.byte	0
 1414 00f1 00       		.byte	0
 1415 00f2 15       		.uleb128 0x15
 1416 00f3 2E       		.uleb128 0x2e
 1417 00f4 00       		.byte	0
 1418 00f5 03       		.uleb128 0x3
 1419 00f6 0E       		.uleb128 0xe
 1420 00f7 3A       		.uleb128 0x3a
 1421 00f8 0B       		.uleb128 0xb
 1422 00f9 3B       		.uleb128 0x3b
 1423 00fa 05       		.uleb128 0x5
 1424 00fb 27       		.uleb128 0x27
 1425 00fc 19       		.uleb128 0x19
ARM GAS  /tmp/ccn5KXlU.s 			page 26


 1426 00fd 20       		.uleb128 0x20
 1427 00fe 0B       		.uleb128 0xb
 1428 00ff 00       		.byte	0
 1429 0100 00       		.byte	0
 1430 0101 16       		.uleb128 0x16
 1431 0102 2E       		.uleb128 0x2e
 1432 0103 01       		.byte	0x1
 1433 0104 3F       		.uleb128 0x3f
 1434 0105 19       		.uleb128 0x19
 1435 0106 03       		.uleb128 0x3
 1436 0107 0E       		.uleb128 0xe
 1437 0108 3A       		.uleb128 0x3a
 1438 0109 0B       		.uleb128 0xb
 1439 010a 3B       		.uleb128 0x3b
 1440 010b 0B       		.uleb128 0xb
 1441 010c 27       		.uleb128 0x27
 1442 010d 19       		.uleb128 0x19
 1443 010e 11       		.uleb128 0x11
 1444 010f 01       		.uleb128 0x1
 1445 0110 12       		.uleb128 0x12
 1446 0111 06       		.uleb128 0x6
 1447 0112 40       		.uleb128 0x40
 1448 0113 18       		.uleb128 0x18
 1449 0114 9742     		.uleb128 0x2117
 1450 0116 19       		.uleb128 0x19
 1451 0117 01       		.uleb128 0x1
 1452 0118 13       		.uleb128 0x13
 1453 0119 00       		.byte	0
 1454 011a 00       		.byte	0
 1455 011b 17       		.uleb128 0x17
 1456 011c 898201   		.uleb128 0x4109
 1457 011f 00       		.byte	0
 1458 0120 11       		.uleb128 0x11
 1459 0121 01       		.uleb128 0x1
 1460 0122 31       		.uleb128 0x31
 1461 0123 13       		.uleb128 0x13
 1462 0124 00       		.byte	0
 1463 0125 00       		.byte	0
 1464 0126 18       		.uleb128 0x18
 1465 0127 898201   		.uleb128 0x4109
 1466 012a 00       		.byte	0
 1467 012b 11       		.uleb128 0x11
 1468 012c 01       		.uleb128 0x1
 1469 012d 9542     		.uleb128 0x2115
 1470 012f 19       		.uleb128 0x19
 1471 0130 31       		.uleb128 0x31
 1472 0131 13       		.uleb128 0x13
 1473 0132 00       		.byte	0
 1474 0133 00       		.byte	0
 1475 0134 19       		.uleb128 0x19
 1476 0135 34       		.uleb128 0x34
 1477 0136 00       		.byte	0
 1478 0137 03       		.uleb128 0x3
 1479 0138 0E       		.uleb128 0xe
 1480 0139 3A       		.uleb128 0x3a
 1481 013a 0B       		.uleb128 0xb
 1482 013b 3B       		.uleb128 0x3b
ARM GAS  /tmp/ccn5KXlU.s 			page 27


 1483 013c 05       		.uleb128 0x5
 1484 013d 49       		.uleb128 0x49
 1485 013e 13       		.uleb128 0x13
 1486 013f 3F       		.uleb128 0x3f
 1487 0140 19       		.uleb128 0x19
 1488 0141 3C       		.uleb128 0x3c
 1489 0142 19       		.uleb128 0x19
 1490 0143 00       		.byte	0
 1491 0144 00       		.byte	0
 1492 0145 1A       		.uleb128 0x1a
 1493 0146 34       		.uleb128 0x34
 1494 0147 00       		.byte	0
 1495 0148 03       		.uleb128 0x3
 1496 0149 08       		.uleb128 0x8
 1497 014a 3A       		.uleb128 0x3a
 1498 014b 0B       		.uleb128 0xb
 1499 014c 3B       		.uleb128 0x3b
 1500 014d 05       		.uleb128 0x5
 1501 014e 49       		.uleb128 0x49
 1502 014f 13       		.uleb128 0x13
 1503 0150 3F       		.uleb128 0x3f
 1504 0151 19       		.uleb128 0x19
 1505 0152 3C       		.uleb128 0x3c
 1506 0153 19       		.uleb128 0x19
 1507 0154 00       		.byte	0
 1508 0155 00       		.byte	0
 1509 0156 1B       		.uleb128 0x1b
 1510 0157 2E       		.uleb128 0x2e
 1511 0158 00       		.byte	0
 1512 0159 3F       		.uleb128 0x3f
 1513 015a 19       		.uleb128 0x19
 1514 015b 03       		.uleb128 0x3
 1515 015c 0E       		.uleb128 0xe
 1516 015d 3A       		.uleb128 0x3a
 1517 015e 0B       		.uleb128 0xb
 1518 015f 3B       		.uleb128 0x3b
 1519 0160 05       		.uleb128 0x5
 1520 0161 27       		.uleb128 0x27
 1521 0162 19       		.uleb128 0x19
 1522 0163 3C       		.uleb128 0x3c
 1523 0164 19       		.uleb128 0x19
 1524 0165 00       		.byte	0
 1525 0166 00       		.byte	0
 1526 0167 1C       		.uleb128 0x1c
 1527 0168 2E       		.uleb128 0x2e
 1528 0169 00       		.byte	0
 1529 016a 3F       		.uleb128 0x3f
 1530 016b 19       		.uleb128 0x19
 1531 016c 03       		.uleb128 0x3
 1532 016d 0E       		.uleb128 0xe
 1533 016e 3A       		.uleb128 0x3a
 1534 016f 0B       		.uleb128 0xb
 1535 0170 3B       		.uleb128 0x3b
 1536 0171 0B       		.uleb128 0xb
 1537 0172 27       		.uleb128 0x27
 1538 0173 19       		.uleb128 0x19
 1539 0174 3C       		.uleb128 0x3c
ARM GAS  /tmp/ccn5KXlU.s 			page 28


 1540 0175 19       		.uleb128 0x19
 1541 0176 00       		.byte	0
 1542 0177 00       		.byte	0
 1543 0178 00       		.byte	0
 1544              		.section	.debug_aranges,"",%progbits
 1545 0000 1C000000 		.4byte	0x1c
 1546 0004 0200     		.2byte	0x2
 1547 0006 00000000 		.4byte	.Ldebug_info0
 1548 000a 04       		.byte	0x4
 1549 000b 00       		.byte	0
 1550 000c 0000     		.2byte	0
 1551 000e 0000     		.2byte	0
 1552 0010 00000000 		.4byte	.LFB323
 1553 0014 3A000000 		.4byte	.LFE323-.LFB323
 1554 0018 00000000 		.4byte	0
 1555 001c 00000000 		.4byte	0
 1556              		.section	.debug_ranges,"",%progbits
 1557              	.Ldebug_ranges0:
 1558 0000 00000000 		.4byte	.LFB323
 1559 0004 3A000000 		.4byte	.LFE323
 1560 0008 00000000 		.4byte	0
 1561 000c 00000000 		.4byte	0
 1562              		.section	.debug_line,"",%progbits
 1563              	.Ldebug_line0:
 1564 0000 B7030000 		.section	.debug_str,"MS",%progbits,1
 1564      02008A03 
 1564      00000201 
 1564      FB0E0D00 
 1564      01010101 
 1565              	.LASF52:
 1566 0000 72656164 		.ascii	"ready_list_t\000"
 1566      795F6C69 
 1566      73745F74 
 1566      00
 1567              	.LASF118:
 1568 000d 7374496E 		.ascii	"stInit\000"
 1568      697400
 1569              	.LASF94:
 1570 0014 77747472 		.ascii	"wttrp\000"
 1570      7000
 1571              	.LASF58:
 1572 001a 64656C74 		.ascii	"delta\000"
 1572      6100
 1573              	.LASF91:
 1574 0020 7264796D 		.ascii	"rdymsg\000"
 1574      736700
 1575              	.LASF16:
 1576 0027 75696E74 		.ascii	"uint64_t\000"
 1576      36345F74 
 1576      00
 1577              	.LASF71:
 1578 0030 6B65726E 		.ascii	"kernel_stats\000"
 1578      656C5F73 
 1578      74617473 
 1578      00
 1579              	.LASF5:
 1580 003d 5F5F7569 		.ascii	"__uint8_t\000"
ARM GAS  /tmp/ccn5KXlU.s 			page 29


 1580      6E74385F 
 1580      7400
 1581              	.LASF51:
 1582 0047 70726576 		.ascii	"prev\000"
 1582      00
 1583              	.LASF78:
 1584 004c 706F7274 		.ascii	"port_intctx\000"
 1584      5F696E74 
 1584      63747800 
 1585              	.LASF50:
 1586 0058 63685F74 		.ascii	"ch_threads_queue\000"
 1586      68726561 
 1586      64735F71 
 1586      75657565 
 1586      00
 1587              	.LASF63:
 1588 0069 73797374 		.ascii	"system_debug_t\000"
 1588      656D5F64 
 1588      65627567 
 1588      5F7400
 1589              	.LASF110:
 1590 0078 69637549 		.ascii	"icuInit\000"
 1590      6E697400 
 1591              	.LASF82:
 1592 0080 776F7273 		.ascii	"worst\000"
 1592      7400
 1593              	.LASF85:
 1594 0086 74696D65 		.ascii	"time_measurement_t\000"
 1594      5F6D6561 
 1594      73757265 
 1594      6D656E74 
 1594      5F7400
 1595              	.LASF12:
 1596 0099 6C6F6E67 		.ascii	"long long unsigned int\000"
 1596      206C6F6E 
 1596      6720756E 
 1596      7369676E 
 1596      65642069 
 1597              	.LASF92:
 1598 00b0 65786974 		.ascii	"exitcode\000"
 1598      636F6465 
 1598      00
 1599              	.LASF70:
 1600 00b9 6D61696E 		.ascii	"mainthread\000"
 1600      74687265 
 1600      616400
 1601              	.LASF95:
 1602 00c4 73656E74 		.ascii	"sentmsg\000"
 1602      6D736700 
 1603              	.LASF60:
 1604 00cc 76697274 		.ascii	"virtual_timers_list_t\000"
 1604      75616C5F 
 1604      74696D65 
 1604      72735F6C 
 1604      6973745F 
 1605              	.LASF105:
 1606 00e2 49544D5F 		.ascii	"ITM_RxBuffer\000"
ARM GAS  /tmp/ccn5KXlU.s 			page 30


 1606      52784275 
 1606      66666572 
 1606      00
 1607              	.LASF59:
 1608 00ef 66756E63 		.ascii	"func\000"
 1608      00
 1609              	.LASF48:
 1610 00f4 6E657874 		.ascii	"next\000"
 1610      00
 1611              	.LASF18:
 1612 00f9 72747469 		.ascii	"rttime_t\000"
 1612      6D655F74 
 1612      00
 1613              	.LASF10:
 1614 0102 6C6F6E67 		.ascii	"long long int\000"
 1614      206C6F6E 
 1614      6720696E 
 1614      7400
 1615              	.LASF1:
 1616 0110 7369676E 		.ascii	"signed char\000"
 1616      65642063 
 1616      68617200 
 1617              	.LASF69:
 1618 011c 76746C69 		.ascii	"vtlist\000"
 1618      737400
 1619              	.LASF38:
 1620 0123 6D736771 		.ascii	"msgqueue\000"
 1620      75657565 
 1620      00
 1621              	.LASF34:
 1622 012c 73746174 		.ascii	"state\000"
 1622      6500
 1623              	.LASF7:
 1624 0132 6C6F6E67 		.ascii	"long int\000"
 1624      20696E74 
 1624      00
 1625              	.LASF20:
 1626 013b 74737461 		.ascii	"tstate_t\000"
 1626      74655F74 
 1626      00
 1627              	.LASF111:
 1628 0144 70776D49 		.ascii	"pwmInit\000"
 1628      6E697400 
 1629              	.LASF43:
 1630 014c 73746174 		.ascii	"stats\000"
 1630      7300
 1631              	.LASF8:
 1632 0152 5F5F7569 		.ascii	"__uint32_t\000"
 1632      6E743332 
 1632      5F7400
 1633              	.LASF75:
 1634 015d 72656761 		.ascii	"regarm_t\000"
 1634      726D5F74 
 1634      00
 1635              	.LASF64:
 1636 0166 63685F73 		.ascii	"ch_system_debug\000"
 1636      79737465 
ARM GAS  /tmp/ccn5KXlU.s 			page 31


 1636      6D5F6465 
 1636      62756700 
 1637              	.LASF37:
 1638 0176 77616974 		.ascii	"waiting\000"
 1638      696E6700 
 1639              	.LASF103:
 1640 017e 6D757465 		.ascii	"mutex_t\000"
 1640      785F7400 
 1641              	.LASF73:
 1642 0186 73797369 		.ascii	"sysinterval_t\000"
 1642      6E746572 
 1642      76616C5F 
 1642      7400
 1643              	.LASF25:
 1644 0194 636E745F 		.ascii	"cnt_t\000"
 1644      7400
 1645              	.LASF0:
 1646 019a 756E7369 		.ascii	"unsigned int\000"
 1646      676E6564 
 1646      20696E74 
 1646      00
 1647              	.LASF119:
 1648 01a7 474E5520 		.ascii	"GNU C 4.9.3 20150529 (prerelease) -mcpu=cortex-m4 -"
 1648      4320342E 
 1648      392E3320 
 1648      32303135 
 1648      30353239 
 1649 01da 6D666C6F 		.ascii	"mfloat-abi=hard -mfpu=fpv4-sp-d16 -mno-thumb-interw"
 1649      61742D61 
 1649      62693D68 
 1649      61726420 
 1649      2D6D6670 
 1650 020d 6F726B20 		.ascii	"ork -mthumb -g -Os -fomit-frame-pointer -falign-fun"
 1650      2D6D7468 
 1650      756D6220 
 1650      2D67202D 
 1650      4F73202D 
 1651 0240 6374696F 		.ascii	"ctions=16 -ffunction-sections -fdata-sections -fno-"
 1651      6E733D31 
 1651      36202D66 
 1651      66756E63 
 1651      74696F6E 
 1652 0273 636F6D6D 		.ascii	"common -fsingle-precision-constant\000"
 1652      6F6E202D 
 1652      6673696E 
 1652      676C652D 
 1652      70726563 
 1653              	.LASF96:
 1654 0296 77747365 		.ascii	"wtsemp\000"
 1654      6D7000
 1655              	.LASF123:
 1656 029d 68616C49 		.ascii	"halInit\000"
 1656      6E697400 
 1657              	.LASF86:
 1658 02a5 6E5F6972 		.ascii	"n_irq\000"
 1658      7100
 1659              	.LASF28:
ARM GAS  /tmp/ccn5KXlU.s 			page 32


 1660 02ab 71756575 		.ascii	"queue\000"
 1660      6500
 1661              	.LASF42:
 1662 02b1 6D706F6F 		.ascii	"mpool\000"
 1662      6C00
 1663              	.LASF4:
 1664 02b7 73686F72 		.ascii	"short unsigned int\000"
 1664      7420756E 
 1664      7369676E 
 1664      65642069 
 1664      6E7400
 1665              	.LASF90:
 1666 02ca 6B65726E 		.ascii	"kernel_stats_t\000"
 1666      656C5F73 
 1666      74617473 
 1666      5F7400
 1667              	.LASF32:
 1668 02d9 6E616D65 		.ascii	"name\000"
 1668      00
 1669              	.LASF46:
 1670 02de 63685F74 		.ascii	"ch_thread\000"
 1670      68726561 
 1670      6400
 1671              	.LASF23:
 1672 02e8 6D73675F 		.ascii	"msg_t\000"
 1672      7400
 1673              	.LASF83:
 1674 02ee 6C617374 		.ascii	"last\000"
 1674      00
 1675              	.LASF26:
 1676 02f3 75636E74 		.ascii	"ucnt_t\000"
 1676      5F7400
 1677              	.LASF121:
 1678 02fa 2F686F6D 		.ascii	"/home/kozinalexey/f4by/ardupilot/build/F4BY\000"
 1678      652F6B6F 
 1678      7A696E61 
 1678      6C657865 
 1678      792F6634 
 1679              	.LASF66:
 1680 0326 63685F73 		.ascii	"ch_system_t\000"
 1680      79737465 
 1680      6D5F7400 
 1681              	.LASF19:
 1682 0332 746D6F64 		.ascii	"tmode_t\000"
 1682      655F7400 
 1683              	.LASF89:
 1684 033a 6D5F6372 		.ascii	"m_crit_isr\000"
 1684      69745F69 
 1684      737200
 1685              	.LASF53:
 1686 0345 63685F72 		.ascii	"ch_ready_list\000"
 1686      65616479 
 1686      5F6C6973 
 1686      7400
 1687              	.LASF24:
 1688 0353 6576656E 		.ascii	"eventmask_t\000"
 1688      746D6173 
ARM GAS  /tmp/ccn5KXlU.s 			page 33


 1688      6B5F7400 
 1689              	.LASF6:
 1690 035f 5F5F696E 		.ascii	"__int32_t\000"
 1690      7433325F 
 1690      7400
 1691              	.LASF108:
 1692 0369 61646349 		.ascii	"adcInit\000"
 1692      6E697400 
 1693              	.LASF76:
 1694 0371 73746B61 		.ascii	"stkalign_t\000"
 1694      6C69676E 
 1694      5F7400
 1695              	.LASF30:
 1696 037c 6E657765 		.ascii	"newer\000"
 1696      7200
 1697              	.LASF113:
 1698 0382 73706949 		.ascii	"spiInit\000"
 1698      6E697400 
 1699              	.LASF41:
 1700 038a 7265616C 		.ascii	"realprio\000"
 1700      7072696F 
 1700      00
 1701              	.LASF74:
 1702 0393 73697A65 		.ascii	"sizetype\000"
 1702      74797065 
 1702      00
 1703              	.LASF44:
 1704 039c 74687265 		.ascii	"thread_reference_t\000"
 1704      61645F72 
 1704      65666572 
 1704      656E6365 
 1704      5F7400
 1705              	.LASF61:
 1706 03af 63685F76 		.ascii	"ch_virtual_timers_list\000"
 1706      69727475 
 1706      616C5F74 
 1706      696D6572 
 1706      735F6C69 
 1707              	.LASF77:
 1708 03c6 706F7274 		.ascii	"port_context\000"
 1708      5F636F6E 
 1708      74657874 
 1708      00
 1709              	.LASF80:
 1710 03d3 746D5F63 		.ascii	"tm_calibration_t\000"
 1710      616C6962 
 1710      72617469 
 1710      6F6E5F74 
 1710      00
 1711              	.LASF29:
 1712 03e4 7072696F 		.ascii	"prio\000"
 1712      00
 1713              	.LASF54:
 1714 03e9 63757272 		.ascii	"current\000"
 1714      656E7400 
 1715              	.LASF11:
 1716 03f1 5F5F7569 		.ascii	"__uint64_t\000"
ARM GAS  /tmp/ccn5KXlU.s 			page 34


 1716      6E743634 
 1716      5F7400
 1717              	.LASF84:
 1718 03fc 63756D75 		.ascii	"cumulative\000"
 1718      6C617469 
 1718      766500
 1719              	.LASF21:
 1720 0407 74726566 		.ascii	"trefs_t\000"
 1720      735F7400 
 1721              	.LASF36:
 1722 040f 72656673 		.ascii	"refs\000"
 1722      00
 1723              	.LASF56:
 1724 0414 76697274 		.ascii	"virtual_timer_t\000"
 1724      75616C5F 
 1724      74696D65 
 1724      725F7400 
 1725              	.LASF122:
 1726 0424 6F73616C 		.ascii	"osalInit\000"
 1726      496E6974 
 1726      00
 1727              	.LASF22:
 1728 042d 74707269 		.ascii	"tprio_t\000"
 1728      6F5F7400 
 1729              	.LASF87:
 1730 0435 6E5F6374 		.ascii	"n_ctxswc\000"
 1730      78737763 
 1730      00
 1731              	.LASF104:
 1732 043e 5F426F6F 		.ascii	"_Bool\000"
 1732      6C00
 1733              	.LASF14:
 1734 0444 696E7433 		.ascii	"int32_t\000"
 1734      325F7400 
 1735              	.LASF2:
 1736 044c 756E7369 		.ascii	"unsigned char\000"
 1736      676E6564 
 1736      20636861 
 1736      7200
 1737              	.LASF116:
 1738 045a 73647549 		.ascii	"sduInit\000"
 1738      6E697400 
 1739              	.LASF120:
 1740 0462 2E2E2F2E 		.ascii	"../../modules/ChibiOS/os/hal/src/hal.c\000"
 1740      2E2F6D6F 
 1740      64756C65 
 1740      732F4368 
 1740      6962694F 
 1741              	.LASF3:
 1742 0489 73686F72 		.ascii	"short int\000"
 1742      7420696E 
 1742      7400
 1743              	.LASF62:
 1744 0493 6C617374 		.ascii	"lasttime\000"
 1744      74696D65 
 1744      00
 1745              	.LASF117:
ARM GAS  /tmp/ccn5KXlU.s 			page 35


 1746 049c 626F6172 		.ascii	"boardInit\000"
 1746      64496E69 
 1746      7400
 1747              	.LASF98:
 1748 04a6 65776D61 		.ascii	"ewmask\000"
 1748      736B00
 1749              	.LASF67:
 1750 04ad 63685F73 		.ascii	"ch_system\000"
 1750      79737465 
 1750      6D00
 1751              	.LASF57:
 1752 04b7 63685F76 		.ascii	"ch_virtual_timer\000"
 1752      69727475 
 1752      616C5F74 
 1752      696D6572 
 1752      00
 1753              	.LASF99:
 1754 04c8 63685F73 		.ascii	"ch_semaphore\000"
 1754      656D6170 
 1754      686F7265 
 1754      00
 1755              	.LASF15:
 1756 04d5 75696E74 		.ascii	"uint32_t\000"
 1756      33325F74 
 1756      00
 1757              	.LASF97:
 1758 04de 77746D74 		.ascii	"wtmtxp\000"
 1758      787000
 1759              	.LASF47:
 1760 04e5 63685F74 		.ascii	"ch_threads_list\000"
 1760      68726561 
 1760      64735F6C 
 1760      69737400 
 1761              	.LASF101:
 1762 04f5 6F776E65 		.ascii	"owner\000"
 1762      7200
 1763              	.LASF9:
 1764 04fb 6C6F6E67 		.ascii	"long unsigned int\000"
 1764      20756E73 
 1764      69676E65 
 1764      6420696E 
 1764      7400
 1765              	.LASF33:
 1766 050d 77616261 		.ascii	"wabase\000"
 1766      736500
 1767              	.LASF102:
 1768 0514 63686172 		.ascii	"char\000"
 1768      00
 1769              	.LASF31:
 1770 0519 6F6C6465 		.ascii	"older\000"
 1770      7200
 1771              	.LASF114:
 1772 051f 75736249 		.ascii	"usbInit\000"
 1772      6E697400 
 1773              	.LASF27:
 1774 0527 74687265 		.ascii	"thread_t\000"
 1774      61645F74 
ARM GAS  /tmp/ccn5KXlU.s 			page 36


 1774      00
 1775              	.LASF81:
 1776 0530 62657374 		.ascii	"best\000"
 1776      00
 1777              	.LASF72:
 1778 0535 73797374 		.ascii	"systime_t\000"
 1778      696D655F 
 1778      7400
 1779              	.LASF55:
 1780 053f 76746675 		.ascii	"vtfunc_t\000"
 1780      6E635F74 
 1780      00
 1781              	.LASF65:
 1782 0548 70616E69 		.ascii	"panic_msg\000"
 1782      635F6D73 
 1782      6700
 1783              	.LASF79:
 1784 0552 6F666673 		.ascii	"offset\000"
 1784      657400
 1785              	.LASF100:
 1786 0559 63685F6D 		.ascii	"ch_mutex\000"
 1786      75746578 
 1786      00
 1787              	.LASF106:
 1788 0562 68616C5F 		.ascii	"hal_lld_init\000"
 1788      6C6C645F 
 1788      696E6974 
 1788      00
 1789              	.LASF17:
 1790 056f 7274636E 		.ascii	"rtcnt_t\000"
 1790      745F7400 
 1791              	.LASF49:
 1792 0577 74687265 		.ascii	"threads_queue_t\000"
 1792      6164735F 
 1792      71756575 
 1792      655F7400 
 1793              	.LASF39:
 1794 0587 6570656E 		.ascii	"epending\000"
 1794      64696E67 
 1794      00
 1795              	.LASF107:
 1796 0590 5F70616C 		.ascii	"_pal_lld_init\000"
 1796      5F6C6C64 
 1796      5F696E69 
 1796      7400
 1797              	.LASF68:
 1798 059e 726C6973 		.ascii	"rlist\000"
 1798      7400
 1799              	.LASF13:
 1800 05a4 75696E74 		.ascii	"uint8_t\000"
 1800      385F7400 
 1801              	.LASF35:
 1802 05ac 666C6167 		.ascii	"flags\000"
 1802      7300
 1803              	.LASF93:
 1804 05b2 77746F62 		.ascii	"wtobjp\000"
 1804      6A7000
ARM GAS  /tmp/ccn5KXlU.s 			page 37


 1805              	.LASF45:
 1806 05b9 74687265 		.ascii	"threads_list_t\000"
 1806      6164735F 
 1806      6C697374 
 1806      5F7400
 1807              	.LASF115:
 1808 05c8 6D6D6349 		.ascii	"mmcInit\000"
 1808      6E697400 
 1809              	.LASF109:
 1810 05d0 69326349 		.ascii	"i2cInit\000"
 1810      6E697400 
 1811              	.LASF112:
 1812 05d8 7364496E 		.ascii	"sdInit\000"
 1812      697400
 1813              	.LASF40:
 1814 05df 6D74786C 		.ascii	"mtxlist\000"
 1814      69737400 
 1815              	.LASF88:
 1816 05e7 6D5F6372 		.ascii	"m_crit_thd\000"
 1816      69745F74 
 1816      686400
 1817              		.ident	"GCC: (15:4.9.3+svn231177-1) 4.9.3 20150529 (prerelease)"
ARM GAS  /tmp/ccn5KXlU.s 			page 38


DEFINED SYMBOLS
                            *ABS*:0000000000000000 hal.c
     /tmp/ccn5KXlU.s:21     .text.halInit:0000000000000000 $t
     /tmp/ccn5KXlU.s:26     .text.halInit:0000000000000000 halInit
                     .debug_frame:0000000000000010 $d

UNDEFINED SYMBOLS
hal_lld_init
_pal_lld_init
adcInit
i2cInit
icuInit
pwmInit
sdInit
spiInit
usbInit
mmcInit
sduInit
boardInit
stInit
