ARM GAS  /tmp/ccn5KXlU.s 			page 1


   1              		.syntax unified
   2              		.cpu cortex-m4
   3              		.eabi_attribute 27, 1
   4              		.eabi_attribute 28, 1
   5              		.fpu fpv4-sp-d16
   6              		.eabi_attribute 20, 1
   7              		.eabi_attribute 21, 1
   8              		.eabi_attribute 23, 3
   9              		.eabi_attribute 24, 1
  10              		.eabi_attribute 25, 1
  11              		.eabi_attribute 26, 1
  12              		.eabi_attribute 30, 4
  13              		.eabi_attribute 34, 1
  14              		.eabi_attribute 18, 4
  15              		.thumb
  16              		.file	"hal.c"
  17              		.text
  18              	.Ltext0:
  19              		.cfi_sections	.debug_frame
  20              		.section	.text.halInit,"ax",%progbits
  21              		.align	1
  22              		.global	halInit
  23              		.thumb
  24              		.thumb_func
  25              		.type	halInit, %function
  26              	halInit:
  27              	.LFB323:
  28              		.file 1 "../../modules/ChibiOS/os/hal/src/hal.c"
  29              		.loc 1 56 0
  30              		.cfi_startproc
  31              		@ args = 0, pretend = 0, frame = 0
  32              		@ frame_needed = 0, uses_anonymous_args = 0
  33 0000 08B5     		push	{r3, lr}
  34              		.cfi_def_cfa_offset 8
  35              		.cfi_offset 3, -8
  36              		.cfi_offset 14, -4
  37              		.loc 1 62 0
  38 0002 FFF7FEFF 		bl	hal_lld_init
  39              	.LVL0:
  40              		.loc 1 66 0
  41 0006 FFF7FEFF 		bl	_pal_lld_init
  42              	.LVL1:
  43              		.loc 1 72 0
  44 000a FFF7FEFF 		bl	adcInit
  45              	.LVL2:
  46              		.loc 1 87 0
  47 000e FFF7FEFF 		bl	i2cInit
  48              	.LVL3:
  49              		.loc 1 93 0
  50 0012 FFF7FEFF 		bl	icuInit
  51              	.LVL4:
  52              		.loc 1 102 0
  53 0016 FFF7FEFF 		bl	pwmInit
  54              	.LVL5:
  55              		.loc 1 105 0
  56 001a FFF7FEFF 		bl	sdInit
  57              	.LVL6:
ARM GAS  /tmp/ccn5KXlU.s 			page 2


  58              		.loc 1 111 0
  59 001e FFF7FEFF 		bl	spiInit
  60              	.LVL7:
  61              		.loc 1 120 0
  62 0022 FFF7FEFF 		bl	usbInit
  63              	.LVL8:
  64              		.loc 1 123 0
  65 0026 FFF7FEFF 		bl	mmcInit
  66              	.LVL9:
  67              		.loc 1 126 0
  68 002a FFF7FEFF 		bl	sduInit
  69              	.LVL10:
  70              		.loc 1 146 0
  71 002e FFF7FEFF 		bl	boardInit
  72              	.LVL11:
  73              		.loc 1 155 0
  74 0032 BDE80840 		pop	{r3, lr}
  75              		.cfi_restore 14
  76              		.cfi_restore 3
  77              		.cfi_def_cfa_offset 0
  78              		.loc 1 153 0
  79 0036 FFF7FEBF 		b	stInit
  80              	.LVL12:
  81              		.cfi_endproc
  82              	.LFE323:
  83              		.size	halInit, .-halInit
  84              		.text
  85              	.Letext0:
  86              		.file 2 "/usr/include/newlib/machine/_default_types.h"
  87              		.file 3 "/usr/include/newlib/sys/_stdint.h"
  88              		.file 4 "../../modules/ChibiOS/os/common/ports/ARMCMx/compilers/GCC/chtypes.h"
  89              		.file 5 "../../modules/ChibiOS/os/rt/include/chsystypes.h"
  90              		.file 6 "../../modules/ChibiOS/os/rt/include/chschd.h"
  91              		.file 7 "../../modules/ChibiOS/os/rt/include/chtime.h"
  92              		.file 8 "../../modules/ChibiOS/os/common/ports/ARMCMx/chcore.h"
  93              		.file 9 "../../modules/ChibiOS/os/common/ports/ARMCMx/chcore_v7m.h"
  94              		.file 10 "../../modules/ChibiOS/os/rt/include/chtm.h"
  95              		.file 11 "../../modules/ChibiOS/os/rt/include/chstats.h"
  96              		.file 12 "../../modules/ChibiOS/os/rt/include/chsem.h"
  97              		.file 13 "../../modules/ChibiOS/os/rt/include/chmtx.h"
  98              		.file 14 "../../modules/ChibiOS/os/hal/ports/STM32/STM32F4xx/hal_lld_type1.h"
  99              		.file 15 "../../modules/ChibiOS/os/hal/ports/STM32/LLD/GPIOv2/hal_pal_lld.h"
 100              		.file 16 "../../modules/ChibiOS/os/hal/include/hal_adc.h"
 101              		.file 17 "../../modules/ChibiOS/os/hal/include/hal_i2c.h"
 102              		.file 18 "../../modules/ChibiOS/os/hal/include/hal_icu.h"
 103              		.file 19 "../../modules/ChibiOS/os/hal/include/hal_pwm.h"
 104              		.file 20 "../../modules/ChibiOS/os/hal/include/hal_serial.h"
 105              		.file 21 "../../modules/ChibiOS/os/hal/include/hal_spi.h"
 106              		.file 22 "../../modules/ChibiOS/os/hal/include/hal_usb.h"
 107              		.file 23 "../../modules/ChibiOS/os/hal/include/hal_mmc_spi.h"
 108              		.file 24 "../../modules/ChibiOS/os/hal/include/hal_serial_usb.h"
 109              		.file 25 "../../libraries/AP_HAL_ChibiOS/hwdef/common/board.h"
 110              		.file 26 "../../modules/ChibiOS/os/hal/include/hal_st.h"
 111              		.file 27 "../../modules/ChibiOS/os/hal/osal/rt/osal.h"
 112              		.file 28 "../../modules/ChibiOS/os/common/ext/ARM/CMSIS/Core/Include/core_cm4.h"