ARM GAS  /tmp/cc5Sh9Px.s 			page 1


   1              		.syntax unified
   2              		.cpu cortex-m4
   3              		.eabi_attribute 27, 1
   4              		.eabi_attribute 28, 1
   5              		.fpu fpv4-sp-d16
   6              		.eabi_attribute 20, 1
   7              		.eabi_attribute 21, 1
   8              		.eabi_attribute 23, 3
   9              		.eabi_attribute 24, 1
  10              		.eabi_attribute 25, 1
  11              		.eabi_attribute 26, 1
  12              		.eabi_attribute 30, 4
  13              		.eabi_attribute 34, 1
  14              		.eabi_attribute 18, 4
  15              		.thumb
  16              		.file	"hal_i2c.c"
  17              		.text
  18              	.Ltext0:
  19              		.cfi_sections	.debug_frame
  20              		.section	.text.i2cInit,"ax",%progbits
  21              		.align	1
  22              		.global	i2cInit
  23              		.thumb
  24              		.thumb_func
  25              		.type	i2cInit, %function
  26              	i2cInit:
  27              	.LFB323:
  28              		.file 1 "../../modules/ChibiOS/os/hal/src/hal_i2c.c"
  29              		.loc 1 59 0
  30              		.cfi_startproc
  31              		@ args = 0, pretend = 0, frame = 0
  32              		@ frame_needed = 0, uses_anonymous_args = 0
  33              		@ link register save eliminated.
  34              		.loc 1 61 0
  35 0000 FFF7FEBF 		b	i2c_lld_init
  36              	.LVL0:
  37              		.cfi_endproc
  38              	.LFE323:
  39              		.size	i2cInit, .-i2cInit
  40              		.section	.text.i2cObjectInit,"ax",%progbits
  41              		.align	1
  42              		.global	i2cObjectInit
  43              		.thumb
  44              		.thumb_func
  45              		.type	i2cObjectInit, %function
  46              	i2cObjectInit:
  47              	.LFB324:
  48              		.loc 1 71 0
  49              		.cfi_startproc
  50              		@ args = 0, pretend = 0, frame = 0
  51              		@ frame_needed = 0, uses_anonymous_args = 0
  52              		@ link register save eliminated.
  53              	.LVL1:
  54              		.loc 1 73 0
  55 0000 0123     		movs	r3, #1
  56 0002 0370     		strb	r3, [r0]
  57              		.loc 1 74 0
ARM GAS  /tmp/cc5Sh9Px.s 			page 2


  58 0004 0023     		movs	r3, #0
  59 0006 4360     		str	r3, [r0, #4]
  60              	.LVL2:
  61              	.LBB40:
  62              	.LBB41:
  63              		.file 2 "../../modules/ChibiOS/os/hal/osal/rt/osal.h"
  64              		.loc 2 974 0
  65 0008 0C30     		adds	r0, r0, #12
  66              	.LVL3:
  67 000a FFF7FEBF 		b	chMtxObjectInit
  68              	.LVL4:
  69              	.LBE41:
  70              	.LBE40:
  71              		.cfi_endproc
  72              	.LFE324:
  73              		.size	i2cObjectInit, .-i2cObjectInit
  74              		.section	.text.i2cStart,"ax",%progbits
  75              		.align	1
  76              		.global	i2cStart
  77              		.thumb
  78              		.thumb_func
  79              		.type	i2cStart, %function
  80              	i2cStart:
  81              	.LFB325:
  82              		.loc 1 93 0
  83              		.cfi_startproc
  84              		@ args = 0, pretend = 0, frame = 0
  85              		@ frame_needed = 0, uses_anonymous_args = 0
  86              	.LVL5:
  87 0000 38B5     		push	{r3, r4, r5, lr}
  88              		.cfi_def_cfa_offset 16
  89              		.cfi_offset 3, -16
  90              		.cfi_offset 4, -12
  91              		.cfi_offset 5, -8
  92              		.cfi_offset 14, -4
  93              		.loc 1 93 0
  94 0002 0446     		mov	r4, r0
  95 0004 0D46     		mov	r5, r1
  96              	.LBB56:
  97              	.LBB57:
  98              	.LBB58:
  99              	.LBB59:
 100              	.LBB60:
 101              	.LBB61:
 102              		.file 3 "../../modules/ChibiOS/os/common/ext/ARM/CMSIS/Core/Include/cmsis_gcc.h"
 103              		.loc 3 493 0
 104 0006 2023     		movs	r3, #32
 105              	@ 493 "../../modules/ChibiOS/os/common/ext/ARM/CMSIS/Core/Include/cmsis_gcc.h" 1
 106 0008 83F31188 		MSR basepri, r3
 107              	@ 0 "" 2
 108              		.thumb
 109              	.LBE61:
 110              	.LBE60:
 111              	.LBE59:
 112              		.file 4 "../../modules/ChibiOS/os/rt/include/chsys.h"
 113              		.loc 4 356 0
 114 000c FFF7FEFF 		bl	_stats_start_measure_crit_thd
ARM GAS  /tmp/cc5Sh9Px.s 			page 3


 115              	.LVL6:
 116              	.LBE58:
 117              	.LBE57:
 118              	.LBE56:
 119              		.loc 1 101 0
 120 0010 2046     		mov	r0, r4
 121              		.loc 1 100 0
 122 0012 6560     		str	r5, [r4, #4]
 123              		.loc 1 101 0
 124 0014 FFF7FEFF 		bl	i2c_lld_start
 125              	.LVL7:
 126              		.loc 1 102 0
 127 0018 0223     		movs	r3, #2
 128 001a 2370     		strb	r3, [r4]
 129              	.LBB62:
 130              	.LBB63:
 131              	.LBB64:
 132              		.loc 4 368 0
 133 001c FFF7FEFF 		bl	_stats_stop_measure_crit_thd
 134              	.LVL8:
 135              	.LBB65:
 136              	.LBB66:
 137              	.LBB67:
 138              		.loc 3 493 0
 139 0020 0023     		movs	r3, #0
 140              	@ 493 "../../modules/ChibiOS/os/common/ext/ARM/CMSIS/Core/Include/cmsis_gcc.h" 1
 141 0022 83F31188 		MSR basepri, r3
 142              	@ 0 "" 2
 143              		.thumb
 144 0026 38BD     		pop	{r3, r4, r5, pc}
 145              	.LBE67:
 146              	.LBE66:
 147              	.LBE65:
 148              	.LBE64:
 149              	.LBE63:
 150              	.LBE62:
 151              		.cfi_endproc
 152              	.LFE325:
 153              		.size	i2cStart, .-i2cStart
 154              		.section	.text.i2cSoftStop,"ax",%progbits
 155              		.align	1
 156              		.global	i2cSoftStop
 157              		.thumb
 158              		.thumb_func
 159              		.type	i2cSoftStop, %function
 160              	i2cSoftStop:
 161              	.LFB326:
 162              		.loc 1 113 0
 163              		.cfi_startproc
 164              		@ args = 0, pretend = 0, frame = 0
 165              		@ frame_needed = 0, uses_anonymous_args = 0
 166              	.LVL9:
 167 0000 38B5     		push	{r3, r4, r5, lr}
 168              		.cfi_def_cfa_offset 16
 169              		.cfi_offset 3, -16
 170              		.cfi_offset 4, -12
 171              		.cfi_offset 5, -8
ARM GAS  /tmp/cc5Sh9Px.s 			page 4


 172              		.cfi_offset 14, -4
 173              		.loc 1 113 0
 174 0002 0446     		mov	r4, r0
 175              	.LBB82:
 176              	.LBB83:
 177              	.LBB84:
 178              	.LBB85:
 179              	.LBB86:
 180              	.LBB87:
 181              		.loc 3 493 0
 182 0004 2023     		movs	r3, #32
 183              	@ 493 "../../modules/ChibiOS/os/common/ext/ARM/CMSIS/Core/Include/cmsis_gcc.h" 1
 184 0006 83F31188 		MSR basepri, r3
 185              	@ 0 "" 2
 186              		.thumb
 187              	.LBE87:
 188              	.LBE86:
 189              	.LBE85:
 190              		.loc 4 356 0
 191 000a FFF7FEFF 		bl	_stats_start_measure_crit_thd
 192              	.LVL10:
 193              	.LBE84:
 194              	.LBE83:
 195              	.LBE82:
 196              		.loc 1 122 0
 197 000e 2046     		mov	r0, r4
 198 0010 FFF7FEFF 		bl	i2c_lld_soft_stop
 199              	.LVL11:
 200              		.loc 1 123 0
 201 0014 0025     		movs	r5, #0
 202              		.loc 1 124 0
 203 0016 0123     		movs	r3, #1
 204              		.loc 1 123 0
 205 0018 6560     		str	r5, [r4, #4]
 206              		.loc 1 124 0
 207 001a 2370     		strb	r3, [r4]
 208              	.LBB88:
 209              	.LBB89:
 210              	.LBB90:
 211              		.loc 4 368 0
 212 001c FFF7FEFF 		bl	_stats_stop_measure_crit_thd
 213              	.LVL12:
 214              	.LBB91:
 215              	.LBB92:
 216              	.LBB93:
 217              		.loc 3 493 0
 218              	@ 493 "../../modules/ChibiOS/os/common/ext/ARM/CMSIS/Core/Include/cmsis_gcc.h" 1
 219 0020 85F31188 		MSR basepri, r5
 220              	@ 0 "" 2
 221              		.thumb
 222 0024 38BD     		pop	{r3, r4, r5, pc}
 223              	.LBE93:
 224              	.LBE92:
 225              	.LBE91:
 226              	.LBE90:
 227              	.LBE89:
 228              	.LBE88:
ARM GAS  /tmp/cc5Sh9Px.s 			page 5


 229              		.cfi_endproc
 230              	.LFE326:
 231              		.size	i2cSoftStop, .-i2cSoftStop
 232              		.section	.text.i2cStop,"ax",%progbits
 233              		.align	1
 234              		.global	i2cStop
 235              		.thumb
 236              		.thumb_func
 237              		.type	i2cStop, %function
 238              	i2cStop:
 239              	.LFB327:
 240              		.loc 1 136 0
 241              		.cfi_startproc
 242              		@ args = 0, pretend = 0, frame = 0
 243              		@ frame_needed = 0, uses_anonymous_args = 0
 244              	.LVL13:
 245 0000 38B5     		push	{r3, r4, r5, lr}
 246              		.cfi_def_cfa_offset 16
 247              		.cfi_offset 3, -16
 248              		.cfi_offset 4, -12
 249              		.cfi_offset 5, -8
 250              		.cfi_offset 14, -4
 251              		.loc 1 136 0
 252 0002 0446     		mov	r4, r0
 253              	.LBB108:
 254              	.LBB109:
 255              	.LBB110:
 256              	.LBB111:
 257              	.LBB112:
 258              	.LBB113:
 259              		.loc 3 493 0
 260 0004 2023     		movs	r3, #32
 261              	@ 493 "../../modules/ChibiOS/os/common/ext/ARM/CMSIS/Core/Include/cmsis_gcc.h" 1
 262 0006 83F31188 		MSR basepri, r3
 263              	@ 0 "" 2
 264              		.thumb
 265              	.LBE113:
 266              	.LBE112:
 267              	.LBE111:
 268              		.loc 4 356 0
 269 000a FFF7FEFF 		bl	_stats_start_measure_crit_thd
 270              	.LVL14:
 271              	.LBE110:
 272              	.LBE109:
 273              	.LBE108:
 274              		.loc 1 145 0
 275 000e 2046     		mov	r0, r4
 276 0010 FFF7FEFF 		bl	i2c_lld_stop
 277              	.LVL15:
 278              		.loc 1 146 0
 279 0014 0025     		movs	r5, #0
 280              		.loc 1 147 0
 281 0016 0123     		movs	r3, #1
 282              		.loc 1 146 0
 283 0018 6560     		str	r5, [r4, #4]
 284              		.loc 1 147 0
 285 001a 2370     		strb	r3, [r4]
ARM GAS  /tmp/cc5Sh9Px.s 			page 6


 286              	.LBB114:
 287              	.LBB115:
 288              	.LBB116:
 289              		.loc 4 368 0
 290 001c FFF7FEFF 		bl	_stats_stop_measure_crit_thd
 291              	.LVL16:
 292              	.LBB117:
 293              	.LBB118:
 294              	.LBB119:
 295              		.loc 3 493 0
 296              	@ 493 "../../modules/ChibiOS/os/common/ext/ARM/CMSIS/Core/Include/cmsis_gcc.h" 1
 297 0020 85F31188 		MSR basepri, r5
 298              	@ 0 "" 2
 299              		.thumb
 300 0024 38BD     		pop	{r3, r4, r5, pc}
 301              	.LBE119:
 302              	.LBE118:
 303              	.LBE117:
 304              	.LBE116:
 305              	.LBE115:
 306              	.LBE114:
 307              		.cfi_endproc
 308              	.LFE327:
 309              		.size	i2cStop, .-i2cStop
 310              		.section	.text.i2cGetErrors,"ax",%progbits
 311              		.align	1
 312              		.global	i2cGetErrors
 313              		.thumb
 314              		.thumb_func
 315              		.type	i2cGetErrors, %function
 316              	i2cGetErrors:
 317              	.LFB328:
 318              		.loc 1 160 0
 319              		.cfi_startproc
 320              		@ args = 0, pretend = 0, frame = 0
 321              		@ frame_needed = 0, uses_anonymous_args = 0
 322              		@ link register save eliminated.
 323              	.LVL17:
 324              		.loc 1 165 0
 325 0000 8068     		ldr	r0, [r0, #8]
 326              	.LVL18:
 327 0002 7047     		bx	lr
 328              		.cfi_endproc
 329              	.LFE328:
 330              		.size	i2cGetErrors, .-i2cGetErrors
 331              		.section	.text.i2cMasterTransmitTimeout,"ax",%progbits
 332              		.align	1
 333              		.global	i2cMasterTransmitTimeout
 334              		.thumb
 335              		.thumb_func
 336              		.type	i2cMasterTransmitTimeout, %function
 337              	i2cMasterTransmitTimeout:
 338              	.LFB329:
 339              		.loc 1 199 0
 340              		.cfi_startproc
 341              		@ args = 12, pretend = 0, frame = 0
 342              		@ frame_needed = 0, uses_anonymous_args = 0
ARM GAS  /tmp/cc5Sh9Px.s 			page 7


 343              	.LVL19:
 344 0000 2DE9FF41 		push	{r0, r1, r2, r3, r4, r5, r6, r7, r8, lr}
 345              		.cfi_def_cfa_offset 40
 346              		.cfi_offset 4, -24
 347              		.cfi_offset 5, -20
 348              		.cfi_offset 6, -16
 349              		.cfi_offset 7, -12
 350              		.cfi_offset 8, -8
 351              		.cfi_offset 14, -4
 352              		.loc 1 199 0
 353 0004 1E46     		mov	r6, r3
 354 0006 0446     		mov	r4, r0
 355 0008 8846     		mov	r8, r1
 356 000a 1746     		mov	r7, r2
 357              	.LBB134:
 358              	.LBB135:
 359              	.LBB136:
 360              	.LBB137:
 361              	.LBB138:
 362              	.LBB139:
 363              		.loc 3 493 0
 364 000c 2023     		movs	r3, #32
 365              	.LVL20:
 366              	@ 493 "../../modules/ChibiOS/os/common/ext/ARM/CMSIS/Core/Include/cmsis_gcc.h" 1
 367 000e 83F31188 		MSR basepri, r3
 368              	@ 0 "" 2
 369              		.thumb
 370              	.LBE139:
 371              	.LBE138:
 372              	.LBE137:
 373              		.loc 4 356 0
 374 0012 FFF7FEFF 		bl	_stats_start_measure_crit_thd
 375              	.LVL21:
 376              	.LBE136:
 377              	.LBE135:
 378              	.LBE134:
 379              		.loc 1 211 0
 380 0016 0323     		movs	r3, #3
 381 0018 2370     		strb	r3, [r4]
 382              		.loc 1 212 0
 383 001a 0A9B     		ldr	r3, [sp, #40]
 384 001c 0093     		str	r3, [sp]
 385 001e 0B9B     		ldr	r3, [sp, #44]
 386 0020 0193     		str	r3, [sp, #4]
 387              		.loc 1 210 0
 388 0022 0025     		movs	r5, #0
 389              		.loc 1 212 0
 390 0024 0C9B     		ldr	r3, [sp, #48]
 391 0026 0293     		str	r3, [sp, #8]
 392 0028 4146     		mov	r1, r8
 393 002a 3A46     		mov	r2, r7
 394 002c 3346     		mov	r3, r6
 395              		.loc 1 210 0
 396 002e A560     		str	r5, [r4, #8]
 397              		.loc 1 212 0
 398 0030 2046     		mov	r0, r4
 399 0032 FFF7FEFF 		bl	i2c_lld_master_transmit_timeout
ARM GAS  /tmp/cc5Sh9Px.s 			page 8


 400              	.LVL22:
 401              		.loc 1 214 0
 402 0036 431C     		adds	r3, r0, #1
 403              		.loc 1 215 0
 404 0038 0CBF     		ite	eq
 405 003a 0523     		moveq	r3, #5
 406              		.loc 1 218 0
 407 003c 0223     		movne	r3, #2
 408 003e 2370     		strb	r3, [r4]
 409              		.loc 1 212 0
 410 0040 0646     		mov	r6, r0
 411              	.LVL23:
 412              	.LBB140:
 413              	.LBB141:
 414              	.LBB142:
 415              		.loc 4 368 0
 416 0042 FFF7FEFF 		bl	_stats_stop_measure_crit_thd
 417              	.LVL24:
 418              	.LBB143:
 419              	.LBB144:
 420              	.LBB145:
 421              		.loc 3 493 0
 422              	@ 493 "../../modules/ChibiOS/os/common/ext/ARM/CMSIS/Core/Include/cmsis_gcc.h" 1
 423 0046 85F31188 		MSR basepri, r5
 424              	@ 0 "" 2
 425              		.thumb
 426              	.LBE145:
 427              	.LBE144:
 428              	.LBE143:
 429              	.LBE142:
 430              	.LBE141:
 431              	.LBE140:
 432              		.loc 1 222 0
 433 004a 3046     		mov	r0, r6
 434 004c 04B0     		add	sp, sp, #16
 435              		.cfi_def_cfa_offset 24
 436              		@ sp needed
 437 004e BDE8F081 		pop	{r4, r5, r6, r7, r8, pc}
 438              		.cfi_endproc
 439              	.LFE329:
 440              		.size	i2cMasterTransmitTimeout, .-i2cMasterTransmitTimeout
 441              		.section	.text.i2cMasterReceiveTimeout,"ax",%progbits
 442              		.align	1
 443              		.global	i2cMasterReceiveTimeout
 444              		.thumb
 445              		.thumb_func
 446              		.type	i2cMasterReceiveTimeout, %function
 447              	i2cMasterReceiveTimeout:
 448              	.LFB330:
 449              		.loc 1 248 0
 450              		.cfi_startproc
 451              		@ args = 4, pretend = 0, frame = 0
 452              		@ frame_needed = 0, uses_anonymous_args = 0
 453              	.LVL25:
 454 0000 2DE9F341 		push	{r0, r1, r4, r5, r6, r7, r8, lr}
 455              		.cfi_def_cfa_offset 32
 456              		.cfi_offset 4, -24
ARM GAS  /tmp/cc5Sh9Px.s 			page 9


 457              		.cfi_offset 5, -20
 458              		.cfi_offset 6, -16
 459              		.cfi_offset 7, -12
 460              		.cfi_offset 8, -8
 461              		.cfi_offset 14, -4
 462              		.loc 1 248 0
 463 0004 1E46     		mov	r6, r3
 464 0006 0446     		mov	r4, r0
 465 0008 8846     		mov	r8, r1
 466 000a 1746     		mov	r7, r2
 467              	.LBB160:
 468              	.LBB161:
 469              	.LBB162:
 470              	.LBB163:
 471              	.LBB164:
 472              	.LBB165:
 473              		.loc 3 493 0
 474 000c 2023     		movs	r3, #32
 475              	.LVL26:
 476              	@ 493 "../../modules/ChibiOS/os/common/ext/ARM/CMSIS/Core/Include/cmsis_gcc.h" 1
 477 000e 83F31188 		MSR basepri, r3
 478              	@ 0 "" 2
 479              		.thumb
 480              	.LBE165:
 481              	.LBE164:
 482              	.LBE163:
 483              		.loc 4 356 0
 484 0012 FFF7FEFF 		bl	_stats_start_measure_crit_thd
 485              	.LVL27:
 486              	.LBE162:
 487              	.LBE161:
 488              	.LBE160:
 489              		.loc 1 260 0
 490 0016 0423     		movs	r3, #4
 491 0018 2370     		strb	r3, [r4]
 492              		.loc 1 259 0
 493 001a 0025     		movs	r5, #0
 494              		.loc 1 261 0
 495 001c 089B     		ldr	r3, [sp, #32]
 496 001e 0093     		str	r3, [sp]
 497 0020 4146     		mov	r1, r8
 498 0022 3A46     		mov	r2, r7
 499 0024 3346     		mov	r3, r6
 500              		.loc 1 259 0
 501 0026 A560     		str	r5, [r4, #8]
 502              		.loc 1 261 0
 503 0028 2046     		mov	r0, r4
 504 002a FFF7FEFF 		bl	i2c_lld_master_receive_timeout
 505              	.LVL28:
 506              		.loc 1 262 0
 507 002e 431C     		adds	r3, r0, #1
 508              		.loc 1 263 0
 509 0030 0CBF     		ite	eq
 510 0032 0523     		moveq	r3, #5
 511              		.loc 1 266 0
 512 0034 0223     		movne	r3, #2
 513 0036 2370     		strb	r3, [r4]
ARM GAS  /tmp/cc5Sh9Px.s 			page 10


 514              		.loc 1 261 0
 515 0038 0646     		mov	r6, r0
 516              	.LVL29:
 517              	.LBB166:
 518              	.LBB167:
 519              	.LBB168:
 520              		.loc 4 368 0
 521 003a FFF7FEFF 		bl	_stats_stop_measure_crit_thd
 522              	.LVL30:
 523              	.LBB169:
 524              	.LBB170:
 525              	.LBB171:
 526              		.loc 3 493 0
 527              	@ 493 "../../modules/ChibiOS/os/common/ext/ARM/CMSIS/Core/Include/cmsis_gcc.h" 1
 528 003e 85F31188 		MSR basepri, r5
 529              	@ 0 "" 2
 530              		.thumb
 531              	.LBE171:
 532              	.LBE170:
 533              	.LBE169:
 534              	.LBE168:
 535              	.LBE167:
 536              	.LBE166:
 537              		.loc 1 270 0
 538 0042 3046     		mov	r0, r6
 539 0044 02B0     		add	sp, sp, #8
 540              		.cfi_def_cfa_offset 24
 541              		@ sp needed
 542 0046 BDE8F081 		pop	{r4, r5, r6, r7, r8, pc}
 543              		.cfi_endproc
 544              	.LFE330:
 545              		.size	i2cMasterReceiveTimeout, .-i2cMasterReceiveTimeout
 546              		.section	.text.i2cAcquireBus,"ax",%progbits
 547              		.align	1
 548              		.global	i2cAcquireBus
 549              		.thumb
 550              		.thumb_func
 551              		.type	i2cAcquireBus, %function
 552              	i2cAcquireBus:
 553              	.LFB331:
 554              		.loc 1 284 0
 555              		.cfi_startproc
 556              		@ args = 0, pretend = 0, frame = 0
 557              		@ frame_needed = 0, uses_anonymous_args = 0
 558              		@ link register save eliminated.
 559              	.LVL31:
 560              	.LBB172:
 561              	.LBB173:
 562              		.loc 2 994 0
 563 0000 0C30     		adds	r0, r0, #12
 564              	.LVL32:
 565 0002 FFF7FEBF 		b	chMtxLock
 566              	.LVL33:
 567              	.LBE173:
 568              	.LBE172:
 569              		.cfi_endproc
 570              	.LFE331:
ARM GAS  /tmp/cc5Sh9Px.s 			page 11


 571              		.size	i2cAcquireBus, .-i2cAcquireBus
 572              		.section	.text.i2cReleaseBus,"ax",%progbits
 573              		.align	1
 574              		.global	i2cReleaseBus
 575              		.thumb
 576              		.thumb_func
 577              		.type	i2cReleaseBus, %function
 578              	i2cReleaseBus:
 579              	.LFB332:
 580              		.loc 1 300 0
 581              		.cfi_startproc
 582              		@ args = 0, pretend = 0, frame = 0
 583              		@ frame_needed = 0, uses_anonymous_args = 0
 584              		@ link register save eliminated.
 585              	.LVL34:
 586              	.LBB174:
 587              	.LBB175:
 588              		.loc 2 1018 0
 589 0000 0C30     		adds	r0, r0, #12
 590              	.LVL35:
 591 0002 FFF7FEBF 		b	chMtxUnlock
 592              	.LVL36:
 593              	.LBE175:
 594              	.LBE174:
 595              		.cfi_endproc
 596              	.LFE332:
 597              		.size	i2cReleaseBus, .-i2cReleaseBus
 598              		.text
 599              	.Letext0:
 600              		.file 5 "/usr/lib/gcc/arm-none-eabi/4.9.3/include/stddef.h"
 601              		.file 6 "/usr/include/newlib/machine/_default_types.h"
 602              		.file 7 "/usr/include/newlib/sys/_stdint.h"
 603              		.file 8 "../../modules/ChibiOS/os/common/ports/ARMCMx/compilers/GCC/chtypes.h"
 604              		.file 9 "../../modules/ChibiOS/os/rt/include/chsystypes.h"
 605              		.file 10 "../../modules/ChibiOS/os/rt/include/chschd.h"
 606              		.file 11 "../../modules/ChibiOS/os/rt/include/chtime.h"
 607              		.file 12 "../../modules/ChibiOS/os/common/ext/ST/STM32F4xx/stm32f407xx.h"
 608              		.file 13 "../../modules/ChibiOS/os/common/ports/ARMCMx/chcore.h"
 609              		.file 14 "../../modules/ChibiOS/os/common/ports/ARMCMx/chcore_v7m.h"
 610              		.file 15 "../../modules/ChibiOS/os/rt/include/chtm.h"
 611              		.file 16 "../../modules/ChibiOS/os/rt/include/chstats.h"
 612              		.file 17 "../../modules/ChibiOS/os/rt/include/chsem.h"
 613              		.file 18 "../../modules/ChibiOS/os/rt/include/chmtx.h"
 614              		.file 19 "../../modules/ChibiOS/os/hal/ports/STM32/LLD/DMAv2/stm32_dma.h"
 615              		.file 20 "../../modules/ChibiOS/os/hal/include/hal_i2c.h"
 616              		.file 21 "../../modules/ChibiOS/os/hal/ports/STM32/LLD/I2Cv1/hal_i2c_lld.h"
 617              		.file 22 "../../modules/ChibiOS/os/common/ext/ARM/CMSIS/Core/Include/core_cm4.h"