ARM GAS  /tmp/cceMHqfo.s 			page 1


   1              		.syntax unified
   2              		.cpu cortex-m4
   3              		.eabi_attribute 27, 1
   4              		.eabi_attribute 28, 1
   5              		.fpu fpv4-sp-d16
   6              		.eabi_attribute 20, 1
   7              		.eabi_attribute 21, 1
   8              		.eabi_attribute 23, 3
   9              		.eabi_attribute 24, 1
  10              		.eabi_attribute 25, 1
  11              		.eabi_attribute 26, 1
  12              		.eabi_attribute 30, 4
  13              		.eabi_attribute 34, 1
  14              		.eabi_attribute 18, 4
  15              		.thumb
  16              		.file	"hal_st_lld.c"
  17              		.text
  18              	.Ltext0:
  19              		.cfi_sections	.debug_frame
  20              		.section	.text.Vector108,"ax",%progbits
  21              		.align	1
  22              		.global	Vector108
  23              		.thumb
  24              		.thumb_func
  25              		.type	Vector108, %function
  26              	Vector108:
  27              	.LFB323:
  28              		.file 1 "../../modules/ChibiOS/os/hal/ports/STM32/LLD/TIMv1/hal_st_lld.c"
  29              		.loc 1 253 0
  30              		.cfi_startproc
  31              		@ args = 0, pretend = 0, frame = 0
  32              		@ frame_needed = 0, uses_anonymous_args = 0
  33 0000 10B5     		push	{r4, lr}
  34              		.cfi_def_cfa_offset 8
  35              		.cfi_offset 4, -8
  36              		.cfi_offset 14, -4
  37              		.loc 1 255 0
  38 0002 FFF7FEFF 		bl	_stats_increase_irq
  39              	.LVL0:
  40              		.loc 1 260 0
  41 0006 0A4B     		ldr	r3, .L7
  42 0008 1A69     		ldr	r2, [r3, #16]
  43 000a 9207     		lsls	r2, r2, #30
  44 000c 0CD5     		bpl	.L2
  45              		.loc 1 261 0
  46 000e 0024     		movs	r4, #0
  47 0010 1C61     		str	r4, [r3, #16]
  48              	.LVL1:
  49              	.LBB48:
  50              	.LBB49:
  51              	.LBB50:
  52              	.LBB51:
  53              	.LBB52:
  54              	.LBB53:
  55              	.LBB54:
  56              		.file 2 "../../modules/ChibiOS/os/common/ext/ARM/CMSIS/Core/Include/cmsis_gcc.h"
  57              		.loc 2 493 0
ARM GAS  /tmp/cceMHqfo.s 			page 2


  58 0012 2023     		movs	r3, #32
  59              	@ 493 "../../modules/ChibiOS/os/common/ext/ARM/CMSIS/Core/Include/cmsis_gcc.h" 1
  60 0014 83F31188 		MSR basepri, r3
  61              	@ 0 "" 2
  62              		.thumb
  63              	.LBE54:
  64              	.LBE53:
  65              	.LBE52:
  66              	.LBE51:
  67              		.file 3 "../../modules/ChibiOS/os/rt/include/chsys.h"
  68              		.loc 3 396 0
  69 0018 FFF7FEFF 		bl	_stats_start_measure_crit_isr
  70              	.LVL2:
  71              	.LBE50:
  72              	.LBE49:
  73              	.LBE48:
  74              	.LBB55:
  75              	.LBB56:
  76              		.file 4 "../../modules/ChibiOS/os/hal/osal/rt/osal.h"
  77              		.loc 4 603 0
  78 001c FFF7FEFF 		bl	chSysTimerHandlerI
  79              	.LVL3:
  80              	.LBE56:
  81              	.LBE55:
  82              	.LBB57:
  83              	.LBB58:
  84              	.LBB59:
  85              		.loc 3 416 0
  86 0020 FFF7FEFF 		bl	_stats_stop_measure_crit_isr
  87              	.LVL4:
  88              	.LBB60:
  89              	.LBB61:
  90              	.LBB62:
  91              	.LBB63:
  92              		.loc 2 493 0
  93              	@ 493 "../../modules/ChibiOS/os/common/ext/ARM/CMSIS/Core/Include/cmsis_gcc.h" 1
  94 0024 84F31188 		MSR basepri, r4
  95              	@ 0 "" 2
  96              	.LVL5:
  97              		.thumb
  98              	.L2:
  99              	.LBE63:
 100              	.LBE62:
 101              	.LBE61:
 102              	.LBE60:
 103              	.LBE59:
 104              	.LBE58:
 105              	.LBE57:
 106              		.loc 1 269 0
 107 0028 BDE81040 		pop	{r4, lr}
 108              		.cfi_restore 14
 109              		.cfi_restore 4
 110              		.cfi_def_cfa_offset 0
 111              		.loc 1 268 0
 112 002c FFF7FEBF 		b	_port_irq_epilogue
 113              	.LVL6:
 114              	.L8:
ARM GAS  /tmp/cceMHqfo.s 			page 3


 115              		.align	2
 116              	.L7:
 117 0030 000C0040 		.word	1073744896
 118              		.cfi_endproc
 119              	.LFE323:
 120              		.size	Vector108, .-Vector108
 121              		.section	.text.st_lld_init,"ax",%progbits
 122              		.align	1
 123              		.global	st_lld_init
 124              		.thumb
 125              		.thumb_func
 126              		.type	st_lld_init, %function
 127              	st_lld_init:
 128              	.LFB324:
 129              		.loc 1 281 0
 130              		.cfi_startproc
 131              		@ args = 0, pretend = 0, frame = 0
 132              		@ frame_needed = 0, uses_anonymous_args = 0
 133              		@ link register save eliminated.
 134              		.loc 1 287 0
 135 0000 104B     		ldr	r3, .L10
 136 0002 1A6C     		ldr	r2, [r3, #64]
 137 0004 42F00802 		orr	r2, r2, #8
 138 0008 1A64     		str	r2, [r3, #64]
 139 000a 1A6E     		ldr	r2, [r3, #96]
 140 000c 42F00802 		orr	r2, r2, #8
 141 0010 1A66     		str	r2, [r3, #96]
 142              		.loc 1 290 0
 143 0012 0D4A     		ldr	r2, .L10+4
 144              		.loc 1 287 0
 145 0014 1B6E     		ldr	r3, [r3, #96]
 146              		.loc 1 290 0
 147 0016 9368     		ldr	r3, [r2, #8]
 148 0018 43F00803 		orr	r3, r3, #8
 149 001c 9360     		str	r3, [r2, #8]
 150              		.loc 1 293 0
 151 001e 0B4B     		ldr	r3, .L10+8
 152 0020 5322     		movs	r2, #83
 153 0022 9A62     		str	r2, [r3, #40]
 154              		.loc 1 294 0
 155 0024 4FF0FF32 		mov	r2, #-1
 156 0028 DA62     		str	r2, [r3, #44]
 157              		.loc 1 295 0
 158 002a 0022     		movs	r2, #0
 159 002c 9A61     		str	r2, [r3, #24]
 160              		.loc 1 296 0
 161 002e 5A63     		str	r2, [r3, #52]
 162              		.loc 1 297 0
 163 0030 DA60     		str	r2, [r3, #12]
 164              		.loc 1 298 0
 165 0032 5A60     		str	r2, [r3, #4]
 166              		.loc 1 299 0
 167 0034 0122     		movs	r2, #1
 168 0036 5A61     		str	r2, [r3, #20]
 169              		.loc 1 303 0
 170 0038 3220     		movs	r0, #50
 171              		.loc 1 300 0
ARM GAS  /tmp/cceMHqfo.s 			page 4


 172 003a 1A60     		str	r2, [r3]
 173              		.loc 1 303 0
 174 003c 0821     		movs	r1, #8
 175 003e FFF7FEBF 		b	nvicEnableVector
 176              	.LVL7:
 177              	.L11:
 178 0042 00BF     		.align	2
 179              	.L10:
 180 0044 00380240 		.word	1073887232
 181 0048 002004E0 		.word	-536600576
 182 004c 000C0040 		.word	1073744896
 183              		.cfi_endproc
 184              	.LFE324:
 185              		.size	st_lld_init, .-st_lld_init
 186              		.text
 187              	.Letext0:
 188              		.file 5 "/usr/include/newlib/machine/_default_types.h"
 189              		.file 6 "/usr/include/newlib/sys/_stdint.h"
 190              		.file 7 "../../modules/ChibiOS/os/common/ports/ARMCMx/compilers/GCC/chtypes.h"
 191              		.file 8 "../../modules/ChibiOS/os/rt/include/chsystypes.h"
 192              		.file 9 "../../modules/ChibiOS/os/rt/include/chschd.h"
 193              		.file 10 "../../modules/ChibiOS/os/rt/include/chtime.h"
 194              		.file 11 "../../modules/ChibiOS/os/common/ext/ST/STM32F4xx/stm32f407xx.h"
 195              		.file 12 "../../modules/ChibiOS/os/common/ports/ARMCMx/chcore.h"
 196              		.file 13 "../../modules/ChibiOS/os/common/ports/ARMCMx/chcore_v7m.h"
 197              		.file 14 "../../modules/ChibiOS/os/hal/ports/STM32/LLD/TIMv1/stm32_tim.h"
 198              		.file 15 "../../modules/ChibiOS/os/rt/include/chtm.h"
 199              		.file 16 "../../modules/ChibiOS/os/rt/include/chstats.h"
 200              		.file 17 "../../modules/ChibiOS/os/rt/include/chsem.h"
 201              		.file 18 "../../modules/ChibiOS/os/rt/include/chmtx.h"
 202              		.file 19 "../../modules/ChibiOS/os/common/ext/ARM/CMSIS/Core/Include/core_cm4.h"
 203              		.file 20 "../../modules/ChibiOS/os/hal/ports/common/ARMCMx/nvic.h"