ARM GAS  /tmp/ccayzwpm.s 			page 1


   1              		.syntax unified
   2              		.cpu cortex-m4
   3              		.eabi_attribute 27, 1
   4              		.eabi_attribute 28, 1
   5              		.fpu fpv4-sp-d16
   6              		.eabi_attribute 20, 1
   7              		.eabi_attribute 21, 1
   8              		.eabi_attribute 23, 3
   9              		.eabi_attribute 24, 1
  10              		.eabi_attribute 25, 1
  11              		.eabi_attribute 26, 1
  12              		.eabi_attribute 30, 4
  13              		.eabi_attribute 34, 1
  14              		.eabi_attribute 18, 4
  15              		.thumb
  16              		.file	"hal_i2c_lld.c"
  17              		.text
  18              	.Ltext0:
  19              		.cfi_sections	.debug_frame
  20              		.section	.text.i2c_lld_serve_tx_end_irq,"ax",%progbits
  21              		.align	1
  22              		.thumb
  23              		.thumb_func
  24              		.type	i2c_lld_serve_tx_end_irq, %function
  25              	i2c_lld_serve_tx_end_irq:
  26              	.LFB329:
  27              		.file 1 "../../modules/ChibiOS/os/hal/ports/STM32/LLD/I2Cv1/hal_i2c_lld.c"
  28              		.loc 1 376 0
  29              		.cfi_startproc
  30              		@ args = 0, pretend = 0, frame = 0
  31              		@ frame_needed = 0, uses_anonymous_args = 0
  32              	.LVL0:
  33              		.loc 1 381 0
  34 0000 11F00C0F 		tst	r1, #12
  35              		.loc 1 376 0
  36 0004 38B5     		push	{r3, r4, r5, lr}
  37              		.cfi_def_cfa_offset 16
  38              		.cfi_offset 3, -16
  39              		.cfi_offset 4, -12
  40              		.cfi_offset 5, -8
  41              		.cfi_offset 14, -4
  42              		.loc 1 376 0
  43 0006 0546     		mov	r5, r0
  44              		.loc 1 377 0
  45 0008 446B     		ldr	r4, [r0, #52]
  46              	.LVL1:
  47              		.loc 1 381 0
  48 000a 02D0     		beq	.L2
  49              	.LVL2:
  50              	.LBB68:
  51              	.LBB69:
  52              		.file 2 "../../modules/ChibiOS/os/hal/osal/rt/osal.h"
  53              		.loc 2 480 0
  54 000c 0A48     		ldr	r0, .L9
  55              	.LVL3:
  56 000e FFF7FEFF 		bl	chSysHalt
  57              	.LVL4:
ARM GAS  /tmp/ccayzwpm.s 			page 2


  58              	.L2:
  59              	.LBE69:
  60              	.LBE68:
  61              		.loc 1 388 0
  62 0012 2B6B     		ldr	r3, [r5, #48]
  63 0014 1A68     		ldr	r2, [r3]
  64 0016 1168     		ldr	r1, [r2]
  65 0018 21F01F01 		bic	r1, r1, #31
  66 001c 1160     		str	r1, [r2]
  67              	.L3:
  68              		.loc 1 388 0 is_stmt 0 discriminator 2
  69 001e 1168     		ldr	r1, [r2]
  70 0020 C907     		lsls	r1, r1, #31
  71 0022 FCD4     		bmi	.L3
  72              		.loc 1 388 0 discriminator 3
  73 0024 597A     		ldrb	r1, [r3, #9]	@ zero_extendqisi2
  74 0026 5A68     		ldr	r2, [r3, #4]
  75 0028 3D23     		movs	r3, #61
  76 002a 8B40     		lsls	r3, r3, r1
  77 002c 1360     		str	r3, [r2]
  78              		.loc 1 392 0 is_stmt 1 discriminator 3
  79 002e 6368     		ldr	r3, [r4, #4]
  80 0030 43F40073 		orr	r3, r3, #512
  81 0034 6360     		str	r3, [r4, #4]
  82 0036 38BD     		pop	{r3, r4, r5, pc}
  83              	.LVL5:
  84              	.L10:
  85              		.align	2
  86              	.L9:
  87 0038 00000000 		.word	.LC0
  88              		.cfi_endproc
  89              	.LFE329:
  90              		.size	i2c_lld_serve_tx_end_irq, .-i2c_lld_serve_tx_end_irq
  91              		.section	.text.i2c_lld_serve_rx_end_irq,"ax",%progbits
  92              		.align	1
  93              		.thumb
  94              		.thumb_func
  95              		.type	i2c_lld_serve_rx_end_irq, %function
  96              	i2c_lld_serve_rx_end_irq:
  97              	.LFB328:
  98              		.loc 1 349 0
  99              		.cfi_startproc
 100              		@ args = 0, pretend = 0, frame = 0
 101              		@ frame_needed = 0, uses_anonymous_args = 0
 102              	.LVL6:
 103              		.loc 1 354 0
 104 0000 11F00C0F 		tst	r1, #12
 105              		.loc 1 349 0
 106 0004 70B5     		push	{r4, r5, r6, lr}
 107              		.cfi_def_cfa_offset 16
 108              		.cfi_offset 4, -16
 109              		.cfi_offset 5, -12
 110              		.cfi_offset 6, -8
 111              		.cfi_offset 14, -4
 112              		.loc 1 349 0
 113 0006 0646     		mov	r6, r0
 114              		.loc 1 350 0
ARM GAS  /tmp/ccayzwpm.s 			page 3


 115 0008 446B     		ldr	r4, [r0, #52]
 116              	.LVL7:
 117              		.loc 1 354 0
 118 000a 02D0     		beq	.L12
 119              	.LVL8:
 120              	.LBB90:
 121              	.LBB91:
 122              		.loc 2 480 0
 123 000c 1648     		ldr	r0, .L18
 124              	.LVL9:
 125 000e FFF7FEFF 		bl	chSysHalt
 126              	.LVL10:
 127              	.L12:
 128              	.LBE91:
 129              	.LBE90:
 130              		.loc 1 361 0
 131 0012 F36A     		ldr	r3, [r6, #44]
 132 0014 1A68     		ldr	r2, [r3]
 133 0016 1168     		ldr	r1, [r2]
 134 0018 21F01F01 		bic	r1, r1, #31
 135 001c 1160     		str	r1, [r2]
 136              	.L13:
 137              		.loc 1 361 0 is_stmt 0 discriminator 2
 138 001e 1568     		ldr	r5, [r2]
 139 0020 15F00105 		ands	r5, r5, #1
 140 0024 FBD1     		bne	.L13
 141              		.loc 1 361 0 discriminator 3
 142 0026 597A     		ldrb	r1, [r3, #9]	@ zero_extendqisi2
 143 0028 5A68     		ldr	r2, [r3, #4]
 144 002a 3D23     		movs	r3, #61
 145 002c 8B40     		lsls	r3, r3, r1
 146 002e 1360     		str	r3, [r2]
 147              		.loc 1 363 0 is_stmt 1 discriminator 3
 148 0030 6368     		ldr	r3, [r4, #4]
 149 0032 23F48053 		bic	r3, r3, #4096
 150 0036 6360     		str	r3, [r4, #4]
 151              		.loc 1 364 0 discriminator 3
 152 0038 2368     		ldr	r3, [r4]
 153 003a 23F48063 		bic	r3, r3, #1024
 154 003e 2360     		str	r3, [r4]
 155              		.loc 1 365 0 discriminator 3
 156 0040 2368     		ldr	r3, [r4]
 157 0042 43F40073 		orr	r3, r3, #512
 158 0046 2360     		str	r3, [r4]
 159              	.LVL11:
 160              	.LBB92:
 161              	.LBB93:
 162              	.LBB94:
 163              	.LBB95:
 164              	.LBB96:
 165              	.LBB97:
 166              	.LBB98:
 167              		.file 3 "../../modules/ChibiOS/os/common/ext/ARM/CMSIS/Core/Include/cmsis_gcc.h"
 168              		.loc 3 493 0 discriminator 3
 169 0048 2023     		movs	r3, #32
 170              	@ 493 "../../modules/ChibiOS/os/common/ext/ARM/CMSIS/Core/Include/cmsis_gcc.h" 1
 171 004a 83F31188 		MSR basepri, r3
ARM GAS  /tmp/ccayzwpm.s 			page 4


 172              	@ 0 "" 2
 173              		.thumb
 174              	.LBE98:
 175              	.LBE97:
 176              	.LBE96:
 177              	.LBE95:
 178              		.file 4 "../../modules/ChibiOS/os/rt/include/chsys.h"
 179              		.loc 4 396 0 discriminator 3
 180 004e FFF7FEFF 		bl	_stats_start_measure_crit_isr
 181              	.LVL12:
 182              	.LBE94:
 183              	.LBE93:
 184              	.LBE92:
 185              	.LBB99:
 186              	.LBB100:
 187              		.loc 2 775 0 discriminator 3
 188 0052 06F11C00 		add	r0, r6, #28
 189              	.LVL13:
 190 0056 2946     		mov	r1, r5
 191 0058 FFF7FEFF 		bl	chThdResumeI
 192              	.LVL14:
 193              	.LBE100:
 194              	.LBE99:
 195              	.LBB101:
 196              	.LBB102:
 197              	.LBB103:
 198              		.loc 4 416 0 discriminator 3
 199 005c FFF7FEFF 		bl	_stats_stop_measure_crit_isr
 200              	.LVL15:
 201              	.LBB104:
 202              	.LBB105:
 203              	.LBB106:
 204              	.LBB107:
 205              		.loc 3 493 0 discriminator 3
 206              	@ 493 "../../modules/ChibiOS/os/common/ext/ARM/CMSIS/Core/Include/cmsis_gcc.h" 1
 207 0060 85F31188 		MSR basepri, r5
 208              	@ 0 "" 2
 209              		.thumb
 210 0064 70BD     		pop	{r4, r5, r6, pc}
 211              	.LVL16:
 212              	.L19:
 213 0066 00BF     		.align	2
 214              	.L18:
 215 0068 00000000 		.word	.LC0
 216              	.LBE107:
 217              	.LBE106:
 218              	.LBE105:
 219              	.LBE104:
 220              	.LBE103:
 221              	.LBE102:
 222              	.LBE101:
 223              		.cfi_endproc
 224              	.LFE328:
 225              		.size	i2c_lld_serve_rx_end_irq, .-i2c_lld_serve_rx_end_irq
 226              		.section	.text.i2c_lld_serve_event_interrupt,"ax",%progbits
 227              		.align	1
 228              		.thumb
ARM GAS  /tmp/ccayzwpm.s 			page 5


 229              		.thumb_func
 230              		.type	i2c_lld_serve_event_interrupt, %function
 231              	i2c_lld_serve_event_interrupt:
 232              	.LFB327:
 233              		.loc 1 283 0
 234              		.cfi_startproc
 235              		@ args = 0, pretend = 0, frame = 0
 236              		@ frame_needed = 0, uses_anonymous_args = 0
 237              	.LVL17:
 238 0000 F8B5     		push	{r3, r4, r5, r6, r7, lr}
 239              		.cfi_def_cfa_offset 24
 240              		.cfi_offset 3, -24
 241              		.cfi_offset 4, -20
 242              		.cfi_offset 5, -16
 243              		.cfi_offset 6, -12
 244              		.cfi_offset 7, -8
 245              		.cfi_offset 14, -4
 246              		.loc 1 284 0
 247 0002 446B     		ldr	r4, [r0, #52]
 248              	.LVL18:
 249              		.loc 1 291 0
 250 0004 3E4A     		ldr	r2, .L50
 251              		.loc 1 285 0
 252 0006 A369     		ldr	r3, [r4, #24]
 253              	.LVL19:
 254              		.loc 1 286 0
 255 0008 6669     		ldr	r6, [r4, #20]
 256              	.LVL20:
 257              		.loc 1 291 0
 258 000a 46EA0343 		orr	r3, r6, r3, lsl #16
 259              	.LVL21:
 260 000e 23F07F43 		bic	r3, r3, #-16777216
 261 0012 9342     		cmp	r3, r2
 262              		.loc 1 283 0
 263 0014 0546     		mov	r5, r0
 264              		.loc 1 291 0
 265 0016 19D0     		beq	.L22
 266 0018 06D8     		bhi	.L23
 267 001a 073A     		subs	r2, r2, #7
 268 001c 9342     		cmp	r3, r2
 269 001e 0AD0     		beq	.L24
 270 0020 0132     		adds	r2, r2, #1
 271 0022 9342     		cmp	r3, r2
 272 0024 17D0     		beq	.L25
 273 0026 5AE0     		b	.L21
 274              	.L23:
 275 0028 364A     		ldr	r2, .L50+4
 276 002a 9342     		cmp	r3, r2
 277 002c 28D0     		beq	.L26
 278 002e 0232     		adds	r2, r2, #2
 279 0030 9342     		cmp	r3, r2
 280 0032 30D0     		beq	.L27
 281 0034 53E0     		b	.L21
 282              	.L24:
 283              		.loc 1 293 0
 284 0036 038C     		ldrh	r3, [r0, #32]
 285 0038 1A0A     		lsrs	r2, r3, #8
ARM GAS  /tmp/ccayzwpm.s 			page 6


 286 003a 0AD0     		beq	.L48
 287              		.loc 1 295 0
 288 003c 03F00103 		and	r3, r3, #1
 289 0040 43F0F003 		orr	r3, r3, #240
 290 0044 02F00602 		and	r2, r2, #6
 291 0048 1343     		orrs	r3, r3, r2
 292 004a 02E0     		b	.L48
 293              	.L22:
 294              		.loc 1 302 0
 295 004c 038C     		ldrh	r3, [r0, #32]
 296 004e C3F34703 		ubfx	r3, r3, #1, #8
 297              	.L48:
 298 0052 2361     		str	r3, [r4, #16]
 299              		.loc 1 303 0
 300 0054 4EE0     		b	.L29
 301              	.L25:
 302              		.loc 1 305 0
 303 0056 6368     		ldr	r3, [r4, #4]
 304 0058 23F40073 		bic	r3, r3, #512
 305 005c 6360     		str	r3, [r4, #4]
 306              		.loc 1 306 0
 307 005e C36A     		ldr	r3, [r0, #44]
 308 0060 1B68     		ldr	r3, [r3]
 309 0062 1A68     		ldr	r2, [r3]
 310 0064 42F00102 		orr	r2, r2, #1
 311 0068 1A60     		str	r2, [r3]
 312              		.loc 1 307 0
 313 006a 6268     		ldr	r2, [r4, #4]
 314 006c 42F48052 		orr	r2, r2, #4096
 315 0070 6260     		str	r2, [r4, #4]
 316              		.loc 1 308 0
 317 0072 5B68     		ldr	r3, [r3, #4]
 318 0074 012B     		cmp	r3, #1
 319 0076 3DD8     		bhi	.L29
 320              		.loc 1 309 0
 321 0078 2368     		ldr	r3, [r4]
 322 007a 23F48063 		bic	r3, r3, #1024
 323 007e 38E0     		b	.L49
 324              	.L26:
 325              		.loc 1 312 0
 326 0080 6368     		ldr	r3, [r4, #4]
 327 0082 23F40073 		bic	r3, r3, #512
 328 0086 6360     		str	r3, [r4, #4]
 329              		.loc 1 313 0
 330 0088 036B     		ldr	r3, [r0, #48]
 331 008a 1A68     		ldr	r2, [r3]
 332 008c 1368     		ldr	r3, [r2]
 333 008e 43F00103 		orr	r3, r3, #1
 334 0092 1360     		str	r3, [r2]
 335              		.loc 1 314 0
 336 0094 2EE0     		b	.L29
 337              	.L27:
 338              		.loc 1 317 0
 339 0096 C36A     		ldr	r3, [r0, #44]
 340 0098 1B68     		ldr	r3, [r3]
 341 009a 5F68     		ldr	r7, [r3, #4]
 342 009c 47B1     		cbz	r7, .L31
ARM GAS  /tmp/ccayzwpm.s 			page 7


 343              		.loc 1 319 0
 344 009e 038C     		ldrh	r3, [r0, #32]
 345 00a0 43F00103 		orr	r3, r3, #1
 346 00a4 0384     		strh	r3, [r0, #32]	@ movhi
 347              		.loc 1 320 0
 348 00a6 2368     		ldr	r3, [r4]
 349 00a8 43F4A063 		orr	r3, r3, #1280
 350 00ac 2360     		str	r3, [r4]
 351              		.loc 1 321 0
 352 00ae F8BD     		pop	{r3, r4, r5, r6, r7, pc}
 353              	.LVL22:
 354              	.L31:
 355              		.loc 1 323 0
 356 00b0 6368     		ldr	r3, [r4, #4]
 357 00b2 23F40073 		bic	r3, r3, #512
 358 00b6 6360     		str	r3, [r4, #4]
 359              		.loc 1 324 0
 360 00b8 2368     		ldr	r3, [r4]
 361 00ba 43F40073 		orr	r3, r3, #512
 362 00be 2360     		str	r3, [r4]
 363              	.LVL23:
 364              	.LBB126:
 365              	.LBB127:
 366              	.LBB128:
 367              	.LBB129:
 368              	.LBB130:
 369              	.LBB131:
 370              	.LBB132:
 371              		.loc 3 493 0
 372 00c0 2023     		movs	r3, #32
 373              	@ 493 "../../modules/ChibiOS/os/common/ext/ARM/CMSIS/Core/Include/cmsis_gcc.h" 1
 374 00c2 83F31188 		MSR basepri, r3
 375              	@ 0 "" 2
 376              		.thumb
 377              	.LBE132:
 378              	.LBE131:
 379              	.LBE130:
 380              	.LBE129:
 381              		.loc 4 396 0
 382 00c6 FFF7FEFF 		bl	_stats_start_measure_crit_isr
 383              	.LVL24:
 384              	.LBE128:
 385              	.LBE127:
 386              	.LBE126:
 387              	.LBB133:
 388              	.LBB134:
 389              		.loc 2 775 0
 390 00ca 05F11C00 		add	r0, r5, #28
 391              	.LVL25:
 392 00ce 3946     		mov	r1, r7
 393 00d0 FFF7FEFF 		bl	chThdResumeI
 394              	.LVL26:
 395              	.LBE134:
 396              	.LBE133:
 397              	.LBB135:
 398              	.LBB136:
 399              	.LBB137:
ARM GAS  /tmp/ccayzwpm.s 			page 8


 400              		.loc 4 416 0
 401 00d4 FFF7FEFF 		bl	_stats_stop_measure_crit_isr
 402              	.LVL27:
 403              	.LBB138:
 404              	.LBB139:
 405              	.LBB140:
 406              	.LBB141:
 407              		.loc 3 493 0
 408              	@ 493 "../../modules/ChibiOS/os/common/ext/ARM/CMSIS/Core/Include/cmsis_gcc.h" 1
 409 00d8 87F31188 		MSR basepri, r7
 410              	@ 0 "" 2
 411              		.thumb
 412 00dc 0AE0     		b	.L29
 413              	.LVL28:
 414              	.L21:
 415              	.LBE141:
 416              	.LBE140:
 417              	.LBE139:
 418              	.LBE138:
 419              	.LBE137:
 420              	.LBE136:
 421              	.LBE135:
 422              		.loc 1 328 0
 423 00de 3106     		lsls	r1, r6, #24
 424              		.loc 1 329 0
 425 00e0 44BF     		itt	mi
 426 00e2 0023     		movmi	r3, #0
 427 00e4 2361     		strmi	r3, [r4, #16]
 428              		.loc 1 330 0
 429 00e6 7207     		lsls	r2, r6, #29
 430              		.loc 1 331 0
 431 00e8 48BF     		it	mi
 432 00ea 2369     		ldrmi	r3, [r4, #16]
 433              		.loc 1 332 0
 434 00ec F306     		lsls	r3, r6, #27
 435 00ee 01D5     		bpl	.L29
 436              		.loc 1 333 0
 437 00f0 2368     		ldr	r3, [r4]
 438              	.L49:
 439 00f2 2360     		str	r3, [r4]
 440              	.LVL29:
 441              	.L29:
 442              		.loc 1 337 0
 443 00f4 16F00A0F 		tst	r6, #10
 444              		.loc 1 338 0
 445 00f8 18BF     		it	ne
 446 00fa A369     		ldrne	r3, [r4, #24]
 447 00fc F8BD     		pop	{r3, r4, r5, r6, r7, pc}
 448              	.LVL30:
 449              	.L51:
 450 00fe 00BF     		.align	2
 451              	.L50:
 452 0100 08000300 		.word	196616
 453 0104 82000700 		.word	458882
 454              		.cfi_endproc
 455              	.LFE327:
 456              		.size	i2c_lld_serve_event_interrupt, .-i2c_lld_serve_event_interrupt
ARM GAS  /tmp/ccayzwpm.s 			page 9


 457              		.section	.text.i2c_lld_serve_error_interrupt,"ax",%progbits
 458              		.align	1
 459              		.thumb
 460              		.thumb_func
 461              		.type	i2c_lld_serve_error_interrupt, %function
 462              	i2c_lld_serve_error_interrupt:
 463              	.LFB330:
 464              		.loc 1 403 0
 465              		.cfi_startproc
 466              		@ args = 0, pretend = 0, frame = 0
 467              		@ frame_needed = 0, uses_anonymous_args = 0
 468              	.LVL31:
 469              		.loc 1 406 0
 470 0000 036B     		ldr	r3, [r0, #48]
 471 0002 1A68     		ldr	r2, [r3]
 472              		.loc 1 403 0
 473 0004 10B5     		push	{r4, lr}
 474              		.cfi_def_cfa_offset 8
 475              		.cfi_offset 4, -8
 476              		.cfi_offset 14, -4
 477              		.loc 1 403 0
 478 0006 0446     		mov	r4, r0
 479              		.loc 1 406 0
 480 0008 1068     		ldr	r0, [r2]
 481              	.LVL32:
 482 000a 20F01F00 		bic	r0, r0, #31
 483 000e 1060     		str	r0, [r2]
 484              	.L53:
 485              		.loc 1 406 0 is_stmt 0 discriminator 2
 486 0010 1068     		ldr	r0, [r2]
 487 0012 C007     		lsls	r0, r0, #31
 488 0014 FCD4     		bmi	.L53
 489              		.loc 1 406 0 discriminator 3
 490 0016 587A     		ldrb	r0, [r3, #9]	@ zero_extendqisi2
 491 0018 5A68     		ldr	r2, [r3, #4]
 492 001a 3D23     		movs	r3, #61
 493 001c 8340     		lsls	r3, r3, r0
 494 001e 1360     		str	r3, [r2]
 495              		.loc 1 407 0 is_stmt 1 discriminator 3
 496 0020 E36A     		ldr	r3, [r4, #44]
 497 0022 1A68     		ldr	r2, [r3]
 498 0024 1068     		ldr	r0, [r2]
 499 0026 20F01F00 		bic	r0, r0, #31
 500 002a 1060     		str	r0, [r2]
 501              	.L54:
 502              		.loc 1 407 0 is_stmt 0 discriminator 2
 503 002c 1068     		ldr	r0, [r2]
 504 002e C007     		lsls	r0, r0, #31
 505 0030 FCD4     		bmi	.L54
 506              		.loc 1 407 0 discriminator 3
 507 0032 587A     		ldrb	r0, [r3, #9]	@ zero_extendqisi2
 508 0034 5A68     		ldr	r2, [r3, #4]
 509 0036 3D23     		movs	r3, #61
 510 0038 8340     		lsls	r3, r3, r0
 511 003a 1360     		str	r3, [r2]
 512              		.loc 1 411 0 is_stmt 1 discriminator 3
 513 003c 01F48073 		and	r3, r1, #256
ARM GAS  /tmp/ccayzwpm.s 			page 10


 514 0040 9BB2     		uxth	r3, r3
 515 0042 03B1     		cbz	r3, .L84
 516              		.loc 1 412 0
 517 0044 0123     		movs	r3, #1
 518              	.L84:
 519              		.loc 1 414 0
 520 0046 8805     		lsls	r0, r1, #22
 521              		.loc 1 412 0
 522 0048 A360     		str	r3, [r4, #8]
 523              		.loc 1 415 0
 524 004a 42BF     		ittt	mi
 525 004c A368     		ldrmi	r3, [r4, #8]
 526 004e 43F00203 		orrmi	r3, r3, #2
 527 0052 A360     		strmi	r3, [r4, #8]
 528              		.loc 1 417 0
 529 0054 4A05     		lsls	r2, r1, #21
 530 0056 0CD5     		bpl	.L58
 531              		.loc 1 418 0
 532 0058 636B     		ldr	r3, [r4, #52]
 533 005a 5A68     		ldr	r2, [r3, #4]
 534 005c 22F40072 		bic	r2, r2, #512
 535 0060 5A60     		str	r2, [r3, #4]
 536              		.loc 1 419 0
 537 0062 1A68     		ldr	r2, [r3]
 538 0064 42F40072 		orr	r2, r2, #512
 539 0068 1A60     		str	r2, [r3]
 540              		.loc 1 420 0
 541 006a A368     		ldr	r3, [r4, #8]
 542 006c 43F00403 		orr	r3, r3, #4
 543 0070 A360     		str	r3, [r4, #8]
 544              	.L58:
 545              		.loc 1 423 0
 546 0072 0B05     		lsls	r3, r1, #20
 547              		.loc 1 424 0
 548 0074 42BF     		ittt	mi
 549 0076 A368     		ldrmi	r3, [r4, #8]
 550 0078 43F00803 		orrmi	r3, r3, #8
 551 007c A360     		strmi	r3, [r4, #8]
 552              		.loc 1 426 0
 553 007e 4804     		lsls	r0, r1, #17
 554              		.loc 1 427 0
 555 0080 42BF     		ittt	mi
 556 0082 A368     		ldrmi	r3, [r4, #8]
 557 0084 43F02003 		orrmi	r3, r3, #32
 558 0088 A360     		strmi	r3, [r4, #8]
 559              		.loc 1 429 0
 560 008a CA04     		lsls	r2, r1, #19
 561              		.loc 1 430 0
 562 008c 42BF     		ittt	mi
 563 008e A368     		ldrmi	r3, [r4, #8]
 564 0090 43F01003 		orrmi	r3, r3, #16
 565 0094 A360     		strmi	r3, [r4, #8]
 566              		.loc 1 432 0
 567 0096 0B04     		lsls	r3, r1, #16
 568              		.loc 1 433 0
 569 0098 42BF     		ittt	mi
 570 009a A368     		ldrmi	r3, [r4, #8]
ARM GAS  /tmp/ccayzwpm.s 			page 11


 571 009c 43F04003 		orrmi	r3, r3, #64
 572 00a0 A360     		strmi	r3, [r4, #8]
 573              		.loc 1 436 0
 574 00a2 A368     		ldr	r3, [r4, #8]
 575 00a4 7BB1     		cbz	r3, .L52
 576              	.LVL33:
 577              	.LBB160:
 578              	.LBB161:
 579              	.LBB162:
 580              	.LBB163:
 581              	.LBB164:
 582              	.LBB165:
 583              	.LBB166:
 584              		.loc 3 493 0
 585 00a6 2023     		movs	r3, #32
 586              	@ 493 "../../modules/ChibiOS/os/common/ext/ARM/CMSIS/Core/Include/cmsis_gcc.h" 1
 587 00a8 83F31188 		MSR basepri, r3
 588              	@ 0 "" 2
 589              		.thumb
 590              	.LBE166:
 591              	.LBE165:
 592              	.LBE164:
 593              	.LBE163:
 594              		.loc 4 396 0
 595 00ac FFF7FEFF 		bl	_stats_start_measure_crit_isr
 596              	.LVL34:
 597              	.LBE162:
 598              	.LBE161:
 599              	.LBE160:
 600              	.LBB167:
 601              	.LBB168:
 602              		.loc 2 775 0
 603 00b0 04F11C00 		add	r0, r4, #28
 604              	.LVL35:
 605 00b4 6FF00101 		mvn	r1, #1
 606 00b8 FFF7FEFF 		bl	chThdResumeI
 607              	.LVL36:
 608              	.LBE168:
 609              	.LBE167:
 610              	.LBB169:
 611              	.LBB170:
 612              	.LBB171:
 613              		.loc 4 416 0
 614 00bc FFF7FEFF 		bl	_stats_stop_measure_crit_isr
 615              	.LVL37:
 616              	.LBB172:
 617              	.LBB173:
 618              	.LBB174:
 619              	.LBB175:
 620              		.loc 3 493 0
 621 00c0 0023     		movs	r3, #0
 622              	@ 493 "../../modules/ChibiOS/os/common/ext/ARM/CMSIS/Core/Include/cmsis_gcc.h" 1
 623 00c2 83F31188 		MSR basepri, r3
 624              	@ 0 "" 2
 625              	.LVL38:
 626              		.thumb
 627              	.L52:
ARM GAS  /tmp/ccayzwpm.s 			page 12


 628 00c6 10BD     		pop	{r4, pc}
 629              	.LBE175:
 630              	.LBE174:
 631              	.LBE173:
 632              	.LBE172:
 633              	.LBE171:
 634              	.LBE170:
 635              	.LBE169:
 636              		.cfi_endproc
 637              	.LFE330:
 638              		.size	i2c_lld_serve_error_interrupt, .-i2c_lld_serve_error_interrupt
 639              		.section	.text.VectorBC,"ax",%progbits
 640              		.align	1
 641              		.global	VectorBC
 642              		.thumb
 643              		.thumb_func
 644              		.type	VectorBC, %function
 645              	VectorBC:
 646              	.LFB331:
 647              		.loc 1 450 0
 648              		.cfi_startproc
 649              		@ args = 0, pretend = 0, frame = 0
 650              		@ frame_needed = 0, uses_anonymous_args = 0
 651 0000 08B5     		push	{r3, lr}
 652              		.cfi_def_cfa_offset 8
 653              		.cfi_offset 3, -8
 654              		.cfi_offset 14, -4
 655              		.loc 1 452 0
 656 0002 FFF7FEFF 		bl	_stats_increase_irq
 657              	.LVL39:
 658              		.loc 1 454 0
 659 0006 0348     		ldr	r0, .L86
 660 0008 FFF7FEFF 		bl	i2c_lld_serve_event_interrupt
 661              	.LVL40:
 662              		.loc 1 457 0
 663 000c BDE80840 		pop	{r3, lr}
 664              		.cfi_restore 14
 665              		.cfi_restore 3
 666              		.cfi_def_cfa_offset 0
 667              		.loc 1 456 0
 668 0010 FFF7FEBF 		b	_port_irq_epilogue
 669              	.LVL41:
 670              	.L87:
 671              		.align	2
 672              	.L86:
 673 0014 00000000 		.word	.LANCHOR0
 674              		.cfi_endproc
 675              	.LFE331:
 676              		.size	VectorBC, .-VectorBC
 677              		.section	.text.VectorC0,"ax",%progbits
 678              		.align	1
 679              		.global	VectorC0
 680              		.thumb
 681              		.thumb_func
 682              		.type	VectorC0, %function
 683              	VectorC0:
 684              	.LFB332:
ARM GAS  /tmp/ccayzwpm.s 			page 13


 685              		.loc 1 462 0
 686              		.cfi_startproc
 687              		@ args = 0, pretend = 0, frame = 0
 688              		@ frame_needed = 0, uses_anonymous_args = 0
 689 0000 38B5     		push	{r3, r4, r5, lr}
 690              		.cfi_def_cfa_offset 16
 691              		.cfi_offset 3, -16
 692              		.cfi_offset 4, -12
 693              		.cfi_offset 5, -8
 694              		.cfi_offset 14, -4
 695              		.loc 1 463 0
 696 0002 094D     		ldr	r5, .L89
 697 0004 6B6B     		ldr	r3, [r5, #52]
 698 0006 5C69     		ldr	r4, [r3, #20]
 699              	.LVL42:
 700              		.loc 1 465 0
 701 0008 FFF7FEFF 		bl	_stats_increase_irq
 702              	.LVL43:
 703 000c A1B2     		uxth	r1, r4
 704              		.loc 1 467 0
 705 000e 6A6B     		ldr	r2, [r5, #52]
 706 0010 01F45F43 		and	r3, r1, #57088
 707 0014 DB43     		mvns	r3, r3
 708 0016 5361     		str	r3, [r2, #20]
 709              		.loc 1 468 0
 710 0018 2846     		mov	r0, r5
 711 001a FFF7FEFF 		bl	i2c_lld_serve_error_interrupt
 712              	.LVL44:
 713              		.loc 1 471 0
 714 001e BDE83840 		pop	{r3, r4, r5, lr}
 715              		.cfi_restore 14
 716              		.cfi_restore 5
 717              		.cfi_restore 4
 718              		.cfi_restore 3
 719              		.cfi_def_cfa_offset 0
 720              	.LVL45:
 721              		.loc 1 470 0
 722 0022 FFF7FEBF 		b	_port_irq_epilogue
 723              	.LVL46:
 724              	.L90:
 725 0026 00BF     		.align	2
 726              	.L89:
 727 0028 00000000 		.word	.LANCHOR0
 728              		.cfi_endproc
 729              	.LFE332:
 730              		.size	VectorC0, .-VectorC0
 731              		.section	.text.VectorC4,"ax",%progbits
 732              		.align	1
 733              		.global	VectorC4
 734              		.thumb
 735              		.thumb_func
 736              		.type	VectorC4, %function
 737              	VectorC4:
 738              	.LFB333:
 739              		.loc 1 480 0
 740              		.cfi_startproc
 741              		@ args = 0, pretend = 0, frame = 0
ARM GAS  /tmp/ccayzwpm.s 			page 14


 742              		@ frame_needed = 0, uses_anonymous_args = 0
 743 0000 08B5     		push	{r3, lr}
 744              		.cfi_def_cfa_offset 8
 745              		.cfi_offset 3, -8
 746              		.cfi_offset 14, -4
 747              		.loc 1 482 0
 748 0002 FFF7FEFF 		bl	_stats_increase_irq
 749              	.LVL47:
 750              		.loc 1 484 0
 751 0006 0348     		ldr	r0, .L92
 752 0008 FFF7FEFF 		bl	i2c_lld_serve_event_interrupt
 753              	.LVL48:
 754              		.loc 1 487 0
 755 000c BDE80840 		pop	{r3, lr}
 756              		.cfi_restore 14
 757              		.cfi_restore 3
 758              		.cfi_def_cfa_offset 0
 759              		.loc 1 486 0
 760 0010 FFF7FEBF 		b	_port_irq_epilogue
 761              	.LVL49:
 762              	.L93:
 763              		.align	2
 764              	.L92:
 765 0014 00000000 		.word	.LANCHOR1
 766              		.cfi_endproc
 767              	.LFE333:
 768              		.size	VectorC4, .-VectorC4
 769              		.section	.text.VectorC8,"ax",%progbits
 770              		.align	1
 771              		.global	VectorC8
 772              		.thumb
 773              		.thumb_func
 774              		.type	VectorC8, %function
 775              	VectorC8:
 776              	.LFB334:
 777              		.loc 1 494 0
 778              		.cfi_startproc
 779              		@ args = 0, pretend = 0, frame = 0
 780              		@ frame_needed = 0, uses_anonymous_args = 0
 781 0000 38B5     		push	{r3, r4, r5, lr}
 782              		.cfi_def_cfa_offset 16
 783              		.cfi_offset 3, -16
 784              		.cfi_offset 4, -12
 785              		.cfi_offset 5, -8
 786              		.cfi_offset 14, -4
 787              		.loc 1 495 0
 788 0002 094D     		ldr	r5, .L95
 789 0004 6B6B     		ldr	r3, [r5, #52]
 790 0006 5C69     		ldr	r4, [r3, #20]
 791              	.LVL50:
 792              		.loc 1 497 0
 793 0008 FFF7FEFF 		bl	_stats_increase_irq
 794              	.LVL51:
 795 000c A1B2     		uxth	r1, r4
 796              		.loc 1 499 0
 797 000e 6A6B     		ldr	r2, [r5, #52]
 798 0010 01F45F43 		and	r3, r1, #57088
ARM GAS  /tmp/ccayzwpm.s 			page 15


 799 0014 DB43     		mvns	r3, r3
 800 0016 5361     		str	r3, [r2, #20]
 801              		.loc 1 500 0
 802 0018 2846     		mov	r0, r5
 803 001a FFF7FEFF 		bl	i2c_lld_serve_error_interrupt
 804              	.LVL52:
 805              		.loc 1 503 0
 806 001e BDE83840 		pop	{r3, r4, r5, lr}
 807              		.cfi_restore 14
 808              		.cfi_restore 5
 809              		.cfi_restore 4
 810              		.cfi_restore 3
 811              		.cfi_def_cfa_offset 0
 812              	.LVL53:
 813              		.loc 1 502 0
 814 0022 FFF7FEBF 		b	_port_irq_epilogue
 815              	.LVL54:
 816              	.L96:
 817 0026 00BF     		.align	2
 818              	.L95:
 819 0028 00000000 		.word	.LANCHOR1
 820              		.cfi_endproc
 821              	.LFE334:
 822              		.size	VectorC8, .-VectorC8
 823              		.section	.text.i2c_lld_init,"ax",%progbits
 824              		.align	1
 825              		.global	i2c_lld_init
 826              		.thumb
 827              		.thumb_func
 828              		.type	i2c_lld_init, %function
 829              	i2c_lld_init:
 830              	.LFB335:
 831              		.loc 1 547 0
 832              		.cfi_startproc
 833              		@ args = 0, pretend = 0, frame = 0
 834              		@ frame_needed = 0, uses_anonymous_args = 0
 835 0000 38B5     		push	{r3, r4, r5, lr}
 836              		.cfi_def_cfa_offset 16
 837              		.cfi_offset 3, -16
 838              		.cfi_offset 4, -12
 839              		.cfi_offset 5, -8
 840              		.cfi_offset 14, -4
 841              		.loc 1 550 0
 842 0002 0A4D     		ldr	r5, .L98
 843 0004 2846     		mov	r0, r5
 844 0006 FFF7FEFF 		bl	i2cObjectInit
 845              	.LVL55:
 846              		.loc 1 551 0
 847 000a 0024     		movs	r4, #0
 848              		.loc 1 552 0
 849 000c 084B     		ldr	r3, .L98+4
 850 000e 6B63     		str	r3, [r5, #52]
 851              		.loc 1 551 0
 852 0010 EC61     		str	r4, [r5, #28]
 853              		.loc 1 553 0
 854 0012 EC62     		str	r4, [r5, #44]
 855              		.loc 1 554 0
ARM GAS  /tmp/ccayzwpm.s 			page 16


 856 0014 2C63     		str	r4, [r5, #48]
 857              		.loc 1 558 0
 858 0016 074D     		ldr	r5, .L98+8
 859 0018 2846     		mov	r0, r5
 860 001a FFF7FEFF 		bl	i2cObjectInit
 861              	.LVL56:
 862              		.loc 1 560 0
 863 001e 064B     		ldr	r3, .L98+12
 864              		.loc 1 559 0
 865 0020 EC61     		str	r4, [r5, #28]
 866              		.loc 1 560 0
 867 0022 6B63     		str	r3, [r5, #52]
 868              		.loc 1 561 0
 869 0024 EC62     		str	r4, [r5, #44]
 870              		.loc 1 562 0
 871 0026 2C63     		str	r4, [r5, #48]
 872 0028 38BD     		pop	{r3, r4, r5, pc}
 873              	.L99:
 874 002a 00BF     		.align	2
 875              	.L98:
 876 002c 00000000 		.word	.LANCHOR0
 877 0030 00540040 		.word	1073763328
 878 0034 00000000 		.word	.LANCHOR1
 879 0038 00580040 		.word	1073764352
 880              		.cfi_endproc
 881              	.LFE335:
 882              		.size	i2c_lld_init, .-i2c_lld_init
 883              		.section	.text.i2c_lld_start,"ax",%progbits
 884              		.align	1
 885              		.global	i2c_lld_start
 886              		.thumb
 887              		.thumb_func
 888              		.type	i2c_lld_start, %function
 889              	i2c_lld_start:
 890              	.LFB336:
 891              		.loc 1 581 0
 892              		.cfi_startproc
 893              		@ args = 0, pretend = 0, frame = 0
 894              		@ frame_needed = 0, uses_anonymous_args = 0
 895              	.LVL57:
 896 0000 F8B5     		push	{r3, r4, r5, r6, r7, lr}
 897              		.cfi_def_cfa_offset 24
 898              		.cfi_offset 3, -24
 899              		.cfi_offset 4, -20
 900              		.cfi_offset 5, -16
 901              		.cfi_offset 6, -12
 902              		.cfi_offset 7, -8
 903              		.cfi_offset 14, -4
 904              		.loc 1 585 0
 905 0002 0378     		ldrb	r3, [r0]	@ zero_extendqisi2
 906              		.loc 1 582 0
 907 0004 456B     		ldr	r5, [r0, #52]
 908              	.LVL58:
 909              		.loc 1 585 0
 910 0006 012B     		cmp	r3, #1
 911              		.loc 1 581 0
 912 0008 0446     		mov	r4, r0
ARM GAS  /tmp/ccayzwpm.s 			page 17


 913              		.loc 1 585 0
 914 000a 73D1     		bne	.L102
 915              		.loc 1 587 0
 916 000c 40F25643 		movw	r3, #1110
 917 0010 8362     		str	r3, [r0, #40]
 918              		.loc 1 591 0
 919 0012 40F21643 		movw	r3, #1046
 920 0016 4362     		str	r3, [r0, #36]
 921              		.loc 1 597 0
 922 0018 6A4B     		ldr	r3, .L117
 923 001a 9842     		cmp	r0, r3
 924 001c 32D1     		bne	.L103
 925              		.loc 1 598 0
 926 001e 6A4E     		ldr	r6, .L117+4
 927              		.loc 1 600 0
 928 0020 6A4A     		ldr	r2, .L117+8
 929              		.loc 1 598 0
 930 0022 336A     		ldr	r3, [r6, #32]
 931 0024 43F40013 		orr	r3, r3, #2097152
 932 0028 3362     		str	r3, [r6, #32]
 933 002a 336A     		ldr	r3, [r6, #32]
 934 002c 23F40013 		bic	r3, r3, #2097152
 935 0030 3362     		str	r3, [r6, #32]
 936 0032 336A     		ldr	r3, [r6, #32]
 937              		.loc 1 600 0
 938 0034 0521     		movs	r1, #5
 939 0036 2346     		mov	r3, r4
 940 0038 0020     		movs	r0, #0
 941              	.LVL59:
 942 003a FFF7FEFF 		bl	dmaStreamAllocI
 943              	.LVL60:
 944              		.loc 1 605 0
 945 003e 644A     		ldr	r2, .L117+12
 946              		.loc 1 600 0
 947 0040 E062     		str	r0, [r4, #44]
 948              		.loc 1 605 0
 949 0042 0521     		movs	r1, #5
 950 0044 2346     		mov	r3, r4
 951 0046 0720     		movs	r0, #7
 952 0048 FFF7FEFF 		bl	dmaStreamAllocI
 953              	.LVL61:
 954              		.loc 1 611 0
 955 004c 336C     		ldr	r3, [r6, #64]
 956              		.loc 1 605 0
 957 004e 2063     		str	r0, [r4, #48]
 958              		.loc 1 611 0
 959 0050 43F40013 		orr	r3, r3, #2097152
 960 0054 3364     		str	r3, [r6, #64]
 961 0056 336E     		ldr	r3, [r6, #96]
 962 0058 43F40013 		orr	r3, r3, #2097152
 963 005c 3366     		str	r3, [r6, #96]
 964              		.loc 1 612 0
 965 005e 1F20     		movs	r0, #31
 966 0060 0521     		movs	r1, #5
 967              		.loc 1 611 0
 968 0062 336E     		ldr	r3, [r6, #96]
 969              		.loc 1 612 0
ARM GAS  /tmp/ccayzwpm.s 			page 18


 970 0064 FFF7FEFF 		bl	nvicEnableVector
 971              	.LVL62:
 972              		.loc 1 613 0
 973 0068 2020     		movs	r0, #32
 974 006a 0521     		movs	r1, #5
 975 006c FFF7FEFF 		bl	nvicEnableVector
 976              	.LVL63:
 977              		.loc 1 615 0
 978 0070 636A     		ldr	r3, [r4, #36]
 979 0072 43F00073 		orr	r3, r3, #33554432
 980 0076 43F44033 		orr	r3, r3, #196608
 981 007a 6362     		str	r3, [r4, #36]
 982              		.loc 1 617 0
 983 007c A36A     		ldr	r3, [r4, #40]
 984 007e 43F00073 		orr	r3, r3, #33554432
 985 0082 34E0     		b	.L115
 986              	.LVL64:
 987              	.L103:
 988              		.loc 1 623 0
 989 0084 534B     		ldr	r3, .L117+16
 990 0086 9842     		cmp	r0, r3
 991 0088 34D1     		bne	.L102
 992              		.loc 1 624 0
 993 008a 4F4E     		ldr	r6, .L117+4
 994              		.loc 1 626 0
 995 008c 4F4A     		ldr	r2, .L117+8
 996              		.loc 1 624 0
 997 008e 336A     		ldr	r3, [r6, #32]
 998 0090 43F48003 		orr	r3, r3, #4194304
 999 0094 3362     		str	r3, [r6, #32]
 1000 0096 336A     		ldr	r3, [r6, #32]
 1001 0098 23F48003 		bic	r3, r3, #4194304
 1002 009c 3362     		str	r3, [r6, #32]
 1003 009e 336A     		ldr	r3, [r6, #32]
 1004              		.loc 1 626 0
 1005 00a0 0521     		movs	r1, #5
 1006 00a2 2346     		mov	r3, r4
 1007 00a4 0320     		movs	r0, #3
 1008              	.LVL65:
 1009 00a6 FFF7FEFF 		bl	dmaStreamAllocI
 1010              	.LVL66:
 1011              		.loc 1 631 0
 1012 00aa 494A     		ldr	r2, .L117+12
 1013              		.loc 1 626 0
 1014 00ac E062     		str	r0, [r4, #44]
 1015              		.loc 1 631 0
 1016 00ae 0521     		movs	r1, #5
 1017 00b0 2346     		mov	r3, r4
 1018 00b2 0720     		movs	r0, #7
 1019 00b4 FFF7FEFF 		bl	dmaStreamAllocI
 1020              	.LVL67:
 1021              		.loc 1 637 0
 1022 00b8 336C     		ldr	r3, [r6, #64]
 1023              		.loc 1 631 0
 1024 00ba 2063     		str	r0, [r4, #48]
 1025              		.loc 1 637 0
 1026 00bc 43F48003 		orr	r3, r3, #4194304
ARM GAS  /tmp/ccayzwpm.s 			page 19


 1027 00c0 3364     		str	r3, [r6, #64]
 1028 00c2 336E     		ldr	r3, [r6, #96]
 1029 00c4 43F48003 		orr	r3, r3, #4194304
 1030 00c8 3366     		str	r3, [r6, #96]
 1031              		.loc 1 638 0
 1032 00ca 2120     		movs	r0, #33
 1033 00cc 0521     		movs	r1, #5
 1034              		.loc 1 637 0
 1035 00ce 336E     		ldr	r3, [r6, #96]
 1036              		.loc 1 638 0
 1037 00d0 FFF7FEFF 		bl	nvicEnableVector
 1038              	.LVL68:
 1039              		.loc 1 639 0
 1040 00d4 2220     		movs	r0, #34
 1041 00d6 0521     		movs	r1, #5
 1042 00d8 FFF7FEFF 		bl	nvicEnableVector
 1043              	.LVL69:
 1044              		.loc 1 641 0
 1045 00dc 636A     		ldr	r3, [r4, #36]
 1046 00de 43F06063 		orr	r3, r3, #234881024
 1047 00e2 43F44033 		orr	r3, r3, #196608
 1048 00e6 6362     		str	r3, [r4, #36]
 1049              		.loc 1 643 0
 1050 00e8 A36A     		ldr	r3, [r4, #40]
 1051 00ea 43F06063 		orr	r3, r3, #234881024
 1052              	.L115:
 1053 00ee 43F44033 		orr	r3, r3, #196608
 1054 00f2 A362     		str	r3, [r4, #40]
 1055              	.L102:
 1056              		.loc 1 676 0
 1057 00f4 E36A     		ldr	r3, [r4, #44]
 1058 00f6 1A68     		ldr	r2, [r3]
 1059 00f8 05F11003 		add	r3, r5, #16
 1060 00fc 9360     		str	r3, [r2, #8]
 1061              		.loc 1 677 0
 1062 00fe 226B     		ldr	r2, [r4, #48]
 1063 0100 1268     		ldr	r2, [r2]
 1064 0102 9360     		str	r3, [r2, #8]
 1065              		.loc 1 680 0
 1066 0104 4FF40043 		mov	r3, #32768
 1067 0108 2B60     		str	r3, [r5]
 1068              		.loc 1 682 0
 1069 010a 4FF41062 		mov	r2, #2304
 1070              		.loc 1 681 0
 1071 010e 0023     		movs	r3, #0
 1072 0110 2B60     		str	r3, [r5]
 1073              		.loc 1 682 0
 1074 0112 6A60     		str	r2, [r5, #4]
 1075              	.LVL70:
 1076              	.LBB182:
 1077              	.LBB183:
 1078              		.loc 1 144 0
 1079 0114 626B     		ldr	r2, [r4, #52]
 1080              	.LVL71:
 1081              		.loc 1 146 0
 1082 0116 6468     		ldr	r4, [r4, #4]
 1083              	.LVL72:
ARM GAS  /tmp/ccayzwpm.s 			page 20


 1084              		.loc 1 154 0
 1085 0118 5768     		ldr	r7, [r2, #4]
 1086              		.loc 1 146 0
 1087 011a 6168     		ldr	r1, [r4, #4]
 1088              	.LVL73:
 1089              		.loc 1 147 0
 1090 011c 267A     		ldrb	r6, [r4, #8]	@ zero_extendqisi2
 1091              	.LVL74:
 1092              		.loc 1 154 0
 1093 011e 4FF6C070 		movw	r0, #65472
 1094 0122 3840     		ands	r0, r0, r7
 1095 0124 5060     		str	r0, [r2, #4]
 1096              		.loc 1 155 0
 1097 0126 5068     		ldr	r0, [r2, #4]
 1098 0128 40F02A00 		orr	r0, r0, #42
 1099 012c 5060     		str	r0, [r2, #4]
 1100              	.LVL75:
 1101              		.loc 1 161 0
 1102 012e 2A48     		ldr	r0, .L117+20
 1103 0130 8142     		cmp	r1, r0
 1104 0132 07DC     		bgt	.L105
 1105              	.LVL76:
 1106              		.loc 1 168 0
 1107 0134 4900     		lsls	r1, r1, #1
 1108              	.LVL77:
 1109 0136 294B     		ldr	r3, .L117+24
 1110 0138 B3FBF1F3 		udiv	r3, r3, r1
 1111              		.loc 1 175 0
 1112 013c 2B21     		movs	r1, #43
 1113              		.loc 1 172 0
 1114 013e C3F30B03 		ubfx	r3, r3, #0, #12
 1115              	.LVL78:
 1116 0142 1FE0     		b	.L116
 1117              	.LVL79:
 1118              	.L105:
 1119              		.loc 1 177 0
 1120 0144 2648     		ldr	r0, .L117+28
 1121 0146 8142     		cmp	r1, r0
 1122 0148 1DDC     		bgt	.L106
 1123              		.loc 1 183 0
 1124 014a 022E     		cmp	r6, #2
 1125 014c 09D1     		bne	.L107
 1126              		.loc 1 187 0
 1127 014e 00F11E70 		add	r0, r0, #41418752
 1128 0152 01EB4101 		add	r1, r1, r1, lsl #1
 1129              	.LVL80:
 1130 0156 00F53130 		add	r0, r0, #181248
 1131 015a B0FBF1F1 		udiv	r1, r0, r1
 1132 015e 89B2     		uxth	r1, r1
 1133              	.LVL81:
 1134 0160 0CE0     		b	.L108
 1135              	.LVL82:
 1136              	.L107:
 1137              		.loc 1 189 0
 1138 0162 032E     		cmp	r6, #3
 1139              		.loc 1 193 0
 1140 0164 01BF     		itttt	eq
ARM GAS  /tmp/ccayzwpm.s 			page 21


 1141 0166 1923     		moveq	r3, #25
 1142 0168 5943     		muleq	r1, r3, r1
 1143              	.LVL83:
 1144 016a 1C48     		ldreq	r0, .L117+24
 1145 016c B0FBF1F3 		udiveq	r3, r0, r1
 1146              		.loc 1 159 0
 1147 0170 12BF     		itee	ne
 1148 0172 40F6FF71 		movwne	r1, #4095
 1149              		.loc 1 193 0
 1150 0176 99B2     		uxtheq	r1, r3
 1151              	.LVL84:
 1152              		.loc 1 194 0
 1153 0178 4FF48043 		moveq	r3, #16384
 1154              	.LVL85:
 1155              	.L108:
 1156              		.loc 1 199 0
 1157 017c 0B43     		orrs	r3, r3, r1
 1158              	.LVL86:
 1159 017e 43F40043 		orr	r3, r3, #32768
 1160              	.LVL87:
 1161              		.loc 1 202 0
 1162 0182 0D21     		movs	r1, #13
 1163              	.LVL88:
 1164              	.L116:
 1165 0184 1162     		str	r1, [r2, #32]
 1166              	.LVL89:
 1167              	.L106:
 1168              		.loc 1 207 0
 1169 0186 D361     		str	r3, [r2, #28]
 1170              	.LVL90:
 1171              	.LBE183:
 1172              	.LBE182:
 1173              	.LBB184:
 1174              	.LBB185:
 1175              		.loc 1 244 0
 1176 0188 1F23     		movs	r3, #31
 1177              	.LVL91:
 1178 018a 5362     		str	r3, [r2, #36]
 1179              	.LVL92:
 1180              	.LBE185:
 1181              	.LBE184:
 1182              	.LBB186:
 1183              	.LBB187:
 1184              		.loc 1 261 0
 1185 018c 2178     		ldrb	r1, [r4]	@ zero_extendqisi2
 1186              		.loc 1 260 0
 1187 018e 1368     		ldr	r3, [r2]
 1188              		.loc 1 261 0
 1189 0190 0229     		cmp	r1, #2
 1190              		.loc 1 260 0
 1191 0192 9BB2     		uxth	r3, r3
 1192              	.LVL93:
 1193              		.loc 1 261 0
 1194 0194 07D0     		beq	.L110
 1195 0196 0329     		cmp	r1, #3
 1196 0198 0BD0     		beq	.L111
 1197 019a 0129     		cmp	r1, #1
ARM GAS  /tmp/ccayzwpm.s 			page 22


 1198 019c 0BD1     		bne	.L109
 1199              		.loc 1 263 0
 1200 019e 23F00A03 		bic	r3, r3, #10
 1201              	.LVL94:
 1202 01a2 9BB2     		uxth	r3, r3
 1203              	.LVL95:
 1204 01a4 07E0     		b	.L109
 1205              	.L110:
 1206              	.LVL96:
 1207              		.loc 1 267 0
 1208 01a6 23F00803 		bic	r3, r3, #8
 1209              	.LVL97:
 1210 01aa 9BB2     		uxth	r3, r3
 1211 01ac 43F00203 		orr	r3, r3, #2
 1212              	.LVL98:
 1213 01b0 01E0     		b	.L109
 1214              	.L111:
 1215              		.loc 1 270 0
 1216 01b2 43F00A03 		orr	r3, r3, #10
 1217              	.LVL99:
 1218              	.L109:
 1219              		.loc 1 273 0
 1220 01b6 1360     		str	r3, [r2]
 1221              	.LVL100:
 1222              	.LBE187:
 1223              	.LBE186:
 1224              		.loc 1 690 0
 1225 01b8 2B68     		ldr	r3, [r5]
 1226              	.LVL101:
 1227 01ba 43F00103 		orr	r3, r3, #1
 1228 01be 2B60     		str	r3, [r5]
 1229 01c0 F8BD     		pop	{r3, r4, r5, r6, r7, pc}
 1230              	.LVL102:
 1231              	.L118:
 1232 01c2 00BF     		.align	2
 1233              	.L117:
 1234 01c4 00000000 		.word	.LANCHOR0
 1235 01c8 00380240 		.word	1073887232
 1236 01cc 00000000 		.word	i2c_lld_serve_rx_end_irq
 1237 01d0 00000000 		.word	i2c_lld_serve_tx_end_irq
 1238 01d4 00000000 		.word	.LANCHOR1
 1239 01d8 A0860100 		.word	100000
 1240 01dc 80DE8002 		.word	42000000
 1241 01e0 801A0600 		.word	400000
 1242              		.cfi_endproc
 1243              	.LFE336:
 1244              		.size	i2c_lld_start, .-i2c_lld_start
 1245              		.section	.text.i2c_lld_stop,"ax",%progbits
 1246              		.align	1
 1247              		.global	i2c_lld_stop
 1248              		.thumb
 1249              		.thumb_func
 1250              		.type	i2c_lld_stop, %function
 1251              	i2c_lld_stop:
 1252              	.LFB337:
 1253              		.loc 1 700 0
 1254              		.cfi_startproc
ARM GAS  /tmp/ccayzwpm.s 			page 23


 1255              		@ args = 0, pretend = 0, frame = 0
 1256              		@ frame_needed = 0, uses_anonymous_args = 0
 1257              	.LVL103:
 1258 0000 38B5     		push	{r3, r4, r5, lr}
 1259              		.cfi_def_cfa_offset 16
 1260              		.cfi_offset 3, -16
 1261              		.cfi_offset 4, -12
 1262              		.cfi_offset 5, -8
 1263              		.cfi_offset 14, -4
 1264              		.loc 1 703 0
 1265 0002 0378     		ldrb	r3, [r0]	@ zero_extendqisi2
 1266 0004 012B     		cmp	r3, #1
 1267              		.loc 1 700 0
 1268 0006 0446     		mov	r4, r0
 1269              		.loc 1 703 0
 1270 0008 50D0     		beq	.L119
 1271              	.LVL104:
 1272              	.LBB190:
 1273              	.LBB191:
 1274              		.loc 1 123 0
 1275 000a 436B     		ldr	r3, [r0, #52]
 1276              	.LVL105:
 1277              		.loc 1 132 0
 1278 000c 006B     		ldr	r0, [r0, #48]
 1279              	.LVL106:
 1280              		.loc 1 126 0
 1281 000e 4FF40042 		mov	r2, #32768
 1282 0012 1A60     		str	r2, [r3]
 1283              		.loc 1 127 0
 1284 0014 0022     		movs	r2, #0
 1285 0016 1A60     		str	r2, [r3]
 1286              		.loc 1 128 0
 1287 0018 5A60     		str	r2, [r3, #4]
 1288              		.loc 1 129 0
 1289 001a 5A61     		str	r2, [r3, #20]
 1290              		.loc 1 132 0
 1291 001c 0368     		ldr	r3, [r0]
 1292              	.LVL107:
 1293 001e 1A68     		ldr	r2, [r3]
 1294 0020 22F01F02 		bic	r2, r2, #31
 1295 0024 1A60     		str	r2, [r3]
 1296              	.L122:
 1297 0026 1A68     		ldr	r2, [r3]
 1298 0028 D207     		lsls	r2, r2, #31
 1299 002a FCD4     		bmi	.L122
 1300 002c 417A     		ldrb	r1, [r0, #9]	@ zero_extendqisi2
 1301 002e 4268     		ldr	r2, [r0, #4]
 1302 0030 3D23     		movs	r3, #61
 1303 0032 8B40     		lsls	r3, r3, r1
 1304 0034 1360     		str	r3, [r2]
 1305              		.loc 1 133 0
 1306 0036 E36A     		ldr	r3, [r4, #44]
 1307 0038 1A68     		ldr	r2, [r3]
 1308 003a 1168     		ldr	r1, [r2]
 1309 003c 21F01F01 		bic	r1, r1, #31
 1310 0040 1160     		str	r1, [r2]
 1311              	.L123:
ARM GAS  /tmp/ccayzwpm.s 			page 24


 1312 0042 1568     		ldr	r5, [r2]
 1313 0044 15F00105 		ands	r5, r5, #1
 1314 0048 FBD1     		bne	.L123
 1315 004a 597A     		ldrb	r1, [r3, #9]	@ zero_extendqisi2
 1316 004c 5A68     		ldr	r2, [r3, #4]
 1317 004e 3D23     		movs	r3, #61
 1318 0050 8B40     		lsls	r3, r3, r1
 1319 0052 1360     		str	r3, [r2]
 1320              	.LBE191:
 1321              	.LBE190:
 1322              		.loc 1 707 0
 1323 0054 FFF7FEFF 		bl	dmaStreamFreeI
 1324              	.LVL108:
 1325              		.loc 1 708 0
 1326 0058 E06A     		ldr	r0, [r4, #44]
 1327 005a FFF7FEFF 		bl	dmaStreamFreeI
 1328              	.LVL109:
 1329              		.loc 1 713 0
 1330 005e 144B     		ldr	r3, .L129
 1331              		.loc 1 709 0
 1332 0060 2563     		str	r5, [r4, #48]
 1333              		.loc 1 713 0
 1334 0062 9C42     		cmp	r4, r3
 1335              		.loc 1 710 0
 1336 0064 E562     		str	r5, [r4, #44]
 1337              		.loc 1 713 0
 1338 0066 0ED1     		bne	.L124
 1339              		.loc 1 714 0
 1340 0068 1F20     		movs	r0, #31
 1341 006a FFF7FEFF 		bl	nvicDisableVector
 1342              	.LVL110:
 1343              		.loc 1 715 0
 1344 006e 2020     		movs	r0, #32
 1345 0070 FFF7FEFF 		bl	nvicDisableVector
 1346              	.LVL111:
 1347              		.loc 1 716 0
 1348 0074 0F4B     		ldr	r3, .L129+4
 1349 0076 1A6C     		ldr	r2, [r3, #64]
 1350 0078 22F40012 		bic	r2, r2, #2097152
 1351 007c 1A64     		str	r2, [r3, #64]
 1352 007e 1A6E     		ldr	r2, [r3, #96]
 1353 0080 22F40012 		bic	r2, r2, #2097152
 1354 0084 10E0     		b	.L128
 1355              	.L124:
 1356              		.loc 1 721 0
 1357 0086 0C4B     		ldr	r3, .L129+8
 1358 0088 9C42     		cmp	r4, r3
 1359 008a 0FD1     		bne	.L119
 1360              		.loc 1 722 0
 1361 008c 2120     		movs	r0, #33
 1362 008e FFF7FEFF 		bl	nvicDisableVector
 1363              	.LVL112:
 1364              		.loc 1 723 0
 1365 0092 2220     		movs	r0, #34
 1366 0094 FFF7FEFF 		bl	nvicDisableVector
 1367              	.LVL113:
 1368              		.loc 1 724 0
ARM GAS  /tmp/ccayzwpm.s 			page 25


 1369 0098 064B     		ldr	r3, .L129+4
 1370 009a 1A6C     		ldr	r2, [r3, #64]
 1371 009c 22F48002 		bic	r2, r2, #4194304
 1372 00a0 1A64     		str	r2, [r3, #64]
 1373 00a2 1A6E     		ldr	r2, [r3, #96]
 1374 00a4 22F48002 		bic	r2, r2, #4194304
 1375              	.L128:
 1376 00a8 1A66     		str	r2, [r3, #96]
 1377 00aa 1B6E     		ldr	r3, [r3, #96]
 1378              	.LVL114:
 1379              	.L119:
 1380 00ac 38BD     		pop	{r3, r4, r5, pc}
 1381              	.LVL115:
 1382              	.L130:
 1383 00ae 00BF     		.align	2
 1384              	.L129:
 1385 00b0 00000000 		.word	.LANCHOR0
 1386 00b4 00380240 		.word	1073887232
 1387 00b8 00000000 		.word	.LANCHOR1
 1388              		.cfi_endproc
 1389              	.LFE337:
 1390              		.size	i2c_lld_stop, .-i2c_lld_stop
 1391              		.section	.text.i2c_lld_soft_stop,"ax",%progbits
 1392              		.align	1
 1393              		.global	i2c_lld_soft_stop
 1394              		.thumb
 1395              		.thumb_func
 1396              		.type	i2c_lld_soft_stop, %function
 1397              	i2c_lld_soft_stop:
 1398              	.LFB338:
 1399              		.loc 1 745 0
 1400              		.cfi_startproc
 1401              		@ args = 0, pretend = 0, frame = 0
 1402              		@ frame_needed = 0, uses_anonymous_args = 0
 1403              	.LVL116:
 1404              		.loc 1 748 0
 1405 0000 0378     		ldrb	r3, [r0]	@ zero_extendqisi2
 1406 0002 012B     		cmp	r3, #1
 1407              		.loc 1 745 0
 1408 0004 10B5     		push	{r4, lr}
 1409              		.cfi_def_cfa_offset 8
 1410              		.cfi_offset 4, -8
 1411              		.cfi_offset 14, -4
 1412              		.loc 1 745 0
 1413 0006 0446     		mov	r4, r0
 1414              		.loc 1 748 0
 1415 0008 1BD0     		beq	.L131
 1416              		.loc 1 751 0
 1417 000a 006B     		ldr	r0, [r0, #48]
 1418              	.LVL117:
 1419 000c FFF7FEFF 		bl	dmaStreamFreeI
 1420              	.LVL118:
 1421              		.loc 1 752 0
 1422 0010 E06A     		ldr	r0, [r4, #44]
 1423 0012 FFF7FEFF 		bl	dmaStreamFreeI
 1424              	.LVL119:
 1425              		.loc 1 753 0
ARM GAS  /tmp/ccayzwpm.s 			page 26


 1426 0016 0023     		movs	r3, #0
 1427 0018 2363     		str	r3, [r4, #48]
 1428              		.loc 1 754 0
 1429 001a E362     		str	r3, [r4, #44]
 1430              		.loc 1 757 0
 1431 001c 094B     		ldr	r3, .L137
 1432 001e 9C42     		cmp	r4, r3
 1433 0020 04D1     		bne	.L134
 1434              		.loc 1 758 0
 1435 0022 1F20     		movs	r0, #31
 1436 0024 FFF7FEFF 		bl	nvicDisableVector
 1437              	.LVL120:
 1438              		.loc 1 759 0
 1439 0028 2020     		movs	r0, #32
 1440 002a 06E0     		b	.L136
 1441              	.L134:
 1442              		.loc 1 764 0
 1443 002c 064B     		ldr	r3, .L137+4
 1444 002e 9C42     		cmp	r4, r3
 1445 0030 07D1     		bne	.L131
 1446              		.loc 1 765 0
 1447 0032 2120     		movs	r0, #33
 1448 0034 FFF7FEFF 		bl	nvicDisableVector
 1449              	.LVL121:
 1450              		.loc 1 766 0
 1451 0038 2220     		movs	r0, #34
 1452              	.L136:
 1453              		.loc 1 777 0
 1454 003a BDE81040 		pop	{r4, lr}
 1455              		.cfi_remember_state
 1456              		.cfi_restore 14
 1457              		.cfi_restore 4
 1458              		.cfi_def_cfa_offset 0
 1459              	.LVL122:
 1460              		.loc 1 766 0
 1461 003e FFF7FEBF 		b	nvicDisableVector
 1462              	.LVL123:
 1463              	.L131:
 1464              		.cfi_restore_state
 1465 0042 10BD     		pop	{r4, pc}
 1466              	.LVL124:
 1467              	.L138:
 1468              		.align	2
 1469              	.L137:
 1470 0044 00000000 		.word	.LANCHOR0
 1471 0048 00000000 		.word	.LANCHOR1
 1472              		.cfi_endproc
 1473              	.LFE338:
 1474              		.size	i2c_lld_soft_stop, .-i2c_lld_soft_stop
 1475              		.section	.text.i2c_lld_master_receive_timeout,"ax",%progbits
 1476              		.align	1
 1477              		.global	i2c_lld_master_receive_timeout
 1478              		.thumb
 1479              		.thumb_func
 1480              		.type	i2c_lld_master_receive_timeout, %function
 1481              	i2c_lld_master_receive_timeout:
 1482              	.LFB339:
ARM GAS  /tmp/ccayzwpm.s 			page 27


 1483              		.loc 1 805 0
 1484              		.cfi_startproc
 1485              		@ args = 4, pretend = 0, frame = 0
 1486              		@ frame_needed = 0, uses_anonymous_args = 0
 1487              	.LVL125:
 1488              		.loc 1 816 0
 1489 0000 4900     		lsls	r1, r1, #1
 1490              	.LVL126:
 1491              		.loc 1 805 0
 1492 0002 2DE9F843 		push	{r3, r4, r5, r6, r7, r8, r9, lr}
 1493              		.cfi_def_cfa_offset 32
 1494              		.cfi_offset 3, -32
 1495              		.cfi_offset 4, -28
 1496              		.cfi_offset 5, -24
 1497              		.cfi_offset 6, -20
 1498              		.cfi_offset 7, -16
 1499              		.cfi_offset 8, -12
 1500              		.cfi_offset 9, -8
 1501              		.cfi_offset 14, -4
 1502              		.loc 1 816 0
 1503 0006 41F00101 		orr	r1, r1, #1
 1504              		.loc 1 813 0
 1505 000a 0027     		movs	r7, #0
 1506 000c 8760     		str	r7, [r0, #8]
 1507              		.loc 1 816 0
 1508 000e 0184     		strh	r1, [r0, #32]	@ movhi
 1509              		.loc 1 805 0
 1510 0010 0446     		mov	r4, r0
 1511 0012 9146     		mov	r9, r2
 1512 0014 9846     		mov	r8, r3
 1513 0016 089E     		ldr	r6, [sp, #32]
 1514              		.loc 1 806 0
 1515 0018 456B     		ldr	r5, [r0, #52]
 1516              	.LVL127:
 1517              	.LBB208:
 1518              	.LBB209:
 1519              	.LBB210:
 1520              		.loc 4 368 0
 1521 001a FFF7FEFF 		bl	_stats_stop_measure_crit_thd
 1522              	.LVL128:
 1523              	.LBB211:
 1524              	.LBB212:
 1525              	.LBB213:
 1526              		.loc 3 493 0
 1527              	@ 493 "../../modules/ChibiOS/os/common/ext/ARM/CMSIS/Core/Include/cmsis_gcc.h" 1
 1528 001e 87F31188 		MSR basepri, r7
 1529              	@ 0 "" 2
 1530              		.thumb
 1531              	.LBE213:
 1532              	.LBE212:
 1533              	.LBE211:
 1534              	.LBE210:
 1535              	.LBE209:
 1536              	.LBE208:
 1537              		.loc 1 822 0
 1538 0022 E36A     		ldr	r3, [r4, #44]
 1539 0024 1968     		ldr	r1, [r3]
ARM GAS  /tmp/ccayzwpm.s 			page 28


 1540 0026 636A     		ldr	r3, [r4, #36]
 1541 0028 0B60     		str	r3, [r1]
 1542              		.loc 1 823 0
 1543 002a C1F80C90 		str	r9, [r1, #12]
 1544              	.LBB214:
 1545              	.LBB215:
 1546              	.LBB216:
 1547              	.LBB217:
 1548              	.LBB218:
 1549              	.LBB219:
 1550              		.loc 3 493 0
 1551 002e 2023     		movs	r3, #32
 1552              	.LBE219:
 1553              	.LBE218:
 1554              	.LBE217:
 1555              	.LBE216:
 1556              	.LBE215:
 1557              	.LBE214:
 1558              		.loc 1 824 0
 1559 0030 C1F80480 		str	r8, [r1, #4]
 1560              	.LVL129:
 1561              	.LBB225:
 1562              	.LBB224:
 1563              	.LBB223:
 1564              	.LBB222:
 1565              	.LBB221:
 1566              	.LBB220:
 1567              		.loc 3 493 0
 1568              	@ 493 "../../modules/ChibiOS/os/common/ext/ARM/CMSIS/Core/Include/cmsis_gcc.h" 1
 1569 0034 83F31188 		MSR basepri, r3
 1570              	@ 0 "" 2
 1571              		.thumb
 1572              	.LBE220:
 1573              	.LBE221:
 1574              	.LBE222:
 1575              		.loc 4 356 0
 1576 0038 FFF7FEFF 		bl	_stats_start_measure_crit_thd
 1577              	.LVL130:
 1578              	.LBE223:
 1579              	.LBE224:
 1580              	.LBE225:
 1581              		.loc 1 831 0
 1582 003c AB69     		ldr	r3, [r5, #24]
 1583 003e 9A07     		lsls	r2, r3, #30
 1584 0040 11D4     		bmi	.L140
 1585              		.loc 1 831 0 is_stmt 0 discriminator 1
 1586 0042 2B68     		ldr	r3, [r5]
 1587 0044 9B05     		lsls	r3, r3, #22
 1588 0046 0ED4     		bmi	.L140
 1589              		.loc 1 836 0 is_stmt 1
 1590 0048 6B68     		ldr	r3, [r5, #4]
 1591 004a 43F40073 		orr	r3, r3, #512
 1592 004e 6B60     		str	r3, [r5, #4]
 1593              		.loc 1 837 0
 1594 0050 2B68     		ldr	r3, [r5]
 1595 0052 43F4A063 		orr	r3, r3, #1280
 1596 0056 2B60     		str	r3, [r5]
ARM GAS  /tmp/ccayzwpm.s 			page 29


 1597              	.LVL131:
 1598              	.LBB226:
 1599              	.LBB227:
 1600              		.loc 2 760 0
 1601 0058 04F11C00 		add	r0, r4, #28
 1602              	.LVL132:
 1603 005c 3146     		mov	r1, r6
 1604              	.LBE227:
 1605              	.LBE226:
 1606              		.loc 1 841 0
 1607 005e BDE8F843 		pop	{r3, r4, r5, r6, r7, r8, r9, lr}
 1608              		.cfi_remember_state
 1609              		.cfi_restore 14
 1610              		.cfi_restore 9
 1611              		.cfi_restore 8
 1612              		.cfi_restore 7
 1613              		.cfi_restore 6
 1614              		.cfi_restore 5
 1615              		.cfi_restore 4
 1616              		.cfi_restore 3
 1617              		.cfi_def_cfa_offset 0
 1618              	.LVL133:
 1619              	.LBB229:
 1620              	.LBB228:
 1621              		.loc 2 760 0
 1622 0062 FFF7FEBF 		b	chThdSuspendTimeoutS
 1623              	.LVL134:
 1624              	.L140:
 1625              		.cfi_restore_state
 1626              	.LBE228:
 1627              	.LBE229:
 1628              		.loc 1 841 0
 1629 0066 4FF0FF30 		mov	r0, #-1
 1630 006a BDE8F883 		pop	{r3, r4, r5, r6, r7, r8, r9, pc}
 1631              		.cfi_endproc
 1632              	.LFE339:
 1633              		.size	i2c_lld_master_receive_timeout, .-i2c_lld_master_receive_timeout
 1634              		.section	.text.i2c_lld_master_transmit_timeout,"ax",%progbits
 1635              		.align	1
 1636              		.global	i2c_lld_master_transmit_timeout
 1637              		.thumb
 1638              		.thumb_func
 1639              		.type	i2c_lld_master_transmit_timeout, %function
 1640              	i2c_lld_master_transmit_timeout:
 1641              	.LFB340:
 1642              		.loc 1 871 0
 1643              		.cfi_startproc
 1644              		@ args = 12, pretend = 0, frame = 0
 1645              		@ frame_needed = 0, uses_anonymous_args = 0
 1646              	.LVL135:
 1647 0000 2DE9F84F 		push	{r3, r4, r5, r6, r7, r8, r9, r10, fp, lr}
 1648              		.cfi_def_cfa_offset 40
 1649              		.cfi_offset 3, -40
 1650              		.cfi_offset 4, -36
 1651              		.cfi_offset 5, -32
 1652              		.cfi_offset 6, -28
 1653              		.cfi_offset 7, -24
ARM GAS  /tmp/ccayzwpm.s 			page 30


 1654              		.cfi_offset 8, -20
 1655              		.cfi_offset 9, -16
 1656              		.cfi_offset 10, -12
 1657              		.cfi_offset 11, -8
 1658              		.cfi_offset 14, -4
 1659              		.loc 1 882 0
 1660 0004 4900     		lsls	r1, r1, #1
 1661              	.LVL136:
 1662              		.loc 1 879 0
 1663 0006 0026     		movs	r6, #0
 1664 0008 8660     		str	r6, [r0, #8]
 1665              		.loc 1 882 0
 1666 000a 0184     		strh	r1, [r0, #32]	@ movhi
 1667              		.loc 1 871 0
 1668 000c 0446     		mov	r4, r0
 1669 000e 9346     		mov	fp, r2
 1670 0010 9A46     		mov	r10, r3
 1671 0012 DDF82890 		ldr	r9, [sp, #40]
 1672 0016 DDF82C80 		ldr	r8, [sp, #44]
 1673 001a 0C9F     		ldr	r7, [sp, #48]
 1674              		.loc 1 872 0
 1675 001c 456B     		ldr	r5, [r0, #52]
 1676              	.LVL137:
 1677              	.LBB246:
 1678              	.LBB247:
 1679              	.LBB248:
 1680              		.loc 4 368 0
 1681 001e FFF7FEFF 		bl	_stats_stop_measure_crit_thd
 1682              	.LVL138:
 1683              	.LBB249:
 1684              	.LBB250:
 1685              	.LBB251:
 1686              		.loc 3 493 0
 1687              	@ 493 "../../modules/ChibiOS/os/common/ext/ARM/CMSIS/Core/Include/cmsis_gcc.h" 1
 1688 0022 86F31188 		MSR basepri, r6
 1689              	@ 0 "" 2
 1690              		.thumb
 1691              	.LBE251:
 1692              	.LBE250:
 1693              	.LBE249:
 1694              	.LBE248:
 1695              	.LBE247:
 1696              	.LBE246:
 1697              		.loc 1 888 0
 1698 0026 236B     		ldr	r3, [r4, #48]
 1699              		.loc 1 893 0
 1700 0028 626A     		ldr	r2, [r4, #36]
 1701              		.loc 1 888 0
 1702 002a 1968     		ldr	r1, [r3]
 1703 002c A36A     		ldr	r3, [r4, #40]
 1704 002e 0B60     		str	r3, [r1]
 1705              		.loc 1 893 0
 1706 0030 E36A     		ldr	r3, [r4, #44]
 1707              		.loc 1 889 0
 1708 0032 C1F80CB0 		str	fp, [r1, #12]
 1709              		.loc 1 893 0
 1710 0036 1B68     		ldr	r3, [r3]
ARM GAS  /tmp/ccayzwpm.s 			page 31


 1711              		.loc 1 890 0
 1712 0038 C1F804A0 		str	r10, [r1, #4]
 1713              		.loc 1 893 0
 1714 003c 1A60     		str	r2, [r3]
 1715              		.loc 1 894 0
 1716 003e C3F80C90 		str	r9, [r3, #12]
 1717              		.loc 1 895 0
 1718 0042 C3F80480 		str	r8, [r3, #4]
 1719              	.LVL139:
 1720              	.LBB252:
 1721              	.LBB253:
 1722              	.LBB254:
 1723              	.LBB255:
 1724              	.LBB256:
 1725              	.LBB257:
 1726              		.loc 3 493 0
 1727 0046 2023     		movs	r3, #32
 1728              	@ 493 "../../modules/ChibiOS/os/common/ext/ARM/CMSIS/Core/Include/cmsis_gcc.h" 1
 1729 0048 83F31188 		MSR basepri, r3
 1730              	@ 0 "" 2
 1731              		.thumb
 1732              	.LBE257:
 1733              	.LBE256:
 1734              	.LBE255:
 1735              		.loc 4 356 0
 1736 004c FFF7FEFF 		bl	_stats_start_measure_crit_thd
 1737              	.LVL140:
 1738              	.LBE254:
 1739              	.LBE253:
 1740              	.LBE252:
 1741              		.loc 1 902 0
 1742 0050 AB69     		ldr	r3, [r5, #24]
 1743 0052 9A07     		lsls	r2, r3, #30
 1744 0054 11D4     		bmi	.L144
 1745              		.loc 1 902 0 is_stmt 0 discriminator 1
 1746 0056 2B68     		ldr	r3, [r5]
 1747 0058 9B05     		lsls	r3, r3, #22
 1748 005a 0ED4     		bmi	.L144
 1749              		.loc 1 907 0 is_stmt 1
 1750 005c 6B68     		ldr	r3, [r5, #4]
 1751 005e 43F40073 		orr	r3, r3, #512
 1752 0062 6B60     		str	r3, [r5, #4]
 1753              		.loc 1 908 0
 1754 0064 2B68     		ldr	r3, [r5]
 1755 0066 43F48073 		orr	r3, r3, #256
 1756 006a 2B60     		str	r3, [r5]
 1757              	.LVL141:
 1758              	.LBB258:
 1759              	.LBB259:
 1760              		.loc 2 760 0
 1761 006c 04F11C00 		add	r0, r4, #28
 1762              	.LVL142:
 1763 0070 3946     		mov	r1, r7
 1764              	.LBE259:
 1765              	.LBE258:
 1766              		.loc 1 912 0
 1767 0072 BDE8F84F 		pop	{r3, r4, r5, r6, r7, r8, r9, r10, fp, lr}
ARM GAS  /tmp/ccayzwpm.s 			page 32


 1768              		.cfi_remember_state
 1769              		.cfi_restore 14
 1770              		.cfi_restore 11
 1771              		.cfi_restore 10
 1772              		.cfi_restore 9
 1773              		.cfi_restore 8
 1774              		.cfi_restore 7
 1775              		.cfi_restore 6
 1776              		.cfi_restore 5
 1777              		.cfi_restore 4
 1778              		.cfi_restore 3
 1779              		.cfi_def_cfa_offset 0
 1780              	.LVL143:
 1781              	.LBB261:
 1782              	.LBB260:
 1783              		.loc 2 760 0
 1784 0076 FFF7FEBF 		b	chThdSuspendTimeoutS
 1785              	.LVL144:
 1786              	.L144:
 1787              		.cfi_restore_state
 1788              	.LBE260:
 1789              	.LBE261:
 1790              		.loc 1 912 0
 1791 007a 4FF0FF30 		mov	r0, #-1
 1792 007e BDE8F88F 		pop	{r3, r4, r5, r6, r7, r8, r9, r10, fp, pc}
 1793              		.cfi_endproc
 1794              	.LFE340:
 1795              		.size	i2c_lld_master_transmit_timeout, .-i2c_lld_master_transmit_timeout
 1796              		.global	I2CD2
 1797              		.global	I2CD1
 1798              		.section	.rodata.str1.1,"aMS",%progbits,1
 1799              	.LC0:
 1800 0000 444D4120 		.ascii	"DMA failure\000"
 1800      6661696C 
 1800      75726500 
 1801              		.section	.bss.I2CD1,"aw",%nobits
 1802              		.align	2
 1803              		.set	.LANCHOR0,. + 0
 1804              		.type	I2CD1, %object
 1805              		.size	I2CD1, 56
 1806              	I2CD1:
 1807 0000 00000000 		.space	56
 1807      00000000 
 1807      00000000 
 1807      00000000 
 1807      00000000 
 1808              		.section	.bss.I2CD2,"aw",%nobits
 1809              		.align	2
 1810              		.set	.LANCHOR1,. + 0
 1811              		.type	I2CD2, %object
 1812              		.size	I2CD2, 56
 1813              	I2CD2:
 1814 0000 00000000 		.space	56
 1814      00000000 
 1814      00000000 
 1814      00000000 
 1814      00000000 
ARM GAS  /tmp/ccayzwpm.s 			page 33


 1815              		.text
 1816              	.Letext0:
 1817              		.file 5 "/usr/lib/gcc/arm-none-eabi/4.9.3/include/stddef.h"
 1818              		.file 6 "/usr/include/newlib/machine/_default_types.h"
 1819              		.file 7 "/usr/include/newlib/sys/_stdint.h"
 1820              		.file 8 "../../modules/ChibiOS/os/common/ports/ARMCMx/compilers/GCC/chtypes.h"
 1821              		.file 9 "../../modules/ChibiOS/os/rt/include/chsystypes.h"
 1822              		.file 10 "../../modules/ChibiOS/os/rt/include/chschd.h"
 1823              		.file 11 "../../modules/ChibiOS/os/rt/include/chtime.h"
 1824              		.file 12 "../../modules/ChibiOS/os/common/ext/ST/STM32F4xx/stm32f407xx.h"
 1825              		.file 13 "../../modules/ChibiOS/os/common/ports/ARMCMx/chcore.h"
 1826              		.file 14 "../../modules/ChibiOS/os/common/ports/ARMCMx/chcore_v7m.h"
 1827              		.file 15 "../../modules/ChibiOS/os/rt/include/chtm.h"
 1828              		.file 16 "../../modules/ChibiOS/os/rt/include/chstats.h"
 1829              		.file 17 "../../modules/ChibiOS/os/rt/include/chsem.h"
 1830              		.file 18 "../../modules/ChibiOS/os/rt/include/chmtx.h"
 1831              		.file 19 "../../modules/ChibiOS/os/hal/ports/STM32/LLD/DMAv2/stm32_dma.h"
 1832              		.file 20 "../../modules/ChibiOS/os/hal/include/hal_i2c.h"
 1833              		.file 21 "../../modules/ChibiOS/os/hal/ports/STM32/LLD/I2Cv1/hal_i2c_lld.h"
 1834              		.file 22 "../../modules/ChibiOS/os/common/ext/ARM/CMSIS/Core/Include/core_cm4.h"
 1835              		.file 23 "../../modules/ChibiOS/os/rt/include/ch.h"
 1836              		.file 24 "../../modules/ChibiOS/os/rt/include/chthreads.h"
 1837              		.file 25 "../../modules/ChibiOS/os/hal/ports/common/ARMCMx/nvic.h"