ARM GAS  /tmp/ccVENqVe.s 			page 1


   1              		.syntax unified
   2              		.cpu cortex-m4
   3              		.eabi_attribute 27, 1
   4              		.eabi_attribute 28, 1
   5              		.fpu fpv4-sp-d16
   6              		.eabi_attribute 20, 1
   7              		.eabi_attribute 21, 1
   8              		.eabi_attribute 23, 3
   9              		.eabi_attribute 24, 1
  10              		.eabi_attribute 25, 1
  11              		.eabi_attribute 26, 1
  12              		.eabi_attribute 30, 4
  13              		.eabi_attribute 34, 1
  14              		.eabi_attribute 18, 4
  15              		.thumb
  16              		.file	"hal_serial_lld.c"
  17              		.text
  18              	.Ltext0:
  19              		.cfi_sections	.debug_frame
  20              		.section	.text.notify1,"ax",%progbits
  21              		.align	1
  22              		.thumb
  23              		.thumb_func
  24              		.type	notify1, %function
  25              	notify1:
  26              	.LFB327:
  27              		.file 1 "../../modules/ChibiOS/os/hal/ports/STM32/LLD/USARTv1/hal_serial_lld.c"
  28              		.loc 1 240 0
  29              		.cfi_startproc
  30              		@ args = 0, pretend = 0, frame = 0
  31              		@ frame_needed = 0, uses_anonymous_args = 0
  32              		@ link register save eliminated.
  33              	.LVL0:
  34              		.loc 1 243 0
  35 0000 024A     		ldr	r2, .L2
  36 0002 D368     		ldr	r3, [r2, #12]
  37 0004 43F0C003 		orr	r3, r3, #192
  38 0008 D360     		str	r3, [r2, #12]
  39 000a 7047     		bx	lr
  40              	.L3:
  41              		.align	2
  42              	.L2:
  43 000c 00100140 		.word	1073811456
  44              		.cfi_endproc
  45              	.LFE327:
  46              		.size	notify1, .-notify1
  47              		.section	.text.notify2,"ax",%progbits
  48              		.align	1
  49              		.thumb
  50              		.thumb_func
  51              		.type	notify2, %function
  52              	notify2:
  53              	.LFB328:
  54              		.loc 1 248 0
  55              		.cfi_startproc
  56              		@ args = 0, pretend = 0, frame = 0
  57              		@ frame_needed = 0, uses_anonymous_args = 0
ARM GAS  /tmp/ccVENqVe.s 			page 2


  58              		@ link register save eliminated.
  59              	.LVL1:
  60              		.loc 1 251 0
  61 0000 024A     		ldr	r2, .L5
  62 0002 D368     		ldr	r3, [r2, #12]
  63 0004 43F0C003 		orr	r3, r3, #192
  64 0008 D360     		str	r3, [r2, #12]
  65 000a 7047     		bx	lr
  66              	.L6:
  67              		.align	2
  68              	.L5:
  69 000c 00440040 		.word	1073759232
  70              		.cfi_endproc
  71              	.LFE328:
  72              		.size	notify2, .-notify2
  73              		.section	.text.notify3,"ax",%progbits
  74              		.align	1
  75              		.thumb
  76              		.thumb_func
  77              		.type	notify3, %function
  78              	notify3:
  79              	.LFB329:
  80              		.loc 1 256 0
  81              		.cfi_startproc
  82              		@ args = 0, pretend = 0, frame = 0
  83              		@ frame_needed = 0, uses_anonymous_args = 0
  84              		@ link register save eliminated.
  85              	.LVL2:
  86              		.loc 1 259 0
  87 0000 024A     		ldr	r2, .L8
  88 0002 D368     		ldr	r3, [r2, #12]
  89 0004 43F0C003 		orr	r3, r3, #192
  90 0008 D360     		str	r3, [r2, #12]
  91 000a 7047     		bx	lr
  92              	.L9:
  93              		.align	2
  94              	.L8:
  95 000c 00480040 		.word	1073760256
  96              		.cfi_endproc
  97              	.LFE329:
  98              		.size	notify3, .-notify3
  99              		.section	.text.notify4,"ax",%progbits
 100              		.align	1
 101              		.thumb
 102              		.thumb_func
 103              		.type	notify4, %function
 104              	notify4:
 105              	.LFB330:
 106              		.loc 1 264 0
 107              		.cfi_startproc
 108              		@ args = 0, pretend = 0, frame = 0
 109              		@ frame_needed = 0, uses_anonymous_args = 0
 110              		@ link register save eliminated.
 111              	.LVL3:
 112              		.loc 1 267 0
 113 0000 024A     		ldr	r2, .L11
 114 0002 D368     		ldr	r3, [r2, #12]
ARM GAS  /tmp/ccVENqVe.s 			page 3


 115 0004 43F0C003 		orr	r3, r3, #192
 116 0008 D360     		str	r3, [r2, #12]
 117 000a 7047     		bx	lr
 118              	.L12:
 119              		.align	2
 120              	.L11:
 121 000c 004C0040 		.word	1073761280
 122              		.cfi_endproc
 123              	.LFE330:
 124              		.size	notify4, .-notify4
 125              		.section	.text.notify5,"ax",%progbits
 126              		.align	1
 127              		.thumb
 128              		.thumb_func
 129              		.type	notify5, %function
 130              	notify5:
 131              	.LFB331:
 132              		.loc 1 272 0
 133              		.cfi_startproc
 134              		@ args = 0, pretend = 0, frame = 0
 135              		@ frame_needed = 0, uses_anonymous_args = 0
 136              		@ link register save eliminated.
 137              	.LVL4:
 138              		.loc 1 275 0
 139 0000 024A     		ldr	r2, .L14
 140 0002 D368     		ldr	r3, [r2, #12]
 141 0004 43F0C003 		orr	r3, r3, #192
 142 0008 D360     		str	r3, [r2, #12]
 143 000a 7047     		bx	lr
 144              	.L15:
 145              		.align	2
 146              	.L14:
 147 000c 00500040 		.word	1073762304
 148              		.cfi_endproc
 149              	.LFE331:
 150              		.size	notify5, .-notify5
 151              		.section	.text.serve_interrupt,"ax",%progbits
 152              		.align	1
 153              		.thumb
 154              		.thumb_func
 155              		.type	serve_interrupt, %function
 156              	serve_interrupt:
 157              	.LFB326:
 158              		.loc 1 184 0
 159              		.cfi_startproc
 160              		@ args = 0, pretend = 0, frame = 0
 161              		@ frame_needed = 0, uses_anonymous_args = 0
 162              	.LVL5:
 163 0000 2DE9F041 		push	{r4, r5, r6, r7, r8, lr}
 164              		.cfi_def_cfa_offset 24
 165              		.cfi_offset 4, -24
 166              		.cfi_offset 5, -20
 167              		.cfi_offset 6, -16
 168              		.cfi_offset 7, -12
 169              		.cfi_offset 8, -8
 170              		.cfi_offset 14, -4
 171              		.loc 1 185 0
ARM GAS  /tmp/ccVENqVe.s 			page 4


 172 0004 D0F85464 		ldr	r6, [r0, #1108]
 173              	.LVL6:
 174              		.loc 1 186 0
 175 0008 F768     		ldr	r7, [r6, #12]
 176              	.LVL7:
 177              		.loc 1 187 0
 178 000a 3368     		ldr	r3, [r6]
 179              		.loc 1 190 0
 180 000c DA05     		lsls	r2, r3, #23
 181              		.loc 1 184 0
 182 000e 0546     		mov	r5, r0
 183              		.loc 1 187 0
 184 0010 9CB2     		uxth	r4, r3
 185              	.LVL8:
 186              		.loc 1 190 0
 187 0012 11D5     		bpl	.L17
 188              	.LVL9:
 189              	.LBB128:
 190              	.LBB129:
 191              	.LBB130:
 192              	.LBB131:
 193              	.LBB132:
 194              	.LBB133:
 195              	.LBB134:
 196              		.file 2 "../../modules/ChibiOS/os/common/ext/ARM/CMSIS/Core/Include/cmsis_gcc.h"
 197              		.loc 2 493 0
 198 0014 2023     		movs	r3, #32
 199              	@ 493 "../../modules/ChibiOS/os/common/ext/ARM/CMSIS/Core/Include/cmsis_gcc.h" 1
 200 0016 83F31188 		MSR basepri, r3
 201              	@ 0 "" 2
 202              		.thumb
 203              	.LBE134:
 204              	.LBE133:
 205              	.LBE132:
 206              	.LBE131:
 207              		.file 3 "../../modules/ChibiOS/os/rt/include/chsys.h"
 208              		.loc 3 396 0
 209 001a FFF7FEFF 		bl	_stats_start_measure_crit_isr
 210              	.LVL10:
 211              	.LBE130:
 212              	.LBE129:
 213              	.LBE128:
 214              	.LBB135:
 215              	.LBB136:
 216              		.file 4 "../../modules/ChibiOS/os/hal/osal/rt/osal.h"
 217              		.loc 4 895 0
 218 001e 281D     		adds	r0, r5, #4
 219              	.LVL11:
 220 0020 4FF40071 		mov	r1, #512
 221 0024 FFF7FEFF 		bl	chEvtBroadcastFlagsI
 222              	.LVL12:
 223              	.LBE136:
 224              	.LBE135:
 225              		.loc 1 193 0
 226 0028 6FF48073 		mvn	r3, #256
 227 002c 3360     		str	r3, [r6]
 228              	.LBB137:
ARM GAS  /tmp/ccVENqVe.s 			page 5


 229              	.LBB138:
 230              	.LBB139:
 231              		.loc 3 416 0
 232 002e FFF7FEFF 		bl	_stats_stop_measure_crit_isr
 233              	.LVL13:
 234              	.LBB140:
 235              	.LBB141:
 236              	.LBB142:
 237              	.LBB143:
 238              		.loc 2 493 0
 239 0032 0023     		movs	r3, #0
 240              	@ 493 "../../modules/ChibiOS/os/common/ext/ARM/CMSIS/Core/Include/cmsis_gcc.h" 1
 241 0034 83F31188 		MSR basepri, r3
 242              	@ 0 "" 2
 243              	.LVL14:
 244              		.thumb
 245              	.L17:
 246              	.LBE143:
 247              	.LBE142:
 248              	.LBE141:
 249              	.LBE140:
 250              	.LBE139:
 251              	.LBE138:
 252              	.LBE137:
 253              	.LBB144:
 254              	.LBB145:
 255              	.LBB146:
 256              	.LBB147:
 257              	.LBB148:
 258              	.LBB149:
 259              	.LBB150:
 260 0038 2023     		movs	r3, #32
 261              	@ 493 "../../modules/ChibiOS/os/common/ext/ARM/CMSIS/Core/Include/cmsis_gcc.h" 1
 262 003a 83F31188 		MSR basepri, r3
 263              	@ 0 "" 2
 264              		.thumb
 265              	.LBE150:
 266              	.LBE149:
 267              	.LBE148:
 268              	.LBE147:
 269              		.loc 3 396 0
 270 003e FFF7FEFF 		bl	_stats_start_measure_crit_isr
 271              	.LVL15:
 272              	.L18:
 273              	.LBE146:
 274              	.LBE145:
 275              	.LBE144:
 276              		.loc 1 199 0
 277 0042 14F02F08 		ands	r8, r4, #47
 278 0046 21D0     		beq	.L65
 279              	.LBB151:
 280              		.loc 1 204 0
 281 0048 2307     		lsls	r3, r4, #28
 282 004a 13D0     		beq	.L19
 283              	.LVL16:
 284              	.LBB152:
 285              	.LBB153:
ARM GAS  /tmp/ccVENqVe.s 			page 6


 286              		.loc 1 169 0
 287 004c 14F0080F 		tst	r4, #8
 288 0050 0CBF     		ite	eq
 289 0052 0021     		moveq	r1, #0
 290 0054 8021     		movne	r1, #128
 291              	.LVL17:
 292              		.loc 1 170 0
 293 0056 E007     		lsls	r0, r4, #31
 294              		.loc 1 171 0
 295 0058 48BF     		it	mi
 296 005a 41F02001 		orrmi	r1, r1, #32
 297              	.LVL18:
 298              		.loc 1 172 0
 299 005e A207     		lsls	r2, r4, #30
 300              		.loc 1 173 0
 301 0060 48BF     		it	mi
 302 0062 41F04001 		orrmi	r1, r1, #64
 303              	.LVL19:
 304              		.loc 1 174 0
 305 0066 6307     		lsls	r3, r4, #29
 306              		.loc 1 175 0
 307 0068 48BF     		it	mi
 308 006a 41F48071 		orrmi	r1, r1, #256
 309              	.LVL20:
 310              	.LBB154:
 311              	.LBB155:
 312              		.loc 4 895 0
 313 006e 281D     		adds	r0, r5, #4
 314              	.LVL21:
 315 0070 FFF7FEFF 		bl	chEvtBroadcastFlagsI
 316              	.LVL22:
 317              	.L19:
 318              	.LBE155:
 319              	.LBE154:
 320              	.LBE153:
 321              	.LBE152:
 322              		.loc 1 207 0
 323 0074 A406     		lsls	r4, r4, #26
 324              	.LVL23:
 325              		.loc 1 206 0
 326 0076 7368     		ldr	r3, [r6, #4]
 327 0078 95F85814 		ldrb	r1, [r5, #1112]	@ zero_extendqisi2
 328              	.LVL24:
 329              		.loc 1 207 0
 330 007c 03D5     		bpl	.L24
 331              		.loc 1 208 0
 332 007e 2846     		mov	r0, r5
 333 0080 1940     		ands	r1, r1, r3
 334              	.LVL25:
 335 0082 FFF7FEFF 		bl	sdIncomingDataI
 336              	.LVL26:
 337              	.L24:
 338              		.loc 1 209 0
 339 0086 3468     		ldr	r4, [r6]
 340 0088 A4B2     		uxth	r4, r4
 341              	.LVL27:
 342 008a DAE7     		b	.L18
ARM GAS  /tmp/ccVENqVe.s 			page 7


 343              	.L65:
 344              	.LBE151:
 345              	.LBB156:
 346              	.LBB157:
 347              	.LBB158:
 348              		.loc 3 416 0
 349 008c FFF7FEFF 		bl	_stats_stop_measure_crit_isr
 350              	.LVL28:
 351              	.LBB159:
 352              	.LBB160:
 353              	.LBB161:
 354              	.LBB162:
 355              		.loc 2 493 0
 356              	@ 493 "../../modules/ChibiOS/os/common/ext/ARM/CMSIS/Core/Include/cmsis_gcc.h" 1
 357 0090 88F31188 		MSR basepri, r8
 358              	@ 0 "" 2
 359              		.thumb
 360              	.LBE162:
 361              	.LBE161:
 362              	.LBE160:
 363              	.LBE159:
 364              	.LBE158:
 365              	.LBE157:
 366              	.LBE156:
 367              		.loc 1 214 0
 368 0094 3806     		lsls	r0, r7, #24
 369 0096 1BD5     		bpl	.L26
 370              		.loc 1 214 0 is_stmt 0 discriminator 1
 371 0098 2106     		lsls	r1, r4, #24
 372 009a 19D5     		bpl	.L26
 373              	.LVL29:
 374              	.LBB163:
 375              	.LBB164:
 376              	.LBB165:
 377              	.LBB166:
 378              	.LBB167:
 379              	.LBB168:
 380              	.LBB169:
 381              	.LBB170:
 382              		.loc 2 493 0 is_stmt 1
 383 009c 2023     		movs	r3, #32
 384              	@ 493 "../../modules/ChibiOS/os/common/ext/ARM/CMSIS/Core/Include/cmsis_gcc.h" 1
 385 009e 83F31188 		MSR basepri, r3
 386              	@ 0 "" 2
 387              		.thumb
 388              	.LBE170:
 389              	.LBE169:
 390              	.LBE168:
 391              	.LBE167:
 392              		.loc 3 396 0
 393 00a2 FFF7FEFF 		bl	_stats_start_measure_crit_isr
 394              	.LVL30:
 395              	.LBE166:
 396              	.LBE165:
 397              	.LBE164:
 398              		.loc 1 217 0
 399 00a6 05F13000 		add	r0, r5, #48
ARM GAS  /tmp/ccVENqVe.s 			page 8


 400 00aa FFF7FEFF 		bl	oqGetI
 401              	.LVL31:
 402              		.loc 1 218 0
 403 00ae 0028     		cmp	r0, #0
 404 00b0 08DA     		bge	.L27
 405              	.LVL32:
 406              	.LBB171:
 407              	.LBB172:
 408              		.loc 4 895 0
 409 00b2 281D     		adds	r0, r5, #4
 410              	.LVL33:
 411 00b4 0821     		movs	r1, #8
 412 00b6 FFF7FEFF 		bl	chEvtBroadcastFlagsI
 413              	.LVL34:
 414              	.LBE172:
 415              	.LBE171:
 416              		.loc 1 220 0
 417 00ba 4FF67F73 		movw	r3, #65407
 418 00be 3B40     		ands	r3, r3, r7
 419 00c0 F360     		str	r3, [r6, #12]
 420 00c2 00E0     		b	.L28
 421              	.LVL35:
 422              	.L27:
 423              		.loc 1 223 0
 424 00c4 7060     		str	r0, [r6, #4]
 425              	.LVL36:
 426              	.L28:
 427              	.LBB173:
 428              	.LBB174:
 429              	.LBB175:
 430              		.loc 3 416 0
 431 00c6 FFF7FEFF 		bl	_stats_stop_measure_crit_isr
 432              	.LVL37:
 433              	.LBB176:
 434              	.LBB177:
 435              	.LBB178:
 436              	.LBB179:
 437              		.loc 2 493 0
 438 00ca 0023     		movs	r3, #0
 439              	@ 493 "../../modules/ChibiOS/os/common/ext/ARM/CMSIS/Core/Include/cmsis_gcc.h" 1
 440 00cc 83F31188 		MSR basepri, r3
 441              	@ 0 "" 2
 442              	.LVL38:
 443              		.thumb
 444              	.L26:
 445              	.LBE179:
 446              	.LBE178:
 447              	.LBE177:
 448              	.LBE176:
 449              	.LBE175:
 450              	.LBE174:
 451              	.LBE173:
 452              	.LBE163:
 453              		.loc 1 228 0
 454 00d0 7A06     		lsls	r2, r7, #25
 455 00d2 11D5     		bpl	.L29
 456              		.loc 1 228 0 is_stmt 0 discriminator 1
ARM GAS  /tmp/ccVENqVe.s 			page 9


 457 00d4 6306     		lsls	r3, r4, #25
 458 00d6 0FD5     		bpl	.L29
 459              	.LVL39:
 460              	.LBB180:
 461              	.LBB181:
 462              	.LBB182:
 463              	.LBB183:
 464              	.LBB184:
 465              	.LBB185:
 466              	.LBB186:
 467              		.loc 2 493 0 is_stmt 1
 468 00d8 2023     		movs	r3, #32
 469              	@ 493 "../../modules/ChibiOS/os/common/ext/ARM/CMSIS/Core/Include/cmsis_gcc.h" 1
 470 00da 83F31188 		MSR basepri, r3
 471              	@ 0 "" 2
 472              		.thumb
 473              	.LBE186:
 474              	.LBE185:
 475              	.LBE184:
 476              	.LBE183:
 477              		.loc 3 396 0
 478 00de FFF7FEFF 		bl	_stats_start_measure_crit_isr
 479              	.LVL40:
 480              	.LBE182:
 481              	.LBE181:
 482              	.LBE180:
 483              		.loc 1 230 0
 484 00e2 6A6C     		ldr	r2, [r5, #68]
 485 00e4 AB6C     		ldr	r3, [r5, #72]
 486 00e6 9A42     		cmp	r2, r3
 487 00e8 01D1     		bne	.L30
 488              		.loc 1 230 0 is_stmt 0 discriminator 1
 489 00ea AB6B     		ldr	r3, [r5, #56]
 490 00ec 63B9     		cbnz	r3, .L31
 491              	.L30:
 492              	.LBB187:
 493              	.LBB188:
 494              	.LBB189:
 495              		.loc 3 416 0 is_stmt 1
 496 00ee FFF7FEFF 		bl	_stats_stop_measure_crit_isr
 497              	.LVL41:
 498              	.LBB190:
 499              	.LBB191:
 500              	.LBB192:
 501              	.LBB193:
 502              		.loc 2 493 0
 503 00f2 0023     		movs	r3, #0
 504              	@ 493 "../../modules/ChibiOS/os/common/ext/ARM/CMSIS/Core/Include/cmsis_gcc.h" 1
 505 00f4 83F31188 		MSR basepri, r3
 506              	@ 0 "" 2
 507              	.LVL42:
 508              		.thumb
 509              	.L29:
 510              	.LBE193:
 511              	.LBE192:
 512              	.LBE191:
 513              	.LBE190:
ARM GAS  /tmp/ccVENqVe.s 			page 10


 514              	.LBE189:
 515              	.LBE188:
 516              	.LBE187:
 517              		.loc 1 236 0
 518 00f8 D5F85C24 		ldr	r2, [r5, #1116]
 519 00fc D368     		ldr	r3, [r2, #12]
 520 00fe 63B1     		cbz	r3, .L16
 521              		.loc 1 236 0 is_stmt 0 discriminator 1
 522 0100 1069     		ldr	r0, [r2, #16]
 523              		.loc 1 237 0 is_stmt 1 discriminator 1
 524 0102 BDE8F041 		pop	{r4, r5, r6, r7, r8, lr}
 525              		.cfi_remember_state
 526              		.cfi_restore 14
 527              		.cfi_restore 8
 528              		.cfi_restore 7
 529              		.cfi_restore 6
 530              		.cfi_restore 5
 531              		.cfi_restore 4
 532              		.cfi_def_cfa_offset 0
 533              	.LVL43:
 534              		.loc 1 236 0 discriminator 1
 535 0106 1847     		bx	r3	@ indirect register sibling call
 536              	.LVL44:
 537              	.L31:
 538              		.cfi_restore_state
 539              	.LBB194:
 540              	.LBB195:
 541              		.loc 4 895 0
 542 0108 281D     		adds	r0, r5, #4
 543              	.LVL45:
 544 010a 1021     		movs	r1, #16
 545 010c FFF7FEFF 		bl	chEvtBroadcastFlagsI
 546              	.LVL46:
 547              	.LBE195:
 548              	.LBE194:
 549              		.loc 1 232 0
 550 0110 4FF6BF73 		movw	r3, #65471
 551 0114 3B40     		ands	r3, r3, r7
 552 0116 F360     		str	r3, [r6, #12]
 553 0118 E9E7     		b	.L30
 554              	.LVL47:
 555              	.L16:
 556 011a BDE8F081 		pop	{r4, r5, r6, r7, r8, pc}
 557              		.cfi_endproc
 558              	.LFE326:
 559              		.size	serve_interrupt, .-serve_interrupt
 560              		.section	.text.VectorD4,"ax",%progbits
 561              		.align	1
 562              		.global	VectorD4
 563              		.thumb
 564              		.thumb_func
 565              		.type	VectorD4, %function
 566              	VectorD4:
 567              	.LFB332:
 568              		.loc 1 316 0
 569              		.cfi_startproc
 570              		@ args = 0, pretend = 0, frame = 0
ARM GAS  /tmp/ccVENqVe.s 			page 11


 571              		@ frame_needed = 0, uses_anonymous_args = 0
 572 0000 08B5     		push	{r3, lr}
 573              		.cfi_def_cfa_offset 8
 574              		.cfi_offset 3, -8
 575              		.cfi_offset 14, -4
 576              		.loc 1 318 0
 577 0002 FFF7FEFF 		bl	_stats_increase_irq
 578              	.LVL48:
 579              		.loc 1 320 0
 580 0006 0348     		ldr	r0, .L67
 581 0008 FFF7FEFF 		bl	serve_interrupt
 582              	.LVL49:
 583              		.loc 1 323 0
 584 000c BDE80840 		pop	{r3, lr}
 585              		.cfi_restore 14
 586              		.cfi_restore 3
 587              		.cfi_def_cfa_offset 0
 588              		.loc 1 322 0
 589 0010 FFF7FEBF 		b	_port_irq_epilogue
 590              	.LVL50:
 591              	.L68:
 592              		.align	2
 593              	.L67:
 594 0014 00000000 		.word	.LANCHOR0
 595              		.cfi_endproc
 596              	.LFE332:
 597              		.size	VectorD4, .-VectorD4
 598              		.section	.text.VectorD8,"ax",%progbits
 599              		.align	1
 600              		.global	VectorD8
 601              		.thumb
 602              		.thumb_func
 603              		.type	VectorD8, %function
 604              	VectorD8:
 605              	.LFB333:
 606              		.loc 1 335 0
 607              		.cfi_startproc
 608              		@ args = 0, pretend = 0, frame = 0
 609              		@ frame_needed = 0, uses_anonymous_args = 0
 610 0000 08B5     		push	{r3, lr}
 611              		.cfi_def_cfa_offset 8
 612              		.cfi_offset 3, -8
 613              		.cfi_offset 14, -4
 614              		.loc 1 337 0
 615 0002 FFF7FEFF 		bl	_stats_increase_irq
 616              	.LVL51:
 617              		.loc 1 339 0
 618 0006 0348     		ldr	r0, .L70
 619 0008 FFF7FEFF 		bl	serve_interrupt
 620              	.LVL52:
 621              		.loc 1 342 0
 622 000c BDE80840 		pop	{r3, lr}
 623              		.cfi_restore 14
 624              		.cfi_restore 3
 625              		.cfi_def_cfa_offset 0
 626              		.loc 1 341 0
 627 0010 FFF7FEBF 		b	_port_irq_epilogue
ARM GAS  /tmp/ccVENqVe.s 			page 12


 628              	.LVL53:
 629              	.L71:
 630              		.align	2
 631              	.L70:
 632 0014 00000000 		.word	.LANCHOR1
 633              		.cfi_endproc
 634              	.LFE333:
 635              		.size	VectorD8, .-VectorD8
 636              		.section	.text.VectorDC,"ax",%progbits
 637              		.align	1
 638              		.global	VectorDC
 639              		.thumb
 640              		.thumb_func
 641              		.type	VectorDC, %function
 642              	VectorDC:
 643              	.LFB334:
 644              		.loc 1 354 0
 645              		.cfi_startproc
 646              		@ args = 0, pretend = 0, frame = 0
 647              		@ frame_needed = 0, uses_anonymous_args = 0
 648 0000 08B5     		push	{r3, lr}
 649              		.cfi_def_cfa_offset 8
 650              		.cfi_offset 3, -8
 651              		.cfi_offset 14, -4
 652              		.loc 1 356 0
 653 0002 FFF7FEFF 		bl	_stats_increase_irq
 654              	.LVL54:
 655              		.loc 1 358 0
 656 0006 0348     		ldr	r0, .L73
 657 0008 FFF7FEFF 		bl	serve_interrupt
 658              	.LVL55:
 659              		.loc 1 361 0
 660 000c BDE80840 		pop	{r3, lr}
 661              		.cfi_restore 14
 662              		.cfi_restore 3
 663              		.cfi_def_cfa_offset 0
 664              		.loc 1 360 0
 665 0010 FFF7FEBF 		b	_port_irq_epilogue
 666              	.LVL56:
 667              	.L74:
 668              		.align	2
 669              	.L73:
 670 0014 00000000 		.word	.LANCHOR2
 671              		.cfi_endproc
 672              	.LFE334:
 673              		.size	VectorDC, .-VectorDC
 674              		.section	.text.Vector110,"ax",%progbits
 675              		.align	1
 676              		.global	Vector110
 677              		.thumb
 678              		.thumb_func
 679              		.type	Vector110, %function
 680              	Vector110:
 681              	.LFB335:
 682              		.loc 1 373 0
 683              		.cfi_startproc
 684              		@ args = 0, pretend = 0, frame = 0
ARM GAS  /tmp/ccVENqVe.s 			page 13


 685              		@ frame_needed = 0, uses_anonymous_args = 0
 686 0000 08B5     		push	{r3, lr}
 687              		.cfi_def_cfa_offset 8
 688              		.cfi_offset 3, -8
 689              		.cfi_offset 14, -4
 690              		.loc 1 375 0
 691 0002 FFF7FEFF 		bl	_stats_increase_irq
 692              	.LVL57:
 693              		.loc 1 377 0
 694 0006 0348     		ldr	r0, .L76
 695 0008 FFF7FEFF 		bl	serve_interrupt
 696              	.LVL58:
 697              		.loc 1 380 0
 698 000c BDE80840 		pop	{r3, lr}
 699              		.cfi_restore 14
 700              		.cfi_restore 3
 701              		.cfi_def_cfa_offset 0
 702              		.loc 1 379 0
 703 0010 FFF7FEBF 		b	_port_irq_epilogue
 704              	.LVL59:
 705              	.L77:
 706              		.align	2
 707              	.L76:
 708 0014 00000000 		.word	.LANCHOR3
 709              		.cfi_endproc
 710              	.LFE335:
 711              		.size	Vector110, .-Vector110
 712              		.section	.text.Vector114,"ax",%progbits
 713              		.align	1
 714              		.global	Vector114
 715              		.thumb
 716              		.thumb_func
 717              		.type	Vector114, %function
 718              	Vector114:
 719              	.LFB336:
 720              		.loc 1 392 0
 721              		.cfi_startproc
 722              		@ args = 0, pretend = 0, frame = 0
 723              		@ frame_needed = 0, uses_anonymous_args = 0
 724 0000 08B5     		push	{r3, lr}
 725              		.cfi_def_cfa_offset 8
 726              		.cfi_offset 3, -8
 727              		.cfi_offset 14, -4
 728              		.loc 1 394 0
 729 0002 FFF7FEFF 		bl	_stats_increase_irq
 730              	.LVL60:
 731              		.loc 1 396 0
 732 0006 0348     		ldr	r0, .L79
 733 0008 FFF7FEFF 		bl	serve_interrupt
 734              	.LVL61:
 735              		.loc 1 399 0
 736 000c BDE80840 		pop	{r3, lr}
 737              		.cfi_restore 14
 738              		.cfi_restore 3
 739              		.cfi_def_cfa_offset 0
 740              		.loc 1 398 0
 741 0010 FFF7FEBF 		b	_port_irq_epilogue
ARM GAS  /tmp/ccVENqVe.s 			page 14


 742              	.LVL62:
 743              	.L80:
 744              		.align	2
 745              	.L79:
 746 0014 00000000 		.word	.LANCHOR4
 747              		.cfi_endproc
 748              	.LFE336:
 749              		.size	Vector114, .-Vector114
 750              		.section	.text.sd_lld_init,"ax",%progbits
 751              		.align	1
 752              		.global	sd_lld_init
 753              		.thumb
 754              		.thumb_func
 755              		.type	sd_lld_init, %function
 756              	sd_lld_init:
 757              	.LFB337:
 758              		.loc 1 468 0
 759              		.cfi_startproc
 760              		@ args = 0, pretend = 0, frame = 0
 761              		@ frame_needed = 0, uses_anonymous_args = 0
 762 0000 10B5     		push	{r4, lr}
 763              		.cfi_def_cfa_offset 8
 764              		.cfi_offset 4, -8
 765              		.cfi_offset 14, -4
 766              		.loc 1 471 0
 767 0002 174C     		ldr	r4, .L82
 768 0004 174A     		ldr	r2, .L82+4
 769 0006 2046     		mov	r0, r4
 770 0008 0021     		movs	r1, #0
 771 000a FFF7FEFF 		bl	sdObjectInit
 772              	.LVL63:
 773              		.loc 1 472 0
 774 000e 164B     		ldr	r3, .L82+8
 775 0010 C4F85434 		str	r3, [r4, #1108]
 776              		.loc 1 476 0
 777 0014 154C     		ldr	r4, .L82+12
 778 0016 164A     		ldr	r2, .L82+16
 779 0018 2046     		mov	r0, r4
 780 001a 0021     		movs	r1, #0
 781 001c FFF7FEFF 		bl	sdObjectInit
 782              	.LVL64:
 783              		.loc 1 477 0
 784 0020 144B     		ldr	r3, .L82+20
 785 0022 C4F85434 		str	r3, [r4, #1108]
 786              		.loc 1 481 0
 787 0026 144C     		ldr	r4, .L82+24
 788 0028 144A     		ldr	r2, .L82+28
 789 002a 2046     		mov	r0, r4
 790 002c 0021     		movs	r1, #0
 791 002e FFF7FEFF 		bl	sdObjectInit
 792              	.LVL65:
 793              		.loc 1 482 0
 794 0032 134B     		ldr	r3, .L82+32
 795 0034 C4F85434 		str	r3, [r4, #1108]
 796              		.loc 1 486 0
 797 0038 124C     		ldr	r4, .L82+36
 798 003a 134A     		ldr	r2, .L82+40
ARM GAS  /tmp/ccVENqVe.s 			page 15


 799 003c 2046     		mov	r0, r4
 800 003e 0021     		movs	r1, #0
 801 0040 FFF7FEFF 		bl	sdObjectInit
 802              	.LVL66:
 803              		.loc 1 487 0
 804 0044 114B     		ldr	r3, .L82+44
 805 0046 C4F85434 		str	r3, [r4, #1108]
 806              		.loc 1 491 0
 807 004a 114C     		ldr	r4, .L82+48
 808 004c 114A     		ldr	r2, .L82+52
 809 004e 2046     		mov	r0, r4
 810 0050 0021     		movs	r1, #0
 811 0052 FFF7FEFF 		bl	sdObjectInit
 812              	.LVL67:
 813              		.loc 1 492 0
 814 0056 104B     		ldr	r3, .L82+56
 815 0058 C4F85434 		str	r3, [r4, #1108]
 816 005c 10BD     		pop	{r4, pc}
 817              	.L83:
 818 005e 00BF     		.align	2
 819              	.L82:
 820 0060 00000000 		.word	.LANCHOR0
 821 0064 00000000 		.word	notify1
 822 0068 00100140 		.word	1073811456
 823 006c 00000000 		.word	.LANCHOR1
 824 0070 00000000 		.word	notify2
 825 0074 00440040 		.word	1073759232
 826 0078 00000000 		.word	.LANCHOR2
 827 007c 00000000 		.word	notify3
 828 0080 00480040 		.word	1073760256
 829 0084 00000000 		.word	.LANCHOR3
 830 0088 00000000 		.word	notify4
 831 008c 004C0040 		.word	1073761280
 832 0090 00000000 		.word	.LANCHOR4
 833 0094 00000000 		.word	notify5
 834 0098 00500040 		.word	1073762304
 835              		.cfi_endproc
 836              	.LFE337:
 837              		.size	sd_lld_init, .-sd_lld_init
 838              		.section	.text.sd_lld_start,"ax",%progbits
 839              		.align	1
 840              		.global	sd_lld_start
 841              		.thumb
 842              		.thumb_func
 843              		.type	sd_lld_start, %function
 844              	sd_lld_start:
 845              	.LFB338:
 846              		.loc 1 521 0
 847              		.cfi_startproc
 848              		@ args = 0, pretend = 0, frame = 0
 849              		@ frame_needed = 0, uses_anonymous_args = 0
 850              	.LVL68:
 851 0000 38B5     		push	{r3, r4, r5, lr}
 852              		.cfi_def_cfa_offset 16
 853              		.cfi_offset 3, -16
 854              		.cfi_offset 4, -12
 855              		.cfi_offset 5, -8
ARM GAS  /tmp/ccVENqVe.s 			page 16


 856              		.cfi_offset 14, -4
 857              		.loc 1 524 0
 858 0002 474D     		ldr	r5, .L102
 859              		.loc 1 528 0
 860 0004 037A     		ldrb	r3, [r0, #8]	@ zero_extendqisi2
 861              		.loc 1 524 0
 862 0006 0029     		cmp	r1, #0
 863 0008 18BF     		it	ne
 864 000a 0D46     		movne	r5, r1
 865              	.LVL69:
 866              		.loc 1 528 0
 867 000c 012B     		cmp	r3, #1
 868              		.loc 1 521 0
 869 000e 0446     		mov	r4, r0
 870              		.loc 1 526 0
 871 0010 C0F85C54 		str	r5, [r0, #1116]
 872              		.loc 1 528 0
 873 0014 4CD1     		bne	.L87
 874              		.loc 1 530 0
 875 0016 434B     		ldr	r3, .L102+4
 876 0018 9842     		cmp	r0, r3
 877 001a 0BD1     		bne	.L88
 878              		.loc 1 531 0
 879 001c 424B     		ldr	r3, .L102+8
 880 001e 5A6C     		ldr	r2, [r3, #68]
 881 0020 42F01002 		orr	r2, r2, #16
 882 0024 5A64     		str	r2, [r3, #68]
 883 0026 5A6E     		ldr	r2, [r3, #100]
 884 0028 42F01002 		orr	r2, r2, #16
 885 002c 5A66     		str	r2, [r3, #100]
 886 002e 5B6E     		ldr	r3, [r3, #100]
 887              		.loc 1 532 0
 888 0030 2520     		movs	r0, #37
 889              	.LVL70:
 890 0032 3AE0     		b	.L99
 891              	.LVL71:
 892              	.L88:
 893              		.loc 1 536 0
 894 0034 3D4B     		ldr	r3, .L102+12
 895 0036 9842     		cmp	r0, r3
 896 0038 0BD1     		bne	.L90
 897              		.loc 1 537 0
 898 003a 3B4B     		ldr	r3, .L102+8
 899 003c 1A6C     		ldr	r2, [r3, #64]
 900 003e 42F40032 		orr	r2, r2, #131072
 901 0042 1A64     		str	r2, [r3, #64]
 902 0044 1A6E     		ldr	r2, [r3, #96]
 903 0046 42F40032 		orr	r2, r2, #131072
 904 004a 1A66     		str	r2, [r3, #96]
 905 004c 1B6E     		ldr	r3, [r3, #96]
 906              		.loc 1 538 0
 907 004e 2620     		movs	r0, #38
 908              	.LVL72:
 909 0050 2BE0     		b	.L99
 910              	.LVL73:
 911              	.L90:
 912              		.loc 1 542 0
ARM GAS  /tmp/ccVENqVe.s 			page 17


 913 0052 374B     		ldr	r3, .L102+16
 914 0054 9842     		cmp	r0, r3
 915 0056 0BD1     		bne	.L91
 916              		.loc 1 543 0
 917 0058 334B     		ldr	r3, .L102+8
 918 005a 1A6C     		ldr	r2, [r3, #64]
 919 005c 42F48022 		orr	r2, r2, #262144
 920 0060 1A64     		str	r2, [r3, #64]
 921 0062 1A6E     		ldr	r2, [r3, #96]
 922 0064 42F48022 		orr	r2, r2, #262144
 923 0068 1A66     		str	r2, [r3, #96]
 924 006a 1B6E     		ldr	r3, [r3, #96]
 925              		.loc 1 544 0
 926 006c 2720     		movs	r0, #39
 927              	.LVL74:
 928 006e 1CE0     		b	.L99
 929              	.LVL75:
 930              	.L91:
 931              		.loc 1 548 0
 932 0070 304B     		ldr	r3, .L102+20
 933 0072 9842     		cmp	r0, r3
 934 0074 0BD1     		bne	.L92
 935              		.loc 1 549 0
 936 0076 2C4B     		ldr	r3, .L102+8
 937 0078 1A6C     		ldr	r2, [r3, #64]
 938 007a 42F40022 		orr	r2, r2, #524288
 939 007e 1A64     		str	r2, [r3, #64]
 940 0080 1A6E     		ldr	r2, [r3, #96]
 941 0082 42F40022 		orr	r2, r2, #524288
 942 0086 1A66     		str	r2, [r3, #96]
 943 0088 1B6E     		ldr	r3, [r3, #96]
 944              		.loc 1 550 0
 945 008a 3420     		movs	r0, #52
 946              	.LVL76:
 947 008c 0DE0     		b	.L99
 948              	.LVL77:
 949              	.L92:
 950              		.loc 1 554 0
 951 008e 2A4B     		ldr	r3, .L102+24
 952 0090 9842     		cmp	r0, r3
 953 0092 0DD1     		bne	.L87
 954              		.loc 1 555 0
 955 0094 244B     		ldr	r3, .L102+8
 956 0096 1A6C     		ldr	r2, [r3, #64]
 957 0098 42F48012 		orr	r2, r2, #1048576
 958 009c 1A64     		str	r2, [r3, #64]
 959 009e 1A6E     		ldr	r2, [r3, #96]
 960 00a0 42F48012 		orr	r2, r2, #1048576
 961 00a4 1A66     		str	r2, [r3, #96]
 962 00a6 1B6E     		ldr	r3, [r3, #96]
 963              		.loc 1 556 0
 964 00a8 3520     		movs	r0, #53
 965              	.LVL78:
 966              	.L99:
 967 00aa 0B21     		movs	r1, #11
 968 00ac FFF7FEFF 		bl	nvicEnableVector
 969              	.LVL79:
ARM GAS  /tmp/ccVENqVe.s 			page 18


 970              	.L87:
 971              	.LBB198:
 972              	.LBB199:
 973              		.loc 1 109 0
 974 00b0 224B     		ldr	r3, .L102+28
 975              		.loc 1 105 0
 976 00b2 D4F85424 		ldr	r2, [r4, #1108]
 977              	.LVL80:
 978              		.loc 1 109 0
 979 00b6 9A42     		cmp	r2, r3
 980 00b8 2B68     		ldr	r3, [r5]
 981              		.loc 1 113 0
 982 00ba 4FEA5300 		lsr	r0, r3, #1
 983              		.loc 1 109 0
 984 00be 02D0     		beq	.L93
 985 00c0 1F49     		ldr	r1, .L102+32
 986 00c2 8A42     		cmp	r2, r1
 987 00c4 01D1     		bne	.L94
 988              	.L93:
 989              		.loc 1 113 0
 990 00c6 1F49     		ldr	r1, .L102+36
 991 00c8 00E0     		b	.L100
 992              	.L94:
 993              		.loc 1 115 0
 994 00ca 1F49     		ldr	r1, .L102+40
 995              	.L100:
 996 00cc 0144     		add	r1, r1, r0
 997 00ce B1FBF3F3 		udiv	r3, r1, r3
 998              	.LVL81:
 999              		.loc 1 121 0
 1000 00d2 A988     		ldrh	r1, [r5, #4]
 1001 00d4 0804     		lsls	r0, r1, #16
 1002              		.loc 1 122 0
 1003 00d6 42BF     		ittt	mi
 1004 00d8 23F00700 		bicmi	r0, r3, #7
 1005 00dc 03F00703 		andmi	r3, r3, #7
 1006              	.LVL82:
 1007 00e0 43EA4003 		orrmi	r3, r3, r0, lsl #1
 1008              	.LVL83:
 1009              		.loc 1 124 0
 1010 00e4 9360     		str	r3, [r2, #8]
 1011              		.loc 1 127 0
 1012 00e6 EB88     		ldrh	r3, [r5, #6]
 1013              	.LVL84:
 1014 00e8 43F04003 		orr	r3, r3, #64
 1015 00ec 9BB2     		uxth	r3, r3
 1016 00ee 1361     		str	r3, [r2, #16]
 1017              	.LVL85:
 1018              		.loc 1 128 0
 1019 00f0 2B89     		ldrh	r3, [r5, #8]
 1020 00f2 43F00103 		orr	r3, r3, #1
 1021 00f6 9BB2     		uxth	r3, r3
 1022 00f8 5361     		str	r3, [r2, #20]
 1023              		.loc 1 129 0
 1024 00fa 41F40453 		orr	r3, r1, #8448
 1025 00fe 43F02C03 		orr	r3, r3, #44
 1026 0102 D360     		str	r3, [r2, #12]
ARM GAS  /tmp/ccVENqVe.s 			page 19


 1027              		.loc 1 138 0
 1028 0104 01F4A051 		and	r1, r1, #5120
 1029              		.loc 1 132 0
 1030 0108 0023     		movs	r3, #0
 1031 010a 1360     		str	r3, [r2]
 1032              		.loc 1 138 0
 1033 010c B1F5806F 		cmp	r1, #1024
 1034              		.loc 1 133 0
 1035 0110 1368     		ldr	r3, [r2]
 1036              		.loc 1 134 0
 1037 0112 5368     		ldr	r3, [r2, #4]
 1038              		.loc 1 139 0
 1039 0114 0CBF     		ite	eq
 1040 0116 7F23     		moveq	r3, #127
 1041              		.loc 1 142 0
 1042 0118 FF23     		movne	r3, #255
 1043 011a 84F85834 		strb	r3, [r4, #1112]
 1044 011e 38BD     		pop	{r3, r4, r5, pc}
 1045              	.LVL86:
 1046              	.L103:
 1047              		.align	2
 1048              	.L102:
 1049 0120 00000000 		.word	.LANCHOR5
 1050 0124 00000000 		.word	.LANCHOR0
 1051 0128 00380240 		.word	1073887232
 1052 012c 00000000 		.word	.LANCHOR1
 1053 0130 00000000 		.word	.LANCHOR2
 1054 0134 00000000 		.word	.LANCHOR3
 1055 0138 00000000 		.word	.LANCHOR4
 1056 013c 00100140 		.word	1073811456
 1057 0140 00140140 		.word	1073812480
 1058 0144 00BD0105 		.word	84000000
 1059 0148 80DE8002 		.word	42000000
 1060              	.LBE199:
 1061              	.LBE198:
 1062              		.cfi_endproc
 1063              	.LFE338:
 1064              		.size	sd_lld_start, .-sd_lld_start
 1065              		.section	.text.sd_lld_stop,"ax",%progbits
 1066              		.align	1
 1067              		.global	sd_lld_stop
 1068              		.thumb
 1069              		.thumb_func
 1070              		.type	sd_lld_stop, %function
 1071              	sd_lld_stop:
 1072              	.LFB339:
 1073              		.loc 1 590 0
 1074              		.cfi_startproc
 1075              		@ args = 0, pretend = 0, frame = 0
 1076              		@ frame_needed = 0, uses_anonymous_args = 0
 1077              		@ link register save eliminated.
 1078              	.LVL87:
 1079              		.loc 1 592 0
 1080 0000 037A     		ldrb	r3, [r0, #8]	@ zero_extendqisi2
 1081 0002 022B     		cmp	r3, #2
 1082 0004 51D1     		bne	.L104
 1083              		.loc 1 593 0
ARM GAS  /tmp/ccVENqVe.s 			page 20


 1084 0006 D0F85434 		ldr	r3, [r0, #1108]
 1085              	.LVL88:
 1086              	.LBB200:
 1087              	.LBB201:
 1088              		.loc 1 154 0
 1089 000a 0022     		movs	r2, #0
 1090 000c DA60     		str	r2, [r3, #12]
 1091              		.loc 1 155 0
 1092 000e 1A61     		str	r2, [r3, #16]
 1093              		.loc 1 156 0
 1094 0010 5A61     		str	r2, [r3, #20]
 1095              	.LBE201:
 1096              	.LBE200:
 1097              		.loc 1 595 0
 1098 0012 264B     		ldr	r3, .L113
 1099              	.LVL89:
 1100 0014 9842     		cmp	r0, r3
 1101 0016 0BD1     		bne	.L107
 1102              		.loc 1 596 0
 1103 0018 254B     		ldr	r3, .L113+4
 1104 001a 5A6C     		ldr	r2, [r3, #68]
 1105 001c 22F01002 		bic	r2, r2, #16
 1106 0020 5A64     		str	r2, [r3, #68]
 1107 0022 5A6E     		ldr	r2, [r3, #100]
 1108 0024 22F01002 		bic	r2, r2, #16
 1109 0028 5A66     		str	r2, [r3, #100]
 1110 002a 5B6E     		ldr	r3, [r3, #100]
 1111              		.loc 1 597 0
 1112 002c 2520     		movs	r0, #37
 1113              	.LVL90:
 1114 002e 3AE0     		b	.L112
 1115              	.LVL91:
 1116              	.L107:
 1117              		.loc 1 602 0
 1118 0030 204B     		ldr	r3, .L113+8
 1119 0032 9842     		cmp	r0, r3
 1120 0034 0BD1     		bne	.L108
 1121              		.loc 1 603 0
 1122 0036 1E4B     		ldr	r3, .L113+4
 1123 0038 1A6C     		ldr	r2, [r3, #64]
 1124 003a 22F40032 		bic	r2, r2, #131072
 1125 003e 1A64     		str	r2, [r3, #64]
 1126 0040 1A6E     		ldr	r2, [r3, #96]
 1127 0042 22F40032 		bic	r2, r2, #131072
 1128 0046 1A66     		str	r2, [r3, #96]
 1129 0048 1B6E     		ldr	r3, [r3, #96]
 1130              		.loc 1 604 0
 1131 004a 2620     		movs	r0, #38
 1132              	.LVL92:
 1133 004c 2BE0     		b	.L112
 1134              	.LVL93:
 1135              	.L108:
 1136              		.loc 1 609 0
 1137 004e 1A4B     		ldr	r3, .L113+12
 1138 0050 9842     		cmp	r0, r3
 1139 0052 0BD1     		bne	.L109
 1140              		.loc 1 610 0
ARM GAS  /tmp/ccVENqVe.s 			page 21


 1141 0054 164B     		ldr	r3, .L113+4
 1142 0056 1A6C     		ldr	r2, [r3, #64]
 1143 0058 22F48022 		bic	r2, r2, #262144
 1144 005c 1A64     		str	r2, [r3, #64]
 1145 005e 1A6E     		ldr	r2, [r3, #96]
 1146 0060 22F48022 		bic	r2, r2, #262144
 1147 0064 1A66     		str	r2, [r3, #96]
 1148 0066 1B6E     		ldr	r3, [r3, #96]
 1149              		.loc 1 611 0
 1150 0068 2720     		movs	r0, #39
 1151              	.LVL94:
 1152 006a 1CE0     		b	.L112
 1153              	.LVL95:
 1154              	.L109:
 1155              		.loc 1 616 0
 1156 006c 134B     		ldr	r3, .L113+16
 1157 006e 9842     		cmp	r0, r3
 1158 0070 0BD1     		bne	.L110
 1159              		.loc 1 617 0
 1160 0072 0F4B     		ldr	r3, .L113+4
 1161 0074 1A6C     		ldr	r2, [r3, #64]
 1162 0076 22F40022 		bic	r2, r2, #524288
 1163 007a 1A64     		str	r2, [r3, #64]
 1164 007c 1A6E     		ldr	r2, [r3, #96]
 1165 007e 22F40022 		bic	r2, r2, #524288
 1166 0082 1A66     		str	r2, [r3, #96]
 1167 0084 1B6E     		ldr	r3, [r3, #96]
 1168              		.loc 1 618 0
 1169 0086 3420     		movs	r0, #52
 1170              	.LVL96:
 1171 0088 0DE0     		b	.L112
 1172              	.LVL97:
 1173              	.L110:
 1174              		.loc 1 623 0
 1175 008a 0D4B     		ldr	r3, .L113+20
 1176 008c 9842     		cmp	r0, r3
 1177 008e 0CD1     		bne	.L104
 1178              		.loc 1 624 0
 1179 0090 074B     		ldr	r3, .L113+4
 1180 0092 1A6C     		ldr	r2, [r3, #64]
 1181 0094 22F48012 		bic	r2, r2, #1048576
 1182 0098 1A64     		str	r2, [r3, #64]
 1183 009a 1A6E     		ldr	r2, [r3, #96]
 1184 009c 22F48012 		bic	r2, r2, #1048576
 1185 00a0 1A66     		str	r2, [r3, #96]
 1186 00a2 1B6E     		ldr	r3, [r3, #96]
 1187              		.loc 1 625 0
 1188 00a4 3520     		movs	r0, #53
 1189              	.LVL98:
 1190              	.L112:
 1191 00a6 FFF7FEBF 		b	nvicDisableVector
 1192              	.LVL99:
 1193              	.L104:
 1194 00aa 7047     		bx	lr
 1195              	.L114:
 1196              		.align	2
 1197              	.L113:
ARM GAS  /tmp/ccVENqVe.s 			page 22


 1198 00ac 00000000 		.word	.LANCHOR0
 1199 00b0 00380240 		.word	1073887232
 1200 00b4 00000000 		.word	.LANCHOR1
 1201 00b8 00000000 		.word	.LANCHOR2
 1202 00bc 00000000 		.word	.LANCHOR3
 1203 00c0 00000000 		.word	.LANCHOR4
 1204              		.cfi_endproc
 1205              	.LFE339:
 1206              		.size	sd_lld_stop, .-sd_lld_stop
 1207              		.global	SD5
 1208              		.global	SD4
 1209              		.global	SD3
 1210              		.global	SD2
 1211              		.global	SD1
 1212              		.section	.rodata.default_config,"a",%progbits
 1213              		.align	2
 1214              		.set	.LANCHOR5,. + 0
 1215              		.type	default_config, %object
 1216              		.size	default_config, 20
 1217              	default_config:
 1218 0000 00960000 		.word	38400
 1219 0004 0000     		.short	0
 1220 0006 0000     		.short	0
 1221 0008 0000     		.short	0
 1222 000a 0000     		.space	2
 1223 000c 00000000 		.word	0
 1224 0010 00000000 		.word	0
 1225              		.section	.bss.SD1,"aw",%nobits
 1226              		.align	2
 1227              		.set	.LANCHOR0,. + 0
 1228              		.type	SD1, %object
 1229              		.size	SD1, 1120
 1230              	SD1:
 1231 0000 00000000 		.space	1120
 1231      00000000 
 1231      00000000 
 1231      00000000 
 1231      00000000 
 1232              		.section	.bss.SD2,"aw",%nobits
 1233              		.align	2
 1234              		.set	.LANCHOR1,. + 0
 1235              		.type	SD2, %object
 1236              		.size	SD2, 1120
 1237              	SD2:
 1238 0000 00000000 		.space	1120
 1238      00000000 
 1238      00000000 
 1238      00000000 
 1238      00000000 
 1239              		.section	.bss.SD3,"aw",%nobits
 1240              		.align	2
 1241              		.set	.LANCHOR2,. + 0
 1242              		.type	SD3, %object
 1243              		.size	SD3, 1120
 1244              	SD3:
 1245 0000 00000000 		.space	1120
 1245      00000000 
ARM GAS  /tmp/ccVENqVe.s 			page 23


 1245      00000000 
 1245      00000000 
 1245      00000000 
 1246              		.section	.bss.SD4,"aw",%nobits
 1247              		.align	2
 1248              		.set	.LANCHOR3,. + 0
 1249              		.type	SD4, %object
 1250              		.size	SD4, 1120
 1251              	SD4:
 1252 0000 00000000 		.space	1120
 1252      00000000 
 1252      00000000 
 1252      00000000 
 1252      00000000 
 1253              		.section	.bss.SD5,"aw",%nobits
 1254              		.align	2
 1255              		.set	.LANCHOR4,. + 0
 1256              		.type	SD5, %object
 1257              		.size	SD5, 1120
 1258              	SD5:
 1259 0000 00000000 		.space	1120
 1259      00000000 
 1259      00000000 
 1259      00000000 
 1259      00000000 
 1260              		.text
 1261              	.Letext0:
 1262              		.file 5 "/usr/lib/gcc/arm-none-eabi/4.9.3/include/stddef.h"
 1263              		.file 6 "/usr/include/newlib/machine/_default_types.h"
 1264              		.file 7 "/usr/include/newlib/sys/_stdint.h"
 1265              		.file 8 "../../modules/ChibiOS/os/common/ports/ARMCMx/compilers/GCC/chtypes.h"
 1266              		.file 9 "../../modules/ChibiOS/os/rt/include/chsystypes.h"
 1267              		.file 10 "../../modules/ChibiOS/os/rt/include/chschd.h"
 1268              		.file 11 "../../modules/ChibiOS/os/rt/include/chtime.h"
 1269              		.file 12 "../../modules/ChibiOS/os/common/ext/ST/STM32F4xx/stm32f407xx.h"
 1270              		.file 13 "../../modules/ChibiOS/os/common/ports/ARMCMx/chcore.h"
 1271              		.file 14 "../../modules/ChibiOS/os/common/ports/ARMCMx/chcore_v7m.h"
 1272              		.file 15 "../../modules/ChibiOS/os/rt/include/chtm.h"
 1273              		.file 16 "../../modules/ChibiOS/os/rt/include/chstats.h"
 1274              		.file 17 "../../modules/ChibiOS/os/rt/include/chsem.h"
 1275              		.file 18 "../../modules/ChibiOS/os/rt/include/chmtx.h"
 1276              		.file 19 "../../modules/ChibiOS/os/rt/include/chevents.h"
 1277              		.file 20 "../../modules/ChibiOS/os/hal/include/hal_queues.h"
 1278              		.file 21 "../../modules/ChibiOS/os/hal/include/hal_serial.h"
 1279              		.file 22 "../../modules/ChibiOS/os/hal/ports/STM32/LLD/USARTv1/hal_serial_lld.h"
 1280              		.file 23 "../../modules/ChibiOS/os/hal/ports/common/ARMCMx/nvic.h"
 1281              		.file 24 "../../modules/ChibiOS/os/common/ext/ARM/CMSIS/Core/Include/core_cm4.h"