ARM GAS  /tmp/cctly5Cq.s 			page 1


   1              		.syntax unified
   2              		.cpu cortex-m4
   3              		.eabi_attribute 27, 1
   4              		.eabi_attribute 28, 1
   5              		.fpu fpv4-sp-d16
   6              		.eabi_attribute 20, 1
   7              		.eabi_attribute 21, 1
   8              		.eabi_attribute 23, 3
   9              		.eabi_attribute 24, 1
  10              		.eabi_attribute 25, 1
  11              		.eabi_attribute 26, 1
  12              		.eabi_attribute 30, 4
  13              		.eabi_attribute 34, 1
  14              		.eabi_attribute 18, 4
  15              		.thumb
  16              		.file	"hal_serial.c"
  17              		.text
  18              	.Ltext0:
  19              		.cfi_sections	.debug_frame
  20              		.section	.text._ctl,"ax",%progbits
  21              		.align	1
  22              		.thumb
  23              		.thumb_func
  24              		.type	_ctl, %function
  25              	_ctl:
  26              	.LFB331:
  27              		.file 1 "../../modules/ChibiOS/os/hal/src/hal_serial.c"
  28              		.loc 1 94 0
  29              		.cfi_startproc
  30              		@ args = 0, pretend = 0, frame = 0
  31              		@ frame_needed = 0, uses_anonymous_args = 0
  32              		@ link register save eliminated.
  33              	.LVL0:
  34              		.loc 1 115 0
  35 0000 0020     		movs	r0, #0
  36              	.LVL1:
  37 0002 7047     		bx	lr
  38              		.cfi_endproc
  39              	.LFE331:
  40              		.size	_ctl, .-_ctl
  41              		.section	.text._readt,"ax",%progbits
  42              		.align	1
  43              		.thumb
  44              		.thumb_func
  45              		.type	_readt, %function
  46              	_readt:
  47              	.LFB330:
  48              		.loc 1 89 0
  49              		.cfi_startproc
  50              		@ args = 0, pretend = 0, frame = 0
  51              		@ frame_needed = 0, uses_anonymous_args = 0
  52              		@ link register save eliminated.
  53              	.LVL2:
  54              		.loc 1 91 0
  55 0000 0C30     		adds	r0, r0, #12
  56              	.LVL3:
  57 0002 FFF7FEBF 		b	iqReadTimeout
ARM GAS  /tmp/cctly5Cq.s 			page 2


  58              	.LVL4:
  59              		.cfi_endproc
  60              	.LFE330:
  61              		.size	_readt, .-_readt
  62              		.section	.text._read,"ax",%progbits
  63              		.align	1
  64              		.thumb
  65              		.thumb_func
  66              		.type	_read, %function
  67              	_read:
  68              	.LFB324:
  69              		.loc 1 56 0
  70              		.cfi_startproc
  71              		@ args = 0, pretend = 0, frame = 0
  72              		@ frame_needed = 0, uses_anonymous_args = 0
  73              		@ link register save eliminated.
  74              	.LVL5:
  75              		.loc 1 58 0
  76 0000 0C30     		adds	r0, r0, #12
  77              	.LVL6:
  78 0002 4FF0FF33 		mov	r3, #-1
  79 0006 FFF7FEBF 		b	iqReadTimeout
  80              	.LVL7:
  81              		.cfi_endproc
  82              	.LFE324:
  83              		.size	_read, .-_read
  84              		.section	.text._writet,"ax",%progbits
  85              		.align	1
  86              		.thumb
  87              		.thumb_func
  88              		.type	_writet, %function
  89              	_writet:
  90              	.LFB329:
  91              		.loc 1 83 0
  92              		.cfi_startproc
  93              		@ args = 0, pretend = 0, frame = 0
  94              		@ frame_needed = 0, uses_anonymous_args = 0
  95              		@ link register save eliminated.
  96              	.LVL8:
  97              		.loc 1 85 0
  98 0000 3030     		adds	r0, r0, #48
  99              	.LVL9:
 100 0002 FFF7FEBF 		b	oqWriteTimeout
 101              	.LVL10:
 102              		.cfi_endproc
 103              	.LFE329:
 104              		.size	_writet, .-_writet
 105              		.section	.text._write,"ax",%progbits
 106              		.align	1
 107              		.thumb
 108              		.thumb_func
 109              		.type	_write, %function
 110              	_write:
 111              	.LFB323:
 112              		.loc 1 50 0
 113              		.cfi_startproc
 114              		@ args = 0, pretend = 0, frame = 0
ARM GAS  /tmp/cctly5Cq.s 			page 3


 115              		@ frame_needed = 0, uses_anonymous_args = 0
 116              		@ link register save eliminated.
 117              	.LVL11:
 118              		.loc 1 52 0
 119 0000 3030     		adds	r0, r0, #48
 120              	.LVL12:
 121 0002 4FF0FF33 		mov	r3, #-1
 122 0006 FFF7FEBF 		b	oqWriteTimeout
 123              	.LVL13:
 124              		.cfi_endproc
 125              	.LFE323:
 126              		.size	_write, .-_write
 127              		.section	.text._gett,"ax",%progbits
 128              		.align	1
 129              		.thumb
 130              		.thumb_func
 131              		.type	_gett, %function
 132              	_gett:
 133              	.LFB328:
 134              		.loc 1 77 0
 135              		.cfi_startproc
 136              		@ args = 0, pretend = 0, frame = 0
 137              		@ frame_needed = 0, uses_anonymous_args = 0
 138              		@ link register save eliminated.
 139              	.LVL14:
 140              		.loc 1 79 0
 141 0000 0C30     		adds	r0, r0, #12
 142              	.LVL15:
 143 0002 FFF7FEBF 		b	iqGetTimeout
 144              	.LVL16:
 145              		.cfi_endproc
 146              	.LFE328:
 147              		.size	_gett, .-_gett
 148              		.section	.text._get,"ax",%progbits
 149              		.align	1
 150              		.thumb
 151              		.thumb_func
 152              		.type	_get, %function
 153              	_get:
 154              	.LFB326:
 155              		.loc 1 67 0
 156              		.cfi_startproc
 157              		@ args = 0, pretend = 0, frame = 0
 158              		@ frame_needed = 0, uses_anonymous_args = 0
 159              		@ link register save eliminated.
 160              	.LVL17:
 161              		.loc 1 69 0
 162 0000 0C30     		adds	r0, r0, #12
 163              	.LVL18:
 164 0002 4FF0FF31 		mov	r1, #-1
 165 0006 FFF7FEBF 		b	iqGetTimeout
 166              	.LVL19:
 167              		.cfi_endproc
 168              	.LFE326:
 169              		.size	_get, .-_get
 170              		.section	.text._putt,"ax",%progbits
 171              		.align	1
ARM GAS  /tmp/cctly5Cq.s 			page 4


 172              		.thumb
 173              		.thumb_func
 174              		.type	_putt, %function
 175              	_putt:
 176              	.LFB327:
 177              		.loc 1 72 0
 178              		.cfi_startproc
 179              		@ args = 0, pretend = 0, frame = 0
 180              		@ frame_needed = 0, uses_anonymous_args = 0
 181              		@ link register save eliminated.
 182              	.LVL20:
 183              		.loc 1 74 0
 184 0000 3030     		adds	r0, r0, #48
 185              	.LVL21:
 186 0002 FFF7FEBF 		b	oqPutTimeout
 187              	.LVL22:
 188              		.cfi_endproc
 189              	.LFE327:
 190              		.size	_putt, .-_putt
 191              		.section	.text._put,"ax",%progbits
 192              		.align	1
 193              		.thumb
 194              		.thumb_func
 195              		.type	_put, %function
 196              	_put:
 197              	.LFB325:
 198              		.loc 1 62 0
 199              		.cfi_startproc
 200              		@ args = 0, pretend = 0, frame = 0
 201              		@ frame_needed = 0, uses_anonymous_args = 0
 202              		@ link register save eliminated.
 203              	.LVL23:
 204              		.loc 1 64 0
 205 0000 3030     		adds	r0, r0, #48
 206              	.LVL24:
 207 0002 4FF0FF32 		mov	r2, #-1
 208 0006 FFF7FEBF 		b	oqPutTimeout
 209              	.LVL25:
 210              		.cfi_endproc
 211              	.LFE325:
 212              		.size	_put, .-_put
 213              		.section	.text.sdInit,"ax",%progbits
 214              		.align	1
 215              		.global	sdInit
 216              		.thumb
 217              		.thumb_func
 218              		.type	sdInit, %function
 219              	sdInit:
 220              	.LFB332:
 221              		.loc 1 135 0
 222              		.cfi_startproc
 223              		@ args = 0, pretend = 0, frame = 0
 224              		@ frame_needed = 0, uses_anonymous_args = 0
 225              		@ link register save eliminated.
 226              		.loc 1 137 0
 227 0000 FFF7FEBF 		b	sd_lld_init
 228              	.LVL26:
ARM GAS  /tmp/cctly5Cq.s 			page 5


 229              		.cfi_endproc
 230              	.LFE332:
 231              		.size	sdInit, .-sdInit
 232              		.section	.text.sdObjectInit,"ax",%progbits
 233              		.align	1
 234              		.global	sdObjectInit
 235              		.thumb
 236              		.thumb_func
 237              		.type	sdObjectInit, %function
 238              	sdObjectInit:
 239              	.LFB333:
 240              		.loc 1 158 0
 241              		.cfi_startproc
 242              		@ args = 0, pretend = 0, frame = 0
 243              		@ frame_needed = 0, uses_anonymous_args = 0
 244              	.LVL27:
 245 0000 37B5     		push	{r0, r1, r2, r4, r5, lr}
 246              		.cfi_def_cfa_offset 24
 247              		.cfi_offset 4, -12
 248              		.cfi_offset 5, -8
 249              		.cfi_offset 14, -4
 250              		.loc 1 158 0
 251 0002 1546     		mov	r5, r2
 252              		.loc 1 160 0
 253 0004 0246     		mov	r2, r0
 254              	.LVL28:
 255              		.loc 1 158 0
 256 0006 0B46     		mov	r3, r1
 257              		.loc 1 160 0
 258 0008 0D49     		ldr	r1, .L12
 259              	.LVL29:
 260 000a 42F8041B 		str	r1, [r2], #4
 261              	.LVL30:
 262              		.loc 1 158 0
 263 000e 0446     		mov	r4, r0
 264              	.LBB46:
 265              	.LBB47:
 266              	.LBB48:
 267              		.file 2 "../../modules/ChibiOS/os/rt/include/chevents.h"
 268              		.loc 2 173 0
 269 0010 4260     		str	r2, [r0, #4]
 270              	.LBE48:
 271              	.LBE47:
 272              	.LBE46:
 273              		.loc 1 162 0
 274 0012 0122     		movs	r2, #1
 275              	.LVL31:
 276 0014 0272     		strb	r2, [r0, #8]
 277              		.loc 1 163 0
 278 0016 04F15401 		add	r1, r4, #84
 279 001a 0090     		str	r0, [sp]
 280 001c 4FF40072 		mov	r2, #512
 281 0020 0C30     		adds	r0, r0, #12
 282              	.LVL32:
 283 0022 FFF7FEFF 		bl	iqObjectInit
 284              	.LVL33:
 285              		.loc 1 164 0
ARM GAS  /tmp/cctly5Cq.s 			page 6


 286 0026 0094     		str	r4, [sp]
 287 0028 04F13000 		add	r0, r4, #48
 288 002c 04F51571 		add	r1, r4, #596
 289 0030 4FF40072 		mov	r2, #512
 290 0034 2B46     		mov	r3, r5
 291 0036 FFF7FEFF 		bl	oqObjectInit
 292              	.LVL34:
 293              		.loc 1 165 0
 294 003a 03B0     		add	sp, sp, #12
 295              		.cfi_def_cfa_offset 12
 296              		@ sp needed
 297 003c 30BD     		pop	{r4, r5, pc}
 298              	.LVL35:
 299              	.L13:
 300 003e 00BF     		.align	2
 301              	.L12:
 302 0040 00000000 		.word	.LANCHOR0
 303              		.cfi_endproc
 304              	.LFE333:
 305              		.size	sdObjectInit, .-sdObjectInit
 306              		.section	.text.sdStart,"ax",%progbits
 307              		.align	1
 308              		.global	sdStart
 309              		.thumb
 310              		.thumb_func
 311              		.type	sdStart, %function
 312              	sdStart:
 313              	.LFB334:
 314              		.loc 1 185 0
 315              		.cfi_startproc
 316              		@ args = 0, pretend = 0, frame = 0
 317              		@ frame_needed = 0, uses_anonymous_args = 0
 318              	.LVL36:
 319 0000 38B5     		push	{r3, r4, r5, lr}
 320              		.cfi_def_cfa_offset 16
 321              		.cfi_offset 3, -16
 322              		.cfi_offset 4, -12
 323              		.cfi_offset 5, -8
 324              		.cfi_offset 14, -4
 325              		.loc 1 185 0
 326 0002 0446     		mov	r4, r0
 327 0004 0D46     		mov	r5, r1
 328              	.LBB63:
 329              	.LBB64:
 330              	.LBB65:
 331              	.LBB66:
 332              	.LBB67:
 333              	.LBB68:
 334              		.file 3 "../../modules/ChibiOS/os/common/ext/ARM/CMSIS/Core/Include/cmsis_gcc.h"
 335              		.loc 3 493 0
 336 0006 2023     		movs	r3, #32
 337              	@ 493 "../../modules/ChibiOS/os/common/ext/ARM/CMSIS/Core/Include/cmsis_gcc.h" 1
 338 0008 83F31188 		MSR basepri, r3
 339              	@ 0 "" 2
 340              		.thumb
 341              	.LBE68:
 342              	.LBE67:
ARM GAS  /tmp/cctly5Cq.s 			page 7


 343              	.LBE66:
 344              		.file 4 "../../modules/ChibiOS/os/rt/include/chsys.h"
 345              		.loc 4 356 0
 346 000c FFF7FEFF 		bl	_stats_start_measure_crit_thd
 347              	.LVL37:
 348              	.LBE65:
 349              	.LBE64:
 350              	.LBE63:
 351              		.loc 1 192 0
 352 0010 2046     		mov	r0, r4
 353 0012 2946     		mov	r1, r5
 354 0014 FFF7FEFF 		bl	sd_lld_start
 355              	.LVL38:
 356              		.loc 1 193 0
 357 0018 0223     		movs	r3, #2
 358 001a 2372     		strb	r3, [r4, #8]
 359              	.LBB69:
 360              	.LBB70:
 361              	.LBB71:
 362              		.loc 4 368 0
 363 001c FFF7FEFF 		bl	_stats_stop_measure_crit_thd
 364              	.LVL39:
 365              	.LBB72:
 366              	.LBB73:
 367              	.LBB74:
 368              		.loc 3 493 0
 369 0020 0023     		movs	r3, #0
 370              	@ 493 "../../modules/ChibiOS/os/common/ext/ARM/CMSIS/Core/Include/cmsis_gcc.h" 1
 371 0022 83F31188 		MSR basepri, r3
 372              	@ 0 "" 2
 373              		.thumb
 374 0026 38BD     		pop	{r3, r4, r5, pc}
 375              	.LBE74:
 376              	.LBE73:
 377              	.LBE72:
 378              	.LBE71:
 379              	.LBE70:
 380              	.LBE69:
 381              		.cfi_endproc
 382              	.LFE334:
 383              		.size	sdStart, .-sdStart
 384              		.section	.text.sdStop,"ax",%progbits
 385              		.align	1
 386              		.global	sdStop
 387              		.thumb
 388              		.thumb_func
 389              		.type	sdStop, %function
 390              	sdStop:
 391              	.LFB335:
 392              		.loc 1 206 0
 393              		.cfi_startproc
 394              		@ args = 0, pretend = 0, frame = 0
 395              		@ frame_needed = 0, uses_anonymous_args = 0
 396              	.LVL40:
 397 0000 10B5     		push	{r4, lr}
 398              		.cfi_def_cfa_offset 8
 399              		.cfi_offset 4, -8
ARM GAS  /tmp/cctly5Cq.s 			page 8


 400              		.cfi_offset 14, -4
 401              	.LBB91:
 402              	.LBB92:
 403              	.LBB93:
 404              	.LBB94:
 405              	.LBB95:
 406              	.LBB96:
 407              		.loc 3 493 0
 408 0002 2023     		movs	r3, #32
 409              	.LBE96:
 410              	.LBE95:
 411              	.LBE94:
 412              	.LBE93:
 413              	.LBE92:
 414              	.LBE91:
 415              		.loc 1 206 0
 416 0004 0446     		mov	r4, r0
 417              	.LBB102:
 418              	.LBB101:
 419              	.LBB100:
 420              	.LBB99:
 421              	.LBB98:
 422              	.LBB97:
 423              		.loc 3 493 0
 424              	@ 493 "../../modules/ChibiOS/os/common/ext/ARM/CMSIS/Core/Include/cmsis_gcc.h" 1
 425 0006 83F31188 		MSR basepri, r3
 426              	@ 0 "" 2
 427              		.thumb
 428              	.LBE97:
 429              	.LBE98:
 430              	.LBE99:
 431              		.loc 4 356 0
 432 000a FFF7FEFF 		bl	_stats_start_measure_crit_thd
 433              	.LVL41:
 434              	.LBE100:
 435              	.LBE101:
 436              	.LBE102:
 437              		.loc 1 215 0
 438 000e 2046     		mov	r0, r4
 439 0010 FFF7FEFF 		bl	sd_lld_stop
 440              	.LVL42:
 441              		.loc 1 216 0
 442 0014 0123     		movs	r3, #1
 443 0016 2372     		strb	r3, [r4, #8]
 444              		.loc 1 217 0
 445 0018 04F13000 		add	r0, r4, #48
 446 001c FFF7FEFF 		bl	oqResetI
 447              	.LVL43:
 448              		.loc 1 218 0
 449 0020 04F10C00 		add	r0, r4, #12
 450 0024 FFF7FEFF 		bl	iqResetI
 451              	.LVL44:
 452              	.LBB103:
 453              	.LBB104:
 454              		.file 5 "../../modules/ChibiOS/os/hal/osal/rt/osal.h"
 455              		.loc 5 618 0
 456 0028 FFF7FEFF 		bl	chSchRescheduleS
ARM GAS  /tmp/cctly5Cq.s 			page 9


 457              	.LVL45:
 458              	.LBE104:
 459              	.LBE103:
 460              	.LBB105:
 461              	.LBB106:
 462              	.LBB107:
 463              		.loc 4 368 0
 464 002c FFF7FEFF 		bl	_stats_stop_measure_crit_thd
 465              	.LVL46:
 466              	.LBB108:
 467              	.LBB109:
 468              	.LBB110:
 469              		.loc 3 493 0
 470 0030 0023     		movs	r3, #0
 471              	@ 493 "../../modules/ChibiOS/os/common/ext/ARM/CMSIS/Core/Include/cmsis_gcc.h" 1
 472 0032 83F31188 		MSR basepri, r3
 473              	@ 0 "" 2
 474              		.thumb
 475 0036 10BD     		pop	{r4, pc}
 476              	.LBE110:
 477              	.LBE109:
 478              	.LBE108:
 479              	.LBE107:
 480              	.LBE106:
 481              	.LBE105:
 482              		.cfi_endproc
 483              	.LFE335:
 484              		.size	sdStop, .-sdStop
 485              		.section	.text.sdIncomingDataI,"ax",%progbits
 486              		.align	1
 487              		.global	sdIncomingDataI
 488              		.thumb
 489              		.thumb_func
 490              		.type	sdIncomingDataI, %function
 491              	sdIncomingDataI:
 492              	.LFB336:
 493              		.loc 1 240 0
 494              		.cfi_startproc
 495              		@ args = 0, pretend = 0, frame = 0
 496              		@ frame_needed = 0, uses_anonymous_args = 0
 497              	.LVL47:
 498 0000 38B5     		push	{r3, r4, r5, lr}
 499              		.cfi_def_cfa_offset 16
 500              		.cfi_offset 3, -16
 501              		.cfi_offset 4, -12
 502              		.cfi_offset 5, -8
 503              		.cfi_offset 14, -4
 504              		.loc 1 245 0
 505 0002 4369     		ldr	r3, [r0, #20]
 506              		.loc 1 240 0
 507 0004 0446     		mov	r4, r0
 508 0006 0D46     		mov	r5, r1
 509              		.loc 1 245 0
 510 0008 1BB9     		cbnz	r3, .L17
 511              	.LVL48:
 512              	.LBB111:
 513              	.LBB112:
ARM GAS  /tmp/cctly5Cq.s 			page 10


 514              		.loc 5 895 0
 515 000a 0430     		adds	r0, r0, #4
 516              	.LVL49:
 517 000c 0421     		movs	r1, #4
 518              	.LVL50:
 519 000e FFF7FEFF 		bl	chEvtBroadcastFlagsI
 520              	.LVL51:
 521              	.L17:
 522              	.LBE112:
 523              	.LBE111:
 524              		.loc 1 247 0
 525 0012 04F10C00 		add	r0, r4, #12
 526 0016 2946     		mov	r1, r5
 527 0018 FFF7FEFF 		bl	iqPutI
 528              	.LVL52:
 529 001c 0028     		cmp	r0, #0
 530 001e 06DA     		bge	.L16
 531              	.LVL53:
 532              	.LBB113:
 533              	.LBB114:
 534              		.loc 5 895 0
 535 0020 201D     		adds	r0, r4, #4
 536              	.LVL54:
 537 0022 4FF48061 		mov	r1, #1024
 538              	.LBE114:
 539              	.LBE113:
 540              		.loc 1 249 0
 541 0026 BDE83840 		pop	{r3, r4, r5, lr}
 542              		.cfi_remember_state
 543              		.cfi_restore 14
 544              		.cfi_restore 5
 545              		.cfi_restore 4
 546              		.cfi_restore 3
 547              		.cfi_def_cfa_offset 0
 548              	.LVL55:
 549              	.LBB116:
 550              	.LBB115:
 551              		.loc 5 895 0
 552 002a FFF7FEBF 		b	chEvtBroadcastFlagsI
 553              	.LVL56:
 554              	.L16:
 555              		.cfi_restore_state
 556 002e 38BD     		pop	{r3, r4, r5, pc}
 557              	.LBE115:
 558              	.LBE116:
 559              		.cfi_endproc
 560              	.LFE336:
 561              		.size	sdIncomingDataI, .-sdIncomingDataI
 562              		.section	.text.sdRequestDataI,"ax",%progbits
 563              		.align	1
 564              		.global	sdRequestDataI
 565              		.thumb
 566              		.thumb_func
 567              		.type	sdRequestDataI, %function
 568              	sdRequestDataI:
 569              	.LFB337:
 570              		.loc 1 266 0
ARM GAS  /tmp/cctly5Cq.s 			page 11


 571              		.cfi_startproc
 572              		@ args = 0, pretend = 0, frame = 0
 573              		@ frame_needed = 0, uses_anonymous_args = 0
 574              	.LVL57:
 575 0000 38B5     		push	{r3, r4, r5, lr}
 576              		.cfi_def_cfa_offset 16
 577              		.cfi_offset 3, -16
 578              		.cfi_offset 4, -12
 579              		.cfi_offset 5, -8
 580              		.cfi_offset 14, -4
 581              		.loc 1 266 0
 582 0002 0446     		mov	r4, r0
 583              		.loc 1 272 0
 584 0004 3030     		adds	r0, r0, #48
 585              	.LVL58:
 586 0006 FFF7FEFF 		bl	oqGetI
 587              	.LVL59:
 588              		.loc 1 273 0
 589 000a 051E     		subs	r5, r0, #0
 590 000c 03DA     		bge	.L21
 591              	.LVL60:
 592              	.LBB117:
 593              	.LBB118:
 594              		.loc 5 895 0
 595 000e 201D     		adds	r0, r4, #4
 596              	.LVL61:
 597 0010 0821     		movs	r1, #8
 598 0012 FFF7FEFF 		bl	chEvtBroadcastFlagsI
 599              	.LVL62:
 600              	.L21:
 601              	.LBE118:
 602              	.LBE117:
 603              		.loc 1 276 0
 604 0016 2846     		mov	r0, r5
 605 0018 38BD     		pop	{r3, r4, r5, pc}
 606              		.cfi_endproc
 607              	.LFE337:
 608              		.size	sdRequestDataI, .-sdRequestDataI
 609              		.section	.text.sdPutWouldBlock,"ax",%progbits
 610              		.align	1
 611              		.global	sdPutWouldBlock
 612              		.thumb
 613              		.thumb_func
 614              		.type	sdPutWouldBlock, %function
 615              	sdPutWouldBlock:
 616              	.LFB338:
 617              		.loc 1 293 0
 618              		.cfi_startproc
 619              		@ args = 0, pretend = 0, frame = 0
 620              		@ frame_needed = 0, uses_anonymous_args = 0
 621              	.LVL63:
 622 0000 10B5     		push	{r4, lr}
 623              		.cfi_def_cfa_offset 8
 624              		.cfi_offset 4, -8
 625              		.cfi_offset 14, -4
 626              	.LBB133:
 627              	.LBB134:
ARM GAS  /tmp/cctly5Cq.s 			page 12


 628              	.LBB135:
 629              	.LBB136:
 630              	.LBB137:
 631              	.LBB138:
 632              		.loc 3 493 0
 633 0002 2023     		movs	r3, #32
 634              	.LBE138:
 635              	.LBE137:
 636              	.LBE136:
 637              	.LBE135:
 638              	.LBE134:
 639              	.LBE133:
 640              		.loc 1 293 0
 641 0004 0446     		mov	r4, r0
 642              	.LBB144:
 643              	.LBB143:
 644              	.LBB142:
 645              	.LBB141:
 646              	.LBB140:
 647              	.LBB139:
 648              		.loc 3 493 0
 649              	@ 493 "../../modules/ChibiOS/os/common/ext/ARM/CMSIS/Core/Include/cmsis_gcc.h" 1
 650 0006 83F31188 		MSR basepri, r3
 651              	@ 0 "" 2
 652              		.thumb
 653              	.LBE139:
 654              	.LBE140:
 655              	.LBE141:
 656              		.loc 4 356 0
 657 000a FFF7FEFF 		bl	_stats_start_measure_crit_thd
 658              	.LVL64:
 659              	.LBE142:
 660              	.LBE143:
 661              	.LBE144:
 662              		.loc 1 297 0
 663 000e A46B     		ldr	r4, [r4, #56]
 664              	.LVL65:
 665              	.LBB145:
 666              	.LBB146:
 667              	.LBB147:
 668              		.loc 4 368 0
 669 0010 FFF7FEFF 		bl	_stats_stop_measure_crit_thd
 670              	.LVL66:
 671              	.LBB148:
 672              	.LBB149:
 673              	.LBB150:
 674              		.loc 3 493 0
 675 0014 0023     		movs	r3, #0
 676              	@ 493 "../../modules/ChibiOS/os/common/ext/ARM/CMSIS/Core/Include/cmsis_gcc.h" 1
 677 0016 83F31188 		MSR basepri, r3
 678              	@ 0 "" 2
 679              		.thumb
 680              	.LBE150:
 681              	.LBE149:
 682              	.LBE148:
 683              	.LBE147:
 684              	.LBE146:
ARM GAS  /tmp/cctly5Cq.s 			page 13


 685              	.LBE145:
 686              		.loc 1 301 0
 687 001a B4FA84F0 		clz	r0, r4
 688 001e 4009     		lsrs	r0, r0, #5
 689 0020 10BD     		pop	{r4, pc}
 690              		.cfi_endproc
 691              	.LFE338:
 692              		.size	sdPutWouldBlock, .-sdPutWouldBlock
 693              		.section	.text.sdGetWouldBlock,"ax",%progbits
 694              		.align	1
 695              		.global	sdGetWouldBlock
 696              		.thumb
 697              		.thumb_func
 698              		.type	sdGetWouldBlock, %function
 699              	sdGetWouldBlock:
 700              	.LFB339:
 701              		.loc 1 318 0
 702              		.cfi_startproc
 703              		@ args = 0, pretend = 0, frame = 0
 704              		@ frame_needed = 0, uses_anonymous_args = 0
 705              	.LVL67:
 706 0000 10B5     		push	{r4, lr}
 707              		.cfi_def_cfa_offset 8
 708              		.cfi_offset 4, -8
 709              		.cfi_offset 14, -4
 710              	.LBB165:
 711              	.LBB166:
 712              	.LBB167:
 713              	.LBB168:
 714              	.LBB169:
 715              	.LBB170:
 716              		.loc 3 493 0
 717 0002 2023     		movs	r3, #32
 718              	.LBE170:
 719              	.LBE169:
 720              	.LBE168:
 721              	.LBE167:
 722              	.LBE166:
 723              	.LBE165:
 724              		.loc 1 318 0
 725 0004 0446     		mov	r4, r0
 726              	.LBB176:
 727              	.LBB175:
 728              	.LBB174:
 729              	.LBB173:
 730              	.LBB172:
 731              	.LBB171:
 732              		.loc 3 493 0
 733              	@ 493 "../../modules/ChibiOS/os/common/ext/ARM/CMSIS/Core/Include/cmsis_gcc.h" 1
 734 0006 83F31188 		MSR basepri, r3
 735              	@ 0 "" 2
 736              		.thumb
 737              	.LBE171:
 738              	.LBE172:
 739              	.LBE173:
 740              		.loc 4 356 0
 741 000a FFF7FEFF 		bl	_stats_start_measure_crit_thd
ARM GAS  /tmp/cctly5Cq.s 			page 14


 742              	.LVL68:
 743              	.LBE174:
 744              	.LBE175:
 745              	.LBE176:
 746              		.loc 1 322 0
 747 000e 6469     		ldr	r4, [r4, #20]
 748              	.LVL69:
 749              	.LBB177:
 750              	.LBB178:
 751              	.LBB179:
 752              		.loc 4 368 0
 753 0010 FFF7FEFF 		bl	_stats_stop_measure_crit_thd
 754              	.LVL70:
 755              	.LBB180:
 756              	.LBB181:
 757              	.LBB182:
 758              		.loc 3 493 0
 759 0014 0023     		movs	r3, #0
 760              	@ 493 "../../modules/ChibiOS/os/common/ext/ARM/CMSIS/Core/Include/cmsis_gcc.h" 1
 761 0016 83F31188 		MSR basepri, r3
 762              	@ 0 "" 2
 763              		.thumb
 764              	.LBE182:
 765              	.LBE181:
 766              	.LBE180:
 767              	.LBE179:
 768              	.LBE178:
 769              	.LBE177:
 770              		.loc 1 326 0
 771 001a B4FA84F0 		clz	r0, r4
 772 001e 4009     		lsrs	r0, r0, #5
 773 0020 10BD     		pop	{r4, pc}
 774              		.cfi_endproc
 775              	.LFE339:
 776              		.size	sdGetWouldBlock, .-sdGetWouldBlock
 777              		.section	.text.sdControl,"ax",%progbits
 778              		.align	1
 779              		.global	sdControl
 780              		.thumb
 781              		.thumb_func
 782              		.type	sdControl, %function
 783              	sdControl:
 784              	.LFB340:
 785              		.loc 1 342 0
 786              		.cfi_startproc
 787              		@ args = 0, pretend = 0, frame = 0
 788              		@ frame_needed = 0, uses_anonymous_args = 0
 789              		@ link register save eliminated.
 790              	.LVL71:
 791              		.loc 1 345 0
 792 0000 0020     		movs	r0, #0
 793              	.LVL72:
 794 0002 7047     		bx	lr
 795              		.cfi_endproc
 796              	.LFE340:
 797              		.size	sdControl, .-sdControl
 798              		.section	.rodata.vmt,"a",%progbits
ARM GAS  /tmp/cctly5Cq.s 			page 15


 799              		.align	2
 800              		.set	.LANCHOR0,. + 0
 801              		.type	vmt, %object
 802              		.size	vmt, 40
 803              	vmt:
 804 0000 00000000 		.word	0
 805 0004 00000000 		.word	_write
 806 0008 00000000 		.word	_read
 807 000c 00000000 		.word	_put
 808 0010 00000000 		.word	_get
 809 0014 00000000 		.word	_putt
 810 0018 00000000 		.word	_gett
 811 001c 00000000 		.word	_writet
 812 0020 00000000 		.word	_readt
 813 0024 00000000 		.word	_ctl
 814              		.text
 815              	.Letext0:
 816              		.file 6 "/usr/lib/gcc/arm-none-eabi/4.9.3/include/stddef.h"
 817              		.file 7 "/usr/include/newlib/machine/_default_types.h"
 818              		.file 8 "/usr/include/newlib/sys/_stdint.h"
 819              		.file 9 "../../modules/ChibiOS/os/common/ports/ARMCMx/compilers/GCC/chtypes.h"
 820              		.file 10 "../../modules/ChibiOS/os/rt/include/chsystypes.h"
 821              		.file 11 "../../modules/ChibiOS/os/rt/include/chschd.h"
 822              		.file 12 "../../modules/ChibiOS/os/rt/include/chtime.h"
 823              		.file 13 "../../modules/ChibiOS/os/common/ext/ST/STM32F4xx/stm32f407xx.h"
 824              		.file 14 "../../modules/ChibiOS/os/common/ports/ARMCMx/chcore.h"
 825              		.file 15 "../../modules/ChibiOS/os/common/ports/ARMCMx/chcore_v7m.h"
 826              		.file 16 "../../modules/ChibiOS/os/rt/include/chtm.h"
 827              		.file 17 "../../modules/ChibiOS/os/rt/include/chstats.h"
 828              		.file 18 "../../modules/ChibiOS/os/rt/include/chsem.h"
 829              		.file 19 "../../modules/ChibiOS/os/rt/include/chmtx.h"
 830              		.file 20 "../../modules/ChibiOS/os/hal/include/hal_queues.h"
 831              		.file 21 "../../modules/ChibiOS/os/hal/include/hal_serial.h"
 832              		.file 22 "../../modules/ChibiOS/os/hal/ports/STM32/LLD/USARTv1/hal_serial_lld.h"
 833              		.file 23 "../../modules/ChibiOS/os/common/ext/ARM/CMSIS/Core/Include/core_cm4.h"