ARM GAS  /tmp/cc0MdUPR.s 			page 1


   1              		.syntax unified
   2              		.cpu cortex-m4
   3              		.eabi_attribute 27, 1
   4              		.eabi_attribute 28, 1
   5              		.fpu fpv4-sp-d16
   6              		.eabi_attribute 20, 1
   7              		.eabi_attribute 21, 1
   8              		.eabi_attribute 23, 3
   9              		.eabi_attribute 24, 1
  10              		.eabi_attribute 25, 1
  11              		.eabi_attribute 26, 1
  12              		.eabi_attribute 30, 4
  13              		.eabi_attribute 34, 1
  14              		.eabi_attribute 18, 4
  15              		.thumb
  16              		.file	"hal_spi_lld.c"
  17              		.text
  18              	.Ltext0:
  19              		.cfi_sections	.debug_frame
  20              		.section	.text.spi_lld_serve_tx_interrupt,"ax",%progbits
  21              		.align	1
  22              		.thumb
  23              		.thumb_func
  24              		.type	spi_lld_serve_tx_interrupt, %function
  25              	spi_lld_serve_tx_interrupt:
  26              	.LFB324:
  27              		.file 1 "../../modules/ChibiOS/os/hal/ports/STM32/LLD/SPIv1/hal_spi_lld.c"
  28              		.loc 1 170 0
  29              		.cfi_startproc
  30              		@ args = 0, pretend = 0, frame = 0
  31              		@ frame_needed = 0, uses_anonymous_args = 0
  32              		@ link register save eliminated.
  33              	.LVL0:
  34              		.loc 1 175 0
  35 0000 11F00C0F 		tst	r1, #12
  36 0004 02D0     		beq	.L1
  37              	.LVL1:
  38              	.LBB34:
  39              	.LBB35:
  40              		.file 2 "../../modules/ChibiOS/os/hal/osal/rt/osal.h"
  41              		.loc 2 480 0
  42 0006 0248     		ldr	r0, .L4
  43              	.LVL2:
  44 0008 FFF7FEBF 		b	chSysHalt
  45              	.LVL3:
  46              	.L1:
  47 000c 7047     		bx	lr
  48              	.L5:
  49 000e 00BF     		.align	2
  50              	.L4:
  51 0010 00000000 		.word	.LC0
  52              	.LBE35:
  53              	.LBE34:
  54              		.cfi_endproc
  55              	.LFE324:
  56              		.size	spi_lld_serve_tx_interrupt, .-spi_lld_serve_tx_interrupt
  57              		.section	.text.spi_lld_serve_rx_interrupt,"ax",%progbits
ARM GAS  /tmp/cc0MdUPR.s 			page 2


  58              		.align	1
  59              		.thumb
  60              		.thumb_func
  61              		.type	spi_lld_serve_rx_interrupt, %function
  62              	spi_lld_serve_rx_interrupt:
  63              	.LFB323:
  64              		.loc 1 132 0
  65              		.cfi_startproc
  66              		@ args = 0, pretend = 0, frame = 0
  67              		@ frame_needed = 0, uses_anonymous_args = 0
  68              	.LVL4:
  69              		.loc 1 136 0
  70 0000 11F00C0F 		tst	r1, #12
  71              		.loc 1 132 0
  72 0004 38B5     		push	{r3, r4, r5, lr}
  73              		.cfi_def_cfa_offset 16
  74              		.cfi_offset 3, -16
  75              		.cfi_offset 4, -12
  76              		.cfi_offset 5, -8
  77              		.cfi_offset 14, -4
  78              		.loc 1 132 0
  79 0006 0446     		mov	r4, r0
  80 0008 0D46     		mov	r5, r1
  81              		.loc 1 136 0
  82 000a 02D0     		beq	.L7
  83              	.LVL5:
  84              	.LBB56:
  85              	.LBB57:
  86              		.loc 2 480 0
  87 000c 2948     		ldr	r0, .L34
  88              	.LVL6:
  89 000e FFF7FEFF 		bl	chSysHalt
  90              	.LVL7:
  91              	.L7:
  92              	.LBE57:
  93              	.LBE56:
  94              		.loc 1 143 0
  95 0012 6368     		ldr	r3, [r4, #4]
  96 0014 1A78     		ldrb	r2, [r3]	@ zero_extendqisi2
  97 0016 AAB1     		cbz	r2, .L8
  98              		.loc 1 144 0
  99 0018 EA06     		lsls	r2, r5, #27
 100 001a 03D5     		bpl	.L9
 101              		.loc 1 146 0
 102 001c 5B68     		ldr	r3, [r3, #4]
 103 001e 0BB1     		cbz	r3, .L9
 104              		.loc 1 146 0 is_stmt 0 discriminator 1
 105 0020 2046     		mov	r0, r4
 106 0022 9847     		blx	r3
 107              	.LVL8:
 108              	.L9:
 109              		.loc 1 148 0 is_stmt 1
 110 0024 AB06     		lsls	r3, r5, #26
 111 0026 43D5     		bpl	.L6
 112              		.loc 1 150 0
 113 0028 6368     		ldr	r3, [r4, #4]
 114 002a 5B68     		ldr	r3, [r3, #4]
ARM GAS  /tmp/cc0MdUPR.s 			page 3


 115 002c 002B     		cmp	r3, #0
 116 002e 3FD0     		beq	.L6
 117              		.loc 1 150 0 is_stmt 0 discriminator 1
 118 0030 0422     		movs	r2, #4
 119 0032 2270     		strb	r2, [r4]
 120 0034 2046     		mov	r0, r4
 121 0036 9847     		blx	r3
 122              	.LVL9:
 123 0038 2378     		ldrb	r3, [r4]	@ zero_extendqisi2
 124 003a 042B     		cmp	r3, #4
 125 003c 38D1     		bne	.L6
 126              		.loc 1 150 0 discriminator 2
 127 003e 0323     		movs	r3, #3
 128 0040 2370     		strb	r3, [r4]
 129 0042 38BD     		pop	{r3, r4, r5, pc}
 130              	.LVL10:
 131              	.L8:
 132              		.loc 1 155 0 is_stmt 1
 133 0044 626A     		ldr	r2, [r4, #36]
 134 0046 1168     		ldr	r1, [r2]
 135 0048 0868     		ldr	r0, [r1]
 136 004a 20F01F00 		bic	r0, r0, #31
 137 004e 0860     		str	r0, [r1]
 138              	.LVL11:
 139              	.L13:
 140              		.loc 1 155 0 is_stmt 0 discriminator 2
 141 0050 0868     		ldr	r0, [r1]
 142 0052 C507     		lsls	r5, r0, #31
 143 0054 FCD4     		bmi	.L13
 144              		.loc 1 155 0 discriminator 3
 145 0056 507A     		ldrb	r0, [r2, #9]	@ zero_extendqisi2
 146 0058 5168     		ldr	r1, [r2, #4]
 147 005a 3D22     		movs	r2, #61
 148 005c 8240     		lsls	r2, r2, r0
 149 005e 0A60     		str	r2, [r1]
 150              		.loc 1 156 0 is_stmt 1 discriminator 3
 151 0060 226A     		ldr	r2, [r4, #32]
 152 0062 1168     		ldr	r1, [r2]
 153 0064 0868     		ldr	r0, [r1]
 154 0066 20F01F00 		bic	r0, r0, #31
 155 006a 0860     		str	r0, [r1]
 156              	.L14:
 157              		.loc 1 156 0 is_stmt 0 discriminator 2
 158 006c 0868     		ldr	r0, [r1]
 159 006e C007     		lsls	r0, r0, #31
 160 0070 FCD4     		bmi	.L14
 161              		.loc 1 156 0 discriminator 3
 162 0072 507A     		ldrb	r0, [r2, #9]	@ zero_extendqisi2
 163 0074 5168     		ldr	r1, [r2, #4]
 164              		.loc 1 160 0 is_stmt 1 discriminator 3
 165 0076 5B68     		ldr	r3, [r3, #4]
 166              		.loc 1 156 0 discriminator 3
 167 0078 3D22     		movs	r2, #61
 168 007a 8240     		lsls	r2, r2, r0
 169 007c 0A60     		str	r2, [r1]
 170              		.loc 1 160 0 discriminator 3
 171 007e 33B1     		cbz	r3, .L15
ARM GAS  /tmp/cc0MdUPR.s 			page 4


 172              		.loc 1 160 0 is_stmt 0 discriminator 1
 173 0080 0422     		movs	r2, #4
 174 0082 2270     		strb	r2, [r4]
 175 0084 2046     		mov	r0, r4
 176 0086 9847     		blx	r3
 177              	.LVL12:
 178 0088 2378     		ldrb	r3, [r4]	@ zero_extendqisi2
 179 008a 042B     		cmp	r3, #4
 180 008c 01D1     		bne	.L16
 181              	.L15:
 182              		.loc 1 160 0 discriminator 3
 183 008e 0223     		movs	r3, #2
 184 0090 2370     		strb	r3, [r4]
 185              	.L16:
 186              	.LVL13:
 187              	.LBB58:
 188              	.LBB59:
 189              	.LBB60:
 190              	.LBB61:
 191              	.LBB62:
 192              	.LBB63:
 193              	.LBB64:
 194              		.file 3 "../../modules/ChibiOS/os/common/ext/ARM/CMSIS/Core/Include/cmsis_gcc.h"
 195              		.loc 3 493 0 is_stmt 1 discriminator 4
 196 0092 2023     		movs	r3, #32
 197              	@ 493 "../../modules/ChibiOS/os/common/ext/ARM/CMSIS/Core/Include/cmsis_gcc.h" 1
 198 0094 83F31188 		MSR basepri, r3
 199              	@ 0 "" 2
 200              		.thumb
 201              	.LBE64:
 202              	.LBE63:
 203              	.LBE62:
 204              	.LBE61:
 205              		.file 4 "../../modules/ChibiOS/os/rt/include/chsys.h"
 206              		.loc 4 396 0 discriminator 4
 207 0098 FFF7FEFF 		bl	_stats_start_measure_crit_isr
 208              	.LVL14:
 209              	.LBE60:
 210              	.LBE59:
 211              	.LBE58:
 212              	.LBB65:
 213              	.LBB66:
 214              		.loc 2 775 0 discriminator 4
 215 009c 04F10800 		add	r0, r4, #8
 216              	.LVL15:
 217 00a0 0021     		movs	r1, #0
 218 00a2 FFF7FEFF 		bl	chThdResumeI
 219              	.LVL16:
 220              	.LBE66:
 221              	.LBE65:
 222              	.LBB67:
 223              	.LBB68:
 224              	.LBB69:
 225              		.loc 4 416 0 discriminator 4
 226 00a6 FFF7FEFF 		bl	_stats_stop_measure_crit_isr
 227              	.LVL17:
 228              	.LBB70:
ARM GAS  /tmp/cc0MdUPR.s 			page 5


 229              	.LBB71:
 230              	.LBB72:
 231              	.LBB73:
 232              		.loc 3 493 0 discriminator 4
 233 00aa 0023     		movs	r3, #0
 234              	@ 493 "../../modules/ChibiOS/os/common/ext/ARM/CMSIS/Core/Include/cmsis_gcc.h" 1
 235 00ac 83F31188 		MSR basepri, r3
 236              	@ 0 "" 2
 237              	.LVL18:
 238              		.thumb
 239              	.L6:
 240 00b0 38BD     		pop	{r3, r4, r5, pc}
 241              	.LVL19:
 242              	.L35:
 243 00b2 00BF     		.align	2
 244              	.L34:
 245 00b4 00000000 		.word	.LC0
 246              	.LBE73:
 247              	.LBE72:
 248              	.LBE71:
 249              	.LBE70:
 250              	.LBE69:
 251              	.LBE68:
 252              	.LBE67:
 253              		.cfi_endproc
 254              	.LFE323:
 255              		.size	spi_lld_serve_rx_interrupt, .-spi_lld_serve_rx_interrupt
 256              		.section	.text.spi_lld_init,"ax",%progbits
 257              		.align	1
 258              		.global	spi_lld_init
 259              		.thumb
 260              		.thumb_func
 261              		.type	spi_lld_init, %function
 262              	spi_lld_init:
 263              	.LFB325:
 264              		.loc 1 197 0
 265              		.cfi_startproc
 266              		@ args = 0, pretend = 0, frame = 0
 267              		@ frame_needed = 0, uses_anonymous_args = 0
 268 0000 38B5     		push	{r3, r4, r5, lr}
 269              		.cfi_def_cfa_offset 16
 270              		.cfi_offset 3, -16
 271              		.cfi_offset 4, -12
 272              		.cfi_offset 5, -8
 273              		.cfi_offset 14, -4
 274              		.loc 1 200 0
 275 0002 0D4C     		ldr	r4, .L37
 276 0004 2046     		mov	r0, r4
 277 0006 FFF7FEFF 		bl	spiObjectInit
 278              	.LVL20:
 279              		.loc 1 201 0
 280 000a 0C4B     		ldr	r3, .L37+4
 281 000c E361     		str	r3, [r4, #28]
 282              		.loc 1 204 0
 283 000e 0C4B     		ldr	r3, .L37+8
 284 0010 A362     		str	r3, [r4, #40]
 285              		.loc 1 202 0
ARM GAS  /tmp/cc0MdUPR.s 			page 6


 286 0012 0025     		movs	r5, #0
 287              		.loc 1 210 0
 288 0014 3033     		adds	r3, r3, #48
 289 0016 E362     		str	r3, [r4, #44]
 290              		.loc 1 202 0
 291 0018 2562     		str	r5, [r4, #32]
 292              		.loc 1 203 0
 293 001a 6562     		str	r5, [r4, #36]
 294              		.loc 1 218 0
 295 001c 094C     		ldr	r4, .L37+12
 296 001e 2046     		mov	r0, r4
 297 0020 FFF7FEFF 		bl	spiObjectInit
 298              	.LVL21:
 299              		.loc 1 219 0
 300 0024 084B     		ldr	r3, .L37+16
 301 0026 E361     		str	r3, [r4, #28]
 302              		.loc 1 222 0
 303 0028 084B     		ldr	r3, .L37+20
 304 002a A362     		str	r3, [r4, #40]
 305              		.loc 1 228 0
 306 002c 3033     		adds	r3, r3, #48
 307              		.loc 1 220 0
 308 002e 2562     		str	r5, [r4, #32]
 309              		.loc 1 221 0
 310 0030 6562     		str	r5, [r4, #36]
 311              		.loc 1 228 0
 312 0032 E362     		str	r3, [r4, #44]
 313 0034 38BD     		pop	{r3, r4, r5, pc}
 314              	.L38:
 315 0036 00BF     		.align	2
 316              	.L37:
 317 0038 00000000 		.word	.LANCHOR0
 318 003c 00300140 		.word	1073819648
 319 0040 16000106 		.word	100728854
 320 0044 00000000 		.word	.LANCHOR1
 321 0048 00380040 		.word	1073756160
 322 004c 16000100 		.word	65558
 323              		.cfi_endproc
 324              	.LFE325:
 325              		.size	spi_lld_init, .-spi_lld_init
 326              		.section	.text.spi_lld_start,"ax",%progbits
 327              		.align	1
 328              		.global	spi_lld_start
 329              		.thumb
 330              		.thumb_func
 331              		.type	spi_lld_start, %function
 332              	spi_lld_start:
 333              	.LFB326:
 334              		.loc 1 315 0
 335              		.cfi_startproc
 336              		@ args = 0, pretend = 0, frame = 0
 337              		@ frame_needed = 0, uses_anonymous_args = 0
 338              	.LVL22:
 339 0000 38B5     		push	{r3, r4, r5, lr}
 340              		.cfi_def_cfa_offset 16
 341              		.cfi_offset 3, -16
 342              		.cfi_offset 4, -12
ARM GAS  /tmp/cc0MdUPR.s 			page 7


 343              		.cfi_offset 5, -8
 344              		.cfi_offset 14, -4
 345              		.loc 1 318 0
 346 0002 0378     		ldrb	r3, [r0]	@ zero_extendqisi2
 347 0004 012B     		cmp	r3, #1
 348              		.loc 1 315 0
 349 0006 0446     		mov	r4, r0
 350              		.loc 1 318 0
 351 0008 3ED1     		bne	.L40
 352              		.loc 1 320 0
 353 000a 3B4B     		ldr	r3, .L49
 354 000c 9842     		cmp	r0, r3
 355 000e 18D1     		bne	.L41
 356              		.loc 1 321 0
 357 0010 0A21     		movs	r1, #10
 358 0012 3A4A     		ldr	r2, .L49+4
 359 0014 2346     		mov	r3, r4
 360 0016 0820     		movs	r0, #8
 361              	.LVL23:
 362 0018 FFF7FEFF 		bl	dmaStreamAllocI
 363              	.LVL24:
 364              		.loc 1 326 0
 365 001c 384A     		ldr	r2, .L49+8
 366              		.loc 1 321 0
 367 001e 2062     		str	r0, [r4, #32]
 368              		.loc 1 326 0
 369 0020 2346     		mov	r3, r4
 370 0022 0B20     		movs	r0, #11
 371 0024 0A21     		movs	r1, #10
 372 0026 FFF7FEFF 		bl	dmaStreamAllocI
 373              	.LVL25:
 374              		.loc 1 331 0
 375 002a 364B     		ldr	r3, .L49+12
 376              		.loc 1 326 0
 377 002c 6062     		str	r0, [r4, #36]
 378              		.loc 1 331 0
 379 002e 5A6C     		ldr	r2, [r3, #68]
 380 0030 42F48052 		orr	r2, r2, #4096
 381 0034 5A64     		str	r2, [r3, #68]
 382 0036 5A6E     		ldr	r2, [r3, #100]
 383 0038 42F48052 		orr	r2, r2, #4096
 384 003c 5A66     		str	r2, [r3, #100]
 385 003e 5B6E     		ldr	r3, [r3, #100]
 386 0040 1AE0     		b	.L42
 387              	.LVL26:
 388              	.L41:
 389              		.loc 1 335 0
 390 0042 314B     		ldr	r3, .L49+16
 391 0044 9842     		cmp	r0, r3
 392 0046 17D1     		bne	.L42
 393              		.loc 1 336 0
 394 0048 0A21     		movs	r1, #10
 395 004a 2C4A     		ldr	r2, .L49+4
 396 004c 2346     		mov	r3, r4
 397 004e 0320     		movs	r0, #3
 398              	.LVL27:
 399 0050 FFF7FEFF 		bl	dmaStreamAllocI
ARM GAS  /tmp/cc0MdUPR.s 			page 8


 400              	.LVL28:
 401              		.loc 1 341 0
 402 0054 2A4A     		ldr	r2, .L49+8
 403              		.loc 1 336 0
 404 0056 2062     		str	r0, [r4, #32]
 405              		.loc 1 341 0
 406 0058 2346     		mov	r3, r4
 407 005a 0420     		movs	r0, #4
 408 005c 0A21     		movs	r1, #10
 409 005e FFF7FEFF 		bl	dmaStreamAllocI
 410              	.LVL29:
 411              		.loc 1 346 0
 412 0062 284B     		ldr	r3, .L49+12
 413              		.loc 1 341 0
 414 0064 6062     		str	r0, [r4, #36]
 415              		.loc 1 346 0
 416 0066 1A6C     		ldr	r2, [r3, #64]
 417 0068 42F48042 		orr	r2, r2, #16384
 418 006c 1A64     		str	r2, [r3, #64]
 419 006e 1A6E     		ldr	r2, [r3, #96]
 420 0070 42F48042 		orr	r2, r2, #16384
 421 0074 1A66     		str	r2, [r3, #96]
 422 0076 1B6E     		ldr	r3, [r3, #96]
 423              	.L42:
 424              		.loc 1 411 0
 425 0078 236A     		ldr	r3, [r4, #32]
 426 007a 1A68     		ldr	r2, [r3]
 427 007c E369     		ldr	r3, [r4, #28]
 428 007e 0C33     		adds	r3, r3, #12
 429 0080 9360     		str	r3, [r2, #8]
 430              		.loc 1 412 0
 431 0082 626A     		ldr	r2, [r4, #36]
 432 0084 1268     		ldr	r2, [r2]
 433 0086 9360     		str	r3, [r2, #8]
 434              	.L40:
 435              		.loc 1 416 0
 436 0088 6068     		ldr	r0, [r4, #4]
 437 008a E36A     		ldr	r3, [r4, #44]
 438 008c 018A     		ldrh	r1, [r0, #16]
 439 008e A26A     		ldr	r2, [r4, #40]
 440              		.loc 1 431 0
 441 0090 0578     		ldrb	r5, [r0]	@ zero_extendqisi2
 442              		.loc 1 416 0
 443 0092 11F4006F 		tst	r1, #2048
 444              		.loc 1 419 0
 445 0096 22F4F042 		bic	r2, r2, #30720
 446              		.loc 1 427 0
 447 009a 17BF     		itett	ne
 448 009c 23F4F043 		bicne	r3, r3, #30720
 449              		.loc 1 421 0
 450 00a0 23F4F043 		biceq	r3, r3, #30720
 451              		.loc 1 426 0
 452 00a4 42F42052 		orrne	r2, r2, #10240
 453              		.loc 1 428 0
 454 00a8 43F42053 		orrne	r3, r3, #10240
 455              		.loc 1 418 0
 456 00ac 0CBF     		ite	eq
ARM GAS  /tmp/cc0MdUPR.s 			page 9


 457 00ae A262     		streq	r2, [r4, #40]
 458              		.loc 1 425 0
 459 00b0 A262     		strne	r2, [r4, #40]
 460              		.loc 1 427 0
 461 00b2 E362     		str	r3, [r4, #44]
 462 00b4 A26A     		ldr	r2, [r4, #40]
 463 00b6 E36A     		ldr	r3, [r4, #44]
 464              		.loc 1 431 0
 465 00b8 2DB1     		cbz	r5, .L45
 466              		.loc 1 432 0
 467 00ba 42F48472 		orr	r2, r2, #264
 468 00be A262     		str	r2, [r4, #40]
 469              		.loc 1 433 0
 470 00c0 43F48473 		orr	r3, r3, #264
 471 00c4 04E0     		b	.L48
 472              	.L45:
 473              		.loc 1 436 0
 474 00c6 22F48472 		bic	r2, r2, #264
 475 00ca A262     		str	r2, [r4, #40]
 476              		.loc 1 437 0
 477 00cc 23F48473 		bic	r3, r3, #264
 478              	.L48:
 479 00d0 E362     		str	r3, [r4, #44]
 480              		.loc 1 441 0
 481 00d2 E369     		ldr	r3, [r4, #28]
 482 00d4 1A68     		ldr	r2, [r3]
 483 00d6 22F04002 		bic	r2, r2, #64
 484 00da 1A60     		str	r2, [r3]
 485              		.loc 1 444 0
 486 00dc 428A     		ldrh	r2, [r0, #18]
 487              		.loc 1 442 0
 488 00de 41F44171 		orr	r1, r1, #772
 489              		.loc 1 444 0
 490 00e2 42F00702 		orr	r2, r2, #7
 491 00e6 92B2     		uxth	r2, r2
 492              		.loc 1 442 0
 493 00e8 89B2     		uxth	r1, r1
 494 00ea 1960     		str	r1, [r3]
 495              		.loc 1 444 0
 496 00ec 5A60     		str	r2, [r3, #4]
 497              		.loc 1 446 0
 498 00ee 1A68     		ldr	r2, [r3]
 499 00f0 42F04002 		orr	r2, r2, #64
 500 00f4 1A60     		str	r2, [r3]
 501 00f6 38BD     		pop	{r3, r4, r5, pc}
 502              	.LVL30:
 503              	.L50:
 504              		.align	2
 505              	.L49:
 506 00f8 00000000 		.word	.LANCHOR0
 507 00fc 00000000 		.word	spi_lld_serve_rx_interrupt
 508 0100 00000000 		.word	spi_lld_serve_tx_interrupt
 509 0104 00380240 		.word	1073887232
 510 0108 00000000 		.word	.LANCHOR1
 511              		.cfi_endproc
 512              	.LFE326:
 513              		.size	spi_lld_start, .-spi_lld_start
ARM GAS  /tmp/cc0MdUPR.s 			page 10


 514              		.section	.text.spi_lld_stop,"ax",%progbits
 515              		.align	1
 516              		.global	spi_lld_stop
 517              		.thumb
 518              		.thumb_func
 519              		.type	spi_lld_stop, %function
 520              	spi_lld_stop:
 521              	.LFB327:
 522              		.loc 1 456 0
 523              		.cfi_startproc
 524              		@ args = 0, pretend = 0, frame = 0
 525              		@ frame_needed = 0, uses_anonymous_args = 0
 526              	.LVL31:
 527 0000 38B5     		push	{r3, r4, r5, lr}
 528              		.cfi_def_cfa_offset 16
 529              		.cfi_offset 3, -16
 530              		.cfi_offset 4, -12
 531              		.cfi_offset 5, -8
 532              		.cfi_offset 14, -4
 533              		.loc 1 459 0
 534 0002 0378     		ldrb	r3, [r0]	@ zero_extendqisi2
 535 0004 022B     		cmp	r3, #2
 536              		.loc 1 456 0
 537 0006 0446     		mov	r4, r0
 538              		.loc 1 459 0
 539 0008 2AD1     		bne	.L51
 540              		.loc 1 462 0
 541 000a C369     		ldr	r3, [r0, #28]
 542              		.loc 1 465 0
 543 000c 006A     		ldr	r0, [r0, #32]
 544              	.LVL32:
 545              		.loc 1 462 0
 546 000e 1A68     		ldr	r2, [r3]
 547              		.loc 1 463 0
 548 0010 0025     		movs	r5, #0
 549              		.loc 1 462 0
 550 0012 22F04002 		bic	r2, r2, #64
 551 0016 1A60     		str	r2, [r3]
 552              		.loc 1 463 0
 553 0018 1D60     		str	r5, [r3]
 554              		.loc 1 464 0
 555 001a 5D60     		str	r5, [r3, #4]
 556              		.loc 1 465 0
 557 001c FFF7FEFF 		bl	dmaStreamFreeI
 558              	.LVL33:
 559              		.loc 1 466 0
 560 0020 606A     		ldr	r0, [r4, #36]
 561 0022 FFF7FEFF 		bl	dmaStreamFreeI
 562              	.LVL34:
 563              		.loc 1 471 0
 564 0026 0F4B     		ldr	r3, .L56
 565              		.loc 1 467 0
 566 0028 2562     		str	r5, [r4, #32]
 567              		.loc 1 471 0
 568 002a 9C42     		cmp	r4, r3
 569              		.loc 1 468 0
 570 002c 6562     		str	r5, [r4, #36]
ARM GAS  /tmp/cc0MdUPR.s 			page 11


 571              		.loc 1 471 0
 572 002e 0AD1     		bne	.L54
 573              		.loc 1 472 0
 574 0030 0D4B     		ldr	r3, .L56+4
 575 0032 5A6C     		ldr	r2, [r3, #68]
 576 0034 22F48052 		bic	r2, r2, #4096
 577 0038 5A64     		str	r2, [r3, #68]
 578 003a 5A6E     		ldr	r2, [r3, #100]
 579 003c 22F48052 		bic	r2, r2, #4096
 580 0040 5A66     		str	r2, [r3, #100]
 581 0042 5B6E     		ldr	r3, [r3, #100]
 582 0044 38BD     		pop	{r3, r4, r5, pc}
 583              	.LVL35:
 584              	.L54:
 585              		.loc 1 475 0
 586 0046 094B     		ldr	r3, .L56+8
 587 0048 9C42     		cmp	r4, r3
 588 004a 09D1     		bne	.L51
 589              		.loc 1 476 0
 590 004c 064B     		ldr	r3, .L56+4
 591 004e 1A6C     		ldr	r2, [r3, #64]
 592 0050 22F48042 		bic	r2, r2, #16384
 593 0054 1A64     		str	r2, [r3, #64]
 594 0056 1A6E     		ldr	r2, [r3, #96]
 595 0058 22F48042 		bic	r2, r2, #16384
 596 005c 1A66     		str	r2, [r3, #96]
 597 005e 1B6E     		ldr	r3, [r3, #96]
 598              	.L51:
 599 0060 38BD     		pop	{r3, r4, r5, pc}
 600              	.LVL36:
 601              	.L57:
 602 0062 00BF     		.align	2
 603              	.L56:
 604 0064 00000000 		.word	.LANCHOR0
 605 0068 00380240 		.word	1073887232
 606 006c 00000000 		.word	.LANCHOR1
 607              		.cfi_endproc
 608              	.LFE327:
 609              		.size	spi_lld_stop, .-spi_lld_stop
 610              		.section	.text.spi_lld_ignore,"ax",%progbits
 611              		.align	1
 612              		.global	spi_lld_ignore
 613              		.thumb
 614              		.thumb_func
 615              		.type	spi_lld_ignore, %function
 616              	spi_lld_ignore:
 617              	.LFB328:
 618              		.loc 1 535 0
 619              		.cfi_startproc
 620              		@ args = 0, pretend = 0, frame = 0
 621              		@ frame_needed = 0, uses_anonymous_args = 0
 622              	.LVL37:
 623              		.loc 1 539 0
 624 0000 036A     		ldr	r3, [r0, #32]
 625 0002 1A68     		ldr	r2, [r3]
 626 0004 0A4B     		ldr	r3, .L59
 627              		.loc 1 535 0
ARM GAS  /tmp/cc0MdUPR.s 			page 12


 628 0006 10B5     		push	{r4, lr}
 629              		.cfi_def_cfa_offset 8
 630              		.cfi_offset 4, -8
 631              		.cfi_offset 14, -4
 632              		.loc 1 539 0
 633 0008 D360     		str	r3, [r2, #12]
 634              		.loc 1 541 0
 635 000a 836A     		ldr	r3, [r0, #40]
 636              		.loc 1 540 0
 637 000c 5160     		str	r1, [r2, #4]
 638              		.loc 1 541 0
 639 000e 1360     		str	r3, [r2]
 640              		.loc 1 543 0
 641 0010 436A     		ldr	r3, [r0, #36]
 642 0012 084C     		ldr	r4, .L59+4
 643 0014 1B68     		ldr	r3, [r3]
 644 0016 DC60     		str	r4, [r3, #12]
 645              		.loc 1 544 0
 646 0018 5960     		str	r1, [r3, #4]
 647              		.loc 1 545 0
 648 001a C16A     		ldr	r1, [r0, #44]
 649              	.LVL38:
 650 001c 1960     		str	r1, [r3]
 651              	.LVL39:
 652              		.loc 1 547 0
 653 001e 1168     		ldr	r1, [r2]
 654 0020 41F00101 		orr	r1, r1, #1
 655 0024 1160     		str	r1, [r2]
 656              		.loc 1 548 0
 657 0026 1A68     		ldr	r2, [r3]
 658 0028 42F00102 		orr	r2, r2, #1
 659 002c 1A60     		str	r2, [r3]
 660 002e 10BD     		pop	{r4, pc}
 661              	.L60:
 662              		.align	2
 663              	.L59:
 664 0030 00000000 		.word	.LANCHOR2
 665 0034 00000000 		.word	.LANCHOR3
 666              		.cfi_endproc
 667              	.LFE328:
 668              		.size	spi_lld_ignore, .-spi_lld_ignore
 669              		.section	.text.spi_lld_exchange,"ax",%progbits
 670              		.align	1
 671              		.global	spi_lld_exchange
 672              		.thumb
 673              		.thumb_func
 674              		.type	spi_lld_exchange, %function
 675              	spi_lld_exchange:
 676              	.LFB329:
 677              		.loc 1 567 0
 678              		.cfi_startproc
 679              		@ args = 0, pretend = 0, frame = 0
 680              		@ frame_needed = 0, uses_anonymous_args = 0
 681              	.LVL40:
 682 0000 10B5     		push	{r4, lr}
 683              		.cfi_def_cfa_offset 8
 684              		.cfi_offset 4, -8
ARM GAS  /tmp/cc0MdUPR.s 			page 13


 685              		.cfi_offset 14, -4
 686              		.loc 1 571 0
 687 0002 046A     		ldr	r4, [r0, #32]
 688 0004 2468     		ldr	r4, [r4]
 689 0006 E360     		str	r3, [r4, #12]
 690              		.loc 1 573 0
 691 0008 836A     		ldr	r3, [r0, #40]
 692              	.LVL41:
 693              		.loc 1 572 0
 694 000a 6160     		str	r1, [r4, #4]
 695              	.LVL42:
 696              		.loc 1 573 0
 697 000c 43F48063 		orr	r3, r3, #1024
 698 0010 2360     		str	r3, [r4]
 699              		.loc 1 575 0
 700 0012 436A     		ldr	r3, [r0, #36]
 701 0014 1B68     		ldr	r3, [r3]
 702 0016 DA60     		str	r2, [r3, #12]
 703              		.loc 1 577 0
 704 0018 C26A     		ldr	r2, [r0, #44]
 705              	.LVL43:
 706              		.loc 1 576 0
 707 001a 5960     		str	r1, [r3, #4]
 708              	.LVL44:
 709              		.loc 1 577 0
 710 001c 42F48062 		orr	r2, r2, #1024
 711 0020 1A60     		str	r2, [r3]
 712              		.loc 1 579 0
 713 0022 2268     		ldr	r2, [r4]
 714 0024 42F00102 		orr	r2, r2, #1
 715 0028 2260     		str	r2, [r4]
 716              		.loc 1 580 0
 717 002a 1A68     		ldr	r2, [r3]
 718 002c 42F00102 		orr	r2, r2, #1
 719 0030 1A60     		str	r2, [r3]
 720 0032 10BD     		pop	{r4, pc}
 721              		.cfi_endproc
 722              	.LFE329:
 723              		.size	spi_lld_exchange, .-spi_lld_exchange
 724              		.section	.text.spi_lld_send,"ax",%progbits
 725              		.align	1
 726              		.global	spi_lld_send
 727              		.thumb
 728              		.thumb_func
 729              		.type	spi_lld_send, %function
 730              	spi_lld_send:
 731              	.LFB330:
 732              		.loc 1 596 0
 733              		.cfi_startproc
 734              		@ args = 0, pretend = 0, frame = 0
 735              		@ frame_needed = 0, uses_anonymous_args = 0
 736              	.LVL45:
 737              		.loc 1 600 0
 738 0000 036A     		ldr	r3, [r0, #32]
 739              		.loc 1 596 0
 740 0002 10B5     		push	{r4, lr}
 741              		.cfi_def_cfa_offset 8
ARM GAS  /tmp/cc0MdUPR.s 			page 14


 742              		.cfi_offset 4, -8
 743              		.cfi_offset 14, -4
 744              		.loc 1 600 0
 745 0004 1C68     		ldr	r4, [r3]
 746 0006 0B4B     		ldr	r3, .L63
 747 0008 E360     		str	r3, [r4, #12]
 748              		.loc 1 602 0
 749 000a 836A     		ldr	r3, [r0, #40]
 750              		.loc 1 601 0
 751 000c 6160     		str	r1, [r4, #4]
 752              		.loc 1 602 0
 753 000e 2360     		str	r3, [r4]
 754              		.loc 1 604 0
 755 0010 436A     		ldr	r3, [r0, #36]
 756 0012 1B68     		ldr	r3, [r3]
 757 0014 DA60     		str	r2, [r3, #12]
 758              		.loc 1 606 0
 759 0016 C26A     		ldr	r2, [r0, #44]
 760              	.LVL46:
 761              		.loc 1 605 0
 762 0018 5960     		str	r1, [r3, #4]
 763              	.LVL47:
 764              		.loc 1 606 0
 765 001a 42F48062 		orr	r2, r2, #1024
 766 001e 1A60     		str	r2, [r3]
 767              		.loc 1 608 0
 768 0020 2268     		ldr	r2, [r4]
 769 0022 42F00102 		orr	r2, r2, #1
 770 0026 2260     		str	r2, [r4]
 771              		.loc 1 609 0
 772 0028 1A68     		ldr	r2, [r3]
 773 002a 42F00102 		orr	r2, r2, #1
 774 002e 1A60     		str	r2, [r3]
 775 0030 10BD     		pop	{r4, pc}
 776              	.L64:
 777 0032 00BF     		.align	2
 778              	.L63:
 779 0034 00000000 		.word	.LANCHOR2
 780              		.cfi_endproc
 781              	.LFE330:
 782              		.size	spi_lld_send, .-spi_lld_send
 783              		.section	.text.spi_lld_receive,"ax",%progbits
 784              		.align	1
 785              		.global	spi_lld_receive
 786              		.thumb
 787              		.thumb_func
 788              		.type	spi_lld_receive, %function
 789              	spi_lld_receive:
 790              	.LFB331:
 791              		.loc 1 625 0
 792              		.cfi_startproc
 793              		@ args = 0, pretend = 0, frame = 0
 794              		@ frame_needed = 0, uses_anonymous_args = 0
 795              	.LVL48:
 796              		.loc 1 629 0
 797 0000 036A     		ldr	r3, [r0, #32]
 798              		.loc 1 625 0
ARM GAS  /tmp/cc0MdUPR.s 			page 15


 799 0002 10B5     		push	{r4, lr}
 800              		.cfi_def_cfa_offset 8
 801              		.cfi_offset 4, -8
 802              		.cfi_offset 14, -4
 803              		.loc 1 629 0
 804 0004 1C68     		ldr	r4, [r3]
 805              		.loc 1 631 0
 806 0006 836A     		ldr	r3, [r0, #40]
 807              		.loc 1 629 0
 808 0008 E260     		str	r2, [r4, #12]
 809              		.loc 1 631 0
 810 000a 43F48063 		orr	r3, r3, #1024
 811              		.loc 1 630 0
 812 000e 6160     		str	r1, [r4, #4]
 813              		.loc 1 631 0
 814 0010 2360     		str	r3, [r4]
 815              		.loc 1 633 0
 816 0012 436A     		ldr	r3, [r0, #36]
 817 0014 074A     		ldr	r2, .L66
 818              	.LVL49:
 819 0016 1B68     		ldr	r3, [r3]
 820 0018 DA60     		str	r2, [r3, #12]
 821              		.loc 1 635 0
 822 001a C26A     		ldr	r2, [r0, #44]
 823              		.loc 1 634 0
 824 001c 5960     		str	r1, [r3, #4]
 825              		.loc 1 635 0
 826 001e 1A60     		str	r2, [r3]
 827              		.loc 1 637 0
 828 0020 2268     		ldr	r2, [r4]
 829 0022 42F00102 		orr	r2, r2, #1
 830 0026 2260     		str	r2, [r4]
 831              		.loc 1 638 0
 832 0028 1A68     		ldr	r2, [r3]
 833 002a 42F00102 		orr	r2, r2, #1
 834 002e 1A60     		str	r2, [r3]
 835 0030 10BD     		pop	{r4, pc}
 836              	.L67:
 837 0032 00BF     		.align	2
 838              	.L66:
 839 0034 00000000 		.word	.LANCHOR3
 840              		.cfi_endproc
 841              	.LFE331:
 842              		.size	spi_lld_receive, .-spi_lld_receive
 843              		.section	.text.spi_lld_abort,"ax",%progbits
 844              		.align	1
 845              		.global	spi_lld_abort
 846              		.thumb
 847              		.thumb_func
 848              		.type	spi_lld_abort, %function
 849              	spi_lld_abort:
 850              	.LFB332:
 851              		.loc 1 649 0
 852              		.cfi_startproc
 853              		@ args = 0, pretend = 0, frame = 0
 854              		@ frame_needed = 0, uses_anonymous_args = 0
 855              		@ link register save eliminated.
ARM GAS  /tmp/cc0MdUPR.s 			page 16


 856              	.LVL50:
 857              		.loc 1 652 0
 858 0000 436A     		ldr	r3, [r0, #36]
 859 0002 1A68     		ldr	r2, [r3]
 860 0004 1168     		ldr	r1, [r2]
 861 0006 21F01F01 		bic	r1, r1, #31
 862 000a 1160     		str	r1, [r2]
 863              	.L69:
 864              		.loc 1 652 0 is_stmt 0 discriminator 2
 865 000c 1168     		ldr	r1, [r2]
 866 000e C907     		lsls	r1, r1, #31
 867 0010 FCD4     		bmi	.L69
 868              		.loc 1 652 0 discriminator 3
 869 0012 597A     		ldrb	r1, [r3, #9]	@ zero_extendqisi2
 870 0014 5A68     		ldr	r2, [r3, #4]
 871 0016 3D23     		movs	r3, #61
 872 0018 8B40     		lsls	r3, r3, r1
 873 001a 1360     		str	r3, [r2]
 874              		.loc 1 653 0 is_stmt 1 discriminator 3
 875 001c 036A     		ldr	r3, [r0, #32]
 876 001e 1A68     		ldr	r2, [r3]
 877 0020 1168     		ldr	r1, [r2]
 878 0022 21F01F01 		bic	r1, r1, #31
 879 0026 1160     		str	r1, [r2]
 880              	.L70:
 881              		.loc 1 653 0 is_stmt 0 discriminator 2
 882 0028 1168     		ldr	r1, [r2]
 883 002a C907     		lsls	r1, r1, #31
 884 002c FCD4     		bmi	.L70
 885              		.loc 1 653 0 discriminator 3
 886 002e 597A     		ldrb	r1, [r3, #9]	@ zero_extendqisi2
 887 0030 5A68     		ldr	r2, [r3, #4]
 888 0032 3D23     		movs	r3, #61
 889 0034 8B40     		lsls	r3, r3, r1
 890 0036 1360     		str	r3, [r2]
 891 0038 7047     		bx	lr
 892              		.cfi_endproc
 893              	.LFE332:
 894              		.size	spi_lld_abort, .-spi_lld_abort
 895              		.section	.text.spi_lld_polled_exchange,"ax",%progbits
 896              		.align	1
 897              		.global	spi_lld_polled_exchange
 898              		.thumb
 899              		.thumb_func
 900              		.type	spi_lld_polled_exchange, %function
 901              	spi_lld_polled_exchange:
 902              	.LFB333:
 903              		.loc 1 669 0 is_stmt 1
 904              		.cfi_startproc
 905              		@ args = 0, pretend = 0, frame = 0
 906              		@ frame_needed = 0, uses_anonymous_args = 0
 907              		@ link register save eliminated.
 908              	.LVL51:
 909              		.loc 1 671 0
 910 0000 C369     		ldr	r3, [r0, #28]
 911 0002 D960     		str	r1, [r3, #12]
 912              	.L74:
ARM GAS  /tmp/cc0MdUPR.s 			page 17


 913              		.loc 1 672 0 discriminator 1
 914 0004 9A68     		ldr	r2, [r3, #8]
 915 0006 D207     		lsls	r2, r2, #31
 916 0008 FCD5     		bpl	.L74
 917              		.loc 1 674 0
 918 000a D868     		ldr	r0, [r3, #12]
 919              	.LVL52:
 920              		.loc 1 675 0
 921 000c 80B2     		uxth	r0, r0
 922 000e 7047     		bx	lr
 923              		.cfi_endproc
 924              	.LFE333:
 925              		.size	spi_lld_polled_exchange, .-spi_lld_polled_exchange
 926              		.global	SPID2
 927              		.global	SPID1
 928              		.section	.bss.SPID1,"aw",%nobits
 929              		.align	2
 930              		.set	.LANCHOR0,. + 0
 931              		.type	SPID1, %object
 932              		.size	SPID1, 48
 933              	SPID1:
 934 0000 00000000 		.space	48
 934      00000000 
 934      00000000 
 934      00000000 
 934      00000000 
 935              		.section	.bss.SPID2,"aw",%nobits
 936              		.align	2
 937              		.set	.LANCHOR1,. + 0
 938              		.type	SPID2, %object
 939              		.size	SPID2, 48
 940              	SPID2:
 941 0000 00000000 		.space	48
 941      00000000 
 941      00000000 
 941      00000000 
 941      00000000 
 942              		.section	.rodata.str1.1,"aMS",%progbits,1
 943              	.LC0:
 944 0000 444D4120 		.ascii	"DMA failure\000"
 944      6661696C 
 944      75726500 
 945              		.section	.rodata.dummytx,"a",%progbits
 946              		.align	1
 947              		.set	.LANCHOR3,. + 0
 948              		.type	dummytx, %object
 949              		.size	dummytx, 2
 950              	dummytx:
 951 0000 FFFF     		.short	-1
 952              		.section	.bss.dummyrx,"aw",%nobits
 953              		.align	1
 954              		.set	.LANCHOR2,. + 0
 955              		.type	dummyrx, %object
 956              		.size	dummyrx, 2
 957              	dummyrx:
 958 0000 0000     		.space	2
 959              		.text
ARM GAS  /tmp/cc0MdUPR.s 			page 18


 960              	.Letext0:
 961              		.file 5 "/usr/lib/gcc/arm-none-eabi/4.9.3/include/stddef.h"
 962              		.file 6 "/usr/include/newlib/machine/_default_types.h"
 963              		.file 7 "/usr/include/newlib/sys/_stdint.h"
 964              		.file 8 "/usr/include/newlib/stdint.h"
 965              		.file 9 "../../modules/ChibiOS/os/common/ports/ARMCMx/compilers/GCC/chtypes.h"
 966              		.file 10 "../../modules/ChibiOS/os/rt/include/chsystypes.h"
 967              		.file 11 "../../modules/ChibiOS/os/rt/include/chschd.h"
 968              		.file 12 "../../modules/ChibiOS/os/rt/include/chtime.h"
 969              		.file 13 "../../modules/ChibiOS/os/common/ext/ST/STM32F4xx/stm32f407xx.h"
 970              		.file 14 "../../modules/ChibiOS/os/common/ports/ARMCMx/chcore.h"
 971              		.file 15 "../../modules/ChibiOS/os/common/ports/ARMCMx/chcore_v7m.h"
 972              		.file 16 "../../modules/ChibiOS/os/rt/include/chtm.h"
 973              		.file 17 "../../modules/ChibiOS/os/rt/include/chstats.h"
 974              		.file 18 "../../modules/ChibiOS/os/rt/include/chsem.h"
 975              		.file 19 "../../modules/ChibiOS/os/rt/include/chmtx.h"
 976              		.file 20 "../../modules/ChibiOS/os/hal/ports/STM32/LLD/DMAv2/stm32_dma.h"
 977              		.file 21 "../../modules/ChibiOS/os/hal/ports/STM32/LLD/GPIOv2/stm32_gpio.h"
 978              		.file 22 "../../modules/ChibiOS/os/hal/ports/STM32/LLD/GPIOv2/hal_pal_lld.h"
 979              		.file 23 "../../modules/ChibiOS/os/hal/include/hal_spi.h"
 980              		.file 24 "../../modules/ChibiOS/os/common/ext/ARM/CMSIS/Core/Include/core_cm4.h"
 981              		.file 25 "../../modules/ChibiOS/os/rt/include/ch.h"
 982              		.file 26 "../../modules/ChibiOS/os/rt/include/chthreads.h"
 983              		.section	.debug_info,"",%progbits
 984              	.Ldebug_info0:
 985 0000 DC130000 		.4byte	0x13dc
 986 0004 0400     		.2byte	0x4
 987 0006 00000000 		.4byte	.Ldebug_abbrev0
 988 000a 04       		.byte	0x4
 989 000b 01       		.uleb128 0x1
 990 000c 30070000 		.4byte	.LASF226
 991 0010 01       		.byte	0x1
 992 0011 62090000 		.4byte	.LASF227
 993 0015 D6030000 		.4byte	.LASF228
 994 0019 00000000 		.4byte	.Ldebug_ranges0+0
 995 001d 00000000 		.4byte	0
 996 0021 00000000 		.4byte	.Ldebug_line0
 997 0025 02       		.uleb128 0x2
 998 0026 04       		.byte	0x4
 999 0027 05       		.byte	0x5
 1000 0028 696E7400 		.ascii	"int\000"
 1001 002c 03       		.uleb128 0x3
 1002 002d 18000000 		.4byte	.LASF2
 1003 0031 05       		.byte	0x5
 1004 0032 D4       		.byte	0xd4
 1005 0033 37000000 		.4byte	0x37
 1006 0037 04       		.uleb128 0x4
 1007 0038 04       		.byte	0x4
 1008 0039 07       		.byte	0x7
 1009 003a FB050000 		.4byte	.LASF0
 1010 003e 04       		.uleb128 0x4
 1011 003f 01       		.byte	0x1
 1012 0040 06       		.byte	0x6
 1013 0041 21020000 		.4byte	.LASF1
 1014 0045 03       		.uleb128 0x3
 1015 0046 1C010000 		.4byte	.LASF3
 1016 004a 06       		.byte	0x6
ARM GAS  /tmp/cc0MdUPR.s 			page 19


 1017 004b 1D       		.byte	0x1d
 1018 004c 50000000 		.4byte	0x50
 1019 0050 04       		.uleb128 0x4
 1020 0051 01       		.byte	0x1
 1021 0052 08       		.byte	0x8
 1022 0053 83020000 		.4byte	.LASF4
 1023 0057 04       		.uleb128 0x4
 1024 0058 02       		.byte	0x2
 1025 0059 05       		.byte	0x5
 1026 005a 38090000 		.4byte	.LASF5
 1027 005e 03       		.uleb128 0x3
 1028 005f 2B030000 		.4byte	.LASF6
 1029 0063 06       		.byte	0x6
 1030 0064 2B       		.byte	0x2b
 1031 0065 69000000 		.4byte	0x69
 1032 0069 04       		.uleb128 0x4
 1033 006a 02       		.byte	0x2
 1034 006b 07       		.byte	0x7
 1035 006c 4B0A0000 		.4byte	.LASF7
 1036 0070 03       		.uleb128 0x3
 1037 0071 750A0000 		.4byte	.LASF8
 1038 0075 06       		.byte	0x6
 1039 0076 3F       		.byte	0x3f
 1040 0077 7B000000 		.4byte	0x7b
 1041 007b 04       		.uleb128 0x4
 1042 007c 04       		.byte	0x4
 1043 007d 05       		.byte	0x5
 1044 007e 48010000 		.4byte	.LASF9
 1045 0082 03       		.uleb128 0x3
 1046 0083 03050000 		.4byte	.LASF10
 1047 0087 06       		.byte	0x6
 1048 0088 41       		.byte	0x41
 1049 0089 8D000000 		.4byte	0x8d
 1050 008d 04       		.uleb128 0x4
 1051 008e 04       		.byte	0x4
 1052 008f 07       		.byte	0x7
 1053 0090 46040000 		.4byte	.LASF11
 1054 0094 04       		.uleb128 0x4
 1055 0095 08       		.byte	0x8
 1056 0096 05       		.byte	0x5
 1057 0097 20050000 		.4byte	.LASF12
 1058 009b 03       		.uleb128 0x3
 1059 009c 3B040000 		.4byte	.LASF13
 1060 00a0 06       		.byte	0x6
 1061 00a1 5B       		.byte	0x5b
 1062 00a2 A6000000 		.4byte	0xa6
 1063 00a6 04       		.uleb128 0x4
 1064 00a7 08       		.byte	0x8
 1065 00a8 07       		.byte	0x7
 1066 00a9 10070000 		.4byte	.LASF14
 1067 00ad 03       		.uleb128 0x3
 1068 00ae 34020000 		.4byte	.LASF15
 1069 00b2 07       		.byte	0x7
 1070 00b3 14       		.byte	0x14
 1071 00b4 45000000 		.4byte	0x45
 1072 00b8 03       		.uleb128 0x3
 1073 00b9 27070000 		.4byte	.LASF16
ARM GAS  /tmp/cc0MdUPR.s 			page 20


 1074 00bd 07       		.byte	0x7
 1075 00be 1A       		.byte	0x1a
 1076 00bf 5E000000 		.4byte	0x5e
 1077 00c3 03       		.uleb128 0x3
 1078 00c4 52000000 		.4byte	.LASF17
 1079 00c8 07       		.byte	0x7
 1080 00c9 1F       		.byte	0x1f
 1081 00ca 70000000 		.4byte	0x70
 1082 00ce 03       		.uleb128 0x3
 1083 00cf 280A0000 		.4byte	.LASF18
 1084 00d3 07       		.byte	0x7
 1085 00d4 20       		.byte	0x20
 1086 00d5 82000000 		.4byte	0x82
 1087 00d9 03       		.uleb128 0x3
 1088 00da 42090000 		.4byte	.LASF19
 1089 00de 07       		.byte	0x7
 1090 00df 26       		.byte	0x26
 1091 00e0 9B000000 		.4byte	0x9b
 1092 00e4 03       		.uleb128 0x3
 1093 00e5 1F090000 		.4byte	.LASF20
 1094 00e9 08       		.byte	0x8
 1095 00ea 34       		.byte	0x34
 1096 00eb 37000000 		.4byte	0x37
 1097 00ef 03       		.uleb128 0x3
 1098 00f0 1D060000 		.4byte	.LASF21
 1099 00f4 09       		.byte	0x9
 1100 00f5 27       		.byte	0x27
 1101 00f6 CE000000 		.4byte	0xce
 1102 00fa 03       		.uleb128 0x3
 1103 00fb 9C010000 		.4byte	.LASF22
 1104 00ff 09       		.byte	0x9
 1105 0100 28       		.byte	0x28
 1106 0101 D9000000 		.4byte	0xd9
 1107 0105 03       		.uleb128 0x3
 1108 0106 C6080000 		.4byte	.LASF23
 1109 010a 09       		.byte	0x9
 1110 010b 2A       		.byte	0x2a
 1111 010c AD000000 		.4byte	0xad
 1112 0110 03       		.uleb128 0x3
 1113 0111 93010000 		.4byte	.LASF24
 1114 0115 09       		.byte	0x9
 1115 0116 2B       		.byte	0x2b
 1116 0117 AD000000 		.4byte	0xad
 1117 011b 03       		.uleb128 0x3
 1118 011c F4090000 		.4byte	.LASF25
 1119 0120 09       		.byte	0x9
 1120 0121 2C       		.byte	0x2c
 1121 0122 AD000000 		.4byte	0xad
 1122 0126 03       		.uleb128 0x3
 1123 0127 4A000000 		.4byte	.LASF26
 1124 012b 09       		.byte	0x9
 1125 012c 2E       		.byte	0x2e
 1126 012d CE000000 		.4byte	0xce
 1127 0131 03       		.uleb128 0x3
 1128 0132 25080000 		.4byte	.LASF27
 1129 0136 09       		.byte	0x9
 1130 0137 2F       		.byte	0x2f
ARM GAS  /tmp/cc0MdUPR.s 			page 21


 1131 0138 C3000000 		.4byte	0xc3
 1132 013c 03       		.uleb128 0x3
 1133 013d 3C020000 		.4byte	.LASF28
 1134 0141 09       		.byte	0x9
 1135 0142 31       		.byte	0x31
 1136 0143 CE000000 		.4byte	0xce
 1137 0147 03       		.uleb128 0x3
 1138 0148 B1030000 		.4byte	.LASF29
 1139 014c 09       		.byte	0x9
 1140 014d 33       		.byte	0x33
 1141 014e C3000000 		.4byte	0xc3
 1142 0152 03       		.uleb128 0x3
 1143 0153 B1040000 		.4byte	.LASF30
 1144 0157 09       		.byte	0x9
 1145 0158 34       		.byte	0x34
 1146 0159 CE000000 		.4byte	0xce
 1147 015d 03       		.uleb128 0x3
 1148 015e 86060000 		.4byte	.LASF31
 1149 0162 0A       		.byte	0xa
 1150 0163 34       		.byte	0x34
 1151 0164 68010000 		.4byte	0x168
 1152 0168 05       		.uleb128 0x5
 1153 0169 65040000 		.4byte	.LASF50
 1154 016d 60       		.byte	0x60
 1155 016e 0B       		.byte	0xb
 1156 016f 8E       		.byte	0x8e
 1157 0170 53020000 		.4byte	0x253
 1158 0174 06       		.uleb128 0x6
 1159 0175 4C080000 		.4byte	.LASF32
 1160 0179 0B       		.byte	0xb
 1161 017a 8F       		.byte	0x8f
 1162 017b 88020000 		.4byte	0x288
 1163 017f 00       		.byte	0
 1164 0180 06       		.uleb128 0x6
 1165 0181 E0000000 		.4byte	.LASF33
 1166 0185 0B       		.byte	0xb
 1167 0186 90       		.byte	0x90
 1168 0187 26010000 		.4byte	0x126
 1169 018b 08       		.byte	0x8
 1170 018c 07       		.uleb128 0x7
 1171 018d 63747800 		.ascii	"ctx\000"
 1172 0191 0B       		.byte	0xb
 1173 0192 91       		.byte	0x91
 1174 0193 3F070000 		.4byte	0x73f
 1175 0197 0C       		.byte	0xc
 1176 0198 06       		.uleb128 0x6
 1177 0199 220A0000 		.4byte	.LASF34
 1178 019d 0B       		.byte	0xb
 1179 019e 93       		.byte	0x93
 1180 019f 5E020000 		.4byte	0x25e
 1181 01a3 10       		.byte	0x10
 1182 01a4 06       		.uleb128 0x6
 1183 01a5 A2040000 		.4byte	.LASF35
 1184 01a9 0B       		.byte	0xb
 1185 01aa 94       		.byte	0x94
 1186 01ab 5E020000 		.4byte	0x25e
 1187 01af 14       		.byte	0x14
ARM GAS  /tmp/cc0MdUPR.s 			page 22


 1188 01b0 06       		.uleb128 0x6
 1189 01b1 10090000 		.4byte	.LASF36
 1190 01b5 0B       		.byte	0xb
 1191 01b6 9B       		.byte	0x9b
 1192 01b7 250A0000 		.4byte	0xa25
 1193 01bb 18       		.byte	0x18
 1194 01bc 06       		.uleb128 0x6
 1195 01bd 9F080000 		.4byte	.LASF37
 1196 01c1 0B       		.byte	0xb
 1197 01c2 A4       		.byte	0xa4
 1198 01c3 370A0000 		.4byte	0xa37
 1199 01c7 1C       		.byte	0x1c
 1200 01c8 06       		.uleb128 0x6
 1201 01c9 B5000000 		.4byte	.LASF38
 1202 01cd 0B       		.byte	0xb
 1203 01ce A9       		.byte	0xa9
 1204 01cf 10010000 		.4byte	0x110
 1205 01d3 20       		.byte	0x20
 1206 01d4 06       		.uleb128 0x6
 1207 01d5 4E030000 		.4byte	.LASF39
 1208 01d9 0B       		.byte	0xb
 1209 01da AD       		.byte	0xad
 1210 01db 05010000 		.4byte	0x105
 1211 01df 21       		.byte	0x21
 1212 01e0 06       		.uleb128 0x6
 1213 01e1 47080000 		.4byte	.LASF40
 1214 01e5 0B       		.byte	0xb
 1215 01e6 B2       		.byte	0xb2
 1216 01e7 1B010000 		.4byte	0x11b
 1217 01eb 22       		.byte	0x22
 1218 01ec 08       		.uleb128 0x8
 1219 01ed 7500     		.ascii	"u\000"
 1220 01ef 0B       		.byte	0xb
 1221 01f0 0301     		.2byte	0x103
 1222 01f2 5B090000 		.4byte	0x95b
 1223 01f6 24       		.byte	0x24
 1224 01f7 09       		.uleb128 0x9
 1225 01f8 BC090000 		.4byte	.LASF41
 1226 01fc 0B       		.byte	0xb
 1227 01fd 0801     		.2byte	0x108
 1228 01ff 64020000 		.4byte	0x264
 1229 0203 28       		.byte	0x28
 1230 0204 09       		.uleb128 0x9
 1231 0205 59090000 		.4byte	.LASF42
 1232 0209 0B       		.byte	0xb
 1233 020a 0E01     		.2byte	0x10e
 1234 020c 88020000 		.4byte	0x288
 1235 0210 2C       		.byte	0x2c
 1236 0211 09       		.uleb128 0x9
 1237 0212 52080000 		.4byte	.LASF43
 1238 0216 0B       		.byte	0xb
 1239 0217 1401     		.2byte	0x114
 1240 0219 3C010000 		.4byte	0x13c
 1241 021d 34       		.byte	0x34
 1242 021e 09       		.uleb128 0x9
 1243 021f 0E050000 		.4byte	.LASF44
 1244 0223 0B       		.byte	0xb
ARM GAS  /tmp/cc0MdUPR.s 			page 23


 1245 0224 1B01     		.2byte	0x11b
 1246 0226 1F0A0000 		.4byte	0xa1f
 1247 022a 38       		.byte	0x38
 1248 022b 09       		.uleb128 0x9
 1249 022c A8040000 		.4byte	.LASF45
 1250 0230 0B       		.byte	0xb
 1251 0231 1F01     		.2byte	0x11f
 1252 0233 26010000 		.4byte	0x126
 1253 0237 3C       		.byte	0x3c
 1254 0238 09       		.uleb128 0x9
 1255 0239 83030000 		.4byte	.LASF46
 1256 023d 0B       		.byte	0xb
 1257 023e 2601     		.2byte	0x126
 1258 0240 3B030000 		.4byte	0x33b
 1259 0244 40       		.byte	0x40
 1260 0245 09       		.uleb128 0x9
 1261 0246 BB000000 		.4byte	.LASF47
 1262 024a 0B       		.byte	0xb
 1263 024b 2C01     		.2byte	0x12c
 1264 024d 0C090000 		.4byte	0x90c
 1265 0251 48       		.byte	0x48
 1266 0252 00       		.byte	0
 1267 0253 03       		.uleb128 0x3
 1268 0254 8F060000 		.4byte	.LASF48
 1269 0258 0A       		.byte	0xa
 1270 0259 39       		.byte	0x39
 1271 025a 5E020000 		.4byte	0x25e
 1272 025e 0A       		.uleb128 0xa
 1273 025f 04       		.byte	0x4
 1274 0260 5D010000 		.4byte	0x15d
 1275 0264 03       		.uleb128 0x3
 1276 0265 090A0000 		.4byte	.LASF49
 1277 0269 0A       		.byte	0xa
 1278 026a 3E       		.byte	0x3e
 1279 026b 6F020000 		.4byte	0x26f
 1280 026f 05       		.uleb128 0x5
 1281 0270 D1040000 		.4byte	.LASF51
 1282 0274 04       		.byte	0x4
 1283 0275 0B       		.byte	0xb
 1284 0276 7C       		.byte	0x7c
 1285 0277 88020000 		.4byte	0x288
 1286 027b 06       		.uleb128 0x6
 1287 027c 8F0A0000 		.4byte	.LASF52
 1288 0280 0B       		.byte	0xb
 1289 0281 7D       		.byte	0x7d
 1290 0282 5E020000 		.4byte	0x25e
 1291 0286 00       		.byte	0
 1292 0287 00       		.byte	0
 1293 0288 03       		.uleb128 0x3
 1294 0289 A5010000 		.4byte	.LASF53
 1295 028d 0A       		.byte	0xa
 1296 028e 45       		.byte	0x45
 1297 028f 93020000 		.4byte	0x293
 1298 0293 05       		.uleb128 0x5
 1299 0294 2B080000 		.4byte	.LASF54
 1300 0298 08       		.byte	0x8
 1301 0299 0B       		.byte	0xb
ARM GAS  /tmp/cc0MdUPR.s 			page 24


 1302 029a 83       		.byte	0x83
 1303 029b B8020000 		.4byte	0x2b8
 1304 029f 06       		.uleb128 0x6
 1305 02a0 8F0A0000 		.4byte	.LASF52
 1306 02a4 0B       		.byte	0xb
 1307 02a5 84       		.byte	0x84
 1308 02a6 5E020000 		.4byte	0x25e
 1309 02aa 00       		.byte	0
 1310 02ab 06       		.uleb128 0x6
 1311 02ac 940A0000 		.4byte	.LASF55
 1312 02b0 0B       		.byte	0xb
 1313 02b1 85       		.byte	0x85
 1314 02b2 5E020000 		.4byte	0x25e
 1315 02b6 04       		.byte	0x4
 1316 02b7 00       		.byte	0
 1317 02b8 03       		.uleb128 0x3
 1318 02b9 95040000 		.4byte	.LASF56
 1319 02bd 0A       		.byte	0xa
 1320 02be 4C       		.byte	0x4c
 1321 02bf C3020000 		.4byte	0x2c3
 1322 02c3 0B       		.uleb128 0xb
 1323 02c4 02040000 		.4byte	.LASF57
 1324 02c8 1C       		.byte	0x1c
 1325 02c9 0B       		.byte	0xb
 1326 02ca 5E01     		.2byte	0x15e
 1327 02cc 1F030000 		.4byte	0x31f
 1328 02d0 09       		.uleb128 0x9
 1329 02d1 4C080000 		.4byte	.LASF32
 1330 02d5 0B       		.byte	0xb
 1331 02d6 5F01     		.2byte	0x15f
 1332 02d8 88020000 		.4byte	0x288
 1333 02dc 00       		.byte	0
 1334 02dd 09       		.uleb128 0x9
 1335 02de E0000000 		.4byte	.LASF33
 1336 02e2 0B       		.byte	0xb
 1337 02e3 6001     		.2byte	0x160
 1338 02e5 26010000 		.4byte	0x126
 1339 02e9 08       		.byte	0x8
 1340 02ea 08       		.uleb128 0x8
 1341 02eb 63747800 		.ascii	"ctx\000"
 1342 02ef 0B       		.byte	0xb
 1343 02f0 6201     		.2byte	0x162
 1344 02f2 3F070000 		.4byte	0x73f
 1345 02f6 0C       		.byte	0xc
 1346 02f7 09       		.uleb128 0x9
 1347 02f8 220A0000 		.4byte	.LASF34
 1348 02fc 0B       		.byte	0xb
 1349 02fd 6501     		.2byte	0x165
 1350 02ff 5E020000 		.4byte	0x25e
 1351 0303 10       		.byte	0x10
 1352 0304 09       		.uleb128 0x9
 1353 0305 A2040000 		.4byte	.LASF35
 1354 0309 0B       		.byte	0xb
 1355 030a 6601     		.2byte	0x166
 1356 030c 5E020000 		.4byte	0x25e
 1357 0310 14       		.byte	0x14
 1358 0311 09       		.uleb128 0x9
ARM GAS  /tmp/cc0MdUPR.s 			page 25


 1359 0312 43060000 		.4byte	.LASF58
 1360 0316 0B       		.byte	0xb
 1361 0317 6901     		.2byte	0x169
 1362 0319 5E020000 		.4byte	0x25e
 1363 031d 18       		.byte	0x18
 1364 031e 00       		.byte	0
 1365 031f 03       		.uleb128 0x3
 1366 0320 67000000 		.4byte	.LASF59
 1367 0324 0A       		.byte	0xa
 1368 0325 51       		.byte	0x51
 1369 0326 2A030000 		.4byte	0x32a
 1370 032a 0A       		.uleb128 0xa
 1371 032b 04       		.byte	0x4
 1372 032c 30030000 		.4byte	0x330
 1373 0330 0C       		.uleb128 0xc
 1374 0331 3B030000 		.4byte	0x33b
 1375 0335 0D       		.uleb128 0xd
 1376 0336 3B030000 		.4byte	0x33b
 1377 033a 00       		.byte	0
 1378 033b 0E       		.uleb128 0xe
 1379 033c 04       		.byte	0x4
 1380 033d 03       		.uleb128 0x3
 1381 033e 85040000 		.4byte	.LASF60
 1382 0342 0A       		.byte	0xa
 1383 0343 56       		.byte	0x56
 1384 0344 48030000 		.4byte	0x348
 1385 0348 0B       		.uleb128 0xb
 1386 0349 E0060000 		.4byte	.LASF61
 1387 034d 14       		.byte	0x14
 1388 034e 0B       		.byte	0xb
 1389 034f 3901     		.2byte	0x139
 1390 0351 97030000 		.4byte	0x397
 1391 0355 09       		.uleb128 0x9
 1392 0356 8F0A0000 		.4byte	.LASF52
 1393 035a 0B       		.byte	0xb
 1394 035b 3A01     		.2byte	0x13a
 1395 035d 3D0A0000 		.4byte	0xa3d
 1396 0361 00       		.byte	0
 1397 0362 09       		.uleb128 0x9
 1398 0363 940A0000 		.4byte	.LASF55
 1399 0367 0B       		.byte	0xb
 1400 0368 3B01     		.2byte	0x13b
 1401 036a 3D0A0000 		.4byte	0xa3d
 1402 036e 04       		.byte	0x4
 1403 036f 09       		.uleb128 0x9
 1404 0370 3C080000 		.4byte	.LASF62
 1405 0374 0B       		.byte	0xb
 1406 0375 3C01     		.2byte	0x13c
 1407 0377 7B040000 		.4byte	0x47b
 1408 037b 08       		.byte	0x8
 1409 037c 09       		.uleb128 0x9
 1410 037d 4B090000 		.4byte	.LASF63
 1411 0381 0B       		.byte	0xb
 1412 0382 3D01     		.2byte	0x13d
 1413 0384 1F030000 		.4byte	0x31f
 1414 0388 0C       		.byte	0xc
 1415 0389 08       		.uleb128 0x8
ARM GAS  /tmp/cc0MdUPR.s 			page 26


 1416 038a 70617200 		.ascii	"par\000"
 1417 038e 0B       		.byte	0xb
 1418 038f 3F01     		.2byte	0x13f
 1419 0391 3B030000 		.4byte	0x33b
 1420 0395 10       		.byte	0x10
 1421 0396 00       		.byte	0
 1422 0397 03       		.uleb128 0x3
 1423 0398 6F040000 		.4byte	.LASF64
 1424 039c 0A       		.byte	0xa
 1425 039d 5B       		.byte	0x5b
 1426 039e A2030000 		.4byte	0x3a2
 1427 03a2 0B       		.uleb128 0xb
 1428 03a3 70000000 		.4byte	.LASF65
 1429 03a7 10       		.byte	0x10
 1430 03a8 0B       		.byte	0xb
 1431 03a9 4901     		.2byte	0x149
 1432 03ab E4030000 		.4byte	0x3e4
 1433 03af 09       		.uleb128 0x9
 1434 03b0 8F0A0000 		.4byte	.LASF52
 1435 03b4 0B       		.byte	0xb
 1436 03b5 4A01     		.2byte	0x14a
 1437 03b7 3D0A0000 		.4byte	0xa3d
 1438 03bb 00       		.byte	0
 1439 03bc 09       		.uleb128 0x9
 1440 03bd 940A0000 		.4byte	.LASF55
 1441 03c1 0B       		.byte	0xb
 1442 03c2 4C01     		.2byte	0x14c
 1443 03c4 3D0A0000 		.4byte	0xa3d
 1444 03c8 04       		.byte	0x4
 1445 03c9 09       		.uleb128 0x9
 1446 03ca 3C080000 		.4byte	.LASF62
 1447 03ce 0B       		.byte	0xb
 1448 03cf 4E01     		.2byte	0x14e
 1449 03d1 7B040000 		.4byte	0x47b
 1450 03d5 08       		.byte	0x8
 1451 03d6 09       		.uleb128 0x9
 1452 03d7 AF020000 		.4byte	.LASF66
 1453 03db 0B       		.byte	0xb
 1454 03dc 5601     		.2byte	0x156
 1455 03de 70040000 		.4byte	0x470
 1456 03e2 0C       		.byte	0xc
 1457 03e3 00       		.byte	0
 1458 03e4 03       		.uleb128 0x3
 1459 03e5 EA020000 		.4byte	.LASF67
 1460 03e9 0A       		.byte	0xa
 1461 03ea 60       		.byte	0x60
 1462 03eb EF030000 		.4byte	0x3ef
 1463 03ef 0B       		.uleb128 0xb
 1464 03f0 F7010000 		.4byte	.LASF68
 1465 03f4 04       		.byte	0x4
 1466 03f5 0B       		.byte	0xb
 1467 03f6 7001     		.2byte	0x170
 1468 03f8 0A040000 		.4byte	0x40a
 1469 03fc 09       		.uleb128 0x9
 1470 03fd D3020000 		.4byte	.LASF69
 1471 0401 0B       		.byte	0xb
 1472 0402 7801     		.2byte	0x178
ARM GAS  /tmp/cc0MdUPR.s 			page 27


 1473 0404 430A0000 		.4byte	0xa43
 1474 0408 00       		.byte	0
 1475 0409 00       		.byte	0
 1476 040a 03       		.uleb128 0x3
 1477 040b 5E0A0000 		.4byte	.LASF70
 1478 040f 0A       		.byte	0xa
 1479 0410 65       		.byte	0x65
 1480 0411 15040000 		.4byte	0x415
 1481 0415 0B       		.uleb128 0xb
 1482 0416 180A0000 		.4byte	.LASF71
 1483 041a D0       		.byte	0xd0
 1484 041b 0B       		.byte	0xb
 1485 041c 9001     		.2byte	0x190
 1486 041e 70040000 		.4byte	0x470
 1487 0422 09       		.uleb128 0x9
 1488 0423 C0080000 		.4byte	.LASF72
 1489 0427 0B       		.byte	0xb
 1490 0428 9401     		.2byte	0x194
 1491 042a B8020000 		.4byte	0x2b8
 1492 042e 00       		.byte	0
 1493 042f 09       		.uleb128 0x9
 1494 0430 B5090000 		.4byte	.LASF73
 1495 0434 0B       		.byte	0xb
 1496 0435 9801     		.2byte	0x198
 1497 0437 97030000 		.4byte	0x397
 1498 043b 1C       		.byte	0x1c
 1499 043c 08       		.uleb128 0x8
 1500 043d 64626700 		.ascii	"dbg\000"
 1501 0441 0B       		.byte	0xb
 1502 0442 9C01     		.2byte	0x19c
 1503 0444 E4030000 		.4byte	0x3e4
 1504 0448 2C       		.byte	0x2c
 1505 0449 09       		.uleb128 0x9
 1506 044a 69080000 		.4byte	.LASF74
 1507 044e 0B       		.byte	0xb
 1508 044f A001     		.2byte	0x1a0
 1509 0451 5D010000 		.4byte	0x15d
 1510 0455 30       		.byte	0x30
 1511 0456 08       		.uleb128 0x8
 1512 0457 746D00   		.ascii	"tm\000"
 1513 045a 0B       		.byte	0xb
 1514 045b A501     		.2byte	0x1a5
 1515 045d BE080000 		.4byte	0x8be
 1516 0461 90       		.byte	0x90
 1517 0462 09       		.uleb128 0x9
 1518 0463 F9060000 		.4byte	.LASF75
 1519 0467 0B       		.byte	0xb
 1520 0468 AB01     		.2byte	0x1ab
 1521 046a 50090000 		.4byte	0x950
 1522 046e 98       		.byte	0x98
 1523 046f 00       		.byte	0
 1524 0470 03       		.uleb128 0x3
 1525 0471 2F000000 		.4byte	.LASF76
 1526 0475 0C       		.byte	0xc
 1527 0476 6D       		.byte	0x6d
 1528 0477 CE000000 		.4byte	0xce
 1529 047b 03       		.uleb128 0x3
ARM GAS  /tmp/cc0MdUPR.s 			page 28


 1530 047c 2E050000 		.4byte	.LASF77
 1531 0480 0C       		.byte	0xc
 1532 0481 79       		.byte	0x79
 1533 0482 CE000000 		.4byte	0xce
 1534 0486 04       		.uleb128 0x4
 1535 0487 04       		.byte	0x4
 1536 0488 07       		.byte	0x7
 1537 0489 1F000000 		.4byte	.LASF78
 1538 048d 0F       		.uleb128 0xf
 1539 048e CE000000 		.4byte	0xce
 1540 0492 10       		.uleb128 0x10
 1541 0493 CE000000 		.4byte	0xce
 1542 0497 A2040000 		.4byte	0x4a2
 1543 049b 11       		.uleb128 0x11
 1544 049c 86040000 		.4byte	0x486
 1545 04a0 01       		.byte	0x1
 1546 04a1 00       		.byte	0
 1547 04a2 12       		.uleb128 0x12
 1548 04a3 18       		.byte	0x18
 1549 04a4 0D       		.byte	0xd
 1550 04a5 6A01     		.2byte	0x16a
 1551 04a7 F9040000 		.4byte	0x4f9
 1552 04ab 08       		.uleb128 0x8
 1553 04ac 435200   		.ascii	"CR\000"
 1554 04af 0D       		.byte	0xd
 1555 04b0 6C01     		.2byte	0x16c
 1556 04b2 8D040000 		.4byte	0x48d
 1557 04b6 00       		.byte	0
 1558 04b7 09       		.uleb128 0x9
 1559 04b8 7F0A0000 		.4byte	.LASF79
 1560 04bc 0D       		.byte	0xd
 1561 04bd 6D01     		.2byte	0x16d
 1562 04bf 8D040000 		.4byte	0x48d
 1563 04c3 04       		.byte	0x4
 1564 04c4 08       		.uleb128 0x8
 1565 04c5 50415200 		.ascii	"PAR\000"
 1566 04c9 0D       		.byte	0xd
 1567 04ca 6E01     		.2byte	0x16e
 1568 04cc 8D040000 		.4byte	0x48d
 1569 04d0 08       		.byte	0x8
 1570 04d1 09       		.uleb128 0x9
 1571 04d2 0B090000 		.4byte	.LASF80
 1572 04d6 0D       		.byte	0xd
 1573 04d7 6F01     		.2byte	0x16f
 1574 04d9 8D040000 		.4byte	0x48d
 1575 04dd 0C       		.byte	0xc
 1576 04de 09       		.uleb128 0x9
 1577 04df 00000000 		.4byte	.LASF81
 1578 04e3 0D       		.byte	0xd
 1579 04e4 7001     		.2byte	0x170
 1580 04e6 8D040000 		.4byte	0x48d
 1581 04ea 10       		.byte	0x10
 1582 04eb 08       		.uleb128 0x8
 1583 04ec 46435200 		.ascii	"FCR\000"
 1584 04f0 0D       		.byte	0xd
 1585 04f1 7101     		.2byte	0x171
 1586 04f3 8D040000 		.4byte	0x48d
ARM GAS  /tmp/cc0MdUPR.s 			page 29


 1587 04f7 14       		.byte	0x14
 1588 04f8 00       		.byte	0
 1589 04f9 13       		.uleb128 0x13
 1590 04fa 5C060000 		.4byte	.LASF82
 1591 04fe 0D       		.byte	0xd
 1592 04ff 7201     		.2byte	0x172
 1593 0501 A2040000 		.4byte	0x4a2
 1594 0505 12       		.uleb128 0x12
 1595 0506 88       		.byte	0x88
 1596 0507 0D       		.byte	0xd
 1597 0508 6602     		.2byte	0x266
 1598 050a 94060000 		.4byte	0x694
 1599 050e 08       		.uleb128 0x8
 1600 050f 435200   		.ascii	"CR\000"
 1601 0512 0D       		.byte	0xd
 1602 0513 6802     		.2byte	0x268
 1603 0515 8D040000 		.4byte	0x48d
 1604 0519 00       		.byte	0
 1605 051a 09       		.uleb128 0x9
 1606 051b EF040000 		.4byte	.LASF83
 1607 051f 0D       		.byte	0xd
 1608 0520 6902     		.2byte	0x269
 1609 0522 8D040000 		.4byte	0x48d
 1610 0526 04       		.byte	0x4
 1611 0527 09       		.uleb128 0x9
 1612 0528 16040000 		.4byte	.LASF84
 1613 052c 0D       		.byte	0xd
 1614 052d 6A02     		.2byte	0x26a
 1615 052f 8D040000 		.4byte	0x48d
 1616 0533 08       		.byte	0x8
 1617 0534 08       		.uleb128 0x8
 1618 0535 43495200 		.ascii	"CIR\000"
 1619 0539 0D       		.byte	0xd
 1620 053a 6B02     		.2byte	0x26b
 1621 053c 8D040000 		.4byte	0x48d
 1622 0540 0C       		.byte	0xc
 1623 0541 09       		.uleb128 0x9
 1624 0542 18030000 		.4byte	.LASF85
 1625 0546 0D       		.byte	0xd
 1626 0547 6C02     		.2byte	0x26c
 1627 0549 8D040000 		.4byte	0x48d
 1628 054d 10       		.byte	0x10
 1629 054e 09       		.uleb128 0x9
 1630 054f FB080000 		.4byte	.LASF86
 1631 0553 0D       		.byte	0xd
 1632 0554 6D02     		.2byte	0x26d
 1633 0556 8D040000 		.4byte	0x48d
 1634 055a 14       		.byte	0x14
 1635 055b 09       		.uleb128 0x9
 1636 055c 7D060000 		.4byte	.LASF87
 1637 0560 0D       		.byte	0xd
 1638 0561 6E02     		.2byte	0x26e
 1639 0563 8D040000 		.4byte	0x48d
 1640 0567 18       		.byte	0x18
 1641 0568 09       		.uleb128 0x9
 1642 0569 6F020000 		.4byte	.LASF88
 1643 056d 0D       		.byte	0xd
ARM GAS  /tmp/cc0MdUPR.s 			page 30


 1644 056e 6F02     		.2byte	0x26f
 1645 0570 CE000000 		.4byte	0xce
 1646 0574 1C       		.byte	0x1c
 1647 0575 09       		.uleb128 0x9
 1648 0576 D7060000 		.4byte	.LASF89
 1649 057a 0D       		.byte	0xd
 1650 057b 7002     		.2byte	0x270
 1651 057d 8D040000 		.4byte	0x48d
 1652 0581 20       		.byte	0x20
 1653 0582 09       		.uleb128 0x9
 1654 0583 6A050000 		.4byte	.LASF90
 1655 0587 0D       		.byte	0xd
 1656 0588 7102     		.2byte	0x271
 1657 058a 8D040000 		.4byte	0x48d
 1658 058e 24       		.byte	0x24
 1659 058f 09       		.uleb128 0x9
 1660 0590 79020000 		.4byte	.LASF91
 1661 0594 0D       		.byte	0xd
 1662 0595 7202     		.2byte	0x272
 1663 0597 92040000 		.4byte	0x492
 1664 059b 28       		.byte	0x28
 1665 059c 09       		.uleb128 0x9
 1666 059d DA080000 		.4byte	.LASF92
 1667 05a1 0D       		.byte	0xd
 1668 05a2 7302     		.2byte	0x273
 1669 05a4 8D040000 		.4byte	0x48d
 1670 05a8 30       		.byte	0x30
 1671 05a9 09       		.uleb128 0x9
 1672 05aa 36030000 		.4byte	.LASF93
 1673 05ae 0D       		.byte	0xd
 1674 05af 7402     		.2byte	0x274
 1675 05b1 8D040000 		.4byte	0x48d
 1676 05b5 34       		.byte	0x34
 1677 05b6 09       		.uleb128 0x9
 1678 05b7 E2080000 		.4byte	.LASF94
 1679 05bb 0D       		.byte	0xd
 1680 05bc 7502     		.2byte	0x275
 1681 05be 8D040000 		.4byte	0x48d
 1682 05c2 38       		.byte	0x38
 1683 05c3 09       		.uleb128 0x9
 1684 05c4 FF020000 		.4byte	.LASF95
 1685 05c8 0D       		.byte	0xd
 1686 05c9 7602     		.2byte	0x276
 1687 05cb CE000000 		.4byte	0xce
 1688 05cf 3C       		.byte	0x3c
 1689 05d0 09       		.uleb128 0x9
 1690 05d1 F1060000 		.4byte	.LASF96
 1691 05d5 0D       		.byte	0xd
 1692 05d6 7702     		.2byte	0x277
 1693 05d8 8D040000 		.4byte	0x48d
 1694 05dc 40       		.byte	0x40
 1695 05dd 09       		.uleb128 0x9
 1696 05de E5010000 		.4byte	.LASF97
 1697 05e2 0D       		.byte	0xd
 1698 05e3 7802     		.2byte	0x278
 1699 05e5 8D040000 		.4byte	0x48d
 1700 05e9 44       		.byte	0x44
ARM GAS  /tmp/cc0MdUPR.s 			page 31


 1701 05ea 09       		.uleb128 0x9
 1702 05eb 91020000 		.4byte	.LASF98
 1703 05ef 0D       		.byte	0xd
 1704 05f0 7902     		.2byte	0x279
 1705 05f2 92040000 		.4byte	0x492
 1706 05f6 48       		.byte	0x48
 1707 05f7 09       		.uleb128 0x9
 1708 05f8 ED010000 		.4byte	.LASF99
 1709 05fc 0D       		.byte	0xd
 1710 05fd 7A02     		.2byte	0x27a
 1711 05ff 8D040000 		.4byte	0x48d
 1712 0603 50       		.byte	0x50
 1713 0604 09       		.uleb128 0x9
 1714 0605 2D010000 		.4byte	.LASF100
 1715 0609 0D       		.byte	0xd
 1716 060a 7B02     		.2byte	0x27b
 1717 060c 8D040000 		.4byte	0x48d
 1718 0610 54       		.byte	0x54
 1719 0611 09       		.uleb128 0x9
 1720 0612 82080000 		.4byte	.LASF101
 1721 0616 0D       		.byte	0xd
 1722 0617 7C02     		.2byte	0x27c
 1723 0619 8D040000 		.4byte	0x48d
 1724 061d 58       		.byte	0x58
 1725 061e 09       		.uleb128 0x9
 1726 061f 9B020000 		.4byte	.LASF102
 1727 0623 0D       		.byte	0xd
 1728 0624 7D02     		.2byte	0x27d
 1729 0626 CE000000 		.4byte	0xce
 1730 062a 5C       		.byte	0x5c
 1731 062b 09       		.uleb128 0x9
 1732 062c 52060000 		.4byte	.LASF103
 1733 0630 0D       		.byte	0xd
 1734 0631 7E02     		.2byte	0x27e
 1735 0633 8D040000 		.4byte	0x48d
 1736 0637 60       		.byte	0x60
 1737 0638 09       		.uleb128 0x9
 1738 0639 BD050000 		.4byte	.LASF104
 1739 063d 0D       		.byte	0xd
 1740 063e 7F02     		.2byte	0x27f
 1741 0640 8D040000 		.4byte	0x48d
 1742 0644 64       		.byte	0x64
 1743 0645 09       		.uleb128 0x9
 1744 0646 A5020000 		.4byte	.LASF105
 1745 064a 0D       		.byte	0xd
 1746 064b 8002     		.2byte	0x280
 1747 064d 92040000 		.4byte	0x492
 1748 0651 68       		.byte	0x68
 1749 0652 09       		.uleb128 0x9
 1750 0653 8F030000 		.4byte	.LASF106
 1751 0657 0D       		.byte	0xd
 1752 0658 8102     		.2byte	0x281
 1753 065a 8D040000 		.4byte	0x48d
 1754 065e 70       		.byte	0x70
 1755 065f 08       		.uleb128 0x8
 1756 0660 43535200 		.ascii	"CSR\000"
 1757 0664 0D       		.byte	0xd
ARM GAS  /tmp/cc0MdUPR.s 			page 32


 1758 0665 8202     		.2byte	0x282
 1759 0667 8D040000 		.4byte	0x48d
 1760 066b 74       		.byte	0x74
 1761 066c 09       		.uleb128 0x9
 1762 066d 09030000 		.4byte	.LASF107
 1763 0671 0D       		.byte	0xd
 1764 0672 8302     		.2byte	0x283
 1765 0674 92040000 		.4byte	0x492
 1766 0678 78       		.byte	0x78
 1767 0679 09       		.uleb128 0x9
 1768 067a 55050000 		.4byte	.LASF108
 1769 067e 0D       		.byte	0xd
 1770 067f 8402     		.2byte	0x284
 1771 0681 8D040000 		.4byte	0x48d
 1772 0685 80       		.byte	0x80
 1773 0686 09       		.uleb128 0x9
 1774 0687 39000000 		.4byte	.LASF109
 1775 068b 0D       		.byte	0xd
 1776 068c 8502     		.2byte	0x285
 1777 068e 8D040000 		.4byte	0x48d
 1778 0692 84       		.byte	0x84
 1779 0693 00       		.byte	0
 1780 0694 13       		.uleb128 0x13
 1781 0695 2C090000 		.4byte	.LASF110
 1782 0699 0D       		.byte	0xd
 1783 069a 8602     		.2byte	0x286
 1784 069c 05050000 		.4byte	0x505
 1785 06a0 12       		.uleb128 0x12
 1786 06a1 24       		.byte	0x24
 1787 06a2 0D       		.byte	0xd
 1788 06a3 D802     		.2byte	0x2d8
 1789 06a5 1D070000 		.4byte	0x71d
 1790 06a9 08       		.uleb128 0x8
 1791 06aa 43523100 		.ascii	"CR1\000"
 1792 06ae 0D       		.byte	0xd
 1793 06af DA02     		.2byte	0x2da
 1794 06b1 8D040000 		.4byte	0x48d
 1795 06b5 00       		.byte	0
 1796 06b6 08       		.uleb128 0x8
 1797 06b7 43523200 		.ascii	"CR2\000"
 1798 06bb 0D       		.byte	0xd
 1799 06bc DB02     		.2byte	0x2db
 1800 06be 8D040000 		.4byte	0x48d
 1801 06c2 04       		.byte	0x4
 1802 06c3 08       		.uleb128 0x8
 1803 06c4 535200   		.ascii	"SR\000"
 1804 06c7 0D       		.byte	0xd
 1805 06c8 DC02     		.2byte	0x2dc
 1806 06ca 8D040000 		.4byte	0x48d
 1807 06ce 08       		.byte	0x8
 1808 06cf 08       		.uleb128 0x8
 1809 06d0 445200   		.ascii	"DR\000"
 1810 06d3 0D       		.byte	0xd
 1811 06d4 DD02     		.2byte	0x2dd
 1812 06d6 8D040000 		.4byte	0x48d
 1813 06da 0C       		.byte	0xc
 1814 06db 09       		.uleb128 0x9
ARM GAS  /tmp/cc0MdUPR.s 			page 33


 1815 06dc CE080000 		.4byte	.LASF111
 1816 06e0 0D       		.byte	0xd
 1817 06e1 DE02     		.2byte	0x2de
 1818 06e3 8D040000 		.4byte	0x48d
 1819 06e7 10       		.byte	0x10
 1820 06e8 09       		.uleb128 0x9
 1821 06e9 9C050000 		.4byte	.LASF112
 1822 06ed 0D       		.byte	0xd
 1823 06ee DF02     		.2byte	0x2df
 1824 06f0 8D040000 		.4byte	0x48d
 1825 06f4 14       		.byte	0x14
 1826 06f5 09       		.uleb128 0x9
 1827 06f6 AD080000 		.4byte	.LASF113
 1828 06fa 0D       		.byte	0xd
 1829 06fb E002     		.2byte	0x2e0
 1830 06fd 8D040000 		.4byte	0x48d
 1831 0701 18       		.byte	0x18
 1832 0702 09       		.uleb128 0x9
 1833 0703 14010000 		.4byte	.LASF114
 1834 0707 0D       		.byte	0xd
 1835 0708 E102     		.2byte	0x2e1
 1836 070a 8D040000 		.4byte	0x48d
 1837 070e 1C       		.byte	0x1c
 1838 070f 09       		.uleb128 0x9
 1839 0710 310A0000 		.4byte	.LASF115
 1840 0714 0D       		.byte	0xd
 1841 0715 E202     		.2byte	0x2e2
 1842 0717 8D040000 		.4byte	0x48d
 1843 071b 20       		.byte	0x20
 1844 071c 00       		.byte	0
 1845 071d 13       		.uleb128 0x13
 1846 071e B4080000 		.4byte	.LASF116
 1847 0722 0D       		.byte	0xd
 1848 0723 E302     		.2byte	0x2e3
 1849 0725 A0060000 		.4byte	0x6a0
 1850 0729 03       		.uleb128 0x3
 1851 072a C1010000 		.4byte	.LASF117
 1852 072e 0E       		.byte	0xe
 1853 072f 65       		.byte	0x65
 1854 0730 3B030000 		.4byte	0x33b
 1855 0734 03       		.uleb128 0x3
 1856 0735 6F030000 		.4byte	.LASF118
 1857 0739 0E       		.byte	0xe
 1858 073a 6D       		.byte	0x6d
 1859 073b D9000000 		.4byte	0xd9
 1860 073f 05       		.uleb128 0x5
 1861 0740 FC090000 		.4byte	.LASF119
 1862 0744 04       		.byte	0x4
 1863 0745 0E       		.byte	0xe
 1864 0746 89       		.byte	0x89
 1865 0747 57070000 		.4byte	0x757
 1866 074b 07       		.uleb128 0x7
 1867 074c 737000   		.ascii	"sp\000"
 1868 074f 0E       		.byte	0xe
 1869 0750 8A       		.byte	0x8a
 1870 0751 A3080000 		.4byte	0x8a3
 1871 0755 00       		.byte	0
ARM GAS  /tmp/cc0MdUPR.s 			page 34


 1872 0756 00       		.byte	0
 1873 0757 0B       		.uleb128 0xb
 1874 0758 AA060000 		.4byte	.LASF120
 1875 075c 64       		.byte	0x64
 1876 075d 0F       		.byte	0xf
 1877 075e 5901     		.2byte	0x159
 1878 0760 A3080000 		.4byte	0x8a3
 1879 0764 08       		.uleb128 0x8
 1880 0765 73313600 		.ascii	"s16\000"
 1881 0769 0F       		.byte	0xf
 1882 076a 5B01     		.2byte	0x15b
 1883 076c 29070000 		.4byte	0x729
 1884 0770 00       		.byte	0
 1885 0771 08       		.uleb128 0x8
 1886 0772 73313700 		.ascii	"s17\000"
 1887 0776 0F       		.byte	0xf
 1888 0777 5C01     		.2byte	0x15c
 1889 0779 29070000 		.4byte	0x729
 1890 077d 04       		.byte	0x4
 1891 077e 08       		.uleb128 0x8
 1892 077f 73313800 		.ascii	"s18\000"
 1893 0783 0F       		.byte	0xf
 1894 0784 5D01     		.2byte	0x15d
 1895 0786 29070000 		.4byte	0x729
 1896 078a 08       		.byte	0x8
 1897 078b 08       		.uleb128 0x8
 1898 078c 73313900 		.ascii	"s19\000"
 1899 0790 0F       		.byte	0xf
 1900 0791 5E01     		.2byte	0x15e
 1901 0793 29070000 		.4byte	0x729
 1902 0797 0C       		.byte	0xc
 1903 0798 08       		.uleb128 0x8
 1904 0799 73323000 		.ascii	"s20\000"
 1905 079d 0F       		.byte	0xf
 1906 079e 5F01     		.2byte	0x15f
 1907 07a0 29070000 		.4byte	0x729
 1908 07a4 10       		.byte	0x10
 1909 07a5 08       		.uleb128 0x8
 1910 07a6 73323100 		.ascii	"s21\000"
 1911 07aa 0F       		.byte	0xf
 1912 07ab 6001     		.2byte	0x160
 1913 07ad 29070000 		.4byte	0x729
 1914 07b1 14       		.byte	0x14
 1915 07b2 08       		.uleb128 0x8
 1916 07b3 73323200 		.ascii	"s22\000"
 1917 07b7 0F       		.byte	0xf
 1918 07b8 6101     		.2byte	0x161
 1919 07ba 29070000 		.4byte	0x729
 1920 07be 18       		.byte	0x18
 1921 07bf 08       		.uleb128 0x8
 1922 07c0 73323300 		.ascii	"s23\000"
 1923 07c4 0F       		.byte	0xf
 1924 07c5 6201     		.2byte	0x162
 1925 07c7 29070000 		.4byte	0x729
 1926 07cb 1C       		.byte	0x1c
 1927 07cc 08       		.uleb128 0x8
 1928 07cd 73323400 		.ascii	"s24\000"
ARM GAS  /tmp/cc0MdUPR.s 			page 35


 1929 07d1 0F       		.byte	0xf
 1930 07d2 6301     		.2byte	0x163
 1931 07d4 29070000 		.4byte	0x729
 1932 07d8 20       		.byte	0x20
 1933 07d9 08       		.uleb128 0x8
 1934 07da 73323500 		.ascii	"s25\000"
 1935 07de 0F       		.byte	0xf
 1936 07df 6401     		.2byte	0x164
 1937 07e1 29070000 		.4byte	0x729
 1938 07e5 24       		.byte	0x24
 1939 07e6 08       		.uleb128 0x8
 1940 07e7 73323600 		.ascii	"s26\000"
 1941 07eb 0F       		.byte	0xf
 1942 07ec 6501     		.2byte	0x165
 1943 07ee 29070000 		.4byte	0x729
 1944 07f2 28       		.byte	0x28
 1945 07f3 08       		.uleb128 0x8
 1946 07f4 73323700 		.ascii	"s27\000"
 1947 07f8 0F       		.byte	0xf
 1948 07f9 6601     		.2byte	0x166
 1949 07fb 29070000 		.4byte	0x729
 1950 07ff 2C       		.byte	0x2c
 1951 0800 08       		.uleb128 0x8
 1952 0801 73323800 		.ascii	"s28\000"
 1953 0805 0F       		.byte	0xf
 1954 0806 6701     		.2byte	0x167
 1955 0808 29070000 		.4byte	0x729
 1956 080c 30       		.byte	0x30
 1957 080d 08       		.uleb128 0x8
 1958 080e 73323900 		.ascii	"s29\000"
 1959 0812 0F       		.byte	0xf
 1960 0813 6801     		.2byte	0x168
 1961 0815 29070000 		.4byte	0x729
 1962 0819 34       		.byte	0x34
 1963 081a 08       		.uleb128 0x8
 1964 081b 73333000 		.ascii	"s30\000"
 1965 081f 0F       		.byte	0xf
 1966 0820 6901     		.2byte	0x169
 1967 0822 29070000 		.4byte	0x729
 1968 0826 38       		.byte	0x38
 1969 0827 08       		.uleb128 0x8
 1970 0828 73333100 		.ascii	"s31\000"
 1971 082c 0F       		.byte	0xf
 1972 082d 6A01     		.2byte	0x16a
 1973 082f 29070000 		.4byte	0x729
 1974 0833 3C       		.byte	0x3c
 1975 0834 08       		.uleb128 0x8
 1976 0835 723400   		.ascii	"r4\000"
 1977 0838 0F       		.byte	0xf
 1978 0839 6C01     		.2byte	0x16c
 1979 083b 29070000 		.4byte	0x729
 1980 083f 40       		.byte	0x40
 1981 0840 08       		.uleb128 0x8
 1982 0841 723500   		.ascii	"r5\000"
 1983 0844 0F       		.byte	0xf
 1984 0845 6D01     		.2byte	0x16d
 1985 0847 29070000 		.4byte	0x729
ARM GAS  /tmp/cc0MdUPR.s 			page 36


 1986 084b 44       		.byte	0x44
 1987 084c 08       		.uleb128 0x8
 1988 084d 723600   		.ascii	"r6\000"
 1989 0850 0F       		.byte	0xf
 1990 0851 6E01     		.2byte	0x16e
 1991 0853 29070000 		.4byte	0x729
 1992 0857 48       		.byte	0x48
 1993 0858 08       		.uleb128 0x8
 1994 0859 723700   		.ascii	"r7\000"
 1995 085c 0F       		.byte	0xf
 1996 085d 6F01     		.2byte	0x16f
 1997 085f 29070000 		.4byte	0x729
 1998 0863 4C       		.byte	0x4c
 1999 0864 08       		.uleb128 0x8
 2000 0865 723800   		.ascii	"r8\000"
 2001 0868 0F       		.byte	0xf
 2002 0869 7001     		.2byte	0x170
 2003 086b 29070000 		.4byte	0x729
 2004 086f 50       		.byte	0x50
 2005 0870 08       		.uleb128 0x8
 2006 0871 723900   		.ascii	"r9\000"
 2007 0874 0F       		.byte	0xf
 2008 0875 7101     		.2byte	0x171
 2009 0877 29070000 		.4byte	0x729
 2010 087b 54       		.byte	0x54
 2011 087c 08       		.uleb128 0x8
 2012 087d 72313000 		.ascii	"r10\000"
 2013 0881 0F       		.byte	0xf
 2014 0882 7201     		.2byte	0x172
 2015 0884 29070000 		.4byte	0x729
 2016 0888 58       		.byte	0x58
 2017 0889 08       		.uleb128 0x8
 2018 088a 72313100 		.ascii	"r11\000"
 2019 088e 0F       		.byte	0xf
 2020 088f 7301     		.2byte	0x173
 2021 0891 29070000 		.4byte	0x729
 2022 0895 5C       		.byte	0x5c
 2023 0896 08       		.uleb128 0x8
 2024 0897 6C7200   		.ascii	"lr\000"
 2025 089a 0F       		.byte	0xf
 2026 089b 7401     		.2byte	0x174
 2027 089d 29070000 		.4byte	0x729
 2028 08a1 60       		.byte	0x60
 2029 08a2 00       		.byte	0
 2030 08a3 0A       		.uleb128 0xa
 2031 08a4 04       		.byte	0x4
 2032 08a5 57070000 		.4byte	0x757
 2033 08a9 14       		.uleb128 0x14
 2034 08aa 04       		.byte	0x4
 2035 08ab 10       		.byte	0x10
 2036 08ac 38       		.byte	0x38
 2037 08ad BE080000 		.4byte	0x8be
 2038 08b1 06       		.uleb128 0x6
 2039 08b2 4B060000 		.4byte	.LASF121
 2040 08b6 10       		.byte	0x10
 2041 08b7 3C       		.byte	0x3c
 2042 08b8 EF000000 		.4byte	0xef
ARM GAS  /tmp/cc0MdUPR.s 			page 37


 2043 08bc 00       		.byte	0
 2044 08bd 00       		.byte	0
 2045 08be 03       		.uleb128 0x3
 2046 08bf EA080000 		.4byte	.LASF122
 2047 08c3 10       		.byte	0x10
 2048 08c4 3D       		.byte	0x3d
 2049 08c5 A9080000 		.4byte	0x8a9
 2050 08c9 14       		.uleb128 0x14
 2051 08ca 18       		.byte	0x18
 2052 08cb 10       		.byte	0x10
 2053 08cc 48       		.byte	0x48
 2054 08cd 0C090000 		.4byte	0x90c
 2055 08d1 06       		.uleb128 0x6
 2056 08d2 9A080000 		.4byte	.LASF123
 2057 08d6 10       		.byte	0x10
 2058 08d7 49       		.byte	0x49
 2059 08d8 EF000000 		.4byte	0xef
 2060 08dc 00       		.byte	0
 2061 08dd 06       		.uleb128 0x6
 2062 08de 89030000 		.4byte	.LASF124
 2063 08e2 10       		.byte	0x10
 2064 08e3 4A       		.byte	0x4a
 2065 08e4 EF000000 		.4byte	0xef
 2066 08e8 04       		.byte	0x4
 2067 08e9 06       		.uleb128 0x6
 2068 08ea A30A0000 		.4byte	.LASF125
 2069 08ee 10       		.byte	0x10
 2070 08ef 4B       		.byte	0x4b
 2071 08f0 EF000000 		.4byte	0xef
 2072 08f4 08       		.byte	0x8
 2073 08f5 07       		.uleb128 0x7
 2074 08f6 6E00     		.ascii	"n\000"
 2075 08f8 10       		.byte	0x10
 2076 08f9 4C       		.byte	0x4c
 2077 08fa 52010000 		.4byte	0x152
 2078 08fe 0C       		.byte	0xc
 2079 08ff 06       		.uleb128 0x6
 2080 0900 16020000 		.4byte	.LASF126
 2081 0904 10       		.byte	0x10
 2082 0905 4D       		.byte	0x4d
 2083 0906 FA000000 		.4byte	0xfa
 2084 090a 10       		.byte	0x10
 2085 090b 00       		.byte	0
 2086 090c 03       		.uleb128 0x3
 2087 090d D8050000 		.4byte	.LASF127
 2088 0911 10       		.byte	0x10
 2089 0912 4E       		.byte	0x4e
 2090 0913 C9080000 		.4byte	0x8c9
 2091 0917 14       		.uleb128 0x14
 2092 0918 38       		.byte	0x38
 2093 0919 11       		.byte	0x11
 2094 091a 38       		.byte	0x38
 2095 091b 50090000 		.4byte	0x950
 2096 091f 06       		.uleb128 0x6
 2097 0920 E1040000 		.4byte	.LASF128
 2098 0924 11       		.byte	0x11
 2099 0925 39       		.byte	0x39
ARM GAS  /tmp/cc0MdUPR.s 			page 38


 2100 0926 52010000 		.4byte	0x152
 2101 092a 00       		.byte	0
 2102 092b 06       		.uleb128 0x6
 2103 092c 45030000 		.4byte	.LASF129
 2104 0930 11       		.byte	0x11
 2105 0931 3A       		.byte	0x3a
 2106 0932 52010000 		.4byte	0x152
 2107 0936 04       		.byte	0x4
 2108 0937 06       		.uleb128 0x6
 2109 0938 30040000 		.4byte	.LASF130
 2110 093c 11       		.byte	0x11
 2111 093d 3B       		.byte	0x3b
 2112 093e 0C090000 		.4byte	0x90c
 2113 0942 08       		.byte	0x8
 2114 0943 06       		.uleb128 0x6
 2115 0944 F0050000 		.4byte	.LASF131
 2116 0948 11       		.byte	0x11
 2117 0949 3D       		.byte	0x3d
 2118 094a 0C090000 		.4byte	0x90c
 2119 094e 20       		.byte	0x20
 2120 094f 00       		.byte	0
 2121 0950 03       		.uleb128 0x3
 2122 0951 34060000 		.4byte	.LASF132
 2123 0955 11       		.byte	0x11
 2124 0956 3F       		.byte	0x3f
 2125 0957 17090000 		.4byte	0x917
 2126 095b 15       		.uleb128 0x15
 2127 095c 04       		.byte	0x4
 2128 095d 0B       		.byte	0xb
 2129 095e C6       		.byte	0xc6
 2130 095f BD090000 		.4byte	0x9bd
 2131 0963 16       		.uleb128 0x16
 2132 0964 440A0000 		.4byte	.LASF133
 2133 0968 0B       		.byte	0xb
 2134 0969 CD       		.byte	0xcd
 2135 096a 31010000 		.4byte	0x131
 2136 096e 16       		.uleb128 0x16
 2137 096f 0B010000 		.4byte	.LASF134
 2138 0973 0B       		.byte	0xb
 2139 0974 D4       		.byte	0xd4
 2140 0975 31010000 		.4byte	0x131
 2141 0979 16       		.uleb128 0x16
 2142 097a 3E030000 		.4byte	.LASF135
 2143 097e 0B       		.byte	0xb
 2144 097f DB       		.byte	0xdb
 2145 0980 3B030000 		.4byte	0x33b
 2146 0984 16       		.uleb128 0x16
 2147 0985 56020000 		.4byte	.LASF136
 2148 0989 0B       		.byte	0xb
 2149 098a E2       		.byte	0xe2
 2150 098b BD090000 		.4byte	0x9bd
 2151 098f 16       		.uleb128 0x16
 2152 0990 A2060000 		.4byte	.LASF137
 2153 0994 0B       		.byte	0xb
 2154 0995 E7       		.byte	0xe7
 2155 0996 31010000 		.4byte	0x131
 2156 099a 16       		.uleb128 0x16
ARM GAS  /tmp/cc0MdUPR.s 			page 39


 2157 099b 28000000 		.4byte	.LASF138
 2158 099f 0B       		.byte	0xb
 2159 09a0 F0       		.byte	0xf0
 2160 09a1 E8090000 		.4byte	0x9e8
 2161 09a5 16       		.uleb128 0x16
 2162 09a6 CF030000 		.4byte	.LASF139
 2163 09aa 0B       		.byte	0xb
 2164 09ab F9       		.byte	0xf9
 2165 09ac 1F0A0000 		.4byte	0xa1f
 2166 09b0 17       		.uleb128 0x17
 2167 09b1 2D020000 		.4byte	.LASF140
 2168 09b5 0B       		.byte	0xb
 2169 09b6 0101     		.2byte	0x101
 2170 09b8 3C010000 		.4byte	0x13c
 2171 09bc 00       		.byte	0
 2172 09bd 0A       		.uleb128 0xa
 2173 09be 04       		.byte	0x4
 2174 09bf 53020000 		.4byte	0x253
 2175 09c3 05       		.uleb128 0x5
 2176 09c4 58040000 		.4byte	.LASF141
 2177 09c8 0C       		.byte	0xc
 2178 09c9 12       		.byte	0x12
 2179 09ca 34       		.byte	0x34
 2180 09cb E8090000 		.4byte	0x9e8
 2181 09cf 06       		.uleb128 0x6
 2182 09d0 4C080000 		.4byte	.LASF32
 2183 09d4 12       		.byte	0x12
 2184 09d5 35       		.byte	0x35
 2185 09d6 88020000 		.4byte	0x288
 2186 09da 00       		.byte	0
 2187 09db 07       		.uleb128 0x7
 2188 09dc 636E7400 		.ascii	"cnt\000"
 2189 09e0 12       		.byte	0x12
 2190 09e1 37       		.byte	0x37
 2191 09e2 47010000 		.4byte	0x147
 2192 09e6 08       		.byte	0x8
 2193 09e7 00       		.byte	0
 2194 09e8 0A       		.uleb128 0xa
 2195 09e9 04       		.byte	0x4
 2196 09ea C3090000 		.4byte	0x9c3
 2197 09ee 05       		.uleb128 0x5
 2198 09ef 50090000 		.4byte	.LASF142
 2199 09f3 10       		.byte	0x10
 2200 09f4 13       		.byte	0x13
 2201 09f5 39       		.byte	0x39
 2202 09f6 1F0A0000 		.4byte	0xa1f
 2203 09fa 06       		.uleb128 0x6
 2204 09fb 4C080000 		.4byte	.LASF32
 2205 09ff 13       		.byte	0x13
 2206 0a00 3A       		.byte	0x3a
 2207 0a01 88020000 		.4byte	0x288
 2208 0a05 00       		.byte	0
 2209 0a06 06       		.uleb128 0x6
 2210 0a07 44000000 		.4byte	.LASF143
 2211 0a0b 13       		.byte	0x13
 2212 0a0c 3C       		.byte	0x3c
 2213 0a0d 5E020000 		.4byte	0x25e
ARM GAS  /tmp/cc0MdUPR.s 			page 40


 2214 0a11 08       		.byte	0x8
 2215 0a12 06       		.uleb128 0x6
 2216 0a13 8F0A0000 		.4byte	.LASF52
 2217 0a17 13       		.byte	0x13
 2218 0a18 3E       		.byte	0x3e
 2219 0a19 530A0000 		.4byte	0xa53
 2220 0a1d 0C       		.byte	0xc
 2221 0a1e 00       		.byte	0
 2222 0a1f 0A       		.uleb128 0xa
 2223 0a20 04       		.byte	0x4
 2224 0a21 EE090000 		.4byte	0x9ee
 2225 0a25 0A       		.uleb128 0xa
 2226 0a26 04       		.byte	0x4
 2227 0a27 2B0A0000 		.4byte	0xa2b
 2228 0a2b 18       		.uleb128 0x18
 2229 0a2c 300A0000 		.4byte	0xa30
 2230 0a30 04       		.uleb128 0x4
 2231 0a31 01       		.byte	0x1
 2232 0a32 08       		.byte	0x8
 2233 0a33 13030000 		.4byte	.LASF144
 2234 0a37 0A       		.uleb128 0xa
 2235 0a38 04       		.byte	0x4
 2236 0a39 34070000 		.4byte	0x734
 2237 0a3d 0A       		.uleb128 0xa
 2238 0a3e 04       		.byte	0x4
 2239 0a3f 3D030000 		.4byte	0x33d
 2240 0a43 0F       		.uleb128 0xf
 2241 0a44 250A0000 		.4byte	0xa25
 2242 0a48 03       		.uleb128 0x3
 2243 0a49 EC090000 		.4byte	.LASF145
 2244 0a4d 13       		.byte	0x13
 2245 0a4e 34       		.byte	0x34
 2246 0a4f EE090000 		.4byte	0x9ee
 2247 0a53 0A       		.uleb128 0xa
 2248 0a54 04       		.byte	0x4
 2249 0a55 480A0000 		.4byte	0xa48
 2250 0a59 04       		.uleb128 0x4
 2251 0a5a 01       		.byte	0x1
 2252 0a5b 02       		.byte	0x2
 2253 0a5c F9020000 		.4byte	.LASF146
 2254 0a60 13       		.uleb128 0x13
 2255 0a61 25060000 		.4byte	.LASF147
 2256 0a65 14       		.byte	0x14
 2257 0a66 9D01     		.2byte	0x19d
 2258 0a68 6C0A0000 		.4byte	0xa6c
 2259 0a6c 0A       		.uleb128 0xa
 2260 0a6d 04       		.byte	0x4
 2261 0a6e 720A0000 		.4byte	0xa72
 2262 0a72 0C       		.uleb128 0xc
 2263 0a73 820A0000 		.4byte	0xa82
 2264 0a77 0D       		.uleb128 0xd
 2265 0a78 3B030000 		.4byte	0x33b
 2266 0a7c 0D       		.uleb128 0xd
 2267 0a7d CE000000 		.4byte	0xce
 2268 0a81 00       		.byte	0
 2269 0a82 12       		.uleb128 0x12
 2270 0a83 0C       		.byte	0xc
ARM GAS  /tmp/cc0MdUPR.s 			page 41


 2271 0a84 14       		.byte	0x14
 2272 0a85 A201     		.2byte	0x1a2
 2273 0a87 DA0A0000 		.4byte	0xada
 2274 0a8b 09       		.uleb128 0x9
 2275 0a8c 26010000 		.4byte	.LASF148
 2276 0a90 14       		.byte	0x14
 2277 0a91 A301     		.2byte	0x1a3
 2278 0a93 DA0A0000 		.4byte	0xada
 2279 0a97 00       		.byte	0
 2280 0a98 09       		.uleb128 0x9
 2281 0a99 840A0000 		.4byte	.LASF149
 2282 0a9d 14       		.byte	0x14
 2283 0a9e A401     		.2byte	0x1a4
 2284 0aa0 E00A0000 		.4byte	0xae0
 2285 0aa4 04       		.byte	0x4
 2286 0aa5 09       		.uleb128 0x9
 2287 0aa6 D4080000 		.4byte	.LASF150
 2288 0aaa 14       		.byte	0x14
 2289 0aab A801     		.2byte	0x1a8
 2290 0aad AD000000 		.4byte	0xad
 2291 0ab1 08       		.byte	0x8
 2292 0ab2 09       		.uleb128 0x9
 2293 0ab3 B5010000 		.4byte	.LASF151
 2294 0ab7 14       		.byte	0x14
 2295 0ab8 AA01     		.2byte	0x1aa
 2296 0aba AD000000 		.4byte	0xad
 2297 0abe 09       		.byte	0x9
 2298 0abf 09       		.uleb128 0x9
 2299 0ac0 06070000 		.4byte	.LASF152
 2300 0ac4 14       		.byte	0x14
 2301 0ac5 AC01     		.2byte	0x1ac
 2302 0ac7 AD000000 		.4byte	0xad
 2303 0acb 0A       		.byte	0xa
 2304 0acc 09       		.uleb128 0x9
 2305 0acd 62080000 		.4byte	.LASF153
 2306 0ad1 14       		.byte	0x14
 2307 0ad2 AD01     		.2byte	0x1ad
 2308 0ad4 AD000000 		.4byte	0xad
 2309 0ad8 0B       		.byte	0xb
 2310 0ad9 00       		.byte	0
 2311 0ada 0A       		.uleb128 0xa
 2312 0adb 04       		.byte	0x4
 2313 0adc F9040000 		.4byte	0x4f9
 2314 0ae0 0A       		.uleb128 0xa
 2315 0ae1 04       		.byte	0x4
 2316 0ae2 8D040000 		.4byte	0x48d
 2317 0ae6 13       		.uleb128 0x13
 2318 0ae7 05000000 		.4byte	.LASF154
 2319 0aeb 14       		.byte	0x14
 2320 0aec AE01     		.2byte	0x1ae
 2321 0aee 820A0000 		.4byte	0xa82
 2322 0af2 14       		.uleb128 0x14
 2323 0af3 04       		.byte	0x4
 2324 0af4 15       		.byte	0x15
 2325 0af5 5B       		.byte	0x5b
 2326 0af6 130B0000 		.4byte	0xb13
 2327 0afa 07       		.uleb128 0x7
ARM GAS  /tmp/cc0MdUPR.s 			page 42


 2328 0afb 73657400 		.ascii	"set\000"
 2329 0aff 15       		.byte	0x15
 2330 0b00 5C       		.byte	0x5c
 2331 0b01 B8000000 		.4byte	0xb8
 2332 0b05 00       		.byte	0
 2333 0b06 06       		.uleb128 0x6
 2334 0b07 10040000 		.4byte	.LASF155
 2335 0b0b 15       		.byte	0x15
 2336 0b0c 5D       		.byte	0x5d
 2337 0b0d B8000000 		.4byte	0xb8
 2338 0b11 02       		.byte	0x2
 2339 0b12 00       		.byte	0
 2340 0b13 15       		.uleb128 0x15
 2341 0b14 04       		.byte	0x4
 2342 0b15 15       		.byte	0x15
 2343 0b16 59       		.byte	0x59
 2344 0b17 2E0B0000 		.4byte	0xb2e
 2345 0b1b 19       		.uleb128 0x19
 2346 0b1c 5700     		.ascii	"W\000"
 2347 0b1e 15       		.byte	0x15
 2348 0b1f 5A       		.byte	0x5a
 2349 0b20 CE000000 		.4byte	0xce
 2350 0b24 19       		.uleb128 0x19
 2351 0b25 4800     		.ascii	"H\000"
 2352 0b27 15       		.byte	0x15
 2353 0b28 5E       		.byte	0x5e
 2354 0b29 F20A0000 		.4byte	0xaf2
 2355 0b2d 00       		.byte	0
 2356 0b2e 14       		.uleb128 0x14
 2357 0b2f 28       		.byte	0x28
 2358 0b30 15       		.byte	0x15
 2359 0b31 51       		.byte	0x51
 2360 0b32 AF0B0000 		.4byte	0xbaf
 2361 0b36 06       		.uleb128 0x6
 2362 0b37 D2050000 		.4byte	.LASF156
 2363 0b3b 15       		.byte	0x15
 2364 0b3c 53       		.byte	0x53
 2365 0b3d 8D040000 		.4byte	0x48d
 2366 0b41 00       		.byte	0
 2367 0b42 06       		.uleb128 0x6
 2368 0b43 A6080000 		.4byte	.LASF157
 2369 0b47 15       		.byte	0x15
 2370 0b48 54       		.byte	0x54
 2371 0b49 8D040000 		.4byte	0x48d
 2372 0b4d 04       		.byte	0x4
 2373 0b4e 06       		.uleb128 0x6
 2374 0b4f E7040000 		.4byte	.LASF158
 2375 0b53 15       		.byte	0x15
 2376 0b54 55       		.byte	0x55
 2377 0b55 8D040000 		.4byte	0x48d
 2378 0b59 08       		.byte	0x8
 2379 0b5a 06       		.uleb128 0x6
 2380 0b5b 3C050000 		.4byte	.LASF159
 2381 0b5f 15       		.byte	0x15
 2382 0b60 56       		.byte	0x56
 2383 0b61 8D040000 		.4byte	0x48d
 2384 0b65 0C       		.byte	0xc
ARM GAS  /tmp/cc0MdUPR.s 			page 43


 2385 0b66 07       		.uleb128 0x7
 2386 0b67 49445200 		.ascii	"IDR\000"
 2387 0b6b 15       		.byte	0x15
 2388 0b6c 57       		.byte	0x57
 2389 0b6d 8D040000 		.4byte	0x48d
 2390 0b71 10       		.byte	0x10
 2391 0b72 07       		.uleb128 0x7
 2392 0b73 4F445200 		.ascii	"ODR\000"
 2393 0b77 15       		.byte	0x15
 2394 0b78 58       		.byte	0x58
 2395 0b79 8D040000 		.4byte	0x48d
 2396 0b7d 14       		.byte	0x14
 2397 0b7e 06       		.uleb128 0x6
 2398 0b7f B0090000 		.4byte	.LASF160
 2399 0b83 15       		.byte	0x15
 2400 0b84 5F       		.byte	0x5f
 2401 0b85 AF0B0000 		.4byte	0xbaf
 2402 0b89 18       		.byte	0x18
 2403 0b8a 06       		.uleb128 0x6
 2404 0b8b 1F080000 		.4byte	.LASF161
 2405 0b8f 15       		.byte	0x15
 2406 0b90 60       		.byte	0x60
 2407 0b91 8D040000 		.4byte	0x48d
 2408 0b95 1C       		.byte	0x1c
 2409 0b96 06       		.uleb128 0x6
 2410 0b97 EB050000 		.4byte	.LASF162
 2411 0b9b 15       		.byte	0x15
 2412 0b9c 61       		.byte	0x61
 2413 0b9d 8D040000 		.4byte	0x48d
 2414 0ba1 20       		.byte	0x20
 2415 0ba2 06       		.uleb128 0x6
 2416 0ba3 42080000 		.4byte	.LASF163
 2417 0ba7 15       		.byte	0x15
 2418 0ba8 62       		.byte	0x62
 2419 0ba9 8D040000 		.4byte	0x48d
 2420 0bad 24       		.byte	0x24
 2421 0bae 00       		.byte	0
 2422 0baf 0F       		.uleb128 0xf
 2423 0bb0 130B0000 		.4byte	0xb13
 2424 0bb4 03       		.uleb128 0x3
 2425 0bb5 B8020000 		.4byte	.LASF164
 2426 0bb9 15       		.byte	0x15
 2427 0bba 63       		.byte	0x63
 2428 0bbb 2E0B0000 		.4byte	0xb2e
 2429 0bbf 03       		.uleb128 0x3
 2430 0bc0 88010000 		.4byte	.LASF165
 2431 0bc4 16       		.byte	0x16
 2432 0bc5 D9       		.byte	0xd9
 2433 0bc6 CA0B0000 		.4byte	0xbca
 2434 0bca 0A       		.uleb128 0xa
 2435 0bcb 04       		.byte	0x4
 2436 0bcc B40B0000 		.4byte	0xbb4
 2437 0bd0 0A       		.uleb128 0xa
 2438 0bd1 04       		.byte	0x4
 2439 0bd2 D60B0000 		.4byte	0xbd6
 2440 0bd6 18       		.uleb128 0x18
 2441 0bd7 E60A0000 		.4byte	0xae6
ARM GAS  /tmp/cc0MdUPR.s 			page 44


 2442 0bdb 1A       		.uleb128 0x1a
 2443 0bdc 01       		.byte	0x1
 2444 0bdd 17       		.byte	0x17
 2445 0bde 74       		.byte	0x74
 2446 0bdf 020C0000 		.4byte	0xc02
 2447 0be3 1B       		.uleb128 0x1b
 2448 0be4 51010000 		.4byte	.LASF166
 2449 0be8 00       		.sleb128 0
 2450 0be9 1B       		.uleb128 0x1b
 2451 0bea 3F010000 		.4byte	.LASF167
 2452 0bee 01       		.sleb128 1
 2453 0bef 1B       		.uleb128 0x1b
 2454 0bf0 16050000 		.4byte	.LASF168
 2455 0bf4 02       		.sleb128 2
 2456 0bf5 1B       		.uleb128 0x1b
 2457 0bf6 12060000 		.4byte	.LASF169
 2458 0bfa 03       		.sleb128 3
 2459 0bfb 1B       		.uleb128 0x1b
 2460 0bfc 370A0000 		.4byte	.LASF170
 2461 0c00 04       		.sleb128 4
 2462 0c01 00       		.byte	0
 2463 0c02 03       		.uleb128 0x3
 2464 0c03 6A0A0000 		.4byte	.LASF171
 2465 0c07 17       		.byte	0x17
 2466 0c08 7A       		.byte	0x7a
 2467 0c09 DB0B0000 		.4byte	0xbdb
 2468 0c0d 03       		.uleb128 0x3
 2469 0c0e 21030000 		.4byte	.LASF172
 2470 0c12 17       		.byte	0x17
 2471 0c13 7F       		.byte	0x7f
 2472 0c14 180C0000 		.4byte	0xc18
 2473 0c18 05       		.uleb128 0x5
 2474 0c19 97000000 		.4byte	.LASF173
 2475 0c1d 30       		.byte	0x30
 2476 0c1e 17       		.byte	0x17
 2477 0c1f C0       		.byte	0xc0
 2478 0c20 910C0000 		.4byte	0xc91
 2479 0c24 06       		.uleb128 0x6
 2480 0c25 B5000000 		.4byte	.LASF38
 2481 0c29 17       		.byte	0x17
 2482 0c2a C4       		.byte	0xc4
 2483 0c2b 020C0000 		.4byte	0xc02
 2484 0c2f 00       		.byte	0
 2485 0c30 06       		.uleb128 0x6
 2486 0c31 AE000000 		.4byte	.LASF174
 2487 0c35 17       		.byte	0x17
 2488 0c36 C8       		.byte	0xc8
 2489 0c37 130D0000 		.4byte	0xd13
 2490 0c3b 04       		.byte	0x4
 2491 0c3c 06       		.uleb128 0x6
 2492 0c3d 04090000 		.4byte	.LASF175
 2493 0c41 17       		.byte	0x17
 2494 0c42 CD       		.byte	0xcd
 2495 0c43 53020000 		.4byte	0x253
 2496 0c47 08       		.byte	0x8
 2497 0c48 06       		.uleb128 0x6
 2498 0c49 79050000 		.4byte	.LASF176
ARM GAS  /tmp/cc0MdUPR.s 			page 45


 2499 0c4d 17       		.byte	0x17
 2500 0c4e D3       		.byte	0xd3
 2501 0c4f 480A0000 		.4byte	0xa48
 2502 0c53 0C       		.byte	0xc
 2503 0c54 07       		.uleb128 0x7
 2504 0c55 73706900 		.ascii	"spi\000"
 2505 0c59 17       		.byte	0x17
 2506 0c5a D9       		.byte	0xd9
 2507 0c5b 1E0D0000 		.4byte	0xd1e
 2508 0c5f 1C       		.byte	0x1c
 2509 0c60 06       		.uleb128 0x6
 2510 0c61 FD040000 		.4byte	.LASF177
 2511 0c65 17       		.byte	0x17
 2512 0c66 D9       		.byte	0xd9
 2513 0c67 D00B0000 		.4byte	0xbd0
 2514 0c6b 20       		.byte	0x20
 2515 0c6c 06       		.uleb128 0x6
 2516 0c6d CC050000 		.4byte	.LASF178
 2517 0c71 17       		.byte	0x17
 2518 0c72 D9       		.byte	0xd9
 2519 0c73 D00B0000 		.4byte	0xbd0
 2520 0c77 24       		.byte	0x24
 2521 0c78 06       		.uleb128 0x6
 2522 0c79 A3050000 		.4byte	.LASF179
 2523 0c7d 17       		.byte	0x17
 2524 0c7e D9       		.byte	0xd9
 2525 0c7f CE000000 		.4byte	0xce
 2526 0c83 28       		.byte	0x28
 2527 0c84 06       		.uleb128 0x6
 2528 0c85 990A0000 		.4byte	.LASF180
 2529 0c89 17       		.byte	0x17
 2530 0c8a D9       		.byte	0xd9
 2531 0c8b CE000000 		.4byte	0xce
 2532 0c8f 2C       		.byte	0x2c
 2533 0c90 00       		.byte	0
 2534 0c91 03       		.uleb128 0x3
 2535 0c92 08060000 		.4byte	.LASF181
 2536 0c96 17       		.byte	0x17
 2537 0c97 83       		.byte	0x83
 2538 0c98 9C0C0000 		.4byte	0xc9c
 2539 0c9c 05       		.uleb128 0x5
 2540 0c9d 5B050000 		.4byte	.LASF182
 2541 0ca1 14       		.byte	0x14
 2542 0ca2 17       		.byte	0x17
 2543 0ca3 94       		.byte	0x94
 2544 0ca4 F10C0000 		.4byte	0xcf1
 2545 0ca8 06       		.uleb128 0x6
 2546 0ca9 7A030000 		.4byte	.LASF183
 2547 0cad 17       		.byte	0x17
 2548 0cae 99       		.byte	0x99
 2549 0caf 590A0000 		.4byte	0xa59
 2550 0cb3 00       		.byte	0
 2551 0cb4 06       		.uleb128 0x6
 2552 0cb5 04010000 		.4byte	.LASF184
 2553 0cb9 17       		.byte	0x17
 2554 0cba 9E       		.byte	0x9e
 2555 0cbb F10C0000 		.4byte	0xcf1
ARM GAS  /tmp/cc0MdUPR.s 			page 46


 2556 0cbf 04       		.byte	0x4
 2557 0cc0 06       		.uleb128 0x6
 2558 0cc1 87000000 		.4byte	.LASF185
 2559 0cc5 17       		.byte	0x17
 2560 0cc6 B3       		.byte	0xb3
 2561 0cc7 BF0B0000 		.4byte	0xbbf
 2562 0ccb 08       		.byte	0x8
 2563 0ccc 06       		.uleb128 0x6
 2564 0ccd 890A0000 		.4byte	.LASF186
 2565 0cd1 17       		.byte	0x17
 2566 0cd2 B7       		.byte	0xb7
 2567 0cd3 E4000000 		.4byte	0xe4
 2568 0cd7 0C       		.byte	0xc
 2569 0cd8 07       		.uleb128 0x7
 2570 0cd9 63723100 		.ascii	"cr1\000"
 2571 0cdd 17       		.byte	0x17
 2572 0cde BA       		.byte	0xba
 2573 0cdf B8000000 		.4byte	0xb8
 2574 0ce3 10       		.byte	0x10
 2575 0ce4 07       		.uleb128 0x7
 2576 0ce5 63723200 		.ascii	"cr2\000"
 2577 0ce9 17       		.byte	0x17
 2578 0cea BA       		.byte	0xba
 2579 0ceb B8000000 		.4byte	0xb8
 2580 0cef 12       		.byte	0x12
 2581 0cf0 00       		.byte	0
 2582 0cf1 03       		.uleb128 0x3
 2583 0cf2 C5020000 		.4byte	.LASF187
 2584 0cf6 17       		.byte	0x17
 2585 0cf7 8B       		.byte	0x8b
 2586 0cf8 FC0C0000 		.4byte	0xcfc
 2587 0cfc 0A       		.uleb128 0xa
 2588 0cfd 04       		.byte	0x4
 2589 0cfe 020D0000 		.4byte	0xd02
 2590 0d02 0C       		.uleb128 0xc
 2591 0d03 0D0D0000 		.4byte	0xd0d
 2592 0d07 0D       		.uleb128 0xd
 2593 0d08 0D0D0000 		.4byte	0xd0d
 2594 0d0c 00       		.byte	0
 2595 0d0d 0A       		.uleb128 0xa
 2596 0d0e 04       		.byte	0x4
 2597 0d0f 0D0C0000 		.4byte	0xc0d
 2598 0d13 0A       		.uleb128 0xa
 2599 0d14 04       		.byte	0x4
 2600 0d15 190D0000 		.4byte	0xd19
 2601 0d19 18       		.uleb128 0x18
 2602 0d1a 910C0000 		.4byte	0xc91
 2603 0d1e 0A       		.uleb128 0xa
 2604 0d1f 04       		.byte	0x4
 2605 0d20 1D070000 		.4byte	0x71d
 2606 0d24 1C       		.uleb128 0x1c
 2607 0d25 8C080000 		.4byte	.LASF190
 2608 0d29 03       		.byte	0x3
 2609 0d2a EB01     		.2byte	0x1eb
 2610 0d2c 03       		.byte	0x3
 2611 0d2d 3E0D0000 		.4byte	0xd3e
 2612 0d31 1D       		.uleb128 0x1d
ARM GAS  /tmp/cc0MdUPR.s 			page 47


 2613 0d32 C9040000 		.4byte	.LASF192
 2614 0d36 03       		.byte	0x3
 2615 0d37 EB01     		.2byte	0x1eb
 2616 0d39 CE000000 		.4byte	0xce
 2617 0d3d 00       		.byte	0
 2618 0d3e 1E       		.uleb128 0x1e
 2619 0d3f 15090000 		.4byte	.LASF188
 2620 0d43 0F       		.byte	0xf
 2621 0d44 5A02     		.2byte	0x25a
 2622 0d46 03       		.byte	0x3
 2623 0d47 1E       		.uleb128 0x1e
 2624 0d48 5C010000 		.4byte	.LASF189
 2625 0d4c 0F       		.byte	0xf
 2626 0d4d 7202     		.2byte	0x272
 2627 0d4f 03       		.byte	0x3
 2628 0d50 1C       		.uleb128 0x1c
 2629 0d51 B6060000 		.4byte	.LASF191
 2630 0d55 02       		.byte	0x2
 2631 0d56 DE01     		.2byte	0x1de
 2632 0d58 03       		.byte	0x3
 2633 0d59 6A0D0000 		.4byte	0xd6a
 2634 0d5d 1D       		.uleb128 0x1d
 2635 0d5e 5B080000 		.4byte	.LASF193
 2636 0d62 02       		.byte	0x2
 2637 0d63 DE01     		.2byte	0x1de
 2638 0d65 250A0000 		.4byte	0xa25
 2639 0d69 00       		.byte	0
 2640 0d6a 1E       		.uleb128 0x1e
 2641 0d6b 42050000 		.4byte	.LASF194
 2642 0d6f 0F       		.byte	0xf
 2643 0d70 8102     		.2byte	0x281
 2644 0d72 03       		.byte	0x3
 2645 0d73 1E       		.uleb128 0x1e
 2646 0d74 C2060000 		.4byte	.LASF195
 2647 0d78 0F       		.byte	0xf
 2648 0d79 8C02     		.2byte	0x28c
 2649 0d7b 03       		.byte	0x3
 2650 0d7c 1E       		.uleb128 0x1e
 2651 0d7d CD000000 		.4byte	.LASF196
 2652 0d81 02       		.byte	0x2
 2653 0d82 1302     		.2byte	0x213
 2654 0d84 03       		.byte	0x3
 2655 0d85 1C       		.uleb128 0x1c
 2656 0d86 F2000000 		.4byte	.LASF197
 2657 0d8a 02       		.byte	0x2
 2658 0d8b 0503     		.2byte	0x305
 2659 0d8d 03       		.byte	0x3
 2660 0d8e AB0D0000 		.4byte	0xdab
 2661 0d92 1F       		.uleb128 0x1f
 2662 0d93 74727000 		.ascii	"trp\000"
 2663 0d97 02       		.byte	0x2
 2664 0d98 0503     		.2byte	0x305
 2665 0d9a BD090000 		.4byte	0x9bd
 2666 0d9e 1F       		.uleb128 0x1f
 2667 0d9f 6D736700 		.ascii	"msg\000"
 2668 0da3 02       		.byte	0x2
 2669 0da4 0503     		.2byte	0x305
ARM GAS  /tmp/cc0MdUPR.s 			page 48


 2670 0da6 31010000 		.4byte	0x131
 2671 0daa 00       		.byte	0
 2672 0dab 1E       		.uleb128 0x1e
 2673 0dac 1B040000 		.4byte	.LASF198
 2674 0db0 02       		.byte	0x2
 2675 0db1 1E02     		.2byte	0x21e
 2676 0db3 03       		.byte	0x3
 2677 0db4 20       		.uleb128 0x20
 2678 0db5 54030000 		.4byte	.LASF202
 2679 0db9 01       		.byte	0x1
 2680 0dba AA       		.byte	0xaa
 2681 0dbb 00000000 		.4byte	.LFB324
 2682 0dbf 14000000 		.4byte	.LFE324-.LFB324
 2683 0dc3 01       		.uleb128 0x1
 2684 0dc4 9C       		.byte	0x9c
 2685 0dc5 140E0000 		.4byte	0xe14
 2686 0dc9 21       		.uleb128 0x21
 2687 0dca C7050000 		.4byte	.LASF199
 2688 0dce 01       		.byte	0x1
 2689 0dcf AA       		.byte	0xaa
 2690 0dd0 0D0D0000 		.4byte	0xd0d
 2691 0dd4 00000000 		.4byte	.LLST0
 2692 0dd8 21       		.uleb128 0x21
 2693 0dd9 4E030000 		.4byte	.LASF39
 2694 0ddd 01       		.byte	0x1
 2695 0dde AA       		.byte	0xaa
 2696 0ddf CE000000 		.4byte	0xce
 2697 0de3 2C000000 		.4byte	.LLST1
 2698 0de7 22       		.uleb128 0x22
 2699 0de8 500D0000 		.4byte	0xd50
 2700 0dec 06000000 		.4byte	.LBB34
 2701 0df0 0E000000 		.4byte	.LBE34-.LBB34
 2702 0df4 01       		.byte	0x1
 2703 0df5 B0       		.byte	0xb0
 2704 0df6 23       		.uleb128 0x23
 2705 0df7 5D0D0000 		.4byte	0xd5d
 2706 0dfb 58000000 		.4byte	.LLST2
 2707 0dff 24       		.uleb128 0x24
 2708 0e00 0C000000 		.4byte	.LVL3
 2709 0e04 65130000 		.4byte	0x1365
 2710 0e08 25       		.uleb128 0x25
 2711 0e09 01       		.uleb128 0x1
 2712 0e0a 50       		.byte	0x50
 2713 0e0b 05       		.uleb128 0x5
 2714 0e0c 03       		.byte	0x3
 2715 0e0d 00000000 		.4byte	.LC0
 2716 0e11 00       		.byte	0
 2717 0e12 00       		.byte	0
 2718 0e13 00       		.byte	0
 2719 0e14 1E       		.uleb128 0x1e
 2720 0e15 77010000 		.4byte	.LASF200
 2721 0e19 04       		.byte	0x4
 2722 0e1a 8901     		.2byte	0x189
 2723 0e1c 03       		.byte	0x3
 2724 0e1d 1E       		.uleb128 0x1e
 2725 0e1e 5C020000 		.4byte	.LASF201
 2726 0e22 04       		.byte	0x4
ARM GAS  /tmp/cc0MdUPR.s 			page 49


 2727 0e23 9D01     		.2byte	0x19d
 2728 0e25 03       		.byte	0x3
 2729 0e26 20       		.uleb128 0x20
 2730 0e27 CA010000 		.4byte	.LASF203
 2731 0e2b 01       		.byte	0x1
 2732 0e2c 84       		.byte	0x84
 2733 0e2d 00000000 		.4byte	.LFB323
 2734 0e31 B8000000 		.4byte	.LFE323-.LFB323
 2735 0e35 01       		.uleb128 0x1
 2736 0e36 9C       		.byte	0x9c
 2737 0e37 CD0F0000 		.4byte	0xfcd
 2738 0e3b 21       		.uleb128 0x21
 2739 0e3c C7050000 		.4byte	.LASF199
 2740 0e40 01       		.byte	0x1
 2741 0e41 84       		.byte	0x84
 2742 0e42 0D0D0000 		.4byte	0xd0d
 2743 0e46 70000000 		.4byte	.LLST3
 2744 0e4a 21       		.uleb128 0x21
 2745 0e4b 4E030000 		.4byte	.LASF39
 2746 0e4f 01       		.byte	0x1
 2747 0e50 84       		.byte	0x84
 2748 0e51 CE000000 		.4byte	0xce
 2749 0e55 9C000000 		.4byte	.LLST4
 2750 0e59 26       		.uleb128 0x26
 2751 0e5a 500D0000 		.4byte	0xd50
 2752 0e5e 0C000000 		.4byte	.LBB56
 2753 0e62 06000000 		.4byte	.LBE56-.LBB56
 2754 0e66 01       		.byte	0x1
 2755 0e67 89       		.byte	0x89
 2756 0e68 890E0000 		.4byte	0xe89
 2757 0e6c 23       		.uleb128 0x23
 2758 0e6d 5D0D0000 		.4byte	0xd5d
 2759 0e71 C8000000 		.4byte	.LLST5
 2760 0e75 27       		.uleb128 0x27
 2761 0e76 12000000 		.4byte	.LVL7
 2762 0e7a 65130000 		.4byte	0x1365
 2763 0e7e 25       		.uleb128 0x25
 2764 0e7f 01       		.uleb128 0x1
 2765 0e80 50       		.byte	0x50
 2766 0e81 05       		.uleb128 0x5
 2767 0e82 03       		.byte	0x3
 2768 0e83 00000000 		.4byte	.LC0
 2769 0e87 00       		.byte	0
 2770 0e88 00       		.byte	0
 2771 0e89 26       		.uleb128 0x26
 2772 0e8a 7C0D0000 		.4byte	0xd7c
 2773 0e8e 92000000 		.4byte	.LBB58
 2774 0e92 0A000000 		.4byte	.LBE58-.LBB58
 2775 0e96 01       		.byte	0x1
 2776 0e97 A0       		.byte	0xa0
 2777 0e98 F70E0000 		.4byte	0xef7
 2778 0e9c 28       		.uleb128 0x28
 2779 0e9d 140E0000 		.4byte	0xe14
 2780 0ea1 92000000 		.4byte	.LBB59
 2781 0ea5 0A000000 		.4byte	.LBE59-.LBB59
 2782 0ea9 02       		.byte	0x2
 2783 0eaa 1502     		.2byte	0x215
ARM GAS  /tmp/cc0MdUPR.s 			page 50


 2784 0eac 29       		.uleb128 0x29
 2785 0ead 6A0D0000 		.4byte	0xd6a
 2786 0eb1 92000000 		.4byte	.LBB61
 2787 0eb5 06000000 		.4byte	.LBE61-.LBB61
 2788 0eb9 04       		.byte	0x4
 2789 0eba 8B01     		.2byte	0x18b
 2790 0ebc EC0E0000 		.4byte	0xeec
 2791 0ec0 28       		.uleb128 0x28
 2792 0ec1 3E0D0000 		.4byte	0xd3e
 2793 0ec5 92000000 		.4byte	.LBB62
 2794 0ec9 06000000 		.4byte	.LBE62-.LBB62
 2795 0ecd 0F       		.byte	0xf
 2796 0ece 8302     		.2byte	0x283
 2797 0ed0 28       		.uleb128 0x28
 2798 0ed1 240D0000 		.4byte	0xd24
 2799 0ed5 92000000 		.4byte	.LBB63
 2800 0ed9 06000000 		.4byte	.LBE63-.LBB63
 2801 0edd 0F       		.byte	0xf
 2802 0ede 6202     		.2byte	0x262
 2803 0ee0 23       		.uleb128 0x23
 2804 0ee1 310D0000 		.4byte	0xd31
 2805 0ee5 E0000000 		.4byte	.LLST6
 2806 0ee9 00       		.byte	0
 2807 0eea 00       		.byte	0
 2808 0eeb 00       		.byte	0
 2809 0eec 2A       		.uleb128 0x2a
 2810 0eed 9C000000 		.4byte	.LVL14
 2811 0ef1 76130000 		.4byte	0x1376
 2812 0ef5 00       		.byte	0
 2813 0ef6 00       		.byte	0
 2814 0ef7 26       		.uleb128 0x26
 2815 0ef8 850D0000 		.4byte	0xd85
 2816 0efc 9C000000 		.4byte	.LBB65
 2817 0f00 0A000000 		.4byte	.LBE65-.LBB65
 2818 0f04 01       		.byte	0x1
 2819 0f05 A0       		.byte	0xa0
 2820 0f06 320F0000 		.4byte	0xf32
 2821 0f0a 23       		.uleb128 0x23
 2822 0f0b 9E0D0000 		.4byte	0xd9e
 2823 0f0f F5000000 		.4byte	.LLST7
 2824 0f13 23       		.uleb128 0x23
 2825 0f14 920D0000 		.4byte	0xd92
 2826 0f18 09010000 		.4byte	.LLST8
 2827 0f1c 27       		.uleb128 0x27
 2828 0f1d A6000000 		.4byte	.LVL16
 2829 0f21 7D130000 		.4byte	0x137d
 2830 0f25 25       		.uleb128 0x25
 2831 0f26 01       		.uleb128 0x1
 2832 0f27 51       		.byte	0x51
 2833 0f28 01       		.uleb128 0x1
 2834 0f29 30       		.byte	0x30
 2835 0f2a 25       		.uleb128 0x25
 2836 0f2b 01       		.uleb128 0x1
 2837 0f2c 50       		.byte	0x50
 2838 0f2d 02       		.uleb128 0x2
 2839 0f2e 74       		.byte	0x74
 2840 0f2f 08       		.sleb128 8
ARM GAS  /tmp/cc0MdUPR.s 			page 51


 2841 0f30 00       		.byte	0
 2842 0f31 00       		.byte	0
 2843 0f32 26       		.uleb128 0x26
 2844 0f33 AB0D0000 		.4byte	0xdab
 2845 0f37 A6000000 		.4byte	.LBB67
 2846 0f3b 12000000 		.4byte	.LBE67-.LBB67
 2847 0f3f 01       		.byte	0x1
 2848 0f40 A0       		.byte	0xa0
 2849 0f41 A00F0000 		.4byte	0xfa0
 2850 0f45 28       		.uleb128 0x28
 2851 0f46 1D0E0000 		.4byte	0xe1d
 2852 0f4a A6000000 		.4byte	.LBB68
 2853 0f4e 12000000 		.4byte	.LBE68-.LBB68
 2854 0f52 02       		.byte	0x2
 2855 0f53 2002     		.2byte	0x220
 2856 0f55 29       		.uleb128 0x29
 2857 0f56 730D0000 		.4byte	0xd73
 2858 0f5a AA000000 		.4byte	.LBB70
 2859 0f5e 0E000000 		.4byte	.LBE70-.LBB70
 2860 0f62 04       		.byte	0x4
 2861 0f63 A101     		.2byte	0x1a1
 2862 0f65 950F0000 		.4byte	0xf95
 2863 0f69 28       		.uleb128 0x28
 2864 0f6a 470D0000 		.4byte	0xd47
 2865 0f6e AA000000 		.4byte	.LBB71
 2866 0f72 0E000000 		.4byte	.LBE71-.LBB71
 2867 0f76 0F       		.byte	0xf
 2868 0f77 8E02     		.2byte	0x28e
 2869 0f79 28       		.uleb128 0x28
 2870 0f7a 240D0000 		.4byte	0xd24
 2871 0f7e AA000000 		.4byte	.LBB72
 2872 0f82 0E000000 		.4byte	.LBE72-.LBB72
 2873 0f86 0F       		.byte	0xf
 2874 0f87 7502     		.2byte	0x275
 2875 0f89 23       		.uleb128 0x23
 2876 0f8a 310D0000 		.4byte	0xd31
 2877 0f8e 36010000 		.4byte	.LLST9
 2878 0f92 00       		.byte	0
 2879 0f93 00       		.byte	0
 2880 0f94 00       		.byte	0
 2881 0f95 2A       		.uleb128 0x2a
 2882 0f96 AA000000 		.4byte	.LVL17
 2883 0f9a 93130000 		.4byte	0x1393
 2884 0f9e 00       		.byte	0
 2885 0f9f 00       		.byte	0
 2886 0fa0 2B       		.uleb128 0x2b
 2887 0fa1 24000000 		.4byte	.LVL8
 2888 0fa5 B00F0000 		.4byte	0xfb0
 2889 0fa9 25       		.uleb128 0x25
 2890 0faa 01       		.uleb128 0x1
 2891 0fab 50       		.byte	0x50
 2892 0fac 02       		.uleb128 0x2
 2893 0fad 74       		.byte	0x74
 2894 0fae 00       		.sleb128 0
 2895 0faf 00       		.byte	0
 2896 0fb0 2B       		.uleb128 0x2b
 2897 0fb1 38000000 		.4byte	.LVL9
ARM GAS  /tmp/cc0MdUPR.s 			page 52


 2898 0fb5 C00F0000 		.4byte	0xfc0
 2899 0fb9 25       		.uleb128 0x25
 2900 0fba 01       		.uleb128 0x1
 2901 0fbb 50       		.byte	0x50
 2902 0fbc 02       		.uleb128 0x2
 2903 0fbd 74       		.byte	0x74
 2904 0fbe 00       		.sleb128 0
 2905 0fbf 00       		.byte	0
 2906 0fc0 2C       		.uleb128 0x2c
 2907 0fc1 88000000 		.4byte	.LVL12
 2908 0fc5 25       		.uleb128 0x25
 2909 0fc6 01       		.uleb128 0x1
 2910 0fc7 50       		.byte	0x50
 2911 0fc8 02       		.uleb128 0x2
 2912 0fc9 74       		.byte	0x74
 2913 0fca 00       		.sleb128 0
 2914 0fcb 00       		.byte	0
 2915 0fcc 00       		.byte	0
 2916 0fcd 2D       		.uleb128 0x2d
 2917 0fce A3090000 		.4byte	.LASF204
 2918 0fd2 01       		.byte	0x1
 2919 0fd3 C5       		.byte	0xc5
 2920 0fd4 00000000 		.4byte	.LFB325
 2921 0fd8 50000000 		.4byte	.LFE325-.LFB325
 2922 0fdc 01       		.uleb128 0x1
 2923 0fdd 9C       		.byte	0x9c
 2924 0fde 07100000 		.4byte	0x1007
 2925 0fe2 2E       		.uleb128 0x2e
 2926 0fe3 0A000000 		.4byte	.LVL20
 2927 0fe7 9A130000 		.4byte	0x139a
 2928 0feb F60F0000 		.4byte	0xff6
 2929 0fef 25       		.uleb128 0x25
 2930 0ff0 01       		.uleb128 0x1
 2931 0ff1 50       		.byte	0x50
 2932 0ff2 02       		.uleb128 0x2
 2933 0ff3 74       		.byte	0x74
 2934 0ff4 00       		.sleb128 0
 2935 0ff5 00       		.byte	0
 2936 0ff6 27       		.uleb128 0x27
 2937 0ff7 24000000 		.4byte	.LVL21
 2938 0ffb 9A130000 		.4byte	0x139a
 2939 0fff 25       		.uleb128 0x25
 2940 1000 01       		.uleb128 0x1
 2941 1001 50       		.byte	0x50
 2942 1002 02       		.uleb128 0x2
 2943 1003 74       		.byte	0x74
 2944 1004 00       		.sleb128 0
 2945 1005 00       		.byte	0
 2946 1006 00       		.byte	0
 2947 1007 2F       		.uleb128 0x2f
 2948 1008 48020000 		.4byte	.LASF205
 2949 100c 01       		.byte	0x1
 2950 100d 3B01     		.2byte	0x13b
 2951 100f 00000000 		.4byte	.LFB326
 2952 1013 0C010000 		.4byte	.LFE326-.LFB326
 2953 1017 01       		.uleb128 0x1
 2954 1018 9C       		.byte	0x9c
ARM GAS  /tmp/cc0MdUPR.s 			page 53


 2955 1019 CF100000 		.4byte	0x10cf
 2956 101d 30       		.uleb128 0x30
 2957 101e C7050000 		.4byte	.LASF199
 2958 1022 01       		.byte	0x1
 2959 1023 3B01     		.2byte	0x13b
 2960 1025 0D0D0000 		.4byte	0xd0d
 2961 1029 4A010000 		.4byte	.LLST10
 2962 102d 31       		.uleb128 0x31
 2963 102e 8E000000 		.4byte	.LASF208
 2964 1032 DF100000 		.4byte	0x10df
 2965 1036 2E       		.uleb128 0x2e
 2966 1037 1C000000 		.4byte	.LVL24
 2967 103b AC130000 		.4byte	0x13ac
 2968 103f 5D100000 		.4byte	0x105d
 2969 1043 25       		.uleb128 0x25
 2970 1044 01       		.uleb128 0x1
 2971 1045 53       		.byte	0x53
 2972 1046 02       		.uleb128 0x2
 2973 1047 74       		.byte	0x74
 2974 1048 00       		.sleb128 0
 2975 1049 25       		.uleb128 0x25
 2976 104a 01       		.uleb128 0x1
 2977 104b 52       		.byte	0x52
 2978 104c 05       		.uleb128 0x5
 2979 104d 03       		.byte	0x3
 2980 104e 00000000 		.4byte	spi_lld_serve_rx_interrupt
 2981 1052 25       		.uleb128 0x25
 2982 1053 01       		.uleb128 0x1
 2983 1054 51       		.byte	0x51
 2984 1055 01       		.uleb128 0x1
 2985 1056 3A       		.byte	0x3a
 2986 1057 25       		.uleb128 0x25
 2987 1058 01       		.uleb128 0x1
 2988 1059 50       		.byte	0x50
 2989 105a 01       		.uleb128 0x1
 2990 105b 38       		.byte	0x38
 2991 105c 00       		.byte	0
 2992 105d 2E       		.uleb128 0x2e
 2993 105e 2A000000 		.4byte	.LVL25
 2994 1062 AC130000 		.4byte	0x13ac
 2995 1066 84100000 		.4byte	0x1084
 2996 106a 25       		.uleb128 0x25
 2997 106b 01       		.uleb128 0x1
 2998 106c 53       		.byte	0x53
 2999 106d 02       		.uleb128 0x2
 3000 106e 74       		.byte	0x74
 3001 106f 00       		.sleb128 0
 3002 1070 25       		.uleb128 0x25
 3003 1071 01       		.uleb128 0x1
 3004 1072 52       		.byte	0x52
 3005 1073 05       		.uleb128 0x5
 3006 1074 03       		.byte	0x3
 3007 1075 00000000 		.4byte	spi_lld_serve_tx_interrupt
 3008 1079 25       		.uleb128 0x25
 3009 107a 01       		.uleb128 0x1
 3010 107b 51       		.byte	0x51
 3011 107c 01       		.uleb128 0x1
ARM GAS  /tmp/cc0MdUPR.s 			page 54


 3012 107d 3A       		.byte	0x3a
 3013 107e 25       		.uleb128 0x25
 3014 107f 01       		.uleb128 0x1
 3015 1080 50       		.byte	0x50
 3016 1081 01       		.uleb128 0x1
 3017 1082 3B       		.byte	0x3b
 3018 1083 00       		.byte	0
 3019 1084 2E       		.uleb128 0x2e
 3020 1085 54000000 		.4byte	.LVL28
 3021 1089 AC130000 		.4byte	0x13ac
 3022 108d AB100000 		.4byte	0x10ab
 3023 1091 25       		.uleb128 0x25
 3024 1092 01       		.uleb128 0x1
 3025 1093 53       		.byte	0x53
 3026 1094 02       		.uleb128 0x2
 3027 1095 74       		.byte	0x74
 3028 1096 00       		.sleb128 0
 3029 1097 25       		.uleb128 0x25
 3030 1098 01       		.uleb128 0x1
 3031 1099 52       		.byte	0x52
 3032 109a 05       		.uleb128 0x5
 3033 109b 03       		.byte	0x3
 3034 109c 00000000 		.4byte	spi_lld_serve_rx_interrupt
 3035 10a0 25       		.uleb128 0x25
 3036 10a1 01       		.uleb128 0x1
 3037 10a2 51       		.byte	0x51
 3038 10a3 01       		.uleb128 0x1
 3039 10a4 3A       		.byte	0x3a
 3040 10a5 25       		.uleb128 0x25
 3041 10a6 01       		.uleb128 0x1
 3042 10a7 50       		.byte	0x50
 3043 10a8 01       		.uleb128 0x1
 3044 10a9 33       		.byte	0x33
 3045 10aa 00       		.byte	0
 3046 10ab 27       		.uleb128 0x27
 3047 10ac 62000000 		.4byte	.LVL29
 3048 10b0 AC130000 		.4byte	0x13ac
 3049 10b4 25       		.uleb128 0x25
 3050 10b5 01       		.uleb128 0x1
 3051 10b6 53       		.byte	0x53
 3052 10b7 02       		.uleb128 0x2
 3053 10b8 74       		.byte	0x74
 3054 10b9 00       		.sleb128 0
 3055 10ba 25       		.uleb128 0x25
 3056 10bb 01       		.uleb128 0x1
 3057 10bc 52       		.byte	0x52
 3058 10bd 05       		.uleb128 0x5
 3059 10be 03       		.byte	0x3
 3060 10bf 00000000 		.4byte	spi_lld_serve_tx_interrupt
 3061 10c3 25       		.uleb128 0x25
 3062 10c4 01       		.uleb128 0x1
 3063 10c5 51       		.byte	0x51
 3064 10c6 01       		.uleb128 0x1
 3065 10c7 3A       		.byte	0x3a
 3066 10c8 25       		.uleb128 0x25
 3067 10c9 01       		.uleb128 0x1
 3068 10ca 50       		.byte	0x50
ARM GAS  /tmp/cc0MdUPR.s 			page 55


 3069 10cb 01       		.uleb128 0x1
 3070 10cc 34       		.byte	0x34
 3071 10cd 00       		.byte	0
 3072 10ce 00       		.byte	0
 3073 10cf 10       		.uleb128 0x10
 3074 10d0 300A0000 		.4byte	0xa30
 3075 10d4 DF100000 		.4byte	0x10df
 3076 10d8 11       		.uleb128 0x11
 3077 10d9 86040000 		.4byte	0x486
 3078 10dd 0D       		.byte	0xd
 3079 10de 00       		.byte	0
 3080 10df 18       		.uleb128 0x18
 3081 10e0 CF100000 		.4byte	0x10cf
 3082 10e4 2F       		.uleb128 0x2f
 3083 10e5 E5000000 		.4byte	.LASF206
 3084 10e9 01       		.byte	0x1
 3085 10ea C801     		.2byte	0x1c8
 3086 10ec 00000000 		.4byte	.LFB327
 3087 10f0 70000000 		.4byte	.LFE327-.LFB327
 3088 10f4 01       		.uleb128 0x1
 3089 10f5 9C       		.byte	0x9c
 3090 10f6 1D110000 		.4byte	0x111d
 3091 10fa 30       		.uleb128 0x30
 3092 10fb C7050000 		.4byte	.LASF199
 3093 10ff 01       		.byte	0x1
 3094 1100 C801     		.2byte	0x1c8
 3095 1102 0D0D0000 		.4byte	0xd0d
 3096 1106 97010000 		.4byte	.LLST11
 3097 110a 2A       		.uleb128 0x2a
 3098 110b 20000000 		.4byte	.LVL33
 3099 110f D1130000 		.4byte	0x13d1
 3100 1113 2A       		.uleb128 0x2a
 3101 1114 26000000 		.4byte	.LVL34
 3102 1118 D1130000 		.4byte	0x13d1
 3103 111c 00       		.byte	0
 3104 111d 2F       		.uleb128 0x2f
 3105 111e 68010000 		.4byte	.LASF207
 3106 1122 01       		.byte	0x1
 3107 1123 1702     		.2byte	0x217
 3108 1125 00000000 		.4byte	.LFB328
 3109 1129 38000000 		.4byte	.LFE328-.LFB328
 3110 112d 01       		.uleb128 0x1
 3111 112e 9C       		.byte	0x9c
 3112 112f 59110000 		.4byte	0x1159
 3113 1133 32       		.uleb128 0x32
 3114 1134 C7050000 		.4byte	.LASF199
 3115 1138 01       		.byte	0x1
 3116 1139 1702     		.2byte	0x217
 3117 113b 0D0D0000 		.4byte	0xd0d
 3118 113f 01       		.uleb128 0x1
 3119 1140 50       		.byte	0x50
 3120 1141 33       		.uleb128 0x33
 3121 1142 6E00     		.ascii	"n\000"
 3122 1144 01       		.byte	0x1
 3123 1145 1702     		.2byte	0x217
 3124 1147 2C000000 		.4byte	0x2c
 3125 114b C3010000 		.4byte	.LLST12
ARM GAS  /tmp/cc0MdUPR.s 			page 56


 3126 114f 31       		.uleb128 0x31
 3127 1150 8E000000 		.4byte	.LASF208
 3128 1154 69110000 		.4byte	0x1169
 3129 1158 00       		.byte	0
 3130 1159 10       		.uleb128 0x10
 3131 115a 300A0000 		.4byte	0xa30
 3132 115e 69110000 		.4byte	0x1169
 3133 1162 11       		.uleb128 0x11
 3134 1163 86040000 		.4byte	0x486
 3135 1167 0E       		.byte	0xe
 3136 1168 00       		.byte	0
 3137 1169 18       		.uleb128 0x18
 3138 116a 59110000 		.4byte	0x1159
 3139 116e 2F       		.uleb128 0x2f
 3140 116f B8040000 		.4byte	.LASF209
 3141 1173 01       		.byte	0x1
 3142 1174 3602     		.2byte	0x236
 3143 1176 00000000 		.4byte	.LFB329
 3144 117a 34000000 		.4byte	.LFE329-.LFB329
 3145 117e 01       		.uleb128 0x1
 3146 117f 9C       		.byte	0x9c
 3147 1180 C8110000 		.4byte	0x11c8
 3148 1184 32       		.uleb128 0x32
 3149 1185 C7050000 		.4byte	.LASF199
 3150 1189 01       		.byte	0x1
 3151 118a 3602     		.2byte	0x236
 3152 118c 0D0D0000 		.4byte	0xd0d
 3153 1190 01       		.uleb128 0x1
 3154 1191 50       		.byte	0x50
 3155 1192 34       		.uleb128 0x34
 3156 1193 6E00     		.ascii	"n\000"
 3157 1195 01       		.byte	0x1
 3158 1196 3602     		.2byte	0x236
 3159 1198 2C000000 		.4byte	0x2c
 3160 119c 01       		.uleb128 0x1
 3161 119d 51       		.byte	0x51
 3162 119e 30       		.uleb128 0x30
 3163 119f BB010000 		.4byte	.LASF210
 3164 11a3 01       		.byte	0x1
 3165 11a4 3702     		.2byte	0x237
 3166 11a6 C8110000 		.4byte	0x11c8
 3167 11aa F0010000 		.4byte	.LLST13
 3168 11ae 30       		.uleb128 0x30
 3169 11af F7040000 		.4byte	.LASF211
 3170 11b3 01       		.byte	0x1
 3171 11b4 3702     		.2byte	0x237
 3172 11b6 3B030000 		.4byte	0x33b
 3173 11ba 1D020000 		.4byte	.LLST14
 3174 11be 31       		.uleb128 0x31
 3175 11bf 8E000000 		.4byte	.LASF208
 3176 11c3 DF110000 		.4byte	0x11df
 3177 11c7 00       		.byte	0
 3178 11c8 0A       		.uleb128 0xa
 3179 11c9 04       		.byte	0x4
 3180 11ca CE110000 		.4byte	0x11ce
 3181 11ce 35       		.uleb128 0x35
 3182 11cf 10       		.uleb128 0x10
ARM GAS  /tmp/cc0MdUPR.s 			page 57


 3183 11d0 300A0000 		.4byte	0xa30
 3184 11d4 DF110000 		.4byte	0x11df
 3185 11d8 11       		.uleb128 0x11
 3186 11d9 86040000 		.4byte	0x486
 3187 11dd 10       		.byte	0x10
 3188 11de 00       		.byte	0
 3189 11df 18       		.uleb128 0x18
 3190 11e0 CF110000 		.4byte	0x11cf
 3191 11e4 2F       		.uleb128 0x2f
 3192 11e5 DD020000 		.4byte	.LASF212
 3193 11e9 01       		.byte	0x1
 3194 11ea 5402     		.2byte	0x254
 3195 11ec 00000000 		.4byte	.LFB330
 3196 11f0 38000000 		.4byte	.LFE330-.LFB330
 3197 11f4 01       		.uleb128 0x1
 3198 11f5 9C       		.byte	0x9c
 3199 11f6 2E120000 		.4byte	0x122e
 3200 11fa 32       		.uleb128 0x32
 3201 11fb C7050000 		.4byte	.LASF199
 3202 11ff 01       		.byte	0x1
 3203 1200 5402     		.2byte	0x254
 3204 1202 0D0D0000 		.4byte	0xd0d
 3205 1206 01       		.uleb128 0x1
 3206 1207 50       		.byte	0x50
 3207 1208 34       		.uleb128 0x34
 3208 1209 6E00     		.ascii	"n\000"
 3209 120b 01       		.byte	0x1
 3210 120c 5402     		.2byte	0x254
 3211 120e 2C000000 		.4byte	0x2c
 3212 1212 01       		.uleb128 0x1
 3213 1213 51       		.byte	0x51
 3214 1214 30       		.uleb128 0x30
 3215 1215 BB010000 		.4byte	.LASF210
 3216 1219 01       		.byte	0x1
 3217 121a 5402     		.2byte	0x254
 3218 121c C8110000 		.4byte	0x11c8
 3219 1220 4A020000 		.4byte	.LLST15
 3220 1224 31       		.uleb128 0x31
 3221 1225 8E000000 		.4byte	.LASF208
 3222 1229 3E120000 		.4byte	0x123e
 3223 122d 00       		.byte	0
 3224 122e 10       		.uleb128 0x10
 3225 122f 300A0000 		.4byte	0xa30
 3226 1233 3E120000 		.4byte	0x123e
 3227 1237 11       		.uleb128 0x11
 3228 1238 86040000 		.4byte	0x486
 3229 123c 0C       		.byte	0xc
 3230 123d 00       		.byte	0
 3231 123e 18       		.uleb128 0x18
 3232 123f 2E120000 		.4byte	0x122e
 3233 1243 2F       		.uleb128 0x2f
 3234 1244 7F050000 		.4byte	.LASF213
 3235 1248 01       		.byte	0x1
 3236 1249 7102     		.2byte	0x271
 3237 124b 00000000 		.4byte	.LFB331
 3238 124f 38000000 		.4byte	.LFE331-.LFB331
 3239 1253 01       		.uleb128 0x1
ARM GAS  /tmp/cc0MdUPR.s 			page 58


 3240 1254 9C       		.byte	0x9c
 3241 1255 8D120000 		.4byte	0x128d
 3242 1259 32       		.uleb128 0x32
 3243 125a C7050000 		.4byte	.LASF199
 3244 125e 01       		.byte	0x1
 3245 125f 7102     		.2byte	0x271
 3246 1261 0D0D0000 		.4byte	0xd0d
 3247 1265 01       		.uleb128 0x1
 3248 1266 50       		.byte	0x50
 3249 1267 34       		.uleb128 0x34
 3250 1268 6E00     		.ascii	"n\000"
 3251 126a 01       		.byte	0x1
 3252 126b 7102     		.2byte	0x271
 3253 126d 2C000000 		.4byte	0x2c
 3254 1271 01       		.uleb128 0x1
 3255 1272 51       		.byte	0x51
 3256 1273 30       		.uleb128 0x30
 3257 1274 F7040000 		.4byte	.LASF211
 3258 1278 01       		.byte	0x1
 3259 1279 7102     		.2byte	0x271
 3260 127b 3B030000 		.4byte	0x33b
 3261 127f 77020000 		.4byte	.LLST16
 3262 1283 31       		.uleb128 0x31
 3263 1284 8E000000 		.4byte	.LASF208
 3264 1288 9D120000 		.4byte	0x129d
 3265 128c 00       		.byte	0
 3266 128d 10       		.uleb128 0x10
 3267 128e 300A0000 		.4byte	0xa30
 3268 1292 9D120000 		.4byte	0x129d
 3269 1296 11       		.uleb128 0x11
 3270 1297 86040000 		.4byte	0x486
 3271 129b 0F       		.byte	0xf
 3272 129c 00       		.byte	0
 3273 129d 18       		.uleb128 0x18
 3274 129e 8D120000 		.4byte	0x128d
 3275 12a2 2F       		.uleb128 0x2f
 3276 12a3 74080000 		.4byte	.LASF214
 3277 12a7 01       		.byte	0x1
 3278 12a8 8902     		.2byte	0x289
 3279 12aa 00000000 		.4byte	.LFB332
 3280 12ae 3A000000 		.4byte	.LFE332-.LFB332
 3281 12b2 01       		.uleb128 0x1
 3282 12b3 9C       		.byte	0x9c
 3283 12b4 C7120000 		.4byte	0x12c7
 3284 12b8 32       		.uleb128 0x32
 3285 12b9 C7050000 		.4byte	.LASF199
 3286 12bd 01       		.byte	0x1
 3287 12be 8902     		.2byte	0x289
 3288 12c0 0D0D0000 		.4byte	0xd0d
 3289 12c4 01       		.uleb128 0x1
 3290 12c5 50       		.byte	0x50
 3291 12c6 00       		.byte	0
 3292 12c7 36       		.uleb128 0x36
 3293 12c8 B7030000 		.4byte	.LASF229
 3294 12cc 01       		.byte	0x1
 3295 12cd 9D02     		.2byte	0x29d
 3296 12cf B8000000 		.4byte	0xb8
ARM GAS  /tmp/cc0MdUPR.s 			page 59


 3297 12d3 00000000 		.4byte	.LFB333
 3298 12d7 10000000 		.4byte	.LFE333-.LFB333
 3299 12db 01       		.uleb128 0x1
 3300 12dc 9C       		.byte	0x9c
 3301 12dd 00130000 		.4byte	0x1300
 3302 12e1 30       		.uleb128 0x30
 3303 12e2 C7050000 		.4byte	.LASF199
 3304 12e6 01       		.byte	0x1
 3305 12e7 9D02     		.2byte	0x29d
 3306 12e9 0D0D0000 		.4byte	0xd0d
 3307 12ed 98020000 		.4byte	.LLST17
 3308 12f1 32       		.uleb128 0x32
 3309 12f2 73050000 		.4byte	.LASF215
 3310 12f6 01       		.byte	0x1
 3311 12f7 9D02     		.2byte	0x29d
 3312 12f9 B8000000 		.4byte	0xb8
 3313 12fd 01       		.uleb128 0x1
 3314 12fe 51       		.byte	0x51
 3315 12ff 00       		.byte	0
 3316 1300 37       		.uleb128 0x37
 3317 1301 37010000 		.4byte	.LASF216
 3318 1305 01       		.byte	0x1
 3319 1306 77       		.byte	0x77
 3320 1307 11130000 		.4byte	0x1311
 3321 130b 05       		.uleb128 0x5
 3322 130c 03       		.byte	0x3
 3323 130d 00000000 		.4byte	dummytx
 3324 1311 18       		.uleb128 0x18
 3325 1312 B8000000 		.4byte	0xb8
 3326 1316 37       		.uleb128 0x37
 3327 1317 A6000000 		.4byte	.LASF217
 3328 131b 01       		.byte	0x1
 3329 131c 78       		.byte	0x78
 3330 131d B8000000 		.4byte	0xb8
 3331 1321 05       		.uleb128 0x5
 3332 1322 03       		.byte	0x3
 3333 1323 00000000 		.4byte	dummyrx
 3334 1327 38       		.uleb128 0x38
 3335 1328 8F050000 		.4byte	.LASF218
 3336 132c 18       		.byte	0x18
 3337 132d 0408     		.2byte	0x804
 3338 132f 33130000 		.4byte	0x1333
 3339 1333 0F       		.uleb128 0xf
 3340 1334 C3000000 		.4byte	0xc3
 3341 1338 39       		.uleb128 0x39
 3342 1339 636800   		.ascii	"ch\000"
 3343 133c 0B       		.byte	0xb
 3344 133d C701     		.2byte	0x1c7
 3345 133f 0A040000 		.4byte	0x40a
 3346 1343 3A       		.uleb128 0x3a
 3347 1344 C1000000 		.4byte	.LASF219
 3348 1348 01       		.byte	0x1
 3349 1349 57       		.byte	0x57
 3350 134a 0D0C0000 		.4byte	0xc0d
 3351 134e 05       		.uleb128 0x5
 3352 134f 03       		.byte	0x3
 3353 1350 00000000 		.4byte	SPID1
ARM GAS  /tmp/cc0MdUPR.s 			page 60


 3354 1354 3A       		.uleb128 0x3a
 3355 1355 C7000000 		.4byte	.LASF220
 3356 1359 01       		.byte	0x1
 3357 135a 5C       		.byte	0x5c
 3358 135b 0D0C0000 		.4byte	0xc0d
 3359 135f 05       		.uleb128 0x5
 3360 1360 03       		.byte	0x3
 3361 1361 00000000 		.4byte	SPID2
 3362 1365 3B       		.uleb128 0x3b
 3363 1366 C4090000 		.4byte	.LASF221
 3364 136a 19       		.byte	0x19
 3365 136b 63       		.byte	0x63
 3366 136c 76130000 		.4byte	0x1376
 3367 1370 0D       		.uleb128 0xd
 3368 1371 250A0000 		.4byte	0xa25
 3369 1375 00       		.byte	0
 3370 1376 3C       		.uleb128 0x3c
 3371 1377 CE090000 		.4byte	.LASF223
 3372 137b 11       		.byte	0x11
 3373 137c 51       		.byte	0x51
 3374 137d 3B       		.uleb128 0x3b
 3375 137e 5A000000 		.4byte	.LASF222
 3376 1382 1A       		.byte	0x1a
 3377 1383 F7       		.byte	0xf7
 3378 1384 93130000 		.4byte	0x1393
 3379 1388 0D       		.uleb128 0xd
 3380 1389 BD090000 		.4byte	0x9bd
 3381 138d 0D       		.uleb128 0xd
 3382 138e 31010000 		.4byte	0x131
 3383 1392 00       		.byte	0
 3384 1393 3C       		.uleb128 0x3c
 3385 1394 94030000 		.4byte	.LASF224
 3386 1398 11       		.byte	0x11
 3387 1399 52       		.byte	0x52
 3388 139a 3D       		.uleb128 0x3d
 3389 139b 6F060000 		.4byte	.LASF225
 3390 139f 17       		.byte	0x17
 3391 13a0 F401     		.2byte	0x1f4
 3392 13a2 AC130000 		.4byte	0x13ac
 3393 13a6 0D       		.uleb128 0xd
 3394 13a7 0D0D0000 		.4byte	0xd0d
 3395 13ab 00       		.byte	0
 3396 13ac 3E       		.uleb128 0x3e
 3397 13ad AD050000 		.4byte	.LASF230
 3398 13b1 14       		.byte	0x14
 3399 13b2 9702     		.2byte	0x297
 3400 13b4 D00B0000 		.4byte	0xbd0
 3401 13b8 D1130000 		.4byte	0x13d1
 3402 13bc 0D       		.uleb128 0xd
 3403 13bd CE000000 		.4byte	0xce
 3404 13c1 0D       		.uleb128 0xd
 3405 13c2 CE000000 		.4byte	0xce
 3406 13c6 0D       		.uleb128 0xd
 3407 13c7 600A0000 		.4byte	0xa60
 3408 13cb 0D       		.uleb128 0xd
 3409 13cc 3B030000 		.4byte	0x33b
 3410 13d0 00       		.byte	0
ARM GAS  /tmp/cc0MdUPR.s 			page 61


 3411 13d1 3F       		.uleb128 0x3f
 3412 13d2 07020000 		.4byte	.LASF231
 3413 13d6 14       		.byte	0x14
 3414 13d7 9F02     		.2byte	0x29f
 3415 13d9 0D       		.uleb128 0xd
 3416 13da D00B0000 		.4byte	0xbd0
 3417 13de 00       		.byte	0
 3418 13df 00       		.byte	0
 3419              		.section	.debug_abbrev,"",%progbits
 3420              	.Ldebug_abbrev0:
 3421 0000 01       		.uleb128 0x1
 3422 0001 11       		.uleb128 0x11
 3423 0002 01       		.byte	0x1
 3424 0003 25       		.uleb128 0x25
 3425 0004 0E       		.uleb128 0xe
 3426 0005 13       		.uleb128 0x13
 3427 0006 0B       		.uleb128 0xb
 3428 0007 03       		.uleb128 0x3
 3429 0008 0E       		.uleb128 0xe
 3430 0009 1B       		.uleb128 0x1b
 3431 000a 0E       		.uleb128 0xe
 3432 000b 55       		.uleb128 0x55
 3433 000c 17       		.uleb128 0x17
 3434 000d 11       		.uleb128 0x11
 3435 000e 01       		.uleb128 0x1
 3436 000f 10       		.uleb128 0x10
 3437 0010 17       		.uleb128 0x17
 3438 0011 00       		.byte	0
 3439 0012 00       		.byte	0
 3440 0013 02       		.uleb128 0x2
 3441 0014 24       		.uleb128 0x24
 3442 0015 00       		.byte	0
 3443 0016 0B       		.uleb128 0xb
 3444 0017 0B       		.uleb128 0xb
 3445 0018 3E       		.uleb128 0x3e
 3446 0019 0B       		.uleb128 0xb
 3447 001a 03       		.uleb128 0x3
 3448 001b 08       		.uleb128 0x8
 3449 001c 00       		.byte	0
 3450 001d 00       		.byte	0
 3451 001e 03       		.uleb128 0x3
 3452 001f 16       		.uleb128 0x16
 3453 0020 00       		.byte	0
 3454 0021 03       		.uleb128 0x3
 3455 0022 0E       		.uleb128 0xe
 3456 0023 3A       		.uleb128 0x3a
 3457 0024 0B       		.uleb128 0xb
 3458 0025 3B       		.uleb128 0x3b
 3459 0026 0B       		.uleb128 0xb
 3460 0027 49       		.uleb128 0x49
 3461 0028 13       		.uleb128 0x13
 3462 0029 00       		.byte	0
 3463 002a 00       		.byte	0
 3464 002b 04       		.uleb128 0x4
 3465 002c 24       		.uleb128 0x24
 3466 002d 00       		.byte	0
 3467 002e 0B       		.uleb128 0xb
ARM GAS  /tmp/cc0MdUPR.s 			page 62


 3468 002f 0B       		.uleb128 0xb
 3469 0030 3E       		.uleb128 0x3e
 3470 0031 0B       		.uleb128 0xb
 3471 0032 03       		.uleb128 0x3
 3472 0033 0E       		.uleb128 0xe
 3473 0034 00       		.byte	0
 3474 0035 00       		.byte	0
 3475 0036 05       		.uleb128 0x5
 3476 0037 13       		.uleb128 0x13
 3477 0038 01       		.byte	0x1
 3478 0039 03       		.uleb128 0x3
 3479 003a 0E       		.uleb128 0xe
 3480 003b 0B       		.uleb128 0xb
 3481 003c 0B       		.uleb128 0xb
 3482 003d 3A       		.uleb128 0x3a
 3483 003e 0B       		.uleb128 0xb
 3484 003f 3B       		.uleb128 0x3b
 3485 0040 0B       		.uleb128 0xb
 3486 0041 01       		.uleb128 0x1
 3487 0042 13       		.uleb128 0x13
 3488 0043 00       		.byte	0
 3489 0044 00       		.byte	0
 3490 0045 06       		.uleb128 0x6
 3491 0046 0D       		.uleb128 0xd
 3492 0047 00       		.byte	0
 3493 0048 03       		.uleb128 0x3
 3494 0049 0E       		.uleb128 0xe
 3495 004a 3A       		.uleb128 0x3a
 3496 004b 0B       		.uleb128 0xb
 3497 004c 3B       		.uleb128 0x3b
 3498 004d 0B       		.uleb128 0xb
 3499 004e 49       		.uleb128 0x49
 3500 004f 13       		.uleb128 0x13
 3501 0050 38       		.uleb128 0x38
 3502 0051 0B       		.uleb128 0xb
 3503 0052 00       		.byte	0
 3504 0053 00       		.byte	0
 3505 0054 07       		.uleb128 0x7
 3506 0055 0D       		.uleb128 0xd
 3507 0056 00       		.byte	0
 3508 0057 03       		.uleb128 0x3
 3509 0058 08       		.uleb128 0x8
 3510 0059 3A       		.uleb128 0x3a
 3511 005a 0B       		.uleb128 0xb
 3512 005b 3B       		.uleb128 0x3b
 3513 005c 0B       		.uleb128 0xb
 3514 005d 49       		.uleb128 0x49
 3515 005e 13       		.uleb128 0x13
 3516 005f 38       		.uleb128 0x38
 3517 0060 0B       		.uleb128 0xb
 3518 0061 00       		.byte	0
 3519 0062 00       		.byte	0
 3520 0063 08       		.uleb128 0x8
 3521 0064 0D       		.uleb128 0xd
 3522 0065 00       		.byte	0
 3523 0066 03       		.uleb128 0x3
 3524 0067 08       		.uleb128 0x8
ARM GAS  /tmp/cc0MdUPR.s 			page 63


 3525 0068 3A       		.uleb128 0x3a
 3526 0069 0B       		.uleb128 0xb
 3527 006a 3B       		.uleb128 0x3b
 3528 006b 05       		.uleb128 0x5
 3529 006c 49       		.uleb128 0x49
 3530 006d 13       		.uleb128 0x13
 3531 006e 38       		.uleb128 0x38
 3532 006f 0B       		.uleb128 0xb
 3533 0070 00       		.byte	0
 3534 0071 00       		.byte	0
 3535 0072 09       		.uleb128 0x9
 3536 0073 0D       		.uleb128 0xd
 3537 0074 00       		.byte	0
 3538 0075 03       		.uleb128 0x3
 3539 0076 0E       		.uleb128 0xe
 3540 0077 3A       		.uleb128 0x3a
 3541 0078 0B       		.uleb128 0xb
 3542 0079 3B       		.uleb128 0x3b
 3543 007a 05       		.uleb128 0x5
 3544 007b 49       		.uleb128 0x49
 3545 007c 13       		.uleb128 0x13
 3546 007d 38       		.uleb128 0x38
 3547 007e 0B       		.uleb128 0xb
 3548 007f 00       		.byte	0
 3549 0080 00       		.byte	0
 3550 0081 0A       		.uleb128 0xa
 3551 0082 0F       		.uleb128 0xf
 3552 0083 00       		.byte	0
 3553 0084 0B       		.uleb128 0xb
 3554 0085 0B       		.uleb128 0xb
 3555 0086 49       		.uleb128 0x49
 3556 0087 13       		.uleb128 0x13
 3557 0088 00       		.byte	0
 3558 0089 00       		.byte	0
 3559 008a 0B       		.uleb128 0xb
 3560 008b 13       		.uleb128 0x13
 3561 008c 01       		.byte	0x1
 3562 008d 03       		.uleb128 0x3
 3563 008e 0E       		.uleb128 0xe
 3564 008f 0B       		.uleb128 0xb
 3565 0090 0B       		.uleb128 0xb
 3566 0091 3A       		.uleb128 0x3a
 3567 0092 0B       		.uleb128 0xb
 3568 0093 3B       		.uleb128 0x3b
 3569 0094 05       		.uleb128 0x5
 3570 0095 01       		.uleb128 0x1
 3571 0096 13       		.uleb128 0x13
 3572 0097 00       		.byte	0
 3573 0098 00       		.byte	0
 3574 0099 0C       		.uleb128 0xc
 3575 009a 15       		.uleb128 0x15
 3576 009b 01       		.byte	0x1
 3577 009c 27       		.uleb128 0x27
 3578 009d 19       		.uleb128 0x19
 3579 009e 01       		.uleb128 0x1
 3580 009f 13       		.uleb128 0x13
 3581 00a0 00       		.byte	0
ARM GAS  /tmp/cc0MdUPR.s 			page 64


 3582 00a1 00       		.byte	0
 3583 00a2 0D       		.uleb128 0xd
 3584 00a3 05       		.uleb128 0x5
 3585 00a4 00       		.byte	0
 3586 00a5 49       		.uleb128 0x49
 3587 00a6 13       		.uleb128 0x13
 3588 00a7 00       		.byte	0
 3589 00a8 00       		.byte	0
 3590 00a9 0E       		.uleb128 0xe
 3591 00aa 0F       		.uleb128 0xf
 3592 00ab 00       		.byte	0
 3593 00ac 0B       		.uleb128 0xb
 3594 00ad 0B       		.uleb128 0xb
 3595 00ae 00       		.byte	0
 3596 00af 00       		.byte	0
 3597 00b0 0F       		.uleb128 0xf
 3598 00b1 35       		.uleb128 0x35
 3599 00b2 00       		.byte	0
 3600 00b3 49       		.uleb128 0x49
 3601 00b4 13       		.uleb128 0x13
 3602 00b5 00       		.byte	0
 3603 00b6 00       		.byte	0
 3604 00b7 10       		.uleb128 0x10
 3605 00b8 01       		.uleb128 0x1
 3606 00b9 01       		.byte	0x1
 3607 00ba 49       		.uleb128 0x49
 3608 00bb 13       		.uleb128 0x13
 3609 00bc 01       		.uleb128 0x1
 3610 00bd 13       		.uleb128 0x13
 3611 00be 00       		.byte	0
 3612 00bf 00       		.byte	0
 3613 00c0 11       		.uleb128 0x11
 3614 00c1 21       		.uleb128 0x21
 3615 00c2 00       		.byte	0
 3616 00c3 49       		.uleb128 0x49
 3617 00c4 13       		.uleb128 0x13
 3618 00c5 2F       		.uleb128 0x2f
 3619 00c6 0B       		.uleb128 0xb
 3620 00c7 00       		.byte	0
 3621 00c8 00       		.byte	0
 3622 00c9 12       		.uleb128 0x12
 3623 00ca 13       		.uleb128 0x13
 3624 00cb 01       		.byte	0x1
 3625 00cc 0B       		.uleb128 0xb
 3626 00cd 0B       		.uleb128 0xb
 3627 00ce 3A       		.uleb128 0x3a
 3628 00cf 0B       		.uleb128 0xb
 3629 00d0 3B       		.uleb128 0x3b
 3630 00d1 05       		.uleb128 0x5
 3631 00d2 01       		.uleb128 0x1
 3632 00d3 13       		.uleb128 0x13
 3633 00d4 00       		.byte	0
 3634 00d5 00       		.byte	0
 3635 00d6 13       		.uleb128 0x13
 3636 00d7 16       		.uleb128 0x16
 3637 00d8 00       		.byte	0
 3638 00d9 03       		.uleb128 0x3
ARM GAS  /tmp/cc0MdUPR.s 			page 65


 3639 00da 0E       		.uleb128 0xe
 3640 00db 3A       		.uleb128 0x3a
 3641 00dc 0B       		.uleb128 0xb
 3642 00dd 3B       		.uleb128 0x3b
 3643 00de 05       		.uleb128 0x5
 3644 00df 49       		.uleb128 0x49
 3645 00e0 13       		.uleb128 0x13
 3646 00e1 00       		.byte	0
 3647 00e2 00       		.byte	0
 3648 00e3 14       		.uleb128 0x14
 3649 00e4 13       		.uleb128 0x13
 3650 00e5 01       		.byte	0x1
 3651 00e6 0B       		.uleb128 0xb
 3652 00e7 0B       		.uleb128 0xb
 3653 00e8 3A       		.uleb128 0x3a
 3654 00e9 0B       		.uleb128 0xb
 3655 00ea 3B       		.uleb128 0x3b
 3656 00eb 0B       		.uleb128 0xb
 3657 00ec 01       		.uleb128 0x1
 3658 00ed 13       		.uleb128 0x13
 3659 00ee 00       		.byte	0
 3660 00ef 00       		.byte	0
 3661 00f0 15       		.uleb128 0x15
 3662 00f1 17       		.uleb128 0x17
 3663 00f2 01       		.byte	0x1
 3664 00f3 0B       		.uleb128 0xb
 3665 00f4 0B       		.uleb128 0xb
 3666 00f5 3A       		.uleb128 0x3a
 3667 00f6 0B       		.uleb128 0xb
 3668 00f7 3B       		.uleb128 0x3b
 3669 00f8 0B       		.uleb128 0xb
 3670 00f9 01       		.uleb128 0x1
 3671 00fa 13       		.uleb128 0x13
 3672 00fb 00       		.byte	0
 3673 00fc 00       		.byte	0
 3674 00fd 16       		.uleb128 0x16
 3675 00fe 0D       		.uleb128 0xd
 3676 00ff 00       		.byte	0
 3677 0100 03       		.uleb128 0x3
 3678 0101 0E       		.uleb128 0xe
 3679 0102 3A       		.uleb128 0x3a
 3680 0103 0B       		.uleb128 0xb
 3681 0104 3B       		.uleb128 0x3b
 3682 0105 0B       		.uleb128 0xb
 3683 0106 49       		.uleb128 0x49
 3684 0107 13       		.uleb128 0x13
 3685 0108 00       		.byte	0
 3686 0109 00       		.byte	0
 3687 010a 17       		.uleb128 0x17
 3688 010b 0D       		.uleb128 0xd
 3689 010c 00       		.byte	0
 3690 010d 03       		.uleb128 0x3
 3691 010e 0E       		.uleb128 0xe
 3692 010f 3A       		.uleb128 0x3a
 3693 0110 0B       		.uleb128 0xb
 3694 0111 3B       		.uleb128 0x3b
 3695 0112 05       		.uleb128 0x5
ARM GAS  /tmp/cc0MdUPR.s 			page 66


 3696 0113 49       		.uleb128 0x49
 3697 0114 13       		.uleb128 0x13
 3698 0115 00       		.byte	0
 3699 0116 00       		.byte	0
 3700 0117 18       		.uleb128 0x18
 3701 0118 26       		.uleb128 0x26
 3702 0119 00       		.byte	0
 3703 011a 49       		.uleb128 0x49
 3704 011b 13       		.uleb128 0x13
 3705 011c 00       		.byte	0
 3706 011d 00       		.byte	0
 3707 011e 19       		.uleb128 0x19
 3708 011f 0D       		.uleb128 0xd
 3709 0120 00       		.byte	0
 3710 0121 03       		.uleb128 0x3
 3711 0122 08       		.uleb128 0x8
 3712 0123 3A       		.uleb128 0x3a
 3713 0124 0B       		.uleb128 0xb
 3714 0125 3B       		.uleb128 0x3b
 3715 0126 0B       		.uleb128 0xb
 3716 0127 49       		.uleb128 0x49
 3717 0128 13       		.uleb128 0x13
 3718 0129 00       		.byte	0
 3719 012a 00       		.byte	0
 3720 012b 1A       		.uleb128 0x1a
 3721 012c 04       		.uleb128 0x4
 3722 012d 01       		.byte	0x1
 3723 012e 0B       		.uleb128 0xb
 3724 012f 0B       		.uleb128 0xb
 3725 0130 3A       		.uleb128 0x3a
 3726 0131 0B       		.uleb128 0xb
 3727 0132 3B       		.uleb128 0x3b
 3728 0133 0B       		.uleb128 0xb
 3729 0134 01       		.uleb128 0x1
 3730 0135 13       		.uleb128 0x13
 3731 0136 00       		.byte	0
 3732 0137 00       		.byte	0
 3733 0138 1B       		.uleb128 0x1b
 3734 0139 28       		.uleb128 0x28
 3735 013a 00       		.byte	0
 3736 013b 03       		.uleb128 0x3
 3737 013c 0E       		.uleb128 0xe
 3738 013d 1C       		.uleb128 0x1c
 3739 013e 0D       		.uleb128 0xd
 3740 013f 00       		.byte	0
 3741 0140 00       		.byte	0
 3742 0141 1C       		.uleb128 0x1c
 3743 0142 2E       		.uleb128 0x2e
 3744 0143 01       		.byte	0x1
 3745 0144 03       		.uleb128 0x3
 3746 0145 0E       		.uleb128 0xe
 3747 0146 3A       		.uleb128 0x3a
 3748 0147 0B       		.uleb128 0xb
 3749 0148 3B       		.uleb128 0x3b
 3750 0149 05       		.uleb128 0x5
 3751 014a 27       		.uleb128 0x27
 3752 014b 19       		.uleb128 0x19
ARM GAS  /tmp/cc0MdUPR.s 			page 67


 3753 014c 20       		.uleb128 0x20
 3754 014d 0B       		.uleb128 0xb
 3755 014e 01       		.uleb128 0x1
 3756 014f 13       		.uleb128 0x13
 3757 0150 00       		.byte	0
 3758 0151 00       		.byte	0
 3759 0152 1D       		.uleb128 0x1d
 3760 0153 05       		.uleb128 0x5
 3761 0154 00       		.byte	0
 3762 0155 03       		.uleb128 0x3
 3763 0156 0E       		.uleb128 0xe
 3764 0157 3A       		.uleb128 0x3a
 3765 0158 0B       		.uleb128 0xb
 3766 0159 3B       		.uleb128 0x3b
 3767 015a 05       		.uleb128 0x5
 3768 015b 49       		.uleb128 0x49
 3769 015c 13       		.uleb128 0x13
 3770 015d 00       		.byte	0
 3771 015e 00       		.byte	0
 3772 015f 1E       		.uleb128 0x1e
 3773 0160 2E       		.uleb128 0x2e
 3774 0161 00       		.byte	0
 3775 0162 03       		.uleb128 0x3
 3776 0163 0E       		.uleb128 0xe
 3777 0164 3A       		.uleb128 0x3a
 3778 0165 0B       		.uleb128 0xb
 3779 0166 3B       		.uleb128 0x3b
 3780 0167 05       		.uleb128 0x5
 3781 0168 27       		.uleb128 0x27
 3782 0169 19       		.uleb128 0x19
 3783 016a 20       		.uleb128 0x20
 3784 016b 0B       		.uleb128 0xb
 3785 016c 00       		.byte	0
 3786 016d 00       		.byte	0
 3787 016e 1F       		.uleb128 0x1f
 3788 016f 05       		.uleb128 0x5
 3789 0170 00       		.byte	0
 3790 0171 03       		.uleb128 0x3
 3791 0172 08       		.uleb128 0x8
 3792 0173 3A       		.uleb128 0x3a
 3793 0174 0B       		.uleb128 0xb
 3794 0175 3B       		.uleb128 0x3b
 3795 0176 05       		.uleb128 0x5
 3796 0177 49       		.uleb128 0x49
 3797 0178 13       		.uleb128 0x13
 3798 0179 00       		.byte	0
 3799 017a 00       		.byte	0
 3800 017b 20       		.uleb128 0x20
 3801 017c 2E       		.uleb128 0x2e
 3802 017d 01       		.byte	0x1
 3803 017e 03       		.uleb128 0x3
 3804 017f 0E       		.uleb128 0xe
 3805 0180 3A       		.uleb128 0x3a
 3806 0181 0B       		.uleb128 0xb
 3807 0182 3B       		.uleb128 0x3b
 3808 0183 0B       		.uleb128 0xb
 3809 0184 27       		.uleb128 0x27
ARM GAS  /tmp/cc0MdUPR.s 			page 68


 3810 0185 19       		.uleb128 0x19
 3811 0186 11       		.uleb128 0x11
 3812 0187 01       		.uleb128 0x1
 3813 0188 12       		.uleb128 0x12
 3814 0189 06       		.uleb128 0x6
 3815 018a 40       		.uleb128 0x40
 3816 018b 18       		.uleb128 0x18
 3817 018c 9742     		.uleb128 0x2117
 3818 018e 19       		.uleb128 0x19
 3819 018f 01       		.uleb128 0x1
 3820 0190 13       		.uleb128 0x13
 3821 0191 00       		.byte	0
 3822 0192 00       		.byte	0
 3823 0193 21       		.uleb128 0x21
 3824 0194 05       		.uleb128 0x5
 3825 0195 00       		.byte	0
 3826 0196 03       		.uleb128 0x3
 3827 0197 0E       		.uleb128 0xe
 3828 0198 3A       		.uleb128 0x3a
 3829 0199 0B       		.uleb128 0xb
 3830 019a 3B       		.uleb128 0x3b
 3831 019b 0B       		.uleb128 0xb
 3832 019c 49       		.uleb128 0x49
 3833 019d 13       		.uleb128 0x13
 3834 019e 02       		.uleb128 0x2
 3835 019f 17       		.uleb128 0x17
 3836 01a0 00       		.byte	0
 3837 01a1 00       		.byte	0
 3838 01a2 22       		.uleb128 0x22
 3839 01a3 1D       		.uleb128 0x1d
 3840 01a4 01       		.byte	0x1
 3841 01a5 31       		.uleb128 0x31
 3842 01a6 13       		.uleb128 0x13
 3843 01a7 11       		.uleb128 0x11
 3844 01a8 01       		.uleb128 0x1
 3845 01a9 12       		.uleb128 0x12
 3846 01aa 06       		.uleb128 0x6
 3847 01ab 58       		.uleb128 0x58
 3848 01ac 0B       		.uleb128 0xb
 3849 01ad 59       		.uleb128 0x59
 3850 01ae 0B       		.uleb128 0xb
 3851 01af 00       		.byte	0
 3852 01b0 00       		.byte	0
 3853 01b1 23       		.uleb128 0x23
 3854 01b2 05       		.uleb128 0x5
 3855 01b3 00       		.byte	0
 3856 01b4 31       		.uleb128 0x31
 3857 01b5 13       		.uleb128 0x13
 3858 01b6 02       		.uleb128 0x2
 3859 01b7 17       		.uleb128 0x17
 3860 01b8 00       		.byte	0
 3861 01b9 00       		.byte	0
 3862 01ba 24       		.uleb128 0x24
 3863 01bb 898201   		.uleb128 0x4109
 3864 01be 01       		.byte	0x1
 3865 01bf 11       		.uleb128 0x11
 3866 01c0 01       		.uleb128 0x1
ARM GAS  /tmp/cc0MdUPR.s 			page 69


 3867 01c1 9542     		.uleb128 0x2115
 3868 01c3 19       		.uleb128 0x19
 3869 01c4 31       		.uleb128 0x31
 3870 01c5 13       		.uleb128 0x13
 3871 01c6 00       		.byte	0
 3872 01c7 00       		.byte	0
 3873 01c8 25       		.uleb128 0x25
 3874 01c9 8A8201   		.uleb128 0x410a
 3875 01cc 00       		.byte	0
 3876 01cd 02       		.uleb128 0x2
 3877 01ce 18       		.uleb128 0x18
 3878 01cf 9142     		.uleb128 0x2111
 3879 01d1 18       		.uleb128 0x18
 3880 01d2 00       		.byte	0
 3881 01d3 00       		.byte	0
 3882 01d4 26       		.uleb128 0x26
 3883 01d5 1D       		.uleb128 0x1d
 3884 01d6 01       		.byte	0x1
 3885 01d7 31       		.uleb128 0x31
 3886 01d8 13       		.uleb128 0x13
 3887 01d9 11       		.uleb128 0x11
 3888 01da 01       		.uleb128 0x1
 3889 01db 12       		.uleb128 0x12
 3890 01dc 06       		.uleb128 0x6
 3891 01dd 58       		.uleb128 0x58
 3892 01de 0B       		.uleb128 0xb
 3893 01df 59       		.uleb128 0x59
 3894 01e0 0B       		.uleb128 0xb
 3895 01e1 01       		.uleb128 0x1
 3896 01e2 13       		.uleb128 0x13
 3897 01e3 00       		.byte	0
 3898 01e4 00       		.byte	0
 3899 01e5 27       		.uleb128 0x27
 3900 01e6 898201   		.uleb128 0x4109
 3901 01e9 01       		.byte	0x1
 3902 01ea 11       		.uleb128 0x11
 3903 01eb 01       		.uleb128 0x1
 3904 01ec 31       		.uleb128 0x31
 3905 01ed 13       		.uleb128 0x13
 3906 01ee 00       		.byte	0
 3907 01ef 00       		.byte	0
 3908 01f0 28       		.uleb128 0x28
 3909 01f1 1D       		.uleb128 0x1d
 3910 01f2 01       		.byte	0x1
 3911 01f3 31       		.uleb128 0x31
 3912 01f4 13       		.uleb128 0x13
 3913 01f5 11       		.uleb128 0x11
 3914 01f6 01       		.uleb128 0x1
 3915 01f7 12       		.uleb128 0x12
 3916 01f8 06       		.uleb128 0x6
 3917 01f9 58       		.uleb128 0x58
 3918 01fa 0B       		.uleb128 0xb
 3919 01fb 59       		.uleb128 0x59
 3920 01fc 05       		.uleb128 0x5
 3921 01fd 00       		.byte	0
 3922 01fe 00       		.byte	0
 3923 01ff 29       		.uleb128 0x29
ARM GAS  /tmp/cc0MdUPR.s 			page 70


 3924 0200 1D       		.uleb128 0x1d
 3925 0201 01       		.byte	0x1
 3926 0202 31       		.uleb128 0x31
 3927 0203 13       		.uleb128 0x13
 3928 0204 11       		.uleb128 0x11
 3929 0205 01       		.uleb128 0x1
 3930 0206 12       		.uleb128 0x12
 3931 0207 06       		.uleb128 0x6
 3932 0208 58       		.uleb128 0x58
 3933 0209 0B       		.uleb128 0xb
 3934 020a 59       		.uleb128 0x59
 3935 020b 05       		.uleb128 0x5
 3936 020c 01       		.uleb128 0x1
 3937 020d 13       		.uleb128 0x13
 3938 020e 00       		.byte	0
 3939 020f 00       		.byte	0
 3940 0210 2A       		.uleb128 0x2a
 3941 0211 898201   		.uleb128 0x4109
 3942 0214 00       		.byte	0
 3943 0215 11       		.uleb128 0x11
 3944 0216 01       		.uleb128 0x1
 3945 0217 31       		.uleb128 0x31
 3946 0218 13       		.uleb128 0x13
 3947 0219 00       		.byte	0
 3948 021a 00       		.byte	0
 3949 021b 2B       		.uleb128 0x2b
 3950 021c 898201   		.uleb128 0x4109
 3951 021f 01       		.byte	0x1
 3952 0220 11       		.uleb128 0x11
 3953 0221 01       		.uleb128 0x1
 3954 0222 01       		.uleb128 0x1
 3955 0223 13       		.uleb128 0x13
 3956 0224 00       		.byte	0
 3957 0225 00       		.byte	0
 3958 0226 2C       		.uleb128 0x2c
 3959 0227 898201   		.uleb128 0x4109
 3960 022a 01       		.byte	0x1
 3961 022b 11       		.uleb128 0x11
 3962 022c 01       		.uleb128 0x1
 3963 022d 00       		.byte	0
 3964 022e 00       		.byte	0
 3965 022f 2D       		.uleb128 0x2d
 3966 0230 2E       		.uleb128 0x2e
 3967 0231 01       		.byte	0x1
 3968 0232 3F       		.uleb128 0x3f
 3969 0233 19       		.uleb128 0x19
 3970 0234 03       		.uleb128 0x3
 3971 0235 0E       		.uleb128 0xe
 3972 0236 3A       		.uleb128 0x3a
 3973 0237 0B       		.uleb128 0xb
 3974 0238 3B       		.uleb128 0x3b
 3975 0239 0B       		.uleb128 0xb
 3976 023a 27       		.uleb128 0x27
 3977 023b 19       		.uleb128 0x19
 3978 023c 11       		.uleb128 0x11
 3979 023d 01       		.uleb128 0x1
 3980 023e 12       		.uleb128 0x12
ARM GAS  /tmp/cc0MdUPR.s 			page 71


 3981 023f 06       		.uleb128 0x6
 3982 0240 40       		.uleb128 0x40
 3983 0241 18       		.uleb128 0x18
 3984 0242 9742     		.uleb128 0x2117
 3985 0244 19       		.uleb128 0x19
 3986 0245 01       		.uleb128 0x1
 3987 0246 13       		.uleb128 0x13
 3988 0247 00       		.byte	0
 3989 0248 00       		.byte	0
 3990 0249 2E       		.uleb128 0x2e
 3991 024a 898201   		.uleb128 0x4109
 3992 024d 01       		.byte	0x1
 3993 024e 11       		.uleb128 0x11
 3994 024f 01       		.uleb128 0x1
 3995 0250 31       		.uleb128 0x31
 3996 0251 13       		.uleb128 0x13
 3997 0252 01       		.uleb128 0x1
 3998 0253 13       		.uleb128 0x13
 3999 0254 00       		.byte	0
 4000 0255 00       		.byte	0
 4001 0256 2F       		.uleb128 0x2f
 4002 0257 2E       		.uleb128 0x2e
 4003 0258 01       		.byte	0x1
 4004 0259 3F       		.uleb128 0x3f
 4005 025a 19       		.uleb128 0x19
 4006 025b 03       		.uleb128 0x3
 4007 025c 0E       		.uleb128 0xe
 4008 025d 3A       		.uleb128 0x3a
 4009 025e 0B       		.uleb128 0xb
 4010 025f 3B       		.uleb128 0x3b
 4011 0260 05       		.uleb128 0x5
 4012 0261 27       		.uleb128 0x27
 4013 0262 19       		.uleb128 0x19
 4014 0263 11       		.uleb128 0x11
 4015 0264 01       		.uleb128 0x1
 4016 0265 12       		.uleb128 0x12
 4017 0266 06       		.uleb128 0x6
 4018 0267 40       		.uleb128 0x40
 4019 0268 18       		.uleb128 0x18
 4020 0269 9742     		.uleb128 0x2117
 4021 026b 19       		.uleb128 0x19
 4022 026c 01       		.uleb128 0x1
 4023 026d 13       		.uleb128 0x13
 4024 026e 00       		.byte	0
 4025 026f 00       		.byte	0
 4026 0270 30       		.uleb128 0x30
 4027 0271 05       		.uleb128 0x5
 4028 0272 00       		.byte	0
 4029 0273 03       		.uleb128 0x3
 4030 0274 0E       		.uleb128 0xe
 4031 0275 3A       		.uleb128 0x3a
 4032 0276 0B       		.uleb128 0xb
 4033 0277 3B       		.uleb128 0x3b
 4034 0278 05       		.uleb128 0x5
 4035 0279 49       		.uleb128 0x49
 4036 027a 13       		.uleb128 0x13
 4037 027b 02       		.uleb128 0x2
ARM GAS  /tmp/cc0MdUPR.s 			page 72


 4038 027c 17       		.uleb128 0x17
 4039 027d 00       		.byte	0
 4040 027e 00       		.byte	0
 4041 027f 31       		.uleb128 0x31
 4042 0280 34       		.uleb128 0x34
 4043 0281 00       		.byte	0
 4044 0282 03       		.uleb128 0x3
 4045 0283 0E       		.uleb128 0xe
 4046 0284 49       		.uleb128 0x49
 4047 0285 13       		.uleb128 0x13
 4048 0286 34       		.uleb128 0x34
 4049 0287 19       		.uleb128 0x19
 4050 0288 00       		.byte	0
 4051 0289 00       		.byte	0
 4052 028a 32       		.uleb128 0x32
 4053 028b 05       		.uleb128 0x5
 4054 028c 00       		.byte	0
 4055 028d 03       		.uleb128 0x3
 4056 028e 0E       		.uleb128 0xe
 4057 028f 3A       		.uleb128 0x3a
 4058 0290 0B       		.uleb128 0xb
 4059 0291 3B       		.uleb128 0x3b
 4060 0292 05       		.uleb128 0x5
 4061 0293 49       		.uleb128 0x49
 4062 0294 13       		.uleb128 0x13
 4063 0295 02       		.uleb128 0x2
 4064 0296 18       		.uleb128 0x18
 4065 0297 00       		.byte	0
 4066 0298 00       		.byte	0
 4067 0299 33       		.uleb128 0x33
 4068 029a 05       		.uleb128 0x5
 4069 029b 00       		.byte	0
 4070 029c 03       		.uleb128 0x3
 4071 029d 08       		.uleb128 0x8
 4072 029e 3A       		.uleb128 0x3a
 4073 029f 0B       		.uleb128 0xb
 4074 02a0 3B       		.uleb128 0x3b
 4075 02a1 05       		.uleb128 0x5
 4076 02a2 49       		.uleb128 0x49
 4077 02a3 13       		.uleb128 0x13
 4078 02a4 02       		.uleb128 0x2
 4079 02a5 17       		.uleb128 0x17
 4080 02a6 00       		.byte	0
 4081 02a7 00       		.byte	0
 4082 02a8 34       		.uleb128 0x34
 4083 02a9 05       		.uleb128 0x5
 4084 02aa 00       		.byte	0
 4085 02ab 03       		.uleb128 0x3
 4086 02ac 08       		.uleb128 0x8
 4087 02ad 3A       		.uleb128 0x3a
 4088 02ae 0B       		.uleb128 0xb
 4089 02af 3B       		.uleb128 0x3b
 4090 02b0 05       		.uleb128 0x5
 4091 02b1 49       		.uleb128 0x49
 4092 02b2 13       		.uleb128 0x13
 4093 02b3 02       		.uleb128 0x2
 4094 02b4 18       		.uleb128 0x18
ARM GAS  /tmp/cc0MdUPR.s 			page 73


 4095 02b5 00       		.byte	0
 4096 02b6 00       		.byte	0
 4097 02b7 35       		.uleb128 0x35
 4098 02b8 26       		.uleb128 0x26
 4099 02b9 00       		.byte	0
 4100 02ba 00       		.byte	0
 4101 02bb 00       		.byte	0
 4102 02bc 36       		.uleb128 0x36
 4103 02bd 2E       		.uleb128 0x2e
 4104 02be 01       		.byte	0x1
 4105 02bf 3F       		.uleb128 0x3f
 4106 02c0 19       		.uleb128 0x19
 4107 02c1 03       		.uleb128 0x3
 4108 02c2 0E       		.uleb128 0xe
 4109 02c3 3A       		.uleb128 0x3a
 4110 02c4 0B       		.uleb128 0xb
 4111 02c5 3B       		.uleb128 0x3b
 4112 02c6 05       		.uleb128 0x5
 4113 02c7 27       		.uleb128 0x27
 4114 02c8 19       		.uleb128 0x19
 4115 02c9 49       		.uleb128 0x49
 4116 02ca 13       		.uleb128 0x13
 4117 02cb 11       		.uleb128 0x11
 4118 02cc 01       		.uleb128 0x1
 4119 02cd 12       		.uleb128 0x12
 4120 02ce 06       		.uleb128 0x6
 4121 02cf 40       		.uleb128 0x40
 4122 02d0 18       		.uleb128 0x18
 4123 02d1 9742     		.uleb128 0x2117
 4124 02d3 19       		.uleb128 0x19
 4125 02d4 01       		.uleb128 0x1
 4126 02d5 13       		.uleb128 0x13
 4127 02d6 00       		.byte	0
 4128 02d7 00       		.byte	0
 4129 02d8 37       		.uleb128 0x37
 4130 02d9 34       		.uleb128 0x34
 4131 02da 00       		.byte	0
 4132 02db 03       		.uleb128 0x3
 4133 02dc 0E       		.uleb128 0xe
 4134 02dd 3A       		.uleb128 0x3a
 4135 02de 0B       		.uleb128 0xb
 4136 02df 3B       		.uleb128 0x3b
 4137 02e0 0B       		.uleb128 0xb
 4138 02e1 49       		.uleb128 0x49
 4139 02e2 13       		.uleb128 0x13
 4140 02e3 02       		.uleb128 0x2
 4141 02e4 18       		.uleb128 0x18
 4142 02e5 00       		.byte	0
 4143 02e6 00       		.byte	0
 4144 02e7 38       		.uleb128 0x38
 4145 02e8 34       		.uleb128 0x34
 4146 02e9 00       		.byte	0
 4147 02ea 03       		.uleb128 0x3
 4148 02eb 0E       		.uleb128 0xe
 4149 02ec 3A       		.uleb128 0x3a
 4150 02ed 0B       		.uleb128 0xb
 4151 02ee 3B       		.uleb128 0x3b
ARM GAS  /tmp/cc0MdUPR.s 			page 74


 4152 02ef 05       		.uleb128 0x5
 4153 02f0 49       		.uleb128 0x49
 4154 02f1 13       		.uleb128 0x13
 4155 02f2 3F       		.uleb128 0x3f
 4156 02f3 19       		.uleb128 0x19
 4157 02f4 3C       		.uleb128 0x3c
 4158 02f5 19       		.uleb128 0x19
 4159 02f6 00       		.byte	0
 4160 02f7 00       		.byte	0
 4161 02f8 39       		.uleb128 0x39
 4162 02f9 34       		.uleb128 0x34
 4163 02fa 00       		.byte	0
 4164 02fb 03       		.uleb128 0x3
 4165 02fc 08       		.uleb128 0x8
 4166 02fd 3A       		.uleb128 0x3a
 4167 02fe 0B       		.uleb128 0xb
 4168 02ff 3B       		.uleb128 0x3b
 4169 0300 05       		.uleb128 0x5
 4170 0301 49       		.uleb128 0x49
 4171 0302 13       		.uleb128 0x13
 4172 0303 3F       		.uleb128 0x3f
 4173 0304 19       		.uleb128 0x19
 4174 0305 3C       		.uleb128 0x3c
 4175 0306 19       		.uleb128 0x19
 4176 0307 00       		.byte	0
 4177 0308 00       		.byte	0
 4178 0309 3A       		.uleb128 0x3a
 4179 030a 34       		.uleb128 0x34
 4180 030b 00       		.byte	0
 4181 030c 03       		.uleb128 0x3
 4182 030d 0E       		.uleb128 0xe
 4183 030e 3A       		.uleb128 0x3a
 4184 030f 0B       		.uleb128 0xb
 4185 0310 3B       		.uleb128 0x3b
 4186 0311 0B       		.uleb128 0xb
 4187 0312 49       		.uleb128 0x49
 4188 0313 13       		.uleb128 0x13
 4189 0314 3F       		.uleb128 0x3f
 4190 0315 19       		.uleb128 0x19
 4191 0316 02       		.uleb128 0x2
 4192 0317 18       		.uleb128 0x18
 4193 0318 00       		.byte	0
 4194 0319 00       		.byte	0
 4195 031a 3B       		.uleb128 0x3b
 4196 031b 2E       		.uleb128 0x2e
 4197 031c 01       		.byte	0x1
 4198 031d 3F       		.uleb128 0x3f
 4199 031e 19       		.uleb128 0x19
 4200 031f 03       		.uleb128 0x3
 4201 0320 0E       		.uleb128 0xe
 4202 0321 3A       		.uleb128 0x3a
 4203 0322 0B       		.uleb128 0xb
 4204 0323 3B       		.uleb128 0x3b
 4205 0324 0B       		.uleb128 0xb
 4206 0325 27       		.uleb128 0x27
 4207 0326 19       		.uleb128 0x19
 4208 0327 3C       		.uleb128 0x3c
ARM GAS  /tmp/cc0MdUPR.s 			page 75


 4209 0328 19       		.uleb128 0x19
 4210 0329 01       		.uleb128 0x1
 4211 032a 13       		.uleb128 0x13
 4212 032b 00       		.byte	0
 4213 032c 00       		.byte	0
 4214 032d 3C       		.uleb128 0x3c
 4215 032e 2E       		.uleb128 0x2e
 4216 032f 00       		.byte	0
 4217 0330 3F       		.uleb128 0x3f
 4218 0331 19       		.uleb128 0x19
 4219 0332 03       		.uleb128 0x3
 4220 0333 0E       		.uleb128 0xe
 4221 0334 3A       		.uleb128 0x3a
 4222 0335 0B       		.uleb128 0xb
 4223 0336 3B       		.uleb128 0x3b
 4224 0337 0B       		.uleb128 0xb
 4225 0338 27       		.uleb128 0x27
 4226 0339 19       		.uleb128 0x19
 4227 033a 3C       		.uleb128 0x3c
 4228 033b 19       		.uleb128 0x19
 4229 033c 00       		.byte	0
 4230 033d 00       		.byte	0
 4231 033e 3D       		.uleb128 0x3d
 4232 033f 2E       		.uleb128 0x2e
 4233 0340 01       		.byte	0x1
 4234 0341 3F       		.uleb128 0x3f
 4235 0342 19       		.uleb128 0x19
 4236 0343 03       		.uleb128 0x3
 4237 0344 0E       		.uleb128 0xe
 4238 0345 3A       		.uleb128 0x3a
 4239 0346 0B       		.uleb128 0xb
 4240 0347 3B       		.uleb128 0x3b
 4241 0348 05       		.uleb128 0x5
 4242 0349 27       		.uleb128 0x27
 4243 034a 19       		.uleb128 0x19
 4244 034b 3C       		.uleb128 0x3c
 4245 034c 19       		.uleb128 0x19
 4246 034d 01       		.uleb128 0x1
 4247 034e 13       		.uleb128 0x13
 4248 034f 00       		.byte	0
 4249 0350 00       		.byte	0
 4250 0351 3E       		.uleb128 0x3e
 4251 0352 2E       		.uleb128 0x2e
 4252 0353 01       		.byte	0x1
 4253 0354 3F       		.uleb128 0x3f
 4254 0355 19       		.uleb128 0x19
 4255 0356 03       		.uleb128 0x3
 4256 0357 0E       		.uleb128 0xe
 4257 0358 3A       		.uleb128 0x3a
 4258 0359 0B       		.uleb128 0xb
 4259 035a 3B       		.uleb128 0x3b
 4260 035b 05       		.uleb128 0x5
 4261 035c 27       		.uleb128 0x27
 4262 035d 19       		.uleb128 0x19
 4263 035e 49       		.uleb128 0x49
 4264 035f 13       		.uleb128 0x13
 4265 0360 3C       		.uleb128 0x3c
ARM GAS  /tmp/cc0MdUPR.s 			page 76


 4266 0361 19       		.uleb128 0x19
 4267 0362 01       		.uleb128 0x1
 4268 0363 13       		.uleb128 0x13
 4269 0364 00       		.byte	0
 4270 0365 00       		.byte	0
 4271 0366 3F       		.uleb128 0x3f
 4272 0367 2E       		.uleb128 0x2e
 4273 0368 01       		.byte	0x1
 4274 0369 3F       		.uleb128 0x3f
 4275 036a 19       		.uleb128 0x19
 4276 036b 03       		.uleb128 0x3
 4277 036c 0E       		.uleb128 0xe
 4278 036d 3A       		.uleb128 0x3a
 4279 036e 0B       		.uleb128 0xb
 4280 036f 3B       		.uleb128 0x3b
 4281 0370 05       		.uleb128 0x5
 4282 0371 27       		.uleb128 0x27
 4283 0372 19       		.uleb128 0x19
 4284 0373 3C       		.uleb128 0x3c
 4285 0374 19       		.uleb128 0x19
 4286 0375 00       		.byte	0
 4287 0376 00       		.byte	0
 4288 0377 00       		.byte	0
 4289              		.section	.debug_loc,"",%progbits
 4290              	.Ldebug_loc0:
 4291              	.LLST0:
 4292 0000 00000000 		.4byte	.LVL0
 4293 0004 08000000 		.4byte	.LVL2
 4294 0008 0100     		.2byte	0x1
 4295 000a 50       		.byte	0x50
 4296 000b 08000000 		.4byte	.LVL2
 4297 000f 0C000000 		.4byte	.LVL3
 4298 0013 0400     		.2byte	0x4
 4299 0015 F3       		.byte	0xf3
 4300 0016 01       		.uleb128 0x1
 4301 0017 50       		.byte	0x50
 4302 0018 9F       		.byte	0x9f
 4303 0019 0C000000 		.4byte	.LVL3
 4304 001d 14000000 		.4byte	.LFE324
 4305 0021 0100     		.2byte	0x1
 4306 0023 50       		.byte	0x50
 4307 0024 00000000 		.4byte	0
 4308 0028 00000000 		.4byte	0
 4309              	.LLST1:
 4310 002c 00000000 		.4byte	.LVL0
 4311 0030 0B000000 		.4byte	.LVL3-1
 4312 0034 0100     		.2byte	0x1
 4313 0036 51       		.byte	0x51
 4314 0037 0B000000 		.4byte	.LVL3-1
 4315 003b 0C000000 		.4byte	.LVL3
 4316 003f 0400     		.2byte	0x4
 4317 0041 F3       		.byte	0xf3
 4318 0042 01       		.uleb128 0x1
 4319 0043 51       		.byte	0x51
 4320 0044 9F       		.byte	0x9f
 4321 0045 0C000000 		.4byte	.LVL3
 4322 0049 14000000 		.4byte	.LFE324
ARM GAS  /tmp/cc0MdUPR.s 			page 77


 4323 004d 0100     		.2byte	0x1
 4324 004f 51       		.byte	0x51
 4325 0050 00000000 		.4byte	0
 4326 0054 00000000 		.4byte	0
 4327              	.LLST2:
 4328 0058 06000000 		.4byte	.LVL1
 4329 005c 0C000000 		.4byte	.LVL3
 4330 0060 0600     		.2byte	0x6
 4331 0062 03       		.byte	0x3
 4332 0063 00000000 		.4byte	.LC0
 4333 0067 9F       		.byte	0x9f
 4334 0068 00000000 		.4byte	0
 4335 006c 00000000 		.4byte	0
 4336              	.LLST3:
 4337 0070 00000000 		.4byte	.LVL4
 4338 0074 0E000000 		.4byte	.LVL6
 4339 0078 0100     		.2byte	0x1
 4340 007a 50       		.byte	0x50
 4341 007b 0E000000 		.4byte	.LVL6
 4342 007f B2000000 		.4byte	.LVL19
 4343 0083 0100     		.2byte	0x1
 4344 0085 54       		.byte	0x54
 4345 0086 B2000000 		.4byte	.LVL19
 4346 008a B8000000 		.4byte	.LFE323
 4347 008e 0400     		.2byte	0x4
 4348 0090 F3       		.byte	0xf3
 4349 0091 01       		.uleb128 0x1
 4350 0092 50       		.byte	0x50
 4351 0093 9F       		.byte	0x9f
 4352 0094 00000000 		.4byte	0
 4353 0098 00000000 		.4byte	0
 4354              	.LLST4:
 4355 009c 00000000 		.4byte	.LVL4
 4356 00a0 11000000 		.4byte	.LVL7-1
 4357 00a4 0100     		.2byte	0x1
 4358 00a6 51       		.byte	0x51
 4359 00a7 11000000 		.4byte	.LVL7-1
 4360 00ab 50000000 		.4byte	.LVL11
 4361 00af 0100     		.2byte	0x1
 4362 00b1 55       		.byte	0x55
 4363 00b2 50000000 		.4byte	.LVL11
 4364 00b6 B8000000 		.4byte	.LFE323
 4365 00ba 0400     		.2byte	0x4
 4366 00bc F3       		.byte	0xf3
 4367 00bd 01       		.uleb128 0x1
 4368 00be 51       		.byte	0x51
 4369 00bf 9F       		.byte	0x9f
 4370 00c0 00000000 		.4byte	0
 4371 00c4 00000000 		.4byte	0
 4372              	.LLST5:
 4373 00c8 0C000000 		.4byte	.LVL5
 4374 00cc 12000000 		.4byte	.LVL7
 4375 00d0 0600     		.2byte	0x6
 4376 00d2 03       		.byte	0x3
 4377 00d3 00000000 		.4byte	.LC0
 4378 00d7 9F       		.byte	0x9f
 4379 00d8 00000000 		.4byte	0
ARM GAS  /tmp/cc0MdUPR.s 			page 78


 4380 00dc 00000000 		.4byte	0
 4381              	.LLST6:
 4382 00e0 92000000 		.4byte	.LVL13
 4383 00e4 B0000000 		.4byte	.LVL18
 4384 00e8 0300     		.2byte	0x3
 4385 00ea 08       		.byte	0x8
 4386 00eb 20       		.byte	0x20
 4387 00ec 9F       		.byte	0x9f
 4388 00ed 00000000 		.4byte	0
 4389 00f1 00000000 		.4byte	0
 4390              	.LLST7:
 4391 00f5 9C000000 		.4byte	.LVL14
 4392 00f9 B0000000 		.4byte	.LVL18
 4393 00fd 0200     		.2byte	0x2
 4394 00ff 30       		.byte	0x30
 4395 0100 9F       		.byte	0x9f
 4396 0101 00000000 		.4byte	0
 4397 0105 00000000 		.4byte	0
 4398              	.LLST8:
 4399 0109 9C000000 		.4byte	.LVL14
 4400 010d A0000000 		.4byte	.LVL15
 4401 0111 0300     		.2byte	0x3
 4402 0113 74       		.byte	0x74
 4403 0114 08       		.sleb128 8
 4404 0115 9F       		.byte	0x9f
 4405 0116 A0000000 		.4byte	.LVL15
 4406 011a A5000000 		.4byte	.LVL16-1
 4407 011e 0100     		.2byte	0x1
 4408 0120 50       		.byte	0x50
 4409 0121 A5000000 		.4byte	.LVL16-1
 4410 0125 B0000000 		.4byte	.LVL18
 4411 0129 0300     		.2byte	0x3
 4412 012b 74       		.byte	0x74
 4413 012c 08       		.sleb128 8
 4414 012d 9F       		.byte	0x9f
 4415 012e 00000000 		.4byte	0
 4416 0132 00000000 		.4byte	0
 4417              	.LLST9:
 4418 0136 AA000000 		.4byte	.LVL17
 4419 013a B0000000 		.4byte	.LVL18
 4420 013e 0200     		.2byte	0x2
 4421 0140 30       		.byte	0x30
 4422 0141 9F       		.byte	0x9f
 4423 0142 00000000 		.4byte	0
 4424 0146 00000000 		.4byte	0
 4425              	.LLST10:
 4426 014a 00000000 		.4byte	.LVL22
 4427 014e 18000000 		.4byte	.LVL23
 4428 0152 0100     		.2byte	0x1
 4429 0154 50       		.byte	0x50
 4430 0155 18000000 		.4byte	.LVL23
 4431 0159 1B000000 		.4byte	.LVL24-1
 4432 015d 0100     		.2byte	0x1
 4433 015f 53       		.byte	0x53
 4434 0160 1B000000 		.4byte	.LVL24-1
 4435 0164 42000000 		.4byte	.LVL26
 4436 0168 0100     		.2byte	0x1
ARM GAS  /tmp/cc0MdUPR.s 			page 79


 4437 016a 54       		.byte	0x54
 4438 016b 42000000 		.4byte	.LVL26
 4439 016f 50000000 		.4byte	.LVL27
 4440 0173 0100     		.2byte	0x1
 4441 0175 50       		.byte	0x50
 4442 0176 50000000 		.4byte	.LVL27
 4443 017a F8000000 		.4byte	.LVL30
 4444 017e 0100     		.2byte	0x1
 4445 0180 54       		.byte	0x54
 4446 0181 F8000000 		.4byte	.LVL30
 4447 0185 0C010000 		.4byte	.LFE326
 4448 0189 0400     		.2byte	0x4
 4449 018b F3       		.byte	0xf3
 4450 018c 01       		.uleb128 0x1
 4451 018d 50       		.byte	0x50
 4452 018e 9F       		.byte	0x9f
 4453 018f 00000000 		.4byte	0
 4454 0193 00000000 		.4byte	0
 4455              	.LLST11:
 4456 0197 00000000 		.4byte	.LVL31
 4457 019b 0E000000 		.4byte	.LVL32
 4458 019f 0100     		.2byte	0x1
 4459 01a1 50       		.byte	0x50
 4460 01a2 0E000000 		.4byte	.LVL32
 4461 01a6 62000000 		.4byte	.LVL36
 4462 01aa 0100     		.2byte	0x1
 4463 01ac 54       		.byte	0x54
 4464 01ad 62000000 		.4byte	.LVL36
 4465 01b1 70000000 		.4byte	.LFE327
 4466 01b5 0400     		.2byte	0x4
 4467 01b7 F3       		.byte	0xf3
 4468 01b8 01       		.uleb128 0x1
 4469 01b9 50       		.byte	0x50
 4470 01ba 9F       		.byte	0x9f
 4471 01bb 00000000 		.4byte	0
 4472 01bf 00000000 		.4byte	0
 4473              	.LLST12:
 4474 01c3 00000000 		.4byte	.LVL37
 4475 01c7 1C000000 		.4byte	.LVL38
 4476 01cb 0100     		.2byte	0x1
 4477 01cd 51       		.byte	0x51
 4478 01ce 1C000000 		.4byte	.LVL38
 4479 01d2 1E000000 		.4byte	.LVL39
 4480 01d6 0200     		.2byte	0x2
 4481 01d8 73       		.byte	0x73
 4482 01d9 04       		.sleb128 4
 4483 01da 1E000000 		.4byte	.LVL39
 4484 01de 38000000 		.4byte	.LFE328
 4485 01e2 0400     		.2byte	0x4
 4486 01e4 F3       		.byte	0xf3
 4487 01e5 01       		.uleb128 0x1
 4488 01e6 51       		.byte	0x51
 4489 01e7 9F       		.byte	0x9f
 4490 01e8 00000000 		.4byte	0
 4491 01ec 00000000 		.4byte	0
 4492              	.LLST13:
 4493 01f0 00000000 		.4byte	.LVL40
ARM GAS  /tmp/cc0MdUPR.s 			page 80


 4494 01f4 1A000000 		.4byte	.LVL43
 4495 01f8 0100     		.2byte	0x1
 4496 01fa 52       		.byte	0x52
 4497 01fb 1A000000 		.4byte	.LVL43
 4498 01ff 1C000000 		.4byte	.LVL44
 4499 0203 0200     		.2byte	0x2
 4500 0205 73       		.byte	0x73
 4501 0206 0C       		.sleb128 12
 4502 0207 1C000000 		.4byte	.LVL44
 4503 020b 34000000 		.4byte	.LFE329
 4504 020f 0400     		.2byte	0x4
 4505 0211 F3       		.byte	0xf3
 4506 0212 01       		.uleb128 0x1
 4507 0213 52       		.byte	0x52
 4508 0214 9F       		.byte	0x9f
 4509 0215 00000000 		.4byte	0
 4510 0219 00000000 		.4byte	0
 4511              	.LLST14:
 4512 021d 00000000 		.4byte	.LVL40
 4513 0221 0A000000 		.4byte	.LVL41
 4514 0225 0100     		.2byte	0x1
 4515 0227 53       		.byte	0x53
 4516 0228 0A000000 		.4byte	.LVL41
 4517 022c 0C000000 		.4byte	.LVL42
 4518 0230 0200     		.2byte	0x2
 4519 0232 74       		.byte	0x74
 4520 0233 0C       		.sleb128 12
 4521 0234 0C000000 		.4byte	.LVL42
 4522 0238 34000000 		.4byte	.LFE329
 4523 023c 0400     		.2byte	0x4
 4524 023e F3       		.byte	0xf3
 4525 023f 01       		.uleb128 0x1
 4526 0240 53       		.byte	0x53
 4527 0241 9F       		.byte	0x9f
 4528 0242 00000000 		.4byte	0
 4529 0246 00000000 		.4byte	0
 4530              	.LLST15:
 4531 024a 00000000 		.4byte	.LVL45
 4532 024e 18000000 		.4byte	.LVL46
 4533 0252 0100     		.2byte	0x1
 4534 0254 52       		.byte	0x52
 4535 0255 18000000 		.4byte	.LVL46
 4536 0259 1A000000 		.4byte	.LVL47
 4537 025d 0200     		.2byte	0x2
 4538 025f 73       		.byte	0x73
 4539 0260 0C       		.sleb128 12
 4540 0261 1A000000 		.4byte	.LVL47
 4541 0265 38000000 		.4byte	.LFE330
 4542 0269 0400     		.2byte	0x4
 4543 026b F3       		.byte	0xf3
 4544 026c 01       		.uleb128 0x1
 4545 026d 52       		.byte	0x52
 4546 026e 9F       		.byte	0x9f
 4547 026f 00000000 		.4byte	0
 4548 0273 00000000 		.4byte	0
 4549              	.LLST16:
 4550 0277 00000000 		.4byte	.LVL48
ARM GAS  /tmp/cc0MdUPR.s 			page 81


 4551 027b 16000000 		.4byte	.LVL49
 4552 027f 0100     		.2byte	0x1
 4553 0281 52       		.byte	0x52
 4554 0282 16000000 		.4byte	.LVL49
 4555 0286 38000000 		.4byte	.LFE331
 4556 028a 0400     		.2byte	0x4
 4557 028c F3       		.byte	0xf3
 4558 028d 01       		.uleb128 0x1
 4559 028e 52       		.byte	0x52
 4560 028f 9F       		.byte	0x9f
 4561 0290 00000000 		.4byte	0
 4562 0294 00000000 		.4byte	0
 4563              	.LLST17:
 4564 0298 00000000 		.4byte	.LVL51
 4565 029c 0C000000 		.4byte	.LVL52
 4566 02a0 0100     		.2byte	0x1
 4567 02a2 50       		.byte	0x50
 4568 02a3 0C000000 		.4byte	.LVL52
 4569 02a7 10000000 		.4byte	.LFE333
 4570 02ab 0400     		.2byte	0x4
 4571 02ad F3       		.byte	0xf3
 4572 02ae 01       		.uleb128 0x1
 4573 02af 50       		.byte	0x50
 4574 02b0 9F       		.byte	0x9f
 4575 02b1 00000000 		.4byte	0
 4576 02b5 00000000 		.4byte	0
 4577              		.section	.debug_aranges,"",%progbits
 4578 0000 6C000000 		.4byte	0x6c
 4579 0004 0200     		.2byte	0x2
 4580 0006 00000000 		.4byte	.Ldebug_info0
 4581 000a 04       		.byte	0x4
 4582 000b 00       		.byte	0
 4583 000c 0000     		.2byte	0
 4584 000e 0000     		.2byte	0
 4585 0010 00000000 		.4byte	.LFB324
 4586 0014 14000000 		.4byte	.LFE324-.LFB324
 4587 0018 00000000 		.4byte	.LFB323
 4588 001c B8000000 		.4byte	.LFE323-.LFB323
 4589 0020 00000000 		.4byte	.LFB325
 4590 0024 50000000 		.4byte	.LFE325-.LFB325
 4591 0028 00000000 		.4byte	.LFB326
 4592 002c 0C010000 		.4byte	.LFE326-.LFB326
 4593 0030 00000000 		.4byte	.LFB327
 4594 0034 70000000 		.4byte	.LFE327-.LFB327
 4595 0038 00000000 		.4byte	.LFB328
 4596 003c 38000000 		.4byte	.LFE328-.LFB328
 4597 0040 00000000 		.4byte	.LFB329
 4598 0044 34000000 		.4byte	.LFE329-.LFB329
 4599 0048 00000000 		.4byte	.LFB330
 4600 004c 38000000 		.4byte	.LFE330-.LFB330
 4601 0050 00000000 		.4byte	.LFB331
 4602 0054 38000000 		.4byte	.LFE331-.LFB331
 4603 0058 00000000 		.4byte	.LFB332
 4604 005c 3A000000 		.4byte	.LFE332-.LFB332
 4605 0060 00000000 		.4byte	.LFB333
 4606 0064 10000000 		.4byte	.LFE333-.LFB333
 4607 0068 00000000 		.4byte	0
ARM GAS  /tmp/cc0MdUPR.s 			page 82


 4608 006c 00000000 		.4byte	0
 4609              		.section	.debug_ranges,"",%progbits
 4610              	.Ldebug_ranges0:
 4611 0000 00000000 		.4byte	.LFB324
 4612 0004 14000000 		.4byte	.LFE324
 4613 0008 00000000 		.4byte	.LFB323
 4614 000c B8000000 		.4byte	.LFE323
 4615 0010 00000000 		.4byte	.LFB325
 4616 0014 50000000 		.4byte	.LFE325
 4617 0018 00000000 		.4byte	.LFB326
 4618 001c 0C010000 		.4byte	.LFE326
 4619 0020 00000000 		.4byte	.LFB327
 4620 0024 70000000 		.4byte	.LFE327
 4621 0028 00000000 		.4byte	.LFB328
 4622 002c 38000000 		.4byte	.LFE328
 4623 0030 00000000 		.4byte	.LFB329
 4624 0034 34000000 		.4byte	.LFE329
 4625 0038 00000000 		.4byte	.LFB330
 4626 003c 38000000 		.4byte	.LFE330
 4627 0040 00000000 		.4byte	.LFB331
 4628 0044 38000000 		.4byte	.LFE331
 4629 0048 00000000 		.4byte	.LFB332
 4630 004c 3A000000 		.4byte	.LFE332
 4631 0050 00000000 		.4byte	.LFB333
 4632 0054 10000000 		.4byte	.LFE333
 4633 0058 00000000 		.4byte	0
 4634 005c 00000000 		.4byte	0
 4635              		.section	.debug_line,"",%progbits
 4636              	.Ldebug_line0:
 4637 0000 C1050000 		.section	.debug_str,"MS",%progbits,1
 4637      0200BF03 
 4637      00000201 
 4637      FB0E0D00 
 4637      01010101 
 4638              	.LASF81:
 4639 0000 4D314152 		.ascii	"M1AR\000"
 4639      00
 4640              	.LASF154:
 4641 0005 73746D33 		.ascii	"stm32_dma_stream_t\000"
 4641      325F646D 
 4641      615F7374 
 4641      7265616D 
 4641      5F7400
 4642              	.LASF2:
 4643 0018 73697A65 		.ascii	"size_t\000"
 4643      5F7400
 4644              	.LASF78:
 4645 001f 73697A65 		.ascii	"sizetype\000"
 4645      74797065 
 4645      00
 4646              	.LASF138:
 4647 0028 77747365 		.ascii	"wtsemp\000"
 4647      6D7000
 4648              	.LASF76:
 4649 002f 73797374 		.ascii	"systime_t\000"
 4649      696D655F 
 4649      7400
ARM GAS  /tmp/cc0MdUPR.s 			page 83


 4650              	.LASF109:
 4651 0039 504C4C49 		.ascii	"PLLI2SCFGR\000"
 4651      32534346 
 4651      475200
 4652              	.LASF143:
 4653 0044 6F776E65 		.ascii	"owner\000"
 4653      7200
 4654              	.LASF26:
 4655 004a 74707269 		.ascii	"tprio_t\000"
 4655      6F5F7400 
 4656              	.LASF17:
 4657 0052 696E7433 		.ascii	"int32_t\000"
 4657      325F7400 
 4658              	.LASF222:
 4659 005a 63685468 		.ascii	"chThdResumeI\000"
 4659      64526573 
 4659      756D6549 
 4659      00
 4660              	.LASF59:
 4661 0067 76746675 		.ascii	"vtfunc_t\000"
 4661      6E635F74 
 4661      00
 4662              	.LASF65:
 4663 0070 63685F76 		.ascii	"ch_virtual_timers_list\000"
 4663      69727475 
 4663      616C5F74 
 4663      696D6572 
 4663      735F6C69 
 4664              	.LASF185:
 4665 0087 7373706F 		.ascii	"ssport\000"
 4665      727400
 4666              	.LASF208:
 4667 008e 5F5F6675 		.ascii	"__func__\000"
 4667      6E635F5F 
 4667      00
 4668              	.LASF173:
 4669 0097 68616C5F 		.ascii	"hal_spi_driver\000"
 4669      7370695F 
 4669      64726976 
 4669      657200
 4670              	.LASF217:
 4671 00a6 64756D6D 		.ascii	"dummyrx\000"
 4671      79727800 
 4672              	.LASF174:
 4673 00ae 636F6E66 		.ascii	"config\000"
 4673      696700
 4674              	.LASF38:
 4675 00b5 73746174 		.ascii	"state\000"
 4675      6500
 4676              	.LASF47:
 4677 00bb 73746174 		.ascii	"stats\000"
 4677      7300
 4678              	.LASF219:
 4679 00c1 53504944 		.ascii	"SPID1\000"
 4679      3100
 4680              	.LASF220:
 4681 00c7 53504944 		.ascii	"SPID2\000"
ARM GAS  /tmp/cc0MdUPR.s 			page 84


 4681      3200
 4682              	.LASF196:
 4683 00cd 6F73616C 		.ascii	"osalSysLockFromISR\000"
 4683      5379734C 
 4683      6F636B46 
 4683      726F6D49 
 4683      535200
 4684              	.LASF33:
 4685 00e0 7072696F 		.ascii	"prio\000"
 4685      00
 4686              	.LASF206:
 4687 00e5 7370695F 		.ascii	"spi_lld_stop\000"
 4687      6C6C645F 
 4687      73746F70 
 4687      00
 4688              	.LASF197:
 4689 00f2 6F73616C 		.ascii	"osalThreadResumeI\000"
 4689      54687265 
 4689      61645265 
 4689      73756D65 
 4689      4900
 4690              	.LASF184:
 4691 0104 656E645F 		.ascii	"end_cb\000"
 4691      636200
 4692              	.LASF134:
 4693 010b 65786974 		.ascii	"exitcode\000"
 4693      636F6465 
 4693      00
 4694              	.LASF114:
 4695 0114 49325343 		.ascii	"I2SCFGR\000"
 4695      46475200 
 4696              	.LASF3:
 4697 011c 5F5F7569 		.ascii	"__uint8_t\000"
 4697      6E74385F 
 4697      7400
 4698              	.LASF148:
 4699 0126 73747265 		.ascii	"stream\000"
 4699      616D00
 4700              	.LASF100:
 4701 012d 41484232 		.ascii	"AHB2LPENR\000"
 4701      4C50454E 
 4701      5200
 4702              	.LASF216:
 4703 0137 64756D6D 		.ascii	"dummytx\000"
 4703      79747800 
 4704              	.LASF167:
 4705 013f 5350495F 		.ascii	"SPI_STOP\000"
 4705      53544F50 
 4705      00
 4706              	.LASF9:
 4707 0148 6C6F6E67 		.ascii	"long int\000"
 4707      20696E74 
 4707      00
 4708              	.LASF166:
 4709 0151 5350495F 		.ascii	"SPI_UNINIT\000"
 4709      554E494E 
 4709      495400
ARM GAS  /tmp/cc0MdUPR.s 			page 85


 4710              	.LASF189:
 4711 015c 706F7274 		.ascii	"port_unlock\000"
 4711      5F756E6C 
 4711      6F636B00 
 4712              	.LASF207:
 4713 0168 7370695F 		.ascii	"spi_lld_ignore\000"
 4713      6C6C645F 
 4713      69676E6F 
 4713      726500
 4714              	.LASF200:
 4715 0177 63685379 		.ascii	"chSysLockFromISR\000"
 4715      734C6F63 
 4715      6B46726F 
 4715      6D495352 
 4715      00
 4716              	.LASF165:
 4717 0188 696F706F 		.ascii	"ioportid_t\000"
 4717      72746964 
 4717      5F7400
 4718              	.LASF24:
 4719 0193 74737461 		.ascii	"tstate_t\000"
 4719      74655F74 
 4719      00
 4720              	.LASF22:
 4721 019c 72747469 		.ascii	"rttime_t\000"
 4721      6D655F74 
 4721      00
 4722              	.LASF53:
 4723 01a5 74687265 		.ascii	"threads_queue_t\000"
 4723      6164735F 
 4723      71756575 
 4723      655F7400 
 4724              	.LASF151:
 4725 01b5 73686966 		.ascii	"shift\000"
 4725      7400
 4726              	.LASF210:
 4727 01bb 74786275 		.ascii	"txbuf\000"
 4727      6600
 4728              	.LASF117:
 4729 01c1 72656761 		.ascii	"regarm_t\000"
 4729      726D5F74 
 4729      00
 4730              	.LASF203:
 4731 01ca 7370695F 		.ascii	"spi_lld_serve_rx_interrupt\000"
 4731      6C6C645F 
 4731      73657276 
 4731      655F7278 
 4731      5F696E74 
 4732              	.LASF97:
 4733 01e5 41504232 		.ascii	"APB2ENR\000"
 4733      454E5200 
 4734              	.LASF99:
 4735 01ed 41484231 		.ascii	"AHB1LPENR\000"
 4735      4C50454E 
 4735      5200
 4736              	.LASF68:
 4737 01f7 63685F73 		.ascii	"ch_system_debug\000"
ARM GAS  /tmp/cc0MdUPR.s 			page 86


 4737      79737465 
 4737      6D5F6465 
 4737      62756700 
 4738              	.LASF231:
 4739 0207 646D6153 		.ascii	"dmaStreamFreeI\000"
 4739      74726561 
 4739      6D467265 
 4739      654900
 4740              	.LASF126:
 4741 0216 63756D75 		.ascii	"cumulative\000"
 4741      6C617469 
 4741      766500
 4742              	.LASF1:
 4743 0221 7369676E 		.ascii	"signed char\000"
 4743      65642063 
 4743      68617200 
 4744              	.LASF140:
 4745 022d 65776D61 		.ascii	"ewmask\000"
 4745      736B00
 4746              	.LASF15:
 4747 0234 75696E74 		.ascii	"uint8_t\000"
 4747      385F7400 
 4748              	.LASF28:
 4749 023c 6576656E 		.ascii	"eventmask_t\000"
 4749      746D6173 
 4749      6B5F7400 
 4750              	.LASF205:
 4751 0248 7370695F 		.ascii	"spi_lld_start\000"
 4751      6C6C645F 
 4751      73746172 
 4751      7400
 4752              	.LASF136:
 4753 0256 77747472 		.ascii	"wttrp\000"
 4753      7000
 4754              	.LASF201:
 4755 025c 63685379 		.ascii	"chSysUnlockFromISR\000"
 4755      73556E6C 
 4755      6F636B46 
 4755      726F6D49 
 4755      535200
 4756              	.LASF88:
 4757 026f 52455345 		.ascii	"RESERVED0\000"
 4757      52564544 
 4757      3000
 4758              	.LASF91:
 4759 0279 52455345 		.ascii	"RESERVED1\000"
 4759      52564544 
 4759      3100
 4760              	.LASF4:
 4761 0283 756E7369 		.ascii	"unsigned char\000"
 4761      676E6564 
 4761      20636861 
 4761      7200
 4762              	.LASF98:
 4763 0291 52455345 		.ascii	"RESERVED3\000"
 4763      52564544 
 4763      3300
ARM GAS  /tmp/cc0MdUPR.s 			page 87


 4764              	.LASF102:
 4765 029b 52455345 		.ascii	"RESERVED4\000"
 4765      52564544 
 4765      3400
 4766              	.LASF105:
 4767 02a5 52455345 		.ascii	"RESERVED5\000"
 4767      52564544 
 4767      3500
 4768              	.LASF66:
 4769 02af 6C617374 		.ascii	"lasttime\000"
 4769      74696D65 
 4769      00
 4770              	.LASF164:
 4771 02b8 73746D33 		.ascii	"stm32_gpio_t\000"
 4771      325F6770 
 4771      696F5F74 
 4771      00
 4772              	.LASF187:
 4773 02c5 73706963 		.ascii	"spicallback_t\000"
 4773      616C6C62 
 4773      61636B5F 
 4773      7400
 4774              	.LASF69:
 4775 02d3 70616E69 		.ascii	"panic_msg\000"
 4775      635F6D73 
 4775      6700
 4776              	.LASF212:
 4777 02dd 7370695F 		.ascii	"spi_lld_send\000"
 4777      6C6C645F 
 4777      73656E64 
 4777      00
 4778              	.LASF67:
 4779 02ea 73797374 		.ascii	"system_debug_t\000"
 4779      656D5F64 
 4779      65627567 
 4779      5F7400
 4780              	.LASF146:
 4781 02f9 5F426F6F 		.ascii	"_Bool\000"
 4781      6C00
 4782              	.LASF95:
 4783 02ff 52455345 		.ascii	"RESERVED2\000"
 4783      52564544 
 4783      3200
 4784              	.LASF107:
 4785 0309 52455345 		.ascii	"RESERVED6\000"
 4785      52564544 
 4785      3600
 4786              	.LASF144:
 4787 0313 63686172 		.ascii	"char\000"
 4787      00
 4788              	.LASF85:
 4789 0318 41484231 		.ascii	"AHB1RSTR\000"
 4789      52535452 
 4789      00
 4790              	.LASF172:
 4791 0321 53504944 		.ascii	"SPIDriver\000"
 4791      72697665 
ARM GAS  /tmp/cc0MdUPR.s 			page 88


 4791      7200
 4792              	.LASF6:
 4793 032b 5F5F7569 		.ascii	"__uint16_t\000"
 4793      6E743136 
 4793      5F7400
 4794              	.LASF93:
 4795 0336 41484232 		.ascii	"AHB2ENR\000"
 4795      454E5200 
 4796              	.LASF135:
 4797 033e 77746F62 		.ascii	"wtobjp\000"
 4797      6A7000
 4798              	.LASF129:
 4799 0345 6E5F6374 		.ascii	"n_ctxswc\000"
 4799      78737763 
 4799      00
 4800              	.LASF39:
 4801 034e 666C6167 		.ascii	"flags\000"
 4801      7300
 4802              	.LASF202:
 4803 0354 7370695F 		.ascii	"spi_lld_serve_tx_interrupt\000"
 4803      6C6C645F 
 4803      73657276 
 4803      655F7478 
 4803      5F696E74 
 4804              	.LASF118:
 4805 036f 73746B61 		.ascii	"stkalign_t\000"
 4805      6C69676E 
 4805      5F7400
 4806              	.LASF183:
 4807 037a 63697263 		.ascii	"circular\000"
 4807      756C6172 
 4807      00
 4808              	.LASF46:
 4809 0383 6D706F6F 		.ascii	"mpool\000"
 4809      6C00
 4810              	.LASF124:
 4811 0389 776F7273 		.ascii	"worst\000"
 4811      7400
 4812              	.LASF106:
 4813 038f 42444352 		.ascii	"BDCR\000"
 4813      00
 4814              	.LASF224:
 4815 0394 5F737461 		.ascii	"_stats_stop_measure_crit_isr\000"
 4815      74735F73 
 4815      746F705F 
 4815      6D656173 
 4815      7572655F 
 4816              	.LASF29:
 4817 03b1 636E745F 		.ascii	"cnt_t\000"
 4817      7400
 4818              	.LASF229:
 4819 03b7 7370695F 		.ascii	"spi_lld_polled_exchange\000"
 4819      6C6C645F 
 4819      706F6C6C 
 4819      65645F65 
 4819      78636861 
 4820              	.LASF139:
ARM GAS  /tmp/cc0MdUPR.s 			page 89


 4821 03cf 77746D74 		.ascii	"wtmtxp\000"
 4821      787000
 4822              	.LASF228:
 4823 03d6 2F686F6D 		.ascii	"/home/kozinalexey/f4by/ardupilot/build/F4BY\000"
 4823      652F6B6F 
 4823      7A696E61 
 4823      6C657865 
 4823      792F6634 
 4824              	.LASF57:
 4825 0402 63685F72 		.ascii	"ch_ready_list\000"
 4825      65616479 
 4825      5F6C6973 
 4825      7400
 4826              	.LASF155:
 4827 0410 636C6561 		.ascii	"clear\000"
 4827      7200
 4828              	.LASF84:
 4829 0416 43464752 		.ascii	"CFGR\000"
 4829      00
 4830              	.LASF198:
 4831 041b 6F73616C 		.ascii	"osalSysUnlockFromISR\000"
 4831      53797355 
 4831      6E6C6F63 
 4831      6B46726F 
 4831      6D495352 
 4832              	.LASF130:
 4833 0430 6D5F6372 		.ascii	"m_crit_thd\000"
 4833      69745F74 
 4833      686400
 4834              	.LASF13:
 4835 043b 5F5F7569 		.ascii	"__uint64_t\000"
 4835      6E743634 
 4835      5F7400
 4836              	.LASF11:
 4837 0446 6C6F6E67 		.ascii	"long unsigned int\000"
 4837      20756E73 
 4837      69676E65 
 4837      6420696E 
 4837      7400
 4838              	.LASF141:
 4839 0458 63685F73 		.ascii	"ch_semaphore\000"
 4839      656D6170 
 4839      686F7265 
 4839      00
 4840              	.LASF50:
 4841 0465 63685F74 		.ascii	"ch_thread\000"
 4841      68726561 
 4841      6400
 4842              	.LASF64:
 4843 046f 76697274 		.ascii	"virtual_timers_list_t\000"
 4843      75616C5F 
 4843      74696D65 
 4843      72735F6C 
 4843      6973745F 
 4844              	.LASF60:
 4845 0485 76697274 		.ascii	"virtual_timer_t\000"
 4845      75616C5F 
ARM GAS  /tmp/cc0MdUPR.s 			page 90


 4845      74696D65 
 4845      725F7400 
 4846              	.LASF56:
 4847 0495 72656164 		.ascii	"ready_list_t\000"
 4847      795F6C69 
 4847      73745F74 
 4847      00
 4848              	.LASF35:
 4849 04a2 6F6C6465 		.ascii	"older\000"
 4849      7200
 4850              	.LASF45:
 4851 04a8 7265616C 		.ascii	"realprio\000"
 4851      7072696F 
 4851      00
 4852              	.LASF30:
 4853 04b1 75636E74 		.ascii	"ucnt_t\000"
 4853      5F7400
 4854              	.LASF209:
 4855 04b8 7370695F 		.ascii	"spi_lld_exchange\000"
 4855      6C6C645F 
 4855      65786368 
 4855      616E6765 
 4855      00
 4856              	.LASF192:
 4857 04c9 62617365 		.ascii	"basePri\000"
 4857      50726900 
 4858              	.LASF51:
 4859 04d1 63685F74 		.ascii	"ch_threads_list\000"
 4859      68726561 
 4859      64735F6C 
 4859      69737400 
 4860              	.LASF128:
 4861 04e1 6E5F6972 		.ascii	"n_irq\000"
 4861      7100
 4862              	.LASF158:
 4863 04e7 4F535045 		.ascii	"OSPEEDR\000"
 4863      45445200 
 4864              	.LASF83:
 4865 04ef 504C4C43 		.ascii	"PLLCFGR\000"
 4865      46475200 
 4866              	.LASF211:
 4867 04f7 72786275 		.ascii	"rxbuf\000"
 4867      6600
 4868              	.LASF177:
 4869 04fd 646D6172 		.ascii	"dmarx\000"
 4869      7800
 4870              	.LASF10:
 4871 0503 5F5F7569 		.ascii	"__uint32_t\000"
 4871      6E743332 
 4871      5F7400
 4872              	.LASF44:
 4873 050e 6D74786C 		.ascii	"mtxlist\000"
 4873      69737400 
 4874              	.LASF168:
 4875 0516 5350495F 		.ascii	"SPI_READY\000"
 4875      52454144 
 4875      5900
ARM GAS  /tmp/cc0MdUPR.s 			page 91


 4876              	.LASF12:
 4877 0520 6C6F6E67 		.ascii	"long long int\000"
 4877      206C6F6E 
 4877      6720696E 
 4877      7400
 4878              	.LASF77:
 4879 052e 73797369 		.ascii	"sysinterval_t\000"
 4879      6E746572 
 4879      76616C5F 
 4879      7400
 4880              	.LASF159:
 4881 053c 50555044 		.ascii	"PUPDR\000"
 4881      5200
 4882              	.LASF194:
 4883 0542 706F7274 		.ascii	"port_lock_from_isr\000"
 4883      5F6C6F63 
 4883      6B5F6672 
 4883      6F6D5F69 
 4883      737200
 4884              	.LASF108:
 4885 0555 53534347 		.ascii	"SSCGR\000"
 4885      5200
 4886              	.LASF182:
 4887 055b 68616C5F 		.ascii	"hal_spi_config\000"
 4887      7370695F 
 4887      636F6E66 
 4887      696700
 4888              	.LASF90:
 4889 056a 41504232 		.ascii	"APB2RSTR\000"
 4889      52535452 
 4889      00
 4890              	.LASF215:
 4891 0573 6672616D 		.ascii	"frame\000"
 4891      6500
 4892              	.LASF176:
 4893 0579 6D757465 		.ascii	"mutex\000"
 4893      7800
 4894              	.LASF213:
 4895 057f 7370695F 		.ascii	"spi_lld_receive\000"
 4895      6C6C645F 
 4895      72656365 
 4895      69766500 
 4896              	.LASF218:
 4897 058f 49544D5F 		.ascii	"ITM_RxBuffer\000"
 4897      52784275 
 4897      66666572 
 4897      00
 4898              	.LASF112:
 4899 059c 52584352 		.ascii	"RXCRCR\000"
 4899      435200
 4900              	.LASF179:
 4901 05a3 7278646D 		.ascii	"rxdmamode\000"
 4901      616D6F64 
 4901      6500
 4902              	.LASF230:
 4903 05ad 646D6153 		.ascii	"dmaStreamAllocI\000"
 4903      74726561 
ARM GAS  /tmp/cc0MdUPR.s 			page 92


 4903      6D416C6C 
 4903      6F634900 
 4904              	.LASF104:
 4905 05bd 41504232 		.ascii	"APB2LPENR\000"
 4905      4C50454E 
 4905      5200
 4906              	.LASF199:
 4907 05c7 73706970 		.ascii	"spip\000"
 4907      00
 4908              	.LASF178:
 4909 05cc 646D6174 		.ascii	"dmatx\000"
 4909      7800
 4910              	.LASF156:
 4911 05d2 4D4F4445 		.ascii	"MODER\000"
 4911      5200
 4912              	.LASF127:
 4913 05d8 74696D65 		.ascii	"time_measurement_t\000"
 4913      5F6D6561 
 4913      73757265 
 4913      6D656E74 
 4913      5F7400
 4914              	.LASF162:
 4915 05eb 4146524C 		.ascii	"AFRL\000"
 4915      00
 4916              	.LASF131:
 4917 05f0 6D5F6372 		.ascii	"m_crit_isr\000"
 4917      69745F69 
 4917      737200
 4918              	.LASF0:
 4919 05fb 756E7369 		.ascii	"unsigned int\000"
 4919      676E6564 
 4919      20696E74 
 4919      00
 4920              	.LASF181:
 4921 0608 53504943 		.ascii	"SPIConfig\000"
 4921      6F6E6669 
 4921      6700
 4922              	.LASF169:
 4923 0612 5350495F 		.ascii	"SPI_ACTIVE\000"
 4923      41435449 
 4923      564500
 4924              	.LASF21:
 4925 061d 7274636E 		.ascii	"rtcnt_t\000"
 4925      745F7400 
 4926              	.LASF147:
 4927 0625 73746D33 		.ascii	"stm32_dmaisr_t\000"
 4927      325F646D 
 4927      61697372 
 4927      5F7400
 4928              	.LASF132:
 4929 0634 6B65726E 		.ascii	"kernel_stats_t\000"
 4929      656C5F73 
 4929      74617473 
 4929      5F7400
 4930              	.LASF58:
 4931 0643 63757272 		.ascii	"current\000"
 4931      656E7400 
ARM GAS  /tmp/cc0MdUPR.s 			page 93


 4932              	.LASF121:
 4933 064b 6F666673 		.ascii	"offset\000"
 4933      657400
 4934              	.LASF103:
 4935 0652 41504231 		.ascii	"APB1LPENR\000"
 4935      4C50454E 
 4935      5200
 4936              	.LASF82:
 4937 065c 444D415F 		.ascii	"DMA_Stream_TypeDef\000"
 4937      53747265 
 4937      616D5F54 
 4937      79706544 
 4937      656600
 4938              	.LASF225:
 4939 066f 7370694F 		.ascii	"spiObjectInit\000"
 4939      626A6563 
 4939      74496E69 
 4939      7400
 4940              	.LASF87:
 4941 067d 41484233 		.ascii	"AHB3RSTR\000"
 4941      52535452 
 4941      00
 4942              	.LASF31:
 4943 0686 74687265 		.ascii	"thread_t\000"
 4943      61645F74 
 4943      00
 4944              	.LASF48:
 4945 068f 74687265 		.ascii	"thread_reference_t\000"
 4945      61645F72 
 4945      65666572 
 4945      656E6365 
 4945      5F7400
 4946              	.LASF137:
 4947 06a2 73656E74 		.ascii	"sentmsg\000"
 4947      6D736700 
 4948              	.LASF120:
 4949 06aa 706F7274 		.ascii	"port_intctx\000"
 4949      5F696E74 
 4949      63747800 
 4950              	.LASF191:
 4951 06b6 6F73616C 		.ascii	"osalSysHalt\000"
 4951      53797348 
 4951      616C7400 
 4952              	.LASF195:
 4953 06c2 706F7274 		.ascii	"port_unlock_from_isr\000"
 4953      5F756E6C 
 4953      6F636B5F 
 4953      66726F6D 
 4953      5F697372 
 4954              	.LASF89:
 4955 06d7 41504231 		.ascii	"APB1RSTR\000"
 4955      52535452 
 4955      00
 4956              	.LASF61:
 4957 06e0 63685F76 		.ascii	"ch_virtual_timer\000"
 4957      69727475 
 4957      616C5F74 
ARM GAS  /tmp/cc0MdUPR.s 			page 94


 4957      696D6572 
 4957      00
 4958              	.LASF96:
 4959 06f1 41504231 		.ascii	"APB1ENR\000"
 4959      454E5200 
 4960              	.LASF75:
 4961 06f9 6B65726E 		.ascii	"kernel_stats\000"
 4961      656C5F73 
 4961      74617473 
 4961      00
 4962              	.LASF152:
 4963 0706 73656C66 		.ascii	"selfindex\000"
 4963      696E6465 
 4963      7800
 4964              	.LASF14:
 4965 0710 6C6F6E67 		.ascii	"long long unsigned int\000"
 4965      206C6F6E 
 4965      6720756E 
 4965      7369676E 
 4965      65642069 
 4966              	.LASF16:
 4967 0727 75696E74 		.ascii	"uint16_t\000"
 4967      31365F74 
 4967      00
 4968              	.LASF226:
 4969 0730 474E5520 		.ascii	"GNU C 4.9.3 20150529 (prerelease) -mcpu=cortex-m4 -"
 4969      4320342E 
 4969      392E3320 
 4969      32303135 
 4969      30353239 
 4970 0763 6D666C6F 		.ascii	"mfloat-abi=hard -mfpu=fpv4-sp-d16 -mno-thumb-interw"
 4970      61742D61 
 4970      62693D68 
 4970      61726420 
 4970      2D6D6670 
 4971 0796 6F726B20 		.ascii	"ork -mthumb -g -Os -fomit-frame-pointer -falign-fun"
 4971      2D6D7468 
 4971      756D6220 
 4971      2D67202D 
 4971      4F73202D 
 4972 07c9 6374696F 		.ascii	"ctions=16 -ffunction-sections -fdata-sections -fno-"
 4972      6E733D31 
 4972      36202D66 
 4972      66756E63 
 4972      74696F6E 
 4973 07fc 636F6D6D 		.ascii	"common -fsingle-precision-constant\000"
 4973      6F6E202D 
 4973      6673696E 
 4973      676C652D 
 4973      70726563 
 4974              	.LASF161:
 4975 081f 4C4F434B 		.ascii	"LOCKR\000"
 4975      5200
 4976              	.LASF27:
 4977 0825 6D73675F 		.ascii	"msg_t\000"
 4977      7400
 4978              	.LASF54:
ARM GAS  /tmp/cc0MdUPR.s 			page 95


 4979 082b 63685F74 		.ascii	"ch_threads_queue\000"
 4979      68726561 
 4979      64735F71 
 4979      75657565 
 4979      00
 4980              	.LASF62:
 4981 083c 64656C74 		.ascii	"delta\000"
 4981      6100
 4982              	.LASF163:
 4983 0842 41465248 		.ascii	"AFRH\000"
 4983      00
 4984              	.LASF40:
 4985 0847 72656673 		.ascii	"refs\000"
 4985      00
 4986              	.LASF32:
 4987 084c 71756575 		.ascii	"queue\000"
 4987      6500
 4988              	.LASF43:
 4989 0852 6570656E 		.ascii	"epending\000"
 4989      64696E67 
 4989      00
 4990              	.LASF193:
 4991 085b 72656173 		.ascii	"reason\000"
 4991      6F6E00
 4992              	.LASF153:
 4993 0862 76656374 		.ascii	"vector\000"
 4993      6F7200
 4994              	.LASF74:
 4995 0869 6D61696E 		.ascii	"mainthread\000"
 4995      74687265 
 4995      616400
 4996              	.LASF214:
 4997 0874 7370695F 		.ascii	"spi_lld_abort\000"
 4997      6C6C645F 
 4997      61626F72 
 4997      7400
 4998              	.LASF101:
 4999 0882 41484233 		.ascii	"AHB3LPENR\000"
 4999      4C50454E 
 4999      5200
 5000              	.LASF190:
 5001 088c 5F5F7365 		.ascii	"__set_BASEPRI\000"
 5001      745F4241 
 5001      53455052 
 5001      4900
 5002              	.LASF123:
 5003 089a 62657374 		.ascii	"best\000"
 5003      00
 5004              	.LASF37:
 5005 089f 77616261 		.ascii	"wabase\000"
 5005      736500
 5006              	.LASF157:
 5007 08a6 4F545950 		.ascii	"OTYPER\000"
 5007      455200
 5008              	.LASF113:
 5009 08ad 54584352 		.ascii	"TXCRCR\000"
 5009      435200
ARM GAS  /tmp/cc0MdUPR.s 			page 96


 5010              	.LASF116:
 5011 08b4 5350495F 		.ascii	"SPI_TypeDef\000"
 5011      54797065 
 5011      44656600 
 5012              	.LASF72:
 5013 08c0 726C6973 		.ascii	"rlist\000"
 5013      7400
 5014              	.LASF23:
 5015 08c6 746D6F64 		.ascii	"tmode_t\000"
 5015      655F7400 
 5016              	.LASF111:
 5017 08ce 43524350 		.ascii	"CRCPR\000"
 5017      5200
 5018              	.LASF150:
 5019 08d4 64756D6D 		.ascii	"dummy\000"
 5019      7900
 5020              	.LASF92:
 5021 08da 41484231 		.ascii	"AHB1ENR\000"
 5021      454E5200 
 5022              	.LASF94:
 5023 08e2 41484233 		.ascii	"AHB3ENR\000"
 5023      454E5200 
 5024              	.LASF122:
 5025 08ea 746D5F63 		.ascii	"tm_calibration_t\000"
 5025      616C6962 
 5025      72617469 
 5025      6F6E5F74 
 5025      00
 5026              	.LASF86:
 5027 08fb 41484232 		.ascii	"AHB2RSTR\000"
 5027      52535452 
 5027      00
 5028              	.LASF175:
 5029 0904 74687265 		.ascii	"thread\000"
 5029      616400
 5030              	.LASF80:
 5031 090b 4D304152 		.ascii	"M0AR\000"
 5031      00
 5032              	.LASF36:
 5033 0910 6E616D65 		.ascii	"name\000"
 5033      00
 5034              	.LASF188:
 5035 0915 706F7274 		.ascii	"port_lock\000"
 5035      5F6C6F63 
 5035      6B00
 5036              	.LASF20:
 5037 091f 75696E74 		.ascii	"uint_fast8_t\000"
 5037      5F666173 
 5037      74385F74 
 5037      00
 5038              	.LASF110:
 5039 092c 5243435F 		.ascii	"RCC_TypeDef\000"
 5039      54797065 
 5039      44656600 
 5040              	.LASF5:
 5041 0938 73686F72 		.ascii	"short int\000"
 5041      7420696E 
ARM GAS  /tmp/cc0MdUPR.s 			page 97


 5041      7400
 5042              	.LASF19:
 5043 0942 75696E74 		.ascii	"uint64_t\000"
 5043      36345F74 
 5043      00
 5044              	.LASF63:
 5045 094b 66756E63 		.ascii	"func\000"
 5045      00
 5046              	.LASF142:
 5047 0950 63685F6D 		.ascii	"ch_mutex\000"
 5047      75746578 
 5047      00
 5048              	.LASF42:
 5049 0959 6D736771 		.ascii	"msgqueue\000"
 5049      75657565 
 5049      00
 5050              	.LASF227:
 5051 0962 2E2E2F2E 		.ascii	"../../modules/ChibiOS/os/hal/ports/STM32/LLD/SPIv1/"
 5051      2E2F6D6F 
 5051      64756C65 
 5051      732F4368 
 5051      6962694F 
 5052 0995 68616C5F 		.ascii	"hal_spi_lld.c\000"
 5052      7370695F 
 5052      6C6C642E 
 5052      6300
 5053              	.LASF204:
 5054 09a3 7370695F 		.ascii	"spi_lld_init\000"
 5054      6C6C645F 
 5054      696E6974 
 5054      00
 5055              	.LASF160:
 5056 09b0 42535252 		.ascii	"BSRR\000"
 5056      00
 5057              	.LASF73:
 5058 09b5 76746C69 		.ascii	"vtlist\000"
 5058      737400
 5059              	.LASF41:
 5060 09bc 77616974 		.ascii	"waiting\000"
 5060      696E6700 
 5061              	.LASF221:
 5062 09c4 63685379 		.ascii	"chSysHalt\000"
 5062      7348616C 
 5062      7400
 5063              	.LASF223:
 5064 09ce 5F737461 		.ascii	"_stats_start_measure_crit_isr\000"
 5064      74735F73 
 5064      74617274 
 5064      5F6D6561 
 5064      73757265 
 5065              	.LASF145:
 5066 09ec 6D757465 		.ascii	"mutex_t\000"
 5066      785F7400 
 5067              	.LASF25:
 5068 09f4 74726566 		.ascii	"trefs_t\000"
 5068      735F7400 
 5069              	.LASF119:
ARM GAS  /tmp/cc0MdUPR.s 			page 98


 5070 09fc 706F7274 		.ascii	"port_context\000"
 5070      5F636F6E 
 5070      74657874 
 5070      00
 5071              	.LASF49:
 5072 0a09 74687265 		.ascii	"threads_list_t\000"
 5072      6164735F 
 5072      6C697374 
 5072      5F7400
 5073              	.LASF71:
 5074 0a18 63685F73 		.ascii	"ch_system\000"
 5074      79737465 
 5074      6D00
 5075              	.LASF34:
 5076 0a22 6E657765 		.ascii	"newer\000"
 5076      7200
 5077              	.LASF18:
 5078 0a28 75696E74 		.ascii	"uint32_t\000"
 5078      33325F74 
 5078      00
 5079              	.LASF115:
 5080 0a31 49325350 		.ascii	"I2SPR\000"
 5080      5200
 5081              	.LASF170:
 5082 0a37 5350495F 		.ascii	"SPI_COMPLETE\000"
 5082      434F4D50 
 5082      4C455445 
 5082      00
 5083              	.LASF133:
 5084 0a44 7264796D 		.ascii	"rdymsg\000"
 5084      736700
 5085              	.LASF7:
 5086 0a4b 73686F72 		.ascii	"short unsigned int\000"
 5086      7420756E 
 5086      7369676E 
 5086      65642069 
 5086      6E7400
 5087              	.LASF70:
 5088 0a5e 63685F73 		.ascii	"ch_system_t\000"
 5088      79737465 
 5088      6D5F7400 
 5089              	.LASF171:
 5090 0a6a 73706973 		.ascii	"spistate_t\000"
 5090      74617465 
 5090      5F7400
 5091              	.LASF8:
 5092 0a75 5F5F696E 		.ascii	"__int32_t\000"
 5092      7433325F 
 5092      7400
 5093              	.LASF79:
 5094 0a7f 4E445452 		.ascii	"NDTR\000"
 5094      00
 5095              	.LASF149:
 5096 0a84 69666372 		.ascii	"ifcr\000"
 5096      00
 5097              	.LASF186:
 5098 0a89 73737061 		.ascii	"sspad\000"
ARM GAS  /tmp/cc0MdUPR.s 			page 99


 5098      6400
 5099              	.LASF52:
 5100 0a8f 6E657874 		.ascii	"next\000"
 5100      00
 5101              	.LASF55:
 5102 0a94 70726576 		.ascii	"prev\000"
 5102      00
 5103              	.LASF180:
 5104 0a99 7478646D 		.ascii	"txdmamode\000"
 5104      616D6F64 
 5104      6500
 5105              	.LASF125:
 5106 0aa3 6C617374 		.ascii	"last\000"
 5106      00
 5107              		.ident	"GCC: (15:4.9.3+svn231177-1) 4.9.3 20150529 (prerelease)"
ARM GAS  /tmp/cc0MdUPR.s 			page 100


DEFINED SYMBOLS
                            *ABS*:0000000000000000 hal_spi_lld.c
     /tmp/cc0MdUPR.s:21     .text.spi_lld_serve_tx_interrupt:0000000000000000 $t
     /tmp/cc0MdUPR.s:25     .text.spi_lld_serve_tx_interrupt:0000000000000000 spi_lld_serve_tx_interrupt
     /tmp/cc0MdUPR.s:51     .text.spi_lld_serve_tx_interrupt:0000000000000010 $d
     /tmp/cc0MdUPR.s:58     .text.spi_lld_serve_rx_interrupt:0000000000000000 $t
     /tmp/cc0MdUPR.s:62     .text.spi_lld_serve_rx_interrupt:0000000000000000 spi_lld_serve_rx_interrupt
     /tmp/cc0MdUPR.s:245    .text.spi_lld_serve_rx_interrupt:00000000000000b4 $d
     /tmp/cc0MdUPR.s:257    .text.spi_lld_init:0000000000000000 $t
     /tmp/cc0MdUPR.s:262    .text.spi_lld_init:0000000000000000 spi_lld_init
     /tmp/cc0MdUPR.s:317    .text.spi_lld_init:0000000000000038 $d
     /tmp/cc0MdUPR.s:327    .text.spi_lld_start:0000000000000000 $t
     /tmp/cc0MdUPR.s:332    .text.spi_lld_start:0000000000000000 spi_lld_start
     /tmp/cc0MdUPR.s:506    .text.spi_lld_start:00000000000000f8 $d
     /tmp/cc0MdUPR.s:515    .text.spi_lld_stop:0000000000000000 $t
     /tmp/cc0MdUPR.s:520    .text.spi_lld_stop:0000000000000000 spi_lld_stop
     /tmp/cc0MdUPR.s:604    .text.spi_lld_stop:0000000000000064 $d
     /tmp/cc0MdUPR.s:611    .text.spi_lld_ignore:0000000000000000 $t
     /tmp/cc0MdUPR.s:616    .text.spi_lld_ignore:0000000000000000 spi_lld_ignore
     /tmp/cc0MdUPR.s:664    .text.spi_lld_ignore:0000000000000030 $d
     /tmp/cc0MdUPR.s:670    .text.spi_lld_exchange:0000000000000000 $t
     /tmp/cc0MdUPR.s:675    .text.spi_lld_exchange:0000000000000000 spi_lld_exchange
     /tmp/cc0MdUPR.s:725    .text.spi_lld_send:0000000000000000 $t
     /tmp/cc0MdUPR.s:730    .text.spi_lld_send:0000000000000000 spi_lld_send
     /tmp/cc0MdUPR.s:779    .text.spi_lld_send:0000000000000034 $d
     /tmp/cc0MdUPR.s:784    .text.spi_lld_receive:0000000000000000 $t
     /tmp/cc0MdUPR.s:789    .text.spi_lld_receive:0000000000000000 spi_lld_receive
     /tmp/cc0MdUPR.s:839    .text.spi_lld_receive:0000000000000034 $d
     /tmp/cc0MdUPR.s:844    .text.spi_lld_abort:0000000000000000 $t
     /tmp/cc0MdUPR.s:849    .text.spi_lld_abort:0000000000000000 spi_lld_abort
     /tmp/cc0MdUPR.s:896    .text.spi_lld_polled_exchange:0000000000000000 $t
     /tmp/cc0MdUPR.s:901    .text.spi_lld_polled_exchange:0000000000000000 spi_lld_polled_exchange
     /tmp/cc0MdUPR.s:940    .bss.SPID2:0000000000000000 SPID2
     /tmp/cc0MdUPR.s:933    .bss.SPID1:0000000000000000 SPID1
     /tmp/cc0MdUPR.s:929    .bss.SPID1:0000000000000000 $d
     /tmp/cc0MdUPR.s:936    .bss.SPID2:0000000000000000 $d
     /tmp/cc0MdUPR.s:946    .rodata.dummytx:0000000000000000 $d
     /tmp/cc0MdUPR.s:950    .rodata.dummytx:0000000000000000 dummytx
     /tmp/cc0MdUPR.s:953    .bss.dummyrx:0000000000000000 $d
     /tmp/cc0MdUPR.s:957    .bss.dummyrx:0000000000000000 dummyrx
                     .debug_frame:0000000000000010 $d

UNDEFINED SYMBOLS
chSysHalt
_stats_start_measure_crit_isr
chThdResumeI
_stats_stop_measure_crit_isr
spiObjectInit
dmaStreamAllocI
dmaStreamFreeI
