ARM GAS  /tmp/ccqKmAxm.s 			page 1


   1              		.syntax unified
   2              		.cpu cortex-m4
   3              		.eabi_attribute 27, 1
   4              		.eabi_attribute 28, 1
   5              		.fpu fpv4-sp-d16
   6              		.eabi_attribute 20, 1
   7              		.eabi_attribute 21, 1
   8              		.eabi_attribute 23, 3
   9              		.eabi_attribute 24, 1
  10              		.eabi_attribute 25, 1
  11              		.eabi_attribute 26, 1
  12              		.eabi_attribute 30, 4
  13              		.eabi_attribute 34, 1
  14              		.eabi_attribute 18, 4
  15              		.thumb
  16              		.file	"hal_adc_lld.c"
  17              		.text
  18              	.Ltext0:
  19              		.cfi_sections	.debug_frame
  20              		.section	.text.adc_lld_init,"ax",%progbits
  21              		.align	1
  22              		.global	adc_lld_init
  23              		.thumb
  24              		.thumb_func
  25              		.type	adc_lld_init, %function
  26              	adc_lld_init:
  27              	.LFB325:
  28              		.file 1 "../../modules/ChibiOS/os/hal/ports/STM32/LLD/ADCv2/hal_adc_lld.c"
  29              		.loc 1 192 0
  30              		.cfi_startproc
  31              		@ args = 0, pretend = 0, frame = 0
  32              		@ frame_needed = 0, uses_anonymous_args = 0
  33 0000 10B5     		push	{r4, lr}
  34              		.cfi_def_cfa_offset 8
  35              		.cfi_offset 4, -8
  36              		.cfi_offset 14, -4
  37              		.loc 1 196 0
  38 0002 084C     		ldr	r4, .L2
  39 0004 2046     		mov	r0, r4
  40 0006 FFF7FEFF 		bl	adcObjectInit
  41              	.LVL0:
  42              		.loc 1 197 0
  43 000a 074B     		ldr	r3, .L2+4
  44 000c A361     		str	r3, [r4, #24]
  45              		.loc 1 198 0
  46 000e 0023     		movs	r3, #0
  47 0010 E361     		str	r3, [r4, #28]
  48              		.loc 1 199 0
  49 0012 064B     		ldr	r3, .L2+8
  50 0014 2362     		str	r3, [r4, #32]
  51              		.loc 1 235 0
  52 0016 1220     		movs	r0, #18
  53 0018 0621     		movs	r1, #6
  54              		.loc 1 236 0
  55 001a BDE81040 		pop	{r4, lr}
  56              		.cfi_restore 14
  57              		.cfi_restore 4
ARM GAS  /tmp/ccqKmAxm.s 			page 2


  58              		.cfi_def_cfa_offset 0
  59              		.loc 1 235 0
  60 001e FFF7FEBF 		b	nvicEnableVector
  61              	.LVL1:
  62              	.L3:
  63 0022 00BF     		.align	2
  64              	.L2:
  65 0024 00000000 		.word	.LANCHOR0
  66 0028 00200140 		.word	1073815552
  67 002c 162C0200 		.word	142358
  68              		.cfi_endproc
  69              	.LFE325:
  70              		.size	adc_lld_init, .-adc_lld_init
  71              		.section	.text.adc_lld_start,"ax",%progbits
  72              		.align	1
  73              		.global	adc_lld_start
  74              		.thumb
  75              		.thumb_func
  76              		.type	adc_lld_start, %function
  77              	adc_lld_start:
  78              	.LFB326:
  79              		.loc 1 245 0
  80              		.cfi_startproc
  81              		@ args = 0, pretend = 0, frame = 0
  82              		@ frame_needed = 0, uses_anonymous_args = 0
  83              	.LVL2:
  84              		.loc 1 248 0
  85 0000 0378     		ldrb	r3, [r0]	@ zero_extendqisi2
  86 0002 012B     		cmp	r3, #1
  87              		.loc 1 245 0
  88 0004 10B5     		push	{r4, lr}
  89              		.cfi_def_cfa_offset 8
  90              		.cfi_offset 4, -8
  91              		.cfi_offset 14, -4
  92              		.loc 1 245 0
  93 0006 0446     		mov	r4, r0
  94              		.loc 1 248 0
  95 0008 23D1     		bne	.L4
  96              		.loc 1 250 0
  97 000a 124B     		ldr	r3, .L8
  98 000c 9842     		cmp	r0, r3
  99 000e 13D1     		bne	.L6
 100              		.loc 1 251 0
 101 0010 114A     		ldr	r2, .L8+4
 102 0012 2346     		mov	r3, r4
 103 0014 0C20     		movs	r0, #12
 104              	.LVL3:
 105 0016 0621     		movs	r1, #6
 106 0018 FFF7FEFF 		bl	dmaStreamAllocI
 107              	.LVL4:
 108              		.loc 1 256 0
 109 001c 0368     		ldr	r3, [r0]
 110 001e 0F4A     		ldr	r2, .L8+8
 111              		.loc 1 251 0
 112 0020 E061     		str	r0, [r4, #28]
 113              		.loc 1 256 0
 114 0022 9A60     		str	r2, [r3, #8]
ARM GAS  /tmp/ccqKmAxm.s 			page 3


 115              		.loc 1 257 0
 116 0024 0E4B     		ldr	r3, .L8+12
 117 0026 5A6C     		ldr	r2, [r3, #68]
 118 0028 42F48072 		orr	r2, r2, #256
 119 002c 5A64     		str	r2, [r3, #68]
 120 002e 5A6E     		ldr	r2, [r3, #100]
 121 0030 42F48072 		orr	r2, r2, #256
 122 0034 5A66     		str	r2, [r3, #100]
 123 0036 5B6E     		ldr	r3, [r3, #100]
 124              	.L6:
 125              		.loc 1 287 0
 126 0038 0A4A     		ldr	r2, .L8+16
 127 003a 5368     		ldr	r3, [r2, #4]
 128 003c 03F44003 		and	r3, r3, #12582912
 129 0040 43F48033 		orr	r3, r3, #65536
 130 0044 5360     		str	r3, [r2, #4]
 131              		.loc 1 292 0
 132 0046 A369     		ldr	r3, [r4, #24]
 133 0048 0022     		movs	r2, #0
 134 004a 5A60     		str	r2, [r3, #4]
 135              		.loc 1 293 0
 136 004c 9A60     		str	r2, [r3, #8]
 137              		.loc 1 294 0
 138 004e 0122     		movs	r2, #1
 139 0050 9A60     		str	r2, [r3, #8]
 140              	.L4:
 141 0052 10BD     		pop	{r4, pc}
 142              	.LVL5:
 143              	.L9:
 144              		.align	2
 145              	.L8:
 146 0054 00000000 		.word	.LANCHOR0
 147 0058 00000000 		.word	adc_lld_serve_rx_interrupt
 148 005c 4C200140 		.word	1073815628
 149 0060 00380240 		.word	1073887232
 150 0064 00230140 		.word	1073816320
 151              		.cfi_endproc
 152              	.LFE326:
 153              		.size	adc_lld_start, .-adc_lld_start
 154              		.section	.text.adc_lld_stop,"ax",%progbits
 155              		.align	1
 156              		.global	adc_lld_stop
 157              		.thumb
 158              		.thumb_func
 159              		.type	adc_lld_stop, %function
 160              	adc_lld_stop:
 161              	.LFB327:
 162              		.loc 1 305 0
 163              		.cfi_startproc
 164              		@ args = 0, pretend = 0, frame = 0
 165              		@ frame_needed = 0, uses_anonymous_args = 0
 166              	.LVL6:
 167              		.loc 1 308 0
 168 0000 0378     		ldrb	r3, [r0]	@ zero_extendqisi2
 169 0002 022B     		cmp	r3, #2
 170              		.loc 1 305 0
 171 0004 10B5     		push	{r4, lr}
ARM GAS  /tmp/ccqKmAxm.s 			page 4


 172              		.cfi_def_cfa_offset 8
 173              		.cfi_offset 4, -8
 174              		.cfi_offset 14, -4
 175              		.loc 1 305 0
 176 0006 0446     		mov	r4, r0
 177              		.loc 1 308 0
 178 0008 14D1     		bne	.L10
 179              		.loc 1 310 0
 180 000a C069     		ldr	r0, [r0, #28]
 181              	.LVL7:
 182 000c FFF7FEFF 		bl	dmaStreamFreeI
 183              	.LVL8:
 184              		.loc 1 313 0
 185 0010 A269     		ldr	r2, [r4, #24]
 186              		.loc 1 311 0
 187 0012 0023     		movs	r3, #0
 188 0014 E361     		str	r3, [r4, #28]
 189              		.loc 1 313 0
 190 0016 5360     		str	r3, [r2, #4]
 191              		.loc 1 314 0
 192 0018 9360     		str	r3, [r2, #8]
 193              		.loc 1 317 0
 194 001a 074B     		ldr	r3, .L14
 195 001c 9C42     		cmp	r4, r3
 196 001e 09D1     		bne	.L10
 197              		.loc 1 318 0
 198 0020 064B     		ldr	r3, .L14+4
 199 0022 5A6C     		ldr	r2, [r3, #68]
 200 0024 22F48072 		bic	r2, r2, #256
 201 0028 5A64     		str	r2, [r3, #68]
 202 002a 5A6E     		ldr	r2, [r3, #100]
 203 002c 22F48072 		bic	r2, r2, #256
 204 0030 5A66     		str	r2, [r3, #100]
 205 0032 5B6E     		ldr	r3, [r3, #100]
 206              	.L10:
 207 0034 10BD     		pop	{r4, pc}
 208              	.LVL9:
 209              	.L15:
 210 0036 00BF     		.align	2
 211              	.L14:
 212 0038 00000000 		.word	.LANCHOR0
 213 003c 00380240 		.word	1073887232
 214              		.cfi_endproc
 215              	.LFE327:
 216              		.size	adc_lld_stop, .-adc_lld_stop
 217              		.section	.text.adc_lld_start_conversion,"ax",%progbits
 218              		.align	1
 219              		.global	adc_lld_start_conversion
 220              		.thumb
 221              		.thumb_func
 222              		.type	adc_lld_start_conversion, %function
 223              	adc_lld_start_conversion:
 224              	.LFB328:
 225              		.loc 1 340 0
 226              		.cfi_startproc
 227              		@ args = 0, pretend = 0, frame = 0
 228              		@ frame_needed = 0, uses_anonymous_args = 0
ARM GAS  /tmp/ccqKmAxm.s 			page 5


 229              	.LVL10:
 230              		.loc 1 343 0
 231 0000 0269     		ldr	r2, [r0, #16]
 232              	.LVL11:
 233              		.loc 1 346 0
 234 0002 016A     		ldr	r1, [r0, #32]
 235              	.LVL12:
 236              		.loc 1 347 0
 237 0004 1378     		ldrb	r3, [r2]	@ zero_extendqisi2
 238              		.loc 1 340 0
 239 0006 30B5     		push	{r4, r5, lr}
 240              		.cfi_def_cfa_offset 12
 241              		.cfi_offset 4, -12
 242              		.cfi_offset 5, -8
 243              		.cfi_offset 14, -4
 244 0008 C568     		ldr	r5, [r0, #12]
 245              		.loc 1 347 0
 246 000a 2BB1     		cbz	r3, .L17
 247              	.LVL13:
 248              		.loc 1 349 0
 249 000c 012D     		cmp	r5, #1
 250              		.loc 1 348 0
 251 000e 94BF     		ite	ls
 252 0010 41F48071 		orrls	r1, r1, #256
 253              	.LVL14:
 254              		.loc 1 352 0
 255 0014 41F48471 		orrhi	r1, r1, #264
 256              	.LVL15:
 257              	.L17:
 258              		.loc 1 355 0
 259 0018 C369     		ldr	r3, [r0, #28]
 260 001a 8468     		ldr	r4, [r0, #8]
 261 001c 1B68     		ldr	r3, [r3]
 262 001e DC60     		str	r4, [r3, #12]
 263              		.loc 1 356 0
 264 0020 5488     		ldrh	r4, [r2, #2]
 265 0022 6543     		muls	r5, r4, r5
 266 0024 5D60     		str	r5, [r3, #4]
 267              		.loc 1 358 0
 268 0026 1960     		str	r1, [r3]
 269              		.loc 1 359 0
 270 0028 1968     		ldr	r1, [r3]
 271              	.LVL16:
 272 002a 41F00101 		orr	r1, r1, #1
 273 002e 1960     		str	r1, [r3]
 274              	.LVL17:
 275              		.loc 1 362 0
 276 0030 8369     		ldr	r3, [r0, #24]
 277 0032 0021     		movs	r1, #0
 278 0034 1960     		str	r1, [r3]
 279              		.loc 1 363 0
 280 0036 5169     		ldr	r1, [r2, #20]
 281 0038 D960     		str	r1, [r3, #12]
 282              		.loc 1 364 0
 283 003a 9169     		ldr	r1, [r2, #24]
 284 003c 1961     		str	r1, [r3, #16]
 285              		.loc 1 365 0
ARM GAS  /tmp/ccqKmAxm.s 			page 6


 286 003e 918B     		ldrh	r1, [r2, #28]
 287 0040 5962     		str	r1, [r3, #36]
 288              		.loc 1 366 0
 289 0042 D18B     		ldrh	r1, [r2, #30]
 290 0044 9962     		str	r1, [r3, #40]
 291              		.loc 1 367 0
 292 0046 116A     		ldr	r1, [r2, #32]
 293 0048 013C     		subs	r4, r4, #1
 294 004a 41EA0454 		orr	r4, r1, r4, lsl #20
 295              		.loc 1 368 0
 296 004e 516A     		ldr	r1, [r2, #36]
 297              		.loc 1 367 0
 298 0050 DC62     		str	r4, [r3, #44]
 299              		.loc 1 368 0
 300 0052 1963     		str	r1, [r3, #48]
 301              		.loc 1 369 0
 302 0054 916A     		ldr	r1, [r2, #40]
 303 0056 5963     		str	r1, [r3, #52]
 304              		.loc 1 372 0
 305 0058 D168     		ldr	r1, [r2, #12]
 306              		.loc 1 375 0
 307 005a 1269     		ldr	r2, [r2, #16]
 308              	.LVL18:
 309              		.loc 1 372 0
 310 005c 41F08061 		orr	r1, r1, #67108864
 311 0060 41F48071 		orr	r1, r1, #256
 312 0064 5960     		str	r1, [r3, #4]
 313              		.loc 1 379 0
 314 0066 5100     		lsls	r1, r2, #1
 315              		.loc 1 381 0
 316 0068 41BF     		itttt	mi
 317 006a 22F08041 		bicmi	r1, r2, #1073741824
 318 006e 21F00201 		bicmi	r1, r1, #2
 319 0072 41F44071 		orrmi	r1, r1, #768
 320              		.loc 1 384 0
 321 0076 42F44072 		orrmi	r2, r2, #768
 322              	.LVL19:
 323              		.loc 1 375 0
 324 007a 53BF     		iteet	pl
 325 007c 42F44072 		orrpl	r2, r2, #768
 326              		.loc 1 381 0
 327 0080 41F00301 		orrmi	r1, r1, #3
 328              		.loc 1 384 0
 329 0084 42F00302 		orrmi	r2, r2, #3
 330              		.loc 1 375 0
 331 0088 42F00102 		orrpl	r2, r2, #1
 332              		.loc 1 381 0
 333 008c 48BF     		it	mi
 334 008e 9960     		strmi	r1, [r3, #8]
 335              		.loc 1 387 0
 336 0090 9A60     		str	r2, [r3, #8]
 337              	.LVL20:
 338 0092 30BD     		pop	{r4, r5, pc}
 339              		.cfi_endproc
 340              	.LFE328:
 341              		.size	adc_lld_start_conversion, .-adc_lld_start_conversion
 342              		.section	.text.adc_lld_stop_conversion,"ax",%progbits
ARM GAS  /tmp/ccqKmAxm.s 			page 7


 343              		.align	1
 344              		.global	adc_lld_stop_conversion
 345              		.thumb
 346              		.thumb_func
 347              		.type	adc_lld_stop_conversion, %function
 348              	adc_lld_stop_conversion:
 349              	.LFB329:
 350              		.loc 1 397 0
 351              		.cfi_startproc
 352              		@ args = 0, pretend = 0, frame = 0
 353              		@ frame_needed = 0, uses_anonymous_args = 0
 354              	.LVL21:
 355              		.loc 1 399 0
 356 0000 C169     		ldr	r1, [r0, #28]
 357              		.loc 1 397 0
 358 0002 10B5     		push	{r4, lr}
 359              		.cfi_def_cfa_offset 8
 360              		.cfi_offset 4, -8
 361              		.cfi_offset 14, -4
 362              		.loc 1 399 0
 363 0004 0C68     		ldr	r4, [r1]
 364 0006 2368     		ldr	r3, [r4]
 365 0008 23F01F03 		bic	r3, r3, #31
 366 000c 2360     		str	r3, [r4]
 367              	.L26:
 368              		.loc 1 399 0 is_stmt 0 discriminator 2
 369 000e 2368     		ldr	r3, [r4]
 370 0010 13F00102 		ands	r2, r3, #1
 371 0014 FBD1     		bne	.L26
 372              		.loc 1 399 0 discriminator 3
 373 0016 4C68     		ldr	r4, [r1, #4]
 374 0018 497A     		ldrb	r1, [r1, #9]	@ zero_extendqisi2
 375 001a 3D23     		movs	r3, #61
 376 001c 8B40     		lsls	r3, r3, r1
 377 001e 2360     		str	r3, [r4]
 378              		.loc 1 400 0 is_stmt 1 discriminator 3
 379 0020 8369     		ldr	r3, [r0, #24]
 380 0022 5A60     		str	r2, [r3, #4]
 381              		.loc 1 402 0 discriminator 3
 382 0024 9A68     		ldr	r2, [r3, #8]
 383 0026 22F08042 		bic	r2, r2, #1073741824
 384 002a 9A60     		str	r2, [r3, #8]
 385              		.loc 1 403 0 discriminator 3
 386 002c 0122     		movs	r2, #1
 387 002e 9A60     		str	r2, [r3, #8]
 388 0030 10BD     		pop	{r4, pc}
 389              		.cfi_endproc
 390              	.LFE329:
 391              		.size	adc_lld_stop_conversion, .-adc_lld_stop_conversion
 392              		.section	.text.Vector88,"ax",%progbits
 393              		.align	1
 394              		.global	Vector88
 395              		.thumb
 396              		.thumb_func
 397              		.type	Vector88, %function
 398              	Vector88:
 399              	.LFB324:
ARM GAS  /tmp/ccqKmAxm.s 			page 8


 400              		.loc 1 111 0
 401              		.cfi_startproc
 402              		@ args = 0, pretend = 0, frame = 0
 403              		@ frame_needed = 0, uses_anonymous_args = 0
 404 0000 70B5     		push	{r4, r5, r6, lr}
 405              		.cfi_def_cfa_offset 16
 406              		.cfi_offset 4, -16
 407              		.cfi_offset 5, -12
 408              		.cfi_offset 6, -8
 409              		.cfi_offset 14, -4
 410              		.loc 1 114 0
 411 0002 FFF7FEFF 		bl	_stats_increase_irq
 412              	.LVL22:
 413              		.loc 1 117 0
 414 0006 304B     		ldr	r3, .L52
 415 0008 1E68     		ldr	r6, [r3]
 416              	.LVL23:
 417              		.loc 1 118 0
 418 000a 0022     		movs	r2, #0
 419 000c 1A60     		str	r2, [r3]
 420              		.loc 1 121 0
 421 000e B206     		lsls	r2, r6, #26
 422 0010 2BD5     		bpl	.L29
 423              		.loc 1 121 0 is_stmt 0 discriminator 1
 424 0012 2E4D     		ldr	r5, .L52+4
 425 0014 EB69     		ldr	r3, [r5, #28]
 426 0016 1B68     		ldr	r3, [r3]
 427 0018 5B68     		ldr	r3, [r3, #4]
 428 001a 33B3     		cbz	r3, .L29
 429              		.loc 1 124 0 is_stmt 1
 430 001c 2B69     		ldr	r3, [r5, #16]
 431 001e 23B3     		cbz	r3, .L29
 432              		.loc 1 125 0
 433 0020 2846     		mov	r0, r5
 434 0022 FFF7FEFF 		bl	adc_lld_stop_conversion
 435              	.LVL24:
 436 0026 2B69     		ldr	r3, [r5, #16]
 437 0028 9B68     		ldr	r3, [r3, #8]
 438 002a 63B1     		cbz	r3, .L30
 439              		.loc 1 125 0 is_stmt 0 discriminator 1
 440 002c 0522     		movs	r2, #5
 441 002e 2A70     		strb	r2, [r5]
 442 0030 2846     		mov	r0, r5
 443 0032 0121     		movs	r1, #1
 444 0034 9847     		blx	r3
 445              	.LVL25:
 446 0036 2B78     		ldrb	r3, [r5]	@ zero_extendqisi2
 447 0038 052B     		cmp	r3, #5
 448 003a 04BF     		itt	eq
 449 003c 0223     		moveq	r3, #2
 450 003e 2B70     		strbeq	r3, [r5]
 451 0040 0023     		movs	r3, #0
 452 0042 2B61     		str	r3, [r5, #16]
 453 0044 02E0     		b	.L32
 454              	.L30:
 455              		.loc 1 125 0 discriminator 2
 456 0046 0222     		movs	r2, #2
ARM GAS  /tmp/ccqKmAxm.s 			page 9


 457 0048 2A70     		strb	r2, [r5]
 458 004a 2B61     		str	r3, [r5, #16]
 459              	.L32:
 460              	.LVL26:
 461              	.LBB84:
 462              	.LBB85:
 463              	.LBB86:
 464              	.LBB87:
 465              	.LBB88:
 466              	.LBB89:
 467              	.LBB90:
 468              		.file 2 "../../modules/ChibiOS/os/common/ext/ARM/CMSIS/Core/Include/cmsis_gcc.h"
 469              		.loc 2 493 0 is_stmt 1 discriminator 7
 470 004c 2023     		movs	r3, #32
 471              	@ 493 "../../modules/ChibiOS/os/common/ext/ARM/CMSIS/Core/Include/cmsis_gcc.h" 1
 472 004e 83F31188 		MSR basepri, r3
 473              	@ 0 "" 2
 474              		.thumb
 475              	.LBE90:
 476              	.LBE89:
 477              	.LBE88:
 478              	.LBE87:
 479              		.file 3 "../../modules/ChibiOS/os/rt/include/chsys.h"
 480              		.loc 3 396 0 discriminator 7
 481 0052 FFF7FEFF 		bl	_stats_start_measure_crit_isr
 482              	.LVL27:
 483              	.LBE86:
 484              	.LBE85:
 485              	.LBE84:
 486              	.LBB91:
 487              	.LBB92:
 488              		.file 4 "../../modules/ChibiOS/os/hal/osal/rt/osal.h"
 489              		.loc 4 775 0 discriminator 7
 490 0056 1E48     		ldr	r0, .L52+8
 491 0058 4FF0FF31 		mov	r1, #-1
 492 005c FFF7FEFF 		bl	chThdResumeI
 493              	.LVL28:
 494              	.LBE92:
 495              	.LBE91:
 496              	.LBB93:
 497              	.LBB94:
 498              	.LBB95:
 499              		.loc 3 416 0 discriminator 7
 500 0060 FFF7FEFF 		bl	_stats_stop_measure_crit_isr
 501              	.LVL29:
 502              	.LBB96:
 503              	.LBB97:
 504              	.LBB98:
 505              	.LBB99:
 506              		.loc 2 493 0 discriminator 7
 507 0064 0023     		movs	r3, #0
 508              	@ 493 "../../modules/ChibiOS/os/common/ext/ARM/CMSIS/Core/Include/cmsis_gcc.h" 1
 509 0066 83F31188 		MSR basepri, r3
 510              	@ 0 "" 2
 511              	.LVL30:
 512              		.thumb
 513              	.L29:
ARM GAS  /tmp/ccqKmAxm.s 			page 10


 514              	.LBE99:
 515              	.LBE98:
 516              	.LBE97:
 517              	.LBE96:
 518              	.LBE95:
 519              	.LBE94:
 520              	.LBE93:
 521              		.loc 1 127 0
 522 006a F307     		lsls	r3, r6, #31
 523 006c 27D5     		bpl	.L33
 524              		.loc 1 128 0
 525 006e 174D     		ldr	r5, .L52+4
 526 0070 2B69     		ldr	r3, [r5, #16]
 527 0072 23B3     		cbz	r3, .L33
 528              		.loc 1 129 0
 529 0074 2846     		mov	r0, r5
 530 0076 FFF7FEFF 		bl	adc_lld_stop_conversion
 531              	.LVL31:
 532 007a 2B69     		ldr	r3, [r5, #16]
 533 007c 9B68     		ldr	r3, [r3, #8]
 534 007e 63B1     		cbz	r3, .L34
 535              		.loc 1 129 0 is_stmt 0 discriminator 1
 536 0080 0522     		movs	r2, #5
 537 0082 2A70     		strb	r2, [r5]
 538 0084 2846     		mov	r0, r5
 539 0086 0221     		movs	r1, #2
 540 0088 9847     		blx	r3
 541              	.LVL32:
 542 008a 2B78     		ldrb	r3, [r5]	@ zero_extendqisi2
 543 008c 052B     		cmp	r3, #5
 544 008e 04BF     		itt	eq
 545 0090 0223     		moveq	r3, #2
 546 0092 2B70     		strbeq	r3, [r5]
 547 0094 0023     		movs	r3, #0
 548 0096 2B61     		str	r3, [r5, #16]
 549 0098 02E0     		b	.L36
 550              	.L34:
 551              		.loc 1 129 0 discriminator 2
 552 009a 0222     		movs	r2, #2
 553 009c 2A70     		strb	r2, [r5]
 554 009e 2B61     		str	r3, [r5, #16]
 555              	.L36:
 556              	.LVL33:
 557              	.LBB100:
 558              	.LBB101:
 559              	.LBB102:
 560              	.LBB103:
 561              	.LBB104:
 562              	.LBB105:
 563              	.LBB106:
 564              		.loc 2 493 0 is_stmt 1 discriminator 7
 565 00a0 2023     		movs	r3, #32
 566              	@ 493 "../../modules/ChibiOS/os/common/ext/ARM/CMSIS/Core/Include/cmsis_gcc.h" 1
 567 00a2 83F31188 		MSR basepri, r3
 568              	@ 0 "" 2
 569              		.thumb
 570              	.LBE106:
ARM GAS  /tmp/ccqKmAxm.s 			page 11


 571              	.LBE105:
 572              	.LBE104:
 573              	.LBE103:
 574              		.loc 3 396 0 discriminator 7
 575 00a6 FFF7FEFF 		bl	_stats_start_measure_crit_isr
 576              	.LVL34:
 577              	.LBE102:
 578              	.LBE101:
 579              	.LBE100:
 580              	.LBB107:
 581              	.LBB108:
 582              		.loc 4 775 0 discriminator 7
 583 00aa 0948     		ldr	r0, .L52+8
 584 00ac 4FF0FF31 		mov	r1, #-1
 585 00b0 FFF7FEFF 		bl	chThdResumeI
 586              	.LVL35:
 587              	.LBE108:
 588              	.LBE107:
 589              	.LBB109:
 590              	.LBB110:
 591              	.LBB111:
 592              		.loc 3 416 0 discriminator 7
 593 00b4 FFF7FEFF 		bl	_stats_stop_measure_crit_isr
 594              	.LVL36:
 595              	.LBB112:
 596              	.LBB113:
 597              	.LBB114:
 598              	.LBB115:
 599              		.loc 2 493 0 discriminator 7
 600 00b8 0023     		movs	r3, #0
 601              	@ 493 "../../modules/ChibiOS/os/common/ext/ARM/CMSIS/Core/Include/cmsis_gcc.h" 1
 602 00ba 83F31188 		MSR basepri, r3
 603              	@ 0 "" 2
 604              	.LVL37:
 605              		.thumb
 606              	.L33:
 607              	.LBE115:
 608              	.LBE114:
 609              	.LBE113:
 610              	.LBE112:
 611              	.LBE111:
 612              	.LBE110:
 613              	.LBE109:
 614              		.loc 1 180 0
 615 00be BDE87040 		pop	{r4, r5, r6, lr}
 616              		.cfi_restore 14
 617              		.cfi_restore 6
 618              		.cfi_restore 5
 619              		.cfi_restore 4
 620              		.cfi_def_cfa_offset 0
 621              	.LVL38:
 622              		.loc 1 179 0
 623 00c2 FFF7FEBF 		b	_port_irq_epilogue
 624              	.LVL39:
 625              	.L53:
 626 00c6 00BF     		.align	2
 627              	.L52:
ARM GAS  /tmp/ccqKmAxm.s 			page 12


 628 00c8 00200140 		.word	1073815552
 629 00cc 00000000 		.word	.LANCHOR0
 630 00d0 14000000 		.word	.LANCHOR0+20
 631              		.cfi_endproc
 632              	.LFE324:
 633              		.size	Vector88, .-Vector88
 634              		.section	.text.adc_lld_serve_rx_interrupt,"ax",%progbits
 635              		.align	1
 636              		.thumb
 637              		.thumb_func
 638              		.type	adc_lld_serve_rx_interrupt, %function
 639              	adc_lld_serve_rx_interrupt:
 640              	.LFB323:
 641              		.loc 1 75 0
 642              		.cfi_startproc
 643              		@ args = 0, pretend = 0, frame = 0
 644              		@ frame_needed = 0, uses_anonymous_args = 0
 645              	.LVL40:
 646              		.loc 1 78 0
 647 0000 11F00C0F 		tst	r1, #12
 648              		.loc 1 75 0
 649 0004 10B5     		push	{r4, lr}
 650              		.cfi_def_cfa_offset 8
 651              		.cfi_offset 4, -8
 652              		.cfi_offset 14, -4
 653              		.loc 1 75 0
 654 0006 0446     		mov	r4, r0
 655              		.loc 1 78 0
 656 0008 1DD0     		beq	.L55
 657              		.loc 1 81 0
 658 000a FFF7FEFF 		bl	adc_lld_stop_conversion
 659              	.LVL41:
 660 000e 2369     		ldr	r3, [r4, #16]
 661 0010 9B68     		ldr	r3, [r3, #8]
 662 0012 5BB1     		cbz	r3, .L56
 663              		.loc 1 81 0 is_stmt 0 discriminator 1
 664 0014 0522     		movs	r2, #5
 665 0016 2270     		strb	r2, [r4]
 666 0018 2046     		mov	r0, r4
 667 001a 0021     		movs	r1, #0
 668 001c 9847     		blx	r3
 669              	.LVL42:
 670 001e 2378     		ldrb	r3, [r4]	@ zero_extendqisi2
 671 0020 052B     		cmp	r3, #5
 672 0022 04BF     		itt	eq
 673 0024 0223     		moveq	r3, #2
 674 0026 2370     		strbeq	r3, [r4]
 675 0028 0023     		movs	r3, #0
 676 002a 01E0     		b	.L78
 677              	.L56:
 678              		.loc 1 81 0 discriminator 2
 679 002c 0222     		movs	r2, #2
 680 002e 2270     		strb	r2, [r4]
 681              	.L78:
 682 0030 2361     		str	r3, [r4, #16]
 683              	.LVL43:
 684              	.LBB152:
ARM GAS  /tmp/ccqKmAxm.s 			page 13


 685              	.LBB153:
 686              	.LBB154:
 687              	.LBB155:
 688              	.LBB156:
 689              	.LBB157:
 690              	.LBB158:
 691              		.loc 2 493 0 is_stmt 1 discriminator 2
 692 0032 2023     		movs	r3, #32
 693              	@ 493 "../../modules/ChibiOS/os/common/ext/ARM/CMSIS/Core/Include/cmsis_gcc.h" 1
 694 0034 83F31188 		MSR basepri, r3
 695              	@ 0 "" 2
 696              		.thumb
 697              	.LBE158:
 698              	.LBE157:
 699              	.LBE156:
 700              	.LBE155:
 701              		.loc 3 396 0 discriminator 2
 702 0038 FFF7FEFF 		bl	_stats_start_measure_crit_isr
 703              	.LVL44:
 704              	.LBE154:
 705              	.LBE153:
 706              	.LBE152:
 707              	.LBB159:
 708              	.LBB160:
 709              		.loc 4 775 0 discriminator 2
 710 003c 04F11400 		add	r0, r4, #20
 711              	.LVL45:
 712 0040 4FF0FF31 		mov	r1, #-1
 713 0044 29E0     		b	.L79
 714              	.LVL46:
 715              	.L55:
 716              	.LBE160:
 717              	.LBE159:
 718              		.loc 1 86 0
 719 0046 0369     		ldr	r3, [r0, #16]
 720 0048 002B     		cmp	r3, #0
 721 004a 35D0     		beq	.L54
 722              		.loc 1 88 0
 723 004c 8A06     		lsls	r2, r1, #26
 724 004e 2CD5     		bpl	.L61
 725              		.loc 1 90 0
 726 0050 1A78     		ldrb	r2, [r3]	@ zero_extendqisi2
 727 0052 52B1     		cbz	r2, .L62
 728              		.loc 1 90 0 is_stmt 0 discriminator 1
 729 0054 5B68     		ldr	r3, [r3, #4]
 730 0056 7BB3     		cbz	r3, .L54
 731              		.loc 1 90 0 discriminator 3
 732 0058 0422     		movs	r2, #4
 733 005a 0270     		strb	r2, [r0]
 734 005c 9847     		blx	r3
 735              	.LVL47:
 736 005e 2378     		ldrb	r3, [r4]	@ zero_extendqisi2
 737 0060 042B     		cmp	r3, #4
 738 0062 29D1     		bne	.L54
 739              		.loc 1 90 0 discriminator 4
 740 0064 0323     		movs	r3, #3
 741 0066 2370     		strb	r3, [r4]
ARM GAS  /tmp/ccqKmAxm.s 			page 14


 742 0068 10BD     		pop	{r4, pc}
 743              	.LVL48:
 744              	.L62:
 745              		.loc 1 90 0 discriminator 2
 746 006a FFF7FEFF 		bl	adc_lld_stop_conversion
 747              	.LVL49:
 748 006e 2369     		ldr	r3, [r4, #16]
 749 0070 5B68     		ldr	r3, [r3, #4]
 750 0072 33B1     		cbz	r3, .L64
 751              		.loc 1 90 0 discriminator 5
 752 0074 0422     		movs	r2, #4
 753 0076 2270     		strb	r2, [r4]
 754 0078 2046     		mov	r0, r4
 755 007a 9847     		blx	r3
 756              	.LVL50:
 757 007c 2378     		ldrb	r3, [r4]	@ zero_extendqisi2
 758 007e 042B     		cmp	r3, #4
 759 0080 03D1     		bne	.L65
 760              	.L64:
 761              		.loc 1 90 0 discriminator 7
 762 0082 0223     		movs	r3, #2
 763 0084 2370     		strb	r3, [r4]
 764 0086 0023     		movs	r3, #0
 765 0088 2361     		str	r3, [r4, #16]
 766              	.L65:
 767              	.LVL51:
 768              	.LBB161:
 769              	.LBB162:
 770              	.LBB163:
 771              	.LBB164:
 772              	.LBB165:
 773              	.LBB166:
 774              	.LBB167:
 775              		.loc 2 493 0 is_stmt 1 discriminator 8
 776 008a 2023     		movs	r3, #32
 777              	@ 493 "../../modules/ChibiOS/os/common/ext/ARM/CMSIS/Core/Include/cmsis_gcc.h" 1
 778 008c 83F31188 		MSR basepri, r3
 779              	@ 0 "" 2
 780              		.thumb
 781              	.LBE167:
 782              	.LBE166:
 783              	.LBE165:
 784              	.LBE164:
 785              		.loc 3 396 0 discriminator 8
 786 0090 FFF7FEFF 		bl	_stats_start_measure_crit_isr
 787              	.LVL52:
 788              	.LBE163:
 789              	.LBE162:
 790              	.LBE161:
 791              	.LBB168:
 792              	.LBB169:
 793              		.loc 4 775 0 discriminator 8
 794 0094 04F11400 		add	r0, r4, #20
 795              	.LVL53:
 796 0098 0021     		movs	r1, #0
 797              	.LVL54:
 798              	.L79:
ARM GAS  /tmp/ccqKmAxm.s 			page 15


 799 009a FFF7FEFF 		bl	chThdResumeI
 800              	.LVL55:
 801              	.LBE169:
 802              	.LBE168:
 803              	.LBB170:
 804              	.LBB171:
 805              	.LBB172:
 806              		.loc 3 416 0 discriminator 8
 807 009e FFF7FEFF 		bl	_stats_stop_measure_crit_isr
 808              	.LVL56:
 809              	.LBB173:
 810              	.LBB174:
 811              	.LBB175:
 812              	.LBB176:
 813              		.loc 2 493 0 discriminator 8
 814 00a2 0023     		movs	r3, #0
 815              	@ 493 "../../modules/ChibiOS/os/common/ext/ARM/CMSIS/Core/Include/cmsis_gcc.h" 1
 816 00a4 83F31188 		MSR basepri, r3
 817              	@ 0 "" 2
 818              		.thumb
 819 00a8 10BD     		pop	{r4, pc}
 820              	.LVL57:
 821              	.L61:
 822              	.LBE176:
 823              	.LBE175:
 824              	.LBE174:
 825              	.LBE173:
 826              	.LBE172:
 827              	.LBE171:
 828              	.LBE170:
 829              		.loc 1 92 0
 830 00aa CA06     		lsls	r2, r1, #27
 831 00ac 04D5     		bpl	.L54
 832              		.loc 1 94 0
 833 00ae 5B68     		ldr	r3, [r3, #4]
 834 00b0 13B1     		cbz	r3, .L54
 835              		.loc 1 98 0 discriminator 1
 836 00b2 BDE81040 		pop	{r4, lr}
 837              		.cfi_remember_state
 838              		.cfi_restore 14
 839              		.cfi_restore 4
 840              		.cfi_def_cfa_offset 0
 841              		.loc 1 94 0 discriminator 1
 842 00b6 1847     		bx	r3	@ indirect register sibling call
 843              	.LVL58:
 844              	.L54:
 845              		.cfi_restore_state
 846 00b8 10BD     		pop	{r4, pc}
 847              		.cfi_endproc
 848              	.LFE323:
 849              		.size	adc_lld_serve_rx_interrupt, .-adc_lld_serve_rx_interrupt
 850              		.section	.text.adcSTM32EnableTSVREFE,"ax",%progbits
 851              		.align	1
 852              		.global	adcSTM32EnableTSVREFE
 853              		.thumb
 854              		.thumb_func
 855              		.type	adcSTM32EnableTSVREFE, %function
ARM GAS  /tmp/ccqKmAxm.s 			page 16


 856              	adcSTM32EnableTSVREFE:
 857              	.LFB330:
 858              		.loc 1 412 0
 859              		.cfi_startproc
 860              		@ args = 0, pretend = 0, frame = 0
 861              		@ frame_needed = 0, uses_anonymous_args = 0
 862              		@ link register save eliminated.
 863              		.loc 1 414 0
 864 0000 024A     		ldr	r2, .L81
 865 0002 5368     		ldr	r3, [r2, #4]
 866 0004 43F40003 		orr	r3, r3, #8388608
 867 0008 5360     		str	r3, [r2, #4]
 868 000a 7047     		bx	lr
 869              	.L82:
 870              		.align	2
 871              	.L81:
 872 000c 00230140 		.word	1073816320
 873              		.cfi_endproc
 874              	.LFE330:
 875              		.size	adcSTM32EnableTSVREFE, .-adcSTM32EnableTSVREFE
 876              		.section	.text.adcSTM32DisableTSVREFE,"ax",%progbits
 877              		.align	1
 878              		.global	adcSTM32DisableTSVREFE
 879              		.thumb
 880              		.thumb_func
 881              		.type	adcSTM32DisableTSVREFE, %function
 882              	adcSTM32DisableTSVREFE:
 883              	.LFB331:
 884              		.loc 1 423 0
 885              		.cfi_startproc
 886              		@ args = 0, pretend = 0, frame = 0
 887              		@ frame_needed = 0, uses_anonymous_args = 0
 888              		@ link register save eliminated.
 889              		.loc 1 425 0
 890 0000 024A     		ldr	r2, .L84
 891 0002 5368     		ldr	r3, [r2, #4]
 892 0004 23F40003 		bic	r3, r3, #8388608
 893 0008 5360     		str	r3, [r2, #4]
 894 000a 7047     		bx	lr
 895              	.L85:
 896              		.align	2
 897              	.L84:
 898 000c 00230140 		.word	1073816320
 899              		.cfi_endproc
 900              	.LFE331:
 901              		.size	adcSTM32DisableTSVREFE, .-adcSTM32DisableTSVREFE
 902              		.section	.text.adcSTM32EnableVBATE,"ax",%progbits
 903              		.align	1
 904              		.global	adcSTM32EnableVBATE
 905              		.thumb
 906              		.thumb_func
 907              		.type	adcSTM32EnableVBATE, %function
 908              	adcSTM32EnableVBATE:
 909              	.LFB332:
 910              		.loc 1 434 0
 911              		.cfi_startproc
 912              		@ args = 0, pretend = 0, frame = 0
ARM GAS  /tmp/ccqKmAxm.s 			page 17


 913              		@ frame_needed = 0, uses_anonymous_args = 0
 914              		@ link register save eliminated.
 915              		.loc 1 436 0
 916 0000 024A     		ldr	r2, .L87
 917 0002 5368     		ldr	r3, [r2, #4]
 918 0004 43F48003 		orr	r3, r3, #4194304
 919 0008 5360     		str	r3, [r2, #4]
 920 000a 7047     		bx	lr
 921              	.L88:
 922              		.align	2
 923              	.L87:
 924 000c 00230140 		.word	1073816320
 925              		.cfi_endproc
 926              	.LFE332:
 927              		.size	adcSTM32EnableVBATE, .-adcSTM32EnableVBATE
 928              		.section	.text.adcSTM32DisableVBATE,"ax",%progbits
 929              		.align	1
 930              		.global	adcSTM32DisableVBATE
 931              		.thumb
 932              		.thumb_func
 933              		.type	adcSTM32DisableVBATE, %function
 934              	adcSTM32DisableVBATE:
 935              	.LFB333:
 936              		.loc 1 445 0
 937              		.cfi_startproc
 938              		@ args = 0, pretend = 0, frame = 0
 939              		@ frame_needed = 0, uses_anonymous_args = 0
 940              		@ link register save eliminated.
 941              		.loc 1 447 0
 942 0000 024A     		ldr	r2, .L90
 943 0002 5368     		ldr	r3, [r2, #4]
 944 0004 23F48003 		bic	r3, r3, #4194304
 945 0008 5360     		str	r3, [r2, #4]
 946 000a 7047     		bx	lr
 947              	.L91:
 948              		.align	2
 949              	.L90:
 950 000c 00230140 		.word	1073816320
 951              		.cfi_endproc
 952              	.LFE333:
 953              		.size	adcSTM32DisableVBATE, .-adcSTM32DisableVBATE
 954              		.global	ADCD1
 955              		.section	.bss.ADCD1,"aw",%nobits
 956              		.align	2
 957              		.set	.LANCHOR0,. + 0
 958              		.type	ADCD1, %object
 959              		.size	ADCD1, 36
 960              	ADCD1:
 961 0000 00000000 		.space	36
 961      00000000 
 961      00000000 
 961      00000000 
 961      00000000 
 962              		.text
 963              	.Letext0:
 964              		.file 5 "/usr/lib/gcc/arm-none-eabi/4.9.3/include/stddef.h"
 965              		.file 6 "/usr/include/newlib/machine/_default_types.h"
ARM GAS  /tmp/ccqKmAxm.s 			page 18


 966              		.file 7 "/usr/include/newlib/sys/_stdint.h"
 967              		.file 8 "../../modules/ChibiOS/os/common/ports/ARMCMx/compilers/GCC/chtypes.h"
 968              		.file 9 "../../modules/ChibiOS/os/rt/include/chsystypes.h"
 969              		.file 10 "../../modules/ChibiOS/os/rt/include/chschd.h"
 970              		.file 11 "../../modules/ChibiOS/os/rt/include/chtime.h"
 971              		.file 12 "../../modules/ChibiOS/os/common/ext/ST/STM32F4xx/stm32f407xx.h"
 972              		.file 13 "../../modules/ChibiOS/os/common/ports/ARMCMx/chcore.h"
 973              		.file 14 "../../modules/ChibiOS/os/common/ports/ARMCMx/chcore_v7m.h"
 974              		.file 15 "../../modules/ChibiOS/os/rt/include/chtm.h"
 975              		.file 16 "../../modules/ChibiOS/os/rt/include/chstats.h"
 976              		.file 17 "../../modules/ChibiOS/os/rt/include/chsem.h"
 977              		.file 18 "../../modules/ChibiOS/os/rt/include/chmtx.h"
 978              		.file 19 "../../modules/ChibiOS/os/hal/ports/STM32/LLD/DMAv2/stm32_dma.h"
 979              		.file 20 "../../modules/ChibiOS/os/hal/include/hal_adc.h"
 980              		.file 21 "../../modules/ChibiOS/os/hal/ports/STM32/LLD/ADCv2/hal_adc_lld.h"
 981              		.file 22 "../../modules/ChibiOS/os/common/ext/ARM/CMSIS/Core/Include/core_cm4.h"
 982              		.file 23 "../../modules/ChibiOS/os/hal/ports/common/ARMCMx/nvic.h"
 983              		.file 24 "../../modules/ChibiOS/os/rt/include/chthreads.h"