ARM GAS  /tmp/cc9De0I0.s 			page 1


   1              		.syntax unified
   2              		.cpu cortex-m4
   3              		.eabi_attribute 27, 1
   4              		.eabi_attribute 28, 1
   5              		.fpu fpv4-sp-d16
   6              		.eabi_attribute 20, 1
   7              		.eabi_attribute 21, 1
   8              		.eabi_attribute 23, 3
   9              		.eabi_attribute 24, 1
  10              		.eabi_attribute 25, 1
  11              		.eabi_attribute 26, 1
  12              		.eabi_attribute 30, 4
  13              		.eabi_attribute 34, 1
  14              		.eabi_attribute 18, 4
  15              		.thumb
  16              		.file	"hal_adc.c"
  17              		.text
  18              	.Ltext0:
  19              		.cfi_sections	.debug_frame
  20              		.section	.text.adcInit,"ax",%progbits
  21              		.align	1
  22              		.global	adcInit
  23              		.thumb
  24              		.thumb_func
  25              		.type	adcInit, %function
  26              	adcInit:
  27              	.LFB323:
  28              		.file 1 "../../modules/ChibiOS/os/hal/src/hal_adc.c"
  29              		.loc 1 56 0
  30              		.cfi_startproc
  31              		@ args = 0, pretend = 0, frame = 0
  32              		@ frame_needed = 0, uses_anonymous_args = 0
  33              		@ link register save eliminated.
  34              		.loc 1 58 0
  35 0000 FFF7FEBF 		b	adc_lld_init
  36              	.LVL0:
  37              		.cfi_endproc
  38              	.LFE323:
  39              		.size	adcInit, .-adcInit
  40              		.section	.text.adcObjectInit,"ax",%progbits
  41              		.align	1
  42              		.global	adcObjectInit
  43              		.thumb
  44              		.thumb_func
  45              		.type	adcObjectInit, %function
  46              	adcObjectInit:
  47              	.LFB324:
  48              		.loc 1 68 0
  49              		.cfi_startproc
  50              		@ args = 0, pretend = 0, frame = 0
  51              		@ frame_needed = 0, uses_anonymous_args = 0
  52              		@ link register save eliminated.
  53              	.LVL1:
  54              		.loc 1 70 0
  55 0000 0123     		movs	r3, #1
  56 0002 0370     		strb	r3, [r0]
  57              		.loc 1 71 0
ARM GAS  /tmp/cc9De0I0.s 			page 2


  58 0004 0023     		movs	r3, #0
  59 0006 4360     		str	r3, [r0, #4]
  60              		.loc 1 72 0
  61 0008 8360     		str	r3, [r0, #8]
  62              		.loc 1 73 0
  63 000a C360     		str	r3, [r0, #12]
  64              		.loc 1 74 0
  65 000c 0361     		str	r3, [r0, #16]
  66              		.loc 1 76 0
  67 000e 4361     		str	r3, [r0, #20]
  68 0010 7047     		bx	lr
  69              		.cfi_endproc
  70              	.LFE324:
  71              		.size	adcObjectInit, .-adcObjectInit
  72              		.section	.text.adcStart,"ax",%progbits
  73              		.align	1
  74              		.global	adcStart
  75              		.thumb
  76              		.thumb_func
  77              		.type	adcStart, %function
  78              	adcStart:
  79              	.LFB325:
  80              		.loc 1 95 0
  81              		.cfi_startproc
  82              		@ args = 0, pretend = 0, frame = 0
  83              		@ frame_needed = 0, uses_anonymous_args = 0
  84              	.LVL2:
  85 0000 38B5     		push	{r3, r4, r5, lr}
  86              		.cfi_def_cfa_offset 16
  87              		.cfi_offset 3, -16
  88              		.cfi_offset 4, -12
  89              		.cfi_offset 5, -8
  90              		.cfi_offset 14, -4
  91              		.loc 1 95 0
  92 0002 0446     		mov	r4, r0
  93 0004 0D46     		mov	r5, r1
  94              	.LBB56:
  95              	.LBB57:
  96              	.LBB58:
  97              	.LBB59:
  98              	.LBB60:
  99              	.LBB61:
 100              		.file 2 "../../modules/ChibiOS/os/common/ext/ARM/CMSIS/Core/Include/cmsis_gcc.h"
 101              		.loc 2 493 0
 102 0006 2023     		movs	r3, #32
 103              	@ 493 "../../modules/ChibiOS/os/common/ext/ARM/CMSIS/Core/Include/cmsis_gcc.h" 1
 104 0008 83F31188 		MSR basepri, r3
 105              	@ 0 "" 2
 106              		.thumb
 107              	.LBE61:
 108              	.LBE60:
 109              	.LBE59:
 110              		.file 3 "../../modules/ChibiOS/os/rt/include/chsys.h"
 111              		.loc 3 356 0
 112 000c FFF7FEFF 		bl	_stats_start_measure_crit_thd
 113              	.LVL3:
 114              	.LBE58:
ARM GAS  /tmp/cc9De0I0.s 			page 3


 115              	.LBE57:
 116              	.LBE56:
 117              		.loc 1 103 0
 118 0010 2046     		mov	r0, r4
 119              		.loc 1 102 0
 120 0012 6560     		str	r5, [r4, #4]
 121              		.loc 1 103 0
 122 0014 FFF7FEFF 		bl	adc_lld_start
 123              	.LVL4:
 124              		.loc 1 104 0
 125 0018 0223     		movs	r3, #2
 126 001a 2370     		strb	r3, [r4]
 127              	.LBB62:
 128              	.LBB63:
 129              	.LBB64:
 130              		.loc 3 368 0
 131 001c FFF7FEFF 		bl	_stats_stop_measure_crit_thd
 132              	.LVL5:
 133              	.LBB65:
 134              	.LBB66:
 135              	.LBB67:
 136              		.loc 2 493 0
 137 0020 0023     		movs	r3, #0
 138              	@ 493 "../../modules/ChibiOS/os/common/ext/ARM/CMSIS/Core/Include/cmsis_gcc.h" 1
 139 0022 83F31188 		MSR basepri, r3
 140              	@ 0 "" 2
 141              		.thumb
 142 0026 38BD     		pop	{r3, r4, r5, pc}
 143              	.LBE67:
 144              	.LBE66:
 145              	.LBE65:
 146              	.LBE64:
 147              	.LBE63:
 148              	.LBE62:
 149              		.cfi_endproc
 150              	.LFE325:
 151              		.size	adcStart, .-adcStart
 152              		.section	.text.adcStop,"ax",%progbits
 153              		.align	1
 154              		.global	adcStop
 155              		.thumb
 156              		.thumb_func
 157              		.type	adcStop, %function
 158              	adcStop:
 159              	.LFB326:
 160              		.loc 1 115 0
 161              		.cfi_startproc
 162              		@ args = 0, pretend = 0, frame = 0
 163              		@ frame_needed = 0, uses_anonymous_args = 0
 164              	.LVL6:
 165 0000 38B5     		push	{r3, r4, r5, lr}
 166              		.cfi_def_cfa_offset 16
 167              		.cfi_offset 3, -16
 168              		.cfi_offset 4, -12
 169              		.cfi_offset 5, -8
 170              		.cfi_offset 14, -4
 171              		.loc 1 115 0
ARM GAS  /tmp/cc9De0I0.s 			page 4


 172 0002 0446     		mov	r4, r0
 173              	.LBB82:
 174              	.LBB83:
 175              	.LBB84:
 176              	.LBB85:
 177              	.LBB86:
 178              	.LBB87:
 179              		.loc 2 493 0
 180 0004 2023     		movs	r3, #32
 181              	@ 493 "../../modules/ChibiOS/os/common/ext/ARM/CMSIS/Core/Include/cmsis_gcc.h" 1
 182 0006 83F31188 		MSR basepri, r3
 183              	@ 0 "" 2
 184              		.thumb
 185              	.LBE87:
 186              	.LBE86:
 187              	.LBE85:
 188              		.loc 3 356 0
 189 000a FFF7FEFF 		bl	_stats_start_measure_crit_thd
 190              	.LVL7:
 191              	.LBE84:
 192              	.LBE83:
 193              	.LBE82:
 194              		.loc 1 124 0
 195 000e 2046     		mov	r0, r4
 196 0010 FFF7FEFF 		bl	adc_lld_stop
 197              	.LVL8:
 198              		.loc 1 125 0
 199 0014 0025     		movs	r5, #0
 200              		.loc 1 126 0
 201 0016 0123     		movs	r3, #1
 202              		.loc 1 125 0
 203 0018 6560     		str	r5, [r4, #4]
 204              		.loc 1 126 0
 205 001a 2370     		strb	r3, [r4]
 206              	.LBB88:
 207              	.LBB89:
 208              	.LBB90:
 209              		.loc 3 368 0
 210 001c FFF7FEFF 		bl	_stats_stop_measure_crit_thd
 211              	.LVL9:
 212              	.LBB91:
 213              	.LBB92:
 214              	.LBB93:
 215              		.loc 2 493 0
 216              	@ 493 "../../modules/ChibiOS/os/common/ext/ARM/CMSIS/Core/Include/cmsis_gcc.h" 1
 217 0020 85F31188 		MSR basepri, r5
 218              	@ 0 "" 2
 219              		.thumb
 220 0024 38BD     		pop	{r3, r4, r5, pc}
 221              	.LBE93:
 222              	.LBE92:
 223              	.LBE91:
 224              	.LBE90:
 225              	.LBE89:
 226              	.LBE88:
 227              		.cfi_endproc
 228              	.LFE326:
ARM GAS  /tmp/cc9De0I0.s 			page 5


 229              		.size	adcStop, .-adcStop
 230              		.section	.text.adcStartConversion,"ax",%progbits
 231              		.align	1
 232              		.global	adcStartConversion
 233              		.thumb
 234              		.thumb_func
 235              		.type	adcStartConversion, %function
 236              	adcStartConversion:
 237              	.LFB327:
 238              		.loc 1 150 0
 239              		.cfi_startproc
 240              		@ args = 0, pretend = 0, frame = 0
 241              		@ frame_needed = 0, uses_anonymous_args = 0
 242              	.LVL10:
 243 0000 F8B5     		push	{r3, r4, r5, r6, r7, lr}
 244              		.cfi_def_cfa_offset 24
 245              		.cfi_offset 3, -24
 246              		.cfi_offset 4, -20
 247              		.cfi_offset 5, -16
 248              		.cfi_offset 6, -12
 249              		.cfi_offset 7, -8
 250              		.cfi_offset 14, -4
 251              		.loc 1 150 0
 252 0002 1E46     		mov	r6, r3
 253 0004 0446     		mov	r4, r0
 254 0006 0D46     		mov	r5, r1
 255 0008 1746     		mov	r7, r2
 256              	.LBB110:
 257              	.LBB111:
 258              	.LBB112:
 259              	.LBB113:
 260              	.LBB114:
 261              	.LBB115:
 262              		.loc 2 493 0
 263 000a 2023     		movs	r3, #32
 264              	.LVL11:
 265              	@ 493 "../../modules/ChibiOS/os/common/ext/ARM/CMSIS/Core/Include/cmsis_gcc.h" 1
 266 000c 83F31188 		MSR basepri, r3
 267              	@ 0 "" 2
 268              		.thumb
 269              	.LBE115:
 270              	.LBE114:
 271              	.LBE113:
 272              		.loc 3 356 0
 273 0010 FFF7FEFF 		bl	_stats_start_measure_crit_thd
 274              	.LVL12:
 275              	.LBE112:
 276              	.LBE111:
 277              	.LBE110:
 278              	.LBB116:
 279              	.LBB117:
 280              		.loc 1 190 0
 281 0014 0323     		movs	r3, #3
 282 0016 2370     		strb	r3, [r4]
 283              		.loc 1 191 0
 284 0018 2046     		mov	r0, r4
 285              		.loc 1 187 0
ARM GAS  /tmp/cc9De0I0.s 			page 6


 286 001a A760     		str	r7, [r4, #8]
 287              		.loc 1 188 0
 288 001c E660     		str	r6, [r4, #12]
 289              		.loc 1 189 0
 290 001e 2561     		str	r5, [r4, #16]
 291              		.loc 1 191 0
 292 0020 FFF7FEFF 		bl	adc_lld_start_conversion
 293              	.LVL13:
 294              	.LBE117:
 295              	.LBE116:
 296              	.LBB118:
 297              	.LBB119:
 298              	.LBB120:
 299              		.loc 3 368 0
 300 0024 FFF7FEFF 		bl	_stats_stop_measure_crit_thd
 301              	.LVL14:
 302              	.LBB121:
 303              	.LBB122:
 304              	.LBB123:
 305              		.loc 2 493 0
 306 0028 0023     		movs	r3, #0
 307              	@ 493 "../../modules/ChibiOS/os/common/ext/ARM/CMSIS/Core/Include/cmsis_gcc.h" 1
 308 002a 83F31188 		MSR basepri, r3
 309              	@ 0 "" 2
 310              		.thumb
 311 002e F8BD     		pop	{r3, r4, r5, r6, r7, pc}
 312              	.LBE123:
 313              	.LBE122:
 314              	.LBE121:
 315              	.LBE120:
 316              	.LBE119:
 317              	.LBE118:
 318              		.cfi_endproc
 319              	.LFE327:
 320              		.size	adcStartConversion, .-adcStartConversion
 321              		.section	.text.adcStartConversionI,"ax",%progbits
 322              		.align	1
 323              		.global	adcStartConversionI
 324              		.thumb
 325              		.thumb_func
 326              		.type	adcStartConversionI, %function
 327              	adcStartConversionI:
 328              	.LFB328:
 329              		.loc 1 178 0
 330              		.cfi_startproc
 331              		@ args = 0, pretend = 0, frame = 0
 332              		@ frame_needed = 0, uses_anonymous_args = 0
 333              	.LVL15:
 334 0000 10B5     		push	{r4, lr}
 335              		.cfi_def_cfa_offset 8
 336              		.cfi_offset 4, -8
 337              		.cfi_offset 14, -4
 338              		.loc 1 188 0
 339 0002 C360     		str	r3, [r0, #12]
 340              		.loc 1 190 0
 341 0004 0323     		movs	r3, #3
 342              	.LVL16:
ARM GAS  /tmp/cc9De0I0.s 			page 7


 343              		.loc 1 187 0
 344 0006 8260     		str	r2, [r0, #8]
 345              		.loc 1 189 0
 346 0008 0161     		str	r1, [r0, #16]
 347              		.loc 1 190 0
 348 000a 0370     		strb	r3, [r0]
 349              		.loc 1 192 0
 350 000c BDE81040 		pop	{r4, lr}
 351              		.cfi_restore 14
 352              		.cfi_restore 4
 353              		.cfi_def_cfa_offset 0
 354              		.loc 1 191 0
 355 0010 FFF7FEBF 		b	adc_lld_start_conversion
 356              	.LVL17:
 357              		.cfi_endproc
 358              	.LFE328:
 359              		.size	adcStartConversionI, .-adcStartConversionI
 360              		.section	.text.adcStopConversion,"ax",%progbits
 361              		.align	1
 362              		.global	adcStopConversion
 363              		.thumb
 364              		.thumb_func
 365              		.type	adcStopConversion, %function
 366              	adcStopConversion:
 367              	.LFB329:
 368              		.loc 1 204 0
 369              		.cfi_startproc
 370              		@ args = 0, pretend = 0, frame = 0
 371              		@ frame_needed = 0, uses_anonymous_args = 0
 372              	.LVL18:
 373 0000 10B5     		push	{r4, lr}
 374              		.cfi_def_cfa_offset 8
 375              		.cfi_offset 4, -8
 376              		.cfi_offset 14, -4
 377              	.LBB140:
 378              	.LBB141:
 379              	.LBB142:
 380              	.LBB143:
 381              	.LBB144:
 382              	.LBB145:
 383              		.loc 2 493 0
 384 0002 2023     		movs	r3, #32
 385              	.LBE145:
 386              	.LBE144:
 387              	.LBE143:
 388              	.LBE142:
 389              	.LBE141:
 390              	.LBE140:
 391              		.loc 1 204 0
 392 0004 0446     		mov	r4, r0
 393              	.LBB151:
 394              	.LBB150:
 395              	.LBB149:
 396              	.LBB148:
 397              	.LBB147:
 398              	.LBB146:
 399              		.loc 2 493 0
ARM GAS  /tmp/cc9De0I0.s 			page 8


 400              	@ 493 "../../modules/ChibiOS/os/common/ext/ARM/CMSIS/Core/Include/cmsis_gcc.h" 1
 401 0006 83F31188 		MSR basepri, r3
 402              	@ 0 "" 2
 403              		.thumb
 404              	.LBE146:
 405              	.LBE147:
 406              	.LBE148:
 407              		.loc 3 356 0
 408 000a FFF7FEFF 		bl	_stats_start_measure_crit_thd
 409              	.LVL19:
 410              	.LBE149:
 411              	.LBE150:
 412              	.LBE151:
 413              		.loc 1 211 0
 414 000e 2378     		ldrb	r3, [r4]	@ zero_extendqisi2
 415 0010 022B     		cmp	r3, #2
 416 0012 0CD0     		beq	.L8
 417              		.loc 1 212 0
 418 0014 2046     		mov	r0, r4
 419 0016 FFF7FEFF 		bl	adc_lld_stop_conversion
 420              	.LVL20:
 421              		.loc 1 213 0
 422 001a 0023     		movs	r3, #0
 423              		.loc 1 214 0
 424 001c 2046     		mov	r0, r4
 425              		.loc 1 213 0
 426 001e 2361     		str	r3, [r4, #16]
 427              		.loc 1 214 0
 428 0020 0223     		movs	r3, #2
 429 0022 00F8143B 		strb	r3, [r0], #20
 430              	.LVL21:
 431              	.LBB152:
 432              	.LBB153:
 433              		.file 4 "../../modules/ChibiOS/os/hal/osal/rt/osal.h"
 434              		.loc 4 790 0
 435 0026 6FF00101 		mvn	r1, #1
 436 002a FFF7FEFF 		bl	chThdResumeS
 437              	.LVL22:
 438              	.L8:
 439              	.LBE153:
 440              	.LBE152:
 441              	.LBB154:
 442              	.LBB155:
 443              	.LBB156:
 444              		.loc 3 368 0
 445 002e FFF7FEFF 		bl	_stats_stop_measure_crit_thd
 446              	.LVL23:
 447              	.LBB157:
 448              	.LBB158:
 449              	.LBB159:
 450              		.loc 2 493 0
 451 0032 0023     		movs	r3, #0
 452              	@ 493 "../../modules/ChibiOS/os/common/ext/ARM/CMSIS/Core/Include/cmsis_gcc.h" 1
 453 0034 83F31188 		MSR basepri, r3
 454              	@ 0 "" 2
 455              		.thumb
 456 0038 10BD     		pop	{r4, pc}
ARM GAS  /tmp/cc9De0I0.s 			page 9


 457              	.LBE159:
 458              	.LBE158:
 459              	.LBE157:
 460              	.LBE156:
 461              	.LBE155:
 462              	.LBE154:
 463              		.cfi_endproc
 464              	.LFE329:
 465              		.size	adcStopConversion, .-adcStopConversion
 466              		.section	.text.adcStopConversionI,"ax",%progbits
 467              		.align	1
 468              		.global	adcStopConversionI
 469              		.thumb
 470              		.thumb_func
 471              		.type	adcStopConversionI, %function
 472              	adcStopConversionI:
 473              	.LFB330:
 474              		.loc 1 230 0
 475              		.cfi_startproc
 476              		@ args = 0, pretend = 0, frame = 0
 477              		@ frame_needed = 0, uses_anonymous_args = 0
 478              	.LVL24:
 479              		.loc 1 239 0
 480 0000 0378     		ldrb	r3, [r0]	@ zero_extendqisi2
 481 0002 022B     		cmp	r3, #2
 482              		.loc 1 230 0
 483 0004 10B5     		push	{r4, lr}
 484              		.cfi_def_cfa_offset 8
 485              		.cfi_offset 4, -8
 486              		.cfi_offset 14, -4
 487              		.loc 1 230 0
 488 0006 0446     		mov	r4, r0
 489              		.loc 1 239 0
 490 0008 0DD0     		beq	.L13
 491              		.loc 1 240 0
 492 000a FFF7FEFF 		bl	adc_lld_stop_conversion
 493              	.LVL25:
 494              		.loc 1 241 0
 495 000e 0023     		movs	r3, #0
 496              		.loc 1 242 0
 497 0010 2046     		mov	r0, r4
 498              		.loc 1 241 0
 499 0012 2361     		str	r3, [r4, #16]
 500              		.loc 1 242 0
 501 0014 0223     		movs	r3, #2
 502 0016 00F8143B 		strb	r3, [r0], #20
 503              	.LVL26:
 504              	.LBB160:
 505              	.LBB161:
 506              		.loc 4 775 0
 507 001a 6FF00101 		mvn	r1, #1
 508              	.LBE161:
 509              	.LBE160:
 510              		.loc 1 245 0
 511 001e BDE81040 		pop	{r4, lr}
 512              		.cfi_remember_state
 513              		.cfi_restore 14
ARM GAS  /tmp/cc9De0I0.s 			page 10


 514              		.cfi_restore 4
 515              		.cfi_def_cfa_offset 0
 516              	.LVL27:
 517              	.LBB163:
 518              	.LBB162:
 519              		.loc 4 775 0
 520 0022 FFF7FEBF 		b	chThdResumeI
 521              	.LVL28:
 522              	.L13:
 523              		.cfi_restore_state
 524 0026 10BD     		pop	{r4, pc}
 525              	.LBE162:
 526              	.LBE163:
 527              		.cfi_endproc
 528              	.LFE330:
 529              		.size	adcStopConversionI, .-adcStopConversionI
 530              		.section	.text.adcConvert,"ax",%progbits
 531              		.align	1
 532              		.global	adcConvert
 533              		.thumb
 534              		.thumb_func
 535              		.type	adcConvert, %function
 536              	adcConvert:
 537              	.LFB331:
 538              		.loc 1 274 0
 539              		.cfi_startproc
 540              		@ args = 0, pretend = 0, frame = 0
 541              		@ frame_needed = 0, uses_anonymous_args = 0
 542              	.LVL29:
 543 0000 F8B5     		push	{r3, r4, r5, r6, r7, lr}
 544              		.cfi_def_cfa_offset 24
 545              		.cfi_offset 3, -24
 546              		.cfi_offset 4, -20
 547              		.cfi_offset 5, -16
 548              		.cfi_offset 6, -12
 549              		.cfi_offset 7, -8
 550              		.cfi_offset 14, -4
 551              		.loc 1 274 0
 552 0002 1E46     		mov	r6, r3
 553 0004 0446     		mov	r4, r0
 554 0006 0D46     		mov	r5, r1
 555 0008 1746     		mov	r7, r2
 556              	.LBB182:
 557              	.LBB183:
 558              	.LBB184:
 559              	.LBB185:
 560              	.LBB186:
 561              	.LBB187:
 562              		.loc 2 493 0
 563 000a 2023     		movs	r3, #32
 564              	.LVL30:
 565              	@ 493 "../../modules/ChibiOS/os/common/ext/ARM/CMSIS/Core/Include/cmsis_gcc.h" 1
 566 000c 83F31188 		MSR basepri, r3
 567              	@ 0 "" 2
 568              		.thumb
 569              	.LBE187:
 570              	.LBE186:
ARM GAS  /tmp/cc9De0I0.s 			page 11


 571              	.LBE185:
 572              		.loc 3 356 0
 573 0010 FFF7FEFF 		bl	_stats_start_measure_crit_thd
 574              	.LVL31:
 575              	.LBE184:
 576              	.LBE183:
 577              	.LBE182:
 578              	.LBB188:
 579              	.LBB189:
 580              		.loc 1 190 0
 581 0014 0323     		movs	r3, #3
 582 0016 2370     		strb	r3, [r4]
 583              		.loc 1 187 0
 584 0018 A760     		str	r7, [r4, #8]
 585              		.loc 1 188 0
 586 001a E660     		str	r6, [r4, #12]
 587              		.loc 1 189 0
 588 001c 2561     		str	r5, [r4, #16]
 589              		.loc 1 191 0
 590 001e 2046     		mov	r0, r4
 591 0020 FFF7FEFF 		bl	adc_lld_start_conversion
 592              	.LVL32:
 593              	.LBE189:
 594              	.LBE188:
 595              	.LBB190:
 596              	.LBB191:
 597              		.loc 4 735 0
 598 0024 4FF0FF31 		mov	r1, #-1
 599 0028 04F11400 		add	r0, r4, #20
 600              	.LVL33:
 601 002c FFF7FEFF 		bl	chThdSuspendTimeoutS
 602              	.LVL34:
 603 0030 0446     		mov	r4, r0
 604              	.LVL35:
 605              	.LBE191:
 606              	.LBE190:
 607              	.LBB192:
 608              	.LBB193:
 609              	.LBB194:
 610              		.loc 3 368 0
 611 0032 FFF7FEFF 		bl	_stats_stop_measure_crit_thd
 612              	.LVL36:
 613              	.LBB195:
 614              	.LBB196:
 615              	.LBB197:
 616              		.loc 2 493 0
 617 0036 0023     		movs	r3, #0
 618              	@ 493 "../../modules/ChibiOS/os/common/ext/ARM/CMSIS/Core/Include/cmsis_gcc.h" 1
 619 0038 83F31188 		MSR basepri, r3
 620              	@ 0 "" 2
 621              		.thumb
 622              	.LBE197:
 623              	.LBE196:
 624              	.LBE195:
 625              	.LBE194:
 626              	.LBE193:
 627              	.LBE192:
ARM GAS  /tmp/cc9De0I0.s 			page 12


 628              		.loc 1 283 0
 629 003c 2046     		mov	r0, r4
 630 003e F8BD     		pop	{r3, r4, r5, r6, r7, pc}
 631              		.cfi_endproc
 632              	.LFE331:
 633              		.size	adcConvert, .-adcConvert
 634              		.text
 635              	.Letext0:
 636              		.file 5 "/usr/lib/gcc/arm-none-eabi/4.9.3/include/stddef.h"
 637              		.file 6 "/usr/include/newlib/machine/_default_types.h"
 638              		.file 7 "/usr/include/newlib/sys/_stdint.h"
 639              		.file 8 "../../modules/ChibiOS/os/common/ports/ARMCMx/compilers/GCC/chtypes.h"
 640              		.file 9 "../../modules/ChibiOS/os/rt/include/chsystypes.h"
 641              		.file 10 "../../modules/ChibiOS/os/rt/include/chschd.h"
 642              		.file 11 "../../modules/ChibiOS/os/rt/include/chtime.h"
 643              		.file 12 "../../modules/ChibiOS/os/common/ext/ST/STM32F4xx/stm32f407xx.h"
 644              		.file 13 "../../modules/ChibiOS/os/common/ports/ARMCMx/chcore.h"
 645              		.file 14 "../../modules/ChibiOS/os/common/ports/ARMCMx/chcore_v7m.h"
 646              		.file 15 "../../modules/ChibiOS/os/rt/include/chtm.h"
 647              		.file 16 "../../modules/ChibiOS/os/rt/include/chstats.h"
 648              		.file 17 "../../modules/ChibiOS/os/rt/include/chsem.h"
 649              		.file 18 "../../modules/ChibiOS/os/rt/include/chmtx.h"
 650              		.file 19 "../../modules/ChibiOS/os/hal/ports/STM32/LLD/DMAv2/stm32_dma.h"
 651              		.file 20 "../../modules/ChibiOS/os/hal/include/hal_adc.h"
 652              		.file 21 "../../modules/ChibiOS/os/hal/ports/STM32/LLD/ADCv2/hal_adc_lld.h"
 653              		.file 22 "../../modules/ChibiOS/os/rt/include/chthreads.h"
 654              		.file 23 "../../modules/ChibiOS/os/common/ext/ARM/CMSIS/Core/Include/core_cm4.h"