ARM GAS  /tmp/ccfi62YU.s 			page 1


   1              		.syntax unified
   2              		.cpu cortex-m4
   3              		.eabi_attribute 27, 1
   4              		.eabi_attribute 28, 1
   5              		.fpu fpv4-sp-d16
   6              		.eabi_attribute 20, 1
   7              		.eabi_attribute 21, 1
   8              		.eabi_attribute 23, 3
   9              		.eabi_attribute 24, 1
  10              		.eabi_attribute 25, 1
  11              		.eabi_attribute 26, 1
  12              		.eabi_attribute 30, 4
  13              		.eabi_attribute 34, 1
  14              		.eabi_attribute 18, 4
  15              		.thumb
  16              		.file	"hal_mmcsd.c"
  17              		.text
  18              	.Ltext0:
  19              		.cfi_sections	.debug_frame
  20              		.section	.text._mmcsd_get_slice,"ax",%progbits
  21              		.align	1
  22              		.global	_mmcsd_get_slice
  23              		.thumb
  24              		.thumb_func
  25              		.type	_mmcsd_get_slice, %function
  26              	_mmcsd_get_slice:
  27              	.LFB323:
  28              		.file 1 "../../modules/ChibiOS/os/hal/src/hal_mmcsd.c"
  29              		.loc 1 63 0
  30              		.cfi_startproc
  31              		@ args = 0, pretend = 0, frame = 0
  32              		@ frame_needed = 0, uses_anonymous_args = 0
  33              	.LVL0:
  34 0000 30B5     		push	{r4, r5, lr}
  35              		.cfi_def_cfa_offset 12
  36              		.cfi_offset 4, -12
  37              		.cfi_offset 5, -8
  38              		.cfi_offset 14, -4
  39              		.loc 1 69 0
  40 0002 5409     		lsrs	r4, r2, #5
  41              	.LVL1:
  42              		.loc 1 71 0
  43 0004 4D09     		lsrs	r5, r1, #5
  44              		.loc 1 72 0
  45 0006 01F01F01 		and	r1, r1, #31
  46              	.LVL2:
  47 000a 4B1C     		adds	r3, r1, #1
  48              		.loc 1 75 0
  49 000c AC42     		cmp	r4, r5
  50              		.loc 1 72 0
  51 000e 4FF00101 		mov	r1, #1
  52 0012 01FA03F1 		lsl	r1, r1, r3
  53              		.loc 1 77 0
  54 0016 3ABF     		itte	cc
  55 0018 50F82530 		ldrcc	r3, [r0, r5, lsl #2]
  56              		.loc 1 76 0
  57 001c 50F82400 		ldrcc	r0, [r0, r4, lsl #2]
ARM GAS  /tmp/ccfi62YU.s 			page 2


  58              	.LVL3:
  59              		.loc 1 79 0
  60 0020 50F82430 		ldrcs	r3, [r0, r4, lsl #2]
  61              		.loc 1 72 0
  62 0024 01F1FF31 		add	r1, r1, #-1
  63              		.loc 1 70 0
  64 0028 02F01F02 		and	r2, r2, #31
  65              	.LVL4:
  66              		.loc 1 77 0
  67 002c 3FBF     		itttt	cc
  68 002e 1940     		andcc	r1, r1, r3
  69              	.LVL5:
  70 0030 C2F12003 		rsbcc	r3, r2, #32
  71 0034 9940     		lslcc	r1, r1, r3
  72              		.loc 1 76 0
  73 0036 20FA02F3 		lsrcc	r3, r0, r2
  74 003a 32BF     		itee	cc
  75 003c 41EA0300 		orrcc	r0, r1, r3
  76              		.loc 1 79 0
  77 0040 01EA0300 		andcs	r0, r1, r3
  78 0044 D040     		lsrcs	r0, r0, r2
  79              		.loc 1 80 0
  80 0046 30BD     		pop	{r4, r5, pc}
  81              		.cfi_endproc
  82              	.LFE323:
  83              		.size	_mmcsd_get_slice, .-_mmcsd_get_slice
  84              		.section	.text._mmcsd_get_capacity,"ax",%progbits
  85              		.align	1
  86              		.global	_mmcsd_get_capacity
  87              		.thumb
  88              		.thumb_func
  89              		.type	_mmcsd_get_capacity, %function
  90              	_mmcsd_get_capacity:
  91              	.LFB324:
  92              		.loc 1 93 0
  93              		.cfi_startproc
  94              		@ args = 0, pretend = 0, frame = 0
  95              		@ frame_needed = 0, uses_anonymous_args = 0
  96              	.LVL6:
  97 0000 70B5     		push	{r4, r5, r6, lr}
  98              		.cfi_def_cfa_offset 16
  99              		.cfi_offset 4, -16
 100              		.cfi_offset 5, -12
 101              		.cfi_offset 6, -8
 102              		.cfi_offset 14, -4
 103              		.loc 1 98 0
 104 0002 7F21     		movs	r1, #127
 105 0004 7E22     		movs	r2, #126
 106              		.loc 1 93 0
 107 0006 0546     		mov	r5, r0
 108              		.loc 1 98 0
 109 0008 FFF7FEFF 		bl	_mmcsd_get_slice
 110              	.LVL7:
 111 000c 48B1     		cbz	r0, .L6
 112 000e 0128     		cmp	r0, #1
 113 0010 1FD1     		bne	.L11
 114              		.loc 1 107 0
ARM GAS  /tmp/ccfi62YU.s 			page 3


 115 0012 2846     		mov	r0, r5
 116 0014 4521     		movs	r1, #69
 117 0016 3022     		movs	r2, #48
 118 0018 FFF7FEFF 		bl	_mmcsd_get_slice
 119              	.LVL8:
 120 001c 0130     		adds	r0, r0, #1
 121 001e 8002     		lsls	r0, r0, #10
 122 0020 70BD     		pop	{r4, r5, r6, pc}
 123              	.LVL9:
 124              	.L6:
 125              		.loc 1 101 0
 126 0022 2846     		mov	r0, r5
 127 0024 4921     		movs	r1, #73
 128 0026 3E22     		movs	r2, #62
 129 0028 FFF7FEFF 		bl	_mmcsd_get_slice
 130              	.LVL10:
 131              		.loc 1 102 0
 132 002c 3121     		movs	r1, #49
 133              		.loc 1 101 0
 134 002e 0446     		mov	r4, r0
 135              	.LVL11:
 136              		.loc 1 102 0
 137 0030 2F22     		movs	r2, #47
 138 0032 2846     		mov	r0, r5
 139              	.LVL12:
 140 0034 FFF7FEFF 		bl	_mmcsd_get_slice
 141              	.LVL13:
 142              		.loc 1 103 0
 143 0038 5321     		movs	r1, #83
 144              		.loc 1 102 0
 145 003a 0646     		mov	r6, r0
 146              	.LVL14:
 147              		.loc 1 103 0
 148 003c 5022     		movs	r2, #80
 149 003e 2846     		mov	r0, r5
 150              	.LVL15:
 151 0040 FFF7FEFF 		bl	_mmcsd_get_slice
 152              	.LVL16:
 153              		.loc 1 104 0
 154 0044 0236     		adds	r6, r6, #2
 155              	.LVL17:
 156 0046 0134     		adds	r4, r4, #1
 157              	.LVL18:
 158 0048 B440     		lsls	r4, r4, r6
 159              	.LVL19:
 160 004a 0938     		subs	r0, r0, #9
 161              	.LVL20:
 162 004c 04FA00F0 		lsl	r0, r4, r0
 163              	.LVL21:
 164 0050 70BD     		pop	{r4, r5, r6, pc}
 165              	.LVL22:
 166              	.L11:
 167              		.loc 1 112 0
 168 0052 0020     		movs	r0, #0
 169              		.loc 1 113 0
 170 0054 70BD     		pop	{r4, r5, r6, pc}
 171              		.cfi_endproc
ARM GAS  /tmp/ccfi62YU.s 			page 4


 172              	.LFE324:
 173              		.size	_mmcsd_get_capacity, .-_mmcsd_get_capacity
 174              		.section	.text._mmcsd_get_capacity_ext,"ax",%progbits
 175              		.align	1
 176              		.global	_mmcsd_get_capacity_ext
 177              		.thumb
 178              		.thumb_func
 179              		.type	_mmcsd_get_capacity_ext, %function
 180              	_mmcsd_get_capacity_ext:
 181              	.LFB325:
 182              		.loc 1 125 0
 183              		.cfi_startproc
 184              		@ args = 0, pretend = 0, frame = 0
 185              		@ frame_needed = 0, uses_anonymous_args = 0
 186              		@ link register save eliminated.
 187              	.LVL23:
 188              		.loc 1 130 0
 189 0000 90F8D630 		ldrb	r3, [r0, #214]	@ zero_extendqisi2
 190              		.loc 1 129 0
 191 0004 90F8D720 		ldrb	r2, [r0, #215]	@ zero_extendqisi2
 192              		.loc 1 130 0
 193 0008 1B04     		lsls	r3, r3, #16
 194              		.loc 1 129 0
 195 000a 03EB0263 		add	r3, r3, r2, lsl #24
 196              		.loc 1 132 0
 197 000e 90F8D420 		ldrb	r2, [r0, #212]	@ zero_extendqisi2
 198              		.loc 1 131 0
 199 0012 90F8D500 		ldrb	r0, [r0, #213]	@ zero_extendqisi2
 200              	.LVL24:
 201 0016 1344     		add	r3, r3, r2
 202              		.loc 1 133 0
 203 0018 03EB0020 		add	r0, r3, r0, lsl #8
 204 001c 7047     		bx	lr
 205              		.cfi_endproc
 206              	.LFE325:
 207              		.size	_mmcsd_get_capacity_ext, .-_mmcsd_get_capacity_ext
 208              		.section	.text._mmcsd_unpack_sdc_cid,"ax",%progbits
 209              		.align	1
 210              		.global	_mmcsd_unpack_sdc_cid
 211              		.thumb
 212              		.thumb_func
 213              		.type	_mmcsd_unpack_sdc_cid, %function
 214              	_mmcsd_unpack_sdc_cid:
 215              	.LFB326:
 216              		.loc 1 144 0
 217              		.cfi_startproc
 218              		@ args = 0, pretend = 0, frame = 0
 219              		@ frame_needed = 0, uses_anonymous_args = 0
 220              	.LVL25:
 221 0000 38B5     		push	{r3, r4, r5, lr}
 222              		.cfi_def_cfa_offset 16
 223              		.cfi_offset 3, -16
 224              		.cfi_offset 4, -12
 225              		.cfi_offset 5, -8
 226              		.cfi_offset 14, -4
 227              		.loc 1 149 0
 228 0002 00F10805 		add	r5, r0, #8
ARM GAS  /tmp/ccfi62YU.s 			page 5


 229              	.LVL26:
 230              		.loc 1 144 0
 231 0006 0C46     		mov	r4, r1
 232              		.loc 1 150 0
 233 0008 0122     		movs	r2, #1
 234 000a 0721     		movs	r1, #7
 235              	.LVL27:
 236 000c 2846     		mov	r0, r5
 237              	.LVL28:
 238 000e FFF7FEFF 		bl	_mmcsd_get_slice
 239              	.LVL29:
 240              		.loc 1 151 0
 241 0012 1321     		movs	r1, #19
 242              		.loc 1 150 0
 243 0014 2075     		strb	r0, [r4, #20]
 244              		.loc 1 151 0
 245 0016 0C22     		movs	r2, #12
 246 0018 2846     		mov	r0, r5
 247 001a FFF7FEFF 		bl	_mmcsd_get_slice
 248              	.LVL30:
 249 001e 00F5FA60 		add	r0, r0, #2000
 250 0022 6082     		strh	r0, [r4, #18]	@ movhi
 251              		.loc 1 153 0
 252 0024 0B21     		movs	r1, #11
 253 0026 0822     		movs	r2, #8
 254 0028 2846     		mov	r0, r5
 255 002a FFF7FEFF 		bl	_mmcsd_get_slice
 256              	.LVL31:
 257              		.loc 1 154 0
 258 002e 7F21     		movs	r1, #127
 259              		.loc 1 153 0
 260 0030 2074     		strb	r0, [r4, #16]
 261              		.loc 1 154 0
 262 0032 7822     		movs	r2, #120
 263 0034 2846     		mov	r0, r5
 264 0036 FFF7FEFF 		bl	_mmcsd_get_slice
 265              	.LVL32:
 266              		.loc 1 155 0
 267 003a 7721     		movs	r1, #119
 268              		.loc 1 154 0
 269 003c 2070     		strb	r0, [r4]
 270              		.loc 1 155 0
 271 003e 6822     		movs	r2, #104
 272 0040 2846     		mov	r0, r5
 273 0042 FFF7FEFF 		bl	_mmcsd_get_slice
 274              	.LVL33:
 275              		.loc 1 156 0
 276 0046 4721     		movs	r1, #71
 277              		.loc 1 155 0
 278 0048 6080     		strh	r0, [r4, #2]	@ movhi
 279              		.loc 1 156 0
 280 004a 4022     		movs	r2, #64
 281 004c 2846     		mov	r0, r5
 282 004e FFF7FEFF 		bl	_mmcsd_get_slice
 283              	.LVL34:
 284              		.loc 1 157 0
 285 0052 4F21     		movs	r1, #79
ARM GAS  /tmp/ccfi62YU.s 			page 6


 286              		.loc 1 156 0
 287 0054 2072     		strb	r0, [r4, #8]
 288              		.loc 1 157 0
 289 0056 4822     		movs	r2, #72
 290 0058 2846     		mov	r0, r5
 291 005a FFF7FEFF 		bl	_mmcsd_get_slice
 292              	.LVL35:
 293              		.loc 1 158 0
 294 005e 5721     		movs	r1, #87
 295              		.loc 1 157 0
 296 0060 E071     		strb	r0, [r4, #7]
 297              		.loc 1 158 0
 298 0062 5022     		movs	r2, #80
 299 0064 2846     		mov	r0, r5
 300 0066 FFF7FEFF 		bl	_mmcsd_get_slice
 301              	.LVL36:
 302              		.loc 1 159 0
 303 006a 5F21     		movs	r1, #95
 304              		.loc 1 158 0
 305 006c A071     		strb	r0, [r4, #6]
 306              		.loc 1 159 0
 307 006e 5822     		movs	r2, #88
 308 0070 2846     		mov	r0, r5
 309 0072 FFF7FEFF 		bl	_mmcsd_get_slice
 310              	.LVL37:
 311              		.loc 1 160 0
 312 0076 6721     		movs	r1, #103
 313              		.loc 1 159 0
 314 0078 6071     		strb	r0, [r4, #5]
 315              		.loc 1 160 0
 316 007a 6022     		movs	r2, #96
 317 007c 2846     		mov	r0, r5
 318 007e FFF7FEFF 		bl	_mmcsd_get_slice
 319              	.LVL38:
 320              		.loc 1 161 0
 321 0082 3F21     		movs	r1, #63
 322              		.loc 1 160 0
 323 0084 2071     		strb	r0, [r4, #4]
 324              		.loc 1 161 0
 325 0086 3C22     		movs	r2, #60
 326 0088 2846     		mov	r0, r5
 327 008a FFF7FEFF 		bl	_mmcsd_get_slice
 328              	.LVL39:
 329              		.loc 1 162 0
 330 008e 3B21     		movs	r1, #59
 331              		.loc 1 161 0
 332 0090 6072     		strb	r0, [r4, #9]
 333              		.loc 1 162 0
 334 0092 3822     		movs	r2, #56
 335 0094 2846     		mov	r0, r5
 336 0096 FFF7FEFF 		bl	_mmcsd_get_slice
 337              	.LVL40:
 338              		.loc 1 163 0
 339 009a 3721     		movs	r1, #55
 340              		.loc 1 162 0
 341 009c A072     		strb	r0, [r4, #10]
 342              		.loc 1 163 0
ARM GAS  /tmp/ccfi62YU.s 			page 7


 343 009e 1822     		movs	r2, #24
 344 00a0 2846     		mov	r0, r5
 345 00a2 FFF7FEFF 		bl	_mmcsd_get_slice
 346              	.LVL41:
 347 00a6 E060     		str	r0, [r4, #12]
 348 00a8 38BD     		pop	{r3, r4, r5, pc}
 349              		.cfi_endproc
 350              	.LFE326:
 351              		.size	_mmcsd_unpack_sdc_cid, .-_mmcsd_unpack_sdc_cid
 352              		.section	.text._mmcsd_unpack_mmc_cid,"ax",%progbits
 353              		.align	1
 354              		.global	_mmcsd_unpack_mmc_cid
 355              		.thumb
 356              		.thumb_func
 357              		.type	_mmcsd_unpack_mmc_cid, %function
 358              	_mmcsd_unpack_mmc_cid:
 359              	.LFB327:
 360              		.loc 1 175 0
 361              		.cfi_startproc
 362              		@ args = 0, pretend = 0, frame = 0
 363              		@ frame_needed = 0, uses_anonymous_args = 0
 364              	.LVL42:
 365 0000 38B5     		push	{r3, r4, r5, lr}
 366              		.cfi_def_cfa_offset 16
 367              		.cfi_offset 3, -16
 368              		.cfi_offset 4, -12
 369              		.cfi_offset 5, -8
 370              		.cfi_offset 14, -4
 371              		.loc 1 180 0
 372 0002 00F10805 		add	r5, r0, #8
 373              	.LVL43:
 374              		.loc 1 175 0
 375 0006 0C46     		mov	r4, r1
 376              		.loc 1 181 0
 377 0008 0122     		movs	r2, #1
 378 000a 0721     		movs	r1, #7
 379              	.LVL44:
 380 000c 2846     		mov	r0, r5
 381              	.LVL45:
 382 000e FFF7FEFF 		bl	_mmcsd_get_slice
 383              	.LVL46:
 384              		.loc 1 182 0
 385 0012 0B21     		movs	r1, #11
 386              		.loc 1 181 0
 387 0014 2075     		strb	r0, [r4, #20]
 388              		.loc 1 182 0
 389 0016 0822     		movs	r2, #8
 390 0018 2846     		mov	r0, r5
 391 001a FFF7FEFF 		bl	_mmcsd_get_slice
 392              	.LVL47:
 393 001e 00F2CD70 		addw	r0, r0, #1997
 394 0022 6082     		strh	r0, [r4, #18]	@ movhi
 395              		.loc 1 184 0
 396 0024 0F21     		movs	r1, #15
 397 0026 0C22     		movs	r2, #12
 398 0028 2846     		mov	r0, r5
 399 002a FFF7FEFF 		bl	_mmcsd_get_slice
ARM GAS  /tmp/ccfi62YU.s 			page 8


 400              	.LVL48:
 401              		.loc 1 185 0
 402 002e 7F21     		movs	r1, #127
 403              		.loc 1 184 0
 404 0030 2074     		strb	r0, [r4, #16]
 405              		.loc 1 185 0
 406 0032 7822     		movs	r2, #120
 407 0034 2846     		mov	r0, r5
 408 0036 FFF7FEFF 		bl	_mmcsd_get_slice
 409              	.LVL49:
 410              		.loc 1 186 0
 411 003a 7721     		movs	r1, #119
 412              		.loc 1 185 0
 413 003c 2070     		strb	r0, [r4]
 414              		.loc 1 186 0
 415 003e 6822     		movs	r2, #104
 416 0040 2846     		mov	r0, r5
 417 0042 FFF7FEFF 		bl	_mmcsd_get_slice
 418              	.LVL50:
 419              		.loc 1 187 0
 420 0046 3F21     		movs	r1, #63
 421              		.loc 1 186 0
 422 0048 6080     		strh	r0, [r4, #2]	@ movhi
 423              		.loc 1 187 0
 424 004a 3822     		movs	r2, #56
 425 004c 2846     		mov	r0, r5
 426 004e FFF7FEFF 		bl	_mmcsd_get_slice
 427              	.LVL51:
 428              		.loc 1 188 0
 429 0052 4721     		movs	r1, #71
 430              		.loc 1 187 0
 431 0054 6072     		strb	r0, [r4, #9]
 432              		.loc 1 188 0
 433 0056 4022     		movs	r2, #64
 434 0058 2846     		mov	r0, r5
 435 005a FFF7FEFF 		bl	_mmcsd_get_slice
 436              	.LVL52:
 437              		.loc 1 189 0
 438 005e 4F21     		movs	r1, #79
 439              		.loc 1 188 0
 440 0060 2072     		strb	r0, [r4, #8]
 441              		.loc 1 189 0
 442 0062 4822     		movs	r2, #72
 443 0064 2846     		mov	r0, r5
 444 0066 FFF7FEFF 		bl	_mmcsd_get_slice
 445              	.LVL53:
 446              		.loc 1 190 0
 447 006a 5721     		movs	r1, #87
 448              		.loc 1 189 0
 449 006c E071     		strb	r0, [r4, #7]
 450              		.loc 1 190 0
 451 006e 5022     		movs	r2, #80
 452 0070 2846     		mov	r0, r5
 453 0072 FFF7FEFF 		bl	_mmcsd_get_slice
 454              	.LVL54:
 455              		.loc 1 191 0
 456 0076 5F21     		movs	r1, #95
ARM GAS  /tmp/ccfi62YU.s 			page 9


 457              		.loc 1 190 0
 458 0078 A071     		strb	r0, [r4, #6]
 459              		.loc 1 191 0
 460 007a 5822     		movs	r2, #88
 461 007c 2846     		mov	r0, r5
 462 007e FFF7FEFF 		bl	_mmcsd_get_slice
 463              	.LVL55:
 464              		.loc 1 192 0
 465 0082 6721     		movs	r1, #103
 466              		.loc 1 191 0
 467 0084 6071     		strb	r0, [r4, #5]
 468              		.loc 1 192 0
 469 0086 6022     		movs	r2, #96
 470 0088 2846     		mov	r0, r5
 471 008a FFF7FEFF 		bl	_mmcsd_get_slice
 472              	.LVL56:
 473              		.loc 1 193 0
 474 008e 3721     		movs	r1, #55
 475              		.loc 1 192 0
 476 0090 2071     		strb	r0, [r4, #4]
 477              		.loc 1 193 0
 478 0092 3422     		movs	r2, #52
 479 0094 2846     		mov	r0, r5
 480 0096 FFF7FEFF 		bl	_mmcsd_get_slice
 481              	.LVL57:
 482              		.loc 1 194 0
 483 009a 3321     		movs	r1, #51
 484              		.loc 1 193 0
 485 009c A072     		strb	r0, [r4, #10]
 486              		.loc 1 194 0
 487 009e 3022     		movs	r2, #48
 488 00a0 2846     		mov	r0, r5
 489 00a2 FFF7FEFF 		bl	_mmcsd_get_slice
 490              	.LVL58:
 491              		.loc 1 195 0
 492 00a6 2F21     		movs	r1, #47
 493              		.loc 1 194 0
 494 00a8 E072     		strb	r0, [r4, #11]
 495              		.loc 1 195 0
 496 00aa 1022     		movs	r2, #16
 497 00ac 2846     		mov	r0, r5
 498 00ae FFF7FEFF 		bl	_mmcsd_get_slice
 499              	.LVL59:
 500 00b2 E060     		str	r0, [r4, #12]
 501 00b4 38BD     		pop	{r3, r4, r5, pc}
 502              		.cfi_endproc
 503              	.LFE327:
 504              		.size	_mmcsd_unpack_mmc_cid, .-_mmcsd_unpack_mmc_cid
 505              		.section	.text._mmcsd_unpack_csd_mmc,"ax",%progbits
 506              		.align	1
 507              		.global	_mmcsd_unpack_csd_mmc
 508              		.thumb
 509              		.thumb_func
 510              		.type	_mmcsd_unpack_csd_mmc, %function
 511              	_mmcsd_unpack_csd_mmc:
 512              	.LFB328:
 513              		.loc 1 207 0
ARM GAS  /tmp/ccfi62YU.s 			page 10


 514              		.cfi_startproc
 515              		@ args = 0, pretend = 0, frame = 0
 516              		@ frame_needed = 0, uses_anonymous_args = 0
 517              	.LVL60:
 518 0000 38B5     		push	{r3, r4, r5, lr}
 519              		.cfi_def_cfa_offset 16
 520              		.cfi_offset 3, -16
 521              		.cfi_offset 4, -12
 522              		.cfi_offset 5, -8
 523              		.cfi_offset 14, -4
 524              		.loc 1 212 0
 525 0002 00F11805 		add	r5, r0, #24
 526              	.LVL61:
 527              		.loc 1 207 0
 528 0006 0C46     		mov	r4, r1
 529              		.loc 1 213 0
 530 0008 3E22     		movs	r2, #62
 531 000a 4921     		movs	r1, #73
 532              	.LVL62:
 533 000c 2846     		mov	r0, r5
 534              	.LVL63:
 535 000e FFF7FEFF 		bl	_mmcsd_get_slice
 536              	.LVL64:
 537              		.loc 1 214 0
 538 0012 3121     		movs	r1, #49
 539              		.loc 1 213 0
 540 0014 E081     		strh	r0, [r4, #14]	@ movhi
 541              		.loc 1 214 0
 542 0016 2F22     		movs	r2, #47
 543 0018 2846     		mov	r0, r5
 544 001a FFF7FEFF 		bl	_mmcsd_get_slice
 545              	.LVL65:
 546              		.loc 1 215 0
 547 001e 5F21     		movs	r1, #95
 548              		.loc 1 214 0
 549 0020 2075     		strb	r0, [r4, #20]
 550              		.loc 1 215 0
 551 0022 5422     		movs	r2, #84
 552 0024 2846     		mov	r0, r5
 553 0026 FFF7FEFF 		bl	_mmcsd_get_slice
 554              	.LVL66:
 555              		.loc 1 216 0
 556 002a 0E21     		movs	r1, #14
 557 002c 0A46     		mov	r2, r1
 558              		.loc 1 215 0
 559 002e E080     		strh	r0, [r4, #6]	@ movhi
 560              		.loc 1 216 0
 561 0030 2846     		mov	r0, r5
 562 0032 FFF7FEFF 		bl	_mmcsd_get_slice
 563              	.LVL67:
 564              		.loc 1 217 0
 565 0036 0721     		movs	r1, #7
 566              		.loc 1 216 0
 567 0038 E077     		strb	r0, [r4, #31]
 568              		.loc 1 217 0
 569 003a 0122     		movs	r2, #1
 570 003c 2846     		mov	r0, r5
ARM GAS  /tmp/ccfi62YU.s 			page 11


 571 003e FFF7FEFF 		bl	_mmcsd_get_slice
 572              	.LVL68:
 573              		.loc 1 218 0
 574 0042 7F21     		movs	r1, #127
 575              		.loc 1 217 0
 576 0044 84F82400 		strb	r0, [r4, #36]
 577              		.loc 1 218 0
 578 0048 7E22     		movs	r2, #126
 579 004a 2846     		mov	r0, r5
 580 004c FFF7FEFF 		bl	_mmcsd_get_slice
 581              	.LVL69:
 582              		.loc 1 219 0
 583 0050 4C21     		movs	r1, #76
 584 0052 0A46     		mov	r2, r1
 585              		.loc 1 218 0
 586 0054 2070     		strb	r0, [r4]
 587              		.loc 1 219 0
 588 0056 2846     		mov	r0, r5
 589 0058 FFF7FEFF 		bl	_mmcsd_get_slice
 590              	.LVL70:
 591              		.loc 1 220 0
 592 005c 0921     		movs	r1, #9
 593              		.loc 1 219 0
 594 005e 2073     		strb	r0, [r4, #12]
 595              		.loc 1 220 0
 596 0060 0822     		movs	r2, #8
 597 0062 2846     		mov	r0, r5
 598 0064 FFF7FEFF 		bl	_mmcsd_get_slice
 599              	.LVL71:
 600              		.loc 1 221 0
 601 0068 2921     		movs	r1, #41
 602              		.loc 1 220 0
 603 006a 84F82300 		strb	r0, [r4, #35]
 604              		.loc 1 221 0
 605 006e 2522     		movs	r2, #37
 606 0070 2846     		mov	r0, r5
 607 0072 FFF7FEFF 		bl	_mmcsd_get_slice
 608              	.LVL72:
 609              		.loc 1 222 0
 610 0076 2E21     		movs	r1, #46
 611              		.loc 1 221 0
 612 0078 A075     		strb	r0, [r4, #22]
 613              		.loc 1 222 0
 614 007a 2A22     		movs	r2, #42
 615 007c 2846     		mov	r0, r5
 616 007e FFF7FEFF 		bl	_mmcsd_get_slice
 617              	.LVL73:
 618              		.loc 1 223 0
 619 0082 0B21     		movs	r1, #11
 620              		.loc 1 222 0
 621 0084 6075     		strb	r0, [r4, #21]
 622              		.loc 1 223 0
 623 0086 0A22     		movs	r2, #10
 624 0088 2846     		mov	r0, r5
 625 008a FFF7FEFF 		bl	_mmcsd_get_slice
 626              	.LVL74:
 627              		.loc 1 224 0
ARM GAS  /tmp/ccfi62YU.s 			page 12


 628 008e 0F21     		movs	r1, #15
 629 0090 0A46     		mov	r2, r1
 630              		.loc 1 223 0
 631 0092 84F82200 		strb	r0, [r4, #34]
 632              		.loc 1 224 0
 633 0096 2846     		mov	r0, r5
 634 0098 FFF7FEFF 		bl	_mmcsd_get_slice
 635              	.LVL75:
 636              		.loc 1 225 0
 637 009c 6F21     		movs	r1, #111
 638              		.loc 1 224 0
 639 009e A077     		strb	r0, [r4, #30]
 640              		.loc 1 225 0
 641 00a0 6822     		movs	r2, #104
 642 00a2 2846     		mov	r0, r5
 643 00a4 FFF7FEFF 		bl	_mmcsd_get_slice
 644              	.LVL76:
 645              		.loc 1 226 0
 646 00a8 0D21     		movs	r1, #13
 647 00aa 0A46     		mov	r2, r1
 648              		.loc 1 225 0
 649 00ac E070     		strb	r0, [r4, #3]
 650              		.loc 1 226 0
 651 00ae 2846     		mov	r0, r5
 652 00b0 FFF7FEFF 		bl	_mmcsd_get_slice
 653              	.LVL77:
 654              		.loc 1 227 0
 655 00b4 1C21     		movs	r1, #28
 656              		.loc 1 226 0
 657 00b6 84F82000 		strb	r0, [r4, #32]
 658              		.loc 1 227 0
 659 00ba 1A22     		movs	r2, #26
 660 00bc 2846     		mov	r0, r5
 661 00be FFF7FEFF 		bl	_mmcsd_get_slice
 662              	.LVL78:
 663              		.loc 1 228 0
 664 00c2 5321     		movs	r1, #83
 665              		.loc 1 227 0
 666 00c4 A076     		strb	r0, [r4, #26]
 667              		.loc 1 228 0
 668 00c6 5022     		movs	r2, #80
 669 00c8 2846     		mov	r0, r5
 670 00ca FFF7FEFF 		bl	_mmcsd_get_slice
 671              	.LVL79:
 672              		.loc 1 229 0
 673 00ce 4F21     		movs	r1, #79
 674 00d0 0A46     		mov	r2, r1
 675              		.loc 1 228 0
 676 00d2 2072     		strb	r0, [r4, #8]
 677              		.loc 1 229 0
 678 00d4 2846     		mov	r0, r5
 679 00d6 FFF7FEFF 		bl	_mmcsd_get_slice
 680              	.LVL80:
 681              		.loc 1 230 0
 682 00da 4D21     		movs	r1, #77
 683 00dc 0A46     		mov	r2, r1
 684              		.loc 1 229 0
ARM GAS  /tmp/ccfi62YU.s 			page 13


 685 00de 6072     		strb	r0, [r4, #9]
 686              		.loc 1 230 0
 687 00e0 2846     		mov	r0, r5
 688 00e2 FFF7FEFF 		bl	_mmcsd_get_slice
 689              	.LVL81:
 690              		.loc 1 231 0
 691 00e6 7D21     		movs	r1, #125
 692              		.loc 1 230 0
 693 00e8 E072     		strb	r0, [r4, #11]
 694              		.loc 1 231 0
 695 00ea 7A22     		movs	r2, #122
 696 00ec 2846     		mov	r0, r5
 697 00ee FFF7FEFF 		bl	_mmcsd_get_slice
 698              	.LVL82:
 699              		.loc 1 232 0
 700 00f2 7721     		movs	r1, #119
 701              		.loc 1 231 0
 702 00f4 6070     		strb	r0, [r4, #1]
 703              		.loc 1 232 0
 704 00f6 7022     		movs	r2, #112
 705 00f8 2846     		mov	r0, r5
 706 00fa FFF7FEFF 		bl	_mmcsd_get_slice
 707              	.LVL83:
 708              		.loc 1 233 0
 709 00fe 0C21     		movs	r1, #12
 710 0100 0A46     		mov	r2, r1
 711              		.loc 1 232 0
 712 0102 A070     		strb	r0, [r4, #2]
 713              		.loc 1 233 0
 714 0104 2846     		mov	r0, r5
 715 0106 FFF7FEFF 		bl	_mmcsd_get_slice
 716              	.LVL84:
 717              		.loc 1 234 0
 718 010a 6721     		movs	r1, #103
 719              		.loc 1 233 0
 720 010c 84F82100 		strb	r0, [r4, #33]
 721              		.loc 1 234 0
 722 0110 6022     		movs	r2, #96
 723 0112 2846     		mov	r0, r5
 724 0114 FFF7FEFF 		bl	_mmcsd_get_slice
 725              	.LVL85:
 726              		.loc 1 235 0
 727 0118 3A21     		movs	r1, #58
 728              		.loc 1 234 0
 729 011a 2071     		strb	r0, [r4, #4]
 730              		.loc 1 235 0
 731 011c 3822     		movs	r2, #56
 732 011e 2846     		mov	r0, r5
 733 0120 FFF7FEFF 		bl	_mmcsd_get_slice
 734              	.LVL86:
 735              		.loc 1 236 0
 736 0124 3D21     		movs	r1, #61
 737              		.loc 1 235 0
 738 0126 6074     		strb	r0, [r4, #17]
 739              		.loc 1 236 0
 740 0128 3B22     		movs	r2, #59
 741 012a 2846     		mov	r0, r5
ARM GAS  /tmp/ccfi62YU.s 			page 14


 742 012c FFF7FEFF 		bl	_mmcsd_get_slice
 743              	.LVL87:
 744              		.loc 1 237 0
 745 0130 3421     		movs	r1, #52
 746              		.loc 1 236 0
 747 0132 2074     		strb	r0, [r4, #16]
 748              		.loc 1 237 0
 749 0134 3222     		movs	r2, #50
 750 0136 2846     		mov	r0, r5
 751 0138 FFF7FEFF 		bl	_mmcsd_get_slice
 752              	.LVL88:
 753              		.loc 1 238 0
 754 013c 3721     		movs	r1, #55
 755              		.loc 1 237 0
 756 013e E074     		strb	r0, [r4, #19]
 757              		.loc 1 238 0
 758 0140 3522     		movs	r2, #53
 759 0142 2846     		mov	r0, r5
 760 0144 FFF7FEFF 		bl	_mmcsd_get_slice
 761              	.LVL89:
 762              		.loc 1 239 0
 763 0148 1F21     		movs	r1, #31
 764 014a 0A46     		mov	r2, r1
 765              		.loc 1 238 0
 766 014c A074     		strb	r0, [r4, #18]
 767              		.loc 1 239 0
 768 014e 2846     		mov	r0, r5
 769 0150 FFF7FEFF 		bl	_mmcsd_get_slice
 770              	.LVL90:
 771              		.loc 1 240 0
 772 0154 2421     		movs	r1, #36
 773              		.loc 1 239 0
 774 0156 2076     		strb	r0, [r4, #24]
 775              		.loc 1 240 0
 776 0158 2022     		movs	r2, #32
 777 015a 2846     		mov	r0, r5
 778 015c FFF7FEFF 		bl	_mmcsd_get_slice
 779              	.LVL91:
 780              		.loc 1 241 0
 781 0160 1921     		movs	r1, #25
 782              		.loc 1 240 0
 783 0162 E075     		strb	r0, [r4, #23]
 784              		.loc 1 241 0
 785 0164 1622     		movs	r2, #22
 786 0166 2846     		mov	r0, r5
 787 0168 FFF7FEFF 		bl	_mmcsd_get_slice
 788              	.LVL92:
 789              		.loc 1 242 0
 790 016c 1521     		movs	r1, #21
 791 016e 0A46     		mov	r2, r1
 792              		.loc 1 241 0
 793 0170 E076     		strb	r0, [r4, #27]
 794              		.loc 1 242 0
 795 0172 2846     		mov	r0, r5
 796 0174 FFF7FEFF 		bl	_mmcsd_get_slice
 797              	.LVL93:
 798              		.loc 1 243 0
ARM GAS  /tmp/ccfi62YU.s 			page 15


 799 0178 4E21     		movs	r1, #78
 800              		.loc 1 242 0
 801 017a 2077     		strb	r0, [r4, #28]
 802              		.loc 1 243 0
 803 017c 0A46     		mov	r2, r1
 804 017e 2846     		mov	r0, r5
 805 0180 FFF7FEFF 		bl	_mmcsd_get_slice
 806              	.LVL94:
 807 0184 A072     		strb	r0, [r4, #10]
 808 0186 38BD     		pop	{r3, r4, r5, pc}
 809              		.cfi_endproc
 810              	.LFE328:
 811              		.size	_mmcsd_unpack_csd_mmc, .-_mmcsd_unpack_csd_mmc
 812              		.section	.text._mmcsd_unpack_csd_v10,"ax",%progbits
 813              		.align	1
 814              		.global	_mmcsd_unpack_csd_v10
 815              		.thumb
 816              		.thumb_func
 817              		.type	_mmcsd_unpack_csd_v10, %function
 818              	_mmcsd_unpack_csd_v10:
 819              	.LFB329:
 820              		.loc 1 255 0
 821              		.cfi_startproc
 822              		@ args = 0, pretend = 0, frame = 0
 823              		@ frame_needed = 0, uses_anonymous_args = 0
 824              	.LVL95:
 825 0000 38B5     		push	{r3, r4, r5, lr}
 826              		.cfi_def_cfa_offset 16
 827              		.cfi_offset 3, -16
 828              		.cfi_offset 4, -12
 829              		.cfi_offset 5, -8
 830              		.cfi_offset 14, -4
 831              		.loc 1 260 0
 832 0002 00F11805 		add	r5, r0, #24
 833              	.LVL96:
 834              		.loc 1 255 0
 835 0006 0C46     		mov	r4, r1
 836              		.loc 1 261 0
 837 0008 3E22     		movs	r2, #62
 838 000a 4921     		movs	r1, #73
 839              	.LVL97:
 840 000c 2846     		mov	r0, r5
 841              	.LVL98:
 842 000e FFF7FEFF 		bl	_mmcsd_get_slice
 843              	.LVL99:
 844              		.loc 1 262 0
 845 0012 3121     		movs	r1, #49
 846              		.loc 1 261 0
 847 0014 A081     		strh	r0, [r4, #12]	@ movhi
 848              		.loc 1 262 0
 849 0016 2F22     		movs	r2, #47
 850 0018 2846     		mov	r0, r5
 851 001a FFF7FEFF 		bl	_mmcsd_get_slice
 852              	.LVL100:
 853              		.loc 1 263 0
 854 001e 5F21     		movs	r1, #95
 855              		.loc 1 262 0
ARM GAS  /tmp/ccfi62YU.s 			page 16


 856 0020 A074     		strb	r0, [r4, #18]
 857              		.loc 1 263 0
 858 0022 5422     		movs	r2, #84
 859 0024 2846     		mov	r0, r5
 860 0026 FFF7FEFF 		bl	_mmcsd_get_slice
 861              	.LVL101:
 862              		.loc 1 264 0
 863 002a 0E21     		movs	r1, #14
 864 002c 0A46     		mov	r2, r1
 865              		.loc 1 263 0
 866 002e A080     		strh	r0, [r4, #4]	@ movhi
 867              		.loc 1 264 0
 868 0030 2846     		mov	r0, r5
 869 0032 FFF7FEFF 		bl	_mmcsd_get_slice
 870              	.LVL102:
 871              		.loc 1 265 0
 872 0036 0721     		movs	r1, #7
 873              		.loc 1 264 0
 874 0038 E076     		strb	r0, [r4, #27]
 875              		.loc 1 265 0
 876 003a 0122     		movs	r2, #1
 877 003c 2846     		mov	r0, r5
 878 003e FFF7FEFF 		bl	_mmcsd_get_slice
 879              	.LVL103:
 880              		.loc 1 266 0
 881 0042 7F21     		movs	r1, #127
 882              		.loc 1 265 0
 883 0044 E077     		strb	r0, [r4, #31]
 884              		.loc 1 266 0
 885 0046 7E22     		movs	r2, #126
 886 0048 2846     		mov	r0, r5
 887 004a FFF7FEFF 		bl	_mmcsd_get_slice
 888              	.LVL104:
 889              		.loc 1 267 0
 890 004e 4C21     		movs	r1, #76
 891 0050 0A46     		mov	r2, r1
 892              		.loc 1 266 0
 893 0052 2070     		strb	r0, [r4]
 894              		.loc 1 267 0
 895 0054 2846     		mov	r0, r5
 896 0056 FFF7FEFF 		bl	_mmcsd_get_slice
 897              	.LVL105:
 898              		.loc 1 268 0
 899 005a 2E21     		movs	r1, #46
 900 005c 0A46     		mov	r2, r1
 901              		.loc 1 267 0
 902 005e A072     		strb	r0, [r4, #10]
 903              		.loc 1 268 0
 904 0060 2846     		mov	r0, r5
 905 0062 FFF7FEFF 		bl	_mmcsd_get_slice
 906              	.LVL106:
 907              		.loc 1 269 0
 908 0066 2D21     		movs	r1, #45
 909              		.loc 1 268 0
 910 0068 E074     		strb	r0, [r4, #19]
 911              		.loc 1 269 0
 912 006a 2722     		movs	r2, #39
ARM GAS  /tmp/ccfi62YU.s 			page 17


 913 006c 2846     		mov	r0, r5
 914 006e FFF7FEFF 		bl	_mmcsd_get_slice
 915              	.LVL107:
 916              		.loc 1 270 0
 917 0072 0B21     		movs	r1, #11
 918              		.loc 1 269 0
 919 0074 2075     		strb	r0, [r4, #20]
 920              		.loc 1 270 0
 921 0076 0A22     		movs	r2, #10
 922 0078 2846     		mov	r0, r5
 923 007a FFF7FEFF 		bl	_mmcsd_get_slice
 924              	.LVL108:
 925              		.loc 1 271 0
 926 007e 0F21     		movs	r1, #15
 927 0080 0A46     		mov	r2, r1
 928              		.loc 1 270 0
 929 0082 A077     		strb	r0, [r4, #30]
 930              		.loc 1 271 0
 931 0084 2846     		mov	r0, r5
 932 0086 FFF7FEFF 		bl	_mmcsd_get_slice
 933              	.LVL109:
 934              		.loc 1 272 0
 935 008a 6F21     		movs	r1, #111
 936              		.loc 1 271 0
 937 008c A076     		strb	r0, [r4, #26]
 938              		.loc 1 272 0
 939 008e 6822     		movs	r2, #104
 940 0090 2846     		mov	r0, r5
 941 0092 FFF7FEFF 		bl	_mmcsd_get_slice
 942              	.LVL110:
 943              		.loc 1 273 0
 944 0096 0D21     		movs	r1, #13
 945 0098 0A46     		mov	r2, r1
 946              		.loc 1 272 0
 947 009a A070     		strb	r0, [r4, #2]
 948              		.loc 1 273 0
 949 009c 2846     		mov	r0, r5
 950 009e FFF7FEFF 		bl	_mmcsd_get_slice
 951              	.LVL111:
 952              		.loc 1 274 0
 953 00a2 1C21     		movs	r1, #28
 954              		.loc 1 273 0
 955 00a4 2077     		strb	r0, [r4, #28]
 956              		.loc 1 274 0
 957 00a6 1A22     		movs	r2, #26
 958 00a8 2846     		mov	r0, r5
 959 00aa FFF7FEFF 		bl	_mmcsd_get_slice
 960              	.LVL112:
 961              		.loc 1 275 0
 962 00ae 5321     		movs	r1, #83
 963              		.loc 1 274 0
 964 00b0 E075     		strb	r0, [r4, #23]
 965              		.loc 1 275 0
 966 00b2 5022     		movs	r2, #80
 967 00b4 2846     		mov	r0, r5
 968 00b6 FFF7FEFF 		bl	_mmcsd_get_slice
 969              	.LVL113:
ARM GAS  /tmp/ccfi62YU.s 			page 18


 970              		.loc 1 276 0
 971 00ba 4F21     		movs	r1, #79
 972 00bc 0A46     		mov	r2, r1
 973              		.loc 1 275 0
 974 00be A071     		strb	r0, [r4, #6]
 975              		.loc 1 276 0
 976 00c0 2846     		mov	r0, r5
 977 00c2 FFF7FEFF 		bl	_mmcsd_get_slice
 978              	.LVL114:
 979              		.loc 1 277 0
 980 00c6 4D21     		movs	r1, #77
 981 00c8 0A46     		mov	r2, r1
 982              		.loc 1 276 0
 983 00ca E071     		strb	r0, [r4, #7]
 984              		.loc 1 277 0
 985 00cc 2846     		mov	r0, r5
 986 00ce FFF7FEFF 		bl	_mmcsd_get_slice
 987              	.LVL115:
 988              		.loc 1 278 0
 989 00d2 7721     		movs	r1, #119
 990              		.loc 1 277 0
 991 00d4 6072     		strb	r0, [r4, #9]
 992              		.loc 1 278 0
 993 00d6 7022     		movs	r2, #112
 994 00d8 2846     		mov	r0, r5
 995 00da FFF7FEFF 		bl	_mmcsd_get_slice
 996              	.LVL116:
 997              		.loc 1 279 0
 998 00de 0C21     		movs	r1, #12
 999 00e0 0A46     		mov	r2, r1
 1000              		.loc 1 278 0
 1001 00e2 6070     		strb	r0, [r4, #1]
 1002              		.loc 1 279 0
 1003 00e4 2846     		mov	r0, r5
 1004 00e6 FFF7FEFF 		bl	_mmcsd_get_slice
 1005              	.LVL117:
 1006              		.loc 1 280 0
 1007 00ea 6721     		movs	r1, #103
 1008              		.loc 1 279 0
 1009 00ec 6077     		strb	r0, [r4, #29]
 1010              		.loc 1 280 0
 1011 00ee 6022     		movs	r2, #96
 1012 00f0 2846     		mov	r0, r5
 1013 00f2 FFF7FEFF 		bl	_mmcsd_get_slice
 1014              	.LVL118:
 1015              		.loc 1 281 0
 1016 00f6 1F21     		movs	r1, #31
 1017 00f8 0A46     		mov	r2, r1
 1018              		.loc 1 280 0
 1019 00fa E070     		strb	r0, [r4, #3]
 1020              		.loc 1 281 0
 1021 00fc 2846     		mov	r0, r5
 1022 00fe FFF7FEFF 		bl	_mmcsd_get_slice
 1023              	.LVL119:
 1024              		.loc 1 282 0
 1025 0102 2621     		movs	r1, #38
 1026              		.loc 1 281 0
ARM GAS  /tmp/ccfi62YU.s 			page 19


 1027 0104 A075     		strb	r0, [r4, #22]
 1028              		.loc 1 282 0
 1029 0106 2022     		movs	r2, #32
 1030 0108 2846     		mov	r0, r5
 1031 010a FFF7FEFF 		bl	_mmcsd_get_slice
 1032              	.LVL120:
 1033              		.loc 1 283 0
 1034 010e 1921     		movs	r1, #25
 1035              		.loc 1 282 0
 1036 0110 6075     		strb	r0, [r4, #21]
 1037              		.loc 1 283 0
 1038 0112 0C22     		movs	r2, #12
 1039 0114 2846     		mov	r0, r5
 1040 0116 FFF7FEFF 		bl	_mmcsd_get_slice
 1041              	.LVL121:
 1042              		.loc 1 284 0
 1043 011a 1521     		movs	r1, #21
 1044 011c 0A46     		mov	r2, r1
 1045              		.loc 1 283 0
 1046 011e 2076     		strb	r0, [r4, #24]
 1047              		.loc 1 284 0
 1048 0120 2846     		mov	r0, r5
 1049 0122 FFF7FEFF 		bl	_mmcsd_get_slice
 1050              	.LVL122:
 1051              		.loc 1 285 0
 1052 0126 4E21     		movs	r1, #78
 1053              		.loc 1 284 0
 1054 0128 6076     		strb	r0, [r4, #25]
 1055              		.loc 1 285 0
 1056 012a 0A46     		mov	r2, r1
 1057 012c 2846     		mov	r0, r5
 1058 012e FFF7FEFF 		bl	_mmcsd_get_slice
 1059              	.LVL123:
 1060 0132 2072     		strb	r0, [r4, #8]
 1061 0134 38BD     		pop	{r3, r4, r5, pc}
 1062              		.cfi_endproc
 1063              	.LFE329:
 1064              		.size	_mmcsd_unpack_csd_v10, .-_mmcsd_unpack_csd_v10
 1065              		.section	.text._mmcsd_unpack_csd_v20,"ax",%progbits
 1066              		.align	1
 1067              		.global	_mmcsd_unpack_csd_v20
 1068              		.thumb
 1069              		.thumb_func
 1070              		.type	_mmcsd_unpack_csd_v20, %function
 1071              	_mmcsd_unpack_csd_v20:
 1072              	.LFB330:
 1073              		.loc 1 297 0
 1074              		.cfi_startproc
 1075              		@ args = 0, pretend = 0, frame = 0
 1076              		@ frame_needed = 0, uses_anonymous_args = 0
 1077              	.LVL124:
 1078 0000 38B5     		push	{r3, r4, r5, lr}
 1079              		.cfi_def_cfa_offset 16
 1080              		.cfi_offset 3, -16
 1081              		.cfi_offset 4, -12
 1082              		.cfi_offset 5, -8
 1083              		.cfi_offset 14, -4
ARM GAS  /tmp/ccfi62YU.s 			page 20


 1084              		.loc 1 302 0
 1085 0002 00F11805 		add	r5, r0, #24
 1086              	.LVL125:
 1087              		.loc 1 297 0
 1088 0006 0C46     		mov	r4, r1
 1089              		.loc 1 303 0
 1090 0008 3022     		movs	r2, #48
 1091 000a 4521     		movs	r1, #69
 1092              	.LVL126:
 1093 000c 2846     		mov	r0, r5
 1094              	.LVL127:
 1095 000e FFF7FEFF 		bl	_mmcsd_get_slice
 1096              	.LVL128:
 1097              		.loc 1 304 0
 1098 0012 0721     		movs	r1, #7
 1099              		.loc 1 303 0
 1100 0014 E060     		str	r0, [r4, #12]
 1101              		.loc 1 304 0
 1102 0016 0122     		movs	r2, #1
 1103 0018 2846     		mov	r0, r5
 1104 001a FFF7FEFF 		bl	_mmcsd_get_slice
 1105              	.LVL129:
 1106              		.loc 1 305 0
 1107 001e 5F21     		movs	r1, #95
 1108              		.loc 1 304 0
 1109 0020 2077     		strb	r0, [r4, #28]
 1110              		.loc 1 305 0
 1111 0022 5422     		movs	r2, #84
 1112 0024 2846     		mov	r0, r5
 1113 0026 FFF7FEFF 		bl	_mmcsd_get_slice
 1114              	.LVL130:
 1115              		.loc 1 306 0
 1116 002a 0E21     		movs	r1, #14
 1117 002c 0A46     		mov	r2, r1
 1118              		.loc 1 305 0
 1119 002e A080     		strh	r0, [r4, #4]	@ movhi
 1120              		.loc 1 306 0
 1121 0030 2846     		mov	r0, r5
 1122 0032 FFF7FEFF 		bl	_mmcsd_get_slice
 1123              	.LVL131:
 1124              		.loc 1 307 0
 1125 0036 7F21     		movs	r1, #127
 1126              		.loc 1 306 0
 1127 0038 2076     		strb	r0, [r4, #24]
 1128              		.loc 1 307 0
 1129 003a 7E22     		movs	r2, #126
 1130 003c 2846     		mov	r0, r5
 1131 003e FFF7FEFF 		bl	_mmcsd_get_slice
 1132              	.LVL132:
 1133              		.loc 1 308 0
 1134 0042 4C21     		movs	r1, #76
 1135 0044 0A46     		mov	r2, r1
 1136              		.loc 1 307 0
 1137 0046 2070     		strb	r0, [r4]
 1138              		.loc 1 308 0
 1139 0048 2846     		mov	r0, r5
 1140 004a FFF7FEFF 		bl	_mmcsd_get_slice
ARM GAS  /tmp/ccfi62YU.s 			page 21


 1141              	.LVL133:
 1142              		.loc 1 309 0
 1143 004e 2E21     		movs	r1, #46
 1144 0050 0A46     		mov	r2, r1
 1145              		.loc 1 308 0
 1146 0052 A072     		strb	r0, [r4, #10]
 1147              		.loc 1 309 0
 1148 0054 2846     		mov	r0, r5
 1149 0056 FFF7FEFF 		bl	_mmcsd_get_slice
 1150              	.LVL134:
 1151              		.loc 1 310 0
 1152 005a 0B21     		movs	r1, #11
 1153              		.loc 1 309 0
 1154 005c 2074     		strb	r0, [r4, #16]
 1155              		.loc 1 310 0
 1156 005e 0A22     		movs	r2, #10
 1157 0060 2846     		mov	r0, r5
 1158 0062 FFF7FEFF 		bl	_mmcsd_get_slice
 1159              	.LVL135:
 1160              		.loc 1 311 0
 1161 0066 0F21     		movs	r1, #15
 1162 0068 0A46     		mov	r2, r1
 1163              		.loc 1 310 0
 1164 006a E076     		strb	r0, [r4, #27]
 1165              		.loc 1 311 0
 1166 006c 2846     		mov	r0, r5
 1167 006e FFF7FEFF 		bl	_mmcsd_get_slice
 1168              	.LVL136:
 1169              		.loc 1 312 0
 1170 0072 6F21     		movs	r1, #111
 1171              		.loc 1 311 0
 1172 0074 E075     		strb	r0, [r4, #23]
 1173              		.loc 1 312 0
 1174 0076 6822     		movs	r2, #104
 1175 0078 2846     		mov	r0, r5
 1176 007a FFF7FEFF 		bl	_mmcsd_get_slice
 1177              	.LVL137:
 1178              		.loc 1 313 0
 1179 007e 0D21     		movs	r1, #13
 1180 0080 0A46     		mov	r2, r1
 1181              		.loc 1 312 0
 1182 0082 A070     		strb	r0, [r4, #2]
 1183              		.loc 1 313 0
 1184 0084 2846     		mov	r0, r5
 1185 0086 FFF7FEFF 		bl	_mmcsd_get_slice
 1186              	.LVL138:
 1187              		.loc 1 314 0
 1188 008a 1C21     		movs	r1, #28
 1189              		.loc 1 313 0
 1190 008c 6076     		strb	r0, [r4, #25]
 1191              		.loc 1 314 0
 1192 008e 1A22     		movs	r2, #26
 1193 0090 2846     		mov	r0, r5
 1194 0092 FFF7FEFF 		bl	_mmcsd_get_slice
 1195              	.LVL139:
 1196              		.loc 1 315 0
 1197 0096 5321     		movs	r1, #83
ARM GAS  /tmp/ccfi62YU.s 			page 22


 1198              		.loc 1 314 0
 1199 0098 2075     		strb	r0, [r4, #20]
 1200              		.loc 1 315 0
 1201 009a 5022     		movs	r2, #80
 1202 009c 2846     		mov	r0, r5
 1203 009e FFF7FEFF 		bl	_mmcsd_get_slice
 1204              	.LVL140:
 1205              		.loc 1 316 0
 1206 00a2 4F21     		movs	r1, #79
 1207 00a4 0A46     		mov	r2, r1
 1208              		.loc 1 315 0
 1209 00a6 A071     		strb	r0, [r4, #6]
 1210              		.loc 1 316 0
 1211 00a8 2846     		mov	r0, r5
 1212 00aa FFF7FEFF 		bl	_mmcsd_get_slice
 1213              	.LVL141:
 1214              		.loc 1 317 0
 1215 00ae 4D21     		movs	r1, #77
 1216 00b0 0A46     		mov	r2, r1
 1217              		.loc 1 316 0
 1218 00b2 E071     		strb	r0, [r4, #7]
 1219              		.loc 1 317 0
 1220 00b4 2846     		mov	r0, r5
 1221 00b6 FFF7FEFF 		bl	_mmcsd_get_slice
 1222              	.LVL142:
 1223              		.loc 1 318 0
 1224 00ba 2D21     		movs	r1, #45
 1225              		.loc 1 317 0
 1226 00bc 6072     		strb	r0, [r4, #9]
 1227              		.loc 1 318 0
 1228 00be 2722     		movs	r2, #39
 1229 00c0 2846     		mov	r0, r5
 1230 00c2 FFF7FEFF 		bl	_mmcsd_get_slice
 1231              	.LVL143:
 1232              		.loc 1 319 0
 1233 00c6 7721     		movs	r1, #119
 1234              		.loc 1 318 0
 1235 00c8 6074     		strb	r0, [r4, #17]
 1236              		.loc 1 319 0
 1237 00ca 7022     		movs	r2, #112
 1238 00cc 2846     		mov	r0, r5
 1239 00ce FFF7FEFF 		bl	_mmcsd_get_slice
 1240              	.LVL144:
 1241              		.loc 1 320 0
 1242 00d2 0C21     		movs	r1, #12
 1243 00d4 0A46     		mov	r2, r1
 1244              		.loc 1 319 0
 1245 00d6 6070     		strb	r0, [r4, #1]
 1246              		.loc 1 320 0
 1247 00d8 2846     		mov	r0, r5
 1248 00da FFF7FEFF 		bl	_mmcsd_get_slice
 1249              	.LVL145:
 1250              		.loc 1 321 0
 1251 00de 6721     		movs	r1, #103
 1252              		.loc 1 320 0
 1253 00e0 A076     		strb	r0, [r4, #26]
 1254              		.loc 1 321 0
ARM GAS  /tmp/ccfi62YU.s 			page 23


 1255 00e2 6022     		movs	r2, #96
 1256 00e4 2846     		mov	r0, r5
 1257 00e6 FFF7FEFF 		bl	_mmcsd_get_slice
 1258              	.LVL146:
 1259              		.loc 1 322 0
 1260 00ea 1F21     		movs	r1, #31
 1261 00ec 0A46     		mov	r2, r1
 1262              		.loc 1 321 0
 1263 00ee E070     		strb	r0, [r4, #3]
 1264              		.loc 1 322 0
 1265 00f0 2846     		mov	r0, r5
 1266 00f2 FFF7FEFF 		bl	_mmcsd_get_slice
 1267              	.LVL147:
 1268              		.loc 1 323 0
 1269 00f6 2621     		movs	r1, #38
 1270              		.loc 1 322 0
 1271 00f8 E074     		strb	r0, [r4, #19]
 1272              		.loc 1 323 0
 1273 00fa 2022     		movs	r2, #32
 1274 00fc 2846     		mov	r0, r5
 1275 00fe FFF7FEFF 		bl	_mmcsd_get_slice
 1276              	.LVL148:
 1277              		.loc 1 324 0
 1278 0102 1921     		movs	r1, #25
 1279              		.loc 1 323 0
 1280 0104 A074     		strb	r0, [r4, #18]
 1281              		.loc 1 324 0
 1282 0106 0C22     		movs	r2, #12
 1283 0108 2846     		mov	r0, r5
 1284 010a FFF7FEFF 		bl	_mmcsd_get_slice
 1285              	.LVL149:
 1286              		.loc 1 325 0
 1287 010e 1521     		movs	r1, #21
 1288 0110 0A46     		mov	r2, r1
 1289              		.loc 1 324 0
 1290 0112 6075     		strb	r0, [r4, #21]
 1291              		.loc 1 325 0
 1292 0114 2846     		mov	r0, r5
 1293 0116 FFF7FEFF 		bl	_mmcsd_get_slice
 1294              	.LVL150:
 1295              		.loc 1 326 0
 1296 011a 4E21     		movs	r1, #78
 1297              		.loc 1 325 0
 1298 011c A075     		strb	r0, [r4, #22]
 1299              		.loc 1 326 0
 1300 011e 0A46     		mov	r2, r1
 1301 0120 2846     		mov	r0, r5
 1302 0122 FFF7FEFF 		bl	_mmcsd_get_slice
 1303              	.LVL151:
 1304 0126 2072     		strb	r0, [r4, #8]
 1305 0128 38BD     		pop	{r3, r4, r5, pc}
 1306              		.cfi_endproc
 1307              	.LFE330:
 1308              		.size	_mmcsd_unpack_csd_v20, .-_mmcsd_unpack_csd_v20
 1309              		.text
 1310              	.Letext0:
 1311              		.file 2 "/usr/lib/gcc/arm-none-eabi/4.9.3/include/stddef.h"
ARM GAS  /tmp/ccfi62YU.s 			page 24


 1312              		.file 3 "/usr/include/newlib/machine/_default_types.h"
 1313              		.file 4 "/usr/include/newlib/sys/_stdint.h"
 1314              		.file 5 "../../modules/ChibiOS/os/common/ports/ARMCMx/compilers/GCC/chtypes.h"
 1315              		.file 6 "../../modules/ChibiOS/os/rt/include/chsystypes.h"
 1316              		.file 7 "../../modules/ChibiOS/os/rt/include/chschd.h"
 1317              		.file 8 "../../modules/ChibiOS/os/rt/include/chtime.h"
 1318              		.file 9 "../../modules/ChibiOS/os/common/ports/ARMCMx/chcore.h"
 1319              		.file 10 "../../modules/ChibiOS/os/common/ports/ARMCMx/chcore_v7m.h"
 1320              		.file 11 "../../modules/ChibiOS/os/rt/include/chtm.h"
 1321              		.file 12 "../../modules/ChibiOS/os/rt/include/chstats.h"
 1322              		.file 13 "../../modules/ChibiOS/os/rt/include/chsem.h"
 1323              		.file 14 "../../modules/ChibiOS/os/rt/include/chmtx.h"
 1324              		.file 15 "../../modules/ChibiOS/os/hal/include/hal_ioblock.h"
 1325              		.file 16 "../../modules/ChibiOS/os/hal/include/hal_mmcsd.h"
 1326              		.file 17 "../../modules/ChibiOS/os/common/ext/ARM/CMSIS/Core/Include/core_cm4.h"