ARM GAS  /tmp/ccwI2i93.s 			page 1


   1              		.syntax unified
   2              		.cpu cortex-m4
   3              		.eabi_attribute 27, 1
   4              		.eabi_attribute 28, 1
   5              		.fpu fpv4-sp-d16
   6              		.eabi_attribute 20, 1
   7              		.eabi_attribute 21, 1
   8              		.eabi_attribute 23, 3
   9              		.eabi_attribute 24, 1
  10              		.eabi_attribute 25, 1
  11              		.eabi_attribute 26, 1
  12              		.eabi_attribute 30, 4
  13              		.eabi_attribute 34, 1
  14              		.eabi_attribute 18, 4
  15              		.thumb
  16              		.file	"hal_icu_lld.c"
  17              		.text
  18              	.Ltext0:
  19              		.cfi_sections	.debug_frame
  20              		.section	.text.icu_lld_wait_edge,"ax",%progbits
  21              		.align	1
  22              		.thumb
  23              		.thumb_func
  24              		.type	icu_lld_wait_edge, %function
  25              	icu_lld_wait_edge:
  26              	.LFB323:
  27              		.file 1 "../../modules/ChibiOS/os/hal/ports/STM32/LLD/TIMv1/hal_icu_lld.c"
  28              		.loc 1 113 0
  29              		.cfi_startproc
  30              		@ args = 0, pretend = 0, frame = 0
  31              		@ frame_needed = 0, uses_anonymous_args = 0
  32              	.LVL0:
  33 0000 38B5     		push	{r3, r4, r5, lr}
  34              		.cfi_def_cfa_offset 16
  35              		.cfi_offset 3, -16
  36              		.cfi_offset 4, -12
  37              		.cfi_offset 5, -8
  38              		.cfi_offset 14, -4
  39              		.loc 1 113 0
  40 0002 0546     		mov	r5, r0
  41              	.LBB32:
  42              	.LBB33:
  43              	.LBB34:
  44              		.file 2 "../../modules/ChibiOS/os/rt/include/chsys.h"
  45              		.loc 2 368 0
  46 0004 FFF7FEFF 		bl	_stats_stop_measure_crit_thd
  47              	.LVL1:
  48              	.LBB35:
  49              	.LBB36:
  50              	.LBB37:
  51              		.file 3 "../../modules/ChibiOS/os/common/ext/ARM/CMSIS/Core/Include/cmsis_gcc.h"
  52              		.loc 3 493 0
  53 0008 0023     		movs	r3, #0
  54              	@ 493 "../../modules/ChibiOS/os/common/ext/ARM/CMSIS/Core/Include/cmsis_gcc.h" 1
  55 000a 83F31188 		MSR basepri, r3
  56              	@ 0 "" 2
  57              		.thumb
ARM GAS  /tmp/ccwI2i93.s 			page 2


  58              	.LBE37:
  59              	.LBE36:
  60              	.LBE35:
  61              	.LBE34:
  62              	.LBE33:
  63              	.LBE32:
  64              		.loc 1 122 0
  65 000e 6B68     		ldr	r3, [r5, #4]
  66 0010 1A7D     		ldrb	r2, [r3, #20]	@ zero_extendqisi2
  67 0012 EB68     		ldr	r3, [r5, #12]
  68 0014 1AB9     		cbnz	r2, .L5
  69              	.L3:
  70              		.loc 1 124 0 discriminator 1
  71 0016 1C69     		ldr	r4, [r3, #16]
  72              	.LVL2:
  73 0018 A207     		lsls	r2, r4, #30
  74 001a FCD0     		beq	.L3
  75 001c 03E0     		b	.L4
  76              	.LVL3:
  77              	.L5:
  78              		.loc 1 130 0 discriminator 1
  79 001e 1C69     		ldr	r4, [r3, #16]
  80              	.LVL4:
  81 0020 14F0050F 		tst	r4, #5
  82 0024 FBD0     		beq	.L5
  83              	.L4:
  84              	.LVL5:
  85              	.LBB38:
  86              	.LBB39:
  87              	.LBB40:
  88              	.LBB41:
  89              	.LBB42:
  90              	.LBB43:
  91              		.loc 3 493 0
  92 0026 2023     		movs	r3, #32
  93              	@ 493 "../../modules/ChibiOS/os/common/ext/ARM/CMSIS/Core/Include/cmsis_gcc.h" 1
  94 0028 83F31188 		MSR basepri, r3
  95              	@ 0 "" 2
  96              		.thumb
  97              	.LBE43:
  98              	.LBE42:
  99              	.LBE41:
 100              		.loc 2 356 0
 101 002c FFF7FEFF 		bl	_stats_start_measure_crit_thd
 102              	.LVL6:
 103              	.LBE40:
 104              	.LBE39:
 105              	.LBE38:
 106              		.loc 1 142 0
 107 0030 EA68     		ldr	r2, [r5, #12]
 108 0032 1369     		ldr	r3, [r2, #16]
 109 0034 23F00703 		bic	r3, r3, #7
 110 0038 1361     		str	r3, [r2, #16]
 111              		.loc 1 147 0
 112 003a 04F00100 		and	r0, r4, #1
 113 003e 38BD     		pop	{r3, r4, r5, pc}
 114              		.cfi_endproc
ARM GAS  /tmp/ccwI2i93.s 			page 3


 115              	.LFE323:
 116              		.size	icu_lld_wait_edge, .-icu_lld_wait_edge
 117              		.section	.text.icu_lld_init,"ax",%progbits
 118              		.align	1
 119              		.global	icu_lld_init
 120              		.thumb
 121              		.thumb_func
 122              		.type	icu_lld_init, %function
 123              	icu_lld_init:
 124              	.LFB326:
 125              		.loc 1 349 0
 126              		.cfi_startproc
 127              		@ args = 0, pretend = 0, frame = 0
 128              		@ frame_needed = 0, uses_anonymous_args = 0
 129 0000 10B5     		push	{r4, lr}
 130              		.cfi_def_cfa_offset 8
 131              		.cfi_offset 4, -8
 132              		.cfi_offset 14, -4
 133              		.loc 1 383 0
 134 0002 034C     		ldr	r4, .L12
 135 0004 2046     		mov	r0, r4
 136 0006 FFF7FEFF 		bl	icuObjectInit
 137              	.LVL7:
 138              		.loc 1 384 0
 139 000a 024B     		ldr	r3, .L12+4
 140 000c E360     		str	r3, [r4, #12]
 141 000e 10BD     		pop	{r4, pc}
 142              	.L13:
 143              		.align	2
 144              	.L12:
 145 0010 00000000 		.word	.LANCHOR0
 146 0014 00040140 		.word	1073808384
 147              		.cfi_endproc
 148              	.LFE326:
 149              		.size	icu_lld_init, .-icu_lld_init
 150              		.section	.text.icu_lld_start,"ax",%progbits
 151              		.align	1
 152              		.global	icu_lld_start
 153              		.thumb
 154              		.thumb_func
 155              		.type	icu_lld_start, %function
 156              	icu_lld_start:
 157              	.LFB327:
 158              		.loc 1 407 0
 159              		.cfi_startproc
 160              		@ args = 0, pretend = 0, frame = 0
 161              		@ frame_needed = 0, uses_anonymous_args = 0
 162              	.LVL8:
 163 0000 38B5     		push	{r3, r4, r5, lr}
 164              		.cfi_def_cfa_offset 16
 165              		.cfi_offset 3, -16
 166              		.cfi_offset 4, -12
 167              		.cfi_offset 5, -8
 168              		.cfi_offset 14, -4
 169              		.loc 1 414 0
 170 0002 0378     		ldrb	r3, [r0]	@ zero_extendqisi2
 171 0004 012B     		cmp	r3, #1
ARM GAS  /tmp/ccwI2i93.s 			page 4


 172              		.loc 1 407 0
 173 0006 0446     		mov	r4, r0
 174              		.loc 1 414 0
 175 0008 20D1     		bne	.L15
 176              		.loc 1 493 0
 177 000a 2C4B     		ldr	r3, .L25
 178 000c 9842     		cmp	r0, r3
 179 000e 23D1     		bne	.L16
 180              		.loc 1 494 0
 181 0010 2B4B     		ldr	r3, .L25+4
 182 0012 5A6C     		ldr	r2, [r3, #68]
 183 0014 42F00202 		orr	r2, r2, #2
 184 0018 5A64     		str	r2, [r3, #68]
 185 001a 5A6E     		ldr	r2, [r3, #100]
 186 001c 42F00202 		orr	r2, r2, #2
 187 0020 5A66     		str	r2, [r3, #100]
 188 0022 5A6E     		ldr	r2, [r3, #100]
 189              		.loc 1 495 0
 190 0024 5A6A     		ldr	r2, [r3, #36]
 191 0026 42F00202 		orr	r2, r2, #2
 192 002a 5A62     		str	r2, [r3, #36]
 193 002c 5A6A     		ldr	r2, [r3, #36]
 194 002e 22F00202 		bic	r2, r2, #2
 195 0032 5A62     		str	r2, [r3, #36]
 196              		.loc 1 497 0
 197 0034 2C20     		movs	r0, #44
 198              	.LVL9:
 199 0036 0721     		movs	r1, #7
 200              		.loc 1 495 0
 201 0038 5B6A     		ldr	r3, [r3, #36]
 202              		.loc 1 497 0
 203 003a FFF7FEFF 		bl	nvicEnableVector
 204              	.LVL10:
 205              		.loc 1 498 0
 206 003e 2E20     		movs	r0, #46
 207 0040 0721     		movs	r1, #7
 208 0042 FFF7FEFF 		bl	nvicEnableVector
 209              	.LVL11:
 210              		.loc 1 503 0
 211 0046 1F4B     		ldr	r3, .L25+8
 212 0048 A360     		str	r3, [r4, #8]
 213 004a 05E0     		b	.L16
 214              	.LVL12:
 215              	.L15:
 216              		.loc 1 537 0
 217 004c C368     		ldr	r3, [r0, #12]
 218 004e 0022     		movs	r2, #0
 219 0050 1A60     		str	r2, [r3]
 220              		.loc 1 538 0
 221 0052 5A63     		str	r2, [r3, #52]
 222              		.loc 1 539 0
 223 0054 9A63     		str	r2, [r3, #56]
 224              		.loc 1 540 0
 225 0056 5A62     		str	r2, [r3, #36]
 226              	.LVL13:
 227              	.L16:
 228              		.loc 1 545 0
ARM GAS  /tmp/ccwI2i93.s 			page 5


 229 0058 6168     		ldr	r1, [r4, #4]
 230              		.loc 1 544 0
 231 005a E368     		ldr	r3, [r4, #12]
 232              		.loc 1 547 0
 233 005c 4868     		ldr	r0, [r1, #4]
 234              		.loc 1 554 0
 235 005e 0D7D     		ldrb	r5, [r1, #20]	@ zero_extendqisi2
 236              		.loc 1 544 0
 237 0060 0022     		movs	r2, #0
 238 0062 1A61     		str	r2, [r3, #16]
 239              		.loc 1 545 0
 240 0064 8A69     		ldr	r2, [r1, #24]
 241 0066 22F0FF02 		bic	r2, r2, #255
 242 006a DA60     		str	r2, [r3, #12]
 243              		.loc 1 547 0
 244 006c A268     		ldr	r2, [r4, #8]
 245 006e B2FBF0F2 		udiv	r2, r2, r0
 246 0072 013A     		subs	r2, r2, #1
 247              	.LVL14:
 248              		.loc 1 551 0
 249 0074 9A62     		str	r2, [r3, #40]
 250              		.loc 1 552 0
 251 0076 4FF6FF72 		movw	r2, #65535
 252              	.LVL15:
 253 007a DA62     		str	r2, [r3, #44]
 254              	.LVL16:
 255 007c 0878     		ldrb	r0, [r1]	@ zero_extendqisi2
 256              	.LVL17:
 257 007e 03F13802 		add	r2, r3, #56
 258 0082 03F13401 		add	r1, r3, #52
 259              	.LVL18:
 260              		.loc 1 554 0
 261 0086 65B9     		cbnz	r5, .L17
 262              		.loc 1 558 0
 263 0088 40F20125 		movw	r5, #513
 264 008c 9D61     		str	r5, [r3, #24]
 265              		.loc 1 562 0
 266 008e 5425     		movs	r5, #84
 267 0090 9D60     		str	r5, [r3, #8]
 268              		.loc 1 567 0
 269 0092 08B9     		cbnz	r0, .L18
 270              		.loc 1 568 0
 271 0094 3120     		movs	r0, #49
 272 0096 00E0     		b	.L23
 273              	.L18:
 274              		.loc 1 571 0
 275 0098 1320     		movs	r0, #19
 276              	.L23:
 277 009a 1862     		str	r0, [r3, #32]
 278              	.LVL19:
 279              		.loc 1 576 0
 280 009c 2261     		str	r2, [r4, #16]
 281              		.loc 1 577 0
 282 009e 6161     		str	r1, [r4, #20]
 283 00a0 38BD     		pop	{r3, r4, r5, pc}
 284              	.LVL20:
 285              	.L17:
ARM GAS  /tmp/ccwI2i93.s 			page 6


 286              		.loc 1 583 0
 287 00a2 4FF48175 		mov	r5, #258
 288 00a6 9D61     		str	r5, [r3, #24]
 289              		.loc 1 587 0
 290 00a8 6425     		movs	r5, #100
 291 00aa 9D60     		str	r5, [r3, #8]
 292              		.loc 1 592 0
 293 00ac 08B9     		cbnz	r0, .L21
 294              		.loc 1 593 0
 295 00ae 1320     		movs	r0, #19
 296 00b0 00E0     		b	.L24
 297              	.L21:
 298              		.loc 1 596 0
 299 00b2 3120     		movs	r0, #49
 300              	.L24:
 301 00b4 1862     		str	r0, [r3, #32]
 302              	.LVL21:
 303              		.loc 1 601 0
 304 00b6 2161     		str	r1, [r4, #16]
 305              		.loc 1 602 0
 306 00b8 6261     		str	r2, [r4, #20]
 307 00ba 38BD     		pop	{r3, r4, r5, pc}
 308              	.LVL22:
 309              	.L26:
 310              		.align	2
 311              	.L25:
 312 00bc 00000000 		.word	.LANCHOR0
 313 00c0 00380240 		.word	1073887232
 314 00c4 007A030A 		.word	168000000
 315              		.cfi_endproc
 316              	.LFE327:
 317              		.size	icu_lld_start, .-icu_lld_start
 318              		.section	.text.icu_lld_stop,"ax",%progbits
 319              		.align	1
 320              		.global	icu_lld_stop
 321              		.thumb
 322              		.thumb_func
 323              		.type	icu_lld_stop, %function
 324              	icu_lld_stop:
 325              	.LFB328:
 326              		.loc 1 613 0
 327              		.cfi_startproc
 328              		@ args = 0, pretend = 0, frame = 0
 329              		@ frame_needed = 0, uses_anonymous_args = 0
 330              	.LVL23:
 331 0000 08B5     		push	{r3, lr}
 332              		.cfi_def_cfa_offset 8
 333              		.cfi_offset 3, -8
 334              		.cfi_offset 14, -4
 335              		.loc 1 615 0
 336 0002 0378     		ldrb	r3, [r0]	@ zero_extendqisi2
 337 0004 022B     		cmp	r3, #2
 338 0006 17D1     		bne	.L27
 339              		.loc 1 617 0
 340 0008 C368     		ldr	r3, [r0, #12]
 341 000a 0022     		movs	r2, #0
 342 000c 1A60     		str	r2, [r3]
ARM GAS  /tmp/ccwI2i93.s 			page 7


 343              		.loc 1 618 0
 344 000e DA60     		str	r2, [r3, #12]
 345              		.loc 1 619 0
 346 0010 1A61     		str	r2, [r3, #16]
 347              		.loc 1 668 0
 348 0012 0A4B     		ldr	r3, .L31
 349 0014 9842     		cmp	r0, r3
 350 0016 0FD1     		bne	.L27
 351              		.loc 1 670 0
 352 0018 2C20     		movs	r0, #44
 353              	.LVL24:
 354 001a FFF7FEFF 		bl	nvicDisableVector
 355              	.LVL25:
 356              		.loc 1 671 0
 357 001e 2E20     		movs	r0, #46
 358 0020 FFF7FEFF 		bl	nvicDisableVector
 359              	.LVL26:
 360              		.loc 1 673 0
 361 0024 064B     		ldr	r3, .L31+4
 362 0026 5A6C     		ldr	r2, [r3, #68]
 363 0028 22F00202 		bic	r2, r2, #2
 364 002c 5A64     		str	r2, [r3, #68]
 365 002e 5A6E     		ldr	r2, [r3, #100]
 366 0030 22F00202 		bic	r2, r2, #2
 367 0034 5A66     		str	r2, [r3, #100]
 368 0036 5B6E     		ldr	r3, [r3, #100]
 369              	.L27:
 370 0038 08BD     		pop	{r3, pc}
 371              	.L32:
 372 003a 00BF     		.align	2
 373              	.L31:
 374 003c 00000000 		.word	.LANCHOR0
 375 0040 00380240 		.word	1073887232
 376              		.cfi_endproc
 377              	.LFE328:
 378              		.size	icu_lld_stop, .-icu_lld_stop
 379              		.section	.text.icu_lld_start_capture,"ax",%progbits
 380              		.align	1
 381              		.global	icu_lld_start_capture
 382              		.thumb
 383              		.thumb_func
 384              		.type	icu_lld_start_capture, %function
 385              	icu_lld_start_capture:
 386              	.LFB329:
 387              		.loc 1 701 0
 388              		.cfi_startproc
 389              		@ args = 0, pretend = 0, frame = 0
 390              		@ frame_needed = 0, uses_anonymous_args = 0
 391              		@ link register save eliminated.
 392              	.LVL27:
 393              		.loc 1 704 0
 394 0000 C368     		ldr	r3, [r0, #12]
 395 0002 5A69     		ldr	r2, [r3, #20]
 396 0004 42F00102 		orr	r2, r2, #1
 397 0008 5A61     		str	r2, [r3, #20]
 398              		.loc 1 705 0
 399 000a 0022     		movs	r2, #0
ARM GAS  /tmp/ccwI2i93.s 			page 8


 400 000c 1A61     		str	r2, [r3, #16]
 401              		.loc 1 708 0
 402 000e 0522     		movs	r2, #5
 403 0010 1A60     		str	r2, [r3]
 404 0012 7047     		bx	lr
 405              		.cfi_endproc
 406              	.LFE329:
 407              		.size	icu_lld_start_capture, .-icu_lld_start_capture
 408              		.section	.text.icu_lld_wait_capture,"ax",%progbits
 409              		.align	1
 410              		.global	icu_lld_wait_capture
 411              		.thumb
 412              		.thumb_func
 413              		.type	icu_lld_wait_capture, %function
 414              	icu_lld_wait_capture:
 415              	.LFB330:
 416              		.loc 1 723 0
 417              		.cfi_startproc
 418              		@ args = 0, pretend = 0, frame = 0
 419              		@ frame_needed = 0, uses_anonymous_args = 0
 420              	.LVL28:
 421              		.loc 1 727 0
 422 0000 0378     		ldrb	r3, [r0]	@ zero_extendqisi2
 423 0002 032B     		cmp	r3, #3
 424              		.loc 1 723 0
 425 0004 10B5     		push	{r4, lr}
 426              		.cfi_def_cfa_offset 8
 427              		.cfi_offset 4, -8
 428              		.cfi_offset 14, -4
 429              		.loc 1 723 0
 430 0006 0446     		mov	r4, r0
 431              		.loc 1 727 0
 432 0008 04D0     		beq	.L35
 433              	.LVL29:
 434              	.L36:
 435              		.loc 1 732 0
 436 000a 2046     		mov	r0, r4
 437              		.loc 1 733 0
 438 000c BDE81040 		pop	{r4, lr}
 439              		.cfi_remember_state
 440              		.cfi_restore 14
 441              		.cfi_restore 4
 442              		.cfi_def_cfa_offset 0
 443              	.LVL30:
 444              		.loc 1 732 0
 445 0010 FFF7FEBF 		b	icu_lld_wait_edge
 446              	.LVL31:
 447              	.L35:
 448              		.cfi_restore_state
 449              		.loc 1 728 0
 450 0014 FFF7FEFF 		bl	icu_lld_wait_edge
 451              	.LVL32:
 452 0018 0028     		cmp	r0, #0
 453 001a F6D0     		beq	.L36
 454              		.loc 1 733 0
 455 001c 10BD     		pop	{r4, pc}
 456              		.cfi_endproc
ARM GAS  /tmp/ccwI2i93.s 			page 9


 457              	.LFE330:
 458              		.size	icu_lld_wait_capture, .-icu_lld_wait_capture
 459              		.section	.text.icu_lld_stop_capture,"ax",%progbits
 460              		.align	1
 461              		.global	icu_lld_stop_capture
 462              		.thumb
 463              		.thumb_func
 464              		.type	icu_lld_stop_capture, %function
 465              	icu_lld_stop_capture:
 466              	.LFB331:
 467              		.loc 1 742 0
 468              		.cfi_startproc
 469              		@ args = 0, pretend = 0, frame = 0
 470              		@ frame_needed = 0, uses_anonymous_args = 0
 471              		@ link register save eliminated.
 472              	.LVL33:
 473              		.loc 1 745 0
 474 0000 C368     		ldr	r3, [r0, #12]
 475 0002 0022     		movs	r2, #0
 476 0004 1A60     		str	r2, [r3]
 477              		.loc 1 748 0
 478 0006 DA68     		ldr	r2, [r3, #12]
 479 0008 22F0FF02 		bic	r2, r2, #255
 480 000c DA60     		str	r2, [r3, #12]
 481 000e 7047     		bx	lr
 482              		.cfi_endproc
 483              	.LFE331:
 484              		.size	icu_lld_stop_capture, .-icu_lld_stop_capture
 485              		.section	.text.icu_lld_enable_notifications,"ax",%progbits
 486              		.align	1
 487              		.global	icu_lld_enable_notifications
 488              		.thumb
 489              		.thumb_func
 490              		.type	icu_lld_enable_notifications, %function
 491              	icu_lld_enable_notifications:
 492              	.LFB332:
 493              		.loc 1 761 0
 494              		.cfi_startproc
 495              		@ args = 0, pretend = 0, frame = 0
 496              		@ frame_needed = 0, uses_anonymous_args = 0
 497              	.LVL34:
 498              		.loc 1 762 0
 499 0000 C268     		ldr	r2, [r0, #12]
 500 0002 D368     		ldr	r3, [r2, #12]
 501              	.LVL35:
 502              		.loc 1 767 0
 503 0004 13F0FF01 		ands	r1, r3, #255
 504              		.loc 1 761 0
 505 0008 10B5     		push	{r4, lr}
 506              		.cfi_def_cfa_offset 8
 507              		.cfi_offset 4, -8
 508              		.cfi_offset 14, -4
 509              		.loc 1 767 0
 510 000a 13D1     		bne	.L41
 511              		.loc 1 769 0
 512 000c 1161     		str	r1, [r2, #16]
 513              		.loc 1 771 0
ARM GAS  /tmp/ccwI2i93.s 			page 10


 514 000e 4168     		ldr	r1, [r0, #4]
 515 0010 0C7D     		ldrb	r4, [r1, #20]	@ zero_extendqisi2
 516 0012 8868     		ldr	r0, [r1, #8]
 517              	.LVL36:
 518 0014 1CB9     		cbnz	r4, .L43
 519              	.LVL37:
 520              		.loc 1 776 0
 521 0016 30B9     		cbnz	r0, .L46
 522              		.loc 1 773 0
 523 0018 43F00203 		orr	r3, r3, #2
 524              	.LVL38:
 525 001c 05E0     		b	.L45
 526              	.L43:
 527              	.LVL39:
 528              		.loc 1 784 0
 529 001e 10B9     		cbnz	r0, .L46
 530              		.loc 1 781 0
 531 0020 43F00403 		orr	r3, r3, #4
 532              	.LVL40:
 533 0024 01E0     		b	.L45
 534              	.LVL41:
 535              	.L46:
 536              		.loc 1 785 0
 537 0026 43F00603 		orr	r3, r3, #6
 538              	.LVL42:
 539              	.L45:
 540              		.loc 1 790 0
 541 002a 0969     		ldr	r1, [r1, #16]
 542 002c 09B1     		cbz	r1, .L47
 543              		.loc 1 791 0
 544 002e 43F00103 		orr	r3, r3, #1
 545              	.LVL43:
 546              	.L47:
 547              		.loc 1 794 0
 548 0032 D360     		str	r3, [r2, #12]
 549              	.L41:
 550 0034 10BD     		pop	{r4, pc}
 551              		.cfi_endproc
 552              	.LFE332:
 553              		.size	icu_lld_enable_notifications, .-icu_lld_enable_notifications
 554              		.section	.text.icu_lld_disable_notifications,"ax",%progbits
 555              		.align	1
 556              		.global	icu_lld_disable_notifications
 557              		.thumb
 558              		.thumb_func
 559              		.type	icu_lld_disable_notifications, %function
 560              	icu_lld_disable_notifications:
 561              	.LFB333:
 562              		.loc 1 808 0
 563              		.cfi_startproc
 564              		@ args = 0, pretend = 0, frame = 0
 565              		@ frame_needed = 0, uses_anonymous_args = 0
 566              		@ link register save eliminated.
 567              	.LVL44:
 568              		.loc 1 811 0
 569 0000 C268     		ldr	r2, [r0, #12]
 570 0002 D368     		ldr	r3, [r2, #12]
ARM GAS  /tmp/ccwI2i93.s 			page 11


 571 0004 23F0FF03 		bic	r3, r3, #255
 572 0008 D360     		str	r3, [r2, #12]
 573 000a 7047     		bx	lr
 574              		.cfi_endproc
 575              	.LFE333:
 576              		.size	icu_lld_disable_notifications, .-icu_lld_disable_notifications
 577              		.section	.text.icu_lld_serve_interrupt,"ax",%progbits
 578              		.align	1
 579              		.global	icu_lld_serve_interrupt
 580              		.thumb
 581              		.thumb_func
 582              		.type	icu_lld_serve_interrupt, %function
 583              	icu_lld_serve_interrupt:
 584              	.LFB334:
 585              		.loc 1 821 0
 586              		.cfi_startproc
 587              		@ args = 0, pretend = 0, frame = 0
 588              		@ frame_needed = 0, uses_anonymous_args = 0
 589              	.LVL45:
 590 0000 F8B5     		push	{r3, r4, r5, r6, r7, lr}
 591              		.cfi_def_cfa_offset 24
 592              		.cfi_offset 3, -24
 593              		.cfi_offset 4, -20
 594              		.cfi_offset 5, -16
 595              		.cfi_offset 6, -12
 596              		.cfi_offset 7, -8
 597              		.cfi_offset 14, -4
 598              		.loc 1 824 0
 599 0002 C368     		ldr	r3, [r0, #12]
 600 0004 1A69     		ldr	r2, [r3, #16]
 601              	.LVL46:
 602              		.loc 1 825 0
 603 0006 DD68     		ldr	r5, [r3, #12]
 604 0008 1540     		ands	r5, r5, r2
 605              	.LVL47:
 606 000a EAB2     		uxtb	r2, r5
 607              		.loc 1 826 0
 608 000c D243     		mvns	r2, r2
 609 000e 1A61     		str	r2, [r3, #16]
 610              		.loc 1 827 0
 611 0010 4368     		ldr	r3, [r0, #4]
 612 0012 1A7D     		ldrb	r2, [r3, #20]	@ zero_extendqisi2
 613              		.loc 1 821 0
 614 0014 0446     		mov	r4, r0
 615 0016 05F00406 		and	r6, r5, #4
 616 001a 05F00207 		and	r7, r5, #2
 617              		.loc 1 827 0
 618 001e 92B9     		cbnz	r2, .L53
 619              		.loc 1 828 0
 620 0020 2EB1     		cbz	r6, .L54
 621              		.loc 1 829 0
 622 0022 0278     		ldrb	r2, [r0]	@ zero_extendqisi2
 623 0024 042A     		cmp	r2, #4
 624 0026 02D1     		bne	.L54
 625              		.loc 1 829 0 is_stmt 0 discriminator 1
 626 0028 9B68     		ldr	r3, [r3, #8]
 627 002a 03B1     		cbz	r3, .L54
ARM GAS  /tmp/ccwI2i93.s 			page 12


 628              		.loc 1 829 0 discriminator 2
 629 002c 9847     		blx	r3
 630              	.LVL48:
 631              	.L54:
 632              		.loc 1 830 0 is_stmt 1
 633 002e 9FB1     		cbz	r7, .L56
 634              	.L91:
 635              		.loc 1 831 0
 636 0030 2378     		ldrb	r3, [r4]	@ zero_extendqisi2
 637 0032 042B     		cmp	r3, #4
 638 0034 04D1     		bne	.L58
 639              		.loc 1 831 0 is_stmt 0 discriminator 1
 640 0036 6368     		ldr	r3, [r4, #4]
 641 0038 DB68     		ldr	r3, [r3, #12]
 642 003a 0BB1     		cbz	r3, .L58
 643              		.loc 1 831 0 discriminator 3
 644 003c 2046     		mov	r0, r4
 645 003e 9847     		blx	r3
 646              	.LVL49:
 647              	.L58:
 648              		.loc 1 831 0 discriminator 5
 649 0040 0423     		movs	r3, #4
 650 0042 2370     		strb	r3, [r4]
 651 0044 08E0     		b	.L56
 652              	.LVL50:
 653              	.L53:
 654              		.loc 1 834 0 is_stmt 1
 655 0046 2FB1     		cbz	r7, .L60
 656              		.loc 1 835 0
 657 0048 0278     		ldrb	r2, [r0]	@ zero_extendqisi2
 658 004a 042A     		cmp	r2, #4
 659 004c 02D1     		bne	.L60
 660              		.loc 1 835 0 is_stmt 0 discriminator 1
 661 004e 9B68     		ldr	r3, [r3, #8]
 662 0050 03B1     		cbz	r3, .L60
 663              		.loc 1 835 0 discriminator 2
 664 0052 9847     		blx	r3
 665              	.LVL51:
 666              	.L60:
 667              		.loc 1 836 0 is_stmt 1
 668 0054 002E     		cmp	r6, #0
 669 0056 EBD1     		bne	.L91
 670              	.L56:
 671              		.loc 1 839 0
 672 0058 EB07     		lsls	r3, r5, #31
 673 005a 05D5     		bpl	.L52
 674              		.loc 1 840 0
 675 005c 6368     		ldr	r3, [r4, #4]
 676 005e 2046     		mov	r0, r4
 677 0060 1B69     		ldr	r3, [r3, #16]
 678 0062 9847     		blx	r3
 679              	.LVL52:
 680 0064 0323     		movs	r3, #3
 681 0066 2370     		strb	r3, [r4]
 682              	.L52:
 683 0068 F8BD     		pop	{r3, r4, r5, r6, r7, pc}
 684              		.cfi_endproc
ARM GAS  /tmp/ccwI2i93.s 			page 13


 685              	.LFE334:
 686              		.size	icu_lld_serve_interrupt, .-icu_lld_serve_interrupt
 687              		.section	.text.VectorF0,"ax",%progbits
 688              		.align	1
 689              		.global	VectorF0
 690              		.thumb
 691              		.thumb_func
 692              		.type	VectorF0, %function
 693              	VectorF0:
 694              	.LFB324:
 695              		.loc 1 285 0
 696              		.cfi_startproc
 697              		@ args = 0, pretend = 0, frame = 0
 698              		@ frame_needed = 0, uses_anonymous_args = 0
 699 0000 08B5     		push	{r3, lr}
 700              		.cfi_def_cfa_offset 8
 701              		.cfi_offset 3, -8
 702              		.cfi_offset 14, -4
 703              		.loc 1 287 0
 704 0002 FFF7FEFF 		bl	_stats_increase_irq
 705              	.LVL53:
 706              		.loc 1 289 0
 707 0006 0348     		ldr	r0, .L93
 708 0008 FFF7FEFF 		bl	icu_lld_serve_interrupt
 709              	.LVL54:
 710              		.loc 1 292 0
 711 000c BDE80840 		pop	{r3, lr}
 712              		.cfi_restore 14
 713              		.cfi_restore 3
 714              		.cfi_def_cfa_offset 0
 715              		.loc 1 291 0
 716 0010 FFF7FEBF 		b	_port_irq_epilogue
 717              	.LVL55:
 718              	.L94:
 719              		.align	2
 720              	.L93:
 721 0014 00000000 		.word	.LANCHOR0
 722              		.cfi_endproc
 723              	.LFE324:
 724              		.size	VectorF0, .-VectorF0
 725              		.section	.text.VectorF8,"ax",%progbits
 726              		.align	1
 727              		.global	VectorF8
 728              		.thumb
 729              		.thumb_func
 730              		.type	VectorF8, %function
 731              	VectorF8:
 732              	.LFB325:
 733              		.loc 1 302 0
 734              		.cfi_startproc
 735              		@ args = 0, pretend = 0, frame = 0
 736              		@ frame_needed = 0, uses_anonymous_args = 0
 737 0000 08B5     		push	{r3, lr}
 738              		.cfi_def_cfa_offset 8
 739              		.cfi_offset 3, -8
 740              		.cfi_offset 14, -4
 741              		.loc 1 304 0
ARM GAS  /tmp/ccwI2i93.s 			page 14


 742 0002 FFF7FEFF 		bl	_stats_increase_irq
 743              	.LVL56:
 744              		.loc 1 306 0
 745 0006 0348     		ldr	r0, .L96
 746 0008 FFF7FEFF 		bl	icu_lld_serve_interrupt
 747              	.LVL57:
 748              		.loc 1 309 0
 749 000c BDE80840 		pop	{r3, lr}
 750              		.cfi_restore 14
 751              		.cfi_restore 3
 752              		.cfi_def_cfa_offset 0
 753              		.loc 1 308 0
 754 0010 FFF7FEBF 		b	_port_irq_epilogue
 755              	.LVL58:
 756              	.L97:
 757              		.align	2
 758              	.L96:
 759 0014 00000000 		.word	.LANCHOR0
 760              		.cfi_endproc
 761              	.LFE325:
 762              		.size	VectorF8, .-VectorF8
 763              		.global	ICUD8
 764              		.section	.bss.ICUD8,"aw",%nobits
 765              		.align	2
 766              		.set	.LANCHOR0,. + 0
 767              		.type	ICUD8, %object
 768              		.size	ICUD8, 24
 769              	ICUD8:
 770 0000 00000000 		.space	24
 770      00000000 
 770      00000000 
 770      00000000 
 770      00000000 
 771              		.text
 772              	.Letext0:
 773              		.file 4 "/usr/lib/gcc/arm-none-eabi/4.9.3/include/stddef.h"
 774              		.file 5 "/usr/include/newlib/machine/_default_types.h"
 775              		.file 6 "/usr/include/newlib/sys/_stdint.h"
 776              		.file 7 "../../modules/ChibiOS/os/common/ports/ARMCMx/compilers/GCC/chtypes.h"
 777              		.file 8 "../../modules/ChibiOS/os/rt/include/chsystypes.h"
 778              		.file 9 "../../modules/ChibiOS/os/rt/include/chschd.h"
 779              		.file 10 "../../modules/ChibiOS/os/rt/include/chtime.h"
 780              		.file 11 "../../modules/ChibiOS/os/common/ext/ST/STM32F4xx/stm32f407xx.h"
 781              		.file 12 "../../modules/ChibiOS/os/common/ports/ARMCMx/chcore.h"
 782              		.file 13 "../../modules/ChibiOS/os/common/ports/ARMCMx/chcore_v7m.h"
 783              		.file 14 "../../modules/ChibiOS/os/hal/ports/STM32/LLD/TIMv1/stm32_tim.h"
 784              		.file 15 "../../modules/ChibiOS/os/rt/include/chtm.h"
 785              		.file 16 "../../modules/ChibiOS/os/rt/include/chstats.h"
 786              		.file 17 "../../modules/ChibiOS/os/rt/include/chsem.h"
 787              		.file 18 "../../modules/ChibiOS/os/rt/include/chmtx.h"
 788              		.file 19 "../../modules/ChibiOS/os/hal/include/hal_icu.h"
 789              		.file 20 "../../modules/ChibiOS/os/hal/ports/STM32/LLD/TIMv1/hal_icu_lld.h"
 790              		.file 21 "../../modules/ChibiOS/os/hal/osal/rt/osal.h"
 791              		.file 22 "../../modules/ChibiOS/os/common/ext/ARM/CMSIS/Core/Include/core_cm4.h"
 792              		.file 23 "../../modules/ChibiOS/os/hal/ports/common/ARMCMx/nvic.h"