ARM GAS  /tmp/cc02cOoa.s 			page 1


   1              		.syntax unified
   2              		.cpu cortex-m4
   3              		.eabi_attribute 27, 1
   4              		.eabi_attribute 28, 1
   5              		.fpu fpv4-sp-d16
   6              		.eabi_attribute 20, 1
   7              		.eabi_attribute 21, 1
   8              		.eabi_attribute 23, 3
   9              		.eabi_attribute 24, 1
  10              		.eabi_attribute 25, 1
  11              		.eabi_attribute 26, 1
  12              		.eabi_attribute 30, 4
  13              		.eabi_attribute 34, 1
  14              		.eabi_attribute 18, 4
  15              		.thumb
  16              		.file	"hal_pwm.c"
  17              		.text
  18              	.Ltext0:
  19              		.cfi_sections	.debug_frame
  20              		.section	.text.chSysLock,"ax",%progbits
  21              		.align	1
  22              		.thumb
  23              		.thumb_func
  24              		.type	chSysLock, %function
  25              	chSysLock:
  26              	.LFB184:
  27              		.file 1 "../../modules/ChibiOS/os/rt/include/chsys.h"
  28              		.loc 1 353 0
  29              		.cfi_startproc
  30              		@ args = 0, pretend = 0, frame = 0
  31              		@ frame_needed = 0, uses_anonymous_args = 0
  32              		@ link register save eliminated.
  33              	.LVL0:
  34              	.LBB50:
  35              	.LBB51:
  36              	.LBB52:
  37              		.file 2 "../../modules/ChibiOS/os/common/ext/ARM/CMSIS/Core/Include/cmsis_gcc.h"
  38              		.loc 2 493 0
  39 0000 2023     		movs	r3, #32
  40              	@ 493 "../../modules/ChibiOS/os/common/ext/ARM/CMSIS/Core/Include/cmsis_gcc.h" 1
  41 0002 83F31188 		MSR basepri, r3
  42              	@ 0 "" 2
  43              		.thumb
  44              	.LBE52:
  45              	.LBE51:
  46              	.LBE50:
  47              		.loc 1 356 0
  48 0006 FFF7FEBF 		b	_stats_start_measure_crit_thd
  49              	.LVL1:
  50              		.cfi_endproc
  51              	.LFE184:
  52              		.size	chSysLock, .-chSysLock
  53              		.section	.text.chSysUnlock,"ax",%progbits
  54              		.align	1
  55              		.thumb
  56              		.thumb_func
  57              		.type	chSysUnlock, %function
ARM GAS  /tmp/cc02cOoa.s 			page 2


  58              	chSysUnlock:
  59              	.LFB185:
  60              		.loc 1 365 0
  61              		.cfi_startproc
  62              		@ args = 0, pretend = 0, frame = 0
  63              		@ frame_needed = 0, uses_anonymous_args = 0
  64 0000 08B5     		push	{r3, lr}
  65              		.cfi_def_cfa_offset 8
  66              		.cfi_offset 3, -8
  67              		.cfi_offset 14, -4
  68              		.loc 1 368 0
  69 0002 FFF7FEFF 		bl	_stats_stop_measure_crit_thd
  70              	.LVL2:
  71              	.LBB53:
  72              	.LBB54:
  73              	.LBB55:
  74              		.loc 2 493 0
  75 0006 0023     		movs	r3, #0
  76              	@ 493 "../../modules/ChibiOS/os/common/ext/ARM/CMSIS/Core/Include/cmsis_gcc.h" 1
  77 0008 83F31188 		MSR basepri, r3
  78              	@ 0 "" 2
  79              		.thumb
  80 000c 08BD     		pop	{r3, pc}
  81              	.LBE55:
  82              	.LBE54:
  83              	.LBE53:
  84              		.cfi_endproc
  85              	.LFE185:
  86              		.size	chSysUnlock, .-chSysUnlock
  87              		.section	.text.pwmInit,"ax",%progbits
  88              		.align	1
  89              		.global	pwmInit
  90              		.thumb
  91              		.thumb_func
  92              		.type	pwmInit, %function
  93              	pwmInit:
  94              	.LFB323:
  95              		.file 3 "../../modules/ChibiOS/os/hal/src/hal_pwm.c"
  96              		.loc 3 56 0
  97              		.cfi_startproc
  98              		@ args = 0, pretend = 0, frame = 0
  99              		@ frame_needed = 0, uses_anonymous_args = 0
 100              		@ link register save eliminated.
 101              		.loc 3 58 0
 102 0000 FFF7FEBF 		b	pwm_lld_init
 103              	.LVL3:
 104              		.cfi_endproc
 105              	.LFE323:
 106              		.size	pwmInit, .-pwmInit
 107              		.section	.text.pwmObjectInit,"ax",%progbits
 108              		.align	1
 109              		.global	pwmObjectInit
 110              		.thumb
 111              		.thumb_func
 112              		.type	pwmObjectInit, %function
 113              	pwmObjectInit:
 114              	.LFB324:
ARM GAS  /tmp/cc02cOoa.s 			page 3


 115              		.loc 3 68 0
 116              		.cfi_startproc
 117              		@ args = 0, pretend = 0, frame = 0
 118              		@ frame_needed = 0, uses_anonymous_args = 0
 119              		@ link register save eliminated.
 120              	.LVL4:
 121              		.loc 3 70 0
 122 0000 0123     		movs	r3, #1
 123 0002 0370     		strb	r3, [r0]
 124              		.loc 3 71 0
 125 0004 0023     		movs	r3, #0
 126 0006 4360     		str	r3, [r0, #4]
 127              		.loc 3 72 0
 128 0008 C360     		str	r3, [r0, #12]
 129              		.loc 3 73 0
 130 000a 0374     		strb	r3, [r0, #16]
 131 000c 7047     		bx	lr
 132              		.cfi_endproc
 133              	.LFE324:
 134              		.size	pwmObjectInit, .-pwmObjectInit
 135              		.section	.text.pwmStart,"ax",%progbits
 136              		.align	1
 137              		.global	pwmStart
 138              		.thumb
 139              		.thumb_func
 140              		.type	pwmStart, %function
 141              	pwmStart:
 142              	.LFB325:
 143              		.loc 3 89 0
 144              		.cfi_startproc
 145              		@ args = 0, pretend = 0, frame = 0
 146              		@ frame_needed = 0, uses_anonymous_args = 0
 147              	.LVL5:
 148 0000 38B5     		push	{r3, r4, r5, lr}
 149              		.cfi_def_cfa_offset 16
 150              		.cfi_offset 3, -16
 151              		.cfi_offset 4, -12
 152              		.cfi_offset 5, -8
 153              		.cfi_offset 14, -4
 154              		.loc 3 89 0
 155 0002 0D46     		mov	r5, r1
 156 0004 0446     		mov	r4, r0
 157              	.LBB56:
 158              	.LBB57:
 159              		.file 4 "../../modules/ChibiOS/os/hal/osal/rt/osal.h"
 160              		.loc 4 511 0
 161 0006 FFF7FEFF 		bl	chSysLock
 162              	.LVL6:
 163              	.LBE57:
 164              	.LBE56:
 165              		.loc 3 97 0
 166 000a 6B68     		ldr	r3, [r5, #4]
 167 000c A360     		str	r3, [r4, #8]
 168              		.loc 3 96 0
 169 000e 6560     		str	r5, [r4, #4]
 170              		.loc 3 98 0
 171 0010 2046     		mov	r0, r4
ARM GAS  /tmp/cc02cOoa.s 			page 4


 172 0012 FFF7FEFF 		bl	pwm_lld_start
 173              	.LVL7:
 174              		.loc 3 99 0
 175 0016 0023     		movs	r3, #0
 176 0018 E360     		str	r3, [r4, #12]
 177              		.loc 3 100 0
 178 001a 0223     		movs	r3, #2
 179 001c 2370     		strb	r3, [r4]
 180              		.loc 3 102 0
 181 001e BDE83840 		pop	{r3, r4, r5, lr}
 182              		.cfi_restore 14
 183              		.cfi_restore 5
 184              		.cfi_restore 4
 185              		.cfi_restore 3
 186              		.cfi_def_cfa_offset 0
 187              	.LVL8:
 188              	.LBB58:
 189              	.LBB59:
 190              		.loc 4 522 0
 191 0022 FFF7FEBF 		b	chSysUnlock
 192              	.LVL9:
 193              	.LBE59:
 194              	.LBE58:
 195              		.cfi_endproc
 196              	.LFE325:
 197              		.size	pwmStart, .-pwmStart
 198              		.section	.text.pwmStop,"ax",%progbits
 199              		.align	1
 200              		.global	pwmStop
 201              		.thumb
 202              		.thumb_func
 203              		.type	pwmStop, %function
 204              	pwmStop:
 205              	.LFB326:
 206              		.loc 3 111 0
 207              		.cfi_startproc
 208              		@ args = 0, pretend = 0, frame = 0
 209              		@ frame_needed = 0, uses_anonymous_args = 0
 210              	.LVL10:
 211 0000 10B5     		push	{r4, lr}
 212              		.cfi_def_cfa_offset 8
 213              		.cfi_offset 4, -8
 214              		.cfi_offset 14, -4
 215              		.loc 3 111 0
 216 0002 0446     		mov	r4, r0
 217              	.LBB60:
 218              	.LBB61:
 219              		.loc 4 511 0
 220 0004 FFF7FEFF 		bl	chSysLock
 221              	.LVL11:
 222              	.LBE61:
 223              	.LBE60:
 224              		.loc 3 120 0
 225 0008 2046     		mov	r0, r4
 226 000a FFF7FEFF 		bl	pwm_lld_stop
 227              	.LVL12:
 228              		.loc 3 121 0
ARM GAS  /tmp/cc02cOoa.s 			page 5


 229 000e 0023     		movs	r3, #0
 230 0010 E360     		str	r3, [r4, #12]
 231              		.loc 3 122 0
 232 0012 6360     		str	r3, [r4, #4]
 233              		.loc 3 123 0
 234 0014 0123     		movs	r3, #1
 235 0016 2370     		strb	r3, [r4]
 236              		.loc 3 126 0
 237 0018 BDE81040 		pop	{r4, lr}
 238              		.cfi_restore 14
 239              		.cfi_restore 4
 240              		.cfi_def_cfa_offset 0
 241              	.LVL13:
 242              	.LBB62:
 243              	.LBB63:
 244              		.loc 4 522 0
 245 001c FFF7FEBF 		b	chSysUnlock
 246              	.LVL14:
 247              	.LBE63:
 248              	.LBE62:
 249              		.cfi_endproc
 250              	.LFE326:
 251              		.size	pwmStop, .-pwmStop
 252              		.section	.text.pwmChangePeriod,"ax",%progbits
 253              		.align	1
 254              		.global	pwmChangePeriod
 255              		.thumb
 256              		.thumb_func
 257              		.type	pwmChangePeriod, %function
 258              	pwmChangePeriod:
 259              	.LFB327:
 260              		.loc 3 143 0
 261              		.cfi_startproc
 262              		@ args = 0, pretend = 0, frame = 0
 263              		@ frame_needed = 0, uses_anonymous_args = 0
 264              	.LVL15:
 265 0000 38B5     		push	{r3, r4, r5, lr}
 266              		.cfi_def_cfa_offset 16
 267              		.cfi_offset 3, -16
 268              		.cfi_offset 4, -12
 269              		.cfi_offset 5, -8
 270              		.cfi_offset 14, -4
 271              		.loc 3 143 0
 272 0002 0546     		mov	r5, r0
 273 0004 0C46     		mov	r4, r1
 274              	.LBB64:
 275              	.LBB65:
 276              		.loc 4 511 0
 277 0006 FFF7FEFF 		bl	chSysLock
 278              	.LVL16:
 279              	.LBE65:
 280              	.LBE64:
 281              		.loc 3 149 0
 282 000a AB69     		ldr	r3, [r5, #24]
 283 000c AC60     		str	r4, [r5, #8]
 284 000e 013C     		subs	r4, r4, #1
 285              	.LVL17:
ARM GAS  /tmp/cc02cOoa.s 			page 6


 286 0010 DC62     		str	r4, [r3, #44]
 287              		.loc 3 151 0
 288 0012 BDE83840 		pop	{r3, r4, r5, lr}
 289              		.cfi_restore 14
 290              		.cfi_restore 5
 291              		.cfi_restore 4
 292              		.cfi_restore 3
 293              		.cfi_def_cfa_offset 0
 294              	.LVL18:
 295              	.LBB66:
 296              	.LBB67:
 297              		.loc 4 522 0
 298 0016 FFF7FEBF 		b	chSysUnlock
 299              	.LVL19:
 300              	.LBE67:
 301              	.LBE66:
 302              		.cfi_endproc
 303              	.LFE327:
 304              		.size	pwmChangePeriod, .-pwmChangePeriod
 305              		.section	.text.pwmEnableChannel,"ax",%progbits
 306              		.align	1
 307              		.global	pwmEnableChannel
 308              		.thumb
 309              		.thumb_func
 310              		.type	pwmEnableChannel, %function
 311              	pwmEnableChannel:
 312              	.LFB328:
 313              		.loc 3 169 0
 314              		.cfi_startproc
 315              		@ args = 0, pretend = 0, frame = 0
 316              		@ frame_needed = 0, uses_anonymous_args = 0
 317              	.LVL20:
 318 0000 70B5     		push	{r4, r5, r6, lr}
 319              		.cfi_def_cfa_offset 16
 320              		.cfi_offset 4, -16
 321              		.cfi_offset 5, -12
 322              		.cfi_offset 6, -8
 323              		.cfi_offset 14, -4
 324              		.loc 3 169 0
 325 0002 0446     		mov	r4, r0
 326 0004 0D46     		mov	r5, r1
 327 0006 1646     		mov	r6, r2
 328              	.LBB68:
 329              	.LBB69:
 330              		.loc 4 511 0
 331 0008 FFF7FEFF 		bl	chSysLock
 332              	.LVL21:
 333              	.LBE69:
 334              	.LBE68:
 335              		.loc 3 177 0
 336 000c E268     		ldr	r2, [r4, #12]
 337 000e 0123     		movs	r3, #1
 338 0010 AB40     		lsls	r3, r3, r5
 339 0012 1343     		orrs	r3, r3, r2
 340 0014 E360     		str	r3, [r4, #12]
 341 0016 2046     		mov	r0, r4
 342 0018 2946     		mov	r1, r5
ARM GAS  /tmp/cc02cOoa.s 			page 7


 343 001a 3246     		mov	r2, r6
 344 001c FFF7FEFF 		bl	pwm_lld_enable_channel
 345              	.LVL22:
 346              		.loc 3 180 0
 347 0020 BDE87040 		pop	{r4, r5, r6, lr}
 348              		.cfi_restore 14
 349              		.cfi_restore 6
 350              		.cfi_restore 5
 351              		.cfi_restore 4
 352              		.cfi_def_cfa_offset 0
 353              	.LVL23:
 354              	.LBB70:
 355              	.LBB71:
 356              		.loc 4 522 0
 357 0024 FFF7FEBF 		b	chSysUnlock
 358              	.LVL24:
 359              	.LBE71:
 360              	.LBE70:
 361              		.cfi_endproc
 362              	.LFE328:
 363              		.size	pwmEnableChannel, .-pwmEnableChannel
 364              		.section	.text.pwmDisableChannel,"ax",%progbits
 365              		.align	1
 366              		.global	pwmDisableChannel
 367              		.thumb
 368              		.thumb_func
 369              		.type	pwmDisableChannel, %function
 370              	pwmDisableChannel:
 371              	.LFB329:
 372              		.loc 3 196 0
 373              		.cfi_startproc
 374              		@ args = 0, pretend = 0, frame = 0
 375              		@ frame_needed = 0, uses_anonymous_args = 0
 376              	.LVL25:
 377 0000 38B5     		push	{r3, r4, r5, lr}
 378              		.cfi_def_cfa_offset 16
 379              		.cfi_offset 3, -16
 380              		.cfi_offset 4, -12
 381              		.cfi_offset 5, -8
 382              		.cfi_offset 14, -4
 383              		.loc 3 196 0
 384 0002 0446     		mov	r4, r0
 385 0004 0D46     		mov	r5, r1
 386              	.LBB72:
 387              	.LBB73:
 388              		.loc 4 511 0
 389 0006 FFF7FEFF 		bl	chSysLock
 390              	.LVL26:
 391              	.LBE73:
 392              	.LBE72:
 393              		.loc 3 204 0
 394 000a 0123     		movs	r3, #1
 395 000c 03FA05F2 		lsl	r2, r3, r5
 396 0010 E368     		ldr	r3, [r4, #12]
 397 0012 23EA0203 		bic	r3, r3, r2
 398 0016 E360     		str	r3, [r4, #12]
 399 0018 2046     		mov	r0, r4
ARM GAS  /tmp/cc02cOoa.s 			page 8


 400 001a 2946     		mov	r1, r5
 401 001c FFF7FEFF 		bl	pwm_lld_disable_channel
 402              	.LVL27:
 403              		.loc 3 207 0
 404 0020 BDE83840 		pop	{r3, r4, r5, lr}
 405              		.cfi_restore 14
 406              		.cfi_restore 5
 407              		.cfi_restore 4
 408              		.cfi_restore 3
 409              		.cfi_def_cfa_offset 0
 410              	.LVL28:
 411              	.LBB74:
 412              	.LBB75:
 413              		.loc 4 522 0
 414 0024 FFF7FEBF 		b	chSysUnlock
 415              	.LVL29:
 416              	.LBE75:
 417              	.LBE74:
 418              		.cfi_endproc
 419              	.LFE329:
 420              		.size	pwmDisableChannel, .-pwmDisableChannel
 421              		.section	.text.pwmEnablePeriodicNotification,"ax",%progbits
 422              		.align	1
 423              		.global	pwmEnablePeriodicNotification
 424              		.thumb
 425              		.thumb_func
 426              		.type	pwmEnablePeriodicNotification, %function
 427              	pwmEnablePeriodicNotification:
 428              	.LFB330:
 429              		.loc 3 218 0
 430              		.cfi_startproc
 431              		@ args = 0, pretend = 0, frame = 0
 432              		@ frame_needed = 0, uses_anonymous_args = 0
 433              	.LVL30:
 434 0000 10B5     		push	{r4, lr}
 435              		.cfi_def_cfa_offset 8
 436              		.cfi_offset 4, -8
 437              		.cfi_offset 14, -4
 438              		.loc 3 218 0
 439 0002 0446     		mov	r4, r0
 440              	.LBB76:
 441              	.LBB77:
 442              		.loc 4 511 0
 443 0004 FFF7FEFF 		bl	chSysLock
 444              	.LVL31:
 445              	.LBE77:
 446              	.LBE76:
 447              		.loc 3 227 0
 448 0008 2046     		mov	r0, r4
 449 000a FFF7FEFF 		bl	pwm_lld_enable_periodic_notification
 450              	.LVL32:
 451              		.loc 3 230 0
 452 000e BDE81040 		pop	{r4, lr}
 453              		.cfi_restore 14
 454              		.cfi_restore 4
 455              		.cfi_def_cfa_offset 0
 456              	.LVL33:
ARM GAS  /tmp/cc02cOoa.s 			page 9


 457              	.LBB78:
 458              	.LBB79:
 459              		.loc 4 522 0
 460 0012 FFF7FEBF 		b	chSysUnlock
 461              	.LVL34:
 462              	.LBE79:
 463              	.LBE78:
 464              		.cfi_endproc
 465              	.LFE330:
 466              		.size	pwmEnablePeriodicNotification, .-pwmEnablePeriodicNotification
 467              		.section	.text.pwmDisablePeriodicNotification,"ax",%progbits
 468              		.align	1
 469              		.global	pwmDisablePeriodicNotification
 470              		.thumb
 471              		.thumb_func
 472              		.type	pwmDisablePeriodicNotification, %function
 473              	pwmDisablePeriodicNotification:
 474              	.LFB331:
 475              		.loc 3 241 0
 476              		.cfi_startproc
 477              		@ args = 0, pretend = 0, frame = 0
 478              		@ frame_needed = 0, uses_anonymous_args = 0
 479              	.LVL35:
 480 0000 10B5     		push	{r4, lr}
 481              		.cfi_def_cfa_offset 8
 482              		.cfi_offset 4, -8
 483              		.cfi_offset 14, -4
 484              		.loc 3 241 0
 485 0002 0446     		mov	r4, r0
 486              	.LBB80:
 487              	.LBB81:
 488              		.loc 4 511 0
 489 0004 FFF7FEFF 		bl	chSysLock
 490              	.LVL36:
 491              	.LBE81:
 492              	.LBE80:
 493              		.loc 3 250 0
 494 0008 2046     		mov	r0, r4
 495 000a FFF7FEFF 		bl	pwm_lld_disable_periodic_notification
 496              	.LVL37:
 497              		.loc 3 253 0
 498 000e BDE81040 		pop	{r4, lr}
 499              		.cfi_restore 14
 500              		.cfi_restore 4
 501              		.cfi_def_cfa_offset 0
 502              	.LVL38:
 503              	.LBB82:
 504              	.LBB83:
 505              		.loc 4 522 0
 506 0012 FFF7FEBF 		b	chSysUnlock
 507              	.LVL39:
 508              	.LBE83:
 509              	.LBE82:
 510              		.cfi_endproc
 511              	.LFE331:
 512              		.size	pwmDisablePeriodicNotification, .-pwmDisablePeriodicNotification
 513              		.section	.text.pwmEnableChannelNotification,"ax",%progbits
ARM GAS  /tmp/cc02cOoa.s 			page 10


 514              		.align	1
 515              		.global	pwmEnableChannelNotification
 516              		.thumb
 517              		.thumb_func
 518              		.type	pwmEnableChannelNotification, %function
 519              	pwmEnableChannelNotification:
 520              	.LFB332:
 521              		.loc 3 266 0
 522              		.cfi_startproc
 523              		@ args = 0, pretend = 0, frame = 0
 524              		@ frame_needed = 0, uses_anonymous_args = 0
 525              	.LVL40:
 526 0000 38B5     		push	{r3, r4, r5, lr}
 527              		.cfi_def_cfa_offset 16
 528              		.cfi_offset 3, -16
 529              		.cfi_offset 4, -12
 530              		.cfi_offset 5, -8
 531              		.cfi_offset 14, -4
 532              		.loc 3 266 0
 533 0002 0546     		mov	r5, r0
 534 0004 0C46     		mov	r4, r1
 535              	.LBB84:
 536              	.LBB85:
 537              		.loc 4 511 0
 538 0006 FFF7FEFF 		bl	chSysLock
 539              	.LVL41:
 540              	.LBE85:
 541              	.LBE84:
 542              		.loc 3 278 0
 543 000a 2846     		mov	r0, r5
 544 000c 2146     		mov	r1, r4
 545 000e FFF7FEFF 		bl	pwm_lld_enable_channel_notification
 546              	.LVL42:
 547              		.loc 3 281 0
 548 0012 BDE83840 		pop	{r3, r4, r5, lr}
 549              		.cfi_restore 14
 550              		.cfi_restore 5
 551              		.cfi_restore 4
 552              		.cfi_restore 3
 553              		.cfi_def_cfa_offset 0
 554              	.LVL43:
 555              	.LBB86:
 556              	.LBB87:
 557              		.loc 4 522 0
 558 0016 FFF7FEBF 		b	chSysUnlock
 559              	.LVL44:
 560              	.LBE87:
 561              	.LBE86:
 562              		.cfi_endproc
 563              	.LFE332:
 564              		.size	pwmEnableChannelNotification, .-pwmEnableChannelNotification
 565              		.section	.text.pwmDisableChannelNotification,"ax",%progbits
 566              		.align	1
 567              		.global	pwmDisableChannelNotification
 568              		.thumb
 569              		.thumb_func
 570              		.type	pwmDisableChannelNotification, %function
ARM GAS  /tmp/cc02cOoa.s 			page 11


 571              	pwmDisableChannelNotification:
 572              	.LFB333:
 573              		.loc 3 294 0
 574              		.cfi_startproc
 575              		@ args = 0, pretend = 0, frame = 0
 576              		@ frame_needed = 0, uses_anonymous_args = 0
 577              	.LVL45:
 578 0000 38B5     		push	{r3, r4, r5, lr}
 579              		.cfi_def_cfa_offset 16
 580              		.cfi_offset 3, -16
 581              		.cfi_offset 4, -12
 582              		.cfi_offset 5, -8
 583              		.cfi_offset 14, -4
 584              		.loc 3 294 0
 585 0002 0546     		mov	r5, r0
 586 0004 0C46     		mov	r4, r1
 587              	.LBB88:
 588              	.LBB89:
 589              		.loc 4 511 0
 590 0006 FFF7FEFF 		bl	chSysLock
 591              	.LVL46:
 592              	.LBE89:
 593              	.LBE88:
 594              		.loc 3 306 0
 595 000a 2846     		mov	r0, r5
 596 000c 2146     		mov	r1, r4
 597 000e FFF7FEFF 		bl	pwm_lld_disable_channel_notification
 598              	.LVL47:
 599              		.loc 3 309 0
 600 0012 BDE83840 		pop	{r3, r4, r5, lr}
 601              		.cfi_restore 14
 602              		.cfi_restore 5
 603              		.cfi_restore 4
 604              		.cfi_restore 3
 605              		.cfi_def_cfa_offset 0
 606              	.LVL48:
 607              	.LBB90:
 608              	.LBB91:
 609              		.loc 4 522 0
 610 0016 FFF7FEBF 		b	chSysUnlock
 611              	.LVL49:
 612              	.LBE91:
 613              	.LBE90:
 614              		.cfi_endproc
 615              	.LFE333:
 616              		.size	pwmDisableChannelNotification, .-pwmDisableChannelNotification
 617              		.text
 618              	.Letext0:
 619              		.file 5 "/usr/include/newlib/machine/_default_types.h"
 620              		.file 6 "/usr/include/newlib/sys/_stdint.h"
 621              		.file 7 "../../modules/ChibiOS/os/common/ports/ARMCMx/compilers/GCC/chtypes.h"
 622              		.file 8 "../../modules/ChibiOS/os/rt/include/chsystypes.h"
 623              		.file 9 "../../modules/ChibiOS/os/rt/include/chschd.h"
 624              		.file 10 "../../modules/ChibiOS/os/rt/include/chtime.h"
 625              		.file 11 "../../modules/ChibiOS/os/common/ports/ARMCMx/chcore.h"
 626              		.file 12 "../../modules/ChibiOS/os/common/ports/ARMCMx/chcore_v7m.h"
 627              		.file 13 "../../modules/ChibiOS/os/hal/ports/STM32/LLD/TIMv1/stm32_tim.h"
ARM GAS  /tmp/cc02cOoa.s 			page 12


 628              		.file 14 "../../modules/ChibiOS/os/rt/include/chtm.h"
 629              		.file 15 "../../modules/ChibiOS/os/rt/include/chstats.h"
 630              		.file 16 "../../modules/ChibiOS/os/rt/include/chsem.h"
 631              		.file 17 "../../modules/ChibiOS/os/rt/include/chmtx.h"
 632              		.file 18 "../../modules/ChibiOS/os/hal/include/hal_pwm.h"
 633              		.file 19 "../../modules/ChibiOS/os/hal/ports/STM32/LLD/TIMv1/hal_pwm_lld.h"
 634              		.file 20 "../../modules/ChibiOS/os/common/ext/ARM/CMSIS/Core/Include/core_cm4.h"