ARM GAS  /tmp/cc9De0I0.s 			page 1


   1              		.syntax unified
   2              		.cpu cortex-m4
   3              		.eabi_attribute 27, 1
   4              		.eabi_attribute 28, 1
   5              		.fpu fpv4-sp-d16
   6              		.eabi_attribute 20, 1
   7              		.eabi_attribute 21, 1
   8              		.eabi_attribute 23, 3
   9              		.eabi_attribute 24, 1
  10              		.eabi_attribute 25, 1
  11              		.eabi_attribute 26, 1
  12              		.eabi_attribute 30, 4
  13              		.eabi_attribute 34, 1
  14              		.eabi_attribute 18, 4
  15              		.thumb
  16              		.file	"hal_adc.c"
  17              		.text
  18              	.Ltext0:
  19              		.cfi_sections	.debug_frame
  20              		.section	.text.adcInit,"ax",%progbits
  21              		.align	1
  22              		.global	adcInit
  23              		.thumb
  24              		.thumb_func
  25              		.type	adcInit, %function
  26              	adcInit:
  27              	.LFB323:
  28              		.file 1 "../../modules/ChibiOS/os/hal/src/hal_adc.c"
  29              		.loc 1 56 0
  30              		.cfi_startproc
  31              		@ args = 0, pretend = 0, frame = 0
  32              		@ frame_needed = 0, uses_anonymous_args = 0
  33              		@ link register save eliminated.
  34              		.loc 1 58 0
  35 0000 FFF7FEBF 		b	adc_lld_init
  36              	.LVL0:
  37              		.cfi_endproc
  38              	.LFE323:
  39              		.size	adcInit, .-adcInit
  40              		.section	.text.adcObjectInit,"ax",%progbits
  41              		.align	1
  42              		.global	adcObjectInit
  43              		.thumb
  44              		.thumb_func
  45              		.type	adcObjectInit, %function
  46              	adcObjectInit:
  47              	.LFB324:
  48              		.loc 1 68 0
  49              		.cfi_startproc
  50              		@ args = 0, pretend = 0, frame = 0
  51              		@ frame_needed = 0, uses_anonymous_args = 0
  52              		@ link register save eliminated.
  53              	.LVL1:
  54              		.loc 1 70 0
  55 0000 0123     		movs	r3, #1
  56 0002 0370     		strb	r3, [r0]
  57              		.loc 1 71 0
ARM GAS  /tmp/cc9De0I0.s 			page 2


  58 0004 0023     		movs	r3, #0
  59 0006 4360     		str	r3, [r0, #4]
  60              		.loc 1 72 0
  61 0008 8360     		str	r3, [r0, #8]
  62              		.loc 1 73 0
  63 000a C360     		str	r3, [r0, #12]
  64              		.loc 1 74 0
  65 000c 0361     		str	r3, [r0, #16]
  66              		.loc 1 76 0
  67 000e 4361     		str	r3, [r0, #20]
  68 0010 7047     		bx	lr
  69              		.cfi_endproc
  70              	.LFE324:
  71              		.size	adcObjectInit, .-adcObjectInit
  72              		.section	.text.adcStart,"ax",%progbits
  73              		.align	1
  74              		.global	adcStart
  75              		.thumb
  76              		.thumb_func
  77              		.type	adcStart, %function
  78              	adcStart:
  79              	.LFB325:
  80              		.loc 1 95 0
  81              		.cfi_startproc
  82              		@ args = 0, pretend = 0, frame = 0
  83              		@ frame_needed = 0, uses_anonymous_args = 0
  84              	.LVL2:
  85 0000 38B5     		push	{r3, r4, r5, lr}
  86              		.cfi_def_cfa_offset 16
  87              		.cfi_offset 3, -16
  88              		.cfi_offset 4, -12
  89              		.cfi_offset 5, -8
  90              		.cfi_offset 14, -4
  91              		.loc 1 95 0
  92 0002 0446     		mov	r4, r0
  93 0004 0D46     		mov	r5, r1
  94              	.LBB56:
  95              	.LBB57:
  96              	.LBB58:
  97              	.LBB59:
  98              	.LBB60:
  99              	.LBB61:
 100              		.file 2 "../../modules/ChibiOS/os/common/ext/ARM/CMSIS/Core/Include/cmsis_gcc.h"
 101              		.loc 2 493 0
 102 0006 2023     		movs	r3, #32
 103              	@ 493 "../../modules/ChibiOS/os/common/ext/ARM/CMSIS/Core/Include/cmsis_gcc.h" 1
 104 0008 83F31188 		MSR basepri, r3
 105              	@ 0 "" 2
 106              		.thumb
 107              	.LBE61:
 108              	.LBE60:
 109              	.LBE59:
 110              		.file 3 "../../modules/ChibiOS/os/rt/include/chsys.h"
 111              		.loc 3 356 0
 112 000c FFF7FEFF 		bl	_stats_start_measure_crit_thd
 113              	.LVL3:
 114              	.LBE58:
ARM GAS  /tmp/cc9De0I0.s 			page 3


 115              	.LBE57:
 116              	.LBE56:
 117              		.loc 1 103 0
 118 0010 2046     		mov	r0, r4
 119              		.loc 1 102 0
 120 0012 6560     		str	r5, [r4, #4]
 121              		.loc 1 103 0
 122 0014 FFF7FEFF 		bl	adc_lld_start
 123              	.LVL4:
 124              		.loc 1 104 0
 125 0018 0223     		movs	r3, #2
 126 001a 2370     		strb	r3, [r4]
 127              	.LBB62:
 128              	.LBB63:
 129              	.LBB64:
 130              		.loc 3 368 0
 131 001c FFF7FEFF 		bl	_stats_stop_measure_crit_thd
 132              	.LVL5:
 133              	.LBB65:
 134              	.LBB66:
 135              	.LBB67:
 136              		.loc 2 493 0
 137 0020 0023     		movs	r3, #0
 138              	@ 493 "../../modules/ChibiOS/os/common/ext/ARM/CMSIS/Core/Include/cmsis_gcc.h" 1
 139 0022 83F31188 		MSR basepri, r3
 140              	@ 0 "" 2
 141              		.thumb
 142 0026 38BD     		pop	{r3, r4, r5, pc}
 143              	.LBE67:
 144              	.LBE66:
 145              	.LBE65:
 146              	.LBE64:
 147              	.LBE63:
 148              	.LBE62:
 149              		.cfi_endproc
 150              	.LFE325:
 151              		.size	adcStart, .-adcStart
 152              		.section	.text.adcStop,"ax",%progbits
 153              		.align	1
 154              		.global	adcStop
 155              		.thumb
 156              		.thumb_func
 157              		.type	adcStop, %function
 158              	adcStop:
 159              	.LFB326:
 160              		.loc 1 115 0
 161              		.cfi_startproc
 162              		@ args = 0, pretend = 0, frame = 0
 163              		@ frame_needed = 0, uses_anonymous_args = 0
 164              	.LVL6:
 165 0000 38B5     		push	{r3, r4, r5, lr}
 166              		.cfi_def_cfa_offset 16
 167              		.cfi_offset 3, -16
 168              		.cfi_offset 4, -12
 169              		.cfi_offset 5, -8
 170              		.cfi_offset 14, -4
 171              		.loc 1 115 0
ARM GAS  /tmp/cc9De0I0.s 			page 4


 172 0002 0446     		mov	r4, r0
 173              	.LBB82:
 174              	.LBB83:
 175              	.LBB84:
 176              	.LBB85:
 177              	.LBB86:
 178              	.LBB87:
 179              		.loc 2 493 0
 180 0004 2023     		movs	r3, #32
 181              	@ 493 "../../modules/ChibiOS/os/common/ext/ARM/CMSIS/Core/Include/cmsis_gcc.h" 1
 182 0006 83F31188 		MSR basepri, r3
 183              	@ 0 "" 2
 184              		.thumb
 185              	.LBE87:
 186              	.LBE86:
 187              	.LBE85:
 188              		.loc 3 356 0
 189 000a FFF7FEFF 		bl	_stats_start_measure_crit_thd
 190              	.LVL7:
 191              	.LBE84:
 192              	.LBE83:
 193              	.LBE82:
 194              		.loc 1 124 0
 195 000e 2046     		mov	r0, r4
 196 0010 FFF7FEFF 		bl	adc_lld_stop
 197              	.LVL8:
 198              		.loc 1 125 0
 199 0014 0025     		movs	r5, #0
 200              		.loc 1 126 0
 201 0016 0123     		movs	r3, #1
 202              		.loc 1 125 0
 203 0018 6560     		str	r5, [r4, #4]
 204              		.loc 1 126 0
 205 001a 2370     		strb	r3, [r4]
 206              	.LBB88:
 207              	.LBB89:
 208              	.LBB90:
 209              		.loc 3 368 0
 210 001c FFF7FEFF 		bl	_stats_stop_measure_crit_thd
 211              	.LVL9:
 212              	.LBB91:
 213              	.LBB92:
 214              	.LBB93:
 215              		.loc 2 493 0
 216              	@ 493 "../../modules/ChibiOS/os/common/ext/ARM/CMSIS/Core/Include/cmsis_gcc.h" 1
 217 0020 85F31188 		MSR basepri, r5
 218              	@ 0 "" 2
 219              		.thumb
 220 0024 38BD     		pop	{r3, r4, r5, pc}
 221              	.LBE93:
 222              	.LBE92:
 223              	.LBE91:
 224              	.LBE90:
 225              	.LBE89:
 226              	.LBE88:
 227              		.cfi_endproc
 228              	.LFE326:
ARM GAS  /tmp/cc9De0I0.s 			page 5


 229              		.size	adcStop, .-adcStop
 230              		.section	.text.adcStartConversion,"ax",%progbits
 231              		.align	1
 232              		.global	adcStartConversion
 233              		.thumb
 234              		.thumb_func
 235              		.type	adcStartConversion, %function
 236              	adcStartConversion:
 237              	.LFB327:
 238              		.loc 1 150 0
 239              		.cfi_startproc
 240              		@ args = 0, pretend = 0, frame = 0
 241              		@ frame_needed = 0, uses_anonymous_args = 0
 242              	.LVL10:
 243 0000 F8B5     		push	{r3, r4, r5, r6, r7, lr}
 244              		.cfi_def_cfa_offset 24
 245              		.cfi_offset 3, -24
 246              		.cfi_offset 4, -20
 247              		.cfi_offset 5, -16
 248              		.cfi_offset 6, -12
 249              		.cfi_offset 7, -8
 250              		.cfi_offset 14, -4
 251              		.loc 1 150 0
 252 0002 1E46     		mov	r6, r3
 253 0004 0446     		mov	r4, r0
 254 0006 0D46     		mov	r5, r1
 255 0008 1746     		mov	r7, r2
 256              	.LBB110:
 257              	.LBB111:
 258              	.LBB112:
 259              	.LBB113:
 260              	.LBB114:
 261              	.LBB115:
 262              		.loc 2 493 0
 263 000a 2023     		movs	r3, #32
 264              	.LVL11:
 265              	@ 493 "../../modules/ChibiOS/os/common/ext/ARM/CMSIS/Core/Include/cmsis_gcc.h" 1
 266 000c 83F31188 		MSR basepri, r3
 267              	@ 0 "" 2
 268              		.thumb
 269              	.LBE115:
 270              	.LBE114:
 271              	.LBE113:
 272              		.loc 3 356 0
 273 0010 FFF7FEFF 		bl	_stats_start_measure_crit_thd
 274              	.LVL12:
 275              	.LBE112:
 276              	.LBE111:
 277              	.LBE110:
 278              	.LBB116:
 279              	.LBB117:
 280              		.loc 1 190 0
 281 0014 0323     		movs	r3, #3
 282 0016 2370     		strb	r3, [r4]
 283              		.loc 1 191 0
 284 0018 2046     		mov	r0, r4
 285              		.loc 1 187 0
ARM GAS  /tmp/cc9De0I0.s 			page 6


 286 001a A760     		str	r7, [r4, #8]
 287              		.loc 1 188 0
 288 001c E660     		str	r6, [r4, #12]
 289              		.loc 1 189 0
 290 001e 2561     		str	r5, [r4, #16]
 291              		.loc 1 191 0
 292 0020 FFF7FEFF 		bl	adc_lld_start_conversion
 293              	.LVL13:
 294              	.LBE117:
 295              	.LBE116:
 296              	.LBB118:
 297              	.LBB119:
 298              	.LBB120:
 299              		.loc 3 368 0
 300 0024 FFF7FEFF 		bl	_stats_stop_measure_crit_thd
 301              	.LVL14:
 302              	.LBB121:
 303              	.LBB122:
 304              	.LBB123:
 305              		.loc 2 493 0
 306 0028 0023     		movs	r3, #0
 307              	@ 493 "../../modules/ChibiOS/os/common/ext/ARM/CMSIS/Core/Include/cmsis_gcc.h" 1
 308 002a 83F31188 		MSR basepri, r3
 309              	@ 0 "" 2
 310              		.thumb
 311 002e F8BD     		pop	{r3, r4, r5, r6, r7, pc}
 312              	.LBE123:
 313              	.LBE122:
 314              	.LBE121:
 315              	.LBE120:
 316              	.LBE119:
 317              	.LBE118:
 318              		.cfi_endproc
 319              	.LFE327:
 320              		.size	adcStartConversion, .-adcStartConversion
 321              		.section	.text.adcStartConversionI,"ax",%progbits
 322              		.align	1
 323              		.global	adcStartConversionI
 324              		.thumb
 325              		.thumb_func
 326              		.type	adcStartConversionI, %function
 327              	adcStartConversionI:
 328              	.LFB328:
 329              		.loc 1 178 0
 330              		.cfi_startproc
 331              		@ args = 0, pretend = 0, frame = 0
 332              		@ frame_needed = 0, uses_anonymous_args = 0
 333              	.LVL15:
 334 0000 10B5     		push	{r4, lr}
 335              		.cfi_def_cfa_offset 8
 336              		.cfi_offset 4, -8
 337              		.cfi_offset 14, -4
 338              		.loc 1 188 0
 339 0002 C360     		str	r3, [r0, #12]
 340              		.loc 1 190 0
 341 0004 0323     		movs	r3, #3
 342              	.LVL16:
ARM GAS  /tmp/cc9De0I0.s 			page 7


 343              		.loc 1 187 0
 344 0006 8260     		str	r2, [r0, #8]
 345              		.loc 1 189 0
 346 0008 0161     		str	r1, [r0, #16]
 347              		.loc 1 190 0
 348 000a 0370     		strb	r3, [r0]
 349              		.loc 1 192 0
 350 000c BDE81040 		pop	{r4, lr}
 351              		.cfi_restore 14
 352              		.cfi_restore 4
 353              		.cfi_def_cfa_offset 0
 354              		.loc 1 191 0
 355 0010 FFF7FEBF 		b	adc_lld_start_conversion
 356              	.LVL17:
 357              		.cfi_endproc
 358              	.LFE328:
 359              		.size	adcStartConversionI, .-adcStartConversionI
 360              		.section	.text.adcStopConversion,"ax",%progbits
 361              		.align	1
 362              		.global	adcStopConversion
 363              		.thumb
 364              		.thumb_func
 365              		.type	adcStopConversion, %function
 366              	adcStopConversion:
 367              	.LFB329:
 368              		.loc 1 204 0
 369              		.cfi_startproc
 370              		@ args = 0, pretend = 0, frame = 0
 371              		@ frame_needed = 0, uses_anonymous_args = 0
 372              	.LVL18:
 373 0000 10B5     		push	{r4, lr}
 374              		.cfi_def_cfa_offset 8
 375              		.cfi_offset 4, -8
 376              		.cfi_offset 14, -4
 377              	.LBB140:
 378              	.LBB141:
 379              	.LBB142:
 380              	.LBB143:
 381              	.LBB144:
 382              	.LBB145:
 383              		.loc 2 493 0
 384 0002 2023     		movs	r3, #32
 385              	.LBE145:
 386              	.LBE144:
 387              	.LBE143:
 388              	.LBE142:
 389              	.LBE141:
 390              	.LBE140:
 391              		.loc 1 204 0
 392 0004 0446     		mov	r4, r0
 393              	.LBB151:
 394              	.LBB150:
 395              	.LBB149:
 396              	.LBB148:
 397              	.LBB147:
 398              	.LBB146:
 399              		.loc 2 493 0
ARM GAS  /tmp/cc9De0I0.s 			page 8


 400              	@ 493 "../../modules/ChibiOS/os/common/ext/ARM/CMSIS/Core/Include/cmsis_gcc.h" 1
 401 0006 83F31188 		MSR basepri, r3
 402              	@ 0 "" 2
 403              		.thumb
 404              	.LBE146:
 405              	.LBE147:
 406              	.LBE148:
 407              		.loc 3 356 0
 408 000a FFF7FEFF 		bl	_stats_start_measure_crit_thd
 409              	.LVL19:
 410              	.LBE149:
 411              	.LBE150:
 412              	.LBE151:
 413              		.loc 1 211 0
 414 000e 2378     		ldrb	r3, [r4]	@ zero_extendqisi2
 415 0010 022B     		cmp	r3, #2
 416 0012 0CD0     		beq	.L8
 417              		.loc 1 212 0
 418 0014 2046     		mov	r0, r4
 419 0016 FFF7FEFF 		bl	adc_lld_stop_conversion
 420              	.LVL20:
 421              		.loc 1 213 0
 422 001a 0023     		movs	r3, #0
 423              		.loc 1 214 0
 424 001c 2046     		mov	r0, r4
 425              		.loc 1 213 0
 426 001e 2361     		str	r3, [r4, #16]
 427              		.loc 1 214 0
 428 0020 0223     		movs	r3, #2
 429 0022 00F8143B 		strb	r3, [r0], #20
 430              	.LVL21:
 431              	.LBB152:
 432              	.LBB153:
 433              		.file 4 "../../modules/ChibiOS/os/hal/osal/rt/osal.h"
 434              		.loc 4 790 0
 435 0026 6FF00101 		mvn	r1, #1
 436 002a FFF7FEFF 		bl	chThdResumeS
 437              	.LVL22:
 438              	.L8:
 439              	.LBE153:
 440              	.LBE152:
 441              	.LBB154:
 442              	.LBB155:
 443              	.LBB156:
 444              		.loc 3 368 0
 445 002e FFF7FEFF 		bl	_stats_stop_measure_crit_thd
 446              	.LVL23:
 447              	.LBB157:
 448              	.LBB158:
 449              	.LBB159:
 450              		.loc 2 493 0
 451 0032 0023     		movs	r3, #0
 452              	@ 493 "../../modules/ChibiOS/os/common/ext/ARM/CMSIS/Core/Include/cmsis_gcc.h" 1
 453 0034 83F31188 		MSR basepri, r3
 454              	@ 0 "" 2
 455              		.thumb
 456 0038 10BD     		pop	{r4, pc}
ARM GAS  /tmp/cc9De0I0.s 			page 9


 457              	.LBE159:
 458              	.LBE158:
 459              	.LBE157:
 460              	.LBE156:
 461              	.LBE155:
 462              	.LBE154:
 463              		.cfi_endproc
 464              	.LFE329:
 465              		.size	adcStopConversion, .-adcStopConversion
 466              		.section	.text.adcStopConversionI,"ax",%progbits
 467              		.align	1
 468              		.global	adcStopConversionI
 469              		.thumb
 470              		.thumb_func
 471              		.type	adcStopConversionI, %function
 472              	adcStopConversionI:
 473              	.LFB330:
 474              		.loc 1 230 0
 475              		.cfi_startproc
 476              		@ args = 0, pretend = 0, frame = 0
 477              		@ frame_needed = 0, uses_anonymous_args = 0
 478              	.LVL24:
 479              		.loc 1 239 0
 480 0000 0378     		ldrb	r3, [r0]	@ zero_extendqisi2
 481 0002 022B     		cmp	r3, #2
 482              		.loc 1 230 0
 483 0004 10B5     		push	{r4, lr}
 484              		.cfi_def_cfa_offset 8
 485              		.cfi_offset 4, -8
 486              		.cfi_offset 14, -4
 487              		.loc 1 230 0
 488 0006 0446     		mov	r4, r0
 489              		.loc 1 239 0
 490 0008 0DD0     		beq	.L13
 491              		.loc 1 240 0
 492 000a FFF7FEFF 		bl	adc_lld_stop_conversion
 493              	.LVL25:
 494              		.loc 1 241 0
 495 000e 0023     		movs	r3, #0
 496              		.loc 1 242 0
 497 0010 2046     		mov	r0, r4
 498              		.loc 1 241 0
 499 0012 2361     		str	r3, [r4, #16]
 500              		.loc 1 242 0
 501 0014 0223     		movs	r3, #2
 502 0016 00F8143B 		strb	r3, [r0], #20
 503              	.LVL26:
 504              	.LBB160:
 505              	.LBB161:
 506              		.loc 4 775 0
 507 001a 6FF00101 		mvn	r1, #1
 508              	.LBE161:
 509              	.LBE160:
 510              		.loc 1 245 0
 511 001e BDE81040 		pop	{r4, lr}
 512              		.cfi_remember_state
 513              		.cfi_restore 14
ARM GAS  /tmp/cc9De0I0.s 			page 10


 514              		.cfi_restore 4
 515              		.cfi_def_cfa_offset 0
 516              	.LVL27:
 517              	.LBB163:
 518              	.LBB162:
 519              		.loc 4 775 0
 520 0022 FFF7FEBF 		b	chThdResumeI
 521              	.LVL28:
 522              	.L13:
 523              		.cfi_restore_state
 524 0026 10BD     		pop	{r4, pc}
 525              	.LBE162:
 526              	.LBE163:
 527              		.cfi_endproc
 528              	.LFE330:
 529              		.size	adcStopConversionI, .-adcStopConversionI
 530              		.section	.text.adcConvert,"ax",%progbits
 531              		.align	1
 532              		.global	adcConvert
 533              		.thumb
 534              		.thumb_func
 535              		.type	adcConvert, %function
 536              	adcConvert:
 537              	.LFB331:
 538              		.loc 1 274 0
 539              		.cfi_startproc
 540              		@ args = 0, pretend = 0, frame = 0
 541              		@ frame_needed = 0, uses_anonymous_args = 0
 542              	.LVL29:
 543 0000 F8B5     		push	{r3, r4, r5, r6, r7, lr}
 544              		.cfi_def_cfa_offset 24
 545              		.cfi_offset 3, -24
 546              		.cfi_offset 4, -20
 547              		.cfi_offset 5, -16
 548              		.cfi_offset 6, -12
 549              		.cfi_offset 7, -8
 550              		.cfi_offset 14, -4
 551              		.loc 1 274 0
 552 0002 1E46     		mov	r6, r3
 553 0004 0446     		mov	r4, r0
 554 0006 0D46     		mov	r5, r1
 555 0008 1746     		mov	r7, r2
 556              	.LBB182:
 557              	.LBB183:
 558              	.LBB184:
 559              	.LBB185:
 560              	.LBB186:
 561              	.LBB187:
 562              		.loc 2 493 0
 563 000a 2023     		movs	r3, #32
 564              	.LVL30:
 565              	@ 493 "../../modules/ChibiOS/os/common/ext/ARM/CMSIS/Core/Include/cmsis_gcc.h" 1
 566 000c 83F31188 		MSR basepri, r3
 567              	@ 0 "" 2
 568              		.thumb
 569              	.LBE187:
 570              	.LBE186:
ARM GAS  /tmp/cc9De0I0.s 			page 11


 571              	.LBE185:
 572              		.loc 3 356 0
 573 0010 FFF7FEFF 		bl	_stats_start_measure_crit_thd
 574              	.LVL31:
 575              	.LBE184:
 576              	.LBE183:
 577              	.LBE182:
 578              	.LBB188:
 579              	.LBB189:
 580              		.loc 1 190 0
 581 0014 0323     		movs	r3, #3
 582 0016 2370     		strb	r3, [r4]
 583              		.loc 1 187 0
 584 0018 A760     		str	r7, [r4, #8]
 585              		.loc 1 188 0
 586 001a E660     		str	r6, [r4, #12]
 587              		.loc 1 189 0
 588 001c 2561     		str	r5, [r4, #16]
 589              		.loc 1 191 0
 590 001e 2046     		mov	r0, r4
 591 0020 FFF7FEFF 		bl	adc_lld_start_conversion
 592              	.LVL32:
 593              	.LBE189:
 594              	.LBE188:
 595              	.LBB190:
 596              	.LBB191:
 597              		.loc 4 735 0
 598 0024 4FF0FF31 		mov	r1, #-1
 599 0028 04F11400 		add	r0, r4, #20
 600              	.LVL33:
 601 002c FFF7FEFF 		bl	chThdSuspendTimeoutS
 602              	.LVL34:
 603 0030 0446     		mov	r4, r0
 604              	.LVL35:
 605              	.LBE191:
 606              	.LBE190:
 607              	.LBB192:
 608              	.LBB193:
 609              	.LBB194:
 610              		.loc 3 368 0
 611 0032 FFF7FEFF 		bl	_stats_stop_measure_crit_thd
 612              	.LVL36:
 613              	.LBB195:
 614              	.LBB196:
 615              	.LBB197:
 616              		.loc 2 493 0
 617 0036 0023     		movs	r3, #0
 618              	@ 493 "../../modules/ChibiOS/os/common/ext/ARM/CMSIS/Core/Include/cmsis_gcc.h" 1
 619 0038 83F31188 		MSR basepri, r3
 620              	@ 0 "" 2
 621              		.thumb
 622              	.LBE197:
 623              	.LBE196:
 624              	.LBE195:
 625              	.LBE194:
 626              	.LBE193:
 627              	.LBE192:
ARM GAS  /tmp/cc9De0I0.s 			page 12


 628              		.loc 1 283 0
 629 003c 2046     		mov	r0, r4
 630 003e F8BD     		pop	{r3, r4, r5, r6, r7, pc}
 631              		.cfi_endproc
 632              	.LFE331:
 633              		.size	adcConvert, .-adcConvert
 634              		.text
 635              	.Letext0:
 636              		.file 5 "/usr/lib/gcc/arm-none-eabi/4.9.3/include/stddef.h"
 637              		.file 6 "/usr/include/newlib/machine/_default_types.h"
 638              		.file 7 "/usr/include/newlib/sys/_stdint.h"
 639              		.file 8 "../../modules/ChibiOS/os/common/ports/ARMCMx/compilers/GCC/chtypes.h"
 640              		.file 9 "../../modules/ChibiOS/os/rt/include/chsystypes.h"
 641              		.file 10 "../../modules/ChibiOS/os/rt/include/chschd.h"
 642              		.file 11 "../../modules/ChibiOS/os/rt/include/chtime.h"
 643              		.file 12 "../../modules/ChibiOS/os/common/ext/ST/STM32F4xx/stm32f407xx.h"
 644              		.file 13 "../../modules/ChibiOS/os/common/ports/ARMCMx/chcore.h"
 645              		.file 14 "../../modules/ChibiOS/os/common/ports/ARMCMx/chcore_v7m.h"
 646              		.file 15 "../../modules/ChibiOS/os/rt/include/chtm.h"
 647              		.file 16 "../../modules/ChibiOS/os/rt/include/chstats.h"
 648              		.file 17 "../../modules/ChibiOS/os/rt/include/chsem.h"
 649              		.file 18 "../../modules/ChibiOS/os/rt/include/chmtx.h"
 650              		.file 19 "../../modules/ChibiOS/os/hal/ports/STM32/LLD/DMAv2/stm32_dma.h"
 651              		.file 20 "../../modules/ChibiOS/os/hal/include/hal_adc.h"
 652              		.file 21 "../../modules/ChibiOS/os/hal/ports/STM32/LLD/ADCv2/hal_adc_lld.h"
 653              		.file 22 "../../modules/ChibiOS/os/rt/include/chthreads.h"
 654              		.file 23 "../../modules/ChibiOS/os/common/ext/ARM/CMSIS/Core/Include/core_cm4.h"
 655              		.section	.debug_info,"",%progbits
 656              	.Ldebug_info0:
 657 0000 A7150000 		.4byte	0x15a7
 658 0004 0400     		.2byte	0x4
 659 0006 00000000 		.4byte	.Ldebug_abbrev0
 660 000a 04       		.byte	0x4
 661 000b 01       		.uleb128 0x1
 662 000c 58060000 		.4byte	.LASF202
 663 0010 01       		.byte	0x1
 664 0011 09020000 		.4byte	.LASF203
 665 0015 6B030000 		.4byte	.LASF204
 666 0019 48000000 		.4byte	.Ldebug_ranges0+0x48
 667 001d 00000000 		.4byte	0
 668 0021 00000000 		.4byte	.Ldebug_line0
 669 0025 02       		.uleb128 0x2
 670 0026 04       		.byte	0x4
 671 0027 05       		.byte	0x5
 672 0028 696E7400 		.ascii	"int\000"
 673 002c 03       		.uleb128 0x3
 674 002d 18000000 		.4byte	.LASF2
 675 0031 05       		.byte	0x5
 676 0032 D4       		.byte	0xd4
 677 0033 37000000 		.4byte	0x37
 678 0037 04       		.uleb128 0x4
 679 0038 04       		.byte	0x4
 680 0039 07       		.byte	0x7
 681 003a 4C050000 		.4byte	.LASF0
 682 003e 04       		.uleb128 0x4
 683 003f 01       		.byte	0x1
 684 0040 06       		.byte	0x6
ARM GAS  /tmp/cc9De0I0.s 			page 13


 685 0041 EE010000 		.4byte	.LASF1
 686 0045 03       		.uleb128 0x3
 687 0046 48010000 		.4byte	.LASF3
 688 004a 06       		.byte	0x6
 689 004b 1D       		.byte	0x1d
 690 004c 50000000 		.4byte	0x50
 691 0050 04       		.uleb128 0x4
 692 0051 01       		.byte	0x1
 693 0052 08       		.byte	0x8
 694 0053 46020000 		.4byte	.LASF4
 695 0057 04       		.uleb128 0x4
 696 0058 02       		.byte	0x2
 697 0059 05       		.byte	0x5
 698 005a 53080000 		.4byte	.LASF5
 699 005e 03       		.uleb128 0x3
 700 005f AD020000 		.4byte	.LASF6
 701 0063 06       		.byte	0x6
 702 0064 2B       		.byte	0x2b
 703 0065 69000000 		.4byte	0x69
 704 0069 04       		.uleb128 0x4
 705 006a 02       		.byte	0x2
 706 006b 07       		.byte	0x7
 707 006c 3E090000 		.4byte	.LASF7
 708 0070 03       		.uleb128 0x3
 709 0071 95090000 		.4byte	.LASF8
 710 0075 06       		.byte	0x6
 711 0076 3F       		.byte	0x3f
 712 0077 7B000000 		.4byte	0x7b
 713 007b 04       		.uleb128 0x4
 714 007c 04       		.byte	0x4
 715 007d 05       		.byte	0x5
 716 007e 52010000 		.4byte	.LASF9
 717 0082 03       		.uleb128 0x3
 718 0083 CC040000 		.4byte	.LASF10
 719 0087 06       		.byte	0x6
 720 0088 41       		.byte	0x41
 721 0089 8D000000 		.4byte	0x8d
 722 008d 04       		.uleb128 0x4
 723 008e 04       		.byte	0x4
 724 008f 07       		.byte	0x7
 725 0090 C7030000 		.4byte	.LASF11
 726 0094 04       		.uleb128 0x4
 727 0095 08       		.byte	0x8
 728 0096 05       		.byte	0x5
 729 0097 DF040000 		.4byte	.LASF12
 730 009b 03       		.uleb128 0x3
 731 009c B0030000 		.4byte	.LASF13
 732 00a0 06       		.byte	0x6
 733 00a1 5B       		.byte	0x5b
 734 00a2 A6000000 		.4byte	0xa6
 735 00a6 04       		.uleb128 0x4
 736 00a7 08       		.byte	0x8
 737 00a8 07       		.byte	0x7
 738 00a9 38060000 		.4byte	.LASF14
 739 00ad 03       		.uleb128 0x3
 740 00ae 01020000 		.4byte	.LASF15
 741 00b2 07       		.byte	0x7
ARM GAS  /tmp/cc9De0I0.s 			page 14


 742 00b3 14       		.byte	0x14
 743 00b4 45000000 		.4byte	0x45
 744 00b8 03       		.uleb128 0x3
 745 00b9 4F060000 		.4byte	.LASF16
 746 00bd 07       		.byte	0x7
 747 00be 1A       		.byte	0x1a
 748 00bf 5E000000 		.4byte	0x5e
 749 00c3 03       		.uleb128 0x3
 750 00c4 7C000000 		.4byte	.LASF17
 751 00c8 07       		.byte	0x7
 752 00c9 1F       		.byte	0x1f
 753 00ca 70000000 		.4byte	0x70
 754 00ce 03       		.uleb128 0x3
 755 00cf 2E090000 		.4byte	.LASF18
 756 00d3 07       		.byte	0x7
 757 00d4 20       		.byte	0x20
 758 00d5 82000000 		.4byte	0x82
 759 00d9 03       		.uleb128 0x3
 760 00da 5D080000 		.4byte	.LASF19
 761 00de 07       		.byte	0x7
 762 00df 26       		.byte	0x26
 763 00e0 9B000000 		.4byte	0x9b
 764 00e4 03       		.uleb128 0x3
 765 00e5 59050000 		.4byte	.LASF20
 766 00e9 08       		.byte	0x8
 767 00ea 27       		.byte	0x27
 768 00eb CE000000 		.4byte	0xce
 769 00ef 03       		.uleb128 0x3
 770 00f0 70010000 		.4byte	.LASF21
 771 00f4 08       		.byte	0x8
 772 00f5 28       		.byte	0x28
 773 00f6 D9000000 		.4byte	0xd9
 774 00fa 03       		.uleb128 0x3
 775 00fb 03080000 		.4byte	.LASF22
 776 00ff 08       		.byte	0x8
 777 0100 2A       		.byte	0x2a
 778 0101 AD000000 		.4byte	0xad
 779 0105 03       		.uleb128 0x3
 780 0106 67010000 		.4byte	.LASF23
 781 010a 08       		.byte	0x8
 782 010b 2B       		.byte	0x2b
 783 010c AD000000 		.4byte	0xad
 784 0110 03       		.uleb128 0x3
 785 0111 EF080000 		.4byte	.LASF24
 786 0115 08       		.byte	0x8
 787 0116 2C       		.byte	0x2c
 788 0117 AD000000 		.4byte	0xad
 789 011b 03       		.uleb128 0x3
 790 011c 57000000 		.4byte	.LASF25
 791 0120 08       		.byte	0x8
 792 0121 2E       		.byte	0x2e
 793 0122 CE000000 		.4byte	0xce
 794 0126 03       		.uleb128 0x3
 795 0127 47070000 		.4byte	.LASF26
 796 012b 08       		.byte	0x8
 797 012c 2F       		.byte	0x2f
 798 012d C3000000 		.4byte	0xc3
ARM GAS  /tmp/cc9De0I0.s 			page 15


 799 0131 03       		.uleb128 0x3
 800 0132 34020000 		.4byte	.LASF27
 801 0136 08       		.byte	0x8
 802 0137 31       		.byte	0x31
 803 0138 CE000000 		.4byte	0xce
 804 013c 03       		.uleb128 0x3
 805 013d 44030000 		.4byte	.LASF28
 806 0141 08       		.byte	0x8
 807 0142 33       		.byte	0x33
 808 0143 C3000000 		.4byte	0xc3
 809 0147 03       		.uleb128 0x3
 810 0148 4F040000 		.4byte	.LASF29
 811 014c 08       		.byte	0x8
 812 014d 34       		.byte	0x34
 813 014e CE000000 		.4byte	0xce
 814 0152 03       		.uleb128 0x3
 815 0153 C6050000 		.4byte	.LASF30
 816 0157 09       		.byte	0x9
 817 0158 34       		.byte	0x34
 818 0159 5D010000 		.4byte	0x15d
 819 015d 05       		.uleb128 0x5
 820 015e F7030000 		.4byte	.LASF49
 821 0162 60       		.byte	0x60
 822 0163 0A       		.byte	0xa
 823 0164 8E       		.byte	0x8e
 824 0165 48020000 		.4byte	0x248
 825 0169 06       		.uleb128 0x6
 826 016a 80070000 		.4byte	.LASF31
 827 016e 0A       		.byte	0xa
 828 016f 8F       		.byte	0x8f
 829 0170 7D020000 		.4byte	0x27d
 830 0174 00       		.byte	0
 831 0175 06       		.uleb128 0x6
 832 0176 01010000 		.4byte	.LASF32
 833 017a 0A       		.byte	0xa
 834 017b 90       		.byte	0x90
 835 017c 1B010000 		.4byte	0x11b
 836 0180 08       		.byte	0x8
 837 0181 07       		.uleb128 0x7
 838 0182 63747800 		.ascii	"ctx\000"
 839 0186 0A       		.byte	0xa
 840 0187 91       		.byte	0x91
 841 0188 02060000 		.4byte	0x602
 842 018c 0C       		.byte	0xc
 843 018d 06       		.uleb128 0x6
 844 018e 28090000 		.4byte	.LASF33
 845 0192 0A       		.byte	0xa
 846 0193 93       		.byte	0x93
 847 0194 53020000 		.4byte	0x253
 848 0198 10       		.byte	0x10
 849 0199 06       		.uleb128 0x6
 850 019a 40040000 		.4byte	.LASF34
 851 019e 0A       		.byte	0xa
 852 019f 94       		.byte	0x94
 853 01a0 53020000 		.4byte	0x253
 854 01a4 14       		.byte	0x14
 855 01a5 06       		.uleb128 0x6
ARM GAS  /tmp/cc9De0I0.s 			page 16


 856 01a6 3C080000 		.4byte	.LASF35
 857 01aa 0A       		.byte	0xa
 858 01ab 9B       		.byte	0x9b
 859 01ac E8080000 		.4byte	0x8e8
 860 01b0 18       		.byte	0x18
 861 01b1 06       		.uleb128 0x6
 862 01b2 F6070000 		.4byte	.LASF36
 863 01b6 0A       		.byte	0xa
 864 01b7 A4       		.byte	0xa4
 865 01b8 FA080000 		.4byte	0x8fa
 866 01bc 1C       		.byte	0x1c
 867 01bd 06       		.uleb128 0x6
 868 01be EC000000 		.4byte	.LASF37
 869 01c2 0A       		.byte	0xa
 870 01c3 A9       		.byte	0xa9
 871 01c4 05010000 		.4byte	0x105
 872 01c8 20       		.byte	0x20
 873 01c9 06       		.uleb128 0x6
 874 01ca D2020000 		.4byte	.LASF38
 875 01ce 0A       		.byte	0xa
 876 01cf AD       		.byte	0xad
 877 01d0 FA000000 		.4byte	0xfa
 878 01d4 21       		.byte	0x21
 879 01d5 06       		.uleb128 0x6
 880 01d6 7B070000 		.4byte	.LASF39
 881 01da 0A       		.byte	0xa
 882 01db B2       		.byte	0xb2
 883 01dc 10010000 		.4byte	0x110
 884 01e0 22       		.byte	0x22
 885 01e1 08       		.uleb128 0x8
 886 01e2 7500     		.ascii	"u\000"
 887 01e4 0A       		.byte	0xa
 888 01e5 0301     		.2byte	0x103
 889 01e7 1E080000 		.4byte	0x81e
 890 01eb 24       		.byte	0x24
 891 01ec 09       		.uleb128 0x9
 892 01ed CD080000 		.4byte	.LASF40
 893 01f1 0A       		.byte	0xa
 894 01f2 0801     		.2byte	0x108
 895 01f4 59020000 		.4byte	0x259
 896 01f8 28       		.byte	0x28
 897 01f9 09       		.uleb128 0x9
 898 01fa 80080000 		.4byte	.LASF41
 899 01fe 0A       		.byte	0xa
 900 01ff 0E01     		.2byte	0x10e
 901 0201 7D020000 		.4byte	0x27d
 902 0205 2C       		.byte	0x2c
 903 0206 09       		.uleb128 0x9
 904 0207 86070000 		.4byte	.LASF42
 905 020b 0A       		.byte	0xa
 906 020c 1401     		.2byte	0x114
 907 020e 31010000 		.4byte	0x131
 908 0212 34       		.byte	0x34
 909 0213 09       		.uleb128 0x9
 910 0214 D7040000 		.4byte	.LASF43
 911 0218 0A       		.byte	0xa
 912 0219 1B01     		.2byte	0x11b
ARM GAS  /tmp/cc9De0I0.s 			page 17


 913 021b E2080000 		.4byte	0x8e2
 914 021f 38       		.byte	0x38
 915 0220 09       		.uleb128 0x9
 916 0221 46040000 		.4byte	.LASF44
 917 0225 0A       		.byte	0xa
 918 0226 1F01     		.2byte	0x11f
 919 0228 1B010000 		.4byte	0x11b
 920 022c 3C       		.byte	0x3c
 921 022d 09       		.uleb128 0x9
 922 022e 05030000 		.4byte	.LASF45
 923 0232 0A       		.byte	0xa
 924 0233 2601     		.2byte	0x126
 925 0235 30030000 		.4byte	0x330
 926 0239 40       		.byte	0x40
 927 023a 09       		.uleb128 0x9
 928 023b F2000000 		.4byte	.LASF46
 929 023f 0A       		.byte	0xa
 930 0240 2C01     		.2byte	0x12c
 931 0242 CF070000 		.4byte	0x7cf
 932 0246 48       		.byte	0x48
 933 0247 00       		.byte	0
 934 0248 03       		.uleb128 0x3
 935 0249 CF050000 		.4byte	.LASF47
 936 024d 09       		.byte	0x9
 937 024e 39       		.byte	0x39
 938 024f 53020000 		.4byte	0x253
 939 0253 0A       		.uleb128 0xa
 940 0254 04       		.byte	0x4
 941 0255 52010000 		.4byte	0x152
 942 0259 03       		.uleb128 0x3
 943 025a 0F090000 		.4byte	.LASF48
 944 025e 09       		.byte	0x9
 945 025f 3E       		.byte	0x3e
 946 0260 64020000 		.4byte	0x264
 947 0264 05       		.uleb128 0x5
 948 0265 7E040000 		.4byte	.LASF50
 949 0269 04       		.byte	0x4
 950 026a 0A       		.byte	0xa
 951 026b 7C       		.byte	0x7c
 952 026c 7D020000 		.4byte	0x27d
 953 0270 06       		.uleb128 0x6
 954 0271 A9090000 		.4byte	.LASF51
 955 0275 0A       		.byte	0xa
 956 0276 7D       		.byte	0x7d
 957 0277 53020000 		.4byte	0x253
 958 027b 00       		.byte	0
 959 027c 00       		.byte	0
 960 027d 03       		.uleb128 0x3
 961 027e 79010000 		.4byte	.LASF52
 962 0282 09       		.byte	0x9
 963 0283 45       		.byte	0x45
 964 0284 88020000 		.4byte	0x288
 965 0288 05       		.uleb128 0x5
 966 0289 4D070000 		.4byte	.LASF53
 967 028d 08       		.byte	0x8
 968 028e 0A       		.byte	0xa
 969 028f 83       		.byte	0x83
ARM GAS  /tmp/cc9De0I0.s 			page 18


 970 0290 AD020000 		.4byte	0x2ad
 971 0294 06       		.uleb128 0x6
 972 0295 A9090000 		.4byte	.LASF51
 973 0299 0A       		.byte	0xa
 974 029a 84       		.byte	0x84
 975 029b 53020000 		.4byte	0x253
 976 029f 00       		.byte	0
 977 02a0 06       		.uleb128 0x6
 978 02a1 AE090000 		.4byte	.LASF54
 979 02a5 0A       		.byte	0xa
 980 02a6 85       		.byte	0x85
 981 02a7 53020000 		.4byte	0x253
 982 02ab 04       		.byte	0x4
 983 02ac 00       		.byte	0
 984 02ad 03       		.uleb128 0x3
 985 02ae 33040000 		.4byte	.LASF55
 986 02b2 09       		.byte	0x9
 987 02b3 4C       		.byte	0x4c
 988 02b4 B8020000 		.4byte	0x2b8
 989 02b8 0B       		.uleb128 0xb
 990 02b9 97030000 		.4byte	.LASF56
 991 02bd 1C       		.byte	0x1c
 992 02be 0A       		.byte	0xa
 993 02bf 5E01     		.2byte	0x15e
 994 02c1 14030000 		.4byte	0x314
 995 02c5 09       		.uleb128 0x9
 996 02c6 80070000 		.4byte	.LASF31
 997 02ca 0A       		.byte	0xa
 998 02cb 5F01     		.2byte	0x15f
 999 02cd 7D020000 		.4byte	0x27d
 1000 02d1 00       		.byte	0
 1001 02d2 09       		.uleb128 0x9
 1002 02d3 01010000 		.4byte	.LASF32
 1003 02d7 0A       		.byte	0xa
 1004 02d8 6001     		.2byte	0x160
 1005 02da 1B010000 		.4byte	0x11b
 1006 02de 08       		.byte	0x8
 1007 02df 08       		.uleb128 0x8
 1008 02e0 63747800 		.ascii	"ctx\000"
 1009 02e4 0A       		.byte	0xa
 1010 02e5 6201     		.2byte	0x162
 1011 02e7 02060000 		.4byte	0x602
 1012 02eb 0C       		.byte	0xc
 1013 02ec 09       		.uleb128 0x9
 1014 02ed 28090000 		.4byte	.LASF33
 1015 02f1 0A       		.byte	0xa
 1016 02f2 6501     		.2byte	0x165
 1017 02f4 53020000 		.4byte	0x253
 1018 02f8 10       		.byte	0x10
 1019 02f9 09       		.uleb128 0x9
 1020 02fa 40040000 		.4byte	.LASF34
 1021 02fe 0A       		.byte	0xa
 1022 02ff 6601     		.2byte	0x166
 1023 0301 53020000 		.4byte	0x253
 1024 0305 14       		.byte	0x14
 1025 0306 09       		.uleb128 0x9
 1026 0307 7D050000 		.4byte	.LASF57
ARM GAS  /tmp/cc9De0I0.s 			page 19


 1027 030b 0A       		.byte	0xa
 1028 030c 6901     		.2byte	0x169
 1029 030e 53020000 		.4byte	0x253
 1030 0312 18       		.byte	0x18
 1031 0313 00       		.byte	0
 1032 0314 03       		.uleb128 0x3
 1033 0315 9C000000 		.4byte	.LASF58
 1034 0319 09       		.byte	0x9
 1035 031a 51       		.byte	0x51
 1036 031b 1F030000 		.4byte	0x31f
 1037 031f 0A       		.uleb128 0xa
 1038 0320 04       		.byte	0x4
 1039 0321 25030000 		.4byte	0x325
 1040 0325 0C       		.uleb128 0xc
 1041 0326 30030000 		.4byte	0x330
 1042 032a 0D       		.uleb128 0xd
 1043 032b 30030000 		.4byte	0x330
 1044 032f 00       		.byte	0
 1045 0330 0E       		.uleb128 0xe
 1046 0331 04       		.byte	0x4
 1047 0332 03       		.uleb128 0x3
 1048 0333 23040000 		.4byte	.LASF59
 1049 0337 09       		.byte	0x9
 1050 0338 56       		.byte	0x56
 1051 0339 3D030000 		.4byte	0x33d
 1052 033d 0B       		.uleb128 0xb
 1053 033e 10060000 		.4byte	.LASF60
 1054 0342 14       		.byte	0x14
 1055 0343 0A       		.byte	0xa
 1056 0344 3901     		.2byte	0x139
 1057 0346 8C030000 		.4byte	0x38c
 1058 034a 09       		.uleb128 0x9
 1059 034b A9090000 		.4byte	.LASF51
 1060 034f 0A       		.byte	0xa
 1061 0350 3A01     		.2byte	0x13a
 1062 0352 00090000 		.4byte	0x900
 1063 0356 00       		.byte	0
 1064 0357 09       		.uleb128 0x9
 1065 0358 AE090000 		.4byte	.LASF54
 1066 035c 0A       		.byte	0xa
 1067 035d 3B01     		.2byte	0x13b
 1068 035f 00090000 		.4byte	0x900
 1069 0363 04       		.byte	0x4
 1070 0364 09       		.uleb128 0x9
 1071 0365 5E070000 		.4byte	.LASF61
 1072 0369 0A       		.byte	0xa
 1073 036a 3C01     		.2byte	0x13c
 1074 036c 70040000 		.4byte	0x470
 1075 0370 08       		.byte	0x8
 1076 0371 09       		.uleb128 0x9
 1077 0372 66080000 		.4byte	.LASF62
 1078 0376 0A       		.byte	0xa
 1079 0377 3D01     		.2byte	0x13d
 1080 0379 14030000 		.4byte	0x314
 1081 037d 0C       		.byte	0xc
 1082 037e 08       		.uleb128 0x8
 1083 037f 70617200 		.ascii	"par\000"
ARM GAS  /tmp/cc9De0I0.s 			page 20


 1084 0383 0A       		.byte	0xa
 1085 0384 3F01     		.2byte	0x13f
 1086 0386 30030000 		.4byte	0x330
 1087 038a 10       		.byte	0x10
 1088 038b 00       		.byte	0
 1089 038c 03       		.uleb128 0x3
 1090 038d 01040000 		.4byte	.LASF63
 1091 0391 09       		.byte	0x9
 1092 0392 5B       		.byte	0x5b
 1093 0393 97030000 		.4byte	0x397
 1094 0397 0B       		.uleb128 0xb
 1095 0398 B2000000 		.4byte	.LASF64
 1096 039c 10       		.byte	0x10
 1097 039d 0A       		.byte	0xa
 1098 039e 4901     		.2byte	0x149
 1099 03a0 D9030000 		.4byte	0x3d9
 1100 03a4 09       		.uleb128 0x9
 1101 03a5 A9090000 		.4byte	.LASF51
 1102 03a9 0A       		.byte	0xa
 1103 03aa 4A01     		.2byte	0x14a
 1104 03ac 00090000 		.4byte	0x900
 1105 03b0 00       		.byte	0
 1106 03b1 09       		.uleb128 0x9
 1107 03b2 AE090000 		.4byte	.LASF54
 1108 03b6 0A       		.byte	0xa
 1109 03b7 4C01     		.2byte	0x14c
 1110 03b9 00090000 		.4byte	0x900
 1111 03bd 04       		.byte	0x4
 1112 03be 09       		.uleb128 0x9
 1113 03bf 5E070000 		.4byte	.LASF61
 1114 03c3 0A       		.byte	0xa
 1115 03c4 4E01     		.2byte	0x14e
 1116 03c6 70040000 		.4byte	0x470
 1117 03ca 08       		.byte	0x8
 1118 03cb 09       		.uleb128 0x9
 1119 03cc 54020000 		.4byte	.LASF65
 1120 03d0 0A       		.byte	0xa
 1121 03d1 5601     		.2byte	0x156
 1122 03d3 65040000 		.4byte	0x465
 1123 03d7 0C       		.byte	0xc
 1124 03d8 00       		.byte	0
 1125 03d9 03       		.uleb128 0x3
 1126 03da 7D020000 		.4byte	.LASF66
 1127 03de 09       		.byte	0x9
 1128 03df 60       		.byte	0x60
 1129 03e0 E4030000 		.4byte	0x3e4
 1130 03e4 0B       		.uleb128 0xb
 1131 03e5 8F080000 		.4byte	.LASF67
 1132 03e9 04       		.byte	0x4
 1133 03ea 0A       		.byte	0xa
 1134 03eb 7001     		.2byte	0x170
 1135 03ed FF030000 		.4byte	0x3ff
 1136 03f1 09       		.uleb128 0x9
 1137 03f2 5D020000 		.4byte	.LASF68
 1138 03f6 0A       		.byte	0xa
 1139 03f7 7801     		.2byte	0x178
 1140 03f9 06090000 		.4byte	0x906
ARM GAS  /tmp/cc9De0I0.s 			page 21


 1141 03fd 00       		.byte	0
 1142 03fe 00       		.byte	0
 1143 03ff 03       		.uleb128 0x3
 1144 0400 51090000 		.4byte	.LASF69
 1145 0404 09       		.byte	0x9
 1146 0405 65       		.byte	0x65
 1147 0406 0A040000 		.4byte	0x40a
 1148 040a 0B       		.uleb128 0xb
 1149 040b 1E090000 		.4byte	.LASF70
 1150 040f D0       		.byte	0xd0
 1151 0410 0A       		.byte	0xa
 1152 0411 9001     		.2byte	0x190
 1153 0413 65040000 		.4byte	0x465
 1154 0417 09       		.uleb128 0x9
 1155 0418 FD070000 		.4byte	.LASF71
 1156 041c 0A       		.byte	0xa
 1157 041d 9401     		.2byte	0x194
 1158 041f AD020000 		.4byte	0x2ad
 1159 0423 00       		.byte	0
 1160 0424 09       		.uleb128 0x9
 1161 0425 C6080000 		.4byte	.LASF72
 1162 0429 0A       		.byte	0xa
 1163 042a 9801     		.2byte	0x198
 1164 042c 8C030000 		.4byte	0x38c
 1165 0430 1C       		.byte	0x1c
 1166 0431 08       		.uleb128 0x8
 1167 0432 64626700 		.ascii	"dbg\000"
 1168 0436 0A       		.byte	0xa
 1169 0437 9C01     		.2byte	0x19c
 1170 0439 D9030000 		.4byte	0x3d9
 1171 043d 2C       		.byte	0x2c
 1172 043e 09       		.uleb128 0x9
 1173 043f D8070000 		.4byte	.LASF73
 1174 0443 0A       		.byte	0xa
 1175 0444 A001     		.2byte	0x1a0
 1176 0446 52010000 		.4byte	0x152
 1177 044a 30       		.byte	0x30
 1178 044b 08       		.uleb128 0x8
 1179 044c 746D00   		.ascii	"tm\000"
 1180 044f 0A       		.byte	0xa
 1181 0450 A501     		.2byte	0x1a5
 1182 0452 81070000 		.4byte	0x781
 1183 0456 90       		.byte	0x90
 1184 0457 09       		.uleb128 0x9
 1185 0458 21060000 		.4byte	.LASF74
 1186 045c 0A       		.byte	0xa
 1187 045d AB01     		.2byte	0x1ab
 1188 045f 13080000 		.4byte	0x813
 1189 0463 98       		.byte	0x98
 1190 0464 00       		.byte	0
 1191 0465 03       		.uleb128 0x3
 1192 0466 47000000 		.4byte	.LASF75
 1193 046a 0B       		.byte	0xb
 1194 046b 6D       		.byte	0x6d
 1195 046c CE000000 		.4byte	0xce
 1196 0470 03       		.uleb128 0x3
 1197 0471 ED040000 		.4byte	.LASF76
ARM GAS  /tmp/cc9De0I0.s 			page 22


 1198 0475 0B       		.byte	0xb
 1199 0476 79       		.byte	0x79
 1200 0477 CE000000 		.4byte	0xce
 1201 047b 04       		.uleb128 0x4
 1202 047c 04       		.byte	0x4
 1203 047d 07       		.byte	0x7
 1204 047e 29000000 		.4byte	.LASF77
 1205 0482 0F       		.uleb128 0xf
 1206 0483 CE000000 		.4byte	0xce
 1207 0487 10       		.uleb128 0x10
 1208 0488 50       		.byte	0x50
 1209 0489 0C       		.byte	0xc
 1210 048a C3       		.byte	0xc3
 1211 048b 7E050000 		.4byte	0x57e
 1212 048f 07       		.uleb128 0x7
 1213 0490 535200   		.ascii	"SR\000"
 1214 0493 0C       		.byte	0xc
 1215 0494 C5       		.byte	0xc5
 1216 0495 82040000 		.4byte	0x482
 1217 0499 00       		.byte	0
 1218 049a 07       		.uleb128 0x7
 1219 049b 43523100 		.ascii	"CR1\000"
 1220 049f 0C       		.byte	0xc
 1221 04a0 C6       		.byte	0xc6
 1222 04a1 82040000 		.4byte	0x482
 1223 04a5 04       		.byte	0x4
 1224 04a6 07       		.uleb128 0x7
 1225 04a7 43523200 		.ascii	"CR2\000"
 1226 04ab 0C       		.byte	0xc
 1227 04ac C7       		.byte	0xc7
 1228 04ad 82040000 		.4byte	0x482
 1229 04b1 08       		.byte	0x8
 1230 04b2 06       		.uleb128 0x6
 1231 04b3 17040000 		.4byte	.LASF78
 1232 04b7 0C       		.byte	0xc
 1233 04b8 C8       		.byte	0xc8
 1234 04b9 82040000 		.4byte	0x482
 1235 04bd 0C       		.byte	0xc
 1236 04be 06       		.uleb128 0x6
 1237 04bf 1D040000 		.4byte	.LASF79
 1238 04c3 0C       		.byte	0xc
 1239 04c4 C9       		.byte	0xc9
 1240 04c5 82040000 		.4byte	0x482
 1241 04c9 10       		.byte	0x10
 1242 04ca 06       		.uleb128 0x6
 1243 04cb 74080000 		.4byte	.LASF80
 1244 04cf 0C       		.byte	0xc
 1245 04d0 CA       		.byte	0xca
 1246 04d1 82040000 		.4byte	0x482
 1247 04d5 14       		.byte	0x14
 1248 04d6 06       		.uleb128 0x6
 1249 04d7 7A080000 		.4byte	.LASF81
 1250 04db 0C       		.byte	0xc
 1251 04dc CB       		.byte	0xcb
 1252 04dd 82040000 		.4byte	0x482
 1253 04e1 18       		.byte	0x18
 1254 04e2 06       		.uleb128 0x6
ARM GAS  /tmp/cc9De0I0.s 			page 23


 1255 04e3 5E030000 		.4byte	.LASF82
 1256 04e7 0C       		.byte	0xc
 1257 04e8 CC       		.byte	0xcc
 1258 04e9 82040000 		.4byte	0x482
 1259 04ed 1C       		.byte	0x1c
 1260 04ee 06       		.uleb128 0x6
 1261 04ef 89080000 		.4byte	.LASF83
 1262 04f3 0C       		.byte	0xc
 1263 04f4 CD       		.byte	0xcd
 1264 04f5 82040000 		.4byte	0x482
 1265 04f9 20       		.byte	0x20
 1266 04fa 07       		.uleb128 0x7
 1267 04fb 48545200 		.ascii	"HTR\000"
 1268 04ff 0C       		.byte	0xc
 1269 0500 CE       		.byte	0xce
 1270 0501 82040000 		.4byte	0x482
 1271 0505 24       		.byte	0x24
 1272 0506 07       		.uleb128 0x7
 1273 0507 4C545200 		.ascii	"LTR\000"
 1274 050b 0C       		.byte	0xc
 1275 050c CF       		.byte	0xcf
 1276 050d 82040000 		.4byte	0x482
 1277 0511 28       		.byte	0x28
 1278 0512 06       		.uleb128 0x6
 1279 0513 6D000000 		.4byte	.LASF84
 1280 0517 0C       		.byte	0xc
 1281 0518 D0       		.byte	0xd0
 1282 0519 82040000 		.4byte	0x482
 1283 051d 2C       		.byte	0x2c
 1284 051e 06       		.uleb128 0x6
 1285 051f 72000000 		.4byte	.LASF85
 1286 0523 0C       		.byte	0xc
 1287 0524 D1       		.byte	0xd1
 1288 0525 82040000 		.4byte	0x482
 1289 0529 30       		.byte	0x30
 1290 052a 06       		.uleb128 0x6
 1291 052b 77000000 		.4byte	.LASF86
 1292 052f 0C       		.byte	0xc
 1293 0530 D2       		.byte	0xd2
 1294 0531 82040000 		.4byte	0x482
 1295 0535 34       		.byte	0x34
 1296 0536 06       		.uleb128 0x6
 1297 0537 C1080000 		.4byte	.LASF87
 1298 053b 0C       		.byte	0xc
 1299 053c D3       		.byte	0xd3
 1300 053d 82040000 		.4byte	0x482
 1301 0541 38       		.byte	0x38
 1302 0542 06       		.uleb128 0x6
 1303 0543 AD080000 		.4byte	.LASF88
 1304 0547 0C       		.byte	0xc
 1305 0548 D4       		.byte	0xd4
 1306 0549 82040000 		.4byte	0x482
 1307 054d 3C       		.byte	0x3c
 1308 054e 06       		.uleb128 0x6
 1309 054f B2080000 		.4byte	.LASF89
 1310 0553 0C       		.byte	0xc
 1311 0554 D5       		.byte	0xd5
ARM GAS  /tmp/cc9De0I0.s 			page 24


 1312 0555 82040000 		.4byte	0x482
 1313 0559 40       		.byte	0x40
 1314 055a 06       		.uleb128 0x6
 1315 055b B7080000 		.4byte	.LASF90
 1316 055f 0C       		.byte	0xc
 1317 0560 D6       		.byte	0xd6
 1318 0561 82040000 		.4byte	0x482
 1319 0565 44       		.byte	0x44
 1320 0566 06       		.uleb128 0x6
 1321 0567 BC080000 		.4byte	.LASF91
 1322 056b 0C       		.byte	0xc
 1323 056c D7       		.byte	0xd7
 1324 056d 82040000 		.4byte	0x482
 1325 0571 48       		.byte	0x48
 1326 0572 07       		.uleb128 0x7
 1327 0573 445200   		.ascii	"DR\000"
 1328 0576 0C       		.byte	0xc
 1329 0577 D8       		.byte	0xd8
 1330 0578 82040000 		.4byte	0x482
 1331 057c 4C       		.byte	0x4c
 1332 057d 00       		.byte	0
 1333 057e 03       		.uleb128 0x3
 1334 057f 52030000 		.4byte	.LASF92
 1335 0583 0C       		.byte	0xc
 1336 0584 D9       		.byte	0xd9
 1337 0585 87040000 		.4byte	0x487
 1338 0589 11       		.uleb128 0x11
 1339 058a 18       		.byte	0x18
 1340 058b 0C       		.byte	0xc
 1341 058c 6A01     		.2byte	0x16a
 1342 058e E0050000 		.4byte	0x5e0
 1343 0592 08       		.uleb128 0x8
 1344 0593 435200   		.ascii	"CR\000"
 1345 0596 0C       		.byte	0xc
 1346 0597 6C01     		.2byte	0x16c
 1347 0599 82040000 		.4byte	0x482
 1348 059d 00       		.byte	0
 1349 059e 09       		.uleb128 0x9
 1350 059f 9F090000 		.4byte	.LASF93
 1351 05a3 0C       		.byte	0xc
 1352 05a4 6D01     		.2byte	0x16d
 1353 05a6 82040000 		.4byte	0x482
 1354 05aa 04       		.byte	0x4
 1355 05ab 08       		.uleb128 0x8
 1356 05ac 50415200 		.ascii	"PAR\000"
 1357 05b0 0C       		.byte	0xc
 1358 05b1 6E01     		.2byte	0x16e
 1359 05b3 82040000 		.4byte	0x482
 1360 05b7 08       		.byte	0x8
 1361 05b8 09       		.uleb128 0x9
 1362 05b9 37080000 		.4byte	.LASF94
 1363 05bd 0C       		.byte	0xc
 1364 05be 6F01     		.2byte	0x16f
 1365 05c0 82040000 		.4byte	0x482
 1366 05c4 0C       		.byte	0xc
 1367 05c5 09       		.uleb128 0x9
 1368 05c6 00000000 		.4byte	.LASF95
ARM GAS  /tmp/cc9De0I0.s 			page 25


 1369 05ca 0C       		.byte	0xc
 1370 05cb 7001     		.2byte	0x170
 1371 05cd 82040000 		.4byte	0x482
 1372 05d1 10       		.byte	0x10
 1373 05d2 08       		.uleb128 0x8
 1374 05d3 46435200 		.ascii	"FCR\000"
 1375 05d7 0C       		.byte	0xc
 1376 05d8 7101     		.2byte	0x171
 1377 05da 82040000 		.4byte	0x482
 1378 05de 14       		.byte	0x14
 1379 05df 00       		.byte	0
 1380 05e0 12       		.uleb128 0x12
 1381 05e1 B3050000 		.4byte	.LASF96
 1382 05e5 0C       		.byte	0xc
 1383 05e6 7201     		.2byte	0x172
 1384 05e8 89050000 		.4byte	0x589
 1385 05ec 03       		.uleb128 0x3
 1386 05ed 8F010000 		.4byte	.LASF97
 1387 05f1 0D       		.byte	0xd
 1388 05f2 65       		.byte	0x65
 1389 05f3 30030000 		.4byte	0x330
 1390 05f7 03       		.uleb128 0x3
 1391 05f8 D8020000 		.4byte	.LASF98
 1392 05fc 0D       		.byte	0xd
 1393 05fd 6D       		.byte	0x6d
 1394 05fe D9000000 		.4byte	0xd9
 1395 0602 05       		.uleb128 0x5
 1396 0603 F7080000 		.4byte	.LASF99
 1397 0607 04       		.byte	0x4
 1398 0608 0D       		.byte	0xd
 1399 0609 89       		.byte	0x89
 1400 060a 1A060000 		.4byte	0x61a
 1401 060e 07       		.uleb128 0x7
 1402 060f 737000   		.ascii	"sp\000"
 1403 0612 0D       		.byte	0xd
 1404 0613 8A       		.byte	0x8a
 1405 0614 66070000 		.4byte	0x766
 1406 0618 00       		.byte	0
 1407 0619 00       		.byte	0
 1408 061a 0B       		.uleb128 0xb
 1409 061b EA050000 		.4byte	.LASF100
 1410 061f 64       		.byte	0x64
 1411 0620 0E       		.byte	0xe
 1412 0621 5901     		.2byte	0x159
 1413 0623 66070000 		.4byte	0x766
 1414 0627 08       		.uleb128 0x8
 1415 0628 73313600 		.ascii	"s16\000"
 1416 062c 0E       		.byte	0xe
 1417 062d 5B01     		.2byte	0x15b
 1418 062f EC050000 		.4byte	0x5ec
 1419 0633 00       		.byte	0
 1420 0634 08       		.uleb128 0x8
 1421 0635 73313700 		.ascii	"s17\000"
 1422 0639 0E       		.byte	0xe
 1423 063a 5C01     		.2byte	0x15c
 1424 063c EC050000 		.4byte	0x5ec
 1425 0640 04       		.byte	0x4
ARM GAS  /tmp/cc9De0I0.s 			page 26


 1426 0641 08       		.uleb128 0x8
 1427 0642 73313800 		.ascii	"s18\000"
 1428 0646 0E       		.byte	0xe
 1429 0647 5D01     		.2byte	0x15d
 1430 0649 EC050000 		.4byte	0x5ec
 1431 064d 08       		.byte	0x8
 1432 064e 08       		.uleb128 0x8
 1433 064f 73313900 		.ascii	"s19\000"
 1434 0653 0E       		.byte	0xe
 1435 0654 5E01     		.2byte	0x15e
 1436 0656 EC050000 		.4byte	0x5ec
 1437 065a 0C       		.byte	0xc
 1438 065b 08       		.uleb128 0x8
 1439 065c 73323000 		.ascii	"s20\000"
 1440 0660 0E       		.byte	0xe
 1441 0661 5F01     		.2byte	0x15f
 1442 0663 EC050000 		.4byte	0x5ec
 1443 0667 10       		.byte	0x10
 1444 0668 08       		.uleb128 0x8
 1445 0669 73323100 		.ascii	"s21\000"
 1446 066d 0E       		.byte	0xe
 1447 066e 6001     		.2byte	0x160
 1448 0670 EC050000 		.4byte	0x5ec
 1449 0674 14       		.byte	0x14
 1450 0675 08       		.uleb128 0x8
 1451 0676 73323200 		.ascii	"s22\000"
 1452 067a 0E       		.byte	0xe
 1453 067b 6101     		.2byte	0x161
 1454 067d EC050000 		.4byte	0x5ec
 1455 0681 18       		.byte	0x18
 1456 0682 08       		.uleb128 0x8
 1457 0683 73323300 		.ascii	"s23\000"
 1458 0687 0E       		.byte	0xe
 1459 0688 6201     		.2byte	0x162
 1460 068a EC050000 		.4byte	0x5ec
 1461 068e 1C       		.byte	0x1c
 1462 068f 08       		.uleb128 0x8
 1463 0690 73323400 		.ascii	"s24\000"
 1464 0694 0E       		.byte	0xe
 1465 0695 6301     		.2byte	0x163
 1466 0697 EC050000 		.4byte	0x5ec
 1467 069b 20       		.byte	0x20
 1468 069c 08       		.uleb128 0x8
 1469 069d 73323500 		.ascii	"s25\000"
 1470 06a1 0E       		.byte	0xe
 1471 06a2 6401     		.2byte	0x164
 1472 06a4 EC050000 		.4byte	0x5ec
 1473 06a8 24       		.byte	0x24
 1474 06a9 08       		.uleb128 0x8
 1475 06aa 73323600 		.ascii	"s26\000"
 1476 06ae 0E       		.byte	0xe
 1477 06af 6501     		.2byte	0x165
 1478 06b1 EC050000 		.4byte	0x5ec
 1479 06b5 28       		.byte	0x28
 1480 06b6 08       		.uleb128 0x8
 1481 06b7 73323700 		.ascii	"s27\000"
 1482 06bb 0E       		.byte	0xe
ARM GAS  /tmp/cc9De0I0.s 			page 27


 1483 06bc 6601     		.2byte	0x166
 1484 06be EC050000 		.4byte	0x5ec
 1485 06c2 2C       		.byte	0x2c
 1486 06c3 08       		.uleb128 0x8
 1487 06c4 73323800 		.ascii	"s28\000"
 1488 06c8 0E       		.byte	0xe
 1489 06c9 6701     		.2byte	0x167
 1490 06cb EC050000 		.4byte	0x5ec
 1491 06cf 30       		.byte	0x30
 1492 06d0 08       		.uleb128 0x8
 1493 06d1 73323900 		.ascii	"s29\000"
 1494 06d5 0E       		.byte	0xe
 1495 06d6 6801     		.2byte	0x168
 1496 06d8 EC050000 		.4byte	0x5ec
 1497 06dc 34       		.byte	0x34
 1498 06dd 08       		.uleb128 0x8
 1499 06de 73333000 		.ascii	"s30\000"
 1500 06e2 0E       		.byte	0xe
 1501 06e3 6901     		.2byte	0x169
 1502 06e5 EC050000 		.4byte	0x5ec
 1503 06e9 38       		.byte	0x38
 1504 06ea 08       		.uleb128 0x8
 1505 06eb 73333100 		.ascii	"s31\000"
 1506 06ef 0E       		.byte	0xe
 1507 06f0 6A01     		.2byte	0x16a
 1508 06f2 EC050000 		.4byte	0x5ec
 1509 06f6 3C       		.byte	0x3c
 1510 06f7 08       		.uleb128 0x8
 1511 06f8 723400   		.ascii	"r4\000"
 1512 06fb 0E       		.byte	0xe
 1513 06fc 6C01     		.2byte	0x16c
 1514 06fe EC050000 		.4byte	0x5ec
 1515 0702 40       		.byte	0x40
 1516 0703 08       		.uleb128 0x8
 1517 0704 723500   		.ascii	"r5\000"
 1518 0707 0E       		.byte	0xe
 1519 0708 6D01     		.2byte	0x16d
 1520 070a EC050000 		.4byte	0x5ec
 1521 070e 44       		.byte	0x44
 1522 070f 08       		.uleb128 0x8
 1523 0710 723600   		.ascii	"r6\000"
 1524 0713 0E       		.byte	0xe
 1525 0714 6E01     		.2byte	0x16e
 1526 0716 EC050000 		.4byte	0x5ec
 1527 071a 48       		.byte	0x48
 1528 071b 08       		.uleb128 0x8
 1529 071c 723700   		.ascii	"r7\000"
 1530 071f 0E       		.byte	0xe
 1531 0720 6F01     		.2byte	0x16f
 1532 0722 EC050000 		.4byte	0x5ec
 1533 0726 4C       		.byte	0x4c
 1534 0727 08       		.uleb128 0x8
 1535 0728 723800   		.ascii	"r8\000"
 1536 072b 0E       		.byte	0xe
 1537 072c 7001     		.2byte	0x170
 1538 072e EC050000 		.4byte	0x5ec
 1539 0732 50       		.byte	0x50
ARM GAS  /tmp/cc9De0I0.s 			page 28


 1540 0733 08       		.uleb128 0x8
 1541 0734 723900   		.ascii	"r9\000"
 1542 0737 0E       		.byte	0xe
 1543 0738 7101     		.2byte	0x171
 1544 073a EC050000 		.4byte	0x5ec
 1545 073e 54       		.byte	0x54
 1546 073f 08       		.uleb128 0x8
 1547 0740 72313000 		.ascii	"r10\000"
 1548 0744 0E       		.byte	0xe
 1549 0745 7201     		.2byte	0x172
 1550 0747 EC050000 		.4byte	0x5ec
 1551 074b 58       		.byte	0x58
 1552 074c 08       		.uleb128 0x8
 1553 074d 72313100 		.ascii	"r11\000"
 1554 0751 0E       		.byte	0xe
 1555 0752 7301     		.2byte	0x173
 1556 0754 EC050000 		.4byte	0x5ec
 1557 0758 5C       		.byte	0x5c
 1558 0759 08       		.uleb128 0x8
 1559 075a 6C7200   		.ascii	"lr\000"
 1560 075d 0E       		.byte	0xe
 1561 075e 7401     		.2byte	0x174
 1562 0760 EC050000 		.4byte	0x5ec
 1563 0764 60       		.byte	0x60
 1564 0765 00       		.byte	0
 1565 0766 0A       		.uleb128 0xa
 1566 0767 04       		.byte	0x4
 1567 0768 1A060000 		.4byte	0x61a
 1568 076c 10       		.uleb128 0x10
 1569 076d 04       		.byte	0x4
 1570 076e 0F       		.byte	0xf
 1571 076f 38       		.byte	0x38
 1572 0770 81070000 		.4byte	0x781
 1573 0774 06       		.uleb128 0x6
 1574 0775 85050000 		.4byte	.LASF101
 1575 0779 0F       		.byte	0xf
 1576 077a 3C       		.byte	0x3c
 1577 077b E4000000 		.4byte	0xe4
 1578 077f 00       		.byte	0
 1579 0780 00       		.byte	0
 1580 0781 03       		.uleb128 0x3
 1581 0782 1F080000 		.4byte	.LASF102
 1582 0786 0F       		.byte	0xf
 1583 0787 3D       		.byte	0x3d
 1584 0788 6C070000 		.4byte	0x76c
 1585 078c 10       		.uleb128 0x10
 1586 078d 18       		.byte	0x18
 1587 078e 0F       		.byte	0xf
 1588 078f 48       		.byte	0x48
 1589 0790 CF070000 		.4byte	0x7cf
 1590 0794 06       		.uleb128 0x6
 1591 0795 F1070000 		.4byte	.LASF103
 1592 0799 0F       		.byte	0xf
 1593 079a 49       		.byte	0x49
 1594 079b E4000000 		.4byte	0xe4
 1595 079f 00       		.byte	0
 1596 07a0 06       		.uleb128 0x6
ARM GAS  /tmp/cc9De0I0.s 			page 29


 1597 07a1 25030000 		.4byte	.LASF104
 1598 07a5 0F       		.byte	0xf
 1599 07a6 4A       		.byte	0x4a
 1600 07a7 E4000000 		.4byte	0xe4
 1601 07ab 04       		.byte	0x4
 1602 07ac 06       		.uleb128 0x6
 1603 07ad B3090000 		.4byte	.LASF105
 1604 07b1 0F       		.byte	0xf
 1605 07b2 4B       		.byte	0x4b
 1606 07b3 E4000000 		.4byte	0xe4
 1607 07b7 08       		.byte	0x8
 1608 07b8 07       		.uleb128 0x7
 1609 07b9 6E00     		.ascii	"n\000"
 1610 07bb 0F       		.byte	0xf
 1611 07bc 4C       		.byte	0x4c
 1612 07bd 47010000 		.4byte	0x147
 1613 07c1 0C       		.byte	0xc
 1614 07c2 06       		.uleb128 0x6
 1615 07c3 E3010000 		.4byte	.LASF106
 1616 07c7 0F       		.byte	0xf
 1617 07c8 4D       		.byte	0x4d
 1618 07c9 EF000000 		.4byte	0xef
 1619 07cd 10       		.byte	0x10
 1620 07ce 00       		.byte	0
 1621 07cf 03       		.uleb128 0x3
 1622 07d0 2E050000 		.4byte	.LASF107
 1623 07d4 0F       		.byte	0xf
 1624 07d5 4E       		.byte	0x4e
 1625 07d6 8C070000 		.4byte	0x78c
 1626 07da 10       		.uleb128 0x10
 1627 07db 38       		.byte	0x38
 1628 07dc 10       		.byte	0x10
 1629 07dd 38       		.byte	0x38
 1630 07de 13080000 		.4byte	0x813
 1631 07e2 06       		.uleb128 0x6
 1632 07e3 9A040000 		.4byte	.LASF108
 1633 07e7 10       		.byte	0x10
 1634 07e8 39       		.byte	0x39
 1635 07e9 47010000 		.4byte	0x147
 1636 07ed 00       		.byte	0
 1637 07ee 06       		.uleb128 0x6
 1638 07ef BF020000 		.4byte	.LASF109
 1639 07f3 10       		.byte	0x10
 1640 07f4 3A       		.byte	0x3a
 1641 07f5 47010000 		.4byte	0x147
 1642 07f9 04       		.byte	0x4
 1643 07fa 06       		.uleb128 0x6
 1644 07fb A5030000 		.4byte	.LASF110
 1645 07ff 10       		.byte	0x10
 1646 0800 3B       		.byte	0x3b
 1647 0801 CF070000 		.4byte	0x7cf
 1648 0805 08       		.byte	0x8
 1649 0806 06       		.uleb128 0x6
 1650 0807 41050000 		.4byte	.LASF111
 1651 080b 10       		.byte	0x10
 1652 080c 3D       		.byte	0x3d
 1653 080d CF070000 		.4byte	0x7cf
ARM GAS  /tmp/cc9De0I0.s 			page 30


 1654 0811 20       		.byte	0x20
 1655 0812 00       		.byte	0
 1656 0813 03       		.uleb128 0x3
 1657 0814 6E050000 		.4byte	.LASF112
 1658 0818 10       		.byte	0x10
 1659 0819 3F       		.byte	0x3f
 1660 081a DA070000 		.4byte	0x7da
 1661 081e 13       		.uleb128 0x13
 1662 081f 04       		.byte	0x4
 1663 0820 0A       		.byte	0xa
 1664 0821 C6       		.byte	0xc6
 1665 0822 80080000 		.4byte	0x880
 1666 0826 14       		.uleb128 0x14
 1667 0827 37090000 		.4byte	.LASF113
 1668 082b 0A       		.byte	0xa
 1669 082c CD       		.byte	0xcd
 1670 082d 26010000 		.4byte	0x126
 1671 0831 14       		.uleb128 0x14
 1672 0832 2D010000 		.4byte	.LASF114
 1673 0836 0A       		.byte	0xa
 1674 0837 D4       		.byte	0xd4
 1675 0838 26010000 		.4byte	0x126
 1676 083c 14       		.uleb128 0x14
 1677 083d B8020000 		.4byte	.LASF115
 1678 0841 0A       		.byte	0xa
 1679 0842 DB       		.byte	0xdb
 1680 0843 30030000 		.4byte	0x330
 1681 0847 14       		.uleb128 0x14
 1682 0848 40020000 		.4byte	.LASF116
 1683 084c 0A       		.byte	0xa
 1684 084d E2       		.byte	0xe2
 1685 084e 80080000 		.4byte	0x880
 1686 0852 14       		.uleb128 0x14
 1687 0853 E2050000 		.4byte	.LASF117
 1688 0857 0A       		.byte	0xa
 1689 0858 E7       		.byte	0xe7
 1690 0859 26010000 		.4byte	0x126
 1691 085d 14       		.uleb128 0x14
 1692 085e 40000000 		.4byte	.LASF118
 1693 0862 0A       		.byte	0xa
 1694 0863 F0       		.byte	0xf0
 1695 0864 AB080000 		.4byte	0x8ab
 1696 0868 14       		.uleb128 0x14
 1697 0869 64030000 		.4byte	.LASF119
 1698 086d 0A       		.byte	0xa
 1699 086e F9       		.byte	0xf9
 1700 086f E2080000 		.4byte	0x8e2
 1701 0873 15       		.uleb128 0x15
 1702 0874 FA010000 		.4byte	.LASF120
 1703 0878 0A       		.byte	0xa
 1704 0879 0101     		.2byte	0x101
 1705 087b 31010000 		.4byte	0x131
 1706 087f 00       		.byte	0
 1707 0880 0A       		.uleb128 0xa
 1708 0881 04       		.byte	0x4
 1709 0882 48020000 		.4byte	0x248
 1710 0886 05       		.uleb128 0x5
ARM GAS  /tmp/cc9De0I0.s 			page 31


 1711 0887 EA030000 		.4byte	.LASF121
 1712 088b 0C       		.byte	0xc
 1713 088c 11       		.byte	0x11
 1714 088d 34       		.byte	0x34
 1715 088e AB080000 		.4byte	0x8ab
 1716 0892 06       		.uleb128 0x6
 1717 0893 80070000 		.4byte	.LASF31
 1718 0897 11       		.byte	0x11
 1719 0898 35       		.byte	0x35
 1720 0899 7D020000 		.4byte	0x27d
 1721 089d 00       		.byte	0
 1722 089e 07       		.uleb128 0x7
 1723 089f 636E7400 		.ascii	"cnt\000"
 1724 08a3 11       		.byte	0x11
 1725 08a4 37       		.byte	0x37
 1726 08a5 3C010000 		.4byte	0x13c
 1727 08a9 08       		.byte	0x8
 1728 08aa 00       		.byte	0
 1729 08ab 0A       		.uleb128 0xa
 1730 08ac 04       		.byte	0x4
 1731 08ad 86080000 		.4byte	0x886
 1732 08b1 05       		.uleb128 0x5
 1733 08b2 6B080000 		.4byte	.LASF122
 1734 08b6 10       		.byte	0x10
 1735 08b7 12       		.byte	0x12
 1736 08b8 39       		.byte	0x39
 1737 08b9 E2080000 		.4byte	0x8e2
 1738 08bd 06       		.uleb128 0x6
 1739 08be 80070000 		.4byte	.LASF31
 1740 08c2 12       		.byte	0x12
 1741 08c3 3A       		.byte	0x3a
 1742 08c4 7D020000 		.4byte	0x27d
 1743 08c8 00       		.byte	0
 1744 08c9 06       		.uleb128 0x6
 1745 08ca 51000000 		.4byte	.LASF123
 1746 08ce 12       		.byte	0x12
 1747 08cf 3C       		.byte	0x3c
 1748 08d0 53020000 		.4byte	0x253
 1749 08d4 08       		.byte	0x8
 1750 08d5 06       		.uleb128 0x6
 1751 08d6 A9090000 		.4byte	.LASF51
 1752 08da 12       		.byte	0x12
 1753 08db 3E       		.byte	0x3e
 1754 08dc 16090000 		.4byte	0x916
 1755 08e0 0C       		.byte	0xc
 1756 08e1 00       		.byte	0
 1757 08e2 0A       		.uleb128 0xa
 1758 08e3 04       		.byte	0x4
 1759 08e4 B1080000 		.4byte	0x8b1
 1760 08e8 0A       		.uleb128 0xa
 1761 08e9 04       		.byte	0x4
 1762 08ea EE080000 		.4byte	0x8ee
 1763 08ee 16       		.uleb128 0x16
 1764 08ef F3080000 		.4byte	0x8f3
 1765 08f3 04       		.uleb128 0x4
 1766 08f4 01       		.byte	0x1
 1767 08f5 08       		.byte	0x8
ARM GAS  /tmp/cc9De0I0.s 			page 32


 1768 08f6 A8020000 		.4byte	.LASF124
 1769 08fa 0A       		.uleb128 0xa
 1770 08fb 04       		.byte	0x4
 1771 08fc F7050000 		.4byte	0x5f7
 1772 0900 0A       		.uleb128 0xa
 1773 0901 04       		.byte	0x4
 1774 0902 32030000 		.4byte	0x332
 1775 0906 0F       		.uleb128 0xf
 1776 0907 E8080000 		.4byte	0x8e8
 1777 090b 03       		.uleb128 0x3
 1778 090c E7080000 		.4byte	.LASF125
 1779 0910 12       		.byte	0x12
 1780 0911 34       		.byte	0x34
 1781 0912 B1080000 		.4byte	0x8b1
 1782 0916 0A       		.uleb128 0xa
 1783 0917 04       		.byte	0x4
 1784 0918 0B090000 		.4byte	0x90b
 1785 091c 04       		.uleb128 0x4
 1786 091d 01       		.byte	0x1
 1787 091e 02       		.byte	0x2
 1788 091f 96020000 		.4byte	.LASF126
 1789 0923 17       		.uleb128 0x17
 1790 0924 F3080000 		.4byte	0x8f3
 1791 0928 33090000 		.4byte	0x933
 1792 092c 18       		.uleb128 0x18
 1793 092d 7B040000 		.4byte	0x47b
 1794 0931 07       		.byte	0x7
 1795 0932 00       		.byte	0
 1796 0933 11       		.uleb128 0x11
 1797 0934 0C       		.byte	0xc
 1798 0935 13       		.byte	0x13
 1799 0936 A201     		.2byte	0x1a2
 1800 0938 8B090000 		.4byte	0x98b
 1801 093c 09       		.uleb128 0x9
 1802 093d 1E030000 		.4byte	.LASF127
 1803 0941 13       		.byte	0x13
 1804 0942 A301     		.2byte	0x1a3
 1805 0944 8B090000 		.4byte	0x98b
 1806 0948 00       		.byte	0
 1807 0949 09       		.uleb128 0x9
 1808 094a A4090000 		.4byte	.LASF128
 1809 094e 13       		.byte	0x13
 1810 094f A401     		.2byte	0x1a4
 1811 0951 91090000 		.4byte	0x991
 1812 0955 04       		.byte	0x4
 1813 0956 09       		.uleb128 0x9
 1814 0957 0B080000 		.4byte	.LASF129
 1815 095b 13       		.byte	0x13
 1816 095c A801     		.2byte	0x1a8
 1817 095e AD000000 		.4byte	0xad
 1818 0962 08       		.byte	0x8
 1819 0963 09       		.uleb128 0x9
 1820 0964 89010000 		.4byte	.LASF130
 1821 0968 13       		.byte	0x13
 1822 0969 AA01     		.2byte	0x1aa
 1823 096b AD000000 		.4byte	0xad
 1824 096f 09       		.byte	0x9
ARM GAS  /tmp/cc9De0I0.s 			page 33


 1825 0970 09       		.uleb128 0x9
 1826 0971 2E060000 		.4byte	.LASF131
 1827 0975 13       		.byte	0x13
 1828 0976 AC01     		.2byte	0x1ac
 1829 0978 AD000000 		.4byte	0xad
 1830 097c 0A       		.byte	0xa
 1831 097d 09       		.uleb128 0x9
 1832 097e AD070000 		.4byte	.LASF132
 1833 0982 13       		.byte	0x13
 1834 0983 AD01     		.2byte	0x1ad
 1835 0985 AD000000 		.4byte	0xad
 1836 0989 0B       		.byte	0xb
 1837 098a 00       		.byte	0
 1838 098b 0A       		.uleb128 0xa
 1839 098c 04       		.byte	0x4
 1840 098d E0050000 		.4byte	0x5e0
 1841 0991 0A       		.uleb128 0xa
 1842 0992 04       		.byte	0x4
 1843 0993 82040000 		.4byte	0x482
 1844 0997 12       		.uleb128 0x12
 1845 0998 05000000 		.4byte	.LASF133
 1846 099c 13       		.byte	0x13
 1847 099d AE01     		.2byte	0x1ae
 1848 099f 33090000 		.4byte	0x933
 1849 09a3 19       		.uleb128 0x19
 1850 09a4 01       		.byte	0x1
 1851 09a5 14       		.byte	0x14
 1852 09a6 46       		.byte	0x46
 1853 09a7 D0090000 		.4byte	0x9d0
 1854 09ab 1A       		.uleb128 0x1a
 1855 09ac 72020000 		.4byte	.LASF134
 1856 09b0 00       		.sleb128 0
 1857 09b1 1A       		.uleb128 0x1a
 1858 09b2 11080000 		.4byte	.LASF135
 1859 09b6 01       		.sleb128 1
 1860 09b7 1A       		.uleb128 0x1a
 1861 09b8 8C020000 		.4byte	.LASF136
 1862 09bc 02       		.sleb128 2
 1863 09bd 1A       		.uleb128 0x1a
 1864 09be 05060000 		.4byte	.LASF137
 1865 09c2 03       		.sleb128 3
 1866 09c3 1A       		.uleb128 0x1a
 1867 09c4 71040000 		.4byte	.LASF138
 1868 09c8 04       		.sleb128 4
 1869 09c9 1A       		.uleb128 0x1a
 1870 09ca C8020000 		.4byte	.LASF139
 1871 09ce 05       		.sleb128 5
 1872 09cf 00       		.byte	0
 1873 09d0 03       		.uleb128 0x3
 1874 09d1 84000000 		.4byte	.LASF140
 1875 09d5 14       		.byte	0x14
 1876 09d6 4D       		.byte	0x4d
 1877 09d7 A3090000 		.4byte	0x9a3
 1878 09db 03       		.uleb128 0x3
 1879 09dc 64070000 		.4byte	.LASF141
 1880 09e0 14       		.byte	0x14
 1881 09e1 52       		.byte	0x52
ARM GAS  /tmp/cc9De0I0.s 			page 34


 1882 09e2 E6090000 		.4byte	0x9e6
 1883 09e6 05       		.uleb128 0x5
 1884 09e7 F6050000 		.4byte	.LASF142
 1885 09eb 24       		.byte	0x24
 1886 09ec 14       		.byte	0x14
 1887 09ed 9F       		.byte	0x9f
 1888 09ee 5F0A0000 		.4byte	0xa5f
 1889 09f2 06       		.uleb128 0x6
 1890 09f3 EC000000 		.4byte	.LASF37
 1891 09f7 14       		.byte	0x14
 1892 09f8 A3       		.byte	0xa3
 1893 09f9 D0090000 		.4byte	0x9d0
 1894 09fd 00       		.byte	0
 1895 09fe 06       		.uleb128 0x6
 1896 09ff E5000000 		.4byte	.LASF143
 1897 0a03 14       		.byte	0x14
 1898 0a04 A7       		.byte	0xa7
 1899 0a05 BA0B0000 		.4byte	0xbba
 1900 0a09 04       		.byte	0x4
 1901 0a0a 06       		.uleb128 0x6
 1902 0a0b 2B030000 		.4byte	.LASF144
 1903 0a0f 14       		.byte	0x14
 1904 0a10 AB       		.byte	0xab
 1905 0a11 C50B0000 		.4byte	0xbc5
 1906 0a15 08       		.byte	0x8
 1907 0a16 06       		.uleb128 0x6
 1908 0a17 13050000 		.4byte	.LASF145
 1909 0a1b 14       		.byte	0x14
 1910 0a1c AF       		.byte	0xaf
 1911 0a1d 2C000000 		.4byte	0x2c
 1912 0a21 0C       		.byte	0xc
 1913 0a22 06       		.uleb128 0x6
 1914 0a23 1A080000 		.4byte	.LASF146
 1915 0a27 14       		.byte	0x14
 1916 0a28 B3       		.byte	0xb3
 1917 0a29 CB0B0000 		.4byte	0xbcb
 1918 0a2d 10       		.byte	0x10
 1919 0a2e 06       		.uleb128 0x6
 1920 0a2f 30080000 		.4byte	.LASF147
 1921 0a33 14       		.byte	0x14
 1922 0a34 B8       		.byte	0xb8
 1923 0a35 48020000 		.4byte	0x248
 1924 0a39 14       		.byte	0x14
 1925 0a3a 07       		.uleb128 0x7
 1926 0a3b 61646300 		.ascii	"adc\000"
 1927 0a3f 14       		.byte	0x14
 1928 0a40 C4       		.byte	0xc4
 1929 0a41 D60B0000 		.4byte	0xbd6
 1930 0a45 18       		.byte	0x18
 1931 0a46 06       		.uleb128 0x6
 1932 0a47 E3030000 		.4byte	.LASF148
 1933 0a4b 14       		.byte	0x14
 1934 0a4c C4       		.byte	0xc4
 1935 0a4d DC0B0000 		.4byte	0xbdc
 1936 0a51 1C       		.byte	0x1c
 1937 0a52 06       		.uleb128 0x6
 1938 0a53 26050000 		.4byte	.LASF149
ARM GAS  /tmp/cc9De0I0.s 			page 35


 1939 0a57 14       		.byte	0x14
 1940 0a58 C4       		.byte	0xc4
 1941 0a59 CE000000 		.4byte	0xce
 1942 0a5d 20       		.byte	0x20
 1943 0a5e 00       		.byte	0
 1944 0a5f 03       		.uleb128 0x3
 1945 0a60 B8090000 		.4byte	.LASF150
 1946 0a64 14       		.byte	0x14
 1947 0a65 57       		.byte	0x57
 1948 0a66 6A0A0000 		.4byte	0xa6a
 1949 0a6a 05       		.uleb128 0x5
 1950 0a6b 8C050000 		.4byte	.LASF151
 1951 0a6f 04       		.byte	0x4
 1952 0a70 14       		.byte	0x14
 1953 0a71 97       		.byte	0x97
 1954 0a72 830A0000 		.4byte	0xa83
 1955 0a76 06       		.uleb128 0x6
 1956 0a77 0B080000 		.4byte	.LASF129
 1957 0a7b 14       		.byte	0x14
 1958 0a7c 99       		.byte	0x99
 1959 0a7d CE000000 		.4byte	0xce
 1960 0a81 00       		.byte	0
 1961 0a82 00       		.byte	0
 1962 0a83 03       		.uleb128 0x3
 1963 0a84 5E040000 		.4byte	.LASF152
 1964 0a88 14       		.byte	0x14
 1965 0a89 61       		.byte	0x61
 1966 0a8a 8E0A0000 		.4byte	0xa8e
 1967 0a8e 05       		.uleb128 0x5
 1968 0a8f 79090000 		.4byte	.LASF153
 1969 0a93 2C       		.byte	0x2c
 1970 0a94 14       		.byte	0x14
 1971 0a95 7F       		.byte	0x7f
 1972 0a96 370B0000 		.4byte	0xb37
 1973 0a9a 06       		.uleb128 0x6
 1974 0a9b E8020000 		.4byte	.LASF154
 1975 0a9f 14       		.byte	0x14
 1976 0aa0 83       		.byte	0x83
 1977 0aa1 1C090000 		.4byte	0x91c
 1978 0aa5 00       		.byte	0
 1979 0aa6 06       		.uleb128 0x6
 1980 0aa7 61050000 		.4byte	.LASF155
 1981 0aab 14       		.byte	0x14
 1982 0aac 87       		.byte	0x87
 1983 0aad 430B0000 		.4byte	0xb43
 1984 0ab1 02       		.byte	0x2
 1985 0ab2 06       		.uleb128 0x6
 1986 0ab3 26010000 		.4byte	.LASF156
 1987 0ab7 14       		.byte	0x14
 1988 0ab8 8B       		.byte	0x8b
 1989 0ab9 770B0000 		.4byte	0xb77
 1990 0abd 04       		.byte	0x4
 1991 0abe 06       		.uleb128 0x6
 1992 0abf F8000000 		.4byte	.LASF157
 1993 0ac3 14       		.byte	0x14
 1994 0ac4 8F       		.byte	0x8f
 1995 0ac5 990B0000 		.4byte	0xb99
ARM GAS  /tmp/cc9De0I0.s 			page 36


 1996 0ac9 08       		.byte	0x8
 1997 0aca 07       		.uleb128 0x7
 1998 0acb 63723100 		.ascii	"cr1\000"
 1999 0acf 14       		.byte	0x14
 2000 0ad0 91       		.byte	0x91
 2001 0ad1 CE000000 		.4byte	0xce
 2002 0ad5 0C       		.byte	0xc
 2003 0ad6 07       		.uleb128 0x7
 2004 0ad7 63723200 		.ascii	"cr2\000"
 2005 0adb 14       		.byte	0x14
 2006 0adc 91       		.byte	0x91
 2007 0add CE000000 		.4byte	0xce
 2008 0ae1 10       		.byte	0x10
 2009 0ae2 06       		.uleb128 0x6
 2010 0ae3 8E040000 		.4byte	.LASF158
 2011 0ae7 14       		.byte	0x14
 2012 0ae8 91       		.byte	0x91
 2013 0ae9 CE000000 		.4byte	0xce
 2014 0aed 14       		.byte	0x14
 2015 0aee 06       		.uleb128 0x6
 2016 0aef 94040000 		.4byte	.LASF159
 2017 0af3 14       		.byte	0x14
 2018 0af4 91       		.byte	0x91
 2019 0af5 CE000000 		.4byte	0xce
 2020 0af9 18       		.byte	0x18
 2021 0afa 07       		.uleb128 0x7
 2022 0afb 68747200 		.ascii	"htr\000"
 2023 0aff 14       		.byte	0x14
 2024 0b00 91       		.byte	0x91
 2025 0b01 B8000000 		.4byte	0xb8
 2026 0b05 1C       		.byte	0x1c
 2027 0b06 07       		.uleb128 0x7
 2028 0b07 6C747200 		.ascii	"ltr\000"
 2029 0b0b 14       		.byte	0x14
 2030 0b0c 91       		.byte	0x91
 2031 0b0d B8000000 		.4byte	0xb8
 2032 0b11 1E       		.byte	0x1e
 2033 0b12 06       		.uleb128 0x6
 2034 0b13 1F000000 		.4byte	.LASF160
 2035 0b17 14       		.byte	0x14
 2036 0b18 91       		.byte	0x91
 2037 0b19 CE000000 		.4byte	0xce
 2038 0b1d 20       		.byte	0x20
 2039 0b1e 06       		.uleb128 0x6
 2040 0b1f 24000000 		.4byte	.LASF161
 2041 0b23 14       		.byte	0x14
 2042 0b24 91       		.byte	0x91
 2043 0b25 CE000000 		.4byte	0xce
 2044 0b29 24       		.byte	0x24
 2045 0b2a 06       		.uleb128 0x6
 2046 0b2b E3020000 		.4byte	.LASF162
 2047 0b2f 14       		.byte	0x14
 2048 0b30 91       		.byte	0x91
 2049 0b31 CE000000 		.4byte	0xce
 2050 0b35 28       		.byte	0x28
 2051 0b36 00       		.byte	0
 2052 0b37 12       		.uleb128 0x12
ARM GAS  /tmp/cc9De0I0.s 			page 37


 2053 0b38 9C020000 		.4byte	.LASF163
 2054 0b3c 15       		.byte	0x15
 2055 0b3d 3201     		.2byte	0x132
 2056 0b3f B8000000 		.4byte	0xb8
 2057 0b43 12       		.uleb128 0x12
 2058 0b44 B9040000 		.4byte	.LASF164
 2059 0b48 15       		.byte	0x15
 2060 0b49 3701     		.2byte	0x137
 2061 0b4b B8000000 		.4byte	0xb8
 2062 0b4f 1B       		.uleb128 0x1b
 2063 0b50 01       		.byte	0x1
 2064 0b51 15       		.byte	0x15
 2065 0b52 3E01     		.2byte	0x13e
 2066 0b54 6B0B0000 		.4byte	0xb6b
 2067 0b58 1A       		.uleb128 0x1a
 2068 0b59 0B030000 		.4byte	.LASF165
 2069 0b5d 00       		.sleb128 0
 2070 0b5e 1A       		.uleb128 0x1a
 2071 0b5f C7070000 		.4byte	.LASF166
 2072 0b63 01       		.sleb128 1
 2073 0b64 1A       		.uleb128 0x1a
 2074 0b65 33030000 		.4byte	.LASF167
 2075 0b69 02       		.sleb128 2
 2076 0b6a 00       		.byte	0
 2077 0b6b 12       		.uleb128 0x12
 2078 0b6c 67020000 		.4byte	.LASF168
 2079 0b70 15       		.byte	0x15
 2080 0b71 4201     		.2byte	0x142
 2081 0b73 4F0B0000 		.4byte	0xb4f
 2082 0b77 03       		.uleb128 0x3
 2083 0b78 5F000000 		.4byte	.LASF169
 2084 0b7c 14       		.byte	0x14
 2085 0b7d 6C       		.byte	0x6c
 2086 0b7e 820B0000 		.4byte	0xb82
 2087 0b82 0A       		.uleb128 0xa
 2088 0b83 04       		.byte	0x4
 2089 0b84 880B0000 		.4byte	0xb88
 2090 0b88 0C       		.uleb128 0xc
 2091 0b89 930B0000 		.4byte	0xb93
 2092 0b8d 0D       		.uleb128 0xd
 2093 0b8e 930B0000 		.4byte	0xb93
 2094 0b92 00       		.byte	0
 2095 0b93 0A       		.uleb128 0xa
 2096 0b94 04       		.byte	0x4
 2097 0b95 DB090000 		.4byte	0x9db
 2098 0b99 03       		.uleb128 0x3
 2099 0b9a 00050000 		.4byte	.LASF170
 2100 0b9e 14       		.byte	0x14
 2101 0b9f 75       		.byte	0x75
 2102 0ba0 A40B0000 		.4byte	0xba4
 2103 0ba4 0A       		.uleb128 0xa
 2104 0ba5 04       		.byte	0x4
 2105 0ba6 AA0B0000 		.4byte	0xbaa
 2106 0baa 0C       		.uleb128 0xc
 2107 0bab BA0B0000 		.4byte	0xbba
 2108 0baf 0D       		.uleb128 0xd
 2109 0bb0 930B0000 		.4byte	0xb93
ARM GAS  /tmp/cc9De0I0.s 			page 38


 2110 0bb4 0D       		.uleb128 0xd
 2111 0bb5 6B0B0000 		.4byte	0xb6b
 2112 0bb9 00       		.byte	0
 2113 0bba 0A       		.uleb128 0xa
 2114 0bbb 04       		.byte	0x4
 2115 0bbc C00B0000 		.4byte	0xbc0
 2116 0bc0 16       		.uleb128 0x16
 2117 0bc1 5F0A0000 		.4byte	0xa5f
 2118 0bc5 0A       		.uleb128 0xa
 2119 0bc6 04       		.byte	0x4
 2120 0bc7 370B0000 		.4byte	0xb37
 2121 0bcb 0A       		.uleb128 0xa
 2122 0bcc 04       		.byte	0x4
 2123 0bcd D10B0000 		.4byte	0xbd1
 2124 0bd1 16       		.uleb128 0x16
 2125 0bd2 830A0000 		.4byte	0xa83
 2126 0bd6 0A       		.uleb128 0xa
 2127 0bd7 04       		.byte	0x4
 2128 0bd8 7E050000 		.4byte	0x57e
 2129 0bdc 0A       		.uleb128 0xa
 2130 0bdd 04       		.byte	0x4
 2131 0bde E20B0000 		.4byte	0xbe2
 2132 0be2 16       		.uleb128 0x16
 2133 0be3 97090000 		.4byte	0x997
 2134 0be7 1C       		.uleb128 0x1c
 2135 0be8 E3070000 		.4byte	.LASF177
 2136 0bec 02       		.byte	0x2
 2137 0bed EB01     		.2byte	0x1eb
 2138 0bef 03       		.byte	0x3
 2139 0bf0 010C0000 		.4byte	0xc01
 2140 0bf4 1D       		.uleb128 0x1d
 2141 0bf5 56040000 		.4byte	.LASF175
 2142 0bf9 02       		.byte	0x2
 2143 0bfa EB01     		.2byte	0x1eb
 2144 0bfc CE000000 		.4byte	0xce
 2145 0c00 00       		.byte	0
 2146 0c01 1E       		.uleb128 0x1e
 2147 0c02 41080000 		.4byte	.LASF171
 2148 0c06 0E       		.byte	0xe
 2149 0c07 5A02     		.2byte	0x25a
 2150 0c09 03       		.byte	0x3
 2151 0c0a 1E       		.uleb128 0x1e
 2152 0c0b 5B010000 		.4byte	.LASF172
 2153 0c0f 0E       		.byte	0xe
 2154 0c10 7202     		.2byte	0x272
 2155 0c12 03       		.byte	0x3
 2156 0c13 1E       		.uleb128 0x1e
 2157 0c14 D7010000 		.4byte	.LASF173
 2158 0c18 04       		.byte	0x4
 2159 0c19 FD01     		.2byte	0x1fd
 2160 0c1b 03       		.byte	0x3
 2161 0c1c 1E       		.uleb128 0x1e
 2162 0c1d 06010000 		.4byte	.LASF174
 2163 0c21 04       		.byte	0x4
 2164 0c22 0802     		.2byte	0x208
 2165 0c24 03       		.byte	0x3
 2166 0c25 1F       		.uleb128 0x1f
ARM GAS  /tmp/cc9De0I0.s 			page 39


 2167 0c26 F1020000 		.4byte	.LASF185
 2168 0c2a 01       		.byte	0x1
 2169 0c2b AF       		.byte	0xaf
 2170 0c2c 01       		.byte	0x1
 2171 0c2d 6B0C0000 		.4byte	0xc6b
 2172 0c31 20       		.uleb128 0x20
 2173 0c32 FB040000 		.4byte	.LASF176
 2174 0c36 01       		.byte	0x1
 2175 0c37 AF       		.byte	0xaf
 2176 0c38 930B0000 		.4byte	0xb93
 2177 0c3c 20       		.uleb128 0x20
 2178 0c3d 1A080000 		.4byte	.LASF146
 2179 0c41 01       		.byte	0x1
 2180 0c42 B0       		.byte	0xb0
 2181 0c43 CB0B0000 		.4byte	0xbcb
 2182 0c47 20       		.uleb128 0x20
 2183 0c48 2B030000 		.4byte	.LASF144
 2184 0c4c 01       		.byte	0x1
 2185 0c4d B1       		.byte	0xb1
 2186 0c4e C50B0000 		.4byte	0xbc5
 2187 0c52 20       		.uleb128 0x20
 2188 0c53 13050000 		.4byte	.LASF145
 2189 0c57 01       		.byte	0x1
 2190 0c58 B2       		.byte	0xb2
 2191 0c59 2C000000 		.4byte	0x2c
 2192 0c5d 21       		.uleb128 0x21
 2193 0c5e C9000000 		.4byte	.LASF184
 2194 0c62 7B0C0000 		.4byte	0xc7b
 2195 0c66 F1020000 		.4byte	.LASF185
 2196 0c6a 00       		.byte	0
 2197 0c6b 17       		.uleb128 0x17
 2198 0c6c F3080000 		.4byte	0x8f3
 2199 0c70 7B0C0000 		.4byte	0xc7b
 2200 0c74 18       		.uleb128 0x18
 2201 0c75 7B040000 		.4byte	0x47b
 2202 0c79 13       		.byte	0x13
 2203 0c7a 00       		.byte	0
 2204 0c7b 16       		.uleb128 0x16
 2205 0c7c 6B0C0000 		.4byte	0xc6b
 2206 0c80 1C       		.uleb128 0x1c
 2207 0c81 36010000 		.4byte	.LASF178
 2208 0c85 04       		.byte	0x4
 2209 0c86 1403     		.2byte	0x314
 2210 0c88 03       		.byte	0x3
 2211 0c89 A60C0000 		.4byte	0xca6
 2212 0c8d 22       		.uleb128 0x22
 2213 0c8e 74727000 		.ascii	"trp\000"
 2214 0c92 04       		.byte	0x4
 2215 0c93 1403     		.2byte	0x314
 2216 0c95 80080000 		.4byte	0x880
 2217 0c99 22       		.uleb128 0x22
 2218 0c9a 6D736700 		.ascii	"msg\000"
 2219 0c9e 04       		.byte	0x4
 2220 0c9f 1403     		.2byte	0x314
 2221 0ca1 26010000 		.4byte	0x126
 2222 0ca5 00       		.byte	0
 2223 0ca6 1C       		.uleb128 0x1c
ARM GAS  /tmp/cc9De0I0.s 			page 40


 2224 0ca7 14010000 		.4byte	.LASF179
 2225 0cab 04       		.byte	0x4
 2226 0cac 0503     		.2byte	0x305
 2227 0cae 03       		.byte	0x3
 2228 0caf CC0C0000 		.4byte	0xccc
 2229 0cb3 22       		.uleb128 0x22
 2230 0cb4 74727000 		.ascii	"trp\000"
 2231 0cb8 04       		.byte	0x4
 2232 0cb9 0503     		.2byte	0x305
 2233 0cbb 80080000 		.4byte	0x880
 2234 0cbf 22       		.uleb128 0x22
 2235 0cc0 6D736700 		.ascii	"msg\000"
 2236 0cc4 04       		.byte	0x4
 2237 0cc5 0503     		.2byte	0x305
 2238 0cc7 26010000 		.4byte	0x126
 2239 0ccb 00       		.byte	0
 2240 0ccc 23       		.uleb128 0x23
 2241 0ccd 4A030000 		.4byte	.LASF180
 2242 0cd1 01       		.byte	0x1
 2243 0cd2 38       		.byte	0x38
 2244 0cd3 00000000 		.4byte	.LFB323
 2245 0cd7 04000000 		.4byte	.LFE323-.LFB323
 2246 0cdb 01       		.uleb128 0x1
 2247 0cdc 9C       		.byte	0x9c
 2248 0cdd EB0C0000 		.4byte	0xceb
 2249 0ce1 24       		.uleb128 0x24
 2250 0ce2 04000000 		.4byte	.LVL0
 2251 0ce6 0A150000 		.4byte	0x150a
 2252 0cea 00       		.byte	0
 2253 0ceb 23       		.uleb128 0x23
 2254 0cec 9F080000 		.4byte	.LASF181
 2255 0cf0 01       		.byte	0x1
 2256 0cf1 44       		.byte	0x44
 2257 0cf2 00000000 		.4byte	.LFB324
 2258 0cf6 12000000 		.4byte	.LFE324-.LFB324
 2259 0cfa 01       		.uleb128 0x1
 2260 0cfb 9C       		.byte	0x9c
 2261 0cfc 0E0D0000 		.4byte	0xd0e
 2262 0d00 25       		.uleb128 0x25
 2263 0d01 FB040000 		.4byte	.LASF176
 2264 0d05 01       		.byte	0x1
 2265 0d06 44       		.byte	0x44
 2266 0d07 930B0000 		.4byte	0xb93
 2267 0d0b 01       		.uleb128 0x1
 2268 0d0c 50       		.byte	0x50
 2269 0d0d 00       		.byte	0
 2270 0d0e 1E       		.uleb128 0x1e
 2271 0d0f D9030000 		.4byte	.LASF182
 2272 0d13 03       		.byte	0x3
 2273 0d14 6101     		.2byte	0x161
 2274 0d16 03       		.byte	0x3
 2275 0d17 1C       		.uleb128 0x1c
 2276 0d18 BB030000 		.4byte	.LASF183
 2277 0d1c 03       		.byte	0x3
 2278 0d1d 6D01     		.2byte	0x16d
 2279 0d1f 03       		.byte	0x3
 2280 0d20 320D0000 		.4byte	0xd32
ARM GAS  /tmp/cc9De0I0.s 			page 41


 2281 0d24 21       		.uleb128 0x21
 2282 0d25 C9000000 		.4byte	.LASF184
 2283 0d29 420D0000 		.4byte	0xd42
 2284 0d2d BB030000 		.4byte	.LASF183
 2285 0d31 00       		.byte	0
 2286 0d32 17       		.uleb128 0x17
 2287 0d33 F3080000 		.4byte	0x8f3
 2288 0d37 420D0000 		.4byte	0xd42
 2289 0d3b 18       		.uleb128 0x18
 2290 0d3c 7B040000 		.4byte	0x47b
 2291 0d40 0B       		.byte	0xb
 2292 0d41 00       		.byte	0
 2293 0d42 16       		.uleb128 0x16
 2294 0d43 320D0000 		.4byte	0xd32
 2295 0d47 23       		.uleb128 0x23
 2296 0d48 5D090000 		.4byte	.LASF186
 2297 0d4c 01       		.byte	0x1
 2298 0d4d 5F       		.byte	0x5f
 2299 0d4e 00000000 		.4byte	.LFB325
 2300 0d52 28000000 		.4byte	.LFE325-.LFB325
 2301 0d56 01       		.uleb128 0x1
 2302 0d57 9C       		.byte	0x9c
 2303 0d58 570E0000 		.4byte	0xe57
 2304 0d5c 26       		.uleb128 0x26
 2305 0d5d FB040000 		.4byte	.LASF176
 2306 0d61 01       		.byte	0x1
 2307 0d62 5F       		.byte	0x5f
 2308 0d63 930B0000 		.4byte	0xb93
 2309 0d67 00000000 		.4byte	.LLST0
 2310 0d6b 26       		.uleb128 0x26
 2311 0d6c E5000000 		.4byte	.LASF143
 2312 0d70 01       		.byte	0x1
 2313 0d71 5F       		.byte	0x5f
 2314 0d72 BA0B0000 		.4byte	0xbba
 2315 0d76 1E000000 		.4byte	.LLST1
 2316 0d7a 27       		.uleb128 0x27
 2317 0d7b C9000000 		.4byte	.LASF184
 2318 0d7f 670E0000 		.4byte	0xe67
 2319 0d83 28       		.uleb128 0x28
 2320 0d84 130C0000 		.4byte	0xc13
 2321 0d88 06000000 		.4byte	.LBB56
 2322 0d8c 0A000000 		.4byte	.LBE56-.LBB56
 2323 0d90 01       		.byte	0x1
 2324 0d91 63       		.byte	0x63
 2325 0d92 DD0D0000 		.4byte	0xddd
 2326 0d96 29       		.uleb128 0x29
 2327 0d97 0E0D0000 		.4byte	0xd0e
 2328 0d9b 06000000 		.4byte	.LBB57
 2329 0d9f 0A000000 		.4byte	.LBE57-.LBB57
 2330 0da3 04       		.byte	0x4
 2331 0da4 FF01     		.2byte	0x1ff
 2332 0da6 2A       		.uleb128 0x2a
 2333 0da7 010C0000 		.4byte	0xc01
 2334 0dab 06000000 		.4byte	.LBB59
 2335 0daf 06000000 		.4byte	.LBE59-.LBB59
 2336 0db3 03       		.byte	0x3
 2337 0db4 6301     		.2byte	0x163
ARM GAS  /tmp/cc9De0I0.s 			page 42


 2338 0db6 D20D0000 		.4byte	0xdd2
 2339 0dba 29       		.uleb128 0x29
 2340 0dbb E70B0000 		.4byte	0xbe7
 2341 0dbf 06000000 		.4byte	.LBB60
 2342 0dc3 06000000 		.4byte	.LBE60-.LBB60
 2343 0dc7 0E       		.byte	0xe
 2344 0dc8 6202     		.2byte	0x262
 2345 0dca 2B       		.uleb128 0x2b
 2346 0dcb F40B0000 		.4byte	0xbf4
 2347 0dcf 20       		.byte	0x20
 2348 0dd0 00       		.byte	0
 2349 0dd1 00       		.byte	0
 2350 0dd2 2C       		.uleb128 0x2c
 2351 0dd3 10000000 		.4byte	.LVL3
 2352 0dd7 12150000 		.4byte	0x1512
 2353 0ddb 00       		.byte	0
 2354 0ddc 00       		.byte	0
 2355 0ddd 28       		.uleb128 0x28
 2356 0dde 1C0C0000 		.4byte	0xc1c
 2357 0de2 1C000000 		.4byte	.LBB62
 2358 0de6 0C000000 		.4byte	.LBE62-.LBB62
 2359 0dea 01       		.byte	0x1
 2360 0deb 69       		.byte	0x69
 2361 0dec 460E0000 		.4byte	0xe46
 2362 0df0 29       		.uleb128 0x29
 2363 0df1 170D0000 		.4byte	0xd17
 2364 0df5 1C000000 		.4byte	.LBB63
 2365 0df9 0C000000 		.4byte	.LBE63-.LBB63
 2366 0dfd 04       		.byte	0x4
 2367 0dfe 0A02     		.2byte	0x20a
 2368 0e00 2D       		.uleb128 0x2d
 2369 0e01 1C000000 		.4byte	.LBB64
 2370 0e05 0C000000 		.4byte	.LBE64-.LBB64
 2371 0e09 2E       		.uleb128 0x2e
 2372 0e0a 240D0000 		.4byte	0xd24
 2373 0e0e 2A       		.uleb128 0x2a
 2374 0e0f 0A0C0000 		.4byte	0xc0a
 2375 0e13 20000000 		.4byte	.LBB65
 2376 0e17 08000000 		.4byte	.LBE65-.LBB65
 2377 0e1b 03       		.byte	0x3
 2378 0e1c 7A01     		.2byte	0x17a
 2379 0e1e 3A0E0000 		.4byte	0xe3a
 2380 0e22 29       		.uleb128 0x29
 2381 0e23 E70B0000 		.4byte	0xbe7
 2382 0e27 20000000 		.4byte	.LBB66
 2383 0e2b 08000000 		.4byte	.LBE66-.LBB66
 2384 0e2f 0E       		.byte	0xe
 2385 0e30 7502     		.2byte	0x275
 2386 0e32 2B       		.uleb128 0x2b
 2387 0e33 F40B0000 		.4byte	0xbf4
 2388 0e37 00       		.byte	0
 2389 0e38 00       		.byte	0
 2390 0e39 00       		.byte	0
 2391 0e3a 2C       		.uleb128 0x2c
 2392 0e3b 20000000 		.4byte	.LVL5
 2393 0e3f 19150000 		.4byte	0x1519
 2394 0e43 00       		.byte	0
ARM GAS  /tmp/cc9De0I0.s 			page 43


 2395 0e44 00       		.byte	0
 2396 0e45 00       		.byte	0
 2397 0e46 2F       		.uleb128 0x2f
 2398 0e47 18000000 		.4byte	.LVL4
 2399 0e4b 20150000 		.4byte	0x1520
 2400 0e4f 30       		.uleb128 0x30
 2401 0e50 01       		.uleb128 0x1
 2402 0e51 50       		.byte	0x50
 2403 0e52 02       		.uleb128 0x2
 2404 0e53 74       		.byte	0x74
 2405 0e54 00       		.sleb128 0
 2406 0e55 00       		.byte	0
 2407 0e56 00       		.byte	0
 2408 0e57 17       		.uleb128 0x17
 2409 0e58 F3080000 		.4byte	0x8f3
 2410 0e5c 670E0000 		.4byte	0xe67
 2411 0e60 18       		.uleb128 0x18
 2412 0e61 7B040000 		.4byte	0x47b
 2413 0e65 08       		.byte	0x8
 2414 0e66 00       		.byte	0
 2415 0e67 16       		.uleb128 0x16
 2416 0e68 570E0000 		.4byte	0xe57
 2417 0e6c 23       		.uleb128 0x23
 2418 0e6d 4B080000 		.4byte	.LASF187
 2419 0e71 01       		.byte	0x1
 2420 0e72 73       		.byte	0x73
 2421 0e73 00000000 		.4byte	.LFB326
 2422 0e77 26000000 		.4byte	.LFE326-.LFB326
 2423 0e7b 01       		.uleb128 0x1
 2424 0e7c 9C       		.byte	0x9c
 2425 0e7d 6D0F0000 		.4byte	0xf6d
 2426 0e81 26       		.uleb128 0x26
 2427 0e82 FB040000 		.4byte	.LASF176
 2428 0e86 01       		.byte	0x1
 2429 0e87 73       		.byte	0x73
 2430 0e88 930B0000 		.4byte	0xb93
 2431 0e8c 3C000000 		.4byte	.LLST2
 2432 0e90 27       		.uleb128 0x27
 2433 0e91 C9000000 		.4byte	.LASF184
 2434 0e95 6D0F0000 		.4byte	0xf6d
 2435 0e99 28       		.uleb128 0x28
 2436 0e9a 130C0000 		.4byte	0xc13
 2437 0e9e 04000000 		.4byte	.LBB82
 2438 0ea2 0A000000 		.4byte	.LBE82-.LBB82
 2439 0ea6 01       		.byte	0x1
 2440 0ea7 77       		.byte	0x77
 2441 0ea8 F30E0000 		.4byte	0xef3
 2442 0eac 29       		.uleb128 0x29
 2443 0ead 0E0D0000 		.4byte	0xd0e
 2444 0eb1 04000000 		.4byte	.LBB83
 2445 0eb5 0A000000 		.4byte	.LBE83-.LBB83
 2446 0eb9 04       		.byte	0x4
 2447 0eba FF01     		.2byte	0x1ff
 2448 0ebc 2A       		.uleb128 0x2a
 2449 0ebd 010C0000 		.4byte	0xc01
 2450 0ec1 04000000 		.4byte	.LBB85
 2451 0ec5 06000000 		.4byte	.LBE85-.LBB85
ARM GAS  /tmp/cc9De0I0.s 			page 44


 2452 0ec9 03       		.byte	0x3
 2453 0eca 6301     		.2byte	0x163
 2454 0ecc E80E0000 		.4byte	0xee8
 2455 0ed0 29       		.uleb128 0x29
 2456 0ed1 E70B0000 		.4byte	0xbe7
 2457 0ed5 04000000 		.4byte	.LBB86
 2458 0ed9 06000000 		.4byte	.LBE86-.LBB86
 2459 0edd 0E       		.byte	0xe
 2460 0ede 6202     		.2byte	0x262
 2461 0ee0 2B       		.uleb128 0x2b
 2462 0ee1 F40B0000 		.4byte	0xbf4
 2463 0ee5 20       		.byte	0x20
 2464 0ee6 00       		.byte	0
 2465 0ee7 00       		.byte	0
 2466 0ee8 2C       		.uleb128 0x2c
 2467 0ee9 0E000000 		.4byte	.LVL7
 2468 0eed 12150000 		.4byte	0x1512
 2469 0ef1 00       		.byte	0
 2470 0ef2 00       		.byte	0
 2471 0ef3 28       		.uleb128 0x28
 2472 0ef4 1C0C0000 		.4byte	0xc1c
 2473 0ef8 1C000000 		.4byte	.LBB88
 2474 0efc 0A000000 		.4byte	.LBE88-.LBB88
 2475 0f00 01       		.byte	0x1
 2476 0f01 80       		.byte	0x80
 2477 0f02 5C0F0000 		.4byte	0xf5c
 2478 0f06 29       		.uleb128 0x29
 2479 0f07 170D0000 		.4byte	0xd17
 2480 0f0b 1C000000 		.4byte	.LBB89
 2481 0f0f 0A000000 		.4byte	.LBE89-.LBB89
 2482 0f13 04       		.byte	0x4
 2483 0f14 0A02     		.2byte	0x20a
 2484 0f16 2D       		.uleb128 0x2d
 2485 0f17 1C000000 		.4byte	.LBB90
 2486 0f1b 0A000000 		.4byte	.LBE90-.LBB90
 2487 0f1f 2E       		.uleb128 0x2e
 2488 0f20 240D0000 		.4byte	0xd24
 2489 0f24 2A       		.uleb128 0x2a
 2490 0f25 0A0C0000 		.4byte	0xc0a
 2491 0f29 20000000 		.4byte	.LBB91
 2492 0f2d 06000000 		.4byte	.LBE91-.LBB91
 2493 0f31 03       		.byte	0x3
 2494 0f32 7A01     		.2byte	0x17a
 2495 0f34 500F0000 		.4byte	0xf50
 2496 0f38 29       		.uleb128 0x29
 2497 0f39 E70B0000 		.4byte	0xbe7
 2498 0f3d 20000000 		.4byte	.LBB92
 2499 0f41 06000000 		.4byte	.LBE92-.LBB92
 2500 0f45 0E       		.byte	0xe
 2501 0f46 7502     		.2byte	0x275
 2502 0f48 2B       		.uleb128 0x2b
 2503 0f49 F40B0000 		.4byte	0xbf4
 2504 0f4d 00       		.byte	0
 2505 0f4e 00       		.byte	0
 2506 0f4f 00       		.byte	0
 2507 0f50 2C       		.uleb128 0x2c
 2508 0f51 20000000 		.4byte	.LVL9
ARM GAS  /tmp/cc9De0I0.s 			page 45


 2509 0f55 19150000 		.4byte	0x1519
 2510 0f59 00       		.byte	0
 2511 0f5a 00       		.byte	0
 2512 0f5b 00       		.byte	0
 2513 0f5c 2F       		.uleb128 0x2f
 2514 0f5d 14000000 		.4byte	.LVL8
 2515 0f61 32150000 		.4byte	0x1532
 2516 0f65 30       		.uleb128 0x30
 2517 0f66 01       		.uleb128 0x1
 2518 0f67 50       		.byte	0x50
 2519 0f68 02       		.uleb128 0x2
 2520 0f69 74       		.byte	0x74
 2521 0f6a 00       		.sleb128 0
 2522 0f6b 00       		.byte	0
 2523 0f6c 00       		.byte	0
 2524 0f6d 16       		.uleb128 0x16
 2525 0f6e 23090000 		.4byte	0x923
 2526 0f72 23       		.uleb128 0x23
 2527 0f73 66090000 		.4byte	.LASF188
 2528 0f77 01       		.byte	0x1
 2529 0f78 93       		.byte	0x93
 2530 0f79 00000000 		.4byte	.LFB327
 2531 0f7d 30000000 		.4byte	.LFE327-.LFB327
 2532 0f81 01       		.uleb128 0x1
 2533 0f82 9C       		.byte	0x9c
 2534 0f83 D2100000 		.4byte	0x10d2
 2535 0f87 26       		.uleb128 0x26
 2536 0f88 FB040000 		.4byte	.LASF176
 2537 0f8c 01       		.byte	0x1
 2538 0f8d 93       		.byte	0x93
 2539 0f8e 930B0000 		.4byte	0xb93
 2540 0f92 5A000000 		.4byte	.LLST3
 2541 0f96 26       		.uleb128 0x26
 2542 0f97 1A080000 		.4byte	.LASF146
 2543 0f9b 01       		.byte	0x1
 2544 0f9c 94       		.byte	0x94
 2545 0f9d CB0B0000 		.4byte	0xbcb
 2546 0fa1 78000000 		.4byte	.LLST4
 2547 0fa5 26       		.uleb128 0x26
 2548 0fa6 2B030000 		.4byte	.LASF144
 2549 0faa 01       		.byte	0x1
 2550 0fab 95       		.byte	0x95
 2551 0fac C50B0000 		.4byte	0xbc5
 2552 0fb0 96000000 		.4byte	.LLST5
 2553 0fb4 26       		.uleb128 0x26
 2554 0fb5 13050000 		.4byte	.LASF145
 2555 0fb9 01       		.byte	0x1
 2556 0fba 96       		.byte	0x96
 2557 0fbb 2C000000 		.4byte	0x2c
 2558 0fbf B4000000 		.4byte	.LLST6
 2559 0fc3 28       		.uleb128 0x28
 2560 0fc4 130C0000 		.4byte	0xc13
 2561 0fc8 0A000000 		.4byte	.LBB110
 2562 0fcc 0A000000 		.4byte	.LBE110-.LBB110
 2563 0fd0 01       		.byte	0x1
 2564 0fd1 98       		.byte	0x98
 2565 0fd2 1D100000 		.4byte	0x101d
ARM GAS  /tmp/cc9De0I0.s 			page 46


 2566 0fd6 29       		.uleb128 0x29
 2567 0fd7 0E0D0000 		.4byte	0xd0e
 2568 0fdb 0A000000 		.4byte	.LBB111
 2569 0fdf 0A000000 		.4byte	.LBE111-.LBB111
 2570 0fe3 04       		.byte	0x4
 2571 0fe4 FF01     		.2byte	0x1ff
 2572 0fe6 2A       		.uleb128 0x2a
 2573 0fe7 010C0000 		.4byte	0xc01
 2574 0feb 0A000000 		.4byte	.LBB113
 2575 0fef 06000000 		.4byte	.LBE113-.LBB113
 2576 0ff3 03       		.byte	0x3
 2577 0ff4 6301     		.2byte	0x163
 2578 0ff6 12100000 		.4byte	0x1012
 2579 0ffa 29       		.uleb128 0x29
 2580 0ffb E70B0000 		.4byte	0xbe7
 2581 0fff 0A000000 		.4byte	.LBB114
 2582 1003 06000000 		.4byte	.LBE114-.LBB114
 2583 1007 0E       		.byte	0xe
 2584 1008 6202     		.2byte	0x262
 2585 100a 2B       		.uleb128 0x2b
 2586 100b F40B0000 		.4byte	0xbf4
 2587 100f 20       		.byte	0x20
 2588 1010 00       		.byte	0
 2589 1011 00       		.byte	0
 2590 1012 2C       		.uleb128 0x2c
 2591 1013 14000000 		.4byte	.LVL12
 2592 1017 12150000 		.4byte	0x1512
 2593 101b 00       		.byte	0
 2594 101c 00       		.byte	0
 2595 101d 28       		.uleb128 0x28
 2596 101e 250C0000 		.4byte	0xc25
 2597 1022 14000000 		.4byte	.LBB116
 2598 1026 10000000 		.4byte	.LBE116-.LBB116
 2599 102a 01       		.byte	0x1
 2600 102b 99       		.byte	0x99
 2601 102c 6C100000 		.4byte	0x106c
 2602 1030 31       		.uleb128 0x31
 2603 1031 520C0000 		.4byte	0xc52
 2604 1035 01       		.uleb128 0x1
 2605 1036 56       		.byte	0x56
 2606 1037 31       		.uleb128 0x31
 2607 1038 470C0000 		.4byte	0xc47
 2608 103c 01       		.uleb128 0x1
 2609 103d 57       		.byte	0x57
 2610 103e 31       		.uleb128 0x31
 2611 103f 3C0C0000 		.4byte	0xc3c
 2612 1043 01       		.uleb128 0x1
 2613 1044 55       		.byte	0x55
 2614 1045 31       		.uleb128 0x31
 2615 1046 310C0000 		.4byte	0xc31
 2616 104a 01       		.uleb128 0x1
 2617 104b 54       		.byte	0x54
 2618 104c 2D       		.uleb128 0x2d
 2619 104d 14000000 		.4byte	.LBB117
 2620 1051 10000000 		.4byte	.LBE117-.LBB117
 2621 1055 2E       		.uleb128 0x2e
 2622 1056 5D0C0000 		.4byte	0xc5d
ARM GAS  /tmp/cc9De0I0.s 			page 47


 2623 105a 2F       		.uleb128 0x2f
 2624 105b 24000000 		.4byte	.LVL13
 2625 105f 44150000 		.4byte	0x1544
 2626 1063 30       		.uleb128 0x30
 2627 1064 01       		.uleb128 0x1
 2628 1065 50       		.byte	0x50
 2629 1066 02       		.uleb128 0x2
 2630 1067 74       		.byte	0x74
 2631 1068 00       		.sleb128 0
 2632 1069 00       		.byte	0
 2633 106a 00       		.byte	0
 2634 106b 00       		.byte	0
 2635 106c 32       		.uleb128 0x32
 2636 106d 1C0C0000 		.4byte	0xc1c
 2637 1071 24000000 		.4byte	.LBB118
 2638 1075 0C000000 		.4byte	.LBE118-.LBB118
 2639 1079 01       		.byte	0x1
 2640 107a 9A       		.byte	0x9a
 2641 107b 29       		.uleb128 0x29
 2642 107c 170D0000 		.4byte	0xd17
 2643 1080 24000000 		.4byte	.LBB119
 2644 1084 0C000000 		.4byte	.LBE119-.LBB119
 2645 1088 04       		.byte	0x4
 2646 1089 0A02     		.2byte	0x20a
 2647 108b 2D       		.uleb128 0x2d
 2648 108c 24000000 		.4byte	.LBB120
 2649 1090 0C000000 		.4byte	.LBE120-.LBB120
 2650 1094 2E       		.uleb128 0x2e
 2651 1095 240D0000 		.4byte	0xd24
 2652 1099 2A       		.uleb128 0x2a
 2653 109a 0A0C0000 		.4byte	0xc0a
 2654 109e 28000000 		.4byte	.LBB121
 2655 10a2 08000000 		.4byte	.LBE121-.LBB121
 2656 10a6 03       		.byte	0x3
 2657 10a7 7A01     		.2byte	0x17a
 2658 10a9 C5100000 		.4byte	0x10c5
 2659 10ad 29       		.uleb128 0x29
 2660 10ae E70B0000 		.4byte	0xbe7
 2661 10b2 28000000 		.4byte	.LBB122
 2662 10b6 08000000 		.4byte	.LBE122-.LBB122
 2663 10ba 0E       		.byte	0xe
 2664 10bb 7502     		.2byte	0x275
 2665 10bd 2B       		.uleb128 0x2b
 2666 10be F40B0000 		.4byte	0xbf4
 2667 10c2 00       		.byte	0
 2668 10c3 00       		.byte	0
 2669 10c4 00       		.byte	0
 2670 10c5 2C       		.uleb128 0x2c
 2671 10c6 28000000 		.4byte	.LVL14
 2672 10ca 19150000 		.4byte	0x1519
 2673 10ce 00       		.byte	0
 2674 10cf 00       		.byte	0
 2675 10d0 00       		.byte	0
 2676 10d1 00       		.byte	0
 2677 10d2 33       		.uleb128 0x33
 2678 10d3 250C0000 		.4byte	0xc25
 2679 10d7 00000000 		.4byte	.LFB328
ARM GAS  /tmp/cc9De0I0.s 			page 48


 2680 10db 14000000 		.4byte	.LFE328-.LFB328
 2681 10df 01       		.uleb128 0x1
 2682 10e0 9C       		.byte	0x9c
 2683 10e1 20110000 		.4byte	0x1120
 2684 10e5 34       		.uleb128 0x34
 2685 10e6 310C0000 		.4byte	0xc31
 2686 10ea D2000000 		.4byte	.LLST7
 2687 10ee 34       		.uleb128 0x34
 2688 10ef 3C0C0000 		.4byte	0xc3c
 2689 10f3 F3000000 		.4byte	.LLST8
 2690 10f7 34       		.uleb128 0x34
 2691 10f8 470C0000 		.4byte	0xc47
 2692 10fc 14010000 		.4byte	.LLST9
 2693 1100 34       		.uleb128 0x34
 2694 1101 520C0000 		.4byte	0xc52
 2695 1105 35010000 		.4byte	.LLST10
 2696 1109 2E       		.uleb128 0x2e
 2697 110a 5D0C0000 		.4byte	0xc5d
 2698 110e 35       		.uleb128 0x35
 2699 110f 14000000 		.4byte	.LVL17
 2700 1113 44150000 		.4byte	0x1544
 2701 1117 30       		.uleb128 0x30
 2702 1118 01       		.uleb128 0x1
 2703 1119 50       		.byte	0x50
 2704 111a 03       		.uleb128 0x3
 2705 111b F3       		.byte	0xf3
 2706 111c 01       		.uleb128 0x1
 2707 111d 50       		.byte	0x50
 2708 111e 00       		.byte	0
 2709 111f 00       		.byte	0
 2710 1120 23       		.uleb128 0x23
 2711 1121 D5080000 		.4byte	.LASF189
 2712 1125 01       		.byte	0x1
 2713 1126 CC       		.byte	0xcc
 2714 1127 00000000 		.4byte	.LFB329
 2715 112b 3A000000 		.4byte	.LFE329-.LFB329
 2716 112f 01       		.uleb128 0x1
 2717 1130 9C       		.byte	0x9c
 2718 1131 5D120000 		.4byte	0x125d
 2719 1135 26       		.uleb128 0x26
 2720 1136 FB040000 		.4byte	.LASF176
 2721 113a 01       		.byte	0x1
 2722 113b CC       		.byte	0xcc
 2723 113c 930B0000 		.4byte	0xb93
 2724 1140 62010000 		.4byte	.LLST11
 2725 1144 27       		.uleb128 0x27
 2726 1145 C9000000 		.4byte	.LASF184
 2727 1149 6D120000 		.4byte	0x126d
 2728 114d 36       		.uleb128 0x36
 2729 114e 130C0000 		.4byte	0xc13
 2730 1152 02000000 		.4byte	.LBB140
 2731 1156 00000000 		.4byte	.Ldebug_ranges0+0
 2732 115a 01       		.byte	0x1
 2733 115b D0       		.byte	0xd0
 2734 115c A7110000 		.4byte	0x11a7
 2735 1160 37       		.uleb128 0x37
 2736 1161 0E0D0000 		.4byte	0xd0e
ARM GAS  /tmp/cc9De0I0.s 			page 49


 2737 1165 02000000 		.4byte	.LBB141
 2738 1169 00000000 		.4byte	.Ldebug_ranges0+0
 2739 116d 04       		.byte	0x4
 2740 116e FF01     		.2byte	0x1ff
 2741 1170 38       		.uleb128 0x38
 2742 1171 010C0000 		.4byte	0xc01
 2743 1175 02000000 		.4byte	.LBB143
 2744 1179 18000000 		.4byte	.Ldebug_ranges0+0x18
 2745 117d 03       		.byte	0x3
 2746 117e 6301     		.2byte	0x163
 2747 1180 9C110000 		.4byte	0x119c
 2748 1184 37       		.uleb128 0x37
 2749 1185 E70B0000 		.4byte	0xbe7
 2750 1189 02000000 		.4byte	.LBB144
 2751 118d 18000000 		.4byte	.Ldebug_ranges0+0x18
 2752 1191 0E       		.byte	0xe
 2753 1192 6202     		.2byte	0x262
 2754 1194 2B       		.uleb128 0x2b
 2755 1195 F40B0000 		.4byte	0xbf4
 2756 1199 20       		.byte	0x20
 2757 119a 00       		.byte	0
 2758 119b 00       		.byte	0
 2759 119c 2C       		.uleb128 0x2c
 2760 119d 0E000000 		.4byte	.LVL19
 2761 11a1 12150000 		.4byte	0x1512
 2762 11a5 00       		.byte	0
 2763 11a6 00       		.byte	0
 2764 11a7 28       		.uleb128 0x28
 2765 11a8 800C0000 		.4byte	0xc80
 2766 11ac 26000000 		.4byte	.LBB152
 2767 11b0 08000000 		.4byte	.LBE152-.LBB152
 2768 11b4 01       		.byte	0x1
 2769 11b5 D7       		.byte	0xd7
 2770 11b6 E3110000 		.4byte	0x11e3
 2771 11ba 34       		.uleb128 0x34
 2772 11bb 990C0000 		.4byte	0xc99
 2773 11bf 80010000 		.4byte	.LLST12
 2774 11c3 34       		.uleb128 0x34
 2775 11c4 8D0C0000 		.4byte	0xc8d
 2776 11c8 95010000 		.4byte	.LLST13
 2777 11cc 2F       		.uleb128 0x2f
 2778 11cd 2E000000 		.4byte	.LVL22
 2779 11d1 56150000 		.4byte	0x1556
 2780 11d5 30       		.uleb128 0x30
 2781 11d6 01       		.uleb128 0x1
 2782 11d7 51       		.byte	0x51
 2783 11d8 02       		.uleb128 0x2
 2784 11d9 09       		.byte	0x9
 2785 11da FE       		.byte	0xfe
 2786 11db 30       		.uleb128 0x30
 2787 11dc 01       		.uleb128 0x1
 2788 11dd 50       		.byte	0x50
 2789 11de 02       		.uleb128 0x2
 2790 11df 74       		.byte	0x74
 2791 11e0 14       		.sleb128 20
 2792 11e1 00       		.byte	0
 2793 11e2 00       		.byte	0
ARM GAS  /tmp/cc9De0I0.s 			page 50


 2794 11e3 28       		.uleb128 0x28
 2795 11e4 1C0C0000 		.4byte	0xc1c
 2796 11e8 2E000000 		.4byte	.LBB154
 2797 11ec 0C000000 		.4byte	.LBE154-.LBB154
 2798 11f0 01       		.byte	0x1
 2799 11f1 D9       		.byte	0xd9
 2800 11f2 4C120000 		.4byte	0x124c
 2801 11f6 29       		.uleb128 0x29
 2802 11f7 170D0000 		.4byte	0xd17
 2803 11fb 2E000000 		.4byte	.LBB155
 2804 11ff 0C000000 		.4byte	.LBE155-.LBB155
 2805 1203 04       		.byte	0x4
 2806 1204 0A02     		.2byte	0x20a
 2807 1206 2D       		.uleb128 0x2d
 2808 1207 2E000000 		.4byte	.LBB156
 2809 120b 0C000000 		.4byte	.LBE156-.LBB156
 2810 120f 2E       		.uleb128 0x2e
 2811 1210 240D0000 		.4byte	0xd24
 2812 1214 2A       		.uleb128 0x2a
 2813 1215 0A0C0000 		.4byte	0xc0a
 2814 1219 32000000 		.4byte	.LBB157
 2815 121d 08000000 		.4byte	.LBE157-.LBB157
 2816 1221 03       		.byte	0x3
 2817 1222 7A01     		.2byte	0x17a
 2818 1224 40120000 		.4byte	0x1240
 2819 1228 29       		.uleb128 0x29
 2820 1229 E70B0000 		.4byte	0xbe7
 2821 122d 32000000 		.4byte	.LBB158
 2822 1231 08000000 		.4byte	.LBE158-.LBB158
 2823 1235 0E       		.byte	0xe
 2824 1236 7502     		.2byte	0x275
 2825 1238 2B       		.uleb128 0x2b
 2826 1239 F40B0000 		.4byte	0xbf4
 2827 123d 00       		.byte	0
 2828 123e 00       		.byte	0
 2829 123f 00       		.byte	0
 2830 1240 2C       		.uleb128 0x2c
 2831 1241 32000000 		.4byte	.LVL23
 2832 1245 19150000 		.4byte	0x1519
 2833 1249 00       		.byte	0
 2834 124a 00       		.byte	0
 2835 124b 00       		.byte	0
 2836 124c 2F       		.uleb128 0x2f
 2837 124d 1A000000 		.4byte	.LVL20
 2838 1251 6C150000 		.4byte	0x156c
 2839 1255 30       		.uleb128 0x30
 2840 1256 01       		.uleb128 0x1
 2841 1257 50       		.byte	0x50
 2842 1258 02       		.uleb128 0x2
 2843 1259 74       		.byte	0x74
 2844 125a 00       		.sleb128 0
 2845 125b 00       		.byte	0
 2846 125c 00       		.byte	0
 2847 125d 17       		.uleb128 0x17
 2848 125e F3080000 		.4byte	0x8f3
 2849 1262 6D120000 		.4byte	0x126d
 2850 1266 18       		.uleb128 0x18
ARM GAS  /tmp/cc9De0I0.s 			page 51


 2851 1267 7B040000 		.4byte	0x47b
 2852 126b 11       		.byte	0x11
 2853 126c 00       		.byte	0
 2854 126d 16       		.uleb128 0x16
 2855 126e 5D120000 		.4byte	0x125d
 2856 1272 23       		.uleb128 0x23
 2857 1273 B4070000 		.4byte	.LASF190
 2858 1277 01       		.byte	0x1
 2859 1278 E6       		.byte	0xe6
 2860 1279 00000000 		.4byte	.LFB330
 2861 127d 28000000 		.4byte	.LFE330-.LFB330
 2862 1281 01       		.uleb128 0x1
 2863 1282 9C       		.byte	0x9c
 2864 1283 EF120000 		.4byte	0x12ef
 2865 1287 26       		.uleb128 0x26
 2866 1288 FB040000 		.4byte	.LASF176
 2867 128c 01       		.byte	0x1
 2868 128d E6       		.byte	0xe6
 2869 128e 930B0000 		.4byte	0xb93
 2870 1292 AA010000 		.4byte	.LLST14
 2871 1296 27       		.uleb128 0x27
 2872 1297 C9000000 		.4byte	.LASF184
 2873 129b FF120000 		.4byte	0x12ff
 2874 129f 36       		.uleb128 0x36
 2875 12a0 A60C0000 		.4byte	0xca6
 2876 12a4 1A000000 		.4byte	.LBB160
 2877 12a8 30000000 		.4byte	.Ldebug_ranges0+0x30
 2878 12ac 01       		.byte	0x1
 2879 12ad F3       		.byte	0xf3
 2880 12ae DE120000 		.4byte	0x12de
 2881 12b2 34       		.uleb128 0x34
 2882 12b3 BF0C0000 		.4byte	0xcbf
 2883 12b7 EE010000 		.4byte	.LLST15
 2884 12bb 34       		.uleb128 0x34
 2885 12bc B30C0000 		.4byte	0xcb3
 2886 12c0 03020000 		.4byte	.LLST16
 2887 12c4 35       		.uleb128 0x35
 2888 12c5 26000000 		.4byte	.LVL28
 2889 12c9 7E150000 		.4byte	0x157e
 2890 12cd 30       		.uleb128 0x30
 2891 12ce 01       		.uleb128 0x1
 2892 12cf 51       		.byte	0x51
 2893 12d0 02       		.uleb128 0x2
 2894 12d1 09       		.byte	0x9
 2895 12d2 FE       		.byte	0xfe
 2896 12d3 30       		.uleb128 0x30
 2897 12d4 01       		.uleb128 0x1
 2898 12d5 50       		.byte	0x50
 2899 12d6 05       		.uleb128 0x5
 2900 12d7 F3       		.byte	0xf3
 2901 12d8 01       		.uleb128 0x1
 2902 12d9 50       		.byte	0x50
 2903 12da 23       		.byte	0x23
 2904 12db 14       		.uleb128 0x14
 2905 12dc 00       		.byte	0
 2906 12dd 00       		.byte	0
 2907 12de 2F       		.uleb128 0x2f
ARM GAS  /tmp/cc9De0I0.s 			page 52


 2908 12df 0E000000 		.4byte	.LVL25
 2909 12e3 6C150000 		.4byte	0x156c
 2910 12e7 30       		.uleb128 0x30
 2911 12e8 01       		.uleb128 0x1
 2912 12e9 50       		.byte	0x50
 2913 12ea 02       		.uleb128 0x2
 2914 12eb 74       		.byte	0x74
 2915 12ec 00       		.sleb128 0
 2916 12ed 00       		.byte	0
 2917 12ee 00       		.byte	0
 2918 12ef 17       		.uleb128 0x17
 2919 12f0 F3080000 		.4byte	0x8f3
 2920 12f4 FF120000 		.4byte	0x12ff
 2921 12f8 18       		.uleb128 0x18
 2922 12f9 7B040000 		.4byte	0x47b
 2923 12fd 12       		.byte	0x12
 2924 12fe 00       		.byte	0
 2925 12ff 16       		.uleb128 0x16
 2926 1300 EF120000 		.4byte	0x12ef
 2927 1304 39       		.uleb128 0x39
 2928 1305 D2000000 		.4byte	.LASF205
 2929 1309 04       		.byte	0x4
 2930 130a DD02     		.2byte	0x2dd
 2931 130c 26010000 		.4byte	0x126
 2932 1310 03       		.byte	0x3
 2933 1311 22130000 		.4byte	0x1322
 2934 1315 22       		.uleb128 0x22
 2935 1316 74727000 		.ascii	"trp\000"
 2936 131a 04       		.byte	0x4
 2937 131b DD02     		.2byte	0x2dd
 2938 131d 80080000 		.4byte	0x880
 2939 1321 00       		.byte	0
 2940 1322 3A       		.uleb128 0x3a
 2941 1323 04090000 		.4byte	.LASF206
 2942 1327 01       		.byte	0x1
 2943 1328 0F01     		.2byte	0x10f
 2944 132a 26010000 		.4byte	0x126
 2945 132e 00000000 		.4byte	.LFB331
 2946 1332 40000000 		.4byte	.LFE331-.LFB331
 2947 1336 01       		.uleb128 0x1
 2948 1337 9C       		.byte	0x9c
 2949 1338 D9140000 		.4byte	0x14d9
 2950 133c 3B       		.uleb128 0x3b
 2951 133d FB040000 		.4byte	.LASF176
 2952 1341 01       		.byte	0x1
 2953 1342 0F01     		.2byte	0x10f
 2954 1344 930B0000 		.4byte	0xb93
 2955 1348 33020000 		.4byte	.LLST17
 2956 134c 3B       		.uleb128 0x3b
 2957 134d 1A080000 		.4byte	.LASF146
 2958 1351 01       		.byte	0x1
 2959 1352 1001     		.2byte	0x110
 2960 1354 CB0B0000 		.4byte	0xbcb
 2961 1358 5F020000 		.4byte	.LLST18
 2962 135c 3B       		.uleb128 0x3b
 2963 135d 2B030000 		.4byte	.LASF144
 2964 1361 01       		.byte	0x1
ARM GAS  /tmp/cc9De0I0.s 			page 53


 2965 1362 1101     		.2byte	0x111
 2966 1364 C50B0000 		.4byte	0xbc5
 2967 1368 7D020000 		.4byte	.LLST19
 2968 136c 3B       		.uleb128 0x3b
 2969 136d 13050000 		.4byte	.LASF145
 2970 1371 01       		.byte	0x1
 2971 1372 1201     		.2byte	0x112
 2972 1374 2C000000 		.4byte	0x2c
 2973 1378 9B020000 		.4byte	.LLST20
 2974 137c 3C       		.uleb128 0x3c
 2975 137d 6D736700 		.ascii	"msg\000"
 2976 1381 01       		.byte	0x1
 2977 1382 1301     		.2byte	0x113
 2978 1384 26010000 		.4byte	0x126
 2979 1388 27       		.uleb128 0x27
 2980 1389 C9000000 		.4byte	.LASF184
 2981 138d E9140000 		.4byte	0x14e9
 2982 1391 2A       		.uleb128 0x2a
 2983 1392 130C0000 		.4byte	0xc13
 2984 1396 0A000000 		.4byte	.LBB182
 2985 139a 0A000000 		.4byte	.LBE182-.LBB182
 2986 139e 01       		.byte	0x1
 2987 139f 1501     		.2byte	0x115
 2988 13a1 EC130000 		.4byte	0x13ec
 2989 13a5 29       		.uleb128 0x29
 2990 13a6 0E0D0000 		.4byte	0xd0e
 2991 13aa 0A000000 		.4byte	.LBB183
 2992 13ae 0A000000 		.4byte	.LBE183-.LBB183
 2993 13b2 04       		.byte	0x4
 2994 13b3 FF01     		.2byte	0x1ff
 2995 13b5 2A       		.uleb128 0x2a
 2996 13b6 010C0000 		.4byte	0xc01
 2997 13ba 0A000000 		.4byte	.LBB185
 2998 13be 06000000 		.4byte	.LBE185-.LBB185
 2999 13c2 03       		.byte	0x3
 3000 13c3 6301     		.2byte	0x163
 3001 13c5 E1130000 		.4byte	0x13e1
 3002 13c9 29       		.uleb128 0x29
 3003 13ca E70B0000 		.4byte	0xbe7
 3004 13ce 0A000000 		.4byte	.LBB186
 3005 13d2 06000000 		.4byte	.LBE186-.LBB186
 3006 13d6 0E       		.byte	0xe
 3007 13d7 6202     		.2byte	0x262
 3008 13d9 2B       		.uleb128 0x2b
 3009 13da F40B0000 		.4byte	0xbf4
 3010 13de 20       		.byte	0x20
 3011 13df 00       		.byte	0
 3012 13e0 00       		.byte	0
 3013 13e1 2C       		.uleb128 0x2c
 3014 13e2 14000000 		.4byte	.LVL31
 3015 13e6 12150000 		.4byte	0x1512
 3016 13ea 00       		.byte	0
 3017 13eb 00       		.byte	0
 3018 13ec 2A       		.uleb128 0x2a
 3019 13ed 250C0000 		.4byte	0xc25
 3020 13f1 14000000 		.4byte	.LBB188
 3021 13f5 10000000 		.4byte	.LBE188-.LBB188
ARM GAS  /tmp/cc9De0I0.s 			page 54


 3022 13f9 01       		.byte	0x1
 3023 13fa 1701     		.2byte	0x117
 3024 13fc 3E140000 		.4byte	0x143e
 3025 1400 31       		.uleb128 0x31
 3026 1401 520C0000 		.4byte	0xc52
 3027 1405 01       		.uleb128 0x1
 3028 1406 56       		.byte	0x56
 3029 1407 31       		.uleb128 0x31
 3030 1408 470C0000 		.4byte	0xc47
 3031 140c 01       		.uleb128 0x1
 3032 140d 57       		.byte	0x57
 3033 140e 31       		.uleb128 0x31
 3034 140f 3C0C0000 		.4byte	0xc3c
 3035 1413 01       		.uleb128 0x1
 3036 1414 55       		.byte	0x55
 3037 1415 34       		.uleb128 0x34
 3038 1416 310C0000 		.4byte	0xc31
 3039 141a B9020000 		.4byte	.LLST21
 3040 141e 2D       		.uleb128 0x2d
 3041 141f 14000000 		.4byte	.LBB189
 3042 1423 10000000 		.4byte	.LBE189-.LBB189
 3043 1427 2E       		.uleb128 0x2e
 3044 1428 5D0C0000 		.4byte	0xc5d
 3045 142c 2F       		.uleb128 0x2f
 3046 142d 24000000 		.4byte	.LVL32
 3047 1431 44150000 		.4byte	0x1544
 3048 1435 30       		.uleb128 0x30
 3049 1436 01       		.uleb128 0x1
 3050 1437 50       		.byte	0x50
 3051 1438 02       		.uleb128 0x2
 3052 1439 74       		.byte	0x74
 3053 143a 00       		.sleb128 0
 3054 143b 00       		.byte	0
 3055 143c 00       		.byte	0
 3056 143d 00       		.byte	0
 3057 143e 2A       		.uleb128 0x2a
 3058 143f 04130000 		.4byte	0x1304
 3059 1443 24000000 		.4byte	.LBB190
 3060 1447 0E000000 		.4byte	.LBE190-.LBB190
 3061 144b 01       		.byte	0x1
 3062 144c 1801     		.2byte	0x118
 3063 144e 72140000 		.4byte	0x1472
 3064 1452 34       		.uleb128 0x34
 3065 1453 15130000 		.4byte	0x1315
 3066 1457 DA020000 		.4byte	.LLST22
 3067 145b 2F       		.uleb128 0x2f
 3068 145c 30000000 		.4byte	.LVL34
 3069 1460 94150000 		.4byte	0x1594
 3070 1464 30       		.uleb128 0x30
 3071 1465 01       		.uleb128 0x1
 3072 1466 51       		.byte	0x51
 3073 1467 02       		.uleb128 0x2
 3074 1468 09       		.byte	0x9
 3075 1469 FF       		.byte	0xff
 3076 146a 30       		.uleb128 0x30
 3077 146b 01       		.uleb128 0x1
 3078 146c 50       		.byte	0x50
ARM GAS  /tmp/cc9De0I0.s 			page 55


 3079 146d 02       		.uleb128 0x2
 3080 146e 74       		.byte	0x74
 3081 146f 14       		.sleb128 20
 3082 1470 00       		.byte	0
 3083 1471 00       		.byte	0
 3084 1472 29       		.uleb128 0x29
 3085 1473 1C0C0000 		.4byte	0xc1c
 3086 1477 32000000 		.4byte	.LBB192
 3087 147b 0A000000 		.4byte	.LBE192-.LBB192
 3088 147f 01       		.byte	0x1
 3089 1480 1901     		.2byte	0x119
 3090 1482 29       		.uleb128 0x29
 3091 1483 170D0000 		.4byte	0xd17
 3092 1487 32000000 		.4byte	.LBB193
 3093 148b 0A000000 		.4byte	.LBE193-.LBB193
 3094 148f 04       		.byte	0x4
 3095 1490 0A02     		.2byte	0x20a
 3096 1492 2D       		.uleb128 0x2d
 3097 1493 32000000 		.4byte	.LBB194
 3098 1497 0A000000 		.4byte	.LBE194-.LBB194
 3099 149b 2E       		.uleb128 0x2e
 3100 149c 240D0000 		.4byte	0xd24
 3101 14a0 2A       		.uleb128 0x2a
 3102 14a1 0A0C0000 		.4byte	0xc0a
 3103 14a5 36000000 		.4byte	.LBB195
 3104 14a9 06000000 		.4byte	.LBE195-.LBB195
 3105 14ad 03       		.byte	0x3
 3106 14ae 7A01     		.2byte	0x17a
 3107 14b0 CC140000 		.4byte	0x14cc
 3108 14b4 29       		.uleb128 0x29
 3109 14b5 E70B0000 		.4byte	0xbe7
 3110 14b9 36000000 		.4byte	.LBB196
 3111 14bd 06000000 		.4byte	.LBE196-.LBB196
 3112 14c1 0E       		.byte	0xe
 3113 14c2 7502     		.2byte	0x275
 3114 14c4 2B       		.uleb128 0x2b
 3115 14c5 F40B0000 		.4byte	0xbf4
 3116 14c9 00       		.byte	0
 3117 14ca 00       		.byte	0
 3118 14cb 00       		.byte	0
 3119 14cc 2C       		.uleb128 0x2c
 3120 14cd 36000000 		.4byte	.LVL36
 3121 14d1 19150000 		.4byte	0x1519
 3122 14d5 00       		.byte	0
 3123 14d6 00       		.byte	0
 3124 14d7 00       		.byte	0
 3125 14d8 00       		.byte	0
 3126 14d9 17       		.uleb128 0x17
 3127 14da F3080000 		.4byte	0x8f3
 3128 14de E9140000 		.4byte	0x14e9
 3129 14e2 18       		.uleb128 0x18
 3130 14e3 7B040000 		.4byte	0x47b
 3131 14e7 0A       		.byte	0xa
 3132 14e8 00       		.byte	0
 3133 14e9 16       		.uleb128 0x16
 3134 14ea D9140000 		.4byte	0x14d9
 3135 14ee 3D       		.uleb128 0x3d
ARM GAS  /tmp/cc9De0I0.s 			page 56


 3136 14ef 19050000 		.4byte	.LASF191
 3137 14f3 17       		.byte	0x17
 3138 14f4 0408     		.2byte	0x804
 3139 14f6 FA140000 		.4byte	0x14fa
 3140 14fa 0F       		.uleb128 0xf
 3141 14fb C3000000 		.4byte	0xc3
 3142 14ff 3E       		.uleb128 0x3e
 3143 1500 636800   		.ascii	"ch\000"
 3144 1503 0A       		.byte	0xa
 3145 1504 C701     		.2byte	0x1c7
 3146 1506 FF030000 		.4byte	0x3ff
 3147 150a 3F       		.uleb128 0x3f
 3148 150b 6E070000 		.4byte	.LASF192
 3149 150f 15       		.byte	0x15
 3150 1510 D901     		.2byte	0x1d9
 3151 1512 40       		.uleb128 0x40
 3152 1513 8F070000 		.4byte	.LASF193
 3153 1517 10       		.byte	0x10
 3154 1518 4F       		.byte	0x4f
 3155 1519 40       		.uleb128 0x40
 3156 151a BA010000 		.4byte	.LASF194
 3157 151e 10       		.byte	0x10
 3158 151f 50       		.byte	0x50
 3159 1520 41       		.uleb128 0x41
 3160 1521 32000000 		.4byte	.LASF195
 3161 1525 15       		.byte	0x15
 3162 1526 DA01     		.2byte	0x1da
 3163 1528 32150000 		.4byte	0x1532
 3164 152c 0D       		.uleb128 0xd
 3165 152d 930B0000 		.4byte	0xb93
 3166 1531 00       		.byte	0
 3167 1532 41       		.uleb128 0x41
 3168 1533 98010000 		.4byte	.LASF196
 3169 1537 15       		.byte	0x15
 3170 1538 DB01     		.2byte	0x1db
 3171 153a 44150000 		.4byte	0x1544
 3172 153e 0D       		.uleb128 0xd
 3173 153f 930B0000 		.4byte	0xb93
 3174 1543 00       		.byte	0
 3175 1544 41       		.uleb128 0x41
 3176 1545 A0040000 		.4byte	.LASF197
 3177 1549 15       		.byte	0x15
 3178 154a DC01     		.2byte	0x1dc
 3179 154c 56150000 		.4byte	0x1556
 3180 1550 0D       		.uleb128 0xd
 3181 1551 930B0000 		.4byte	0xb93
 3182 1555 00       		.byte	0
 3183 1556 42       		.uleb128 0x42
 3184 1557 A5000000 		.4byte	.LASF198
 3185 155b 16       		.byte	0x16
 3186 155c F8       		.byte	0xf8
 3187 155d 6C150000 		.4byte	0x156c
 3188 1561 0D       		.uleb128 0xd
 3189 1562 80080000 		.4byte	0x880
 3190 1566 0D       		.uleb128 0xd
 3191 1567 26010000 		.4byte	0x126
 3192 156b 00       		.byte	0
ARM GAS  /tmp/cc9De0I0.s 			page 57


 3193 156c 41       		.uleb128 0x41
 3194 156d 9B050000 		.4byte	.LASF199
 3195 1571 15       		.byte	0x15
 3196 1572 DD01     		.2byte	0x1dd
 3197 1574 7E150000 		.4byte	0x157e
 3198 1578 0D       		.uleb128 0xd
 3199 1579 930B0000 		.4byte	0xb93
 3200 157d 00       		.byte	0
 3201 157e 42       		.uleb128 0x42
 3202 157f 8F000000 		.4byte	.LASF200
 3203 1583 16       		.byte	0x16
 3204 1584 F7       		.byte	0xf7
 3205 1585 94150000 		.4byte	0x1594
 3206 1589 0D       		.uleb128 0xd
 3207 158a 80080000 		.4byte	0x880
 3208 158e 0D       		.uleb128 0xd
 3209 158f 26010000 		.4byte	0x126
 3210 1593 00       		.byte	0
 3211 1594 43       		.uleb128 0x43
 3212 1595 A5010000 		.4byte	.LASF201
 3213 1599 16       		.byte	0x16
 3214 159a F6       		.byte	0xf6
 3215 159b 26010000 		.4byte	0x126
 3216 159f 0D       		.uleb128 0xd
 3217 15a0 80080000 		.4byte	0x880
 3218 15a4 0D       		.uleb128 0xd
 3219 15a5 70040000 		.4byte	0x470
 3220 15a9 00       		.byte	0
 3221 15aa 00       		.byte	0
 3222              		.section	.debug_abbrev,"",%progbits
 3223              	.Ldebug_abbrev0:
 3224 0000 01       		.uleb128 0x1
 3225 0001 11       		.uleb128 0x11
 3226 0002 01       		.byte	0x1
 3227 0003 25       		.uleb128 0x25
 3228 0004 0E       		.uleb128 0xe
 3229 0005 13       		.uleb128 0x13
 3230 0006 0B       		.uleb128 0xb
 3231 0007 03       		.uleb128 0x3
 3232 0008 0E       		.uleb128 0xe
 3233 0009 1B       		.uleb128 0x1b
 3234 000a 0E       		.uleb128 0xe
 3235 000b 55       		.uleb128 0x55
 3236 000c 17       		.uleb128 0x17
 3237 000d 11       		.uleb128 0x11
 3238 000e 01       		.uleb128 0x1
 3239 000f 10       		.uleb128 0x10
 3240 0010 17       		.uleb128 0x17
 3241 0011 00       		.byte	0
 3242 0012 00       		.byte	0
 3243 0013 02       		.uleb128 0x2
 3244 0014 24       		.uleb128 0x24
 3245 0015 00       		.byte	0
 3246 0016 0B       		.uleb128 0xb
 3247 0017 0B       		.uleb128 0xb
 3248 0018 3E       		.uleb128 0x3e
 3249 0019 0B       		.uleb128 0xb
ARM GAS  /tmp/cc9De0I0.s 			page 58


 3250 001a 03       		.uleb128 0x3
 3251 001b 08       		.uleb128 0x8
 3252 001c 00       		.byte	0
 3253 001d 00       		.byte	0
 3254 001e 03       		.uleb128 0x3
 3255 001f 16       		.uleb128 0x16
 3256 0020 00       		.byte	0
 3257 0021 03       		.uleb128 0x3
 3258 0022 0E       		.uleb128 0xe
 3259 0023 3A       		.uleb128 0x3a
 3260 0024 0B       		.uleb128 0xb
 3261 0025 3B       		.uleb128 0x3b
 3262 0026 0B       		.uleb128 0xb
 3263 0027 49       		.uleb128 0x49
 3264 0028 13       		.uleb128 0x13
 3265 0029 00       		.byte	0
 3266 002a 00       		.byte	0
 3267 002b 04       		.uleb128 0x4
 3268 002c 24       		.uleb128 0x24
 3269 002d 00       		.byte	0
 3270 002e 0B       		.uleb128 0xb
 3271 002f 0B       		.uleb128 0xb
 3272 0030 3E       		.uleb128 0x3e
 3273 0031 0B       		.uleb128 0xb
 3274 0032 03       		.uleb128 0x3
 3275 0033 0E       		.uleb128 0xe
 3276 0034 00       		.byte	0
 3277 0035 00       		.byte	0
 3278 0036 05       		.uleb128 0x5
 3279 0037 13       		.uleb128 0x13
 3280 0038 01       		.byte	0x1
 3281 0039 03       		.uleb128 0x3
 3282 003a 0E       		.uleb128 0xe
 3283 003b 0B       		.uleb128 0xb
 3284 003c 0B       		.uleb128 0xb
 3285 003d 3A       		.uleb128 0x3a
 3286 003e 0B       		.uleb128 0xb
 3287 003f 3B       		.uleb128 0x3b
 3288 0040 0B       		.uleb128 0xb
 3289 0041 01       		.uleb128 0x1
 3290 0042 13       		.uleb128 0x13
 3291 0043 00       		.byte	0
 3292 0044 00       		.byte	0
 3293 0045 06       		.uleb128 0x6
 3294 0046 0D       		.uleb128 0xd
 3295 0047 00       		.byte	0
 3296 0048 03       		.uleb128 0x3
 3297 0049 0E       		.uleb128 0xe
 3298 004a 3A       		.uleb128 0x3a
 3299 004b 0B       		.uleb128 0xb
 3300 004c 3B       		.uleb128 0x3b
 3301 004d 0B       		.uleb128 0xb
 3302 004e 49       		.uleb128 0x49
 3303 004f 13       		.uleb128 0x13
 3304 0050 38       		.uleb128 0x38
 3305 0051 0B       		.uleb128 0xb
 3306 0052 00       		.byte	0
ARM GAS  /tmp/cc9De0I0.s 			page 59


 3307 0053 00       		.byte	0
 3308 0054 07       		.uleb128 0x7
 3309 0055 0D       		.uleb128 0xd
 3310 0056 00       		.byte	0
 3311 0057 03       		.uleb128 0x3
 3312 0058 08       		.uleb128 0x8
 3313 0059 3A       		.uleb128 0x3a
 3314 005a 0B       		.uleb128 0xb
 3315 005b 3B       		.uleb128 0x3b
 3316 005c 0B       		.uleb128 0xb
 3317 005d 49       		.uleb128 0x49
 3318 005e 13       		.uleb128 0x13
 3319 005f 38       		.uleb128 0x38
 3320 0060 0B       		.uleb128 0xb
 3321 0061 00       		.byte	0
 3322 0062 00       		.byte	0
 3323 0063 08       		.uleb128 0x8
 3324 0064 0D       		.uleb128 0xd
 3325 0065 00       		.byte	0
 3326 0066 03       		.uleb128 0x3
 3327 0067 08       		.uleb128 0x8
 3328 0068 3A       		.uleb128 0x3a
 3329 0069 0B       		.uleb128 0xb
 3330 006a 3B       		.uleb128 0x3b
 3331 006b 05       		.uleb128 0x5
 3332 006c 49       		.uleb128 0x49
 3333 006d 13       		.uleb128 0x13
 3334 006e 38       		.uleb128 0x38
 3335 006f 0B       		.uleb128 0xb
 3336 0070 00       		.byte	0
 3337 0071 00       		.byte	0
 3338 0072 09       		.uleb128 0x9
 3339 0073 0D       		.uleb128 0xd
 3340 0074 00       		.byte	0
 3341 0075 03       		.uleb128 0x3
 3342 0076 0E       		.uleb128 0xe
 3343 0077 3A       		.uleb128 0x3a
 3344 0078 0B       		.uleb128 0xb
 3345 0079 3B       		.uleb128 0x3b
 3346 007a 05       		.uleb128 0x5
 3347 007b 49       		.uleb128 0x49
 3348 007c 13       		.uleb128 0x13
 3349 007d 38       		.uleb128 0x38
 3350 007e 0B       		.uleb128 0xb
 3351 007f 00       		.byte	0
 3352 0080 00       		.byte	0
 3353 0081 0A       		.uleb128 0xa
 3354 0082 0F       		.uleb128 0xf
 3355 0083 00       		.byte	0
 3356 0084 0B       		.uleb128 0xb
 3357 0085 0B       		.uleb128 0xb
 3358 0086 49       		.uleb128 0x49
 3359 0087 13       		.uleb128 0x13
 3360 0088 00       		.byte	0
 3361 0089 00       		.byte	0
 3362 008a 0B       		.uleb128 0xb
 3363 008b 13       		.uleb128 0x13
ARM GAS  /tmp/cc9De0I0.s 			page 60


 3364 008c 01       		.byte	0x1
 3365 008d 03       		.uleb128 0x3
 3366 008e 0E       		.uleb128 0xe
 3367 008f 0B       		.uleb128 0xb
 3368 0090 0B       		.uleb128 0xb
 3369 0091 3A       		.uleb128 0x3a
 3370 0092 0B       		.uleb128 0xb
 3371 0093 3B       		.uleb128 0x3b
 3372 0094 05       		.uleb128 0x5
 3373 0095 01       		.uleb128 0x1
 3374 0096 13       		.uleb128 0x13
 3375 0097 00       		.byte	0
 3376 0098 00       		.byte	0
 3377 0099 0C       		.uleb128 0xc
 3378 009a 15       		.uleb128 0x15
 3379 009b 01       		.byte	0x1
 3380 009c 27       		.uleb128 0x27
 3381 009d 19       		.uleb128 0x19
 3382 009e 01       		.uleb128 0x1
 3383 009f 13       		.uleb128 0x13
 3384 00a0 00       		.byte	0
 3385 00a1 00       		.byte	0
 3386 00a2 0D       		.uleb128 0xd
 3387 00a3 05       		.uleb128 0x5
 3388 00a4 00       		.byte	0
 3389 00a5 49       		.uleb128 0x49
 3390 00a6 13       		.uleb128 0x13
 3391 00a7 00       		.byte	0
 3392 00a8 00       		.byte	0
 3393 00a9 0E       		.uleb128 0xe
 3394 00aa 0F       		.uleb128 0xf
 3395 00ab 00       		.byte	0
 3396 00ac 0B       		.uleb128 0xb
 3397 00ad 0B       		.uleb128 0xb
 3398 00ae 00       		.byte	0
 3399 00af 00       		.byte	0
 3400 00b0 0F       		.uleb128 0xf
 3401 00b1 35       		.uleb128 0x35
 3402 00b2 00       		.byte	0
 3403 00b3 49       		.uleb128 0x49
 3404 00b4 13       		.uleb128 0x13
 3405 00b5 00       		.byte	0
 3406 00b6 00       		.byte	0
 3407 00b7 10       		.uleb128 0x10
 3408 00b8 13       		.uleb128 0x13
 3409 00b9 01       		.byte	0x1
 3410 00ba 0B       		.uleb128 0xb
 3411 00bb 0B       		.uleb128 0xb
 3412 00bc 3A       		.uleb128 0x3a
 3413 00bd 0B       		.uleb128 0xb
 3414 00be 3B       		.uleb128 0x3b
 3415 00bf 0B       		.uleb128 0xb
 3416 00c0 01       		.uleb128 0x1
 3417 00c1 13       		.uleb128 0x13
 3418 00c2 00       		.byte	0
 3419 00c3 00       		.byte	0
 3420 00c4 11       		.uleb128 0x11
ARM GAS  /tmp/cc9De0I0.s 			page 61


 3421 00c5 13       		.uleb128 0x13
 3422 00c6 01       		.byte	0x1
 3423 00c7 0B       		.uleb128 0xb
 3424 00c8 0B       		.uleb128 0xb
 3425 00c9 3A       		.uleb128 0x3a
 3426 00ca 0B       		.uleb128 0xb
 3427 00cb 3B       		.uleb128 0x3b
 3428 00cc 05       		.uleb128 0x5
 3429 00cd 01       		.uleb128 0x1
 3430 00ce 13       		.uleb128 0x13
 3431 00cf 00       		.byte	0
 3432 00d0 00       		.byte	0
 3433 00d1 12       		.uleb128 0x12
 3434 00d2 16       		.uleb128 0x16
 3435 00d3 00       		.byte	0
 3436 00d4 03       		.uleb128 0x3
 3437 00d5 0E       		.uleb128 0xe
 3438 00d6 3A       		.uleb128 0x3a
 3439 00d7 0B       		.uleb128 0xb
 3440 00d8 3B       		.uleb128 0x3b
 3441 00d9 05       		.uleb128 0x5
 3442 00da 49       		.uleb128 0x49
 3443 00db 13       		.uleb128 0x13
 3444 00dc 00       		.byte	0
 3445 00dd 00       		.byte	0
 3446 00de 13       		.uleb128 0x13
 3447 00df 17       		.uleb128 0x17
 3448 00e0 01       		.byte	0x1
 3449 00e1 0B       		.uleb128 0xb
 3450 00e2 0B       		.uleb128 0xb
 3451 00e3 3A       		.uleb128 0x3a
 3452 00e4 0B       		.uleb128 0xb
 3453 00e5 3B       		.uleb128 0x3b
 3454 00e6 0B       		.uleb128 0xb
 3455 00e7 01       		.uleb128 0x1
 3456 00e8 13       		.uleb128 0x13
 3457 00e9 00       		.byte	0
 3458 00ea 00       		.byte	0
 3459 00eb 14       		.uleb128 0x14
 3460 00ec 0D       		.uleb128 0xd
 3461 00ed 00       		.byte	0
 3462 00ee 03       		.uleb128 0x3
 3463 00ef 0E       		.uleb128 0xe
 3464 00f0 3A       		.uleb128 0x3a
 3465 00f1 0B       		.uleb128 0xb
 3466 00f2 3B       		.uleb128 0x3b
 3467 00f3 0B       		.uleb128 0xb
 3468 00f4 49       		.uleb128 0x49
 3469 00f5 13       		.uleb128 0x13
 3470 00f6 00       		.byte	0
 3471 00f7 00       		.byte	0
 3472 00f8 15       		.uleb128 0x15
 3473 00f9 0D       		.uleb128 0xd
 3474 00fa 00       		.byte	0
 3475 00fb 03       		.uleb128 0x3
 3476 00fc 0E       		.uleb128 0xe
 3477 00fd 3A       		.uleb128 0x3a
ARM GAS  /tmp/cc9De0I0.s 			page 62


 3478 00fe 0B       		.uleb128 0xb
 3479 00ff 3B       		.uleb128 0x3b
 3480 0100 05       		.uleb128 0x5
 3481 0101 49       		.uleb128 0x49
 3482 0102 13       		.uleb128 0x13
 3483 0103 00       		.byte	0
 3484 0104 00       		.byte	0
 3485 0105 16       		.uleb128 0x16
 3486 0106 26       		.uleb128 0x26
 3487 0107 00       		.byte	0
 3488 0108 49       		.uleb128 0x49
 3489 0109 13       		.uleb128 0x13
 3490 010a 00       		.byte	0
 3491 010b 00       		.byte	0
 3492 010c 17       		.uleb128 0x17
 3493 010d 01       		.uleb128 0x1
 3494 010e 01       		.byte	0x1
 3495 010f 49       		.uleb128 0x49
 3496 0110 13       		.uleb128 0x13
 3497 0111 01       		.uleb128 0x1
 3498 0112 13       		.uleb128 0x13
 3499 0113 00       		.byte	0
 3500 0114 00       		.byte	0
 3501 0115 18       		.uleb128 0x18
 3502 0116 21       		.uleb128 0x21
 3503 0117 00       		.byte	0
 3504 0118 49       		.uleb128 0x49
 3505 0119 13       		.uleb128 0x13
 3506 011a 2F       		.uleb128 0x2f
 3507 011b 0B       		.uleb128 0xb
 3508 011c 00       		.byte	0
 3509 011d 00       		.byte	0
 3510 011e 19       		.uleb128 0x19
 3511 011f 04       		.uleb128 0x4
 3512 0120 01       		.byte	0x1
 3513 0121 0B       		.uleb128 0xb
 3514 0122 0B       		.uleb128 0xb
 3515 0123 3A       		.uleb128 0x3a
 3516 0124 0B       		.uleb128 0xb
 3517 0125 3B       		.uleb128 0x3b
 3518 0126 0B       		.uleb128 0xb
 3519 0127 01       		.uleb128 0x1
 3520 0128 13       		.uleb128 0x13
 3521 0129 00       		.byte	0
 3522 012a 00       		.byte	0
 3523 012b 1A       		.uleb128 0x1a
 3524 012c 28       		.uleb128 0x28
 3525 012d 00       		.byte	0
 3526 012e 03       		.uleb128 0x3
 3527 012f 0E       		.uleb128 0xe
 3528 0130 1C       		.uleb128 0x1c
 3529 0131 0D       		.uleb128 0xd
 3530 0132 00       		.byte	0
 3531 0133 00       		.byte	0
 3532 0134 1B       		.uleb128 0x1b
 3533 0135 04       		.uleb128 0x4
 3534 0136 01       		.byte	0x1
ARM GAS  /tmp/cc9De0I0.s 			page 63


 3535 0137 0B       		.uleb128 0xb
 3536 0138 0B       		.uleb128 0xb
 3537 0139 3A       		.uleb128 0x3a
 3538 013a 0B       		.uleb128 0xb
 3539 013b 3B       		.uleb128 0x3b
 3540 013c 05       		.uleb128 0x5
 3541 013d 01       		.uleb128 0x1
 3542 013e 13       		.uleb128 0x13
 3543 013f 00       		.byte	0
 3544 0140 00       		.byte	0
 3545 0141 1C       		.uleb128 0x1c
 3546 0142 2E       		.uleb128 0x2e
 3547 0143 01       		.byte	0x1
 3548 0144 03       		.uleb128 0x3
 3549 0145 0E       		.uleb128 0xe
 3550 0146 3A       		.uleb128 0x3a
 3551 0147 0B       		.uleb128 0xb
 3552 0148 3B       		.uleb128 0x3b
 3553 0149 05       		.uleb128 0x5
 3554 014a 27       		.uleb128 0x27
 3555 014b 19       		.uleb128 0x19
 3556 014c 20       		.uleb128 0x20
 3557 014d 0B       		.uleb128 0xb
 3558 014e 01       		.uleb128 0x1
 3559 014f 13       		.uleb128 0x13
 3560 0150 00       		.byte	0
 3561 0151 00       		.byte	0
 3562 0152 1D       		.uleb128 0x1d
 3563 0153 05       		.uleb128 0x5
 3564 0154 00       		.byte	0
 3565 0155 03       		.uleb128 0x3
 3566 0156 0E       		.uleb128 0xe
 3567 0157 3A       		.uleb128 0x3a
 3568 0158 0B       		.uleb128 0xb
 3569 0159 3B       		.uleb128 0x3b
 3570 015a 05       		.uleb128 0x5
 3571 015b 49       		.uleb128 0x49
 3572 015c 13       		.uleb128 0x13
 3573 015d 00       		.byte	0
 3574 015e 00       		.byte	0
 3575 015f 1E       		.uleb128 0x1e
 3576 0160 2E       		.uleb128 0x2e
 3577 0161 00       		.byte	0
 3578 0162 03       		.uleb128 0x3
 3579 0163 0E       		.uleb128 0xe
 3580 0164 3A       		.uleb128 0x3a
 3581 0165 0B       		.uleb128 0xb
 3582 0166 3B       		.uleb128 0x3b
 3583 0167 05       		.uleb128 0x5
 3584 0168 27       		.uleb128 0x27
 3585 0169 19       		.uleb128 0x19
 3586 016a 20       		.uleb128 0x20
 3587 016b 0B       		.uleb128 0xb
 3588 016c 00       		.byte	0
 3589 016d 00       		.byte	0
 3590 016e 1F       		.uleb128 0x1f
 3591 016f 2E       		.uleb128 0x2e
ARM GAS  /tmp/cc9De0I0.s 			page 64


 3592 0170 01       		.byte	0x1
 3593 0171 3F       		.uleb128 0x3f
 3594 0172 19       		.uleb128 0x19
 3595 0173 03       		.uleb128 0x3
 3596 0174 0E       		.uleb128 0xe
 3597 0175 3A       		.uleb128 0x3a
 3598 0176 0B       		.uleb128 0xb
 3599 0177 3B       		.uleb128 0x3b
 3600 0178 0B       		.uleb128 0xb
 3601 0179 27       		.uleb128 0x27
 3602 017a 19       		.uleb128 0x19
 3603 017b 20       		.uleb128 0x20
 3604 017c 0B       		.uleb128 0xb
 3605 017d 01       		.uleb128 0x1
 3606 017e 13       		.uleb128 0x13
 3607 017f 00       		.byte	0
 3608 0180 00       		.byte	0
 3609 0181 20       		.uleb128 0x20
 3610 0182 05       		.uleb128 0x5
 3611 0183 00       		.byte	0
 3612 0184 03       		.uleb128 0x3
 3613 0185 0E       		.uleb128 0xe
 3614 0186 3A       		.uleb128 0x3a
 3615 0187 0B       		.uleb128 0xb
 3616 0188 3B       		.uleb128 0x3b
 3617 0189 0B       		.uleb128 0xb
 3618 018a 49       		.uleb128 0x49
 3619 018b 13       		.uleb128 0x13
 3620 018c 00       		.byte	0
 3621 018d 00       		.byte	0
 3622 018e 21       		.uleb128 0x21
 3623 018f 34       		.uleb128 0x34
 3624 0190 00       		.byte	0
 3625 0191 03       		.uleb128 0x3
 3626 0192 0E       		.uleb128 0xe
 3627 0193 49       		.uleb128 0x49
 3628 0194 13       		.uleb128 0x13
 3629 0195 34       		.uleb128 0x34
 3630 0196 19       		.uleb128 0x19
 3631 0197 1C       		.uleb128 0x1c
 3632 0198 0E       		.uleb128 0xe
 3633 0199 00       		.byte	0
 3634 019a 00       		.byte	0
 3635 019b 22       		.uleb128 0x22
 3636 019c 05       		.uleb128 0x5
 3637 019d 00       		.byte	0
 3638 019e 03       		.uleb128 0x3
 3639 019f 08       		.uleb128 0x8
 3640 01a0 3A       		.uleb128 0x3a
 3641 01a1 0B       		.uleb128 0xb
 3642 01a2 3B       		.uleb128 0x3b
 3643 01a3 05       		.uleb128 0x5
 3644 01a4 49       		.uleb128 0x49
 3645 01a5 13       		.uleb128 0x13
 3646 01a6 00       		.byte	0
 3647 01a7 00       		.byte	0
 3648 01a8 23       		.uleb128 0x23
ARM GAS  /tmp/cc9De0I0.s 			page 65


 3649 01a9 2E       		.uleb128 0x2e
 3650 01aa 01       		.byte	0x1
 3651 01ab 3F       		.uleb128 0x3f
 3652 01ac 19       		.uleb128 0x19
 3653 01ad 03       		.uleb128 0x3
 3654 01ae 0E       		.uleb128 0xe
 3655 01af 3A       		.uleb128 0x3a
 3656 01b0 0B       		.uleb128 0xb
 3657 01b1 3B       		.uleb128 0x3b
 3658 01b2 0B       		.uleb128 0xb
 3659 01b3 27       		.uleb128 0x27
 3660 01b4 19       		.uleb128 0x19
 3661 01b5 11       		.uleb128 0x11
 3662 01b6 01       		.uleb128 0x1
 3663 01b7 12       		.uleb128 0x12
 3664 01b8 06       		.uleb128 0x6
 3665 01b9 40       		.uleb128 0x40
 3666 01ba 18       		.uleb128 0x18
 3667 01bb 9742     		.uleb128 0x2117
 3668 01bd 19       		.uleb128 0x19
 3669 01be 01       		.uleb128 0x1
 3670 01bf 13       		.uleb128 0x13
 3671 01c0 00       		.byte	0
 3672 01c1 00       		.byte	0
 3673 01c2 24       		.uleb128 0x24
 3674 01c3 898201   		.uleb128 0x4109
 3675 01c6 00       		.byte	0
 3676 01c7 11       		.uleb128 0x11
 3677 01c8 01       		.uleb128 0x1
 3678 01c9 9542     		.uleb128 0x2115
 3679 01cb 19       		.uleb128 0x19
 3680 01cc 31       		.uleb128 0x31
 3681 01cd 13       		.uleb128 0x13
 3682 01ce 00       		.byte	0
 3683 01cf 00       		.byte	0
 3684 01d0 25       		.uleb128 0x25
 3685 01d1 05       		.uleb128 0x5
 3686 01d2 00       		.byte	0
 3687 01d3 03       		.uleb128 0x3
 3688 01d4 0E       		.uleb128 0xe
 3689 01d5 3A       		.uleb128 0x3a
 3690 01d6 0B       		.uleb128 0xb
 3691 01d7 3B       		.uleb128 0x3b
 3692 01d8 0B       		.uleb128 0xb
 3693 01d9 49       		.uleb128 0x49
 3694 01da 13       		.uleb128 0x13
 3695 01db 02       		.uleb128 0x2
 3696 01dc 18       		.uleb128 0x18
 3697 01dd 00       		.byte	0
 3698 01de 00       		.byte	0
 3699 01df 26       		.uleb128 0x26
 3700 01e0 05       		.uleb128 0x5
 3701 01e1 00       		.byte	0
 3702 01e2 03       		.uleb128 0x3
 3703 01e3 0E       		.uleb128 0xe
 3704 01e4 3A       		.uleb128 0x3a
 3705 01e5 0B       		.uleb128 0xb
ARM GAS  /tmp/cc9De0I0.s 			page 66


 3706 01e6 3B       		.uleb128 0x3b
 3707 01e7 0B       		.uleb128 0xb
 3708 01e8 49       		.uleb128 0x49
 3709 01e9 13       		.uleb128 0x13
 3710 01ea 02       		.uleb128 0x2
 3711 01eb 17       		.uleb128 0x17
 3712 01ec 00       		.byte	0
 3713 01ed 00       		.byte	0
 3714 01ee 27       		.uleb128 0x27
 3715 01ef 34       		.uleb128 0x34
 3716 01f0 00       		.byte	0
 3717 01f1 03       		.uleb128 0x3
 3718 01f2 0E       		.uleb128 0xe
 3719 01f3 49       		.uleb128 0x49
 3720 01f4 13       		.uleb128 0x13
 3721 01f5 34       		.uleb128 0x34
 3722 01f6 19       		.uleb128 0x19
 3723 01f7 00       		.byte	0
 3724 01f8 00       		.byte	0
 3725 01f9 28       		.uleb128 0x28
 3726 01fa 1D       		.uleb128 0x1d
 3727 01fb 01       		.byte	0x1
 3728 01fc 31       		.uleb128 0x31
 3729 01fd 13       		.uleb128 0x13
 3730 01fe 11       		.uleb128 0x11
 3731 01ff 01       		.uleb128 0x1
 3732 0200 12       		.uleb128 0x12
 3733 0201 06       		.uleb128 0x6
 3734 0202 58       		.uleb128 0x58
 3735 0203 0B       		.uleb128 0xb
 3736 0204 59       		.uleb128 0x59
 3737 0205 0B       		.uleb128 0xb
 3738 0206 01       		.uleb128 0x1
 3739 0207 13       		.uleb128 0x13
 3740 0208 00       		.byte	0
 3741 0209 00       		.byte	0
 3742 020a 29       		.uleb128 0x29
 3743 020b 1D       		.uleb128 0x1d
 3744 020c 01       		.byte	0x1
 3745 020d 31       		.uleb128 0x31
 3746 020e 13       		.uleb128 0x13
 3747 020f 11       		.uleb128 0x11
 3748 0210 01       		.uleb128 0x1
 3749 0211 12       		.uleb128 0x12
 3750 0212 06       		.uleb128 0x6
 3751 0213 58       		.uleb128 0x58
 3752 0214 0B       		.uleb128 0xb
 3753 0215 59       		.uleb128 0x59
 3754 0216 05       		.uleb128 0x5
 3755 0217 00       		.byte	0
 3756 0218 00       		.byte	0
 3757 0219 2A       		.uleb128 0x2a
 3758 021a 1D       		.uleb128 0x1d
 3759 021b 01       		.byte	0x1
 3760 021c 31       		.uleb128 0x31
 3761 021d 13       		.uleb128 0x13
 3762 021e 11       		.uleb128 0x11
ARM GAS  /tmp/cc9De0I0.s 			page 67


 3763 021f 01       		.uleb128 0x1
 3764 0220 12       		.uleb128 0x12
 3765 0221 06       		.uleb128 0x6
 3766 0222 58       		.uleb128 0x58
 3767 0223 0B       		.uleb128 0xb
 3768 0224 59       		.uleb128 0x59
 3769 0225 05       		.uleb128 0x5
 3770 0226 01       		.uleb128 0x1
 3771 0227 13       		.uleb128 0x13
 3772 0228 00       		.byte	0
 3773 0229 00       		.byte	0
 3774 022a 2B       		.uleb128 0x2b
 3775 022b 05       		.uleb128 0x5
 3776 022c 00       		.byte	0
 3777 022d 31       		.uleb128 0x31
 3778 022e 13       		.uleb128 0x13
 3779 022f 1C       		.uleb128 0x1c
 3780 0230 0B       		.uleb128 0xb
 3781 0231 00       		.byte	0
 3782 0232 00       		.byte	0
 3783 0233 2C       		.uleb128 0x2c
 3784 0234 898201   		.uleb128 0x4109
 3785 0237 00       		.byte	0
 3786 0238 11       		.uleb128 0x11
 3787 0239 01       		.uleb128 0x1
 3788 023a 31       		.uleb128 0x31
 3789 023b 13       		.uleb128 0x13
 3790 023c 00       		.byte	0
 3791 023d 00       		.byte	0
 3792 023e 2D       		.uleb128 0x2d
 3793 023f 0B       		.uleb128 0xb
 3794 0240 01       		.byte	0x1
 3795 0241 11       		.uleb128 0x11
 3796 0242 01       		.uleb128 0x1
 3797 0243 12       		.uleb128 0x12
 3798 0244 06       		.uleb128 0x6
 3799 0245 00       		.byte	0
 3800 0246 00       		.byte	0
 3801 0247 2E       		.uleb128 0x2e
 3802 0248 34       		.uleb128 0x34
 3803 0249 00       		.byte	0
 3804 024a 31       		.uleb128 0x31
 3805 024b 13       		.uleb128 0x13
 3806 024c 00       		.byte	0
 3807 024d 00       		.byte	0
 3808 024e 2F       		.uleb128 0x2f
 3809 024f 898201   		.uleb128 0x4109
 3810 0252 01       		.byte	0x1
 3811 0253 11       		.uleb128 0x11
 3812 0254 01       		.uleb128 0x1
 3813 0255 31       		.uleb128 0x31
 3814 0256 13       		.uleb128 0x13
 3815 0257 00       		.byte	0
 3816 0258 00       		.byte	0
 3817 0259 30       		.uleb128 0x30
 3818 025a 8A8201   		.uleb128 0x410a
 3819 025d 00       		.byte	0
ARM GAS  /tmp/cc9De0I0.s 			page 68


 3820 025e 02       		.uleb128 0x2
 3821 025f 18       		.uleb128 0x18
 3822 0260 9142     		.uleb128 0x2111
 3823 0262 18       		.uleb128 0x18
 3824 0263 00       		.byte	0
 3825 0264 00       		.byte	0
 3826 0265 31       		.uleb128 0x31
 3827 0266 05       		.uleb128 0x5
 3828 0267 00       		.byte	0
 3829 0268 31       		.uleb128 0x31
 3830 0269 13       		.uleb128 0x13
 3831 026a 02       		.uleb128 0x2
 3832 026b 18       		.uleb128 0x18
 3833 026c 00       		.byte	0
 3834 026d 00       		.byte	0
 3835 026e 32       		.uleb128 0x32
 3836 026f 1D       		.uleb128 0x1d
 3837 0270 01       		.byte	0x1
 3838 0271 31       		.uleb128 0x31
 3839 0272 13       		.uleb128 0x13
 3840 0273 11       		.uleb128 0x11
 3841 0274 01       		.uleb128 0x1
 3842 0275 12       		.uleb128 0x12
 3843 0276 06       		.uleb128 0x6
 3844 0277 58       		.uleb128 0x58
 3845 0278 0B       		.uleb128 0xb
 3846 0279 59       		.uleb128 0x59
 3847 027a 0B       		.uleb128 0xb
 3848 027b 00       		.byte	0
 3849 027c 00       		.byte	0
 3850 027d 33       		.uleb128 0x33
 3851 027e 2E       		.uleb128 0x2e
 3852 027f 01       		.byte	0x1
 3853 0280 31       		.uleb128 0x31
 3854 0281 13       		.uleb128 0x13
 3855 0282 11       		.uleb128 0x11
 3856 0283 01       		.uleb128 0x1
 3857 0284 12       		.uleb128 0x12
 3858 0285 06       		.uleb128 0x6
 3859 0286 40       		.uleb128 0x40
 3860 0287 18       		.uleb128 0x18
 3861 0288 9742     		.uleb128 0x2117
 3862 028a 19       		.uleb128 0x19
 3863 028b 01       		.uleb128 0x1
 3864 028c 13       		.uleb128 0x13
 3865 028d 00       		.byte	0
 3866 028e 00       		.byte	0
 3867 028f 34       		.uleb128 0x34
 3868 0290 05       		.uleb128 0x5
 3869 0291 00       		.byte	0
 3870 0292 31       		.uleb128 0x31
 3871 0293 13       		.uleb128 0x13
 3872 0294 02       		.uleb128 0x2
 3873 0295 17       		.uleb128 0x17
 3874 0296 00       		.byte	0
 3875 0297 00       		.byte	0
 3876 0298 35       		.uleb128 0x35
ARM GAS  /tmp/cc9De0I0.s 			page 69


 3877 0299 898201   		.uleb128 0x4109
 3878 029c 01       		.byte	0x1
 3879 029d 11       		.uleb128 0x11
 3880 029e 01       		.uleb128 0x1
 3881 029f 9542     		.uleb128 0x2115
 3882 02a1 19       		.uleb128 0x19
 3883 02a2 31       		.uleb128 0x31
 3884 02a3 13       		.uleb128 0x13
 3885 02a4 00       		.byte	0
 3886 02a5 00       		.byte	0
 3887 02a6 36       		.uleb128 0x36
 3888 02a7 1D       		.uleb128 0x1d
 3889 02a8 01       		.byte	0x1
 3890 02a9 31       		.uleb128 0x31
 3891 02aa 13       		.uleb128 0x13
 3892 02ab 52       		.uleb128 0x52
 3893 02ac 01       		.uleb128 0x1
 3894 02ad 55       		.uleb128 0x55
 3895 02ae 17       		.uleb128 0x17
 3896 02af 58       		.uleb128 0x58
 3897 02b0 0B       		.uleb128 0xb
 3898 02b1 59       		.uleb128 0x59
 3899 02b2 0B       		.uleb128 0xb
 3900 02b3 01       		.uleb128 0x1
 3901 02b4 13       		.uleb128 0x13
 3902 02b5 00       		.byte	0
 3903 02b6 00       		.byte	0
 3904 02b7 37       		.uleb128 0x37
 3905 02b8 1D       		.uleb128 0x1d
 3906 02b9 01       		.byte	0x1
 3907 02ba 31       		.uleb128 0x31
 3908 02bb 13       		.uleb128 0x13
 3909 02bc 52       		.uleb128 0x52
 3910 02bd 01       		.uleb128 0x1
 3911 02be 55       		.uleb128 0x55
 3912 02bf 17       		.uleb128 0x17
 3913 02c0 58       		.uleb128 0x58
 3914 02c1 0B       		.uleb128 0xb
 3915 02c2 59       		.uleb128 0x59
 3916 02c3 05       		.uleb128 0x5
 3917 02c4 00       		.byte	0
 3918 02c5 00       		.byte	0
 3919 02c6 38       		.uleb128 0x38
 3920 02c7 1D       		.uleb128 0x1d
 3921 02c8 01       		.byte	0x1
 3922 02c9 31       		.uleb128 0x31
 3923 02ca 13       		.uleb128 0x13
 3924 02cb 52       		.uleb128 0x52
 3925 02cc 01       		.uleb128 0x1
 3926 02cd 55       		.uleb128 0x55
 3927 02ce 17       		.uleb128 0x17
 3928 02cf 58       		.uleb128 0x58
 3929 02d0 0B       		.uleb128 0xb
 3930 02d1 59       		.uleb128 0x59
 3931 02d2 05       		.uleb128 0x5
 3932 02d3 01       		.uleb128 0x1
 3933 02d4 13       		.uleb128 0x13
ARM GAS  /tmp/cc9De0I0.s 			page 70


 3934 02d5 00       		.byte	0
 3935 02d6 00       		.byte	0
 3936 02d7 39       		.uleb128 0x39
 3937 02d8 2E       		.uleb128 0x2e
 3938 02d9 01       		.byte	0x1
 3939 02da 03       		.uleb128 0x3
 3940 02db 0E       		.uleb128 0xe
 3941 02dc 3A       		.uleb128 0x3a
 3942 02dd 0B       		.uleb128 0xb
 3943 02de 3B       		.uleb128 0x3b
 3944 02df 05       		.uleb128 0x5
 3945 02e0 27       		.uleb128 0x27
 3946 02e1 19       		.uleb128 0x19
 3947 02e2 49       		.uleb128 0x49
 3948 02e3 13       		.uleb128 0x13
 3949 02e4 20       		.uleb128 0x20
 3950 02e5 0B       		.uleb128 0xb
 3951 02e6 01       		.uleb128 0x1
 3952 02e7 13       		.uleb128 0x13
 3953 02e8 00       		.byte	0
 3954 02e9 00       		.byte	0
 3955 02ea 3A       		.uleb128 0x3a
 3956 02eb 2E       		.uleb128 0x2e
 3957 02ec 01       		.byte	0x1
 3958 02ed 3F       		.uleb128 0x3f
 3959 02ee 19       		.uleb128 0x19
 3960 02ef 03       		.uleb128 0x3
 3961 02f0 0E       		.uleb128 0xe
 3962 02f1 3A       		.uleb128 0x3a
 3963 02f2 0B       		.uleb128 0xb
 3964 02f3 3B       		.uleb128 0x3b
 3965 02f4 05       		.uleb128 0x5
 3966 02f5 27       		.uleb128 0x27
 3967 02f6 19       		.uleb128 0x19
 3968 02f7 49       		.uleb128 0x49
 3969 02f8 13       		.uleb128 0x13
 3970 02f9 11       		.uleb128 0x11
 3971 02fa 01       		.uleb128 0x1
 3972 02fb 12       		.uleb128 0x12
 3973 02fc 06       		.uleb128 0x6
 3974 02fd 40       		.uleb128 0x40
 3975 02fe 18       		.uleb128 0x18
 3976 02ff 9742     		.uleb128 0x2117
 3977 0301 19       		.uleb128 0x19
 3978 0302 01       		.uleb128 0x1
 3979 0303 13       		.uleb128 0x13
 3980 0304 00       		.byte	0
 3981 0305 00       		.byte	0
 3982 0306 3B       		.uleb128 0x3b
 3983 0307 05       		.uleb128 0x5
 3984 0308 00       		.byte	0
 3985 0309 03       		.uleb128 0x3
 3986 030a 0E       		.uleb128 0xe
 3987 030b 3A       		.uleb128 0x3a
 3988 030c 0B       		.uleb128 0xb
 3989 030d 3B       		.uleb128 0x3b
 3990 030e 05       		.uleb128 0x5
ARM GAS  /tmp/cc9De0I0.s 			page 71


 3991 030f 49       		.uleb128 0x49
 3992 0310 13       		.uleb128 0x13
 3993 0311 02       		.uleb128 0x2
 3994 0312 17       		.uleb128 0x17
 3995 0313 00       		.byte	0
 3996 0314 00       		.byte	0
 3997 0315 3C       		.uleb128 0x3c
 3998 0316 34       		.uleb128 0x34
 3999 0317 00       		.byte	0
 4000 0318 03       		.uleb128 0x3
 4001 0319 08       		.uleb128 0x8
 4002 031a 3A       		.uleb128 0x3a
 4003 031b 0B       		.uleb128 0xb
 4004 031c 3B       		.uleb128 0x3b
 4005 031d 05       		.uleb128 0x5
 4006 031e 49       		.uleb128 0x49
 4007 031f 13       		.uleb128 0x13
 4008 0320 00       		.byte	0
 4009 0321 00       		.byte	0
 4010 0322 3D       		.uleb128 0x3d
 4011 0323 34       		.uleb128 0x34
 4012 0324 00       		.byte	0
 4013 0325 03       		.uleb128 0x3
 4014 0326 0E       		.uleb128 0xe
 4015 0327 3A       		.uleb128 0x3a
 4016 0328 0B       		.uleb128 0xb
 4017 0329 3B       		.uleb128 0x3b
 4018 032a 05       		.uleb128 0x5
 4019 032b 49       		.uleb128 0x49
 4020 032c 13       		.uleb128 0x13
 4021 032d 3F       		.uleb128 0x3f
 4022 032e 19       		.uleb128 0x19
 4023 032f 3C       		.uleb128 0x3c
 4024 0330 19       		.uleb128 0x19
 4025 0331 00       		.byte	0
 4026 0332 00       		.byte	0
 4027 0333 3E       		.uleb128 0x3e
 4028 0334 34       		.uleb128 0x34
 4029 0335 00       		.byte	0
 4030 0336 03       		.uleb128 0x3
 4031 0337 08       		.uleb128 0x8
 4032 0338 3A       		.uleb128 0x3a
 4033 0339 0B       		.uleb128 0xb
 4034 033a 3B       		.uleb128 0x3b
 4035 033b 05       		.uleb128 0x5
 4036 033c 49       		.uleb128 0x49
 4037 033d 13       		.uleb128 0x13
 4038 033e 3F       		.uleb128 0x3f
 4039 033f 19       		.uleb128 0x19
 4040 0340 3C       		.uleb128 0x3c
 4041 0341 19       		.uleb128 0x19
 4042 0342 00       		.byte	0
 4043 0343 00       		.byte	0
 4044 0344 3F       		.uleb128 0x3f
 4045 0345 2E       		.uleb128 0x2e
 4046 0346 00       		.byte	0
 4047 0347 3F       		.uleb128 0x3f
ARM GAS  /tmp/cc9De0I0.s 			page 72


 4048 0348 19       		.uleb128 0x19
 4049 0349 03       		.uleb128 0x3
 4050 034a 0E       		.uleb128 0xe
 4051 034b 3A       		.uleb128 0x3a
 4052 034c 0B       		.uleb128 0xb
 4053 034d 3B       		.uleb128 0x3b
 4054 034e 05       		.uleb128 0x5
 4055 034f 27       		.uleb128 0x27
 4056 0350 19       		.uleb128 0x19
 4057 0351 3C       		.uleb128 0x3c
 4058 0352 19       		.uleb128 0x19
 4059 0353 00       		.byte	0
 4060 0354 00       		.byte	0
 4061 0355 40       		.uleb128 0x40
 4062 0356 2E       		.uleb128 0x2e
 4063 0357 00       		.byte	0
 4064 0358 3F       		.uleb128 0x3f
 4065 0359 19       		.uleb128 0x19
 4066 035a 03       		.uleb128 0x3
 4067 035b 0E       		.uleb128 0xe
 4068 035c 3A       		.uleb128 0x3a
 4069 035d 0B       		.uleb128 0xb
 4070 035e 3B       		.uleb128 0x3b
 4071 035f 0B       		.uleb128 0xb
 4072 0360 27       		.uleb128 0x27
 4073 0361 19       		.uleb128 0x19
 4074 0362 3C       		.uleb128 0x3c
 4075 0363 19       		.uleb128 0x19
 4076 0364 00       		.byte	0
 4077 0365 00       		.byte	0
 4078 0366 41       		.uleb128 0x41
 4079 0367 2E       		.uleb128 0x2e
 4080 0368 01       		.byte	0x1
 4081 0369 3F       		.uleb128 0x3f
 4082 036a 19       		.uleb128 0x19
 4083 036b 03       		.uleb128 0x3
 4084 036c 0E       		.uleb128 0xe
 4085 036d 3A       		.uleb128 0x3a
 4086 036e 0B       		.uleb128 0xb
 4087 036f 3B       		.uleb128 0x3b
 4088 0370 05       		.uleb128 0x5
 4089 0371 27       		.uleb128 0x27
 4090 0372 19       		.uleb128 0x19
 4091 0373 3C       		.uleb128 0x3c
 4092 0374 19       		.uleb128 0x19
 4093 0375 01       		.uleb128 0x1
 4094 0376 13       		.uleb128 0x13
 4095 0377 00       		.byte	0
 4096 0378 00       		.byte	0
 4097 0379 42       		.uleb128 0x42
 4098 037a 2E       		.uleb128 0x2e
 4099 037b 01       		.byte	0x1
 4100 037c 3F       		.uleb128 0x3f
 4101 037d 19       		.uleb128 0x19
 4102 037e 03       		.uleb128 0x3
 4103 037f 0E       		.uleb128 0xe
 4104 0380 3A       		.uleb128 0x3a
ARM GAS  /tmp/cc9De0I0.s 			page 73


 4105 0381 0B       		.uleb128 0xb
 4106 0382 3B       		.uleb128 0x3b
 4107 0383 0B       		.uleb128 0xb
 4108 0384 27       		.uleb128 0x27
 4109 0385 19       		.uleb128 0x19
 4110 0386 3C       		.uleb128 0x3c
 4111 0387 19       		.uleb128 0x19
 4112 0388 01       		.uleb128 0x1
 4113 0389 13       		.uleb128 0x13
 4114 038a 00       		.byte	0
 4115 038b 00       		.byte	0
 4116 038c 43       		.uleb128 0x43
 4117 038d 2E       		.uleb128 0x2e
 4118 038e 01       		.byte	0x1
 4119 038f 3F       		.uleb128 0x3f
 4120 0390 19       		.uleb128 0x19
 4121 0391 03       		.uleb128 0x3
 4122 0392 0E       		.uleb128 0xe
 4123 0393 3A       		.uleb128 0x3a
 4124 0394 0B       		.uleb128 0xb
 4125 0395 3B       		.uleb128 0x3b
 4126 0396 0B       		.uleb128 0xb
 4127 0397 27       		.uleb128 0x27
 4128 0398 19       		.uleb128 0x19
 4129 0399 49       		.uleb128 0x49
 4130 039a 13       		.uleb128 0x13
 4131 039b 3C       		.uleb128 0x3c
 4132 039c 19       		.uleb128 0x19
 4133 039d 00       		.byte	0
 4134 039e 00       		.byte	0
 4135 039f 00       		.byte	0
 4136              		.section	.debug_loc,"",%progbits
 4137              	.Ldebug_loc0:
 4138              	.LLST0:
 4139 0000 00000000 		.4byte	.LVL2
 4140 0004 0F000000 		.4byte	.LVL3-1
 4141 0008 0100     		.2byte	0x1
 4142 000a 50       		.byte	0x50
 4143 000b 0F000000 		.4byte	.LVL3-1
 4144 000f 28000000 		.4byte	.LFE325
 4145 0013 0100     		.2byte	0x1
 4146 0015 54       		.byte	0x54
 4147 0016 00000000 		.4byte	0
 4148 001a 00000000 		.4byte	0
 4149              	.LLST1:
 4150 001e 00000000 		.4byte	.LVL2
 4151 0022 0F000000 		.4byte	.LVL3-1
 4152 0026 0100     		.2byte	0x1
 4153 0028 51       		.byte	0x51
 4154 0029 0F000000 		.4byte	.LVL3-1
 4155 002d 28000000 		.4byte	.LFE325
 4156 0031 0100     		.2byte	0x1
 4157 0033 55       		.byte	0x55
 4158 0034 00000000 		.4byte	0
 4159 0038 00000000 		.4byte	0
 4160              	.LLST2:
 4161 003c 00000000 		.4byte	.LVL6
ARM GAS  /tmp/cc9De0I0.s 			page 74


 4162 0040 0D000000 		.4byte	.LVL7-1
 4163 0044 0100     		.2byte	0x1
 4164 0046 50       		.byte	0x50
 4165 0047 0D000000 		.4byte	.LVL7-1
 4166 004b 26000000 		.4byte	.LFE326
 4167 004f 0100     		.2byte	0x1
 4168 0051 54       		.byte	0x54
 4169 0052 00000000 		.4byte	0
 4170 0056 00000000 		.4byte	0
 4171              	.LLST3:
 4172 005a 00000000 		.4byte	.LVL10
 4173 005e 13000000 		.4byte	.LVL12-1
 4174 0062 0100     		.2byte	0x1
 4175 0064 50       		.byte	0x50
 4176 0065 13000000 		.4byte	.LVL12-1
 4177 0069 30000000 		.4byte	.LFE327
 4178 006d 0100     		.2byte	0x1
 4179 006f 54       		.byte	0x54
 4180 0070 00000000 		.4byte	0
 4181 0074 00000000 		.4byte	0
 4182              	.LLST4:
 4183 0078 00000000 		.4byte	.LVL10
 4184 007c 13000000 		.4byte	.LVL12-1
 4185 0080 0100     		.2byte	0x1
 4186 0082 51       		.byte	0x51
 4187 0083 13000000 		.4byte	.LVL12-1
 4188 0087 30000000 		.4byte	.LFE327
 4189 008b 0100     		.2byte	0x1
 4190 008d 55       		.byte	0x55
 4191 008e 00000000 		.4byte	0
 4192 0092 00000000 		.4byte	0
 4193              	.LLST5:
 4194 0096 00000000 		.4byte	.LVL10
 4195 009a 13000000 		.4byte	.LVL12-1
 4196 009e 0100     		.2byte	0x1
 4197 00a0 52       		.byte	0x52
 4198 00a1 13000000 		.4byte	.LVL12-1
 4199 00a5 30000000 		.4byte	.LFE327
 4200 00a9 0100     		.2byte	0x1
 4201 00ab 57       		.byte	0x57
 4202 00ac 00000000 		.4byte	0
 4203 00b0 00000000 		.4byte	0
 4204              	.LLST6:
 4205 00b4 00000000 		.4byte	.LVL10
 4206 00b8 0C000000 		.4byte	.LVL11
 4207 00bc 0100     		.2byte	0x1
 4208 00be 53       		.byte	0x53
 4209 00bf 0C000000 		.4byte	.LVL11
 4210 00c3 30000000 		.4byte	.LFE327
 4211 00c7 0100     		.2byte	0x1
 4212 00c9 56       		.byte	0x56
 4213 00ca 00000000 		.4byte	0
 4214 00ce 00000000 		.4byte	0
 4215              	.LLST7:
 4216 00d2 00000000 		.4byte	.LVL15
 4217 00d6 13000000 		.4byte	.LVL17-1
 4218 00da 0100     		.2byte	0x1
ARM GAS  /tmp/cc9De0I0.s 			page 75


 4219 00dc 50       		.byte	0x50
 4220 00dd 13000000 		.4byte	.LVL17-1
 4221 00e1 14000000 		.4byte	.LFE328
 4222 00e5 0400     		.2byte	0x4
 4223 00e7 F3       		.byte	0xf3
 4224 00e8 01       		.uleb128 0x1
 4225 00e9 50       		.byte	0x50
 4226 00ea 9F       		.byte	0x9f
 4227 00eb 00000000 		.4byte	0
 4228 00ef 00000000 		.4byte	0
 4229              	.LLST8:
 4230 00f3 00000000 		.4byte	.LVL15
 4231 00f7 13000000 		.4byte	.LVL17-1
 4232 00fb 0100     		.2byte	0x1
 4233 00fd 51       		.byte	0x51
 4234 00fe 13000000 		.4byte	.LVL17-1
 4235 0102 14000000 		.4byte	.LFE328
 4236 0106 0400     		.2byte	0x4
 4237 0108 F3       		.byte	0xf3
 4238 0109 01       		.uleb128 0x1
 4239 010a 51       		.byte	0x51
 4240 010b 9F       		.byte	0x9f
 4241 010c 00000000 		.4byte	0
 4242 0110 00000000 		.4byte	0
 4243              	.LLST9:
 4244 0114 00000000 		.4byte	.LVL15
 4245 0118 13000000 		.4byte	.LVL17-1
 4246 011c 0100     		.2byte	0x1
 4247 011e 52       		.byte	0x52
 4248 011f 13000000 		.4byte	.LVL17-1
 4249 0123 14000000 		.4byte	.LFE328
 4250 0127 0400     		.2byte	0x4
 4251 0129 F3       		.byte	0xf3
 4252 012a 01       		.uleb128 0x1
 4253 012b 52       		.byte	0x52
 4254 012c 9F       		.byte	0x9f
 4255 012d 00000000 		.4byte	0
 4256 0131 00000000 		.4byte	0
 4257              	.LLST10:
 4258 0135 00000000 		.4byte	.LVL15
 4259 0139 06000000 		.4byte	.LVL16
 4260 013d 0100     		.2byte	0x1
 4261 013f 53       		.byte	0x53
 4262 0140 06000000 		.4byte	.LVL16
 4263 0144 13000000 		.4byte	.LVL17-1
 4264 0148 0200     		.2byte	0x2
 4265 014a 70       		.byte	0x70
 4266 014b 0C       		.sleb128 12
 4267 014c 13000000 		.4byte	.LVL17-1
 4268 0150 14000000 		.4byte	.LFE328
 4269 0154 0400     		.2byte	0x4
 4270 0156 F3       		.byte	0xf3
 4271 0157 01       		.uleb128 0x1
 4272 0158 53       		.byte	0x53
 4273 0159 9F       		.byte	0x9f
 4274 015a 00000000 		.4byte	0
 4275 015e 00000000 		.4byte	0
ARM GAS  /tmp/cc9De0I0.s 			page 76


 4276              	.LLST11:
 4277 0162 00000000 		.4byte	.LVL18
 4278 0166 0D000000 		.4byte	.LVL19-1
 4279 016a 0100     		.2byte	0x1
 4280 016c 50       		.byte	0x50
 4281 016d 0D000000 		.4byte	.LVL19-1
 4282 0171 3A000000 		.4byte	.LFE329
 4283 0175 0100     		.2byte	0x1
 4284 0177 54       		.byte	0x54
 4285 0178 00000000 		.4byte	0
 4286 017c 00000000 		.4byte	0
 4287              	.LLST12:
 4288 0180 26000000 		.4byte	.LVL21
 4289 0184 2E000000 		.4byte	.LVL22
 4290 0188 0300     		.2byte	0x3
 4291 018a 09       		.byte	0x9
 4292 018b FE       		.byte	0xfe
 4293 018c 9F       		.byte	0x9f
 4294 018d 00000000 		.4byte	0
 4295 0191 00000000 		.4byte	0
 4296              	.LLST13:
 4297 0195 26000000 		.4byte	.LVL21
 4298 0199 2E000000 		.4byte	.LVL22
 4299 019d 0300     		.2byte	0x3
 4300 019f 74       		.byte	0x74
 4301 01a0 14       		.sleb128 20
 4302 01a1 9F       		.byte	0x9f
 4303 01a2 00000000 		.4byte	0
 4304 01a6 00000000 		.4byte	0
 4305              	.LLST14:
 4306 01aa 00000000 		.4byte	.LVL24
 4307 01ae 0D000000 		.4byte	.LVL25-1
 4308 01b2 0100     		.2byte	0x1
 4309 01b4 50       		.byte	0x50
 4310 01b5 0D000000 		.4byte	.LVL25-1
 4311 01b9 22000000 		.4byte	.LVL27
 4312 01bd 0100     		.2byte	0x1
 4313 01bf 54       		.byte	0x54
 4314 01c0 22000000 		.4byte	.LVL27
 4315 01c4 25000000 		.4byte	.LVL28-1
 4316 01c8 0300     		.2byte	0x3
 4317 01ca 70       		.byte	0x70
 4318 01cb 6C       		.sleb128 -20
 4319 01cc 9F       		.byte	0x9f
 4320 01cd 25000000 		.4byte	.LVL28-1
 4321 01d1 26000000 		.4byte	.LVL28
 4322 01d5 0400     		.2byte	0x4
 4323 01d7 F3       		.byte	0xf3
 4324 01d8 01       		.uleb128 0x1
 4325 01d9 50       		.byte	0x50
 4326 01da 9F       		.byte	0x9f
 4327 01db 26000000 		.4byte	.LVL28
 4328 01df 28000000 		.4byte	.LFE330
 4329 01e3 0100     		.2byte	0x1
 4330 01e5 50       		.byte	0x50
 4331 01e6 00000000 		.4byte	0
 4332 01ea 00000000 		.4byte	0
ARM GAS  /tmp/cc9De0I0.s 			page 77


 4333              	.LLST15:
 4334 01ee 1A000000 		.4byte	.LVL26
 4335 01f2 26000000 		.4byte	.LVL28
 4336 01f6 0300     		.2byte	0x3
 4337 01f8 09       		.byte	0x9
 4338 01f9 FE       		.byte	0xfe
 4339 01fa 9F       		.byte	0x9f
 4340 01fb 00000000 		.4byte	0
 4341 01ff 00000000 		.4byte	0
 4342              	.LLST16:
 4343 0203 1A000000 		.4byte	.LVL26
 4344 0207 22000000 		.4byte	.LVL27
 4345 020b 0300     		.2byte	0x3
 4346 020d 74       		.byte	0x74
 4347 020e 14       		.sleb128 20
 4348 020f 9F       		.byte	0x9f
 4349 0210 22000000 		.4byte	.LVL27
 4350 0214 25000000 		.4byte	.LVL28-1
 4351 0218 0100     		.2byte	0x1
 4352 021a 50       		.byte	0x50
 4353 021b 25000000 		.4byte	.LVL28-1
 4354 021f 26000000 		.4byte	.LVL28
 4355 0223 0600     		.2byte	0x6
 4356 0225 F3       		.byte	0xf3
 4357 0226 01       		.uleb128 0x1
 4358 0227 50       		.byte	0x50
 4359 0228 23       		.byte	0x23
 4360 0229 14       		.uleb128 0x14
 4361 022a 9F       		.byte	0x9f
 4362 022b 00000000 		.4byte	0
 4363 022f 00000000 		.4byte	0
 4364              	.LLST17:
 4365 0233 00000000 		.4byte	.LVL29
 4366 0237 13000000 		.4byte	.LVL31-1
 4367 023b 0100     		.2byte	0x1
 4368 023d 50       		.byte	0x50
 4369 023e 13000000 		.4byte	.LVL31-1
 4370 0242 32000000 		.4byte	.LVL35
 4371 0246 0100     		.2byte	0x1
 4372 0248 54       		.byte	0x54
 4373 0249 32000000 		.4byte	.LVL35
 4374 024d 40000000 		.4byte	.LFE331
 4375 0251 0400     		.2byte	0x4
 4376 0253 F3       		.byte	0xf3
 4377 0254 01       		.uleb128 0x1
 4378 0255 50       		.byte	0x50
 4379 0256 9F       		.byte	0x9f
 4380 0257 00000000 		.4byte	0
 4381 025b 00000000 		.4byte	0
 4382              	.LLST18:
 4383 025f 00000000 		.4byte	.LVL29
 4384 0263 13000000 		.4byte	.LVL31-1
 4385 0267 0100     		.2byte	0x1
 4386 0269 51       		.byte	0x51
 4387 026a 13000000 		.4byte	.LVL31-1
 4388 026e 40000000 		.4byte	.LFE331
 4389 0272 0100     		.2byte	0x1
ARM GAS  /tmp/cc9De0I0.s 			page 78


 4390 0274 55       		.byte	0x55
 4391 0275 00000000 		.4byte	0
 4392 0279 00000000 		.4byte	0
 4393              	.LLST19:
 4394 027d 00000000 		.4byte	.LVL29
 4395 0281 13000000 		.4byte	.LVL31-1
 4396 0285 0100     		.2byte	0x1
 4397 0287 52       		.byte	0x52
 4398 0288 13000000 		.4byte	.LVL31-1
 4399 028c 40000000 		.4byte	.LFE331
 4400 0290 0100     		.2byte	0x1
 4401 0292 57       		.byte	0x57
 4402 0293 00000000 		.4byte	0
 4403 0297 00000000 		.4byte	0
 4404              	.LLST20:
 4405 029b 00000000 		.4byte	.LVL29
 4406 029f 0C000000 		.4byte	.LVL30
 4407 02a3 0100     		.2byte	0x1
 4408 02a5 53       		.byte	0x53
 4409 02a6 0C000000 		.4byte	.LVL30
 4410 02aa 40000000 		.4byte	.LFE331
 4411 02ae 0100     		.2byte	0x1
 4412 02b0 56       		.byte	0x56
 4413 02b1 00000000 		.4byte	0
 4414 02b5 00000000 		.4byte	0
 4415              	.LLST21:
 4416 02b9 14000000 		.4byte	.LVL31
 4417 02bd 32000000 		.4byte	.LVL35
 4418 02c1 0100     		.2byte	0x1
 4419 02c3 54       		.byte	0x54
 4420 02c4 32000000 		.4byte	.LVL35
 4421 02c8 40000000 		.4byte	.LFE331
 4422 02cc 0400     		.2byte	0x4
 4423 02ce F3       		.byte	0xf3
 4424 02cf 01       		.uleb128 0x1
 4425 02d0 50       		.byte	0x50
 4426 02d1 9F       		.byte	0x9f
 4427 02d2 00000000 		.4byte	0
 4428 02d6 00000000 		.4byte	0
 4429              	.LLST22:
 4430 02da 24000000 		.4byte	.LVL32
 4431 02de 2C000000 		.4byte	.LVL33
 4432 02e2 0300     		.2byte	0x3
 4433 02e4 74       		.byte	0x74
 4434 02e5 14       		.sleb128 20
 4435 02e6 9F       		.byte	0x9f
 4436 02e7 2C000000 		.4byte	.LVL33
 4437 02eb 2F000000 		.4byte	.LVL34-1
 4438 02ef 0100     		.2byte	0x1
 4439 02f1 50       		.byte	0x50
 4440 02f2 2F000000 		.4byte	.LVL34-1
 4441 02f6 32000000 		.4byte	.LVL35
 4442 02fa 0300     		.2byte	0x3
 4443 02fc 74       		.byte	0x74
 4444 02fd 14       		.sleb128 20
 4445 02fe 9F       		.byte	0x9f
 4446 02ff 32000000 		.4byte	.LVL35
ARM GAS  /tmp/cc9De0I0.s 			page 79


 4447 0303 40000000 		.4byte	.LFE331
 4448 0307 0600     		.2byte	0x6
 4449 0309 F3       		.byte	0xf3
 4450 030a 01       		.uleb128 0x1
 4451 030b 50       		.byte	0x50
 4452 030c 23       		.byte	0x23
 4453 030d 14       		.uleb128 0x14
 4454 030e 9F       		.byte	0x9f
 4455 030f 00000000 		.4byte	0
 4456 0313 00000000 		.4byte	0
 4457              		.section	.debug_aranges,"",%progbits
 4458 0000 5C000000 		.4byte	0x5c
 4459 0004 0200     		.2byte	0x2
 4460 0006 00000000 		.4byte	.Ldebug_info0
 4461 000a 04       		.byte	0x4
 4462 000b 00       		.byte	0
 4463 000c 0000     		.2byte	0
 4464 000e 0000     		.2byte	0
 4465 0010 00000000 		.4byte	.LFB323
 4466 0014 04000000 		.4byte	.LFE323-.LFB323
 4467 0018 00000000 		.4byte	.LFB324
 4468 001c 12000000 		.4byte	.LFE324-.LFB324
 4469 0020 00000000 		.4byte	.LFB325
 4470 0024 28000000 		.4byte	.LFE325-.LFB325
 4471 0028 00000000 		.4byte	.LFB326
 4472 002c 26000000 		.4byte	.LFE326-.LFB326
 4473 0030 00000000 		.4byte	.LFB327
 4474 0034 30000000 		.4byte	.LFE327-.LFB327
 4475 0038 00000000 		.4byte	.LFB328
 4476 003c 14000000 		.4byte	.LFE328-.LFB328
 4477 0040 00000000 		.4byte	.LFB329
 4478 0044 3A000000 		.4byte	.LFE329-.LFB329
 4479 0048 00000000 		.4byte	.LFB330
 4480 004c 28000000 		.4byte	.LFE330-.LFB330
 4481 0050 00000000 		.4byte	.LFB331
 4482 0054 40000000 		.4byte	.LFE331-.LFB331
 4483 0058 00000000 		.4byte	0
 4484 005c 00000000 		.4byte	0
 4485              		.section	.debug_ranges,"",%progbits
 4486              	.Ldebug_ranges0:
 4487 0000 02000000 		.4byte	.LBB140
 4488 0004 04000000 		.4byte	.LBE140
 4489 0008 06000000 		.4byte	.LBB151
 4490 000c 0E000000 		.4byte	.LBE151
 4491 0010 00000000 		.4byte	0
 4492 0014 00000000 		.4byte	0
 4493 0018 02000000 		.4byte	.LBB143
 4494 001c 04000000 		.4byte	.LBE143
 4495 0020 06000000 		.4byte	.LBB148
 4496 0024 0A000000 		.4byte	.LBE148
 4497 0028 00000000 		.4byte	0
 4498 002c 00000000 		.4byte	0
 4499 0030 1A000000 		.4byte	.LBB160
 4500 0034 1E000000 		.4byte	.LBE160
 4501 0038 22000000 		.4byte	.LBB163
 4502 003c 28000000 		.4byte	.LBE163
 4503 0040 00000000 		.4byte	0
ARM GAS  /tmp/cc9De0I0.s 			page 80


 4504 0044 00000000 		.4byte	0
 4505 0048 00000000 		.4byte	.LFB323
 4506 004c 04000000 		.4byte	.LFE323
 4507 0050 00000000 		.4byte	.LFB324
 4508 0054 12000000 		.4byte	.LFE324
 4509 0058 00000000 		.4byte	.LFB325
 4510 005c 28000000 		.4byte	.LFE325
 4511 0060 00000000 		.4byte	.LFB326
 4512 0064 26000000 		.4byte	.LFE326
 4513 0068 00000000 		.4byte	.LFB327
 4514 006c 30000000 		.4byte	.LFE327
 4515 0070 00000000 		.4byte	.LFB328
 4516 0074 14000000 		.4byte	.LFE328
 4517 0078 00000000 		.4byte	.LFB329
 4518 007c 3A000000 		.4byte	.LFE329
 4519 0080 00000000 		.4byte	.LFB330
 4520 0084 28000000 		.4byte	.LFE330
 4521 0088 00000000 		.4byte	.LFB331
 4522 008c 40000000 		.4byte	.LFE331
 4523 0090 00000000 		.4byte	0
 4524 0094 00000000 		.4byte	0
 4525              		.section	.debug_line,"",%progbits
 4526              	.Ldebug_line0:
 4527 0000 03050000 		.section	.debug_str,"MS",%progbits,1
 4527      02007003 
 4527      00000201 
 4527      FB0E0D00 
 4527      01010101 
 4528              	.LASF95:
 4529 0000 4D314152 		.ascii	"M1AR\000"
 4529      00
 4530              	.LASF133:
 4531 0005 73746D33 		.ascii	"stm32_dma_stream_t\000"
 4531      325F646D 
 4531      615F7374 
 4531      7265616D 
 4531      5F7400
 4532              	.LASF2:
 4533 0018 73697A65 		.ascii	"size_t\000"
 4533      5F7400
 4534              	.LASF160:
 4535 001f 73717231 		.ascii	"sqr1\000"
 4535      00
 4536              	.LASF161:
 4537 0024 73717232 		.ascii	"sqr2\000"
 4537      00
 4538              	.LASF77:
 4539 0029 73697A65 		.ascii	"sizetype\000"
 4539      74797065 
 4539      00
 4540              	.LASF195:
 4541 0032 6164635F 		.ascii	"adc_lld_start\000"
 4541      6C6C645F 
 4541      73746172 
 4541      7400
 4542              	.LASF118:
 4543 0040 77747365 		.ascii	"wtsemp\000"
ARM GAS  /tmp/cc9De0I0.s 			page 81


 4543      6D7000
 4544              	.LASF75:
 4545 0047 73797374 		.ascii	"systime_t\000"
 4545      696D655F 
 4545      7400
 4546              	.LASF123:
 4547 0051 6F776E65 		.ascii	"owner\000"
 4547      7200
 4548              	.LASF25:
 4549 0057 74707269 		.ascii	"tprio_t\000"
 4549      6F5F7400 
 4550              	.LASF169:
 4551 005f 61646363 		.ascii	"adccallback_t\000"
 4551      616C6C62 
 4551      61636B5F 
 4551      7400
 4552              	.LASF84:
 4553 006d 53515231 		.ascii	"SQR1\000"
 4553      00
 4554              	.LASF85:
 4555 0072 53515232 		.ascii	"SQR2\000"
 4555      00
 4556              	.LASF86:
 4557 0077 53515233 		.ascii	"SQR3\000"
 4557      00
 4558              	.LASF17:
 4559 007c 696E7433 		.ascii	"int32_t\000"
 4559      325F7400 
 4560              	.LASF140:
 4561 0084 61646373 		.ascii	"adcstate_t\000"
 4561      74617465 
 4561      5F7400
 4562              	.LASF200:
 4563 008f 63685468 		.ascii	"chThdResumeI\000"
 4563      64526573 
 4563      756D6549 
 4563      00
 4564              	.LASF58:
 4565 009c 76746675 		.ascii	"vtfunc_t\000"
 4565      6E635F74 
 4565      00
 4566              	.LASF198:
 4567 00a5 63685468 		.ascii	"chThdResumeS\000"
 4567      64526573 
 4567      756D6553 
 4567      00
 4568              	.LASF64:
 4569 00b2 63685F76 		.ascii	"ch_virtual_timers_list\000"
 4569      69727475 
 4569      616C5F74 
 4569      696D6572 
 4569      735F6C69 
 4570              	.LASF184:
 4571 00c9 5F5F6675 		.ascii	"__func__\000"
 4571      6E635F5F 
 4571      00
 4572              	.LASF205:
ARM GAS  /tmp/cc9De0I0.s 			page 82


 4573 00d2 6F73616C 		.ascii	"osalThreadSuspendS\000"
 4573      54687265 
 4573      61645375 
 4573      7370656E 
 4573      645300
 4574              	.LASF143:
 4575 00e5 636F6E66 		.ascii	"config\000"
 4575      696700
 4576              	.LASF37:
 4577 00ec 73746174 		.ascii	"state\000"
 4577      6500
 4578              	.LASF46:
 4579 00f2 73746174 		.ascii	"stats\000"
 4579      7300
 4580              	.LASF157:
 4581 00f8 6572726F 		.ascii	"error_cb\000"
 4581      725F6362 
 4581      00
 4582              	.LASF32:
 4583 0101 7072696F 		.ascii	"prio\000"
 4583      00
 4584              	.LASF174:
 4585 0106 6F73616C 		.ascii	"osalSysUnlock\000"
 4585      53797355 
 4585      6E6C6F63 
 4585      6B00
 4586              	.LASF179:
 4587 0114 6F73616C 		.ascii	"osalThreadResumeI\000"
 4587      54687265 
 4587      61645265 
 4587      73756D65 
 4587      4900
 4588              	.LASF156:
 4589 0126 656E645F 		.ascii	"end_cb\000"
 4589      636200
 4590              	.LASF114:
 4591 012d 65786974 		.ascii	"exitcode\000"
 4591      636F6465 
 4591      00
 4592              	.LASF178:
 4593 0136 6F73616C 		.ascii	"osalThreadResumeS\000"
 4593      54687265 
 4593      61645265 
 4593      73756D65 
 4593      5300
 4594              	.LASF3:
 4595 0148 5F5F7569 		.ascii	"__uint8_t\000"
 4595      6E74385F 
 4595      7400
 4596              	.LASF9:
 4597 0152 6C6F6E67 		.ascii	"long int\000"
 4597      20696E74 
 4597      00
 4598              	.LASF172:
 4599 015b 706F7274 		.ascii	"port_unlock\000"
 4599      5F756E6C 
 4599      6F636B00 
ARM GAS  /tmp/cc9De0I0.s 			page 83


 4600              	.LASF23:
 4601 0167 74737461 		.ascii	"tstate_t\000"
 4601      74655F74 
 4601      00
 4602              	.LASF21:
 4603 0170 72747469 		.ascii	"rttime_t\000"
 4603      6D655F74 
 4603      00
 4604              	.LASF52:
 4605 0179 74687265 		.ascii	"threads_queue_t\000"
 4605      6164735F 
 4605      71756575 
 4605      655F7400 
 4606              	.LASF130:
 4607 0189 73686966 		.ascii	"shift\000"
 4607      7400
 4608              	.LASF97:
 4609 018f 72656761 		.ascii	"regarm_t\000"
 4609      726D5F74 
 4609      00
 4610              	.LASF196:
 4611 0198 6164635F 		.ascii	"adc_lld_stop\000"
 4611      6C6C645F 
 4611      73746F70 
 4611      00
 4612              	.LASF201:
 4613 01a5 63685468 		.ascii	"chThdSuspendTimeoutS\000"
 4613      64537573 
 4613      70656E64 
 4613      54696D65 
 4613      6F757453 
 4614              	.LASF194:
 4615 01ba 5F737461 		.ascii	"_stats_stop_measure_crit_thd\000"
 4615      74735F73 
 4615      746F705F 
 4615      6D656173 
 4615      7572655F 
 4616              	.LASF173:
 4617 01d7 6F73616C 		.ascii	"osalSysLock\000"
 4617      5379734C 
 4617      6F636B00 
 4618              	.LASF106:
 4619 01e3 63756D75 		.ascii	"cumulative\000"
 4619      6C617469 
 4619      766500
 4620              	.LASF1:
 4621 01ee 7369676E 		.ascii	"signed char\000"
 4621      65642063 
 4621      68617200 
 4622              	.LASF120:
 4623 01fa 65776D61 		.ascii	"ewmask\000"
 4623      736B00
 4624              	.LASF15:
 4625 0201 75696E74 		.ascii	"uint8_t\000"
 4625      385F7400 
 4626              	.LASF203:
 4627 0209 2E2E2F2E 		.ascii	"../../modules/ChibiOS/os/hal/src/hal_adc.c\000"
ARM GAS  /tmp/cc9De0I0.s 			page 84


 4627      2E2F6D6F 
 4627      64756C65 
 4627      732F4368 
 4627      6962694F 
 4628              	.LASF27:
 4629 0234 6576656E 		.ascii	"eventmask_t\000"
 4629      746D6173 
 4629      6B5F7400 
 4630              	.LASF116:
 4631 0240 77747472 		.ascii	"wttrp\000"
 4631      7000
 4632              	.LASF4:
 4633 0246 756E7369 		.ascii	"unsigned char\000"
 4633      676E6564 
 4633      20636861 
 4633      7200
 4634              	.LASF65:
 4635 0254 6C617374 		.ascii	"lasttime\000"
 4635      74696D65 
 4635      00
 4636              	.LASF68:
 4637 025d 70616E69 		.ascii	"panic_msg\000"
 4637      635F6D73 
 4637      6700
 4638              	.LASF168:
 4639 0267 61646365 		.ascii	"adcerror_t\000"
 4639      72726F72 
 4639      5F7400
 4640              	.LASF134:
 4641 0272 4144435F 		.ascii	"ADC_UNINIT\000"
 4641      554E494E 
 4641      495400
 4642              	.LASF66:
 4643 027d 73797374 		.ascii	"system_debug_t\000"
 4643      656D5F64 
 4643      65627567 
 4643      5F7400
 4644              	.LASF136:
 4645 028c 4144435F 		.ascii	"ADC_READY\000"
 4645      52454144 
 4645      5900
 4646              	.LASF126:
 4647 0296 5F426F6F 		.ascii	"_Bool\000"
 4647      6C00
 4648              	.LASF163:
 4649 029c 61646373 		.ascii	"adcsample_t\000"
 4649      616D706C 
 4649      655F7400 
 4650              	.LASF124:
 4651 02a8 63686172 		.ascii	"char\000"
 4651      00
 4652              	.LASF6:
 4653 02ad 5F5F7569 		.ascii	"__uint16_t\000"
 4653      6E743136 
 4653      5F7400
 4654              	.LASF115:
 4655 02b8 77746F62 		.ascii	"wtobjp\000"
ARM GAS  /tmp/cc9De0I0.s 			page 85


 4655      6A7000
 4656              	.LASF109:
 4657 02bf 6E5F6374 		.ascii	"n_ctxswc\000"
 4657      78737763 
 4657      00
 4658              	.LASF139:
 4659 02c8 4144435F 		.ascii	"ADC_ERROR\000"
 4659      4552524F 
 4659      5200
 4660              	.LASF38:
 4661 02d2 666C6167 		.ascii	"flags\000"
 4661      7300
 4662              	.LASF98:
 4663 02d8 73746B61 		.ascii	"stkalign_t\000"
 4663      6C69676E 
 4663      5F7400
 4664              	.LASF162:
 4665 02e3 73717233 		.ascii	"sqr3\000"
 4665      00
 4666              	.LASF154:
 4667 02e8 63697263 		.ascii	"circular\000"
 4667      756C6172 
 4667      00
 4668              	.LASF185:
 4669 02f1 61646353 		.ascii	"adcStartConversionI\000"
 4669      74617274 
 4669      436F6E76 
 4669      65727369 
 4669      6F6E4900 
 4670              	.LASF45:
 4671 0305 6D706F6F 		.ascii	"mpool\000"
 4671      6C00
 4672              	.LASF165:
 4673 030b 4144435F 		.ascii	"ADC_ERR_DMAFAILURE\000"
 4673      4552525F 
 4673      444D4146 
 4673      41494C55 
 4673      524500
 4674              	.LASF127:
 4675 031e 73747265 		.ascii	"stream\000"
 4675      616D00
 4676              	.LASF104:
 4677 0325 776F7273 		.ascii	"worst\000"
 4677      7400
 4678              	.LASF144:
 4679 032b 73616D70 		.ascii	"samples\000"
 4679      6C657300 
 4680              	.LASF167:
 4681 0333 4144435F 		.ascii	"ADC_ERR_WATCHDOG\000"
 4681      4552525F 
 4681      57415443 
 4681      48444F47 
 4681      00
 4682              	.LASF28:
 4683 0344 636E745F 		.ascii	"cnt_t\000"
 4683      7400
 4684              	.LASF180:
ARM GAS  /tmp/cc9De0I0.s 			page 86


 4685 034a 61646349 		.ascii	"adcInit\000"
 4685      6E697400 
 4686              	.LASF92:
 4687 0352 4144435F 		.ascii	"ADC_TypeDef\000"
 4687      54797065 
 4687      44656600 
 4688              	.LASF82:
 4689 035e 4A4F4652 		.ascii	"JOFR3\000"
 4689      3300
 4690              	.LASF119:
 4691 0364 77746D74 		.ascii	"wtmtxp\000"
 4691      787000
 4692              	.LASF204:
 4693 036b 2F686F6D 		.ascii	"/home/kozinalexey/f4by/ardupilot/build/F4BY\000"
 4693      652F6B6F 
 4693      7A696E61 
 4693      6C657865 
 4693      792F6634 
 4694              	.LASF56:
 4695 0397 63685F72 		.ascii	"ch_ready_list\000"
 4695      65616479 
 4695      5F6C6973 
 4695      7400
 4696              	.LASF110:
 4697 03a5 6D5F6372 		.ascii	"m_crit_thd\000"
 4697      69745F74 
 4697      686400
 4698              	.LASF13:
 4699 03b0 5F5F7569 		.ascii	"__uint64_t\000"
 4699      6E743634 
 4699      5F7400
 4700              	.LASF183:
 4701 03bb 63685379 		.ascii	"chSysUnlock\000"
 4701      73556E6C 
 4701      6F636B00 
 4702              	.LASF11:
 4703 03c7 6C6F6E67 		.ascii	"long unsigned int\000"
 4703      20756E73 
 4703      69676E65 
 4703      6420696E 
 4703      7400
 4704              	.LASF182:
 4705 03d9 63685379 		.ascii	"chSysLock\000"
 4705      734C6F63 
 4705      6B00
 4706              	.LASF148:
 4707 03e3 646D6173 		.ascii	"dmastp\000"
 4707      747000
 4708              	.LASF121:
 4709 03ea 63685F73 		.ascii	"ch_semaphore\000"
 4709      656D6170 
 4709      686F7265 
 4709      00
 4710              	.LASF49:
 4711 03f7 63685F74 		.ascii	"ch_thread\000"
 4711      68726561 
 4711      6400
ARM GAS  /tmp/cc9De0I0.s 			page 87


 4712              	.LASF63:
 4713 0401 76697274 		.ascii	"virtual_timers_list_t\000"
 4713      75616C5F 
 4713      74696D65 
 4713      72735F6C 
 4713      6973745F 
 4714              	.LASF78:
 4715 0417 534D5052 		.ascii	"SMPR1\000"
 4715      3100
 4716              	.LASF79:
 4717 041d 534D5052 		.ascii	"SMPR2\000"
 4717      3200
 4718              	.LASF59:
 4719 0423 76697274 		.ascii	"virtual_timer_t\000"
 4719      75616C5F 
 4719      74696D65 
 4719      725F7400 
 4720              	.LASF55:
 4721 0433 72656164 		.ascii	"ready_list_t\000"
 4721      795F6C69 
 4721      73745F74 
 4721      00
 4722              	.LASF34:
 4723 0440 6F6C6465 		.ascii	"older\000"
 4723      7200
 4724              	.LASF44:
 4725 0446 7265616C 		.ascii	"realprio\000"
 4725      7072696F 
 4725      00
 4726              	.LASF29:
 4727 044f 75636E74 		.ascii	"ucnt_t\000"
 4727      5F7400
 4728              	.LASF175:
 4729 0456 62617365 		.ascii	"basePri\000"
 4729      50726900 
 4730              	.LASF152:
 4731 045e 41444343 		.ascii	"ADCConversionGroup\000"
 4731      6F6E7665 
 4731      7273696F 
 4731      6E47726F 
 4731      757000
 4732              	.LASF138:
 4733 0471 4144435F 		.ascii	"ADC_COMPLETE\000"
 4733      434F4D50 
 4733      4C455445 
 4733      00
 4734              	.LASF50:
 4735 047e 63685F74 		.ascii	"ch_threads_list\000"
 4735      68726561 
 4735      64735F6C 
 4735      69737400 
 4736              	.LASF158:
 4737 048e 736D7072 		.ascii	"smpr1\000"
 4737      3100
 4738              	.LASF159:
 4739 0494 736D7072 		.ascii	"smpr2\000"
 4739      3200
ARM GAS  /tmp/cc9De0I0.s 			page 88


 4740              	.LASF108:
 4741 049a 6E5F6972 		.ascii	"n_irq\000"
 4741      7100
 4742              	.LASF197:
 4743 04a0 6164635F 		.ascii	"adc_lld_start_conversion\000"
 4743      6C6C645F 
 4743      73746172 
 4743      745F636F 
 4743      6E766572 
 4744              	.LASF164:
 4745 04b9 6164635F 		.ascii	"adc_channels_num_t\000"
 4745      6368616E 
 4745      6E656C73 
 4745      5F6E756D 
 4745      5F7400
 4746              	.LASF10:
 4747 04cc 5F5F7569 		.ascii	"__uint32_t\000"
 4747      6E743332 
 4747      5F7400
 4748              	.LASF43:
 4749 04d7 6D74786C 		.ascii	"mtxlist\000"
 4749      69737400 
 4750              	.LASF12:
 4751 04df 6C6F6E67 		.ascii	"long long int\000"
 4751      206C6F6E 
 4751      6720696E 
 4751      7400
 4752              	.LASF76:
 4753 04ed 73797369 		.ascii	"sysinterval_t\000"
 4753      6E746572 
 4753      76616C5F 
 4753      7400
 4754              	.LASF176:
 4755 04fb 61646370 		.ascii	"adcp\000"
 4755      00
 4756              	.LASF170:
 4757 0500 61646365 		.ascii	"adcerrorcallback_t\000"
 4757      72726F72 
 4757      63616C6C 
 4757      6261636B 
 4757      5F7400
 4758              	.LASF145:
 4759 0513 64657074 		.ascii	"depth\000"
 4759      6800
 4760              	.LASF191:
 4761 0519 49544D5F 		.ascii	"ITM_RxBuffer\000"
 4761      52784275 
 4761      66666572 
 4761      00
 4762              	.LASF149:
 4763 0526 646D616D 		.ascii	"dmamode\000"
 4763      6F646500 
 4764              	.LASF107:
 4765 052e 74696D65 		.ascii	"time_measurement_t\000"
 4765      5F6D6561 
 4765      73757265 
 4765      6D656E74 
ARM GAS  /tmp/cc9De0I0.s 			page 89


 4765      5F7400
 4766              	.LASF111:
 4767 0541 6D5F6372 		.ascii	"m_crit_isr\000"
 4767      69745F69 
 4767      737200
 4768              	.LASF0:
 4769 054c 756E7369 		.ascii	"unsigned int\000"
 4769      676E6564 
 4769      20696E74 
 4769      00
 4770              	.LASF20:
 4771 0559 7274636E 		.ascii	"rtcnt_t\000"
 4771      745F7400 
 4772              	.LASF155:
 4773 0561 6E756D5F 		.ascii	"num_channels\000"
 4773      6368616E 
 4773      6E656C73 
 4773      00
 4774              	.LASF112:
 4775 056e 6B65726E 		.ascii	"kernel_stats_t\000"
 4775      656C5F73 
 4775      74617473 
 4775      5F7400
 4776              	.LASF57:
 4777 057d 63757272 		.ascii	"current\000"
 4777      656E7400 
 4778              	.LASF101:
 4779 0585 6F666673 		.ascii	"offset\000"
 4779      657400
 4780              	.LASF151:
 4781 058c 68616C5F 		.ascii	"hal_adc_config\000"
 4781      6164635F 
 4781      636F6E66 
 4781      696700
 4782              	.LASF199:
 4783 059b 6164635F 		.ascii	"adc_lld_stop_conversion\000"
 4783      6C6C645F 
 4783      73746F70 
 4783      5F636F6E 
 4783      76657273 
 4784              	.LASF96:
 4785 05b3 444D415F 		.ascii	"DMA_Stream_TypeDef\000"
 4785      53747265 
 4785      616D5F54 
 4785      79706544 
 4785      656600
 4786              	.LASF30:
 4787 05c6 74687265 		.ascii	"thread_t\000"
 4787      61645F74 
 4787      00
 4788              	.LASF47:
 4789 05cf 74687265 		.ascii	"thread_reference_t\000"
 4789      61645F72 
 4789      65666572 
 4789      656E6365 
 4789      5F7400
 4790              	.LASF117:
ARM GAS  /tmp/cc9De0I0.s 			page 90


 4791 05e2 73656E74 		.ascii	"sentmsg\000"
 4791      6D736700 
 4792              	.LASF100:
 4793 05ea 706F7274 		.ascii	"port_intctx\000"
 4793      5F696E74 
 4793      63747800 
 4794              	.LASF142:
 4795 05f6 68616C5F 		.ascii	"hal_adc_driver\000"
 4795      6164635F 
 4795      64726976 
 4795      657200
 4796              	.LASF137:
 4797 0605 4144435F 		.ascii	"ADC_ACTIVE\000"
 4797      41435449 
 4797      564500
 4798              	.LASF60:
 4799 0610 63685F76 		.ascii	"ch_virtual_timer\000"
 4799      69727475 
 4799      616C5F74 
 4799      696D6572 
 4799      00
 4800              	.LASF74:
 4801 0621 6B65726E 		.ascii	"kernel_stats\000"
 4801      656C5F73 
 4801      74617473 
 4801      00
 4802              	.LASF131:
 4803 062e 73656C66 		.ascii	"selfindex\000"
 4803      696E6465 
 4803      7800
 4804              	.LASF14:
 4805 0638 6C6F6E67 		.ascii	"long long unsigned int\000"
 4805      206C6F6E 
 4805      6720756E 
 4805      7369676E 
 4805      65642069 
 4806              	.LASF16:
 4807 064f 75696E74 		.ascii	"uint16_t\000"
 4807      31365F74 
 4807      00
 4808              	.LASF202:
 4809 0658 474E5520 		.ascii	"GNU C 4.9.3 20150529 (prerelease) -mcpu=cortex-m4 -"
 4809      4320342E 
 4809      392E3320 
 4809      32303135 
 4809      30353239 
 4810 068b 6D666C6F 		.ascii	"mfloat-abi=hard -mfpu=fpv4-sp-d16 -mno-thumb-interw"
 4810      61742D61 
 4810      62693D68 
 4810      61726420 
 4810      2D6D6670 
 4811 06be 6F726B20 		.ascii	"ork -mthumb -g -Os -fomit-frame-pointer -falign-fun"
 4811      2D6D7468 
 4811      756D6220 
 4811      2D67202D 
 4811      4F73202D 
 4812 06f1 6374696F 		.ascii	"ctions=16 -ffunction-sections -fdata-sections -fno-"
ARM GAS  /tmp/cc9De0I0.s 			page 91


 4812      6E733D31 
 4812      36202D66 
 4812      66756E63 
 4812      74696F6E 
 4813 0724 636F6D6D 		.ascii	"common -fsingle-precision-constant\000"
 4813      6F6E202D 
 4813      6673696E 
 4813      676C652D 
 4813      70726563 
 4814              	.LASF26:
 4815 0747 6D73675F 		.ascii	"msg_t\000"
 4815      7400
 4816              	.LASF53:
 4817 074d 63685F74 		.ascii	"ch_threads_queue\000"
 4817      68726561 
 4817      64735F71 
 4817      75657565 
 4817      00
 4818              	.LASF61:
 4819 075e 64656C74 		.ascii	"delta\000"
 4819      6100
 4820              	.LASF141:
 4821 0764 41444344 		.ascii	"ADCDriver\000"
 4821      72697665 
 4821      7200
 4822              	.LASF192:
 4823 076e 6164635F 		.ascii	"adc_lld_init\000"
 4823      6C6C645F 
 4823      696E6974 
 4823      00
 4824              	.LASF39:
 4825 077b 72656673 		.ascii	"refs\000"
 4825      00
 4826              	.LASF31:
 4827 0780 71756575 		.ascii	"queue\000"
 4827      6500
 4828              	.LASF42:
 4829 0786 6570656E 		.ascii	"epending\000"
 4829      64696E67 
 4829      00
 4830              	.LASF193:
 4831 078f 5F737461 		.ascii	"_stats_start_measure_crit_thd\000"
 4831      74735F73 
 4831      74617274 
 4831      5F6D6561 
 4831      73757265 
 4832              	.LASF132:
 4833 07ad 76656374 		.ascii	"vector\000"
 4833      6F7200
 4834              	.LASF190:
 4835 07b4 61646353 		.ascii	"adcStopConversionI\000"
 4835      746F7043 
 4835      6F6E7665 
 4835      7273696F 
 4835      6E4900
 4836              	.LASF166:
 4837 07c7 4144435F 		.ascii	"ADC_ERR_OVERFLOW\000"
ARM GAS  /tmp/cc9De0I0.s 			page 92


 4837      4552525F 
 4837      4F564552 
 4837      464C4F57 
 4837      00
 4838              	.LASF73:
 4839 07d8 6D61696E 		.ascii	"mainthread\000"
 4839      74687265 
 4839      616400
 4840              	.LASF177:
 4841 07e3 5F5F7365 		.ascii	"__set_BASEPRI\000"
 4841      745F4241 
 4841      53455052 
 4841      4900
 4842              	.LASF103:
 4843 07f1 62657374 		.ascii	"best\000"
 4843      00
 4844              	.LASF36:
 4845 07f6 77616261 		.ascii	"wabase\000"
 4845      736500
 4846              	.LASF71:
 4847 07fd 726C6973 		.ascii	"rlist\000"
 4847      7400
 4848              	.LASF22:
 4849 0803 746D6F64 		.ascii	"tmode_t\000"
 4849      655F7400 
 4850              	.LASF129:
 4851 080b 64756D6D 		.ascii	"dummy\000"
 4851      7900
 4852              	.LASF135:
 4853 0811 4144435F 		.ascii	"ADC_STOP\000"
 4853      53544F50 
 4853      00
 4854              	.LASF146:
 4855 081a 67727070 		.ascii	"grpp\000"
 4855      00
 4856              	.LASF102:
 4857 081f 746D5F63 		.ascii	"tm_calibration_t\000"
 4857      616C6962 
 4857      72617469 
 4857      6F6E5F74 
 4857      00
 4858              	.LASF147:
 4859 0830 74687265 		.ascii	"thread\000"
 4859      616400
 4860              	.LASF94:
 4861 0837 4D304152 		.ascii	"M0AR\000"
 4861      00
 4862              	.LASF35:
 4863 083c 6E616D65 		.ascii	"name\000"
 4863      00
 4864              	.LASF171:
 4865 0841 706F7274 		.ascii	"port_lock\000"
 4865      5F6C6F63 
 4865      6B00
 4866              	.LASF187:
 4867 084b 61646353 		.ascii	"adcStop\000"
 4867      746F7000 
ARM GAS  /tmp/cc9De0I0.s 			page 93


 4868              	.LASF5:
 4869 0853 73686F72 		.ascii	"short int\000"
 4869      7420696E 
 4869      7400
 4870              	.LASF19:
 4871 085d 75696E74 		.ascii	"uint64_t\000"
 4871      36345F74 
 4871      00
 4872              	.LASF62:
 4873 0866 66756E63 		.ascii	"func\000"
 4873      00
 4874              	.LASF122:
 4875 086b 63685F6D 		.ascii	"ch_mutex\000"
 4875      75746578 
 4875      00
 4876              	.LASF80:
 4877 0874 4A4F4652 		.ascii	"JOFR1\000"
 4877      3100
 4878              	.LASF81:
 4879 087a 4A4F4652 		.ascii	"JOFR2\000"
 4879      3200
 4880              	.LASF41:
 4881 0880 6D736771 		.ascii	"msgqueue\000"
 4881      75657565 
 4881      00
 4882              	.LASF83:
 4883 0889 4A4F4652 		.ascii	"JOFR4\000"
 4883      3400
 4884              	.LASF67:
 4885 088f 63685F73 		.ascii	"ch_system_debug\000"
 4885      79737465 
 4885      6D5F6465 
 4885      62756700 
 4886              	.LASF181:
 4887 089f 6164634F 		.ascii	"adcObjectInit\000"
 4887      626A6563 
 4887      74496E69 
 4887      7400
 4888              	.LASF88:
 4889 08ad 4A445231 		.ascii	"JDR1\000"
 4889      00
 4890              	.LASF89:
 4891 08b2 4A445232 		.ascii	"JDR2\000"
 4891      00
 4892              	.LASF90:
 4893 08b7 4A445233 		.ascii	"JDR3\000"
 4893      00
 4894              	.LASF91:
 4895 08bc 4A445234 		.ascii	"JDR4\000"
 4895      00
 4896              	.LASF87:
 4897 08c1 4A535152 		.ascii	"JSQR\000"
 4897      00
 4898              	.LASF72:
 4899 08c6 76746C69 		.ascii	"vtlist\000"
 4899      737400
 4900              	.LASF40:
ARM GAS  /tmp/cc9De0I0.s 			page 94


 4901 08cd 77616974 		.ascii	"waiting\000"
 4901      696E6700 
 4902              	.LASF189:
 4903 08d5 61646353 		.ascii	"adcStopConversion\000"
 4903      746F7043 
 4903      6F6E7665 
 4903      7273696F 
 4903      6E00
 4904              	.LASF125:
 4905 08e7 6D757465 		.ascii	"mutex_t\000"
 4905      785F7400 
 4906              	.LASF24:
 4907 08ef 74726566 		.ascii	"trefs_t\000"
 4907      735F7400 
 4908              	.LASF99:
 4909 08f7 706F7274 		.ascii	"port_context\000"
 4909      5F636F6E 
 4909      74657874 
 4909      00
 4910              	.LASF206:
 4911 0904 61646343 		.ascii	"adcConvert\000"
 4911      6F6E7665 
 4911      727400
 4912              	.LASF48:
 4913 090f 74687265 		.ascii	"threads_list_t\000"
 4913      6164735F 
 4913      6C697374 
 4913      5F7400
 4914              	.LASF70:
 4915 091e 63685F73 		.ascii	"ch_system\000"
 4915      79737465 
 4915      6D00
 4916              	.LASF33:
 4917 0928 6E657765 		.ascii	"newer\000"
 4917      7200
 4918              	.LASF18:
 4919 092e 75696E74 		.ascii	"uint32_t\000"
 4919      33325F74 
 4919      00
 4920              	.LASF113:
 4921 0937 7264796D 		.ascii	"rdymsg\000"
 4921      736700
 4922              	.LASF7:
 4923 093e 73686F72 		.ascii	"short unsigned int\000"
 4923      7420756E 
 4923      7369676E 
 4923      65642069 
 4923      6E7400
 4924              	.LASF69:
 4925 0951 63685F73 		.ascii	"ch_system_t\000"
 4925      79737465 
 4925      6D5F7400 
 4926              	.LASF186:
 4927 095d 61646353 		.ascii	"adcStart\000"
 4927      74617274 
 4927      00
 4928              	.LASF188:
ARM GAS  /tmp/cc9De0I0.s 			page 95


 4929 0966 61646353 		.ascii	"adcStartConversion\000"
 4929      74617274 
 4929      436F6E76 
 4929      65727369 
 4929      6F6E00
 4930              	.LASF153:
 4931 0979 68616C5F 		.ascii	"hal_adc_configuration_group\000"
 4931      6164635F 
 4931      636F6E66 
 4931      69677572 
 4931      6174696F 
 4932              	.LASF8:
 4933 0995 5F5F696E 		.ascii	"__int32_t\000"
 4933      7433325F 
 4933      7400
 4934              	.LASF93:
 4935 099f 4E445452 		.ascii	"NDTR\000"
 4935      00
 4936              	.LASF128:
 4937 09a4 69666372 		.ascii	"ifcr\000"
 4937      00
 4938              	.LASF51:
 4939 09a9 6E657874 		.ascii	"next\000"
 4939      00
 4940              	.LASF54:
 4941 09ae 70726576 		.ascii	"prev\000"
 4941      00
 4942              	.LASF105:
 4943 09b3 6C617374 		.ascii	"last\000"
 4943      00
 4944              	.LASF150:
 4945 09b8 41444343 		.ascii	"ADCConfig\000"
 4945      6F6E6669 
 4945      6700
 4946              		.ident	"GCC: (15:4.9.3+svn231177-1) 4.9.3 20150529 (prerelease)"
ARM GAS  /tmp/cc9De0I0.s 			page 96


DEFINED SYMBOLS
                            *ABS*:0000000000000000 hal_adc.c
     /tmp/cc9De0I0.s:21     .text.adcInit:0000000000000000 $t
     /tmp/cc9De0I0.s:26     .text.adcInit:0000000000000000 adcInit
     /tmp/cc9De0I0.s:41     .text.adcObjectInit:0000000000000000 $t
     /tmp/cc9De0I0.s:46     .text.adcObjectInit:0000000000000000 adcObjectInit
     /tmp/cc9De0I0.s:73     .text.adcStart:0000000000000000 $t
     /tmp/cc9De0I0.s:78     .text.adcStart:0000000000000000 adcStart
     /tmp/cc9De0I0.s:153    .text.adcStop:0000000000000000 $t
     /tmp/cc9De0I0.s:158    .text.adcStop:0000000000000000 adcStop
     /tmp/cc9De0I0.s:231    .text.adcStartConversion:0000000000000000 $t
     /tmp/cc9De0I0.s:236    .text.adcStartConversion:0000000000000000 adcStartConversion
     /tmp/cc9De0I0.s:322    .text.adcStartConversionI:0000000000000000 $t
     /tmp/cc9De0I0.s:327    .text.adcStartConversionI:0000000000000000 adcStartConversionI
     /tmp/cc9De0I0.s:361    .text.adcStopConversion:0000000000000000 $t
     /tmp/cc9De0I0.s:366    .text.adcStopConversion:0000000000000000 adcStopConversion
     /tmp/cc9De0I0.s:467    .text.adcStopConversionI:0000000000000000 $t
     /tmp/cc9De0I0.s:472    .text.adcStopConversionI:0000000000000000 adcStopConversionI
     /tmp/cc9De0I0.s:531    .text.adcConvert:0000000000000000 $t
     /tmp/cc9De0I0.s:536    .text.adcConvert:0000000000000000 adcConvert
                     .debug_frame:0000000000000010 $d

UNDEFINED SYMBOLS
adc_lld_init
_stats_start_measure_crit_thd
adc_lld_start
_stats_stop_measure_crit_thd
adc_lld_stop
adc_lld_start_conversion
adc_lld_stop_conversion
chThdResumeS
chThdResumeI
chThdSuspendTimeoutS
