ARM GAS  /tmp/ccIJgpYl.s 			page 1


   1              		.syntax unified
   2              		.cpu cortex-m4
   3              		.eabi_attribute 27, 1
   4              		.eabi_attribute 28, 1
   5              		.fpu fpv4-sp-d16
   6              		.eabi_attribute 20, 1
   7              		.eabi_attribute 21, 1
   8              		.eabi_attribute 23, 3
   9              		.eabi_attribute 24, 1
  10              		.eabi_attribute 25, 1
  11              		.eabi_attribute 26, 1
  12              		.eabi_attribute 30, 4
  13              		.eabi_attribute 34, 1
  14              		.eabi_attribute 18, 4
  15              		.thumb
  16              		.file	"hal_usb.c"
  17              		.text
  18              	.Ltext0:
  19              		.cfi_sections	.debug_frame
  20              		.section	.text.chSysLockFromISR,"ax",%progbits
  21              		.align	1
  22              		.thumb
  23              		.thumb_func
  24              		.type	chSysLockFromISR, %function
  25              	chSysLockFromISR:
  26              	.LFB186:
  27              		.file 1 "../../modules/ChibiOS/os/rt/include/chsys.h"
  28              		.loc 1 393 0
  29              		.cfi_startproc
  30              		@ args = 0, pretend = 0, frame = 0
  31              		@ frame_needed = 0, uses_anonymous_args = 0
  32              		@ link register save eliminated.
  33              	.LVL0:
  34              	.LBB82:
  35              	.LBB83:
  36              	.LBB84:
  37              	.LBB85:
  38              		.file 2 "../../modules/ChibiOS/os/common/ext/ARM/CMSIS/Core/Include/cmsis_gcc.h"
  39              		.loc 2 493 0
  40 0000 2023     		movs	r3, #32
  41              	@ 493 "../../modules/ChibiOS/os/common/ext/ARM/CMSIS/Core/Include/cmsis_gcc.h" 1
  42 0002 83F31188 		MSR basepri, r3
  43              	@ 0 "" 2
  44              		.thumb
  45              	.LBE85:
  46              	.LBE84:
  47              	.LBE83:
  48              	.LBE82:
  49              		.loc 1 396 0
  50 0006 FFF7FEBF 		b	_stats_start_measure_crit_isr
  51              	.LVL1:
  52              		.cfi_endproc
  53              	.LFE186:
  54              		.size	chSysLockFromISR, .-chSysLockFromISR
  55              		.section	.text.chSysUnlockFromISR,"ax",%progbits
  56              		.align	1
  57              		.thumb
ARM GAS  /tmp/ccIJgpYl.s 			page 2


  58              		.thumb_func
  59              		.type	chSysUnlockFromISR, %function
  60              	chSysUnlockFromISR:
  61              	.LFB187:
  62              		.loc 1 413 0
  63              		.cfi_startproc
  64              		@ args = 0, pretend = 0, frame = 0
  65              		@ frame_needed = 0, uses_anonymous_args = 0
  66 0000 08B5     		push	{r3, lr}
  67              		.cfi_def_cfa_offset 8
  68              		.cfi_offset 3, -8
  69              		.cfi_offset 14, -4
  70              		.loc 1 416 0
  71 0002 FFF7FEFF 		bl	_stats_stop_measure_crit_isr
  72              	.LVL2:
  73              	.LBB86:
  74              	.LBB87:
  75              	.LBB88:
  76              	.LBB89:
  77              		.loc 2 493 0
  78 0006 0023     		movs	r3, #0
  79              	@ 493 "../../modules/ChibiOS/os/common/ext/ARM/CMSIS/Core/Include/cmsis_gcc.h" 1
  80 0008 83F31188 		MSR basepri, r3
  81              	@ 0 "" 2
  82              		.thumb
  83 000c 08BD     		pop	{r3, pc}
  84              	.LBE89:
  85              	.LBE88:
  86              	.LBE87:
  87              	.LBE86:
  88              		.cfi_endproc
  89              	.LFE187:
  90              		.size	chSysUnlockFromISR, .-chSysUnlockFromISR
  91              		.section	.text.usbInit,"ax",%progbits
  92              		.align	1
  93              		.global	usbInit
  94              		.thumb
  95              		.thumb_func
  96              		.type	usbInit, %function
  97              	usbInit:
  98              	.LFB326:
  99              		.file 3 "../../modules/ChibiOS/os/hal/src/hal_usb.c"
 100              		.loc 3 270 0
 101              		.cfi_startproc
 102              		@ args = 0, pretend = 0, frame = 0
 103              		@ frame_needed = 0, uses_anonymous_args = 0
 104              		@ link register save eliminated.
 105              		.loc 3 272 0
 106 0000 FFF7FEBF 		b	usb_lld_init
 107              	.LVL3:
 108              		.cfi_endproc
 109              	.LFE326:
 110              		.size	usbInit, .-usbInit
 111              		.section	.text.usbObjectInit,"ax",%progbits
 112              		.align	1
 113              		.global	usbObjectInit
 114              		.thumb
ARM GAS  /tmp/ccIJgpYl.s 			page 3


 115              		.thumb_func
 116              		.type	usbObjectInit, %function
 117              	usbObjectInit:
 118              	.LFB327:
 119              		.loc 3 282 0
 120              		.cfi_startproc
 121              		@ args = 0, pretend = 0, frame = 0
 122              		@ frame_needed = 0, uses_anonymous_args = 0
 123              		@ link register save eliminated.
 124              	.LVL4:
 125              		.loc 3 285 0
 126 0000 0123     		movs	r3, #1
 127 0002 0370     		strb	r3, [r0]
 128              		.loc 3 286 0
 129 0004 0023     		movs	r3, #0
 130 0006 4360     		str	r3, [r0, #4]
 131              	.LVL5:
 132              		.loc 3 288 0
 133 0008 C361     		str	r3, [r0, #28]
 134              		.loc 3 289 0
 135 000a 8362     		str	r3, [r0, #40]
 136              	.LVL6:
 137              		.loc 3 288 0
 138 000c 0362     		str	r3, [r0, #32]
 139              		.loc 3 289 0
 140 000e C362     		str	r3, [r0, #44]
 141              	.LVL7:
 142              		.loc 3 288 0
 143 0010 4362     		str	r3, [r0, #36]
 144              		.loc 3 289 0
 145 0012 0363     		str	r3, [r0, #48]
 146              	.LVL8:
 147              		.loc 3 291 0
 148 0014 0381     		strh	r3, [r0, #8]	@ movhi
 149              		.loc 3 292 0
 150 0016 4381     		strh	r3, [r0, #10]	@ movhi
 151 0018 7047     		bx	lr
 152              		.cfi_endproc
 153              	.LFE327:
 154              		.size	usbObjectInit, .-usbObjectInit
 155              		.section	.text.usbStart,"ax",%progbits
 156              		.align	1
 157              		.global	usbStart
 158              		.thumb
 159              		.thumb_func
 160              		.type	usbStart, %function
 161              	usbStart:
 162              	.LFB328:
 163              		.loc 3 303 0
 164              		.cfi_startproc
 165              		@ args = 0, pretend = 0, frame = 0
 166              		@ frame_needed = 0, uses_anonymous_args = 0
 167              	.LVL9:
 168 0000 38B5     		push	{r3, r4, r5, lr}
 169              		.cfi_def_cfa_offset 16
 170              		.cfi_offset 3, -16
 171              		.cfi_offset 4, -12
ARM GAS  /tmp/ccIJgpYl.s 			page 4


 172              		.cfi_offset 5, -8
 173              		.cfi_offset 14, -4
 174              		.loc 3 303 0
 175 0002 0446     		mov	r4, r0
 176 0004 0D46     		mov	r5, r1
 177              	.LBB104:
 178              	.LBB105:
 179              	.LBB106:
 180              	.LBB107:
 181              	.LBB108:
 182              	.LBB109:
 183              		.loc 2 493 0
 184 0006 2023     		movs	r3, #32
 185              	@ 493 "../../modules/ChibiOS/os/common/ext/ARM/CMSIS/Core/Include/cmsis_gcc.h" 1
 186 0008 83F31188 		MSR basepri, r3
 187              	@ 0 "" 2
 188              		.thumb
 189              	.LBE109:
 190              	.LBE108:
 191              	.LBE107:
 192              		.loc 1 356 0
 193 000c FFF7FEFF 		bl	_stats_start_measure_crit_thd
 194              	.LVL10:
 195              	.LBE106:
 196              	.LBE105:
 197              	.LBE104:
 198              		.loc 3 311 0
 199 0010 6560     		str	r5, [r4, #4]
 200              	.LVL11:
 201              		.loc 3 313 0
 202 0012 0025     		movs	r5, #0
 203              	.LVL12:
 204              		.loc 3 315 0
 205 0014 2046     		mov	r0, r4
 206              		.loc 3 313 0
 207 0016 E560     		str	r5, [r4, #12]
 208              	.LVL13:
 209 0018 2561     		str	r5, [r4, #16]
 210              	.LVL14:
 211 001a 6561     		str	r5, [r4, #20]
 212              	.LVL15:
 213 001c A561     		str	r5, [r4, #24]
 214              	.LVL16:
 215              		.loc 3 315 0
 216 001e FFF7FEFF 		bl	usb_lld_start
 217              	.LVL17:
 218              		.loc 3 316 0
 219 0022 0223     		movs	r3, #2
 220 0024 2370     		strb	r3, [r4]
 221              	.LBB110:
 222              	.LBB111:
 223              	.LBB112:
 224              		.loc 1 368 0
 225 0026 FFF7FEFF 		bl	_stats_stop_measure_crit_thd
 226              	.LVL18:
 227              	.LBB113:
 228              	.LBB114:
ARM GAS  /tmp/ccIJgpYl.s 			page 5


 229              	.LBB115:
 230              		.loc 2 493 0
 231              	@ 493 "../../modules/ChibiOS/os/common/ext/ARM/CMSIS/Core/Include/cmsis_gcc.h" 1
 232 002a 85F31188 		MSR basepri, r5
 233              	@ 0 "" 2
 234              		.thumb
 235 002e 38BD     		pop	{r3, r4, r5, pc}
 236              	.LBE115:
 237              	.LBE114:
 238              	.LBE113:
 239              	.LBE112:
 240              	.LBE111:
 241              	.LBE110:
 242              		.cfi_endproc
 243              	.LFE328:
 244              		.size	usbStart, .-usbStart
 245              		.section	.text.usbStop,"ax",%progbits
 246              		.align	1
 247              		.global	usbStop
 248              		.thumb
 249              		.thumb_func
 250              		.type	usbStop, %function
 251              	usbStop:
 252              	.LFB329:
 253              		.loc 3 327 0
 254              		.cfi_startproc
 255              		@ args = 0, pretend = 0, frame = 0
 256              		@ frame_needed = 0, uses_anonymous_args = 0
 257              	.LVL19:
 258 0000 38B5     		push	{r3, r4, r5, lr}
 259              		.cfi_def_cfa_offset 16
 260              		.cfi_offset 3, -16
 261              		.cfi_offset 4, -12
 262              		.cfi_offset 5, -8
 263              		.cfi_offset 14, -4
 264              		.loc 3 327 0
 265 0002 0446     		mov	r4, r0
 266              	.LBB132:
 267              	.LBB133:
 268              	.LBB134:
 269              	.LBB135:
 270              	.LBB136:
 271              	.LBB137:
 272              		.loc 2 493 0
 273 0004 2023     		movs	r3, #32
 274              	@ 493 "../../modules/ChibiOS/os/common/ext/ARM/CMSIS/Core/Include/cmsis_gcc.h" 1
 275 0006 83F31188 		MSR basepri, r3
 276              	@ 0 "" 2
 277              		.thumb
 278              	.LBE137:
 279              	.LBE136:
 280              	.LBE135:
 281              		.loc 1 356 0
 282 000a FFF7FEFF 		bl	_stats_start_measure_crit_thd
 283              	.LVL20:
 284              	.LBE134:
 285              	.LBE133:
ARM GAS  /tmp/ccIJgpYl.s 			page 6


 286              	.LBE132:
 287              		.loc 3 339 0
 288 000e 2046     		mov	r0, r4
 289 0010 FFF7FEFF 		bl	usb_lld_stop
 290              	.LVL21:
 291              		.loc 3 340 0
 292 0014 0025     		movs	r5, #0
 293              		.loc 3 341 0
 294 0016 0123     		movs	r3, #1
 295 0018 2370     		strb	r3, [r4]
 296              	.LVL22:
 297              		.loc 3 340 0
 298 001a 6560     		str	r5, [r4, #4]
 299              		.loc 3 355 0
 300 001c E560     		str	r5, [r4, #12]
 301              	.LVL23:
 302 001e 2561     		str	r5, [r4, #16]
 303              	.LVL24:
 304 0020 6561     		str	r5, [r4, #20]
 305              	.LVL25:
 306 0022 A561     		str	r5, [r4, #24]
 307              	.LVL26:
 308              	.LBB138:
 309              	.LBB139:
 310              		.file 4 "../../modules/ChibiOS/os/hal/osal/rt/osal.h"
 311              		.loc 4 618 0
 312 0024 FFF7FEFF 		bl	chSchRescheduleS
 313              	.LVL27:
 314              	.LBE139:
 315              	.LBE138:
 316              	.LBB140:
 317              	.LBB141:
 318              	.LBB142:
 319              		.loc 1 368 0
 320 0028 FFF7FEFF 		bl	_stats_stop_measure_crit_thd
 321              	.LVL28:
 322              	.LBB143:
 323              	.LBB144:
 324              	.LBB145:
 325              		.loc 2 493 0
 326              	@ 493 "../../modules/ChibiOS/os/common/ext/ARM/CMSIS/Core/Include/cmsis_gcc.h" 1
 327 002c 85F31188 		MSR basepri, r5
 328              	@ 0 "" 2
 329              		.thumb
 330 0030 38BD     		pop	{r3, r4, r5, pc}
 331              	.LBE145:
 332              	.LBE144:
 333              	.LBE143:
 334              	.LBE142:
 335              	.LBE141:
 336              	.LBE140:
 337              		.cfi_endproc
 338              	.LFE329:
 339              		.size	usbStop, .-usbStop
 340              		.section	.text.usbInitEndpointI,"ax",%progbits
 341              		.align	1
 342              		.global	usbInitEndpointI
ARM GAS  /tmp/ccIJgpYl.s 			page 7


 343              		.thumb
 344              		.thumb_func
 345              		.type	usbInitEndpointI, %function
 346              	usbInitEndpointI:
 347              	.LFB330:
 348              		.loc 3 376 0
 349              		.cfi_startproc
 350              		@ args = 0, pretend = 0, frame = 0
 351              		@ frame_needed = 0, uses_anonymous_args = 0
 352              	.LVL29:
 353 0000 70B5     		push	{r4, r5, r6, lr}
 354              		.cfi_def_cfa_offset 16
 355              		.cfi_offset 4, -16
 356              		.cfi_offset 5, -12
 357              		.cfi_offset 6, -8
 358              		.cfi_offset 14, -4
 359              		.loc 3 385 0
 360 0002 00EB8103 		add	r3, r0, r1, lsl #2
 361              		.loc 3 376 0
 362 0006 0646     		mov	r6, r0
 363              		.loc 3 388 0
 364 0008 5069     		ldr	r0, [r2, #20]
 365              	.LVL30:
 366              		.loc 3 385 0
 367 000a DA60     		str	r2, [r3, #12]
 368              		.loc 3 376 0
 369 000c 0D46     		mov	r5, r1
 370 000e 1446     		mov	r4, r2
 371              		.loc 3 388 0
 372 0010 18B1     		cbz	r0, .L8
 373              		.loc 3 389 0
 374 0012 0021     		movs	r1, #0
 375              	.LVL31:
 376 0014 1022     		movs	r2, #16
 377              	.LVL32:
 378 0016 FFF7FEFF 		bl	memset
 379              	.LVL33:
 380              	.L8:
 381              		.loc 3 391 0
 382 001a A069     		ldr	r0, [r4, #24]
 383 001c 18B1     		cbz	r0, .L9
 384              		.loc 3 392 0
 385 001e 0021     		movs	r1, #0
 386 0020 1022     		movs	r2, #16
 387 0022 FFF7FEFF 		bl	memset
 388              	.LVL34:
 389              	.L9:
 390              		.loc 3 396 0
 391 0026 3046     		mov	r0, r6
 392 0028 2946     		mov	r1, r5
 393              		.loc 3 397 0
 394 002a BDE87040 		pop	{r4, r5, r6, lr}
 395              		.cfi_restore 14
 396              		.cfi_restore 6
 397              		.cfi_restore 5
 398              		.cfi_restore 4
 399              		.cfi_def_cfa_offset 0
ARM GAS  /tmp/ccIJgpYl.s 			page 8


 400              	.LVL35:
 401              		.loc 3 396 0
 402 002e FFF7FEBF 		b	usb_lld_init_endpoint
 403              	.LVL36:
 404              		.cfi_endproc
 405              	.LFE330:
 406              		.size	usbInitEndpointI, .-usbInitEndpointI
 407              		.section	.text.usbDisableEndpointsI,"ax",%progbits
 408              		.align	1
 409              		.global	usbDisableEndpointsI
 410              		.thumb
 411              		.thumb_func
 412              		.type	usbDisableEndpointsI, %function
 413              	usbDisableEndpointsI:
 414              	.LFB331:
 415              		.loc 3 410 0
 416              		.cfi_startproc
 417              		@ args = 0, pretend = 0, frame = 0
 418              		@ frame_needed = 0, uses_anonymous_args = 0
 419              		@ link register save eliminated.
 420              	.LVL37:
 421              		.loc 3 417 0
 422 0000 0289     		ldrh	r2, [r0, #8]
 423 0002 02F00102 		and	r2, r2, #1
 424 0006 0281     		strh	r2, [r0, #8]	@ movhi
 425              		.loc 3 418 0
 426 0008 4289     		ldrh	r2, [r0, #10]
 427 000a 02F00102 		and	r2, r2, #1
 428 000e 4281     		strh	r2, [r0, #10]	@ movhi
 429              	.LVL38:
 430              		.loc 3 432 0
 431 0010 0022     		movs	r2, #0
 432 0012 0261     		str	r2, [r0, #16]
 433              	.LVL39:
 434 0014 4261     		str	r2, [r0, #20]
 435              	.LVL40:
 436 0016 8261     		str	r2, [r0, #24]
 437              	.LVL41:
 438              		.loc 3 436 0
 439 0018 FFF7FEBF 		b	usb_lld_disable_endpoints
 440              	.LVL42:
 441              		.cfi_endproc
 442              	.LFE331:
 443              		.size	usbDisableEndpointsI, .-usbDisableEndpointsI
 444              		.section	.text.usbStartReceiveI,"ax",%progbits
 445              		.align	1
 446              		.global	usbStartReceiveI
 447              		.thumb
 448              		.thumb_func
 449              		.type	usbStartReceiveI, %function
 450              	usbStartReceiveI:
 451              	.LFB332:
 452              		.loc 3 454 0
 453              		.cfi_startproc
 454              		@ args = 0, pretend = 0, frame = 0
 455              		@ frame_needed = 0, uses_anonymous_args = 0
 456              	.LVL43:
ARM GAS  /tmp/ccIJgpYl.s 			page 9


 457 0000 F0B5     		push	{r4, r5, r6, r7, lr}
 458              		.cfi_def_cfa_offset 20
 459              		.cfi_offset 4, -20
 460              		.cfi_offset 5, -16
 461              		.cfi_offset 6, -12
 462              		.cfi_offset 7, -8
 463              		.cfi_offset 14, -4
 464              		.loc 3 466 0
 465 0002 00EB8104 		add	r4, r0, r1, lsl #2
 466              		.loc 3 462 0
 467 0006 4689     		ldrh	r6, [r0, #10]
 468              		.loc 3 466 0
 469 0008 E468     		ldr	r4, [r4, #12]
 470              		.loc 3 462 0
 471 000a 0125     		movs	r5, #1
 472              		.loc 3 466 0
 473 000c A469     		ldr	r4, [r4, #24]
 474              	.LVL44:
 475              		.loc 3 462 0
 476 000e 8D40     		lsls	r5, r5, r1
 477 0010 3543     		orrs	r5, r5, r6
 478 0012 4581     		strh	r5, [r0, #10]	@ movhi
 479              		.loc 3 469 0
 480 0014 2360     		str	r3, [r4]
 481              		.loc 3 470 0
 482 0016 0023     		movs	r3, #0
 483              	.LVL45:
 484              		.loc 3 468 0
 485 0018 A260     		str	r2, [r4, #8]
 486              		.loc 3 470 0
 487 001a 6360     		str	r3, [r4, #4]
 488              		.loc 3 477 0
 489 001c BDE8F040 		pop	{r4, r5, r6, r7, lr}
 490              		.cfi_restore 14
 491              		.cfi_restore 7
 492              		.cfi_restore 6
 493              		.cfi_restore 5
 494              		.cfi_restore 4
 495              		.cfi_def_cfa_offset 0
 496              	.LVL46:
 497              		.loc 3 476 0
 498 0020 FFF7FEBF 		b	usb_lld_start_out
 499              	.LVL47:
 500              		.cfi_endproc
 501              	.LFE332:
 502              		.size	usbStartReceiveI, .-usbStartReceiveI
 503              		.section	.text.usbStartTransmitI,"ax",%progbits
 504              		.align	1
 505              		.global	usbStartTransmitI
 506              		.thumb
 507              		.thumb_func
 508              		.type	usbStartTransmitI, %function
 509              	usbStartTransmitI:
 510              	.LFB333:
 511              		.loc 3 493 0
 512              		.cfi_startproc
 513              		@ args = 0, pretend = 0, frame = 0
ARM GAS  /tmp/ccIJgpYl.s 			page 10


 514              		@ frame_needed = 0, uses_anonymous_args = 0
 515              	.LVL48:
 516 0000 F0B5     		push	{r4, r5, r6, r7, lr}
 517              		.cfi_def_cfa_offset 20
 518              		.cfi_offset 4, -20
 519              		.cfi_offset 5, -16
 520              		.cfi_offset 6, -12
 521              		.cfi_offset 7, -8
 522              		.cfi_offset 14, -4
 523              		.loc 3 505 0
 524 0002 00EB8104 		add	r4, r0, r1, lsl #2
 525              		.loc 3 501 0
 526 0006 0689     		ldrh	r6, [r0, #8]
 527              		.loc 3 505 0
 528 0008 E468     		ldr	r4, [r4, #12]
 529              		.loc 3 501 0
 530 000a 0125     		movs	r5, #1
 531              		.loc 3 505 0
 532 000c 6469     		ldr	r4, [r4, #20]
 533              	.LVL49:
 534              		.loc 3 501 0
 535 000e 8D40     		lsls	r5, r5, r1
 536 0010 3543     		orrs	r5, r5, r6
 537 0012 0581     		strh	r5, [r0, #8]	@ movhi
 538              		.loc 3 508 0
 539 0014 2360     		str	r3, [r4]
 540              		.loc 3 509 0
 541 0016 0023     		movs	r3, #0
 542              	.LVL50:
 543              		.loc 3 507 0
 544 0018 A260     		str	r2, [r4, #8]
 545              		.loc 3 509 0
 546 001a 6360     		str	r3, [r4, #4]
 547              		.loc 3 516 0
 548 001c BDE8F040 		pop	{r4, r5, r6, r7, lr}
 549              		.cfi_restore 14
 550              		.cfi_restore 7
 551              		.cfi_restore 6
 552              		.cfi_restore 5
 553              		.cfi_restore 4
 554              		.cfi_def_cfa_offset 0
 555              	.LVL51:
 556              		.loc 3 515 0
 557 0020 FFF7FEBF 		b	usb_lld_start_in
 558              	.LVL52:
 559              		.cfi_endproc
 560              	.LFE333:
 561              		.size	usbStartTransmitI, .-usbStartTransmitI
 562              		.section	.text.usbStallReceiveI,"ax",%progbits
 563              		.align	1
 564              		.global	usbStallReceiveI
 565              		.thumb
 566              		.thumb_func
 567              		.type	usbStallReceiveI, %function
 568              	usbStallReceiveI:
 569              	.LFB334:
 570              		.loc 3 599 0
ARM GAS  /tmp/ccIJgpYl.s 			page 11


 571              		.cfi_startproc
 572              		@ args = 0, pretend = 0, frame = 0
 573              		@ frame_needed = 0, uses_anonymous_args = 0
 574              	.LVL53:
 575 0000 10B5     		push	{r4, lr}
 576              		.cfi_def_cfa_offset 8
 577              		.cfi_offset 4, -8
 578              		.cfi_offset 14, -4
 579              		.loc 3 604 0
 580 0002 0123     		movs	r3, #1
 581 0004 4489     		ldrh	r4, [r0, #10]
 582 0006 03FA01F2 		lsl	r2, r3, r1
 583 000a 1440     		ands	r4, r2, r4
 584 000c 03D1     		bne	.L22
 585              		.loc 3 608 0
 586 000e FFF7FEFF 		bl	usb_lld_stall_out
 587              	.LVL54:
 588              		.loc 3 609 0
 589 0012 2046     		mov	r0, r4
 590 0014 10BD     		pop	{r4, pc}
 591              	.LVL55:
 592              	.L22:
 593              		.loc 3 605 0
 594 0016 1846     		mov	r0, r3
 595              	.LVL56:
 596              		.loc 3 610 0
 597 0018 10BD     		pop	{r4, pc}
 598              		.cfi_endproc
 599              	.LFE334:
 600              		.size	usbStallReceiveI, .-usbStallReceiveI
 601              		.section	.text.usbStallTransmitI,"ax",%progbits
 602              		.align	1
 603              		.global	usbStallTransmitI
 604              		.thumb
 605              		.thumb_func
 606              		.type	usbStallTransmitI, %function
 607              	usbStallTransmitI:
 608              	.LFB335:
 609              		.loc 3 624 0
 610              		.cfi_startproc
 611              		@ args = 0, pretend = 0, frame = 0
 612              		@ frame_needed = 0, uses_anonymous_args = 0
 613              	.LVL57:
 614 0000 10B5     		push	{r4, lr}
 615              		.cfi_def_cfa_offset 8
 616              		.cfi_offset 4, -8
 617              		.cfi_offset 14, -4
 618              		.loc 3 629 0
 619 0002 0123     		movs	r3, #1
 620 0004 0489     		ldrh	r4, [r0, #8]
 621 0006 03FA01F2 		lsl	r2, r3, r1
 622 000a 1440     		ands	r4, r2, r4
 623 000c 03D1     		bne	.L25
 624              		.loc 3 633 0
 625 000e FFF7FEFF 		bl	usb_lld_stall_in
 626              	.LVL58:
 627              		.loc 3 634 0
ARM GAS  /tmp/ccIJgpYl.s 			page 12


 628 0012 2046     		mov	r0, r4
 629 0014 10BD     		pop	{r4, pc}
 630              	.LVL59:
 631              	.L25:
 632              		.loc 3 630 0
 633 0016 1846     		mov	r0, r3
 634              	.LVL60:
 635              		.loc 3 635 0
 636 0018 10BD     		pop	{r4, pc}
 637              		.cfi_endproc
 638              	.LFE335:
 639              		.size	usbStallTransmitI, .-usbStallTransmitI
 640              		.section	.text.usbWakeupHost,"ax",%progbits
 641              		.align	1
 642              		.global	usbWakeupHost
 643              		.thumb
 644              		.thumb_func
 645              		.type	usbWakeupHost, %function
 646              	usbWakeupHost:
 647              	.LFB336:
 648              		.loc 3 646 0
 649              		.cfi_startproc
 650              		@ args = 0, pretend = 0, frame = 0
 651              		@ frame_needed = 0, uses_anonymous_args = 0
 652              	.LVL61:
 653              		.loc 3 648 0
 654 0000 0378     		ldrb	r3, [r0]	@ zero_extendqisi2
 655 0002 052B     		cmp	r3, #5
 656              		.loc 3 646 0
 657 0004 10B5     		push	{r4, lr}
 658              		.cfi_def_cfa_offset 8
 659              		.cfi_offset 4, -8
 660              		.cfi_offset 14, -4
 661              		.loc 3 646 0
 662 0006 0446     		mov	r4, r0
 663              		.loc 3 648 0
 664 0008 11D1     		bne	.L26
 665              		.loc 3 650 0
 666 000a 426D     		ldr	r2, [r0, #84]
 667 000c D2F80438 		ldr	r3, [r2, #2052]
 668 0010 43F00103 		orr	r3, r3, #1
 669 0014 C2F80438 		str	r3, [r2, #2052]
 670              	.LVL62:
 671              	.LBB146:
 672              	.LBB147:
 673              		.loc 4 720 0
 674 0018 4FF4FA60 		mov	r0, #2000
 675              	.LVL63:
 676 001c FFF7FEFF 		bl	chThdSleep
 677              	.LVL64:
 678              	.LBE147:
 679              	.LBE146:
 680              		.loc 3 650 0
 681 0020 626D     		ldr	r2, [r4, #84]
 682 0022 D2F80438 		ldr	r3, [r2, #2052]
 683 0026 23F00103 		bic	r3, r3, #1
 684 002a C2F80438 		str	r3, [r2, #2052]
ARM GAS  /tmp/ccIJgpYl.s 			page 13


 685              	.LVL65:
 686              	.L26:
 687 002e 10BD     		pop	{r4, pc}
 688              		.cfi_endproc
 689              	.LFE336:
 690              		.size	usbWakeupHost, .-usbWakeupHost
 691              		.section	.text._usb_reset,"ax",%progbits
 692              		.align	1
 693              		.global	_usb_reset
 694              		.thumb
 695              		.thumb_func
 696              		.type	_usb_reset, %function
 697              	_usb_reset:
 698              	.LFB337:
 699              		.loc 3 663 0
 700              		.cfi_startproc
 701              		@ args = 0, pretend = 0, frame = 0
 702              		@ frame_needed = 0, uses_anonymous_args = 0
 703              	.LVL66:
 704 0000 70B5     		push	{r4, r5, r6, lr}
 705              		.cfi_def_cfa_offset 16
 706              		.cfi_offset 4, -16
 707              		.cfi_offset 5, -12
 708              		.cfi_offset 6, -8
 709              		.cfi_offset 14, -4
 710              		.loc 3 667 0
 711 0002 0223     		movs	r3, #2
 712              		.loc 3 670 0
 713 0004 0025     		movs	r5, #0
 714              		.loc 3 663 0
 715 0006 0446     		mov	r4, r0
 716              		.loc 3 667 0
 717 0008 0370     		strb	r3, [r0]
 718              		.loc 3 670 0
 719 000a A0F84C50 		strh	r5, [r0, #76]	@ movhi
 720              		.loc 3 671 0
 721 000e 80F84E50 		strb	r5, [r0, #78]
 722              		.loc 3 672 0
 723 0012 80F84F50 		strb	r5, [r0, #79]
 724              		.loc 3 673 0
 725 0016 0581     		strh	r5, [r0, #8]	@ movhi
 726              		.loc 3 674 0
 727 0018 4581     		strh	r5, [r0, #10]	@ movhi
 728              	.LVL67:
 729              		.loc 3 691 0
 730 001a C560     		str	r5, [r0, #12]
 731              	.LVL68:
 732 001c 0561     		str	r5, [r0, #16]
 733              	.LVL69:
 734 001e 4561     		str	r5, [r0, #20]
 735              	.LVL70:
 736 0020 8561     		str	r5, [r0, #24]
 737              	.LVL71:
 738              		.loc 3 695 0
 739 0022 80F83450 		strb	r5, [r0, #52]
 740              		.loc 3 698 0
 741 0026 FFF7FEFF 		bl	usb_lld_reset
ARM GAS  /tmp/ccIJgpYl.s 			page 14


 742              	.LVL72:
 743              		.loc 3 701 0
 744 002a 6368     		ldr	r3, [r4, #4]
 745 002c 1B68     		ldr	r3, [r3]
 746 002e 23B1     		cbz	r3, .L28
 747              		.loc 3 701 0 is_stmt 0 discriminator 1
 748 0030 2046     		mov	r0, r4
 749 0032 2946     		mov	r1, r5
 750              		.loc 3 702 0 is_stmt 1 discriminator 1
 751 0034 BDE87040 		pop	{r4, r5, r6, lr}
 752              		.cfi_remember_state
 753              		.cfi_restore 14
 754              		.cfi_restore 6
 755              		.cfi_restore 5
 756              		.cfi_restore 4
 757              		.cfi_def_cfa_offset 0
 758              	.LVL73:
 759              		.loc 3 701 0 discriminator 1
 760 0038 1847     		bx	r3	@ indirect register sibling call
 761              	.LVL74:
 762              	.L28:
 763              		.cfi_restore_state
 764 003a 70BD     		pop	{r4, r5, r6, pc}
 765              		.cfi_endproc
 766              	.LFE337:
 767              		.size	_usb_reset, .-_usb_reset
 768              		.section	.text._usb_suspend,"ax",%progbits
 769              		.align	1
 770              		.global	_usb_suspend
 771              		.thumb
 772              		.thumb_func
 773              		.type	_usb_suspend, %function
 774              	_usb_suspend:
 775              	.LFB338:
 776              		.loc 3 713 0
 777              		.cfi_startproc
 778              		@ args = 0, pretend = 0, frame = 0
 779              		@ frame_needed = 0, uses_anonymous_args = 0
 780              		@ link register save eliminated.
 781              	.LVL75:
 782              		.loc 3 721 0
 783 0000 4368     		ldr	r3, [r0, #4]
 784              		.loc 3 717 0
 785 0002 0278     		ldrb	r2, [r0]	@ zero_extendqisi2
 786              		.loc 3 721 0
 787 0004 1B68     		ldr	r3, [r3]
 788              		.loc 3 717 0
 789 0006 80F85020 		strb	r2, [r0, #80]
 790              		.loc 3 718 0
 791 000a 0522     		movs	r2, #5
 792 000c 0270     		strb	r2, [r0]
 793              		.loc 3 721 0
 794 000e 0BB1     		cbz	r3, .L30
 795              		.loc 3 721 0 is_stmt 0 discriminator 1
 796 0010 0421     		movs	r1, #4
 797 0012 1847     		bx	r3	@ indirect register sibling call
 798              	.LVL76:
ARM GAS  /tmp/ccIJgpYl.s 			page 15


 799              	.L30:
 800 0014 7047     		bx	lr
 801              		.cfi_endproc
 802              	.LFE338:
 803              		.size	_usb_suspend, .-_usb_suspend
 804              		.section	.text._usb_wakeup,"ax",%progbits
 805              		.align	1
 806              		.global	_usb_wakeup
 807              		.thumb
 808              		.thumb_func
 809              		.type	_usb_wakeup, %function
 810              	_usb_wakeup:
 811              	.LFB339:
 812              		.loc 3 753 0 is_stmt 1
 813              		.cfi_startproc
 814              		@ args = 0, pretend = 0, frame = 0
 815              		@ frame_needed = 0, uses_anonymous_args = 0
 816              		@ link register save eliminated.
 817              	.LVL77:
 818              		.loc 3 759 0
 819 0000 4368     		ldr	r3, [r0, #4]
 820              		.loc 3 756 0
 821 0002 90F85020 		ldrb	r2, [r0, #80]	@ zero_extendqisi2
 822              		.loc 3 759 0
 823 0006 1B68     		ldr	r3, [r3]
 824              		.loc 3 756 0
 825 0008 0270     		strb	r2, [r0]
 826              		.loc 3 759 0
 827 000a 0BB1     		cbz	r3, .L32
 828              		.loc 3 759 0 is_stmt 0 discriminator 1
 829 000c 0521     		movs	r1, #5
 830 000e 1847     		bx	r3	@ indirect register sibling call
 831              	.LVL78:
 832              	.L32:
 833 0010 7047     		bx	lr
 834              		.cfi_endproc
 835              	.LFE339:
 836              		.size	_usb_wakeup, .-_usb_wakeup
 837              		.section	.text._usb_ep0setup,"ax",%progbits
 838              		.align	1
 839              		.global	_usb_ep0setup
 840              		.thumb
 841              		.thumb_func
 842              		.type	_usb_ep0setup, %function
 843              	_usb_ep0setup:
 844              	.LFB340:
 845              		.loc 3 772 0 is_stmt 1
 846              		.cfi_startproc
 847              		@ args = 0, pretend = 0, frame = 0
 848              		@ frame_needed = 0, uses_anonymous_args = 0
 849              	.LVL79:
 850 0000 F8B5     		push	{r3, r4, r5, r6, r7, lr}
 851              		.cfi_def_cfa_offset 24
 852              		.cfi_offset 3, -24
 853              		.cfi_offset 4, -20
 854              		.cfi_offset 5, -16
 855              		.cfi_offset 6, -12
ARM GAS  /tmp/ccIJgpYl.s 			page 16


 856              		.cfi_offset 7, -8
 857              		.cfi_offset 14, -4
 858              		.loc 3 777 0
 859 0002 90F83430 		ldrb	r3, [r0, #52]	@ zero_extendqisi2
 860              		.loc 3 772 0
 861 0006 0446     		mov	r4, r0
 862              		.loc 3 777 0
 863 0008 13B1     		cbz	r3, .L35
 864              		.loc 3 782 0
 865 000a 0023     		movs	r3, #0
 866 000c 80F83430 		strb	r3, [r0, #52]
 867              	.L35:
 868              		.loc 3 786 0
 869 0010 2046     		mov	r0, r4
 870              	.LVL80:
 871 0012 04F14402 		add	r2, r4, #68
 872 0016 FFF7FEFF 		bl	usb_lld_read_setup
 873              	.LVL81:
 874              		.loc 3 791 0
 875 001a 6368     		ldr	r3, [r4, #4]
 876 001c 9B68     		ldr	r3, [r3, #8]
 877 001e 33B9     		cbnz	r3, .L36
 878              	.L40:
 879              		.loc 3 797 0
 880 0020 94F84430 		ldrb	r3, [r4, #68]	@ zero_extendqisi2
 881 0024 13F06006 		ands	r6, r3, #96
 882 0028 40F0F580 		bne	.L37
 883 002c 05E0     		b	.L121
 884              	.L36:
 885              		.loc 3 792 0 discriminator 1
 886 002e 2046     		mov	r0, r4
 887 0030 9847     		blx	r3
 888              	.LVL82:
 889              		.loc 3 791 0 discriminator 1
 890 0032 0028     		cmp	r0, #0
 891 0034 40F00181 		bne	.L39
 892 0038 F2E7     		b	.L40
 893              	.L121:
 894              	.LVL83:
 895              	.LBB176:
 896              	.LBB177:
 897              		.loc 3 90 0
 898 003a 94F84550 		ldrb	r5, [r4, #69]	@ zero_extendqisi2
 899              		.loc 3 88 0
 900 003e 03F07F03 		and	r3, r3, #127
 901              		.loc 3 89 0
 902 0042 43EA0525 		orr	r5, r3, r5, lsl #8
 903              		.loc 3 88 0
 904 0046 40F20233 		movw	r3, #770
 905 004a 9D42     		cmp	r5, r3
 906 004c 00F0D280 		beq	.L42
 907 0050 14D8     		bhi	.L43
 908 0052 022D     		cmp	r5, #2
 909 0054 00F0A380 		beq	.L44
 910 0058 04D8     		bhi	.L45
 911 005a 55B3     		cbz	r5, .L46
 912 005c 012D     		cmp	r5, #1
ARM GAS  /tmp/ccIJgpYl.s 			page 17


 913 005e 00F09780 		beq	.L47
 914 0062 D8E0     		b	.L37
 915              	.L45:
 916 0064 B5F5817F 		cmp	r5, #258
 917 0068 00F0B380 		beq	.L48
 918 006c B5F5407F 		cmp	r5, #768
 919 0070 30D0     		beq	.L49
 920 0072 B5F5807F 		cmp	r5, #256
 921 0076 40F0CE80 		bne	.L37
 922 007a 21E0     		b	.L122
 923              	.L43:
 924 007c 40F20163 		movw	r3, #1537
 925 0080 9D42     		cmp	r5, r3
 926 0082 06D8     		bhi	.L51
 927 0084 B5F5C06F 		cmp	r5, #1536
 928 0088 4AD2     		bcs	.L52
 929 008a B5F5A06F 		cmp	r5, #1280
 930 008e 2FD0     		beq	.L53
 931 0090 C1E0     		b	.L37
 932              	.L51:
 933 0092 B5F5106F 		cmp	r5, #2304
 934 0096 58D0     		beq	.L54
 935 0098 40F60243 		movw	r3, #3074
 936 009c 9D42     		cmp	r5, r3
 937 009e 77D0     		beq	.L47
 938 00a0 B5F5006F 		cmp	r5, #2048
 939 00a4 40F0B780 		bne	.L37
 940              		.loc 3 142 0
 941 00a8 04F14F03 		add	r3, r4, #79
 942 00ac A363     		str	r3, [r4, #56]
 943 00ae 0123     		movs	r3, #1
 944 00b0 49E0     		b	.L117
 945              	.L46:
 946              		.loc 3 93 0
 947 00b2 04F14C03 		add	r3, r4, #76
 948 00b6 A363     		str	r3, [r4, #56]
 949 00b8 0223     		movs	r3, #2
 950 00ba E363     		str	r3, [r4, #60]
 951 00bc 2564     		str	r5, [r4, #64]
 952 00be BCE0     		b	.L39
 953              	.L122:
 954              		.loc 3 98 0
 955 00c0 94F84630 		ldrb	r3, [r4, #70]	@ zero_extendqisi2
 956 00c4 012B     		cmp	r3, #1
 957 00c6 40F0A680 		bne	.L37
 958              		.loc 3 99 0
 959 00ca B4F84C30 		ldrh	r3, [r4, #76]
 960 00ce 23F00203 		bic	r3, r3, #2
 961 00d2 08E0     		b	.L116
 962              	.L49:
 963              		.loc 3 107 0
 964 00d4 94F84630 		ldrb	r3, [r4, #70]	@ zero_extendqisi2
 965 00d8 012B     		cmp	r3, #1
 966 00da 40F09C80 		bne	.L37
 967              		.loc 3 108 0
 968 00de B4F84C30 		ldrh	r3, [r4, #76]
 969 00e2 43F00203 		orr	r3, r3, #2
ARM GAS  /tmp/ccIJgpYl.s 			page 18


 970              	.L116:
 971 00e6 A4F84C30 		strh	r3, [r4, #76]	@ movhi
 972              		.loc 3 109 0
 973 00ea A663     		str	r6, [r4, #56]
 974 00ec E663     		str	r6, [r4, #60]
 975 00ee 6EE0     		b	.L111
 976              	.L53:
 977              		.loc 3 118 0
 978 00f0 B4F84430 		ldrh	r3, [r4, #68]
 979 00f4 B3F5A06F 		cmp	r3, #1280
 980 00f8 0ED1     		bne	.L60
 981              	.LVL84:
 982              	.LBB178:
 983              	.LBB179:
 984              		.loc 3 66 0
 985 00fa 94F84630 		ldrb	r3, [r4, #70]	@ zero_extendqisi2
 986 00fe 84F84E30 		strb	r3, [r4, #78]
 987              		.loc 3 67 0
 988 0102 2046     		mov	r0, r4
 989 0104 FFF7FEFF 		bl	usb_lld_set_address
 990              	.LVL85:
 991              		.loc 3 68 0
 992 0108 6368     		ldr	r3, [r4, #4]
 993 010a 1B68     		ldr	r3, [r3]
 994 010c 13B1     		cbz	r3, .L61
 995 010e 2046     		mov	r0, r4
 996 0110 0121     		movs	r1, #1
 997 0112 9847     		blx	r3
 998              	.LVL86:
 999              	.L61:
 1000              		.loc 3 69 0
 1001 0114 0323     		movs	r3, #3
 1002 0116 2370     		strb	r3, [r4]
 1003              	.LVL87:
 1004              	.L60:
 1005              	.LBE179:
 1006              	.LBE178:
 1007              		.loc 3 122 0
 1008 0118 0023     		movs	r3, #0
 1009 011a A363     		str	r3, [r4, #56]
 1010 011c E363     		str	r3, [r4, #60]
 1011 011e 3CE0     		b	.L112
 1012              	.L52:
 1013              	.LVL88:
 1014              		.loc 3 130 0
 1015 0120 6268     		ldr	r2, [r4, #4]
 1016              	.LBB180:
 1017              	.LBB181:
 1018              		.loc 3 55 0
 1019 0122 94F84970 		ldrb	r7, [r4, #73]	@ zero_extendqisi2
 1020 0126 94F84830 		ldrb	r3, [r4, #72]	@ zero_extendqisi2
 1021              	.LBE181:
 1022              	.LBE180:
 1023              		.loc 3 130 0
 1024 012a 5568     		ldr	r5, [r2, #4]
 1025 012c 94F84710 		ldrb	r1, [r4, #71]	@ zero_extendqisi2
 1026 0130 94F84620 		ldrb	r2, [r4, #70]	@ zero_extendqisi2
ARM GAS  /tmp/ccIJgpYl.s 			page 19


 1027 0134 2046     		mov	r0, r4
 1028 0136 43EA0723 		orr	r3, r3, r7, lsl #8
 1029 013a A847     		blx	r5
 1030              	.LVL89:
 1031              		.loc 3 133 0
 1032 013c 0028     		cmp	r0, #0
 1033 013e 6AD0     		beq	.L37
 1034              		.loc 3 137 0
 1035 0140 4368     		ldr	r3, [r0, #4]
 1036 0142 A363     		str	r3, [r4, #56]
 1037 0144 0368     		ldr	r3, [r0]
 1038              	.LVL90:
 1039              	.L117:
 1040              		.loc 3 142 0
 1041 0146 E363     		str	r3, [r4, #60]
 1042 0148 41E0     		b	.L111
 1043              	.L54:
 1044              		.loc 3 153 0
 1045 014a 2378     		ldrb	r3, [r4]	@ zero_extendqisi2
 1046 014c 042B     		cmp	r3, #4
 1047 014e 0FD1     		bne	.L63
 1048              	.LBB182:
 1049              	.LBB183:
 1050              		.loc 4 533 0
 1051 0150 FFF7FEFF 		bl	chSysLockFromISR
 1052              	.LVL91:
 1053              	.LBE183:
 1054              	.LBE182:
 1055              		.loc 3 156 0
 1056 0154 2046     		mov	r0, r4
 1057 0156 FFF7FEFF 		bl	usbDisableEndpointsI
 1058              	.LVL92:
 1059              	.LBB184:
 1060              	.LBB185:
 1061              		.loc 4 544 0
 1062 015a FFF7FEFF 		bl	chSysUnlockFromISR
 1063              	.LVL93:
 1064              	.LBE185:
 1065              	.LBE184:
 1066              		.loc 3 160 0
 1067 015e 6368     		ldr	r3, [r4, #4]
 1068              		.loc 3 158 0
 1069 0160 84F84F60 		strb	r6, [r4, #79]
 1070              		.loc 3 160 0
 1071 0164 1B68     		ldr	r3, [r3]
 1072              		.loc 3 159 0
 1073 0166 0321     		movs	r1, #3
 1074 0168 2170     		strb	r1, [r4]
 1075              		.loc 3 160 0
 1076 016a 0BB1     		cbz	r3, .L63
 1077 016c 2046     		mov	r0, r4
 1078 016e 9847     		blx	r3
 1079              	.LVL94:
 1080              	.L63:
 1081              		.loc 3 162 0
 1082 0170 94F84630 		ldrb	r3, [r4, #70]	@ zero_extendqisi2
 1083 0174 002B     		cmp	r3, #0
ARM GAS  /tmp/ccIJgpYl.s 			page 20


 1084 0176 CFD0     		beq	.L60
 1085              		.loc 3 164 0
 1086 0178 84F84F30 		strb	r3, [r4, #79]
 1087              		.loc 3 165 0
 1088 017c 0423     		movs	r3, #4
 1089 017e 2370     		strb	r3, [r4]
 1090              		.loc 3 166 0
 1091 0180 6368     		ldr	r3, [r4, #4]
 1092 0182 1B68     		ldr	r3, [r3]
 1093 0184 002B     		cmp	r3, #0
 1094 0186 C7D0     		beq	.L60
 1095 0188 2046     		mov	r0, r4
 1096 018a 0221     		movs	r1, #2
 1097 018c 9847     		blx	r3
 1098              	.LVL95:
 1099 018e C3E7     		b	.L60
 1100              	.L47:
 1101              		.loc 3 176 0
 1102 0190 4A4B     		ldr	r3, .L123
 1103 0192 A363     		str	r3, [r4, #56]
 1104 0194 0223     		movs	r3, #2
 1105 0196 E363     		str	r3, [r4, #60]
 1106 0198 0023     		movs	r3, #0
 1107              	.L112:
 1108 019a 2364     		str	r3, [r4, #64]
 1109 019c 4DE0     		b	.L39
 1110              	.L44:
 1111              		.loc 3 181 0
 1112 019e 94F84810 		ldrb	r1, [r4, #72]	@ zero_extendqisi2
 1113 01a2 11F0800F 		tst	r1, #128
 1114              		.loc 3 182 0
 1115 01a6 2046     		mov	r0, r4
 1116 01a8 01F00F01 		and	r1, r1, #15
 1117              		.loc 3 181 0
 1118 01ac 02D0     		beq	.L66
 1119              	.LVL96:
 1120              		.loc 3 182 0
 1121 01ae FFF7FEFF 		bl	usb_lld_get_status_in
 1122              	.LVL97:
 1123 01b2 01E0     		b	.L120
 1124              	.LVL98:
 1125              	.L66:
 1126              		.loc 3 199 0
 1127 01b4 FFF7FEFF 		bl	usb_lld_get_status_out
 1128              	.LVL99:
 1129              	.L120:
 1130 01b8 0128     		cmp	r0, #1
 1131 01ba 05D0     		beq	.L69
 1132 01bc 0228     		cmp	r0, #2
 1133 01be 2AD1     		bne	.L37
 1134              		.loc 3 207 0
 1135 01c0 3F4B     		ldr	r3, .L123+4
 1136 01c2 A363     		str	r3, [r4, #56]
 1137 01c4 E063     		str	r0, [r4, #60]
 1138 01c6 02E0     		b	.L111
 1139              	.L69:
 1140              		.loc 3 202 0
ARM GAS  /tmp/ccIJgpYl.s 			page 21


 1141 01c8 3E4B     		ldr	r3, .L123+8
 1142 01ca A363     		str	r3, [r4, #56]
 1143 01cc E563     		str	r5, [r4, #60]
 1144              	.L111:
 1145              		.loc 3 207 0
 1146 01ce 2664     		str	r6, [r4, #64]
 1147 01d0 33E0     		b	.L39
 1148              	.L48:
 1149              		.loc 3 217 0
 1150 01d2 94F84630 		ldrb	r3, [r4, #70]	@ zero_extendqisi2
 1151 01d6 F3B9     		cbnz	r3, .L37
 1152              		.loc 3 221 0
 1153 01d8 94F84830 		ldrb	r3, [r4, #72]	@ zero_extendqisi2
 1154 01dc 13F00F01 		ands	r1, r3, #15
 1155 01e0 9AD0     		beq	.L60
 1156              		.loc 3 222 0
 1157 01e2 1A06     		lsls	r2, r3, #24
 1158              		.loc 3 223 0
 1159 01e4 2046     		mov	r0, r4
 1160              		.loc 3 222 0
 1161 01e6 02D5     		bpl	.L71
 1162              	.LVL100:
 1163              		.loc 3 223 0
 1164 01e8 FFF7FEFF 		bl	usb_lld_clear_in
 1165              	.LVL101:
 1166 01ec 94E7     		b	.L60
 1167              	.LVL102:
 1168              	.L71:
 1169              		.loc 3 226 0
 1170 01ee FFF7FEFF 		bl	usb_lld_clear_out
 1171              	.LVL103:
 1172 01f2 91E7     		b	.L60
 1173              	.L42:
 1174              		.loc 3 233 0
 1175 01f4 94F84630 		ldrb	r3, [r4, #70]	@ zero_extendqisi2
 1176 01f8 6BB9     		cbnz	r3, .L37
 1177              		.loc 3 237 0
 1178 01fa 94F84830 		ldrb	r3, [r4, #72]	@ zero_extendqisi2
 1179 01fe 13F00F01 		ands	r1, r3, #15
 1180 0202 89D0     		beq	.L60
 1181              		.loc 3 238 0
 1182 0204 1B06     		lsls	r3, r3, #24
 1183              		.loc 3 239 0
 1184 0206 2046     		mov	r0, r4
 1185              		.loc 3 238 0
 1186 0208 02D5     		bpl	.L72
 1187              	.LVL104:
 1188              		.loc 3 239 0
 1189 020a FFF7FEFF 		bl	usb_lld_stall_in
 1190              	.LVL105:
 1191 020e 83E7     		b	.L60
 1192              	.LVL106:
 1193              	.L72:
 1194              		.loc 3 242 0
 1195 0210 FFF7FEFF 		bl	usb_lld_stall_out
 1196              	.LVL107:
 1197 0214 80E7     		b	.L60
ARM GAS  /tmp/ccIJgpYl.s 			page 22


 1198              	.LVL108:
 1199              	.L37:
 1200              	.LBE177:
 1201              	.LBE176:
 1202              		.loc 3 803 0
 1203 0216 2046     		mov	r0, r4
 1204 0218 0021     		movs	r1, #0
 1205 021a FFF7FEFF 		bl	usb_lld_stall_in
 1206              	.LVL109:
 1207              		.loc 3 804 0
 1208 021e 2046     		mov	r0, r4
 1209 0220 0021     		movs	r1, #0
 1210 0222 FFF7FEFF 		bl	usb_lld_stall_out
 1211              	.LVL110:
 1212              		.loc 3 805 0
 1213 0226 6368     		ldr	r3, [r4, #4]
 1214 0228 1B68     		ldr	r3, [r3]
 1215 022a 13B1     		cbz	r3, .L73
 1216              		.loc 3 805 0 is_stmt 0 discriminator 1
 1217 022c 2046     		mov	r0, r4
 1218 022e 0621     		movs	r1, #6
 1219 0230 9847     		blx	r3
 1220              	.LVL111:
 1221              	.L73:
 1222              		.loc 3 806 0 is_stmt 1
 1223 0232 0623     		movs	r3, #6
 1224 0234 84F83430 		strb	r3, [r4, #52]
 1225              		.loc 3 807 0
 1226 0238 F8BD     		pop	{r3, r4, r5, r6, r7, pc}
 1227              	.LVL112:
 1228              	.L39:
 1229              	.LBB186:
 1230              	.LBB187:
 1231              		.loc 3 55 0
 1232 023a 94F84B20 		ldrb	r2, [r4, #75]	@ zero_extendqisi2
 1233 023e 94F84A30 		ldrb	r3, [r4, #74]	@ zero_extendqisi2
 1234              	.LBE187:
 1235              	.LBE186:
 1236              		.loc 3 819 0
 1237 0242 43EA0223 		orr	r3, r3, r2, lsl #8
 1238              	.LVL113:
 1239              		.loc 3 821 0
 1240 0246 E26B     		ldr	r2, [r4, #60]
 1241 0248 9A42     		cmp	r2, r3
 1242              		.loc 3 822 0
 1243 024a 88BF     		it	hi
 1244 024c E363     		strhi	r3, [r4, #60]
 1245              		.loc 3 824 0
 1246 024e 94F94430 		ldrsb	r3, [r4, #68]
 1247              	.LVL114:
 1248 0252 E56B     		ldr	r5, [r4, #60]
 1249 0254 002B     		cmp	r3, #0
 1250 0256 14DA     		bge	.L76
 1251              		.loc 3 826 0
 1252 0258 4DB1     		cbz	r5, .L77
 1253              		.loc 3 828 0
 1254 025a 0923     		movs	r3, #9
ARM GAS  /tmp/ccIJgpYl.s 			page 23


 1255 025c 84F83430 		strb	r3, [r4, #52]
 1256              	.LBB188:
 1257              	.LBB189:
 1258              		.loc 4 533 0
 1259 0260 FFF7FEFF 		bl	chSysLockFromISR
 1260              	.LVL115:
 1261              	.LBE189:
 1262              	.LBE188:
 1263              		.loc 3 830 0
 1264 0264 2046     		mov	r0, r4
 1265 0266 0021     		movs	r1, #0
 1266 0268 A26B     		ldr	r2, [r4, #56]
 1267 026a E36B     		ldr	r3, [r4, #60]
 1268 026c 1FE0     		b	.L113
 1269              	.LVL116:
 1270              	.L77:
 1271              		.loc 3 836 0
 1272 026e 1423     		movs	r3, #20
 1273 0270 84F83430 		strb	r3, [r4, #52]
 1274              	.LBB190:
 1275              	.LBB191:
 1276              		.loc 4 533 0
 1277 0274 FFF7FEFF 		bl	chSysLockFromISR
 1278              	.LVL117:
 1279              	.LBE191:
 1280              	.LBE190:
 1281              		.loc 3 839 0
 1282 0278 2046     		mov	r0, r4
 1283 027a 2946     		mov	r1, r5
 1284 027c 2A46     		mov	r2, r5
 1285 027e 2B46     		mov	r3, r5
 1286 0280 09E0     		b	.L118
 1287              	.LVL118:
 1288              	.L76:
 1289              		.loc 3 848 0
 1290 0282 5DB1     		cbz	r5, .L78
 1291              		.loc 3 850 0
 1292 0284 1523     		movs	r3, #21
 1293 0286 84F83430 		strb	r3, [r4, #52]
 1294              	.LBB192:
 1295              	.LBB193:
 1296              		.loc 4 533 0
 1297 028a FFF7FEFF 		bl	chSysLockFromISR
 1298              	.LVL119:
 1299              	.LBE193:
 1300              	.LBE192:
 1301              		.loc 3 852 0
 1302 028e A26B     		ldr	r2, [r4, #56]
 1303 0290 E36B     		ldr	r3, [r4, #60]
 1304 0292 2046     		mov	r0, r4
 1305 0294 0021     		movs	r1, #0
 1306              	.LVL120:
 1307              	.L118:
 1308 0296 FFF7FEFF 		bl	usbStartReceiveI
 1309              	.LVL121:
 1310 029a 0AE0     		b	.L114
 1311              	.LVL122:
ARM GAS  /tmp/ccIJgpYl.s 			page 24


 1312              	.L78:
 1313              		.loc 3 858 0
 1314 029c 0B23     		movs	r3, #11
 1315 029e 84F83430 		strb	r3, [r4, #52]
 1316              	.LBB194:
 1317              	.LBB195:
 1318              		.loc 4 533 0
 1319 02a2 FFF7FEFF 		bl	chSysLockFromISR
 1320              	.LVL123:
 1321              	.LBE195:
 1322              	.LBE194:
 1323              		.loc 3 861 0
 1324 02a6 2046     		mov	r0, r4
 1325 02a8 2946     		mov	r1, r5
 1326 02aa 2A46     		mov	r2, r5
 1327 02ac 2B46     		mov	r3, r5
 1328              	.LVL124:
 1329              	.L113:
 1330 02ae FFF7FEFF 		bl	usbStartTransmitI
 1331              	.LVL125:
 1332              	.L114:
 1333              		.loc 3 868 0
 1334 02b2 BDE8F840 		pop	{r3, r4, r5, r6, r7, lr}
 1335              		.cfi_restore 14
 1336              		.cfi_restore 7
 1337              		.cfi_restore 6
 1338              		.cfi_restore 5
 1339              		.cfi_restore 4
 1340              		.cfi_restore 3
 1341              		.cfi_def_cfa_offset 0
 1342              	.LVL126:
 1343              	.LBB196:
 1344              	.LBB197:
 1345              		.loc 4 544 0
 1346 02b6 FFF7FEBF 		b	chSysUnlockFromISR
 1347              	.LVL127:
 1348              	.L124:
 1349 02ba 00BF     		.align	2
 1350              	.L123:
 1351 02bc 00000000 		.word	.LANCHOR0
 1352 02c0 00000000 		.word	.LANCHOR2
 1353 02c4 00000000 		.word	.LANCHOR1
 1354              	.LBE197:
 1355              	.LBE196:
 1356              		.cfi_endproc
 1357              	.LFE340:
 1358              		.size	_usb_ep0setup, .-_usb_ep0setup
 1359              		.section	.text._usb_ep0in,"ax",%progbits
 1360              		.align	1
 1361              		.global	_usb_ep0in
 1362              		.thumb
 1363              		.thumb_func
 1364              		.type	_usb_ep0in, %function
 1365              	_usb_ep0in:
 1366              	.LFB341:
 1367              		.loc 3 880 0
 1368              		.cfi_startproc
ARM GAS  /tmp/ccIJgpYl.s 			page 25


 1369              		@ args = 0, pretend = 0, frame = 0
 1370              		@ frame_needed = 0, uses_anonymous_args = 0
 1371              	.LVL128:
 1372 0000 38B5     		push	{r3, r4, r5, lr}
 1373              		.cfi_def_cfa_offset 16
 1374              		.cfi_offset 3, -16
 1375              		.cfi_offset 4, -12
 1376              		.cfi_offset 5, -8
 1377              		.cfi_offset 14, -4
 1378              		.loc 3 884 0
 1379 0002 90F83430 		ldrb	r3, [r0, #52]	@ zero_extendqisi2
 1380              		.loc 3 880 0
 1381 0006 0446     		mov	r4, r0
 1382              		.loc 3 884 0
 1383 0008 152B     		cmp	r3, #21
 1384 000a 4CD8     		bhi	.L125
 1385 000c DFE803F0 		tbb	[pc, r3]
 1386              	.L128:
 1387 0010 3B       		.byte	(.L127-.L128)/2
 1388 0011 4B       		.byte	(.L125-.L128)/2
 1389 0012 4B       		.byte	(.L125-.L128)/2
 1390 0013 4B       		.byte	(.L125-.L128)/2
 1391 0014 4B       		.byte	(.L125-.L128)/2
 1392 0015 4B       		.byte	(.L125-.L128)/2
 1393 0016 3B       		.byte	(.L127-.L128)/2
 1394 0017 4B       		.byte	(.L125-.L128)/2
 1395 0018 4B       		.byte	(.L125-.L128)/2
 1396 0019 0B       		.byte	(.L129-.L128)/2
 1397 001a 27       		.byte	(.L130-.L128)/2
 1398 001b 36       		.byte	(.L131-.L128)/2
 1399 001c 4B       		.byte	(.L125-.L128)/2
 1400 001d 4B       		.byte	(.L125-.L128)/2
 1401 001e 4B       		.byte	(.L125-.L128)/2
 1402 001f 4B       		.byte	(.L125-.L128)/2
 1403 0020 4B       		.byte	(.L125-.L128)/2
 1404 0021 4B       		.byte	(.L125-.L128)/2
 1405 0022 4B       		.byte	(.L125-.L128)/2
 1406 0023 4B       		.byte	(.L125-.L128)/2
 1407 0024 3B       		.byte	(.L127-.L128)/2
 1408 0025 3B       		.byte	(.L127-.L128)/2
 1409              		.p2align 1
 1410              	.L129:
 1411              	.LVL129:
 1412              	.LBB198:
 1413              	.LBB199:
 1414              		.loc 3 55 0
 1415 0026 90F84B10 		ldrb	r1, [r0, #75]	@ zero_extendqisi2
 1416              	.LVL130:
 1417 002a 90F84A30 		ldrb	r3, [r0, #74]	@ zero_extendqisi2
 1418              	.LBE199:
 1419              	.LBE198:
 1420              		.loc 3 890 0
 1421 002e C26B     		ldr	r2, [r0, #60]
 1422              		.loc 3 886 0
 1423 0030 43EA0123 		orr	r3, r3, r1, lsl #8
 1424              		.loc 3 890 0
 1425 0034 9A42     		cmp	r2, r3
ARM GAS  /tmp/ccIJgpYl.s 			page 26


 1426 0036 12D2     		bcs	.L130
 1427              		.loc 3 891 0 discriminator 1
 1428 0038 C368     		ldr	r3, [r0, #12]
 1429 003a 1D8A     		ldrh	r5, [r3, #16]
 1430 003c B2FBF5F3 		udiv	r3, r2, r5
 1431 0040 05FB1325 		mls	r5, r5, r3, r2
 1432              		.loc 3 890 0 discriminator 1
 1433 0044 5DB9     		cbnz	r5, .L130
 1434              	.LBB200:
 1435              	.LBB201:
 1436              		.loc 4 533 0
 1437 0046 FFF7FEFF 		bl	chSysLockFromISR
 1438              	.LVL131:
 1439              	.LBE201:
 1440              	.LBE200:
 1441              		.loc 3 893 0
 1442 004a 2B46     		mov	r3, r5
 1443 004c 2046     		mov	r0, r4
 1444 004e 2946     		mov	r1, r5
 1445 0050 2A46     		mov	r2, r5
 1446 0052 FFF7FEFF 		bl	usbStartTransmitI
 1447              	.LVL132:
 1448              	.LBB202:
 1449              	.LBB203:
 1450              		.loc 4 544 0
 1451 0056 FFF7FEFF 		bl	chSysUnlockFromISR
 1452              	.LVL133:
 1453              	.LBE203:
 1454              	.LBE202:
 1455              		.loc 3 895 0
 1456 005a 0A23     		movs	r3, #10
 1457 005c 21E0     		b	.L140
 1458              	.LVL134:
 1459              	.L130:
 1460              		.loc 3 901 0
 1461 005e 1423     		movs	r3, #20
 1462 0060 84F83430 		strb	r3, [r4, #52]
 1463              	.LBB204:
 1464              	.LBB205:
 1465              		.loc 4 533 0
 1466 0064 FFF7FEFF 		bl	chSysLockFromISR
 1467              	.LVL135:
 1468              	.LBE205:
 1469              	.LBE204:
 1470              		.loc 3 904 0
 1471 0068 0021     		movs	r1, #0
 1472 006a 2046     		mov	r0, r4
 1473 006c 0B46     		mov	r3, r1
 1474 006e 0A46     		mov	r2, r1
 1475 0070 FFF7FEFF 		bl	usbStartReceiveI
 1476              	.LVL136:
 1477              		.loc 3 935 0
 1478 0074 BDE83840 		pop	{r3, r4, r5, lr}
 1479              		.cfi_remember_state
 1480              		.cfi_restore 14
 1481              		.cfi_restore 5
 1482              		.cfi_restore 4
ARM GAS  /tmp/ccIJgpYl.s 			page 27


 1483              		.cfi_restore 3
 1484              		.cfi_def_cfa_offset 0
 1485              	.LVL137:
 1486              	.LBB206:
 1487              	.LBB207:
 1488              		.loc 4 544 0
 1489 0078 FFF7FEBF 		b	chSysUnlockFromISR
 1490              	.LVL138:
 1491              	.L131:
 1492              		.cfi_restore_state
 1493              	.LBE207:
 1494              	.LBE206:
 1495              		.loc 3 912 0
 1496 007c 036C     		ldr	r3, [r0, #64]
 1497 007e 03B1     		cbz	r3, .L132
 1498              		.loc 3 913 0
 1499 0080 9847     		blx	r3
 1500              	.LVL139:
 1501              	.L132:
 1502              		.loc 3 915 0
 1503 0082 0023     		movs	r3, #0
 1504 0084 0DE0     		b	.L140
 1505              	.LVL140:
 1506              	.L127:
 1507              		.loc 3 927 0
 1508 0086 0021     		movs	r1, #0
 1509              	.LVL141:
 1510 0088 FFF7FEFF 		bl	usb_lld_stall_in
 1511              	.LVL142:
 1512              		.loc 3 928 0
 1513 008c 2046     		mov	r0, r4
 1514 008e 0021     		movs	r1, #0
 1515 0090 FFF7FEFF 		bl	usb_lld_stall_out
 1516              	.LVL143:
 1517              		.loc 3 929 0
 1518 0094 6368     		ldr	r3, [r4, #4]
 1519 0096 1B68     		ldr	r3, [r3]
 1520 0098 13B1     		cbz	r3, .L133
 1521              		.loc 3 929 0 is_stmt 0 discriminator 1
 1522 009a 2046     		mov	r0, r4
 1523 009c 0621     		movs	r1, #6
 1524 009e 9847     		blx	r3
 1525              	.LVL144:
 1526              	.L133:
 1527              		.loc 3 930 0 is_stmt 1
 1528 00a0 0623     		movs	r3, #6
 1529              	.L140:
 1530 00a2 84F83430 		strb	r3, [r4, #52]
 1531              	.L125:
 1532 00a6 38BD     		pop	{r3, r4, r5, pc}
 1533              		.cfi_endproc
 1534              	.LFE341:
 1535              		.size	_usb_ep0in, .-_usb_ep0in
 1536              		.section	.text._usb_ep0out,"ax",%progbits
 1537              		.align	1
 1538              		.global	_usb_ep0out
 1539              		.thumb
ARM GAS  /tmp/ccIJgpYl.s 			page 28


 1540              		.thumb_func
 1541              		.type	_usb_ep0out, %function
 1542              	_usb_ep0out:
 1543              	.LFB342:
 1544              		.loc 3 947 0
 1545              		.cfi_startproc
 1546              		@ args = 0, pretend = 0, frame = 0
 1547              		@ frame_needed = 0, uses_anonymous_args = 0
 1548              	.LVL145:
 1549              		.loc 3 950 0
 1550 0000 90F83420 		ldrb	r2, [r0, #52]	@ zero_extendqisi2
 1551 0004 152A     		cmp	r2, #21
 1552              		.loc 3 947 0
 1553 0006 38B5     		push	{r3, r4, r5, lr}
 1554              		.cfi_def_cfa_offset 16
 1555              		.cfi_offset 3, -16
 1556              		.cfi_offset 4, -12
 1557              		.cfi_offset 5, -8
 1558              		.cfi_offset 14, -4
 1559              		.loc 3 947 0
 1560 0008 0446     		mov	r4, r0
 1561 000a 32D8     		bhi	.L141
 1562 000c 0123     		movs	r3, #1
 1563 000e 9340     		lsls	r3, r3, r2
 1564 0010 40F64162 		movw	r2, #3649
 1565 0014 1A40     		ands	r2, r2, r3
 1566 0016 E2B9     		cbnz	r2, .L143
 1567 0018 13F48015 		ands	r5, r3, #1048576
 1568 001c 10D1     		bne	.L144
 1569 001e 9B02     		lsls	r3, r3, #10
 1570 0020 27D5     		bpl	.L141
 1571              		.loc 3 953 0
 1572 0022 0B23     		movs	r3, #11
 1573 0024 80F83430 		strb	r3, [r0, #52]
 1574              	.LBB208:
 1575              	.LBB209:
 1576              		.loc 4 533 0
 1577 0028 FFF7FEFF 		bl	chSysLockFromISR
 1578              	.LVL146:
 1579              	.LBE209:
 1580              	.LBE208:
 1581              		.loc 3 956 0
 1582 002c 2046     		mov	r0, r4
 1583 002e 2946     		mov	r1, r5
 1584 0030 2A46     		mov	r2, r5
 1585 0032 2B46     		mov	r3, r5
 1586 0034 FFF7FEFF 		bl	usbStartTransmitI
 1587              	.LVL147:
 1588              		.loc 3 994 0
 1589 0038 BDE83840 		pop	{r3, r4, r5, lr}
 1590              		.cfi_remember_state
 1591              		.cfi_restore 14
 1592              		.cfi_restore 5
 1593              		.cfi_restore 4
 1594              		.cfi_restore 3
 1595              		.cfi_def_cfa_offset 0
 1596              	.LVL148:
ARM GAS  /tmp/ccIJgpYl.s 			page 29


 1597              	.LBB210:
 1598              	.LBB211:
 1599              		.loc 4 544 0
 1600 003c FFF7FEBF 		b	chSysUnlockFromISR
 1601              	.LVL149:
 1602              	.L144:
 1603              		.cfi_restore_state
 1604              	.LBE211:
 1605              	.LBE210:
 1606              		.loc 3 966 0
 1607 0040 C368     		ldr	r3, [r0, #12]
 1608 0042 9B69     		ldr	r3, [r3, #24]
 1609 0044 5B68     		ldr	r3, [r3, #4]
 1610 0046 A3B9     		cbnz	r3, .L141
 1611              		.loc 3 970 0
 1612 0048 036C     		ldr	r3, [r0, #64]
 1613 004a 03B1     		cbz	r3, .L145
 1614              		.loc 3 971 0
 1615 004c 9847     		blx	r3
 1616              	.LVL150:
 1617              	.L145:
 1618              		.loc 3 973 0
 1619 004e 0023     		movs	r3, #0
 1620 0050 0DE0     		b	.L156
 1621              	.LVL151:
 1622              	.L143:
 1623              		.loc 3 986 0
 1624 0052 0021     		movs	r1, #0
 1625              	.LVL152:
 1626 0054 FFF7FEFF 		bl	usb_lld_stall_in
 1627              	.LVL153:
 1628              		.loc 3 987 0
 1629 0058 2046     		mov	r0, r4
 1630 005a 0021     		movs	r1, #0
 1631 005c FFF7FEFF 		bl	usb_lld_stall_out
 1632              	.LVL154:
 1633              		.loc 3 988 0
 1634 0060 6368     		ldr	r3, [r4, #4]
 1635 0062 1B68     		ldr	r3, [r3]
 1636 0064 13B1     		cbz	r3, .L146
 1637              		.loc 3 988 0 is_stmt 0 discriminator 1
 1638 0066 2046     		mov	r0, r4
 1639 0068 0621     		movs	r1, #6
 1640 006a 9847     		blx	r3
 1641              	.LVL155:
 1642              	.L146:
 1643              		.loc 3 989 0 is_stmt 1
 1644 006c 0623     		movs	r3, #6
 1645              	.L156:
 1646 006e 84F83430 		strb	r3, [r4, #52]
 1647              	.L141:
 1648 0072 38BD     		pop	{r3, r4, r5, pc}
 1649              		.cfi_endproc
 1650              	.LFE342:
 1651              		.size	_usb_ep0out, .-_usb_ep0out
 1652              		.section	.rodata.zero_status,"a",%progbits
 1653              		.set	.LANCHOR0,. + 0
ARM GAS  /tmp/ccIJgpYl.s 			page 30


 1654              		.type	zero_status, %object
 1655              		.size	zero_status, 2
 1656              	zero_status:
 1657 0000 0000     		.space	2
 1658              		.section	.rodata.active_status,"a",%progbits
 1659              		.set	.LANCHOR2,. + 0
 1660              		.type	active_status, %object
 1661              		.size	active_status, 2
 1662              	active_status:
 1663 0000 0000     		.space	2
 1664              		.section	.rodata.halted_status,"a",%progbits
 1665              		.set	.LANCHOR1,. + 0
 1666              		.type	halted_status, %object
 1667              		.size	halted_status, 2
 1668              	halted_status:
 1669 0000 01       		.byte	1
 1670 0001 00       		.byte	0
 1671              		.text
 1672              	.Letext0:
 1673              		.file 5 "/usr/lib/gcc/arm-none-eabi/4.9.3/include/stddef.h"
 1674              		.file 6 "/usr/include/newlib/machine/_default_types.h"
 1675              		.file 7 "/usr/include/newlib/sys/_stdint.h"
 1676              		.file 8 "../../modules/ChibiOS/os/common/ports/ARMCMx/compilers/GCC/chtypes.h"
 1677              		.file 9 "../../modules/ChibiOS/os/rt/include/chsystypes.h"
 1678              		.file 10 "../../modules/ChibiOS/os/rt/include/chschd.h"
 1679              		.file 11 "../../modules/ChibiOS/os/rt/include/chtime.h"
 1680              		.file 12 "../../modules/ChibiOS/os/common/ports/ARMCMx/chcore.h"
 1681              		.file 13 "../../modules/ChibiOS/os/common/ports/ARMCMx/chcore_v7m.h"
 1682              		.file 14 "../../modules/ChibiOS/os/rt/include/chtm.h"
 1683              		.file 15 "../../modules/ChibiOS/os/rt/include/chstats.h"
 1684              		.file 16 "../../modules/ChibiOS/os/rt/include/chsem.h"
 1685              		.file 17 "../../modules/ChibiOS/os/rt/include/chmtx.h"
 1686              		.file 18 "../../modules/ChibiOS/os/hal/include/hal_usb.h"
 1687              		.file 19 "../../modules/ChibiOS/os/hal/ports/STM32/LLD/OTGv1/hal_usb_lld.h"
 1688              		.file 20 "../../modules/ChibiOS/os/hal/ports/STM32/LLD/OTGv1/stm32_otg.h"
 1689              		.file 21 "../../modules/ChibiOS/os/rt/include/chthreads.h"
 1690              		.file 22 "../../modules/ChibiOS/os/common/ext/ARM/CMSIS/Core/Include/core_cm4.h"