ARM GAS  /tmp/ccWJ9FT7.s 			page 1


   1              		.syntax unified
   2              		.cpu cortex-m4
   3              		.eabi_attribute 27, 1
   4              		.eabi_attribute 28, 1
   5              		.fpu fpv4-sp-d16
   6              		.eabi_attribute 20, 1
   7              		.eabi_attribute 21, 1
   8              		.eabi_attribute 23, 3
   9              		.eabi_attribute 24, 1
  10              		.eabi_attribute 25, 1
  11              		.eabi_attribute 26, 1
  12              		.eabi_attribute 30, 4
  13              		.eabi_attribute 34, 1
  14              		.eabi_attribute 18, 4
  15              		.thumb
  16              		.file	"hal_buffers.c"
  17              		.text
  18              	.Ltext0:
  19              		.cfi_sections	.debug_frame
  20              		.section	.text.chSysLock,"ax",%progbits
  21              		.align	1
  22              		.thumb
  23              		.thumb_func
  24              		.type	chSysLock, %function
  25              	chSysLock:
  26              	.LFB184:
  27              		.file 1 "../../modules/ChibiOS/os/rt/include/chsys.h"
  28              		.loc 1 353 0
  29              		.cfi_startproc
  30              		@ args = 0, pretend = 0, frame = 0
  31              		@ frame_needed = 0, uses_anonymous_args = 0
  32              		@ link register save eliminated.
  33              	.LVL0:
  34              	.LBB103:
  35              	.LBB104:
  36              	.LBB105:
  37              		.file 2 "../../modules/ChibiOS/os/common/ext/ARM/CMSIS/Core/Include/cmsis_gcc.h"
  38              		.loc 2 493 0
  39 0000 2023     		movs	r3, #32
  40              	@ 493 "../../modules/ChibiOS/os/common/ext/ARM/CMSIS/Core/Include/cmsis_gcc.h" 1
  41 0002 83F31188 		MSR basepri, r3
  42              	@ 0 "" 2
  43              		.thumb
  44              	.LBE105:
  45              	.LBE104:
  46              	.LBE103:
  47              		.loc 1 356 0
  48 0006 FFF7FEBF 		b	_stats_start_measure_crit_thd
  49              	.LVL1:
  50              		.cfi_endproc
  51              	.LFE184:
  52              		.size	chSysLock, .-chSysLock
  53              		.section	.text.chSysUnlock,"ax",%progbits
  54              		.align	1
  55              		.thumb
  56              		.thumb_func
  57              		.type	chSysUnlock, %function
ARM GAS  /tmp/ccWJ9FT7.s 			page 2


  58              	chSysUnlock:
  59              	.LFB185:
  60              		.loc 1 365 0
  61              		.cfi_startproc
  62              		@ args = 0, pretend = 0, frame = 0
  63              		@ frame_needed = 0, uses_anonymous_args = 0
  64 0000 08B5     		push	{r3, lr}
  65              		.cfi_def_cfa_offset 8
  66              		.cfi_offset 3, -8
  67              		.cfi_offset 14, -4
  68              		.loc 1 368 0
  69 0002 FFF7FEFF 		bl	_stats_stop_measure_crit_thd
  70              	.LVL2:
  71              	.LBB106:
  72              	.LBB107:
  73              	.LBB108:
  74              		.loc 2 493 0
  75 0006 0023     		movs	r3, #0
  76              	@ 493 "../../modules/ChibiOS/os/common/ext/ARM/CMSIS/Core/Include/cmsis_gcc.h" 1
  77 0008 83F31188 		MSR basepri, r3
  78              	@ 0 "" 2
  79              		.thumb
  80 000c 08BD     		pop	{r3, pc}
  81              	.LBE108:
  82              	.LBE107:
  83              	.LBE106:
  84              		.cfi_endproc
  85              	.LFE185:
  86              		.size	chSysUnlock, .-chSysUnlock
  87              		.section	.text.ibqObjectInit,"ax",%progbits
  88              		.align	1
  89              		.global	ibqObjectInit
  90              		.thumb
  91              		.thumb_func
  92              		.type	ibqObjectInit, %function
  93              	ibqObjectInit:
  94              	.LFB323:
  95              		.file 3 "../../modules/ChibiOS/os/hal/src/hal_buffers.c"
  96              		.loc 3 77 0
  97              		.cfi_startproc
  98              		@ args = 12, pretend = 0, frame = 0
  99              		@ frame_needed = 0, uses_anonymous_args = 0
 100              	.LVL3:
 101 0000 30B5     		push	{r4, r5, lr}
 102              		.cfi_def_cfa_offset 12
 103              		.cfi_offset 4, -12
 104              		.cfi_offset 5, -8
 105              		.cfi_offset 14, -4
 106              		.loc 3 77 0
 107 0002 039C     		ldr	r4, [sp, #12]
 108              		.loc 3 82 0
 109 0004 0172     		strb	r1, [r0, #8]
 110              		.loc 3 86 0
 111 0006 0433     		adds	r3, r3, #4
 112              	.LVL4:
 113 0008 04FB0325 		mla	r5, r4, r3, r2
 114              		.loc 3 87 0
ARM GAS  /tmp/ccWJ9FT7.s 			page 3


 115 000c C361     		str	r3, [r0, #28]
 116              		.loc 3 92 0
 117 000e 049B     		ldr	r3, [sp, #16]
 118              	.LVL5:
 119 0010 0363     		str	r3, [r0, #48]
 120              		.loc 3 83 0
 121 0012 0021     		movs	r1, #0
 122              	.LVL6:
 123              		.loc 3 93 0
 124 0014 059B     		ldr	r3, [sp, #20]
 125              	.LBB109:
 126              	.LBB110:
 127              	.LBB111:
 128              	.LBB112:
 129              		.file 4 "../../modules/ChibiOS/os/rt/include/chschd.h"
 130              		.loc 4 539 0
 131 0016 0060     		str	r0, [r0]
 132              		.loc 4 540 0
 133 0018 4060     		str	r0, [r0, #4]
 134              	.LBE112:
 135              	.LBE111:
 136              	.LBE110:
 137              	.LBE109:
 138              		.loc 3 83 0
 139 001a C160     		str	r1, [r0, #12]
 140              		.loc 3 84 0
 141 001c 4261     		str	r2, [r0, #20]
 142              		.loc 3 85 0
 143 001e 0261     		str	r2, [r0, #16]
 144              		.loc 3 86 0
 145 0020 8561     		str	r5, [r0, #24]
 146              		.loc 3 88 0
 147 0022 0462     		str	r4, [r0, #32]
 148              		.loc 3 89 0
 149 0024 4262     		str	r2, [r0, #36]
 150              		.loc 3 90 0
 151 0026 8162     		str	r1, [r0, #40]
 152              		.loc 3 91 0
 153 0028 C162     		str	r1, [r0, #44]
 154              		.loc 3 93 0
 155 002a 4363     		str	r3, [r0, #52]
 156 002c 30BD     		pop	{r4, r5, pc}
 157              		.cfi_endproc
 158              	.LFE323:
 159              		.size	ibqObjectInit, .-ibqObjectInit
 160              		.section	.text.ibqResetI,"ax",%progbits
 161              		.align	1
 162              		.global	ibqResetI
 163              		.thumb
 164              		.thumb_func
 165              		.type	ibqResetI, %function
 166              	ibqResetI:
 167              	.LFB324:
 168              		.loc 3 107 0
 169              		.cfi_startproc
 170              		@ args = 0, pretend = 0, frame = 0
 171              		@ frame_needed = 0, uses_anonymous_args = 0
ARM GAS  /tmp/ccWJ9FT7.s 			page 4


 172              		@ link register save eliminated.
 173              	.LVL7:
 174              		.loc 3 111 0
 175 0000 0022     		movs	r2, #0
 176              		.loc 3 112 0
 177 0002 416A     		ldr	r1, [r0, #36]
 178 0004 4161     		str	r1, [r0, #20]
 179              		.loc 3 113 0
 180 0006 0161     		str	r1, [r0, #16]
 181              		.loc 3 111 0
 182 0008 C260     		str	r2, [r0, #12]
 183              		.loc 3 114 0
 184 000a 8262     		str	r2, [r0, #40]
 185              		.loc 3 115 0
 186 000c C262     		str	r2, [r0, #44]
 187              	.LVL8:
 188              	.LBB113:
 189              	.LBB114:
 190              		.file 5 "../../modules/ChibiOS/os/hal/osal/rt/osal.h"
 191              		.loc 5 857 0
 192 000e 6FF00101 		mvn	r1, #1
 193 0012 FFF7FEBF 		b	chThdDequeueAllI
 194              	.LVL9:
 195              	.LBE114:
 196              	.LBE113:
 197              		.cfi_endproc
 198              	.LFE324:
 199              		.size	ibqResetI, .-ibqResetI
 200              		.section	.text.ibqGetEmptyBufferI,"ax",%progbits
 201              		.align	1
 202              		.global	ibqGetEmptyBufferI
 203              		.thumb
 204              		.thumb_func
 205              		.type	ibqGetEmptyBufferI, %function
 206              	ibqGetEmptyBufferI:
 207              	.LFB325:
 208              		.loc 3 129 0
 209              		.cfi_startproc
 210              		@ args = 0, pretend = 0, frame = 0
 211              		@ frame_needed = 0, uses_anonymous_args = 0
 212              		@ link register save eliminated.
 213              	.LVL10:
 214              		.loc 3 133 0
 215 0000 0369     		ldr	r3, [r0, #16]
 216 0002 4269     		ldr	r2, [r0, #20]
 217 0004 9342     		cmp	r3, r2
 218 0006 03D1     		bne	.L6
 219              		.loc 3 133 0 is_stmt 0 discriminator 1
 220 0008 C268     		ldr	r2, [r0, #12]
 221 000a 0AB1     		cbz	r2, .L6
 222              		.loc 3 134 0 is_stmt 1
 223 000c 0020     		movs	r0, #0
 224              	.LVL11:
 225 000e 7047     		bx	lr
 226              	.LVL12:
 227              	.L6:
 228              		.loc 3 137 0
ARM GAS  /tmp/ccWJ9FT7.s 			page 5


 229 0010 181D     		adds	r0, r3, #4
 230              	.LVL13:
 231              		.loc 3 138 0
 232 0012 7047     		bx	lr
 233              		.cfi_endproc
 234              	.LFE325:
 235              		.size	ibqGetEmptyBufferI, .-ibqGetEmptyBufferI
 236              		.section	.text.ibqPostFullBufferI,"ax",%progbits
 237              		.align	1
 238              		.global	ibqPostFullBufferI
 239              		.thumb
 240              		.thumb_func
 241              		.type	ibqPostFullBufferI, %function
 242              	ibqPostFullBufferI:
 243              	.LFB326:
 244              		.loc 3 148 0
 245              		.cfi_startproc
 246              		@ args = 0, pretend = 0, frame = 0
 247              		@ frame_needed = 0, uses_anonymous_args = 0
 248              	.LVL14:
 249 0000 10B5     		push	{r4, lr}
 250              		.cfi_def_cfa_offset 8
 251              		.cfi_offset 4, -8
 252              		.cfi_offset 14, -4
 253              		.loc 3 156 0
 254 0002 0469     		ldr	r4, [r0, #16]
 255 0004 2160     		str	r1, [r4]
 256              		.loc 3 159 0
 257 0006 C268     		ldr	r2, [r0, #12]
 258              		.loc 3 160 0
 259 0008 C369     		ldr	r3, [r0, #28]
 260              		.loc 3 159 0
 261 000a 0132     		adds	r2, r2, #1
 262 000c C260     		str	r2, [r0, #12]
 263              		.loc 3 161 0
 264 000e 8269     		ldr	r2, [r0, #24]
 265              		.loc 3 160 0
 266 0010 2344     		add	r3, r3, r4
 267              		.loc 3 161 0
 268 0012 9342     		cmp	r3, r2
 269              		.loc 3 160 0
 270 0014 0361     		str	r3, [r0, #16]
 271              		.loc 3 162 0
 272 0016 24BF     		itt	cs
 273 0018 436A     		ldrcs	r3, [r0, #36]
 274 001a 0361     		strcs	r3, [r0, #16]
 275              	.LVL15:
 276              	.LBB115:
 277              	.LBB116:
 278              		.loc 5 844 0
 279 001c 0021     		movs	r1, #0
 280              	.LVL16:
 281              	.LBE116:
 282              	.LBE115:
 283              		.loc 3 167 0
 284 001e BDE81040 		pop	{r4, lr}
 285              		.cfi_restore 14
ARM GAS  /tmp/ccWJ9FT7.s 			page 6


 286              		.cfi_restore 4
 287              		.cfi_def_cfa_offset 0
 288              	.LBB118:
 289              	.LBB117:
 290              		.loc 5 844 0
 291 0022 FFF7FEBF 		b	chThdDequeueNextI
 292              	.LVL17:
 293              	.LBE117:
 294              	.LBE118:
 295              		.cfi_endproc
 296              	.LFE326:
 297              		.size	ibqPostFullBufferI, .-ibqPostFullBufferI
 298              		.section	.text.ibqGetFullBufferTimeoutS,"ax",%progbits
 299              		.align	1
 300              		.global	ibqGetFullBufferTimeoutS
 301              		.thumb
 302              		.thumb_func
 303              		.type	ibqGetFullBufferTimeoutS, %function
 304              	ibqGetFullBufferTimeoutS:
 305              	.LFB328:
 306              		.loc 3 223 0
 307              		.cfi_startproc
 308              		@ args = 0, pretend = 0, frame = 0
 309              		@ frame_needed = 0, uses_anonymous_args = 0
 310              	.LVL18:
 311 0000 38B5     		push	{r3, r4, r5, lr}
 312              		.cfi_def_cfa_offset 16
 313              		.cfi_offset 3, -16
 314              		.cfi_offset 4, -12
 315              		.cfi_offset 5, -8
 316              		.cfi_offset 14, -4
 317 0002 0446     		mov	r4, r0
 318 0004 0D46     		mov	r5, r1
 319              	.LVL19:
 320              	.L16:
 321              		.loc 3 227 0
 322 0006 E368     		ldr	r3, [r4, #12]
 323 0008 43B9     		cbnz	r3, .L21
 324              	.LBB127:
 325              		.loc 3 228 0
 326 000a 237A     		ldrb	r3, [r4, #8]	@ zero_extendqisi2
 327 000c 73B9     		cbnz	r3, .L19
 328              	.LVL20:
 329              	.LBB128:
 330              	.LBB129:
 331              		.loc 5 831 0
 332 000e 2046     		mov	r0, r4
 333 0010 2946     		mov	r1, r5
 334 0012 FFF7FEFF 		bl	chThdEnqueueTimeoutS
 335              	.LVL21:
 336              	.LBE129:
 337              	.LBE128:
 338              		.loc 3 232 0
 339 0016 0028     		cmp	r0, #0
 340 0018 F5DA     		bge	.L16
 341 001a 09E0     		b	.L17
 342              	.LVL22:
ARM GAS  /tmp/ccWJ9FT7.s 			page 7


 343              	.L21:
 344              	.LBE127:
 345              	.LBB130:
 346              	.LBB131:
 347              		.loc 3 240 0
 348 001c 6369     		ldr	r3, [r4, #20]
 349 001e 1A1D     		adds	r2, r3, #4
 350              		.loc 3 241 0
 351 0020 1B68     		ldr	r3, [r3]
 352              		.loc 3 240 0
 353 0022 A262     		str	r2, [r4, #40]
 354              		.loc 3 241 0
 355 0024 1344     		add	r3, r3, r2
 356 0026 E362     		str	r3, [r4, #44]
 357 0028 0020     		movs	r0, #0
 358 002a 38BD     		pop	{r3, r4, r5, pc}
 359              	.LVL23:
 360              	.L19:
 361              	.LBE131:
 362              	.LBE130:
 363              	.LBB132:
 364              		.loc 3 229 0
 365 002c 6FF00100 		mvn	r0, #1
 366              	.L17:
 367              	.LBE132:
 368              		.loc 3 244 0
 369 0030 38BD     		pop	{r3, r4, r5, pc}
 370              		.cfi_endproc
 371              	.LFE328:
 372              		.size	ibqGetFullBufferTimeoutS, .-ibqGetFullBufferTimeoutS
 373              		.section	.text.ibqGetFullBufferTimeout,"ax",%progbits
 374              		.align	1
 375              		.global	ibqGetFullBufferTimeout
 376              		.thumb
 377              		.thumb_func
 378              		.type	ibqGetFullBufferTimeout, %function
 379              	ibqGetFullBufferTimeout:
 380              	.LFB327:
 381              		.loc 3 191 0
 382              		.cfi_startproc
 383              		@ args = 0, pretend = 0, frame = 0
 384              		@ frame_needed = 0, uses_anonymous_args = 0
 385              	.LVL24:
 386 0000 38B5     		push	{r3, r4, r5, lr}
 387              		.cfi_def_cfa_offset 16
 388              		.cfi_offset 3, -16
 389              		.cfi_offset 4, -12
 390              		.cfi_offset 5, -8
 391              		.cfi_offset 14, -4
 392              		.loc 3 191 0
 393 0002 0546     		mov	r5, r0
 394 0004 0C46     		mov	r4, r1
 395              	.LBB133:
 396              	.LBB134:
 397              		.loc 5 511 0
 398 0006 FFF7FEFF 		bl	chSysLock
 399              	.LVL25:
ARM GAS  /tmp/ccWJ9FT7.s 			page 8


 400              	.LBE134:
 401              	.LBE133:
 402              		.loc 3 195 0
 403 000a 2146     		mov	r1, r4
 404 000c 2846     		mov	r0, r5
 405 000e FFF7FEFF 		bl	ibqGetFullBufferTimeoutS
 406              	.LVL26:
 407 0012 0446     		mov	r4, r0
 408              	.LVL27:
 409              	.LBB135:
 410              	.LBB136:
 411              		.loc 5 522 0
 412 0014 FFF7FEFF 		bl	chSysUnlock
 413              	.LVL28:
 414              	.LBE136:
 415              	.LBE135:
 416              		.loc 3 199 0
 417 0018 2046     		mov	r0, r4
 418 001a 38BD     		pop	{r3, r4, r5, pc}
 419              		.cfi_endproc
 420              	.LFE327:
 421              		.size	ibqGetFullBufferTimeout, .-ibqGetFullBufferTimeout
 422              		.section	.text.ibqReleaseEmptyBufferS,"ax",%progbits
 423              		.align	1
 424              		.global	ibqReleaseEmptyBufferS
 425              		.thumb
 426              		.thumb_func
 427              		.type	ibqReleaseEmptyBufferS, %function
 428              	ibqReleaseEmptyBufferS:
 429              	.LFB330:
 430              		.loc 3 269 0
 431              		.cfi_startproc
 432              		@ args = 0, pretend = 0, frame = 0
 433              		@ frame_needed = 0, uses_anonymous_args = 0
 434              		@ link register save eliminated.
 435              	.LVL29:
 436              		.loc 3 275 0
 437 0000 C368     		ldr	r3, [r0, #12]
 438              		.loc 3 276 0
 439 0002 4269     		ldr	r2, [r0, #20]
 440              		.loc 3 275 0
 441 0004 013B     		subs	r3, r3, #1
 442 0006 C360     		str	r3, [r0, #12]
 443              		.loc 3 276 0
 444 0008 C369     		ldr	r3, [r0, #28]
 445 000a 1344     		add	r3, r3, r2
 446              		.loc 3 277 0
 447 000c 8269     		ldr	r2, [r0, #24]
 448              		.loc 3 276 0
 449 000e 4361     		str	r3, [r0, #20]
 450              		.loc 3 277 0
 451 0010 9342     		cmp	r3, r2
 452              		.loc 3 278 0
 453 0012 24BF     		itt	cs
 454 0014 436A     		ldrcs	r3, [r0, #36]
 455 0016 4361     		strcs	r3, [r0, #20]
 456              		.loc 3 282 0
ARM GAS  /tmp/ccWJ9FT7.s 			page 9


 457 0018 0023     		movs	r3, #0
 458 001a 8362     		str	r3, [r0, #40]
 459              		.loc 3 285 0
 460 001c 036B     		ldr	r3, [r0, #48]
 461 001e 03B1     		cbz	r3, .L23
 462              		.loc 3 286 0
 463 0020 1847     		bx	r3	@ indirect register sibling call
 464              	.LVL30:
 465              	.L23:
 466 0022 7047     		bx	lr
 467              		.cfi_endproc
 468              	.LFE330:
 469              		.size	ibqReleaseEmptyBufferS, .-ibqReleaseEmptyBufferS
 470              		.section	.text.ibqReleaseEmptyBuffer,"ax",%progbits
 471              		.align	1
 472              		.global	ibqReleaseEmptyBuffer
 473              		.thumb
 474              		.thumb_func
 475              		.type	ibqReleaseEmptyBuffer, %function
 476              	ibqReleaseEmptyBuffer:
 477              	.LFB329:
 478              		.loc 3 254 0
 479              		.cfi_startproc
 480              		@ args = 0, pretend = 0, frame = 0
 481              		@ frame_needed = 0, uses_anonymous_args = 0
 482              	.LVL31:
 483 0000 10B5     		push	{r4, lr}
 484              		.cfi_def_cfa_offset 8
 485              		.cfi_offset 4, -8
 486              		.cfi_offset 14, -4
 487              		.loc 3 254 0
 488 0002 0446     		mov	r4, r0
 489              	.LBB137:
 490              	.LBB138:
 491              		.loc 5 511 0
 492 0004 FFF7FEFF 		bl	chSysLock
 493              	.LVL32:
 494              	.LBE138:
 495              	.LBE137:
 496              		.loc 3 257 0
 497 0008 2046     		mov	r0, r4
 498 000a FFF7FEFF 		bl	ibqReleaseEmptyBufferS
 499              	.LVL33:
 500              		.loc 3 259 0
 501 000e BDE81040 		pop	{r4, lr}
 502              		.cfi_restore 14
 503              		.cfi_restore 4
 504              		.cfi_def_cfa_offset 0
 505              	.LVL34:
 506              	.LBB139:
 507              	.LBB140:
 508              		.loc 5 522 0
 509 0012 FFF7FEBF 		b	chSysUnlock
 510              	.LVL35:
 511              	.LBE140:
 512              	.LBE139:
 513              		.cfi_endproc
ARM GAS  /tmp/ccWJ9FT7.s 			page 10


 514              	.LFE329:
 515              		.size	ibqReleaseEmptyBuffer, .-ibqReleaseEmptyBuffer
 516              		.section	.text.ibqGetTimeout,"ax",%progbits
 517              		.align	1
 518              		.global	ibqGetTimeout
 519              		.thumb
 520              		.thumb_func
 521              		.type	ibqGetTimeout, %function
 522              	ibqGetTimeout:
 523              	.LFB331:
 524              		.loc 3 309 0
 525              		.cfi_startproc
 526              		@ args = 0, pretend = 0, frame = 0
 527              		@ frame_needed = 0, uses_anonymous_args = 0
 528              	.LVL36:
 529 0000 38B5     		push	{r3, r4, r5, lr}
 530              		.cfi_def_cfa_offset 16
 531              		.cfi_offset 3, -16
 532              		.cfi_offset 4, -12
 533              		.cfi_offset 5, -8
 534              		.cfi_offset 14, -4
 535              		.loc 3 309 0
 536 0002 0546     		mov	r5, r0
 537 0004 0C46     		mov	r4, r1
 538              	.LBB141:
 539              	.LBB142:
 540              		.loc 5 511 0
 541 0006 FFF7FEFF 		bl	chSysLock
 542              	.LVL37:
 543              	.LBE142:
 544              	.LBE141:
 545              		.loc 3 315 0
 546 000a AB6A     		ldr	r3, [r5, #40]
 547 000c 2BB9     		cbnz	r3, .L28
 548              		.loc 3 316 0
 549 000e 2146     		mov	r1, r4
 550 0010 2846     		mov	r0, r5
 551 0012 FFF7FEFF 		bl	ibqGetFullBufferTimeoutS
 552              	.LVL38:
 553              		.loc 3 317 0
 554 0016 0446     		mov	r4, r0
 555              	.LVL39:
 556 0018 48B9     		cbnz	r0, .L30
 557              	.LVL40:
 558              	.L28:
 559              		.loc 3 324 0
 560 001a AB6A     		ldr	r3, [r5, #40]
 561              		.loc 3 329 0
 562 001c EA6A     		ldr	r2, [r5, #44]
 563              		.loc 3 324 0
 564 001e 13F8014B 		ldrb	r4, [r3], #1	@ zero_extendqisi2
 565              	.LVL41:
 566              		.loc 3 325 0
 567 0022 AB62     		str	r3, [r5, #40]
 568              		.loc 3 329 0
 569 0024 9342     		cmp	r3, r2
 570 0026 02D3     		bcc	.L30
ARM GAS  /tmp/ccWJ9FT7.s 			page 11


 571              		.loc 3 330 0
 572 0028 2846     		mov	r0, r5
 573 002a FFF7FEFF 		bl	ibqReleaseEmptyBufferS
 574              	.LVL42:
 575              	.L30:
 576              	.LBB143:
 577              	.LBB144:
 578              		.loc 5 522 0
 579 002e FFF7FEFF 		bl	chSysUnlock
 580              	.LVL43:
 581              	.LBE144:
 582              	.LBE143:
 583              		.loc 3 334 0
 584 0032 2046     		mov	r0, r4
 585              		.loc 3 335 0
 586 0034 38BD     		pop	{r3, r4, r5, pc}
 587              		.cfi_endproc
 588              	.LFE331:
 589              		.size	ibqGetTimeout, .-ibqGetTimeout
 590              		.section	.text.ibqReadTimeout,"ax",%progbits
 591              		.align	1
 592              		.global	ibqReadTimeout
 593              		.thumb
 594              		.thumb_func
 595              		.type	ibqReadTimeout, %function
 596              	ibqReadTimeout:
 597              	.LFB332:
 598              		.loc 3 359 0
 599              		.cfi_startproc
 600              		@ args = 0, pretend = 0, frame = 0
 601              		@ frame_needed = 0, uses_anonymous_args = 0
 602              	.LVL44:
 603 0000 2DE9F843 		push	{r3, r4, r5, r6, r7, r8, r9, lr}
 604              		.cfi_def_cfa_offset 32
 605              		.cfi_offset 3, -32
 606              		.cfi_offset 4, -28
 607              		.cfi_offset 5, -24
 608              		.cfi_offset 6, -20
 609              		.cfi_offset 7, -16
 610              		.cfi_offset 8, -12
 611              		.cfi_offset 9, -8
 612              		.cfi_offset 14, -4
 613              		.loc 3 359 0
 614 0004 0446     		mov	r4, r0
 615 0006 0F46     		mov	r7, r1
 616 0008 9046     		mov	r8, r2
 617 000a 9946     		mov	r9, r3
 618              	.LBB145:
 619              	.LBB146:
 620              		.loc 5 511 0
 621 000c FFF7FEFF 		bl	chSysLock
 622              	.LVL45:
 623              	.LBE146:
 624              	.LBE145:
 625              		.loc 3 360 0
 626 0010 0026     		movs	r6, #0
 627              	.LVL46:
ARM GAS  /tmp/ccWJ9FT7.s 			page 12


 628              	.L41:
 629              	.LBB147:
 630              		.loc 3 370 0
 631 0012 A36A     		ldr	r3, [r4, #40]
 632 0014 3BB9     		cbnz	r3, .L35
 633              	.LBB148:
 634              		.loc 3 374 0
 635 0016 2046     		mov	r0, r4
 636 0018 4946     		mov	r1, r9
 637 001a FFF7FEFF 		bl	ibqGetFullBufferTimeoutS
 638              	.LVL47:
 639              		.loc 3 377 0
 640 001e 10B1     		cbz	r0, .L35
 641              	.LBB149:
 642              	.LBB150:
 643              		.loc 5 522 0
 644 0020 FFF7FEFF 		bl	chSysUnlock
 645              	.LVL48:
 646              	.LBE150:
 647              	.LBE149:
 648              		.loc 3 379 0
 649 0024 2FE0     		b	.L36
 650              	.L35:
 651              	.LBE148:
 652              		.loc 3 384 0
 653 0026 A16A     		ldr	r1, [r4, #40]
 654 0028 E56A     		ldr	r5, [r4, #44]
 655              		.loc 3 385 0
 656 002a C6EB0803 		rsb	r3, r6, r8
 657              		.loc 3 384 0
 658 002e 6D1A     		subs	r5, r5, r1
 659              	.LVL49:
 660 0030 9D42     		cmp	r5, r3
 661 0032 28BF     		it	cs
 662 0034 1D46     		movcs	r5, r3
 663              	.LVL50:
 664              		.loc 3 391 0
 665 0036 402D     		cmp	r5, #64
 666 0038 0ED9     		bls	.L37
 667              		.loc 3 393 0
 668 003a 3B46     		mov	r3, r7
 669 003c 01F14002 		add	r2, r1, #64
 670              	.L38:
 671 0040 51F8040B 		ldr	r0, [r1], #4	@ unaligned
 672 0044 43F8040B 		str	r0, [r3], #4	@ unaligned
 673 0048 9142     		cmp	r1, r2
 674 004a F9D1     		bne	.L38
 675              		.loc 3 395 0
 676 004c A36A     		ldr	r3, [r4, #40]
 677 004e 4033     		adds	r3, r3, #64
 678              		.loc 3 394 0
 679 0050 4037     		adds	r7, r7, #64
 680              	.LVL51:
 681              		.loc 3 395 0
 682 0052 A362     		str	r3, [r4, #40]
 683              		.loc 3 396 0
 684 0054 4036     		adds	r6, r6, #64
ARM GAS  /tmp/ccWJ9FT7.s 			page 13


 685              	.LVL52:
 686 0056 08E0     		b	.L39
 687              	.L37:
 688              		.loc 3 399 0
 689 0058 3846     		mov	r0, r7
 690 005a 2A46     		mov	r2, r5
 691 005c FFF7FEFF 		bl	memcpy
 692              	.LVL53:
 693              		.loc 3 401 0
 694 0060 A36A     		ldr	r3, [r4, #40]
 695 0062 2B44     		add	r3, r3, r5
 696              		.loc 3 400 0
 697 0064 2F44     		add	r7, r7, r5
 698              	.LVL54:
 699              		.loc 3 401 0
 700 0066 A362     		str	r3, [r4, #40]
 701              		.loc 3 402 0
 702 0068 2E44     		add	r6, r6, r5
 703              	.LVL55:
 704              	.L39:
 705              		.loc 3 406 0
 706 006a A26A     		ldr	r2, [r4, #40]
 707 006c E36A     		ldr	r3, [r4, #44]
 708 006e 9A42     		cmp	r2, r3
 709 0070 02D3     		bcc	.L40
 710              		.loc 3 407 0
 711 0072 2046     		mov	r0, r4
 712 0074 FFF7FEFF 		bl	ibqReleaseEmptyBufferS
 713              	.LVL56:
 714              	.L40:
 715              	.LBB151:
 716              	.LBB152:
 717              		.loc 5 522 0
 718 0078 FFF7FEFF 		bl	chSysUnlock
 719              	.LVL57:
 720              	.LBE152:
 721              	.LBE151:
 722              		.loc 3 412 0
 723 007c 4645     		cmp	r6, r8
 724 007e 02D2     		bcs	.L36
 725              	.LBB153:
 726              	.LBB154:
 727              		.loc 5 511 0
 728 0080 FFF7FEFF 		bl	chSysLock
 729              	.LVL58:
 730 0084 C5E7     		b	.L41
 731              	.LVL59:
 732              	.L36:
 733              	.LBE154:
 734              	.LBE153:
 735              	.LBE147:
 736              		.loc 3 417 0
 737 0086 3046     		mov	r0, r6
 738 0088 BDE8F883 		pop	{r3, r4, r5, r6, r7, r8, r9, pc}
 739              		.cfi_endproc
 740              	.LFE332:
 741              		.size	ibqReadTimeout, .-ibqReadTimeout
ARM GAS  /tmp/ccWJ9FT7.s 			page 14


 742              		.section	.text.obqObjectInit,"ax",%progbits
 743              		.align	1
 744              		.global	obqObjectInit
 745              		.thumb
 746              		.thumb_func
 747              		.type	obqObjectInit, %function
 748              	obqObjectInit:
 749              	.LFB333:
 750              		.loc 3 433 0
 751              		.cfi_startproc
 752              		@ args = 12, pretend = 0, frame = 0
 753              		@ frame_needed = 0, uses_anonymous_args = 0
 754              	.LVL60:
 755 0000 10B5     		push	{r4, lr}
 756              		.cfi_def_cfa_offset 8
 757              		.cfi_offset 4, -8
 758              		.cfi_offset 14, -4
 759              		.loc 3 433 0
 760 0002 029C     		ldr	r4, [sp, #8]
 761              		.loc 3 438 0
 762 0004 0172     		strb	r1, [r0, #8]
 763              		.loc 3 442 0
 764 0006 0433     		adds	r3, r3, #4
 765              	.LVL61:
 766 0008 03FB0421 		mla	r1, r3, r4, r2
 767              	.LVL62:
 768              		.loc 3 443 0
 769 000c C361     		str	r3, [r0, #28]
 770              		.loc 3 446 0
 771 000e 0023     		movs	r3, #0
 772              	.LVL63:
 773 0010 8362     		str	r3, [r0, #40]
 774              		.loc 3 447 0
 775 0012 C362     		str	r3, [r0, #44]
 776              		.loc 3 448 0
 777 0014 039B     		ldr	r3, [sp, #12]
 778 0016 0363     		str	r3, [r0, #48]
 779              		.loc 3 449 0
 780 0018 049B     		ldr	r3, [sp, #16]
 781              	.LBB155:
 782              	.LBB156:
 783              	.LBB157:
 784              	.LBB158:
 785              		.loc 4 539 0
 786 001a 0060     		str	r0, [r0]
 787              		.loc 4 540 0
 788 001c 4060     		str	r0, [r0, #4]
 789              	.LBE158:
 790              	.LBE157:
 791              	.LBE156:
 792              	.LBE155:
 793              		.loc 3 439 0
 794 001e C460     		str	r4, [r0, #12]
 795              		.loc 3 440 0
 796 0020 4261     		str	r2, [r0, #20]
 797              		.loc 3 441 0
 798 0022 0261     		str	r2, [r0, #16]
ARM GAS  /tmp/ccWJ9FT7.s 			page 15


 799              		.loc 3 442 0
 800 0024 8161     		str	r1, [r0, #24]
 801              		.loc 3 444 0
 802 0026 0462     		str	r4, [r0, #32]
 803              		.loc 3 445 0
 804 0028 4262     		str	r2, [r0, #36]
 805              		.loc 3 449 0
 806 002a 4363     		str	r3, [r0, #52]
 807 002c 10BD     		pop	{r4, pc}
 808              		.cfi_endproc
 809              	.LFE333:
 810              		.size	obqObjectInit, .-obqObjectInit
 811              		.section	.text.obqResetI,"ax",%progbits
 812              		.align	1
 813              		.global	obqResetI
 814              		.thumb
 815              		.thumb_func
 816              		.type	obqResetI, %function
 817              	obqResetI:
 818              	.LFB334:
 819              		.loc 3 463 0
 820              		.cfi_startproc
 821              		@ args = 0, pretend = 0, frame = 0
 822              		@ frame_needed = 0, uses_anonymous_args = 0
 823              		@ link register save eliminated.
 824              	.LVL64:
 825              		.loc 3 467 0
 826 0000 026A     		ldr	r2, [r0, #32]
 827 0002 C260     		str	r2, [r0, #12]
 828              		.loc 3 468 0
 829 0004 426A     		ldr	r2, [r0, #36]
 830 0006 4261     		str	r2, [r0, #20]
 831              		.loc 3 469 0
 832 0008 0261     		str	r2, [r0, #16]
 833              		.loc 3 470 0
 834 000a 0022     		movs	r2, #0
 835 000c 8262     		str	r2, [r0, #40]
 836              		.loc 3 471 0
 837 000e C262     		str	r2, [r0, #44]
 838              	.LVL65:
 839              	.LBB159:
 840              	.LBB160:
 841              		.loc 5 857 0
 842 0010 6FF00101 		mvn	r1, #1
 843 0014 FFF7FEBF 		b	chThdDequeueAllI
 844              	.LVL66:
 845              	.LBE160:
 846              	.LBE159:
 847              		.cfi_endproc
 848              	.LFE334:
 849              		.size	obqResetI, .-obqResetI
 850              		.section	.text.obqGetFullBufferI,"ax",%progbits
 851              		.align	1
 852              		.global	obqGetFullBufferI
 853              		.thumb
 854              		.thumb_func
 855              		.type	obqGetFullBufferI, %function
ARM GAS  /tmp/ccWJ9FT7.s 			page 16


 856              	obqGetFullBufferI:
 857              	.LFB335:
 858              		.loc 3 487 0
 859              		.cfi_startproc
 860              		@ args = 0, pretend = 0, frame = 0
 861              		@ frame_needed = 0, uses_anonymous_args = 0
 862              		@ link register save eliminated.
 863              	.LVL67:
 864              		.loc 3 491 0
 865 0000 4369     		ldr	r3, [r0, #20]
 866 0002 0269     		ldr	r2, [r0, #16]
 867 0004 9A42     		cmp	r2, r3
 868 0006 03D1     		bne	.L49
 869              		.loc 3 491 0 is_stmt 0 discriminator 1
 870 0008 C268     		ldr	r2, [r0, #12]
 871 000a 0AB1     		cbz	r2, .L49
 872              		.loc 3 492 0 is_stmt 1
 873 000c 0020     		movs	r0, #0
 874              	.LVL68:
 875 000e 7047     		bx	lr
 876              	.LVL69:
 877              	.L49:
 878              		.loc 3 496 0
 879 0010 1846     		mov	r0, r3
 880              	.LVL70:
 881 0012 50F8043B 		ldr	r3, [r0], #4
 882 0016 0B60     		str	r3, [r1]
 883              		.loc 3 499 0
 884 0018 7047     		bx	lr
 885              		.cfi_endproc
 886              	.LFE335:
 887              		.size	obqGetFullBufferI, .-obqGetFullBufferI
 888              		.section	.text.obqReleaseEmptyBufferI,"ax",%progbits
 889              		.align	1
 890              		.global	obqReleaseEmptyBufferI
 891              		.thumb
 892              		.thumb_func
 893              		.type	obqReleaseEmptyBufferI, %function
 894              	obqReleaseEmptyBufferI:
 895              	.LFB336:
 896              		.loc 3 508 0
 897              		.cfi_startproc
 898              		@ args = 0, pretend = 0, frame = 0
 899              		@ frame_needed = 0, uses_anonymous_args = 0
 900              		@ link register save eliminated.
 901              	.LVL71:
 902              		.loc 3 514 0
 903 0000 C368     		ldr	r3, [r0, #12]
 904              		.loc 3 515 0
 905 0002 4269     		ldr	r2, [r0, #20]
 906              		.loc 3 514 0
 907 0004 0133     		adds	r3, r3, #1
 908 0006 C360     		str	r3, [r0, #12]
 909              		.loc 3 515 0
 910 0008 C369     		ldr	r3, [r0, #28]
 911 000a 1344     		add	r3, r3, r2
 912              		.loc 3 516 0
ARM GAS  /tmp/ccWJ9FT7.s 			page 17


 913 000c 8269     		ldr	r2, [r0, #24]
 914              		.loc 3 515 0
 915 000e 4361     		str	r3, [r0, #20]
 916              		.loc 3 516 0
 917 0010 9342     		cmp	r3, r2
 918              		.loc 3 517 0
 919 0012 24BF     		itt	cs
 920 0014 436A     		ldrcs	r3, [r0, #36]
 921 0016 4361     		strcs	r3, [r0, #20]
 922              	.LVL72:
 923              	.LBB161:
 924              	.LBB162:
 925              		.loc 5 844 0
 926 0018 0021     		movs	r1, #0
 927 001a FFF7FEBF 		b	chThdDequeueNextI
 928              	.LVL73:
 929              	.LBE162:
 930              	.LBE161:
 931              		.cfi_endproc
 932              	.LFE336:
 933              		.size	obqReleaseEmptyBufferI, .-obqReleaseEmptyBufferI
 934              		.section	.text.obqGetEmptyBufferTimeoutS,"ax",%progbits
 935              		.align	1
 936              		.global	obqGetEmptyBufferTimeoutS
 937              		.thumb
 938              		.thumb_func
 939              		.type	obqGetEmptyBufferTimeoutS, %function
 940              	obqGetEmptyBufferTimeoutS:
 941              	.LFB338:
 942              		.loc 3 578 0
 943              		.cfi_startproc
 944              		@ args = 0, pretend = 0, frame = 0
 945              		@ frame_needed = 0, uses_anonymous_args = 0
 946              	.LVL74:
 947 0000 38B5     		push	{r3, r4, r5, lr}
 948              		.cfi_def_cfa_offset 16
 949              		.cfi_offset 3, -16
 950              		.cfi_offset 4, -12
 951              		.cfi_offset 5, -8
 952              		.cfi_offset 14, -4
 953 0002 0446     		mov	r4, r0
 954 0004 0D46     		mov	r5, r1
 955              	.LVL75:
 956              	.L58:
 957              		.loc 3 582 0
 958 0006 E368     		ldr	r3, [r4, #12]
 959 0008 43B9     		cbnz	r3, .L63
 960              	.LBB171:
 961              		.loc 3 583 0
 962 000a 237A     		ldrb	r3, [r4, #8]	@ zero_extendqisi2
 963 000c 73B9     		cbnz	r3, .L61
 964              	.LVL76:
 965              	.LBB172:
 966              	.LBB173:
 967              		.loc 5 831 0
 968 000e 2046     		mov	r0, r4
 969 0010 2946     		mov	r1, r5
ARM GAS  /tmp/ccWJ9FT7.s 			page 18


 970 0012 FFF7FEFF 		bl	chThdEnqueueTimeoutS
 971              	.LVL77:
 972              	.LBE173:
 973              	.LBE172:
 974              		.loc 3 587 0
 975 0016 0028     		cmp	r0, #0
 976 0018 F5DA     		bge	.L58
 977 001a 09E0     		b	.L59
 978              	.LVL78:
 979              	.L63:
 980              	.LBE171:
 981              	.LBB174:
 982              	.LBB175:
 983              		.loc 3 595 0
 984 001c 2269     		ldr	r2, [r4, #16]
 985 001e 131D     		adds	r3, r2, #4
 986 0020 A362     		str	r3, [r4, #40]
 987              		.loc 3 596 0
 988 0022 E369     		ldr	r3, [r4, #28]
 989 0024 1344     		add	r3, r3, r2
 990 0026 E362     		str	r3, [r4, #44]
 991 0028 0020     		movs	r0, #0
 992 002a 38BD     		pop	{r3, r4, r5, pc}
 993              	.LVL79:
 994              	.L61:
 995              	.LBE175:
 996              	.LBE174:
 997              	.LBB176:
 998              		.loc 3 584 0
 999 002c 6FF00100 		mvn	r0, #1
 1000              	.L59:
 1001              	.LBE176:
 1002              		.loc 3 599 0
 1003 0030 38BD     		pop	{r3, r4, r5, pc}
 1004              		.cfi_endproc
 1005              	.LFE338:
 1006              		.size	obqGetEmptyBufferTimeoutS, .-obqGetEmptyBufferTimeoutS
 1007              		.section	.text.obqGetEmptyBufferTimeout,"ax",%progbits
 1008              		.align	1
 1009              		.global	obqGetEmptyBufferTimeout
 1010              		.thumb
 1011              		.thumb_func
 1012              		.type	obqGetEmptyBufferTimeout, %function
 1013              	obqGetEmptyBufferTimeout:
 1014              	.LFB337:
 1015              		.loc 3 546 0
 1016              		.cfi_startproc
 1017              		@ args = 0, pretend = 0, frame = 0
 1018              		@ frame_needed = 0, uses_anonymous_args = 0
 1019              	.LVL80:
 1020 0000 38B5     		push	{r3, r4, r5, lr}
 1021              		.cfi_def_cfa_offset 16
 1022              		.cfi_offset 3, -16
 1023              		.cfi_offset 4, -12
 1024              		.cfi_offset 5, -8
 1025              		.cfi_offset 14, -4
 1026              		.loc 3 546 0
ARM GAS  /tmp/ccWJ9FT7.s 			page 19


 1027 0002 0546     		mov	r5, r0
 1028 0004 0C46     		mov	r4, r1
 1029              	.LBB177:
 1030              	.LBB178:
 1031              		.loc 5 511 0
 1032 0006 FFF7FEFF 		bl	chSysLock
 1033              	.LVL81:
 1034              	.LBE178:
 1035              	.LBE177:
 1036              		.loc 3 550 0
 1037 000a 2146     		mov	r1, r4
 1038 000c 2846     		mov	r0, r5
 1039 000e FFF7FEFF 		bl	obqGetEmptyBufferTimeoutS
 1040              	.LVL82:
 1041 0012 0446     		mov	r4, r0
 1042              	.LVL83:
 1043              	.LBB179:
 1044              	.LBB180:
 1045              		.loc 5 522 0
 1046 0014 FFF7FEFF 		bl	chSysUnlock
 1047              	.LVL84:
 1048              	.LBE180:
 1049              	.LBE179:
 1050              		.loc 3 554 0
 1051 0018 2046     		mov	r0, r4
 1052 001a 38BD     		pop	{r3, r4, r5, pc}
 1053              		.cfi_endproc
 1054              	.LFE337:
 1055              		.size	obqGetEmptyBufferTimeout, .-obqGetEmptyBufferTimeout
 1056              		.section	.text.obqPostFullBufferS,"ax",%progbits
 1057              		.align	1
 1058              		.global	obqPostFullBufferS
 1059              		.thumb
 1060              		.thumb_func
 1061              		.type	obqPostFullBufferS, %function
 1062              	obqPostFullBufferS:
 1063              	.LFB340:
 1064              		.loc 3 626 0
 1065              		.cfi_startproc
 1066              		@ args = 0, pretend = 0, frame = 0
 1067              		@ frame_needed = 0, uses_anonymous_args = 0
 1068              	.LVL85:
 1069 0000 10B5     		push	{r4, lr}
 1070              		.cfi_def_cfa_offset 8
 1071              		.cfi_offset 4, -8
 1072              		.cfi_offset 14, -4
 1073              		.loc 3 633 0
 1074 0002 0469     		ldr	r4, [r0, #16]
 1075 0004 2160     		str	r1, [r4]
 1076              		.loc 3 636 0
 1077 0006 C268     		ldr	r2, [r0, #12]
 1078              		.loc 3 637 0
 1079 0008 C369     		ldr	r3, [r0, #28]
 1080              		.loc 3 636 0
 1081 000a 013A     		subs	r2, r2, #1
 1082 000c C260     		str	r2, [r0, #12]
 1083              		.loc 3 638 0
ARM GAS  /tmp/ccWJ9FT7.s 			page 20


 1084 000e 8269     		ldr	r2, [r0, #24]
 1085              		.loc 3 637 0
 1086 0010 2344     		add	r3, r3, r4
 1087              		.loc 3 638 0
 1088 0012 9342     		cmp	r3, r2
 1089              		.loc 3 637 0
 1090 0014 0361     		str	r3, [r0, #16]
 1091              		.loc 3 639 0
 1092 0016 24BF     		itt	cs
 1093 0018 436A     		ldrcs	r3, [r0, #36]
 1094 001a 0361     		strcs	r3, [r0, #16]
 1095              		.loc 3 643 0
 1096 001c 0023     		movs	r3, #0
 1097 001e 8362     		str	r3, [r0, #40]
 1098              		.loc 3 646 0
 1099 0020 036B     		ldr	r3, [r0, #48]
 1100 0022 13B1     		cbz	r3, .L65
 1101              		.loc 3 649 0
 1102 0024 BDE81040 		pop	{r4, lr}
 1103              		.cfi_remember_state
 1104              		.cfi_restore 14
 1105              		.cfi_restore 4
 1106              		.cfi_def_cfa_offset 0
 1107              		.loc 3 647 0
 1108 0028 1847     		bx	r3	@ indirect register sibling call
 1109              	.LVL86:
 1110              	.L65:
 1111              		.cfi_restore_state
 1112 002a 10BD     		pop	{r4, pc}
 1113              		.cfi_endproc
 1114              	.LFE340:
 1115              		.size	obqPostFullBufferS, .-obqPostFullBufferS
 1116              		.section	.text.obqPostFullBuffer,"ax",%progbits
 1117              		.align	1
 1118              		.global	obqPostFullBuffer
 1119              		.thumb
 1120              		.thumb_func
 1121              		.type	obqPostFullBuffer, %function
 1122              	obqPostFullBuffer:
 1123              	.LFB339:
 1124              		.loc 3 610 0
 1125              		.cfi_startproc
 1126              		@ args = 0, pretend = 0, frame = 0
 1127              		@ frame_needed = 0, uses_anonymous_args = 0
 1128              	.LVL87:
 1129 0000 38B5     		push	{r3, r4, r5, lr}
 1130              		.cfi_def_cfa_offset 16
 1131              		.cfi_offset 3, -16
 1132              		.cfi_offset 4, -12
 1133              		.cfi_offset 5, -8
 1134              		.cfi_offset 14, -4
 1135              		.loc 3 610 0
 1136 0002 0546     		mov	r5, r0
 1137 0004 0C46     		mov	r4, r1
 1138              	.LBB181:
 1139              	.LBB182:
 1140              		.loc 5 511 0
ARM GAS  /tmp/ccWJ9FT7.s 			page 21


 1141 0006 FFF7FEFF 		bl	chSysLock
 1142              	.LVL88:
 1143              	.LBE182:
 1144              	.LBE181:
 1145              		.loc 3 613 0
 1146 000a 2846     		mov	r0, r5
 1147 000c 2146     		mov	r1, r4
 1148 000e FFF7FEFF 		bl	obqPostFullBufferS
 1149              	.LVL89:
 1150              		.loc 3 615 0
 1151 0012 BDE83840 		pop	{r3, r4, r5, lr}
 1152              		.cfi_restore 14
 1153              		.cfi_restore 5
 1154              		.cfi_restore 4
 1155              		.cfi_restore 3
 1156              		.cfi_def_cfa_offset 0
 1157              	.LVL90:
 1158              	.LBB183:
 1159              	.LBB184:
 1160              		.loc 5 522 0
 1161 0016 FFF7FEBF 		b	chSysUnlock
 1162              	.LVL91:
 1163              	.LBE184:
 1164              	.LBE183:
 1165              		.cfi_endproc
 1166              	.LFE339:
 1167              		.size	obqPostFullBuffer, .-obqPostFullBuffer
 1168              		.section	.text.obqPutTimeout,"ax",%progbits
 1169              		.align	1
 1170              		.global	obqPutTimeout
 1171              		.thumb
 1172              		.thumb_func
 1173              		.type	obqPutTimeout, %function
 1174              	obqPutTimeout:
 1175              	.LFB341:
 1176              		.loc 3 672 0
 1177              		.cfi_startproc
 1178              		@ args = 0, pretend = 0, frame = 0
 1179              		@ frame_needed = 0, uses_anonymous_args = 0
 1180              	.LVL92:
 1181 0000 70B5     		push	{r4, r5, r6, lr}
 1182              		.cfi_def_cfa_offset 16
 1183              		.cfi_offset 4, -16
 1184              		.cfi_offset 5, -12
 1185              		.cfi_offset 6, -8
 1186              		.cfi_offset 14, -4
 1187              		.loc 3 672 0
 1188 0002 0446     		mov	r4, r0
 1189 0004 0E46     		mov	r6, r1
 1190 0006 1546     		mov	r5, r2
 1191              	.LBB185:
 1192              	.LBB186:
 1193              		.loc 5 511 0
 1194 0008 FFF7FEFF 		bl	chSysLock
 1195              	.LVL93:
 1196              	.LBE186:
 1197              	.LBE185:
ARM GAS  /tmp/ccWJ9FT7.s 			page 22


 1198              		.loc 3 678 0
 1199 000c A36A     		ldr	r3, [r4, #40]
 1200 000e 4BB9     		cbnz	r3, .L70
 1201              		.loc 3 679 0
 1202 0010 2946     		mov	r1, r5
 1203 0012 2046     		mov	r0, r4
 1204 0014 FFF7FEFF 		bl	obqGetEmptyBufferTimeoutS
 1205              	.LVL94:
 1206              		.loc 3 680 0
 1207 0018 0546     		mov	r5, r0
 1208              	.LVL95:
 1209 001a 18B1     		cbz	r0, .L70
 1210              	.LBB187:
 1211              	.LBB188:
 1212              		.loc 5 522 0
 1213 001c FFF7FEFF 		bl	chSysUnlock
 1214              	.LVL96:
 1215              	.LBE188:
 1216              	.LBE187:
 1217              		.loc 3 682 0
 1218 0020 2846     		mov	r0, r5
 1219 0022 70BD     		pop	{r4, r5, r6, pc}
 1220              	.LVL97:
 1221              	.L70:
 1222              		.loc 3 687 0
 1223 0024 A36A     		ldr	r3, [r4, #40]
 1224 0026 1E70     		strb	r6, [r3]
 1225              		.loc 3 688 0
 1226 0028 A36A     		ldr	r3, [r4, #40]
 1227              		.loc 3 692 0
 1228 002a E26A     		ldr	r2, [r4, #44]
 1229              		.loc 3 688 0
 1230 002c 0133     		adds	r3, r3, #1
 1231              		.loc 3 692 0
 1232 002e 9342     		cmp	r3, r2
 1233              		.loc 3 688 0
 1234 0030 A362     		str	r3, [r4, #40]
 1235              		.loc 3 692 0
 1236 0032 04D3     		bcc	.L72
 1237              		.loc 3 693 0
 1238 0034 E169     		ldr	r1, [r4, #28]
 1239 0036 2046     		mov	r0, r4
 1240 0038 0439     		subs	r1, r1, #4
 1241 003a FFF7FEFF 		bl	obqPostFullBufferS
 1242              	.LVL98:
 1243              	.L72:
 1244              	.LBB189:
 1245              	.LBB190:
 1246              		.loc 5 522 0
 1247 003e FFF7FEFF 		bl	chSysUnlock
 1248              	.LVL99:
 1249              	.LBE190:
 1250              	.LBE189:
 1251              		.loc 3 697 0
 1252 0042 0020     		movs	r0, #0
 1253              		.loc 3 698 0
 1254 0044 70BD     		pop	{r4, r5, r6, pc}
ARM GAS  /tmp/ccWJ9FT7.s 			page 23


 1255              		.cfi_endproc
 1256              	.LFE341:
 1257              		.size	obqPutTimeout, .-obqPutTimeout
 1258              		.section	.text.obqWriteTimeout,"ax",%progbits
 1259              		.align	1
 1260              		.global	obqWriteTimeout
 1261              		.thumb
 1262              		.thumb_func
 1263              		.type	obqWriteTimeout, %function
 1264              	obqWriteTimeout:
 1265              	.LFB342:
 1266              		.loc 3 722 0
 1267              		.cfi_startproc
 1268              		@ args = 0, pretend = 0, frame = 0
 1269              		@ frame_needed = 0, uses_anonymous_args = 0
 1270              	.LVL100:
 1271 0000 2DE9F843 		push	{r3, r4, r5, r6, r7, r8, r9, lr}
 1272              		.cfi_def_cfa_offset 32
 1273              		.cfi_offset 3, -32
 1274              		.cfi_offset 4, -28
 1275              		.cfi_offset 5, -24
 1276              		.cfi_offset 6, -20
 1277              		.cfi_offset 7, -16
 1278              		.cfi_offset 8, -12
 1279              		.cfi_offset 9, -8
 1280              		.cfi_offset 14, -4
 1281              		.loc 3 722 0
 1282 0004 0446     		mov	r4, r0
 1283              	.LVL101:
 1284 0006 0D46     		mov	r5, r1
 1285 0008 9046     		mov	r8, r2
 1286 000a 9946     		mov	r9, r3
 1287              	.LBB191:
 1288              	.LBB192:
 1289              		.loc 5 511 0
 1290 000c FFF7FEFF 		bl	chSysLock
 1291              	.LVL102:
 1292              	.LBE192:
 1293              	.LBE191:
 1294              		.loc 3 723 0
 1295 0010 0027     		movs	r7, #0
 1296              	.LVL103:
 1297              	.L83:
 1298              	.LBB193:
 1299              		.loc 3 733 0
 1300 0012 A36A     		ldr	r3, [r4, #40]
 1301 0014 3BB9     		cbnz	r3, .L77
 1302              	.LBB194:
 1303              		.loc 3 737 0
 1304 0016 2046     		mov	r0, r4
 1305 0018 4946     		mov	r1, r9
 1306 001a FFF7FEFF 		bl	obqGetEmptyBufferTimeoutS
 1307              	.LVL104:
 1308              		.loc 3 740 0
 1309 001e 10B1     		cbz	r0, .L77
 1310              	.LBB195:
 1311              	.LBB196:
ARM GAS  /tmp/ccWJ9FT7.s 			page 24


 1312              		.loc 5 522 0
 1313 0020 FFF7FEFF 		bl	chSysUnlock
 1314              	.LVL105:
 1315              	.LBE196:
 1316              	.LBE195:
 1317              		.loc 3 742 0
 1318 0024 2FE0     		b	.L78
 1319              	.L77:
 1320              	.LBE194:
 1321              		.loc 3 747 0
 1322 0026 A06A     		ldr	r0, [r4, #40]
 1323 0028 E66A     		ldr	r6, [r4, #44]
 1324              		.loc 3 748 0
 1325 002a C7EB0803 		rsb	r3, r7, r8
 1326              		.loc 3 747 0
 1327 002e 361A     		subs	r6, r6, r0
 1328              	.LVL106:
 1329 0030 9E42     		cmp	r6, r3
 1330 0032 28BF     		it	cs
 1331 0034 1E46     		movcs	r6, r3
 1332              	.LVL107:
 1333              		.loc 3 754 0
 1334 0036 402E     		cmp	r6, #64
 1335 0038 0CD9     		bls	.L79
 1336              		.loc 3 756 0
 1337 003a 05F14003 		add	r3, r5, #64
 1338              	.LVL108:
 1339              	.L80:
 1340 003e 55F8042B 		ldr	r2, [r5], #4	@ unaligned
 1341 0042 40F8042B 		str	r2, [r0], #4	@ unaligned
 1342 0046 9D42     		cmp	r5, r3
 1343 0048 F9D1     		bne	.L80
 1344              	.LVL109:
 1345              		.loc 3 758 0
 1346 004a A36A     		ldr	r3, [r4, #40]
 1347 004c 4033     		adds	r3, r3, #64
 1348 004e A362     		str	r3, [r4, #40]
 1349              		.loc 3 759 0
 1350 0050 4037     		adds	r7, r7, #64
 1351              	.LVL110:
 1352 0052 08E0     		b	.L81
 1353              	.LVL111:
 1354              	.L79:
 1355              		.loc 3 762 0
 1356 0054 2946     		mov	r1, r5
 1357 0056 3246     		mov	r2, r6
 1358 0058 FFF7FEFF 		bl	memcpy
 1359              	.LVL112:
 1360              		.loc 3 764 0
 1361 005c A36A     		ldr	r3, [r4, #40]
 1362 005e 3344     		add	r3, r3, r6
 1363              		.loc 3 763 0
 1364 0060 3544     		add	r5, r5, r6
 1365              	.LVL113:
 1366              		.loc 3 764 0
 1367 0062 A362     		str	r3, [r4, #40]
 1368              		.loc 3 765 0
ARM GAS  /tmp/ccWJ9FT7.s 			page 25


 1369 0064 3744     		add	r7, r7, r6
 1370              	.LVL114:
 1371              	.L81:
 1372              		.loc 3 769 0
 1373 0066 A26A     		ldr	r2, [r4, #40]
 1374 0068 E36A     		ldr	r3, [r4, #44]
 1375 006a 9A42     		cmp	r2, r3
 1376 006c 04D3     		bcc	.L82
 1377              		.loc 3 770 0
 1378 006e E169     		ldr	r1, [r4, #28]
 1379 0070 2046     		mov	r0, r4
 1380 0072 0439     		subs	r1, r1, #4
 1381 0074 FFF7FEFF 		bl	obqPostFullBufferS
 1382              	.LVL115:
 1383              	.L82:
 1384              	.LBB197:
 1385              	.LBB198:
 1386              		.loc 5 522 0
 1387 0078 FFF7FEFF 		bl	chSysUnlock
 1388              	.LVL116:
 1389              	.LBE198:
 1390              	.LBE197:
 1391              		.loc 3 775 0
 1392 007c 4745     		cmp	r7, r8
 1393 007e 02D2     		bcs	.L78
 1394              	.LBB199:
 1395              	.LBB200:
 1396              		.loc 5 511 0
 1397 0080 FFF7FEFF 		bl	chSysLock
 1398              	.LVL117:
 1399 0084 C5E7     		b	.L83
 1400              	.LVL118:
 1401              	.L78:
 1402              	.LBE200:
 1403              	.LBE199:
 1404              	.LBE193:
 1405              		.loc 3 780 0
 1406 0086 3846     		mov	r0, r7
 1407 0088 BDE8F883 		pop	{r3, r4, r5, r6, r7, r8, r9, pc}
 1408              		.cfi_endproc
 1409              	.LFE342:
 1410              		.size	obqWriteTimeout, .-obqWriteTimeout
 1411              		.section	.text.obqTryFlushI,"ax",%progbits
 1412              		.align	1
 1413              		.global	obqTryFlushI
 1414              		.thumb
 1415              		.thumb_func
 1416              		.type	obqTryFlushI, %function
 1417              	obqTryFlushI:
 1418              	.LFB343:
 1419              		.loc 3 795 0
 1420              		.cfi_startproc
 1421              		@ args = 0, pretend = 0, frame = 0
 1422              		@ frame_needed = 0, uses_anonymous_args = 0
 1423              		@ link register save eliminated.
 1424              	.LVL119:
 1425              		.loc 3 801 0
ARM GAS  /tmp/ccWJ9FT7.s 			page 26


 1426 0000 0269     		ldr	r2, [r0, #16]
 1427 0002 4369     		ldr	r3, [r0, #20]
 1428 0004 9A42     		cmp	r2, r3
 1429 0006 03D1     		bne	.L93
 1430              		.loc 3 801 0 is_stmt 0 discriminator 1
 1431 0008 C368     		ldr	r3, [r0, #12]
 1432 000a 0BB1     		cbz	r3, .L93
 1433              		.loc 3 801 0
 1434 000c 836A     		ldr	r3, [r0, #40]
 1435 000e 0BB9     		cbnz	r3, .L92
 1436              	.L93:
 1437              		.loc 3 822 0 is_stmt 1
 1438 0010 0020     		movs	r0, #0
 1439              	.LVL120:
 1440 0012 7047     		bx	lr
 1441              	.LVL121:
 1442              	.L92:
 1443 0014 043B     		subs	r3, r3, #4
 1444              	.LVL122:
 1445              	.LBB201:
 1446              		.loc 3 804 0
 1447 0016 9B1A     		subs	r3, r3, r2
 1448              	.LVL123:
 1449 0018 FAD0     		beq	.L93
 1450              		.loc 3 807 0
 1451 001a 1360     		str	r3, [r2]
 1452              		.loc 3 810 0
 1453 001c C368     		ldr	r3, [r0, #12]
 1454              	.LVL124:
 1455 001e 013B     		subs	r3, r3, #1
 1456 0020 C360     		str	r3, [r0, #12]
 1457              	.LVL125:
 1458              		.loc 3 811 0
 1459 0022 C369     		ldr	r3, [r0, #28]
 1460 0024 1A44     		add	r2, r2, r3
 1461              	.LVL126:
 1462              		.loc 3 812 0
 1463 0026 8369     		ldr	r3, [r0, #24]
 1464              		.loc 3 811 0
 1465 0028 0261     		str	r2, [r0, #16]
 1466              	.LVL127:
 1467              		.loc 3 812 0
 1468 002a 9A42     		cmp	r2, r3
 1469              		.loc 3 813 0
 1470 002c 24BF     		itt	cs
 1471 002e 436A     		ldrcs	r3, [r0, #36]
 1472 0030 0361     		strcs	r3, [r0, #16]
 1473              		.loc 3 817 0
 1474 0032 0023     		movs	r3, #0
 1475 0034 8362     		str	r3, [r0, #40]
 1476              		.loc 3 819 0
 1477 0036 0120     		movs	r0, #1
 1478              	.LVL128:
 1479 0038 7047     		bx	lr
 1480              	.LBE201:
 1481              		.cfi_endproc
 1482              	.LFE343:
ARM GAS  /tmp/ccWJ9FT7.s 			page 27


 1483              		.size	obqTryFlushI, .-obqTryFlushI
 1484              		.section	.text.obqFlush,"ax",%progbits
 1485              		.align	1
 1486              		.global	obqFlush
 1487              		.thumb
 1488              		.thumb_func
 1489              		.type	obqFlush, %function
 1490              	obqFlush:
 1491              	.LFB344:
 1492              		.loc 3 832 0
 1493              		.cfi_startproc
 1494              		@ args = 0, pretend = 0, frame = 0
 1495              		@ frame_needed = 0, uses_anonymous_args = 0
 1496              	.LVL129:
 1497 0000 10B5     		push	{r4, lr}
 1498              		.cfi_def_cfa_offset 8
 1499              		.cfi_offset 4, -8
 1500              		.cfi_offset 14, -4
 1501              		.loc 3 832 0
 1502 0002 0446     		mov	r4, r0
 1503              	.LBB202:
 1504              	.LBB203:
 1505              		.loc 5 511 0
 1506 0004 FFF7FEFF 		bl	chSysLock
 1507              	.LVL130:
 1508              	.LBE203:
 1509              	.LBE202:
 1510              		.loc 3 837 0
 1511 0008 A36A     		ldr	r3, [r4, #40]
 1512 000a 33B1     		cbz	r3, .L97
 1513              	.LBB204:
 1514              		.loc 3 838 0
 1515 000c 2169     		ldr	r1, [r4, #16]
 1516 000e 043B     		subs	r3, r3, #4
 1517              	.LVL131:
 1518              		.loc 3 840 0
 1519 0010 591A     		subs	r1, r3, r1
 1520              	.LVL132:
 1521 0012 02D0     		beq	.L97
 1522              		.loc 3 841 0
 1523 0014 2046     		mov	r0, r4
 1524 0016 FFF7FEFF 		bl	obqPostFullBufferS
 1525              	.LVL133:
 1526              	.L97:
 1527              	.LBE204:
 1528              		.loc 3 846 0
 1529 001a BDE81040 		pop	{r4, lr}
 1530              		.cfi_restore 14
 1531              		.cfi_restore 4
 1532              		.cfi_def_cfa_offset 0
 1533              	.LVL134:
 1534              	.LBB205:
 1535              	.LBB206:
 1536              		.loc 5 522 0
 1537 001e FFF7FEBF 		b	chSysUnlock
 1538              	.LVL135:
 1539              	.LBE206:
ARM GAS  /tmp/ccWJ9FT7.s 			page 28


 1540              	.LBE205:
 1541              		.cfi_endproc
 1542              	.LFE344:
 1543              		.size	obqFlush, .-obqFlush
 1544              		.text
 1545              	.Letext0:
 1546              		.file 6 "/usr/lib/gcc/arm-none-eabi/4.9.3/include/stddef.h"
 1547              		.file 7 "/usr/include/newlib/machine/_default_types.h"
 1548              		.file 8 "/usr/include/newlib/sys/_stdint.h"
 1549              		.file 9 "../../modules/ChibiOS/os/common/ports/ARMCMx/compilers/GCC/chtypes.h"
 1550              		.file 10 "../../modules/ChibiOS/os/rt/include/chsystypes.h"
 1551              		.file 11 "../../modules/ChibiOS/os/rt/include/chtime.h"
 1552              		.file 12 "../../modules/ChibiOS/os/common/ports/ARMCMx/chcore.h"
 1553              		.file 13 "../../modules/ChibiOS/os/common/ports/ARMCMx/chcore_v7m.h"
 1554              		.file 14 "../../modules/ChibiOS/os/rt/include/chtm.h"
 1555              		.file 15 "../../modules/ChibiOS/os/rt/include/chstats.h"
 1556              		.file 16 "../../modules/ChibiOS/os/rt/include/chsem.h"
 1557              		.file 17 "../../modules/ChibiOS/os/rt/include/chmtx.h"
 1558              		.file 18 "../../modules/ChibiOS/os/hal/include/hal_buffers.h"
 1559              		.file 19 "../../modules/ChibiOS/os/rt/include/chthreads.h"
 1560              		.file 20 "../../modules/ChibiOS/os/common/ext/ARM/CMSIS/Core/Include/core_cm4.h"