ARM GAS  /tmp/ccFpxhY7.s 			page 1


   1              		.syntax unified
   2              		.cpu cortex-m4
   3              		.eabi_attribute 27, 1
   4              		.eabi_attribute 28, 1
   5              		.fpu fpv4-sp-d16
   6              		.eabi_attribute 20, 1
   7              		.eabi_attribute 21, 1
   8              		.eabi_attribute 23, 3
   9              		.eabi_attribute 24, 1
  10              		.eabi_attribute 25, 1
  11              		.eabi_attribute 26, 1
  12              		.eabi_attribute 30, 4
  13              		.eabi_attribute 34, 1
  14              		.eabi_attribute 18, 4
  15              		.thumb
  16              		.file	"hal_pal_lld.c"
  17              		.text
  18              	.Ltext0:
  19              		.cfi_sections	.debug_frame
  20              		.section	.text._pal_lld_init,"ax",%progbits
  21              		.align	1
  22              		.global	_pal_lld_init
  23              		.thumb
  24              		.thumb_func
  25              		.type	_pal_lld_init, %function
  26              	_pal_lld_init:
  27              	.LFB323:
  28              		.file 1 "../../modules/ChibiOS/os/hal/ports/STM32/LLD/GPIOv2/hal_pal_lld.c"
  29              		.loc 1 65 0
  30              		.cfi_startproc
  31              		@ args = 0, pretend = 0, frame = 0
  32              		@ frame_needed = 0, uses_anonymous_args = 0
  33              		@ link register save eliminated.
  34              	.LVL0:
  35              		.loc 1 65 0
  36 0000 0023     		movs	r3, #0
  37              	.LVL1:
  38              	.L2:
  39              		.loc 1 71 0 discriminator 3
  40 0002 044A     		ldr	r2, .L5
  41 0004 0021     		movs	r1, #0
  42 0006 9950     		str	r1, [r3, r2]
  43 0008 1A44     		add	r2, r2, r3
  44 000a 0833     		adds	r3, r3, #8
  45              		.loc 1 70 0 discriminator 3
  46 000c 802B     		cmp	r3, #128
  47              		.loc 1 71 0 discriminator 3
  48 000e 5160     		str	r1, [r2, #4]
  49              		.loc 1 70 0 discriminator 3
  50 0010 F7D1     		bne	.L2
  51              		.loc 1 74 0
  52 0012 7047     		bx	lr
  53              	.L6:
  54              		.align	2
  55              	.L5:
  56 0014 00000000 		.word	.LANCHOR0
  57              		.cfi_endproc
ARM GAS  /tmp/ccFpxhY7.s 			page 2


  58              	.LFE323:
  59              		.size	_pal_lld_init, .-_pal_lld_init
  60              		.section	.text._pal_lld_setgroupmode,"ax",%progbits
  61              		.align	1
  62              		.global	_pal_lld_setgroupmode
  63              		.thumb
  64              		.thumb_func
  65              		.type	_pal_lld_setgroupmode, %function
  66              	_pal_lld_setgroupmode:
  67              	.LFB324:
  68              		.loc 1 91 0
  69              		.cfi_startproc
  70              		@ args = 0, pretend = 0, frame = 0
  71              		@ frame_needed = 0, uses_anonymous_args = 0
  72              	.LVL2:
  73 0000 2DE9F04F 		push	{r4, r5, r6, r7, r8, r9, r10, fp, lr}
  74              		.cfi_def_cfa_offset 36
  75              		.cfi_offset 4, -36
  76              		.cfi_offset 5, -32
  77              		.cfi_offset 6, -28
  78              		.cfi_offset 7, -24
  79              		.cfi_offset 8, -20
  80              		.cfi_offset 9, -16
  81              		.cfi_offset 10, -12
  82              		.cfi_offset 11, -8
  83              		.cfi_offset 14, -4
  84              		.loc 1 93 0
  85 0004 02F00309 		and	r9, r2, #3
  86              	.LVL3:
  87              		.loc 1 94 0
  88 0008 C2F38008 		ubfx	r8, r2, #2, #1
  89              	.LVL4:
  90              		.loc 1 95 0
  91 000c C2F3C10C 		ubfx	ip, r2, #3, #2
  92              	.LVL5:
  93              		.loc 1 96 0
  94 0010 C2F3411E 		ubfx	lr, r2, #5, #2
  95              	.LVL6:
  96              		.loc 1 93 0
  97 0014 4F46     		mov	r7, r9
  98              		.loc 1 97 0
  99 0016 C2F3C312 		ubfx	r2, r2, #7, #4
 100              	.LVL7:
 101              		.loc 1 98 0
 102 001a 0025     		movs	r5, #0
 103              	.LVL8:
 104              	.L14:
 105              		.loc 1 100 0
 106 001c CB07     		lsls	r3, r1, #31
 107 001e 4AD5     		bpl	.L8
 108              	.LBB2:
 109              		.loc 1 103 0
 110 0020 05F00704 		and	r4, r5, #7
 111 0024 A400     		lsls	r4, r4, #2
 112              		.loc 1 106 0
 113 0026 0F23     		movs	r3, #15
 114 0028 03FA04FB 		lsl	fp, r3, r4
ARM GAS  /tmp/ccFpxhY7.s 			page 3


 115              		.loc 1 103 0
 116 002c 02FA04F6 		lsl	r6, r2, r4
 117              	.LVL9:
 118              		.loc 1 104 0
 119 0030 0123     		movs	r3, #1
 120              		.loc 1 107 0
 121 0032 4468     		ldr	r4, [r0, #4]
 122              		.loc 1 104 0
 123 0034 AB40     		lsls	r3, r3, r5
 124              	.LVL10:
 125              		.loc 1 107 0
 126 0036 24EA0303 		bic	r3, r4, r3
 127              	.LVL11:
 128 003a 43EA0803 		orr	r3, r3, r8
 129 003e 4360     		str	r3, [r0, #4]
 130 0040 4FEA450A 		lsl	r10, r5, #1
 131              		.loc 1 105 0
 132 0044 0324     		movs	r4, #3
 133              		.loc 1 108 0
 134 0046 8368     		ldr	r3, [r0, #8]
 135              		.loc 1 105 0
 136 0048 04FA0AF4 		lsl	r4, r4, r10
 137              	.LVL12:
 138              		.loc 1 108 0
 139 004c E443     		mvns	r4, r4
 140              	.LVL13:
 141 004e 2340     		ands	r3, r3, r4
 142 0050 43EA0C03 		orr	r3, r3, ip
 143 0054 8360     		str	r3, [r0, #8]
 144              		.loc 1 109 0
 145 0056 C368     		ldr	r3, [r0, #12]
 146 0058 04EA030A 		and	r10, r4, r3
 147 005c 4AEA0E03 		orr	r3, r10, lr
 148              		.loc 1 110 0
 149 0060 B9F1020F 		cmp	r9, #2
 150              		.loc 1 109 0
 151 0064 C360     		str	r3, [r0, #12]
 152 0066 6FEA0B03 		mvn	r3, fp
 153              		.loc 1 110 0
 154 006a 13D1     		bne	.L9
 155              		.loc 1 113 0
 156 006c 072D     		cmp	r5, #7
 157              		.loc 1 114 0
 158 006e 95BF     		itete	ls
 159 0070 D0F820A0 		ldrls	r10, [r0, #32]
 160              		.loc 1 116 0
 161 0074 D0F824A0 		ldrhi	r10, [r0, #36]
 162              		.loc 1 114 0
 163 0078 03EA0A03 		andls	r3, r3, r10
 164              		.loc 1 116 0
 165 007c 03EA0A03 		andhi	r3, r3, r10
 166              		.loc 1 114 0
 167 0080 95BF     		itete	ls
 168 0082 1E43     		orrls	r6, r6, r3
 169              	.LVL14:
 170              		.loc 1 116 0
 171 0084 1E43     		orrhi	r6, r6, r3
ARM GAS  /tmp/ccFpxhY7.s 			page 4


 172              		.loc 1 114 0
 173 0086 0662     		strls	r6, [r0, #32]
 174              		.loc 1 116 0
 175 0088 4662     		strhi	r6, [r0, #36]
 176              		.loc 1 117 0
 177 008a 0368     		ldr	r3, [r0]
 178 008c 1C40     		ands	r4, r4, r3
 179              	.LVL15:
 180 008e 3C43     		orrs	r4, r4, r7
 181 0090 0460     		str	r4, [r0]
 182 0092 10E0     		b	.L8
 183              	.LVL16:
 184              	.L9:
 185              		.loc 1 122 0
 186 0094 D0F800A0 		ldr	r10, [r0]
 187 0098 04EA0A04 		and	r4, r4, r10
 188 009c 3C43     		orrs	r4, r4, r7
 189              		.loc 1 123 0
 190 009e 072D     		cmp	r5, #7
 191              		.loc 1 122 0
 192 00a0 0460     		str	r4, [r0]
 193              		.loc 1 124 0
 194 00a2 95BF     		itete	ls
 195 00a4 046A     		ldrls	r4, [r0, #32]
 196              		.loc 1 126 0
 197 00a6 446A     		ldrhi	r4, [r0, #36]
 198              		.loc 1 124 0
 199 00a8 2340     		andls	r3, r3, r4
 200              		.loc 1 126 0
 201 00aa 2340     		andhi	r3, r3, r4
 202              		.loc 1 124 0
 203 00ac 95BF     		itete	ls
 204 00ae 1E43     		orrls	r6, r6, r3
 205              	.LVL17:
 206              		.loc 1 126 0
 207 00b0 1E43     		orrhi	r6, r6, r3
 208              		.loc 1 124 0
 209 00b2 0662     		strls	r6, [r0, #32]
 210              		.loc 1 126 0
 211 00b4 4662     		strhi	r6, [r0, #36]
 212              	.LVL18:
 213              	.L8:
 214              	.LBE2:
 215              		.loc 1 130 0
 216 00b6 4908     		lsrs	r1, r1, #1
 217              	.LVL19:
 218 00b8 08D0     		beq	.L7
 219              		.loc 1 132 0
 220 00ba 4FEA4808 		lsl	r8, r8, #1
 221              	.LVL20:
 222              		.loc 1 133 0
 223 00be 4FEA8C0C 		lsl	ip, ip, #2
 224              	.LVL21:
 225              		.loc 1 134 0
 226 00c2 4FEA8E0E 		lsl	lr, lr, #2
 227              	.LVL22:
 228              		.loc 1 135 0
ARM GAS  /tmp/ccFpxhY7.s 			page 5


 229 00c6 BF00     		lsls	r7, r7, #2
 230              	.LVL23:
 231              		.loc 1 136 0
 232 00c8 0135     		adds	r5, r5, #1
 233              	.LVL24:
 234              		.loc 1 137 0
 235 00ca A7E7     		b	.L14
 236              	.L7:
 237 00cc BDE8F08F 		pop	{r4, r5, r6, r7, r8, r9, r10, fp, pc}
 238              		.cfi_endproc
 239              	.LFE324:
 240              		.size	_pal_lld_setgroupmode, .-_pal_lld_setgroupmode
 241              		.section	.text._pal_lld_enablepadevent,"ax",%progbits
 242              		.align	1
 243              		.global	_pal_lld_enablepadevent
 244              		.thumb
 245              		.thumb_func
 246              		.type	_pal_lld_enablepadevent, %function
 247              	_pal_lld_enablepadevent:
 248              	.LFB325:
 249              		.loc 1 153 0
 250              		.cfi_startproc
 251              		@ args = 0, pretend = 0, frame = 0
 252              		@ frame_needed = 0, uses_anonymous_args = 0
 253              	.LVL25:
 254 0000 70B5     		push	{r4, r5, r6, lr}
 255              		.cfi_def_cfa_offset 16
 256              		.cfi_offset 4, -16
 257              		.cfi_offset 5, -12
 258              		.cfi_offset 6, -8
 259              		.cfi_offset 14, -4
 260              		.loc 1 158 0
 261 0002 0124     		movs	r4, #1
 262 0004 8C40     		lsls	r4, r4, r1
 263              	.LVL26:
 264              		.loc 1 173 0
 265 0006 01F00303 		and	r3, r1, #3
 266 000a 21F00301 		bic	r1, r1, #3
 267              	.LVL27:
 268 000e 01F18041 		add	r1, r1, #1073741824
 269 0012 01F59C31 		add	r1, r1, #79872
 270 0016 9B00     		lsls	r3, r3, #2
 271              	.LVL28:
 272              		.loc 1 181 0
 273 0018 8E68     		ldr	r6, [r1, #8]
 274              		.loc 1 174 0
 275 001a 0F25     		movs	r5, #15
 276 001c 9D40     		lsls	r5, r5, r3
 277              		.loc 1 178 0
 278 001e C0F38320 		ubfx	r0, r0, #10, #4
 279              	.LVL29:
 280              		.loc 1 181 0
 281 0022 9840     		lsls	r0, r0, r3
 282 0024 26EA0505 		bic	r5, r6, r5
 283 0028 0D4B     		ldr	r3, .L25
 284              	.LVL30:
 285 002a 2843     		orrs	r0, r0, r5
ARM GAS  /tmp/ccFpxhY7.s 			page 6


 286 002c 8860     		str	r0, [r1, #8]
 287              		.loc 1 199 0
 288 002e 9868     		ldr	r0, [r3, #8]
 289              		.loc 1 198 0
 290 0030 12F0010F 		tst	r2, #1
 291 0034 6FEA0401 		mvn	r1, r4
 292              		.loc 1 199 0
 293 0038 14BF     		ite	ne
 294 003a 2043     		orrne	r0, r0, r4
 295              		.loc 1 201 0
 296 003c 0840     		andeq	r0, r0, r1
 297 003e 9860     		str	r0, [r3, #8]
 298 0040 074B     		ldr	r3, .L25
 299              		.loc 1 202 0
 300 0042 12F0020F 		tst	r2, #2
 301              		.loc 1 203 0
 302 0046 DA68     		ldr	r2, [r3, #12]
 303              	.LVL31:
 304 0048 14BF     		ite	ne
 305 004a 2243     		orrne	r2, r2, r4
 306              		.loc 1 205 0
 307 004c 0A40     		andeq	r2, r2, r1
 308 004e DA60     		str	r2, [r3, #12]
 309              		.loc 1 208 0
 310 0050 1A68     		ldr	r2, [r3]
 311 0052 1443     		orrs	r4, r4, r2
 312              	.LVL32:
 313 0054 1C60     		str	r4, [r3]
 314              		.loc 1 209 0
 315 0056 5A68     		ldr	r2, [r3, #4]
 316 0058 0A40     		ands	r2, r2, r1
 317 005a 5A60     		str	r2, [r3, #4]
 318 005c 70BD     		pop	{r4, r5, r6, pc}
 319              	.L26:
 320 005e 00BF     		.align	2
 321              	.L25:
 322 0060 003C0140 		.word	1073822720
 323              		.cfi_endproc
 324              	.LFE325:
 325              		.size	_pal_lld_enablepadevent, .-_pal_lld_enablepadevent
 326              		.section	.text._pal_lld_disablepadevent,"ax",%progbits
 327              		.align	1
 328              		.global	_pal_lld_disablepadevent
 329              		.thumb
 330              		.thumb_func
 331              		.type	_pal_lld_disablepadevent, %function
 332              	_pal_lld_disablepadevent:
 333              	.LFB326:
 334              		.loc 1 222 0
 335              		.cfi_startproc
 336              		@ args = 0, pretend = 0, frame = 0
 337              		@ frame_needed = 0, uses_anonymous_args = 0
 338              	.LVL33:
 339              		.loc 1 229 0
 340 0000 114B     		ldr	r3, .L32
 341              		.loc 1 222 0
 342 0002 70B5     		push	{r4, r5, r6, lr}
ARM GAS  /tmp/ccFpxhY7.s 			page 7


 343              		.cfi_def_cfa_offset 16
 344              		.cfi_offset 4, -16
 345              		.cfi_offset 5, -12
 346              		.cfi_offset 6, -8
 347              		.cfi_offset 14, -4
 348              		.loc 1 229 0
 349 0004 9D68     		ldr	r5, [r3, #8]
 350              	.LVL34:
 351              		.loc 1 230 0
 352 0006 D868     		ldr	r0, [r3, #12]
 353              	.LVL35:
 354              		.loc 1 234 0
 355 0008 0122     		movs	r2, #1
 356 000a 8A40     		lsls	r2, r2, r1
 357              	.LVL36:
 358              		.loc 1 237 0
 359 000c 40EA0504 		orr	r4, r0, r5
 360 0010 2242     		tst	r2, r4
 361 0012 17D0     		beq	.L27
 362              	.LBB3:
 363              		.loc 1 241 0
 364 0014 8C08     		lsrs	r4, r1, #2
 365              	.LVL37:
 366              		.loc 1 248 0
 367 0016 0D4E     		ldr	r6, .L32+4
 368 0018 0234     		adds	r4, r4, #2
 369              	.LVL38:
 370 001a 56F82440 		ldr	r4, [r6, r4, lsl #2]
 371              	.LVL39:
 372              		.loc 1 261 0
 373 001e 1E68     		ldr	r6, [r3]
 374 0020 D443     		mvns	r4, r2
 375 0022 2640     		ands	r6, r6, r4
 376 0024 1E60     		str	r6, [r3]
 377              		.loc 1 262 0
 378 0026 5E68     		ldr	r6, [r3, #4]
 379              		.loc 1 263 0
 380 0028 2540     		ands	r5, r5, r4
 381              	.LVL40:
 382              		.loc 1 262 0
 383 002a 2640     		ands	r6, r6, r4
 384              		.loc 1 264 0
 385 002c 2040     		ands	r0, r0, r4
 386              	.LVL41:
 387              		.loc 1 262 0
 388 002e 5E60     		str	r6, [r3, #4]
 389              		.loc 1 263 0
 390 0030 9D60     		str	r5, [r3, #8]
 391              		.loc 1 264 0
 392 0032 D860     		str	r0, [r3, #12]
 393              		.loc 1 265 0
 394 0034 5A61     		str	r2, [r3, #20]
 395              		.loc 1 270 0
 396 0036 064B     		ldr	r3, .L32+8
 397 0038 0022     		movs	r2, #0
 398              	.LVL42:
 399 003a 43F83120 		str	r2, [r3, r1, lsl #3]
ARM GAS  /tmp/ccFpxhY7.s 			page 8


 400 003e 03EBC103 		add	r3, r3, r1, lsl #3
 401 0042 5A60     		str	r2, [r3, #4]
 402              	.LVL43:
 403              	.L27:
 404 0044 70BD     		pop	{r4, r5, r6, pc}
 405              	.L33:
 406 0046 00BF     		.align	2
 407              	.L32:
 408 0048 003C0140 		.word	1073822720
 409 004c 00380140 		.word	1073821696
 410 0050 00000000 		.word	.LANCHOR0
 411              	.LBE3:
 412              		.cfi_endproc
 413              	.LFE326:
 414              		.size	_pal_lld_disablepadevent, .-_pal_lld_disablepadevent
 415              		.global	_pal_events
 416              		.section	.bss._pal_events,"aw",%nobits
 417              		.align	2
 418              		.set	.LANCHOR0,. + 0
 419              		.type	_pal_events, %object
 420              		.size	_pal_events, 128
 421              	_pal_events:
 422 0000 00000000 		.space	128
 422      00000000 
 422      00000000 
 422      00000000 
 422      00000000 
 423              		.text
 424              	.Letext0:
 425              		.file 2 "/usr/lib/gcc/arm-none-eabi/4.9.3/include/stddef.h"
 426              		.file 3 "/usr/include/newlib/machine/_default_types.h"
 427              		.file 4 "/usr/include/newlib/sys/_stdint.h"
 428              		.file 5 "../../modules/ChibiOS/os/common/ports/ARMCMx/compilers/GCC/chtypes.h"
 429              		.file 6 "../../modules/ChibiOS/os/rt/include/chsystypes.h"
 430              		.file 7 "../../modules/ChibiOS/os/rt/include/chschd.h"
 431              		.file 8 "../../modules/ChibiOS/os/rt/include/chtime.h"
 432              		.file 9 "../../modules/ChibiOS/os/common/ext/ST/STM32F4xx/stm32f407xx.h"
 433              		.file 10 "../../modules/ChibiOS/os/common/ports/ARMCMx/chcore.h"
 434              		.file 11 "../../modules/ChibiOS/os/common/ports/ARMCMx/chcore_v7m.h"
 435              		.file 12 "../../modules/ChibiOS/os/rt/include/chtm.h"
 436              		.file 13 "../../modules/ChibiOS/os/rt/include/chstats.h"
 437              		.file 14 "../../modules/ChibiOS/os/rt/include/chsem.h"
 438              		.file 15 "../../modules/ChibiOS/os/rt/include/chmtx.h"
 439              		.file 16 "../../modules/ChibiOS/os/hal/include/hal_pal.h"
 440              		.file 17 "../../modules/ChibiOS/os/hal/ports/STM32/LLD/GPIOv2/stm32_gpio.h"
 441              		.file 18 "../../modules/ChibiOS/os/hal/ports/STM32/LLD/GPIOv2/hal_pal_lld.h"
 442              		.file 19 "../../modules/ChibiOS/os/common/ext/ARM/CMSIS/Core/Include/core_cm4.h"