ARM GAS  /tmp/cckYQ7vZ.s 			page 1


   1              		.syntax unified
   2              		.cpu cortex-m4
   3              		.eabi_attribute 27, 1
   4              		.eabi_attribute 28, 1
   5              		.fpu fpv4-sp-d16
   6              		.eabi_attribute 20, 1
   7              		.eabi_attribute 21, 1
   8              		.eabi_attribute 23, 3
   9              		.eabi_attribute 24, 1
  10              		.eabi_attribute 25, 1
  11              		.eabi_attribute 26, 1
  12              		.eabi_attribute 30, 4
  13              		.eabi_attribute 34, 1
  14              		.eabi_attribute 18, 4
  15              		.thumb
  16              		.file	"hal_st.c"
  17              		.text
  18              	.Ltext0:
  19              		.cfi_sections	.debug_frame
  20              		.section	.text.stInit,"ax",%progbits
  21              		.align	1
  22              		.global	stInit
  23              		.thumb
  24              		.thumb_func
  25              		.type	stInit, %function
  26              	stInit:
  27              	.LFB323:
  28              		.file 1 "../../modules/ChibiOS/os/hal/src/hal_st.c"
  29              		.loc 1 60 0
  30              		.cfi_startproc
  31              		@ args = 0, pretend = 0, frame = 0
  32              		@ frame_needed = 0, uses_anonymous_args = 0
  33              		@ link register save eliminated.
  34              		.loc 1 62 0
  35 0000 FFF7FEBF 		b	st_lld_init
  36              	.LVL0:
  37              		.cfi_endproc
  38              	.LFE323:
  39              		.size	stInit, .-stInit
  40              		.section	.text.stStartAlarm,"ax",%progbits
  41              		.align	1
  42              		.global	stStartAlarm
  43              		.thumb
  44              		.thumb_func
  45              		.type	stStartAlarm, %function
  46              	stStartAlarm:
  47              	.LFB324:
  48              		.loc 1 77 0
  49              		.cfi_startproc
  50              		@ args = 0, pretend = 0, frame = 0
  51              		@ frame_needed = 0, uses_anonymous_args = 0
  52              		@ link register save eliminated.
  53              	.LVL1:
  54              	.LBB10:
  55              	.LBB11:
  56              		.file 2 "../../modules/ChibiOS/os/hal/ports/STM32/LLD/TIMv1/hal_st_lld.h"
  57              		.loc 2 161 0
ARM GAS  /tmp/cckYQ7vZ.s 			page 2


  58 0000 034B     		ldr	r3, .L3
  59              		.loc 2 162 0
  60 0002 0022     		movs	r2, #0
  61              		.loc 2 161 0
  62 0004 5863     		str	r0, [r3, #52]
  63              		.loc 2 162 0
  64 0006 1A61     		str	r2, [r3, #16]
  65              		.loc 2 163 0
  66 0008 0222     		movs	r2, #2
  67 000a DA60     		str	r2, [r3, #12]
  68 000c 7047     		bx	lr
  69              	.L4:
  70 000e 00BF     		.align	2
  71              	.L3:
  72 0010 000C0040 		.word	1073744896
  73              	.LBE11:
  74              	.LBE10:
  75              		.cfi_endproc
  76              	.LFE324:
  77              		.size	stStartAlarm, .-stStartAlarm
  78              		.section	.text.stStopAlarm,"ax",%progbits
  79              		.align	1
  80              		.global	stStopAlarm
  81              		.thumb
  82              		.thumb_func
  83              		.type	stStopAlarm, %function
  84              	stStopAlarm:
  85              	.LFB325:
  86              		.loc 1 91 0
  87              		.cfi_startproc
  88              		@ args = 0, pretend = 0, frame = 0
  89              		@ frame_needed = 0, uses_anonymous_args = 0
  90              		@ link register save eliminated.
  91              	.LBB12:
  92              	.LBB13:
  93              		.loc 2 173 0
  94 0000 014B     		ldr	r3, .L6
  95 0002 0022     		movs	r2, #0
  96 0004 DA60     		str	r2, [r3, #12]
  97 0006 7047     		bx	lr
  98              	.L7:
  99              		.align	2
 100              	.L6:
 101 0008 000C0040 		.word	1073744896
 102              	.LBE13:
 103              	.LBE12:
 104              		.cfi_endproc
 105              	.LFE325:
 106              		.size	stStopAlarm, .-stStopAlarm
 107              		.section	.text.stSetAlarm,"ax",%progbits
 108              		.align	1
 109              		.global	stSetAlarm
 110              		.thumb
 111              		.thumb_func
 112              		.type	stSetAlarm, %function
 113              	stSetAlarm:
 114              	.LFB326:
ARM GAS  /tmp/cckYQ7vZ.s 			page 3


 115              		.loc 1 105 0
 116              		.cfi_startproc
 117              		@ args = 0, pretend = 0, frame = 0
 118              		@ frame_needed = 0, uses_anonymous_args = 0
 119              		@ link register save eliminated.
 120              	.LVL2:
 121              	.LBB14:
 122              	.LBB15:
 123              		.loc 2 185 0
 124 0000 014B     		ldr	r3, .L9
 125 0002 5863     		str	r0, [r3, #52]
 126 0004 7047     		bx	lr
 127              	.L10:
 128 0006 00BF     		.align	2
 129              	.L9:
 130 0008 000C0040 		.word	1073744896
 131              	.LBE15:
 132              	.LBE14:
 133              		.cfi_endproc
 134              	.LFE326:
 135              		.size	stSetAlarm, .-stSetAlarm
 136              		.section	.text.stGetAlarm,"ax",%progbits
 137              		.align	1
 138              		.global	stGetAlarm
 139              		.thumb
 140              		.thumb_func
 141              		.type	stGetAlarm, %function
 142              	stGetAlarm:
 143              	.LFB327:
 144              		.loc 1 121 0
 145              		.cfi_startproc
 146              		@ args = 0, pretend = 0, frame = 0
 147              		@ frame_needed = 0, uses_anonymous_args = 0
 148              		@ link register save eliminated.
 149              	.LBB16:
 150              	.LBB17:
 151              		.loc 2 197 0
 152 0000 014B     		ldr	r3, .L12
 153 0002 586B     		ldr	r0, [r3, #52]
 154              	.LBE17:
 155              	.LBE16:
 156              		.loc 1 126 0
 157 0004 7047     		bx	lr
 158              	.L13:
 159 0006 00BF     		.align	2
 160              	.L12:
 161 0008 000C0040 		.word	1073744896
 162              		.cfi_endproc
 163              	.LFE327:
 164              		.size	stGetAlarm, .-stGetAlarm
 165              		.text
 166              	.Letext0:
 167              		.file 3 "/usr/include/newlib/machine/_default_types.h"
 168              		.file 4 "/usr/include/newlib/sys/_stdint.h"
 169              		.file 5 "../../modules/ChibiOS/os/common/ports/ARMCMx/compilers/GCC/chtypes.h"
 170              		.file 6 "../../modules/ChibiOS/os/rt/include/chsystypes.h"
 171              		.file 7 "../../modules/ChibiOS/os/rt/include/chschd.h"
ARM GAS  /tmp/cckYQ7vZ.s 			page 4


 172              		.file 8 "../../modules/ChibiOS/os/rt/include/chtime.h"
 173              		.file 9 "../../modules/ChibiOS/os/common/ports/ARMCMx/chcore.h"
 174              		.file 10 "../../modules/ChibiOS/os/common/ports/ARMCMx/chcore_v7m.h"
 175              		.file 11 "../../modules/ChibiOS/os/hal/ports/STM32/LLD/TIMv1/stm32_tim.h"
 176              		.file 12 "../../modules/ChibiOS/os/rt/include/chtm.h"
 177              		.file 13 "../../modules/ChibiOS/os/rt/include/chstats.h"
 178              		.file 14 "../../modules/ChibiOS/os/rt/include/chsem.h"
 179              		.file 15 "../../modules/ChibiOS/os/rt/include/chmtx.h"
 180              		.file 16 "../../modules/ChibiOS/os/common/ext/ARM/CMSIS/Core/Include/core_cm4.h"
 181              		.section	.debug_info,"",%progbits
 182              	.Ldebug_info0:
 183 0000 6E0A0000 		.4byte	0xa6e
 184 0004 0400     		.2byte	0x4
 185 0006 00000000 		.4byte	.Ldebug_abbrev0
 186 000a 04       		.byte	0x4
 187 000b 01       		.uleb128 0x1
 188 000c BF010000 		.4byte	.LASF125
 189 0010 01       		.byte	0x1
 190 0011 9D050000 		.4byte	.LASF126
 191 0015 57050000 		.4byte	.LASF127
 192 0019 00000000 		.4byte	.Ldebug_ranges0+0
 193 001d 00000000 		.4byte	0
 194 0021 00000000 		.4byte	.Ldebug_line0
 195 0025 02       		.uleb128 0x2
 196 0026 04       		.byte	0x4
 197 0027 05       		.byte	0x5
 198 0028 696E7400 		.ascii	"int\000"
 199 002c 03       		.uleb128 0x3
 200 002d 04       		.byte	0x4
 201 002e 07       		.byte	0x7
 202 002f B2010000 		.4byte	.LASF0
 203 0033 03       		.uleb128 0x3
 204 0034 01       		.byte	0x1
 205 0035 06       		.byte	0x6
 206 0036 16010000 		.4byte	.LASF1
 207 003a 04       		.uleb128 0x4
 208 003b 40000000 		.4byte	.LASF5
 209 003f 03       		.byte	0x3
 210 0040 1D       		.byte	0x1d
 211 0041 45000000 		.4byte	0x45
 212 0045 03       		.uleb128 0x3
 213 0046 01       		.byte	0x1
 214 0047 08       		.byte	0x8
 215 0048 33040000 		.4byte	.LASF2
 216 004c 03       		.uleb128 0x3
 217 004d 02       		.byte	0x2
 218 004e 05       		.byte	0x5
 219 004f 41040000 		.4byte	.LASF3
 220 0053 03       		.uleb128 0x3
 221 0054 02       		.byte	0x2
 222 0055 07       		.byte	0x7
 223 0056 44050000 		.4byte	.LASF4
 224 005a 04       		.uleb128 0x4
 225 005b 47030000 		.4byte	.LASF6
 226 005f 03       		.byte	0x3
 227 0060 3F       		.byte	0x3f
 228 0061 65000000 		.4byte	0x65
ARM GAS  /tmp/cckYQ7vZ.s 			page 5


 229 0065 03       		.uleb128 0x3
 230 0066 04       		.byte	0x4
 231 0067 05       		.byte	0x5
 232 0068 38010000 		.4byte	.LASF7
 233 006c 04       		.uleb128 0x4
 234 006d 5D010000 		.4byte	.LASF8
 235 0071 03       		.byte	0x3
 236 0072 41       		.byte	0x41
 237 0073 77000000 		.4byte	0x77
 238 0077 03       		.uleb128 0x3
 239 0078 04       		.byte	0x4
 240 0079 07       		.byte	0x7
 241 007a D0040000 		.4byte	.LASF9
 242 007e 03       		.uleb128 0x3
 243 007f 08       		.byte	0x8
 244 0080 05       		.byte	0x5
 245 0081 90010000 		.4byte	.LASF10
 246 0085 04       		.uleb128 0x4
 247 0086 E1030000 		.4byte	.LASF11
 248 008a 03       		.byte	0x3
 249 008b 5B       		.byte	0x5b
 250 008c 90000000 		.4byte	0x90
 251 0090 03       		.uleb128 0x3
 252 0091 08       		.byte	0x8
 253 0092 07       		.byte	0x7
 254 0093 94000000 		.4byte	.LASF12
 255 0097 04       		.uleb128 0x4
 256 0098 65040000 		.4byte	.LASF13
 257 009c 04       		.byte	0x4
 258 009d 14       		.byte	0x14
 259 009e 3A000000 		.4byte	0x3a
 260 00a2 04       		.uleb128 0x4
 261 00a3 2B040000 		.4byte	.LASF14
 262 00a7 04       		.byte	0x4
 263 00a8 1F       		.byte	0x1f
 264 00a9 5A000000 		.4byte	0x5a
 265 00ad 04       		.uleb128 0x4
 266 00ae AA040000 		.4byte	.LASF15
 267 00b2 04       		.byte	0x4
 268 00b3 20       		.byte	0x20
 269 00b4 6C000000 		.4byte	0x6c
 270 00b8 04       		.uleb128 0x4
 271 00b9 2A000000 		.4byte	.LASF16
 272 00bd 04       		.byte	0x4
 273 00be 26       		.byte	0x26
 274 00bf 85000000 		.4byte	0x85
 275 00c3 04       		.uleb128 0x4
 276 00c4 83050000 		.4byte	.LASF17
 277 00c8 05       		.byte	0x5
 278 00c9 27       		.byte	0x27
 279 00ca AD000000 		.4byte	0xad
 280 00ce 04       		.uleb128 0x4
 281 00cf FB000000 		.4byte	.LASF18
 282 00d3 05       		.byte	0x5
 283 00d4 28       		.byte	0x28
 284 00d5 B8000000 		.4byte	0xb8
 285 00d9 04       		.uleb128 0x4
ARM GAS  /tmp/cckYQ7vZ.s 			page 6


 286 00da 41010000 		.4byte	.LASF19
 287 00de 05       		.byte	0x5
 288 00df 2A       		.byte	0x2a
 289 00e0 97000000 		.4byte	0x97
 290 00e4 04       		.uleb128 0x4
 291 00e5 49010000 		.4byte	.LASF20
 292 00e9 05       		.byte	0x5
 293 00ea 2B       		.byte	0x2b
 294 00eb 97000000 		.4byte	0x97
 295 00ef 04       		.uleb128 0x4
 296 00f0 F7030000 		.4byte	.LASF21
 297 00f4 05       		.byte	0x5
 298 00f5 2C       		.byte	0x2c
 299 00f6 97000000 		.4byte	0x97
 300 00fa 04       		.uleb128 0x4
 301 00fb 14040000 		.4byte	.LASF22
 302 00ff 05       		.byte	0x5
 303 0100 2E       		.byte	0x2e
 304 0101 AD000000 		.4byte	0xad
 305 0105 04       		.uleb128 0x4
 306 0106 EF020000 		.4byte	.LASF23
 307 010a 05       		.byte	0x5
 308 010b 2F       		.byte	0x2f
 309 010c A2000000 		.4byte	0xa2
 310 0110 04       		.uleb128 0x4
 311 0111 3B030000 		.4byte	.LASF24
 312 0115 05       		.byte	0x5
 313 0116 31       		.byte	0x31
 314 0117 AD000000 		.4byte	0xad
 315 011b 04       		.uleb128 0x4
 316 011c AC010000 		.4byte	.LASF25
 317 0120 05       		.byte	0x5
 318 0121 33       		.byte	0x33
 319 0122 A2000000 		.4byte	0xa2
 320 0126 04       		.uleb128 0x4
 321 0127 FA020000 		.4byte	.LASF26
 322 012b 05       		.byte	0x5
 323 012c 34       		.byte	0x34
 324 012d AD000000 		.4byte	0xad
 325 0131 04       		.uleb128 0x4
 326 0132 05050000 		.4byte	.LASF27
 327 0136 06       		.byte	0x6
 328 0137 34       		.byte	0x34
 329 0138 3C010000 		.4byte	0x13c
 330 013c 05       		.uleb128 0x5
 331 013d E5020000 		.4byte	.LASF46
 332 0141 60       		.byte	0x60
 333 0142 07       		.byte	0x7
 334 0143 8E       		.byte	0x8e
 335 0144 27020000 		.4byte	0x227
 336 0148 06       		.uleb128 0x6
 337 0149 BB020000 		.4byte	.LASF28
 338 014d 07       		.byte	0x7
 339 014e 8F       		.byte	0x8f
 340 014f 5C020000 		.4byte	0x25c
 341 0153 00       		.byte	0
 342 0154 06       		.uleb128 0x6
ARM GAS  /tmp/cckYQ7vZ.s 			page 7


 343 0155 D4030000 		.4byte	.LASF29
 344 0159 07       		.byte	0x7
 345 015a 90       		.byte	0x90
 346 015b FA000000 		.4byte	0xfa
 347 015f 08       		.byte	0x8
 348 0160 07       		.uleb128 0x7
 349 0161 63747800 		.ascii	"ctx\000"
 350 0165 07       		.byte	0x7
 351 0166 91       		.byte	0x91
 352 0167 9C040000 		.4byte	0x49c
 353 016b 0C       		.byte	0xc
 354 016c 06       		.uleb128 0x6
 355 016d 6F030000 		.4byte	.LASF30
 356 0171 07       		.byte	0x7
 357 0172 93       		.byte	0x93
 358 0173 32020000 		.4byte	0x232
 359 0177 10       		.byte	0x10
 360 0178 06       		.uleb128 0x6
 361 0179 FA040000 		.4byte	.LASF31
 362 017d 07       		.byte	0x7
 363 017e 94       		.byte	0x94
 364 017f 32020000 		.4byte	0x232
 365 0183 14       		.byte	0x14
 366 0184 06       		.uleb128 0x6
 367 0185 E0020000 		.4byte	.LASF32
 368 0189 07       		.byte	0x7
 369 018a 9B       		.byte	0x9b
 370 018b A4080000 		.4byte	0x8a4
 371 018f 18       		.byte	0x18
 372 0190 06       		.uleb128 0x6
 373 0191 E2040000 		.4byte	.LASF33
 374 0195 07       		.byte	0x7
 375 0196 A4       		.byte	0xa4
 376 0197 B6080000 		.4byte	0x8b6
 377 019b 1C       		.byte	0x1c
 378 019c 06       		.uleb128 0x6
 379 019d 32010000 		.4byte	.LASF34
 380 01a1 07       		.byte	0x7
 381 01a2 A9       		.byte	0xa9
 382 01a3 E4000000 		.4byte	0xe4
 383 01a7 20       		.byte	0x20
 384 01a8 06       		.uleb128 0x6
 385 01a9 F1050000 		.4byte	.LASF35
 386 01ad 07       		.byte	0x7
 387 01ae AD       		.byte	0xad
 388 01af D9000000 		.4byte	0xd9
 389 01b3 21       		.byte	0x21
 390 01b4 06       		.uleb128 0x6
 391 01b5 FF030000 		.4byte	.LASF36
 392 01b9 07       		.byte	0x7
 393 01ba B2       		.byte	0xb2
 394 01bb EF000000 		.4byte	0xef
 395 01bf 22       		.byte	0x22
 396 01c0 08       		.uleb128 0x8
 397 01c1 7500     		.ascii	"u\000"
 398 01c3 07       		.byte	0x7
 399 01c4 0301     		.2byte	0x103
ARM GAS  /tmp/cckYQ7vZ.s 			page 8


 400 01c6 DA070000 		.4byte	0x7da
 401 01ca 24       		.byte	0x24
 402 01cb 09       		.uleb128 0x9
 403 01cc 88010000 		.4byte	.LASF37
 404 01d0 07       		.byte	0x7
 405 01d1 0801     		.2byte	0x108
 406 01d3 38020000 		.4byte	0x238
 407 01d7 28       		.byte	0x28
 408 01d8 09       		.uleb128 0x9
 409 01d9 29010000 		.4byte	.LASF38
 410 01dd 07       		.byte	0x7
 411 01de 0E01     		.2byte	0x10e
 412 01e0 5C020000 		.4byte	0x25c
 413 01e4 2C       		.byte	0x2c
 414 01e5 09       		.uleb128 0x9
 415 01e6 01030000 		.4byte	.LASF39
 416 01ea 07       		.byte	0x7
 417 01eb 1401     		.2byte	0x114
 418 01ed 10010000 		.4byte	0x110
 419 01f1 34       		.byte	0x34
 420 01f2 09       		.uleb128 0x9
 421 01f3 31060000 		.4byte	.LASF40
 422 01f7 07       		.byte	0x7
 423 01f8 1B01     		.2byte	0x11b
 424 01fa 9E080000 		.4byte	0x89e
 425 01fe 38       		.byte	0x38
 426 01ff 09       		.uleb128 0x9
 427 0200 75030000 		.4byte	.LASF41
 428 0204 07       		.byte	0x7
 429 0205 1F01     		.2byte	0x11f
 430 0207 FA000000 		.4byte	0xfa
 431 020b 3C       		.byte	0x3c
 432 020c 09       		.uleb128 0x9
 433 020d C1020000 		.4byte	.LASF42
 434 0211 07       		.byte	0x7
 435 0212 2601     		.2byte	0x126
 436 0214 0F030000 		.4byte	0x30f
 437 0218 40       		.byte	0x40
 438 0219 09       		.uleb128 0x9
 439 021a 57010000 		.4byte	.LASF43
 440 021e 07       		.byte	0x7
 441 021f 2C01     		.2byte	0x12c
 442 0221 8B070000 		.4byte	0x78b
 443 0225 48       		.byte	0x48
 444 0226 00       		.byte	0
 445 0227 04       		.uleb128 0x4
 446 0228 87030000 		.4byte	.LASF44
 447 022c 06       		.byte	0x6
 448 022d 39       		.byte	0x39
 449 022e 32020000 		.4byte	0x232
 450 0232 0A       		.uleb128 0xa
 451 0233 04       		.byte	0x4
 452 0234 31010000 		.4byte	0x131
 453 0238 04       		.uleb128 0x4
 454 0239 09060000 		.4byte	.LASF45
 455 023d 06       		.byte	0x6
 456 023e 3E       		.byte	0x3e
ARM GAS  /tmp/cckYQ7vZ.s 			page 9


 457 023f 43020000 		.4byte	0x243
 458 0243 05       		.uleb128 0x5
 459 0244 BA040000 		.4byte	.LASF47
 460 0248 04       		.byte	0x4
 461 0249 07       		.byte	0x7
 462 024a 7C       		.byte	0x7c
 463 024b 5C020000 		.4byte	0x25c
 464 024f 06       		.uleb128 0x6
 465 0250 18000000 		.4byte	.LASF48
 466 0254 07       		.byte	0x7
 467 0255 7D       		.byte	0x7d
 468 0256 32020000 		.4byte	0x232
 469 025a 00       		.byte	0
 470 025b 00       		.byte	0
 471 025c 04       		.uleb128 0x4
 472 025d C7050000 		.4byte	.LASF49
 473 0261 06       		.byte	0x6
 474 0262 45       		.byte	0x45
 475 0263 67020000 		.4byte	0x267
 476 0267 05       		.uleb128 0x5
 477 0268 5B000000 		.4byte	.LASF50
 478 026c 08       		.byte	0x8
 479 026d 07       		.byte	0x7
 480 026e 83       		.byte	0x83
 481 026f 8C020000 		.4byte	0x28c
 482 0273 06       		.uleb128 0x6
 483 0274 18000000 		.4byte	.LASF48
 484 0278 07       		.byte	0x7
 485 0279 84       		.byte	0x84
 486 027a 32020000 		.4byte	0x232
 487 027e 00       		.byte	0
 488 027f 06       		.uleb128 0x6
 489 0280 4A000000 		.4byte	.LASF51
 490 0284 07       		.byte	0x7
 491 0285 85       		.byte	0x85
 492 0286 32020000 		.4byte	0x232
 493 028a 04       		.byte	0x4
 494 028b 00       		.byte	0
 495 028c 04       		.uleb128 0x4
 496 028d 00000000 		.4byte	.LASF52
 497 0291 06       		.byte	0x6
 498 0292 4C       		.byte	0x4c
 499 0293 97020000 		.4byte	0x297
 500 0297 0B       		.uleb128 0xb
 501 0298 2D030000 		.4byte	.LASF53
 502 029c 1C       		.byte	0x1c
 503 029d 07       		.byte	0x7
 504 029e 5E01     		.2byte	0x15e
 505 02a0 F3020000 		.4byte	0x2f3
 506 02a4 09       		.uleb128 0x9
 507 02a5 BB020000 		.4byte	.LASF28
 508 02a9 07       		.byte	0x7
 509 02aa 5F01     		.2byte	0x15f
 510 02ac 5C020000 		.4byte	0x25c
 511 02b0 00       		.byte	0
 512 02b1 09       		.uleb128 0x9
 513 02b2 D4030000 		.4byte	.LASF29
ARM GAS  /tmp/cckYQ7vZ.s 			page 10


 514 02b6 07       		.byte	0x7
 515 02b7 6001     		.2byte	0x160
 516 02b9 FA000000 		.4byte	0xfa
 517 02bd 08       		.byte	0x8
 518 02be 08       		.uleb128 0x8
 519 02bf 63747800 		.ascii	"ctx\000"
 520 02c3 07       		.byte	0x7
 521 02c4 6201     		.2byte	0x162
 522 02c6 9C040000 		.4byte	0x49c
 523 02ca 0C       		.byte	0xc
 524 02cb 09       		.uleb128 0x9
 525 02cc 6F030000 		.4byte	.LASF30
 526 02d0 07       		.byte	0x7
 527 02d1 6501     		.2byte	0x165
 528 02d3 32020000 		.4byte	0x232
 529 02d7 10       		.byte	0x10
 530 02d8 09       		.uleb128 0x9
 531 02d9 FA040000 		.4byte	.LASF31
 532 02dd 07       		.byte	0x7
 533 02de 6601     		.2byte	0x166
 534 02e0 32020000 		.4byte	0x232
 535 02e4 14       		.byte	0x14
 536 02e5 09       		.uleb128 0x9
 537 02e6 D9030000 		.4byte	.LASF54
 538 02ea 07       		.byte	0x7
 539 02eb 6901     		.2byte	0x169
 540 02ed 32020000 		.4byte	0x232
 541 02f1 18       		.byte	0x18
 542 02f2 00       		.byte	0
 543 02f3 04       		.uleb128 0x4
 544 02f4 1D050000 		.4byte	.LASF55
 545 02f8 06       		.byte	0x6
 546 02f9 51       		.byte	0x51
 547 02fa FE020000 		.4byte	0x2fe
 548 02fe 0A       		.uleb128 0xa
 549 02ff 04       		.byte	0x4
 550 0300 04030000 		.4byte	0x304
 551 0304 0C       		.uleb128 0xc
 552 0305 0F030000 		.4byte	0x30f
 553 0309 0D       		.uleb128 0xd
 554 030a 0F030000 		.4byte	0x30f
 555 030e 00       		.byte	0
 556 030f 0E       		.uleb128 0xe
 557 0310 04       		.byte	0x4
 558 0311 04       		.uleb128 0x4
 559 0312 04040000 		.4byte	.LASF56
 560 0316 06       		.byte	0x6
 561 0317 56       		.byte	0x56
 562 0318 1C030000 		.4byte	0x31c
 563 031c 0B       		.uleb128 0xb
 564 031d 76040000 		.4byte	.LASF57
 565 0321 14       		.byte	0x14
 566 0322 07       		.byte	0x7
 567 0323 3901     		.2byte	0x139
 568 0325 6B030000 		.4byte	0x36b
 569 0329 09       		.uleb128 0x9
 570 032a 18000000 		.4byte	.LASF48
ARM GAS  /tmp/cckYQ7vZ.s 			page 11


 571 032e 07       		.byte	0x7
 572 032f 3A01     		.2byte	0x13a
 573 0331 BC080000 		.4byte	0x8bc
 574 0335 00       		.byte	0
 575 0336 09       		.uleb128 0x9
 576 0337 4A000000 		.4byte	.LASF51
 577 033b 07       		.byte	0x7
 578 033c 3B01     		.2byte	0x13b
 579 033e BC080000 		.4byte	0x8bc
 580 0342 04       		.byte	0x4
 581 0343 09       		.uleb128 0x9
 582 0344 1D000000 		.4byte	.LASF58
 583 0348 07       		.byte	0x7
 584 0349 3C01     		.2byte	0x13c
 585 034b 4F040000 		.4byte	0x44f
 586 034f 08       		.byte	0x8
 587 0350 09       		.uleb128 0x9
 588 0351 52010000 		.4byte	.LASF59
 589 0355 07       		.byte	0x7
 590 0356 3D01     		.2byte	0x13d
 591 0358 F3020000 		.4byte	0x2f3
 592 035c 0C       		.byte	0xc
 593 035d 08       		.uleb128 0x8
 594 035e 70617200 		.ascii	"par\000"
 595 0362 07       		.byte	0x7
 596 0363 3F01     		.2byte	0x13f
 597 0365 0F030000 		.4byte	0x30f
 598 0369 10       		.byte	0x10
 599 036a 00       		.byte	0
 600 036b 04       		.uleb128 0x4
 601 036c C7000000 		.4byte	.LASF60
 602 0370 06       		.byte	0x6
 603 0371 5B       		.byte	0x5b
 604 0372 76030000 		.4byte	0x376
 605 0376 0B       		.uleb128 0xb
 606 0377 9A030000 		.4byte	.LASF61
 607 037b 10       		.byte	0x10
 608 037c 07       		.byte	0x7
 609 037d 4901     		.2byte	0x149
 610 037f B8030000 		.4byte	0x3b8
 611 0383 09       		.uleb128 0x9
 612 0384 18000000 		.4byte	.LASF48
 613 0388 07       		.byte	0x7
 614 0389 4A01     		.2byte	0x14a
 615 038b BC080000 		.4byte	0x8bc
 616 038f 00       		.byte	0
 617 0390 09       		.uleb128 0x9
 618 0391 4A000000 		.4byte	.LASF51
 619 0395 07       		.byte	0x7
 620 0396 4C01     		.2byte	0x14c
 621 0398 BC080000 		.4byte	0x8bc
 622 039c 04       		.byte	0x4
 623 039d 09       		.uleb128 0x9
 624 039e 1D000000 		.4byte	.LASF58
 625 03a2 07       		.byte	0x7
 626 03a3 4E01     		.2byte	0x14e
 627 03a5 4F040000 		.4byte	0x44f
ARM GAS  /tmp/cckYQ7vZ.s 			page 12


 628 03a9 08       		.byte	0x8
 629 03aa 09       		.uleb128 0x9
 630 03ab 4B040000 		.4byte	.LASF62
 631 03af 07       		.byte	0x7
 632 03b0 5601     		.2byte	0x156
 633 03b2 44040000 		.4byte	0x444
 634 03b6 0C       		.byte	0xc
 635 03b7 00       		.byte	0
 636 03b8 04       		.uleb128 0x4
 637 03b9 6C000000 		.4byte	.LASF63
 638 03bd 06       		.byte	0x6
 639 03be 60       		.byte	0x60
 640 03bf C3030000 		.4byte	0x3c3
 641 03c3 0B       		.uleb128 0xb
 642 03c4 78010000 		.4byte	.LASF64
 643 03c8 04       		.byte	0x4
 644 03c9 07       		.byte	0x7
 645 03ca 7001     		.2byte	0x170
 646 03cc DE030000 		.4byte	0x3de
 647 03d0 09       		.uleb128 0x9
 648 03d1 26050000 		.4byte	.LASF65
 649 03d5 07       		.byte	0x7
 650 03d6 7801     		.2byte	0x178
 651 03d8 C2080000 		.4byte	0x8c2
 652 03dc 00       		.byte	0
 653 03dd 00       		.byte	0
 654 03de 04       		.uleb128 0x4
 655 03df 0A030000 		.4byte	.LASF66
 656 03e3 06       		.byte	0x6
 657 03e4 65       		.byte	0x65
 658 03e5 E9030000 		.4byte	0x3e9
 659 03e9 0B       		.uleb128 0xb
 660 03ea 5B040000 		.4byte	.LASF67
 661 03ee D0       		.byte	0xd0
 662 03ef 07       		.byte	0x7
 663 03f0 9001     		.2byte	0x190
 664 03f2 44040000 		.4byte	0x444
 665 03f6 09       		.uleb128 0x9
 666 03f7 E0050000 		.4byte	.LASF68
 667 03fb 07       		.byte	0x7
 668 03fc 9401     		.2byte	0x194
 669 03fe 8C020000 		.4byte	0x28c
 670 0402 00       		.byte	0
 671 0403 09       		.uleb128 0x9
 672 0404 22010000 		.4byte	.LASF69
 673 0408 07       		.byte	0x7
 674 0409 9801     		.2byte	0x198
 675 040b 6B030000 		.4byte	0x36b
 676 040f 1C       		.byte	0x1c
 677 0410 08       		.uleb128 0x8
 678 0411 64626700 		.ascii	"dbg\000"
 679 0415 07       		.byte	0x7
 680 0416 9C01     		.2byte	0x19c
 681 0418 B8030000 		.4byte	0x3b8
 682 041c 2C       		.byte	0x2c
 683 041d 09       		.uleb128 0x9
 684 041e B4000000 		.4byte	.LASF70
ARM GAS  /tmp/cckYQ7vZ.s 			page 13


 685 0422 07       		.byte	0x7
 686 0423 A001     		.2byte	0x1a0
 687 0425 31010000 		.4byte	0x131
 688 0429 30       		.byte	0x30
 689 042a 08       		.uleb128 0x8
 690 042b 746D00   		.ascii	"tm\000"
 691 042e 07       		.byte	0x7
 692 042f A501     		.2byte	0x1a5
 693 0431 3D070000 		.4byte	0x73d
 694 0435 90       		.byte	0x90
 695 0436 09       		.uleb128 0x9
 696 0437 33000000 		.4byte	.LASF71
 697 043b 07       		.byte	0x7
 698 043c AB01     		.2byte	0x1ab
 699 043e CF070000 		.4byte	0x7cf
 700 0442 98       		.byte	0x98
 701 0443 00       		.byte	0
 702 0444 04       		.uleb128 0x4
 703 0445 13050000 		.4byte	.LASF72
 704 0449 08       		.byte	0x8
 705 044a 6D       		.byte	0x6d
 706 044b AD000000 		.4byte	0xad
 707 044f 04       		.uleb128 0x4
 708 0450 9E010000 		.4byte	.LASF73
 709 0454 08       		.byte	0x8
 710 0455 79       		.byte	0x79
 711 0456 AD000000 		.4byte	0xad
 712 045a 03       		.uleb128 0x3
 713 045b 04       		.byte	0x4
 714 045c 07       		.byte	0x7
 715 045d 7E030000 		.4byte	.LASF74
 716 0461 0F       		.uleb128 0xf
 717 0462 AD000000 		.4byte	0xad
 718 0466 10       		.uleb128 0x10
 719 0467 AD000000 		.4byte	0xad
 720 046b 76040000 		.4byte	0x476
 721 046f 11       		.uleb128 0x11
 722 0470 5A040000 		.4byte	0x45a
 723 0474 01       		.byte	0x1
 724 0475 00       		.byte	0
 725 0476 10       		.uleb128 0x10
 726 0477 AD000000 		.4byte	0xad
 727 047b 86040000 		.4byte	0x486
 728 047f 11       		.uleb128 0x11
 729 0480 5A040000 		.4byte	0x45a
 730 0484 03       		.byte	0x3
 731 0485 00       		.byte	0
 732 0486 04       		.uleb128 0x4
 733 0487 68010000 		.4byte	.LASF75
 734 048b 09       		.byte	0x9
 735 048c 65       		.byte	0x65
 736 048d 0F030000 		.4byte	0x30f
 737 0491 04       		.uleb128 0x4
 738 0492 64030000 		.4byte	.LASF76
 739 0496 09       		.byte	0x9
 740 0497 6D       		.byte	0x6d
 741 0498 B8000000 		.4byte	0xb8
ARM GAS  /tmp/cckYQ7vZ.s 			page 14


 742 049c 05       		.uleb128 0x5
 743 049d B1030000 		.4byte	.LASF77
 744 04a1 04       		.byte	0x4
 745 04a2 09       		.byte	0x9
 746 04a3 89       		.byte	0x89
 747 04a4 B4040000 		.4byte	0x4b4
 748 04a8 07       		.uleb128 0x7
 749 04a9 737000   		.ascii	"sp\000"
 750 04ac 09       		.byte	0x9
 751 04ad 8A       		.byte	0x8a
 752 04ae 00060000 		.4byte	0x600
 753 04b2 00       		.byte	0
 754 04b3 00       		.byte	0
 755 04b4 0B       		.uleb128 0xb
 756 04b5 4F000000 		.4byte	.LASF78
 757 04b9 64       		.byte	0x64
 758 04ba 0A       		.byte	0xa
 759 04bb 5901     		.2byte	0x159
 760 04bd 00060000 		.4byte	0x600
 761 04c1 08       		.uleb128 0x8
 762 04c2 73313600 		.ascii	"s16\000"
 763 04c6 0A       		.byte	0xa
 764 04c7 5B01     		.2byte	0x15b
 765 04c9 86040000 		.4byte	0x486
 766 04cd 00       		.byte	0
 767 04ce 08       		.uleb128 0x8
 768 04cf 73313700 		.ascii	"s17\000"
 769 04d3 0A       		.byte	0xa
 770 04d4 5C01     		.2byte	0x15c
 771 04d6 86040000 		.4byte	0x486
 772 04da 04       		.byte	0x4
 773 04db 08       		.uleb128 0x8
 774 04dc 73313800 		.ascii	"s18\000"
 775 04e0 0A       		.byte	0xa
 776 04e1 5D01     		.2byte	0x15d
 777 04e3 86040000 		.4byte	0x486
 778 04e7 08       		.byte	0x8
 779 04e8 08       		.uleb128 0x8
 780 04e9 73313900 		.ascii	"s19\000"
 781 04ed 0A       		.byte	0xa
 782 04ee 5E01     		.2byte	0x15e
 783 04f0 86040000 		.4byte	0x486
 784 04f4 0C       		.byte	0xc
 785 04f5 08       		.uleb128 0x8
 786 04f6 73323000 		.ascii	"s20\000"
 787 04fa 0A       		.byte	0xa
 788 04fb 5F01     		.2byte	0x15f
 789 04fd 86040000 		.4byte	0x486
 790 0501 10       		.byte	0x10
 791 0502 08       		.uleb128 0x8
 792 0503 73323100 		.ascii	"s21\000"
 793 0507 0A       		.byte	0xa
 794 0508 6001     		.2byte	0x160
 795 050a 86040000 		.4byte	0x486
 796 050e 14       		.byte	0x14
 797 050f 08       		.uleb128 0x8
 798 0510 73323200 		.ascii	"s22\000"
ARM GAS  /tmp/cckYQ7vZ.s 			page 15


 799 0514 0A       		.byte	0xa
 800 0515 6101     		.2byte	0x161
 801 0517 86040000 		.4byte	0x486
 802 051b 18       		.byte	0x18
 803 051c 08       		.uleb128 0x8
 804 051d 73323300 		.ascii	"s23\000"
 805 0521 0A       		.byte	0xa
 806 0522 6201     		.2byte	0x162
 807 0524 86040000 		.4byte	0x486
 808 0528 1C       		.byte	0x1c
 809 0529 08       		.uleb128 0x8
 810 052a 73323400 		.ascii	"s24\000"
 811 052e 0A       		.byte	0xa
 812 052f 6301     		.2byte	0x163
 813 0531 86040000 		.4byte	0x486
 814 0535 20       		.byte	0x20
 815 0536 08       		.uleb128 0x8
 816 0537 73323500 		.ascii	"s25\000"
 817 053b 0A       		.byte	0xa
 818 053c 6401     		.2byte	0x164
 819 053e 86040000 		.4byte	0x486
 820 0542 24       		.byte	0x24
 821 0543 08       		.uleb128 0x8
 822 0544 73323600 		.ascii	"s26\000"
 823 0548 0A       		.byte	0xa
 824 0549 6501     		.2byte	0x165
 825 054b 86040000 		.4byte	0x486
 826 054f 28       		.byte	0x28
 827 0550 08       		.uleb128 0x8
 828 0551 73323700 		.ascii	"s27\000"
 829 0555 0A       		.byte	0xa
 830 0556 6601     		.2byte	0x166
 831 0558 86040000 		.4byte	0x486
 832 055c 2C       		.byte	0x2c
 833 055d 08       		.uleb128 0x8
 834 055e 73323800 		.ascii	"s28\000"
 835 0562 0A       		.byte	0xa
 836 0563 6701     		.2byte	0x167
 837 0565 86040000 		.4byte	0x486
 838 0569 30       		.byte	0x30
 839 056a 08       		.uleb128 0x8
 840 056b 73323900 		.ascii	"s29\000"
 841 056f 0A       		.byte	0xa
 842 0570 6801     		.2byte	0x168
 843 0572 86040000 		.4byte	0x486
 844 0576 34       		.byte	0x34
 845 0577 08       		.uleb128 0x8
 846 0578 73333000 		.ascii	"s30\000"
 847 057c 0A       		.byte	0xa
 848 057d 6901     		.2byte	0x169
 849 057f 86040000 		.4byte	0x486
 850 0583 38       		.byte	0x38
 851 0584 08       		.uleb128 0x8
 852 0585 73333100 		.ascii	"s31\000"
 853 0589 0A       		.byte	0xa
 854 058a 6A01     		.2byte	0x16a
 855 058c 86040000 		.4byte	0x486
ARM GAS  /tmp/cckYQ7vZ.s 			page 16


 856 0590 3C       		.byte	0x3c
 857 0591 08       		.uleb128 0x8
 858 0592 723400   		.ascii	"r4\000"
 859 0595 0A       		.byte	0xa
 860 0596 6C01     		.2byte	0x16c
 861 0598 86040000 		.4byte	0x486
 862 059c 40       		.byte	0x40
 863 059d 08       		.uleb128 0x8
 864 059e 723500   		.ascii	"r5\000"
 865 05a1 0A       		.byte	0xa
 866 05a2 6D01     		.2byte	0x16d
 867 05a4 86040000 		.4byte	0x486
 868 05a8 44       		.byte	0x44
 869 05a9 08       		.uleb128 0x8
 870 05aa 723600   		.ascii	"r6\000"
 871 05ad 0A       		.byte	0xa
 872 05ae 6E01     		.2byte	0x16e
 873 05b0 86040000 		.4byte	0x486
 874 05b4 48       		.byte	0x48
 875 05b5 08       		.uleb128 0x8
 876 05b6 723700   		.ascii	"r7\000"
 877 05b9 0A       		.byte	0xa
 878 05ba 6F01     		.2byte	0x16f
 879 05bc 86040000 		.4byte	0x486
 880 05c0 4C       		.byte	0x4c
 881 05c1 08       		.uleb128 0x8
 882 05c2 723800   		.ascii	"r8\000"
 883 05c5 0A       		.byte	0xa
 884 05c6 7001     		.2byte	0x170
 885 05c8 86040000 		.4byte	0x486
 886 05cc 50       		.byte	0x50
 887 05cd 08       		.uleb128 0x8
 888 05ce 723900   		.ascii	"r9\000"
 889 05d1 0A       		.byte	0xa
 890 05d2 7101     		.2byte	0x171
 891 05d4 86040000 		.4byte	0x486
 892 05d8 54       		.byte	0x54
 893 05d9 08       		.uleb128 0x8
 894 05da 72313000 		.ascii	"r10\000"
 895 05de 0A       		.byte	0xa
 896 05df 7201     		.2byte	0x172
 897 05e1 86040000 		.4byte	0x486
 898 05e5 58       		.byte	0x58
 899 05e6 08       		.uleb128 0x8
 900 05e7 72313100 		.ascii	"r11\000"
 901 05eb 0A       		.byte	0xa
 902 05ec 7301     		.2byte	0x173
 903 05ee 86040000 		.4byte	0x486
 904 05f2 5C       		.byte	0x5c
 905 05f3 08       		.uleb128 0x8
 906 05f4 6C7200   		.ascii	"lr\000"
 907 05f7 0A       		.byte	0xa
 908 05f8 7401     		.2byte	0x174
 909 05fa 86040000 		.4byte	0x486
 910 05fe 60       		.byte	0x60
 911 05ff 00       		.byte	0
 912 0600 0A       		.uleb128 0xa
ARM GAS  /tmp/cckYQ7vZ.s 			page 17


 913 0601 04       		.byte	0x4
 914 0602 B4040000 		.4byte	0x4b4
 915 0606 12       		.uleb128 0x12
 916 0607 60       		.byte	0x60
 917 0608 0B       		.byte	0xb
 918 0609 F501     		.2byte	0x1f5
 919 060b 12070000 		.4byte	0x712
 920 060f 08       		.uleb128 0x8
 921 0610 43523100 		.ascii	"CR1\000"
 922 0614 0B       		.byte	0xb
 923 0615 F601     		.2byte	0x1f6
 924 0617 61040000 		.4byte	0x461
 925 061b 00       		.byte	0
 926 061c 08       		.uleb128 0x8
 927 061d 43523200 		.ascii	"CR2\000"
 928 0621 0B       		.byte	0xb
 929 0622 F701     		.2byte	0x1f7
 930 0624 61040000 		.4byte	0x461
 931 0628 04       		.byte	0x4
 932 0629 09       		.uleb128 0x9
 933 062a CC020000 		.4byte	.LASF79
 934 062e 0B       		.byte	0xb
 935 062f F801     		.2byte	0x1f8
 936 0631 61040000 		.4byte	0x461
 937 0635 08       		.byte	0x8
 938 0636 09       		.uleb128 0x9
 939 0637 0D000000 		.4byte	.LASF80
 940 063b 0B       		.byte	0xb
 941 063c F901     		.2byte	0x1f9
 942 063e 61040000 		.4byte	0x461
 943 0642 0C       		.byte	0xc
 944 0643 08       		.uleb128 0x8
 945 0644 535200   		.ascii	"SR\000"
 946 0647 0B       		.byte	0xb
 947 0648 FA01     		.2byte	0x1fa
 948 064a 61040000 		.4byte	0x461
 949 064e 10       		.byte	0x10
 950 064f 08       		.uleb128 0x8
 951 0650 45475200 		.ascii	"EGR\000"
 952 0654 0B       		.byte	0xb
 953 0655 FB01     		.2byte	0x1fb
 954 0657 61040000 		.4byte	0x461
 955 065b 14       		.byte	0x14
 956 065c 09       		.uleb128 0x9
 957 065d 04010000 		.4byte	.LASF81
 958 0661 0B       		.byte	0xb
 959 0662 FC01     		.2byte	0x1fc
 960 0664 61040000 		.4byte	0x461
 961 0668 18       		.byte	0x18
 962 0669 09       		.uleb128 0x9
 963 066a 0A010000 		.4byte	.LASF82
 964 066e 0B       		.byte	0xb
 965 066f FD01     		.2byte	0x1fd
 966 0671 61040000 		.4byte	0x461
 967 0675 1C       		.byte	0x1c
 968 0676 09       		.uleb128 0x9
 969 0677 0E050000 		.4byte	.LASF83
ARM GAS  /tmp/cckYQ7vZ.s 			page 18


 970 067b 0B       		.byte	0xb
 971 067c FE01     		.2byte	0x1fe
 972 067e 61040000 		.4byte	0x461
 973 0682 20       		.byte	0x20
 974 0683 08       		.uleb128 0x8
 975 0684 434E5400 		.ascii	"CNT\000"
 976 0688 0B       		.byte	0xb
 977 0689 FF01     		.2byte	0x1ff
 978 068b 61040000 		.4byte	0x461
 979 068f 24       		.byte	0x24
 980 0690 08       		.uleb128 0x8
 981 0691 50534300 		.ascii	"PSC\000"
 982 0695 0B       		.byte	0xb
 983 0696 0002     		.2byte	0x200
 984 0698 61040000 		.4byte	0x461
 985 069c 28       		.byte	0x28
 986 069d 08       		.uleb128 0x8
 987 069e 41525200 		.ascii	"ARR\000"
 988 06a2 0B       		.byte	0xb
 989 06a3 0102     		.2byte	0x201
 990 06a5 61040000 		.4byte	0x461
 991 06a9 2C       		.byte	0x2c
 992 06aa 08       		.uleb128 0x8
 993 06ab 52435200 		.ascii	"RCR\000"
 994 06af 0B       		.byte	0xb
 995 06b0 0202     		.2byte	0x202
 996 06b2 61040000 		.4byte	0x461
 997 06b6 30       		.byte	0x30
 998 06b7 08       		.uleb128 0x8
 999 06b8 43435200 		.ascii	"CCR\000"
 1000 06bc 0B       		.byte	0xb
 1001 06bd 0302     		.2byte	0x203
 1002 06bf 12070000 		.4byte	0x712
 1003 06c3 34       		.byte	0x34
 1004 06c4 09       		.uleb128 0x9
 1005 06c5 F6000000 		.4byte	.LASF84
 1006 06c9 0B       		.byte	0xb
 1007 06ca 0402     		.2byte	0x204
 1008 06cc 61040000 		.4byte	0x461
 1009 06d0 44       		.byte	0x44
 1010 06d1 08       		.uleb128 0x8
 1011 06d2 44435200 		.ascii	"DCR\000"
 1012 06d6 0B       		.byte	0xb
 1013 06d7 0502     		.2byte	0x205
 1014 06d9 61040000 		.4byte	0x461
 1015 06dd 48       		.byte	0x48
 1016 06de 09       		.uleb128 0x9
 1017 06df 00050000 		.4byte	.LASF85
 1018 06e3 0B       		.byte	0xb
 1019 06e4 0602     		.2byte	0x206
 1020 06e6 61040000 		.4byte	0x461
 1021 06ea 4C       		.byte	0x4c
 1022 06eb 08       		.uleb128 0x8
 1023 06ec 4F5200   		.ascii	"OR\000"
 1024 06ef 0B       		.byte	0xb
 1025 06f0 0702     		.2byte	0x207
 1026 06f2 61040000 		.4byte	0x461
ARM GAS  /tmp/cckYQ7vZ.s 			page 19


 1027 06f6 50       		.byte	0x50
 1028 06f7 09       		.uleb128 0x9
 1029 06f8 10010000 		.4byte	.LASF86
 1030 06fc 0B       		.byte	0xb
 1031 06fd 0802     		.2byte	0x208
 1032 06ff 61040000 		.4byte	0x461
 1033 0703 54       		.byte	0x54
 1034 0704 09       		.uleb128 0x9
 1035 0705 A5040000 		.4byte	.LASF87
 1036 0709 0B       		.byte	0xb
 1037 070a 0902     		.2byte	0x209
 1038 070c 17070000 		.4byte	0x717
 1039 0710 58       		.byte	0x58
 1040 0711 00       		.byte	0
 1041 0712 0F       		.uleb128 0xf
 1042 0713 76040000 		.4byte	0x476
 1043 0717 0F       		.uleb128 0xf
 1044 0718 66040000 		.4byte	0x466
 1045 071c 13       		.uleb128 0x13
 1046 071d 16030000 		.4byte	.LASF88
 1047 0721 0B       		.byte	0xb
 1048 0722 0A02     		.2byte	0x20a
 1049 0724 06060000 		.4byte	0x606
 1050 0728 14       		.uleb128 0x14
 1051 0729 04       		.byte	0x4
 1052 072a 0C       		.byte	0xc
 1053 072b 38       		.byte	0x38
 1054 072c 3D070000 		.4byte	0x73d
 1055 0730 06       		.uleb128 0x6
 1056 0731 30050000 		.4byte	.LASF89
 1057 0735 0C       		.byte	0xc
 1058 0736 3C       		.byte	0x3c
 1059 0737 C3000000 		.4byte	0xc3
 1060 073b 00       		.byte	0
 1061 073c 00       		.byte	0
 1062 073d 04       		.uleb128 0x4
 1063 073e BE030000 		.4byte	.LASF90
 1064 0742 0C       		.byte	0xc
 1065 0743 3D       		.byte	0x3d
 1066 0744 28070000 		.4byte	0x728
 1067 0748 14       		.uleb128 0x14
 1068 0749 18       		.byte	0x18
 1069 074a 0C       		.byte	0xc
 1070 074b 48       		.byte	0x48
 1071 074c 8B070000 		.4byte	0x78b
 1072 0750 06       		.uleb128 0x6
 1073 0751 C7020000 		.4byte	.LASF91
 1074 0755 0C       		.byte	0xc
 1075 0756 49       		.byte	0x49
 1076 0757 C3000000 		.4byte	0xc3
 1077 075b 00       		.byte	0
 1078 075c 06       		.uleb128 0x6
 1079 075d 7B000000 		.4byte	.LASF92
 1080 0761 0C       		.byte	0xc
 1081 0762 4A       		.byte	0x4a
 1082 0763 C3000000 		.4byte	0xc3
 1083 0767 04       		.byte	0x4
ARM GAS  /tmp/cckYQ7vZ.s 			page 20


 1084 0768 06       		.uleb128 0x6
 1085 0769 F5020000 		.4byte	.LASF93
 1086 076d 0C       		.byte	0xc
 1087 076e 4B       		.byte	0x4b
 1088 076f C3000000 		.4byte	0xc3
 1089 0773 08       		.byte	0x8
 1090 0774 07       		.uleb128 0x7
 1091 0775 6E00     		.ascii	"n\000"
 1092 0777 0C       		.byte	0xc
 1093 0778 4C       		.byte	0x4c
 1094 0779 26010000 		.4byte	0x126
 1095 077d 0C       		.byte	0xc
 1096 077e 06       		.uleb128 0x6
 1097 077f EC030000 		.4byte	.LASF94
 1098 0783 0C       		.byte	0xc
 1099 0784 4D       		.byte	0x4d
 1100 0785 CE000000 		.4byte	0xce
 1101 0789 10       		.byte	0x10
 1102 078a 00       		.byte	0
 1103 078b 04       		.uleb128 0x4
 1104 078c 81000000 		.4byte	.LASF95
 1105 0790 0C       		.byte	0xc
 1106 0791 4E       		.byte	0x4e
 1107 0792 48070000 		.4byte	0x748
 1108 0796 14       		.uleb128 0x14
 1109 0797 38       		.byte	0x38
 1110 0798 0D       		.byte	0xd
 1111 0799 38       		.byte	0x38
 1112 079a CF070000 		.4byte	0x7cf
 1113 079e 06       		.uleb128 0x6
 1114 079f B5020000 		.4byte	.LASF96
 1115 07a3 0D       		.byte	0xd
 1116 07a4 39       		.byte	0x39
 1117 07a5 26010000 		.4byte	0x126
 1118 07a9 00       		.byte	0
 1119 07aa 06       		.uleb128 0x6
 1120 07ab 1C040000 		.4byte	.LASF97
 1121 07af 0D       		.byte	0xd
 1122 07b0 3A       		.byte	0x3a
 1123 07b1 26010000 		.4byte	0x126
 1124 07b5 04       		.byte	0x4
 1125 07b6 06       		.uleb128 0x6
 1126 07b7 41060000 		.4byte	.LASF98
 1127 07bb 0D       		.byte	0xd
 1128 07bc 3B       		.byte	0x3b
 1129 07bd 8B070000 		.4byte	0x78b
 1130 07c1 08       		.byte	0x8
 1131 07c2 06       		.uleb128 0x6
 1132 07c3 22030000 		.4byte	.LASF99
 1133 07c7 0D       		.byte	0xd
 1134 07c8 3D       		.byte	0x3d
 1135 07c9 8B070000 		.4byte	0x78b
 1136 07cd 20       		.byte	0x20
 1137 07ce 00       		.byte	0
 1138 07cf 04       		.uleb128 0x4
 1139 07d0 D1020000 		.4byte	.LASF100
 1140 07d4 0D       		.byte	0xd
ARM GAS  /tmp/cckYQ7vZ.s 			page 21


 1141 07d5 3F       		.byte	0x3f
 1142 07d6 96070000 		.4byte	0x796
 1143 07da 15       		.uleb128 0x15
 1144 07db 04       		.byte	0x4
 1145 07dc 07       		.byte	0x7
 1146 07dd C6       		.byte	0xc6
 1147 07de 3C080000 		.4byte	0x83c
 1148 07e2 16       		.uleb128 0x16
 1149 07e3 23000000 		.4byte	.LASF101
 1150 07e7 07       		.byte	0x7
 1151 07e8 CD       		.byte	0xcd
 1152 07e9 05010000 		.4byte	0x105
 1153 07ed 16       		.uleb128 0x16
 1154 07ee AB000000 		.4byte	.LASF102
 1155 07f2 07       		.byte	0x7
 1156 07f3 D4       		.byte	0xd4
 1157 07f4 05010000 		.4byte	0x105
 1158 07f8 16       		.uleb128 0x16
 1159 07f9 02060000 		.4byte	.LASF103
 1160 07fd 07       		.byte	0x7
 1161 07fe DB       		.byte	0xdb
 1162 07ff 0F030000 		.4byte	0x30f
 1163 0803 16       		.uleb128 0x16
 1164 0804 12000000 		.4byte	.LASF104
 1165 0808 07       		.byte	0x7
 1166 0809 E2       		.byte	0xe2
 1167 080a 3C080000 		.4byte	0x83c
 1168 080e 16       		.uleb128 0x16
 1169 080f BF000000 		.4byte	.LASF105
 1170 0813 07       		.byte	0x7
 1171 0814 E7       		.byte	0xe7
 1172 0815 05010000 		.4byte	0x105
 1173 0819 16       		.uleb128 0x16
 1174 081a AE020000 		.4byte	.LASF106
 1175 081e 07       		.byte	0x7
 1176 081f F0       		.byte	0xf0
 1177 0820 67080000 		.4byte	0x867
 1178 0824 16       		.uleb128 0x16
 1179 0825 B3040000 		.4byte	.LASF107
 1180 0829 07       		.byte	0x7
 1181 082a F9       		.byte	0xf9
 1182 082b 9E080000 		.4byte	0x89e
 1183 082f 17       		.uleb128 0x17
 1184 0830 54040000 		.4byte	.LASF108
 1185 0834 07       		.byte	0x7
 1186 0835 0101     		.2byte	0x101
 1187 0837 10010000 		.4byte	0x110
 1188 083b 00       		.byte	0
 1189 083c 0A       		.uleb128 0xa
 1190 083d 04       		.byte	0x4
 1191 083e 27020000 		.4byte	0x227
 1192 0842 05       		.uleb128 0x5
 1193 0843 98040000 		.4byte	.LASF109
 1194 0847 0C       		.byte	0xc
 1195 0848 0E       		.byte	0xe
 1196 0849 34       		.byte	0x34
 1197 084a 67080000 		.4byte	0x867
ARM GAS  /tmp/cckYQ7vZ.s 			page 22


 1198 084e 06       		.uleb128 0x6
 1199 084f BB020000 		.4byte	.LASF28
 1200 0853 0E       		.byte	0xe
 1201 0854 35       		.byte	0x35
 1202 0855 5C020000 		.4byte	0x25c
 1203 0859 00       		.byte	0
 1204 085a 07       		.uleb128 0x7
 1205 085b 636E7400 		.ascii	"cnt\000"
 1206 085f 0E       		.byte	0xe
 1207 0860 37       		.byte	0x37
 1208 0861 1B010000 		.4byte	0x11b
 1209 0865 08       		.byte	0x8
 1210 0866 00       		.byte	0
 1211 0867 0A       		.uleb128 0xa
 1212 0868 04       		.byte	0x4
 1213 0869 42080000 		.4byte	0x842
 1214 086d 05       		.uleb128 0x5
 1215 086e D7050000 		.4byte	.LASF110
 1216 0872 10       		.byte	0x10
 1217 0873 0F       		.byte	0xf
 1218 0874 39       		.byte	0x39
 1219 0875 9E080000 		.4byte	0x89e
 1220 0879 06       		.uleb128 0x6
 1221 087a BB020000 		.4byte	.LASF28
 1222 087e 0F       		.byte	0xf
 1223 087f 3A       		.byte	0x3a
 1224 0880 5C020000 		.4byte	0x25c
 1225 0884 00       		.byte	0
 1226 0885 06       		.uleb128 0x6
 1227 0886 CA040000 		.4byte	.LASF111
 1228 088a 0F       		.byte	0xf
 1229 088b 3C       		.byte	0x3c
 1230 088c 32020000 		.4byte	0x232
 1231 0890 08       		.byte	0x8
 1232 0891 06       		.uleb128 0x6
 1233 0892 18000000 		.4byte	.LASF48
 1234 0896 0F       		.byte	0xf
 1235 0897 3E       		.byte	0x3e
 1236 0898 D2080000 		.4byte	0x8d2
 1237 089c 0C       		.byte	0xc
 1238 089d 00       		.byte	0
 1239 089e 0A       		.uleb128 0xa
 1240 089f 04       		.byte	0x4
 1241 08a0 6D080000 		.4byte	0x86d
 1242 08a4 0A       		.uleb128 0xa
 1243 08a5 04       		.byte	0x4
 1244 08a6 AA080000 		.4byte	0x8aa
 1245 08aa 18       		.uleb128 0x18
 1246 08ab AF080000 		.4byte	0x8af
 1247 08af 03       		.uleb128 0x3
 1248 08b0 01       		.byte	0x1
 1249 08b1 08       		.byte	0x8
 1250 08b2 F5040000 		.4byte	.LASF112
 1251 08b6 0A       		.uleb128 0xa
 1252 08b7 04       		.byte	0x4
 1253 08b8 91040000 		.4byte	0x491
 1254 08bc 0A       		.uleb128 0xa
ARM GAS  /tmp/cckYQ7vZ.s 			page 23


 1255 08bd 04       		.byte	0x4
 1256 08be 11030000 		.4byte	0x311
 1257 08c2 0F       		.uleb128 0xf
 1258 08c3 A4080000 		.4byte	0x8a4
 1259 08c7 04       		.uleb128 0x4
 1260 08c8 39060000 		.4byte	.LASF113
 1261 08cc 0F       		.byte	0xf
 1262 08cd 34       		.byte	0x34
 1263 08ce 6D080000 		.4byte	0x86d
 1264 08d2 0A       		.uleb128 0xa
 1265 08d3 04       		.byte	0x4
 1266 08d4 C7080000 		.4byte	0x8c7
 1267 08d8 03       		.uleb128 0x3
 1268 08d9 01       		.byte	0x1
 1269 08da 02       		.byte	0x2
 1270 08db 25040000 		.4byte	.LASF114
 1271 08df 19       		.uleb128 0x19
 1272 08e0 8B050000 		.4byte	.LASF128
 1273 08e4 02       		.byte	0x2
 1274 08e5 AB       		.byte	0xab
 1275 08e6 03       		.byte	0x3
 1276 08e7 1A       		.uleb128 0x1a
 1277 08e8 20060000 		.4byte	.LASF115
 1278 08ec 02       		.byte	0x2
 1279 08ed B7       		.byte	0xb7
 1280 08ee 03       		.byte	0x3
 1281 08ef FF080000 		.4byte	0x8ff
 1282 08f3 1B       		.uleb128 0x1b
 1283 08f4 CF030000 		.4byte	.LASF117
 1284 08f8 02       		.byte	0x2
 1285 08f9 B7       		.byte	0xb7
 1286 08fa 44040000 		.4byte	0x444
 1287 08fe 00       		.byte	0
 1288 08ff 1C       		.uleb128 0x1c
 1289 0900 87040000 		.4byte	.LASF129
 1290 0904 02       		.byte	0x2
 1291 0905 C3       		.byte	0xc3
 1292 0906 44040000 		.4byte	0x444
 1293 090a 03       		.byte	0x3
 1294 090b 1D       		.uleb128 0x1d
 1295 090c 71010000 		.4byte	.LASF118
 1296 0910 01       		.byte	0x1
 1297 0911 3C       		.byte	0x3c
 1298 0912 00000000 		.4byte	.LFB323
 1299 0916 04000000 		.4byte	.LFE323-.LFB323
 1300 091a 01       		.uleb128 0x1
 1301 091b 9C       		.byte	0x9c
 1302 091c 2A090000 		.4byte	0x92a
 1303 0920 1E       		.uleb128 0x1e
 1304 0921 04000000 		.4byte	.LVL0
 1305 0925 6A0A0000 		.4byte	0xa6a
 1306 0929 00       		.byte	0
 1307 092a 1A       		.uleb128 0x1a
 1308 092b 51030000 		.4byte	.LASF116
 1309 092f 02       		.byte	0x2
 1310 0930 9F       		.byte	0x9f
 1311 0931 03       		.byte	0x3
ARM GAS  /tmp/cckYQ7vZ.s 			page 24


 1312 0932 42090000 		.4byte	0x942
 1313 0936 1B       		.uleb128 0x1b
 1314 0937 CF030000 		.4byte	.LASF117
 1315 093b 02       		.byte	0x2
 1316 093c 9F       		.byte	0x9f
 1317 093d 44040000 		.4byte	0x444
 1318 0941 00       		.byte	0
 1319 0942 1D       		.uleb128 0x1d
 1320 0943 37050000 		.4byte	.LASF119
 1321 0947 01       		.byte	0x1
 1322 0948 4D       		.byte	0x4d
 1323 0949 00000000 		.4byte	.LFB324
 1324 094d 14000000 		.4byte	.LFE324-.LFB324
 1325 0951 01       		.uleb128 0x1
 1326 0952 9C       		.byte	0x9c
 1327 0953 85090000 		.4byte	0x985
 1328 0957 1F       		.uleb128 0x1f
 1329 0958 18060000 		.4byte	.LASF122
 1330 095c 01       		.byte	0x1
 1331 095d 4D       		.byte	0x4d
 1332 095e 44040000 		.4byte	0x444
 1333 0962 01       		.uleb128 0x1
 1334 0963 50       		.byte	0x50
 1335 0964 20       		.uleb128 0x20
 1336 0965 6D040000 		.4byte	.LASF123
 1337 0969 95090000 		.4byte	0x995
 1338 096d 21       		.uleb128 0x21
 1339 096e 2A090000 		.4byte	0x92a
 1340 0972 00000000 		.4byte	.LBB10
 1341 0976 14000000 		.4byte	.LBE10-.LBB10
 1342 097a 01       		.byte	0x1
 1343 097b 51       		.byte	0x51
 1344 097c 22       		.uleb128 0x22
 1345 097d 36090000 		.4byte	0x936
 1346 0981 01       		.uleb128 0x1
 1347 0982 50       		.byte	0x50
 1348 0983 00       		.byte	0
 1349 0984 00       		.byte	0
 1350 0985 10       		.uleb128 0x10
 1351 0986 AF080000 		.4byte	0x8af
 1352 098a 95090000 		.4byte	0x995
 1353 098e 11       		.uleb128 0x11
 1354 098f 5A040000 		.4byte	0x45a
 1355 0993 0C       		.byte	0xc
 1356 0994 00       		.byte	0
 1357 0995 18       		.uleb128 0x18
 1358 0996 85090000 		.4byte	0x985
 1359 099a 1D       		.uleb128 0x1d
 1360 099b E9040000 		.4byte	.LASF120
 1361 099f 01       		.byte	0x1
 1362 09a0 5B       		.byte	0x5b
 1363 09a1 00000000 		.4byte	.LFB325
 1364 09a5 0C000000 		.4byte	.LFE325-.LFB325
 1365 09a9 01       		.uleb128 0x1
 1366 09aa 9C       		.byte	0x9c
 1367 09ab BF090000 		.4byte	0x9bf
 1368 09af 23       		.uleb128 0x23
ARM GAS  /tmp/cckYQ7vZ.s 			page 25


 1369 09b0 DF080000 		.4byte	0x8df
 1370 09b4 00000000 		.4byte	.LBB12
 1371 09b8 0C000000 		.4byte	.LBE12-.LBB12
 1372 09bc 01       		.byte	0x1
 1373 09bd 5D       		.byte	0x5d
 1374 09be 00       		.byte	0
 1375 09bf 1D       		.uleb128 0x1d
 1376 09c0 E6050000 		.4byte	.LASF121
 1377 09c4 01       		.byte	0x1
 1378 09c5 69       		.byte	0x69
 1379 09c6 00000000 		.4byte	.LFB326
 1380 09ca 0C000000 		.4byte	.LFE326-.LFB326
 1381 09ce 01       		.uleb128 0x1
 1382 09cf 9C       		.byte	0x9c
 1383 09d0 020A0000 		.4byte	0xa02
 1384 09d4 1F       		.uleb128 0x1f
 1385 09d5 18060000 		.4byte	.LASF122
 1386 09d9 01       		.byte	0x1
 1387 09da 69       		.byte	0x69
 1388 09db 44040000 		.4byte	0x444
 1389 09df 01       		.uleb128 0x1
 1390 09e0 50       		.byte	0x50
 1391 09e1 20       		.uleb128 0x20
 1392 09e2 6D040000 		.4byte	.LASF123
 1393 09e6 120A0000 		.4byte	0xa12
 1394 09ea 21       		.uleb128 0x21
 1395 09eb E7080000 		.4byte	0x8e7
 1396 09ef 00000000 		.4byte	.LBB14
 1397 09f3 0C000000 		.4byte	.LBE14-.LBB14
 1398 09f7 01       		.byte	0x1
 1399 09f8 6D       		.byte	0x6d
 1400 09f9 22       		.uleb128 0x22
 1401 09fa F3080000 		.4byte	0x8f3
 1402 09fe 01       		.uleb128 0x1
 1403 09ff 50       		.byte	0x50
 1404 0a00 00       		.byte	0
 1405 0a01 00       		.byte	0
 1406 0a02 10       		.uleb128 0x10
 1407 0a03 AF080000 		.4byte	0x8af
 1408 0a07 120A0000 		.4byte	0xa12
 1409 0a0b 11       		.uleb128 0x11
 1410 0a0c 5A040000 		.4byte	0x45a
 1411 0a10 0A       		.byte	0xa
 1412 0a11 00       		.byte	0
 1413 0a12 18       		.uleb128 0x18
 1414 0a13 020A0000 		.4byte	0xa02
 1415 0a17 24       		.uleb128 0x24
 1416 0a18 F7050000 		.4byte	.LASF130
 1417 0a1c 01       		.byte	0x1
 1418 0a1d 79       		.byte	0x79
 1419 0a1e 44040000 		.4byte	0x444
 1420 0a22 00000000 		.4byte	.LFB327
 1421 0a26 0C000000 		.4byte	.LFE327-.LFB327
 1422 0a2a 01       		.uleb128 0x1
 1423 0a2b 9C       		.byte	0x9c
 1424 0a2c 490A0000 		.4byte	0xa49
 1425 0a30 20       		.uleb128 0x20
ARM GAS  /tmp/cckYQ7vZ.s 			page 26


 1426 0a31 6D040000 		.4byte	.LASF123
 1427 0a35 490A0000 		.4byte	0xa49
 1428 0a39 23       		.uleb128 0x23
 1429 0a3a FF080000 		.4byte	0x8ff
 1430 0a3e 00000000 		.4byte	.LBB16
 1431 0a42 04000000 		.4byte	.LBE16-.LBB16
 1432 0a46 01       		.byte	0x1
 1433 0a47 7D       		.byte	0x7d
 1434 0a48 00       		.byte	0
 1435 0a49 18       		.uleb128 0x18
 1436 0a4a 020A0000 		.4byte	0xa02
 1437 0a4e 25       		.uleb128 0x25
 1438 0a4f DD000000 		.4byte	.LASF124
 1439 0a53 10       		.byte	0x10
 1440 0a54 0408     		.2byte	0x804
 1441 0a56 5A0A0000 		.4byte	0xa5a
 1442 0a5a 0F       		.uleb128 0xf
 1443 0a5b A2000000 		.4byte	0xa2
 1444 0a5f 26       		.uleb128 0x26
 1445 0a60 636800   		.ascii	"ch\000"
 1446 0a63 07       		.byte	0x7
 1447 0a64 C701     		.2byte	0x1c7
 1448 0a66 DE030000 		.4byte	0x3de
 1449 0a6a 27       		.uleb128 0x27
 1450 0a6b EA000000 		.4byte	.LASF131
 1451 0a6f 02       		.byte	0x2
 1452 0a70 81       		.byte	0x81
 1453 0a71 00       		.byte	0
 1454              		.section	.debug_abbrev,"",%progbits
 1455              	.Ldebug_abbrev0:
 1456 0000 01       		.uleb128 0x1
 1457 0001 11       		.uleb128 0x11
 1458 0002 01       		.byte	0x1
 1459 0003 25       		.uleb128 0x25
 1460 0004 0E       		.uleb128 0xe
 1461 0005 13       		.uleb128 0x13
 1462 0006 0B       		.uleb128 0xb
 1463 0007 03       		.uleb128 0x3
 1464 0008 0E       		.uleb128 0xe
 1465 0009 1B       		.uleb128 0x1b
 1466 000a 0E       		.uleb128 0xe
 1467 000b 55       		.uleb128 0x55
 1468 000c 17       		.uleb128 0x17
 1469 000d 11       		.uleb128 0x11
 1470 000e 01       		.uleb128 0x1
 1471 000f 10       		.uleb128 0x10
 1472 0010 17       		.uleb128 0x17
 1473 0011 00       		.byte	0
 1474 0012 00       		.byte	0
 1475 0013 02       		.uleb128 0x2
 1476 0014 24       		.uleb128 0x24
 1477 0015 00       		.byte	0
 1478 0016 0B       		.uleb128 0xb
 1479 0017 0B       		.uleb128 0xb
 1480 0018 3E       		.uleb128 0x3e
 1481 0019 0B       		.uleb128 0xb
 1482 001a 03       		.uleb128 0x3
ARM GAS  /tmp/cckYQ7vZ.s 			page 27


 1483 001b 08       		.uleb128 0x8
 1484 001c 00       		.byte	0
 1485 001d 00       		.byte	0
 1486 001e 03       		.uleb128 0x3
 1487 001f 24       		.uleb128 0x24
 1488 0020 00       		.byte	0
 1489 0021 0B       		.uleb128 0xb
 1490 0022 0B       		.uleb128 0xb
 1491 0023 3E       		.uleb128 0x3e
 1492 0024 0B       		.uleb128 0xb
 1493 0025 03       		.uleb128 0x3
 1494 0026 0E       		.uleb128 0xe
 1495 0027 00       		.byte	0
 1496 0028 00       		.byte	0
 1497 0029 04       		.uleb128 0x4
 1498 002a 16       		.uleb128 0x16
 1499 002b 00       		.byte	0
 1500 002c 03       		.uleb128 0x3
 1501 002d 0E       		.uleb128 0xe
 1502 002e 3A       		.uleb128 0x3a
 1503 002f 0B       		.uleb128 0xb
 1504 0030 3B       		.uleb128 0x3b
 1505 0031 0B       		.uleb128 0xb
 1506 0032 49       		.uleb128 0x49
 1507 0033 13       		.uleb128 0x13
 1508 0034 00       		.byte	0
 1509 0035 00       		.byte	0
 1510 0036 05       		.uleb128 0x5
 1511 0037 13       		.uleb128 0x13
 1512 0038 01       		.byte	0x1
 1513 0039 03       		.uleb128 0x3
 1514 003a 0E       		.uleb128 0xe
 1515 003b 0B       		.uleb128 0xb
 1516 003c 0B       		.uleb128 0xb
 1517 003d 3A       		.uleb128 0x3a
 1518 003e 0B       		.uleb128 0xb
 1519 003f 3B       		.uleb128 0x3b
 1520 0040 0B       		.uleb128 0xb
 1521 0041 01       		.uleb128 0x1
 1522 0042 13       		.uleb128 0x13
 1523 0043 00       		.byte	0
 1524 0044 00       		.byte	0
 1525 0045 06       		.uleb128 0x6
 1526 0046 0D       		.uleb128 0xd
 1527 0047 00       		.byte	0
 1528 0048 03       		.uleb128 0x3
 1529 0049 0E       		.uleb128 0xe
 1530 004a 3A       		.uleb128 0x3a
 1531 004b 0B       		.uleb128 0xb
 1532 004c 3B       		.uleb128 0x3b
 1533 004d 0B       		.uleb128 0xb
 1534 004e 49       		.uleb128 0x49
 1535 004f 13       		.uleb128 0x13
 1536 0050 38       		.uleb128 0x38
 1537 0051 0B       		.uleb128 0xb
 1538 0052 00       		.byte	0
 1539 0053 00       		.byte	0
ARM GAS  /tmp/cckYQ7vZ.s 			page 28


 1540 0054 07       		.uleb128 0x7
 1541 0055 0D       		.uleb128 0xd
 1542 0056 00       		.byte	0
 1543 0057 03       		.uleb128 0x3
 1544 0058 08       		.uleb128 0x8
 1545 0059 3A       		.uleb128 0x3a
 1546 005a 0B       		.uleb128 0xb
 1547 005b 3B       		.uleb128 0x3b
 1548 005c 0B       		.uleb128 0xb
 1549 005d 49       		.uleb128 0x49
 1550 005e 13       		.uleb128 0x13
 1551 005f 38       		.uleb128 0x38
 1552 0060 0B       		.uleb128 0xb
 1553 0061 00       		.byte	0
 1554 0062 00       		.byte	0
 1555 0063 08       		.uleb128 0x8
 1556 0064 0D       		.uleb128 0xd
 1557 0065 00       		.byte	0
 1558 0066 03       		.uleb128 0x3
 1559 0067 08       		.uleb128 0x8
 1560 0068 3A       		.uleb128 0x3a
 1561 0069 0B       		.uleb128 0xb
 1562 006a 3B       		.uleb128 0x3b
 1563 006b 05       		.uleb128 0x5
 1564 006c 49       		.uleb128 0x49
 1565 006d 13       		.uleb128 0x13
 1566 006e 38       		.uleb128 0x38
 1567 006f 0B       		.uleb128 0xb
 1568 0070 00       		.byte	0
 1569 0071 00       		.byte	0
 1570 0072 09       		.uleb128 0x9
 1571 0073 0D       		.uleb128 0xd
 1572 0074 00       		.byte	0
 1573 0075 03       		.uleb128 0x3
 1574 0076 0E       		.uleb128 0xe
 1575 0077 3A       		.uleb128 0x3a
 1576 0078 0B       		.uleb128 0xb
 1577 0079 3B       		.uleb128 0x3b
 1578 007a 05       		.uleb128 0x5
 1579 007b 49       		.uleb128 0x49
 1580 007c 13       		.uleb128 0x13
 1581 007d 38       		.uleb128 0x38
 1582 007e 0B       		.uleb128 0xb
 1583 007f 00       		.byte	0
 1584 0080 00       		.byte	0
 1585 0081 0A       		.uleb128 0xa
 1586 0082 0F       		.uleb128 0xf
 1587 0083 00       		.byte	0
 1588 0084 0B       		.uleb128 0xb
 1589 0085 0B       		.uleb128 0xb
 1590 0086 49       		.uleb128 0x49
 1591 0087 13       		.uleb128 0x13
 1592 0088 00       		.byte	0
 1593 0089 00       		.byte	0
 1594 008a 0B       		.uleb128 0xb
 1595 008b 13       		.uleb128 0x13
 1596 008c 01       		.byte	0x1
ARM GAS  /tmp/cckYQ7vZ.s 			page 29


 1597 008d 03       		.uleb128 0x3
 1598 008e 0E       		.uleb128 0xe
 1599 008f 0B       		.uleb128 0xb
 1600 0090 0B       		.uleb128 0xb
 1601 0091 3A       		.uleb128 0x3a
 1602 0092 0B       		.uleb128 0xb
 1603 0093 3B       		.uleb128 0x3b
 1604 0094 05       		.uleb128 0x5
 1605 0095 01       		.uleb128 0x1
 1606 0096 13       		.uleb128 0x13
 1607 0097 00       		.byte	0
 1608 0098 00       		.byte	0
 1609 0099 0C       		.uleb128 0xc
 1610 009a 15       		.uleb128 0x15
 1611 009b 01       		.byte	0x1
 1612 009c 27       		.uleb128 0x27
 1613 009d 19       		.uleb128 0x19
 1614 009e 01       		.uleb128 0x1
 1615 009f 13       		.uleb128 0x13
 1616 00a0 00       		.byte	0
 1617 00a1 00       		.byte	0
 1618 00a2 0D       		.uleb128 0xd
 1619 00a3 05       		.uleb128 0x5
 1620 00a4 00       		.byte	0
 1621 00a5 49       		.uleb128 0x49
 1622 00a6 13       		.uleb128 0x13
 1623 00a7 00       		.byte	0
 1624 00a8 00       		.byte	0
 1625 00a9 0E       		.uleb128 0xe
 1626 00aa 0F       		.uleb128 0xf
 1627 00ab 00       		.byte	0
 1628 00ac 0B       		.uleb128 0xb
 1629 00ad 0B       		.uleb128 0xb
 1630 00ae 00       		.byte	0
 1631 00af 00       		.byte	0
 1632 00b0 0F       		.uleb128 0xf
 1633 00b1 35       		.uleb128 0x35
 1634 00b2 00       		.byte	0
 1635 00b3 49       		.uleb128 0x49
 1636 00b4 13       		.uleb128 0x13
 1637 00b5 00       		.byte	0
 1638 00b6 00       		.byte	0
 1639 00b7 10       		.uleb128 0x10
 1640 00b8 01       		.uleb128 0x1
 1641 00b9 01       		.byte	0x1
 1642 00ba 49       		.uleb128 0x49
 1643 00bb 13       		.uleb128 0x13
 1644 00bc 01       		.uleb128 0x1
 1645 00bd 13       		.uleb128 0x13
 1646 00be 00       		.byte	0
 1647 00bf 00       		.byte	0
 1648 00c0 11       		.uleb128 0x11
 1649 00c1 21       		.uleb128 0x21
 1650 00c2 00       		.byte	0
 1651 00c3 49       		.uleb128 0x49
 1652 00c4 13       		.uleb128 0x13
 1653 00c5 2F       		.uleb128 0x2f
ARM GAS  /tmp/cckYQ7vZ.s 			page 30


 1654 00c6 0B       		.uleb128 0xb
 1655 00c7 00       		.byte	0
 1656 00c8 00       		.byte	0
 1657 00c9 12       		.uleb128 0x12
 1658 00ca 13       		.uleb128 0x13
 1659 00cb 01       		.byte	0x1
 1660 00cc 0B       		.uleb128 0xb
 1661 00cd 0B       		.uleb128 0xb
 1662 00ce 3A       		.uleb128 0x3a
 1663 00cf 0B       		.uleb128 0xb
 1664 00d0 3B       		.uleb128 0x3b
 1665 00d1 05       		.uleb128 0x5
 1666 00d2 01       		.uleb128 0x1
 1667 00d3 13       		.uleb128 0x13
 1668 00d4 00       		.byte	0
 1669 00d5 00       		.byte	0
 1670 00d6 13       		.uleb128 0x13
 1671 00d7 16       		.uleb128 0x16
 1672 00d8 00       		.byte	0
 1673 00d9 03       		.uleb128 0x3
 1674 00da 0E       		.uleb128 0xe
 1675 00db 3A       		.uleb128 0x3a
 1676 00dc 0B       		.uleb128 0xb
 1677 00dd 3B       		.uleb128 0x3b
 1678 00de 05       		.uleb128 0x5
 1679 00df 49       		.uleb128 0x49
 1680 00e0 13       		.uleb128 0x13
 1681 00e1 00       		.byte	0
 1682 00e2 00       		.byte	0
 1683 00e3 14       		.uleb128 0x14
 1684 00e4 13       		.uleb128 0x13
 1685 00e5 01       		.byte	0x1
 1686 00e6 0B       		.uleb128 0xb
 1687 00e7 0B       		.uleb128 0xb
 1688 00e8 3A       		.uleb128 0x3a
 1689 00e9 0B       		.uleb128 0xb
 1690 00ea 3B       		.uleb128 0x3b
 1691 00eb 0B       		.uleb128 0xb
 1692 00ec 01       		.uleb128 0x1
 1693 00ed 13       		.uleb128 0x13
 1694 00ee 00       		.byte	0
 1695 00ef 00       		.byte	0
 1696 00f0 15       		.uleb128 0x15
 1697 00f1 17       		.uleb128 0x17
 1698 00f2 01       		.byte	0x1
 1699 00f3 0B       		.uleb128 0xb
 1700 00f4 0B       		.uleb128 0xb
 1701 00f5 3A       		.uleb128 0x3a
 1702 00f6 0B       		.uleb128 0xb
 1703 00f7 3B       		.uleb128 0x3b
 1704 00f8 0B       		.uleb128 0xb
 1705 00f9 01       		.uleb128 0x1
 1706 00fa 13       		.uleb128 0x13
 1707 00fb 00       		.byte	0
 1708 00fc 00       		.byte	0
 1709 00fd 16       		.uleb128 0x16
 1710 00fe 0D       		.uleb128 0xd
ARM GAS  /tmp/cckYQ7vZ.s 			page 31


 1711 00ff 00       		.byte	0
 1712 0100 03       		.uleb128 0x3
 1713 0101 0E       		.uleb128 0xe
 1714 0102 3A       		.uleb128 0x3a
 1715 0103 0B       		.uleb128 0xb
 1716 0104 3B       		.uleb128 0x3b
 1717 0105 0B       		.uleb128 0xb
 1718 0106 49       		.uleb128 0x49
 1719 0107 13       		.uleb128 0x13
 1720 0108 00       		.byte	0
 1721 0109 00       		.byte	0
 1722 010a 17       		.uleb128 0x17
 1723 010b 0D       		.uleb128 0xd
 1724 010c 00       		.byte	0
 1725 010d 03       		.uleb128 0x3
 1726 010e 0E       		.uleb128 0xe
 1727 010f 3A       		.uleb128 0x3a
 1728 0110 0B       		.uleb128 0xb
 1729 0111 3B       		.uleb128 0x3b
 1730 0112 05       		.uleb128 0x5
 1731 0113 49       		.uleb128 0x49
 1732 0114 13       		.uleb128 0x13
 1733 0115 00       		.byte	0
 1734 0116 00       		.byte	0
 1735 0117 18       		.uleb128 0x18
 1736 0118 26       		.uleb128 0x26
 1737 0119 00       		.byte	0
 1738 011a 49       		.uleb128 0x49
 1739 011b 13       		.uleb128 0x13
 1740 011c 00       		.byte	0
 1741 011d 00       		.byte	0
 1742 011e 19       		.uleb128 0x19
 1743 011f 2E       		.uleb128 0x2e
 1744 0120 00       		.byte	0
 1745 0121 03       		.uleb128 0x3
 1746 0122 0E       		.uleb128 0xe
 1747 0123 3A       		.uleb128 0x3a
 1748 0124 0B       		.uleb128 0xb
 1749 0125 3B       		.uleb128 0x3b
 1750 0126 0B       		.uleb128 0xb
 1751 0127 27       		.uleb128 0x27
 1752 0128 19       		.uleb128 0x19
 1753 0129 20       		.uleb128 0x20
 1754 012a 0B       		.uleb128 0xb
 1755 012b 00       		.byte	0
 1756 012c 00       		.byte	0
 1757 012d 1A       		.uleb128 0x1a
 1758 012e 2E       		.uleb128 0x2e
 1759 012f 01       		.byte	0x1
 1760 0130 03       		.uleb128 0x3
 1761 0131 0E       		.uleb128 0xe
 1762 0132 3A       		.uleb128 0x3a
 1763 0133 0B       		.uleb128 0xb
 1764 0134 3B       		.uleb128 0x3b
 1765 0135 0B       		.uleb128 0xb
 1766 0136 27       		.uleb128 0x27
 1767 0137 19       		.uleb128 0x19
ARM GAS  /tmp/cckYQ7vZ.s 			page 32


 1768 0138 20       		.uleb128 0x20
 1769 0139 0B       		.uleb128 0xb
 1770 013a 01       		.uleb128 0x1
 1771 013b 13       		.uleb128 0x13
 1772 013c 00       		.byte	0
 1773 013d 00       		.byte	0
 1774 013e 1B       		.uleb128 0x1b
 1775 013f 05       		.uleb128 0x5
 1776 0140 00       		.byte	0
 1777 0141 03       		.uleb128 0x3
 1778 0142 0E       		.uleb128 0xe
 1779 0143 3A       		.uleb128 0x3a
 1780 0144 0B       		.uleb128 0xb
 1781 0145 3B       		.uleb128 0x3b
 1782 0146 0B       		.uleb128 0xb
 1783 0147 49       		.uleb128 0x49
 1784 0148 13       		.uleb128 0x13
 1785 0149 00       		.byte	0
 1786 014a 00       		.byte	0
 1787 014b 1C       		.uleb128 0x1c
 1788 014c 2E       		.uleb128 0x2e
 1789 014d 00       		.byte	0
 1790 014e 03       		.uleb128 0x3
 1791 014f 0E       		.uleb128 0xe
 1792 0150 3A       		.uleb128 0x3a
 1793 0151 0B       		.uleb128 0xb
 1794 0152 3B       		.uleb128 0x3b
 1795 0153 0B       		.uleb128 0xb
 1796 0154 27       		.uleb128 0x27
 1797 0155 19       		.uleb128 0x19
 1798 0156 49       		.uleb128 0x49
 1799 0157 13       		.uleb128 0x13
 1800 0158 20       		.uleb128 0x20
 1801 0159 0B       		.uleb128 0xb
 1802 015a 00       		.byte	0
 1803 015b 00       		.byte	0
 1804 015c 1D       		.uleb128 0x1d
 1805 015d 2E       		.uleb128 0x2e
 1806 015e 01       		.byte	0x1
 1807 015f 3F       		.uleb128 0x3f
 1808 0160 19       		.uleb128 0x19
 1809 0161 03       		.uleb128 0x3
 1810 0162 0E       		.uleb128 0xe
 1811 0163 3A       		.uleb128 0x3a
 1812 0164 0B       		.uleb128 0xb
 1813 0165 3B       		.uleb128 0x3b
 1814 0166 0B       		.uleb128 0xb
 1815 0167 27       		.uleb128 0x27
 1816 0168 19       		.uleb128 0x19
 1817 0169 11       		.uleb128 0x11
 1818 016a 01       		.uleb128 0x1
 1819 016b 12       		.uleb128 0x12
 1820 016c 06       		.uleb128 0x6
 1821 016d 40       		.uleb128 0x40
 1822 016e 18       		.uleb128 0x18
 1823 016f 9742     		.uleb128 0x2117
 1824 0171 19       		.uleb128 0x19
ARM GAS  /tmp/cckYQ7vZ.s 			page 33


 1825 0172 01       		.uleb128 0x1
 1826 0173 13       		.uleb128 0x13
 1827 0174 00       		.byte	0
 1828 0175 00       		.byte	0
 1829 0176 1E       		.uleb128 0x1e
 1830 0177 898201   		.uleb128 0x4109
 1831 017a 00       		.byte	0
 1832 017b 11       		.uleb128 0x11
 1833 017c 01       		.uleb128 0x1
 1834 017d 9542     		.uleb128 0x2115
 1835 017f 19       		.uleb128 0x19
 1836 0180 31       		.uleb128 0x31
 1837 0181 13       		.uleb128 0x13
 1838 0182 00       		.byte	0
 1839 0183 00       		.byte	0
 1840 0184 1F       		.uleb128 0x1f
 1841 0185 05       		.uleb128 0x5
 1842 0186 00       		.byte	0
 1843 0187 03       		.uleb128 0x3
 1844 0188 0E       		.uleb128 0xe
 1845 0189 3A       		.uleb128 0x3a
 1846 018a 0B       		.uleb128 0xb
 1847 018b 3B       		.uleb128 0x3b
 1848 018c 0B       		.uleb128 0xb
 1849 018d 49       		.uleb128 0x49
 1850 018e 13       		.uleb128 0x13
 1851 018f 02       		.uleb128 0x2
 1852 0190 18       		.uleb128 0x18
 1853 0191 00       		.byte	0
 1854 0192 00       		.byte	0
 1855 0193 20       		.uleb128 0x20
 1856 0194 34       		.uleb128 0x34
 1857 0195 00       		.byte	0
 1858 0196 03       		.uleb128 0x3
 1859 0197 0E       		.uleb128 0xe
 1860 0198 49       		.uleb128 0x49
 1861 0199 13       		.uleb128 0x13
 1862 019a 34       		.uleb128 0x34
 1863 019b 19       		.uleb128 0x19
 1864 019c 00       		.byte	0
 1865 019d 00       		.byte	0
 1866 019e 21       		.uleb128 0x21
 1867 019f 1D       		.uleb128 0x1d
 1868 01a0 01       		.byte	0x1
 1869 01a1 31       		.uleb128 0x31
 1870 01a2 13       		.uleb128 0x13
 1871 01a3 11       		.uleb128 0x11
 1872 01a4 01       		.uleb128 0x1
 1873 01a5 12       		.uleb128 0x12
 1874 01a6 06       		.uleb128 0x6
 1875 01a7 58       		.uleb128 0x58
 1876 01a8 0B       		.uleb128 0xb
 1877 01a9 59       		.uleb128 0x59
 1878 01aa 0B       		.uleb128 0xb
 1879 01ab 00       		.byte	0
 1880 01ac 00       		.byte	0
 1881 01ad 22       		.uleb128 0x22
ARM GAS  /tmp/cckYQ7vZ.s 			page 34


 1882 01ae 05       		.uleb128 0x5
 1883 01af 00       		.byte	0
 1884 01b0 31       		.uleb128 0x31
 1885 01b1 13       		.uleb128 0x13
 1886 01b2 02       		.uleb128 0x2
 1887 01b3 18       		.uleb128 0x18
 1888 01b4 00       		.byte	0
 1889 01b5 00       		.byte	0
 1890 01b6 23       		.uleb128 0x23
 1891 01b7 1D       		.uleb128 0x1d
 1892 01b8 00       		.byte	0
 1893 01b9 31       		.uleb128 0x31
 1894 01ba 13       		.uleb128 0x13
 1895 01bb 11       		.uleb128 0x11
 1896 01bc 01       		.uleb128 0x1
 1897 01bd 12       		.uleb128 0x12
 1898 01be 06       		.uleb128 0x6
 1899 01bf 58       		.uleb128 0x58
 1900 01c0 0B       		.uleb128 0xb
 1901 01c1 59       		.uleb128 0x59
 1902 01c2 0B       		.uleb128 0xb
 1903 01c3 00       		.byte	0
 1904 01c4 00       		.byte	0
 1905 01c5 24       		.uleb128 0x24
 1906 01c6 2E       		.uleb128 0x2e
 1907 01c7 01       		.byte	0x1
 1908 01c8 3F       		.uleb128 0x3f
 1909 01c9 19       		.uleb128 0x19
 1910 01ca 03       		.uleb128 0x3
 1911 01cb 0E       		.uleb128 0xe
 1912 01cc 3A       		.uleb128 0x3a
 1913 01cd 0B       		.uleb128 0xb
 1914 01ce 3B       		.uleb128 0x3b
 1915 01cf 0B       		.uleb128 0xb
 1916 01d0 27       		.uleb128 0x27
 1917 01d1 19       		.uleb128 0x19
 1918 01d2 49       		.uleb128 0x49
 1919 01d3 13       		.uleb128 0x13
 1920 01d4 11       		.uleb128 0x11
 1921 01d5 01       		.uleb128 0x1
 1922 01d6 12       		.uleb128 0x12
 1923 01d7 06       		.uleb128 0x6
 1924 01d8 40       		.uleb128 0x40
 1925 01d9 18       		.uleb128 0x18
 1926 01da 9742     		.uleb128 0x2117
 1927 01dc 19       		.uleb128 0x19
 1928 01dd 01       		.uleb128 0x1
 1929 01de 13       		.uleb128 0x13
 1930 01df 00       		.byte	0
 1931 01e0 00       		.byte	0
 1932 01e1 25       		.uleb128 0x25
 1933 01e2 34       		.uleb128 0x34
 1934 01e3 00       		.byte	0
 1935 01e4 03       		.uleb128 0x3
 1936 01e5 0E       		.uleb128 0xe
 1937 01e6 3A       		.uleb128 0x3a
 1938 01e7 0B       		.uleb128 0xb
ARM GAS  /tmp/cckYQ7vZ.s 			page 35


 1939 01e8 3B       		.uleb128 0x3b
 1940 01e9 05       		.uleb128 0x5
 1941 01ea 49       		.uleb128 0x49
 1942 01eb 13       		.uleb128 0x13
 1943 01ec 3F       		.uleb128 0x3f
 1944 01ed 19       		.uleb128 0x19
 1945 01ee 3C       		.uleb128 0x3c
 1946 01ef 19       		.uleb128 0x19
 1947 01f0 00       		.byte	0
 1948 01f1 00       		.byte	0
 1949 01f2 26       		.uleb128 0x26
 1950 01f3 34       		.uleb128 0x34
 1951 01f4 00       		.byte	0
 1952 01f5 03       		.uleb128 0x3
 1953 01f6 08       		.uleb128 0x8
 1954 01f7 3A       		.uleb128 0x3a
 1955 01f8 0B       		.uleb128 0xb
 1956 01f9 3B       		.uleb128 0x3b
 1957 01fa 05       		.uleb128 0x5
 1958 01fb 49       		.uleb128 0x49
 1959 01fc 13       		.uleb128 0x13
 1960 01fd 3F       		.uleb128 0x3f
 1961 01fe 19       		.uleb128 0x19
 1962 01ff 3C       		.uleb128 0x3c
 1963 0200 19       		.uleb128 0x19
 1964 0201 00       		.byte	0
 1965 0202 00       		.byte	0
 1966 0203 27       		.uleb128 0x27
 1967 0204 2E       		.uleb128 0x2e
 1968 0205 00       		.byte	0
 1969 0206 3F       		.uleb128 0x3f
 1970 0207 19       		.uleb128 0x19
 1971 0208 03       		.uleb128 0x3
 1972 0209 0E       		.uleb128 0xe
 1973 020a 3A       		.uleb128 0x3a
 1974 020b 0B       		.uleb128 0xb
 1975 020c 3B       		.uleb128 0x3b
 1976 020d 0B       		.uleb128 0xb
 1977 020e 27       		.uleb128 0x27
 1978 020f 19       		.uleb128 0x19
 1979 0210 3C       		.uleb128 0x3c
 1980 0211 19       		.uleb128 0x19
 1981 0212 00       		.byte	0
 1982 0213 00       		.byte	0
 1983 0214 00       		.byte	0
 1984              		.section	.debug_aranges,"",%progbits
 1985 0000 3C000000 		.4byte	0x3c
 1986 0004 0200     		.2byte	0x2
 1987 0006 00000000 		.4byte	.Ldebug_info0
 1988 000a 04       		.byte	0x4
 1989 000b 00       		.byte	0
 1990 000c 0000     		.2byte	0
 1991 000e 0000     		.2byte	0
 1992 0010 00000000 		.4byte	.LFB323
 1993 0014 04000000 		.4byte	.LFE323-.LFB323
 1994 0018 00000000 		.4byte	.LFB324
 1995 001c 14000000 		.4byte	.LFE324-.LFB324
ARM GAS  /tmp/cckYQ7vZ.s 			page 36


 1996 0020 00000000 		.4byte	.LFB325
 1997 0024 0C000000 		.4byte	.LFE325-.LFB325
 1998 0028 00000000 		.4byte	.LFB326
 1999 002c 0C000000 		.4byte	.LFE326-.LFB326
 2000 0030 00000000 		.4byte	.LFB327
 2001 0034 0C000000 		.4byte	.LFE327-.LFB327
 2002 0038 00000000 		.4byte	0
 2003 003c 00000000 		.4byte	0
 2004              		.section	.debug_ranges,"",%progbits
 2005              	.Ldebug_ranges0:
 2006 0000 00000000 		.4byte	.LFB323
 2007 0004 04000000 		.4byte	.LFE323
 2008 0008 00000000 		.4byte	.LFB324
 2009 000c 14000000 		.4byte	.LFE324
 2010 0010 00000000 		.4byte	.LFB325
 2011 0014 0C000000 		.4byte	.LFE325
 2012 0018 00000000 		.4byte	.LFB326
 2013 001c 0C000000 		.4byte	.LFE326
 2014 0020 00000000 		.4byte	.LFB327
 2015 0024 0C000000 		.4byte	.LFE327
 2016 0028 00000000 		.4byte	0
 2017 002c 00000000 		.4byte	0
 2018              		.section	.debug_line,"",%progbits
 2019              	.Ldebug_line0:
 2020 0000 B2020000 		.section	.debug_str,"MS",%progbits,1
 2020      02003A02 
 2020      00000201 
 2020      FB0E0D00 
 2020      01010101 
 2021              	.LASF52:
 2022 0000 72656164 		.ascii	"ready_list_t\000"
 2022      795F6C69 
 2022      73745F74 
 2022      00
 2023              	.LASF80:
 2024 000d 44494552 		.ascii	"DIER\000"
 2024      00
 2025              	.LASF104:
 2026 0012 77747472 		.ascii	"wttrp\000"
 2026      7000
 2027              	.LASF48:
 2028 0018 6E657874 		.ascii	"next\000"
 2028      00
 2029              	.LASF58:
 2030 001d 64656C74 		.ascii	"delta\000"
 2030      6100
 2031              	.LASF101:
 2032 0023 7264796D 		.ascii	"rdymsg\000"
 2032      736700
 2033              	.LASF16:
 2034 002a 75696E74 		.ascii	"uint64_t\000"
 2034      36345F74 
 2034      00
 2035              	.LASF71:
 2036 0033 6B65726E 		.ascii	"kernel_stats\000"
 2036      656C5F73 
 2036      74617473 
ARM GAS  /tmp/cckYQ7vZ.s 			page 37


 2036      00
 2037              	.LASF5:
 2038 0040 5F5F7569 		.ascii	"__uint8_t\000"
 2038      6E74385F 
 2038      7400
 2039              	.LASF51:
 2040 004a 70726576 		.ascii	"prev\000"
 2040      00
 2041              	.LASF78:
 2042 004f 706F7274 		.ascii	"port_intctx\000"
 2042      5F696E74 
 2042      63747800 
 2043              	.LASF50:
 2044 005b 63685F74 		.ascii	"ch_threads_queue\000"
 2044      68726561 
 2044      64735F71 
 2044      75657565 
 2044      00
 2045              	.LASF63:
 2046 006c 73797374 		.ascii	"system_debug_t\000"
 2046      656D5F64 
 2046      65627567 
 2046      5F7400
 2047              	.LASF92:
 2048 007b 776F7273 		.ascii	"worst\000"
 2048      7400
 2049              	.LASF95:
 2050 0081 74696D65 		.ascii	"time_measurement_t\000"
 2050      5F6D6561 
 2050      73757265 
 2050      6D656E74 
 2050      5F7400
 2051              	.LASF12:
 2052 0094 6C6F6E67 		.ascii	"long long unsigned int\000"
 2052      206C6F6E 
 2052      6720756E 
 2052      7369676E 
 2052      65642069 
 2053              	.LASF102:
 2054 00ab 65786974 		.ascii	"exitcode\000"
 2054      636F6465 
 2054      00
 2055              	.LASF70:
 2056 00b4 6D61696E 		.ascii	"mainthread\000"
 2056      74687265 
 2056      616400
 2057              	.LASF105:
 2058 00bf 73656E74 		.ascii	"sentmsg\000"
 2058      6D736700 
 2059              	.LASF60:
 2060 00c7 76697274 		.ascii	"virtual_timers_list_t\000"
 2060      75616C5F 
 2060      74696D65 
 2060      72735F6C 
 2060      6973745F 
 2061              	.LASF124:
 2062 00dd 49544D5F 		.ascii	"ITM_RxBuffer\000"
ARM GAS  /tmp/cckYQ7vZ.s 			page 38


 2062      52784275 
 2062      66666572 
 2062      00
 2063              	.LASF131:
 2064 00ea 73745F6C 		.ascii	"st_lld_init\000"
 2064      6C645F69 
 2064      6E697400 
 2065              	.LASF84:
 2066 00f6 42445452 		.ascii	"BDTR\000"
 2066      00
 2067              	.LASF18:
 2068 00fb 72747469 		.ascii	"rttime_t\000"
 2068      6D655F74 
 2068      00
 2069              	.LASF81:
 2070 0104 43434D52 		.ascii	"CCMR1\000"
 2070      3100
 2071              	.LASF82:
 2072 010a 43434D52 		.ascii	"CCMR2\000"
 2072      3200
 2073              	.LASF86:
 2074 0110 43434D52 		.ascii	"CCMR3\000"
 2074      3300
 2075              	.LASF1:
 2076 0116 7369676E 		.ascii	"signed char\000"
 2076      65642063 
 2076      68617200 
 2077              	.LASF69:
 2078 0122 76746C69 		.ascii	"vtlist\000"
 2078      737400
 2079              	.LASF38:
 2080 0129 6D736771 		.ascii	"msgqueue\000"
 2080      75657565 
 2080      00
 2081              	.LASF34:
 2082 0132 73746174 		.ascii	"state\000"
 2082      6500
 2083              	.LASF7:
 2084 0138 6C6F6E67 		.ascii	"long int\000"
 2084      20696E74 
 2084      00
 2085              	.LASF19:
 2086 0141 746D6F64 		.ascii	"tmode_t\000"
 2086      655F7400 
 2087              	.LASF20:
 2088 0149 74737461 		.ascii	"tstate_t\000"
 2088      74655F74 
 2088      00
 2089              	.LASF59:
 2090 0152 66756E63 		.ascii	"func\000"
 2090      00
 2091              	.LASF43:
 2092 0157 73746174 		.ascii	"stats\000"
 2092      7300
 2093              	.LASF8:
 2094 015d 5F5F7569 		.ascii	"__uint32_t\000"
 2094      6E743332 
ARM GAS  /tmp/cckYQ7vZ.s 			page 39


 2094      5F7400
 2095              	.LASF75:
 2096 0168 72656761 		.ascii	"regarm_t\000"
 2096      726D5F74 
 2096      00
 2097              	.LASF118:
 2098 0171 7374496E 		.ascii	"stInit\000"
 2098      697400
 2099              	.LASF64:
 2100 0178 63685F73 		.ascii	"ch_system_debug\000"
 2100      79737465 
 2100      6D5F6465 
 2100      62756700 
 2101              	.LASF37:
 2102 0188 77616974 		.ascii	"waiting\000"
 2102      696E6700 
 2103              	.LASF10:
 2104 0190 6C6F6E67 		.ascii	"long long int\000"
 2104      206C6F6E 
 2104      6720696E 
 2104      7400
 2105              	.LASF73:
 2106 019e 73797369 		.ascii	"sysinterval_t\000"
 2106      6E746572 
 2106      76616C5F 
 2106      7400
 2107              	.LASF25:
 2108 01ac 636E745F 		.ascii	"cnt_t\000"
 2108      7400
 2109              	.LASF0:
 2110 01b2 756E7369 		.ascii	"unsigned int\000"
 2110      676E6564 
 2110      20696E74 
 2110      00
 2111              	.LASF125:
 2112 01bf 474E5520 		.ascii	"GNU C 4.9.3 20150529 (prerelease) -mcpu=cortex-m4 -"
 2112      4320342E 
 2112      392E3320 
 2112      32303135 
 2112      30353239 
 2113 01f2 6D666C6F 		.ascii	"mfloat-abi=hard -mfpu=fpv4-sp-d16 -mno-thumb-interw"
 2113      61742D61 
 2113      62693D68 
 2113      61726420 
 2113      2D6D6670 
 2114 0225 6F726B20 		.ascii	"ork -mthumb -g -Os -fomit-frame-pointer -falign-fun"
 2114      2D6D7468 
 2114      756D6220 
 2114      2D67202D 
 2114      4F73202D 
 2115 0258 6374696F 		.ascii	"ctions=16 -ffunction-sections -fdata-sections -fno-"
 2115      6E733D31 
 2115      36202D66 
 2115      66756E63 
 2115      74696F6E 
 2116 028b 636F6D6D 		.ascii	"common -fsingle-precision-constant\000"
 2116      6F6E202D 
ARM GAS  /tmp/cckYQ7vZ.s 			page 40


 2116      6673696E 
 2116      676C652D 
 2116      70726563 
 2117              	.LASF106:
 2118 02ae 77747365 		.ascii	"wtsemp\000"
 2118      6D7000
 2119              	.LASF96:
 2120 02b5 6E5F6972 		.ascii	"n_irq\000"
 2120      7100
 2121              	.LASF28:
 2122 02bb 71756575 		.ascii	"queue\000"
 2122      6500
 2123              	.LASF42:
 2124 02c1 6D706F6F 		.ascii	"mpool\000"
 2124      6C00
 2125              	.LASF91:
 2126 02c7 62657374 		.ascii	"best\000"
 2126      00
 2127              	.LASF79:
 2128 02cc 534D4352 		.ascii	"SMCR\000"
 2128      00
 2129              	.LASF100:
 2130 02d1 6B65726E 		.ascii	"kernel_stats_t\000"
 2130      656C5F73 
 2130      74617473 
 2130      5F7400
 2131              	.LASF32:
 2132 02e0 6E616D65 		.ascii	"name\000"
 2132      00
 2133              	.LASF46:
 2134 02e5 63685F74 		.ascii	"ch_thread\000"
 2134      68726561 
 2134      6400
 2135              	.LASF23:
 2136 02ef 6D73675F 		.ascii	"msg_t\000"
 2136      7400
 2137              	.LASF93:
 2138 02f5 6C617374 		.ascii	"last\000"
 2138      00
 2139              	.LASF26:
 2140 02fa 75636E74 		.ascii	"ucnt_t\000"
 2140      5F7400
 2141              	.LASF39:
 2142 0301 6570656E 		.ascii	"epending\000"
 2142      64696E67 
 2142      00
 2143              	.LASF66:
 2144 030a 63685F73 		.ascii	"ch_system_t\000"
 2144      79737465 
 2144      6D5F7400 
 2145              	.LASF88:
 2146 0316 73746D33 		.ascii	"stm32_tim_t\000"
 2146      325F7469 
 2146      6D5F7400 
 2147              	.LASF99:
 2148 0322 6D5F6372 		.ascii	"m_crit_isr\000"
 2148      69745F69 
ARM GAS  /tmp/cckYQ7vZ.s 			page 41


 2148      737200
 2149              	.LASF53:
 2150 032d 63685F72 		.ascii	"ch_ready_list\000"
 2150      65616479 
 2150      5F6C6973 
 2150      7400
 2151              	.LASF24:
 2152 033b 6576656E 		.ascii	"eventmask_t\000"
 2152      746D6173 
 2152      6B5F7400 
 2153              	.LASF6:
 2154 0347 5F5F696E 		.ascii	"__int32_t\000"
 2154      7433325F 
 2154      7400
 2155              	.LASF116:
 2156 0351 73745F6C 		.ascii	"st_lld_start_alarm\000"
 2156      6C645F73 
 2156      74617274 
 2156      5F616C61 
 2156      726D00
 2157              	.LASF76:
 2158 0364 73746B61 		.ascii	"stkalign_t\000"
 2158      6C69676E 
 2158      5F7400
 2159              	.LASF30:
 2160 036f 6E657765 		.ascii	"newer\000"
 2160      7200
 2161              	.LASF41:
 2162 0375 7265616C 		.ascii	"realprio\000"
 2162      7072696F 
 2162      00
 2163              	.LASF74:
 2164 037e 73697A65 		.ascii	"sizetype\000"
 2164      74797065 
 2164      00
 2165              	.LASF44:
 2166 0387 74687265 		.ascii	"thread_reference_t\000"
 2166      61645F72 
 2166      65666572 
 2166      656E6365 
 2166      5F7400
 2167              	.LASF61:
 2168 039a 63685F76 		.ascii	"ch_virtual_timers_list\000"
 2168      69727475 
 2168      616C5F74 
 2168      696D6572 
 2168      735F6C69 
 2169              	.LASF77:
 2170 03b1 706F7274 		.ascii	"port_context\000"
 2170      5F636F6E 
 2170      74657874 
 2170      00
 2171              	.LASF90:
 2172 03be 746D5F63 		.ascii	"tm_calibration_t\000"
 2172      616C6962 
 2172      72617469 
 2172      6F6E5F74 
ARM GAS  /tmp/cckYQ7vZ.s 			page 42


 2172      00
 2173              	.LASF117:
 2174 03cf 74696D65 		.ascii	"time\000"
 2174      00
 2175              	.LASF29:
 2176 03d4 7072696F 		.ascii	"prio\000"
 2176      00
 2177              	.LASF54:
 2178 03d9 63757272 		.ascii	"current\000"
 2178      656E7400 
 2179              	.LASF11:
 2180 03e1 5F5F7569 		.ascii	"__uint64_t\000"
 2180      6E743634 
 2180      5F7400
 2181              	.LASF94:
 2182 03ec 63756D75 		.ascii	"cumulative\000"
 2182      6C617469 
 2182      766500
 2183              	.LASF21:
 2184 03f7 74726566 		.ascii	"trefs_t\000"
 2184      735F7400 
 2185              	.LASF36:
 2186 03ff 72656673 		.ascii	"refs\000"
 2186      00
 2187              	.LASF56:
 2188 0404 76697274 		.ascii	"virtual_timer_t\000"
 2188      75616C5F 
 2188      74696D65 
 2188      725F7400 
 2189              	.LASF22:
 2190 0414 74707269 		.ascii	"tprio_t\000"
 2190      6F5F7400 
 2191              	.LASF97:
 2192 041c 6E5F6374 		.ascii	"n_ctxswc\000"
 2192      78737763 
 2192      00
 2193              	.LASF114:
 2194 0425 5F426F6F 		.ascii	"_Bool\000"
 2194      6C00
 2195              	.LASF14:
 2196 042b 696E7433 		.ascii	"int32_t\000"
 2196      325F7400 
 2197              	.LASF2:
 2198 0433 756E7369 		.ascii	"unsigned char\000"
 2198      676E6564 
 2198      20636861 
 2198      7200
 2199              	.LASF3:
 2200 0441 73686F72 		.ascii	"short int\000"
 2200      7420696E 
 2200      7400
 2201              	.LASF62:
 2202 044b 6C617374 		.ascii	"lasttime\000"
 2202      74696D65 
 2202      00
 2203              	.LASF108:
 2204 0454 65776D61 		.ascii	"ewmask\000"
ARM GAS  /tmp/cckYQ7vZ.s 			page 43


 2204      736B00
 2205              	.LASF67:
 2206 045b 63685F73 		.ascii	"ch_system\000"
 2206      79737465 
 2206      6D00
 2207              	.LASF13:
 2208 0465 75696E74 		.ascii	"uint8_t\000"
 2208      385F7400 
 2209              	.LASF123:
 2210 046d 5F5F6675 		.ascii	"__func__\000"
 2210      6E635F5F 
 2210      00
 2211              	.LASF57:
 2212 0476 63685F76 		.ascii	"ch_virtual_timer\000"
 2212      69727475 
 2212      616C5F74 
 2212      696D6572 
 2212      00
 2213              	.LASF129:
 2214 0487 73745F6C 		.ascii	"st_lld_get_alarm\000"
 2214      6C645F67 
 2214      65745F61 
 2214      6C61726D 
 2214      00
 2215              	.LASF109:
 2216 0498 63685F73 		.ascii	"ch_semaphore\000"
 2216      656D6170 
 2216      686F7265 
 2216      00
 2217              	.LASF87:
 2218 04a5 43435852 		.ascii	"CCXR\000"
 2218      00
 2219              	.LASF15:
 2220 04aa 75696E74 		.ascii	"uint32_t\000"
 2220      33325F74 
 2220      00
 2221              	.LASF107:
 2222 04b3 77746D74 		.ascii	"wtmtxp\000"
 2222      787000
 2223              	.LASF47:
 2224 04ba 63685F74 		.ascii	"ch_threads_list\000"
 2224      68726561 
 2224      64735F6C 
 2224      69737400 
 2225              	.LASF111:
 2226 04ca 6F776E65 		.ascii	"owner\000"
 2226      7200
 2227              	.LASF9:
 2228 04d0 6C6F6E67 		.ascii	"long unsigned int\000"
 2228      20756E73 
 2228      69676E65 
 2228      6420696E 
 2228      7400
 2229              	.LASF33:
 2230 04e2 77616261 		.ascii	"wabase\000"
 2230      736500
 2231              	.LASF120:
ARM GAS  /tmp/cckYQ7vZ.s 			page 44


 2232 04e9 73745374 		.ascii	"stStopAlarm\000"
 2232      6F70416C 
 2232      61726D00 
 2233              	.LASF112:
 2234 04f5 63686172 		.ascii	"char\000"
 2234      00
 2235              	.LASF31:
 2236 04fa 6F6C6465 		.ascii	"older\000"
 2236      7200
 2237              	.LASF85:
 2238 0500 444D4152 		.ascii	"DMAR\000"
 2238      00
 2239              	.LASF27:
 2240 0505 74687265 		.ascii	"thread_t\000"
 2240      61645F74 
 2240      00
 2241              	.LASF83:
 2242 050e 43434552 		.ascii	"CCER\000"
 2242      00
 2243              	.LASF72:
 2244 0513 73797374 		.ascii	"systime_t\000"
 2244      696D655F 
 2244      7400
 2245              	.LASF55:
 2246 051d 76746675 		.ascii	"vtfunc_t\000"
 2246      6E635F74 
 2246      00
 2247              	.LASF65:
 2248 0526 70616E69 		.ascii	"panic_msg\000"
 2248      635F6D73 
 2248      6700
 2249              	.LASF89:
 2250 0530 6F666673 		.ascii	"offset\000"
 2250      657400
 2251              	.LASF119:
 2252 0537 73745374 		.ascii	"stStartAlarm\000"
 2252      61727441 
 2252      6C61726D 
 2252      00
 2253              	.LASF4:
 2254 0544 73686F72 		.ascii	"short unsigned int\000"
 2254      7420756E 
 2254      7369676E 
 2254      65642069 
 2254      6E7400
 2255              	.LASF127:
 2256 0557 2F686F6D 		.ascii	"/home/kozinalexey/f4by/ardupilot/build/F4BY\000"
 2256      652F6B6F 
 2256      7A696E61 
 2256      6C657865 
 2256      792F6634 
 2257              	.LASF17:
 2258 0583 7274636E 		.ascii	"rtcnt_t\000"
 2258      745F7400 
 2259              	.LASF128:
 2260 058b 73745F6C 		.ascii	"st_lld_stop_alarm\000"
 2260      6C645F73 
ARM GAS  /tmp/cckYQ7vZ.s 			page 45


 2260      746F705F 
 2260      616C6172 
 2260      6D00
 2261              	.LASF126:
 2262 059d 2E2E2F2E 		.ascii	"../../modules/ChibiOS/os/hal/src/hal_st.c\000"
 2262      2E2F6D6F 
 2262      64756C65 
 2262      732F4368 
 2262      6962694F 
 2263              	.LASF49:
 2264 05c7 74687265 		.ascii	"threads_queue_t\000"
 2264      6164735F 
 2264      71756575 
 2264      655F7400 
 2265              	.LASF110:
 2266 05d7 63685F6D 		.ascii	"ch_mutex\000"
 2266      75746578 
 2266      00
 2267              	.LASF68:
 2268 05e0 726C6973 		.ascii	"rlist\000"
 2268      7400
 2269              	.LASF121:
 2270 05e6 73745365 		.ascii	"stSetAlarm\000"
 2270      74416C61 
 2270      726D00
 2271              	.LASF35:
 2272 05f1 666C6167 		.ascii	"flags\000"
 2272      7300
 2273              	.LASF130:
 2274 05f7 73744765 		.ascii	"stGetAlarm\000"
 2274      74416C61 
 2274      726D00
 2275              	.LASF103:
 2276 0602 77746F62 		.ascii	"wtobjp\000"
 2276      6A7000
 2277              	.LASF45:
 2278 0609 74687265 		.ascii	"threads_list_t\000"
 2278      6164735F 
 2278      6C697374 
 2278      5F7400
 2279              	.LASF122:
 2280 0618 61627374 		.ascii	"abstime\000"
 2280      696D6500 
 2281              	.LASF115:
 2282 0620 73745F6C 		.ascii	"st_lld_set_alarm\000"
 2282      6C645F73 
 2282      65745F61 
 2282      6C61726D 
 2282      00
 2283              	.LASF40:
 2284 0631 6D74786C 		.ascii	"mtxlist\000"
 2284      69737400 
 2285              	.LASF113:
 2286 0639 6D757465 		.ascii	"mutex_t\000"
 2286      785F7400 
 2287              	.LASF98:
 2288 0641 6D5F6372 		.ascii	"m_crit_thd\000"
ARM GAS  /tmp/cckYQ7vZ.s 			page 46


 2288      69745F74 
 2288      686400
 2289              		.ident	"GCC: (15:4.9.3+svn231177-1) 4.9.3 20150529 (prerelease)"
ARM GAS  /tmp/cckYQ7vZ.s 			page 47


DEFINED SYMBOLS
                            *ABS*:0000000000000000 hal_st.c
     /tmp/cckYQ7vZ.s:21     .text.stInit:0000000000000000 $t
     /tmp/cckYQ7vZ.s:26     .text.stInit:0000000000000000 stInit
     /tmp/cckYQ7vZ.s:41     .text.stStartAlarm:0000000000000000 $t
     /tmp/cckYQ7vZ.s:46     .text.stStartAlarm:0000000000000000 stStartAlarm
     /tmp/cckYQ7vZ.s:72     .text.stStartAlarm:0000000000000010 $d
     /tmp/cckYQ7vZ.s:79     .text.stStopAlarm:0000000000000000 $t
     /tmp/cckYQ7vZ.s:84     .text.stStopAlarm:0000000000000000 stStopAlarm
     /tmp/cckYQ7vZ.s:101    .text.stStopAlarm:0000000000000008 $d
     /tmp/cckYQ7vZ.s:108    .text.stSetAlarm:0000000000000000 $t
     /tmp/cckYQ7vZ.s:113    .text.stSetAlarm:0000000000000000 stSetAlarm
     /tmp/cckYQ7vZ.s:130    .text.stSetAlarm:0000000000000008 $d
     /tmp/cckYQ7vZ.s:137    .text.stGetAlarm:0000000000000000 $t
     /tmp/cckYQ7vZ.s:142    .text.stGetAlarm:0000000000000000 stGetAlarm
     /tmp/cckYQ7vZ.s:161    .text.stGetAlarm:0000000000000008 $d
                     .debug_frame:0000000000000010 $d

UNDEFINED SYMBOLS
st_lld_init
