ARM GAS  /tmp/cc5Sh9Px.s 			page 1


   1              		.syntax unified
   2              		.cpu cortex-m4
   3              		.eabi_attribute 27, 1
   4              		.eabi_attribute 28, 1
   5              		.fpu fpv4-sp-d16
   6              		.eabi_attribute 20, 1
   7              		.eabi_attribute 21, 1
   8              		.eabi_attribute 23, 3
   9              		.eabi_attribute 24, 1
  10              		.eabi_attribute 25, 1
  11              		.eabi_attribute 26, 1
  12              		.eabi_attribute 30, 4
  13              		.eabi_attribute 34, 1
  14              		.eabi_attribute 18, 4
  15              		.thumb
  16              		.file	"hal_i2c.c"
  17              		.text
  18              	.Ltext0:
  19              		.cfi_sections	.debug_frame
  20              		.section	.text.i2cInit,"ax",%progbits
  21              		.align	1
  22              		.global	i2cInit
  23              		.thumb
  24              		.thumb_func
  25              		.type	i2cInit, %function
  26              	i2cInit:
  27              	.LFB323:
  28              		.file 1 "../../modules/ChibiOS/os/hal/src/hal_i2c.c"
  29              		.loc 1 59 0
  30              		.cfi_startproc
  31              		@ args = 0, pretend = 0, frame = 0
  32              		@ frame_needed = 0, uses_anonymous_args = 0
  33              		@ link register save eliminated.
  34              		.loc 1 61 0
  35 0000 FFF7FEBF 		b	i2c_lld_init
  36              	.LVL0:
  37              		.cfi_endproc
  38              	.LFE323:
  39              		.size	i2cInit, .-i2cInit
  40              		.section	.text.i2cObjectInit,"ax",%progbits
  41              		.align	1
  42              		.global	i2cObjectInit
  43              		.thumb
  44              		.thumb_func
  45              		.type	i2cObjectInit, %function
  46              	i2cObjectInit:
  47              	.LFB324:
  48              		.loc 1 71 0
  49              		.cfi_startproc
  50              		@ args = 0, pretend = 0, frame = 0
  51              		@ frame_needed = 0, uses_anonymous_args = 0
  52              		@ link register save eliminated.
  53              	.LVL1:
  54              		.loc 1 73 0
  55 0000 0123     		movs	r3, #1
  56 0002 0370     		strb	r3, [r0]
  57              		.loc 1 74 0
ARM GAS  /tmp/cc5Sh9Px.s 			page 2


  58 0004 0023     		movs	r3, #0
  59 0006 4360     		str	r3, [r0, #4]
  60              	.LVL2:
  61              	.LBB40:
  62              	.LBB41:
  63              		.file 2 "../../modules/ChibiOS/os/hal/osal/rt/osal.h"
  64              		.loc 2 974 0
  65 0008 0C30     		adds	r0, r0, #12
  66              	.LVL3:
  67 000a FFF7FEBF 		b	chMtxObjectInit
  68              	.LVL4:
  69              	.LBE41:
  70              	.LBE40:
  71              		.cfi_endproc
  72              	.LFE324:
  73              		.size	i2cObjectInit, .-i2cObjectInit
  74              		.section	.text.i2cStart,"ax",%progbits
  75              		.align	1
  76              		.global	i2cStart
  77              		.thumb
  78              		.thumb_func
  79              		.type	i2cStart, %function
  80              	i2cStart:
  81              	.LFB325:
  82              		.loc 1 93 0
  83              		.cfi_startproc
  84              		@ args = 0, pretend = 0, frame = 0
  85              		@ frame_needed = 0, uses_anonymous_args = 0
  86              	.LVL5:
  87 0000 38B5     		push	{r3, r4, r5, lr}
  88              		.cfi_def_cfa_offset 16
  89              		.cfi_offset 3, -16
  90              		.cfi_offset 4, -12
  91              		.cfi_offset 5, -8
  92              		.cfi_offset 14, -4
  93              		.loc 1 93 0
  94 0002 0446     		mov	r4, r0
  95 0004 0D46     		mov	r5, r1
  96              	.LBB56:
  97              	.LBB57:
  98              	.LBB58:
  99              	.LBB59:
 100              	.LBB60:
 101              	.LBB61:
 102              		.file 3 "../../modules/ChibiOS/os/common/ext/ARM/CMSIS/Core/Include/cmsis_gcc.h"
 103              		.loc 3 493 0
 104 0006 2023     		movs	r3, #32
 105              	@ 493 "../../modules/ChibiOS/os/common/ext/ARM/CMSIS/Core/Include/cmsis_gcc.h" 1
 106 0008 83F31188 		MSR basepri, r3
 107              	@ 0 "" 2
 108              		.thumb
 109              	.LBE61:
 110              	.LBE60:
 111              	.LBE59:
 112              		.file 4 "../../modules/ChibiOS/os/rt/include/chsys.h"
 113              		.loc 4 356 0
 114 000c FFF7FEFF 		bl	_stats_start_measure_crit_thd
ARM GAS  /tmp/cc5Sh9Px.s 			page 3


 115              	.LVL6:
 116              	.LBE58:
 117              	.LBE57:
 118              	.LBE56:
 119              		.loc 1 101 0
 120 0010 2046     		mov	r0, r4
 121              		.loc 1 100 0
 122 0012 6560     		str	r5, [r4, #4]
 123              		.loc 1 101 0
 124 0014 FFF7FEFF 		bl	i2c_lld_start
 125              	.LVL7:
 126              		.loc 1 102 0
 127 0018 0223     		movs	r3, #2
 128 001a 2370     		strb	r3, [r4]
 129              	.LBB62:
 130              	.LBB63:
 131              	.LBB64:
 132              		.loc 4 368 0
 133 001c FFF7FEFF 		bl	_stats_stop_measure_crit_thd
 134              	.LVL8:
 135              	.LBB65:
 136              	.LBB66:
 137              	.LBB67:
 138              		.loc 3 493 0
 139 0020 0023     		movs	r3, #0
 140              	@ 493 "../../modules/ChibiOS/os/common/ext/ARM/CMSIS/Core/Include/cmsis_gcc.h" 1
 141 0022 83F31188 		MSR basepri, r3
 142              	@ 0 "" 2
 143              		.thumb
 144 0026 38BD     		pop	{r3, r4, r5, pc}
 145              	.LBE67:
 146              	.LBE66:
 147              	.LBE65:
 148              	.LBE64:
 149              	.LBE63:
 150              	.LBE62:
 151              		.cfi_endproc
 152              	.LFE325:
 153              		.size	i2cStart, .-i2cStart
 154              		.section	.text.i2cSoftStop,"ax",%progbits
 155              		.align	1
 156              		.global	i2cSoftStop
 157              		.thumb
 158              		.thumb_func
 159              		.type	i2cSoftStop, %function
 160              	i2cSoftStop:
 161              	.LFB326:
 162              		.loc 1 113 0
 163              		.cfi_startproc
 164              		@ args = 0, pretend = 0, frame = 0
 165              		@ frame_needed = 0, uses_anonymous_args = 0
 166              	.LVL9:
 167 0000 38B5     		push	{r3, r4, r5, lr}
 168              		.cfi_def_cfa_offset 16
 169              		.cfi_offset 3, -16
 170              		.cfi_offset 4, -12
 171              		.cfi_offset 5, -8
ARM GAS  /tmp/cc5Sh9Px.s 			page 4


 172              		.cfi_offset 14, -4
 173              		.loc 1 113 0
 174 0002 0446     		mov	r4, r0
 175              	.LBB82:
 176              	.LBB83:
 177              	.LBB84:
 178              	.LBB85:
 179              	.LBB86:
 180              	.LBB87:
 181              		.loc 3 493 0
 182 0004 2023     		movs	r3, #32
 183              	@ 493 "../../modules/ChibiOS/os/common/ext/ARM/CMSIS/Core/Include/cmsis_gcc.h" 1
 184 0006 83F31188 		MSR basepri, r3
 185              	@ 0 "" 2
 186              		.thumb
 187              	.LBE87:
 188              	.LBE86:
 189              	.LBE85:
 190              		.loc 4 356 0
 191 000a FFF7FEFF 		bl	_stats_start_measure_crit_thd
 192              	.LVL10:
 193              	.LBE84:
 194              	.LBE83:
 195              	.LBE82:
 196              		.loc 1 122 0
 197 000e 2046     		mov	r0, r4
 198 0010 FFF7FEFF 		bl	i2c_lld_soft_stop
 199              	.LVL11:
 200              		.loc 1 123 0
 201 0014 0025     		movs	r5, #0
 202              		.loc 1 124 0
 203 0016 0123     		movs	r3, #1
 204              		.loc 1 123 0
 205 0018 6560     		str	r5, [r4, #4]
 206              		.loc 1 124 0
 207 001a 2370     		strb	r3, [r4]
 208              	.LBB88:
 209              	.LBB89:
 210              	.LBB90:
 211              		.loc 4 368 0
 212 001c FFF7FEFF 		bl	_stats_stop_measure_crit_thd
 213              	.LVL12:
 214              	.LBB91:
 215              	.LBB92:
 216              	.LBB93:
 217              		.loc 3 493 0
 218              	@ 493 "../../modules/ChibiOS/os/common/ext/ARM/CMSIS/Core/Include/cmsis_gcc.h" 1
 219 0020 85F31188 		MSR basepri, r5
 220              	@ 0 "" 2
 221              		.thumb
 222 0024 38BD     		pop	{r3, r4, r5, pc}
 223              	.LBE93:
 224              	.LBE92:
 225              	.LBE91:
 226              	.LBE90:
 227              	.LBE89:
 228              	.LBE88:
ARM GAS  /tmp/cc5Sh9Px.s 			page 5


 229              		.cfi_endproc
 230              	.LFE326:
 231              		.size	i2cSoftStop, .-i2cSoftStop
 232              		.section	.text.i2cStop,"ax",%progbits
 233              		.align	1
 234              		.global	i2cStop
 235              		.thumb
 236              		.thumb_func
 237              		.type	i2cStop, %function
 238              	i2cStop:
 239              	.LFB327:
 240              		.loc 1 136 0
 241              		.cfi_startproc
 242              		@ args = 0, pretend = 0, frame = 0
 243              		@ frame_needed = 0, uses_anonymous_args = 0
 244              	.LVL13:
 245 0000 38B5     		push	{r3, r4, r5, lr}
 246              		.cfi_def_cfa_offset 16
 247              		.cfi_offset 3, -16
 248              		.cfi_offset 4, -12
 249              		.cfi_offset 5, -8
 250              		.cfi_offset 14, -4
 251              		.loc 1 136 0
 252 0002 0446     		mov	r4, r0
 253              	.LBB108:
 254              	.LBB109:
 255              	.LBB110:
 256              	.LBB111:
 257              	.LBB112:
 258              	.LBB113:
 259              		.loc 3 493 0
 260 0004 2023     		movs	r3, #32
 261              	@ 493 "../../modules/ChibiOS/os/common/ext/ARM/CMSIS/Core/Include/cmsis_gcc.h" 1
 262 0006 83F31188 		MSR basepri, r3
 263              	@ 0 "" 2
 264              		.thumb
 265              	.LBE113:
 266              	.LBE112:
 267              	.LBE111:
 268              		.loc 4 356 0
 269 000a FFF7FEFF 		bl	_stats_start_measure_crit_thd
 270              	.LVL14:
 271              	.LBE110:
 272              	.LBE109:
 273              	.LBE108:
 274              		.loc 1 145 0
 275 000e 2046     		mov	r0, r4
 276 0010 FFF7FEFF 		bl	i2c_lld_stop
 277              	.LVL15:
 278              		.loc 1 146 0
 279 0014 0025     		movs	r5, #0
 280              		.loc 1 147 0
 281 0016 0123     		movs	r3, #1
 282              		.loc 1 146 0
 283 0018 6560     		str	r5, [r4, #4]
 284              		.loc 1 147 0
 285 001a 2370     		strb	r3, [r4]
ARM GAS  /tmp/cc5Sh9Px.s 			page 6


 286              	.LBB114:
 287              	.LBB115:
 288              	.LBB116:
 289              		.loc 4 368 0
 290 001c FFF7FEFF 		bl	_stats_stop_measure_crit_thd
 291              	.LVL16:
 292              	.LBB117:
 293              	.LBB118:
 294              	.LBB119:
 295              		.loc 3 493 0
 296              	@ 493 "../../modules/ChibiOS/os/common/ext/ARM/CMSIS/Core/Include/cmsis_gcc.h" 1
 297 0020 85F31188 		MSR basepri, r5
 298              	@ 0 "" 2
 299              		.thumb
 300 0024 38BD     		pop	{r3, r4, r5, pc}
 301              	.LBE119:
 302              	.LBE118:
 303              	.LBE117:
 304              	.LBE116:
 305              	.LBE115:
 306              	.LBE114:
 307              		.cfi_endproc
 308              	.LFE327:
 309              		.size	i2cStop, .-i2cStop
 310              		.section	.text.i2cGetErrors,"ax",%progbits
 311              		.align	1
 312              		.global	i2cGetErrors
 313              		.thumb
 314              		.thumb_func
 315              		.type	i2cGetErrors, %function
 316              	i2cGetErrors:
 317              	.LFB328:
 318              		.loc 1 160 0
 319              		.cfi_startproc
 320              		@ args = 0, pretend = 0, frame = 0
 321              		@ frame_needed = 0, uses_anonymous_args = 0
 322              		@ link register save eliminated.
 323              	.LVL17:
 324              		.loc 1 165 0
 325 0000 8068     		ldr	r0, [r0, #8]
 326              	.LVL18:
 327 0002 7047     		bx	lr
 328              		.cfi_endproc
 329              	.LFE328:
 330              		.size	i2cGetErrors, .-i2cGetErrors
 331              		.section	.text.i2cMasterTransmitTimeout,"ax",%progbits
 332              		.align	1
 333              		.global	i2cMasterTransmitTimeout
 334              		.thumb
 335              		.thumb_func
 336              		.type	i2cMasterTransmitTimeout, %function
 337              	i2cMasterTransmitTimeout:
 338              	.LFB329:
 339              		.loc 1 199 0
 340              		.cfi_startproc
 341              		@ args = 12, pretend = 0, frame = 0
 342              		@ frame_needed = 0, uses_anonymous_args = 0
ARM GAS  /tmp/cc5Sh9Px.s 			page 7


 343              	.LVL19:
 344 0000 2DE9FF41 		push	{r0, r1, r2, r3, r4, r5, r6, r7, r8, lr}
 345              		.cfi_def_cfa_offset 40
 346              		.cfi_offset 4, -24
 347              		.cfi_offset 5, -20
 348              		.cfi_offset 6, -16
 349              		.cfi_offset 7, -12
 350              		.cfi_offset 8, -8
 351              		.cfi_offset 14, -4
 352              		.loc 1 199 0
 353 0004 1E46     		mov	r6, r3
 354 0006 0446     		mov	r4, r0
 355 0008 8846     		mov	r8, r1
 356 000a 1746     		mov	r7, r2
 357              	.LBB134:
 358              	.LBB135:
 359              	.LBB136:
 360              	.LBB137:
 361              	.LBB138:
 362              	.LBB139:
 363              		.loc 3 493 0
 364 000c 2023     		movs	r3, #32
 365              	.LVL20:
 366              	@ 493 "../../modules/ChibiOS/os/common/ext/ARM/CMSIS/Core/Include/cmsis_gcc.h" 1
 367 000e 83F31188 		MSR basepri, r3
 368              	@ 0 "" 2
 369              		.thumb
 370              	.LBE139:
 371              	.LBE138:
 372              	.LBE137:
 373              		.loc 4 356 0
 374 0012 FFF7FEFF 		bl	_stats_start_measure_crit_thd
 375              	.LVL21:
 376              	.LBE136:
 377              	.LBE135:
 378              	.LBE134:
 379              		.loc 1 211 0
 380 0016 0323     		movs	r3, #3
 381 0018 2370     		strb	r3, [r4]
 382              		.loc 1 212 0
 383 001a 0A9B     		ldr	r3, [sp, #40]
 384 001c 0093     		str	r3, [sp]
 385 001e 0B9B     		ldr	r3, [sp, #44]
 386 0020 0193     		str	r3, [sp, #4]
 387              		.loc 1 210 0
 388 0022 0025     		movs	r5, #0
 389              		.loc 1 212 0
 390 0024 0C9B     		ldr	r3, [sp, #48]
 391 0026 0293     		str	r3, [sp, #8]
 392 0028 4146     		mov	r1, r8
 393 002a 3A46     		mov	r2, r7
 394 002c 3346     		mov	r3, r6
 395              		.loc 1 210 0
 396 002e A560     		str	r5, [r4, #8]
 397              		.loc 1 212 0
 398 0030 2046     		mov	r0, r4
 399 0032 FFF7FEFF 		bl	i2c_lld_master_transmit_timeout
ARM GAS  /tmp/cc5Sh9Px.s 			page 8


 400              	.LVL22:
 401              		.loc 1 214 0
 402 0036 431C     		adds	r3, r0, #1
 403              		.loc 1 215 0
 404 0038 0CBF     		ite	eq
 405 003a 0523     		moveq	r3, #5
 406              		.loc 1 218 0
 407 003c 0223     		movne	r3, #2
 408 003e 2370     		strb	r3, [r4]
 409              		.loc 1 212 0
 410 0040 0646     		mov	r6, r0
 411              	.LVL23:
 412              	.LBB140:
 413              	.LBB141:
 414              	.LBB142:
 415              		.loc 4 368 0
 416 0042 FFF7FEFF 		bl	_stats_stop_measure_crit_thd
 417              	.LVL24:
 418              	.LBB143:
 419              	.LBB144:
 420              	.LBB145:
 421              		.loc 3 493 0
 422              	@ 493 "../../modules/ChibiOS/os/common/ext/ARM/CMSIS/Core/Include/cmsis_gcc.h" 1
 423 0046 85F31188 		MSR basepri, r5
 424              	@ 0 "" 2
 425              		.thumb
 426              	.LBE145:
 427              	.LBE144:
 428              	.LBE143:
 429              	.LBE142:
 430              	.LBE141:
 431              	.LBE140:
 432              		.loc 1 222 0
 433 004a 3046     		mov	r0, r6
 434 004c 04B0     		add	sp, sp, #16
 435              		.cfi_def_cfa_offset 24
 436              		@ sp needed
 437 004e BDE8F081 		pop	{r4, r5, r6, r7, r8, pc}
 438              		.cfi_endproc
 439              	.LFE329:
 440              		.size	i2cMasterTransmitTimeout, .-i2cMasterTransmitTimeout
 441              		.section	.text.i2cMasterReceiveTimeout,"ax",%progbits
 442              		.align	1
 443              		.global	i2cMasterReceiveTimeout
 444              		.thumb
 445              		.thumb_func
 446              		.type	i2cMasterReceiveTimeout, %function
 447              	i2cMasterReceiveTimeout:
 448              	.LFB330:
 449              		.loc 1 248 0
 450              		.cfi_startproc
 451              		@ args = 4, pretend = 0, frame = 0
 452              		@ frame_needed = 0, uses_anonymous_args = 0
 453              	.LVL25:
 454 0000 2DE9F341 		push	{r0, r1, r4, r5, r6, r7, r8, lr}
 455              		.cfi_def_cfa_offset 32
 456              		.cfi_offset 4, -24
ARM GAS  /tmp/cc5Sh9Px.s 			page 9


 457              		.cfi_offset 5, -20
 458              		.cfi_offset 6, -16
 459              		.cfi_offset 7, -12
 460              		.cfi_offset 8, -8
 461              		.cfi_offset 14, -4
 462              		.loc 1 248 0
 463 0004 1E46     		mov	r6, r3
 464 0006 0446     		mov	r4, r0
 465 0008 8846     		mov	r8, r1
 466 000a 1746     		mov	r7, r2
 467              	.LBB160:
 468              	.LBB161:
 469              	.LBB162:
 470              	.LBB163:
 471              	.LBB164:
 472              	.LBB165:
 473              		.loc 3 493 0
 474 000c 2023     		movs	r3, #32
 475              	.LVL26:
 476              	@ 493 "../../modules/ChibiOS/os/common/ext/ARM/CMSIS/Core/Include/cmsis_gcc.h" 1
 477 000e 83F31188 		MSR basepri, r3
 478              	@ 0 "" 2
 479              		.thumb
 480              	.LBE165:
 481              	.LBE164:
 482              	.LBE163:
 483              		.loc 4 356 0
 484 0012 FFF7FEFF 		bl	_stats_start_measure_crit_thd
 485              	.LVL27:
 486              	.LBE162:
 487              	.LBE161:
 488              	.LBE160:
 489              		.loc 1 260 0
 490 0016 0423     		movs	r3, #4
 491 0018 2370     		strb	r3, [r4]
 492              		.loc 1 259 0
 493 001a 0025     		movs	r5, #0
 494              		.loc 1 261 0
 495 001c 089B     		ldr	r3, [sp, #32]
 496 001e 0093     		str	r3, [sp]
 497 0020 4146     		mov	r1, r8
 498 0022 3A46     		mov	r2, r7
 499 0024 3346     		mov	r3, r6
 500              		.loc 1 259 0
 501 0026 A560     		str	r5, [r4, #8]
 502              		.loc 1 261 0
 503 0028 2046     		mov	r0, r4
 504 002a FFF7FEFF 		bl	i2c_lld_master_receive_timeout
 505              	.LVL28:
 506              		.loc 1 262 0
 507 002e 431C     		adds	r3, r0, #1
 508              		.loc 1 263 0
 509 0030 0CBF     		ite	eq
 510 0032 0523     		moveq	r3, #5
 511              		.loc 1 266 0
 512 0034 0223     		movne	r3, #2
 513 0036 2370     		strb	r3, [r4]
ARM GAS  /tmp/cc5Sh9Px.s 			page 10


 514              		.loc 1 261 0
 515 0038 0646     		mov	r6, r0
 516              	.LVL29:
 517              	.LBB166:
 518              	.LBB167:
 519              	.LBB168:
 520              		.loc 4 368 0
 521 003a FFF7FEFF 		bl	_stats_stop_measure_crit_thd
 522              	.LVL30:
 523              	.LBB169:
 524              	.LBB170:
 525              	.LBB171:
 526              		.loc 3 493 0
 527              	@ 493 "../../modules/ChibiOS/os/common/ext/ARM/CMSIS/Core/Include/cmsis_gcc.h" 1
 528 003e 85F31188 		MSR basepri, r5
 529              	@ 0 "" 2
 530              		.thumb
 531              	.LBE171:
 532              	.LBE170:
 533              	.LBE169:
 534              	.LBE168:
 535              	.LBE167:
 536              	.LBE166:
 537              		.loc 1 270 0
 538 0042 3046     		mov	r0, r6
 539 0044 02B0     		add	sp, sp, #8
 540              		.cfi_def_cfa_offset 24
 541              		@ sp needed
 542 0046 BDE8F081 		pop	{r4, r5, r6, r7, r8, pc}
 543              		.cfi_endproc
 544              	.LFE330:
 545              		.size	i2cMasterReceiveTimeout, .-i2cMasterReceiveTimeout
 546              		.section	.text.i2cAcquireBus,"ax",%progbits
 547              		.align	1
 548              		.global	i2cAcquireBus
 549              		.thumb
 550              		.thumb_func
 551              		.type	i2cAcquireBus, %function
 552              	i2cAcquireBus:
 553              	.LFB331:
 554              		.loc 1 284 0
 555              		.cfi_startproc
 556              		@ args = 0, pretend = 0, frame = 0
 557              		@ frame_needed = 0, uses_anonymous_args = 0
 558              		@ link register save eliminated.
 559              	.LVL31:
 560              	.LBB172:
 561              	.LBB173:
 562              		.loc 2 994 0
 563 0000 0C30     		adds	r0, r0, #12
 564              	.LVL32:
 565 0002 FFF7FEBF 		b	chMtxLock
 566              	.LVL33:
 567              	.LBE173:
 568              	.LBE172:
 569              		.cfi_endproc
 570              	.LFE331:
ARM GAS  /tmp/cc5Sh9Px.s 			page 11


 571              		.size	i2cAcquireBus, .-i2cAcquireBus
 572              		.section	.text.i2cReleaseBus,"ax",%progbits
 573              		.align	1
 574              		.global	i2cReleaseBus
 575              		.thumb
 576              		.thumb_func
 577              		.type	i2cReleaseBus, %function
 578              	i2cReleaseBus:
 579              	.LFB332:
 580              		.loc 1 300 0
 581              		.cfi_startproc
 582              		@ args = 0, pretend = 0, frame = 0
 583              		@ frame_needed = 0, uses_anonymous_args = 0
 584              		@ link register save eliminated.
 585              	.LVL34:
 586              	.LBB174:
 587              	.LBB175:
 588              		.loc 2 1018 0
 589 0000 0C30     		adds	r0, r0, #12
 590              	.LVL35:
 591 0002 FFF7FEBF 		b	chMtxUnlock
 592              	.LVL36:
 593              	.LBE175:
 594              	.LBE174:
 595              		.cfi_endproc
 596              	.LFE332:
 597              		.size	i2cReleaseBus, .-i2cReleaseBus
 598              		.text
 599              	.Letext0:
 600              		.file 5 "/usr/lib/gcc/arm-none-eabi/4.9.3/include/stddef.h"
 601              		.file 6 "/usr/include/newlib/machine/_default_types.h"
 602              		.file 7 "/usr/include/newlib/sys/_stdint.h"
 603              		.file 8 "../../modules/ChibiOS/os/common/ports/ARMCMx/compilers/GCC/chtypes.h"
 604              		.file 9 "../../modules/ChibiOS/os/rt/include/chsystypes.h"
 605              		.file 10 "../../modules/ChibiOS/os/rt/include/chschd.h"
 606              		.file 11 "../../modules/ChibiOS/os/rt/include/chtime.h"
 607              		.file 12 "../../modules/ChibiOS/os/common/ext/ST/STM32F4xx/stm32f407xx.h"
 608              		.file 13 "../../modules/ChibiOS/os/common/ports/ARMCMx/chcore.h"
 609              		.file 14 "../../modules/ChibiOS/os/common/ports/ARMCMx/chcore_v7m.h"
 610              		.file 15 "../../modules/ChibiOS/os/rt/include/chtm.h"
 611              		.file 16 "../../modules/ChibiOS/os/rt/include/chstats.h"
 612              		.file 17 "../../modules/ChibiOS/os/rt/include/chsem.h"
 613              		.file 18 "../../modules/ChibiOS/os/rt/include/chmtx.h"
 614              		.file 19 "../../modules/ChibiOS/os/hal/ports/STM32/LLD/DMAv2/stm32_dma.h"
 615              		.file 20 "../../modules/ChibiOS/os/hal/include/hal_i2c.h"
 616              		.file 21 "../../modules/ChibiOS/os/hal/ports/STM32/LLD/I2Cv1/hal_i2c_lld.h"
 617              		.file 22 "../../modules/ChibiOS/os/common/ext/ARM/CMSIS/Core/Include/core_cm4.h"
 618              		.section	.debug_info,"",%progbits
 619              	.Ldebug_info0:
 620 0000 8B140000 		.4byte	0x148b
 621 0004 0400     		.2byte	0x4
 622 0006 00000000 		.4byte	.Ldebug_abbrev0
 623 000a 04       		.byte	0x4
 624 000b 01       		.uleb128 0x1
 625 000c E8020000 		.4byte	.LASF194
 626 0010 01       		.byte	0x1
 627 0011 5E050000 		.4byte	.LASF195
ARM GAS  /tmp/cc5Sh9Px.s 			page 12


 628 0015 6D080000 		.4byte	.LASF196
 629 0019 00000000 		.4byte	.Ldebug_ranges0+0
 630 001d 00000000 		.4byte	0
 631 0021 00000000 		.4byte	.Ldebug_line0
 632 0025 02       		.uleb128 0x2
 633 0026 04       		.byte	0x4
 634 0027 05       		.byte	0x5
 635 0028 696E7400 		.ascii	"int\000"
 636 002c 03       		.uleb128 0x3
 637 002d 36000000 		.4byte	.LASF2
 638 0031 05       		.byte	0x5
 639 0032 D4       		.byte	0xd4
 640 0033 37000000 		.4byte	0x37
 641 0037 04       		.uleb128 0x4
 642 0038 04       		.byte	0x4
 643 0039 07       		.byte	0x7
 644 003a DB020000 		.4byte	.LASF0
 645 003e 04       		.uleb128 0x4
 646 003f 01       		.byte	0x1
 647 0040 06       		.byte	0x6
 648 0041 B6010000 		.4byte	.LASF1
 649 0045 03       		.uleb128 0x3
 650 0046 60000000 		.4byte	.LASF3
 651 004a 06       		.byte	0x6
 652 004b 1D       		.byte	0x1d
 653 004c 50000000 		.4byte	0x50
 654 0050 04       		.uleb128 0x4
 655 0051 01       		.byte	0x1
 656 0052 08       		.byte	0x8
 657 0053 D0060000 		.4byte	.LASF4
 658 0057 04       		.uleb128 0x4
 659 0058 02       		.byte	0x2
 660 0059 05       		.byte	0x5
 661 005a C2040000 		.4byte	.LASF5
 662 005e 03       		.uleb128 0x3
 663 005f F3070000 		.4byte	.LASF6
 664 0063 06       		.byte	0x6
 665 0064 2B       		.byte	0x2b
 666 0065 69000000 		.4byte	0x69
 667 0069 04       		.uleb128 0x4
 668 006a 02       		.byte	0x2
 669 006b 07       		.byte	0x7
 670 006c 1F040000 		.4byte	.LASF7
 671 0070 03       		.uleb128 0x3
 672 0071 CC040000 		.4byte	.LASF8
 673 0075 06       		.byte	0x6
 674 0076 3F       		.byte	0x3f
 675 0077 7B000000 		.4byte	0x7b
 676 007b 04       		.uleb128 0x4
 677 007c 04       		.byte	0x4
 678 007d 05       		.byte	0x5
 679 007e 2D020000 		.4byte	.LASF9
 680 0082 03       		.uleb128 0x3
 681 0083 77020000 		.4byte	.LASF10
 682 0087 06       		.byte	0x6
 683 0088 41       		.byte	0x41
 684 0089 8D000000 		.4byte	0x8d
ARM GAS  /tmp/cc5Sh9Px.s 			page 13


 685 008d 04       		.uleb128 0x4
 686 008e 04       		.byte	0x4
 687 008f 07       		.byte	0x7
 688 0090 B8070000 		.4byte	.LASF11
 689 0094 04       		.uleb128 0x4
 690 0095 08       		.byte	0x8
 691 0096 05       		.byte	0x5
 692 0097 B9020000 		.4byte	.LASF12
 693 009b 03       		.uleb128 0x3
 694 009c 18060000 		.4byte	.LASF13
 695 00a0 06       		.byte	0x6
 696 00a1 5B       		.byte	0x5b
 697 00a2 A6000000 		.4byte	0xa6
 698 00a6 04       		.uleb128 0x4
 699 00a7 08       		.byte	0x8
 700 00a8 07       		.byte	0x7
 701 00a9 FF000000 		.4byte	.LASF14
 702 00ad 03       		.uleb128 0x3
 703 00ae E4080000 		.4byte	.LASF15
 704 00b2 07       		.byte	0x7
 705 00b3 14       		.byte	0x14
 706 00b4 45000000 		.4byte	0x45
 707 00b8 03       		.uleb128 0x3
 708 00b9 94040000 		.4byte	.LASF16
 709 00bd 07       		.byte	0x7
 710 00be 1A       		.byte	0x1a
 711 00bf 5E000000 		.4byte	0x5e
 712 00c3 03       		.uleb128 0x3
 713 00c4 C8060000 		.4byte	.LASF17
 714 00c8 07       		.byte	0x7
 715 00c9 1F       		.byte	0x1f
 716 00ca 70000000 		.4byte	0x70
 717 00ce 03       		.uleb128 0x3
 718 00cf 84070000 		.4byte	.LASF18
 719 00d3 07       		.byte	0x7
 720 00d4 20       		.byte	0x20
 721 00d5 82000000 		.4byte	0x82
 722 00d9 03       		.uleb128 0x3
 723 00da 4A000000 		.4byte	.LASF19
 724 00de 07       		.byte	0x7
 725 00df 26       		.byte	0x26
 726 00e0 9B000000 		.4byte	0x9b
 727 00e4 03       		.uleb128 0x3
 728 00e5 AA080000 		.4byte	.LASF20
 729 00e9 08       		.byte	0x8
 730 00ea 27       		.byte	0x27
 731 00eb CE000000 		.4byte	0xce
 732 00ef 03       		.uleb128 0x3
 733 00f0 62010000 		.4byte	.LASF21
 734 00f4 08       		.byte	0x8
 735 00f5 28       		.byte	0x28
 736 00f6 D9000000 		.4byte	0xd9
 737 00fa 03       		.uleb128 0x3
 738 00fb 8C040000 		.4byte	.LASF22
 739 00ff 08       		.byte	0x8
 740 0100 2A       		.byte	0x2a
 741 0101 AD000000 		.4byte	0xad
ARM GAS  /tmp/cc5Sh9Px.s 			page 14


 742 0105 03       		.uleb128 0x3
 743 0106 36020000 		.4byte	.LASF23
 744 010a 08       		.byte	0x8
 745 010b 2B       		.byte	0x2b
 746 010c AD000000 		.4byte	0xad
 747 0110 03       		.uleb128 0x3
 748 0111 34060000 		.4byte	.LASF24
 749 0115 08       		.byte	0x8
 750 0116 2C       		.byte	0x2c
 751 0117 AD000000 		.4byte	0xad
 752 011b 03       		.uleb128 0x3
 753 011c 92060000 		.4byte	.LASF25
 754 0120 08       		.byte	0x8
 755 0121 2E       		.byte	0x2e
 756 0122 CE000000 		.4byte	0xce
 757 0126 03       		.uleb128 0x3
 758 0127 65040000 		.4byte	.LASF26
 759 012b 08       		.byte	0x8
 760 012c 2F       		.byte	0x2f
 761 012d C3000000 		.4byte	0xc3
 762 0131 03       		.uleb128 0x3
 763 0132 B6040000 		.4byte	.LASF27
 764 0136 08       		.byte	0x8
 765 0137 31       		.byte	0x31
 766 0138 CE000000 		.4byte	0xce
 767 013c 03       		.uleb128 0x3
 768 013d D5020000 		.4byte	.LASF28
 769 0141 08       		.byte	0x8
 770 0142 33       		.byte	0x33
 771 0143 C3000000 		.4byte	0xc3
 772 0147 03       		.uleb128 0x3
 773 0148 70040000 		.4byte	.LASF29
 774 014c 08       		.byte	0x8
 775 014d 34       		.byte	0x34
 776 014e CE000000 		.4byte	0xce
 777 0152 03       		.uleb128 0x3
 778 0153 FE070000 		.4byte	.LASF30
 779 0157 09       		.byte	0x9
 780 0158 34       		.byte	0x34
 781 0159 5D010000 		.4byte	0x15d
 782 015d 05       		.uleb128 0x5
 783 015e 4B040000 		.4byte	.LASF49
 784 0162 60       		.byte	0x60
 785 0163 0A       		.byte	0xa
 786 0164 8E       		.byte	0x8e
 787 0165 48020000 		.4byte	0x248
 788 0169 06       		.uleb128 0x6
 789 016a FF030000 		.4byte	.LASF31
 790 016e 0A       		.byte	0xa
 791 016f 8F       		.byte	0x8f
 792 0170 7D020000 		.4byte	0x27d
 793 0174 00       		.byte	0
 794 0175 06       		.uleb128 0x6
 795 0176 03060000 		.4byte	.LASF32
 796 017a 0A       		.byte	0xa
 797 017b 90       		.byte	0x90
 798 017c 1B010000 		.4byte	0x11b
ARM GAS  /tmp/cc5Sh9Px.s 			page 15


 799 0180 08       		.byte	0x8
 800 0181 07       		.uleb128 0x7
 801 0182 63747800 		.ascii	"ctx\000"
 802 0186 0A       		.byte	0xa
 803 0187 91       		.byte	0x91
 804 0188 97050000 		.4byte	0x597
 805 018c 0C       		.byte	0xc
 806 018d 06       		.uleb128 0x6
 807 018e 2E060000 		.4byte	.LASF33
 808 0192 0A       		.byte	0xa
 809 0193 93       		.byte	0x93
 810 0194 53020000 		.4byte	0x253
 811 0198 10       		.byte	0x10
 812 0199 06       		.uleb128 0x6
 813 019a D6070000 		.4byte	.LASF34
 814 019e 0A       		.byte	0xa
 815 019f 94       		.byte	0x94
 816 01a0 53020000 		.4byte	0x253
 817 01a4 14       		.byte	0x14
 818 01a5 06       		.uleb128 0x6
 819 01a6 60040000 		.4byte	.LASF35
 820 01aa 0A       		.byte	0xa
 821 01ab 9B       		.byte	0x9b
 822 01ac 7D080000 		.4byte	0x87d
 823 01b0 18       		.byte	0x18
 824 01b1 06       		.uleb128 0x6
 825 01b2 CA070000 		.4byte	.LASF36
 826 01b6 0A       		.byte	0xa
 827 01b7 A4       		.byte	0xa4
 828 01b8 8F080000 		.4byte	0x88f
 829 01bc 1C       		.byte	0x1c
 830 01bd 06       		.uleb128 0x6
 831 01be 27020000 		.4byte	.LASF37
 832 01c2 0A       		.byte	0xa
 833 01c3 A9       		.byte	0xa9
 834 01c4 05010000 		.4byte	0x105
 835 01c8 20       		.byte	0x20
 836 01c9 06       		.uleb128 0x6
 837 01ca F6080000 		.4byte	.LASF38
 838 01ce 0A       		.byte	0xa
 839 01cf AD       		.byte	0xad
 840 01d0 FA000000 		.4byte	0xfa
 841 01d4 21       		.byte	0x21
 842 01d5 06       		.uleb128 0x6
 843 01d6 5C060000 		.4byte	.LASF39
 844 01da 0A       		.byte	0xa
 845 01db B2       		.byte	0xb2
 846 01dc 10010000 		.4byte	0x110
 847 01e0 22       		.byte	0x22
 848 01e1 08       		.uleb128 0x8
 849 01e2 7500     		.ascii	"u\000"
 850 01e4 0A       		.byte	0xa
 851 01e5 0301     		.2byte	0x103
 852 01e7 B3070000 		.4byte	0x7b3
 853 01eb 24       		.byte	0x24
 854 01ec 09       		.uleb128 0x9
 855 01ed 9B020000 		.4byte	.LASF40
ARM GAS  /tmp/cc5Sh9Px.s 			page 16


 856 01f1 0A       		.byte	0xa
 857 01f2 0801     		.2byte	0x108
 858 01f4 59020000 		.4byte	0x259
 859 01f8 28       		.byte	0x28
 860 01f9 09       		.uleb128 0x9
 861 01fa 14020000 		.4byte	.LASF41
 862 01fe 0A       		.byte	0xa
 863 01ff 0E01     		.2byte	0x10e
 864 0201 7D020000 		.4byte	0x27d
 865 0205 2C       		.byte	0x2c
 866 0206 09       		.uleb128 0x9
 867 0207 77040000 		.4byte	.LASF42
 868 020b 0A       		.byte	0xa
 869 020c 1401     		.2byte	0x114
 870 020e 31010000 		.4byte	0x131
 871 0212 34       		.byte	0x34
 872 0213 09       		.uleb128 0x9
 873 0214 73090000 		.4byte	.LASF43
 874 0218 0A       		.byte	0xa
 875 0219 1B01     		.2byte	0x11b
 876 021b 77080000 		.4byte	0x877
 877 021f 38       		.byte	0x38
 878 0220 09       		.uleb128 0x9
 879 0221 EE040000 		.4byte	.LASF44
 880 0225 0A       		.byte	0xa
 881 0226 1F01     		.2byte	0x11f
 882 0228 1B010000 		.4byte	0x11b
 883 022c 3C       		.byte	0x3c
 884 022d 09       		.uleb128 0x9
 885 022e 05040000 		.4byte	.LASF45
 886 0232 0A       		.byte	0xa
 887 0233 2601     		.2byte	0x126
 888 0235 30030000 		.4byte	0x330
 889 0239 40       		.byte	0x40
 890 023a 09       		.uleb128 0x9
 891 023b 44020000 		.4byte	.LASF46
 892 023f 0A       		.byte	0xa
 893 0240 2C01     		.2byte	0x12c
 894 0242 64070000 		.4byte	0x764
 895 0246 48       		.byte	0x48
 896 0247 00       		.byte	0
 897 0248 03       		.uleb128 0x3
 898 0249 2B050000 		.4byte	.LASF47
 899 024d 09       		.byte	0x9
 900 024e 39       		.byte	0x39
 901 024f 53020000 		.4byte	0x253
 902 0253 0A       		.uleb128 0xa
 903 0254 04       		.byte	0x4
 904 0255 52010000 		.4byte	0x152
 905 0259 03       		.uleb128 0x3
 906 025a 1B090000 		.4byte	.LASF48
 907 025e 09       		.byte	0x9
 908 025f 3E       		.byte	0x3e
 909 0260 64020000 		.4byte	0x264
 910 0264 05       		.uleb128 0x5
 911 0265 94070000 		.4byte	.LASF50
 912 0269 04       		.byte	0x4
ARM GAS  /tmp/cc5Sh9Px.s 			page 17


 913 026a 0A       		.byte	0xa
 914 026b 7C       		.byte	0x7c
 915 026c 7D020000 		.4byte	0x27d
 916 0270 06       		.uleb128 0x6
 917 0271 5D010000 		.4byte	.LASF51
 918 0275 0A       		.byte	0xa
 919 0276 7D       		.byte	0x7d
 920 0277 53020000 		.4byte	0x253
 921 027b 00       		.byte	0
 922 027c 00       		.byte	0
 923 027d 03       		.uleb128 0x3
 924 027e C1080000 		.4byte	.LASF52
 925 0282 09       		.byte	0x9
 926 0283 45       		.byte	0x45
 927 0284 88020000 		.4byte	0x288
 928 0288 05       		.uleb128 0x5
 929 0289 84000000 		.4byte	.LASF53
 930 028d 08       		.byte	0x8
 931 028e 0A       		.byte	0xa
 932 028f 83       		.byte	0x83
 933 0290 AD020000 		.4byte	0x2ad
 934 0294 06       		.uleb128 0x6
 935 0295 5D010000 		.4byte	.LASF51
 936 0299 0A       		.byte	0xa
 937 029a 84       		.byte	0x84
 938 029b 53020000 		.4byte	0x253
 939 029f 00       		.byte	0
 940 02a0 06       		.uleb128 0x6
 941 02a1 73000000 		.4byte	.LASF54
 942 02a5 0A       		.byte	0xa
 943 02a6 85       		.byte	0x85
 944 02a7 53020000 		.4byte	0x253
 945 02ab 04       		.byte	0x4
 946 02ac 00       		.byte	0
 947 02ad 03       		.uleb128 0x3
 948 02ae 24000000 		.4byte	.LASF55
 949 02b2 09       		.byte	0x9
 950 02b3 4C       		.byte	0x4c
 951 02b4 B8020000 		.4byte	0x2b8
 952 02b8 0B       		.uleb128 0xb
 953 02b9 A8040000 		.4byte	.LASF56
 954 02bd 1C       		.byte	0x1c
 955 02be 0A       		.byte	0xa
 956 02bf 5E01     		.2byte	0x15e
 957 02c1 14030000 		.4byte	0x314
 958 02c5 09       		.uleb128 0x9
 959 02c6 FF030000 		.4byte	.LASF31
 960 02ca 0A       		.byte	0xa
 961 02cb 5F01     		.2byte	0x15f
 962 02cd 7D020000 		.4byte	0x27d
 963 02d1 00       		.byte	0
 964 02d2 09       		.uleb128 0x9
 965 02d3 03060000 		.4byte	.LASF32
 966 02d7 0A       		.byte	0xa
 967 02d8 6001     		.2byte	0x160
 968 02da 1B010000 		.4byte	0x11b
 969 02de 08       		.byte	0x8
ARM GAS  /tmp/cc5Sh9Px.s 			page 18


 970 02df 08       		.uleb128 0x8
 971 02e0 63747800 		.ascii	"ctx\000"
 972 02e4 0A       		.byte	0xa
 973 02e5 6201     		.2byte	0x162
 974 02e7 97050000 		.4byte	0x597
 975 02eb 0C       		.byte	0xc
 976 02ec 09       		.uleb128 0x9
 977 02ed 2E060000 		.4byte	.LASF33
 978 02f1 0A       		.byte	0xa
 979 02f2 6501     		.2byte	0x165
 980 02f4 53020000 		.4byte	0x253
 981 02f8 10       		.byte	0x10
 982 02f9 09       		.uleb128 0x9
 983 02fa D6070000 		.4byte	.LASF34
 984 02fe 0A       		.byte	0xa
 985 02ff 6601     		.2byte	0x166
 986 0301 53020000 		.4byte	0x253
 987 0305 14       		.byte	0x14
 988 0306 09       		.uleb128 0x9
 989 0307 10060000 		.4byte	.LASF57
 990 030b 0A       		.byte	0xa
 991 030c 6901     		.2byte	0x169
 992 030e 53020000 		.4byte	0x253
 993 0312 18       		.byte	0x18
 994 0313 00       		.byte	0
 995 0314 03       		.uleb128 0x3
 996 0315 16080000 		.4byte	.LASF58
 997 0319 09       		.byte	0x9
 998 031a 51       		.byte	0x51
 999 031b 1F030000 		.4byte	0x31f
 1000 031f 0A       		.uleb128 0xa
 1001 0320 04       		.byte	0x4
 1002 0321 25030000 		.4byte	0x325
 1003 0325 0C       		.uleb128 0xc
 1004 0326 30030000 		.4byte	0x330
 1005 032a 0D       		.uleb128 0xd
 1006 032b 30030000 		.4byte	0x330
 1007 032f 00       		.byte	0
 1008 0330 0E       		.uleb128 0xe
 1009 0331 04       		.byte	0x4
 1010 0332 03       		.uleb128 0x3
 1011 0333 61060000 		.4byte	.LASF59
 1012 0337 09       		.byte	0x9
 1013 0338 56       		.byte	0x56
 1014 0339 3D030000 		.4byte	0x33d
 1015 033d 0B       		.uleb128 0xb
 1016 033e 99080000 		.4byte	.LASF60
 1017 0342 14       		.byte	0x14
 1018 0343 0A       		.byte	0xa
 1019 0344 3901     		.2byte	0x139
 1020 0346 8C030000 		.4byte	0x38c
 1021 034a 09       		.uleb128 0x9
 1022 034b 5D010000 		.4byte	.LASF51
 1023 034f 0A       		.byte	0xa
 1024 0350 3A01     		.2byte	0x13a
 1025 0352 95080000 		.4byte	0x895
 1026 0356 00       		.byte	0
ARM GAS  /tmp/cc5Sh9Px.s 			page 19


 1027 0357 09       		.uleb128 0x9
 1028 0358 73000000 		.4byte	.LASF54
 1029 035c 0A       		.byte	0xa
 1030 035d 3B01     		.2byte	0x13b
 1031 035f 95080000 		.4byte	0x895
 1032 0363 04       		.byte	0x4
 1033 0364 09       		.uleb128 0x9
 1034 0365 3D000000 		.4byte	.LASF61
 1035 0369 0A       		.byte	0xa
 1036 036a 3C01     		.2byte	0x13c
 1037 036c 70040000 		.4byte	0x470
 1038 0370 08       		.byte	0x8
 1039 0371 09       		.uleb128 0x9
 1040 0372 3F020000 		.4byte	.LASF62
 1041 0376 0A       		.byte	0xa
 1042 0377 3D01     		.2byte	0x13d
 1043 0379 14030000 		.4byte	0x314
 1044 037d 0C       		.byte	0xc
 1045 037e 08       		.uleb128 0x8
 1046 037f 70617200 		.ascii	"par\000"
 1047 0383 0A       		.byte	0xa
 1048 0384 3F01     		.2byte	0x13f
 1049 0386 30030000 		.4byte	0x330
 1050 038a 10       		.byte	0x10
 1051 038b 00       		.byte	0
 1052 038c 03       		.uleb128 0x3
 1053 038d 35010000 		.4byte	.LASF63
 1054 0391 09       		.byte	0x9
 1055 0392 5B       		.byte	0x5b
 1056 0393 97030000 		.4byte	0x397
 1057 0397 0B       		.uleb128 0xb
 1058 0398 3E050000 		.4byte	.LASF64
 1059 039c 10       		.byte	0x10
 1060 039d 0A       		.byte	0xa
 1061 039e 4901     		.2byte	0x149
 1062 03a0 D9030000 		.4byte	0x3d9
 1063 03a4 09       		.uleb128 0x9
 1064 03a5 5D010000 		.4byte	.LASF51
 1065 03a9 0A       		.byte	0xa
 1066 03aa 4A01     		.2byte	0x14a
 1067 03ac 95080000 		.4byte	0x895
 1068 03b0 00       		.byte	0
 1069 03b1 09       		.uleb128 0x9
 1070 03b2 73000000 		.4byte	.LASF54
 1071 03b6 0A       		.byte	0xa
 1072 03b7 4C01     		.2byte	0x14c
 1073 03b9 95080000 		.4byte	0x895
 1074 03bd 04       		.byte	0x4
 1075 03be 09       		.uleb128 0x9
 1076 03bf 3D000000 		.4byte	.LASF61
 1077 03c3 0A       		.byte	0xa
 1078 03c4 4E01     		.2byte	0x14e
 1079 03c6 70040000 		.4byte	0x470
 1080 03ca 08       		.byte	0x8
 1081 03cb 09       		.uleb128 0x9
 1082 03cc FD060000 		.4byte	.LASF65
 1083 03d0 0A       		.byte	0xa
ARM GAS  /tmp/cc5Sh9Px.s 			page 20


 1084 03d1 5601     		.2byte	0x156
 1085 03d3 65040000 		.4byte	0x465
 1086 03d7 0C       		.byte	0xc
 1087 03d8 00       		.byte	0
 1088 03d9 03       		.uleb128 0x3
 1089 03da 95000000 		.4byte	.LASF66
 1090 03de 09       		.byte	0x9
 1091 03df 60       		.byte	0x60
 1092 03e0 E4030000 		.4byte	0x3e4
 1093 03e4 0B       		.uleb128 0xb
 1094 03e5 44090000 		.4byte	.LASF67
 1095 03e9 04       		.byte	0x4
 1096 03ea 0A       		.byte	0xa
 1097 03eb 7001     		.2byte	0x170
 1098 03ed FF030000 		.4byte	0x3ff
 1099 03f1 09       		.uleb128 0x9
 1100 03f2 40080000 		.4byte	.LASF68
 1101 03f6 0A       		.byte	0xa
 1102 03f7 7801     		.2byte	0x178
 1103 03f9 9B080000 		.4byte	0x89b
 1104 03fd 00       		.byte	0
 1105 03fe 00       		.byte	0
 1106 03ff 03       		.uleb128 0x3
 1107 0400 80040000 		.4byte	.LASF69
 1108 0404 09       		.byte	0x9
 1109 0405 65       		.byte	0x65
 1110 0406 0A040000 		.4byte	0x40a
 1111 040a 0B       		.uleb128 0xb
 1112 040b 1A070000 		.4byte	.LASF70
 1113 040f D0       		.byte	0xd0
 1114 0410 0A       		.byte	0xa
 1115 0411 9001     		.2byte	0x190
 1116 0413 65040000 		.4byte	0x465
 1117 0417 09       		.uleb128 0x9
 1118 0418 DE080000 		.4byte	.LASF71
 1119 041c 0A       		.byte	0xa
 1120 041d 9401     		.2byte	0x194
 1121 041f AD020000 		.4byte	0x2ad
 1122 0423 00       		.byte	0
 1123 0424 09       		.uleb128 0x9
 1124 0425 01020000 		.4byte	.LASF72
 1125 0429 0A       		.byte	0xa
 1126 042a 9801     		.2byte	0x198
 1127 042c 8C030000 		.4byte	0x38c
 1128 0430 1C       		.byte	0x1c
 1129 0431 08       		.uleb128 0x8
 1130 0432 64626700 		.ascii	"dbg\000"
 1131 0436 0A       		.byte	0xa
 1132 0437 9C01     		.2byte	0x19c
 1133 0439 D9030000 		.4byte	0x3d9
 1134 043d 2C       		.byte	0x2c
 1135 043e 09       		.uleb128 0x9
 1136 043f 55040000 		.4byte	.LASF73
 1137 0443 0A       		.byte	0xa
 1138 0444 A001     		.2byte	0x1a0
 1139 0446 52010000 		.4byte	0x152
 1140 044a 30       		.byte	0x30
ARM GAS  /tmp/cc5Sh9Px.s 			page 21


 1141 044b 08       		.uleb128 0x8
 1142 044c 746D00   		.ascii	"tm\000"
 1143 044f 0A       		.byte	0xa
 1144 0450 A501     		.2byte	0x1a5
 1145 0452 16070000 		.4byte	0x716
 1146 0456 90       		.byte	0x90
 1147 0457 09       		.uleb128 0x9
 1148 0458 53000000 		.4byte	.LASF74
 1149 045c 0A       		.byte	0xa
 1150 045d AB01     		.2byte	0x1ab
 1151 045f A8070000 		.4byte	0x7a8
 1152 0463 98       		.byte	0x98
 1153 0464 00       		.byte	0
 1154 0465 03       		.uleb128 0x3
 1155 0466 0C080000 		.4byte	.LASF75
 1156 046a 0B       		.byte	0xb
 1157 046b 6D       		.byte	0x6d
 1158 046c CE000000 		.4byte	0xce
 1159 0470 03       		.uleb128 0x3
 1160 0471 C7020000 		.4byte	.LASF76
 1161 0475 0B       		.byte	0xb
 1162 0476 79       		.byte	0x79
 1163 0477 CE000000 		.4byte	0xce
 1164 047b 04       		.uleb128 0x4
 1165 047c 04       		.byte	0x4
 1166 047d 07       		.byte	0x7
 1167 047e 22050000 		.4byte	.LASF77
 1168 0482 0F       		.uleb128 0xf
 1169 0483 CE000000 		.4byte	0xce
 1170 0487 10       		.uleb128 0x10
 1171 0488 18       		.byte	0x18
 1172 0489 0C       		.byte	0xc
 1173 048a 6A01     		.2byte	0x16a
 1174 048c DE040000 		.4byte	0x4de
 1175 0490 08       		.uleb128 0x8
 1176 0491 435200   		.ascii	"CR\000"
 1177 0494 0C       		.byte	0xc
 1178 0495 6C01     		.2byte	0x16c
 1179 0497 82040000 		.4byte	0x482
 1180 049b 00       		.byte	0
 1181 049c 09       		.uleb128 0x9
 1182 049d 3B080000 		.4byte	.LASF78
 1183 04a1 0C       		.byte	0xc
 1184 04a2 6D01     		.2byte	0x16d
 1185 04a4 82040000 		.4byte	0x482
 1186 04a8 04       		.byte	0x4
 1187 04a9 08       		.uleb128 0x8
 1188 04aa 50415200 		.ascii	"PAR\000"
 1189 04ae 0C       		.byte	0xc
 1190 04af 6E01     		.2byte	0x16e
 1191 04b1 82040000 		.4byte	0x482
 1192 04b5 08       		.byte	0x8
 1193 04b6 09       		.uleb128 0x9
 1194 04b7 31000000 		.4byte	.LASF79
 1195 04bb 0C       		.byte	0xc
 1196 04bc 6F01     		.2byte	0x16f
 1197 04be 82040000 		.4byte	0x482
ARM GAS  /tmp/cc5Sh9Px.s 			page 22


 1198 04c2 0C       		.byte	0xc
 1199 04c3 09       		.uleb128 0x9
 1200 04c4 B2080000 		.4byte	.LASF80
 1201 04c8 0C       		.byte	0xc
 1202 04c9 7001     		.2byte	0x170
 1203 04cb 82040000 		.4byte	0x482
 1204 04cf 10       		.byte	0x10
 1205 04d0 08       		.uleb128 0x8
 1206 04d1 46435200 		.ascii	"FCR\000"
 1207 04d5 0C       		.byte	0xc
 1208 04d6 7101     		.2byte	0x171
 1209 04d8 82040000 		.4byte	0x482
 1210 04dc 14       		.byte	0x14
 1211 04dd 00       		.byte	0
 1212 04de 11       		.uleb128 0x11
 1213 04df 51080000 		.4byte	.LASF81
 1214 04e3 0C       		.byte	0xc
 1215 04e4 7201     		.2byte	0x172
 1216 04e6 87040000 		.4byte	0x487
 1217 04ea 10       		.uleb128 0x10
 1218 04eb 28       		.byte	0x28
 1219 04ec 0C       		.byte	0xc
 1220 04ed 3D02     		.2byte	0x23d
 1221 04ef 75050000 		.4byte	0x575
 1222 04f3 08       		.uleb128 0x8
 1223 04f4 43523100 		.ascii	"CR1\000"
 1224 04f8 0C       		.byte	0xc
 1225 04f9 3F02     		.2byte	0x23f
 1226 04fb 82040000 		.4byte	0x482
 1227 04ff 00       		.byte	0
 1228 0500 08       		.uleb128 0x8
 1229 0501 43523200 		.ascii	"CR2\000"
 1230 0505 0C       		.byte	0xc
 1231 0506 4002     		.2byte	0x240
 1232 0508 82040000 		.4byte	0x482
 1233 050c 04       		.byte	0x4
 1234 050d 09       		.uleb128 0x9
 1235 050e EC080000 		.4byte	.LASF82
 1236 0512 0C       		.byte	0xc
 1237 0513 4102     		.2byte	0x241
 1238 0515 82040000 		.4byte	0x482
 1239 0519 08       		.byte	0x8
 1240 051a 09       		.uleb128 0x9
 1241 051b F1080000 		.4byte	.LASF83
 1242 051f 0C       		.byte	0xc
 1243 0520 4202     		.2byte	0x242
 1244 0522 82040000 		.4byte	0x482
 1245 0526 0C       		.byte	0xc
 1246 0527 08       		.uleb128 0x8
 1247 0528 445200   		.ascii	"DR\000"
 1248 052b 0C       		.byte	0xc
 1249 052c 4302     		.2byte	0x243
 1250 052e 82040000 		.4byte	0x482
 1251 0532 10       		.byte	0x10
 1252 0533 08       		.uleb128 0x8
 1253 0534 53523100 		.ascii	"SR1\000"
 1254 0538 0C       		.byte	0xc
ARM GAS  /tmp/cc5Sh9Px.s 			page 23


 1255 0539 4402     		.2byte	0x244
 1256 053b 82040000 		.4byte	0x482
 1257 053f 14       		.byte	0x14
 1258 0540 08       		.uleb128 0x8
 1259 0541 53523200 		.ascii	"SR2\000"
 1260 0545 0C       		.byte	0xc
 1261 0546 4502     		.2byte	0x245
 1262 0548 82040000 		.4byte	0x482
 1263 054c 18       		.byte	0x18
 1264 054d 08       		.uleb128 0x8
 1265 054e 43435200 		.ascii	"CCR\000"
 1266 0552 0C       		.byte	0xc
 1267 0553 4602     		.2byte	0x246
 1268 0555 82040000 		.4byte	0x482
 1269 0559 1C       		.byte	0x1c
 1270 055a 09       		.uleb128 0x9
 1271 055b C3000000 		.4byte	.LASF84
 1272 055f 0C       		.byte	0xc
 1273 0560 4702     		.2byte	0x247
 1274 0562 82040000 		.4byte	0x482
 1275 0566 20       		.byte	0x20
 1276 0567 09       		.uleb128 0x9
 1277 0568 4A020000 		.4byte	.LASF85
 1278 056c 0C       		.byte	0xc
 1279 056d 4802     		.2byte	0x248
 1280 056f 82040000 		.4byte	0x482
 1281 0573 24       		.byte	0x24
 1282 0574 00       		.byte	0
 1283 0575 11       		.uleb128 0x11
 1284 0576 54090000 		.4byte	.LASF86
 1285 057a 0C       		.byte	0xc
 1286 057b 4902     		.2byte	0x249
 1287 057d EA040000 		.4byte	0x4ea
 1288 0581 03       		.uleb128 0x3
 1289 0582 82020000 		.4byte	.LASF87
 1290 0586 0D       		.byte	0xd
 1291 0587 65       		.byte	0x65
 1292 0588 30030000 		.4byte	0x330
 1293 058c 03       		.uleb128 0x3
 1294 058d D6040000 		.4byte	.LASF88
 1295 0591 0D       		.byte	0xd
 1296 0592 6D       		.byte	0x6d
 1297 0593 D9000000 		.4byte	0xd9
 1298 0597 05       		.uleb128 0x5
 1299 0598 DA050000 		.4byte	.LASF89
 1300 059c 04       		.byte	0x4
 1301 059d 0D       		.byte	0xd
 1302 059e 89       		.byte	0x89
 1303 059f AF050000 		.4byte	0x5af
 1304 05a3 07       		.uleb128 0x7
 1305 05a4 737000   		.ascii	"sp\000"
 1306 05a7 0D       		.byte	0xd
 1307 05a8 8A       		.byte	0x8a
 1308 05a9 FB060000 		.4byte	0x6fb
 1309 05ad 00       		.byte	0
 1310 05ae 00       		.byte	0
 1311 05af 0B       		.uleb128 0xb
ARM GAS  /tmp/cc5Sh9Px.s 			page 24


 1312 05b0 78000000 		.4byte	.LASF90
 1313 05b4 64       		.byte	0x64
 1314 05b5 0E       		.byte	0xe
 1315 05b6 5901     		.2byte	0x159
 1316 05b8 FB060000 		.4byte	0x6fb
 1317 05bc 08       		.uleb128 0x8
 1318 05bd 73313600 		.ascii	"s16\000"
 1319 05c1 0E       		.byte	0xe
 1320 05c2 5B01     		.2byte	0x15b
 1321 05c4 81050000 		.4byte	0x581
 1322 05c8 00       		.byte	0
 1323 05c9 08       		.uleb128 0x8
 1324 05ca 73313700 		.ascii	"s17\000"
 1325 05ce 0E       		.byte	0xe
 1326 05cf 5C01     		.2byte	0x15c
 1327 05d1 81050000 		.4byte	0x581
 1328 05d5 04       		.byte	0x4
 1329 05d6 08       		.uleb128 0x8
 1330 05d7 73313800 		.ascii	"s18\000"
 1331 05db 0E       		.byte	0xe
 1332 05dc 5D01     		.2byte	0x15d
 1333 05de 81050000 		.4byte	0x581
 1334 05e2 08       		.byte	0x8
 1335 05e3 08       		.uleb128 0x8
 1336 05e4 73313900 		.ascii	"s19\000"
 1337 05e8 0E       		.byte	0xe
 1338 05e9 5E01     		.2byte	0x15e
 1339 05eb 81050000 		.4byte	0x581
 1340 05ef 0C       		.byte	0xc
 1341 05f0 08       		.uleb128 0x8
 1342 05f1 73323000 		.ascii	"s20\000"
 1343 05f5 0E       		.byte	0xe
 1344 05f6 5F01     		.2byte	0x15f
 1345 05f8 81050000 		.4byte	0x581
 1346 05fc 10       		.byte	0x10
 1347 05fd 08       		.uleb128 0x8
 1348 05fe 73323100 		.ascii	"s21\000"
 1349 0602 0E       		.byte	0xe
 1350 0603 6001     		.2byte	0x160
 1351 0605 81050000 		.4byte	0x581
 1352 0609 14       		.byte	0x14
 1353 060a 08       		.uleb128 0x8
 1354 060b 73323200 		.ascii	"s22\000"
 1355 060f 0E       		.byte	0xe
 1356 0610 6101     		.2byte	0x161
 1357 0612 81050000 		.4byte	0x581
 1358 0616 18       		.byte	0x18
 1359 0617 08       		.uleb128 0x8
 1360 0618 73323300 		.ascii	"s23\000"
 1361 061c 0E       		.byte	0xe
 1362 061d 6201     		.2byte	0x162
 1363 061f 81050000 		.4byte	0x581
 1364 0623 1C       		.byte	0x1c
 1365 0624 08       		.uleb128 0x8
 1366 0625 73323400 		.ascii	"s24\000"
 1367 0629 0E       		.byte	0xe
 1368 062a 6301     		.2byte	0x163
ARM GAS  /tmp/cc5Sh9Px.s 			page 25


 1369 062c 81050000 		.4byte	0x581
 1370 0630 20       		.byte	0x20
 1371 0631 08       		.uleb128 0x8
 1372 0632 73323500 		.ascii	"s25\000"
 1373 0636 0E       		.byte	0xe
 1374 0637 6401     		.2byte	0x164
 1375 0639 81050000 		.4byte	0x581
 1376 063d 24       		.byte	0x24
 1377 063e 08       		.uleb128 0x8
 1378 063f 73323600 		.ascii	"s26\000"
 1379 0643 0E       		.byte	0xe
 1380 0644 6501     		.2byte	0x165
 1381 0646 81050000 		.4byte	0x581
 1382 064a 28       		.byte	0x28
 1383 064b 08       		.uleb128 0x8
 1384 064c 73323700 		.ascii	"s27\000"
 1385 0650 0E       		.byte	0xe
 1386 0651 6601     		.2byte	0x166
 1387 0653 81050000 		.4byte	0x581
 1388 0657 2C       		.byte	0x2c
 1389 0658 08       		.uleb128 0x8
 1390 0659 73323800 		.ascii	"s28\000"
 1391 065d 0E       		.byte	0xe
 1392 065e 6701     		.2byte	0x167
 1393 0660 81050000 		.4byte	0x581
 1394 0664 30       		.byte	0x30
 1395 0665 08       		.uleb128 0x8
 1396 0666 73323900 		.ascii	"s29\000"
 1397 066a 0E       		.byte	0xe
 1398 066b 6801     		.2byte	0x168
 1399 066d 81050000 		.4byte	0x581
 1400 0671 34       		.byte	0x34
 1401 0672 08       		.uleb128 0x8
 1402 0673 73333000 		.ascii	"s30\000"
 1403 0677 0E       		.byte	0xe
 1404 0678 6901     		.2byte	0x169
 1405 067a 81050000 		.4byte	0x581
 1406 067e 38       		.byte	0x38
 1407 067f 08       		.uleb128 0x8
 1408 0680 73333100 		.ascii	"s31\000"
 1409 0684 0E       		.byte	0xe
 1410 0685 6A01     		.2byte	0x16a
 1411 0687 81050000 		.4byte	0x581
 1412 068b 3C       		.byte	0x3c
 1413 068c 08       		.uleb128 0x8
 1414 068d 723400   		.ascii	"r4\000"
 1415 0690 0E       		.byte	0xe
 1416 0691 6C01     		.2byte	0x16c
 1417 0693 81050000 		.4byte	0x581
 1418 0697 40       		.byte	0x40
 1419 0698 08       		.uleb128 0x8
 1420 0699 723500   		.ascii	"r5\000"
 1421 069c 0E       		.byte	0xe
 1422 069d 6D01     		.2byte	0x16d
 1423 069f 81050000 		.4byte	0x581
 1424 06a3 44       		.byte	0x44
 1425 06a4 08       		.uleb128 0x8
ARM GAS  /tmp/cc5Sh9Px.s 			page 26


 1426 06a5 723600   		.ascii	"r6\000"
 1427 06a8 0E       		.byte	0xe
 1428 06a9 6E01     		.2byte	0x16e
 1429 06ab 81050000 		.4byte	0x581
 1430 06af 48       		.byte	0x48
 1431 06b0 08       		.uleb128 0x8
 1432 06b1 723700   		.ascii	"r7\000"
 1433 06b4 0E       		.byte	0xe
 1434 06b5 6F01     		.2byte	0x16f
 1435 06b7 81050000 		.4byte	0x581
 1436 06bb 4C       		.byte	0x4c
 1437 06bc 08       		.uleb128 0x8
 1438 06bd 723800   		.ascii	"r8\000"
 1439 06c0 0E       		.byte	0xe
 1440 06c1 7001     		.2byte	0x170
 1441 06c3 81050000 		.4byte	0x581
 1442 06c7 50       		.byte	0x50
 1443 06c8 08       		.uleb128 0x8
 1444 06c9 723900   		.ascii	"r9\000"
 1445 06cc 0E       		.byte	0xe
 1446 06cd 7101     		.2byte	0x171
 1447 06cf 81050000 		.4byte	0x581
 1448 06d3 54       		.byte	0x54
 1449 06d4 08       		.uleb128 0x8
 1450 06d5 72313000 		.ascii	"r10\000"
 1451 06d9 0E       		.byte	0xe
 1452 06da 7201     		.2byte	0x172
 1453 06dc 81050000 		.4byte	0x581
 1454 06e0 58       		.byte	0x58
 1455 06e1 08       		.uleb128 0x8
 1456 06e2 72313100 		.ascii	"r11\000"
 1457 06e6 0E       		.byte	0xe
 1458 06e7 7301     		.2byte	0x173
 1459 06e9 81050000 		.4byte	0x581
 1460 06ed 5C       		.byte	0x5c
 1461 06ee 08       		.uleb128 0x8
 1462 06ef 6C7200   		.ascii	"lr\000"
 1463 06f2 0E       		.byte	0xe
 1464 06f3 7401     		.2byte	0x174
 1465 06f5 81050000 		.4byte	0x581
 1466 06f9 60       		.byte	0x60
 1467 06fa 00       		.byte	0
 1468 06fb 0A       		.uleb128 0xa
 1469 06fc 04       		.byte	0x4
 1470 06fd AF050000 		.4byte	0x5af
 1471 0701 12       		.uleb128 0x12
 1472 0702 04       		.byte	0x4
 1473 0703 0F       		.byte	0xf
 1474 0704 38       		.byte	0x38
 1475 0705 16070000 		.4byte	0x716
 1476 0709 06       		.uleb128 0x6
 1477 070a 4A080000 		.4byte	.LASF91
 1478 070e 0F       		.byte	0xf
 1479 070f 3C       		.byte	0x3c
 1480 0710 E4000000 		.4byte	0xe4
 1481 0714 00       		.byte	0
 1482 0715 00       		.byte	0
ARM GAS  /tmp/cc5Sh9Px.s 			page 27


 1483 0716 03       		.uleb128 0x3
 1484 0717 E7050000 		.4byte	.LASF92
 1485 071b 0F       		.byte	0xf
 1486 071c 3D       		.byte	0x3d
 1487 071d 01070000 		.4byte	0x701
 1488 0721 12       		.uleb128 0x12
 1489 0722 18       		.byte	0x18
 1490 0723 0F       		.byte	0xf
 1491 0724 48       		.byte	0x48
 1492 0725 64070000 		.4byte	0x764
 1493 0729 06       		.uleb128 0x6
 1494 072a 07080000 		.4byte	.LASF93
 1495 072e 0F       		.byte	0xf
 1496 072f 49       		.byte	0x49
 1497 0730 E4000000 		.4byte	0xe4
 1498 0734 00       		.byte	0
 1499 0735 06       		.uleb128 0x6
 1500 0736 DA000000 		.4byte	.LASF94
 1501 073a 0F       		.byte	0xf
 1502 073b 4A       		.byte	0x4a
 1503 073c E4000000 		.4byte	0xe4
 1504 0740 04       		.byte	0x4
 1505 0741 06       		.uleb128 0x6
 1506 0742 6B040000 		.4byte	.LASF95
 1507 0746 0F       		.byte	0xf
 1508 0747 4B       		.byte	0x4b
 1509 0748 E4000000 		.4byte	0xe4
 1510 074c 08       		.byte	0x8
 1511 074d 07       		.uleb128 0x7
 1512 074e 6E00     		.ascii	"n\000"
 1513 0750 0F       		.byte	0xf
 1514 0751 4C       		.byte	0x4c
 1515 0752 47010000 		.4byte	0x147
 1516 0756 0C       		.byte	0xc
 1517 0757 06       		.uleb128 0x6
 1518 0758 23060000 		.4byte	.LASF96
 1519 075c 0F       		.byte	0xf
 1520 075d 4D       		.byte	0x4d
 1521 075e EF000000 		.4byte	0xef
 1522 0762 10       		.byte	0x10
 1523 0763 00       		.byte	0
 1524 0764 03       		.uleb128 0x3
 1525 0765 EC000000 		.4byte	.LASF97
 1526 0769 0F       		.byte	0xf
 1527 076a 4E       		.byte	0x4e
 1528 076b 21070000 		.4byte	0x721
 1529 076f 12       		.uleb128 0x12
 1530 0770 38       		.byte	0x38
 1531 0771 10       		.byte	0x10
 1532 0772 38       		.byte	0x38
 1533 0773 A8070000 		.4byte	0x7a8
 1534 0777 06       		.uleb128 0x6
 1535 0778 F9030000 		.4byte	.LASF98
 1536 077c 10       		.byte	0x10
 1537 077d 39       		.byte	0x39
 1538 077e 47010000 		.4byte	0x147
 1539 0782 00       		.byte	0
ARM GAS  /tmp/cc5Sh9Px.s 			page 28


 1540 0783 06       		.uleb128 0x6
 1541 0784 B9060000 		.4byte	.LASF99
 1542 0788 10       		.byte	0x10
 1543 0789 3A       		.byte	0x3a
 1544 078a 47010000 		.4byte	0x147
 1545 078e 04       		.byte	0x4
 1546 078f 06       		.uleb128 0x6
 1547 0790 7B090000 		.4byte	.LASF100
 1548 0794 10       		.byte	0x10
 1549 0795 3B       		.byte	0x3b
 1550 0796 64070000 		.4byte	0x764
 1551 079a 08       		.byte	0x8
 1552 079b 06       		.uleb128 0x6
 1553 079c 9D040000 		.4byte	.LASF101
 1554 07a0 10       		.byte	0x10
 1555 07a1 3D       		.byte	0x3d
 1556 07a2 64070000 		.4byte	0x764
 1557 07a6 20       		.byte	0x20
 1558 07a7 00       		.byte	0
 1559 07a8 03       		.uleb128 0x3
 1560 07a9 32040000 		.4byte	.LASF102
 1561 07ad 10       		.byte	0x10
 1562 07ae 3F       		.byte	0x3f
 1563 07af 6F070000 		.4byte	0x76f
 1564 07b3 13       		.uleb128 0x13
 1565 07b4 04       		.byte	0x4
 1566 07b5 0A       		.byte	0xa
 1567 07b6 C6       		.byte	0xc6
 1568 07b7 15080000 		.4byte	0x815
 1569 07bb 14       		.uleb128 0x14
 1570 07bc 43000000 		.4byte	.LASF103
 1571 07c0 0A       		.byte	0xa
 1572 07c1 CD       		.byte	0xcd
 1573 07c2 26010000 		.4byte	0x126
 1574 07c6 14       		.uleb128 0x14
 1575 07c7 16010000 		.4byte	.LASF104
 1576 07cb 0A       		.byte	0xa
 1577 07cc D4       		.byte	0xd4
 1578 07cd 26010000 		.4byte	0x126
 1579 07d1 14       		.uleb128 0x14
 1580 07d2 14090000 		.4byte	.LASF105
 1581 07d6 0A       		.byte	0xa
 1582 07d7 DB       		.byte	0xdb
 1583 07d8 30030000 		.4byte	0x330
 1584 07dc 14       		.uleb128 0x14
 1585 07dd EB030000 		.4byte	.LASF106
 1586 07e1 0A       		.byte	0xa
 1587 07e2 E2       		.byte	0xe2
 1588 07e3 15080000 		.4byte	0x815
 1589 07e7 14       		.uleb128 0x14
 1590 07e8 2D010000 		.4byte	.LASF107
 1591 07ec 0A       		.byte	0xa
 1592 07ed E7       		.byte	0xe7
 1593 07ee 26010000 		.4byte	0x126
 1594 07f2 14       		.uleb128 0x14
 1595 07f3 DD030000 		.4byte	.LASF108
 1596 07f7 0A       		.byte	0xa
ARM GAS  /tmp/cc5Sh9Px.s 			page 29


 1597 07f8 F0       		.byte	0xf0
 1598 07f9 40080000 		.4byte	0x840
 1599 07fd 14       		.uleb128 0x14
 1600 07fe 8D070000 		.4byte	.LASF109
 1601 0802 0A       		.byte	0xa
 1602 0803 F9       		.byte	0xf9
 1603 0804 77080000 		.4byte	0x877
 1604 0808 15       		.uleb128 0x15
 1605 0809 13070000 		.4byte	.LASF110
 1606 080d 0A       		.byte	0xa
 1607 080e 0101     		.2byte	0x101
 1608 0810 31010000 		.4byte	0x131
 1609 0814 00       		.byte	0
 1610 0815 0A       		.uleb128 0xa
 1611 0816 04       		.byte	0x4
 1612 0817 48020000 		.4byte	0x248
 1613 081b 05       		.uleb128 0x5
 1614 081c 72070000 		.4byte	.LASF111
 1615 0820 0C       		.byte	0xc
 1616 0821 11       		.byte	0x11
 1617 0822 34       		.byte	0x34
 1618 0823 40080000 		.4byte	0x840
 1619 0827 06       		.uleb128 0x6
 1620 0828 FF030000 		.4byte	.LASF31
 1621 082c 11       		.byte	0x11
 1622 082d 35       		.byte	0x35
 1623 082e 7D020000 		.4byte	0x27d
 1624 0832 00       		.byte	0
 1625 0833 07       		.uleb128 0x7
 1626 0834 636E7400 		.ascii	"cnt\000"
 1627 0838 11       		.byte	0x11
 1628 0839 37       		.byte	0x37
 1629 083a 3C010000 		.4byte	0x13c
 1630 083e 08       		.byte	0x8
 1631 083f 00       		.byte	0
 1632 0840 0A       		.uleb128 0xa
 1633 0841 04       		.byte	0x4
 1634 0842 1B080000 		.4byte	0x81b
 1635 0846 05       		.uleb128 0x5
 1636 0847 64080000 		.4byte	.LASF112
 1637 084b 10       		.byte	0x10
 1638 084c 12       		.byte	0x12
 1639 084d 39       		.byte	0x39
 1640 084e 77080000 		.4byte	0x877
 1641 0852 06       		.uleb128 0x6
 1642 0853 FF030000 		.4byte	.LASF31
 1643 0857 12       		.byte	0x12
 1644 0858 3A       		.byte	0x3a
 1645 0859 7D020000 		.4byte	0x27d
 1646 085d 00       		.byte	0
 1647 085e 06       		.uleb128 0x6
 1648 085f A4070000 		.4byte	.LASF113
 1649 0863 12       		.byte	0x12
 1650 0864 3C       		.byte	0x3c
 1651 0865 53020000 		.4byte	0x253
 1652 0869 08       		.byte	0x8
 1653 086a 06       		.uleb128 0x6
ARM GAS  /tmp/cc5Sh9Px.s 			page 30


 1654 086b 5D010000 		.4byte	.LASF51
 1655 086f 12       		.byte	0x12
 1656 0870 3E       		.byte	0x3e
 1657 0871 AB080000 		.4byte	0x8ab
 1658 0875 0C       		.byte	0xc
 1659 0876 00       		.byte	0
 1660 0877 0A       		.uleb128 0xa
 1661 0878 04       		.byte	0x4
 1662 0879 46080000 		.4byte	0x846
 1663 087d 0A       		.uleb128 0xa
 1664 087e 04       		.byte	0x4
 1665 087f 83080000 		.4byte	0x883
 1666 0883 16       		.uleb128 0x16
 1667 0884 88080000 		.4byte	0x888
 1668 0888 04       		.uleb128 0x4
 1669 0889 01       		.byte	0x1
 1670 088a 08       		.byte	0x8
 1671 088b D1070000 		.4byte	.LASF114
 1672 088f 0A       		.uleb128 0xa
 1673 0890 04       		.byte	0x4
 1674 0891 8C050000 		.4byte	0x58c
 1675 0895 0A       		.uleb128 0xa
 1676 0896 04       		.byte	0x4
 1677 0897 32030000 		.4byte	0x332
 1678 089b 0F       		.uleb128 0xf
 1679 089c 7D080000 		.4byte	0x87d
 1680 08a0 03       		.uleb128 0x3
 1681 08a1 A2010000 		.4byte	.LASF115
 1682 08a5 12       		.byte	0x12
 1683 08a6 34       		.byte	0x34
 1684 08a7 46080000 		.4byte	0x846
 1685 08ab 0A       		.uleb128 0xa
 1686 08ac 04       		.byte	0x4
 1687 08ad A0080000 		.4byte	0x8a0
 1688 08b1 04       		.uleb128 0x4
 1689 08b2 01       		.byte	0x1
 1690 08b3 02       		.byte	0x2
 1691 08b4 C2060000 		.4byte	.LASF116
 1692 08b8 0A       		.uleb128 0xa
 1693 08b9 04       		.byte	0x4
 1694 08ba AD000000 		.4byte	0xad
 1695 08be 17       		.uleb128 0x17
 1696 08bf 88080000 		.4byte	0x888
 1697 08c3 CE080000 		.4byte	0x8ce
 1698 08c7 18       		.uleb128 0x18
 1699 08c8 7B040000 		.4byte	0x47b
 1700 08cc 07       		.byte	0x7
 1701 08cd 00       		.byte	0
 1702 08ce 10       		.uleb128 0x10
 1703 08cf 0C       		.byte	0xc
 1704 08d0 13       		.byte	0x13
 1705 08d1 A201     		.2byte	0x1a2
 1706 08d3 26090000 		.4byte	0x926
 1707 08d7 09       		.uleb128 0x9
 1708 08d8 C9000000 		.4byte	.LASF117
 1709 08dc 13       		.byte	0x13
 1710 08dd A301     		.2byte	0x1a3
ARM GAS  /tmp/cc5Sh9Px.s 			page 31


 1711 08df 26090000 		.4byte	0x926
 1712 08e3 00       		.byte	0
 1713 08e4 09       		.uleb128 0x9
 1714 08e5 7F070000 		.4byte	.LASF118
 1715 08e9 13       		.byte	0x13
 1716 08ea A401     		.2byte	0x1a4
 1717 08ec 2C090000 		.4byte	0x92c
 1718 08f0 04       		.byte	0x4
 1719 08f1 09       		.uleb128 0x9
 1720 08f2 95020000 		.4byte	.LASF119
 1721 08f6 13       		.byte	0x13
 1722 08f7 A801     		.2byte	0x1a8
 1723 08f9 AD000000 		.4byte	0xad
 1724 08fd 08       		.byte	0x8
 1725 08fe 09       		.uleb128 0x9
 1726 08ff 4F020000 		.4byte	.LASF120
 1727 0903 13       		.byte	0x13
 1728 0904 AA01     		.2byte	0x1aa
 1729 0906 AD000000 		.4byte	0xad
 1730 090a 09       		.byte	0x9
 1731 090b 09       		.uleb128 0x9
 1732 090c 8B020000 		.4byte	.LASF121
 1733 0910 13       		.byte	0x13
 1734 0911 AC01     		.2byte	0x1ac
 1735 0913 AD000000 		.4byte	0xad
 1736 0917 0A       		.byte	0xa
 1737 0918 09       		.uleb128 0x9
 1738 0919 86090000 		.4byte	.LASF122
 1739 091d 13       		.byte	0x13
 1740 091e AD01     		.2byte	0x1ad
 1741 0920 AD000000 		.4byte	0xad
 1742 0924 0B       		.byte	0xb
 1743 0925 00       		.byte	0
 1744 0926 0A       		.uleb128 0xa
 1745 0927 04       		.byte	0x4
 1746 0928 DE040000 		.4byte	0x4de
 1747 092c 0A       		.uleb128 0xa
 1748 092d 04       		.byte	0x4
 1749 092e 82040000 		.4byte	0x482
 1750 0932 11       		.uleb128 0x11
 1751 0933 71060000 		.4byte	.LASF123
 1752 0937 13       		.byte	0x13
 1753 0938 AE01     		.2byte	0x1ae
 1754 093a CE080000 		.4byte	0x8ce
 1755 093e 0A       		.uleb128 0xa
 1756 093f 04       		.byte	0x4
 1757 0940 44090000 		.4byte	0x944
 1758 0944 16       		.uleb128 0x16
 1759 0945 AD000000 		.4byte	0xad
 1760 0949 0A       		.uleb128 0xa
 1761 094a 04       		.byte	0x4
 1762 094b 4F090000 		.4byte	0x94f
 1763 094f 16       		.uleb128 0x16
 1764 0950 32090000 		.4byte	0x932
 1765 0954 19       		.uleb128 0x19
 1766 0955 01       		.byte	0x1
 1767 0956 14       		.byte	0x14
ARM GAS  /tmp/cc5Sh9Px.s 			page 32


 1768 0957 4C       		.byte	0x4c
 1769 0958 81090000 		.4byte	0x981
 1770 095c 1A       		.uleb128 0x1a
 1771 095d F2060000 		.4byte	.LASF124
 1772 0961 00       		.sleb128 0
 1773 0962 1A       		.uleb128 0x1a
 1774 0963 6A000000 		.4byte	.LASF125
 1775 0967 01       		.sleb128 1
 1776 0968 1A       		.uleb128 0x1a
 1777 0969 6B010000 		.4byte	.LASF126
 1778 096d 02       		.sleb128 2
 1779 096e 1A       		.uleb128 0x1a
 1780 096f 9A060000 		.4byte	.LASF127
 1781 0973 03       		.sleb128 3
 1782 0974 1A       		.uleb128 0x1a
 1783 0975 AA070000 		.4byte	.LASF128
 1784 0979 04       		.sleb128 4
 1785 097a 1A       		.uleb128 0x1a
 1786 097b 67070000 		.4byte	.LASF129
 1787 097f 05       		.sleb128 5
 1788 0980 00       		.byte	0
 1789 0981 03       		.uleb128 0x3
 1790 0982 3C060000 		.4byte	.LASF130
 1791 0986 14       		.byte	0x14
 1792 0987 53       		.byte	0x53
 1793 0988 54090000 		.4byte	0x954
 1794 098c 11       		.uleb128 0x11
 1795 098d 1D020000 		.4byte	.LASF131
 1796 0991 15       		.byte	0x15
 1797 0992 6E01     		.2byte	0x16e
 1798 0994 B8000000 		.4byte	0xb8
 1799 0998 11       		.uleb128 0x11
 1800 0999 A8060000 		.4byte	.LASF132
 1801 099d 15       		.byte	0x15
 1802 099e 7301     		.2byte	0x173
 1803 09a0 CE000000 		.4byte	0xce
 1804 09a4 1B       		.uleb128 0x1b
 1805 09a5 01       		.byte	0x1
 1806 09a6 15       		.byte	0x15
 1807 09a7 7801     		.2byte	0x178
 1808 09a9 C0090000 		.4byte	0x9c0
 1809 09ad 1A       		.uleb128 0x1a
 1810 09ae F8050000 		.4byte	.LASF133
 1811 09b2 01       		.sleb128 1
 1812 09b3 1A       		.uleb128 0x1a
 1813 09b4 0B040000 		.4byte	.LASF134
 1814 09b8 02       		.sleb128 2
 1815 09b9 1A       		.uleb128 0x1a
 1816 09ba 65020000 		.4byte	.LASF135
 1817 09be 03       		.sleb128 3
 1818 09bf 00       		.byte	0
 1819 09c0 11       		.uleb128 0x11
 1820 09c1 60090000 		.4byte	.LASF136
 1821 09c5 15       		.byte	0x15
 1822 09c6 7C01     		.2byte	0x17c
 1823 09c8 A4090000 		.4byte	0x9a4
 1824 09cc 1B       		.uleb128 0x1b
ARM GAS  /tmp/cc5Sh9Px.s 			page 33


 1825 09cd 01       		.byte	0x1
 1826 09ce 15       		.byte	0x15
 1827 09cf 8101     		.2byte	0x181
 1828 09d1 E8090000 		.4byte	0x9e8
 1829 09d5 1A       		.uleb128 0x1a
 1830 09d6 00000000 		.4byte	.LASF137
 1831 09da 01       		.sleb128 1
 1832 09db 1A       		.uleb128 0x1a
 1833 09dc 55070000 		.4byte	.LASF138
 1834 09e0 02       		.sleb128 2
 1835 09e1 1A       		.uleb128 0x1a
 1836 09e2 47060000 		.4byte	.LASF139
 1837 09e6 03       		.sleb128 3
 1838 09e7 00       		.byte	0
 1839 09e8 11       		.uleb128 0x11
 1840 09e9 15000000 		.4byte	.LASF140
 1841 09ed 15       		.byte	0x15
 1842 09ee 8501     		.2byte	0x185
 1843 09f0 CC090000 		.4byte	0x9cc
 1844 09f4 10       		.uleb128 0x10
 1845 09f5 0C       		.byte	0xc
 1846 09f6 15       		.byte	0x15
 1847 09f7 8A01     		.2byte	0x18a
 1848 09f9 250A0000 		.4byte	0xa25
 1849 09fd 09       		.uleb128 0x9
 1850 09fe EA060000 		.4byte	.LASF141
 1851 0a02 15       		.byte	0x15
 1852 0a03 8C01     		.2byte	0x18c
 1853 0a05 C0090000 		.4byte	0x9c0
 1854 0a09 00       		.byte	0
 1855 0a0a 09       		.uleb128 0x9
 1856 0a0b C2010000 		.4byte	.LASF142
 1857 0a0f 15       		.byte	0x15
 1858 0a10 8D01     		.2byte	0x18d
 1859 0a12 CE000000 		.4byte	0xce
 1860 0a16 04       		.byte	0x4
 1861 0a17 09       		.uleb128 0x9
 1862 0a18 89050000 		.4byte	.LASF143
 1863 0a1c 15       		.byte	0x15
 1864 0a1d 9001     		.2byte	0x190
 1865 0a1f E8090000 		.4byte	0x9e8
 1866 0a23 08       		.byte	0x8
 1867 0a24 00       		.byte	0
 1868 0a25 11       		.uleb128 0x11
 1869 0a26 B7080000 		.4byte	.LASF144
 1870 0a2a 15       		.byte	0x15
 1871 0a2b 9201     		.2byte	0x192
 1872 0a2d F4090000 		.4byte	0x9f4
 1873 0a31 11       		.uleb128 0x11
 1874 0a32 41040000 		.4byte	.LASF145
 1875 0a36 15       		.byte	0x15
 1876 0a37 9701     		.2byte	0x197
 1877 0a39 3D0A0000 		.4byte	0xa3d
 1878 0a3d 0B       		.uleb128 0xb
 1879 0a3e 41040000 		.4byte	.LASF145
 1880 0a42 38       		.byte	0x38
 1881 0a43 15       		.byte	0x15
ARM GAS  /tmp/cc5Sh9Px.s 			page 34


 1882 0a44 9C01     		.2byte	0x19c
 1883 0a46 DA0A0000 		.4byte	0xada
 1884 0a4a 09       		.uleb128 0x9
 1885 0a4b 27020000 		.4byte	.LASF37
 1886 0a4f 15       		.byte	0x15
 1887 0a50 A001     		.2byte	0x1a0
 1888 0a52 81090000 		.4byte	0x981
 1889 0a56 00       		.byte	0
 1890 0a57 09       		.uleb128 0x9
 1891 0a58 DC070000 		.4byte	.LASF146
 1892 0a5c 15       		.byte	0x15
 1893 0a5d A401     		.2byte	0x1a4
 1894 0a5f DA0A0000 		.4byte	0xada
 1895 0a63 04       		.byte	0x4
 1896 0a64 09       		.uleb128 0x9
 1897 0a65 E4030000 		.4byte	.LASF147
 1898 0a69 15       		.byte	0x15
 1899 0a6a A801     		.2byte	0x1a8
 1900 0a6c 98090000 		.4byte	0x998
 1901 0a70 08       		.byte	0x8
 1902 0a71 09       		.uleb128 0x9
 1903 0a72 B3060000 		.4byte	.LASF148
 1904 0a76 15       		.byte	0x15
 1905 0a77 AD01     		.2byte	0x1ad
 1906 0a79 A0080000 		.4byte	0x8a0
 1907 0a7d 0C       		.byte	0xc
 1908 0a7e 09       		.uleb128 0x9
 1909 0a7f 6C090000 		.4byte	.LASF149
 1910 0a83 15       		.byte	0x15
 1911 0a84 B601     		.2byte	0x1b6
 1912 0a86 48020000 		.4byte	0x248
 1913 0a8a 1C       		.byte	0x1c
 1914 0a8b 09       		.uleb128 0x9
 1915 0a8c F4010000 		.4byte	.LASF150
 1916 0a90 15       		.byte	0x15
 1917 0a91 BA01     		.2byte	0x1ba
 1918 0a93 8C090000 		.4byte	0x98c
 1919 0a97 20       		.byte	0x20
 1920 0a98 09       		.uleb128 0x9
 1921 0a99 55020000 		.4byte	.LASF151
 1922 0a9d 15       		.byte	0x15
 1923 0a9e BE01     		.2byte	0x1be
 1924 0aa0 CE000000 		.4byte	0xce
 1925 0aa4 24       		.byte	0x24
 1926 0aa5 09       		.uleb128 0x9
 1927 0aa6 AF020000 		.4byte	.LASF152
 1928 0aaa 15       		.byte	0x15
 1929 0aab C201     		.2byte	0x1c2
 1930 0aad CE000000 		.4byte	0xce
 1931 0ab1 28       		.byte	0x28
 1932 0ab2 09       		.uleb128 0x9
 1933 0ab3 0F000000 		.4byte	.LASF153
 1934 0ab7 15       		.byte	0x15
 1935 0ab8 C601     		.2byte	0x1c6
 1936 0aba 49090000 		.4byte	0x949
 1937 0abe 2C       		.byte	0x2c
 1938 0abf 09       		.uleb128 0x9
ARM GAS  /tmp/cc5Sh9Px.s 			page 35


 1939 0ac0 5F020000 		.4byte	.LASF154
 1940 0ac4 15       		.byte	0x15
 1941 0ac5 CA01     		.2byte	0x1ca
 1942 0ac7 49090000 		.4byte	0x949
 1943 0acb 30       		.byte	0x30
 1944 0acc 08       		.uleb128 0x8
 1945 0acd 69326300 		.ascii	"i2c\000"
 1946 0ad1 15       		.byte	0x15
 1947 0ad2 CE01     		.2byte	0x1ce
 1948 0ad4 E50A0000 		.4byte	0xae5
 1949 0ad8 34       		.byte	0x34
 1950 0ad9 00       		.byte	0
 1951 0ada 0A       		.uleb128 0xa
 1952 0adb 04       		.byte	0x4
 1953 0adc E00A0000 		.4byte	0xae0
 1954 0ae0 16       		.uleb128 0x16
 1955 0ae1 250A0000 		.4byte	0xa25
 1956 0ae5 0A       		.uleb128 0xa
 1957 0ae6 04       		.byte	0x4
 1958 0ae7 75050000 		.4byte	0x575
 1959 0aeb 1C       		.uleb128 0x1c
 1960 0aec 1F080000 		.4byte	.LASF157
 1961 0af0 03       		.byte	0x3
 1962 0af1 EB01     		.2byte	0x1eb
 1963 0af3 03       		.byte	0x3
 1964 0af4 050B0000 		.4byte	0xb05
 1965 0af8 1D       		.uleb128 0x1d
 1966 0af9 F9010000 		.4byte	.LASF159
 1967 0afd 03       		.byte	0x3
 1968 0afe EB01     		.2byte	0x1eb
 1969 0b00 CE000000 		.4byte	0xce
 1970 0b04 00       		.byte	0
 1971 0b05 1E       		.uleb128 0x1e
 1972 0b06 D0000000 		.4byte	.LASF155
 1973 0b0a 0E       		.byte	0xe
 1974 0b0b 5A02     		.2byte	0x25a
 1975 0b0d 03       		.byte	0x3
 1976 0b0e 1E       		.uleb128 0x1e
 1977 0b0f 08020000 		.4byte	.LASF156
 1978 0b13 0E       		.byte	0xe
 1979 0b14 7202     		.2byte	0x272
 1980 0b16 03       		.byte	0x3
 1981 0b17 1C       		.uleb128 0x1c
 1982 0b18 8E010000 		.4byte	.LASF158
 1983 0b1c 02       		.byte	0x2
 1984 0b1d CB03     		.2byte	0x3cb
 1985 0b1f 03       		.byte	0x3
 1986 0b20 300B0000 		.4byte	0xb30
 1987 0b24 1F       		.uleb128 0x1f
 1988 0b25 6D7000   		.ascii	"mp\000"
 1989 0b28 02       		.byte	0x2
 1990 0b29 CB03     		.2byte	0x3cb
 1991 0b2b AB080000 		.4byte	0x8ab
 1992 0b2f 00       		.byte	0
 1993 0b30 1E       		.uleb128 0x1e
 1994 0b31 A3020000 		.4byte	.LASF160
 1995 0b35 02       		.byte	0x2
ARM GAS  /tmp/cc5Sh9Px.s 			page 36


 1996 0b36 FD01     		.2byte	0x1fd
 1997 0b38 03       		.byte	0x3
 1998 0b39 1E       		.uleb128 0x1e
 1999 0b3a 37070000 		.4byte	.LASF161
 2000 0b3e 02       		.byte	0x2
 2001 0b3f 0802     		.2byte	0x208
 2002 0b41 03       		.byte	0x3
 2003 0b42 1C       		.uleb128 0x1c
 2004 0b43 2D080000 		.4byte	.LASF162
 2005 0b47 02       		.byte	0x2
 2006 0b48 DF03     		.2byte	0x3df
 2007 0b4a 03       		.byte	0x3
 2008 0b4b 5B0B0000 		.4byte	0xb5b
 2009 0b4f 1F       		.uleb128 0x1f
 2010 0b50 6D7000   		.ascii	"mp\000"
 2011 0b53 02       		.byte	0x2
 2012 0b54 DF03     		.2byte	0x3df
 2013 0b56 AB080000 		.4byte	0x8ab
 2014 0b5a 00       		.byte	0
 2015 0b5b 1C       		.uleb128 0x1c
 2016 0b5c E3070000 		.4byte	.LASF163
 2017 0b60 02       		.byte	0x2
 2018 0b61 F703     		.2byte	0x3f7
 2019 0b63 03       		.byte	0x3
 2020 0b64 740B0000 		.4byte	0xb74
 2021 0b68 1F       		.uleb128 0x1f
 2022 0b69 6D7000   		.ascii	"mp\000"
 2023 0b6c 02       		.byte	0x2
 2024 0b6d F703     		.2byte	0x3f7
 2025 0b6f AB080000 		.4byte	0x8ab
 2026 0b73 00       		.byte	0
 2027 0b74 20       		.uleb128 0x20
 2028 0b75 2A090000 		.4byte	.LASF164
 2029 0b79 01       		.byte	0x1
 2030 0b7a 3B       		.byte	0x3b
 2031 0b7b 00000000 		.4byte	.LFB323
 2032 0b7f 04000000 		.4byte	.LFE323-.LFB323
 2033 0b83 01       		.uleb128 0x1
 2034 0b84 9C       		.byte	0x9c
 2035 0b85 930B0000 		.4byte	0xb93
 2036 0b89 21       		.uleb128 0x21
 2037 0b8a 04000000 		.4byte	.LVL0
 2038 0b8e B5130000 		.4byte	0x13b5
 2039 0b92 00       		.byte	0
 2040 0b93 20       		.uleb128 0x20
 2041 0b94 BC050000 		.4byte	.LASF165
 2042 0b98 01       		.byte	0x1
 2043 0b99 47       		.byte	0x47
 2044 0b9a 00000000 		.4byte	.LFB324
 2045 0b9e 0E000000 		.4byte	.LFE324-.LFB324
 2046 0ba2 01       		.uleb128 0x1
 2047 0ba3 9C       		.byte	0x9c
 2048 0ba4 E40B0000 		.4byte	0xbe4
 2049 0ba8 22       		.uleb128 0x22
 2050 0ba9 58010000 		.4byte	.LASF169
 2051 0bad 01       		.byte	0x1
 2052 0bae 47       		.byte	0x47
ARM GAS  /tmp/cc5Sh9Px.s 			page 37


 2053 0baf E40B0000 		.4byte	0xbe4
 2054 0bb3 00000000 		.4byte	.LLST0
 2055 0bb7 23       		.uleb128 0x23
 2056 0bb8 170B0000 		.4byte	0xb17
 2057 0bbc 08000000 		.4byte	.LBB40
 2058 0bc0 06000000 		.4byte	.LBE40-.LBB40
 2059 0bc4 01       		.byte	0x1
 2060 0bc5 4D       		.byte	0x4d
 2061 0bc6 24       		.uleb128 0x24
 2062 0bc7 240B0000 		.4byte	0xb24
 2063 0bcb 2E000000 		.4byte	.LLST1
 2064 0bcf 25       		.uleb128 0x25
 2065 0bd0 0E000000 		.4byte	.LVL4
 2066 0bd4 BD130000 		.4byte	0x13bd
 2067 0bd8 26       		.uleb128 0x26
 2068 0bd9 01       		.uleb128 0x1
 2069 0bda 50       		.byte	0x50
 2070 0bdb 05       		.uleb128 0x5
 2071 0bdc F3       		.byte	0xf3
 2072 0bdd 01       		.uleb128 0x1
 2073 0bde 50       		.byte	0x50
 2074 0bdf 23       		.byte	0x23
 2075 0be0 0C       		.uleb128 0xc
 2076 0be1 00       		.byte	0
 2077 0be2 00       		.byte	0
 2078 0be3 00       		.byte	0
 2079 0be4 0A       		.uleb128 0xa
 2080 0be5 04       		.byte	0x4
 2081 0be6 310A0000 		.4byte	0xa31
 2082 0bea 1E       		.uleb128 0x1e
 2083 0beb 2D070000 		.4byte	.LASF166
 2084 0bef 04       		.byte	0x4
 2085 0bf0 6101     		.2byte	0x161
 2086 0bf2 03       		.byte	0x3
 2087 0bf3 1C       		.uleb128 0x1c
 2088 0bf4 E0000000 		.4byte	.LASF167
 2089 0bf8 04       		.byte	0x4
 2090 0bf9 6D01     		.2byte	0x16d
 2091 0bfb 03       		.byte	0x3
 2092 0bfc 0E0C0000 		.4byte	0xc0e
 2093 0c00 27       		.uleb128 0x27
 2094 0c01 24070000 		.4byte	.LASF171
 2095 0c05 1E0C0000 		.4byte	0xc1e
 2096 0c09 E0000000 		.4byte	.LASF167
 2097 0c0d 00       		.byte	0
 2098 0c0e 17       		.uleb128 0x17
 2099 0c0f 88080000 		.4byte	0x888
 2100 0c13 1E0C0000 		.4byte	0xc1e
 2101 0c17 18       		.uleb128 0x18
 2102 0c18 7B040000 		.4byte	0x47b
 2103 0c1c 0B       		.byte	0xb
 2104 0c1d 00       		.byte	0
 2105 0c1e 16       		.uleb128 0x16
 2106 0c1f 0E0C0000 		.4byte	0xc0e
 2107 0c23 20       		.uleb128 0x20
 2108 0c24 55050000 		.4byte	.LASF168
 2109 0c28 01       		.byte	0x1
ARM GAS  /tmp/cc5Sh9Px.s 			page 38


 2110 0c29 5D       		.byte	0x5d
 2111 0c2a 00000000 		.4byte	.LFB325
 2112 0c2e 28000000 		.4byte	.LFE325-.LFB325
 2113 0c32 01       		.uleb128 0x1
 2114 0c33 9C       		.byte	0x9c
 2115 0c34 330D0000 		.4byte	0xd33
 2116 0c38 22       		.uleb128 0x22
 2117 0c39 58010000 		.4byte	.LASF169
 2118 0c3d 01       		.byte	0x1
 2119 0c3e 5D       		.byte	0x5d
 2120 0c3f E40B0000 		.4byte	0xbe4
 2121 0c43 5E000000 		.4byte	.LLST2
 2122 0c47 22       		.uleb128 0x22
 2123 0c48 DC070000 		.4byte	.LASF146
 2124 0c4c 01       		.byte	0x1
 2125 0c4d 5D       		.byte	0x5d
 2126 0c4e DA0A0000 		.4byte	0xada
 2127 0c52 7C000000 		.4byte	.LLST3
 2128 0c56 28       		.uleb128 0x28
 2129 0c57 24070000 		.4byte	.LASF171
 2130 0c5b 430D0000 		.4byte	0xd43
 2131 0c5f 29       		.uleb128 0x29
 2132 0c60 300B0000 		.4byte	0xb30
 2133 0c64 06000000 		.4byte	.LBB56
 2134 0c68 0A000000 		.4byte	.LBE56-.LBB56
 2135 0c6c 01       		.byte	0x1
 2136 0c6d 63       		.byte	0x63
 2137 0c6e B90C0000 		.4byte	0xcb9
 2138 0c72 2A       		.uleb128 0x2a
 2139 0c73 EA0B0000 		.4byte	0xbea
 2140 0c77 06000000 		.4byte	.LBB57
 2141 0c7b 0A000000 		.4byte	.LBE57-.LBB57
 2142 0c7f 02       		.byte	0x2
 2143 0c80 FF01     		.2byte	0x1ff
 2144 0c82 2B       		.uleb128 0x2b
 2145 0c83 050B0000 		.4byte	0xb05
 2146 0c87 06000000 		.4byte	.LBB59
 2147 0c8b 06000000 		.4byte	.LBE59-.LBB59
 2148 0c8f 04       		.byte	0x4
 2149 0c90 6301     		.2byte	0x163
 2150 0c92 AE0C0000 		.4byte	0xcae
 2151 0c96 2A       		.uleb128 0x2a
 2152 0c97 EB0A0000 		.4byte	0xaeb
 2153 0c9b 06000000 		.4byte	.LBB60
 2154 0c9f 06000000 		.4byte	.LBE60-.LBB60
 2155 0ca3 0E       		.byte	0xe
 2156 0ca4 6202     		.2byte	0x262
 2157 0ca6 2C       		.uleb128 0x2c
 2158 0ca7 F80A0000 		.4byte	0xaf8
 2159 0cab 20       		.byte	0x20
 2160 0cac 00       		.byte	0
 2161 0cad 00       		.byte	0
 2162 0cae 2D       		.uleb128 0x2d
 2163 0caf 10000000 		.4byte	.LVL6
 2164 0cb3 CE130000 		.4byte	0x13ce
 2165 0cb7 00       		.byte	0
 2166 0cb8 00       		.byte	0
ARM GAS  /tmp/cc5Sh9Px.s 			page 39


 2167 0cb9 29       		.uleb128 0x29
 2168 0cba 390B0000 		.4byte	0xb39
 2169 0cbe 1C000000 		.4byte	.LBB62
 2170 0cc2 0C000000 		.4byte	.LBE62-.LBB62
 2171 0cc6 01       		.byte	0x1
 2172 0cc7 67       		.byte	0x67
 2173 0cc8 220D0000 		.4byte	0xd22
 2174 0ccc 2A       		.uleb128 0x2a
 2175 0ccd F30B0000 		.4byte	0xbf3
 2176 0cd1 1C000000 		.4byte	.LBB63
 2177 0cd5 0C000000 		.4byte	.LBE63-.LBB63
 2178 0cd9 02       		.byte	0x2
 2179 0cda 0A02     		.2byte	0x20a
 2180 0cdc 2E       		.uleb128 0x2e
 2181 0cdd 1C000000 		.4byte	.LBB64
 2182 0ce1 0C000000 		.4byte	.LBE64-.LBB64
 2183 0ce5 2F       		.uleb128 0x2f
 2184 0ce6 000C0000 		.4byte	0xc00
 2185 0cea 2B       		.uleb128 0x2b
 2186 0ceb 0E0B0000 		.4byte	0xb0e
 2187 0cef 20000000 		.4byte	.LBB65
 2188 0cf3 08000000 		.4byte	.LBE65-.LBB65
 2189 0cf7 04       		.byte	0x4
 2190 0cf8 7A01     		.2byte	0x17a
 2191 0cfa 160D0000 		.4byte	0xd16
 2192 0cfe 2A       		.uleb128 0x2a
 2193 0cff EB0A0000 		.4byte	0xaeb
 2194 0d03 20000000 		.4byte	.LBB66
 2195 0d07 08000000 		.4byte	.LBE66-.LBB66
 2196 0d0b 0E       		.byte	0xe
 2197 0d0c 7502     		.2byte	0x275
 2198 0d0e 2C       		.uleb128 0x2c
 2199 0d0f F80A0000 		.4byte	0xaf8
 2200 0d13 00       		.byte	0
 2201 0d14 00       		.byte	0
 2202 0d15 00       		.byte	0
 2203 0d16 2D       		.uleb128 0x2d
 2204 0d17 20000000 		.4byte	.LVL8
 2205 0d1b D5130000 		.4byte	0x13d5
 2206 0d1f 00       		.byte	0
 2207 0d20 00       		.byte	0
 2208 0d21 00       		.byte	0
 2209 0d22 30       		.uleb128 0x30
 2210 0d23 18000000 		.4byte	.LVL7
 2211 0d27 DC130000 		.4byte	0x13dc
 2212 0d2b 26       		.uleb128 0x26
 2213 0d2c 01       		.uleb128 0x1
 2214 0d2d 50       		.byte	0x50
 2215 0d2e 02       		.uleb128 0x2
 2216 0d2f 74       		.byte	0x74
 2217 0d30 00       		.sleb128 0
 2218 0d31 00       		.byte	0
 2219 0d32 00       		.byte	0
 2220 0d33 17       		.uleb128 0x17
 2221 0d34 88080000 		.4byte	0x888
 2222 0d38 430D0000 		.4byte	0xd43
 2223 0d3c 18       		.uleb128 0x18
ARM GAS  /tmp/cc5Sh9Px.s 			page 40


 2224 0d3d 7B040000 		.4byte	0x47b
 2225 0d41 08       		.byte	0x8
 2226 0d42 00       		.byte	0
 2227 0d43 16       		.uleb128 0x16
 2228 0d44 330D0000 		.4byte	0xd33
 2229 0d48 20       		.uleb128 0x20
 2230 0d49 DE060000 		.4byte	.LASF170
 2231 0d4d 01       		.byte	0x1
 2232 0d4e 71       		.byte	0x71
 2233 0d4f 00000000 		.4byte	.LFB326
 2234 0d53 26000000 		.4byte	.LFE326-.LFB326
 2235 0d57 01       		.uleb128 0x1
 2236 0d58 9C       		.byte	0x9c
 2237 0d59 490E0000 		.4byte	0xe49
 2238 0d5d 22       		.uleb128 0x22
 2239 0d5e 58010000 		.4byte	.LASF169
 2240 0d62 01       		.byte	0x1
 2241 0d63 71       		.byte	0x71
 2242 0d64 E40B0000 		.4byte	0xbe4
 2243 0d68 9A000000 		.4byte	.LLST4
 2244 0d6c 28       		.uleb128 0x28
 2245 0d6d 24070000 		.4byte	.LASF171
 2246 0d71 490E0000 		.4byte	0xe49
 2247 0d75 29       		.uleb128 0x29
 2248 0d76 300B0000 		.4byte	0xb30
 2249 0d7a 04000000 		.4byte	.LBB82
 2250 0d7e 0A000000 		.4byte	.LBE82-.LBB82
 2251 0d82 01       		.byte	0x1
 2252 0d83 75       		.byte	0x75
 2253 0d84 CF0D0000 		.4byte	0xdcf
 2254 0d88 2A       		.uleb128 0x2a
 2255 0d89 EA0B0000 		.4byte	0xbea
 2256 0d8d 04000000 		.4byte	.LBB83
 2257 0d91 0A000000 		.4byte	.LBE83-.LBB83
 2258 0d95 02       		.byte	0x2
 2259 0d96 FF01     		.2byte	0x1ff
 2260 0d98 2B       		.uleb128 0x2b
 2261 0d99 050B0000 		.4byte	0xb05
 2262 0d9d 04000000 		.4byte	.LBB85
 2263 0da1 06000000 		.4byte	.LBE85-.LBB85
 2264 0da5 04       		.byte	0x4
 2265 0da6 6301     		.2byte	0x163
 2266 0da8 C40D0000 		.4byte	0xdc4
 2267 0dac 2A       		.uleb128 0x2a
 2268 0dad EB0A0000 		.4byte	0xaeb
 2269 0db1 04000000 		.4byte	.LBB86
 2270 0db5 06000000 		.4byte	.LBE86-.LBB86
 2271 0db9 0E       		.byte	0xe
 2272 0dba 6202     		.2byte	0x262
 2273 0dbc 2C       		.uleb128 0x2c
 2274 0dbd F80A0000 		.4byte	0xaf8
 2275 0dc1 20       		.byte	0x20
 2276 0dc2 00       		.byte	0
 2277 0dc3 00       		.byte	0
 2278 0dc4 2D       		.uleb128 0x2d
 2279 0dc5 0E000000 		.4byte	.LVL10
 2280 0dc9 CE130000 		.4byte	0x13ce
ARM GAS  /tmp/cc5Sh9Px.s 			page 41


 2281 0dcd 00       		.byte	0
 2282 0dce 00       		.byte	0
 2283 0dcf 29       		.uleb128 0x29
 2284 0dd0 390B0000 		.4byte	0xb39
 2285 0dd4 1C000000 		.4byte	.LBB88
 2286 0dd8 0A000000 		.4byte	.LBE88-.LBB88
 2287 0ddc 01       		.byte	0x1
 2288 0ddd 7E       		.byte	0x7e
 2289 0dde 380E0000 		.4byte	0xe38
 2290 0de2 2A       		.uleb128 0x2a
 2291 0de3 F30B0000 		.4byte	0xbf3
 2292 0de7 1C000000 		.4byte	.LBB89
 2293 0deb 0A000000 		.4byte	.LBE89-.LBB89
 2294 0def 02       		.byte	0x2
 2295 0df0 0A02     		.2byte	0x20a
 2296 0df2 2E       		.uleb128 0x2e
 2297 0df3 1C000000 		.4byte	.LBB90
 2298 0df7 0A000000 		.4byte	.LBE90-.LBB90
 2299 0dfb 2F       		.uleb128 0x2f
 2300 0dfc 000C0000 		.4byte	0xc00
 2301 0e00 2B       		.uleb128 0x2b
 2302 0e01 0E0B0000 		.4byte	0xb0e
 2303 0e05 20000000 		.4byte	.LBB91
 2304 0e09 06000000 		.4byte	.LBE91-.LBB91
 2305 0e0d 04       		.byte	0x4
 2306 0e0e 7A01     		.2byte	0x17a
 2307 0e10 2C0E0000 		.4byte	0xe2c
 2308 0e14 2A       		.uleb128 0x2a
 2309 0e15 EB0A0000 		.4byte	0xaeb
 2310 0e19 20000000 		.4byte	.LBB92
 2311 0e1d 06000000 		.4byte	.LBE92-.LBB92
 2312 0e21 0E       		.byte	0xe
 2313 0e22 7502     		.2byte	0x275
 2314 0e24 2C       		.uleb128 0x2c
 2315 0e25 F80A0000 		.4byte	0xaf8
 2316 0e29 00       		.byte	0
 2317 0e2a 00       		.byte	0
 2318 0e2b 00       		.byte	0
 2319 0e2c 2D       		.uleb128 0x2d
 2320 0e2d 20000000 		.4byte	.LVL12
 2321 0e31 D5130000 		.4byte	0x13d5
 2322 0e35 00       		.byte	0
 2323 0e36 00       		.byte	0
 2324 0e37 00       		.byte	0
 2325 0e38 30       		.uleb128 0x30
 2326 0e39 14000000 		.4byte	.LVL11
 2327 0e3d EE130000 		.4byte	0x13ee
 2328 0e41 26       		.uleb128 0x26
 2329 0e42 01       		.uleb128 0x1
 2330 0e43 50       		.byte	0x50
 2331 0e44 02       		.uleb128 0x2
 2332 0e45 74       		.byte	0x74
 2333 0e46 00       		.sleb128 0
 2334 0e47 00       		.byte	0
 2335 0e48 00       		.byte	0
 2336 0e49 16       		.uleb128 0x16
 2337 0e4a 0E0C0000 		.4byte	0xc0e
ARM GAS  /tmp/cc5Sh9Px.s 			page 42


 2338 0e4e 20       		.uleb128 0x20
 2339 0e4f D2050000 		.4byte	.LASF172
 2340 0e53 01       		.byte	0x1
 2341 0e54 88       		.byte	0x88
 2342 0e55 00000000 		.4byte	.LFB327
 2343 0e59 26000000 		.4byte	.LFE327-.LFB327
 2344 0e5d 01       		.uleb128 0x1
 2345 0e5e 9C       		.byte	0x9c
 2346 0e5f 4F0F0000 		.4byte	0xf4f
 2347 0e63 22       		.uleb128 0x22
 2348 0e64 58010000 		.4byte	.LASF169
 2349 0e68 01       		.byte	0x1
 2350 0e69 88       		.byte	0x88
 2351 0e6a E40B0000 		.4byte	0xbe4
 2352 0e6e B8000000 		.4byte	.LLST5
 2353 0e72 28       		.uleb128 0x28
 2354 0e73 24070000 		.4byte	.LASF171
 2355 0e77 4F0F0000 		.4byte	0xf4f
 2356 0e7b 29       		.uleb128 0x29
 2357 0e7c 300B0000 		.4byte	0xb30
 2358 0e80 04000000 		.4byte	.LBB108
 2359 0e84 0A000000 		.4byte	.LBE108-.LBB108
 2360 0e88 01       		.byte	0x1
 2361 0e89 8C       		.byte	0x8c
 2362 0e8a D50E0000 		.4byte	0xed5
 2363 0e8e 2A       		.uleb128 0x2a
 2364 0e8f EA0B0000 		.4byte	0xbea
 2365 0e93 04000000 		.4byte	.LBB109
 2366 0e97 0A000000 		.4byte	.LBE109-.LBB109
 2367 0e9b 02       		.byte	0x2
 2368 0e9c FF01     		.2byte	0x1ff
 2369 0e9e 2B       		.uleb128 0x2b
 2370 0e9f 050B0000 		.4byte	0xb05
 2371 0ea3 04000000 		.4byte	.LBB111
 2372 0ea7 06000000 		.4byte	.LBE111-.LBB111
 2373 0eab 04       		.byte	0x4
 2374 0eac 6301     		.2byte	0x163
 2375 0eae CA0E0000 		.4byte	0xeca
 2376 0eb2 2A       		.uleb128 0x2a
 2377 0eb3 EB0A0000 		.4byte	0xaeb
 2378 0eb7 04000000 		.4byte	.LBB112
 2379 0ebb 06000000 		.4byte	.LBE112-.LBB112
 2380 0ebf 0E       		.byte	0xe
 2381 0ec0 6202     		.2byte	0x262
 2382 0ec2 2C       		.uleb128 0x2c
 2383 0ec3 F80A0000 		.4byte	0xaf8
 2384 0ec7 20       		.byte	0x20
 2385 0ec8 00       		.byte	0
 2386 0ec9 00       		.byte	0
 2387 0eca 2D       		.uleb128 0x2d
 2388 0ecb 0E000000 		.4byte	.LVL14
 2389 0ecf CE130000 		.4byte	0x13ce
 2390 0ed3 00       		.byte	0
 2391 0ed4 00       		.byte	0
 2392 0ed5 29       		.uleb128 0x29
 2393 0ed6 390B0000 		.4byte	0xb39
 2394 0eda 1C000000 		.4byte	.LBB114
ARM GAS  /tmp/cc5Sh9Px.s 			page 43


 2395 0ede 0A000000 		.4byte	.LBE114-.LBB114
 2396 0ee2 01       		.byte	0x1
 2397 0ee3 95       		.byte	0x95
 2398 0ee4 3E0F0000 		.4byte	0xf3e
 2399 0ee8 2A       		.uleb128 0x2a
 2400 0ee9 F30B0000 		.4byte	0xbf3
 2401 0eed 1C000000 		.4byte	.LBB115
 2402 0ef1 0A000000 		.4byte	.LBE115-.LBB115
 2403 0ef5 02       		.byte	0x2
 2404 0ef6 0A02     		.2byte	0x20a
 2405 0ef8 2E       		.uleb128 0x2e
 2406 0ef9 1C000000 		.4byte	.LBB116
 2407 0efd 0A000000 		.4byte	.LBE116-.LBB116
 2408 0f01 2F       		.uleb128 0x2f
 2409 0f02 000C0000 		.4byte	0xc00
 2410 0f06 2B       		.uleb128 0x2b
 2411 0f07 0E0B0000 		.4byte	0xb0e
 2412 0f0b 20000000 		.4byte	.LBB117
 2413 0f0f 06000000 		.4byte	.LBE117-.LBB117
 2414 0f13 04       		.byte	0x4
 2415 0f14 7A01     		.2byte	0x17a
 2416 0f16 320F0000 		.4byte	0xf32
 2417 0f1a 2A       		.uleb128 0x2a
 2418 0f1b EB0A0000 		.4byte	0xaeb
 2419 0f1f 20000000 		.4byte	.LBB118
 2420 0f23 06000000 		.4byte	.LBE118-.LBB118
 2421 0f27 0E       		.byte	0xe
 2422 0f28 7502     		.2byte	0x275
 2423 0f2a 2C       		.uleb128 0x2c
 2424 0f2b F80A0000 		.4byte	0xaf8
 2425 0f2f 00       		.byte	0
 2426 0f30 00       		.byte	0
 2427 0f31 00       		.byte	0
 2428 0f32 2D       		.uleb128 0x2d
 2429 0f33 20000000 		.4byte	.LVL16
 2430 0f37 D5130000 		.4byte	0x13d5
 2431 0f3b 00       		.byte	0
 2432 0f3c 00       		.byte	0
 2433 0f3d 00       		.byte	0
 2434 0f3e 30       		.uleb128 0x30
 2435 0f3f 14000000 		.4byte	.LVL15
 2436 0f43 00140000 		.4byte	0x1400
 2437 0f47 26       		.uleb128 0x26
 2438 0f48 01       		.uleb128 0x1
 2439 0f49 50       		.byte	0x50
 2440 0f4a 02       		.uleb128 0x2
 2441 0f4b 74       		.byte	0x74
 2442 0f4c 00       		.sleb128 0
 2443 0f4d 00       		.byte	0
 2444 0f4e 00       		.byte	0
 2445 0f4f 16       		.uleb128 0x16
 2446 0f50 BE080000 		.4byte	0x8be
 2447 0f54 31       		.uleb128 0x31
 2448 0f55 06070000 		.4byte	.LASF173
 2449 0f59 01       		.byte	0x1
 2450 0f5a A0       		.byte	0xa0
 2451 0f5b 98090000 		.4byte	0x998
ARM GAS  /tmp/cc5Sh9Px.s 			page 44


 2452 0f5f 00000000 		.4byte	.LFB328
 2453 0f63 04000000 		.4byte	.LFE328-.LFB328
 2454 0f67 01       		.uleb128 0x1
 2455 0f68 9C       		.byte	0x9c
 2456 0f69 860F0000 		.4byte	0xf86
 2457 0f6d 22       		.uleb128 0x22
 2458 0f6e 58010000 		.4byte	.LASF169
 2459 0f72 01       		.byte	0x1
 2460 0f73 A0       		.byte	0xa0
 2461 0f74 E40B0000 		.4byte	0xbe4
 2462 0f78 D6000000 		.4byte	.LLST6
 2463 0f7c 28       		.uleb128 0x28
 2464 0f7d 24070000 		.4byte	.LASF171
 2465 0f81 960F0000 		.4byte	0xf96
 2466 0f85 00       		.byte	0
 2467 0f86 17       		.uleb128 0x17
 2468 0f87 88080000 		.4byte	0x888
 2469 0f8b 960F0000 		.4byte	0xf96
 2470 0f8f 18       		.uleb128 0x18
 2471 0f90 7B040000 		.4byte	0x47b
 2472 0f94 0C       		.byte	0xc
 2473 0f95 00       		.byte	0
 2474 0f96 16       		.uleb128 0x16
 2475 0f97 860F0000 		.4byte	0xf86
 2476 0f9b 31       		.uleb128 0x31
 2477 0f9c 75010000 		.4byte	.LASF174
 2478 0fa0 01       		.byte	0x1
 2479 0fa1 C1       		.byte	0xc1
 2480 0fa2 26010000 		.4byte	0x126
 2481 0fa6 00000000 		.4byte	.LFB329
 2482 0faa 52000000 		.4byte	.LFE329-.LFB329
 2483 0fae 01       		.uleb128 0x1
 2484 0faf 9C       		.byte	0x9c
 2485 0fb0 30110000 		.4byte	0x1130
 2486 0fb4 22       		.uleb128 0x22
 2487 0fb5 58010000 		.4byte	.LASF169
 2488 0fb9 01       		.byte	0x1
 2489 0fba C1       		.byte	0xc1
 2490 0fbb E40B0000 		.4byte	0xbe4
 2491 0fbf F7000000 		.4byte	.LLST7
 2492 0fc3 22       		.uleb128 0x22
 2493 0fc4 F4010000 		.4byte	.LASF150
 2494 0fc8 01       		.byte	0x1
 2495 0fc9 C2       		.byte	0xc2
 2496 0fca 8C090000 		.4byte	0x98c
 2497 0fce 15010000 		.4byte	.LLST8
 2498 0fd2 22       		.uleb128 0x22
 2499 0fd3 D7030000 		.4byte	.LASF175
 2500 0fd7 01       		.byte	0x1
 2501 0fd8 C3       		.byte	0xc3
 2502 0fd9 3E090000 		.4byte	0x93e
 2503 0fdd 36010000 		.4byte	.LLST9
 2504 0fe1 22       		.uleb128 0x22
 2505 0fe2 08060000 		.4byte	.LASF176
 2506 0fe6 01       		.byte	0x1
 2507 0fe7 C4       		.byte	0xc4
 2508 0fe8 2C000000 		.4byte	0x2c
ARM GAS  /tmp/cc5Sh9Px.s 			page 45


 2509 0fec 54010000 		.4byte	.LLST10
 2510 0ff0 32       		.uleb128 0x32
 2511 0ff1 CE010000 		.4byte	.LASF177
 2512 0ff5 01       		.byte	0x1
 2513 0ff6 C5       		.byte	0xc5
 2514 0ff7 B8080000 		.4byte	0x8b8
 2515 0ffb 02       		.uleb128 0x2
 2516 0ffc 91       		.byte	0x91
 2517 0ffd 00       		.sleb128 0
 2518 0ffe 32       		.uleb128 0x32
 2519 0fff CA050000 		.4byte	.LASF178
 2520 1003 01       		.byte	0x1
 2521 1004 C6       		.byte	0xc6
 2522 1005 2C000000 		.4byte	0x2c
 2523 1009 02       		.uleb128 0x2
 2524 100a 91       		.byte	0x91
 2525 100b 04       		.sleb128 4
 2526 100c 32       		.uleb128 0x32
 2527 100d F1030000 		.4byte	.LASF179
 2528 1011 01       		.byte	0x1
 2529 1012 C7       		.byte	0xc7
 2530 1013 70040000 		.4byte	0x470
 2531 1017 02       		.uleb128 0x2
 2532 1018 91       		.byte	0x91
 2533 1019 08       		.sleb128 8
 2534 101a 33       		.uleb128 0x33
 2535 101b 43000000 		.4byte	.LASF103
 2536 101f 01       		.byte	0x1
 2537 1020 C8       		.byte	0xc8
 2538 1021 26010000 		.4byte	0x126
 2539 1025 80010000 		.4byte	.LLST11
 2540 1029 28       		.uleb128 0x28
 2541 102a 24070000 		.4byte	.LASF171
 2542 102e 40110000 		.4byte	0x1140
 2543 1032 29       		.uleb128 0x29
 2544 1033 300B0000 		.4byte	0xb30
 2545 1037 0C000000 		.4byte	.LBB134
 2546 103b 0A000000 		.4byte	.LBE134-.LBB134
 2547 103f 01       		.byte	0x1
 2548 1040 D1       		.byte	0xd1
 2549 1041 8C100000 		.4byte	0x108c
 2550 1045 2A       		.uleb128 0x2a
 2551 1046 EA0B0000 		.4byte	0xbea
 2552 104a 0C000000 		.4byte	.LBB135
 2553 104e 0A000000 		.4byte	.LBE135-.LBB135
 2554 1052 02       		.byte	0x2
 2555 1053 FF01     		.2byte	0x1ff
 2556 1055 2B       		.uleb128 0x2b
 2557 1056 050B0000 		.4byte	0xb05
 2558 105a 0C000000 		.4byte	.LBB137
 2559 105e 06000000 		.4byte	.LBE137-.LBB137
 2560 1062 04       		.byte	0x4
 2561 1063 6301     		.2byte	0x163
 2562 1065 81100000 		.4byte	0x1081
 2563 1069 2A       		.uleb128 0x2a
 2564 106a EB0A0000 		.4byte	0xaeb
 2565 106e 0C000000 		.4byte	.LBB138
ARM GAS  /tmp/cc5Sh9Px.s 			page 46


 2566 1072 06000000 		.4byte	.LBE138-.LBB138
 2567 1076 0E       		.byte	0xe
 2568 1077 6202     		.2byte	0x262
 2569 1079 2C       		.uleb128 0x2c
 2570 107a F80A0000 		.4byte	0xaf8
 2571 107e 20       		.byte	0x20
 2572 107f 00       		.byte	0
 2573 1080 00       		.byte	0
 2574 1081 2D       		.uleb128 0x2d
 2575 1082 16000000 		.4byte	.LVL21
 2576 1086 CE130000 		.4byte	0x13ce
 2577 108a 00       		.byte	0
 2578 108b 00       		.byte	0
 2579 108c 29       		.uleb128 0x29
 2580 108d 390B0000 		.4byte	0xb39
 2581 1091 42000000 		.4byte	.LBB140
 2582 1095 08000000 		.4byte	.LBE140-.LBB140
 2583 1099 01       		.byte	0x1
 2584 109a DC       		.byte	0xdc
 2585 109b F5100000 		.4byte	0x10f5
 2586 109f 2A       		.uleb128 0x2a
 2587 10a0 F30B0000 		.4byte	0xbf3
 2588 10a4 42000000 		.4byte	.LBB141
 2589 10a8 08000000 		.4byte	.LBE141-.LBB141
 2590 10ac 02       		.byte	0x2
 2591 10ad 0A02     		.2byte	0x20a
 2592 10af 2E       		.uleb128 0x2e
 2593 10b0 42000000 		.4byte	.LBB142
 2594 10b4 08000000 		.4byte	.LBE142-.LBB142
 2595 10b8 2F       		.uleb128 0x2f
 2596 10b9 000C0000 		.4byte	0xc00
 2597 10bd 2B       		.uleb128 0x2b
 2598 10be 0E0B0000 		.4byte	0xb0e
 2599 10c2 46000000 		.4byte	.LBB143
 2600 10c6 04000000 		.4byte	.LBE143-.LBB143
 2601 10ca 04       		.byte	0x4
 2602 10cb 7A01     		.2byte	0x17a
 2603 10cd E9100000 		.4byte	0x10e9
 2604 10d1 2A       		.uleb128 0x2a
 2605 10d2 EB0A0000 		.4byte	0xaeb
 2606 10d6 46000000 		.4byte	.LBB144
 2607 10da 04000000 		.4byte	.LBE144-.LBB144
 2608 10de 0E       		.byte	0xe
 2609 10df 7502     		.2byte	0x275
 2610 10e1 2C       		.uleb128 0x2c
 2611 10e2 F80A0000 		.4byte	0xaf8
 2612 10e6 00       		.byte	0
 2613 10e7 00       		.byte	0
 2614 10e8 00       		.byte	0
 2615 10e9 2D       		.uleb128 0x2d
 2616 10ea 46000000 		.4byte	.LVL24
 2617 10ee D5130000 		.4byte	0x13d5
 2618 10f2 00       		.byte	0
 2619 10f3 00       		.byte	0
 2620 10f4 00       		.byte	0
 2621 10f5 30       		.uleb128 0x30
 2622 10f6 36000000 		.4byte	.LVL22
ARM GAS  /tmp/cc5Sh9Px.s 			page 47


 2623 10fa 12140000 		.4byte	0x1412
 2624 10fe 26       		.uleb128 0x26
 2625 10ff 01       		.uleb128 0x1
 2626 1100 53       		.byte	0x53
 2627 1101 02       		.uleb128 0x2
 2628 1102 76       		.byte	0x76
 2629 1103 00       		.sleb128 0
 2630 1104 26       		.uleb128 0x26
 2631 1105 01       		.uleb128 0x1
 2632 1106 52       		.byte	0x52
 2633 1107 02       		.uleb128 0x2
 2634 1108 77       		.byte	0x77
 2635 1109 00       		.sleb128 0
 2636 110a 26       		.uleb128 0x26
 2637 110b 01       		.uleb128 0x1
 2638 110c 51       		.byte	0x51
 2639 110d 02       		.uleb128 0x2
 2640 110e 78       		.byte	0x78
 2641 110f 00       		.sleb128 0
 2642 1110 26       		.uleb128 0x26
 2643 1111 01       		.uleb128 0x1
 2644 1112 50       		.byte	0x50
 2645 1113 02       		.uleb128 0x2
 2646 1114 74       		.byte	0x74
 2647 1115 00       		.sleb128 0
 2648 1116 26       		.uleb128 0x26
 2649 1117 02       		.uleb128 0x2
 2650 1118 7D       		.byte	0x7d
 2651 1119 08       		.sleb128 8
 2652 111a 03       		.uleb128 0x3
 2653 111b 91       		.byte	0x91
 2654 111c 08       		.sleb128 8
 2655 111d 06       		.byte	0x6
 2656 111e 26       		.uleb128 0x26
 2657 111f 02       		.uleb128 0x2
 2658 1120 7D       		.byte	0x7d
 2659 1121 04       		.sleb128 4
 2660 1122 03       		.uleb128 0x3
 2661 1123 91       		.byte	0x91
 2662 1124 04       		.sleb128 4
 2663 1125 06       		.byte	0x6
 2664 1126 26       		.uleb128 0x26
 2665 1127 02       		.uleb128 0x2
 2666 1128 7D       		.byte	0x7d
 2667 1129 00       		.sleb128 0
 2668 112a 03       		.uleb128 0x3
 2669 112b 91       		.byte	0x91
 2670 112c 00       		.sleb128 0
 2671 112d 06       		.byte	0x6
 2672 112e 00       		.byte	0
 2673 112f 00       		.byte	0
 2674 1130 17       		.uleb128 0x17
 2675 1131 88080000 		.4byte	0x888
 2676 1135 40110000 		.4byte	0x1140
 2677 1139 18       		.uleb128 0x18
 2678 113a 7B040000 		.4byte	0x47b
 2679 113e 18       		.byte	0x18
ARM GAS  /tmp/cc5Sh9Px.s 			page 48


 2680 113f 00       		.byte	0
 2681 1140 16       		.uleb128 0x16
 2682 1141 30110000 		.4byte	0x1130
 2683 1145 31       		.uleb128 0x31
 2684 1146 FC080000 		.4byte	.LASF180
 2685 114a 01       		.byte	0x1
 2686 114b F4       		.byte	0xf4
 2687 114c 26010000 		.4byte	0x126
 2688 1150 00000000 		.4byte	.LFB330
 2689 1154 4A000000 		.4byte	.LFE330-.LFB330
 2690 1158 01       		.uleb128 0x1
 2691 1159 9C       		.byte	0x9c
 2692 115a B0120000 		.4byte	0x12b0
 2693 115e 22       		.uleb128 0x22
 2694 115f 58010000 		.4byte	.LASF169
 2695 1163 01       		.byte	0x1
 2696 1164 F4       		.byte	0xf4
 2697 1165 E40B0000 		.4byte	0xbe4
 2698 1169 9E010000 		.4byte	.LLST12
 2699 116d 22       		.uleb128 0x22
 2700 116e F4010000 		.4byte	.LASF150
 2701 1172 01       		.byte	0x1
 2702 1173 F5       		.byte	0xf5
 2703 1174 8C090000 		.4byte	0x98c
 2704 1178 BC010000 		.4byte	.LLST13
 2705 117c 22       		.uleb128 0x22
 2706 117d CE010000 		.4byte	.LASF177
 2707 1181 01       		.byte	0x1
 2708 1182 F6       		.byte	0xf6
 2709 1183 B8080000 		.4byte	0x8b8
 2710 1187 DD010000 		.4byte	.LLST14
 2711 118b 22       		.uleb128 0x22
 2712 118c CA050000 		.4byte	.LASF178
 2713 1190 01       		.byte	0x1
 2714 1191 F7       		.byte	0xf7
 2715 1192 2C000000 		.4byte	0x2c
 2716 1196 FB010000 		.4byte	.LLST15
 2717 119a 32       		.uleb128 0x32
 2718 119b F1030000 		.4byte	.LASF179
 2719 119f 01       		.byte	0x1
 2720 11a0 F8       		.byte	0xf8
 2721 11a1 70040000 		.4byte	0x470
 2722 11a5 02       		.uleb128 0x2
 2723 11a6 91       		.byte	0x91
 2724 11a7 00       		.sleb128 0
 2725 11a8 33       		.uleb128 0x33
 2726 11a9 43000000 		.4byte	.LASF103
 2727 11ad 01       		.byte	0x1
 2728 11ae FA       		.byte	0xfa
 2729 11af 26010000 		.4byte	0x126
 2730 11b3 27020000 		.4byte	.LLST16
 2731 11b7 28       		.uleb128 0x28
 2732 11b8 24070000 		.4byte	.LASF171
 2733 11bc C0120000 		.4byte	0x12c0
 2734 11c0 2B       		.uleb128 0x2b
 2735 11c1 300B0000 		.4byte	0xb30
 2736 11c5 0C000000 		.4byte	.LBB160
ARM GAS  /tmp/cc5Sh9Px.s 			page 49


 2737 11c9 0A000000 		.4byte	.LBE160-.LBB160
 2738 11cd 01       		.byte	0x1
 2739 11ce 0201     		.2byte	0x102
 2740 11d0 1B120000 		.4byte	0x121b
 2741 11d4 2A       		.uleb128 0x2a
 2742 11d5 EA0B0000 		.4byte	0xbea
 2743 11d9 0C000000 		.4byte	.LBB161
 2744 11dd 0A000000 		.4byte	.LBE161-.LBB161
 2745 11e1 02       		.byte	0x2
 2746 11e2 FF01     		.2byte	0x1ff
 2747 11e4 2B       		.uleb128 0x2b
 2748 11e5 050B0000 		.4byte	0xb05
 2749 11e9 0C000000 		.4byte	.LBB163
 2750 11ed 06000000 		.4byte	.LBE163-.LBB163
 2751 11f1 04       		.byte	0x4
 2752 11f2 6301     		.2byte	0x163
 2753 11f4 10120000 		.4byte	0x1210
 2754 11f8 2A       		.uleb128 0x2a
 2755 11f9 EB0A0000 		.4byte	0xaeb
 2756 11fd 0C000000 		.4byte	.LBB164
 2757 1201 06000000 		.4byte	.LBE164-.LBB164
 2758 1205 0E       		.byte	0xe
 2759 1206 6202     		.2byte	0x262
 2760 1208 2C       		.uleb128 0x2c
 2761 1209 F80A0000 		.4byte	0xaf8
 2762 120d 20       		.byte	0x20
 2763 120e 00       		.byte	0
 2764 120f 00       		.byte	0
 2765 1210 2D       		.uleb128 0x2d
 2766 1211 16000000 		.4byte	.LVL27
 2767 1215 CE130000 		.4byte	0x13ce
 2768 1219 00       		.byte	0
 2769 121a 00       		.byte	0
 2770 121b 2B       		.uleb128 0x2b
 2771 121c 390B0000 		.4byte	0xb39
 2772 1220 3A000000 		.4byte	.LBB166
 2773 1224 08000000 		.4byte	.LBE166-.LBB166
 2774 1228 01       		.byte	0x1
 2775 1229 0C01     		.2byte	0x10c
 2776 122b 85120000 		.4byte	0x1285
 2777 122f 2A       		.uleb128 0x2a
 2778 1230 F30B0000 		.4byte	0xbf3
 2779 1234 3A000000 		.4byte	.LBB167
 2780 1238 08000000 		.4byte	.LBE167-.LBB167
 2781 123c 02       		.byte	0x2
 2782 123d 0A02     		.2byte	0x20a
 2783 123f 2E       		.uleb128 0x2e
 2784 1240 3A000000 		.4byte	.LBB168
 2785 1244 08000000 		.4byte	.LBE168-.LBB168
 2786 1248 2F       		.uleb128 0x2f
 2787 1249 000C0000 		.4byte	0xc00
 2788 124d 2B       		.uleb128 0x2b
 2789 124e 0E0B0000 		.4byte	0xb0e
 2790 1252 3E000000 		.4byte	.LBB169
 2791 1256 04000000 		.4byte	.LBE169-.LBB169
 2792 125a 04       		.byte	0x4
 2793 125b 7A01     		.2byte	0x17a
ARM GAS  /tmp/cc5Sh9Px.s 			page 50


 2794 125d 79120000 		.4byte	0x1279
 2795 1261 2A       		.uleb128 0x2a
 2796 1262 EB0A0000 		.4byte	0xaeb
 2797 1266 3E000000 		.4byte	.LBB170
 2798 126a 04000000 		.4byte	.LBE170-.LBB170
 2799 126e 0E       		.byte	0xe
 2800 126f 7502     		.2byte	0x275
 2801 1271 2C       		.uleb128 0x2c
 2802 1272 F80A0000 		.4byte	0xaf8
 2803 1276 00       		.byte	0
 2804 1277 00       		.byte	0
 2805 1278 00       		.byte	0
 2806 1279 2D       		.uleb128 0x2d
 2807 127a 3E000000 		.4byte	.LVL30
 2808 127e D5130000 		.4byte	0x13d5
 2809 1282 00       		.byte	0
 2810 1283 00       		.byte	0
 2811 1284 00       		.byte	0
 2812 1285 30       		.uleb128 0x30
 2813 1286 2E000000 		.4byte	.LVL28
 2814 128a 46140000 		.4byte	0x1446
 2815 128e 26       		.uleb128 0x26
 2816 128f 01       		.uleb128 0x1
 2817 1290 53       		.byte	0x53
 2818 1291 02       		.uleb128 0x2
 2819 1292 76       		.byte	0x76
 2820 1293 00       		.sleb128 0
 2821 1294 26       		.uleb128 0x26
 2822 1295 01       		.uleb128 0x1
 2823 1296 52       		.byte	0x52
 2824 1297 02       		.uleb128 0x2
 2825 1298 77       		.byte	0x77
 2826 1299 00       		.sleb128 0
 2827 129a 26       		.uleb128 0x26
 2828 129b 01       		.uleb128 0x1
 2829 129c 51       		.byte	0x51
 2830 129d 02       		.uleb128 0x2
 2831 129e 78       		.byte	0x78
 2832 129f 00       		.sleb128 0
 2833 12a0 26       		.uleb128 0x26
 2834 12a1 01       		.uleb128 0x1
 2835 12a2 50       		.byte	0x50
 2836 12a3 02       		.uleb128 0x2
 2837 12a4 74       		.byte	0x74
 2838 12a5 00       		.sleb128 0
 2839 12a6 26       		.uleb128 0x26
 2840 12a7 02       		.uleb128 0x2
 2841 12a8 7D       		.byte	0x7d
 2842 12a9 00       		.sleb128 0
 2843 12aa 03       		.uleb128 0x3
 2844 12ab 91       		.byte	0x91
 2845 12ac 00       		.sleb128 0
 2846 12ad 06       		.byte	0x6
 2847 12ae 00       		.byte	0
 2848 12af 00       		.byte	0
 2849 12b0 17       		.uleb128 0x17
 2850 12b1 88080000 		.4byte	0x888
ARM GAS  /tmp/cc5Sh9Px.s 			page 51


 2851 12b5 C0120000 		.4byte	0x12c0
 2852 12b9 18       		.uleb128 0x18
 2853 12ba 7B040000 		.4byte	0x47b
 2854 12be 17       		.byte	0x17
 2855 12bf 00       		.byte	0
 2856 12c0 16       		.uleb128 0x16
 2857 12c1 B0120000 		.4byte	0x12b0
 2858 12c5 34       		.uleb128 0x34
 2859 12c6 84060000 		.4byte	.LASF181
 2860 12ca 01       		.byte	0x1
 2861 12cb 1C01     		.2byte	0x11c
 2862 12cd 00000000 		.4byte	.LFB331
 2863 12d1 06000000 		.4byte	.LFE331-.LFB331
 2864 12d5 01       		.uleb128 0x1
 2865 12d6 9C       		.byte	0x9c
 2866 12d7 22130000 		.4byte	0x1322
 2867 12db 35       		.uleb128 0x35
 2868 12dc 58010000 		.4byte	.LASF169
 2869 12e0 01       		.byte	0x1
 2870 12e1 1C01     		.2byte	0x11c
 2871 12e3 E40B0000 		.4byte	0xbe4
 2872 12e7 45020000 		.4byte	.LLST17
 2873 12eb 28       		.uleb128 0x28
 2874 12ec 24070000 		.4byte	.LASF171
 2875 12f0 32130000 		.4byte	0x1332
 2876 12f4 2A       		.uleb128 0x2a
 2877 12f5 420B0000 		.4byte	0xb42
 2878 12f9 00000000 		.4byte	.LBB172
 2879 12fd 06000000 		.4byte	.LBE172-.LBB172
 2880 1301 01       		.byte	0x1
 2881 1302 2001     		.2byte	0x120
 2882 1304 24       		.uleb128 0x24
 2883 1305 4F0B0000 		.4byte	0xb4f
 2884 1309 73020000 		.4byte	.LLST18
 2885 130d 25       		.uleb128 0x25
 2886 130e 06000000 		.4byte	.LVL33
 2887 1312 70140000 		.4byte	0x1470
 2888 1316 26       		.uleb128 0x26
 2889 1317 01       		.uleb128 0x1
 2890 1318 50       		.byte	0x50
 2891 1319 05       		.uleb128 0x5
 2892 131a F3       		.byte	0xf3
 2893 131b 01       		.uleb128 0x1
 2894 131c 50       		.byte	0x50
 2895 131d 23       		.byte	0x23
 2896 131e 0C       		.uleb128 0xc
 2897 131f 00       		.byte	0
 2898 1320 00       		.byte	0
 2899 1321 00       		.byte	0
 2900 1322 17       		.uleb128 0x17
 2901 1323 88080000 		.4byte	0x888
 2902 1327 32130000 		.4byte	0x1332
 2903 132b 18       		.uleb128 0x18
 2904 132c 7B040000 		.4byte	0x47b
 2905 1330 0D       		.byte	0xd
 2906 1331 00       		.byte	0
 2907 1332 16       		.uleb128 0x16
ARM GAS  /tmp/cc5Sh9Px.s 			page 52


 2908 1333 22130000 		.4byte	0x1322
 2909 1337 34       		.uleb128 0x34
 2910 1338 1F010000 		.4byte	.LASF182
 2911 133c 01       		.byte	0x1
 2912 133d 2C01     		.2byte	0x12c
 2913 133f 00000000 		.4byte	.LFB332
 2914 1343 06000000 		.4byte	.LFE332-.LFB332
 2915 1347 01       		.uleb128 0x1
 2916 1348 9C       		.byte	0x9c
 2917 1349 94130000 		.4byte	0x1394
 2918 134d 35       		.uleb128 0x35
 2919 134e 58010000 		.4byte	.LASF169
 2920 1352 01       		.byte	0x1
 2921 1353 2C01     		.2byte	0x12c
 2922 1355 E40B0000 		.4byte	0xbe4
 2923 1359 A3020000 		.4byte	.LLST19
 2924 135d 28       		.uleb128 0x28
 2925 135e 24070000 		.4byte	.LASF171
 2926 1362 94130000 		.4byte	0x1394
 2927 1366 2A       		.uleb128 0x2a
 2928 1367 5B0B0000 		.4byte	0xb5b
 2929 136b 00000000 		.4byte	.LBB174
 2930 136f 06000000 		.4byte	.LBE174-.LBB174
 2931 1373 01       		.byte	0x1
 2932 1374 3001     		.2byte	0x130
 2933 1376 24       		.uleb128 0x24
 2934 1377 680B0000 		.4byte	0xb68
 2935 137b D1020000 		.4byte	.LLST20
 2936 137f 25       		.uleb128 0x25
 2937 1380 06000000 		.4byte	.LVL36
 2938 1384 81140000 		.4byte	0x1481
 2939 1388 26       		.uleb128 0x26
 2940 1389 01       		.uleb128 0x1
 2941 138a 50       		.byte	0x50
 2942 138b 05       		.uleb128 0x5
 2943 138c F3       		.byte	0xf3
 2944 138d 01       		.uleb128 0x1
 2945 138e 50       		.byte	0x50
 2946 138f 23       		.byte	0x23
 2947 1390 0C       		.uleb128 0xc
 2948 1391 00       		.byte	0
 2949 1392 00       		.byte	0
 2950 1393 00       		.byte	0
 2951 1394 16       		.uleb128 0x16
 2952 1395 22130000 		.4byte	0x1322
 2953 1399 36       		.uleb128 0x36
 2954 139a 4B010000 		.4byte	.LASF183
 2955 139e 16       		.byte	0x16
 2956 139f 0408     		.2byte	0x804
 2957 13a1 A5130000 		.4byte	0x13a5
 2958 13a5 0F       		.uleb128 0xf
 2959 13a6 C3000000 		.4byte	0xc3
 2960 13aa 37       		.uleb128 0x37
 2961 13ab 636800   		.ascii	"ch\000"
 2962 13ae 0A       		.byte	0xa
 2963 13af C701     		.2byte	0x1c7
 2964 13b1 FF030000 		.4byte	0x3ff
ARM GAS  /tmp/cc5Sh9Px.s 			page 53


 2965 13b5 38       		.uleb128 0x38
 2966 13b6 D1080000 		.4byte	.LASF184
 2967 13ba 15       		.byte	0x15
 2968 13bb F301     		.2byte	0x1f3
 2969 13bd 39       		.uleb128 0x39
 2970 13be 45070000 		.4byte	.LASF187
 2971 13c2 12       		.byte	0x12
 2972 13c3 66       		.byte	0x66
 2973 13c4 CE130000 		.4byte	0x13ce
 2974 13c8 0D       		.uleb128 0xd
 2975 13c9 AB080000 		.4byte	0x8ab
 2976 13cd 00       		.byte	0
 2977 13ce 3A       		.uleb128 0x3a
 2978 13cf 94050000 		.4byte	.LASF185
 2979 13d3 10       		.byte	0x10
 2980 13d4 4F       		.byte	0x4f
 2981 13d5 3A       		.uleb128 0x3a
 2982 13d6 05050000 		.4byte	.LASF186
 2983 13da 10       		.byte	0x10
 2984 13db 50       		.byte	0x50
 2985 13dc 3B       		.uleb128 0x3b
 2986 13dd F7040000 		.4byte	.LASF188
 2987 13e1 15       		.byte	0x15
 2988 13e2 F401     		.2byte	0x1f4
 2989 13e4 EE130000 		.4byte	0x13ee
 2990 13e8 0D       		.uleb128 0xd
 2991 13e9 E40B0000 		.4byte	0xbe4
 2992 13ed 00       		.byte	0
 2993 13ee 3B       		.uleb128 0x3b
 2994 13ef 32090000 		.4byte	.LASF189
 2995 13f3 15       		.byte	0x15
 2996 13f4 F601     		.2byte	0x1f6
 2997 13f6 00140000 		.4byte	0x1400
 2998 13fa 0D       		.uleb128 0xd
 2999 13fb E40B0000 		.4byte	0xbe4
 3000 13ff 00       		.byte	0
 3001 1400 3B       		.uleb128 0x3b
 3002 1401 E1040000 		.4byte	.LASF190
 3003 1405 15       		.byte	0x15
 3004 1406 F501     		.2byte	0x1f5
 3005 1408 12140000 		.4byte	0x1412
 3006 140c 0D       		.uleb128 0xd
 3007 140d E40B0000 		.4byte	0xbe4
 3008 1411 00       		.byte	0
 3009 1412 3C       		.uleb128 0x3c
 3010 1413 D4010000 		.4byte	.LASF191
 3011 1417 15       		.byte	0x15
 3012 1418 F701     		.2byte	0x1f7
 3013 141a 26010000 		.4byte	0x126
 3014 141e 46140000 		.4byte	0x1446
 3015 1422 0D       		.uleb128 0xd
 3016 1423 E40B0000 		.4byte	0xbe4
 3017 1427 0D       		.uleb128 0xd
 3018 1428 8C090000 		.4byte	0x98c
 3019 142c 0D       		.uleb128 0xd
 3020 142d 3E090000 		.4byte	0x93e
 3021 1431 0D       		.uleb128 0xd
ARM GAS  /tmp/cc5Sh9Px.s 			page 54


 3022 1432 2C000000 		.4byte	0x2c
 3023 1436 0D       		.uleb128 0xd
 3024 1437 B8080000 		.4byte	0x8b8
 3025 143b 0D       		.uleb128 0xd
 3026 143c 2C000000 		.4byte	0x2c
 3027 1440 0D       		.uleb128 0xd
 3028 1441 70040000 		.4byte	0x470
 3029 1445 00       		.byte	0
 3030 1446 3C       		.uleb128 0x3c
 3031 1447 A4000000 		.4byte	.LASF192
 3032 144b 15       		.byte	0x15
 3033 144c FB01     		.2byte	0x1fb
 3034 144e 26010000 		.4byte	0x126
 3035 1452 70140000 		.4byte	0x1470
 3036 1456 0D       		.uleb128 0xd
 3037 1457 E40B0000 		.4byte	0xbe4
 3038 145b 0D       		.uleb128 0xd
 3039 145c 8C090000 		.4byte	0x98c
 3040 1460 0D       		.uleb128 0xd
 3041 1461 B8080000 		.4byte	0x8b8
 3042 1465 0D       		.uleb128 0xd
 3043 1466 2C000000 		.4byte	0x2c
 3044 146a 0D       		.uleb128 0xd
 3045 146b 70040000 		.4byte	0x470
 3046 146f 00       		.byte	0
 3047 1470 39       		.uleb128 0x39
 3048 1471 B2050000 		.4byte	.LASF193
 3049 1475 12       		.byte	0x12
 3050 1476 67       		.byte	0x67
 3051 1477 81140000 		.4byte	0x1481
 3052 147b 0D       		.uleb128 0xd
 3053 147c AB080000 		.4byte	0x8ab
 3054 1480 00       		.byte	0
 3055 1481 3D       		.uleb128 0x3d
 3056 1482 AA010000 		.4byte	.LASF197
 3057 1486 12       		.byte	0x12
 3058 1487 6B       		.byte	0x6b
 3059 1488 0D       		.uleb128 0xd
 3060 1489 AB080000 		.4byte	0x8ab
 3061 148d 00       		.byte	0
 3062 148e 00       		.byte	0
 3063              		.section	.debug_abbrev,"",%progbits
 3064              	.Ldebug_abbrev0:
 3065 0000 01       		.uleb128 0x1
 3066 0001 11       		.uleb128 0x11
 3067 0002 01       		.byte	0x1
 3068 0003 25       		.uleb128 0x25
 3069 0004 0E       		.uleb128 0xe
 3070 0005 13       		.uleb128 0x13
 3071 0006 0B       		.uleb128 0xb
 3072 0007 03       		.uleb128 0x3
 3073 0008 0E       		.uleb128 0xe
 3074 0009 1B       		.uleb128 0x1b
 3075 000a 0E       		.uleb128 0xe
 3076 000b 55       		.uleb128 0x55
 3077 000c 17       		.uleb128 0x17
 3078 000d 11       		.uleb128 0x11
ARM GAS  /tmp/cc5Sh9Px.s 			page 55


 3079 000e 01       		.uleb128 0x1
 3080 000f 10       		.uleb128 0x10
 3081 0010 17       		.uleb128 0x17
 3082 0011 00       		.byte	0
 3083 0012 00       		.byte	0
 3084 0013 02       		.uleb128 0x2
 3085 0014 24       		.uleb128 0x24
 3086 0015 00       		.byte	0
 3087 0016 0B       		.uleb128 0xb
 3088 0017 0B       		.uleb128 0xb
 3089 0018 3E       		.uleb128 0x3e
 3090 0019 0B       		.uleb128 0xb
 3091 001a 03       		.uleb128 0x3
 3092 001b 08       		.uleb128 0x8
 3093 001c 00       		.byte	0
 3094 001d 00       		.byte	0
 3095 001e 03       		.uleb128 0x3
 3096 001f 16       		.uleb128 0x16
 3097 0020 00       		.byte	0
 3098 0021 03       		.uleb128 0x3
 3099 0022 0E       		.uleb128 0xe
 3100 0023 3A       		.uleb128 0x3a
 3101 0024 0B       		.uleb128 0xb
 3102 0025 3B       		.uleb128 0x3b
 3103 0026 0B       		.uleb128 0xb
 3104 0027 49       		.uleb128 0x49
 3105 0028 13       		.uleb128 0x13
 3106 0029 00       		.byte	0
 3107 002a 00       		.byte	0
 3108 002b 04       		.uleb128 0x4
 3109 002c 24       		.uleb128 0x24
 3110 002d 00       		.byte	0
 3111 002e 0B       		.uleb128 0xb
 3112 002f 0B       		.uleb128 0xb
 3113 0030 3E       		.uleb128 0x3e
 3114 0031 0B       		.uleb128 0xb
 3115 0032 03       		.uleb128 0x3
 3116 0033 0E       		.uleb128 0xe
 3117 0034 00       		.byte	0
 3118 0035 00       		.byte	0
 3119 0036 05       		.uleb128 0x5
 3120 0037 13       		.uleb128 0x13
 3121 0038 01       		.byte	0x1
 3122 0039 03       		.uleb128 0x3
 3123 003a 0E       		.uleb128 0xe
 3124 003b 0B       		.uleb128 0xb
 3125 003c 0B       		.uleb128 0xb
 3126 003d 3A       		.uleb128 0x3a
 3127 003e 0B       		.uleb128 0xb
 3128 003f 3B       		.uleb128 0x3b
 3129 0040 0B       		.uleb128 0xb
 3130 0041 01       		.uleb128 0x1
 3131 0042 13       		.uleb128 0x13
 3132 0043 00       		.byte	0
 3133 0044 00       		.byte	0
 3134 0045 06       		.uleb128 0x6
 3135 0046 0D       		.uleb128 0xd
ARM GAS  /tmp/cc5Sh9Px.s 			page 56


 3136 0047 00       		.byte	0
 3137 0048 03       		.uleb128 0x3
 3138 0049 0E       		.uleb128 0xe
 3139 004a 3A       		.uleb128 0x3a
 3140 004b 0B       		.uleb128 0xb
 3141 004c 3B       		.uleb128 0x3b
 3142 004d 0B       		.uleb128 0xb
 3143 004e 49       		.uleb128 0x49
 3144 004f 13       		.uleb128 0x13
 3145 0050 38       		.uleb128 0x38
 3146 0051 0B       		.uleb128 0xb
 3147 0052 00       		.byte	0
 3148 0053 00       		.byte	0
 3149 0054 07       		.uleb128 0x7
 3150 0055 0D       		.uleb128 0xd
 3151 0056 00       		.byte	0
 3152 0057 03       		.uleb128 0x3
 3153 0058 08       		.uleb128 0x8
 3154 0059 3A       		.uleb128 0x3a
 3155 005a 0B       		.uleb128 0xb
 3156 005b 3B       		.uleb128 0x3b
 3157 005c 0B       		.uleb128 0xb
 3158 005d 49       		.uleb128 0x49
 3159 005e 13       		.uleb128 0x13
 3160 005f 38       		.uleb128 0x38
 3161 0060 0B       		.uleb128 0xb
 3162 0061 00       		.byte	0
 3163 0062 00       		.byte	0
 3164 0063 08       		.uleb128 0x8
 3165 0064 0D       		.uleb128 0xd
 3166 0065 00       		.byte	0
 3167 0066 03       		.uleb128 0x3
 3168 0067 08       		.uleb128 0x8
 3169 0068 3A       		.uleb128 0x3a
 3170 0069 0B       		.uleb128 0xb
 3171 006a 3B       		.uleb128 0x3b
 3172 006b 05       		.uleb128 0x5
 3173 006c 49       		.uleb128 0x49
 3174 006d 13       		.uleb128 0x13
 3175 006e 38       		.uleb128 0x38
 3176 006f 0B       		.uleb128 0xb
 3177 0070 00       		.byte	0
 3178 0071 00       		.byte	0
 3179 0072 09       		.uleb128 0x9
 3180 0073 0D       		.uleb128 0xd
 3181 0074 00       		.byte	0
 3182 0075 03       		.uleb128 0x3
 3183 0076 0E       		.uleb128 0xe
 3184 0077 3A       		.uleb128 0x3a
 3185 0078 0B       		.uleb128 0xb
 3186 0079 3B       		.uleb128 0x3b
 3187 007a 05       		.uleb128 0x5
 3188 007b 49       		.uleb128 0x49
 3189 007c 13       		.uleb128 0x13
 3190 007d 38       		.uleb128 0x38
 3191 007e 0B       		.uleb128 0xb
 3192 007f 00       		.byte	0
ARM GAS  /tmp/cc5Sh9Px.s 			page 57


 3193 0080 00       		.byte	0
 3194 0081 0A       		.uleb128 0xa
 3195 0082 0F       		.uleb128 0xf
 3196 0083 00       		.byte	0
 3197 0084 0B       		.uleb128 0xb
 3198 0085 0B       		.uleb128 0xb
 3199 0086 49       		.uleb128 0x49
 3200 0087 13       		.uleb128 0x13
 3201 0088 00       		.byte	0
 3202 0089 00       		.byte	0
 3203 008a 0B       		.uleb128 0xb
 3204 008b 13       		.uleb128 0x13
 3205 008c 01       		.byte	0x1
 3206 008d 03       		.uleb128 0x3
 3207 008e 0E       		.uleb128 0xe
 3208 008f 0B       		.uleb128 0xb
 3209 0090 0B       		.uleb128 0xb
 3210 0091 3A       		.uleb128 0x3a
 3211 0092 0B       		.uleb128 0xb
 3212 0093 3B       		.uleb128 0x3b
 3213 0094 05       		.uleb128 0x5
 3214 0095 01       		.uleb128 0x1
 3215 0096 13       		.uleb128 0x13
 3216 0097 00       		.byte	0
 3217 0098 00       		.byte	0
 3218 0099 0C       		.uleb128 0xc
 3219 009a 15       		.uleb128 0x15
 3220 009b 01       		.byte	0x1
 3221 009c 27       		.uleb128 0x27
 3222 009d 19       		.uleb128 0x19
 3223 009e 01       		.uleb128 0x1
 3224 009f 13       		.uleb128 0x13
 3225 00a0 00       		.byte	0
 3226 00a1 00       		.byte	0
 3227 00a2 0D       		.uleb128 0xd
 3228 00a3 05       		.uleb128 0x5
 3229 00a4 00       		.byte	0
 3230 00a5 49       		.uleb128 0x49
 3231 00a6 13       		.uleb128 0x13
 3232 00a7 00       		.byte	0
 3233 00a8 00       		.byte	0
 3234 00a9 0E       		.uleb128 0xe
 3235 00aa 0F       		.uleb128 0xf
 3236 00ab 00       		.byte	0
 3237 00ac 0B       		.uleb128 0xb
 3238 00ad 0B       		.uleb128 0xb
 3239 00ae 00       		.byte	0
 3240 00af 00       		.byte	0
 3241 00b0 0F       		.uleb128 0xf
 3242 00b1 35       		.uleb128 0x35
 3243 00b2 00       		.byte	0
 3244 00b3 49       		.uleb128 0x49
 3245 00b4 13       		.uleb128 0x13
 3246 00b5 00       		.byte	0
 3247 00b6 00       		.byte	0
 3248 00b7 10       		.uleb128 0x10
 3249 00b8 13       		.uleb128 0x13
ARM GAS  /tmp/cc5Sh9Px.s 			page 58


 3250 00b9 01       		.byte	0x1
 3251 00ba 0B       		.uleb128 0xb
 3252 00bb 0B       		.uleb128 0xb
 3253 00bc 3A       		.uleb128 0x3a
 3254 00bd 0B       		.uleb128 0xb
 3255 00be 3B       		.uleb128 0x3b
 3256 00bf 05       		.uleb128 0x5
 3257 00c0 01       		.uleb128 0x1
 3258 00c1 13       		.uleb128 0x13
 3259 00c2 00       		.byte	0
 3260 00c3 00       		.byte	0
 3261 00c4 11       		.uleb128 0x11
 3262 00c5 16       		.uleb128 0x16
 3263 00c6 00       		.byte	0
 3264 00c7 03       		.uleb128 0x3
 3265 00c8 0E       		.uleb128 0xe
 3266 00c9 3A       		.uleb128 0x3a
 3267 00ca 0B       		.uleb128 0xb
 3268 00cb 3B       		.uleb128 0x3b
 3269 00cc 05       		.uleb128 0x5
 3270 00cd 49       		.uleb128 0x49
 3271 00ce 13       		.uleb128 0x13
 3272 00cf 00       		.byte	0
 3273 00d0 00       		.byte	0
 3274 00d1 12       		.uleb128 0x12
 3275 00d2 13       		.uleb128 0x13
 3276 00d3 01       		.byte	0x1
 3277 00d4 0B       		.uleb128 0xb
 3278 00d5 0B       		.uleb128 0xb
 3279 00d6 3A       		.uleb128 0x3a
 3280 00d7 0B       		.uleb128 0xb
 3281 00d8 3B       		.uleb128 0x3b
 3282 00d9 0B       		.uleb128 0xb
 3283 00da 01       		.uleb128 0x1
 3284 00db 13       		.uleb128 0x13
 3285 00dc 00       		.byte	0
 3286 00dd 00       		.byte	0
 3287 00de 13       		.uleb128 0x13
 3288 00df 17       		.uleb128 0x17
 3289 00e0 01       		.byte	0x1
 3290 00e1 0B       		.uleb128 0xb
 3291 00e2 0B       		.uleb128 0xb
 3292 00e3 3A       		.uleb128 0x3a
 3293 00e4 0B       		.uleb128 0xb
 3294 00e5 3B       		.uleb128 0x3b
 3295 00e6 0B       		.uleb128 0xb
 3296 00e7 01       		.uleb128 0x1
 3297 00e8 13       		.uleb128 0x13
 3298 00e9 00       		.byte	0
 3299 00ea 00       		.byte	0
 3300 00eb 14       		.uleb128 0x14
 3301 00ec 0D       		.uleb128 0xd
 3302 00ed 00       		.byte	0
 3303 00ee 03       		.uleb128 0x3
 3304 00ef 0E       		.uleb128 0xe
 3305 00f0 3A       		.uleb128 0x3a
 3306 00f1 0B       		.uleb128 0xb
ARM GAS  /tmp/cc5Sh9Px.s 			page 59


 3307 00f2 3B       		.uleb128 0x3b
 3308 00f3 0B       		.uleb128 0xb
 3309 00f4 49       		.uleb128 0x49
 3310 00f5 13       		.uleb128 0x13
 3311 00f6 00       		.byte	0
 3312 00f7 00       		.byte	0
 3313 00f8 15       		.uleb128 0x15
 3314 00f9 0D       		.uleb128 0xd
 3315 00fa 00       		.byte	0
 3316 00fb 03       		.uleb128 0x3
 3317 00fc 0E       		.uleb128 0xe
 3318 00fd 3A       		.uleb128 0x3a
 3319 00fe 0B       		.uleb128 0xb
 3320 00ff 3B       		.uleb128 0x3b
 3321 0100 05       		.uleb128 0x5
 3322 0101 49       		.uleb128 0x49
 3323 0102 13       		.uleb128 0x13
 3324 0103 00       		.byte	0
 3325 0104 00       		.byte	0
 3326 0105 16       		.uleb128 0x16
 3327 0106 26       		.uleb128 0x26
 3328 0107 00       		.byte	0
 3329 0108 49       		.uleb128 0x49
 3330 0109 13       		.uleb128 0x13
 3331 010a 00       		.byte	0
 3332 010b 00       		.byte	0
 3333 010c 17       		.uleb128 0x17
 3334 010d 01       		.uleb128 0x1
 3335 010e 01       		.byte	0x1
 3336 010f 49       		.uleb128 0x49
 3337 0110 13       		.uleb128 0x13
 3338 0111 01       		.uleb128 0x1
 3339 0112 13       		.uleb128 0x13
 3340 0113 00       		.byte	0
 3341 0114 00       		.byte	0
 3342 0115 18       		.uleb128 0x18
 3343 0116 21       		.uleb128 0x21
 3344 0117 00       		.byte	0
 3345 0118 49       		.uleb128 0x49
 3346 0119 13       		.uleb128 0x13
 3347 011a 2F       		.uleb128 0x2f
 3348 011b 0B       		.uleb128 0xb
 3349 011c 00       		.byte	0
 3350 011d 00       		.byte	0
 3351 011e 19       		.uleb128 0x19
 3352 011f 04       		.uleb128 0x4
 3353 0120 01       		.byte	0x1
 3354 0121 0B       		.uleb128 0xb
 3355 0122 0B       		.uleb128 0xb
 3356 0123 3A       		.uleb128 0x3a
 3357 0124 0B       		.uleb128 0xb
 3358 0125 3B       		.uleb128 0x3b
 3359 0126 0B       		.uleb128 0xb
 3360 0127 01       		.uleb128 0x1
 3361 0128 13       		.uleb128 0x13
 3362 0129 00       		.byte	0
 3363 012a 00       		.byte	0
ARM GAS  /tmp/cc5Sh9Px.s 			page 60


 3364 012b 1A       		.uleb128 0x1a
 3365 012c 28       		.uleb128 0x28
 3366 012d 00       		.byte	0
 3367 012e 03       		.uleb128 0x3
 3368 012f 0E       		.uleb128 0xe
 3369 0130 1C       		.uleb128 0x1c
 3370 0131 0D       		.uleb128 0xd
 3371 0132 00       		.byte	0
 3372 0133 00       		.byte	0
 3373 0134 1B       		.uleb128 0x1b
 3374 0135 04       		.uleb128 0x4
 3375 0136 01       		.byte	0x1
 3376 0137 0B       		.uleb128 0xb
 3377 0138 0B       		.uleb128 0xb
 3378 0139 3A       		.uleb128 0x3a
 3379 013a 0B       		.uleb128 0xb
 3380 013b 3B       		.uleb128 0x3b
 3381 013c 05       		.uleb128 0x5
 3382 013d 01       		.uleb128 0x1
 3383 013e 13       		.uleb128 0x13
 3384 013f 00       		.byte	0
 3385 0140 00       		.byte	0
 3386 0141 1C       		.uleb128 0x1c
 3387 0142 2E       		.uleb128 0x2e
 3388 0143 01       		.byte	0x1
 3389 0144 03       		.uleb128 0x3
 3390 0145 0E       		.uleb128 0xe
 3391 0146 3A       		.uleb128 0x3a
 3392 0147 0B       		.uleb128 0xb
 3393 0148 3B       		.uleb128 0x3b
 3394 0149 05       		.uleb128 0x5
 3395 014a 27       		.uleb128 0x27
 3396 014b 19       		.uleb128 0x19
 3397 014c 20       		.uleb128 0x20
 3398 014d 0B       		.uleb128 0xb
 3399 014e 01       		.uleb128 0x1
 3400 014f 13       		.uleb128 0x13
 3401 0150 00       		.byte	0
 3402 0151 00       		.byte	0
 3403 0152 1D       		.uleb128 0x1d
 3404 0153 05       		.uleb128 0x5
 3405 0154 00       		.byte	0
 3406 0155 03       		.uleb128 0x3
 3407 0156 0E       		.uleb128 0xe
 3408 0157 3A       		.uleb128 0x3a
 3409 0158 0B       		.uleb128 0xb
 3410 0159 3B       		.uleb128 0x3b
 3411 015a 05       		.uleb128 0x5
 3412 015b 49       		.uleb128 0x49
 3413 015c 13       		.uleb128 0x13
 3414 015d 00       		.byte	0
 3415 015e 00       		.byte	0
 3416 015f 1E       		.uleb128 0x1e
 3417 0160 2E       		.uleb128 0x2e
 3418 0161 00       		.byte	0
 3419 0162 03       		.uleb128 0x3
 3420 0163 0E       		.uleb128 0xe
ARM GAS  /tmp/cc5Sh9Px.s 			page 61


 3421 0164 3A       		.uleb128 0x3a
 3422 0165 0B       		.uleb128 0xb
 3423 0166 3B       		.uleb128 0x3b
 3424 0167 05       		.uleb128 0x5
 3425 0168 27       		.uleb128 0x27
 3426 0169 19       		.uleb128 0x19
 3427 016a 20       		.uleb128 0x20
 3428 016b 0B       		.uleb128 0xb
 3429 016c 00       		.byte	0
 3430 016d 00       		.byte	0
 3431 016e 1F       		.uleb128 0x1f
 3432 016f 05       		.uleb128 0x5
 3433 0170 00       		.byte	0
 3434 0171 03       		.uleb128 0x3
 3435 0172 08       		.uleb128 0x8
 3436 0173 3A       		.uleb128 0x3a
 3437 0174 0B       		.uleb128 0xb
 3438 0175 3B       		.uleb128 0x3b
 3439 0176 05       		.uleb128 0x5
 3440 0177 49       		.uleb128 0x49
 3441 0178 13       		.uleb128 0x13
 3442 0179 00       		.byte	0
 3443 017a 00       		.byte	0
 3444 017b 20       		.uleb128 0x20
 3445 017c 2E       		.uleb128 0x2e
 3446 017d 01       		.byte	0x1
 3447 017e 3F       		.uleb128 0x3f
 3448 017f 19       		.uleb128 0x19
 3449 0180 03       		.uleb128 0x3
 3450 0181 0E       		.uleb128 0xe
 3451 0182 3A       		.uleb128 0x3a
 3452 0183 0B       		.uleb128 0xb
 3453 0184 3B       		.uleb128 0x3b
 3454 0185 0B       		.uleb128 0xb
 3455 0186 27       		.uleb128 0x27
 3456 0187 19       		.uleb128 0x19
 3457 0188 11       		.uleb128 0x11
 3458 0189 01       		.uleb128 0x1
 3459 018a 12       		.uleb128 0x12
 3460 018b 06       		.uleb128 0x6
 3461 018c 40       		.uleb128 0x40
 3462 018d 18       		.uleb128 0x18
 3463 018e 9742     		.uleb128 0x2117
 3464 0190 19       		.uleb128 0x19
 3465 0191 01       		.uleb128 0x1
 3466 0192 13       		.uleb128 0x13
 3467 0193 00       		.byte	0
 3468 0194 00       		.byte	0
 3469 0195 21       		.uleb128 0x21
 3470 0196 898201   		.uleb128 0x4109
 3471 0199 00       		.byte	0
 3472 019a 11       		.uleb128 0x11
 3473 019b 01       		.uleb128 0x1
 3474 019c 9542     		.uleb128 0x2115
 3475 019e 19       		.uleb128 0x19
 3476 019f 31       		.uleb128 0x31
 3477 01a0 13       		.uleb128 0x13
ARM GAS  /tmp/cc5Sh9Px.s 			page 62


 3478 01a1 00       		.byte	0
 3479 01a2 00       		.byte	0
 3480 01a3 22       		.uleb128 0x22
 3481 01a4 05       		.uleb128 0x5
 3482 01a5 00       		.byte	0
 3483 01a6 03       		.uleb128 0x3
 3484 01a7 0E       		.uleb128 0xe
 3485 01a8 3A       		.uleb128 0x3a
 3486 01a9 0B       		.uleb128 0xb
 3487 01aa 3B       		.uleb128 0x3b
 3488 01ab 0B       		.uleb128 0xb
 3489 01ac 49       		.uleb128 0x49
 3490 01ad 13       		.uleb128 0x13
 3491 01ae 02       		.uleb128 0x2
 3492 01af 17       		.uleb128 0x17
 3493 01b0 00       		.byte	0
 3494 01b1 00       		.byte	0
 3495 01b2 23       		.uleb128 0x23
 3496 01b3 1D       		.uleb128 0x1d
 3497 01b4 01       		.byte	0x1
 3498 01b5 31       		.uleb128 0x31
 3499 01b6 13       		.uleb128 0x13
 3500 01b7 11       		.uleb128 0x11
 3501 01b8 01       		.uleb128 0x1
 3502 01b9 12       		.uleb128 0x12
 3503 01ba 06       		.uleb128 0x6
 3504 01bb 58       		.uleb128 0x58
 3505 01bc 0B       		.uleb128 0xb
 3506 01bd 59       		.uleb128 0x59
 3507 01be 0B       		.uleb128 0xb
 3508 01bf 00       		.byte	0
 3509 01c0 00       		.byte	0
 3510 01c1 24       		.uleb128 0x24
 3511 01c2 05       		.uleb128 0x5
 3512 01c3 00       		.byte	0
 3513 01c4 31       		.uleb128 0x31
 3514 01c5 13       		.uleb128 0x13
 3515 01c6 02       		.uleb128 0x2
 3516 01c7 17       		.uleb128 0x17
 3517 01c8 00       		.byte	0
 3518 01c9 00       		.byte	0
 3519 01ca 25       		.uleb128 0x25
 3520 01cb 898201   		.uleb128 0x4109
 3521 01ce 01       		.byte	0x1
 3522 01cf 11       		.uleb128 0x11
 3523 01d0 01       		.uleb128 0x1
 3524 01d1 9542     		.uleb128 0x2115
 3525 01d3 19       		.uleb128 0x19
 3526 01d4 31       		.uleb128 0x31
 3527 01d5 13       		.uleb128 0x13
 3528 01d6 00       		.byte	0
 3529 01d7 00       		.byte	0
 3530 01d8 26       		.uleb128 0x26
 3531 01d9 8A8201   		.uleb128 0x410a
 3532 01dc 00       		.byte	0
 3533 01dd 02       		.uleb128 0x2
 3534 01de 18       		.uleb128 0x18
ARM GAS  /tmp/cc5Sh9Px.s 			page 63


 3535 01df 9142     		.uleb128 0x2111
 3536 01e1 18       		.uleb128 0x18
 3537 01e2 00       		.byte	0
 3538 01e3 00       		.byte	0
 3539 01e4 27       		.uleb128 0x27
 3540 01e5 34       		.uleb128 0x34
 3541 01e6 00       		.byte	0
 3542 01e7 03       		.uleb128 0x3
 3543 01e8 0E       		.uleb128 0xe
 3544 01e9 49       		.uleb128 0x49
 3545 01ea 13       		.uleb128 0x13
 3546 01eb 34       		.uleb128 0x34
 3547 01ec 19       		.uleb128 0x19
 3548 01ed 1C       		.uleb128 0x1c
 3549 01ee 0E       		.uleb128 0xe
 3550 01ef 00       		.byte	0
 3551 01f0 00       		.byte	0
 3552 01f1 28       		.uleb128 0x28
 3553 01f2 34       		.uleb128 0x34
 3554 01f3 00       		.byte	0
 3555 01f4 03       		.uleb128 0x3
 3556 01f5 0E       		.uleb128 0xe
 3557 01f6 49       		.uleb128 0x49
 3558 01f7 13       		.uleb128 0x13
 3559 01f8 34       		.uleb128 0x34
 3560 01f9 19       		.uleb128 0x19
 3561 01fa 00       		.byte	0
 3562 01fb 00       		.byte	0
 3563 01fc 29       		.uleb128 0x29
 3564 01fd 1D       		.uleb128 0x1d
 3565 01fe 01       		.byte	0x1
 3566 01ff 31       		.uleb128 0x31
 3567 0200 13       		.uleb128 0x13
 3568 0201 11       		.uleb128 0x11
 3569 0202 01       		.uleb128 0x1
 3570 0203 12       		.uleb128 0x12
 3571 0204 06       		.uleb128 0x6
 3572 0205 58       		.uleb128 0x58
 3573 0206 0B       		.uleb128 0xb
 3574 0207 59       		.uleb128 0x59
 3575 0208 0B       		.uleb128 0xb
 3576 0209 01       		.uleb128 0x1
 3577 020a 13       		.uleb128 0x13
 3578 020b 00       		.byte	0
 3579 020c 00       		.byte	0
 3580 020d 2A       		.uleb128 0x2a
 3581 020e 1D       		.uleb128 0x1d
 3582 020f 01       		.byte	0x1
 3583 0210 31       		.uleb128 0x31
 3584 0211 13       		.uleb128 0x13
 3585 0212 11       		.uleb128 0x11
 3586 0213 01       		.uleb128 0x1
 3587 0214 12       		.uleb128 0x12
 3588 0215 06       		.uleb128 0x6
 3589 0216 58       		.uleb128 0x58
 3590 0217 0B       		.uleb128 0xb
 3591 0218 59       		.uleb128 0x59
ARM GAS  /tmp/cc5Sh9Px.s 			page 64


 3592 0219 05       		.uleb128 0x5
 3593 021a 00       		.byte	0
 3594 021b 00       		.byte	0
 3595 021c 2B       		.uleb128 0x2b
 3596 021d 1D       		.uleb128 0x1d
 3597 021e 01       		.byte	0x1
 3598 021f 31       		.uleb128 0x31
 3599 0220 13       		.uleb128 0x13
 3600 0221 11       		.uleb128 0x11
 3601 0222 01       		.uleb128 0x1
 3602 0223 12       		.uleb128 0x12
 3603 0224 06       		.uleb128 0x6
 3604 0225 58       		.uleb128 0x58
 3605 0226 0B       		.uleb128 0xb
 3606 0227 59       		.uleb128 0x59
 3607 0228 05       		.uleb128 0x5
 3608 0229 01       		.uleb128 0x1
 3609 022a 13       		.uleb128 0x13
 3610 022b 00       		.byte	0
 3611 022c 00       		.byte	0
 3612 022d 2C       		.uleb128 0x2c
 3613 022e 05       		.uleb128 0x5
 3614 022f 00       		.byte	0
 3615 0230 31       		.uleb128 0x31
 3616 0231 13       		.uleb128 0x13
 3617 0232 1C       		.uleb128 0x1c
 3618 0233 0B       		.uleb128 0xb
 3619 0234 00       		.byte	0
 3620 0235 00       		.byte	0
 3621 0236 2D       		.uleb128 0x2d
 3622 0237 898201   		.uleb128 0x4109
 3623 023a 00       		.byte	0
 3624 023b 11       		.uleb128 0x11
 3625 023c 01       		.uleb128 0x1
 3626 023d 31       		.uleb128 0x31
 3627 023e 13       		.uleb128 0x13
 3628 023f 00       		.byte	0
 3629 0240 00       		.byte	0
 3630 0241 2E       		.uleb128 0x2e
 3631 0242 0B       		.uleb128 0xb
 3632 0243 01       		.byte	0x1
 3633 0244 11       		.uleb128 0x11
 3634 0245 01       		.uleb128 0x1
 3635 0246 12       		.uleb128 0x12
 3636 0247 06       		.uleb128 0x6
 3637 0248 00       		.byte	0
 3638 0249 00       		.byte	0
 3639 024a 2F       		.uleb128 0x2f
 3640 024b 34       		.uleb128 0x34
 3641 024c 00       		.byte	0
 3642 024d 31       		.uleb128 0x31
 3643 024e 13       		.uleb128 0x13
 3644 024f 00       		.byte	0
 3645 0250 00       		.byte	0
 3646 0251 30       		.uleb128 0x30
 3647 0252 898201   		.uleb128 0x4109
 3648 0255 01       		.byte	0x1
ARM GAS  /tmp/cc5Sh9Px.s 			page 65


 3649 0256 11       		.uleb128 0x11
 3650 0257 01       		.uleb128 0x1
 3651 0258 31       		.uleb128 0x31
 3652 0259 13       		.uleb128 0x13
 3653 025a 00       		.byte	0
 3654 025b 00       		.byte	0
 3655 025c 31       		.uleb128 0x31
 3656 025d 2E       		.uleb128 0x2e
 3657 025e 01       		.byte	0x1
 3658 025f 3F       		.uleb128 0x3f
 3659 0260 19       		.uleb128 0x19
 3660 0261 03       		.uleb128 0x3
 3661 0262 0E       		.uleb128 0xe
 3662 0263 3A       		.uleb128 0x3a
 3663 0264 0B       		.uleb128 0xb
 3664 0265 3B       		.uleb128 0x3b
 3665 0266 0B       		.uleb128 0xb
 3666 0267 27       		.uleb128 0x27
 3667 0268 19       		.uleb128 0x19
 3668 0269 49       		.uleb128 0x49
 3669 026a 13       		.uleb128 0x13
 3670 026b 11       		.uleb128 0x11
 3671 026c 01       		.uleb128 0x1
 3672 026d 12       		.uleb128 0x12
 3673 026e 06       		.uleb128 0x6
 3674 026f 40       		.uleb128 0x40
 3675 0270 18       		.uleb128 0x18
 3676 0271 9742     		.uleb128 0x2117
 3677 0273 19       		.uleb128 0x19
 3678 0274 01       		.uleb128 0x1
 3679 0275 13       		.uleb128 0x13
 3680 0276 00       		.byte	0
 3681 0277 00       		.byte	0
 3682 0278 32       		.uleb128 0x32
 3683 0279 05       		.uleb128 0x5
 3684 027a 00       		.byte	0
 3685 027b 03       		.uleb128 0x3
 3686 027c 0E       		.uleb128 0xe
 3687 027d 3A       		.uleb128 0x3a
 3688 027e 0B       		.uleb128 0xb
 3689 027f 3B       		.uleb128 0x3b
 3690 0280 0B       		.uleb128 0xb
 3691 0281 49       		.uleb128 0x49
 3692 0282 13       		.uleb128 0x13
 3693 0283 02       		.uleb128 0x2
 3694 0284 18       		.uleb128 0x18
 3695 0285 00       		.byte	0
 3696 0286 00       		.byte	0
 3697 0287 33       		.uleb128 0x33
 3698 0288 34       		.uleb128 0x34
 3699 0289 00       		.byte	0
 3700 028a 03       		.uleb128 0x3
 3701 028b 0E       		.uleb128 0xe
 3702 028c 3A       		.uleb128 0x3a
 3703 028d 0B       		.uleb128 0xb
 3704 028e 3B       		.uleb128 0x3b
 3705 028f 0B       		.uleb128 0xb
ARM GAS  /tmp/cc5Sh9Px.s 			page 66


 3706 0290 49       		.uleb128 0x49
 3707 0291 13       		.uleb128 0x13
 3708 0292 02       		.uleb128 0x2
 3709 0293 17       		.uleb128 0x17
 3710 0294 00       		.byte	0
 3711 0295 00       		.byte	0
 3712 0296 34       		.uleb128 0x34
 3713 0297 2E       		.uleb128 0x2e
 3714 0298 01       		.byte	0x1
 3715 0299 3F       		.uleb128 0x3f
 3716 029a 19       		.uleb128 0x19
 3717 029b 03       		.uleb128 0x3
 3718 029c 0E       		.uleb128 0xe
 3719 029d 3A       		.uleb128 0x3a
 3720 029e 0B       		.uleb128 0xb
 3721 029f 3B       		.uleb128 0x3b
 3722 02a0 05       		.uleb128 0x5
 3723 02a1 27       		.uleb128 0x27
 3724 02a2 19       		.uleb128 0x19
 3725 02a3 11       		.uleb128 0x11
 3726 02a4 01       		.uleb128 0x1
 3727 02a5 12       		.uleb128 0x12
 3728 02a6 06       		.uleb128 0x6
 3729 02a7 40       		.uleb128 0x40
 3730 02a8 18       		.uleb128 0x18
 3731 02a9 9742     		.uleb128 0x2117
 3732 02ab 19       		.uleb128 0x19
 3733 02ac 01       		.uleb128 0x1
 3734 02ad 13       		.uleb128 0x13
 3735 02ae 00       		.byte	0
 3736 02af 00       		.byte	0
 3737 02b0 35       		.uleb128 0x35
 3738 02b1 05       		.uleb128 0x5
 3739 02b2 00       		.byte	0
 3740 02b3 03       		.uleb128 0x3
 3741 02b4 0E       		.uleb128 0xe
 3742 02b5 3A       		.uleb128 0x3a
 3743 02b6 0B       		.uleb128 0xb
 3744 02b7 3B       		.uleb128 0x3b
 3745 02b8 05       		.uleb128 0x5
 3746 02b9 49       		.uleb128 0x49
 3747 02ba 13       		.uleb128 0x13
 3748 02bb 02       		.uleb128 0x2
 3749 02bc 17       		.uleb128 0x17
 3750 02bd 00       		.byte	0
 3751 02be 00       		.byte	0
 3752 02bf 36       		.uleb128 0x36
 3753 02c0 34       		.uleb128 0x34
 3754 02c1 00       		.byte	0
 3755 02c2 03       		.uleb128 0x3
 3756 02c3 0E       		.uleb128 0xe
 3757 02c4 3A       		.uleb128 0x3a
 3758 02c5 0B       		.uleb128 0xb
 3759 02c6 3B       		.uleb128 0x3b
 3760 02c7 05       		.uleb128 0x5
 3761 02c8 49       		.uleb128 0x49
 3762 02c9 13       		.uleb128 0x13
ARM GAS  /tmp/cc5Sh9Px.s 			page 67


 3763 02ca 3F       		.uleb128 0x3f
 3764 02cb 19       		.uleb128 0x19
 3765 02cc 3C       		.uleb128 0x3c
 3766 02cd 19       		.uleb128 0x19
 3767 02ce 00       		.byte	0
 3768 02cf 00       		.byte	0
 3769 02d0 37       		.uleb128 0x37
 3770 02d1 34       		.uleb128 0x34
 3771 02d2 00       		.byte	0
 3772 02d3 03       		.uleb128 0x3
 3773 02d4 08       		.uleb128 0x8
 3774 02d5 3A       		.uleb128 0x3a
 3775 02d6 0B       		.uleb128 0xb
 3776 02d7 3B       		.uleb128 0x3b
 3777 02d8 05       		.uleb128 0x5
 3778 02d9 49       		.uleb128 0x49
 3779 02da 13       		.uleb128 0x13
 3780 02db 3F       		.uleb128 0x3f
 3781 02dc 19       		.uleb128 0x19
 3782 02dd 3C       		.uleb128 0x3c
 3783 02de 19       		.uleb128 0x19
 3784 02df 00       		.byte	0
 3785 02e0 00       		.byte	0
 3786 02e1 38       		.uleb128 0x38
 3787 02e2 2E       		.uleb128 0x2e
 3788 02e3 00       		.byte	0
 3789 02e4 3F       		.uleb128 0x3f
 3790 02e5 19       		.uleb128 0x19
 3791 02e6 03       		.uleb128 0x3
 3792 02e7 0E       		.uleb128 0xe
 3793 02e8 3A       		.uleb128 0x3a
 3794 02e9 0B       		.uleb128 0xb
 3795 02ea 3B       		.uleb128 0x3b
 3796 02eb 05       		.uleb128 0x5
 3797 02ec 27       		.uleb128 0x27
 3798 02ed 19       		.uleb128 0x19
 3799 02ee 3C       		.uleb128 0x3c
 3800 02ef 19       		.uleb128 0x19
 3801 02f0 00       		.byte	0
 3802 02f1 00       		.byte	0
 3803 02f2 39       		.uleb128 0x39
 3804 02f3 2E       		.uleb128 0x2e
 3805 02f4 01       		.byte	0x1
 3806 02f5 3F       		.uleb128 0x3f
 3807 02f6 19       		.uleb128 0x19
 3808 02f7 03       		.uleb128 0x3
 3809 02f8 0E       		.uleb128 0xe
 3810 02f9 3A       		.uleb128 0x3a
 3811 02fa 0B       		.uleb128 0xb
 3812 02fb 3B       		.uleb128 0x3b
 3813 02fc 0B       		.uleb128 0xb
 3814 02fd 27       		.uleb128 0x27
 3815 02fe 19       		.uleb128 0x19
 3816 02ff 3C       		.uleb128 0x3c
 3817 0300 19       		.uleb128 0x19
 3818 0301 01       		.uleb128 0x1
 3819 0302 13       		.uleb128 0x13
ARM GAS  /tmp/cc5Sh9Px.s 			page 68


 3820 0303 00       		.byte	0
 3821 0304 00       		.byte	0
 3822 0305 3A       		.uleb128 0x3a
 3823 0306 2E       		.uleb128 0x2e
 3824 0307 00       		.byte	0
 3825 0308 3F       		.uleb128 0x3f
 3826 0309 19       		.uleb128 0x19
 3827 030a 03       		.uleb128 0x3
 3828 030b 0E       		.uleb128 0xe
 3829 030c 3A       		.uleb128 0x3a
 3830 030d 0B       		.uleb128 0xb
 3831 030e 3B       		.uleb128 0x3b
 3832 030f 0B       		.uleb128 0xb
 3833 0310 27       		.uleb128 0x27
 3834 0311 19       		.uleb128 0x19
 3835 0312 3C       		.uleb128 0x3c
 3836 0313 19       		.uleb128 0x19
 3837 0314 00       		.byte	0
 3838 0315 00       		.byte	0
 3839 0316 3B       		.uleb128 0x3b
 3840 0317 2E       		.uleb128 0x2e
 3841 0318 01       		.byte	0x1
 3842 0319 3F       		.uleb128 0x3f
 3843 031a 19       		.uleb128 0x19
 3844 031b 03       		.uleb128 0x3
 3845 031c 0E       		.uleb128 0xe
 3846 031d 3A       		.uleb128 0x3a
 3847 031e 0B       		.uleb128 0xb
 3848 031f 3B       		.uleb128 0x3b
 3849 0320 05       		.uleb128 0x5
 3850 0321 27       		.uleb128 0x27
 3851 0322 19       		.uleb128 0x19
 3852 0323 3C       		.uleb128 0x3c
 3853 0324 19       		.uleb128 0x19
 3854 0325 01       		.uleb128 0x1
 3855 0326 13       		.uleb128 0x13
 3856 0327 00       		.byte	0
 3857 0328 00       		.byte	0
 3858 0329 3C       		.uleb128 0x3c
 3859 032a 2E       		.uleb128 0x2e
 3860 032b 01       		.byte	0x1
 3861 032c 3F       		.uleb128 0x3f
 3862 032d 19       		.uleb128 0x19
 3863 032e 03       		.uleb128 0x3
 3864 032f 0E       		.uleb128 0xe
 3865 0330 3A       		.uleb128 0x3a
 3866 0331 0B       		.uleb128 0xb
 3867 0332 3B       		.uleb128 0x3b
 3868 0333 05       		.uleb128 0x5
 3869 0334 27       		.uleb128 0x27
 3870 0335 19       		.uleb128 0x19
 3871 0336 49       		.uleb128 0x49
 3872 0337 13       		.uleb128 0x13
 3873 0338 3C       		.uleb128 0x3c
 3874 0339 19       		.uleb128 0x19
 3875 033a 01       		.uleb128 0x1
 3876 033b 13       		.uleb128 0x13
ARM GAS  /tmp/cc5Sh9Px.s 			page 69


 3877 033c 00       		.byte	0
 3878 033d 00       		.byte	0
 3879 033e 3D       		.uleb128 0x3d
 3880 033f 2E       		.uleb128 0x2e
 3881 0340 01       		.byte	0x1
 3882 0341 3F       		.uleb128 0x3f
 3883 0342 19       		.uleb128 0x19
 3884 0343 03       		.uleb128 0x3
 3885 0344 0E       		.uleb128 0xe
 3886 0345 3A       		.uleb128 0x3a
 3887 0346 0B       		.uleb128 0xb
 3888 0347 3B       		.uleb128 0x3b
 3889 0348 0B       		.uleb128 0xb
 3890 0349 27       		.uleb128 0x27
 3891 034a 19       		.uleb128 0x19
 3892 034b 3C       		.uleb128 0x3c
 3893 034c 19       		.uleb128 0x19
 3894 034d 00       		.byte	0
 3895 034e 00       		.byte	0
 3896 034f 00       		.byte	0
 3897              		.section	.debug_loc,"",%progbits
 3898              	.Ldebug_loc0:
 3899              	.LLST0:
 3900 0000 00000000 		.4byte	.LVL1
 3901 0004 0A000000 		.4byte	.LVL3
 3902 0008 0100     		.2byte	0x1
 3903 000a 50       		.byte	0x50
 3904 000b 0A000000 		.4byte	.LVL3
 3905 000f 0D000000 		.4byte	.LVL4-1
 3906 0013 0300     		.2byte	0x3
 3907 0015 70       		.byte	0x70
 3908 0016 74       		.sleb128 -12
 3909 0017 9F       		.byte	0x9f
 3910 0018 0D000000 		.4byte	.LVL4-1
 3911 001c 0E000000 		.4byte	.LFE324
 3912 0020 0400     		.2byte	0x4
 3913 0022 F3       		.byte	0xf3
 3914 0023 01       		.uleb128 0x1
 3915 0024 50       		.byte	0x50
 3916 0025 9F       		.byte	0x9f
 3917 0026 00000000 		.4byte	0
 3918 002a 00000000 		.4byte	0
 3919              	.LLST1:
 3920 002e 08000000 		.4byte	.LVL2
 3921 0032 0A000000 		.4byte	.LVL3
 3922 0036 0300     		.2byte	0x3
 3923 0038 70       		.byte	0x70
 3924 0039 0C       		.sleb128 12
 3925 003a 9F       		.byte	0x9f
 3926 003b 0A000000 		.4byte	.LVL3
 3927 003f 0D000000 		.4byte	.LVL4-1
 3928 0043 0100     		.2byte	0x1
 3929 0045 50       		.byte	0x50
 3930 0046 0D000000 		.4byte	.LVL4-1
 3931 004a 0E000000 		.4byte	.LFE324
 3932 004e 0600     		.2byte	0x6
 3933 0050 F3       		.byte	0xf3
ARM GAS  /tmp/cc5Sh9Px.s 			page 70


 3934 0051 01       		.uleb128 0x1
 3935 0052 50       		.byte	0x50
 3936 0053 23       		.byte	0x23
 3937 0054 0C       		.uleb128 0xc
 3938 0055 9F       		.byte	0x9f
 3939 0056 00000000 		.4byte	0
 3940 005a 00000000 		.4byte	0
 3941              	.LLST2:
 3942 005e 00000000 		.4byte	.LVL5
 3943 0062 0F000000 		.4byte	.LVL6-1
 3944 0066 0100     		.2byte	0x1
 3945 0068 50       		.byte	0x50
 3946 0069 0F000000 		.4byte	.LVL6-1
 3947 006d 28000000 		.4byte	.LFE325
 3948 0071 0100     		.2byte	0x1
 3949 0073 54       		.byte	0x54
 3950 0074 00000000 		.4byte	0
 3951 0078 00000000 		.4byte	0
 3952              	.LLST3:
 3953 007c 00000000 		.4byte	.LVL5
 3954 0080 0F000000 		.4byte	.LVL6-1
 3955 0084 0100     		.2byte	0x1
 3956 0086 51       		.byte	0x51
 3957 0087 0F000000 		.4byte	.LVL6-1
 3958 008b 28000000 		.4byte	.LFE325
 3959 008f 0100     		.2byte	0x1
 3960 0091 55       		.byte	0x55
 3961 0092 00000000 		.4byte	0
 3962 0096 00000000 		.4byte	0
 3963              	.LLST4:
 3964 009a 00000000 		.4byte	.LVL9
 3965 009e 0D000000 		.4byte	.LVL10-1
 3966 00a2 0100     		.2byte	0x1
 3967 00a4 50       		.byte	0x50
 3968 00a5 0D000000 		.4byte	.LVL10-1
 3969 00a9 26000000 		.4byte	.LFE326
 3970 00ad 0100     		.2byte	0x1
 3971 00af 54       		.byte	0x54
 3972 00b0 00000000 		.4byte	0
 3973 00b4 00000000 		.4byte	0
 3974              	.LLST5:
 3975 00b8 00000000 		.4byte	.LVL13
 3976 00bc 0D000000 		.4byte	.LVL14-1
 3977 00c0 0100     		.2byte	0x1
 3978 00c2 50       		.byte	0x50
 3979 00c3 0D000000 		.4byte	.LVL14-1
 3980 00c7 26000000 		.4byte	.LFE327
 3981 00cb 0100     		.2byte	0x1
 3982 00cd 54       		.byte	0x54
 3983 00ce 00000000 		.4byte	0
 3984 00d2 00000000 		.4byte	0
 3985              	.LLST6:
 3986 00d6 00000000 		.4byte	.LVL17
 3987 00da 02000000 		.4byte	.LVL18
 3988 00de 0100     		.2byte	0x1
 3989 00e0 50       		.byte	0x50
 3990 00e1 02000000 		.4byte	.LVL18
ARM GAS  /tmp/cc5Sh9Px.s 			page 71


 3991 00e5 04000000 		.4byte	.LFE328
 3992 00e9 0400     		.2byte	0x4
 3993 00eb F3       		.byte	0xf3
 3994 00ec 01       		.uleb128 0x1
 3995 00ed 50       		.byte	0x50
 3996 00ee 9F       		.byte	0x9f
 3997 00ef 00000000 		.4byte	0
 3998 00f3 00000000 		.4byte	0
 3999              	.LLST7:
 4000 00f7 00000000 		.4byte	.LVL19
 4001 00fb 15000000 		.4byte	.LVL21-1
 4002 00ff 0100     		.2byte	0x1
 4003 0101 50       		.byte	0x50
 4004 0102 15000000 		.4byte	.LVL21-1
 4005 0106 52000000 		.4byte	.LFE329
 4006 010a 0100     		.2byte	0x1
 4007 010c 54       		.byte	0x54
 4008 010d 00000000 		.4byte	0
 4009 0111 00000000 		.4byte	0
 4010              	.LLST8:
 4011 0115 00000000 		.4byte	.LVL19
 4012 0119 15000000 		.4byte	.LVL21-1
 4013 011d 0100     		.2byte	0x1
 4014 011f 51       		.byte	0x51
 4015 0120 15000000 		.4byte	.LVL21-1
 4016 0124 52000000 		.4byte	.LFE329
 4017 0128 0400     		.2byte	0x4
 4018 012a F3       		.byte	0xf3
 4019 012b 01       		.uleb128 0x1
 4020 012c 51       		.byte	0x51
 4021 012d 9F       		.byte	0x9f
 4022 012e 00000000 		.4byte	0
 4023 0132 00000000 		.4byte	0
 4024              	.LLST9:
 4025 0136 00000000 		.4byte	.LVL19
 4026 013a 15000000 		.4byte	.LVL21-1
 4027 013e 0100     		.2byte	0x1
 4028 0140 52       		.byte	0x52
 4029 0141 15000000 		.4byte	.LVL21-1
 4030 0145 52000000 		.4byte	.LFE329
 4031 0149 0100     		.2byte	0x1
 4032 014b 57       		.byte	0x57
 4033 014c 00000000 		.4byte	0
 4034 0150 00000000 		.4byte	0
 4035              	.LLST10:
 4036 0154 00000000 		.4byte	.LVL19
 4037 0158 0E000000 		.4byte	.LVL20
 4038 015c 0100     		.2byte	0x1
 4039 015e 53       		.byte	0x53
 4040 015f 0E000000 		.4byte	.LVL20
 4041 0163 42000000 		.4byte	.LVL23
 4042 0167 0100     		.2byte	0x1
 4043 0169 56       		.byte	0x56
 4044 016a 42000000 		.4byte	.LVL23
 4045 016e 52000000 		.4byte	.LFE329
 4046 0172 0400     		.2byte	0x4
 4047 0174 F3       		.byte	0xf3
ARM GAS  /tmp/cc5Sh9Px.s 			page 72


 4048 0175 01       		.uleb128 0x1
 4049 0176 53       		.byte	0x53
 4050 0177 9F       		.byte	0x9f
 4051 0178 00000000 		.4byte	0
 4052 017c 00000000 		.4byte	0
 4053              	.LLST11:
 4054 0180 42000000 		.4byte	.LVL23
 4055 0184 45000000 		.4byte	.LVL24-1
 4056 0188 0100     		.2byte	0x1
 4057 018a 50       		.byte	0x50
 4058 018b 45000000 		.4byte	.LVL24-1
 4059 018f 52000000 		.4byte	.LFE329
 4060 0193 0100     		.2byte	0x1
 4061 0195 56       		.byte	0x56
 4062 0196 00000000 		.4byte	0
 4063 019a 00000000 		.4byte	0
 4064              	.LLST12:
 4065 019e 00000000 		.4byte	.LVL25
 4066 01a2 15000000 		.4byte	.LVL27-1
 4067 01a6 0100     		.2byte	0x1
 4068 01a8 50       		.byte	0x50
 4069 01a9 15000000 		.4byte	.LVL27-1
 4070 01ad 4A000000 		.4byte	.LFE330
 4071 01b1 0100     		.2byte	0x1
 4072 01b3 54       		.byte	0x54
 4073 01b4 00000000 		.4byte	0
 4074 01b8 00000000 		.4byte	0
 4075              	.LLST13:
 4076 01bc 00000000 		.4byte	.LVL25
 4077 01c0 15000000 		.4byte	.LVL27-1
 4078 01c4 0100     		.2byte	0x1
 4079 01c6 51       		.byte	0x51
 4080 01c7 15000000 		.4byte	.LVL27-1
 4081 01cb 4A000000 		.4byte	.LFE330
 4082 01cf 0400     		.2byte	0x4
 4083 01d1 F3       		.byte	0xf3
 4084 01d2 01       		.uleb128 0x1
 4085 01d3 51       		.byte	0x51
 4086 01d4 9F       		.byte	0x9f
 4087 01d5 00000000 		.4byte	0
 4088 01d9 00000000 		.4byte	0
 4089              	.LLST14:
 4090 01dd 00000000 		.4byte	.LVL25
 4091 01e1 15000000 		.4byte	.LVL27-1
 4092 01e5 0100     		.2byte	0x1
 4093 01e7 52       		.byte	0x52
 4094 01e8 15000000 		.4byte	.LVL27-1
 4095 01ec 4A000000 		.4byte	.LFE330
 4096 01f0 0100     		.2byte	0x1
 4097 01f2 57       		.byte	0x57
 4098 01f3 00000000 		.4byte	0
 4099 01f7 00000000 		.4byte	0
 4100              	.LLST15:
 4101 01fb 00000000 		.4byte	.LVL25
 4102 01ff 0E000000 		.4byte	.LVL26
 4103 0203 0100     		.2byte	0x1
 4104 0205 53       		.byte	0x53
ARM GAS  /tmp/cc5Sh9Px.s 			page 73


 4105 0206 0E000000 		.4byte	.LVL26
 4106 020a 3A000000 		.4byte	.LVL29
 4107 020e 0100     		.2byte	0x1
 4108 0210 56       		.byte	0x56
 4109 0211 3A000000 		.4byte	.LVL29
 4110 0215 4A000000 		.4byte	.LFE330
 4111 0219 0400     		.2byte	0x4
 4112 021b F3       		.byte	0xf3
 4113 021c 01       		.uleb128 0x1
 4114 021d 53       		.byte	0x53
 4115 021e 9F       		.byte	0x9f
 4116 021f 00000000 		.4byte	0
 4117 0223 00000000 		.4byte	0
 4118              	.LLST16:
 4119 0227 3A000000 		.4byte	.LVL29
 4120 022b 3D000000 		.4byte	.LVL30-1
 4121 022f 0100     		.2byte	0x1
 4122 0231 50       		.byte	0x50
 4123 0232 3D000000 		.4byte	.LVL30-1
 4124 0236 4A000000 		.4byte	.LFE330
 4125 023a 0100     		.2byte	0x1
 4126 023c 56       		.byte	0x56
 4127 023d 00000000 		.4byte	0
 4128 0241 00000000 		.4byte	0
 4129              	.LLST17:
 4130 0245 00000000 		.4byte	.LVL31
 4131 0249 02000000 		.4byte	.LVL32
 4132 024d 0100     		.2byte	0x1
 4133 024f 50       		.byte	0x50
 4134 0250 02000000 		.4byte	.LVL32
 4135 0254 05000000 		.4byte	.LVL33-1
 4136 0258 0300     		.2byte	0x3
 4137 025a 70       		.byte	0x70
 4138 025b 74       		.sleb128 -12
 4139 025c 9F       		.byte	0x9f
 4140 025d 05000000 		.4byte	.LVL33-1
 4141 0261 06000000 		.4byte	.LFE331
 4142 0265 0400     		.2byte	0x4
 4143 0267 F3       		.byte	0xf3
 4144 0268 01       		.uleb128 0x1
 4145 0269 50       		.byte	0x50
 4146 026a 9F       		.byte	0x9f
 4147 026b 00000000 		.4byte	0
 4148 026f 00000000 		.4byte	0
 4149              	.LLST18:
 4150 0273 00000000 		.4byte	.LVL31
 4151 0277 02000000 		.4byte	.LVL32
 4152 027b 0300     		.2byte	0x3
 4153 027d 70       		.byte	0x70
 4154 027e 0C       		.sleb128 12
 4155 027f 9F       		.byte	0x9f
 4156 0280 02000000 		.4byte	.LVL32
 4157 0284 05000000 		.4byte	.LVL33-1
 4158 0288 0100     		.2byte	0x1
 4159 028a 50       		.byte	0x50
 4160 028b 05000000 		.4byte	.LVL33-1
 4161 028f 06000000 		.4byte	.LFE331
ARM GAS  /tmp/cc5Sh9Px.s 			page 74


 4162 0293 0600     		.2byte	0x6
 4163 0295 F3       		.byte	0xf3
 4164 0296 01       		.uleb128 0x1
 4165 0297 50       		.byte	0x50
 4166 0298 23       		.byte	0x23
 4167 0299 0C       		.uleb128 0xc
 4168 029a 9F       		.byte	0x9f
 4169 029b 00000000 		.4byte	0
 4170 029f 00000000 		.4byte	0
 4171              	.LLST19:
 4172 02a3 00000000 		.4byte	.LVL34
 4173 02a7 02000000 		.4byte	.LVL35
 4174 02ab 0100     		.2byte	0x1
 4175 02ad 50       		.byte	0x50
 4176 02ae 02000000 		.4byte	.LVL35
 4177 02b2 05000000 		.4byte	.LVL36-1
 4178 02b6 0300     		.2byte	0x3
 4179 02b8 70       		.byte	0x70
 4180 02b9 74       		.sleb128 -12
 4181 02ba 9F       		.byte	0x9f
 4182 02bb 05000000 		.4byte	.LVL36-1
 4183 02bf 06000000 		.4byte	.LFE332
 4184 02c3 0400     		.2byte	0x4
 4185 02c5 F3       		.byte	0xf3
 4186 02c6 01       		.uleb128 0x1
 4187 02c7 50       		.byte	0x50
 4188 02c8 9F       		.byte	0x9f
 4189 02c9 00000000 		.4byte	0
 4190 02cd 00000000 		.4byte	0
 4191              	.LLST20:
 4192 02d1 00000000 		.4byte	.LVL34
 4193 02d5 02000000 		.4byte	.LVL35
 4194 02d9 0300     		.2byte	0x3
 4195 02db 70       		.byte	0x70
 4196 02dc 0C       		.sleb128 12
 4197 02dd 9F       		.byte	0x9f
 4198 02de 02000000 		.4byte	.LVL35
 4199 02e2 05000000 		.4byte	.LVL36-1
 4200 02e6 0100     		.2byte	0x1
 4201 02e8 50       		.byte	0x50
 4202 02e9 05000000 		.4byte	.LVL36-1
 4203 02ed 06000000 		.4byte	.LFE332
 4204 02f1 0600     		.2byte	0x6
 4205 02f3 F3       		.byte	0xf3
 4206 02f4 01       		.uleb128 0x1
 4207 02f5 50       		.byte	0x50
 4208 02f6 23       		.byte	0x23
 4209 02f7 0C       		.uleb128 0xc
 4210 02f8 9F       		.byte	0x9f
 4211 02f9 00000000 		.4byte	0
 4212 02fd 00000000 		.4byte	0
 4213              		.section	.debug_aranges,"",%progbits
 4214 0000 64000000 		.4byte	0x64
 4215 0004 0200     		.2byte	0x2
 4216 0006 00000000 		.4byte	.Ldebug_info0
 4217 000a 04       		.byte	0x4
 4218 000b 00       		.byte	0
ARM GAS  /tmp/cc5Sh9Px.s 			page 75


 4219 000c 0000     		.2byte	0
 4220 000e 0000     		.2byte	0
 4221 0010 00000000 		.4byte	.LFB323
 4222 0014 04000000 		.4byte	.LFE323-.LFB323
 4223 0018 00000000 		.4byte	.LFB324
 4224 001c 0E000000 		.4byte	.LFE324-.LFB324
 4225 0020 00000000 		.4byte	.LFB325
 4226 0024 28000000 		.4byte	.LFE325-.LFB325
 4227 0028 00000000 		.4byte	.LFB326
 4228 002c 26000000 		.4byte	.LFE326-.LFB326
 4229 0030 00000000 		.4byte	.LFB327
 4230 0034 26000000 		.4byte	.LFE327-.LFB327
 4231 0038 00000000 		.4byte	.LFB328
 4232 003c 04000000 		.4byte	.LFE328-.LFB328
 4233 0040 00000000 		.4byte	.LFB329
 4234 0044 52000000 		.4byte	.LFE329-.LFB329
 4235 0048 00000000 		.4byte	.LFB330
 4236 004c 4A000000 		.4byte	.LFE330-.LFB330
 4237 0050 00000000 		.4byte	.LFB331
 4238 0054 06000000 		.4byte	.LFE331-.LFB331
 4239 0058 00000000 		.4byte	.LFB332
 4240 005c 06000000 		.4byte	.LFE332-.LFB332
 4241 0060 00000000 		.4byte	0
 4242 0064 00000000 		.4byte	0
 4243              		.section	.debug_ranges,"",%progbits
 4244              	.Ldebug_ranges0:
 4245 0000 00000000 		.4byte	.LFB323
 4246 0004 04000000 		.4byte	.LFE323
 4247 0008 00000000 		.4byte	.LFB324
 4248 000c 0E000000 		.4byte	.LFE324
 4249 0010 00000000 		.4byte	.LFB325
 4250 0014 28000000 		.4byte	.LFE325
 4251 0018 00000000 		.4byte	.LFB326
 4252 001c 26000000 		.4byte	.LFE326
 4253 0020 00000000 		.4byte	.LFB327
 4254 0024 26000000 		.4byte	.LFE327
 4255 0028 00000000 		.4byte	.LFB328
 4256 002c 04000000 		.4byte	.LFE328
 4257 0030 00000000 		.4byte	.LFB329
 4258 0034 52000000 		.4byte	.LFE329
 4259 0038 00000000 		.4byte	.LFB330
 4260 003c 4A000000 		.4byte	.LFE330
 4261 0040 00000000 		.4byte	.LFB331
 4262 0044 06000000 		.4byte	.LFE331
 4263 0048 00000000 		.4byte	.LFB332
 4264 004c 06000000 		.4byte	.LFE332
 4265 0050 00000000 		.4byte	0
 4266 0054 00000000 		.4byte	0
 4267              		.section	.debug_line,"",%progbits
 4268              	.Ldebug_line0:
 4269 0000 E1040000 		.section	.debug_str,"MS",%progbits,1
 4269      02006103 
 4269      00000201 
 4269      FB0E0D00 
 4269      01010101 
 4270              	.LASF137:
 4271 0000 5354445F 		.ascii	"STD_DUTY_CYCLE\000"
ARM GAS  /tmp/cc5Sh9Px.s 			page 76


 4271      44555459 
 4271      5F435943 
 4271      4C4500
 4272              	.LASF153:
 4273 000f 646D6172 		.ascii	"dmarx\000"
 4273      7800
 4274              	.LASF140:
 4275 0015 69326364 		.ascii	"i2cdutycycle_t\000"
 4275      75747963 
 4275      79636C65 
 4275      5F7400
 4276              	.LASF55:
 4277 0024 72656164 		.ascii	"ready_list_t\000"
 4277      795F6C69 
 4277      73745F74 
 4277      00
 4278              	.LASF79:
 4279 0031 4D304152 		.ascii	"M0AR\000"
 4279      00
 4280              	.LASF2:
 4281 0036 73697A65 		.ascii	"size_t\000"
 4281      5F7400
 4282              	.LASF61:
 4283 003d 64656C74 		.ascii	"delta\000"
 4283      6100
 4284              	.LASF103:
 4285 0043 7264796D 		.ascii	"rdymsg\000"
 4285      736700
 4286              	.LASF19:
 4287 004a 75696E74 		.ascii	"uint64_t\000"
 4287      36345F74 
 4287      00
 4288              	.LASF74:
 4289 0053 6B65726E 		.ascii	"kernel_stats\000"
 4289      656C5F73 
 4289      74617473 
 4289      00
 4290              	.LASF3:
 4291 0060 5F5F7569 		.ascii	"__uint8_t\000"
 4291      6E74385F 
 4291      7400
 4292              	.LASF125:
 4293 006a 4932435F 		.ascii	"I2C_STOP\000"
 4293      53544F50 
 4293      00
 4294              	.LASF54:
 4295 0073 70726576 		.ascii	"prev\000"
 4295      00
 4296              	.LASF90:
 4297 0078 706F7274 		.ascii	"port_intctx\000"
 4297      5F696E74 
 4297      63747800 
 4298              	.LASF53:
 4299 0084 63685F74 		.ascii	"ch_threads_queue\000"
 4299      68726561 
 4299      64735F71 
 4299      75657565 
ARM GAS  /tmp/cc5Sh9Px.s 			page 77


 4299      00
 4300              	.LASF66:
 4301 0095 73797374 		.ascii	"system_debug_t\000"
 4301      656D5F64 
 4301      65627567 
 4301      5F7400
 4302              	.LASF192:
 4303 00a4 6932635F 		.ascii	"i2c_lld_master_receive_timeout\000"
 4303      6C6C645F 
 4303      6D617374 
 4303      65725F72 
 4303      65636569 
 4304              	.LASF84:
 4305 00c3 54524953 		.ascii	"TRISE\000"
 4305      4500
 4306              	.LASF117:
 4307 00c9 73747265 		.ascii	"stream\000"
 4307      616D00
 4308              	.LASF155:
 4309 00d0 706F7274 		.ascii	"port_lock\000"
 4309      5F6C6F63 
 4309      6B00
 4310              	.LASF94:
 4311 00da 776F7273 		.ascii	"worst\000"
 4311      7400
 4312              	.LASF167:
 4313 00e0 63685379 		.ascii	"chSysUnlock\000"
 4313      73556E6C 
 4313      6F636B00 
 4314              	.LASF97:
 4315 00ec 74696D65 		.ascii	"time_measurement_t\000"
 4315      5F6D6561 
 4315      73757265 
 4315      6D656E74 
 4315      5F7400
 4316              	.LASF14:
 4317 00ff 6C6F6E67 		.ascii	"long long unsigned int\000"
 4317      206C6F6E 
 4317      6720756E 
 4317      7369676E 
 4317      65642069 
 4318              	.LASF104:
 4319 0116 65786974 		.ascii	"exitcode\000"
 4319      636F6465 
 4319      00
 4320              	.LASF182:
 4321 011f 69326352 		.ascii	"i2cReleaseBus\000"
 4321      656C6561 
 4321      73654275 
 4321      7300
 4322              	.LASF107:
 4323 012d 73656E74 		.ascii	"sentmsg\000"
 4323      6D736700 
 4324              	.LASF63:
 4325 0135 76697274 		.ascii	"virtual_timers_list_t\000"
 4325      75616C5F 
 4325      74696D65 
ARM GAS  /tmp/cc5Sh9Px.s 			page 78


 4325      72735F6C 
 4325      6973745F 
 4326              	.LASF183:
 4327 014b 49544D5F 		.ascii	"ITM_RxBuffer\000"
 4327      52784275 
 4327      66666572 
 4327      00
 4328              	.LASF169:
 4329 0158 69326370 		.ascii	"i2cp\000"
 4329      00
 4330              	.LASF51:
 4331 015d 6E657874 		.ascii	"next\000"
 4331      00
 4332              	.LASF21:
 4333 0162 72747469 		.ascii	"rttime_t\000"
 4333      6D655F74 
 4333      00
 4334              	.LASF126:
 4335 016b 4932435F 		.ascii	"I2C_READY\000"
 4335      52454144 
 4335      5900
 4336              	.LASF174:
 4337 0175 6932634D 		.ascii	"i2cMasterTransmitTimeout\000"
 4337      61737465 
 4337      72547261 
 4337      6E736D69 
 4337      7454696D 
 4338              	.LASF158:
 4339 018e 6F73616C 		.ascii	"osalMutexObjectInit\000"
 4339      4D757465 
 4339      784F626A 
 4339      65637449 
 4339      6E697400 
 4340              	.LASF115:
 4341 01a2 6D757465 		.ascii	"mutex_t\000"
 4341      785F7400 
 4342              	.LASF197:
 4343 01aa 63684D74 		.ascii	"chMtxUnlock\000"
 4343      78556E6C 
 4343      6F636B00 
 4344              	.LASF1:
 4345 01b6 7369676E 		.ascii	"signed char\000"
 4345      65642063 
 4345      68617200 
 4346              	.LASF142:
 4347 01c2 636C6F63 		.ascii	"clock_speed\000"
 4347      6B5F7370 
 4347      65656400 
 4348              	.LASF177:
 4349 01ce 72786275 		.ascii	"rxbuf\000"
 4349      6600
 4350              	.LASF191:
 4351 01d4 6932635F 		.ascii	"i2c_lld_master_transmit_timeout\000"
 4351      6C6C645F 
 4351      6D617374 
 4351      65725F74 
 4351      72616E73 
ARM GAS  /tmp/cc5Sh9Px.s 			page 79


 4352              	.LASF150:
 4353 01f4 61646472 		.ascii	"addr\000"
 4353      00
 4354              	.LASF159:
 4355 01f9 62617365 		.ascii	"basePri\000"
 4355      50726900 
 4356              	.LASF72:
 4357 0201 76746C69 		.ascii	"vtlist\000"
 4357      737400
 4358              	.LASF156:
 4359 0208 706F7274 		.ascii	"port_unlock\000"
 4359      5F756E6C 
 4359      6F636B00 
 4360              	.LASF41:
 4361 0214 6D736771 		.ascii	"msgqueue\000"
 4361      75657565 
 4361      00
 4362              	.LASF131:
 4363 021d 69326361 		.ascii	"i2caddr_t\000"
 4363      6464725F 
 4363      7400
 4364              	.LASF37:
 4365 0227 73746174 		.ascii	"state\000"
 4365      6500
 4366              	.LASF9:
 4367 022d 6C6F6E67 		.ascii	"long int\000"
 4367      20696E74 
 4367      00
 4368              	.LASF23:
 4369 0236 74737461 		.ascii	"tstate_t\000"
 4369      74655F74 
 4369      00
 4370              	.LASF62:
 4371 023f 66756E63 		.ascii	"func\000"
 4371      00
 4372              	.LASF46:
 4373 0244 73746174 		.ascii	"stats\000"
 4373      7300
 4374              	.LASF85:
 4375 024a 464C5452 		.ascii	"FLTR\000"
 4375      00
 4376              	.LASF120:
 4377 024f 73686966 		.ascii	"shift\000"
 4377      7400
 4378              	.LASF151:
 4379 0255 7278646D 		.ascii	"rxdmamode\000"
 4379      616D6F64 
 4379      6500
 4380              	.LASF154:
 4381 025f 646D6174 		.ascii	"dmatx\000"
 4381      7800
 4382              	.LASF135:
 4383 0265 4F504D4F 		.ascii	"OPMODE_SMBUS_HOST\000"
 4383      44455F53 
 4383      4D425553 
 4383      5F484F53 
 4383      5400
ARM GAS  /tmp/cc5Sh9Px.s 			page 80


 4384              	.LASF10:
 4385 0277 5F5F7569 		.ascii	"__uint32_t\000"
 4385      6E743332 
 4385      5F7400
 4386              	.LASF87:
 4387 0282 72656761 		.ascii	"regarm_t\000"
 4387      726D5F74 
 4387      00
 4388              	.LASF121:
 4389 028b 73656C66 		.ascii	"selfindex\000"
 4389      696E6465 
 4389      7800
 4390              	.LASF119:
 4391 0295 64756D6D 		.ascii	"dummy\000"
 4391      7900
 4392              	.LASF40:
 4393 029b 77616974 		.ascii	"waiting\000"
 4393      696E6700 
 4394              	.LASF160:
 4395 02a3 6F73616C 		.ascii	"osalSysLock\000"
 4395      5379734C 
 4395      6F636B00 
 4396              	.LASF152:
 4397 02af 7478646D 		.ascii	"txdmamode\000"
 4397      616D6F64 
 4397      6500
 4398              	.LASF12:
 4399 02b9 6C6F6E67 		.ascii	"long long int\000"
 4399      206C6F6E 
 4399      6720696E 
 4399      7400
 4400              	.LASF76:
 4401 02c7 73797369 		.ascii	"sysinterval_t\000"
 4401      6E746572 
 4401      76616C5F 
 4401      7400
 4402              	.LASF28:
 4403 02d5 636E745F 		.ascii	"cnt_t\000"
 4403      7400
 4404              	.LASF0:
 4405 02db 756E7369 		.ascii	"unsigned int\000"
 4405      676E6564 
 4405      20696E74 
 4405      00
 4406              	.LASF194:
 4407 02e8 474E5520 		.ascii	"GNU C 4.9.3 20150529 (prerelease) -mcpu=cortex-m4 -"
 4407      4320342E 
 4407      392E3320 
 4407      32303135 
 4407      30353239 
 4408 031b 6D666C6F 		.ascii	"mfloat-abi=hard -mfpu=fpv4-sp-d16 -mno-thumb-interw"
 4408      61742D61 
 4408      62693D68 
 4408      61726420 
 4408      2D6D6670 
 4409 034e 6F726B20 		.ascii	"ork -mthumb -g -Os -fomit-frame-pointer -falign-fun"
 4409      2D6D7468 
ARM GAS  /tmp/cc5Sh9Px.s 			page 81


 4409      756D6220 
 4409      2D67202D 
 4409      4F73202D 
 4410 0381 6374696F 		.ascii	"ctions=16 -ffunction-sections -fdata-sections -fno-"
 4410      6E733D31 
 4410      36202D66 
 4410      66756E63 
 4410      74696F6E 
 4411 03b4 636F6D6D 		.ascii	"common -fsingle-precision-constant\000"
 4411      6F6E202D 
 4411      6673696E 
 4411      676C652D 
 4411      70726563 
 4412              	.LASF175:
 4413 03d7 74786275 		.ascii	"txbuf\000"
 4413      6600
 4414              	.LASF108:
 4415 03dd 77747365 		.ascii	"wtsemp\000"
 4415      6D7000
 4416              	.LASF147:
 4417 03e4 6572726F 		.ascii	"errors\000"
 4417      727300
 4418              	.LASF106:
 4419 03eb 77747472 		.ascii	"wttrp\000"
 4419      7000
 4420              	.LASF179:
 4421 03f1 74696D65 		.ascii	"timeout\000"
 4421      6F757400 
 4422              	.LASF98:
 4423 03f9 6E5F6972 		.ascii	"n_irq\000"
 4423      7100
 4424              	.LASF31:
 4425 03ff 71756575 		.ascii	"queue\000"
 4425      6500
 4426              	.LASF45:
 4427 0405 6D706F6F 		.ascii	"mpool\000"
 4427      6C00
 4428              	.LASF134:
 4429 040b 4F504D4F 		.ascii	"OPMODE_SMBUS_DEVICE\000"
 4429      44455F53 
 4429      4D425553 
 4429      5F444556 
 4429      49434500 
 4430              	.LASF7:
 4431 041f 73686F72 		.ascii	"short unsigned int\000"
 4431      7420756E 
 4431      7369676E 
 4431      65642069 
 4431      6E7400
 4432              	.LASF102:
 4433 0432 6B65726E 		.ascii	"kernel_stats_t\000"
 4433      656C5F73 
 4433      74617473 
 4433      5F7400
 4434              	.LASF145:
 4435 0441 49324344 		.ascii	"I2CDriver\000"
 4435      72697665 
ARM GAS  /tmp/cc5Sh9Px.s 			page 82


 4435      7200
 4436              	.LASF49:
 4437 044b 63685F74 		.ascii	"ch_thread\000"
 4437      68726561 
 4437      6400
 4438              	.LASF73:
 4439 0455 6D61696E 		.ascii	"mainthread\000"
 4439      74687265 
 4439      616400
 4440              	.LASF35:
 4441 0460 6E616D65 		.ascii	"name\000"
 4441      00
 4442              	.LASF26:
 4443 0465 6D73675F 		.ascii	"msg_t\000"
 4443      7400
 4444              	.LASF95:
 4445 046b 6C617374 		.ascii	"last\000"
 4445      00
 4446              	.LASF29:
 4447 0470 75636E74 		.ascii	"ucnt_t\000"
 4447      5F7400
 4448              	.LASF42:
 4449 0477 6570656E 		.ascii	"epending\000"
 4449      64696E67 
 4449      00
 4450              	.LASF69:
 4451 0480 63685F73 		.ascii	"ch_system_t\000"
 4451      79737465 
 4451      6D5F7400 
 4452              	.LASF22:
 4453 048c 746D6F64 		.ascii	"tmode_t\000"
 4453      655F7400 
 4454              	.LASF16:
 4455 0494 75696E74 		.ascii	"uint16_t\000"
 4455      31365F74 
 4455      00
 4456              	.LASF101:
 4457 049d 6D5F6372 		.ascii	"m_crit_isr\000"
 4457      69745F69 
 4457      737200
 4458              	.LASF56:
 4459 04a8 63685F72 		.ascii	"ch_ready_list\000"
 4459      65616479 
 4459      5F6C6973 
 4459      7400
 4460              	.LASF27:
 4461 04b6 6576656E 		.ascii	"eventmask_t\000"
 4461      746D6173 
 4461      6B5F7400 
 4462              	.LASF5:
 4463 04c2 73686F72 		.ascii	"short int\000"
 4463      7420696E 
 4463      7400
 4464              	.LASF8:
 4465 04cc 5F5F696E 		.ascii	"__int32_t\000"
 4465      7433325F 
 4465      7400
ARM GAS  /tmp/cc5Sh9Px.s 			page 83


 4466              	.LASF88:
 4467 04d6 73746B61 		.ascii	"stkalign_t\000"
 4467      6C69676E 
 4467      5F7400
 4468              	.LASF190:
 4469 04e1 6932635F 		.ascii	"i2c_lld_stop\000"
 4469      6C6C645F 
 4469      73746F70 
 4469      00
 4470              	.LASF44:
 4471 04ee 7265616C 		.ascii	"realprio\000"
 4471      7072696F 
 4471      00
 4472              	.LASF188:
 4473 04f7 6932635F 		.ascii	"i2c_lld_start\000"
 4473      6C6C645F 
 4473      73746172 
 4473      7400
 4474              	.LASF186:
 4475 0505 5F737461 		.ascii	"_stats_stop_measure_crit_thd\000"
 4475      74735F73 
 4475      746F705F 
 4475      6D656173 
 4475      7572655F 
 4476              	.LASF77:
 4477 0522 73697A65 		.ascii	"sizetype\000"
 4477      74797065 
 4477      00
 4478              	.LASF47:
 4479 052b 74687265 		.ascii	"thread_reference_t\000"
 4479      61645F72 
 4479      65666572 
 4479      656E6365 
 4479      5F7400
 4480              	.LASF64:
 4481 053e 63685F76 		.ascii	"ch_virtual_timers_list\000"
 4481      69727475 
 4481      616C5F74 
 4481      696D6572 
 4481      735F6C69 
 4482              	.LASF168:
 4483 0555 69326353 		.ascii	"i2cStart\000"
 4483      74617274 
 4483      00
 4484              	.LASF195:
 4485 055e 2E2E2F2E 		.ascii	"../../modules/ChibiOS/os/hal/src/hal_i2c.c\000"
 4485      2E2F6D6F 
 4485      64756C65 
 4485      732F4368 
 4485      6962694F 
 4486              	.LASF143:
 4487 0589 64757479 		.ascii	"duty_cycle\000"
 4487      5F637963 
 4487      6C6500
 4488              	.LASF185:
 4489 0594 5F737461 		.ascii	"_stats_start_measure_crit_thd\000"
 4489      74735F73 
ARM GAS  /tmp/cc5Sh9Px.s 			page 84


 4489      74617274 
 4489      5F6D6561 
 4489      73757265 
 4490              	.LASF193:
 4491 05b2 63684D74 		.ascii	"chMtxLock\000"
 4491      784C6F63 
 4491      6B00
 4492              	.LASF165:
 4493 05bc 6932634F 		.ascii	"i2cObjectInit\000"
 4493      626A6563 
 4493      74496E69 
 4493      7400
 4494              	.LASF178:
 4495 05ca 72786279 		.ascii	"rxbytes\000"
 4495      74657300 
 4496              	.LASF172:
 4497 05d2 69326353 		.ascii	"i2cStop\000"
 4497      746F7000 
 4498              	.LASF89:
 4499 05da 706F7274 		.ascii	"port_context\000"
 4499      5F636F6E 
 4499      74657874 
 4499      00
 4500              	.LASF92:
 4501 05e7 746D5F63 		.ascii	"tm_calibration_t\000"
 4501      616C6962 
 4501      72617469 
 4501      6F6E5F74 
 4501      00
 4502              	.LASF133:
 4503 05f8 4F504D4F 		.ascii	"OPMODE_I2C\000"
 4503      44455F49 
 4503      324300
 4504              	.LASF32:
 4505 0603 7072696F 		.ascii	"prio\000"
 4505      00
 4506              	.LASF176:
 4507 0608 74786279 		.ascii	"txbytes\000"
 4507      74657300 
 4508              	.LASF57:
 4509 0610 63757272 		.ascii	"current\000"
 4509      656E7400 
 4510              	.LASF13:
 4511 0618 5F5F7569 		.ascii	"__uint64_t\000"
 4511      6E743634 
 4511      5F7400
 4512              	.LASF96:
 4513 0623 63756D75 		.ascii	"cumulative\000"
 4513      6C617469 
 4513      766500
 4514              	.LASF33:
 4515 062e 6E657765 		.ascii	"newer\000"
 4515      7200
 4516              	.LASF24:
 4517 0634 74726566 		.ascii	"trefs_t\000"
 4517      735F7400 
 4518              	.LASF130:
ARM GAS  /tmp/cc5Sh9Px.s 			page 85


 4519 063c 69326373 		.ascii	"i2cstate_t\000"
 4519      74617465 
 4519      5F7400
 4520              	.LASF139:
 4521 0647 46415354 		.ascii	"FAST_DUTY_CYCLE_16_9\000"
 4521      5F445554 
 4521      595F4359 
 4521      434C455F 
 4521      31365F39 
 4522              	.LASF39:
 4523 065c 72656673 		.ascii	"refs\000"
 4523      00
 4524              	.LASF59:
 4525 0661 76697274 		.ascii	"virtual_timer_t\000"
 4525      75616C5F 
 4525      74696D65 
 4525      725F7400 
 4526              	.LASF123:
 4527 0671 73746D33 		.ascii	"stm32_dma_stream_t\000"
 4527      325F646D 
 4527      615F7374 
 4527      7265616D 
 4527      5F7400
 4528              	.LASF181:
 4529 0684 69326341 		.ascii	"i2cAcquireBus\000"
 4529      63717569 
 4529      72654275 
 4529      7300
 4530              	.LASF25:
 4531 0692 74707269 		.ascii	"tprio_t\000"
 4531      6F5F7400 
 4532              	.LASF127:
 4533 069a 4932435F 		.ascii	"I2C_ACTIVE_TX\000"
 4533      41435449 
 4533      56455F54 
 4533      5800
 4534              	.LASF132:
 4535 06a8 69326366 		.ascii	"i2cflags_t\000"
 4535      6C616773 
 4535      5F7400
 4536              	.LASF148:
 4537 06b3 6D757465 		.ascii	"mutex\000"
 4537      7800
 4538              	.LASF99:
 4539 06b9 6E5F6374 		.ascii	"n_ctxswc\000"
 4539      78737763 
 4539      00
 4540              	.LASF116:
 4541 06c2 5F426F6F 		.ascii	"_Bool\000"
 4541      6C00
 4542              	.LASF17:
 4543 06c8 696E7433 		.ascii	"int32_t\000"
 4543      325F7400 
 4544              	.LASF4:
 4545 06d0 756E7369 		.ascii	"unsigned char\000"
 4545      676E6564 
 4545      20636861 
ARM GAS  /tmp/cc5Sh9Px.s 			page 86


 4545      7200
 4546              	.LASF170:
 4547 06de 69326353 		.ascii	"i2cSoftStop\000"
 4547      6F667453 
 4547      746F7000 
 4548              	.LASF141:
 4549 06ea 6F705F6D 		.ascii	"op_mode\000"
 4549      6F646500 
 4550              	.LASF124:
 4551 06f2 4932435F 		.ascii	"I2C_UNINIT\000"
 4551      554E494E 
 4551      495400
 4552              	.LASF65:
 4553 06fd 6C617374 		.ascii	"lasttime\000"
 4553      74696D65 
 4553      00
 4554              	.LASF173:
 4555 0706 69326347 		.ascii	"i2cGetErrors\000"
 4555      65744572 
 4555      726F7273 
 4555      00
 4556              	.LASF110:
 4557 0713 65776D61 		.ascii	"ewmask\000"
 4557      736B00
 4558              	.LASF70:
 4559 071a 63685F73 		.ascii	"ch_system\000"
 4559      79737465 
 4559      6D00
 4560              	.LASF171:
 4561 0724 5F5F6675 		.ascii	"__func__\000"
 4561      6E635F5F 
 4561      00
 4562              	.LASF166:
 4563 072d 63685379 		.ascii	"chSysLock\000"
 4563      734C6F63 
 4563      6B00
 4564              	.LASF161:
 4565 0737 6F73616C 		.ascii	"osalSysUnlock\000"
 4565      53797355 
 4565      6E6C6F63 
 4565      6B00
 4566              	.LASF187:
 4567 0745 63684D74 		.ascii	"chMtxObjectInit\000"
 4567      784F626A 
 4567      65637449 
 4567      6E697400 
 4568              	.LASF138:
 4569 0755 46415354 		.ascii	"FAST_DUTY_CYCLE_2\000"
 4569      5F445554 
 4569      595F4359 
 4569      434C455F 
 4569      3200
 4570              	.LASF129:
 4571 0767 4932435F 		.ascii	"I2C_LOCKED\000"
 4571      4C4F434B 
 4571      454400
 4572              	.LASF111:
ARM GAS  /tmp/cc5Sh9Px.s 			page 87


 4573 0772 63685F73 		.ascii	"ch_semaphore\000"
 4573      656D6170 
 4573      686F7265 
 4573      00
 4574              	.LASF118:
 4575 077f 69666372 		.ascii	"ifcr\000"
 4575      00
 4576              	.LASF18:
 4577 0784 75696E74 		.ascii	"uint32_t\000"
 4577      33325F74 
 4577      00
 4578              	.LASF109:
 4579 078d 77746D74 		.ascii	"wtmtxp\000"
 4579      787000
 4580              	.LASF50:
 4581 0794 63685F74 		.ascii	"ch_threads_list\000"
 4581      68726561 
 4581      64735F6C 
 4581      69737400 
 4582              	.LASF113:
 4583 07a4 6F776E65 		.ascii	"owner\000"
 4583      7200
 4584              	.LASF128:
 4585 07aa 4932435F 		.ascii	"I2C_ACTIVE_RX\000"
 4585      41435449 
 4585      56455F52 
 4585      5800
 4586              	.LASF11:
 4587 07b8 6C6F6E67 		.ascii	"long unsigned int\000"
 4587      20756E73 
 4587      69676E65 
 4587      6420696E 
 4587      7400
 4588              	.LASF36:
 4589 07ca 77616261 		.ascii	"wabase\000"
 4589      736500
 4590              	.LASF114:
 4591 07d1 63686172 		.ascii	"char\000"
 4591      00
 4592              	.LASF34:
 4593 07d6 6F6C6465 		.ascii	"older\000"
 4593      7200
 4594              	.LASF146:
 4595 07dc 636F6E66 		.ascii	"config\000"
 4595      696700
 4596              	.LASF163:
 4597 07e3 6F73616C 		.ascii	"osalMutexUnlock\000"
 4597      4D757465 
 4597      78556E6C 
 4597      6F636B00 
 4598              	.LASF6:
 4599 07f3 5F5F7569 		.ascii	"__uint16_t\000"
 4599      6E743136 
 4599      5F7400
 4600              	.LASF30:
 4601 07fe 74687265 		.ascii	"thread_t\000"
 4601      61645F74 
ARM GAS  /tmp/cc5Sh9Px.s 			page 88


 4601      00
 4602              	.LASF93:
 4603 0807 62657374 		.ascii	"best\000"
 4603      00
 4604              	.LASF75:
 4605 080c 73797374 		.ascii	"systime_t\000"
 4605      696D655F 
 4605      7400
 4606              	.LASF58:
 4607 0816 76746675 		.ascii	"vtfunc_t\000"
 4607      6E635F74 
 4607      00
 4608              	.LASF157:
 4609 081f 5F5F7365 		.ascii	"__set_BASEPRI\000"
 4609      745F4241 
 4609      53455052 
 4609      4900
 4610              	.LASF162:
 4611 082d 6F73616C 		.ascii	"osalMutexLock\000"
 4611      4D757465 
 4611      784C6F63 
 4611      6B00
 4612              	.LASF78:
 4613 083b 4E445452 		.ascii	"NDTR\000"
 4613      00
 4614              	.LASF68:
 4615 0840 70616E69 		.ascii	"panic_msg\000"
 4615      635F6D73 
 4615      6700
 4616              	.LASF91:
 4617 084a 6F666673 		.ascii	"offset\000"
 4617      657400
 4618              	.LASF81:
 4619 0851 444D415F 		.ascii	"DMA_Stream_TypeDef\000"
 4619      53747265 
 4619      616D5F54 
 4619      79706544 
 4619      656600
 4620              	.LASF112:
 4621 0864 63685F6D 		.ascii	"ch_mutex\000"
 4621      75746578 
 4621      00
 4622              	.LASF196:
 4623 086d 2F686F6D 		.ascii	"/home/kozinalexey/f4by/ardupilot/build/F4BY\000"
 4623      652F6B6F 
 4623      7A696E61 
 4623      6C657865 
 4623      792F6634 
 4624              	.LASF60:
 4625 0899 63685F76 		.ascii	"ch_virtual_timer\000"
 4625      69727475 
 4625      616C5F74 
 4625      696D6572 
 4625      00
 4626              	.LASF20:
 4627 08aa 7274636E 		.ascii	"rtcnt_t\000"
 4627      745F7400 
ARM GAS  /tmp/cc5Sh9Px.s 			page 89


 4628              	.LASF80:
 4629 08b2 4D314152 		.ascii	"M1AR\000"
 4629      00
 4630              	.LASF144:
 4631 08b7 49324343 		.ascii	"I2CConfig\000"
 4631      6F6E6669 
 4631      6700
 4632              	.LASF52:
 4633 08c1 74687265 		.ascii	"threads_queue_t\000"
 4633      6164735F 
 4633      71756575 
 4633      655F7400 
 4634              	.LASF184:
 4635 08d1 6932635F 		.ascii	"i2c_lld_init\000"
 4635      6C6C645F 
 4635      696E6974 
 4635      00
 4636              	.LASF71:
 4637 08de 726C6973 		.ascii	"rlist\000"
 4637      7400
 4638              	.LASF15:
 4639 08e4 75696E74 		.ascii	"uint8_t\000"
 4639      385F7400 
 4640              	.LASF82:
 4641 08ec 4F415231 		.ascii	"OAR1\000"
 4641      00
 4642              	.LASF83:
 4643 08f1 4F415232 		.ascii	"OAR2\000"
 4643      00
 4644              	.LASF38:
 4645 08f6 666C6167 		.ascii	"flags\000"
 4645      7300
 4646              	.LASF180:
 4647 08fc 6932634D 		.ascii	"i2cMasterReceiveTimeout\000"
 4647      61737465 
 4647      72526563 
 4647      65697665 
 4647      54696D65 
 4648              	.LASF105:
 4649 0914 77746F62 		.ascii	"wtobjp\000"
 4649      6A7000
 4650              	.LASF48:
 4651 091b 74687265 		.ascii	"threads_list_t\000"
 4651      6164735F 
 4651      6C697374 
 4651      5F7400
 4652              	.LASF164:
 4653 092a 69326349 		.ascii	"i2cInit\000"
 4653      6E697400 
 4654              	.LASF189:
 4655 0932 6932635F 		.ascii	"i2c_lld_soft_stop\000"
 4655      6C6C645F 
 4655      736F6674 
 4655      5F73746F 
 4655      7000
 4656              	.LASF67:
 4657 0944 63685F73 		.ascii	"ch_system_debug\000"
ARM GAS  /tmp/cc5Sh9Px.s 			page 90


 4657      79737465 
 4657      6D5F6465 
 4657      62756700 
 4658              	.LASF86:
 4659 0954 4932435F 		.ascii	"I2C_TypeDef\000"
 4659      54797065 
 4659      44656600 
 4660              	.LASF136:
 4661 0960 6932636F 		.ascii	"i2copmode_t\000"
 4661      706D6F64 
 4661      655F7400 
 4662              	.LASF149:
 4663 096c 74687265 		.ascii	"thread\000"
 4663      616400
 4664              	.LASF43:
 4665 0973 6D74786C 		.ascii	"mtxlist\000"
 4665      69737400 
 4666              	.LASF100:
 4667 097b 6D5F6372 		.ascii	"m_crit_thd\000"
 4667      69745F74 
 4667      686400
 4668              	.LASF122:
 4669 0986 76656374 		.ascii	"vector\000"
 4669      6F7200
 4670              		.ident	"GCC: (15:4.9.3+svn231177-1) 4.9.3 20150529 (prerelease)"
ARM GAS  /tmp/cc5Sh9Px.s 			page 91


DEFINED SYMBOLS
                            *ABS*:0000000000000000 hal_i2c.c
     /tmp/cc5Sh9Px.s:21     .text.i2cInit:0000000000000000 $t
     /tmp/cc5Sh9Px.s:26     .text.i2cInit:0000000000000000 i2cInit
     /tmp/cc5Sh9Px.s:41     .text.i2cObjectInit:0000000000000000 $t
     /tmp/cc5Sh9Px.s:46     .text.i2cObjectInit:0000000000000000 i2cObjectInit
     /tmp/cc5Sh9Px.s:75     .text.i2cStart:0000000000000000 $t
     /tmp/cc5Sh9Px.s:80     .text.i2cStart:0000000000000000 i2cStart
     /tmp/cc5Sh9Px.s:155    .text.i2cSoftStop:0000000000000000 $t
     /tmp/cc5Sh9Px.s:160    .text.i2cSoftStop:0000000000000000 i2cSoftStop
     /tmp/cc5Sh9Px.s:233    .text.i2cStop:0000000000000000 $t
     /tmp/cc5Sh9Px.s:238    .text.i2cStop:0000000000000000 i2cStop
     /tmp/cc5Sh9Px.s:311    .text.i2cGetErrors:0000000000000000 $t
     /tmp/cc5Sh9Px.s:316    .text.i2cGetErrors:0000000000000000 i2cGetErrors
     /tmp/cc5Sh9Px.s:332    .text.i2cMasterTransmitTimeout:0000000000000000 $t
     /tmp/cc5Sh9Px.s:337    .text.i2cMasterTransmitTimeout:0000000000000000 i2cMasterTransmitTimeout
     /tmp/cc5Sh9Px.s:442    .text.i2cMasterReceiveTimeout:0000000000000000 $t
     /tmp/cc5Sh9Px.s:447    .text.i2cMasterReceiveTimeout:0000000000000000 i2cMasterReceiveTimeout
     /tmp/cc5Sh9Px.s:547    .text.i2cAcquireBus:0000000000000000 $t
     /tmp/cc5Sh9Px.s:552    .text.i2cAcquireBus:0000000000000000 i2cAcquireBus
     /tmp/cc5Sh9Px.s:573    .text.i2cReleaseBus:0000000000000000 $t
     /tmp/cc5Sh9Px.s:578    .text.i2cReleaseBus:0000000000000000 i2cReleaseBus
                     .debug_frame:0000000000000010 $d

UNDEFINED SYMBOLS
i2c_lld_init
chMtxObjectInit
_stats_start_measure_crit_thd
i2c_lld_start
_stats_stop_measure_crit_thd
i2c_lld_soft_stop
i2c_lld_stop
i2c_lld_master_transmit_timeout
i2c_lld_master_receive_timeout
chMtxLock
chMtxUnlock
