ARM GAS  /tmp/ccBfrkn4.s 			page 1


   1              		.syntax unified
   2              		.cpu cortex-m4
   3              		.eabi_attribute 27, 1
   4              		.eabi_attribute 28, 1
   5              		.fpu fpv4-sp-d16
   6              		.eabi_attribute 20, 1
   7              		.eabi_attribute 21, 1
   8              		.eabi_attribute 23, 3
   9              		.eabi_attribute 24, 1
  10              		.eabi_attribute 25, 1
  11              		.eabi_attribute 26, 1
  12              		.eabi_attribute 30, 4
  13              		.eabi_attribute 34, 1
  14              		.eabi_attribute 18, 4
  15              		.thumb
  16              		.file	"hal_pal.c"
  17              		.text
  18              	.Ltext0:
  19              		.cfi_sections	.debug_frame
  20              		.section	.text.palReadBus,"ax",%progbits
  21              		.align	1
  22              		.global	palReadBus
  23              		.thumb
  24              		.thumb_func
  25              		.type	palReadBus, %function
  26              	palReadBus:
  27              	.LFB323:
  28              		.file 1 "../../modules/ChibiOS/os/hal/src/hal_pal.c"
  29              		.loc 1 65 0
  30              		.cfi_startproc
  31              		@ args = 0, pretend = 0, frame = 0
  32              		@ frame_needed = 0, uses_anonymous_args = 0
  33              		@ link register save eliminated.
  34              	.LVL0:
  35              		.loc 1 69 0
  36 0000 0368     		ldr	r3, [r0]
  37 0002 8268     		ldr	r2, [r0, #8]
  38 0004 1B69     		ldr	r3, [r3, #16]
  39 0006 4068     		ldr	r0, [r0, #4]
  40              	.LVL1:
  41 0008 D340     		lsrs	r3, r3, r2
  42              		.loc 1 70 0
  43 000a 1840     		ands	r0, r0, r3
  44 000c 7047     		bx	lr
  45              		.cfi_endproc
  46              	.LFE323:
  47              		.size	palReadBus, .-palReadBus
  48              		.section	.text.palWriteBus,"ax",%progbits
  49              		.align	1
  50              		.global	palWriteBus
  51              		.thumb
  52              		.thumb_func
  53              		.type	palWriteBus, %function
  54              	palWriteBus:
  55              	.LFB324:
  56              		.loc 1 90 0
  57              		.cfi_startproc
ARM GAS  /tmp/ccBfrkn4.s 			page 2


  58              		@ args = 0, pretend = 0, frame = 0
  59              		@ frame_needed = 0, uses_anonymous_args = 0
  60              	.LVL2:
  61 0000 30B5     		push	{r4, r5, lr}
  62              		.cfi_def_cfa_offset 12
  63              		.cfi_offset 4, -12
  64              		.cfi_offset 5, -8
  65              		.cfi_offset 14, -4
  66              	.LBB2:
  67              		.loc 1 94 0
  68 0002 4368     		ldr	r3, [r0, #4]
  69 0004 8468     		ldr	r4, [r0, #8]
  70 0006 23EA0102 		bic	r2, r3, r1
  71 000a 04F11005 		add	r5, r4, #16
  72 000e 0B40     		ands	r3, r3, r1
  73 0010 AA40     		lsls	r2, r2, r5
  74 0012 A340     		lsls	r3, r3, r4
  75 0014 1343     		orrs	r3, r3, r2
  76              	.LVL3:
  77 0016 0268     		ldr	r2, [r0]
  78 0018 9361     		str	r3, [r2, #24]
  79 001a 30BD     		pop	{r4, r5, pc}
  80              	.LBE2:
  81              		.cfi_endproc
  82              	.LFE324:
  83              		.size	palWriteBus, .-palWriteBus
  84              		.section	.text.palSetBusMode,"ax",%progbits
  85              		.align	1
  86              		.global	palSetBusMode
  87              		.thumb
  88              		.thumb_func
  89              		.type	palSetBusMode, %function
  90              	palSetBusMode:
  91              	.LFB325:
  92              		.loc 1 113 0
  93              		.cfi_startproc
  94              		@ args = 0, pretend = 0, frame = 0
  95              		@ frame_needed = 0, uses_anonymous_args = 0
  96              		@ link register save eliminated.
  97              	.LVL4:
  98              		.loc 1 113 0
  99 0000 0A46     		mov	r2, r1
 100              		.loc 1 117 0
 101 0002 0BC8     		ldmia	r0, {r0, r1, r3}
 102              	.LVL5:
 103 0004 9940     		lsls	r1, r1, r3
 104 0006 FFF7FEBF 		b	_pal_lld_setgroupmode
 105              	.LVL6:
 106              		.cfi_endproc
 107              	.LFE325:
 108              		.size	palSetBusMode, .-palSetBusMode
 109              		.section	.text.palSetPadCallbackI,"ax",%progbits
 110              		.align	1
 111              		.global	palSetPadCallbackI
 112              		.thumb
 113              		.thumb_func
 114              		.type	palSetPadCallbackI, %function
ARM GAS  /tmp/ccBfrkn4.s 			page 3


 115              	palSetPadCallbackI:
 116              	.LFB326:
 117              		.loc 1 132 0
 118              		.cfi_startproc
 119              		@ args = 0, pretend = 0, frame = 0
 120              		@ frame_needed = 0, uses_anonymous_args = 0
 121              		@ link register save eliminated.
 122              	.LVL7:
 123              		.loc 1 135 0
 124 0000 0348     		ldr	r0, .L5
 125              	.LVL8:
 126 0002 40F83120 		str	r2, [r0, r1, lsl #3]
 127              		.loc 1 136 0
 128 0006 00EBC100 		add	r0, r0, r1, lsl #3
 129 000a 4360     		str	r3, [r0, #4]
 130 000c 7047     		bx	lr
 131              	.L6:
 132 000e 00BF     		.align	2
 133              	.L5:
 134 0010 00000000 		.word	_pal_events
 135              		.cfi_endproc
 136              	.LFE326:
 137              		.size	palSetPadCallbackI, .-palSetPadCallbackI
 138              		.section	.text.palSetLineCallbackI,"ax",%progbits
 139              		.align	1
 140              		.global	palSetLineCallbackI
 141              		.thumb
 142              		.thumb_func
 143              		.type	palSetLineCallbackI, %function
 144              	palSetLineCallbackI:
 145              	.LFB327:
 146              		.loc 1 148 0
 147              		.cfi_startproc
 148              		@ args = 0, pretend = 0, frame = 0
 149              		@ frame_needed = 0, uses_anonymous_args = 0
 150              		@ link register save eliminated.
 151              	.LVL9:
 152              		.loc 1 150 0
 153 0000 00F00F00 		and	r0, r0, #15
 154              	.LVL10:
 155              		.loc 1 151 0
 156 0004 034B     		ldr	r3, .L8
 157 0006 43F83010 		str	r1, [r3, r0, lsl #3]
 158              		.loc 1 152 0
 159 000a 03EBC003 		add	r3, r3, r0, lsl #3
 160 000e 5A60     		str	r2, [r3, #4]
 161 0010 7047     		bx	lr
 162              	.L9:
 163 0012 00BF     		.align	2
 164              	.L8:
 165 0014 00000000 		.word	_pal_events
 166              		.cfi_endproc
 167              	.LFE327:
 168              		.size	palSetLineCallbackI, .-palSetLineCallbackI
 169              		.text
 170              	.Letext0:
 171              		.file 2 "/usr/include/newlib/machine/_default_types.h"
ARM GAS  /tmp/ccBfrkn4.s 			page 4


 172              		.file 3 "/usr/include/newlib/sys/_stdint.h"
 173              		.file 4 "/usr/include/newlib/stdint.h"
 174              		.file 5 "../../modules/ChibiOS/os/common/ports/ARMCMx/compilers/GCC/chtypes.h"
 175              		.file 6 "../../modules/ChibiOS/os/rt/include/chsystypes.h"
 176              		.file 7 "../../modules/ChibiOS/os/rt/include/chschd.h"
 177              		.file 8 "../../modules/ChibiOS/os/rt/include/chtime.h"
 178              		.file 9 "../../modules/ChibiOS/os/common/ports/ARMCMx/chcore.h"
 179              		.file 10 "../../modules/ChibiOS/os/common/ports/ARMCMx/chcore_v7m.h"
 180              		.file 11 "../../modules/ChibiOS/os/rt/include/chtm.h"
 181              		.file 12 "../../modules/ChibiOS/os/rt/include/chstats.h"
 182              		.file 13 "../../modules/ChibiOS/os/rt/include/chsem.h"
 183              		.file 14 "../../modules/ChibiOS/os/rt/include/chmtx.h"
 184              		.file 15 "../../modules/ChibiOS/os/hal/include/hal_pal.h"
 185              		.file 16 "../../modules/ChibiOS/os/hal/ports/STM32/LLD/GPIOv2/stm32_gpio.h"
 186              		.file 17 "../../modules/ChibiOS/os/hal/ports/STM32/LLD/GPIOv2/hal_pal_lld.h"
 187              		.file 18 "../../modules/ChibiOS/os/common/ext/ARM/CMSIS/Core/Include/core_cm4.h"