ARM GAS  /tmp/cc0MdUPR.s 			page 1


   1              		.syntax unified
   2              		.cpu cortex-m4
   3              		.eabi_attribute 27, 1
   4              		.eabi_attribute 28, 1
   5              		.fpu fpv4-sp-d16
   6              		.eabi_attribute 20, 1
   7              		.eabi_attribute 21, 1
   8              		.eabi_attribute 23, 3
   9              		.eabi_attribute 24, 1
  10              		.eabi_attribute 25, 1
  11              		.eabi_attribute 26, 1
  12              		.eabi_attribute 30, 4
  13              		.eabi_attribute 34, 1
  14              		.eabi_attribute 18, 4
  15              		.thumb
  16              		.file	"hal_spi_lld.c"
  17              		.text
  18              	.Ltext0:
  19              		.cfi_sections	.debug_frame
  20              		.section	.text.spi_lld_serve_tx_interrupt,"ax",%progbits
  21              		.align	1
  22              		.thumb
  23              		.thumb_func
  24              		.type	spi_lld_serve_tx_interrupt, %function
  25              	spi_lld_serve_tx_interrupt:
  26              	.LFB324:
  27              		.file 1 "../../modules/ChibiOS/os/hal/ports/STM32/LLD/SPIv1/hal_spi_lld.c"
  28              		.loc 1 170 0
  29              		.cfi_startproc
  30              		@ args = 0, pretend = 0, frame = 0
  31              		@ frame_needed = 0, uses_anonymous_args = 0
  32              		@ link register save eliminated.
  33              	.LVL0:
  34              		.loc 1 175 0
  35 0000 11F00C0F 		tst	r1, #12
  36 0004 02D0     		beq	.L1
  37              	.LVL1:
  38              	.LBB34:
  39              	.LBB35:
  40              		.file 2 "../../modules/ChibiOS/os/hal/osal/rt/osal.h"
  41              		.loc 2 480 0
  42 0006 0248     		ldr	r0, .L4
  43              	.LVL2:
  44 0008 FFF7FEBF 		b	chSysHalt
  45              	.LVL3:
  46              	.L1:
  47 000c 7047     		bx	lr
  48              	.L5:
  49 000e 00BF     		.align	2
  50              	.L4:
  51 0010 00000000 		.word	.LC0
  52              	.LBE35:
  53              	.LBE34:
  54              		.cfi_endproc
  55              	.LFE324:
  56              		.size	spi_lld_serve_tx_interrupt, .-spi_lld_serve_tx_interrupt
  57              		.section	.text.spi_lld_serve_rx_interrupt,"ax",%progbits
ARM GAS  /tmp/cc0MdUPR.s 			page 2


  58              		.align	1
  59              		.thumb
  60              		.thumb_func
  61              		.type	spi_lld_serve_rx_interrupt, %function
  62              	spi_lld_serve_rx_interrupt:
  63              	.LFB323:
  64              		.loc 1 132 0
  65              		.cfi_startproc
  66              		@ args = 0, pretend = 0, frame = 0
  67              		@ frame_needed = 0, uses_anonymous_args = 0
  68              	.LVL4:
  69              		.loc 1 136 0
  70 0000 11F00C0F 		tst	r1, #12
  71              		.loc 1 132 0
  72 0004 38B5     		push	{r3, r4, r5, lr}
  73              		.cfi_def_cfa_offset 16
  74              		.cfi_offset 3, -16
  75              		.cfi_offset 4, -12
  76              		.cfi_offset 5, -8
  77              		.cfi_offset 14, -4
  78              		.loc 1 132 0
  79 0006 0446     		mov	r4, r0
  80 0008 0D46     		mov	r5, r1
  81              		.loc 1 136 0
  82 000a 02D0     		beq	.L7
  83              	.LVL5:
  84              	.LBB56:
  85              	.LBB57:
  86              		.loc 2 480 0
  87 000c 2948     		ldr	r0, .L34
  88              	.LVL6:
  89 000e FFF7FEFF 		bl	chSysHalt
  90              	.LVL7:
  91              	.L7:
  92              	.LBE57:
  93              	.LBE56:
  94              		.loc 1 143 0
  95 0012 6368     		ldr	r3, [r4, #4]
  96 0014 1A78     		ldrb	r2, [r3]	@ zero_extendqisi2
  97 0016 AAB1     		cbz	r2, .L8
  98              		.loc 1 144 0
  99 0018 EA06     		lsls	r2, r5, #27
 100 001a 03D5     		bpl	.L9
 101              		.loc 1 146 0
 102 001c 5B68     		ldr	r3, [r3, #4]
 103 001e 0BB1     		cbz	r3, .L9
 104              		.loc 1 146 0 is_stmt 0 discriminator 1
 105 0020 2046     		mov	r0, r4
 106 0022 9847     		blx	r3
 107              	.LVL8:
 108              	.L9:
 109              		.loc 1 148 0 is_stmt 1
 110 0024 AB06     		lsls	r3, r5, #26
 111 0026 43D5     		bpl	.L6
 112              		.loc 1 150 0
 113 0028 6368     		ldr	r3, [r4, #4]
 114 002a 5B68     		ldr	r3, [r3, #4]
ARM GAS  /tmp/cc0MdUPR.s 			page 3


 115 002c 002B     		cmp	r3, #0
 116 002e 3FD0     		beq	.L6
 117              		.loc 1 150 0 is_stmt 0 discriminator 1
 118 0030 0422     		movs	r2, #4
 119 0032 2270     		strb	r2, [r4]
 120 0034 2046     		mov	r0, r4
 121 0036 9847     		blx	r3
 122              	.LVL9:
 123 0038 2378     		ldrb	r3, [r4]	@ zero_extendqisi2
 124 003a 042B     		cmp	r3, #4
 125 003c 38D1     		bne	.L6
 126              		.loc 1 150 0 discriminator 2
 127 003e 0323     		movs	r3, #3
 128 0040 2370     		strb	r3, [r4]
 129 0042 38BD     		pop	{r3, r4, r5, pc}
 130              	.LVL10:
 131              	.L8:
 132              		.loc 1 155 0 is_stmt 1
 133 0044 626A     		ldr	r2, [r4, #36]
 134 0046 1168     		ldr	r1, [r2]
 135 0048 0868     		ldr	r0, [r1]
 136 004a 20F01F00 		bic	r0, r0, #31
 137 004e 0860     		str	r0, [r1]
 138              	.LVL11:
 139              	.L13:
 140              		.loc 1 155 0 is_stmt 0 discriminator 2
 141 0050 0868     		ldr	r0, [r1]
 142 0052 C507     		lsls	r5, r0, #31
 143 0054 FCD4     		bmi	.L13
 144              		.loc 1 155 0 discriminator 3
 145 0056 507A     		ldrb	r0, [r2, #9]	@ zero_extendqisi2
 146 0058 5168     		ldr	r1, [r2, #4]
 147 005a 3D22     		movs	r2, #61
 148 005c 8240     		lsls	r2, r2, r0
 149 005e 0A60     		str	r2, [r1]
 150              		.loc 1 156 0 is_stmt 1 discriminator 3
 151 0060 226A     		ldr	r2, [r4, #32]
 152 0062 1168     		ldr	r1, [r2]
 153 0064 0868     		ldr	r0, [r1]
 154 0066 20F01F00 		bic	r0, r0, #31
 155 006a 0860     		str	r0, [r1]
 156              	.L14:
 157              		.loc 1 156 0 is_stmt 0 discriminator 2
 158 006c 0868     		ldr	r0, [r1]
 159 006e C007     		lsls	r0, r0, #31
 160 0070 FCD4     		bmi	.L14
 161              		.loc 1 156 0 discriminator 3
 162 0072 507A     		ldrb	r0, [r2, #9]	@ zero_extendqisi2
 163 0074 5168     		ldr	r1, [r2, #4]
 164              		.loc 1 160 0 is_stmt 1 discriminator 3
 165 0076 5B68     		ldr	r3, [r3, #4]
 166              		.loc 1 156 0 discriminator 3
 167 0078 3D22     		movs	r2, #61
 168 007a 8240     		lsls	r2, r2, r0
 169 007c 0A60     		str	r2, [r1]
 170              		.loc 1 160 0 discriminator 3
 171 007e 33B1     		cbz	r3, .L15
ARM GAS  /tmp/cc0MdUPR.s 			page 4


 172              		.loc 1 160 0 is_stmt 0 discriminator 1
 173 0080 0422     		movs	r2, #4
 174 0082 2270     		strb	r2, [r4]
 175 0084 2046     		mov	r0, r4
 176 0086 9847     		blx	r3
 177              	.LVL12:
 178 0088 2378     		ldrb	r3, [r4]	@ zero_extendqisi2
 179 008a 042B     		cmp	r3, #4
 180 008c 01D1     		bne	.L16
 181              	.L15:
 182              		.loc 1 160 0 discriminator 3
 183 008e 0223     		movs	r3, #2
 184 0090 2370     		strb	r3, [r4]
 185              	.L16:
 186              	.LVL13:
 187              	.LBB58:
 188              	.LBB59:
 189              	.LBB60:
 190              	.LBB61:
 191              	.LBB62:
 192              	.LBB63:
 193              	.LBB64:
 194              		.file 3 "../../modules/ChibiOS/os/common/ext/ARM/CMSIS/Core/Include/cmsis_gcc.h"
 195              		.loc 3 493 0 is_stmt 1 discriminator 4
 196 0092 2023     		movs	r3, #32
 197              	@ 493 "../../modules/ChibiOS/os/common/ext/ARM/CMSIS/Core/Include/cmsis_gcc.h" 1
 198 0094 83F31188 		MSR basepri, r3
 199              	@ 0 "" 2
 200              		.thumb
 201              	.LBE64:
 202              	.LBE63:
 203              	.LBE62:
 204              	.LBE61:
 205              		.file 4 "../../modules/ChibiOS/os/rt/include/chsys.h"
 206              		.loc 4 396 0 discriminator 4
 207 0098 FFF7FEFF 		bl	_stats_start_measure_crit_isr
 208              	.LVL14:
 209              	.LBE60:
 210              	.LBE59:
 211              	.LBE58:
 212              	.LBB65:
 213              	.LBB66:
 214              		.loc 2 775 0 discriminator 4
 215 009c 04F10800 		add	r0, r4, #8
 216              	.LVL15:
 217 00a0 0021     		movs	r1, #0
 218 00a2 FFF7FEFF 		bl	chThdResumeI
 219              	.LVL16:
 220              	.LBE66:
 221              	.LBE65:
 222              	.LBB67:
 223              	.LBB68:
 224              	.LBB69:
 225              		.loc 4 416 0 discriminator 4
 226 00a6 FFF7FEFF 		bl	_stats_stop_measure_crit_isr
 227              	.LVL17:
 228              	.LBB70:
ARM GAS  /tmp/cc0MdUPR.s 			page 5


 229              	.LBB71:
 230              	.LBB72:
 231              	.LBB73:
 232              		.loc 3 493 0 discriminator 4
 233 00aa 0023     		movs	r3, #0
 234              	@ 493 "../../modules/ChibiOS/os/common/ext/ARM/CMSIS/Core/Include/cmsis_gcc.h" 1
 235 00ac 83F31188 		MSR basepri, r3
 236              	@ 0 "" 2
 237              	.LVL18:
 238              		.thumb
 239              	.L6:
 240 00b0 38BD     		pop	{r3, r4, r5, pc}
 241              	.LVL19:
 242              	.L35:
 243 00b2 00BF     		.align	2
 244              	.L34:
 245 00b4 00000000 		.word	.LC0
 246              	.LBE73:
 247              	.LBE72:
 248              	.LBE71:
 249              	.LBE70:
 250              	.LBE69:
 251              	.LBE68:
 252              	.LBE67:
 253              		.cfi_endproc
 254              	.LFE323:
 255              		.size	spi_lld_serve_rx_interrupt, .-spi_lld_serve_rx_interrupt
 256              		.section	.text.spi_lld_init,"ax",%progbits
 257              		.align	1
 258              		.global	spi_lld_init
 259              		.thumb
 260              		.thumb_func
 261              		.type	spi_lld_init, %function
 262              	spi_lld_init:
 263              	.LFB325:
 264              		.loc 1 197 0
 265              		.cfi_startproc
 266              		@ args = 0, pretend = 0, frame = 0
 267              		@ frame_needed = 0, uses_anonymous_args = 0
 268 0000 38B5     		push	{r3, r4, r5, lr}
 269              		.cfi_def_cfa_offset 16
 270              		.cfi_offset 3, -16
 271              		.cfi_offset 4, -12
 272              		.cfi_offset 5, -8
 273              		.cfi_offset 14, -4
 274              		.loc 1 200 0
 275 0002 0D4C     		ldr	r4, .L37
 276 0004 2046     		mov	r0, r4
 277 0006 FFF7FEFF 		bl	spiObjectInit
 278              	.LVL20:
 279              		.loc 1 201 0
 280 000a 0C4B     		ldr	r3, .L37+4
 281 000c E361     		str	r3, [r4, #28]
 282              		.loc 1 204 0
 283 000e 0C4B     		ldr	r3, .L37+8
 284 0010 A362     		str	r3, [r4, #40]
 285              		.loc 1 202 0
ARM GAS  /tmp/cc0MdUPR.s 			page 6


 286 0012 0025     		movs	r5, #0
 287              		.loc 1 210 0
 288 0014 3033     		adds	r3, r3, #48
 289 0016 E362     		str	r3, [r4, #44]
 290              		.loc 1 202 0
 291 0018 2562     		str	r5, [r4, #32]
 292              		.loc 1 203 0
 293 001a 6562     		str	r5, [r4, #36]
 294              		.loc 1 218 0
 295 001c 094C     		ldr	r4, .L37+12
 296 001e 2046     		mov	r0, r4
 297 0020 FFF7FEFF 		bl	spiObjectInit
 298              	.LVL21:
 299              		.loc 1 219 0
 300 0024 084B     		ldr	r3, .L37+16
 301 0026 E361     		str	r3, [r4, #28]
 302              		.loc 1 222 0
 303 0028 084B     		ldr	r3, .L37+20
 304 002a A362     		str	r3, [r4, #40]
 305              		.loc 1 228 0
 306 002c 3033     		adds	r3, r3, #48
 307              		.loc 1 220 0
 308 002e 2562     		str	r5, [r4, #32]
 309              		.loc 1 221 0
 310 0030 6562     		str	r5, [r4, #36]
 311              		.loc 1 228 0
 312 0032 E362     		str	r3, [r4, #44]
 313 0034 38BD     		pop	{r3, r4, r5, pc}
 314              	.L38:
 315 0036 00BF     		.align	2
 316              	.L37:
 317 0038 00000000 		.word	.LANCHOR0
 318 003c 00300140 		.word	1073819648
 319 0040 16000106 		.word	100728854
 320 0044 00000000 		.word	.LANCHOR1
 321 0048 00380040 		.word	1073756160
 322 004c 16000100 		.word	65558
 323              		.cfi_endproc
 324              	.LFE325:
 325              		.size	spi_lld_init, .-spi_lld_init
 326              		.section	.text.spi_lld_start,"ax",%progbits
 327              		.align	1
 328              		.global	spi_lld_start
 329              		.thumb
 330              		.thumb_func
 331              		.type	spi_lld_start, %function
 332              	spi_lld_start:
 333              	.LFB326:
 334              		.loc 1 315 0
 335              		.cfi_startproc
 336              		@ args = 0, pretend = 0, frame = 0
 337              		@ frame_needed = 0, uses_anonymous_args = 0
 338              	.LVL22:
 339 0000 38B5     		push	{r3, r4, r5, lr}
 340              		.cfi_def_cfa_offset 16
 341              		.cfi_offset 3, -16
 342              		.cfi_offset 4, -12
ARM GAS  /tmp/cc0MdUPR.s 			page 7


 343              		.cfi_offset 5, -8
 344              		.cfi_offset 14, -4
 345              		.loc 1 318 0
 346 0002 0378     		ldrb	r3, [r0]	@ zero_extendqisi2
 347 0004 012B     		cmp	r3, #1
 348              		.loc 1 315 0
 349 0006 0446     		mov	r4, r0
 350              		.loc 1 318 0
 351 0008 3ED1     		bne	.L40
 352              		.loc 1 320 0
 353 000a 3B4B     		ldr	r3, .L49
 354 000c 9842     		cmp	r0, r3
 355 000e 18D1     		bne	.L41
 356              		.loc 1 321 0
 357 0010 0A21     		movs	r1, #10
 358 0012 3A4A     		ldr	r2, .L49+4
 359 0014 2346     		mov	r3, r4
 360 0016 0820     		movs	r0, #8
 361              	.LVL23:
 362 0018 FFF7FEFF 		bl	dmaStreamAllocI
 363              	.LVL24:
 364              		.loc 1 326 0
 365 001c 384A     		ldr	r2, .L49+8
 366              		.loc 1 321 0
 367 001e 2062     		str	r0, [r4, #32]
 368              		.loc 1 326 0
 369 0020 2346     		mov	r3, r4
 370 0022 0B20     		movs	r0, #11
 371 0024 0A21     		movs	r1, #10
 372 0026 FFF7FEFF 		bl	dmaStreamAllocI
 373              	.LVL25:
 374              		.loc 1 331 0
 375 002a 364B     		ldr	r3, .L49+12
 376              		.loc 1 326 0
 377 002c 6062     		str	r0, [r4, #36]
 378              		.loc 1 331 0
 379 002e 5A6C     		ldr	r2, [r3, #68]
 380 0030 42F48052 		orr	r2, r2, #4096
 381 0034 5A64     		str	r2, [r3, #68]
 382 0036 5A6E     		ldr	r2, [r3, #100]
 383 0038 42F48052 		orr	r2, r2, #4096
 384 003c 5A66     		str	r2, [r3, #100]
 385 003e 5B6E     		ldr	r3, [r3, #100]
 386 0040 1AE0     		b	.L42
 387              	.LVL26:
 388              	.L41:
 389              		.loc 1 335 0
 390 0042 314B     		ldr	r3, .L49+16
 391 0044 9842     		cmp	r0, r3
 392 0046 17D1     		bne	.L42
 393              		.loc 1 336 0
 394 0048 0A21     		movs	r1, #10
 395 004a 2C4A     		ldr	r2, .L49+4
 396 004c 2346     		mov	r3, r4
 397 004e 0320     		movs	r0, #3
 398              	.LVL27:
 399 0050 FFF7FEFF 		bl	dmaStreamAllocI
ARM GAS  /tmp/cc0MdUPR.s 			page 8


 400              	.LVL28:
 401              		.loc 1 341 0
 402 0054 2A4A     		ldr	r2, .L49+8
 403              		.loc 1 336 0
 404 0056 2062     		str	r0, [r4, #32]
 405              		.loc 1 341 0
 406 0058 2346     		mov	r3, r4
 407 005a 0420     		movs	r0, #4
 408 005c 0A21     		movs	r1, #10
 409 005e FFF7FEFF 		bl	dmaStreamAllocI
 410              	.LVL29:
 411              		.loc 1 346 0
 412 0062 284B     		ldr	r3, .L49+12
 413              		.loc 1 341 0
 414 0064 6062     		str	r0, [r4, #36]
 415              		.loc 1 346 0
 416 0066 1A6C     		ldr	r2, [r3, #64]
 417 0068 42F48042 		orr	r2, r2, #16384
 418 006c 1A64     		str	r2, [r3, #64]
 419 006e 1A6E     		ldr	r2, [r3, #96]
 420 0070 42F48042 		orr	r2, r2, #16384
 421 0074 1A66     		str	r2, [r3, #96]
 422 0076 1B6E     		ldr	r3, [r3, #96]
 423              	.L42:
 424              		.loc 1 411 0
 425 0078 236A     		ldr	r3, [r4, #32]
 426 007a 1A68     		ldr	r2, [r3]
 427 007c E369     		ldr	r3, [r4, #28]
 428 007e 0C33     		adds	r3, r3, #12
 429 0080 9360     		str	r3, [r2, #8]
 430              		.loc 1 412 0
 431 0082 626A     		ldr	r2, [r4, #36]
 432 0084 1268     		ldr	r2, [r2]
 433 0086 9360     		str	r3, [r2, #8]
 434              	.L40:
 435              		.loc 1 416 0
 436 0088 6068     		ldr	r0, [r4, #4]
 437 008a E36A     		ldr	r3, [r4, #44]
 438 008c 018A     		ldrh	r1, [r0, #16]
 439 008e A26A     		ldr	r2, [r4, #40]
 440              		.loc 1 431 0
 441 0090 0578     		ldrb	r5, [r0]	@ zero_extendqisi2
 442              		.loc 1 416 0
 443 0092 11F4006F 		tst	r1, #2048
 444              		.loc 1 419 0
 445 0096 22F4F042 		bic	r2, r2, #30720
 446              		.loc 1 427 0
 447 009a 17BF     		itett	ne
 448 009c 23F4F043 		bicne	r3, r3, #30720
 449              		.loc 1 421 0
 450 00a0 23F4F043 		biceq	r3, r3, #30720
 451              		.loc 1 426 0
 452 00a4 42F42052 		orrne	r2, r2, #10240
 453              		.loc 1 428 0
 454 00a8 43F42053 		orrne	r3, r3, #10240
 455              		.loc 1 418 0
 456 00ac 0CBF     		ite	eq
ARM GAS  /tmp/cc0MdUPR.s 			page 9


 457 00ae A262     		streq	r2, [r4, #40]
 458              		.loc 1 425 0
 459 00b0 A262     		strne	r2, [r4, #40]
 460              		.loc 1 427 0
 461 00b2 E362     		str	r3, [r4, #44]
 462 00b4 A26A     		ldr	r2, [r4, #40]
 463 00b6 E36A     		ldr	r3, [r4, #44]
 464              		.loc 1 431 0
 465 00b8 2DB1     		cbz	r5, .L45
 466              		.loc 1 432 0
 467 00ba 42F48472 		orr	r2, r2, #264
 468 00be A262     		str	r2, [r4, #40]
 469              		.loc 1 433 0
 470 00c0 43F48473 		orr	r3, r3, #264
 471 00c4 04E0     		b	.L48
 472              	.L45:
 473              		.loc 1 436 0
 474 00c6 22F48472 		bic	r2, r2, #264
 475 00ca A262     		str	r2, [r4, #40]
 476              		.loc 1 437 0
 477 00cc 23F48473 		bic	r3, r3, #264
 478              	.L48:
 479 00d0 E362     		str	r3, [r4, #44]
 480              		.loc 1 441 0
 481 00d2 E369     		ldr	r3, [r4, #28]
 482 00d4 1A68     		ldr	r2, [r3]
 483 00d6 22F04002 		bic	r2, r2, #64
 484 00da 1A60     		str	r2, [r3]
 485              		.loc 1 444 0
 486 00dc 428A     		ldrh	r2, [r0, #18]
 487              		.loc 1 442 0
 488 00de 41F44171 		orr	r1, r1, #772
 489              		.loc 1 444 0
 490 00e2 42F00702 		orr	r2, r2, #7
 491 00e6 92B2     		uxth	r2, r2
 492              		.loc 1 442 0
 493 00e8 89B2     		uxth	r1, r1
 494 00ea 1960     		str	r1, [r3]
 495              		.loc 1 444 0
 496 00ec 5A60     		str	r2, [r3, #4]
 497              		.loc 1 446 0
 498 00ee 1A68     		ldr	r2, [r3]
 499 00f0 42F04002 		orr	r2, r2, #64
 500 00f4 1A60     		str	r2, [r3]
 501 00f6 38BD     		pop	{r3, r4, r5, pc}
 502              	.LVL30:
 503              	.L50:
 504              		.align	2
 505              	.L49:
 506 00f8 00000000 		.word	.LANCHOR0
 507 00fc 00000000 		.word	spi_lld_serve_rx_interrupt
 508 0100 00000000 		.word	spi_lld_serve_tx_interrupt
 509 0104 00380240 		.word	1073887232
 510 0108 00000000 		.word	.LANCHOR1
 511              		.cfi_endproc
 512              	.LFE326:
 513              		.size	spi_lld_start, .-spi_lld_start
ARM GAS  /tmp/cc0MdUPR.s 			page 10


 514              		.section	.text.spi_lld_stop,"ax",%progbits
 515              		.align	1
 516              		.global	spi_lld_stop
 517              		.thumb
 518              		.thumb_func
 519              		.type	spi_lld_stop, %function
 520              	spi_lld_stop:
 521              	.LFB327:
 522              		.loc 1 456 0
 523              		.cfi_startproc
 524              		@ args = 0, pretend = 0, frame = 0
 525              		@ frame_needed = 0, uses_anonymous_args = 0
 526              	.LVL31:
 527 0000 38B5     		push	{r3, r4, r5, lr}
 528              		.cfi_def_cfa_offset 16
 529              		.cfi_offset 3, -16
 530              		.cfi_offset 4, -12
 531              		.cfi_offset 5, -8
 532              		.cfi_offset 14, -4
 533              		.loc 1 459 0
 534 0002 0378     		ldrb	r3, [r0]	@ zero_extendqisi2
 535 0004 022B     		cmp	r3, #2
 536              		.loc 1 456 0
 537 0006 0446     		mov	r4, r0
 538              		.loc 1 459 0
 539 0008 2AD1     		bne	.L51
 540              		.loc 1 462 0
 541 000a C369     		ldr	r3, [r0, #28]
 542              		.loc 1 465 0
 543 000c 006A     		ldr	r0, [r0, #32]
 544              	.LVL32:
 545              		.loc 1 462 0
 546 000e 1A68     		ldr	r2, [r3]
 547              		.loc 1 463 0
 548 0010 0025     		movs	r5, #0
 549              		.loc 1 462 0
 550 0012 22F04002 		bic	r2, r2, #64
 551 0016 1A60     		str	r2, [r3]
 552              		.loc 1 463 0
 553 0018 1D60     		str	r5, [r3]
 554              		.loc 1 464 0
 555 001a 5D60     		str	r5, [r3, #4]
 556              		.loc 1 465 0
 557 001c FFF7FEFF 		bl	dmaStreamFreeI
 558              	.LVL33:
 559              		.loc 1 466 0
 560 0020 606A     		ldr	r0, [r4, #36]
 561 0022 FFF7FEFF 		bl	dmaStreamFreeI
 562              	.LVL34:
 563              		.loc 1 471 0
 564 0026 0F4B     		ldr	r3, .L56
 565              		.loc 1 467 0
 566 0028 2562     		str	r5, [r4, #32]
 567              		.loc 1 471 0
 568 002a 9C42     		cmp	r4, r3
 569              		.loc 1 468 0
 570 002c 6562     		str	r5, [r4, #36]
ARM GAS  /tmp/cc0MdUPR.s 			page 11


 571              		.loc 1 471 0
 572 002e 0AD1     		bne	.L54
 573              		.loc 1 472 0
 574 0030 0D4B     		ldr	r3, .L56+4
 575 0032 5A6C     		ldr	r2, [r3, #68]
 576 0034 22F48052 		bic	r2, r2, #4096
 577 0038 5A64     		str	r2, [r3, #68]
 578 003a 5A6E     		ldr	r2, [r3, #100]
 579 003c 22F48052 		bic	r2, r2, #4096
 580 0040 5A66     		str	r2, [r3, #100]
 581 0042 5B6E     		ldr	r3, [r3, #100]
 582 0044 38BD     		pop	{r3, r4, r5, pc}
 583              	.LVL35:
 584              	.L54:
 585              		.loc 1 475 0
 586 0046 094B     		ldr	r3, .L56+8
 587 0048 9C42     		cmp	r4, r3
 588 004a 09D1     		bne	.L51
 589              		.loc 1 476 0
 590 004c 064B     		ldr	r3, .L56+4
 591 004e 1A6C     		ldr	r2, [r3, #64]
 592 0050 22F48042 		bic	r2, r2, #16384
 593 0054 1A64     		str	r2, [r3, #64]
 594 0056 1A6E     		ldr	r2, [r3, #96]
 595 0058 22F48042 		bic	r2, r2, #16384
 596 005c 1A66     		str	r2, [r3, #96]
 597 005e 1B6E     		ldr	r3, [r3, #96]
 598              	.L51:
 599 0060 38BD     		pop	{r3, r4, r5, pc}
 600              	.LVL36:
 601              	.L57:
 602 0062 00BF     		.align	2
 603              	.L56:
 604 0064 00000000 		.word	.LANCHOR0
 605 0068 00380240 		.word	1073887232
 606 006c 00000000 		.word	.LANCHOR1
 607              		.cfi_endproc
 608              	.LFE327:
 609              		.size	spi_lld_stop, .-spi_lld_stop
 610              		.section	.text.spi_lld_ignore,"ax",%progbits
 611              		.align	1
 612              		.global	spi_lld_ignore
 613              		.thumb
 614              		.thumb_func
 615              		.type	spi_lld_ignore, %function
 616              	spi_lld_ignore:
 617              	.LFB328:
 618              		.loc 1 535 0
 619              		.cfi_startproc
 620              		@ args = 0, pretend = 0, frame = 0
 621              		@ frame_needed = 0, uses_anonymous_args = 0
 622              	.LVL37:
 623              		.loc 1 539 0
 624 0000 036A     		ldr	r3, [r0, #32]
 625 0002 1A68     		ldr	r2, [r3]
 626 0004 0A4B     		ldr	r3, .L59
 627              		.loc 1 535 0
ARM GAS  /tmp/cc0MdUPR.s 			page 12


 628 0006 10B5     		push	{r4, lr}
 629              		.cfi_def_cfa_offset 8
 630              		.cfi_offset 4, -8
 631              		.cfi_offset 14, -4
 632              		.loc 1 539 0
 633 0008 D360     		str	r3, [r2, #12]
 634              		.loc 1 541 0
 635 000a 836A     		ldr	r3, [r0, #40]
 636              		.loc 1 540 0
 637 000c 5160     		str	r1, [r2, #4]
 638              		.loc 1 541 0
 639 000e 1360     		str	r3, [r2]
 640              		.loc 1 543 0
 641 0010 436A     		ldr	r3, [r0, #36]
 642 0012 084C     		ldr	r4, .L59+4
 643 0014 1B68     		ldr	r3, [r3]
 644 0016 DC60     		str	r4, [r3, #12]
 645              		.loc 1 544 0
 646 0018 5960     		str	r1, [r3, #4]
 647              		.loc 1 545 0
 648 001a C16A     		ldr	r1, [r0, #44]
 649              	.LVL38:
 650 001c 1960     		str	r1, [r3]
 651              	.LVL39:
 652              		.loc 1 547 0
 653 001e 1168     		ldr	r1, [r2]
 654 0020 41F00101 		orr	r1, r1, #1
 655 0024 1160     		str	r1, [r2]
 656              		.loc 1 548 0
 657 0026 1A68     		ldr	r2, [r3]
 658 0028 42F00102 		orr	r2, r2, #1
 659 002c 1A60     		str	r2, [r3]
 660 002e 10BD     		pop	{r4, pc}
 661              	.L60:
 662              		.align	2
 663              	.L59:
 664 0030 00000000 		.word	.LANCHOR2
 665 0034 00000000 		.word	.LANCHOR3
 666              		.cfi_endproc
 667              	.LFE328:
 668              		.size	spi_lld_ignore, .-spi_lld_ignore
 669              		.section	.text.spi_lld_exchange,"ax",%progbits
 670              		.align	1
 671              		.global	spi_lld_exchange
 672              		.thumb
 673              		.thumb_func
 674              		.type	spi_lld_exchange, %function
 675              	spi_lld_exchange:
 676              	.LFB329:
 677              		.loc 1 567 0
 678              		.cfi_startproc
 679              		@ args = 0, pretend = 0, frame = 0
 680              		@ frame_needed = 0, uses_anonymous_args = 0
 681              	.LVL40:
 682 0000 10B5     		push	{r4, lr}
 683              		.cfi_def_cfa_offset 8
 684              		.cfi_offset 4, -8
ARM GAS  /tmp/cc0MdUPR.s 			page 13


 685              		.cfi_offset 14, -4
 686              		.loc 1 571 0
 687 0002 046A     		ldr	r4, [r0, #32]
 688 0004 2468     		ldr	r4, [r4]
 689 0006 E360     		str	r3, [r4, #12]
 690              		.loc 1 573 0
 691 0008 836A     		ldr	r3, [r0, #40]
 692              	.LVL41:
 693              		.loc 1 572 0
 694 000a 6160     		str	r1, [r4, #4]
 695              	.LVL42:
 696              		.loc 1 573 0
 697 000c 43F48063 		orr	r3, r3, #1024
 698 0010 2360     		str	r3, [r4]
 699              		.loc 1 575 0
 700 0012 436A     		ldr	r3, [r0, #36]
 701 0014 1B68     		ldr	r3, [r3]
 702 0016 DA60     		str	r2, [r3, #12]
 703              		.loc 1 577 0
 704 0018 C26A     		ldr	r2, [r0, #44]
 705              	.LVL43:
 706              		.loc 1 576 0
 707 001a 5960     		str	r1, [r3, #4]
 708              	.LVL44:
 709              		.loc 1 577 0
 710 001c 42F48062 		orr	r2, r2, #1024
 711 0020 1A60     		str	r2, [r3]
 712              		.loc 1 579 0
 713 0022 2268     		ldr	r2, [r4]
 714 0024 42F00102 		orr	r2, r2, #1
 715 0028 2260     		str	r2, [r4]
 716              		.loc 1 580 0
 717 002a 1A68     		ldr	r2, [r3]
 718 002c 42F00102 		orr	r2, r2, #1
 719 0030 1A60     		str	r2, [r3]
 720 0032 10BD     		pop	{r4, pc}
 721              		.cfi_endproc
 722              	.LFE329:
 723              		.size	spi_lld_exchange, .-spi_lld_exchange
 724              		.section	.text.spi_lld_send,"ax",%progbits
 725              		.align	1
 726              		.global	spi_lld_send
 727              		.thumb
 728              		.thumb_func
 729              		.type	spi_lld_send, %function
 730              	spi_lld_send:
 731              	.LFB330:
 732              		.loc 1 596 0
 733              		.cfi_startproc
 734              		@ args = 0, pretend = 0, frame = 0
 735              		@ frame_needed = 0, uses_anonymous_args = 0
 736              	.LVL45:
 737              		.loc 1 600 0
 738 0000 036A     		ldr	r3, [r0, #32]
 739              		.loc 1 596 0
 740 0002 10B5     		push	{r4, lr}
 741              		.cfi_def_cfa_offset 8
ARM GAS  /tmp/cc0MdUPR.s 			page 14


 742              		.cfi_offset 4, -8
 743              		.cfi_offset 14, -4
 744              		.loc 1 600 0
 745 0004 1C68     		ldr	r4, [r3]
 746 0006 0B4B     		ldr	r3, .L63
 747 0008 E360     		str	r3, [r4, #12]
 748              		.loc 1 602 0
 749 000a 836A     		ldr	r3, [r0, #40]
 750              		.loc 1 601 0
 751 000c 6160     		str	r1, [r4, #4]
 752              		.loc 1 602 0
 753 000e 2360     		str	r3, [r4]
 754              		.loc 1 604 0
 755 0010 436A     		ldr	r3, [r0, #36]
 756 0012 1B68     		ldr	r3, [r3]
 757 0014 DA60     		str	r2, [r3, #12]
 758              		.loc 1 606 0
 759 0016 C26A     		ldr	r2, [r0, #44]
 760              	.LVL46:
 761              		.loc 1 605 0
 762 0018 5960     		str	r1, [r3, #4]
 763              	.LVL47:
 764              		.loc 1 606 0
 765 001a 42F48062 		orr	r2, r2, #1024
 766 001e 1A60     		str	r2, [r3]
 767              		.loc 1 608 0
 768 0020 2268     		ldr	r2, [r4]
 769 0022 42F00102 		orr	r2, r2, #1
 770 0026 2260     		str	r2, [r4]
 771              		.loc 1 609 0
 772 0028 1A68     		ldr	r2, [r3]
 773 002a 42F00102 		orr	r2, r2, #1
 774 002e 1A60     		str	r2, [r3]
 775 0030 10BD     		pop	{r4, pc}
 776              	.L64:
 777 0032 00BF     		.align	2
 778              	.L63:
 779 0034 00000000 		.word	.LANCHOR2
 780              		.cfi_endproc
 781              	.LFE330:
 782              		.size	spi_lld_send, .-spi_lld_send
 783              		.section	.text.spi_lld_receive,"ax",%progbits
 784              		.align	1
 785              		.global	spi_lld_receive
 786              		.thumb
 787              		.thumb_func
 788              		.type	spi_lld_receive, %function
 789              	spi_lld_receive:
 790              	.LFB331:
 791              		.loc 1 625 0
 792              		.cfi_startproc
 793              		@ args = 0, pretend = 0, frame = 0
 794              		@ frame_needed = 0, uses_anonymous_args = 0
 795              	.LVL48:
 796              		.loc 1 629 0
 797 0000 036A     		ldr	r3, [r0, #32]
 798              		.loc 1 625 0
ARM GAS  /tmp/cc0MdUPR.s 			page 15


 799 0002 10B5     		push	{r4, lr}
 800              		.cfi_def_cfa_offset 8
 801              		.cfi_offset 4, -8
 802              		.cfi_offset 14, -4
 803              		.loc 1 629 0
 804 0004 1C68     		ldr	r4, [r3]
 805              		.loc 1 631 0
 806 0006 836A     		ldr	r3, [r0, #40]
 807              		.loc 1 629 0
 808 0008 E260     		str	r2, [r4, #12]
 809              		.loc 1 631 0
 810 000a 43F48063 		orr	r3, r3, #1024
 811              		.loc 1 630 0
 812 000e 6160     		str	r1, [r4, #4]
 813              		.loc 1 631 0
 814 0010 2360     		str	r3, [r4]
 815              		.loc 1 633 0
 816 0012 436A     		ldr	r3, [r0, #36]
 817 0014 074A     		ldr	r2, .L66
 818              	.LVL49:
 819 0016 1B68     		ldr	r3, [r3]
 820 0018 DA60     		str	r2, [r3, #12]
 821              		.loc 1 635 0
 822 001a C26A     		ldr	r2, [r0, #44]
 823              		.loc 1 634 0
 824 001c 5960     		str	r1, [r3, #4]
 825              		.loc 1 635 0
 826 001e 1A60     		str	r2, [r3]
 827              		.loc 1 637 0
 828 0020 2268     		ldr	r2, [r4]
 829 0022 42F00102 		orr	r2, r2, #1
 830 0026 2260     		str	r2, [r4]
 831              		.loc 1 638 0
 832 0028 1A68     		ldr	r2, [r3]
 833 002a 42F00102 		orr	r2, r2, #1
 834 002e 1A60     		str	r2, [r3]
 835 0030 10BD     		pop	{r4, pc}
 836              	.L67:
 837 0032 00BF     		.align	2
 838              	.L66:
 839 0034 00000000 		.word	.LANCHOR3
 840              		.cfi_endproc
 841              	.LFE331:
 842              		.size	spi_lld_receive, .-spi_lld_receive
 843              		.section	.text.spi_lld_abort,"ax",%progbits
 844              		.align	1
 845              		.global	spi_lld_abort
 846              		.thumb
 847              		.thumb_func
 848              		.type	spi_lld_abort, %function
 849              	spi_lld_abort:
 850              	.LFB332:
 851              		.loc 1 649 0
 852              		.cfi_startproc
 853              		@ args = 0, pretend = 0, frame = 0
 854              		@ frame_needed = 0, uses_anonymous_args = 0
 855              		@ link register save eliminated.
ARM GAS  /tmp/cc0MdUPR.s 			page 16


 856              	.LVL50:
 857              		.loc 1 652 0
 858 0000 436A     		ldr	r3, [r0, #36]
 859 0002 1A68     		ldr	r2, [r3]
 860 0004 1168     		ldr	r1, [r2]
 861 0006 21F01F01 		bic	r1, r1, #31
 862 000a 1160     		str	r1, [r2]
 863              	.L69:
 864              		.loc 1 652 0 is_stmt 0 discriminator 2
 865 000c 1168     		ldr	r1, [r2]
 866 000e C907     		lsls	r1, r1, #31
 867 0010 FCD4     		bmi	.L69
 868              		.loc 1 652 0 discriminator 3
 869 0012 597A     		ldrb	r1, [r3, #9]	@ zero_extendqisi2
 870 0014 5A68     		ldr	r2, [r3, #4]
 871 0016 3D23     		movs	r3, #61
 872 0018 8B40     		lsls	r3, r3, r1
 873 001a 1360     		str	r3, [r2]
 874              		.loc 1 653 0 is_stmt 1 discriminator 3
 875 001c 036A     		ldr	r3, [r0, #32]
 876 001e 1A68     		ldr	r2, [r3]
 877 0020 1168     		ldr	r1, [r2]
 878 0022 21F01F01 		bic	r1, r1, #31
 879 0026 1160     		str	r1, [r2]
 880              	.L70:
 881              		.loc 1 653 0 is_stmt 0 discriminator 2
 882 0028 1168     		ldr	r1, [r2]
 883 002a C907     		lsls	r1, r1, #31
 884 002c FCD4     		bmi	.L70
 885              		.loc 1 653 0 discriminator 3
 886 002e 597A     		ldrb	r1, [r3, #9]	@ zero_extendqisi2
 887 0030 5A68     		ldr	r2, [r3, #4]
 888 0032 3D23     		movs	r3, #61
 889 0034 8B40     		lsls	r3, r3, r1
 890 0036 1360     		str	r3, [r2]
 891 0038 7047     		bx	lr
 892              		.cfi_endproc
 893              	.LFE332:
 894              		.size	spi_lld_abort, .-spi_lld_abort
 895              		.section	.text.spi_lld_polled_exchange,"ax",%progbits
 896              		.align	1
 897              		.global	spi_lld_polled_exchange
 898              		.thumb
 899              		.thumb_func
 900              		.type	spi_lld_polled_exchange, %function
 901              	spi_lld_polled_exchange:
 902              	.LFB333:
 903              		.loc 1 669 0 is_stmt 1
 904              		.cfi_startproc
 905              		@ args = 0, pretend = 0, frame = 0
 906              		@ frame_needed = 0, uses_anonymous_args = 0
 907              		@ link register save eliminated.
 908              	.LVL51:
 909              		.loc 1 671 0
 910 0000 C369     		ldr	r3, [r0, #28]
 911 0002 D960     		str	r1, [r3, #12]
 912              	.L74:
ARM GAS  /tmp/cc0MdUPR.s 			page 17


 913              		.loc 1 672 0 discriminator 1
 914 0004 9A68     		ldr	r2, [r3, #8]
 915 0006 D207     		lsls	r2, r2, #31
 916 0008 FCD5     		bpl	.L74
 917              		.loc 1 674 0
 918 000a D868     		ldr	r0, [r3, #12]
 919              	.LVL52:
 920              		.loc 1 675 0
 921 000c 80B2     		uxth	r0, r0
 922 000e 7047     		bx	lr
 923              		.cfi_endproc
 924              	.LFE333:
 925              		.size	spi_lld_polled_exchange, .-spi_lld_polled_exchange
 926              		.global	SPID2
 927              		.global	SPID1
 928              		.section	.bss.SPID1,"aw",%nobits
 929              		.align	2
 930              		.set	.LANCHOR0,. + 0
 931              		.type	SPID1, %object
 932              		.size	SPID1, 48
 933              	SPID1:
 934 0000 00000000 		.space	48
 934      00000000 
 934      00000000 
 934      00000000 
 934      00000000 
 935              		.section	.bss.SPID2,"aw",%nobits
 936              		.align	2
 937              		.set	.LANCHOR1,. + 0
 938              		.type	SPID2, %object
 939              		.size	SPID2, 48
 940              	SPID2:
 941 0000 00000000 		.space	48
 941      00000000 
 941      00000000 
 941      00000000 
 941      00000000 
 942              		.section	.rodata.str1.1,"aMS",%progbits,1
 943              	.LC0:
 944 0000 444D4120 		.ascii	"DMA failure\000"
 944      6661696C 
 944      75726500 
 945              		.section	.rodata.dummytx,"a",%progbits
 946              		.align	1
 947              		.set	.LANCHOR3,. + 0
 948              		.type	dummytx, %object
 949              		.size	dummytx, 2
 950              	dummytx:
 951 0000 FFFF     		.short	-1
 952              		.section	.bss.dummyrx,"aw",%nobits
 953              		.align	1
 954              		.set	.LANCHOR2,. + 0
 955              		.type	dummyrx, %object
 956              		.size	dummyrx, 2
 957              	dummyrx:
 958 0000 0000     		.space	2
 959              		.text
ARM GAS  /tmp/cc0MdUPR.s 			page 18


 960              	.Letext0:
 961              		.file 5 "/usr/lib/gcc/arm-none-eabi/4.9.3/include/stddef.h"
 962              		.file 6 "/usr/include/newlib/machine/_default_types.h"
 963              		.file 7 "/usr/include/newlib/sys/_stdint.h"
 964              		.file 8 "/usr/include/newlib/stdint.h"
 965              		.file 9 "../../modules/ChibiOS/os/common/ports/ARMCMx/compilers/GCC/chtypes.h"
 966              		.file 10 "../../modules/ChibiOS/os/rt/include/chsystypes.h"
 967              		.file 11 "../../modules/ChibiOS/os/rt/include/chschd.h"
 968              		.file 12 "../../modules/ChibiOS/os/rt/include/chtime.h"
 969              		.file 13 "../../modules/ChibiOS/os/common/ext/ST/STM32F4xx/stm32f407xx.h"
 970              		.file 14 "../../modules/ChibiOS/os/common/ports/ARMCMx/chcore.h"
 971              		.file 15 "../../modules/ChibiOS/os/common/ports/ARMCMx/chcore_v7m.h"
 972              		.file 16 "../../modules/ChibiOS/os/rt/include/chtm.h"
 973              		.file 17 "../../modules/ChibiOS/os/rt/include/chstats.h"
 974              		.file 18 "../../modules/ChibiOS/os/rt/include/chsem.h"
 975              		.file 19 "../../modules/ChibiOS/os/rt/include/chmtx.h"
 976              		.file 20 "../../modules/ChibiOS/os/hal/ports/STM32/LLD/DMAv2/stm32_dma.h"
 977              		.file 21 "../../modules/ChibiOS/os/hal/ports/STM32/LLD/GPIOv2/stm32_gpio.h"
 978              		.file 22 "../../modules/ChibiOS/os/hal/ports/STM32/LLD/GPIOv2/hal_pal_lld.h"
 979              		.file 23 "../../modules/ChibiOS/os/hal/include/hal_spi.h"
 980              		.file 24 "../../modules/ChibiOS/os/common/ext/ARM/CMSIS/Core/Include/core_cm4.h"
 981              		.file 25 "../../modules/ChibiOS/os/rt/include/ch.h"
 982              		.file 26 "../../modules/ChibiOS/os/rt/include/chthreads.h"