ARM GAS  /tmp/cc02cOoa.s 			page 1


   1              		.syntax unified
   2              		.cpu cortex-m4
   3              		.eabi_attribute 27, 1
   4              		.eabi_attribute 28, 1
   5              		.fpu fpv4-sp-d16
   6              		.eabi_attribute 20, 1
   7              		.eabi_attribute 21, 1
   8              		.eabi_attribute 23, 3
   9              		.eabi_attribute 24, 1
  10              		.eabi_attribute 25, 1
  11              		.eabi_attribute 26, 1
  12              		.eabi_attribute 30, 4
  13              		.eabi_attribute 34, 1
  14              		.eabi_attribute 18, 4
  15              		.thumb
  16              		.file	"hal_pwm.c"
  17              		.text
  18              	.Ltext0:
  19              		.cfi_sections	.debug_frame
  20              		.section	.text.chSysLock,"ax",%progbits
  21              		.align	1
  22              		.thumb
  23              		.thumb_func
  24              		.type	chSysLock, %function
  25              	chSysLock:
  26              	.LFB184:
  27              		.file 1 "../../modules/ChibiOS/os/rt/include/chsys.h"
  28              		.loc 1 353 0
  29              		.cfi_startproc
  30              		@ args = 0, pretend = 0, frame = 0
  31              		@ frame_needed = 0, uses_anonymous_args = 0
  32              		@ link register save eliminated.
  33              	.LVL0:
  34              	.LBB50:
  35              	.LBB51:
  36              	.LBB52:
  37              		.file 2 "../../modules/ChibiOS/os/common/ext/ARM/CMSIS/Core/Include/cmsis_gcc.h"
  38              		.loc 2 493 0
  39 0000 2023     		movs	r3, #32
  40              	@ 493 "../../modules/ChibiOS/os/common/ext/ARM/CMSIS/Core/Include/cmsis_gcc.h" 1
  41 0002 83F31188 		MSR basepri, r3
  42              	@ 0 "" 2
  43              		.thumb
  44              	.LBE52:
  45              	.LBE51:
  46              	.LBE50:
  47              		.loc 1 356 0
  48 0006 FFF7FEBF 		b	_stats_start_measure_crit_thd
  49              	.LVL1:
  50              		.cfi_endproc
  51              	.LFE184:
  52              		.size	chSysLock, .-chSysLock
  53              		.section	.text.chSysUnlock,"ax",%progbits
  54              		.align	1
  55              		.thumb
  56              		.thumb_func
  57              		.type	chSysUnlock, %function
ARM GAS  /tmp/cc02cOoa.s 			page 2


  58              	chSysUnlock:
  59              	.LFB185:
  60              		.loc 1 365 0
  61              		.cfi_startproc
  62              		@ args = 0, pretend = 0, frame = 0
  63              		@ frame_needed = 0, uses_anonymous_args = 0
  64 0000 08B5     		push	{r3, lr}
  65              		.cfi_def_cfa_offset 8
  66              		.cfi_offset 3, -8
  67              		.cfi_offset 14, -4
  68              		.loc 1 368 0
  69 0002 FFF7FEFF 		bl	_stats_stop_measure_crit_thd
  70              	.LVL2:
  71              	.LBB53:
  72              	.LBB54:
  73              	.LBB55:
  74              		.loc 2 493 0
  75 0006 0023     		movs	r3, #0
  76              	@ 493 "../../modules/ChibiOS/os/common/ext/ARM/CMSIS/Core/Include/cmsis_gcc.h" 1
  77 0008 83F31188 		MSR basepri, r3
  78              	@ 0 "" 2
  79              		.thumb
  80 000c 08BD     		pop	{r3, pc}
  81              	.LBE55:
  82              	.LBE54:
  83              	.LBE53:
  84              		.cfi_endproc
  85              	.LFE185:
  86              		.size	chSysUnlock, .-chSysUnlock
  87              		.section	.text.pwmInit,"ax",%progbits
  88              		.align	1
  89              		.global	pwmInit
  90              		.thumb
  91              		.thumb_func
  92              		.type	pwmInit, %function
  93              	pwmInit:
  94              	.LFB323:
  95              		.file 3 "../../modules/ChibiOS/os/hal/src/hal_pwm.c"
  96              		.loc 3 56 0
  97              		.cfi_startproc
  98              		@ args = 0, pretend = 0, frame = 0
  99              		@ frame_needed = 0, uses_anonymous_args = 0
 100              		@ link register save eliminated.
 101              		.loc 3 58 0
 102 0000 FFF7FEBF 		b	pwm_lld_init
 103              	.LVL3:
 104              		.cfi_endproc
 105              	.LFE323:
 106              		.size	pwmInit, .-pwmInit
 107              		.section	.text.pwmObjectInit,"ax",%progbits
 108              		.align	1
 109              		.global	pwmObjectInit
 110              		.thumb
 111              		.thumb_func
 112              		.type	pwmObjectInit, %function
 113              	pwmObjectInit:
 114              	.LFB324:
ARM GAS  /tmp/cc02cOoa.s 			page 3


 115              		.loc 3 68 0
 116              		.cfi_startproc
 117              		@ args = 0, pretend = 0, frame = 0
 118              		@ frame_needed = 0, uses_anonymous_args = 0
 119              		@ link register save eliminated.
 120              	.LVL4:
 121              		.loc 3 70 0
 122 0000 0123     		movs	r3, #1
 123 0002 0370     		strb	r3, [r0]
 124              		.loc 3 71 0
 125 0004 0023     		movs	r3, #0
 126 0006 4360     		str	r3, [r0, #4]
 127              		.loc 3 72 0
 128 0008 C360     		str	r3, [r0, #12]
 129              		.loc 3 73 0
 130 000a 0374     		strb	r3, [r0, #16]
 131 000c 7047     		bx	lr
 132              		.cfi_endproc
 133              	.LFE324:
 134              		.size	pwmObjectInit, .-pwmObjectInit
 135              		.section	.text.pwmStart,"ax",%progbits
 136              		.align	1
 137              		.global	pwmStart
 138              		.thumb
 139              		.thumb_func
 140              		.type	pwmStart, %function
 141              	pwmStart:
 142              	.LFB325:
 143              		.loc 3 89 0
 144              		.cfi_startproc
 145              		@ args = 0, pretend = 0, frame = 0
 146              		@ frame_needed = 0, uses_anonymous_args = 0
 147              	.LVL5:
 148 0000 38B5     		push	{r3, r4, r5, lr}
 149              		.cfi_def_cfa_offset 16
 150              		.cfi_offset 3, -16
 151              		.cfi_offset 4, -12
 152              		.cfi_offset 5, -8
 153              		.cfi_offset 14, -4
 154              		.loc 3 89 0
 155 0002 0D46     		mov	r5, r1
 156 0004 0446     		mov	r4, r0
 157              	.LBB56:
 158              	.LBB57:
 159              		.file 4 "../../modules/ChibiOS/os/hal/osal/rt/osal.h"
 160              		.loc 4 511 0
 161 0006 FFF7FEFF 		bl	chSysLock
 162              	.LVL6:
 163              	.LBE57:
 164              	.LBE56:
 165              		.loc 3 97 0
 166 000a 6B68     		ldr	r3, [r5, #4]
 167 000c A360     		str	r3, [r4, #8]
 168              		.loc 3 96 0
 169 000e 6560     		str	r5, [r4, #4]
 170              		.loc 3 98 0
 171 0010 2046     		mov	r0, r4
ARM GAS  /tmp/cc02cOoa.s 			page 4


 172 0012 FFF7FEFF 		bl	pwm_lld_start
 173              	.LVL7:
 174              		.loc 3 99 0
 175 0016 0023     		movs	r3, #0
 176 0018 E360     		str	r3, [r4, #12]
 177              		.loc 3 100 0
 178 001a 0223     		movs	r3, #2
 179 001c 2370     		strb	r3, [r4]
 180              		.loc 3 102 0
 181 001e BDE83840 		pop	{r3, r4, r5, lr}
 182              		.cfi_restore 14
 183              		.cfi_restore 5
 184              		.cfi_restore 4
 185              		.cfi_restore 3
 186              		.cfi_def_cfa_offset 0
 187              	.LVL8:
 188              	.LBB58:
 189              	.LBB59:
 190              		.loc 4 522 0
 191 0022 FFF7FEBF 		b	chSysUnlock
 192              	.LVL9:
 193              	.LBE59:
 194              	.LBE58:
 195              		.cfi_endproc
 196              	.LFE325:
 197              		.size	pwmStart, .-pwmStart
 198              		.section	.text.pwmStop,"ax",%progbits
 199              		.align	1
 200              		.global	pwmStop
 201              		.thumb
 202              		.thumb_func
 203              		.type	pwmStop, %function
 204              	pwmStop:
 205              	.LFB326:
 206              		.loc 3 111 0
 207              		.cfi_startproc
 208              		@ args = 0, pretend = 0, frame = 0
 209              		@ frame_needed = 0, uses_anonymous_args = 0
 210              	.LVL10:
 211 0000 10B5     		push	{r4, lr}
 212              		.cfi_def_cfa_offset 8
 213              		.cfi_offset 4, -8
 214              		.cfi_offset 14, -4
 215              		.loc 3 111 0
 216 0002 0446     		mov	r4, r0
 217              	.LBB60:
 218              	.LBB61:
 219              		.loc 4 511 0
 220 0004 FFF7FEFF 		bl	chSysLock
 221              	.LVL11:
 222              	.LBE61:
 223              	.LBE60:
 224              		.loc 3 120 0
 225 0008 2046     		mov	r0, r4
 226 000a FFF7FEFF 		bl	pwm_lld_stop
 227              	.LVL12:
 228              		.loc 3 121 0
ARM GAS  /tmp/cc02cOoa.s 			page 5


 229 000e 0023     		movs	r3, #0
 230 0010 E360     		str	r3, [r4, #12]
 231              		.loc 3 122 0
 232 0012 6360     		str	r3, [r4, #4]
 233              		.loc 3 123 0
 234 0014 0123     		movs	r3, #1
 235 0016 2370     		strb	r3, [r4]
 236              		.loc 3 126 0
 237 0018 BDE81040 		pop	{r4, lr}
 238              		.cfi_restore 14
 239              		.cfi_restore 4
 240              		.cfi_def_cfa_offset 0
 241              	.LVL13:
 242              	.LBB62:
 243              	.LBB63:
 244              		.loc 4 522 0
 245 001c FFF7FEBF 		b	chSysUnlock
 246              	.LVL14:
 247              	.LBE63:
 248              	.LBE62:
 249              		.cfi_endproc
 250              	.LFE326:
 251              		.size	pwmStop, .-pwmStop
 252              		.section	.text.pwmChangePeriod,"ax",%progbits
 253              		.align	1
 254              		.global	pwmChangePeriod
 255              		.thumb
 256              		.thumb_func
 257              		.type	pwmChangePeriod, %function
 258              	pwmChangePeriod:
 259              	.LFB327:
 260              		.loc 3 143 0
 261              		.cfi_startproc
 262              		@ args = 0, pretend = 0, frame = 0
 263              		@ frame_needed = 0, uses_anonymous_args = 0
 264              	.LVL15:
 265 0000 38B5     		push	{r3, r4, r5, lr}
 266              		.cfi_def_cfa_offset 16
 267              		.cfi_offset 3, -16
 268              		.cfi_offset 4, -12
 269              		.cfi_offset 5, -8
 270              		.cfi_offset 14, -4
 271              		.loc 3 143 0
 272 0002 0546     		mov	r5, r0
 273 0004 0C46     		mov	r4, r1
 274              	.LBB64:
 275              	.LBB65:
 276              		.loc 4 511 0
 277 0006 FFF7FEFF 		bl	chSysLock
 278              	.LVL16:
 279              	.LBE65:
 280              	.LBE64:
 281              		.loc 3 149 0
 282 000a AB69     		ldr	r3, [r5, #24]
 283 000c AC60     		str	r4, [r5, #8]
 284 000e 013C     		subs	r4, r4, #1
 285              	.LVL17:
ARM GAS  /tmp/cc02cOoa.s 			page 6


 286 0010 DC62     		str	r4, [r3, #44]
 287              		.loc 3 151 0
 288 0012 BDE83840 		pop	{r3, r4, r5, lr}
 289              		.cfi_restore 14
 290              		.cfi_restore 5
 291              		.cfi_restore 4
 292              		.cfi_restore 3
 293              		.cfi_def_cfa_offset 0
 294              	.LVL18:
 295              	.LBB66:
 296              	.LBB67:
 297              		.loc 4 522 0
 298 0016 FFF7FEBF 		b	chSysUnlock
 299              	.LVL19:
 300              	.LBE67:
 301              	.LBE66:
 302              		.cfi_endproc
 303              	.LFE327:
 304              		.size	pwmChangePeriod, .-pwmChangePeriod
 305              		.section	.text.pwmEnableChannel,"ax",%progbits
 306              		.align	1
 307              		.global	pwmEnableChannel
 308              		.thumb
 309              		.thumb_func
 310              		.type	pwmEnableChannel, %function
 311              	pwmEnableChannel:
 312              	.LFB328:
 313              		.loc 3 169 0
 314              		.cfi_startproc
 315              		@ args = 0, pretend = 0, frame = 0
 316              		@ frame_needed = 0, uses_anonymous_args = 0
 317              	.LVL20:
 318 0000 70B5     		push	{r4, r5, r6, lr}
 319              		.cfi_def_cfa_offset 16
 320              		.cfi_offset 4, -16
 321              		.cfi_offset 5, -12
 322              		.cfi_offset 6, -8
 323              		.cfi_offset 14, -4
 324              		.loc 3 169 0
 325 0002 0446     		mov	r4, r0
 326 0004 0D46     		mov	r5, r1
 327 0006 1646     		mov	r6, r2
 328              	.LBB68:
 329              	.LBB69:
 330              		.loc 4 511 0
 331 0008 FFF7FEFF 		bl	chSysLock
 332              	.LVL21:
 333              	.LBE69:
 334              	.LBE68:
 335              		.loc 3 177 0
 336 000c E268     		ldr	r2, [r4, #12]
 337 000e 0123     		movs	r3, #1
 338 0010 AB40     		lsls	r3, r3, r5
 339 0012 1343     		orrs	r3, r3, r2
 340 0014 E360     		str	r3, [r4, #12]
 341 0016 2046     		mov	r0, r4
 342 0018 2946     		mov	r1, r5
ARM GAS  /tmp/cc02cOoa.s 			page 7


 343 001a 3246     		mov	r2, r6
 344 001c FFF7FEFF 		bl	pwm_lld_enable_channel
 345              	.LVL22:
 346              		.loc 3 180 0
 347 0020 BDE87040 		pop	{r4, r5, r6, lr}
 348              		.cfi_restore 14
 349              		.cfi_restore 6
 350              		.cfi_restore 5
 351              		.cfi_restore 4
 352              		.cfi_def_cfa_offset 0
 353              	.LVL23:
 354              	.LBB70:
 355              	.LBB71:
 356              		.loc 4 522 0
 357 0024 FFF7FEBF 		b	chSysUnlock
 358              	.LVL24:
 359              	.LBE71:
 360              	.LBE70:
 361              		.cfi_endproc
 362              	.LFE328:
 363              		.size	pwmEnableChannel, .-pwmEnableChannel
 364              		.section	.text.pwmDisableChannel,"ax",%progbits
 365              		.align	1
 366              		.global	pwmDisableChannel
 367              		.thumb
 368              		.thumb_func
 369              		.type	pwmDisableChannel, %function
 370              	pwmDisableChannel:
 371              	.LFB329:
 372              		.loc 3 196 0
 373              		.cfi_startproc
 374              		@ args = 0, pretend = 0, frame = 0
 375              		@ frame_needed = 0, uses_anonymous_args = 0
 376              	.LVL25:
 377 0000 38B5     		push	{r3, r4, r5, lr}
 378              		.cfi_def_cfa_offset 16
 379              		.cfi_offset 3, -16
 380              		.cfi_offset 4, -12
 381              		.cfi_offset 5, -8
 382              		.cfi_offset 14, -4
 383              		.loc 3 196 0
 384 0002 0446     		mov	r4, r0
 385 0004 0D46     		mov	r5, r1
 386              	.LBB72:
 387              	.LBB73:
 388              		.loc 4 511 0
 389 0006 FFF7FEFF 		bl	chSysLock
 390              	.LVL26:
 391              	.LBE73:
 392              	.LBE72:
 393              		.loc 3 204 0
 394 000a 0123     		movs	r3, #1
 395 000c 03FA05F2 		lsl	r2, r3, r5
 396 0010 E368     		ldr	r3, [r4, #12]
 397 0012 23EA0203 		bic	r3, r3, r2
 398 0016 E360     		str	r3, [r4, #12]
 399 0018 2046     		mov	r0, r4
ARM GAS  /tmp/cc02cOoa.s 			page 8


 400 001a 2946     		mov	r1, r5
 401 001c FFF7FEFF 		bl	pwm_lld_disable_channel
 402              	.LVL27:
 403              		.loc 3 207 0
 404 0020 BDE83840 		pop	{r3, r4, r5, lr}
 405              		.cfi_restore 14
 406              		.cfi_restore 5
 407              		.cfi_restore 4
 408              		.cfi_restore 3
 409              		.cfi_def_cfa_offset 0
 410              	.LVL28:
 411              	.LBB74:
 412              	.LBB75:
 413              		.loc 4 522 0
 414 0024 FFF7FEBF 		b	chSysUnlock
 415              	.LVL29:
 416              	.LBE75:
 417              	.LBE74:
 418              		.cfi_endproc
 419              	.LFE329:
 420              		.size	pwmDisableChannel, .-pwmDisableChannel
 421              		.section	.text.pwmEnablePeriodicNotification,"ax",%progbits
 422              		.align	1
 423              		.global	pwmEnablePeriodicNotification
 424              		.thumb
 425              		.thumb_func
 426              		.type	pwmEnablePeriodicNotification, %function
 427              	pwmEnablePeriodicNotification:
 428              	.LFB330:
 429              		.loc 3 218 0
 430              		.cfi_startproc
 431              		@ args = 0, pretend = 0, frame = 0
 432              		@ frame_needed = 0, uses_anonymous_args = 0
 433              	.LVL30:
 434 0000 10B5     		push	{r4, lr}
 435              		.cfi_def_cfa_offset 8
 436              		.cfi_offset 4, -8
 437              		.cfi_offset 14, -4
 438              		.loc 3 218 0
 439 0002 0446     		mov	r4, r0
 440              	.LBB76:
 441              	.LBB77:
 442              		.loc 4 511 0
 443 0004 FFF7FEFF 		bl	chSysLock
 444              	.LVL31:
 445              	.LBE77:
 446              	.LBE76:
 447              		.loc 3 227 0
 448 0008 2046     		mov	r0, r4
 449 000a FFF7FEFF 		bl	pwm_lld_enable_periodic_notification
 450              	.LVL32:
 451              		.loc 3 230 0
 452 000e BDE81040 		pop	{r4, lr}
 453              		.cfi_restore 14
 454              		.cfi_restore 4
 455              		.cfi_def_cfa_offset 0
 456              	.LVL33:
ARM GAS  /tmp/cc02cOoa.s 			page 9


 457              	.LBB78:
 458              	.LBB79:
 459              		.loc 4 522 0
 460 0012 FFF7FEBF 		b	chSysUnlock
 461              	.LVL34:
 462              	.LBE79:
 463              	.LBE78:
 464              		.cfi_endproc
 465              	.LFE330:
 466              		.size	pwmEnablePeriodicNotification, .-pwmEnablePeriodicNotification
 467              		.section	.text.pwmDisablePeriodicNotification,"ax",%progbits
 468              		.align	1
 469              		.global	pwmDisablePeriodicNotification
 470              		.thumb
 471              		.thumb_func
 472              		.type	pwmDisablePeriodicNotification, %function
 473              	pwmDisablePeriodicNotification:
 474              	.LFB331:
 475              		.loc 3 241 0
 476              		.cfi_startproc
 477              		@ args = 0, pretend = 0, frame = 0
 478              		@ frame_needed = 0, uses_anonymous_args = 0
 479              	.LVL35:
 480 0000 10B5     		push	{r4, lr}
 481              		.cfi_def_cfa_offset 8
 482              		.cfi_offset 4, -8
 483              		.cfi_offset 14, -4
 484              		.loc 3 241 0
 485 0002 0446     		mov	r4, r0
 486              	.LBB80:
 487              	.LBB81:
 488              		.loc 4 511 0
 489 0004 FFF7FEFF 		bl	chSysLock
 490              	.LVL36:
 491              	.LBE81:
 492              	.LBE80:
 493              		.loc 3 250 0
 494 0008 2046     		mov	r0, r4
 495 000a FFF7FEFF 		bl	pwm_lld_disable_periodic_notification
 496              	.LVL37:
 497              		.loc 3 253 0
 498 000e BDE81040 		pop	{r4, lr}
 499              		.cfi_restore 14
 500              		.cfi_restore 4
 501              		.cfi_def_cfa_offset 0
 502              	.LVL38:
 503              	.LBB82:
 504              	.LBB83:
 505              		.loc 4 522 0
 506 0012 FFF7FEBF 		b	chSysUnlock
 507              	.LVL39:
 508              	.LBE83:
 509              	.LBE82:
 510              		.cfi_endproc
 511              	.LFE331:
 512              		.size	pwmDisablePeriodicNotification, .-pwmDisablePeriodicNotification
 513              		.section	.text.pwmEnableChannelNotification,"ax",%progbits
ARM GAS  /tmp/cc02cOoa.s 			page 10


 514              		.align	1
 515              		.global	pwmEnableChannelNotification
 516              		.thumb
 517              		.thumb_func
 518              		.type	pwmEnableChannelNotification, %function
 519              	pwmEnableChannelNotification:
 520              	.LFB332:
 521              		.loc 3 266 0
 522              		.cfi_startproc
 523              		@ args = 0, pretend = 0, frame = 0
 524              		@ frame_needed = 0, uses_anonymous_args = 0
 525              	.LVL40:
 526 0000 38B5     		push	{r3, r4, r5, lr}
 527              		.cfi_def_cfa_offset 16
 528              		.cfi_offset 3, -16
 529              		.cfi_offset 4, -12
 530              		.cfi_offset 5, -8
 531              		.cfi_offset 14, -4
 532              		.loc 3 266 0
 533 0002 0546     		mov	r5, r0
 534 0004 0C46     		mov	r4, r1
 535              	.LBB84:
 536              	.LBB85:
 537              		.loc 4 511 0
 538 0006 FFF7FEFF 		bl	chSysLock
 539              	.LVL41:
 540              	.LBE85:
 541              	.LBE84:
 542              		.loc 3 278 0
 543 000a 2846     		mov	r0, r5
 544 000c 2146     		mov	r1, r4
 545 000e FFF7FEFF 		bl	pwm_lld_enable_channel_notification
 546              	.LVL42:
 547              		.loc 3 281 0
 548 0012 BDE83840 		pop	{r3, r4, r5, lr}
 549              		.cfi_restore 14
 550              		.cfi_restore 5
 551              		.cfi_restore 4
 552              		.cfi_restore 3
 553              		.cfi_def_cfa_offset 0
 554              	.LVL43:
 555              	.LBB86:
 556              	.LBB87:
 557              		.loc 4 522 0
 558 0016 FFF7FEBF 		b	chSysUnlock
 559              	.LVL44:
 560              	.LBE87:
 561              	.LBE86:
 562              		.cfi_endproc
 563              	.LFE332:
 564              		.size	pwmEnableChannelNotification, .-pwmEnableChannelNotification
 565              		.section	.text.pwmDisableChannelNotification,"ax",%progbits
 566              		.align	1
 567              		.global	pwmDisableChannelNotification
 568              		.thumb
 569              		.thumb_func
 570              		.type	pwmDisableChannelNotification, %function
ARM GAS  /tmp/cc02cOoa.s 			page 11


 571              	pwmDisableChannelNotification:
 572              	.LFB333:
 573              		.loc 3 294 0
 574              		.cfi_startproc
 575              		@ args = 0, pretend = 0, frame = 0
 576              		@ frame_needed = 0, uses_anonymous_args = 0
 577              	.LVL45:
 578 0000 38B5     		push	{r3, r4, r5, lr}
 579              		.cfi_def_cfa_offset 16
 580              		.cfi_offset 3, -16
 581              		.cfi_offset 4, -12
 582              		.cfi_offset 5, -8
 583              		.cfi_offset 14, -4
 584              		.loc 3 294 0
 585 0002 0546     		mov	r5, r0
 586 0004 0C46     		mov	r4, r1
 587              	.LBB88:
 588              	.LBB89:
 589              		.loc 4 511 0
 590 0006 FFF7FEFF 		bl	chSysLock
 591              	.LVL46:
 592              	.LBE89:
 593              	.LBE88:
 594              		.loc 3 306 0
 595 000a 2846     		mov	r0, r5
 596 000c 2146     		mov	r1, r4
 597 000e FFF7FEFF 		bl	pwm_lld_disable_channel_notification
 598              	.LVL47:
 599              		.loc 3 309 0
 600 0012 BDE83840 		pop	{r3, r4, r5, lr}
 601              		.cfi_restore 14
 602              		.cfi_restore 5
 603              		.cfi_restore 4
 604              		.cfi_restore 3
 605              		.cfi_def_cfa_offset 0
 606              	.LVL48:
 607              	.LBB90:
 608              	.LBB91:
 609              		.loc 4 522 0
 610 0016 FFF7FEBF 		b	chSysUnlock
 611              	.LVL49:
 612              	.LBE91:
 613              	.LBE90:
 614              		.cfi_endproc
 615              	.LFE333:
 616              		.size	pwmDisableChannelNotification, .-pwmDisableChannelNotification
 617              		.text
 618              	.Letext0:
 619              		.file 5 "/usr/include/newlib/machine/_default_types.h"
 620              		.file 6 "/usr/include/newlib/sys/_stdint.h"
 621              		.file 7 "../../modules/ChibiOS/os/common/ports/ARMCMx/compilers/GCC/chtypes.h"
 622              		.file 8 "../../modules/ChibiOS/os/rt/include/chsystypes.h"
 623              		.file 9 "../../modules/ChibiOS/os/rt/include/chschd.h"
 624              		.file 10 "../../modules/ChibiOS/os/rt/include/chtime.h"
 625              		.file 11 "../../modules/ChibiOS/os/common/ports/ARMCMx/chcore.h"
 626              		.file 12 "../../modules/ChibiOS/os/common/ports/ARMCMx/chcore_v7m.h"
 627              		.file 13 "../../modules/ChibiOS/os/hal/ports/STM32/LLD/TIMv1/stm32_tim.h"
ARM GAS  /tmp/cc02cOoa.s 			page 12


 628              		.file 14 "../../modules/ChibiOS/os/rt/include/chtm.h"
 629              		.file 15 "../../modules/ChibiOS/os/rt/include/chstats.h"
 630              		.file 16 "../../modules/ChibiOS/os/rt/include/chsem.h"
 631              		.file 17 "../../modules/ChibiOS/os/rt/include/chmtx.h"
 632              		.file 18 "../../modules/ChibiOS/os/hal/include/hal_pwm.h"
 633              		.file 19 "../../modules/ChibiOS/os/hal/ports/STM32/LLD/TIMv1/hal_pwm_lld.h"
 634              		.file 20 "../../modules/ChibiOS/os/common/ext/ARM/CMSIS/Core/Include/core_cm4.h"
 635              		.section	.debug_info,"",%progbits
 636              	.Ldebug_info0:
 637 0000 EC110000 		.4byte	0x11ec
 638 0004 0400     		.2byte	0x4
 639 0006 00000000 		.4byte	.Ldebug_abbrev0
 640 000a 04       		.byte	0x4
 641 000b 01       		.uleb128 0x1
 642 000c 91020000 		.4byte	.LASF168
 643 0010 01       		.byte	0x1
 644 0011 34050000 		.4byte	.LASF169
 645 0015 B9070000 		.4byte	.LASF170
 646 0019 00000000 		.4byte	.Ldebug_ranges0+0
 647 001d 00000000 		.4byte	0
 648 0021 00000000 		.4byte	.Ldebug_line0
 649 0025 02       		.uleb128 0x2
 650 0026 04       		.byte	0x4
 651 0027 05       		.byte	0x5
 652 0028 696E7400 		.ascii	"int\000"
 653 002c 03       		.uleb128 0x3
 654 002d 04       		.byte	0x4
 655 002e 07       		.byte	0x7
 656 002f 84020000 		.4byte	.LASF0
 657 0033 03       		.uleb128 0x3
 658 0034 01       		.byte	0x1
 659 0035 06       		.byte	0x6
 660 0036 58010000 		.4byte	.LASF1
 661 003a 04       		.uleb128 0x4
 662 003b 4D000000 		.4byte	.LASF5
 663 003f 05       		.byte	0x5
 664 0040 1D       		.byte	0x1d
 665 0041 45000000 		.4byte	0x45
 666 0045 03       		.uleb128 0x3
 667 0046 01       		.byte	0x1
 668 0047 08       		.byte	0x8
 669 0048 35060000 		.4byte	.LASF2
 670 004c 03       		.uleb128 0x3
 671 004d 02       		.byte	0x2
 672 004e 05       		.byte	0x5
 673 004f 50060000 		.4byte	.LASF3
 674 0053 03       		.uleb128 0x3
 675 0054 02       		.byte	0x2
 676 0055 07       		.byte	0x7
 677 0056 A6070000 		.4byte	.LASF4
 678 005a 04       		.uleb128 0x4
 679 005b A8040000 		.4byte	.LASF6
 680 005f 05       		.byte	0x5
 681 0060 3F       		.byte	0x3f
 682 0061 65000000 		.4byte	0x65
 683 0065 03       		.uleb128 0x3
 684 0066 04       		.byte	0x4
ARM GAS  /tmp/cc02cOoa.s 			page 13


 685 0067 05       		.byte	0x5
 686 0068 AA010000 		.4byte	.LASF7
 687 006c 04       		.uleb128 0x4
 688 006d 0A020000 		.4byte	.LASF8
 689 0071 05       		.byte	0x5
 690 0072 41       		.byte	0x41
 691 0073 77000000 		.4byte	0x77
 692 0077 03       		.uleb128 0x3
 693 0078 04       		.byte	0x4
 694 0079 07       		.byte	0x7
 695 007a 01070000 		.4byte	.LASF9
 696 007e 03       		.uleb128 0x3
 697 007f 08       		.byte	0x8
 698 0080 05       		.byte	0x5
 699 0081 87050000 		.4byte	.LASF10
 700 0085 04       		.uleb128 0x4
 701 0086 B3050000 		.4byte	.LASF11
 702 008a 05       		.byte	0x5
 703 008b 5B       		.byte	0x5b
 704 008c 90000000 		.4byte	0x90
 705 0090 03       		.uleb128 0x3
 706 0091 08       		.byte	0x8
 707 0092 07       		.byte	0x7
 708 0093 B2000000 		.4byte	.LASF12
 709 0097 04       		.uleb128 0x4
 710 0098 27080000 		.4byte	.LASF13
 711 009c 06       		.byte	0x6
 712 009d 14       		.byte	0x14
 713 009e 3A000000 		.4byte	0x3a
 714 00a2 04       		.uleb128 0x4
 715 00a3 2D060000 		.4byte	.LASF14
 716 00a7 06       		.byte	0x6
 717 00a8 1F       		.byte	0x1f
 718 00a9 5A000000 		.4byte	0x5a
 719 00ad 04       		.uleb128 0x4
 720 00ae E3060000 		.4byte	.LASF15
 721 00b2 06       		.byte	0x6
 722 00b3 20       		.byte	0x20
 723 00b4 6C000000 		.4byte	0x6c
 724 00b8 04       		.uleb128 0x4
 725 00b9 37000000 		.4byte	.LASF16
 726 00bd 06       		.byte	0x6
 727 00be 26       		.byte	0x26
 728 00bf 85000000 		.4byte	0x85
 729 00c3 04       		.uleb128 0x4
 730 00c4 F6070000 		.4byte	.LASF17
 731 00c8 07       		.byte	0x7
 732 00c9 27       		.byte	0x27
 733 00ca AD000000 		.4byte	0xad
 734 00ce 04       		.uleb128 0x4
 735 00cf 1D010000 		.4byte	.LASF18
 736 00d3 07       		.byte	0x7
 737 00d4 28       		.byte	0x28
 738 00d5 B8000000 		.4byte	0xb8
 739 00d9 04       		.uleb128 0x4
 740 00da 9A080000 		.4byte	.LASF19
 741 00de 07       		.byte	0x7
ARM GAS  /tmp/cc02cOoa.s 			page 14


 742 00df 2A       		.byte	0x2a
 743 00e0 97000000 		.4byte	0x97
 744 00e4 04       		.uleb128 0x4
 745 00e5 E5010000 		.4byte	.LASF20
 746 00e9 07       		.byte	0x7
 747 00ea 2B       		.byte	0x2b
 748 00eb 97000000 		.4byte	0x97
 749 00ef 04       		.uleb128 0x4
 750 00f0 EF050000 		.4byte	.LASF21
 751 00f4 07       		.byte	0x7
 752 00f5 2C       		.byte	0x2c
 753 00f6 97000000 		.4byte	0x97
 754 00fa 04       		.uleb128 0x4
 755 00fb 16060000 		.4byte	.LASF22
 756 00ff 07       		.byte	0x7
 757 0100 2E       		.byte	0x2e
 758 0101 AD000000 		.4byte	0xad
 759 0105 04       		.uleb128 0x4
 760 0106 09040000 		.4byte	.LASF23
 761 010a 07       		.byte	0x7
 762 010b 2F       		.byte	0x2f
 763 010c A2000000 		.4byte	0xa2
 764 0110 04       		.uleb128 0x4
 765 0111 77040000 		.4byte	.LASF24
 766 0115 07       		.byte	0x7
 767 0116 31       		.byte	0x31
 768 0117 AD000000 		.4byte	0xad
 769 011b 04       		.uleb128 0x4
 770 011c 7E020000 		.4byte	.LASF25
 771 0120 07       		.byte	0x7
 772 0121 33       		.byte	0x33
 773 0122 A2000000 		.4byte	0xa2
 774 0126 04       		.uleb128 0x4
 775 0127 24040000 		.4byte	.LASF26
 776 012b 07       		.byte	0x7
 777 012c 34       		.byte	0x34
 778 012d AD000000 		.4byte	0xad
 779 0131 04       		.uleb128 0x4
 780 0132 3F070000 		.4byte	.LASF27
 781 0136 08       		.byte	0x8
 782 0137 34       		.byte	0x34
 783 0138 3C010000 		.4byte	0x13c
 784 013c 05       		.uleb128 0x5
 785 013d C9030000 		.4byte	.LASF46
 786 0141 60       		.byte	0x60
 787 0142 09       		.byte	0x9
 788 0143 8E       		.byte	0x8e
 789 0144 27020000 		.4byte	0x227
 790 0148 06       		.uleb128 0x6
 791 0149 D9030000 		.4byte	.LASF28
 792 014d 09       		.byte	0x9
 793 014e 8F       		.byte	0x8f
 794 014f 5C020000 		.4byte	0x25c
 795 0153 00       		.byte	0
 796 0154 06       		.uleb128 0x6
 797 0155 A6050000 		.4byte	.LASF29
 798 0159 09       		.byte	0x9
ARM GAS  /tmp/cc02cOoa.s 			page 15


 799 015a 90       		.byte	0x90
 800 015b FA000000 		.4byte	0xfa
 801 015f 08       		.byte	0x8
 802 0160 07       		.uleb128 0x7
 803 0161 63747800 		.ascii	"ctx\000"
 804 0165 09       		.byte	0x9
 805 0166 91       		.byte	0x91
 806 0167 9C040000 		.4byte	0x49c
 807 016b 0C       		.byte	0xc
 808 016c 06       		.uleb128 0x6
 809 016d C2040000 		.4byte	.LASF30
 810 0171 09       		.byte	0x9
 811 0172 93       		.byte	0x93
 812 0173 32020000 		.4byte	0x232
 813 0177 10       		.byte	0x10
 814 0178 06       		.uleb128 0x6
 815 0179 28070000 		.4byte	.LASF31
 816 017d 09       		.byte	0x9
 817 017e 94       		.byte	0x94
 818 017f 32020000 		.4byte	0x232
 819 0183 14       		.byte	0x14
 820 0184 06       		.uleb128 0x6
 821 0185 04040000 		.4byte	.LASF32
 822 0189 09       		.byte	0x9
 823 018a 9B       		.byte	0x9b
 824 018b A4080000 		.4byte	0x8a4
 825 018f 18       		.byte	0x18
 826 0190 06       		.uleb128 0x6
 827 0191 13070000 		.4byte	.LASF33
 828 0195 09       		.byte	0x9
 829 0196 A4       		.byte	0xa4
 830 0197 B6080000 		.4byte	0x8b6
 831 019b 1C       		.byte	0x1c
 832 019c 06       		.uleb128 0x6
 833 019d 9B010000 		.4byte	.LASF34
 834 01a1 09       		.byte	0x9
 835 01a2 A9       		.byte	0xa9
 836 01a3 E4000000 		.4byte	0xe4
 837 01a7 20       		.byte	0x20
 838 01a8 06       		.uleb128 0x6
 839 01a9 57080000 		.4byte	.LASF35
 840 01ad 09       		.byte	0x9
 841 01ae AD       		.byte	0xad
 842 01af D9000000 		.4byte	0xd9
 843 01b3 21       		.byte	0x21
 844 01b4 06       		.uleb128 0x6
 845 01b5 F7050000 		.4byte	.LASF36
 846 01b9 09       		.byte	0x9
 847 01ba B2       		.byte	0xb2
 848 01bb EF000000 		.4byte	0xef
 849 01bf 22       		.byte	0x22
 850 01c0 08       		.uleb128 0x8
 851 01c1 7500     		.ascii	"u\000"
 852 01c3 09       		.byte	0x9
 853 01c4 0301     		.2byte	0x103
 854 01c6 DA070000 		.4byte	0x7da
 855 01ca 24       		.byte	0x24
ARM GAS  /tmp/cc02cOoa.s 			page 16


 856 01cb 09       		.uleb128 0x9
 857 01cc 54020000 		.4byte	.LASF37
 858 01d0 09       		.byte	0x9
 859 01d1 0801     		.2byte	0x108
 860 01d3 38020000 		.4byte	0x238
 861 01d7 28       		.byte	0x28
 862 01d8 09       		.uleb128 0x9
 863 01d9 92010000 		.4byte	.LASF38
 864 01dd 09       		.byte	0x9
 865 01de 0E01     		.2byte	0x10e
 866 01e0 5C020000 		.4byte	0x25c
 867 01e4 2C       		.byte	0x2c
 868 01e5 09       		.uleb128 0x9
 869 01e6 18080000 		.4byte	.LASF39
 870 01ea 09       		.byte	0x9
 871 01eb 1401     		.2byte	0x114
 872 01ed 10010000 		.4byte	0x110
 873 01f1 34       		.byte	0x34
 874 01f2 09       		.uleb128 0x9
 875 01f3 B4080000 		.4byte	.LASF40
 876 01f7 09       		.byte	0x9
 877 01f8 1B01     		.2byte	0x11b
 878 01fa 9E080000 		.4byte	0x89e
 879 01fe 38       		.byte	0x38
 880 01ff 09       		.uleb128 0x9
 881 0200 D3040000 		.4byte	.LASF41
 882 0204 09       		.byte	0x9
 883 0205 1F01     		.2byte	0x11f
 884 0207 FA000000 		.4byte	0xfa
 885 020b 3C       		.byte	0x3c
 886 020c 09       		.uleb128 0x9
 887 020d E5030000 		.4byte	.LASF42
 888 0211 09       		.byte	0x9
 889 0212 2601     		.2byte	0x126
 890 0214 0F030000 		.4byte	0x30f
 891 0218 40       		.byte	0x40
 892 0219 09       		.uleb128 0x9
 893 021a F6010000 		.4byte	.LASF43
 894 021e 09       		.byte	0x9
 895 021f 2C01     		.2byte	0x12c
 896 0221 8B070000 		.4byte	0x78b
 897 0225 48       		.byte	0x48
 898 0226 00       		.byte	0
 899 0227 04       		.uleb128 0x4
 900 0228 0A050000 		.4byte	.LASF44
 901 022c 08       		.byte	0x8
 902 022d 39       		.byte	0x39
 903 022e 32020000 		.4byte	0x232
 904 0232 0A       		.uleb128 0xa
 905 0233 04       		.byte	0x4
 906 0234 31010000 		.4byte	0x131
 907 0238 04       		.uleb128 0x4
 908 0239 8B080000 		.4byte	.LASF45
 909 023d 08       		.byte	0x8
 910 023e 3E       		.byte	0x3e
 911 023f 43020000 		.4byte	0x243
 912 0243 05       		.uleb128 0x5
ARM GAS  /tmp/cc02cOoa.s 			page 17


 913 0244 14040000 		.4byte	.LASF47
 914 0248 04       		.byte	0x4
 915 0249 09       		.byte	0x9
 916 024a 7C       		.byte	0x7c
 917 024b 5C020000 		.4byte	0x25c
 918 024f 06       		.uleb128 0x6
 919 0250 25000000 		.4byte	.LASF48
 920 0254 09       		.byte	0x9
 921 0255 7D       		.byte	0x7d
 922 0256 32020000 		.4byte	0x232
 923 025a 00       		.byte	0
 924 025b 00       		.byte	0
 925 025c 04       		.uleb128 0x4
 926 025d 08080000 		.4byte	.LASF49
 927 0261 08       		.byte	0x8
 928 0262 45       		.byte	0x45
 929 0263 67020000 		.4byte	0x267
 930 0267 05       		.uleb128 0x5
 931 0268 68000000 		.4byte	.LASF50
 932 026c 08       		.byte	0x8
 933 026d 09       		.byte	0x9
 934 026e 83       		.byte	0x83
 935 026f 8C020000 		.4byte	0x28c
 936 0273 06       		.uleb128 0x6
 937 0274 25000000 		.4byte	.LASF48
 938 0278 09       		.byte	0x9
 939 0279 84       		.byte	0x84
 940 027a 32020000 		.4byte	0x232
 941 027e 00       		.byte	0
 942 027f 06       		.uleb128 0x6
 943 0280 57000000 		.4byte	.LASF51
 944 0284 09       		.byte	0x9
 945 0285 85       		.byte	0x85
 946 0286 32020000 		.4byte	0x232
 947 028a 04       		.byte	0x4
 948 028b 00       		.byte	0
 949 028c 04       		.uleb128 0x4
 950 028d 0D000000 		.4byte	.LASF52
 951 0291 08       		.byte	0x8
 952 0292 4C       		.byte	0x4c
 953 0293 97020000 		.4byte	0x297
 954 0297 0B       		.uleb128 0xb
 955 0298 69040000 		.4byte	.LASF53
 956 029c 1C       		.byte	0x1c
 957 029d 09       		.byte	0x9
 958 029e 5E01     		.2byte	0x15e
 959 02a0 F3020000 		.4byte	0x2f3
 960 02a4 09       		.uleb128 0x9
 961 02a5 D9030000 		.4byte	.LASF28
 962 02a9 09       		.byte	0x9
 963 02aa 5F01     		.2byte	0x15f
 964 02ac 5C020000 		.4byte	0x25c
 965 02b0 00       		.byte	0
 966 02b1 09       		.uleb128 0x9
 967 02b2 A6050000 		.4byte	.LASF29
 968 02b6 09       		.byte	0x9
 969 02b7 6001     		.2byte	0x160
ARM GAS  /tmp/cc02cOoa.s 			page 18


 970 02b9 FA000000 		.4byte	0xfa
 971 02bd 08       		.byte	0x8
 972 02be 08       		.uleb128 0x8
 973 02bf 63747800 		.ascii	"ctx\000"
 974 02c3 09       		.byte	0x9
 975 02c4 6201     		.2byte	0x162
 976 02c6 9C040000 		.4byte	0x49c
 977 02ca 0C       		.byte	0xc
 978 02cb 09       		.uleb128 0x9
 979 02cc C2040000 		.4byte	.LASF30
 980 02d0 09       		.byte	0x9
 981 02d1 6501     		.2byte	0x165
 982 02d3 32020000 		.4byte	0x232
 983 02d7 10       		.byte	0x10
 984 02d8 09       		.uleb128 0x9
 985 02d9 28070000 		.4byte	.LASF31
 986 02dd 09       		.byte	0x9
 987 02de 6601     		.2byte	0x166
 988 02e0 32020000 		.4byte	0x232
 989 02e4 14       		.byte	0x14
 990 02e5 09       		.uleb128 0x9
 991 02e6 AB050000 		.4byte	.LASF54
 992 02ea 09       		.byte	0x9
 993 02eb 6901     		.2byte	0x169
 994 02ed 32020000 		.4byte	0x232
 995 02f1 18       		.byte	0x18
 996 02f2 00       		.byte	0
 997 02f3 04       		.uleb128 0x4
 998 02f4 57070000 		.4byte	.LASF55
 999 02f8 08       		.byte	0x8
 1000 02f9 51       		.byte	0x51
 1001 02fa FE020000 		.4byte	0x2fe
 1002 02fe 0A       		.uleb128 0xa
 1003 02ff 04       		.byte	0x4
 1004 0300 04030000 		.4byte	0x304
 1005 0304 0C       		.uleb128 0xc
 1006 0305 0F030000 		.4byte	0x30f
 1007 0309 0D       		.uleb128 0xd
 1008 030a 0F030000 		.4byte	0x30f
 1009 030e 00       		.byte	0
 1010 030f 0E       		.uleb128 0xe
 1011 0310 04       		.byte	0x4
 1012 0311 04       		.uleb128 0x4
 1013 0312 FC050000 		.4byte	.LASF56
 1014 0316 08       		.byte	0x8
 1015 0317 56       		.byte	0x56
 1016 0318 1C030000 		.4byte	0x31c
 1017 031c 0B       		.uleb128 0xb
 1018 031d B3060000 		.4byte	.LASF57
 1019 0321 14       		.byte	0x14
 1020 0322 09       		.byte	0x9
 1021 0323 3901     		.2byte	0x139
 1022 0325 6B030000 		.4byte	0x36b
 1023 0329 09       		.uleb128 0x9
 1024 032a 25000000 		.4byte	.LASF48
 1025 032e 09       		.byte	0x9
 1026 032f 3A01     		.2byte	0x13a
ARM GAS  /tmp/cc02cOoa.s 			page 19


 1027 0331 BC080000 		.4byte	0x8bc
 1028 0335 00       		.byte	0
 1029 0336 09       		.uleb128 0x9
 1030 0337 57000000 		.4byte	.LASF51
 1031 033b 09       		.byte	0x9
 1032 033c 3B01     		.2byte	0x13b
 1033 033e BC080000 		.4byte	0x8bc
 1034 0342 04       		.byte	0x4
 1035 0343 09       		.uleb128 0x9
 1036 0344 2A000000 		.4byte	.LASF58
 1037 0348 09       		.byte	0x9
 1038 0349 3C01     		.2byte	0x13c
 1039 034b 4F040000 		.4byte	0x44f
 1040 034f 08       		.byte	0x8
 1041 0350 09       		.uleb128 0x9
 1042 0351 13010000 		.4byte	.LASF59
 1043 0355 09       		.byte	0x9
 1044 0356 3D01     		.2byte	0x13d
 1045 0358 F3020000 		.4byte	0x2f3
 1046 035c 0C       		.byte	0xc
 1047 035d 08       		.uleb128 0x8
 1048 035e 70617200 		.ascii	"par\000"
 1049 0362 09       		.byte	0x9
 1050 0363 3F01     		.2byte	0x13f
 1051 0365 0F030000 		.4byte	0x30f
 1052 0369 10       		.byte	0x10
 1053 036a 00       		.byte	0
 1054 036b 04       		.uleb128 0x4
 1055 036c E5000000 		.4byte	.LASF60
 1056 0370 08       		.byte	0x8
 1057 0371 5B       		.byte	0x5b
 1058 0372 76030000 		.4byte	0x376
 1059 0376 0B       		.uleb128 0xb
 1060 0377 1D050000 		.4byte	.LASF61
 1061 037b 10       		.byte	0x10
 1062 037c 09       		.byte	0x9
 1063 037d 4901     		.2byte	0x149
 1064 037f B8030000 		.4byte	0x3b8
 1065 0383 09       		.uleb128 0x9
 1066 0384 25000000 		.4byte	.LASF48
 1067 0388 09       		.byte	0x9
 1068 0389 4A01     		.2byte	0x14a
 1069 038b BC080000 		.4byte	0x8bc
 1070 038f 00       		.byte	0
 1071 0390 09       		.uleb128 0x9
 1072 0391 57000000 		.4byte	.LASF51
 1073 0395 09       		.byte	0x9
 1074 0396 4C01     		.2byte	0x14c
 1075 0398 BC080000 		.4byte	0x8bc
 1076 039c 04       		.byte	0x4
 1077 039d 09       		.uleb128 0x9
 1078 039e 2A000000 		.4byte	.LASF58
 1079 03a2 09       		.byte	0x9
 1080 03a3 4E01     		.2byte	0x14e
 1081 03a5 4F040000 		.4byte	0x44f
 1082 03a9 08       		.byte	0x8
 1083 03aa 09       		.uleb128 0x9
ARM GAS  /tmp/cc02cOoa.s 			page 20


 1084 03ab 5A060000 		.4byte	.LASF62
 1085 03af 09       		.byte	0x9
 1086 03b0 5601     		.2byte	0x156
 1087 03b2 44040000 		.4byte	0x444
 1088 03b6 0C       		.byte	0xc
 1089 03b7 00       		.byte	0
 1090 03b8 04       		.uleb128 0x4
 1091 03b9 79000000 		.4byte	.LASF63
 1092 03bd 08       		.byte	0x8
 1093 03be 60       		.byte	0x60
 1094 03bf C3030000 		.4byte	0x3c3
 1095 03c3 0B       		.uleb128 0xb
 1096 03c4 44020000 		.4byte	.LASF64
 1097 03c8 04       		.byte	0x4
 1098 03c9 09       		.byte	0x9
 1099 03ca 7001     		.2byte	0x170
 1100 03cc DE030000 		.4byte	0x3de
 1101 03d0 09       		.uleb128 0x9
 1102 03d1 8C070000 		.4byte	.LASF65
 1103 03d5 09       		.byte	0x9
 1104 03d6 7801     		.2byte	0x178
 1105 03d8 C2080000 		.4byte	0x8c2
 1106 03dc 00       		.byte	0
 1107 03dd 00       		.byte	0
 1108 03de 04       		.uleb128 0x4
 1109 03df 3D040000 		.4byte	.LASF66
 1110 03e3 08       		.byte	0x8
 1111 03e4 65       		.byte	0x65
 1112 03e5 E9030000 		.4byte	0x3e9
 1113 03e9 0B       		.uleb128 0xb
 1114 03ea 6A060000 		.4byte	.LASF67
 1115 03ee D0       		.byte	0xd0
 1116 03ef 09       		.byte	0x9
 1117 03f0 9001     		.2byte	0x190
 1118 03f2 44040000 		.4byte	0x444
 1119 03f6 09       		.uleb128 0x9
 1120 03f7 21080000 		.4byte	.LASF68
 1121 03fb 09       		.byte	0x9
 1122 03fc 9401     		.2byte	0x194
 1123 03fe 8C020000 		.4byte	0x28c
 1124 0402 00       		.byte	0
 1125 0403 09       		.uleb128 0x9
 1126 0404 3D020000 		.4byte	.LASF69
 1127 0408 09       		.byte	0x9
 1128 0409 9801     		.2byte	0x198
 1129 040b 6B030000 		.4byte	0x36b
 1130 040f 1C       		.byte	0x1c
 1131 0410 08       		.uleb128 0x8
 1132 0411 64626700 		.ascii	"dbg\000"
 1133 0415 09       		.byte	0x9
 1134 0416 9C01     		.2byte	0x19c
 1135 0418 B8030000 		.4byte	0x3b8
 1136 041c 2C       		.byte	0x2c
 1137 041d 09       		.uleb128 0x9
 1138 041e D2000000 		.4byte	.LASF70
 1139 0422 09       		.byte	0x9
 1140 0423 A001     		.2byte	0x1a0
ARM GAS  /tmp/cc02cOoa.s 			page 21


 1141 0425 31010000 		.4byte	0x131
 1142 0429 30       		.byte	0x30
 1143 042a 08       		.uleb128 0x8
 1144 042b 746D00   		.ascii	"tm\000"
 1145 042e 09       		.byte	0x9
 1146 042f A501     		.2byte	0x1a5
 1147 0431 3D070000 		.4byte	0x73d
 1148 0435 90       		.byte	0x90
 1149 0436 09       		.uleb128 0x9
 1150 0437 40000000 		.4byte	.LASF71
 1151 043b 09       		.byte	0x9
 1152 043c AB01     		.2byte	0x1ab
 1153 043e CF070000 		.4byte	0x7cf
 1154 0442 98       		.byte	0x98
 1155 0443 00       		.byte	0
 1156 0444 04       		.uleb128 0x4
 1157 0445 4D070000 		.4byte	.LASF72
 1158 0449 0A       		.byte	0xa
 1159 044a 6D       		.byte	0x6d
 1160 044b AD000000 		.4byte	0xad
 1161 044f 04       		.uleb128 0x4
 1162 0450 70020000 		.4byte	.LASF73
 1163 0454 0A       		.byte	0xa
 1164 0455 79       		.byte	0x79
 1165 0456 AD000000 		.4byte	0xad
 1166 045a 03       		.uleb128 0x3
 1167 045b 04       		.byte	0x4
 1168 045c 07       		.byte	0x7
 1169 045d 01050000 		.4byte	.LASF74
 1170 0461 0F       		.uleb128 0xf
 1171 0462 AD000000 		.4byte	0xad
 1172 0466 10       		.uleb128 0x10
 1173 0467 AD000000 		.4byte	0xad
 1174 046b 76040000 		.4byte	0x476
 1175 046f 11       		.uleb128 0x11
 1176 0470 5A040000 		.4byte	0x45a
 1177 0474 01       		.byte	0x1
 1178 0475 00       		.byte	0
 1179 0476 10       		.uleb128 0x10
 1180 0477 AD000000 		.4byte	0xad
 1181 047b 86040000 		.4byte	0x486
 1182 047f 11       		.uleb128 0x11
 1183 0480 5A040000 		.4byte	0x45a
 1184 0484 03       		.byte	0x3
 1185 0485 00       		.byte	0
 1186 0486 04       		.uleb128 0x4
 1187 0487 34020000 		.4byte	.LASF75
 1188 048b 0B       		.byte	0xb
 1189 048c 65       		.byte	0x65
 1190 048d 0F030000 		.4byte	0x30f
 1191 0491 04       		.uleb128 0x4
 1192 0492 B7040000 		.4byte	.LASF76
 1193 0496 0B       		.byte	0xb
 1194 0497 6D       		.byte	0x6d
 1195 0498 B8000000 		.4byte	0xb8
 1196 049c 05       		.uleb128 0x5
 1197 049d 7A050000 		.4byte	.LASF77
ARM GAS  /tmp/cc02cOoa.s 			page 22


 1198 04a1 04       		.byte	0x4
 1199 04a2 0B       		.byte	0xb
 1200 04a3 89       		.byte	0x89
 1201 04a4 B4040000 		.4byte	0x4b4
 1202 04a8 07       		.uleb128 0x7
 1203 04a9 737000   		.ascii	"sp\000"
 1204 04ac 0B       		.byte	0xb
 1205 04ad 8A       		.byte	0x8a
 1206 04ae 00060000 		.4byte	0x600
 1207 04b2 00       		.byte	0
 1208 04b3 00       		.byte	0
 1209 04b4 0B       		.uleb128 0xb
 1210 04b5 5C000000 		.4byte	.LASF78
 1211 04b9 64       		.byte	0x64
 1212 04ba 0C       		.byte	0xc
 1213 04bb 5901     		.2byte	0x159
 1214 04bd 00060000 		.4byte	0x600
 1215 04c1 08       		.uleb128 0x8
 1216 04c2 73313600 		.ascii	"s16\000"
 1217 04c6 0C       		.byte	0xc
 1218 04c7 5B01     		.2byte	0x15b
 1219 04c9 86040000 		.4byte	0x486
 1220 04cd 00       		.byte	0
 1221 04ce 08       		.uleb128 0x8
 1222 04cf 73313700 		.ascii	"s17\000"
 1223 04d3 0C       		.byte	0xc
 1224 04d4 5C01     		.2byte	0x15c
 1225 04d6 86040000 		.4byte	0x486
 1226 04da 04       		.byte	0x4
 1227 04db 08       		.uleb128 0x8
 1228 04dc 73313800 		.ascii	"s18\000"
 1229 04e0 0C       		.byte	0xc
 1230 04e1 5D01     		.2byte	0x15d
 1231 04e3 86040000 		.4byte	0x486
 1232 04e7 08       		.byte	0x8
 1233 04e8 08       		.uleb128 0x8
 1234 04e9 73313900 		.ascii	"s19\000"
 1235 04ed 0C       		.byte	0xc
 1236 04ee 5E01     		.2byte	0x15e
 1237 04f0 86040000 		.4byte	0x486
 1238 04f4 0C       		.byte	0xc
 1239 04f5 08       		.uleb128 0x8
 1240 04f6 73323000 		.ascii	"s20\000"
 1241 04fa 0C       		.byte	0xc
 1242 04fb 5F01     		.2byte	0x15f
 1243 04fd 86040000 		.4byte	0x486
 1244 0501 10       		.byte	0x10
 1245 0502 08       		.uleb128 0x8
 1246 0503 73323100 		.ascii	"s21\000"
 1247 0507 0C       		.byte	0xc
 1248 0508 6001     		.2byte	0x160
 1249 050a 86040000 		.4byte	0x486
 1250 050e 14       		.byte	0x14
 1251 050f 08       		.uleb128 0x8
 1252 0510 73323200 		.ascii	"s22\000"
 1253 0514 0C       		.byte	0xc
 1254 0515 6101     		.2byte	0x161
ARM GAS  /tmp/cc02cOoa.s 			page 23


 1255 0517 86040000 		.4byte	0x486
 1256 051b 18       		.byte	0x18
 1257 051c 08       		.uleb128 0x8
 1258 051d 73323300 		.ascii	"s23\000"
 1259 0521 0C       		.byte	0xc
 1260 0522 6201     		.2byte	0x162
 1261 0524 86040000 		.4byte	0x486
 1262 0528 1C       		.byte	0x1c
 1263 0529 08       		.uleb128 0x8
 1264 052a 73323400 		.ascii	"s24\000"
 1265 052e 0C       		.byte	0xc
 1266 052f 6301     		.2byte	0x163
 1267 0531 86040000 		.4byte	0x486
 1268 0535 20       		.byte	0x20
 1269 0536 08       		.uleb128 0x8
 1270 0537 73323500 		.ascii	"s25\000"
 1271 053b 0C       		.byte	0xc
 1272 053c 6401     		.2byte	0x164
 1273 053e 86040000 		.4byte	0x486
 1274 0542 24       		.byte	0x24
 1275 0543 08       		.uleb128 0x8
 1276 0544 73323600 		.ascii	"s26\000"
 1277 0548 0C       		.byte	0xc
 1278 0549 6501     		.2byte	0x165
 1279 054b 86040000 		.4byte	0x486
 1280 054f 28       		.byte	0x28
 1281 0550 08       		.uleb128 0x8
 1282 0551 73323700 		.ascii	"s27\000"
 1283 0555 0C       		.byte	0xc
 1284 0556 6601     		.2byte	0x166
 1285 0558 86040000 		.4byte	0x486
 1286 055c 2C       		.byte	0x2c
 1287 055d 08       		.uleb128 0x8
 1288 055e 73323800 		.ascii	"s28\000"
 1289 0562 0C       		.byte	0xc
 1290 0563 6701     		.2byte	0x167
 1291 0565 86040000 		.4byte	0x486
 1292 0569 30       		.byte	0x30
 1293 056a 08       		.uleb128 0x8
 1294 056b 73323900 		.ascii	"s29\000"
 1295 056f 0C       		.byte	0xc
 1296 0570 6801     		.2byte	0x168
 1297 0572 86040000 		.4byte	0x486
 1298 0576 34       		.byte	0x34
 1299 0577 08       		.uleb128 0x8
 1300 0578 73333000 		.ascii	"s30\000"
 1301 057c 0C       		.byte	0xc
 1302 057d 6901     		.2byte	0x169
 1303 057f 86040000 		.4byte	0x486
 1304 0583 38       		.byte	0x38
 1305 0584 08       		.uleb128 0x8
 1306 0585 73333100 		.ascii	"s31\000"
 1307 0589 0C       		.byte	0xc
 1308 058a 6A01     		.2byte	0x16a
 1309 058c 86040000 		.4byte	0x486
 1310 0590 3C       		.byte	0x3c
 1311 0591 08       		.uleb128 0x8
ARM GAS  /tmp/cc02cOoa.s 			page 24


 1312 0592 723400   		.ascii	"r4\000"
 1313 0595 0C       		.byte	0xc
 1314 0596 6C01     		.2byte	0x16c
 1315 0598 86040000 		.4byte	0x486
 1316 059c 40       		.byte	0x40
 1317 059d 08       		.uleb128 0x8
 1318 059e 723500   		.ascii	"r5\000"
 1319 05a1 0C       		.byte	0xc
 1320 05a2 6D01     		.2byte	0x16d
 1321 05a4 86040000 		.4byte	0x486
 1322 05a8 44       		.byte	0x44
 1323 05a9 08       		.uleb128 0x8
 1324 05aa 723600   		.ascii	"r6\000"
 1325 05ad 0C       		.byte	0xc
 1326 05ae 6E01     		.2byte	0x16e
 1327 05b0 86040000 		.4byte	0x486
 1328 05b4 48       		.byte	0x48
 1329 05b5 08       		.uleb128 0x8
 1330 05b6 723700   		.ascii	"r7\000"
 1331 05b9 0C       		.byte	0xc
 1332 05ba 6F01     		.2byte	0x16f
 1333 05bc 86040000 		.4byte	0x486
 1334 05c0 4C       		.byte	0x4c
 1335 05c1 08       		.uleb128 0x8
 1336 05c2 723800   		.ascii	"r8\000"
 1337 05c5 0C       		.byte	0xc
 1338 05c6 7001     		.2byte	0x170
 1339 05c8 86040000 		.4byte	0x486
 1340 05cc 50       		.byte	0x50
 1341 05cd 08       		.uleb128 0x8
 1342 05ce 723900   		.ascii	"r9\000"
 1343 05d1 0C       		.byte	0xc
 1344 05d2 7101     		.2byte	0x171
 1345 05d4 86040000 		.4byte	0x486
 1346 05d8 54       		.byte	0x54
 1347 05d9 08       		.uleb128 0x8
 1348 05da 72313000 		.ascii	"r10\000"
 1349 05de 0C       		.byte	0xc
 1350 05df 7201     		.2byte	0x172
 1351 05e1 86040000 		.4byte	0x486
 1352 05e5 58       		.byte	0x58
 1353 05e6 08       		.uleb128 0x8
 1354 05e7 72313100 		.ascii	"r11\000"
 1355 05eb 0C       		.byte	0xc
 1356 05ec 7301     		.2byte	0x173
 1357 05ee 86040000 		.4byte	0x486
 1358 05f2 5C       		.byte	0x5c
 1359 05f3 08       		.uleb128 0x8
 1360 05f4 6C7200   		.ascii	"lr\000"
 1361 05f7 0C       		.byte	0xc
 1362 05f8 7401     		.2byte	0x174
 1363 05fa 86040000 		.4byte	0x486
 1364 05fe 60       		.byte	0x60
 1365 05ff 00       		.byte	0
 1366 0600 0A       		.uleb128 0xa
 1367 0601 04       		.byte	0x4
 1368 0602 B4040000 		.4byte	0x4b4
ARM GAS  /tmp/cc02cOoa.s 			page 25


 1369 0606 12       		.uleb128 0x12
 1370 0607 60       		.byte	0x60
 1371 0608 0D       		.byte	0xd
 1372 0609 F501     		.2byte	0x1f5
 1373 060b 12070000 		.4byte	0x712
 1374 060f 08       		.uleb128 0x8
 1375 0610 43523100 		.ascii	"CR1\000"
 1376 0614 0D       		.byte	0xd
 1377 0615 F601     		.2byte	0x1f6
 1378 0617 61040000 		.4byte	0x461
 1379 061b 00       		.byte	0
 1380 061c 08       		.uleb128 0x8
 1381 061d 43523200 		.ascii	"CR2\000"
 1382 0621 0D       		.byte	0xd
 1383 0622 F701     		.2byte	0x1f7
 1384 0624 61040000 		.4byte	0x461
 1385 0628 04       		.byte	0x4
 1386 0629 09       		.uleb128 0x9
 1387 062a F0030000 		.4byte	.LASF79
 1388 062e 0D       		.byte	0xd
 1389 062f F801     		.2byte	0x1f8
 1390 0631 61040000 		.4byte	0x461
 1391 0635 08       		.byte	0x8
 1392 0636 09       		.uleb128 0x9
 1393 0637 1A000000 		.4byte	.LASF80
 1394 063b 0D       		.byte	0xd
 1395 063c F901     		.2byte	0x1f9
 1396 063e 61040000 		.4byte	0x461
 1397 0642 0C       		.byte	0xc
 1398 0643 08       		.uleb128 0x8
 1399 0644 535200   		.ascii	"SR\000"
 1400 0647 0D       		.byte	0xd
 1401 0648 FA01     		.2byte	0x1fa
 1402 064a 61040000 		.4byte	0x461
 1403 064e 10       		.byte	0x10
 1404 064f 08       		.uleb128 0x8
 1405 0650 45475200 		.ascii	"EGR\000"
 1406 0654 0D       		.byte	0xd
 1407 0655 FB01     		.2byte	0x1fb
 1408 0657 61040000 		.4byte	0x461
 1409 065b 14       		.byte	0x14
 1410 065c 09       		.uleb128 0x9
 1411 065d 46010000 		.4byte	.LASF81
 1412 0661 0D       		.byte	0xd
 1413 0662 FC01     		.2byte	0x1fc
 1414 0664 61040000 		.4byte	0x461
 1415 0668 18       		.byte	0x18
 1416 0669 09       		.uleb128 0x9
 1417 066a 4C010000 		.4byte	.LASF82
 1418 066e 0D       		.byte	0xd
 1419 066f FD01     		.2byte	0x1fd
 1420 0671 61040000 		.4byte	0x461
 1421 0675 1C       		.byte	0x1c
 1422 0676 09       		.uleb128 0x9
 1423 0677 48070000 		.4byte	.LASF83
 1424 067b 0D       		.byte	0xd
 1425 067c FE01     		.2byte	0x1fe
ARM GAS  /tmp/cc02cOoa.s 			page 26


 1426 067e 61040000 		.4byte	0x461
 1427 0682 20       		.byte	0x20
 1428 0683 08       		.uleb128 0x8
 1429 0684 434E5400 		.ascii	"CNT\000"
 1430 0688 0D       		.byte	0xd
 1431 0689 FF01     		.2byte	0x1ff
 1432 068b 61040000 		.4byte	0x461
 1433 068f 24       		.byte	0x24
 1434 0690 08       		.uleb128 0x8
 1435 0691 50534300 		.ascii	"PSC\000"
 1436 0695 0D       		.byte	0xd
 1437 0696 0002     		.2byte	0x200
 1438 0698 61040000 		.4byte	0x461
 1439 069c 28       		.byte	0x28
 1440 069d 08       		.uleb128 0x8
 1441 069e 41525200 		.ascii	"ARR\000"
 1442 06a2 0D       		.byte	0xd
 1443 06a3 0102     		.2byte	0x201
 1444 06a5 61040000 		.4byte	0x461
 1445 06a9 2C       		.byte	0x2c
 1446 06aa 08       		.uleb128 0x8
 1447 06ab 52435200 		.ascii	"RCR\000"
 1448 06af 0D       		.byte	0xd
 1449 06b0 0202     		.2byte	0x202
 1450 06b2 61040000 		.4byte	0x461
 1451 06b6 30       		.byte	0x30
 1452 06b7 08       		.uleb128 0x8
 1453 06b8 43435200 		.ascii	"CCR\000"
 1454 06bc 0D       		.byte	0xd
 1455 06bd 0302     		.2byte	0x203
 1456 06bf 12070000 		.4byte	0x712
 1457 06c3 34       		.byte	0x34
 1458 06c4 09       		.uleb128 0x9
 1459 06c5 18010000 		.4byte	.LASF84
 1460 06c9 0D       		.byte	0xd
 1461 06ca 0402     		.2byte	0x204
 1462 06cc 61040000 		.4byte	0x461
 1463 06d0 44       		.byte	0x44
 1464 06d1 08       		.uleb128 0x8
 1465 06d2 44435200 		.ascii	"DCR\000"
 1466 06d6 0D       		.byte	0xd
 1467 06d7 0502     		.2byte	0x205
 1468 06d9 61040000 		.4byte	0x461
 1469 06dd 48       		.byte	0x48
 1470 06de 09       		.uleb128 0x9
 1471 06df 3A070000 		.4byte	.LASF85
 1472 06e3 0D       		.byte	0xd
 1473 06e4 0602     		.2byte	0x206
 1474 06e6 61040000 		.4byte	0x461
 1475 06ea 4C       		.byte	0x4c
 1476 06eb 08       		.uleb128 0x8
 1477 06ec 4F5200   		.ascii	"OR\000"
 1478 06ef 0D       		.byte	0xd
 1479 06f0 0702     		.2byte	0x207
 1480 06f2 61040000 		.4byte	0x461
 1481 06f6 50       		.byte	0x50
 1482 06f7 09       		.uleb128 0x9
ARM GAS  /tmp/cc02cOoa.s 			page 27


 1483 06f8 52010000 		.4byte	.LASF86
 1484 06fc 0D       		.byte	0xd
 1485 06fd 0802     		.2byte	0x208
 1486 06ff 61040000 		.4byte	0x461
 1487 0703 54       		.byte	0x54
 1488 0704 09       		.uleb128 0x9
 1489 0705 D1060000 		.4byte	.LASF87
 1490 0709 0D       		.byte	0xd
 1491 070a 0902     		.2byte	0x209
 1492 070c 17070000 		.4byte	0x717
 1493 0710 58       		.byte	0x58
 1494 0711 00       		.byte	0
 1495 0712 0F       		.uleb128 0xf
 1496 0713 76040000 		.4byte	0x476
 1497 0717 0F       		.uleb128 0xf
 1498 0718 66040000 		.4byte	0x466
 1499 071c 13       		.uleb128 0x13
 1500 071d 52040000 		.4byte	.LASF88
 1501 0721 0D       		.byte	0xd
 1502 0722 0A02     		.2byte	0x20a
 1503 0724 06060000 		.4byte	0x606
 1504 0728 14       		.uleb128 0x14
 1505 0729 04       		.byte	0x4
 1506 072a 0E       		.byte	0xe
 1507 072b 38       		.byte	0x38
 1508 072c 3D070000 		.4byte	0x73d
 1509 0730 06       		.uleb128 0x6
 1510 0731 96070000 		.4byte	.LASF89
 1511 0735 0E       		.byte	0xe
 1512 0736 3C       		.byte	0x3c
 1513 0737 C3000000 		.4byte	0xc3
 1514 073b 00       		.byte	0
 1515 073c 00       		.byte	0
 1516 073d 04       		.uleb128 0x4
 1517 073e 95050000 		.4byte	.LASF90
 1518 0742 0E       		.byte	0xe
 1519 0743 3D       		.byte	0x3d
 1520 0744 28070000 		.4byte	0x728
 1521 0748 14       		.uleb128 0x14
 1522 0749 18       		.byte	0x18
 1523 074a 0E       		.byte	0xe
 1524 074b 48       		.byte	0x48
 1525 074c 8B070000 		.4byte	0x78b
 1526 0750 06       		.uleb128 0x6
 1527 0751 EB030000 		.4byte	.LASF91
 1528 0755 0E       		.byte	0xe
 1529 0756 49       		.byte	0x49
 1530 0757 C3000000 		.4byte	0xc3
 1531 075b 00       		.byte	0
 1532 075c 06       		.uleb128 0x6
 1533 075d 99000000 		.4byte	.LASF92
 1534 0761 0E       		.byte	0xe
 1535 0762 4A       		.byte	0x4a
 1536 0763 C3000000 		.4byte	0xc3
 1537 0767 04       		.byte	0x4
 1538 0768 06       		.uleb128 0x6
 1539 0769 0F040000 		.4byte	.LASF93
ARM GAS  /tmp/cc02cOoa.s 			page 28


 1540 076d 0E       		.byte	0xe
 1541 076e 4B       		.byte	0x4b
 1542 076f C3000000 		.4byte	0xc3
 1543 0773 08       		.byte	0x8
 1544 0774 07       		.uleb128 0x7
 1545 0775 6E00     		.ascii	"n\000"
 1546 0777 0E       		.byte	0xe
 1547 0778 4C       		.byte	0x4c
 1548 0779 26010000 		.4byte	0x126
 1549 077d 0C       		.byte	0xc
 1550 077e 06       		.uleb128 0x6
 1551 077f BE050000 		.4byte	.LASF94
 1552 0783 0E       		.byte	0xe
 1553 0784 4D       		.byte	0x4d
 1554 0785 CE000000 		.4byte	0xce
 1555 0789 10       		.byte	0x10
 1556 078a 00       		.byte	0
 1557 078b 04       		.uleb128 0x4
 1558 078c 9F000000 		.4byte	.LASF95
 1559 0790 0E       		.byte	0xe
 1560 0791 4E       		.byte	0x4e
 1561 0792 48070000 		.4byte	0x748
 1562 0796 14       		.uleb128 0x14
 1563 0797 38       		.byte	0x38
 1564 0798 0F       		.byte	0xf
 1565 0799 38       		.byte	0x38
 1566 079a CF070000 		.4byte	0x7cf
 1567 079e 06       		.uleb128 0x6
 1568 079f D3030000 		.4byte	.LASF96
 1569 07a3 0F       		.byte	0xf
 1570 07a4 39       		.byte	0x39
 1571 07a5 26010000 		.4byte	0x126
 1572 07a9 00       		.byte	0
 1573 07aa 06       		.uleb128 0x6
 1574 07ab 1E060000 		.4byte	.LASF97
 1575 07af 0F       		.byte	0xf
 1576 07b0 3A       		.byte	0x3a
 1577 07b1 26010000 		.4byte	0x126
 1578 07b5 04       		.byte	0x4
 1579 07b6 06       		.uleb128 0x6
 1580 07b7 C7080000 		.4byte	.LASF98
 1581 07bb 0F       		.byte	0xf
 1582 07bc 3B       		.byte	0x3b
 1583 07bd 8B070000 		.4byte	0x78b
 1584 07c1 08       		.byte	0x8
 1585 07c2 06       		.uleb128 0x6
 1586 07c3 5E040000 		.4byte	.LASF99
 1587 07c7 0F       		.byte	0xf
 1588 07c8 3D       		.byte	0x3d
 1589 07c9 8B070000 		.4byte	0x78b
 1590 07cd 20       		.byte	0x20
 1591 07ce 00       		.byte	0
 1592 07cf 04       		.uleb128 0x4
 1593 07d0 F5030000 		.4byte	.LASF100
 1594 07d4 0F       		.byte	0xf
 1595 07d5 3F       		.byte	0x3f
 1596 07d6 96070000 		.4byte	0x796
ARM GAS  /tmp/cc02cOoa.s 			page 29


 1597 07da 15       		.uleb128 0x15
 1598 07db 04       		.byte	0x4
 1599 07dc 09       		.byte	0x9
 1600 07dd C6       		.byte	0xc6
 1601 07de 3C080000 		.4byte	0x83c
 1602 07e2 16       		.uleb128 0x16
 1603 07e3 30000000 		.4byte	.LASF101
 1604 07e7 09       		.byte	0x9
 1605 07e8 CD       		.byte	0xcd
 1606 07e9 05010000 		.4byte	0x105
 1607 07ed 16       		.uleb128 0x16
 1608 07ee C9000000 		.4byte	.LASF102
 1609 07f2 09       		.byte	0x9
 1610 07f3 D4       		.byte	0xd4
 1611 07f4 05010000 		.4byte	0x105
 1612 07f8 16       		.uleb128 0x16
 1613 07f9 84080000 		.4byte	.LASF103
 1614 07fd 09       		.byte	0x9
 1615 07fe DB       		.byte	0xdb
 1616 07ff 0F030000 		.4byte	0x30f
 1617 0803 16       		.uleb128 0x16
 1618 0804 1F000000 		.4byte	.LASF104
 1619 0808 09       		.byte	0x9
 1620 0809 E2       		.byte	0xe2
 1621 080a 3C080000 		.4byte	0x83c
 1622 080e 16       		.uleb128 0x16
 1623 080f DD000000 		.4byte	.LASF105
 1624 0813 09       		.byte	0x9
 1625 0814 E7       		.byte	0xe7
 1626 0815 05010000 		.4byte	0x105
 1627 0819 16       		.uleb128 0x16
 1628 081a 9D030000 		.4byte	.LASF106
 1629 081e 09       		.byte	0x9
 1630 081f F0       		.byte	0xf0
 1631 0820 67080000 		.4byte	0x867
 1632 0824 16       		.uleb128 0x16
 1633 0825 EC060000 		.4byte	.LASF107
 1634 0829 09       		.byte	0x9
 1635 082a F9       		.byte	0xf9
 1636 082b 9E080000 		.4byte	0x89e
 1637 082f 17       		.uleb128 0x17
 1638 0830 63060000 		.4byte	.LASF108
 1639 0834 09       		.byte	0x9
 1640 0835 0101     		.2byte	0x101
 1641 0837 10010000 		.4byte	0x110
 1642 083b 00       		.byte	0
 1643 083c 0A       		.uleb128 0xa
 1644 083d 04       		.byte	0x4
 1645 083e 27020000 		.4byte	0x227
 1646 0842 05       		.uleb128 0x5
 1647 0843 C4060000 		.4byte	.LASF109
 1648 0847 0C       		.byte	0xc
 1649 0848 10       		.byte	0x10
 1650 0849 34       		.byte	0x34
 1651 084a 67080000 		.4byte	0x867
 1652 084e 06       		.uleb128 0x6
 1653 084f D9030000 		.4byte	.LASF28
ARM GAS  /tmp/cc02cOoa.s 			page 30


 1654 0853 10       		.byte	0x10
 1655 0854 35       		.byte	0x35
 1656 0855 5C020000 		.4byte	0x25c
 1657 0859 00       		.byte	0
 1658 085a 07       		.uleb128 0x7
 1659 085b 636E7400 		.ascii	"cnt\000"
 1660 085f 10       		.byte	0x10
 1661 0860 37       		.byte	0x37
 1662 0861 1B010000 		.4byte	0x11b
 1663 0865 08       		.byte	0x8
 1664 0866 00       		.byte	0
 1665 0867 0A       		.uleb128 0xa
 1666 0868 04       		.byte	0x4
 1667 0869 42080000 		.4byte	0x842
 1668 086d 05       		.uleb128 0x5
 1669 086e 9D070000 		.4byte	.LASF110
 1670 0872 10       		.byte	0x10
 1671 0873 11       		.byte	0x11
 1672 0874 39       		.byte	0x39
 1673 0875 9E080000 		.4byte	0x89e
 1674 0879 06       		.uleb128 0x6
 1675 087a D9030000 		.4byte	.LASF28
 1676 087e 11       		.byte	0x11
 1677 087f 3A       		.byte	0x3a
 1678 0880 5C020000 		.4byte	0x25c
 1679 0884 00       		.byte	0
 1680 0885 06       		.uleb128 0x6
 1681 0886 FB060000 		.4byte	.LASF111
 1682 088a 11       		.byte	0x11
 1683 088b 3C       		.byte	0x3c
 1684 088c 32020000 		.4byte	0x232
 1685 0890 08       		.byte	0x8
 1686 0891 06       		.uleb128 0x6
 1687 0892 25000000 		.4byte	.LASF48
 1688 0896 11       		.byte	0x11
 1689 0897 3E       		.byte	0x3e
 1690 0898 D2080000 		.4byte	0x8d2
 1691 089c 0C       		.byte	0xc
 1692 089d 00       		.byte	0
 1693 089e 0A       		.uleb128 0xa
 1694 089f 04       		.byte	0x4
 1695 08a0 6D080000 		.4byte	0x86d
 1696 08a4 0A       		.uleb128 0xa
 1697 08a5 04       		.byte	0x4
 1698 08a6 AA080000 		.4byte	0x8aa
 1699 08aa 18       		.uleb128 0x18
 1700 08ab AF080000 		.4byte	0x8af
 1701 08af 03       		.uleb128 0x3
 1702 08b0 01       		.byte	0x1
 1703 08b1 08       		.byte	0x8
 1704 08b2 23070000 		.4byte	.LASF112
 1705 08b6 0A       		.uleb128 0xa
 1706 08b7 04       		.byte	0x4
 1707 08b8 91040000 		.4byte	0x491
 1708 08bc 0A       		.uleb128 0xa
 1709 08bd 04       		.byte	0x4
 1710 08be 11030000 		.4byte	0x311
ARM GAS  /tmp/cc02cOoa.s 			page 31


 1711 08c2 0F       		.uleb128 0xf
 1712 08c3 A4080000 		.4byte	0x8a4
 1713 08c7 04       		.uleb128 0x4
 1714 08c8 68020000 		.4byte	.LASF113
 1715 08cc 11       		.byte	0x11
 1716 08cd 34       		.byte	0x34
 1717 08ce 6D080000 		.4byte	0x86d
 1718 08d2 0A       		.uleb128 0xa
 1719 08d3 04       		.byte	0x4
 1720 08d4 C7080000 		.4byte	0x8c7
 1721 08d8 03       		.uleb128 0x3
 1722 08d9 01       		.byte	0x1
 1723 08da 02       		.byte	0x2
 1724 08db 27060000 		.4byte	.LASF114
 1725 08df 10       		.uleb128 0x10
 1726 08e0 AF080000 		.4byte	0x8af
 1727 08e4 EF080000 		.4byte	0x8ef
 1728 08e8 11       		.uleb128 0x11
 1729 08e9 5A040000 		.4byte	0x45a
 1730 08ed 07       		.byte	0x7
 1731 08ee 00       		.byte	0
 1732 08ef 0A       		.uleb128 0xa
 1733 08f0 04       		.byte	0x4
 1734 08f1 1C070000 		.4byte	0x71c
 1735 08f5 19       		.uleb128 0x19
 1736 08f6 01       		.byte	0x1
 1737 08f7 12       		.byte	0x12
 1738 08f8 4A       		.byte	0x4a
 1739 08f9 10090000 		.4byte	0x910
 1740 08fd 1A       		.uleb128 0x1a
 1741 08fe BC080000 		.4byte	.LASF115
 1742 0902 00       		.sleb128 0
 1743 0903 1A       		.uleb128 0x1a
 1744 0904 1A070000 		.4byte	.LASF116
 1745 0908 01       		.sleb128 1
 1746 0909 1A       		.uleb128 0x1a
 1747 090a 0C060000 		.4byte	.LASF117
 1748 090e 02       		.sleb128 2
 1749 090f 00       		.byte	0
 1750 0910 04       		.uleb128 0x4
 1751 0911 C8040000 		.4byte	.LASF118
 1752 0915 12       		.byte	0x12
 1753 0916 4E       		.byte	0x4e
 1754 0917 F5080000 		.4byte	0x8f5
 1755 091b 04       		.uleb128 0x4
 1756 091c 4D080000 		.4byte	.LASF119
 1757 0920 12       		.byte	0x12
 1758 0921 53       		.byte	0x53
 1759 0922 26090000 		.4byte	0x926
 1760 0926 0B       		.uleb128 0xb
 1761 0927 4D080000 		.4byte	.LASF119
 1762 092b 1C       		.byte	0x1c
 1763 092c 13       		.byte	0x13
 1764 092d 8902     		.2byte	0x289
 1765 092f 8F090000 		.4byte	0x98f
 1766 0933 09       		.uleb128 0x9
 1767 0934 9B010000 		.4byte	.LASF34
ARM GAS  /tmp/cc02cOoa.s 			page 32


 1768 0938 13       		.byte	0x13
 1769 0939 8D02     		.2byte	0x28d
 1770 093b 10090000 		.4byte	0x910
 1771 093f 00       		.byte	0
 1772 0940 09       		.uleb128 0x9
 1773 0941 33070000 		.4byte	.LASF120
 1774 0945 13       		.byte	0x13
 1775 0946 9102     		.2byte	0x291
 1776 0948 850A0000 		.4byte	0xa85
 1777 094c 04       		.byte	0x4
 1778 094d 09       		.uleb128 0x9
 1779 094e 92000000 		.4byte	.LASF121
 1780 0952 13       		.byte	0x13
 1781 0953 9502     		.2byte	0x295
 1782 0955 D5090000 		.4byte	0x9d5
 1783 0959 08       		.byte	0x8
 1784 095a 09       		.uleb128 0x9
 1785 095b F3060000 		.4byte	.LASF122
 1786 095f 13       		.byte	0x13
 1787 0960 9902     		.2byte	0x299
 1788 0962 C9090000 		.4byte	0x9c9
 1789 0966 0C       		.byte	0xc
 1790 0967 09       		.uleb128 0x9
 1791 0968 A1010000 		.4byte	.LASF123
 1792 096c 13       		.byte	0x13
 1793 096d 9D02     		.2byte	0x29d
 1794 096f BD090000 		.4byte	0x9bd
 1795 0973 10       		.byte	0x10
 1796 0974 09       		.uleb128 0x9
 1797 0975 AE080000 		.4byte	.LASF124
 1798 0979 13       		.byte	0x13
 1799 097a A502     		.2byte	0x2a5
 1800 097c AD000000 		.4byte	0xad
 1801 0980 14       		.byte	0x14
 1802 0981 08       		.uleb128 0x8
 1803 0982 74696D00 		.ascii	"tim\000"
 1804 0986 13       		.byte	0x13
 1805 0987 A902     		.2byte	0x2a9
 1806 0989 EF080000 		.4byte	0x8ef
 1807 098d 18       		.byte	0x18
 1808 098e 00       		.byte	0
 1809 098f 04       		.uleb128 0x4
 1810 0990 FC010000 		.4byte	.LASF125
 1811 0994 12       		.byte	0x12
 1812 0995 5A       		.byte	0x5a
 1813 0996 9A090000 		.4byte	0x99a
 1814 099a 0A       		.uleb128 0xa
 1815 099b 04       		.byte	0x4
 1816 099c A0090000 		.4byte	0x9a0
 1817 09a0 0C       		.uleb128 0xc
 1818 09a1 AB090000 		.4byte	0x9ab
 1819 09a5 0D       		.uleb128 0xd
 1820 09a6 AB090000 		.4byte	0x9ab
 1821 09aa 00       		.byte	0
 1822 09ab 0A       		.uleb128 0xa
 1823 09ac 04       		.byte	0x4
 1824 09ad 1B090000 		.4byte	0x91b
ARM GAS  /tmp/cc02cOoa.s 			page 33


 1825 09b1 13       		.uleb128 0x13
 1826 09b2 74010000 		.4byte	.LASF126
 1827 09b6 13       		.byte	0x13
 1828 09b7 3502     		.2byte	0x235
 1829 09b9 AD000000 		.4byte	0xad
 1830 09bd 13       		.uleb128 0x13
 1831 09be 00000000 		.4byte	.LASF127
 1832 09c2 13       		.byte	0x13
 1833 09c3 3A02     		.2byte	0x23a
 1834 09c5 97000000 		.4byte	0x97
 1835 09c9 13       		.uleb128 0x13
 1836 09ca 74060000 		.4byte	.LASF128
 1837 09ce 13       		.byte	0x13
 1838 09cf 3F02     		.2byte	0x23f
 1839 09d1 AD000000 		.4byte	0xad
 1840 09d5 13       		.uleb128 0x13
 1841 09d6 7B080000 		.4byte	.LASF129
 1842 09da 13       		.byte	0x13
 1843 09db 4402     		.2byte	0x244
 1844 09dd AD000000 		.4byte	0xad
 1845 09e1 12       		.uleb128 0x12
 1846 09e2 08       		.byte	0x8
 1847 09e3 13       		.byte	0x13
 1848 09e4 4902     		.2byte	0x249
 1849 09e6 050A0000 		.4byte	0xa05
 1850 09ea 09       		.uleb128 0x9
 1851 09eb 2E070000 		.4byte	.LASF130
 1852 09ef 13       		.byte	0x13
 1853 09f0 4D02     		.2byte	0x24d
 1854 09f2 B1090000 		.4byte	0x9b1
 1855 09f6 00       		.byte	0
 1856 09f7 09       		.uleb128 0x9
 1857 09f8 49040000 		.4byte	.LASF131
 1858 09fc 13       		.byte	0x13
 1859 09fd 5302     		.2byte	0x253
 1860 09ff 8F090000 		.4byte	0x98f
 1861 0a03 04       		.byte	0x4
 1862 0a04 00       		.byte	0
 1863 0a05 13       		.uleb128 0x13
 1864 0a06 E5070000 		.4byte	.LASF132
 1865 0a0a 13       		.byte	0x13
 1866 0a0b 5502     		.2byte	0x255
 1867 0a0d E1090000 		.4byte	0x9e1
 1868 0a11 12       		.uleb128 0x12
 1869 0a12 34       		.byte	0x34
 1870 0a13 13       		.byte	0x13
 1871 0a14 5A02     		.2byte	0x25a
 1872 0a16 690A0000 		.4byte	0xa69
 1873 0a1a 09       		.uleb128 0x9
 1874 0a1b 89060000 		.4byte	.LASF133
 1875 0a1f 13       		.byte	0x13
 1876 0a20 6002     		.2byte	0x260
 1877 0a22 AD000000 		.4byte	0xad
 1878 0a26 00       		.byte	0
 1879 0a27 09       		.uleb128 0x9
 1880 0a28 92000000 		.4byte	.LASF121
 1881 0a2c 13       		.byte	0x13
ARM GAS  /tmp/cc02cOoa.s 			page 34


 1882 0a2d 6602     		.2byte	0x266
 1883 0a2f D5090000 		.4byte	0x9d5
 1884 0a33 04       		.byte	0x4
 1885 0a34 09       		.uleb128 0x9
 1886 0a35 49040000 		.4byte	.LASF131
 1887 0a39 13       		.byte	0x13
 1888 0a3a 6C02     		.2byte	0x26c
 1889 0a3c 8F090000 		.4byte	0x98f
 1890 0a40 08       		.byte	0x8
 1891 0a41 09       		.uleb128 0x9
 1892 0a42 A1010000 		.4byte	.LASF123
 1893 0a46 13       		.byte	0x13
 1894 0a47 7002     		.2byte	0x270
 1895 0a49 690A0000 		.4byte	0xa69
 1896 0a4d 0C       		.byte	0xc
 1897 0a4e 08       		.uleb128 0x8
 1898 0a4f 63723200 		.ascii	"cr2\000"
 1899 0a53 13       		.byte	0x13
 1900 0a54 7602     		.2byte	0x276
 1901 0a56 AD000000 		.4byte	0xad
 1902 0a5a 2C       		.byte	0x2c
 1903 0a5b 09       		.uleb128 0x9
 1904 0a5c E3080000 		.4byte	.LASF134
 1905 0a60 13       		.byte	0x13
 1906 0a61 8302     		.2byte	0x283
 1907 0a63 AD000000 		.4byte	0xad
 1908 0a67 30       		.byte	0x30
 1909 0a68 00       		.byte	0
 1910 0a69 10       		.uleb128 0x10
 1911 0a6a 050A0000 		.4byte	0xa05
 1912 0a6e 790A0000 		.4byte	0xa79
 1913 0a72 11       		.uleb128 0x11
 1914 0a73 5A040000 		.4byte	0x45a
 1915 0a77 03       		.byte	0x3
 1916 0a78 00       		.byte	0
 1917 0a79 13       		.uleb128 0x13
 1918 0a7a FE070000 		.4byte	.LASF135
 1919 0a7e 13       		.byte	0x13
 1920 0a7f 8402     		.2byte	0x284
 1921 0a81 110A0000 		.4byte	0xa11
 1922 0a85 0A       		.uleb128 0xa
 1923 0a86 04       		.byte	0x4
 1924 0a87 8B0A0000 		.4byte	0xa8b
 1925 0a8b 18       		.uleb128 0x18
 1926 0a8c 790A0000 		.4byte	0xa79
 1927 0a90 1B       		.uleb128 0x1b
 1928 0a91 60070000 		.4byte	.LASF171
 1929 0a95 02       		.byte	0x2
 1930 0a96 EB01     		.2byte	0x1eb
 1931 0a98 03       		.byte	0x3
 1932 0a99 AA0A0000 		.4byte	0xaaa
 1933 0a9d 1C       		.uleb128 0x1c
 1934 0a9e 7E010000 		.4byte	.LASF172
 1935 0aa2 02       		.byte	0x2
 1936 0aa3 EB01     		.2byte	0x1eb
 1937 0aa5 AD000000 		.4byte	0xad
 1938 0aa9 00       		.byte	0
ARM GAS  /tmp/cc02cOoa.s 			page 35


 1939 0aaa 1D       		.uleb128 0x1d
 1940 0aab 88000000 		.4byte	.LASF136
 1941 0aaf 0C       		.byte	0xc
 1942 0ab0 5A02     		.2byte	0x25a
 1943 0ab2 03       		.byte	0x3
 1944 0ab3 1D       		.uleb128 0x1d
 1945 0ab4 86010000 		.4byte	.LASF137
 1946 0ab8 0C       		.byte	0xc
 1947 0ab9 7202     		.2byte	0x272
 1948 0abb 03       		.byte	0x3
 1949 0abc 1D       		.uleb128 0x1d
 1950 0abd 5C020000 		.4byte	.LASF138
 1951 0ac1 04       		.byte	0x4
 1952 0ac2 FD01     		.2byte	0x1fd
 1953 0ac4 03       		.byte	0x3
 1954 0ac5 1D       		.uleb128 0x1d
 1955 0ac6 9D060000 		.4byte	.LASF139
 1956 0aca 04       		.byte	0x4
 1957 0acb 0802     		.2byte	0x208
 1958 0acd 03       		.byte	0x3
 1959 0ace 1E       		.uleb128 0x1e
 1960 0acf 93060000 		.4byte	.LASF140
 1961 0ad3 01       		.byte	0x1
 1962 0ad4 6101     		.2byte	0x161
 1963 0ad6 00000000 		.4byte	.LFB184
 1964 0ada 0A000000 		.4byte	.LFE184-.LFB184
 1965 0ade 01       		.uleb128 0x1
 1966 0adf 9C       		.byte	0x9c
 1967 0ae0 1A0B0000 		.4byte	0xb1a
 1968 0ae4 1F       		.uleb128 0x1f
 1969 0ae5 AA0A0000 		.4byte	0xaaa
 1970 0ae9 00000000 		.4byte	.LBB50
 1971 0aed 06000000 		.4byte	.LBE50-.LBB50
 1972 0af1 01       		.byte	0x1
 1973 0af2 6301     		.2byte	0x163
 1974 0af4 100B0000 		.4byte	0xb10
 1975 0af8 20       		.uleb128 0x20
 1976 0af9 900A0000 		.4byte	0xa90
 1977 0afd 00000000 		.4byte	.LBB51
 1978 0b01 06000000 		.4byte	.LBE51-.LBB51
 1979 0b05 0C       		.byte	0xc
 1980 0b06 6202     		.2byte	0x262
 1981 0b08 21       		.uleb128 0x21
 1982 0b09 9D0A0000 		.4byte	0xa9d
 1983 0b0d 20       		.byte	0x20
 1984 0b0e 00       		.byte	0
 1985 0b0f 00       		.byte	0
 1986 0b10 22       		.uleb128 0x22
 1987 0b11 0A000000 		.4byte	.LVL1
 1988 0b15 34110000 		.4byte	0x1134
 1989 0b19 00       		.byte	0
 1990 0b1a 1E       		.uleb128 0x1e
 1991 0b1b A2080000 		.4byte	.LASF141
 1992 0b1f 01       		.byte	0x1
 1993 0b20 6D01     		.2byte	0x16d
 1994 0b22 00000000 		.4byte	.LFB185
 1995 0b26 0E000000 		.4byte	.LFE185-.LFB185
ARM GAS  /tmp/cc02cOoa.s 			page 36


 1996 0b2a 01       		.uleb128 0x1
 1997 0b2b 9C       		.byte	0x9c
 1998 0b2c 6F0B0000 		.4byte	0xb6f
 1999 0b30 23       		.uleb128 0x23
 2000 0b31 80060000 		.4byte	.LASF146
 2001 0b35 7F0B0000 		.4byte	0xb7f
 2002 0b39 1F       		.uleb128 0x1f
 2003 0b3a B30A0000 		.4byte	0xab3
 2004 0b3e 06000000 		.4byte	.LBB53
 2005 0b42 08000000 		.4byte	.LBE53-.LBB53
 2006 0b46 01       		.byte	0x1
 2007 0b47 7A01     		.2byte	0x17a
 2008 0b49 650B0000 		.4byte	0xb65
 2009 0b4d 20       		.uleb128 0x20
 2010 0b4e 900A0000 		.4byte	0xa90
 2011 0b52 06000000 		.4byte	.LBB54
 2012 0b56 08000000 		.4byte	.LBE54-.LBB54
 2013 0b5a 0C       		.byte	0xc
 2014 0b5b 7502     		.2byte	0x275
 2015 0b5d 21       		.uleb128 0x21
 2016 0b5e 9D0A0000 		.4byte	0xa9d
 2017 0b62 00       		.byte	0
 2018 0b63 00       		.byte	0
 2019 0b64 00       		.byte	0
 2020 0b65 24       		.uleb128 0x24
 2021 0b66 06000000 		.4byte	.LVL2
 2022 0b6a 3B110000 		.4byte	0x113b
 2023 0b6e 00       		.byte	0
 2024 0b6f 10       		.uleb128 0x10
 2025 0b70 AF080000 		.4byte	0x8af
 2026 0b74 7F0B0000 		.4byte	0xb7f
 2027 0b78 11       		.uleb128 0x11
 2028 0b79 5A040000 		.4byte	0x45a
 2029 0b7d 0B       		.byte	0xb
 2030 0b7e 00       		.byte	0
 2031 0b7f 18       		.uleb128 0x18
 2032 0b80 6F0B0000 		.4byte	0xb6f
 2033 0b84 25       		.uleb128 0x25
 2034 0b85 EE010000 		.4byte	.LASF142
 2035 0b89 03       		.byte	0x3
 2036 0b8a 38       		.byte	0x38
 2037 0b8b 00000000 		.4byte	.LFB323
 2038 0b8f 04000000 		.4byte	.LFE323-.LFB323
 2039 0b93 01       		.uleb128 0x1
 2040 0b94 9C       		.byte	0x9c
 2041 0b95 A30B0000 		.4byte	0xba3
 2042 0b99 22       		.uleb128 0x22
 2043 0b9a 04000000 		.4byte	.LVL3
 2044 0b9e 42110000 		.4byte	0x1142
 2045 0ba2 00       		.byte	0
 2046 0ba3 25       		.uleb128 0x25
 2047 0ba4 5F050000 		.4byte	.LASF143
 2048 0ba8 03       		.byte	0x3
 2049 0ba9 44       		.byte	0x44
 2050 0baa 00000000 		.4byte	.LFB324
 2051 0bae 0E000000 		.4byte	.LFE324-.LFB324
 2052 0bb2 01       		.uleb128 0x1
ARM GAS  /tmp/cc02cOoa.s 			page 37


 2053 0bb3 9C       		.byte	0x9c
 2054 0bb4 C60B0000 		.4byte	0xbc6
 2055 0bb8 26       		.uleb128 0x26
 2056 0bb9 B2040000 		.4byte	.LASF145
 2057 0bbd 03       		.byte	0x3
 2058 0bbe 44       		.byte	0x44
 2059 0bbf AB090000 		.4byte	0x9ab
 2060 0bc3 01       		.uleb128 0x1
 2061 0bc4 50       		.byte	0x50
 2062 0bc5 00       		.byte	0
 2063 0bc6 25       		.uleb128 0x25
 2064 0bc7 3D010000 		.4byte	.LASF144
 2065 0bcb 03       		.byte	0x3
 2066 0bcc 59       		.byte	0x59
 2067 0bcd 00000000 		.4byte	.LFB325
 2068 0bd1 26000000 		.4byte	.LFE325-.LFB325
 2069 0bd5 01       		.uleb128 0x1
 2070 0bd6 9C       		.byte	0x9c
 2071 0bd7 4D0C0000 		.4byte	0xc4d
 2072 0bdb 27       		.uleb128 0x27
 2073 0bdc B2040000 		.4byte	.LASF145
 2074 0be0 03       		.byte	0x3
 2075 0be1 59       		.byte	0x59
 2076 0be2 AB090000 		.4byte	0x9ab
 2077 0be6 00000000 		.4byte	.LLST0
 2078 0bea 27       		.uleb128 0x27
 2079 0beb 33070000 		.4byte	.LASF120
 2080 0bef 03       		.byte	0x3
 2081 0bf0 59       		.byte	0x59
 2082 0bf1 850A0000 		.4byte	0xa85
 2083 0bf5 2C000000 		.4byte	.LLST1
 2084 0bf9 23       		.uleb128 0x23
 2085 0bfa 80060000 		.4byte	.LASF146
 2086 0bfe 5D0C0000 		.4byte	0xc5d
 2087 0c02 28       		.uleb128 0x28
 2088 0c03 BC0A0000 		.4byte	0xabc
 2089 0c07 06000000 		.4byte	.LBB56
 2090 0c0b 04000000 		.4byte	.LBE56-.LBB56
 2091 0c0f 03       		.byte	0x3
 2092 0c10 5D       		.byte	0x5d
 2093 0c11 1F0C0000 		.4byte	0xc1f
 2094 0c15 24       		.uleb128 0x24
 2095 0c16 0A000000 		.4byte	.LVL6
 2096 0c1a CE0A0000 		.4byte	0xace
 2097 0c1e 00       		.byte	0
 2098 0c1f 28       		.uleb128 0x28
 2099 0c20 C50A0000 		.4byte	0xac5
 2100 0c24 22000000 		.4byte	.LBB58
 2101 0c28 04000000 		.4byte	.LBE58-.LBB58
 2102 0c2c 03       		.byte	0x3
 2103 0c2d 65       		.byte	0x65
 2104 0c2e 3C0C0000 		.4byte	0xc3c
 2105 0c32 22       		.uleb128 0x22
 2106 0c33 26000000 		.4byte	.LVL9
 2107 0c37 1A0B0000 		.4byte	0xb1a
 2108 0c3b 00       		.byte	0
 2109 0c3c 29       		.uleb128 0x29
ARM GAS  /tmp/cc02cOoa.s 			page 38


 2110 0c3d 16000000 		.4byte	.LVL7
 2111 0c41 4A110000 		.4byte	0x114a
 2112 0c45 2A       		.uleb128 0x2a
 2113 0c46 01       		.uleb128 0x1
 2114 0c47 50       		.byte	0x50
 2115 0c48 02       		.uleb128 0x2
 2116 0c49 74       		.byte	0x74
 2117 0c4a 00       		.sleb128 0
 2118 0c4b 00       		.byte	0
 2119 0c4c 00       		.byte	0
 2120 0c4d 10       		.uleb128 0x10
 2121 0c4e AF080000 		.4byte	0x8af
 2122 0c52 5D0C0000 		.4byte	0xc5d
 2123 0c56 11       		.uleb128 0x11
 2124 0c57 5A040000 		.4byte	0x45a
 2125 0c5b 08       		.byte	0x8
 2126 0c5c 00       		.byte	0
 2127 0c5d 18       		.uleb128 0x18
 2128 0c5e 4D0C0000 		.4byte	0xc4d
 2129 0c62 25       		.uleb128 0x25
 2130 0c63 DC040000 		.4byte	.LASF147
 2131 0c67 03       		.byte	0x3
 2132 0c68 6F       		.byte	0x6f
 2133 0c69 00000000 		.4byte	.LFB326
 2134 0c6d 20000000 		.4byte	.LFE326-.LFB326
 2135 0c71 01       		.uleb128 0x1
 2136 0c72 9C       		.byte	0x9c
 2137 0c73 DA0C0000 		.4byte	0xcda
 2138 0c77 27       		.uleb128 0x27
 2139 0c78 B2040000 		.4byte	.LASF145
 2140 0c7c 03       		.byte	0x3
 2141 0c7d 6F       		.byte	0x6f
 2142 0c7e AB090000 		.4byte	0x9ab
 2143 0c82 58000000 		.4byte	.LLST2
 2144 0c86 23       		.uleb128 0x23
 2145 0c87 80060000 		.4byte	.LASF146
 2146 0c8b DA0C0000 		.4byte	0xcda
 2147 0c8f 28       		.uleb128 0x28
 2148 0c90 BC0A0000 		.4byte	0xabc
 2149 0c94 04000000 		.4byte	.LBB60
 2150 0c98 04000000 		.4byte	.LBE60-.LBB60
 2151 0c9c 03       		.byte	0x3
 2152 0c9d 73       		.byte	0x73
 2153 0c9e AC0C0000 		.4byte	0xcac
 2154 0ca2 24       		.uleb128 0x24
 2155 0ca3 08000000 		.4byte	.LVL11
 2156 0ca7 CE0A0000 		.4byte	0xace
 2157 0cab 00       		.byte	0
 2158 0cac 28       		.uleb128 0x28
 2159 0cad C50A0000 		.4byte	0xac5
 2160 0cb1 1C000000 		.4byte	.LBB62
 2161 0cb5 04000000 		.4byte	.LBE62-.LBB62
 2162 0cb9 03       		.byte	0x3
 2163 0cba 7D       		.byte	0x7d
 2164 0cbb C90C0000 		.4byte	0xcc9
 2165 0cbf 22       		.uleb128 0x22
 2166 0cc0 20000000 		.4byte	.LVL14
ARM GAS  /tmp/cc02cOoa.s 			page 39


 2167 0cc4 1A0B0000 		.4byte	0xb1a
 2168 0cc8 00       		.byte	0
 2169 0cc9 29       		.uleb128 0x29
 2170 0cca 0E000000 		.4byte	.LVL12
 2171 0cce 5C110000 		.4byte	0x115c
 2172 0cd2 2A       		.uleb128 0x2a
 2173 0cd3 01       		.uleb128 0x1
 2174 0cd4 50       		.byte	0x50
 2175 0cd5 02       		.uleb128 0x2
 2176 0cd6 74       		.byte	0x74
 2177 0cd7 00       		.sleb128 0
 2178 0cd8 00       		.byte	0
 2179 0cd9 00       		.byte	0
 2180 0cda 18       		.uleb128 0x18
 2181 0cdb DF080000 		.4byte	0x8df
 2182 0cdf 25       		.uleb128 0x25
 2183 0ce0 64010000 		.4byte	.LASF148
 2184 0ce4 03       		.byte	0x3
 2185 0ce5 8F       		.byte	0x8f
 2186 0ce6 00000000 		.4byte	.LFB327
 2187 0cea 1A000000 		.4byte	.LFE327-.LFB327
 2188 0cee 01       		.uleb128 0x1
 2189 0cef 9C       		.byte	0x9c
 2190 0cf0 520D0000 		.4byte	0xd52
 2191 0cf4 27       		.uleb128 0x27
 2192 0cf5 B2040000 		.4byte	.LASF145
 2193 0cf9 03       		.byte	0x3
 2194 0cfa 8F       		.byte	0x8f
 2195 0cfb AB090000 		.4byte	0x9ab
 2196 0cff 84000000 		.4byte	.LLST3
 2197 0d03 27       		.uleb128 0x27
 2198 0d04 92000000 		.4byte	.LASF121
 2199 0d08 03       		.byte	0x3
 2200 0d09 8F       		.byte	0x8f
 2201 0d0a D5090000 		.4byte	0x9d5
 2202 0d0e B0000000 		.4byte	.LLST4
 2203 0d12 23       		.uleb128 0x23
 2204 0d13 80060000 		.4byte	.LASF146
 2205 0d17 620D0000 		.4byte	0xd62
 2206 0d1b 28       		.uleb128 0x28
 2207 0d1c BC0A0000 		.4byte	0xabc
 2208 0d20 06000000 		.4byte	.LBB64
 2209 0d24 04000000 		.4byte	.LBE64-.LBB64
 2210 0d28 03       		.byte	0x3
 2211 0d29 93       		.byte	0x93
 2212 0d2a 380D0000 		.4byte	0xd38
 2213 0d2e 24       		.uleb128 0x24
 2214 0d2f 0A000000 		.4byte	.LVL16
 2215 0d33 CE0A0000 		.4byte	0xace
 2216 0d37 00       		.byte	0
 2217 0d38 2B       		.uleb128 0x2b
 2218 0d39 C50A0000 		.4byte	0xac5
 2219 0d3d 16000000 		.4byte	.LBB66
 2220 0d41 04000000 		.4byte	.LBE66-.LBB66
 2221 0d45 03       		.byte	0x3
 2222 0d46 96       		.byte	0x96
 2223 0d47 22       		.uleb128 0x22
ARM GAS  /tmp/cc02cOoa.s 			page 40


 2224 0d48 1A000000 		.4byte	.LVL19
 2225 0d4c 1A0B0000 		.4byte	0xb1a
 2226 0d50 00       		.byte	0
 2227 0d51 00       		.byte	0
 2228 0d52 10       		.uleb128 0x10
 2229 0d53 AF080000 		.4byte	0x8af
 2230 0d57 620D0000 		.4byte	0xd62
 2231 0d5b 11       		.uleb128 0x11
 2232 0d5c 5A040000 		.4byte	0x45a
 2233 0d60 0F       		.byte	0xf
 2234 0d61 00       		.byte	0
 2235 0d62 18       		.uleb128 0x18
 2236 0d63 520D0000 		.4byte	0xd52
 2237 0d67 25       		.uleb128 0x25
 2238 0d68 D2080000 		.4byte	.LASF149
 2239 0d6c 03       		.byte	0x3
 2240 0d6d A7       		.byte	0xa7
 2241 0d6e 00000000 		.4byte	.LFB328
 2242 0d72 28000000 		.4byte	.LFE328-.LFB328
 2243 0d76 01       		.uleb128 0x1
 2244 0d77 9C       		.byte	0x9c
 2245 0d78 090E0000 		.4byte	0xe09
 2246 0d7c 27       		.uleb128 0x27
 2247 0d7d B2040000 		.4byte	.LASF145
 2248 0d81 03       		.byte	0x3
 2249 0d82 A7       		.byte	0xa7
 2250 0d83 AB090000 		.4byte	0x9ab
 2251 0d87 F7000000 		.4byte	.LLST5
 2252 0d8b 27       		.uleb128 0x27
 2253 0d8c AB060000 		.4byte	.LASF150
 2254 0d90 03       		.byte	0x3
 2255 0d91 A8       		.byte	0xa8
 2256 0d92 BD090000 		.4byte	0x9bd
 2257 0d96 23010000 		.4byte	.LLST6
 2258 0d9a 27       		.uleb128 0x27
 2259 0d9b DF030000 		.4byte	.LASF151
 2260 0d9f 03       		.byte	0x3
 2261 0da0 A9       		.byte	0xa9
 2262 0da1 D5090000 		.4byte	0x9d5
 2263 0da5 44010000 		.4byte	.LLST7
 2264 0da9 23       		.uleb128 0x23
 2265 0daa 80060000 		.4byte	.LASF146
 2266 0dae 190E0000 		.4byte	0xe19
 2267 0db2 28       		.uleb128 0x28
 2268 0db3 BC0A0000 		.4byte	0xabc
 2269 0db7 08000000 		.4byte	.LBB68
 2270 0dbb 04000000 		.4byte	.LBE68-.LBB68
 2271 0dbf 03       		.byte	0x3
 2272 0dc0 AD       		.byte	0xad
 2273 0dc1 CF0D0000 		.4byte	0xdcf
 2274 0dc5 24       		.uleb128 0x24
 2275 0dc6 0C000000 		.4byte	.LVL21
 2276 0dca CE0A0000 		.4byte	0xace
 2277 0dce 00       		.byte	0
 2278 0dcf 28       		.uleb128 0x28
 2279 0dd0 C50A0000 		.4byte	0xac5
 2280 0dd4 24000000 		.4byte	.LBB70
ARM GAS  /tmp/cc02cOoa.s 			page 41


 2281 0dd8 04000000 		.4byte	.LBE70-.LBB70
 2282 0ddc 03       		.byte	0x3
 2283 0ddd B3       		.byte	0xb3
 2284 0dde EC0D0000 		.4byte	0xdec
 2285 0de2 22       		.uleb128 0x22
 2286 0de3 28000000 		.4byte	.LVL24
 2287 0de7 1A0B0000 		.4byte	0xb1a
 2288 0deb 00       		.byte	0
 2289 0dec 29       		.uleb128 0x29
 2290 0ded 20000000 		.4byte	.LVL22
 2291 0df1 6E110000 		.4byte	0x116e
 2292 0df5 2A       		.uleb128 0x2a
 2293 0df6 01       		.uleb128 0x1
 2294 0df7 52       		.byte	0x52
 2295 0df8 02       		.uleb128 0x2
 2296 0df9 76       		.byte	0x76
 2297 0dfa 00       		.sleb128 0
 2298 0dfb 2A       		.uleb128 0x2a
 2299 0dfc 01       		.uleb128 0x1
 2300 0dfd 51       		.byte	0x51
 2301 0dfe 02       		.uleb128 0x2
 2302 0dff 75       		.byte	0x75
 2303 0e00 00       		.sleb128 0
 2304 0e01 2A       		.uleb128 0x2a
 2305 0e02 01       		.uleb128 0x1
 2306 0e03 50       		.byte	0x50
 2307 0e04 02       		.uleb128 0x2
 2308 0e05 74       		.byte	0x74
 2309 0e06 00       		.sleb128 0
 2310 0e07 00       		.byte	0
 2311 0e08 00       		.byte	0
 2312 0e09 10       		.uleb128 0x10
 2313 0e0a AF080000 		.4byte	0x8af
 2314 0e0e 190E0000 		.4byte	0xe19
 2315 0e12 11       		.uleb128 0x11
 2316 0e13 5A040000 		.4byte	0x45a
 2317 0e17 10       		.byte	0x10
 2318 0e18 00       		.byte	0
 2319 0e19 18       		.uleb128 0x18
 2320 0e1a 090E0000 		.4byte	0xe09
 2321 0e1e 25       		.uleb128 0x25
 2322 0e1f 2B040000 		.4byte	.LASF152
 2323 0e23 03       		.byte	0x3
 2324 0e24 C4       		.byte	0xc4
 2325 0e25 00000000 		.4byte	.LFB329
 2326 0e29 28000000 		.4byte	.LFE329-.LFB329
 2327 0e2d 01       		.uleb128 0x1
 2328 0e2e 9C       		.byte	0x9c
 2329 0e2f AB0E0000 		.4byte	0xeab
 2330 0e33 27       		.uleb128 0x27
 2331 0e34 B2040000 		.4byte	.LASF145
 2332 0e38 03       		.byte	0x3
 2333 0e39 C4       		.byte	0xc4
 2334 0e3a AB090000 		.4byte	0x9ab
 2335 0e3e 70010000 		.4byte	.LLST8
 2336 0e42 27       		.uleb128 0x27
 2337 0e43 AB060000 		.4byte	.LASF150
ARM GAS  /tmp/cc02cOoa.s 			page 42


 2338 0e47 03       		.byte	0x3
 2339 0e48 C4       		.byte	0xc4
 2340 0e49 BD090000 		.4byte	0x9bd
 2341 0e4d 9C010000 		.4byte	.LLST9
 2342 0e51 23       		.uleb128 0x23
 2343 0e52 80060000 		.4byte	.LASF146
 2344 0e56 BB0E0000 		.4byte	0xebb
 2345 0e5a 28       		.uleb128 0x28
 2346 0e5b BC0A0000 		.4byte	0xabc
 2347 0e5f 06000000 		.4byte	.LBB72
 2348 0e63 04000000 		.4byte	.LBE72-.LBB72
 2349 0e67 03       		.byte	0x3
 2350 0e68 C8       		.byte	0xc8
 2351 0e69 770E0000 		.4byte	0xe77
 2352 0e6d 24       		.uleb128 0x24
 2353 0e6e 0A000000 		.4byte	.LVL26
 2354 0e72 CE0A0000 		.4byte	0xace
 2355 0e76 00       		.byte	0
 2356 0e77 28       		.uleb128 0x28
 2357 0e78 C50A0000 		.4byte	0xac5
 2358 0e7c 24000000 		.4byte	.LBB74
 2359 0e80 04000000 		.4byte	.LBE74-.LBB74
 2360 0e84 03       		.byte	0x3
 2361 0e85 CE       		.byte	0xce
 2362 0e86 940E0000 		.4byte	0xe94
 2363 0e8a 22       		.uleb128 0x22
 2364 0e8b 28000000 		.4byte	.LVL29
 2365 0e8f 1A0B0000 		.4byte	0xb1a
 2366 0e93 00       		.byte	0
 2367 0e94 29       		.uleb128 0x29
 2368 0e95 20000000 		.4byte	.LVL27
 2369 0e99 8A110000 		.4byte	0x118a
 2370 0e9d 2A       		.uleb128 0x2a
 2371 0e9e 01       		.uleb128 0x1
 2372 0e9f 51       		.byte	0x51
 2373 0ea0 02       		.uleb128 0x2
 2374 0ea1 75       		.byte	0x75
 2375 0ea2 00       		.sleb128 0
 2376 0ea3 2A       		.uleb128 0x2a
 2377 0ea4 01       		.uleb128 0x1
 2378 0ea5 50       		.byte	0x50
 2379 0ea6 02       		.uleb128 0x2
 2380 0ea7 74       		.byte	0x74
 2381 0ea8 00       		.sleb128 0
 2382 0ea9 00       		.byte	0
 2383 0eaa 00       		.byte	0
 2384 0eab 10       		.uleb128 0x10
 2385 0eac AF080000 		.4byte	0x8af
 2386 0eb0 BB0E0000 		.4byte	0xebb
 2387 0eb4 11       		.uleb128 0x11
 2388 0eb5 5A040000 		.4byte	0x45a
 2389 0eb9 11       		.byte	0x11
 2390 0eba 00       		.byte	0
 2391 0ebb 18       		.uleb128 0x18
 2392 0ebc AB0E0000 		.4byte	0xeab
 2393 0ec0 25       		.uleb128 0x25
 2394 0ec1 6E070000 		.4byte	.LASF153
ARM GAS  /tmp/cc02cOoa.s 			page 43


 2395 0ec5 03       		.byte	0x3
 2396 0ec6 DA       		.byte	0xda
 2397 0ec7 00000000 		.4byte	.LFB330
 2398 0ecb 16000000 		.4byte	.LFE330-.LFB330
 2399 0ecf 01       		.uleb128 0x1
 2400 0ed0 9C       		.byte	0x9c
 2401 0ed1 380F0000 		.4byte	0xf38
 2402 0ed5 27       		.uleb128 0x27
 2403 0ed6 B2040000 		.4byte	.LASF145
 2404 0eda 03       		.byte	0x3
 2405 0edb DA       		.byte	0xda
 2406 0edc AB090000 		.4byte	0x9ab
 2407 0ee0 BD010000 		.4byte	.LLST10
 2408 0ee4 23       		.uleb128 0x23
 2409 0ee5 80060000 		.4byte	.LASF146
 2410 0ee9 480F0000 		.4byte	0xf48
 2411 0eed 28       		.uleb128 0x28
 2412 0eee BC0A0000 		.4byte	0xabc
 2413 0ef2 04000000 		.4byte	.LBB76
 2414 0ef6 04000000 		.4byte	.LBE76-.LBB76
 2415 0efa 03       		.byte	0x3
 2416 0efb DE       		.byte	0xde
 2417 0efc 0A0F0000 		.4byte	0xf0a
 2418 0f00 24       		.uleb128 0x24
 2419 0f01 08000000 		.4byte	.LVL31
 2420 0f05 CE0A0000 		.4byte	0xace
 2421 0f09 00       		.byte	0
 2422 0f0a 28       		.uleb128 0x28
 2423 0f0b C50A0000 		.4byte	0xac5
 2424 0f0f 12000000 		.4byte	.LBB78
 2425 0f13 04000000 		.4byte	.LBE78-.LBB78
 2426 0f17 03       		.byte	0x3
 2427 0f18 E5       		.byte	0xe5
 2428 0f19 270F0000 		.4byte	0xf27
 2429 0f1d 22       		.uleb128 0x22
 2430 0f1e 16000000 		.4byte	.LVL34
 2431 0f22 1A0B0000 		.4byte	0xb1a
 2432 0f26 00       		.byte	0
 2433 0f27 29       		.uleb128 0x29
 2434 0f28 0E000000 		.4byte	.LVL32
 2435 0f2c A1110000 		.4byte	0x11a1
 2436 0f30 2A       		.uleb128 0x2a
 2437 0f31 01       		.uleb128 0x1
 2438 0f32 50       		.byte	0x50
 2439 0f33 02       		.uleb128 0x2
 2440 0f34 74       		.byte	0x74
 2441 0f35 00       		.sleb128 0
 2442 0f36 00       		.byte	0
 2443 0f37 00       		.byte	0
 2444 0f38 10       		.uleb128 0x10
 2445 0f39 AF080000 		.4byte	0x8af
 2446 0f3d 480F0000 		.4byte	0xf48
 2447 0f41 11       		.uleb128 0x11
 2448 0f42 5A040000 		.4byte	0x45a
 2449 0f46 1D       		.byte	0x1d
 2450 0f47 00       		.byte	0
 2451 0f48 18       		.uleb128 0x18
ARM GAS  /tmp/cc02cOoa.s 			page 44


 2452 0f49 380F0000 		.4byte	0xf38
 2453 0f4d 25       		.uleb128 0x25
 2454 0f4e 15020000 		.4byte	.LASF154
 2455 0f52 03       		.byte	0x3
 2456 0f53 F1       		.byte	0xf1
 2457 0f54 00000000 		.4byte	.LFB331
 2458 0f58 16000000 		.4byte	.LFE331-.LFB331
 2459 0f5c 01       		.uleb128 0x1
 2460 0f5d 9C       		.byte	0x9c
 2461 0f5e C50F0000 		.4byte	0xfc5
 2462 0f62 27       		.uleb128 0x27
 2463 0f63 B2040000 		.4byte	.LASF145
 2464 0f67 03       		.byte	0x3
 2465 0f68 F1       		.byte	0xf1
 2466 0f69 AB090000 		.4byte	0x9ab
 2467 0f6d E9010000 		.4byte	.LLST11
 2468 0f71 23       		.uleb128 0x23
 2469 0f72 80060000 		.4byte	.LASF146
 2470 0f76 D50F0000 		.4byte	0xfd5
 2471 0f7a 28       		.uleb128 0x28
 2472 0f7b BC0A0000 		.4byte	0xabc
 2473 0f7f 04000000 		.4byte	.LBB80
 2474 0f83 04000000 		.4byte	.LBE80-.LBB80
 2475 0f87 03       		.byte	0x3
 2476 0f88 F5       		.byte	0xf5
 2477 0f89 970F0000 		.4byte	0xf97
 2478 0f8d 24       		.uleb128 0x24
 2479 0f8e 08000000 		.4byte	.LVL36
 2480 0f92 CE0A0000 		.4byte	0xace
 2481 0f96 00       		.byte	0
 2482 0f97 28       		.uleb128 0x28
 2483 0f98 C50A0000 		.4byte	0xac5
 2484 0f9c 12000000 		.4byte	.LBB82
 2485 0fa0 04000000 		.4byte	.LBE82-.LBB82
 2486 0fa4 03       		.byte	0x3
 2487 0fa5 FC       		.byte	0xfc
 2488 0fa6 B40F0000 		.4byte	0xfb4
 2489 0faa 22       		.uleb128 0x22
 2490 0fab 16000000 		.4byte	.LVL39
 2491 0faf 1A0B0000 		.4byte	0xb1a
 2492 0fb3 00       		.byte	0
 2493 0fb4 29       		.uleb128 0x29
 2494 0fb5 0E000000 		.4byte	.LVL37
 2495 0fb9 B3110000 		.4byte	0x11b3
 2496 0fbd 2A       		.uleb128 0x2a
 2497 0fbe 01       		.uleb128 0x1
 2498 0fbf 50       		.byte	0x50
 2499 0fc0 02       		.uleb128 0x2
 2500 0fc1 74       		.byte	0x74
 2501 0fc2 00       		.sleb128 0
 2502 0fc3 00       		.byte	0
 2503 0fc4 00       		.byte	0
 2504 0fc5 10       		.uleb128 0x10
 2505 0fc6 AF080000 		.4byte	0x8af
 2506 0fca D50F0000 		.4byte	0xfd5
 2507 0fce 11       		.uleb128 0x11
 2508 0fcf 5A040000 		.4byte	0x45a
ARM GAS  /tmp/cc02cOoa.s 			page 45


 2509 0fd3 1E       		.byte	0x1e
 2510 0fd4 00       		.byte	0
 2511 0fd5 18       		.uleb128 0x18
 2512 0fd6 C50F0000 		.4byte	0xfc5
 2513 0fda 2C       		.uleb128 0x2c
 2514 0fdb 80030000 		.4byte	.LASF155
 2515 0fdf 03       		.byte	0x3
 2516 0fe0 0A01     		.2byte	0x10a
 2517 0fe2 00000000 		.4byte	.LFB332
 2518 0fe6 1A000000 		.4byte	.LFE332-.LFB332
 2519 0fea 01       		.uleb128 0x1
 2520 0feb 9C       		.byte	0x9c
 2521 0fec 6C100000 		.4byte	0x106c
 2522 0ff0 2D       		.uleb128 0x2d
 2523 0ff1 B2040000 		.4byte	.LASF145
 2524 0ff5 03       		.byte	0x3
 2525 0ff6 0A01     		.2byte	0x10a
 2526 0ff8 AB090000 		.4byte	0x9ab
 2527 0ffc 15020000 		.4byte	.LLST12
 2528 1000 2D       		.uleb128 0x2d
 2529 1001 AB060000 		.4byte	.LASF150
 2530 1005 03       		.byte	0x3
 2531 1006 0A01     		.2byte	0x10a
 2532 1008 BD090000 		.4byte	0x9bd
 2533 100c 41020000 		.4byte	.LLST13
 2534 1010 23       		.uleb128 0x23
 2535 1011 80060000 		.4byte	.LASF146
 2536 1015 7C100000 		.4byte	0x107c
 2537 1019 1F       		.uleb128 0x1f
 2538 101a BC0A0000 		.4byte	0xabc
 2539 101e 06000000 		.4byte	.LBB84
 2540 1022 04000000 		.4byte	.LBE84-.LBB84
 2541 1026 03       		.byte	0x3
 2542 1027 0E01     		.2byte	0x10e
 2543 1029 37100000 		.4byte	0x1037
 2544 102d 24       		.uleb128 0x24
 2545 102e 0A000000 		.4byte	.LVL41
 2546 1032 CE0A0000 		.4byte	0xace
 2547 1036 00       		.byte	0
 2548 1037 1F       		.uleb128 0x1f
 2549 1038 C50A0000 		.4byte	0xac5
 2550 103c 16000000 		.4byte	.LBB86
 2551 1040 04000000 		.4byte	.LBE86-.LBB86
 2552 1044 03       		.byte	0x3
 2553 1045 1801     		.2byte	0x118
 2554 1047 55100000 		.4byte	0x1055
 2555 104b 22       		.uleb128 0x22
 2556 104c 1A000000 		.4byte	.LVL44
 2557 1050 1A0B0000 		.4byte	0xb1a
 2558 1054 00       		.byte	0
 2559 1055 29       		.uleb128 0x29
 2560 1056 12000000 		.4byte	.LVL42
 2561 105a C5110000 		.4byte	0x11c5
 2562 105e 2A       		.uleb128 0x2a
 2563 105f 01       		.uleb128 0x1
 2564 1060 51       		.byte	0x51
 2565 1061 02       		.uleb128 0x2
ARM GAS  /tmp/cc02cOoa.s 			page 46


 2566 1062 74       		.byte	0x74
 2567 1063 00       		.sleb128 0
 2568 1064 2A       		.uleb128 0x2a
 2569 1065 01       		.uleb128 0x1
 2570 1066 50       		.byte	0x50
 2571 1067 02       		.uleb128 0x2
 2572 1068 75       		.byte	0x75
 2573 1069 00       		.sleb128 0
 2574 106a 00       		.byte	0
 2575 106b 00       		.byte	0
 2576 106c 10       		.uleb128 0x10
 2577 106d AF080000 		.4byte	0x8af
 2578 1071 7C100000 		.4byte	0x107c
 2579 1075 11       		.uleb128 0x11
 2580 1076 5A040000 		.4byte	0x45a
 2581 107a 1C       		.byte	0x1c
 2582 107b 00       		.byte	0
 2583 107c 18       		.uleb128 0x18
 2584 107d 6C100000 		.4byte	0x106c
 2585 1081 2C       		.uleb128 0x2c
 2586 1082 2F080000 		.4byte	.LASF156
 2587 1086 03       		.byte	0x3
 2588 1087 2601     		.2byte	0x126
 2589 1089 00000000 		.4byte	.LFB333
 2590 108d 1A000000 		.4byte	.LFE333-.LFB333
 2591 1091 01       		.uleb128 0x1
 2592 1092 9C       		.byte	0x9c
 2593 1093 13110000 		.4byte	0x1113
 2594 1097 2D       		.uleb128 0x2d
 2595 1098 B2040000 		.4byte	.LASF145
 2596 109c 03       		.byte	0x3
 2597 109d 2601     		.2byte	0x126
 2598 109f AB090000 		.4byte	0x9ab
 2599 10a3 62020000 		.4byte	.LLST14
 2600 10a7 2D       		.uleb128 0x2d
 2601 10a8 AB060000 		.4byte	.LASF150
 2602 10ac 03       		.byte	0x3
 2603 10ad 2601     		.2byte	0x126
 2604 10af BD090000 		.4byte	0x9bd
 2605 10b3 8E020000 		.4byte	.LLST15
 2606 10b7 23       		.uleb128 0x23
 2607 10b8 80060000 		.4byte	.LASF146
 2608 10bc 13110000 		.4byte	0x1113
 2609 10c0 1F       		.uleb128 0x1f
 2610 10c1 BC0A0000 		.4byte	0xabc
 2611 10c5 06000000 		.4byte	.LBB88
 2612 10c9 04000000 		.4byte	.LBE88-.LBB88
 2613 10cd 03       		.byte	0x3
 2614 10ce 2A01     		.2byte	0x12a
 2615 10d0 DE100000 		.4byte	0x10de
 2616 10d4 24       		.uleb128 0x24
 2617 10d5 0A000000 		.4byte	.LVL46
 2618 10d9 CE0A0000 		.4byte	0xace
 2619 10dd 00       		.byte	0
 2620 10de 1F       		.uleb128 0x1f
 2621 10df C50A0000 		.4byte	0xac5
 2622 10e3 16000000 		.4byte	.LBB90
ARM GAS  /tmp/cc02cOoa.s 			page 47


 2623 10e7 04000000 		.4byte	.LBE90-.LBB90
 2624 10eb 03       		.byte	0x3
 2625 10ec 3401     		.2byte	0x134
 2626 10ee FC100000 		.4byte	0x10fc
 2627 10f2 22       		.uleb128 0x22
 2628 10f3 1A000000 		.4byte	.LVL49
 2629 10f7 1A0B0000 		.4byte	0xb1a
 2630 10fb 00       		.byte	0
 2631 10fc 29       		.uleb128 0x29
 2632 10fd 12000000 		.4byte	.LVL47
 2633 1101 DC110000 		.4byte	0x11dc
 2634 1105 2A       		.uleb128 0x2a
 2635 1106 01       		.uleb128 0x1
 2636 1107 51       		.byte	0x51
 2637 1108 02       		.uleb128 0x2
 2638 1109 74       		.byte	0x74
 2639 110a 00       		.sleb128 0
 2640 110b 2A       		.uleb128 0x2a
 2641 110c 01       		.uleb128 0x1
 2642 110d 50       		.byte	0x50
 2643 110e 02       		.uleb128 0x2
 2644 110f 75       		.byte	0x75
 2645 1110 00       		.sleb128 0
 2646 1111 00       		.byte	0
 2647 1112 00       		.byte	0
 2648 1113 18       		.uleb128 0x18
 2649 1114 380F0000 		.4byte	0xf38
 2650 1118 2E       		.uleb128 0x2e
 2651 1119 43060000 		.4byte	.LASF157
 2652 111d 14       		.byte	0x14
 2653 111e 0408     		.2byte	0x804
 2654 1120 24110000 		.4byte	0x1124
 2655 1124 0F       		.uleb128 0xf
 2656 1125 A2000000 		.4byte	0xa2
 2657 1129 2F       		.uleb128 0x2f
 2658 112a 636800   		.ascii	"ch\000"
 2659 112d 09       		.byte	0x9
 2660 112e C701     		.2byte	0x1c7
 2661 1130 DE030000 		.4byte	0x3de
 2662 1134 30       		.uleb128 0x30
 2663 1135 5D080000 		.4byte	.LASF158
 2664 1139 0F       		.byte	0xf
 2665 113a 4F       		.byte	0x4f
 2666 113b 30       		.uleb128 0x30
 2667 113c E4040000 		.4byte	.LASF159
 2668 1140 0F       		.byte	0xf
 2669 1141 50       		.byte	0x50
 2670 1142 31       		.uleb128 0x31
 2671 1143 6D050000 		.4byte	.LASF160
 2672 1147 13       		.byte	0x13
 2673 1148 FA02     		.2byte	0x2fa
 2674 114a 32       		.uleb128 0x32
 2675 114b B3010000 		.4byte	.LASF161
 2676 114f 13       		.byte	0x13
 2677 1150 FB02     		.2byte	0x2fb
 2678 1152 5C110000 		.4byte	0x115c
 2679 1156 0D       		.uleb128 0xd
ARM GAS  /tmp/cc02cOoa.s 			page 48


 2680 1157 AB090000 		.4byte	0x9ab
 2681 115b 00       		.byte	0
 2682 115c 32       		.uleb128 0x32
 2683 115d D6060000 		.4byte	.LASF162
 2684 1161 13       		.byte	0x13
 2685 1162 FC02     		.2byte	0x2fc
 2686 1164 6E110000 		.4byte	0x116e
 2687 1168 0D       		.uleb128 0xd
 2688 1169 AB090000 		.4byte	0x9ab
 2689 116d 00       		.byte	0
 2690 116e 32       		.uleb128 0x32
 2691 116f 26010000 		.4byte	.LASF163
 2692 1173 13       		.byte	0x13
 2693 1174 FD02     		.2byte	0x2fd
 2694 1176 8A110000 		.4byte	0x118a
 2695 117a 0D       		.uleb128 0xd
 2696 117b AB090000 		.4byte	0x9ab
 2697 117f 0D       		.uleb128 0xd
 2698 1180 BD090000 		.4byte	0x9bd
 2699 1184 0D       		.uleb128 0xd
 2700 1185 D5090000 		.4byte	0x9d5
 2701 1189 00       		.byte	0
 2702 118a 32       		.uleb128 0x32
 2703 118b FB000000 		.4byte	.LASF164
 2704 118f 13       		.byte	0x13
 2705 1190 0003     		.2byte	0x300
 2706 1192 A1110000 		.4byte	0x11a1
 2707 1196 0D       		.uleb128 0xd
 2708 1197 AB090000 		.4byte	0x9ab
 2709 119b 0D       		.uleb128 0xd
 2710 119c BD090000 		.4byte	0x9bd
 2711 11a0 00       		.byte	0
 2712 11a1 32       		.uleb128 0x32
 2713 11a2 A4030000 		.4byte	.LASF165
 2714 11a6 13       		.byte	0x13
 2715 11a7 0103     		.2byte	0x301
 2716 11a9 B3110000 		.4byte	0x11b3
 2717 11ad 0D       		.uleb128 0xd
 2718 11ae AB090000 		.4byte	0x9ab
 2719 11b2 00       		.byte	0
 2720 11b3 32       		.uleb128 0x32
 2721 11b4 C9050000 		.4byte	.LASF166
 2722 11b8 13       		.byte	0x13
 2723 11b9 0203     		.2byte	0x302
 2724 11bb C5110000 		.4byte	0x11c5
 2725 11bf 0D       		.uleb128 0xd
 2726 11c0 AB090000 		.4byte	0x9ab
 2727 11c4 00       		.byte	0
 2728 11c5 32       		.uleb128 0x32
 2729 11c6 C1010000 		.4byte	.LASF167
 2730 11ca 13       		.byte	0x13
 2731 11cb 0303     		.2byte	0x303
 2732 11cd DC110000 		.4byte	0x11dc
 2733 11d1 0D       		.uleb128 0xd
 2734 11d2 AB090000 		.4byte	0x9ab
 2735 11d6 0D       		.uleb128 0xd
 2736 11d7 BD090000 		.4byte	0x9bd
ARM GAS  /tmp/cc02cOoa.s 			page 49


 2737 11db 00       		.byte	0
 2738 11dc 33       		.uleb128 0x33
 2739 11dd 83040000 		.4byte	.LASF173
 2740 11e1 13       		.byte	0x13
 2741 11e2 0503     		.2byte	0x305
 2742 11e4 0D       		.uleb128 0xd
 2743 11e5 AB090000 		.4byte	0x9ab
 2744 11e9 0D       		.uleb128 0xd
 2745 11ea BD090000 		.4byte	0x9bd
 2746 11ee 00       		.byte	0
 2747 11ef 00       		.byte	0
 2748              		.section	.debug_abbrev,"",%progbits
 2749              	.Ldebug_abbrev0:
 2750 0000 01       		.uleb128 0x1
 2751 0001 11       		.uleb128 0x11
 2752 0002 01       		.byte	0x1
 2753 0003 25       		.uleb128 0x25
 2754 0004 0E       		.uleb128 0xe
 2755 0005 13       		.uleb128 0x13
 2756 0006 0B       		.uleb128 0xb
 2757 0007 03       		.uleb128 0x3
 2758 0008 0E       		.uleb128 0xe
 2759 0009 1B       		.uleb128 0x1b
 2760 000a 0E       		.uleb128 0xe
 2761 000b 55       		.uleb128 0x55
 2762 000c 17       		.uleb128 0x17
 2763 000d 11       		.uleb128 0x11
 2764 000e 01       		.uleb128 0x1
 2765 000f 10       		.uleb128 0x10
 2766 0010 17       		.uleb128 0x17
 2767 0011 00       		.byte	0
 2768 0012 00       		.byte	0
 2769 0013 02       		.uleb128 0x2
 2770 0014 24       		.uleb128 0x24
 2771 0015 00       		.byte	0
 2772 0016 0B       		.uleb128 0xb
 2773 0017 0B       		.uleb128 0xb
 2774 0018 3E       		.uleb128 0x3e
 2775 0019 0B       		.uleb128 0xb
 2776 001a 03       		.uleb128 0x3
 2777 001b 08       		.uleb128 0x8
 2778 001c 00       		.byte	0
 2779 001d 00       		.byte	0
 2780 001e 03       		.uleb128 0x3
 2781 001f 24       		.uleb128 0x24
 2782 0020 00       		.byte	0
 2783 0021 0B       		.uleb128 0xb
 2784 0022 0B       		.uleb128 0xb
 2785 0023 3E       		.uleb128 0x3e
 2786 0024 0B       		.uleb128 0xb
 2787 0025 03       		.uleb128 0x3
 2788 0026 0E       		.uleb128 0xe
 2789 0027 00       		.byte	0
 2790 0028 00       		.byte	0
 2791 0029 04       		.uleb128 0x4
 2792 002a 16       		.uleb128 0x16
 2793 002b 00       		.byte	0
ARM GAS  /tmp/cc02cOoa.s 			page 50


 2794 002c 03       		.uleb128 0x3
 2795 002d 0E       		.uleb128 0xe
 2796 002e 3A       		.uleb128 0x3a
 2797 002f 0B       		.uleb128 0xb
 2798 0030 3B       		.uleb128 0x3b
 2799 0031 0B       		.uleb128 0xb
 2800 0032 49       		.uleb128 0x49
 2801 0033 13       		.uleb128 0x13
 2802 0034 00       		.byte	0
 2803 0035 00       		.byte	0
 2804 0036 05       		.uleb128 0x5
 2805 0037 13       		.uleb128 0x13
 2806 0038 01       		.byte	0x1
 2807 0039 03       		.uleb128 0x3
 2808 003a 0E       		.uleb128 0xe
 2809 003b 0B       		.uleb128 0xb
 2810 003c 0B       		.uleb128 0xb
 2811 003d 3A       		.uleb128 0x3a
 2812 003e 0B       		.uleb128 0xb
 2813 003f 3B       		.uleb128 0x3b
 2814 0040 0B       		.uleb128 0xb
 2815 0041 01       		.uleb128 0x1
 2816 0042 13       		.uleb128 0x13
 2817 0043 00       		.byte	0
 2818 0044 00       		.byte	0
 2819 0045 06       		.uleb128 0x6
 2820 0046 0D       		.uleb128 0xd
 2821 0047 00       		.byte	0
 2822 0048 03       		.uleb128 0x3
 2823 0049 0E       		.uleb128 0xe
 2824 004a 3A       		.uleb128 0x3a
 2825 004b 0B       		.uleb128 0xb
 2826 004c 3B       		.uleb128 0x3b
 2827 004d 0B       		.uleb128 0xb
 2828 004e 49       		.uleb128 0x49
 2829 004f 13       		.uleb128 0x13
 2830 0050 38       		.uleb128 0x38
 2831 0051 0B       		.uleb128 0xb
 2832 0052 00       		.byte	0
 2833 0053 00       		.byte	0
 2834 0054 07       		.uleb128 0x7
 2835 0055 0D       		.uleb128 0xd
 2836 0056 00       		.byte	0
 2837 0057 03       		.uleb128 0x3
 2838 0058 08       		.uleb128 0x8
 2839 0059 3A       		.uleb128 0x3a
 2840 005a 0B       		.uleb128 0xb
 2841 005b 3B       		.uleb128 0x3b
 2842 005c 0B       		.uleb128 0xb
 2843 005d 49       		.uleb128 0x49
 2844 005e 13       		.uleb128 0x13
 2845 005f 38       		.uleb128 0x38
 2846 0060 0B       		.uleb128 0xb
 2847 0061 00       		.byte	0
 2848 0062 00       		.byte	0
 2849 0063 08       		.uleb128 0x8
 2850 0064 0D       		.uleb128 0xd
ARM GAS  /tmp/cc02cOoa.s 			page 51


 2851 0065 00       		.byte	0
 2852 0066 03       		.uleb128 0x3
 2853 0067 08       		.uleb128 0x8
 2854 0068 3A       		.uleb128 0x3a
 2855 0069 0B       		.uleb128 0xb
 2856 006a 3B       		.uleb128 0x3b
 2857 006b 05       		.uleb128 0x5
 2858 006c 49       		.uleb128 0x49
 2859 006d 13       		.uleb128 0x13
 2860 006e 38       		.uleb128 0x38
 2861 006f 0B       		.uleb128 0xb
 2862 0070 00       		.byte	0
 2863 0071 00       		.byte	0
 2864 0072 09       		.uleb128 0x9
 2865 0073 0D       		.uleb128 0xd
 2866 0074 00       		.byte	0
 2867 0075 03       		.uleb128 0x3
 2868 0076 0E       		.uleb128 0xe
 2869 0077 3A       		.uleb128 0x3a
 2870 0078 0B       		.uleb128 0xb
 2871 0079 3B       		.uleb128 0x3b
 2872 007a 05       		.uleb128 0x5
 2873 007b 49       		.uleb128 0x49
 2874 007c 13       		.uleb128 0x13
 2875 007d 38       		.uleb128 0x38
 2876 007e 0B       		.uleb128 0xb
 2877 007f 00       		.byte	0
 2878 0080 00       		.byte	0
 2879 0081 0A       		.uleb128 0xa
 2880 0082 0F       		.uleb128 0xf
 2881 0083 00       		.byte	0
 2882 0084 0B       		.uleb128 0xb
 2883 0085 0B       		.uleb128 0xb
 2884 0086 49       		.uleb128 0x49
 2885 0087 13       		.uleb128 0x13
 2886 0088 00       		.byte	0
 2887 0089 00       		.byte	0
 2888 008a 0B       		.uleb128 0xb
 2889 008b 13       		.uleb128 0x13
 2890 008c 01       		.byte	0x1
 2891 008d 03       		.uleb128 0x3
 2892 008e 0E       		.uleb128 0xe
 2893 008f 0B       		.uleb128 0xb
 2894 0090 0B       		.uleb128 0xb
 2895 0091 3A       		.uleb128 0x3a
 2896 0092 0B       		.uleb128 0xb
 2897 0093 3B       		.uleb128 0x3b
 2898 0094 05       		.uleb128 0x5
 2899 0095 01       		.uleb128 0x1
 2900 0096 13       		.uleb128 0x13
 2901 0097 00       		.byte	0
 2902 0098 00       		.byte	0
 2903 0099 0C       		.uleb128 0xc
 2904 009a 15       		.uleb128 0x15
 2905 009b 01       		.byte	0x1
 2906 009c 27       		.uleb128 0x27
 2907 009d 19       		.uleb128 0x19
ARM GAS  /tmp/cc02cOoa.s 			page 52


 2908 009e 01       		.uleb128 0x1
 2909 009f 13       		.uleb128 0x13
 2910 00a0 00       		.byte	0
 2911 00a1 00       		.byte	0
 2912 00a2 0D       		.uleb128 0xd
 2913 00a3 05       		.uleb128 0x5
 2914 00a4 00       		.byte	0
 2915 00a5 49       		.uleb128 0x49
 2916 00a6 13       		.uleb128 0x13
 2917 00a7 00       		.byte	0
 2918 00a8 00       		.byte	0
 2919 00a9 0E       		.uleb128 0xe
 2920 00aa 0F       		.uleb128 0xf
 2921 00ab 00       		.byte	0
 2922 00ac 0B       		.uleb128 0xb
 2923 00ad 0B       		.uleb128 0xb
 2924 00ae 00       		.byte	0
 2925 00af 00       		.byte	0
 2926 00b0 0F       		.uleb128 0xf
 2927 00b1 35       		.uleb128 0x35
 2928 00b2 00       		.byte	0
 2929 00b3 49       		.uleb128 0x49
 2930 00b4 13       		.uleb128 0x13
 2931 00b5 00       		.byte	0
 2932 00b6 00       		.byte	0
 2933 00b7 10       		.uleb128 0x10
 2934 00b8 01       		.uleb128 0x1
 2935 00b9 01       		.byte	0x1
 2936 00ba 49       		.uleb128 0x49
 2937 00bb 13       		.uleb128 0x13
 2938 00bc 01       		.uleb128 0x1
 2939 00bd 13       		.uleb128 0x13
 2940 00be 00       		.byte	0
 2941 00bf 00       		.byte	0
 2942 00c0 11       		.uleb128 0x11
 2943 00c1 21       		.uleb128 0x21
 2944 00c2 00       		.byte	0
 2945 00c3 49       		.uleb128 0x49
 2946 00c4 13       		.uleb128 0x13
 2947 00c5 2F       		.uleb128 0x2f
 2948 00c6 0B       		.uleb128 0xb
 2949 00c7 00       		.byte	0
 2950 00c8 00       		.byte	0
 2951 00c9 12       		.uleb128 0x12
 2952 00ca 13       		.uleb128 0x13
 2953 00cb 01       		.byte	0x1
 2954 00cc 0B       		.uleb128 0xb
 2955 00cd 0B       		.uleb128 0xb
 2956 00ce 3A       		.uleb128 0x3a
 2957 00cf 0B       		.uleb128 0xb
 2958 00d0 3B       		.uleb128 0x3b
 2959 00d1 05       		.uleb128 0x5
 2960 00d2 01       		.uleb128 0x1
 2961 00d3 13       		.uleb128 0x13
 2962 00d4 00       		.byte	0
 2963 00d5 00       		.byte	0
 2964 00d6 13       		.uleb128 0x13
ARM GAS  /tmp/cc02cOoa.s 			page 53


 2965 00d7 16       		.uleb128 0x16
 2966 00d8 00       		.byte	0
 2967 00d9 03       		.uleb128 0x3
 2968 00da 0E       		.uleb128 0xe
 2969 00db 3A       		.uleb128 0x3a
 2970 00dc 0B       		.uleb128 0xb
 2971 00dd 3B       		.uleb128 0x3b
 2972 00de 05       		.uleb128 0x5
 2973 00df 49       		.uleb128 0x49
 2974 00e0 13       		.uleb128 0x13
 2975 00e1 00       		.byte	0
 2976 00e2 00       		.byte	0
 2977 00e3 14       		.uleb128 0x14
 2978 00e4 13       		.uleb128 0x13
 2979 00e5 01       		.byte	0x1
 2980 00e6 0B       		.uleb128 0xb
 2981 00e7 0B       		.uleb128 0xb
 2982 00e8 3A       		.uleb128 0x3a
 2983 00e9 0B       		.uleb128 0xb
 2984 00ea 3B       		.uleb128 0x3b
 2985 00eb 0B       		.uleb128 0xb
 2986 00ec 01       		.uleb128 0x1
 2987 00ed 13       		.uleb128 0x13
 2988 00ee 00       		.byte	0
 2989 00ef 00       		.byte	0
 2990 00f0 15       		.uleb128 0x15
 2991 00f1 17       		.uleb128 0x17
 2992 00f2 01       		.byte	0x1
 2993 00f3 0B       		.uleb128 0xb
 2994 00f4 0B       		.uleb128 0xb
 2995 00f5 3A       		.uleb128 0x3a
 2996 00f6 0B       		.uleb128 0xb
 2997 00f7 3B       		.uleb128 0x3b
 2998 00f8 0B       		.uleb128 0xb
 2999 00f9 01       		.uleb128 0x1
 3000 00fa 13       		.uleb128 0x13
 3001 00fb 00       		.byte	0
 3002 00fc 00       		.byte	0
 3003 00fd 16       		.uleb128 0x16
 3004 00fe 0D       		.uleb128 0xd
 3005 00ff 00       		.byte	0
 3006 0100 03       		.uleb128 0x3
 3007 0101 0E       		.uleb128 0xe
 3008 0102 3A       		.uleb128 0x3a
 3009 0103 0B       		.uleb128 0xb
 3010 0104 3B       		.uleb128 0x3b
 3011 0105 0B       		.uleb128 0xb
 3012 0106 49       		.uleb128 0x49
 3013 0107 13       		.uleb128 0x13
 3014 0108 00       		.byte	0
 3015 0109 00       		.byte	0
 3016 010a 17       		.uleb128 0x17
 3017 010b 0D       		.uleb128 0xd
 3018 010c 00       		.byte	0
 3019 010d 03       		.uleb128 0x3
 3020 010e 0E       		.uleb128 0xe
 3021 010f 3A       		.uleb128 0x3a
ARM GAS  /tmp/cc02cOoa.s 			page 54


 3022 0110 0B       		.uleb128 0xb
 3023 0111 3B       		.uleb128 0x3b
 3024 0112 05       		.uleb128 0x5
 3025 0113 49       		.uleb128 0x49
 3026 0114 13       		.uleb128 0x13
 3027 0115 00       		.byte	0
 3028 0116 00       		.byte	0
 3029 0117 18       		.uleb128 0x18
 3030 0118 26       		.uleb128 0x26
 3031 0119 00       		.byte	0
 3032 011a 49       		.uleb128 0x49
 3033 011b 13       		.uleb128 0x13
 3034 011c 00       		.byte	0
 3035 011d 00       		.byte	0
 3036 011e 19       		.uleb128 0x19
 3037 011f 04       		.uleb128 0x4
 3038 0120 01       		.byte	0x1
 3039 0121 0B       		.uleb128 0xb
 3040 0122 0B       		.uleb128 0xb
 3041 0123 3A       		.uleb128 0x3a
 3042 0124 0B       		.uleb128 0xb
 3043 0125 3B       		.uleb128 0x3b
 3044 0126 0B       		.uleb128 0xb
 3045 0127 01       		.uleb128 0x1
 3046 0128 13       		.uleb128 0x13
 3047 0129 00       		.byte	0
 3048 012a 00       		.byte	0
 3049 012b 1A       		.uleb128 0x1a
 3050 012c 28       		.uleb128 0x28
 3051 012d 00       		.byte	0
 3052 012e 03       		.uleb128 0x3
 3053 012f 0E       		.uleb128 0xe
 3054 0130 1C       		.uleb128 0x1c
 3055 0131 0D       		.uleb128 0xd
 3056 0132 00       		.byte	0
 3057 0133 00       		.byte	0
 3058 0134 1B       		.uleb128 0x1b
 3059 0135 2E       		.uleb128 0x2e
 3060 0136 01       		.byte	0x1
 3061 0137 03       		.uleb128 0x3
 3062 0138 0E       		.uleb128 0xe
 3063 0139 3A       		.uleb128 0x3a
 3064 013a 0B       		.uleb128 0xb
 3065 013b 3B       		.uleb128 0x3b
 3066 013c 05       		.uleb128 0x5
 3067 013d 27       		.uleb128 0x27
 3068 013e 19       		.uleb128 0x19
 3069 013f 20       		.uleb128 0x20
 3070 0140 0B       		.uleb128 0xb
 3071 0141 01       		.uleb128 0x1
 3072 0142 13       		.uleb128 0x13
 3073 0143 00       		.byte	0
 3074 0144 00       		.byte	0
 3075 0145 1C       		.uleb128 0x1c
 3076 0146 05       		.uleb128 0x5
 3077 0147 00       		.byte	0
 3078 0148 03       		.uleb128 0x3
ARM GAS  /tmp/cc02cOoa.s 			page 55


 3079 0149 0E       		.uleb128 0xe
 3080 014a 3A       		.uleb128 0x3a
 3081 014b 0B       		.uleb128 0xb
 3082 014c 3B       		.uleb128 0x3b
 3083 014d 05       		.uleb128 0x5
 3084 014e 49       		.uleb128 0x49
 3085 014f 13       		.uleb128 0x13
 3086 0150 00       		.byte	0
 3087 0151 00       		.byte	0
 3088 0152 1D       		.uleb128 0x1d
 3089 0153 2E       		.uleb128 0x2e
 3090 0154 00       		.byte	0
 3091 0155 03       		.uleb128 0x3
 3092 0156 0E       		.uleb128 0xe
 3093 0157 3A       		.uleb128 0x3a
 3094 0158 0B       		.uleb128 0xb
 3095 0159 3B       		.uleb128 0x3b
 3096 015a 05       		.uleb128 0x5
 3097 015b 27       		.uleb128 0x27
 3098 015c 19       		.uleb128 0x19
 3099 015d 20       		.uleb128 0x20
 3100 015e 0B       		.uleb128 0xb
 3101 015f 00       		.byte	0
 3102 0160 00       		.byte	0
 3103 0161 1E       		.uleb128 0x1e
 3104 0162 2E       		.uleb128 0x2e
 3105 0163 01       		.byte	0x1
 3106 0164 03       		.uleb128 0x3
 3107 0165 0E       		.uleb128 0xe
 3108 0166 3A       		.uleb128 0x3a
 3109 0167 0B       		.uleb128 0xb
 3110 0168 3B       		.uleb128 0x3b
 3111 0169 05       		.uleb128 0x5
 3112 016a 27       		.uleb128 0x27
 3113 016b 19       		.uleb128 0x19
 3114 016c 11       		.uleb128 0x11
 3115 016d 01       		.uleb128 0x1
 3116 016e 12       		.uleb128 0x12
 3117 016f 06       		.uleb128 0x6
 3118 0170 40       		.uleb128 0x40
 3119 0171 18       		.uleb128 0x18
 3120 0172 9742     		.uleb128 0x2117
 3121 0174 19       		.uleb128 0x19
 3122 0175 01       		.uleb128 0x1
 3123 0176 13       		.uleb128 0x13
 3124 0177 00       		.byte	0
 3125 0178 00       		.byte	0
 3126 0179 1F       		.uleb128 0x1f
 3127 017a 1D       		.uleb128 0x1d
 3128 017b 01       		.byte	0x1
 3129 017c 31       		.uleb128 0x31
 3130 017d 13       		.uleb128 0x13
 3131 017e 11       		.uleb128 0x11
 3132 017f 01       		.uleb128 0x1
 3133 0180 12       		.uleb128 0x12
 3134 0181 06       		.uleb128 0x6
 3135 0182 58       		.uleb128 0x58
ARM GAS  /tmp/cc02cOoa.s 			page 56


 3136 0183 0B       		.uleb128 0xb
 3137 0184 59       		.uleb128 0x59
 3138 0185 05       		.uleb128 0x5
 3139 0186 01       		.uleb128 0x1
 3140 0187 13       		.uleb128 0x13
 3141 0188 00       		.byte	0
 3142 0189 00       		.byte	0
 3143 018a 20       		.uleb128 0x20
 3144 018b 1D       		.uleb128 0x1d
 3145 018c 01       		.byte	0x1
 3146 018d 31       		.uleb128 0x31
 3147 018e 13       		.uleb128 0x13
 3148 018f 11       		.uleb128 0x11
 3149 0190 01       		.uleb128 0x1
 3150 0191 12       		.uleb128 0x12
 3151 0192 06       		.uleb128 0x6
 3152 0193 58       		.uleb128 0x58
 3153 0194 0B       		.uleb128 0xb
 3154 0195 59       		.uleb128 0x59
 3155 0196 05       		.uleb128 0x5
 3156 0197 00       		.byte	0
 3157 0198 00       		.byte	0
 3158 0199 21       		.uleb128 0x21
 3159 019a 05       		.uleb128 0x5
 3160 019b 00       		.byte	0
 3161 019c 31       		.uleb128 0x31
 3162 019d 13       		.uleb128 0x13
 3163 019e 1C       		.uleb128 0x1c
 3164 019f 0B       		.uleb128 0xb
 3165 01a0 00       		.byte	0
 3166 01a1 00       		.byte	0
 3167 01a2 22       		.uleb128 0x22
 3168 01a3 898201   		.uleb128 0x4109
 3169 01a6 00       		.byte	0
 3170 01a7 11       		.uleb128 0x11
 3171 01a8 01       		.uleb128 0x1
 3172 01a9 9542     		.uleb128 0x2115
 3173 01ab 19       		.uleb128 0x19
 3174 01ac 31       		.uleb128 0x31
 3175 01ad 13       		.uleb128 0x13
 3176 01ae 00       		.byte	0
 3177 01af 00       		.byte	0
 3178 01b0 23       		.uleb128 0x23
 3179 01b1 34       		.uleb128 0x34
 3180 01b2 00       		.byte	0
 3181 01b3 03       		.uleb128 0x3
 3182 01b4 0E       		.uleb128 0xe
 3183 01b5 49       		.uleb128 0x49
 3184 01b6 13       		.uleb128 0x13
 3185 01b7 34       		.uleb128 0x34
 3186 01b8 19       		.uleb128 0x19
 3187 01b9 00       		.byte	0
 3188 01ba 00       		.byte	0
 3189 01bb 24       		.uleb128 0x24
 3190 01bc 898201   		.uleb128 0x4109
 3191 01bf 00       		.byte	0
 3192 01c0 11       		.uleb128 0x11
ARM GAS  /tmp/cc02cOoa.s 			page 57


 3193 01c1 01       		.uleb128 0x1
 3194 01c2 31       		.uleb128 0x31
 3195 01c3 13       		.uleb128 0x13
 3196 01c4 00       		.byte	0
 3197 01c5 00       		.byte	0
 3198 01c6 25       		.uleb128 0x25
 3199 01c7 2E       		.uleb128 0x2e
 3200 01c8 01       		.byte	0x1
 3201 01c9 3F       		.uleb128 0x3f
 3202 01ca 19       		.uleb128 0x19
 3203 01cb 03       		.uleb128 0x3
 3204 01cc 0E       		.uleb128 0xe
 3205 01cd 3A       		.uleb128 0x3a
 3206 01ce 0B       		.uleb128 0xb
 3207 01cf 3B       		.uleb128 0x3b
 3208 01d0 0B       		.uleb128 0xb
 3209 01d1 27       		.uleb128 0x27
 3210 01d2 19       		.uleb128 0x19
 3211 01d3 11       		.uleb128 0x11
 3212 01d4 01       		.uleb128 0x1
 3213 01d5 12       		.uleb128 0x12
 3214 01d6 06       		.uleb128 0x6
 3215 01d7 40       		.uleb128 0x40
 3216 01d8 18       		.uleb128 0x18
 3217 01d9 9742     		.uleb128 0x2117
 3218 01db 19       		.uleb128 0x19
 3219 01dc 01       		.uleb128 0x1
 3220 01dd 13       		.uleb128 0x13
 3221 01de 00       		.byte	0
 3222 01df 00       		.byte	0
 3223 01e0 26       		.uleb128 0x26
 3224 01e1 05       		.uleb128 0x5
 3225 01e2 00       		.byte	0
 3226 01e3 03       		.uleb128 0x3
 3227 01e4 0E       		.uleb128 0xe
 3228 01e5 3A       		.uleb128 0x3a
 3229 01e6 0B       		.uleb128 0xb
 3230 01e7 3B       		.uleb128 0x3b
 3231 01e8 0B       		.uleb128 0xb
 3232 01e9 49       		.uleb128 0x49
 3233 01ea 13       		.uleb128 0x13
 3234 01eb 02       		.uleb128 0x2
 3235 01ec 18       		.uleb128 0x18
 3236 01ed 00       		.byte	0
 3237 01ee 00       		.byte	0
 3238 01ef 27       		.uleb128 0x27
 3239 01f0 05       		.uleb128 0x5
 3240 01f1 00       		.byte	0
 3241 01f2 03       		.uleb128 0x3
 3242 01f3 0E       		.uleb128 0xe
 3243 01f4 3A       		.uleb128 0x3a
 3244 01f5 0B       		.uleb128 0xb
 3245 01f6 3B       		.uleb128 0x3b
 3246 01f7 0B       		.uleb128 0xb
 3247 01f8 49       		.uleb128 0x49
 3248 01f9 13       		.uleb128 0x13
 3249 01fa 02       		.uleb128 0x2
ARM GAS  /tmp/cc02cOoa.s 			page 58


 3250 01fb 17       		.uleb128 0x17
 3251 01fc 00       		.byte	0
 3252 01fd 00       		.byte	0
 3253 01fe 28       		.uleb128 0x28
 3254 01ff 1D       		.uleb128 0x1d
 3255 0200 01       		.byte	0x1
 3256 0201 31       		.uleb128 0x31
 3257 0202 13       		.uleb128 0x13
 3258 0203 11       		.uleb128 0x11
 3259 0204 01       		.uleb128 0x1
 3260 0205 12       		.uleb128 0x12
 3261 0206 06       		.uleb128 0x6
 3262 0207 58       		.uleb128 0x58
 3263 0208 0B       		.uleb128 0xb
 3264 0209 59       		.uleb128 0x59
 3265 020a 0B       		.uleb128 0xb
 3266 020b 01       		.uleb128 0x1
 3267 020c 13       		.uleb128 0x13
 3268 020d 00       		.byte	0
 3269 020e 00       		.byte	0
 3270 020f 29       		.uleb128 0x29
 3271 0210 898201   		.uleb128 0x4109
 3272 0213 01       		.byte	0x1
 3273 0214 11       		.uleb128 0x11
 3274 0215 01       		.uleb128 0x1
 3275 0216 31       		.uleb128 0x31
 3276 0217 13       		.uleb128 0x13
 3277 0218 00       		.byte	0
 3278 0219 00       		.byte	0
 3279 021a 2A       		.uleb128 0x2a
 3280 021b 8A8201   		.uleb128 0x410a
 3281 021e 00       		.byte	0
 3282 021f 02       		.uleb128 0x2
 3283 0220 18       		.uleb128 0x18
 3284 0221 9142     		.uleb128 0x2111
 3285 0223 18       		.uleb128 0x18
 3286 0224 00       		.byte	0
 3287 0225 00       		.byte	0
 3288 0226 2B       		.uleb128 0x2b
 3289 0227 1D       		.uleb128 0x1d
 3290 0228 01       		.byte	0x1
 3291 0229 31       		.uleb128 0x31
 3292 022a 13       		.uleb128 0x13
 3293 022b 11       		.uleb128 0x11
 3294 022c 01       		.uleb128 0x1
 3295 022d 12       		.uleb128 0x12
 3296 022e 06       		.uleb128 0x6
 3297 022f 58       		.uleb128 0x58
 3298 0230 0B       		.uleb128 0xb
 3299 0231 59       		.uleb128 0x59
 3300 0232 0B       		.uleb128 0xb
 3301 0233 00       		.byte	0
 3302 0234 00       		.byte	0
 3303 0235 2C       		.uleb128 0x2c
 3304 0236 2E       		.uleb128 0x2e
 3305 0237 01       		.byte	0x1
 3306 0238 3F       		.uleb128 0x3f
ARM GAS  /tmp/cc02cOoa.s 			page 59


 3307 0239 19       		.uleb128 0x19
 3308 023a 03       		.uleb128 0x3
 3309 023b 0E       		.uleb128 0xe
 3310 023c 3A       		.uleb128 0x3a
 3311 023d 0B       		.uleb128 0xb
 3312 023e 3B       		.uleb128 0x3b
 3313 023f 05       		.uleb128 0x5
 3314 0240 27       		.uleb128 0x27
 3315 0241 19       		.uleb128 0x19
 3316 0242 11       		.uleb128 0x11
 3317 0243 01       		.uleb128 0x1
 3318 0244 12       		.uleb128 0x12
 3319 0245 06       		.uleb128 0x6
 3320 0246 40       		.uleb128 0x40
 3321 0247 18       		.uleb128 0x18
 3322 0248 9742     		.uleb128 0x2117
 3323 024a 19       		.uleb128 0x19
 3324 024b 01       		.uleb128 0x1
 3325 024c 13       		.uleb128 0x13
 3326 024d 00       		.byte	0
 3327 024e 00       		.byte	0
 3328 024f 2D       		.uleb128 0x2d
 3329 0250 05       		.uleb128 0x5
 3330 0251 00       		.byte	0
 3331 0252 03       		.uleb128 0x3
 3332 0253 0E       		.uleb128 0xe
 3333 0254 3A       		.uleb128 0x3a
 3334 0255 0B       		.uleb128 0xb
 3335 0256 3B       		.uleb128 0x3b
 3336 0257 05       		.uleb128 0x5
 3337 0258 49       		.uleb128 0x49
 3338 0259 13       		.uleb128 0x13
 3339 025a 02       		.uleb128 0x2
 3340 025b 17       		.uleb128 0x17
 3341 025c 00       		.byte	0
 3342 025d 00       		.byte	0
 3343 025e 2E       		.uleb128 0x2e
 3344 025f 34       		.uleb128 0x34
 3345 0260 00       		.byte	0
 3346 0261 03       		.uleb128 0x3
 3347 0262 0E       		.uleb128 0xe
 3348 0263 3A       		.uleb128 0x3a
 3349 0264 0B       		.uleb128 0xb
 3350 0265 3B       		.uleb128 0x3b
 3351 0266 05       		.uleb128 0x5
 3352 0267 49       		.uleb128 0x49
 3353 0268 13       		.uleb128 0x13
 3354 0269 3F       		.uleb128 0x3f
 3355 026a 19       		.uleb128 0x19
 3356 026b 3C       		.uleb128 0x3c
 3357 026c 19       		.uleb128 0x19
 3358 026d 00       		.byte	0
 3359 026e 00       		.byte	0
 3360 026f 2F       		.uleb128 0x2f
 3361 0270 34       		.uleb128 0x34
 3362 0271 00       		.byte	0
 3363 0272 03       		.uleb128 0x3
ARM GAS  /tmp/cc02cOoa.s 			page 60


 3364 0273 08       		.uleb128 0x8
 3365 0274 3A       		.uleb128 0x3a
 3366 0275 0B       		.uleb128 0xb
 3367 0276 3B       		.uleb128 0x3b
 3368 0277 05       		.uleb128 0x5
 3369 0278 49       		.uleb128 0x49
 3370 0279 13       		.uleb128 0x13
 3371 027a 3F       		.uleb128 0x3f
 3372 027b 19       		.uleb128 0x19
 3373 027c 3C       		.uleb128 0x3c
 3374 027d 19       		.uleb128 0x19
 3375 027e 00       		.byte	0
 3376 027f 00       		.byte	0
 3377 0280 30       		.uleb128 0x30
 3378 0281 2E       		.uleb128 0x2e
 3379 0282 00       		.byte	0
 3380 0283 3F       		.uleb128 0x3f
 3381 0284 19       		.uleb128 0x19
 3382 0285 03       		.uleb128 0x3
 3383 0286 0E       		.uleb128 0xe
 3384 0287 3A       		.uleb128 0x3a
 3385 0288 0B       		.uleb128 0xb
 3386 0289 3B       		.uleb128 0x3b
 3387 028a 0B       		.uleb128 0xb
 3388 028b 27       		.uleb128 0x27
 3389 028c 19       		.uleb128 0x19
 3390 028d 3C       		.uleb128 0x3c
 3391 028e 19       		.uleb128 0x19
 3392 028f 00       		.byte	0
 3393 0290 00       		.byte	0
 3394 0291 31       		.uleb128 0x31
 3395 0292 2E       		.uleb128 0x2e
 3396 0293 00       		.byte	0
 3397 0294 3F       		.uleb128 0x3f
 3398 0295 19       		.uleb128 0x19
 3399 0296 03       		.uleb128 0x3
 3400 0297 0E       		.uleb128 0xe
 3401 0298 3A       		.uleb128 0x3a
 3402 0299 0B       		.uleb128 0xb
 3403 029a 3B       		.uleb128 0x3b
 3404 029b 05       		.uleb128 0x5
 3405 029c 27       		.uleb128 0x27
 3406 029d 19       		.uleb128 0x19
 3407 029e 3C       		.uleb128 0x3c
 3408 029f 19       		.uleb128 0x19
 3409 02a0 00       		.byte	0
 3410 02a1 00       		.byte	0
 3411 02a2 32       		.uleb128 0x32
 3412 02a3 2E       		.uleb128 0x2e
 3413 02a4 01       		.byte	0x1
 3414 02a5 3F       		.uleb128 0x3f
 3415 02a6 19       		.uleb128 0x19
 3416 02a7 03       		.uleb128 0x3
 3417 02a8 0E       		.uleb128 0xe
 3418 02a9 3A       		.uleb128 0x3a
 3419 02aa 0B       		.uleb128 0xb
 3420 02ab 3B       		.uleb128 0x3b
ARM GAS  /tmp/cc02cOoa.s 			page 61


 3421 02ac 05       		.uleb128 0x5
 3422 02ad 27       		.uleb128 0x27
 3423 02ae 19       		.uleb128 0x19
 3424 02af 3C       		.uleb128 0x3c
 3425 02b0 19       		.uleb128 0x19
 3426 02b1 01       		.uleb128 0x1
 3427 02b2 13       		.uleb128 0x13
 3428 02b3 00       		.byte	0
 3429 02b4 00       		.byte	0
 3430 02b5 33       		.uleb128 0x33
 3431 02b6 2E       		.uleb128 0x2e
 3432 02b7 01       		.byte	0x1
 3433 02b8 3F       		.uleb128 0x3f
 3434 02b9 19       		.uleb128 0x19
 3435 02ba 03       		.uleb128 0x3
 3436 02bb 0E       		.uleb128 0xe
 3437 02bc 3A       		.uleb128 0x3a
 3438 02bd 0B       		.uleb128 0xb
 3439 02be 3B       		.uleb128 0x3b
 3440 02bf 05       		.uleb128 0x5
 3441 02c0 27       		.uleb128 0x27
 3442 02c1 19       		.uleb128 0x19
 3443 02c2 3C       		.uleb128 0x3c
 3444 02c3 19       		.uleb128 0x19
 3445 02c4 00       		.byte	0
 3446 02c5 00       		.byte	0
 3447 02c6 00       		.byte	0
 3448              		.section	.debug_loc,"",%progbits
 3449              	.Ldebug_loc0:
 3450              	.LLST0:
 3451 0000 00000000 		.4byte	.LVL5
 3452 0004 09000000 		.4byte	.LVL6-1
 3453 0008 0100     		.2byte	0x1
 3454 000a 50       		.byte	0x50
 3455 000b 09000000 		.4byte	.LVL6-1
 3456 000f 22000000 		.4byte	.LVL8
 3457 0013 0100     		.2byte	0x1
 3458 0015 54       		.byte	0x54
 3459 0016 22000000 		.4byte	.LVL8
 3460 001a 26000000 		.4byte	.LFE325
 3461 001e 0400     		.2byte	0x4
 3462 0020 F3       		.byte	0xf3
 3463 0021 01       		.uleb128 0x1
 3464 0022 50       		.byte	0x50
 3465 0023 9F       		.byte	0x9f
 3466 0024 00000000 		.4byte	0
 3467 0028 00000000 		.4byte	0
 3468              	.LLST1:
 3469 002c 00000000 		.4byte	.LVL5
 3470 0030 09000000 		.4byte	.LVL6-1
 3471 0034 0100     		.2byte	0x1
 3472 0036 51       		.byte	0x51
 3473 0037 09000000 		.4byte	.LVL6-1
 3474 003b 22000000 		.4byte	.LVL8
 3475 003f 0100     		.2byte	0x1
 3476 0041 55       		.byte	0x55
 3477 0042 22000000 		.4byte	.LVL8
ARM GAS  /tmp/cc02cOoa.s 			page 62


 3478 0046 26000000 		.4byte	.LFE325
 3479 004a 0400     		.2byte	0x4
 3480 004c F3       		.byte	0xf3
 3481 004d 01       		.uleb128 0x1
 3482 004e 51       		.byte	0x51
 3483 004f 9F       		.byte	0x9f
 3484 0050 00000000 		.4byte	0
 3485 0054 00000000 		.4byte	0
 3486              	.LLST2:
 3487 0058 00000000 		.4byte	.LVL10
 3488 005c 07000000 		.4byte	.LVL11-1
 3489 0060 0100     		.2byte	0x1
 3490 0062 50       		.byte	0x50
 3491 0063 07000000 		.4byte	.LVL11-1
 3492 0067 1C000000 		.4byte	.LVL13
 3493 006b 0100     		.2byte	0x1
 3494 006d 54       		.byte	0x54
 3495 006e 1C000000 		.4byte	.LVL13
 3496 0072 20000000 		.4byte	.LFE326
 3497 0076 0400     		.2byte	0x4
 3498 0078 F3       		.byte	0xf3
 3499 0079 01       		.uleb128 0x1
 3500 007a 50       		.byte	0x50
 3501 007b 9F       		.byte	0x9f
 3502 007c 00000000 		.4byte	0
 3503 0080 00000000 		.4byte	0
 3504              	.LLST3:
 3505 0084 00000000 		.4byte	.LVL15
 3506 0088 09000000 		.4byte	.LVL16-1
 3507 008c 0100     		.2byte	0x1
 3508 008e 50       		.byte	0x50
 3509 008f 09000000 		.4byte	.LVL16-1
 3510 0093 16000000 		.4byte	.LVL18
 3511 0097 0100     		.2byte	0x1
 3512 0099 55       		.byte	0x55
 3513 009a 16000000 		.4byte	.LVL18
 3514 009e 1A000000 		.4byte	.LFE327
 3515 00a2 0400     		.2byte	0x4
 3516 00a4 F3       		.byte	0xf3
 3517 00a5 01       		.uleb128 0x1
 3518 00a6 50       		.byte	0x50
 3519 00a7 9F       		.byte	0x9f
 3520 00a8 00000000 		.4byte	0
 3521 00ac 00000000 		.4byte	0
 3522              	.LLST4:
 3523 00b0 00000000 		.4byte	.LVL15
 3524 00b4 09000000 		.4byte	.LVL16-1
 3525 00b8 0100     		.2byte	0x1
 3526 00ba 51       		.byte	0x51
 3527 00bb 09000000 		.4byte	.LVL16-1
 3528 00bf 10000000 		.4byte	.LVL17
 3529 00c3 0100     		.2byte	0x1
 3530 00c5 54       		.byte	0x54
 3531 00c6 10000000 		.4byte	.LVL17
 3532 00ca 16000000 		.4byte	.LVL18
 3533 00ce 0200     		.2byte	0x2
 3534 00d0 75       		.byte	0x75
ARM GAS  /tmp/cc02cOoa.s 			page 63


 3535 00d1 08       		.sleb128 8
 3536 00d2 16000000 		.4byte	.LVL18
 3537 00d6 19000000 		.4byte	.LVL19-1
 3538 00da 0500     		.2byte	0x5
 3539 00dc F3       		.byte	0xf3
 3540 00dd 01       		.uleb128 0x1
 3541 00de 50       		.byte	0x50
 3542 00df 23       		.byte	0x23
 3543 00e0 08       		.uleb128 0x8
 3544 00e1 19000000 		.4byte	.LVL19-1
 3545 00e5 1A000000 		.4byte	.LFE327
 3546 00e9 0400     		.2byte	0x4
 3547 00eb F3       		.byte	0xf3
 3548 00ec 01       		.uleb128 0x1
 3549 00ed 51       		.byte	0x51
 3550 00ee 9F       		.byte	0x9f
 3551 00ef 00000000 		.4byte	0
 3552 00f3 00000000 		.4byte	0
 3553              	.LLST5:
 3554 00f7 00000000 		.4byte	.LVL20
 3555 00fb 0B000000 		.4byte	.LVL21-1
 3556 00ff 0100     		.2byte	0x1
 3557 0101 50       		.byte	0x50
 3558 0102 0B000000 		.4byte	.LVL21-1
 3559 0106 24000000 		.4byte	.LVL23
 3560 010a 0100     		.2byte	0x1
 3561 010c 54       		.byte	0x54
 3562 010d 24000000 		.4byte	.LVL23
 3563 0111 28000000 		.4byte	.LFE328
 3564 0115 0400     		.2byte	0x4
 3565 0117 F3       		.byte	0xf3
 3566 0118 01       		.uleb128 0x1
 3567 0119 50       		.byte	0x50
 3568 011a 9F       		.byte	0x9f
 3569 011b 00000000 		.4byte	0
 3570 011f 00000000 		.4byte	0
 3571              	.LLST6:
 3572 0123 00000000 		.4byte	.LVL20
 3573 0127 0B000000 		.4byte	.LVL21-1
 3574 012b 0100     		.2byte	0x1
 3575 012d 51       		.byte	0x51
 3576 012e 0B000000 		.4byte	.LVL21-1
 3577 0132 28000000 		.4byte	.LFE328
 3578 0136 0400     		.2byte	0x4
 3579 0138 F3       		.byte	0xf3
 3580 0139 01       		.uleb128 0x1
 3581 013a 51       		.byte	0x51
 3582 013b 9F       		.byte	0x9f
 3583 013c 00000000 		.4byte	0
 3584 0140 00000000 		.4byte	0
 3585              	.LLST7:
 3586 0144 00000000 		.4byte	.LVL20
 3587 0148 0B000000 		.4byte	.LVL21-1
 3588 014c 0100     		.2byte	0x1
 3589 014e 52       		.byte	0x52
 3590 014f 0B000000 		.4byte	.LVL21-1
 3591 0153 24000000 		.4byte	.LVL23
ARM GAS  /tmp/cc02cOoa.s 			page 64


 3592 0157 0100     		.2byte	0x1
 3593 0159 56       		.byte	0x56
 3594 015a 24000000 		.4byte	.LVL23
 3595 015e 28000000 		.4byte	.LFE328
 3596 0162 0400     		.2byte	0x4
 3597 0164 F3       		.byte	0xf3
 3598 0165 01       		.uleb128 0x1
 3599 0166 52       		.byte	0x52
 3600 0167 9F       		.byte	0x9f
 3601 0168 00000000 		.4byte	0
 3602 016c 00000000 		.4byte	0
 3603              	.LLST8:
 3604 0170 00000000 		.4byte	.LVL25
 3605 0174 09000000 		.4byte	.LVL26-1
 3606 0178 0100     		.2byte	0x1
 3607 017a 50       		.byte	0x50
 3608 017b 09000000 		.4byte	.LVL26-1
 3609 017f 24000000 		.4byte	.LVL28
 3610 0183 0100     		.2byte	0x1
 3611 0185 54       		.byte	0x54
 3612 0186 24000000 		.4byte	.LVL28
 3613 018a 28000000 		.4byte	.LFE329
 3614 018e 0400     		.2byte	0x4
 3615 0190 F3       		.byte	0xf3
 3616 0191 01       		.uleb128 0x1
 3617 0192 50       		.byte	0x50
 3618 0193 9F       		.byte	0x9f
 3619 0194 00000000 		.4byte	0
 3620 0198 00000000 		.4byte	0
 3621              	.LLST9:
 3622 019c 00000000 		.4byte	.LVL25
 3623 01a0 09000000 		.4byte	.LVL26-1
 3624 01a4 0100     		.2byte	0x1
 3625 01a6 51       		.byte	0x51
 3626 01a7 09000000 		.4byte	.LVL26-1
 3627 01ab 28000000 		.4byte	.LFE329
 3628 01af 0400     		.2byte	0x4
 3629 01b1 F3       		.byte	0xf3
 3630 01b2 01       		.uleb128 0x1
 3631 01b3 51       		.byte	0x51
 3632 01b4 9F       		.byte	0x9f
 3633 01b5 00000000 		.4byte	0
 3634 01b9 00000000 		.4byte	0
 3635              	.LLST10:
 3636 01bd 00000000 		.4byte	.LVL30
 3637 01c1 07000000 		.4byte	.LVL31-1
 3638 01c5 0100     		.2byte	0x1
 3639 01c7 50       		.byte	0x50
 3640 01c8 07000000 		.4byte	.LVL31-1
 3641 01cc 12000000 		.4byte	.LVL33
 3642 01d0 0100     		.2byte	0x1
 3643 01d2 54       		.byte	0x54
 3644 01d3 12000000 		.4byte	.LVL33
 3645 01d7 16000000 		.4byte	.LFE330
 3646 01db 0400     		.2byte	0x4
 3647 01dd F3       		.byte	0xf3
 3648 01de 01       		.uleb128 0x1
ARM GAS  /tmp/cc02cOoa.s 			page 65


 3649 01df 50       		.byte	0x50
 3650 01e0 9F       		.byte	0x9f
 3651 01e1 00000000 		.4byte	0
 3652 01e5 00000000 		.4byte	0
 3653              	.LLST11:
 3654 01e9 00000000 		.4byte	.LVL35
 3655 01ed 07000000 		.4byte	.LVL36-1
 3656 01f1 0100     		.2byte	0x1
 3657 01f3 50       		.byte	0x50
 3658 01f4 07000000 		.4byte	.LVL36-1
 3659 01f8 12000000 		.4byte	.LVL38
 3660 01fc 0100     		.2byte	0x1
 3661 01fe 54       		.byte	0x54
 3662 01ff 12000000 		.4byte	.LVL38
 3663 0203 16000000 		.4byte	.LFE331
 3664 0207 0400     		.2byte	0x4
 3665 0209 F3       		.byte	0xf3
 3666 020a 01       		.uleb128 0x1
 3667 020b 50       		.byte	0x50
 3668 020c 9F       		.byte	0x9f
 3669 020d 00000000 		.4byte	0
 3670 0211 00000000 		.4byte	0
 3671              	.LLST12:
 3672 0215 00000000 		.4byte	.LVL40
 3673 0219 09000000 		.4byte	.LVL41-1
 3674 021d 0100     		.2byte	0x1
 3675 021f 50       		.byte	0x50
 3676 0220 09000000 		.4byte	.LVL41-1
 3677 0224 16000000 		.4byte	.LVL43
 3678 0228 0100     		.2byte	0x1
 3679 022a 55       		.byte	0x55
 3680 022b 16000000 		.4byte	.LVL43
 3681 022f 1A000000 		.4byte	.LFE332
 3682 0233 0400     		.2byte	0x4
 3683 0235 F3       		.byte	0xf3
 3684 0236 01       		.uleb128 0x1
 3685 0237 50       		.byte	0x50
 3686 0238 9F       		.byte	0x9f
 3687 0239 00000000 		.4byte	0
 3688 023d 00000000 		.4byte	0
 3689              	.LLST13:
 3690 0241 00000000 		.4byte	.LVL40
 3691 0245 09000000 		.4byte	.LVL41-1
 3692 0249 0100     		.2byte	0x1
 3693 024b 51       		.byte	0x51
 3694 024c 09000000 		.4byte	.LVL41-1
 3695 0250 1A000000 		.4byte	.LFE332
 3696 0254 0400     		.2byte	0x4
 3697 0256 F3       		.byte	0xf3
 3698 0257 01       		.uleb128 0x1
 3699 0258 51       		.byte	0x51
 3700 0259 9F       		.byte	0x9f
 3701 025a 00000000 		.4byte	0
 3702 025e 00000000 		.4byte	0
 3703              	.LLST14:
 3704 0262 00000000 		.4byte	.LVL45
 3705 0266 09000000 		.4byte	.LVL46-1
ARM GAS  /tmp/cc02cOoa.s 			page 66


 3706 026a 0100     		.2byte	0x1
 3707 026c 50       		.byte	0x50
 3708 026d 09000000 		.4byte	.LVL46-1
 3709 0271 16000000 		.4byte	.LVL48
 3710 0275 0100     		.2byte	0x1
 3711 0277 55       		.byte	0x55
 3712 0278 16000000 		.4byte	.LVL48
 3713 027c 1A000000 		.4byte	.LFE333
 3714 0280 0400     		.2byte	0x4
 3715 0282 F3       		.byte	0xf3
 3716 0283 01       		.uleb128 0x1
 3717 0284 50       		.byte	0x50
 3718 0285 9F       		.byte	0x9f
 3719 0286 00000000 		.4byte	0
 3720 028a 00000000 		.4byte	0
 3721              	.LLST15:
 3722 028e 00000000 		.4byte	.LVL45
 3723 0292 09000000 		.4byte	.LVL46-1
 3724 0296 0100     		.2byte	0x1
 3725 0298 51       		.byte	0x51
 3726 0299 09000000 		.4byte	.LVL46-1
 3727 029d 1A000000 		.4byte	.LFE333
 3728 02a1 0400     		.2byte	0x4
 3729 02a3 F3       		.byte	0xf3
 3730 02a4 01       		.uleb128 0x1
 3731 02a5 51       		.byte	0x51
 3732 02a6 9F       		.byte	0x9f
 3733 02a7 00000000 		.4byte	0
 3734 02ab 00000000 		.4byte	0
 3735              		.section	.debug_aranges,"",%progbits
 3736 0000 7C000000 		.4byte	0x7c
 3737 0004 0200     		.2byte	0x2
 3738 0006 00000000 		.4byte	.Ldebug_info0
 3739 000a 04       		.byte	0x4
 3740 000b 00       		.byte	0
 3741 000c 0000     		.2byte	0
 3742 000e 0000     		.2byte	0
 3743 0010 00000000 		.4byte	.LFB184
 3744 0014 0A000000 		.4byte	.LFE184-.LFB184
 3745 0018 00000000 		.4byte	.LFB185
 3746 001c 0E000000 		.4byte	.LFE185-.LFB185
 3747 0020 00000000 		.4byte	.LFB323
 3748 0024 04000000 		.4byte	.LFE323-.LFB323
 3749 0028 00000000 		.4byte	.LFB324
 3750 002c 0E000000 		.4byte	.LFE324-.LFB324
 3751 0030 00000000 		.4byte	.LFB325
 3752 0034 26000000 		.4byte	.LFE325-.LFB325
 3753 0038 00000000 		.4byte	.LFB326
 3754 003c 20000000 		.4byte	.LFE326-.LFB326
 3755 0040 00000000 		.4byte	.LFB327
 3756 0044 1A000000 		.4byte	.LFE327-.LFB327
 3757 0048 00000000 		.4byte	.LFB328
 3758 004c 28000000 		.4byte	.LFE328-.LFB328
 3759 0050 00000000 		.4byte	.LFB329
 3760 0054 28000000 		.4byte	.LFE329-.LFB329
 3761 0058 00000000 		.4byte	.LFB330
 3762 005c 16000000 		.4byte	.LFE330-.LFB330
ARM GAS  /tmp/cc02cOoa.s 			page 67


 3763 0060 00000000 		.4byte	.LFB331
 3764 0064 16000000 		.4byte	.LFE331-.LFB331
 3765 0068 00000000 		.4byte	.LFB332
 3766 006c 1A000000 		.4byte	.LFE332-.LFB332
 3767 0070 00000000 		.4byte	.LFB333
 3768 0074 1A000000 		.4byte	.LFE333-.LFB333
 3769 0078 00000000 		.4byte	0
 3770 007c 00000000 		.4byte	0
 3771              		.section	.debug_ranges,"",%progbits
 3772              	.Ldebug_ranges0:
 3773 0000 00000000 		.4byte	.LFB184
 3774 0004 0A000000 		.4byte	.LFE184
 3775 0008 00000000 		.4byte	.LFB185
 3776 000c 0E000000 		.4byte	.LFE185
 3777 0010 00000000 		.4byte	.LFB323
 3778 0014 04000000 		.4byte	.LFE323
 3779 0018 00000000 		.4byte	.LFB324
 3780 001c 0E000000 		.4byte	.LFE324
 3781 0020 00000000 		.4byte	.LFB325
 3782 0024 26000000 		.4byte	.LFE325
 3783 0028 00000000 		.4byte	.LFB326
 3784 002c 20000000 		.4byte	.LFE326
 3785 0030 00000000 		.4byte	.LFB327
 3786 0034 1A000000 		.4byte	.LFE327
 3787 0038 00000000 		.4byte	.LFB328
 3788 003c 28000000 		.4byte	.LFE328
 3789 0040 00000000 		.4byte	.LFB329
 3790 0044 28000000 		.4byte	.LFE329
 3791 0048 00000000 		.4byte	.LFB330
 3792 004c 16000000 		.4byte	.LFE330
 3793 0050 00000000 		.4byte	.LFB331
 3794 0054 16000000 		.4byte	.LFE331
 3795 0058 00000000 		.4byte	.LFB332
 3796 005c 1A000000 		.4byte	.LFE332
 3797 0060 00000000 		.4byte	.LFB333
 3798 0064 1A000000 		.4byte	.LFE333
 3799 0068 00000000 		.4byte	0
 3800 006c 00000000 		.4byte	0
 3801              		.section	.debug_line,"",%progbits
 3802              	.Ldebug_line0:
 3803 0000 75040000 		.section	.debug_str,"MS",%progbits,1
 3803      0200B702 
 3803      00000201 
 3803      FB0E0D00 
 3803      01010101 
 3804              	.LASF127:
 3805 0000 70776D63 		.ascii	"pwmchannel_t\000"
 3805      68616E6E 
 3805      656C5F74 
 3805      00
 3806              	.LASF52:
 3807 000d 72656164 		.ascii	"ready_list_t\000"
 3807      795F6C69 
 3807      73745F74 
 3807      00
 3808              	.LASF80:
 3809 001a 44494552 		.ascii	"DIER\000"
ARM GAS  /tmp/cc02cOoa.s 			page 68


 3809      00
 3810              	.LASF104:
 3811 001f 77747472 		.ascii	"wttrp\000"
 3811      7000
 3812              	.LASF48:
 3813 0025 6E657874 		.ascii	"next\000"
 3813      00
 3814              	.LASF58:
 3815 002a 64656C74 		.ascii	"delta\000"
 3815      6100
 3816              	.LASF101:
 3817 0030 7264796D 		.ascii	"rdymsg\000"
 3817      736700
 3818              	.LASF16:
 3819 0037 75696E74 		.ascii	"uint64_t\000"
 3819      36345F74 
 3819      00
 3820              	.LASF71:
 3821 0040 6B65726E 		.ascii	"kernel_stats\000"
 3821      656C5F73 
 3821      74617473 
 3821      00
 3822              	.LASF5:
 3823 004d 5F5F7569 		.ascii	"__uint8_t\000"
 3823      6E74385F 
 3823      7400
 3824              	.LASF51:
 3825 0057 70726576 		.ascii	"prev\000"
 3825      00
 3826              	.LASF78:
 3827 005c 706F7274 		.ascii	"port_intctx\000"
 3827      5F696E74 
 3827      63747800 
 3828              	.LASF50:
 3829 0068 63685F74 		.ascii	"ch_threads_queue\000"
 3829      68726561 
 3829      64735F71 
 3829      75657565 
 3829      00
 3830              	.LASF63:
 3831 0079 73797374 		.ascii	"system_debug_t\000"
 3831      656D5F64 
 3831      65627567 
 3831      5F7400
 3832              	.LASF136:
 3833 0088 706F7274 		.ascii	"port_lock\000"
 3833      5F6C6F63 
 3833      6B00
 3834              	.LASF121:
 3835 0092 70657269 		.ascii	"period\000"
 3835      6F6400
 3836              	.LASF92:
 3837 0099 776F7273 		.ascii	"worst\000"
 3837      7400
 3838              	.LASF95:
 3839 009f 74696D65 		.ascii	"time_measurement_t\000"
 3839      5F6D6561 
ARM GAS  /tmp/cc02cOoa.s 			page 69


 3839      73757265 
 3839      6D656E74 
 3839      5F7400
 3840              	.LASF12:
 3841 00b2 6C6F6E67 		.ascii	"long long unsigned int\000"
 3841      206C6F6E 
 3841      6720756E 
 3841      7369676E 
 3841      65642069 
 3842              	.LASF102:
 3843 00c9 65786974 		.ascii	"exitcode\000"
 3843      636F6465 
 3843      00
 3844              	.LASF70:
 3845 00d2 6D61696E 		.ascii	"mainthread\000"
 3845      74687265 
 3845      616400
 3846              	.LASF105:
 3847 00dd 73656E74 		.ascii	"sentmsg\000"
 3847      6D736700 
 3848              	.LASF60:
 3849 00e5 76697274 		.ascii	"virtual_timers_list_t\000"
 3849      75616C5F 
 3849      74696D65 
 3849      72735F6C 
 3849      6973745F 
 3850              	.LASF164:
 3851 00fb 70776D5F 		.ascii	"pwm_lld_disable_channel\000"
 3851      6C6C645F 
 3851      64697361 
 3851      626C655F 
 3851      6368616E 
 3852              	.LASF59:
 3853 0113 66756E63 		.ascii	"func\000"
 3853      00
 3854              	.LASF84:
 3855 0118 42445452 		.ascii	"BDTR\000"
 3855      00
 3856              	.LASF18:
 3857 011d 72747469 		.ascii	"rttime_t\000"
 3857      6D655F74 
 3857      00
 3858              	.LASF163:
 3859 0126 70776D5F 		.ascii	"pwm_lld_enable_channel\000"
 3859      6C6C645F 
 3859      656E6162 
 3859      6C655F63 
 3859      68616E6E 
 3860              	.LASF144:
 3861 013d 70776D53 		.ascii	"pwmStart\000"
 3861      74617274 
 3861      00
 3862              	.LASF81:
 3863 0146 43434D52 		.ascii	"CCMR1\000"
 3863      3100
 3864              	.LASF82:
 3865 014c 43434D52 		.ascii	"CCMR2\000"
ARM GAS  /tmp/cc02cOoa.s 			page 70


 3865      3200
 3866              	.LASF86:
 3867 0152 43434D52 		.ascii	"CCMR3\000"
 3867      3300
 3868              	.LASF1:
 3869 0158 7369676E 		.ascii	"signed char\000"
 3869      65642063 
 3869      68617200 
 3870              	.LASF148:
 3871 0164 70776D43 		.ascii	"pwmChangePeriod\000"
 3871      68616E67 
 3871      65506572 
 3871      696F6400 
 3872              	.LASF126:
 3873 0174 70776D6D 		.ascii	"pwmmode_t\000"
 3873      6F64655F 
 3873      7400
 3874              	.LASF172:
 3875 017e 62617365 		.ascii	"basePri\000"
 3875      50726900 
 3876              	.LASF137:
 3877 0186 706F7274 		.ascii	"port_unlock\000"
 3877      5F756E6C 
 3877      6F636B00 
 3878              	.LASF38:
 3879 0192 6D736771 		.ascii	"msgqueue\000"
 3879      75657565 
 3879      00
 3880              	.LASF34:
 3881 019b 73746174 		.ascii	"state\000"
 3881      6500
 3882              	.LASF123:
 3883 01a1 6368616E 		.ascii	"channels\000"
 3883      6E656C73 
 3883      00
 3884              	.LASF7:
 3885 01aa 6C6F6E67 		.ascii	"long int\000"
 3885      20696E74 
 3885      00
 3886              	.LASF161:
 3887 01b3 70776D5F 		.ascii	"pwm_lld_start\000"
 3887      6C6C645F 
 3887      73746172 
 3887      7400
 3888              	.LASF167:
 3889 01c1 70776D5F 		.ascii	"pwm_lld_enable_channel_notification\000"
 3889      6C6C645F 
 3889      656E6162 
 3889      6C655F63 
 3889      68616E6E 
 3890              	.LASF20:
 3891 01e5 74737461 		.ascii	"tstate_t\000"
 3891      74655F74 
 3891      00
 3892              	.LASF142:
 3893 01ee 70776D49 		.ascii	"pwmInit\000"
 3893      6E697400 
ARM GAS  /tmp/cc02cOoa.s 			page 71


 3894              	.LASF43:
 3895 01f6 73746174 		.ascii	"stats\000"
 3895      7300
 3896              	.LASF125:
 3897 01fc 70776D63 		.ascii	"pwmcallback_t\000"
 3897      616C6C62 
 3897      61636B5F 
 3897      7400
 3898              	.LASF8:
 3899 020a 5F5F7569 		.ascii	"__uint32_t\000"
 3899      6E743332 
 3899      5F7400
 3900              	.LASF154:
 3901 0215 70776D44 		.ascii	"pwmDisablePeriodicNotification\000"
 3901      69736162 
 3901      6C655065 
 3901      72696F64 
 3901      69634E6F 
 3902              	.LASF75:
 3903 0234 72656761 		.ascii	"regarm_t\000"
 3903      726D5F74 
 3903      00
 3904              	.LASF69:
 3905 023d 76746C69 		.ascii	"vtlist\000"
 3905      737400
 3906              	.LASF64:
 3907 0244 63685F73 		.ascii	"ch_system_debug\000"
 3907      79737465 
 3907      6D5F6465 
 3907      62756700 
 3908              	.LASF37:
 3909 0254 77616974 		.ascii	"waiting\000"
 3909      696E6700 
 3910              	.LASF138:
 3911 025c 6F73616C 		.ascii	"osalSysLock\000"
 3911      5379734C 
 3911      6F636B00 
 3912              	.LASF113:
 3913 0268 6D757465 		.ascii	"mutex_t\000"
 3913      785F7400 
 3914              	.LASF73:
 3915 0270 73797369 		.ascii	"sysinterval_t\000"
 3915      6E746572 
 3915      76616C5F 
 3915      7400
 3916              	.LASF25:
 3917 027e 636E745F 		.ascii	"cnt_t\000"
 3917      7400
 3918              	.LASF0:
 3919 0284 756E7369 		.ascii	"unsigned int\000"
 3919      676E6564 
 3919      20696E74 
 3919      00
 3920              	.LASF168:
 3921 0291 474E5520 		.ascii	"GNU C 4.9.3 20150529 (prerelease) -mcpu=cortex-m4 -"
 3921      4320342E 
 3921      392E3320 
ARM GAS  /tmp/cc02cOoa.s 			page 72


 3921      32303135 
 3921      30353239 
 3922 02c4 6D666C6F 		.ascii	"mfloat-abi=hard -mfpu=fpv4-sp-d16 -mno-thumb-interw"
 3922      61742D61 
 3922      62693D68 
 3922      61726420 
 3922      2D6D6670 
 3923 02f7 6F726B20 		.ascii	"ork -mthumb -g -Os -fomit-frame-pointer -falign-fun"
 3923      2D6D7468 
 3923      756D6220 
 3923      2D67202D 
 3923      4F73202D 
 3924 032a 6374696F 		.ascii	"ctions=16 -ffunction-sections -fdata-sections -fno-"
 3924      6E733D31 
 3924      36202D66 
 3924      66756E63 
 3924      74696F6E 
 3925 035d 636F6D6D 		.ascii	"common -fsingle-precision-constant\000"
 3925      6F6E202D 
 3925      6673696E 
 3925      676C652D 
 3925      70726563 
 3926              	.LASF155:
 3927 0380 70776D45 		.ascii	"pwmEnableChannelNotification\000"
 3927      6E61626C 
 3927      65436861 
 3927      6E6E656C 
 3927      4E6F7469 
 3928              	.LASF106:
 3929 039d 77747365 		.ascii	"wtsemp\000"
 3929      6D7000
 3930              	.LASF165:
 3931 03a4 70776D5F 		.ascii	"pwm_lld_enable_periodic_notification\000"
 3931      6C6C645F 
 3931      656E6162 
 3931      6C655F70 
 3931      6572696F 
 3932              	.LASF46:
 3933 03c9 63685F74 		.ascii	"ch_thread\000"
 3933      68726561 
 3933      6400
 3934              	.LASF96:
 3935 03d3 6E5F6972 		.ascii	"n_irq\000"
 3935      7100
 3936              	.LASF28:
 3937 03d9 71756575 		.ascii	"queue\000"
 3937      6500
 3938              	.LASF151:
 3939 03df 77696474 		.ascii	"width\000"
 3939      6800
 3940              	.LASF42:
 3941 03e5 6D706F6F 		.ascii	"mpool\000"
 3941      6C00
 3942              	.LASF91:
 3943 03eb 62657374 		.ascii	"best\000"
 3943      00
 3944              	.LASF79:
ARM GAS  /tmp/cc02cOoa.s 			page 73


 3945 03f0 534D4352 		.ascii	"SMCR\000"
 3945      00
 3946              	.LASF100:
 3947 03f5 6B65726E 		.ascii	"kernel_stats_t\000"
 3947      656C5F73 
 3947      74617473 
 3947      5F7400
 3948              	.LASF32:
 3949 0404 6E616D65 		.ascii	"name\000"
 3949      00
 3950              	.LASF23:
 3951 0409 6D73675F 		.ascii	"msg_t\000"
 3951      7400
 3952              	.LASF93:
 3953 040f 6C617374 		.ascii	"last\000"
 3953      00
 3954              	.LASF47:
 3955 0414 63685F74 		.ascii	"ch_threads_list\000"
 3955      68726561 
 3955      64735F6C 
 3955      69737400 
 3956              	.LASF26:
 3957 0424 75636E74 		.ascii	"ucnt_t\000"
 3957      5F7400
 3958              	.LASF152:
 3959 042b 70776D44 		.ascii	"pwmDisableChannel\000"
 3959      69736162 
 3959      6C654368 
 3959      616E6E65 
 3959      6C00
 3960              	.LASF66:
 3961 043d 63685F73 		.ascii	"ch_system_t\000"
 3961      79737465 
 3961      6D5F7400 
 3962              	.LASF131:
 3963 0449 63616C6C 		.ascii	"callback\000"
 3963      6261636B 
 3963      00
 3964              	.LASF88:
 3965 0452 73746D33 		.ascii	"stm32_tim_t\000"
 3965      325F7469 
 3965      6D5F7400 
 3966              	.LASF99:
 3967 045e 6D5F6372 		.ascii	"m_crit_isr\000"
 3967      69745F69 
 3967      737200
 3968              	.LASF53:
 3969 0469 63685F72 		.ascii	"ch_ready_list\000"
 3969      65616479 
 3969      5F6C6973 
 3969      7400
 3970              	.LASF24:
 3971 0477 6576656E 		.ascii	"eventmask_t\000"
 3971      746D6173 
 3971      6B5F7400 
 3972              	.LASF173:
 3973 0483 70776D5F 		.ascii	"pwm_lld_disable_channel_notification\000"
ARM GAS  /tmp/cc02cOoa.s 			page 74


 3973      6C6C645F 
 3973      64697361 
 3973      626C655F 
 3973      6368616E 
 3974              	.LASF6:
 3975 04a8 5F5F696E 		.ascii	"__int32_t\000"
 3975      7433325F 
 3975      7400
 3976              	.LASF145:
 3977 04b2 70776D70 		.ascii	"pwmp\000"
 3977      00
 3978              	.LASF76:
 3979 04b7 73746B61 		.ascii	"stkalign_t\000"
 3979      6C69676E 
 3979      5F7400
 3980              	.LASF30:
 3981 04c2 6E657765 		.ascii	"newer\000"
 3981      7200
 3982              	.LASF118:
 3983 04c8 70776D73 		.ascii	"pwmstate_t\000"
 3983      74617465 
 3983      5F7400
 3984              	.LASF41:
 3985 04d3 7265616C 		.ascii	"realprio\000"
 3985      7072696F 
 3985      00
 3986              	.LASF147:
 3987 04dc 70776D53 		.ascii	"pwmStop\000"
 3987      746F7000 
 3988              	.LASF159:
 3989 04e4 5F737461 		.ascii	"_stats_stop_measure_crit_thd\000"
 3989      74735F73 
 3989      746F705F 
 3989      6D656173 
 3989      7572655F 
 3990              	.LASF74:
 3991 0501 73697A65 		.ascii	"sizetype\000"
 3991      74797065 
 3991      00
 3992              	.LASF44:
 3993 050a 74687265 		.ascii	"thread_reference_t\000"
 3993      61645F72 
 3993      65666572 
 3993      656E6365 
 3993      5F7400
 3994              	.LASF61:
 3995 051d 63685F76 		.ascii	"ch_virtual_timers_list\000"
 3995      69727475 
 3995      616C5F74 
 3995      696D6572 
 3995      735F6C69 
 3996              	.LASF169:
 3997 0534 2E2E2F2E 		.ascii	"../../modules/ChibiOS/os/hal/src/hal_pwm.c\000"
 3997      2E2F6D6F 
 3997      64756C65 
 3997      732F4368 
 3997      6962694F 
ARM GAS  /tmp/cc02cOoa.s 			page 75


 3998              	.LASF143:
 3999 055f 70776D4F 		.ascii	"pwmObjectInit\000"
 3999      626A6563 
 3999      74496E69 
 3999      7400
 4000              	.LASF160:
 4001 056d 70776D5F 		.ascii	"pwm_lld_init\000"
 4001      6C6C645F 
 4001      696E6974 
 4001      00
 4002              	.LASF77:
 4003 057a 706F7274 		.ascii	"port_context\000"
 4003      5F636F6E 
 4003      74657874 
 4003      00
 4004              	.LASF10:
 4005 0587 6C6F6E67 		.ascii	"long long int\000"
 4005      206C6F6E 
 4005      6720696E 
 4005      7400
 4006              	.LASF90:
 4007 0595 746D5F63 		.ascii	"tm_calibration_t\000"
 4007      616C6962 
 4007      72617469 
 4007      6F6E5F74 
 4007      00
 4008              	.LASF29:
 4009 05a6 7072696F 		.ascii	"prio\000"
 4009      00
 4010              	.LASF54:
 4011 05ab 63757272 		.ascii	"current\000"
 4011      656E7400 
 4012              	.LASF11:
 4013 05b3 5F5F7569 		.ascii	"__uint64_t\000"
 4013      6E743634 
 4013      5F7400
 4014              	.LASF94:
 4015 05be 63756D75 		.ascii	"cumulative\000"
 4015      6C617469 
 4015      766500
 4016              	.LASF166:
 4017 05c9 70776D5F 		.ascii	"pwm_lld_disable_periodic_notification\000"
 4017      6C6C645F 
 4017      64697361 
 4017      626C655F 
 4017      70657269 
 4018              	.LASF21:
 4019 05ef 74726566 		.ascii	"trefs_t\000"
 4019      735F7400 
 4020              	.LASF36:
 4021 05f7 72656673 		.ascii	"refs\000"
 4021      00
 4022              	.LASF56:
 4023 05fc 76697274 		.ascii	"virtual_timer_t\000"
 4023      75616C5F 
 4023      74696D65 
 4023      725F7400 
ARM GAS  /tmp/cc02cOoa.s 			page 76


 4024              	.LASF117:
 4025 060c 50574D5F 		.ascii	"PWM_READY\000"
 4025      52454144 
 4025      5900
 4026              	.LASF22:
 4027 0616 74707269 		.ascii	"tprio_t\000"
 4027      6F5F7400 
 4028              	.LASF97:
 4029 061e 6E5F6374 		.ascii	"n_ctxswc\000"
 4029      78737763 
 4029      00
 4030              	.LASF114:
 4031 0627 5F426F6F 		.ascii	"_Bool\000"
 4031      6C00
 4032              	.LASF14:
 4033 062d 696E7433 		.ascii	"int32_t\000"
 4033      325F7400 
 4034              	.LASF2:
 4035 0635 756E7369 		.ascii	"unsigned char\000"
 4035      676E6564 
 4035      20636861 
 4035      7200
 4036              	.LASF157:
 4037 0643 49544D5F 		.ascii	"ITM_RxBuffer\000"
 4037      52784275 
 4037      66666572 
 4037      00
 4038              	.LASF3:
 4039 0650 73686F72 		.ascii	"short int\000"
 4039      7420696E 
 4039      7400
 4040              	.LASF62:
 4041 065a 6C617374 		.ascii	"lasttime\000"
 4041      74696D65 
 4041      00
 4042              	.LASF108:
 4043 0663 65776D61 		.ascii	"ewmask\000"
 4043      736B00
 4044              	.LASF67:
 4045 066a 63685F73 		.ascii	"ch_system\000"
 4045      79737465 
 4045      6D00
 4046              	.LASF128:
 4047 0674 70776D63 		.ascii	"pwmchnmsk_t\000"
 4047      686E6D73 
 4047      6B5F7400 
 4048              	.LASF146:
 4049 0680 5F5F6675 		.ascii	"__func__\000"
 4049      6E635F5F 
 4049      00
 4050              	.LASF133:
 4051 0689 66726571 		.ascii	"frequency\000"
 4051      75656E63 
 4051      7900
 4052              	.LASF140:
 4053 0693 63685379 		.ascii	"chSysLock\000"
 4053      734C6F63 
ARM GAS  /tmp/cc02cOoa.s 			page 77


 4053      6B00
 4054              	.LASF139:
 4055 069d 6F73616C 		.ascii	"osalSysUnlock\000"
 4055      53797355 
 4055      6E6C6F63 
 4055      6B00
 4056              	.LASF150:
 4057 06ab 6368616E 		.ascii	"channel\000"
 4057      6E656C00 
 4058              	.LASF57:
 4059 06b3 63685F76 		.ascii	"ch_virtual_timer\000"
 4059      69727475 
 4059      616C5F74 
 4059      696D6572 
 4059      00
 4060              	.LASF109:
 4061 06c4 63685F73 		.ascii	"ch_semaphore\000"
 4061      656D6170 
 4061      686F7265 
 4061      00
 4062              	.LASF87:
 4063 06d1 43435852 		.ascii	"CCXR\000"
 4063      00
 4064              	.LASF162:
 4065 06d6 70776D5F 		.ascii	"pwm_lld_stop\000"
 4065      6C6C645F 
 4065      73746F70 
 4065      00
 4066              	.LASF15:
 4067 06e3 75696E74 		.ascii	"uint32_t\000"
 4067      33325F74 
 4067      00
 4068              	.LASF107:
 4069 06ec 77746D74 		.ascii	"wtmtxp\000"
 4069      787000
 4070              	.LASF122:
 4071 06f3 656E6162 		.ascii	"enabled\000"
 4071      6C656400 
 4072              	.LASF111:
 4073 06fb 6F776E65 		.ascii	"owner\000"
 4073      7200
 4074              	.LASF9:
 4075 0701 6C6F6E67 		.ascii	"long unsigned int\000"
 4075      20756E73 
 4075      69676E65 
 4075      6420696E 
 4075      7400
 4076              	.LASF33:
 4077 0713 77616261 		.ascii	"wabase\000"
 4077      736500
 4078              	.LASF116:
 4079 071a 50574D5F 		.ascii	"PWM_STOP\000"
 4079      53544F50 
 4079      00
 4080              	.LASF112:
 4081 0723 63686172 		.ascii	"char\000"
 4081      00
ARM GAS  /tmp/cc02cOoa.s 			page 78


 4082              	.LASF31:
 4083 0728 6F6C6465 		.ascii	"older\000"
 4083      7200
 4084              	.LASF130:
 4085 072e 6D6F6465 		.ascii	"mode\000"
 4085      00
 4086              	.LASF120:
 4087 0733 636F6E66 		.ascii	"config\000"
 4087      696700
 4088              	.LASF85:
 4089 073a 444D4152 		.ascii	"DMAR\000"
 4089      00
 4090              	.LASF27:
 4091 073f 74687265 		.ascii	"thread_t\000"
 4091      61645F74 
 4091      00
 4092              	.LASF83:
 4093 0748 43434552 		.ascii	"CCER\000"
 4093      00
 4094              	.LASF72:
 4095 074d 73797374 		.ascii	"systime_t\000"
 4095      696D655F 
 4095      7400
 4096              	.LASF55:
 4097 0757 76746675 		.ascii	"vtfunc_t\000"
 4097      6E635F74 
 4097      00
 4098              	.LASF171:
 4099 0760 5F5F7365 		.ascii	"__set_BASEPRI\000"
 4099      745F4241 
 4099      53455052 
 4099      4900
 4100              	.LASF153:
 4101 076e 70776D45 		.ascii	"pwmEnablePeriodicNotification\000"
 4101      6E61626C 
 4101      65506572 
 4101      696F6469 
 4101      634E6F74 
 4102              	.LASF65:
 4103 078c 70616E69 		.ascii	"panic_msg\000"
 4103      635F6D73 
 4103      6700
 4104              	.LASF89:
 4105 0796 6F666673 		.ascii	"offset\000"
 4105      657400
 4106              	.LASF110:
 4107 079d 63685F6D 		.ascii	"ch_mutex\000"
 4107      75746578 
 4107      00
 4108              	.LASF4:
 4109 07a6 73686F72 		.ascii	"short unsigned int\000"
 4109      7420756E 
 4109      7369676E 
 4109      65642069 
 4109      6E7400
 4110              	.LASF170:
 4111 07b9 2F686F6D 		.ascii	"/home/kozinalexey/f4by/ardupilot/build/F4BY\000"
ARM GAS  /tmp/cc02cOoa.s 			page 79


 4111      652F6B6F 
 4111      7A696E61 
 4111      6C657865 
 4111      792F6634 
 4112              	.LASF132:
 4113 07e5 50574D43 		.ascii	"PWMChannelConfig\000"
 4113      68616E6E 
 4113      656C436F 
 4113      6E666967 
 4113      00
 4114              	.LASF17:
 4115 07f6 7274636E 		.ascii	"rtcnt_t\000"
 4115      745F7400 
 4116              	.LASF135:
 4117 07fe 50574D43 		.ascii	"PWMConfig\000"
 4117      6F6E6669 
 4117      6700
 4118              	.LASF49:
 4119 0808 74687265 		.ascii	"threads_queue_t\000"
 4119      6164735F 
 4119      71756575 
 4119      655F7400 
 4120              	.LASF39:
 4121 0818 6570656E 		.ascii	"epending\000"
 4121      64696E67 
 4121      00
 4122              	.LASF68:
 4123 0821 726C6973 		.ascii	"rlist\000"
 4123      7400
 4124              	.LASF13:
 4125 0827 75696E74 		.ascii	"uint8_t\000"
 4125      385F7400 
 4126              	.LASF156:
 4127 082f 70776D44 		.ascii	"pwmDisableChannelNotification\000"
 4127      69736162 
 4127      6C654368 
 4127      616E6E65 
 4127      6C4E6F74 
 4128              	.LASF119:
 4129 084d 50574D44 		.ascii	"PWMDriver\000"
 4129      72697665 
 4129      7200
 4130              	.LASF35:
 4131 0857 666C6167 		.ascii	"flags\000"
 4131      7300
 4132              	.LASF158:
 4133 085d 5F737461 		.ascii	"_stats_start_measure_crit_thd\000"
 4133      74735F73 
 4133      74617274 
 4133      5F6D6561 
 4133      73757265 
 4134              	.LASF129:
 4135 087b 70776D63 		.ascii	"pwmcnt_t\000"
 4135      6E745F74 
 4135      00
 4136              	.LASF103:
 4137 0884 77746F62 		.ascii	"wtobjp\000"
ARM GAS  /tmp/cc02cOoa.s 			page 80


 4137      6A7000
 4138              	.LASF45:
 4139 088b 74687265 		.ascii	"threads_list_t\000"
 4139      6164735F 
 4139      6C697374 
 4139      5F7400
 4140              	.LASF19:
 4141 089a 746D6F64 		.ascii	"tmode_t\000"
 4141      655F7400 
 4142              	.LASF141:
 4143 08a2 63685379 		.ascii	"chSysUnlock\000"
 4143      73556E6C 
 4143      6F636B00 
 4144              	.LASF124:
 4145 08ae 636C6F63 		.ascii	"clock\000"
 4145      6B00
 4146              	.LASF40:
 4147 08b4 6D74786C 		.ascii	"mtxlist\000"
 4147      69737400 
 4148              	.LASF115:
 4149 08bc 50574D5F 		.ascii	"PWM_UNINIT\000"
 4149      554E494E 
 4149      495400
 4150              	.LASF98:
 4151 08c7 6D5F6372 		.ascii	"m_crit_thd\000"
 4151      69745F74 
 4151      686400
 4152              	.LASF149:
 4153 08d2 70776D45 		.ascii	"pwmEnableChannel\000"
 4153      6E61626C 
 4153      65436861 
 4153      6E6E656C 
 4153      00
 4154              	.LASF134:
 4155 08e3 64696572 		.ascii	"dier\000"
 4155      00
 4156              		.ident	"GCC: (15:4.9.3+svn231177-1) 4.9.3 20150529 (prerelease)"
ARM GAS  /tmp/cc02cOoa.s 			page 81


DEFINED SYMBOLS
                            *ABS*:0000000000000000 hal_pwm.c
     /tmp/cc02cOoa.s:21     .text.chSysLock:0000000000000000 $t
     /tmp/cc02cOoa.s:25     .text.chSysLock:0000000000000000 chSysLock
     /tmp/cc02cOoa.s:54     .text.chSysUnlock:0000000000000000 $t
     /tmp/cc02cOoa.s:58     .text.chSysUnlock:0000000000000000 chSysUnlock
     /tmp/cc02cOoa.s:88     .text.pwmInit:0000000000000000 $t
     /tmp/cc02cOoa.s:93     .text.pwmInit:0000000000000000 pwmInit
     /tmp/cc02cOoa.s:108    .text.pwmObjectInit:0000000000000000 $t
     /tmp/cc02cOoa.s:113    .text.pwmObjectInit:0000000000000000 pwmObjectInit
     /tmp/cc02cOoa.s:136    .text.pwmStart:0000000000000000 $t
     /tmp/cc02cOoa.s:141    .text.pwmStart:0000000000000000 pwmStart
     /tmp/cc02cOoa.s:199    .text.pwmStop:0000000000000000 $t
     /tmp/cc02cOoa.s:204    .text.pwmStop:0000000000000000 pwmStop
     /tmp/cc02cOoa.s:253    .text.pwmChangePeriod:0000000000000000 $t
     /tmp/cc02cOoa.s:258    .text.pwmChangePeriod:0000000000000000 pwmChangePeriod
     /tmp/cc02cOoa.s:306    .text.pwmEnableChannel:0000000000000000 $t
     /tmp/cc02cOoa.s:311    .text.pwmEnableChannel:0000000000000000 pwmEnableChannel
     /tmp/cc02cOoa.s:365    .text.pwmDisableChannel:0000000000000000 $t
     /tmp/cc02cOoa.s:370    .text.pwmDisableChannel:0000000000000000 pwmDisableChannel
     /tmp/cc02cOoa.s:422    .text.pwmEnablePeriodicNotification:0000000000000000 $t
     /tmp/cc02cOoa.s:427    .text.pwmEnablePeriodicNotification:0000000000000000 pwmEnablePeriodicNotification
     /tmp/cc02cOoa.s:468    .text.pwmDisablePeriodicNotification:0000000000000000 $t
     /tmp/cc02cOoa.s:473    .text.pwmDisablePeriodicNotification:0000000000000000 pwmDisablePeriodicNotification
     /tmp/cc02cOoa.s:514    .text.pwmEnableChannelNotification:0000000000000000 $t
     /tmp/cc02cOoa.s:519    .text.pwmEnableChannelNotification:0000000000000000 pwmEnableChannelNotification
     /tmp/cc02cOoa.s:566    .text.pwmDisableChannelNotification:0000000000000000 $t
     /tmp/cc02cOoa.s:571    .text.pwmDisableChannelNotification:0000000000000000 pwmDisableChannelNotification
                     .debug_frame:0000000000000010 $d

UNDEFINED SYMBOLS
_stats_start_measure_crit_thd
_stats_stop_measure_crit_thd
pwm_lld_init
pwm_lld_start
pwm_lld_stop
pwm_lld_enable_channel
pwm_lld_disable_channel
pwm_lld_enable_periodic_notification
pwm_lld_disable_periodic_notification
pwm_lld_enable_channel_notification
pwm_lld_disable_channel_notification
