ARM GAS  /tmp/ccFpxhY7.s 			page 1


   1              		.syntax unified
   2              		.cpu cortex-m4
   3              		.eabi_attribute 27, 1
   4              		.eabi_attribute 28, 1
   5              		.fpu fpv4-sp-d16
   6              		.eabi_attribute 20, 1
   7              		.eabi_attribute 21, 1
   8              		.eabi_attribute 23, 3
   9              		.eabi_attribute 24, 1
  10              		.eabi_attribute 25, 1
  11              		.eabi_attribute 26, 1
  12              		.eabi_attribute 30, 4
  13              		.eabi_attribute 34, 1
  14              		.eabi_attribute 18, 4
  15              		.thumb
  16              		.file	"hal_pal_lld.c"
  17              		.text
  18              	.Ltext0:
  19              		.cfi_sections	.debug_frame
  20              		.section	.text._pal_lld_init,"ax",%progbits
  21              		.align	1
  22              		.global	_pal_lld_init
  23              		.thumb
  24              		.thumb_func
  25              		.type	_pal_lld_init, %function
  26              	_pal_lld_init:
  27              	.LFB323:
  28              		.file 1 "../../modules/ChibiOS/os/hal/ports/STM32/LLD/GPIOv2/hal_pal_lld.c"
  29              		.loc 1 65 0
  30              		.cfi_startproc
  31              		@ args = 0, pretend = 0, frame = 0
  32              		@ frame_needed = 0, uses_anonymous_args = 0
  33              		@ link register save eliminated.
  34              	.LVL0:
  35              		.loc 1 65 0
  36 0000 0023     		movs	r3, #0
  37              	.LVL1:
  38              	.L2:
  39              		.loc 1 71 0 discriminator 3
  40 0002 044A     		ldr	r2, .L5
  41 0004 0021     		movs	r1, #0
  42 0006 9950     		str	r1, [r3, r2]
  43 0008 1A44     		add	r2, r2, r3
  44 000a 0833     		adds	r3, r3, #8
  45              		.loc 1 70 0 discriminator 3
  46 000c 802B     		cmp	r3, #128
  47              		.loc 1 71 0 discriminator 3
  48 000e 5160     		str	r1, [r2, #4]
  49              		.loc 1 70 0 discriminator 3
  50 0010 F7D1     		bne	.L2
  51              		.loc 1 74 0
  52 0012 7047     		bx	lr
  53              	.L6:
  54              		.align	2
  55              	.L5:
  56 0014 00000000 		.word	.LANCHOR0
  57              		.cfi_endproc
ARM GAS  /tmp/ccFpxhY7.s 			page 2


  58              	.LFE323:
  59              		.size	_pal_lld_init, .-_pal_lld_init
  60              		.section	.text._pal_lld_setgroupmode,"ax",%progbits
  61              		.align	1
  62              		.global	_pal_lld_setgroupmode
  63              		.thumb
  64              		.thumb_func
  65              		.type	_pal_lld_setgroupmode, %function
  66              	_pal_lld_setgroupmode:
  67              	.LFB324:
  68              		.loc 1 91 0
  69              		.cfi_startproc
  70              		@ args = 0, pretend = 0, frame = 0
  71              		@ frame_needed = 0, uses_anonymous_args = 0
  72              	.LVL2:
  73 0000 2DE9F04F 		push	{r4, r5, r6, r7, r8, r9, r10, fp, lr}
  74              		.cfi_def_cfa_offset 36
  75              		.cfi_offset 4, -36
  76              		.cfi_offset 5, -32
  77              		.cfi_offset 6, -28
  78              		.cfi_offset 7, -24
  79              		.cfi_offset 8, -20
  80              		.cfi_offset 9, -16
  81              		.cfi_offset 10, -12
  82              		.cfi_offset 11, -8
  83              		.cfi_offset 14, -4
  84              		.loc 1 93 0
  85 0004 02F00309 		and	r9, r2, #3
  86              	.LVL3:
  87              		.loc 1 94 0
  88 0008 C2F38008 		ubfx	r8, r2, #2, #1
  89              	.LVL4:
  90              		.loc 1 95 0
  91 000c C2F3C10C 		ubfx	ip, r2, #3, #2
  92              	.LVL5:
  93              		.loc 1 96 0
  94 0010 C2F3411E 		ubfx	lr, r2, #5, #2
  95              	.LVL6:
  96              		.loc 1 93 0
  97 0014 4F46     		mov	r7, r9
  98              		.loc 1 97 0
  99 0016 C2F3C312 		ubfx	r2, r2, #7, #4
 100              	.LVL7:
 101              		.loc 1 98 0
 102 001a 0025     		movs	r5, #0
 103              	.LVL8:
 104              	.L14:
 105              		.loc 1 100 0
 106 001c CB07     		lsls	r3, r1, #31
 107 001e 4AD5     		bpl	.L8
 108              	.LBB2:
 109              		.loc 1 103 0
 110 0020 05F00704 		and	r4, r5, #7
 111 0024 A400     		lsls	r4, r4, #2
 112              		.loc 1 106 0
 113 0026 0F23     		movs	r3, #15
 114 0028 03FA04FB 		lsl	fp, r3, r4
ARM GAS  /tmp/ccFpxhY7.s 			page 3


 115              		.loc 1 103 0
 116 002c 02FA04F6 		lsl	r6, r2, r4
 117              	.LVL9:
 118              		.loc 1 104 0
 119 0030 0123     		movs	r3, #1
 120              		.loc 1 107 0
 121 0032 4468     		ldr	r4, [r0, #4]
 122              		.loc 1 104 0
 123 0034 AB40     		lsls	r3, r3, r5
 124              	.LVL10:
 125              		.loc 1 107 0
 126 0036 24EA0303 		bic	r3, r4, r3
 127              	.LVL11:
 128 003a 43EA0803 		orr	r3, r3, r8
 129 003e 4360     		str	r3, [r0, #4]
 130 0040 4FEA450A 		lsl	r10, r5, #1
 131              		.loc 1 105 0
 132 0044 0324     		movs	r4, #3
 133              		.loc 1 108 0
 134 0046 8368     		ldr	r3, [r0, #8]
 135              		.loc 1 105 0
 136 0048 04FA0AF4 		lsl	r4, r4, r10
 137              	.LVL12:
 138              		.loc 1 108 0
 139 004c E443     		mvns	r4, r4
 140              	.LVL13:
 141 004e 2340     		ands	r3, r3, r4
 142 0050 43EA0C03 		orr	r3, r3, ip
 143 0054 8360     		str	r3, [r0, #8]
 144              		.loc 1 109 0
 145 0056 C368     		ldr	r3, [r0, #12]
 146 0058 04EA030A 		and	r10, r4, r3
 147 005c 4AEA0E03 		orr	r3, r10, lr
 148              		.loc 1 110 0
 149 0060 B9F1020F 		cmp	r9, #2
 150              		.loc 1 109 0
 151 0064 C360     		str	r3, [r0, #12]
 152 0066 6FEA0B03 		mvn	r3, fp
 153              		.loc 1 110 0
 154 006a 13D1     		bne	.L9
 155              		.loc 1 113 0
 156 006c 072D     		cmp	r5, #7
 157              		.loc 1 114 0
 158 006e 95BF     		itete	ls
 159 0070 D0F820A0 		ldrls	r10, [r0, #32]
 160              		.loc 1 116 0
 161 0074 D0F824A0 		ldrhi	r10, [r0, #36]
 162              		.loc 1 114 0
 163 0078 03EA0A03 		andls	r3, r3, r10
 164              		.loc 1 116 0
 165 007c 03EA0A03 		andhi	r3, r3, r10
 166              		.loc 1 114 0
 167 0080 95BF     		itete	ls
 168 0082 1E43     		orrls	r6, r6, r3
 169              	.LVL14:
 170              		.loc 1 116 0
 171 0084 1E43     		orrhi	r6, r6, r3
ARM GAS  /tmp/ccFpxhY7.s 			page 4


 172              		.loc 1 114 0
 173 0086 0662     		strls	r6, [r0, #32]
 174              		.loc 1 116 0
 175 0088 4662     		strhi	r6, [r0, #36]
 176              		.loc 1 117 0
 177 008a 0368     		ldr	r3, [r0]
 178 008c 1C40     		ands	r4, r4, r3
 179              	.LVL15:
 180 008e 3C43     		orrs	r4, r4, r7
 181 0090 0460     		str	r4, [r0]
 182 0092 10E0     		b	.L8
 183              	.LVL16:
 184              	.L9:
 185              		.loc 1 122 0
 186 0094 D0F800A0 		ldr	r10, [r0]
 187 0098 04EA0A04 		and	r4, r4, r10
 188 009c 3C43     		orrs	r4, r4, r7
 189              		.loc 1 123 0
 190 009e 072D     		cmp	r5, #7
 191              		.loc 1 122 0
 192 00a0 0460     		str	r4, [r0]
 193              		.loc 1 124 0
 194 00a2 95BF     		itete	ls
 195 00a4 046A     		ldrls	r4, [r0, #32]
 196              		.loc 1 126 0
 197 00a6 446A     		ldrhi	r4, [r0, #36]
 198              		.loc 1 124 0
 199 00a8 2340     		andls	r3, r3, r4
 200              		.loc 1 126 0
 201 00aa 2340     		andhi	r3, r3, r4
 202              		.loc 1 124 0
 203 00ac 95BF     		itete	ls
 204 00ae 1E43     		orrls	r6, r6, r3
 205              	.LVL17:
 206              		.loc 1 126 0
 207 00b0 1E43     		orrhi	r6, r6, r3
 208              		.loc 1 124 0
 209 00b2 0662     		strls	r6, [r0, #32]
 210              		.loc 1 126 0
 211 00b4 4662     		strhi	r6, [r0, #36]
 212              	.LVL18:
 213              	.L8:
 214              	.LBE2:
 215              		.loc 1 130 0
 216 00b6 4908     		lsrs	r1, r1, #1
 217              	.LVL19:
 218 00b8 08D0     		beq	.L7
 219              		.loc 1 132 0
 220 00ba 4FEA4808 		lsl	r8, r8, #1
 221              	.LVL20:
 222              		.loc 1 133 0
 223 00be 4FEA8C0C 		lsl	ip, ip, #2
 224              	.LVL21:
 225              		.loc 1 134 0
 226 00c2 4FEA8E0E 		lsl	lr, lr, #2
 227              	.LVL22:
 228              		.loc 1 135 0
ARM GAS  /tmp/ccFpxhY7.s 			page 5


 229 00c6 BF00     		lsls	r7, r7, #2
 230              	.LVL23:
 231              		.loc 1 136 0
 232 00c8 0135     		adds	r5, r5, #1
 233              	.LVL24:
 234              		.loc 1 137 0
 235 00ca A7E7     		b	.L14
 236              	.L7:
 237 00cc BDE8F08F 		pop	{r4, r5, r6, r7, r8, r9, r10, fp, pc}
 238              		.cfi_endproc
 239              	.LFE324:
 240              		.size	_pal_lld_setgroupmode, .-_pal_lld_setgroupmode
 241              		.section	.text._pal_lld_enablepadevent,"ax",%progbits
 242              		.align	1
 243              		.global	_pal_lld_enablepadevent
 244              		.thumb
 245              		.thumb_func
 246              		.type	_pal_lld_enablepadevent, %function
 247              	_pal_lld_enablepadevent:
 248              	.LFB325:
 249              		.loc 1 153 0
 250              		.cfi_startproc
 251              		@ args = 0, pretend = 0, frame = 0
 252              		@ frame_needed = 0, uses_anonymous_args = 0
 253              	.LVL25:
 254 0000 70B5     		push	{r4, r5, r6, lr}
 255              		.cfi_def_cfa_offset 16
 256              		.cfi_offset 4, -16
 257              		.cfi_offset 5, -12
 258              		.cfi_offset 6, -8
 259              		.cfi_offset 14, -4
 260              		.loc 1 158 0
 261 0002 0124     		movs	r4, #1
 262 0004 8C40     		lsls	r4, r4, r1
 263              	.LVL26:
 264              		.loc 1 173 0
 265 0006 01F00303 		and	r3, r1, #3
 266 000a 21F00301 		bic	r1, r1, #3
 267              	.LVL27:
 268 000e 01F18041 		add	r1, r1, #1073741824
 269 0012 01F59C31 		add	r1, r1, #79872
 270 0016 9B00     		lsls	r3, r3, #2
 271              	.LVL28:
 272              		.loc 1 181 0
 273 0018 8E68     		ldr	r6, [r1, #8]
 274              		.loc 1 174 0
 275 001a 0F25     		movs	r5, #15
 276 001c 9D40     		lsls	r5, r5, r3
 277              		.loc 1 178 0
 278 001e C0F38320 		ubfx	r0, r0, #10, #4
 279              	.LVL29:
 280              		.loc 1 181 0
 281 0022 9840     		lsls	r0, r0, r3
 282 0024 26EA0505 		bic	r5, r6, r5
 283 0028 0D4B     		ldr	r3, .L25
 284              	.LVL30:
 285 002a 2843     		orrs	r0, r0, r5
ARM GAS  /tmp/ccFpxhY7.s 			page 6


 286 002c 8860     		str	r0, [r1, #8]
 287              		.loc 1 199 0
 288 002e 9868     		ldr	r0, [r3, #8]
 289              		.loc 1 198 0
 290 0030 12F0010F 		tst	r2, #1
 291 0034 6FEA0401 		mvn	r1, r4
 292              		.loc 1 199 0
 293 0038 14BF     		ite	ne
 294 003a 2043     		orrne	r0, r0, r4
 295              		.loc 1 201 0
 296 003c 0840     		andeq	r0, r0, r1
 297 003e 9860     		str	r0, [r3, #8]
 298 0040 074B     		ldr	r3, .L25
 299              		.loc 1 202 0
 300 0042 12F0020F 		tst	r2, #2
 301              		.loc 1 203 0
 302 0046 DA68     		ldr	r2, [r3, #12]
 303              	.LVL31:
 304 0048 14BF     		ite	ne
 305 004a 2243     		orrne	r2, r2, r4
 306              		.loc 1 205 0
 307 004c 0A40     		andeq	r2, r2, r1
 308 004e DA60     		str	r2, [r3, #12]
 309              		.loc 1 208 0
 310 0050 1A68     		ldr	r2, [r3]
 311 0052 1443     		orrs	r4, r4, r2
 312              	.LVL32:
 313 0054 1C60     		str	r4, [r3]
 314              		.loc 1 209 0
 315 0056 5A68     		ldr	r2, [r3, #4]
 316 0058 0A40     		ands	r2, r2, r1
 317 005a 5A60     		str	r2, [r3, #4]
 318 005c 70BD     		pop	{r4, r5, r6, pc}
 319              	.L26:
 320 005e 00BF     		.align	2
 321              	.L25:
 322 0060 003C0140 		.word	1073822720
 323              		.cfi_endproc
 324              	.LFE325:
 325              		.size	_pal_lld_enablepadevent, .-_pal_lld_enablepadevent
 326              		.section	.text._pal_lld_disablepadevent,"ax",%progbits
 327              		.align	1
 328              		.global	_pal_lld_disablepadevent
 329              		.thumb
 330              		.thumb_func
 331              		.type	_pal_lld_disablepadevent, %function
 332              	_pal_lld_disablepadevent:
 333              	.LFB326:
 334              		.loc 1 222 0
 335              		.cfi_startproc
 336              		@ args = 0, pretend = 0, frame = 0
 337              		@ frame_needed = 0, uses_anonymous_args = 0
 338              	.LVL33:
 339              		.loc 1 229 0
 340 0000 114B     		ldr	r3, .L32
 341              		.loc 1 222 0
 342 0002 70B5     		push	{r4, r5, r6, lr}
ARM GAS  /tmp/ccFpxhY7.s 			page 7


 343              		.cfi_def_cfa_offset 16
 344              		.cfi_offset 4, -16
 345              		.cfi_offset 5, -12
 346              		.cfi_offset 6, -8
 347              		.cfi_offset 14, -4
 348              		.loc 1 229 0
 349 0004 9D68     		ldr	r5, [r3, #8]
 350              	.LVL34:
 351              		.loc 1 230 0
 352 0006 D868     		ldr	r0, [r3, #12]
 353              	.LVL35:
 354              		.loc 1 234 0
 355 0008 0122     		movs	r2, #1
 356 000a 8A40     		lsls	r2, r2, r1
 357              	.LVL36:
 358              		.loc 1 237 0
 359 000c 40EA0504 		orr	r4, r0, r5
 360 0010 2242     		tst	r2, r4
 361 0012 17D0     		beq	.L27
 362              	.LBB3:
 363              		.loc 1 241 0
 364 0014 8C08     		lsrs	r4, r1, #2
 365              	.LVL37:
 366              		.loc 1 248 0
 367 0016 0D4E     		ldr	r6, .L32+4
 368 0018 0234     		adds	r4, r4, #2
 369              	.LVL38:
 370 001a 56F82440 		ldr	r4, [r6, r4, lsl #2]
 371              	.LVL39:
 372              		.loc 1 261 0
 373 001e 1E68     		ldr	r6, [r3]
 374 0020 D443     		mvns	r4, r2
 375 0022 2640     		ands	r6, r6, r4
 376 0024 1E60     		str	r6, [r3]
 377              		.loc 1 262 0
 378 0026 5E68     		ldr	r6, [r3, #4]
 379              		.loc 1 263 0
 380 0028 2540     		ands	r5, r5, r4
 381              	.LVL40:
 382              		.loc 1 262 0
 383 002a 2640     		ands	r6, r6, r4
 384              		.loc 1 264 0
 385 002c 2040     		ands	r0, r0, r4
 386              	.LVL41:
 387              		.loc 1 262 0
 388 002e 5E60     		str	r6, [r3, #4]
 389              		.loc 1 263 0
 390 0030 9D60     		str	r5, [r3, #8]
 391              		.loc 1 264 0
 392 0032 D860     		str	r0, [r3, #12]
 393              		.loc 1 265 0
 394 0034 5A61     		str	r2, [r3, #20]
 395              		.loc 1 270 0
 396 0036 064B     		ldr	r3, .L32+8
 397 0038 0022     		movs	r2, #0
 398              	.LVL42:
 399 003a 43F83120 		str	r2, [r3, r1, lsl #3]
ARM GAS  /tmp/ccFpxhY7.s 			page 8


 400 003e 03EBC103 		add	r3, r3, r1, lsl #3
 401 0042 5A60     		str	r2, [r3, #4]
 402              	.LVL43:
 403              	.L27:
 404 0044 70BD     		pop	{r4, r5, r6, pc}
 405              	.L33:
 406 0046 00BF     		.align	2
 407              	.L32:
 408 0048 003C0140 		.word	1073822720
 409 004c 00380140 		.word	1073821696
 410 0050 00000000 		.word	.LANCHOR0
 411              	.LBE3:
 412              		.cfi_endproc
 413              	.LFE326:
 414              		.size	_pal_lld_disablepadevent, .-_pal_lld_disablepadevent
 415              		.global	_pal_events
 416              		.section	.bss._pal_events,"aw",%nobits
 417              		.align	2
 418              		.set	.LANCHOR0,. + 0
 419              		.type	_pal_events, %object
 420              		.size	_pal_events, 128
 421              	_pal_events:
 422 0000 00000000 		.space	128
 422      00000000 
 422      00000000 
 422      00000000 
 422      00000000 
 423              		.text
 424              	.Letext0:
 425              		.file 2 "/usr/lib/gcc/arm-none-eabi/4.9.3/include/stddef.h"
 426              		.file 3 "/usr/include/newlib/machine/_default_types.h"
 427              		.file 4 "/usr/include/newlib/sys/_stdint.h"
 428              		.file 5 "../../modules/ChibiOS/os/common/ports/ARMCMx/compilers/GCC/chtypes.h"
 429              		.file 6 "../../modules/ChibiOS/os/rt/include/chsystypes.h"
 430              		.file 7 "../../modules/ChibiOS/os/rt/include/chschd.h"
 431              		.file 8 "../../modules/ChibiOS/os/rt/include/chtime.h"
 432              		.file 9 "../../modules/ChibiOS/os/common/ext/ST/STM32F4xx/stm32f407xx.h"
 433              		.file 10 "../../modules/ChibiOS/os/common/ports/ARMCMx/chcore.h"
 434              		.file 11 "../../modules/ChibiOS/os/common/ports/ARMCMx/chcore_v7m.h"
 435              		.file 12 "../../modules/ChibiOS/os/rt/include/chtm.h"
 436              		.file 13 "../../modules/ChibiOS/os/rt/include/chstats.h"
 437              		.file 14 "../../modules/ChibiOS/os/rt/include/chsem.h"
 438              		.file 15 "../../modules/ChibiOS/os/rt/include/chmtx.h"
 439              		.file 16 "../../modules/ChibiOS/os/hal/include/hal_pal.h"
 440              		.file 17 "../../modules/ChibiOS/os/hal/ports/STM32/LLD/GPIOv2/stm32_gpio.h"
 441              		.file 18 "../../modules/ChibiOS/os/hal/ports/STM32/LLD/GPIOv2/hal_pal_lld.h"
 442              		.file 19 "../../modules/ChibiOS/os/common/ext/ARM/CMSIS/Core/Include/core_cm4.h"
 443              		.section	.debug_info,"",%progbits
 444              	.Ldebug_info0:
 445 0000 7B0C0000 		.4byte	0xc7b
 446 0004 0400     		.2byte	0x4
 447 0006 00000000 		.4byte	.Ldebug_abbrev0
 448 000a 04       		.byte	0x4
 449 000b 01       		.uleb128 0x1
 450 000c 19020000 		.4byte	.LASF157
 451 0010 01       		.byte	0x1
 452 0011 3A050000 		.4byte	.LASF158
ARM GAS  /tmp/ccFpxhY7.s 			page 9


 453 0015 8D060000 		.4byte	.LASF159
 454 0019 00000000 		.4byte	.Ldebug_ranges0+0
 455 001d 00000000 		.4byte	0
 456 0021 00000000 		.4byte	.Ldebug_line0
 457 0025 02       		.uleb128 0x2
 458 0026 04       		.byte	0x4
 459 0027 05       		.byte	0x5
 460 0028 696E7400 		.ascii	"int\000"
 461 002c 03       		.uleb128 0x3
 462 002d 12000000 		.4byte	.LASF2
 463 0031 02       		.byte	0x2
 464 0032 D4       		.byte	0xd4
 465 0033 37000000 		.4byte	0x37
 466 0037 04       		.uleb128 0x4
 467 0038 04       		.byte	0x4
 468 0039 07       		.byte	0x7
 469 003a 81010000 		.4byte	.LASF0
 470 003e 04       		.uleb128 0x4
 471 003f 01       		.byte	0x1
 472 0040 06       		.byte	0x6
 473 0041 3D010000 		.4byte	.LASF1
 474 0045 03       		.uleb128 0x3
 475 0046 2F000000 		.4byte	.LASF3
 476 004a 03       		.byte	0x3
 477 004b 1D       		.byte	0x1d
 478 004c 50000000 		.4byte	0x50
 479 0050 04       		.uleb128 0x4
 480 0051 01       		.byte	0x1
 481 0052 08       		.byte	0x8
 482 0053 0A050000 		.4byte	.LASF4
 483 0057 04       		.uleb128 0x4
 484 0058 02       		.byte	0x2
 485 0059 05       		.byte	0x5
 486 005a 27050000 		.4byte	.LASF5
 487 005e 03       		.uleb128 0x3
 488 005f 2F060000 		.4byte	.LASF6
 489 0063 03       		.byte	0x3
 490 0064 2B       		.byte	0x2b
 491 0065 69000000 		.4byte	0x69
 492 0069 04       		.uleb128 0x4
 493 006a 02       		.byte	0x2
 494 006b 07       		.byte	0x7
 495 006c 78030000 		.4byte	.LASF7
 496 0070 03       		.uleb128 0x3
 497 0071 0B040000 		.4byte	.LASF8
 498 0075 03       		.byte	0x3
 499 0076 3F       		.byte	0x3f
 500 0077 7B000000 		.4byte	0x7b
 501 007b 04       		.uleb128 0x4
 502 007c 04       		.byte	0x4
 503 007d 05       		.byte	0x5
 504 007e 6F010000 		.4byte	.LASF9
 505 0082 03       		.uleb128 0x3
 506 0083 A5010000 		.4byte	.LASF10
 507 0087 03       		.byte	0x3
 508 0088 41       		.byte	0x41
 509 0089 8D000000 		.4byte	0x8d
ARM GAS  /tmp/ccFpxhY7.s 			page 10


 510 008d 04       		.uleb128 0x4
 511 008e 04       		.byte	0x4
 512 008f 07       		.byte	0x7
 513 0090 FA050000 		.4byte	.LASF11
 514 0094 04       		.uleb128 0x4
 515 0095 08       		.byte	0x8
 516 0096 05       		.byte	0x5
 517 0097 2F010000 		.4byte	.LASF12
 518 009b 03       		.uleb128 0x3
 519 009c 8C040000 		.4byte	.LASF13
 520 00a0 03       		.byte	0x3
 521 00a1 5B       		.byte	0x5b
 522 00a2 A6000000 		.4byte	0xa6
 523 00a6 04       		.uleb128 0x4
 524 00a7 08       		.byte	0x8
 525 00a8 07       		.byte	0x7
 526 00a9 AC000000 		.4byte	.LASF14
 527 00ad 03       		.uleb128 0x3
 528 00ae EE060000 		.4byte	.LASF15
 529 00b2 04       		.byte	0x4
 530 00b3 14       		.byte	0x14
 531 00b4 45000000 		.4byte	0x45
 532 00b8 03       		.uleb128 0x3
 533 00b9 08030000 		.4byte	.LASF16
 534 00bd 04       		.byte	0x4
 535 00be 1A       		.byte	0x1a
 536 00bf 5E000000 		.4byte	0x5e
 537 00c3 03       		.uleb128 0x3
 538 00c4 02050000 		.4byte	.LASF17
 539 00c8 04       		.byte	0x4
 540 00c9 1F       		.byte	0x1f
 541 00ca 70000000 		.4byte	0x70
 542 00ce 03       		.uleb128 0x3
 543 00cf DB050000 		.4byte	.LASF18
 544 00d3 04       		.byte	0x4
 545 00d4 20       		.byte	0x20
 546 00d5 82000000 		.4byte	0x82
 547 00d9 03       		.uleb128 0x3
 548 00da 26000000 		.4byte	.LASF19
 549 00de 04       		.byte	0x4
 550 00df 26       		.byte	0x26
 551 00e0 9B000000 		.4byte	0x9b
 552 00e4 03       		.uleb128 0x3
 553 00e5 B9060000 		.4byte	.LASF20
 554 00e9 05       		.byte	0x5
 555 00ea 27       		.byte	0x27
 556 00eb CE000000 		.4byte	0xce
 557 00ef 03       		.uleb128 0x3
 558 00f0 1E010000 		.4byte	.LASF21
 559 00f4 05       		.byte	0x5
 560 00f5 28       		.byte	0x28
 561 00f6 D9000000 		.4byte	0xd9
 562 00fa 03       		.uleb128 0x3
 563 00fb D3030000 		.4byte	.LASF22
 564 00ff 05       		.byte	0x5
 565 0100 2A       		.byte	0x2a
 566 0101 AD000000 		.4byte	0xad
ARM GAS  /tmp/ccFpxhY7.s 			page 11


 567 0105 03       		.uleb128 0x3
 568 0106 78010000 		.4byte	.LASF23
 569 010a 05       		.byte	0x5
 570 010b 2B       		.byte	0x2b
 571 010c AD000000 		.4byte	0xad
 572 0110 03       		.uleb128 0x3
 573 0111 C8040000 		.4byte	.LASF24
 574 0115 05       		.byte	0x5
 575 0116 2C       		.byte	0x2c
 576 0117 AD000000 		.4byte	0xad
 577 011b 03       		.uleb128 0x3
 578 011c EB040000 		.4byte	.LASF25
 579 0120 05       		.byte	0x5
 580 0121 2E       		.byte	0x2e
 581 0122 CE000000 		.4byte	0xce
 582 0126 03       		.uleb128 0x3
 583 0127 E5040000 		.4byte	.LASF26
 584 012b 05       		.byte	0x5
 585 012c 2F       		.byte	0x2f
 586 012d C3000000 		.4byte	0xc3
 587 0131 03       		.uleb128 0x3
 588 0132 FF030000 		.4byte	.LASF27
 589 0136 05       		.byte	0x5
 590 0137 31       		.byte	0x31
 591 0138 CE000000 		.4byte	0xce
 592 013c 03       		.uleb128 0x3
 593 013d 05020000 		.4byte	.LASF28
 594 0141 05       		.byte	0x5
 595 0142 33       		.byte	0x33
 596 0143 C3000000 		.4byte	0xc3
 597 0147 03       		.uleb128 0x3
 598 0148 B1030000 		.4byte	.LASF29
 599 014c 05       		.byte	0x5
 600 014d 34       		.byte	0x34
 601 014e CE000000 		.4byte	0xce
 602 0152 03       		.uleb128 0x3
 603 0153 3A060000 		.4byte	.LASF30
 604 0157 06       		.byte	0x6
 605 0158 34       		.byte	0x34
 606 0159 5D010000 		.4byte	0x15d
 607 015d 05       		.uleb128 0x5
 608 015e 91030000 		.4byte	.LASF49
 609 0162 60       		.byte	0x60
 610 0163 07       		.byte	0x7
 611 0164 8E       		.byte	0x8e
 612 0165 48020000 		.4byte	0x248
 613 0169 06       		.uleb128 0x6
 614 016a 65030000 		.4byte	.LASF31
 615 016e 07       		.byte	0x7
 616 016f 8F       		.byte	0x8f
 617 0170 7D020000 		.4byte	0x27d
 618 0174 00       		.byte	0
 619 0175 06       		.uleb128 0x6
 620 0176 7F040000 		.4byte	.LASF32
 621 017a 07       		.byte	0x7
 622 017b 90       		.byte	0x90
 623 017c 1B010000 		.4byte	0x11b
ARM GAS  /tmp/ccFpxhY7.s 			page 12


 624 0180 08       		.byte	0x8
 625 0181 07       		.uleb128 0x7
 626 0182 63747800 		.ascii	"ctx\000"
 627 0186 07       		.byte	0x7
 628 0187 91       		.byte	0x91
 629 0188 7C050000 		.4byte	0x57c
 630 018c 0C       		.byte	0xc
 631 018d 06       		.uleb128 0x6
 632 018e 20040000 		.4byte	.LASF33
 633 0192 07       		.byte	0x7
 634 0193 93       		.byte	0x93
 635 0194 53020000 		.4byte	0x253
 636 0198 10       		.byte	0x10
 637 0199 06       		.uleb128 0x6
 638 019a 1D060000 		.4byte	.LASF34
 639 019e 07       		.byte	0x7
 640 019f 94       		.byte	0x94
 641 01a0 53020000 		.4byte	0x253
 642 01a4 14       		.byte	0x14
 643 01a5 06       		.uleb128 0x6
 644 01a6 9B030000 		.4byte	.LASF35
 645 01aa 07       		.byte	0x7
 646 01ab 9B       		.byte	0x9b
 647 01ac 62080000 		.4byte	0x862
 648 01b0 18       		.byte	0x18
 649 01b1 06       		.uleb128 0x6
 650 01b2 0C060000 		.4byte	.LASF36
 651 01b6 07       		.byte	0x7
 652 01b7 A4       		.byte	0xa4
 653 01b8 74080000 		.4byte	0x874
 654 01bc 1C       		.byte	0x1c
 655 01bd 06       		.uleb128 0x6
 656 01be 69010000 		.4byte	.LASF37
 657 01c2 07       		.byte	0x7
 658 01c3 A9       		.byte	0xa9
 659 01c4 05010000 		.4byte	0x105
 660 01c8 20       		.byte	0x20
 661 01c9 06       		.uleb128 0x6
 662 01ca FF060000 		.4byte	.LASF38
 663 01ce 07       		.byte	0x7
 664 01cf AD       		.byte	0xad
 665 01d0 FA000000 		.4byte	0xfa
 666 01d4 21       		.byte	0x21
 667 01d5 06       		.uleb128 0x6
 668 01d6 D0040000 		.4byte	.LASF39
 669 01da 07       		.byte	0x7
 670 01db B2       		.byte	0xb2
 671 01dc 10010000 		.4byte	0x110
 672 01e0 22       		.byte	0x22
 673 01e1 08       		.uleb128 0x8
 674 01e2 7500     		.ascii	"u\000"
 675 01e4 07       		.byte	0x7
 676 01e5 0301     		.2byte	0x103
 677 01e7 98070000 		.4byte	0x798
 678 01eb 24       		.byte	0x24
 679 01ec 09       		.uleb128 0x9
 680 01ed D5010000 		.4byte	.LASF40
ARM GAS  /tmp/ccFpxhY7.s 			page 13


 681 01f1 07       		.byte	0x7
 682 01f2 0801     		.2byte	0x108
 683 01f4 59020000 		.4byte	0x259
 684 01f8 28       		.byte	0x28
 685 01f9 09       		.uleb128 0x9
 686 01fa 5A010000 		.4byte	.LASF41
 687 01fe 07       		.byte	0x7
 688 01ff 0E01     		.2byte	0x10e
 689 0201 7D020000 		.4byte	0x27d
 690 0205 2C       		.byte	0x2c
 691 0206 09       		.uleb128 0x9
 692 0207 B8030000 		.4byte	.LASF42
 693 020b 07       		.byte	0x7
 694 020c 1401     		.2byte	0x114
 695 020e 31010000 		.4byte	0x131
 696 0212 34       		.byte	0x34
 697 0213 09       		.uleb128 0x9
 698 0214 28070000 		.4byte	.LASF43
 699 0218 07       		.byte	0x7
 700 0219 1B01     		.2byte	0x11b
 701 021b 5C080000 		.4byte	0x85c
 702 021f 38       		.byte	0x38
 703 0220 09       		.uleb128 0x9
 704 0221 26040000 		.4byte	.LASF44
 705 0225 07       		.byte	0x7
 706 0226 1F01     		.2byte	0x11f
 707 0228 1B010000 		.4byte	0x11b
 708 022c 3C       		.byte	0x3c
 709 022d 09       		.uleb128 0x9
 710 022e 72030000 		.4byte	.LASF45
 711 0232 07       		.byte	0x7
 712 0233 2601     		.2byte	0x126
 713 0235 30030000 		.4byte	0x330
 714 0239 40       		.byte	0x40
 715 023a 09       		.uleb128 0x9
 716 023b 8E010000 		.4byte	.LASF46
 717 023f 07       		.byte	0x7
 718 0240 2C01     		.2byte	0x12c
 719 0242 49070000 		.4byte	0x749
 720 0246 48       		.byte	0x48
 721 0247 00       		.byte	0
 722 0248 03       		.uleb128 0x3
 723 0249 38040000 		.4byte	.LASF47
 724 024d 06       		.byte	0x6
 725 024e 39       		.byte	0x39
 726 024f 53020000 		.4byte	0x253
 727 0253 0A       		.uleb128 0xa
 728 0254 04       		.byte	0x4
 729 0255 52010000 		.4byte	0x152
 730 0259 03       		.uleb128 0x3
 731 025a 0C070000 		.4byte	.LASF48
 732 025e 06       		.byte	0x6
 733 025f 3E       		.byte	0x3e
 734 0260 64020000 		.4byte	0x264
 735 0264 05       		.uleb128 0x5
 736 0265 E4050000 		.4byte	.LASF50
 737 0269 04       		.byte	0x4
ARM GAS  /tmp/ccFpxhY7.s 			page 14


 738 026a 07       		.byte	0x7
 739 026b 7C       		.byte	0x7c
 740 026c 7D020000 		.4byte	0x27d
 741 0270 06       		.uleb128 0x6
 742 0271 19010000 		.4byte	.LASF51
 743 0275 07       		.byte	0x7
 744 0276 7D       		.byte	0x7d
 745 0277 53020000 		.4byte	0x253
 746 027b 00       		.byte	0
 747 027c 00       		.byte	0
 748 027d 03       		.uleb128 0x3
 749 027e C1060000 		.4byte	.LASF52
 750 0282 06       		.byte	0x6
 751 0283 45       		.byte	0x45
 752 0284 88020000 		.4byte	0x288
 753 0288 05       		.uleb128 0x5
 754 0289 4C000000 		.4byte	.LASF53
 755 028d 08       		.byte	0x8
 756 028e 07       		.byte	0x7
 757 028f 83       		.byte	0x83
 758 0290 AD020000 		.4byte	0x2ad
 759 0294 06       		.uleb128 0x6
 760 0295 19010000 		.4byte	.LASF51
 761 0299 07       		.byte	0x7
 762 029a 84       		.byte	0x84
 763 029b 53020000 		.4byte	0x253
 764 029f 00       		.byte	0
 765 02a0 06       		.uleb128 0x6
 766 02a1 00000000 		.4byte	.LASF54
 767 02a5 07       		.byte	0x7
 768 02a6 85       		.byte	0x85
 769 02a7 53020000 		.4byte	0x253
 770 02ab 04       		.byte	0x4
 771 02ac 00       		.byte	0
 772 02ad 03       		.uleb128 0x3
 773 02ae 05000000 		.4byte	.LASF55
 774 02b2 06       		.byte	0x6
 775 02b3 4C       		.byte	0x4c
 776 02b4 B8020000 		.4byte	0x2b8
 777 02b8 0B       		.uleb128 0xb
 778 02b9 F1030000 		.4byte	.LASF56
 779 02bd 1C       		.byte	0x1c
 780 02be 07       		.byte	0x7
 781 02bf 5E01     		.2byte	0x15e
 782 02c1 14030000 		.4byte	0x314
 783 02c5 09       		.uleb128 0x9
 784 02c6 65030000 		.4byte	.LASF31
 785 02ca 07       		.byte	0x7
 786 02cb 5F01     		.2byte	0x15f
 787 02cd 7D020000 		.4byte	0x27d
 788 02d1 00       		.byte	0
 789 02d2 09       		.uleb128 0x9
 790 02d3 7F040000 		.4byte	.LASF32
 791 02d7 07       		.byte	0x7
 792 02d8 6001     		.2byte	0x160
 793 02da 1B010000 		.4byte	0x11b
 794 02de 08       		.byte	0x8
ARM GAS  /tmp/ccFpxhY7.s 			page 15


 795 02df 08       		.uleb128 0x8
 796 02e0 63747800 		.ascii	"ctx\000"
 797 02e4 07       		.byte	0x7
 798 02e5 6201     		.2byte	0x162
 799 02e7 7C050000 		.4byte	0x57c
 800 02eb 0C       		.byte	0xc
 801 02ec 09       		.uleb128 0x9
 802 02ed 20040000 		.4byte	.LASF33
 803 02f1 07       		.byte	0x7
 804 02f2 6501     		.2byte	0x165
 805 02f4 53020000 		.4byte	0x253
 806 02f8 10       		.byte	0x10
 807 02f9 09       		.uleb128 0x9
 808 02fa 1D060000 		.4byte	.LASF34
 809 02fe 07       		.byte	0x7
 810 02ff 6601     		.2byte	0x166
 811 0301 53020000 		.4byte	0x253
 812 0305 14       		.byte	0x14
 813 0306 09       		.uleb128 0x9
 814 0307 84040000 		.4byte	.LASF57
 815 030b 07       		.byte	0x7
 816 030c 6901     		.2byte	0x169
 817 030e 53020000 		.4byte	0x253
 818 0312 18       		.byte	0x18
 819 0313 00       		.byte	0
 820 0314 03       		.uleb128 0x3
 821 0315 52060000 		.4byte	.LASF58
 822 0319 06       		.byte	0x6
 823 031a 51       		.byte	0x51
 824 031b 1F030000 		.4byte	0x31f
 825 031f 0A       		.uleb128 0xa
 826 0320 04       		.byte	0x4
 827 0321 25030000 		.4byte	0x325
 828 0325 0C       		.uleb128 0xc
 829 0326 30030000 		.4byte	0x330
 830 032a 0D       		.uleb128 0xd
 831 032b 30030000 		.4byte	0x330
 832 032f 00       		.byte	0
 833 0330 0E       		.uleb128 0xe
 834 0331 04       		.byte	0x4
 835 0332 03       		.uleb128 0x3
 836 0333 D5040000 		.4byte	.LASF59
 837 0337 06       		.byte	0x6
 838 0338 56       		.byte	0x56
 839 0339 3D030000 		.4byte	0x33d
 840 033d 0B       		.uleb128 0xb
 841 033e BD050000 		.4byte	.LASF60
 842 0342 14       		.byte	0x14
 843 0343 07       		.byte	0x7
 844 0344 3901     		.2byte	0x139
 845 0346 8C030000 		.4byte	0x38c
 846 034a 09       		.uleb128 0x9
 847 034b 19010000 		.4byte	.LASF51
 848 034f 07       		.byte	0x7
 849 0350 3A01     		.2byte	0x13a
 850 0352 7A080000 		.4byte	0x87a
 851 0356 00       		.byte	0
ARM GAS  /tmp/ccFpxhY7.s 			page 16


 852 0357 09       		.uleb128 0x9
 853 0358 00000000 		.4byte	.LASF54
 854 035c 07       		.byte	0x7
 855 035d 3B01     		.2byte	0x13b
 856 035f 7A080000 		.4byte	0x87a
 857 0363 04       		.byte	0x4
 858 0364 09       		.uleb128 0x9
 859 0365 19000000 		.4byte	.LASF61
 860 0369 07       		.byte	0x7
 861 036a 3C01     		.2byte	0x13c
 862 036c 70040000 		.4byte	0x470
 863 0370 08       		.byte	0x8
 864 0371 09       		.uleb128 0x9
 865 0372 0E010000 		.4byte	.LASF62
 866 0376 07       		.byte	0x7
 867 0377 3D01     		.2byte	0x13d
 868 0379 14030000 		.4byte	0x314
 869 037d 0C       		.byte	0xc
 870 037e 08       		.uleb128 0x8
 871 037f 70617200 		.ascii	"par\000"
 872 0383 07       		.byte	0x7
 873 0384 3F01     		.2byte	0x13f
 874 0386 30030000 		.4byte	0x330
 875 038a 10       		.byte	0x10
 876 038b 00       		.byte	0
 877 038c 03       		.uleb128 0x3
 878 038d EB000000 		.4byte	.LASF63
 879 0391 06       		.byte	0x6
 880 0392 5B       		.byte	0x5b
 881 0393 97030000 		.4byte	0x397
 882 0397 0B       		.uleb128 0xb
 883 0398 4B040000 		.4byte	.LASF64
 884 039c 10       		.byte	0x10
 885 039d 07       		.byte	0x7
 886 039e 4901     		.2byte	0x149
 887 03a0 D9030000 		.4byte	0x3d9
 888 03a4 09       		.uleb128 0x9
 889 03a5 19010000 		.4byte	.LASF51
 890 03a9 07       		.byte	0x7
 891 03aa 4A01     		.2byte	0x14a
 892 03ac 7A080000 		.4byte	0x87a
 893 03b0 00       		.byte	0
 894 03b1 09       		.uleb128 0x9
 895 03b2 00000000 		.4byte	.LASF54
 896 03b6 07       		.byte	0x7
 897 03b7 4C01     		.2byte	0x14c
 898 03b9 7A080000 		.4byte	0x87a
 899 03bd 04       		.byte	0x4
 900 03be 09       		.uleb128 0x9
 901 03bf 19000000 		.4byte	.LASF61
 902 03c3 07       		.byte	0x7
 903 03c4 4E01     		.2byte	0x14e
 904 03c6 70040000 		.4byte	0x470
 905 03ca 08       		.byte	0x8
 906 03cb 09       		.uleb128 0x9
 907 03cc 31050000 		.4byte	.LASF65
 908 03d0 07       		.byte	0x7
ARM GAS  /tmp/ccFpxhY7.s 			page 17


 909 03d1 5601     		.2byte	0x156
 910 03d3 65040000 		.4byte	0x465
 911 03d7 0C       		.byte	0xc
 912 03d8 00       		.byte	0
 913 03d9 03       		.uleb128 0x3
 914 03da 5D000000 		.4byte	.LASF66
 915 03de 06       		.byte	0x6
 916 03df 60       		.byte	0x60
 917 03e0 E4030000 		.4byte	0x3e4
 918 03e4 0B       		.uleb128 0xb
 919 03e5 C5010000 		.4byte	.LASF67
 920 03e9 04       		.byte	0x4
 921 03ea 07       		.byte	0x7
 922 03eb 7001     		.2byte	0x170
 923 03ed FF030000 		.4byte	0x3ff
 924 03f1 09       		.uleb128 0x9
 925 03f2 5B060000 		.4byte	.LASF68
 926 03f6 07       		.byte	0x7
 927 03f7 7801     		.2byte	0x178
 928 03f9 80080000 		.4byte	0x880
 929 03fd 00       		.byte	0
 930 03fe 00       		.byte	0
 931 03ff 03       		.uleb128 0x3
 932 0400 C1030000 		.4byte	.LASF69
 933 0404 06       		.byte	0x6
 934 0405 65       		.byte	0x65
 935 0406 0A040000 		.4byte	0x40a
 936 040a 0B       		.uleb128 0xb
 937 040b 9B050000 		.4byte	.LASF70
 938 040f D0       		.byte	0xd0
 939 0410 07       		.byte	0x7
 940 0411 9001     		.2byte	0x190
 941 0413 65040000 		.4byte	0x465
 942 0417 09       		.uleb128 0x9
 943 0418 E8060000 		.4byte	.LASF71
 944 041c 07       		.byte	0x7
 945 041d 9401     		.2byte	0x194
 946 041f AD020000 		.4byte	0x2ad
 947 0423 00       		.byte	0
 948 0424 09       		.uleb128 0x9
 949 0425 BE010000 		.4byte	.LASF72
 950 0429 07       		.byte	0x7
 951 042a 9801     		.2byte	0x198
 952 042c 8C030000 		.4byte	0x38c
 953 0430 1C       		.byte	0x1c
 954 0431 08       		.uleb128 0x8
 955 0432 64626700 		.ascii	"dbg\000"
 956 0436 07       		.byte	0x7
 957 0437 9C01     		.2byte	0x19c
 958 0439 D9030000 		.4byte	0x3d9
 959 043d 2C       		.byte	0x2c
 960 043e 09       		.uleb128 0x9
 961 043f D8000000 		.4byte	.LASF73
 962 0443 07       		.byte	0x7
 963 0444 A001     		.2byte	0x1a0
 964 0446 52010000 		.4byte	0x152
 965 044a 30       		.byte	0x30
ARM GAS  /tmp/ccFpxhY7.s 			page 18


 966 044b 08       		.uleb128 0x8
 967 044c 746D00   		.ascii	"tm\000"
 968 044f 07       		.byte	0x7
 969 0450 A501     		.2byte	0x1a5
 970 0452 FB060000 		.4byte	0x6fb
 971 0456 90       		.byte	0x90
 972 0457 09       		.uleb128 0x9
 973 0458 BB040000 		.4byte	.LASF74
 974 045c 07       		.byte	0x7
 975 045d AB01     		.2byte	0x1ab
 976 045f 8D070000 		.4byte	0x78d
 977 0463 98       		.byte	0x98
 978 0464 00       		.byte	0
 979 0465 03       		.uleb128 0x3
 980 0466 48060000 		.4byte	.LASF75
 981 046a 08       		.byte	0x8
 982 046b 6D       		.byte	0x6d
 983 046c CE000000 		.4byte	0xce
 984 0470 03       		.uleb128 0x3
 985 0471 F7010000 		.4byte	.LASF76
 986 0475 08       		.byte	0x8
 987 0476 79       		.byte	0x79
 988 0477 CE000000 		.4byte	0xce
 989 047b 04       		.uleb128 0x4
 990 047c 04       		.byte	0x4
 991 047d 07       		.byte	0x7
 992 047e 2F040000 		.4byte	.LASF77
 993 0482 0F       		.uleb128 0xf
 994 0483 CE000000 		.4byte	0xce
 995 0487 10       		.uleb128 0x10
 996 0488 CE000000 		.4byte	0xce
 997 048c 97040000 		.4byte	0x497
 998 0490 11       		.uleb128 0x11
 999 0491 7B040000 		.4byte	0x47b
 1000 0495 01       		.byte	0x1
 1001 0496 00       		.byte	0
 1002 0497 10       		.uleb128 0x10
 1003 0498 CE000000 		.4byte	0xce
 1004 049c A7040000 		.4byte	0x4a7
 1005 04a0 11       		.uleb128 0x11
 1006 04a1 7B040000 		.4byte	0x47b
 1007 04a5 03       		.byte	0x3
 1008 04a6 00       		.byte	0
 1009 04a7 12       		.uleb128 0x12
 1010 04a8 18       		.byte	0x18
 1011 04a9 09       		.byte	0x9
 1012 04aa CB01     		.2byte	0x1cb
 1013 04ac FE040000 		.4byte	0x4fe
 1014 04b0 08       		.uleb128 0x8
 1015 04b1 494D5200 		.ascii	"IMR\000"
 1016 04b5 09       		.byte	0x9
 1017 04b6 CD01     		.2byte	0x1cd
 1018 04b8 82040000 		.4byte	0x482
 1019 04bc 00       		.byte	0
 1020 04bd 08       		.uleb128 0x8
 1021 04be 454D5200 		.ascii	"EMR\000"
 1022 04c2 09       		.byte	0x9
ARM GAS  /tmp/ccFpxhY7.s 			page 19


 1023 04c3 CE01     		.2byte	0x1ce
 1024 04c5 82040000 		.4byte	0x482
 1025 04c9 04       		.byte	0x4
 1026 04ca 09       		.uleb128 0x9
 1027 04cb 97040000 		.4byte	.LASF78
 1028 04cf 09       		.byte	0x9
 1029 04d0 CF01     		.2byte	0x1cf
 1030 04d2 82040000 		.4byte	0x482
 1031 04d6 08       		.byte	0x8
 1032 04d7 09       		.uleb128 0x9
 1033 04d8 22050000 		.4byte	.LASF79
 1034 04dc 09       		.byte	0x9
 1035 04dd D001     		.2byte	0x1d0
 1036 04df 82040000 		.4byte	0x482
 1037 04e3 0C       		.byte	0xc
 1038 04e4 09       		.uleb128 0x9
 1039 04e5 4E010000 		.4byte	.LASF80
 1040 04e9 09       		.byte	0x9
 1041 04ea D101     		.2byte	0x1d1
 1042 04ec 82040000 		.4byte	0x482
 1043 04f0 10       		.byte	0x10
 1044 04f1 08       		.uleb128 0x8
 1045 04f2 505200   		.ascii	"PR\000"
 1046 04f5 09       		.byte	0x9
 1047 04f6 D201     		.2byte	0x1d2
 1048 04f8 82040000 		.4byte	0x482
 1049 04fc 14       		.byte	0x14
 1050 04fd 00       		.byte	0
 1051 04fe 13       		.uleb128 0x13
 1052 04ff 1B070000 		.4byte	.LASF81
 1053 0503 09       		.byte	0x9
 1054 0504 D301     		.2byte	0x1d3
 1055 0506 A7040000 		.4byte	0x4a7
 1056 050a 12       		.uleb128 0x12
 1057 050b 24       		.byte	0x24
 1058 050c 09       		.byte	0x9
 1059 050d 3002     		.2byte	0x230
 1060 050f 55050000 		.4byte	0x555
 1061 0513 09       		.uleb128 0x9
 1062 0514 8C000000 		.4byte	.LASF82
 1063 0518 09       		.byte	0x9
 1064 0519 3202     		.2byte	0x232
 1065 051b 82040000 		.4byte	0x482
 1066 051f 00       		.byte	0
 1067 0520 08       		.uleb128 0x8
 1068 0521 504D4300 		.ascii	"PMC\000"
 1069 0525 09       		.byte	0x9
 1070 0526 3302     		.2byte	0x233
 1071 0528 82040000 		.4byte	0x482
 1072 052c 04       		.byte	0x4
 1073 052d 09       		.uleb128 0x9
 1074 052e 4C070000 		.4byte	.LASF83
 1075 0532 09       		.byte	0x9
 1076 0533 3402     		.2byte	0x234
 1077 0535 55050000 		.4byte	0x555
 1078 0539 08       		.byte	0x8
 1079 053a 09       		.uleb128 0x9
ARM GAS  /tmp/ccFpxhY7.s 			page 20


 1080 053b F6060000 		.4byte	.LASF84
 1081 053f 09       		.byte	0x9
 1082 0540 3502     		.2byte	0x235
 1083 0542 87040000 		.4byte	0x487
 1084 0546 18       		.byte	0x18
 1085 0547 09       		.uleb128 0x9
 1086 0548 51030000 		.4byte	.LASF85
 1087 054c 09       		.byte	0x9
 1088 054d 3602     		.2byte	0x236
 1089 054f 82040000 		.4byte	0x482
 1090 0553 20       		.byte	0x20
 1091 0554 00       		.byte	0
 1092 0555 0F       		.uleb128 0xf
 1093 0556 97040000 		.4byte	0x497
 1094 055a 13       		.uleb128 0x13
 1095 055b AC040000 		.4byte	.LASF86
 1096 055f 09       		.byte	0x9
 1097 0560 3702     		.2byte	0x237
 1098 0562 0A050000 		.4byte	0x50a
 1099 0566 03       		.uleb128 0x3
 1100 0567 B5010000 		.4byte	.LASF87
 1101 056b 0A       		.byte	0xa
 1102 056c 65       		.byte	0x65
 1103 056d 30030000 		.4byte	0x330
 1104 0571 03       		.uleb128 0x3
 1105 0572 15040000 		.4byte	.LASF88
 1106 0576 0A       		.byte	0xa
 1107 0577 6D       		.byte	0x6d
 1108 0578 D9000000 		.4byte	0xd9
 1109 057c 05       		.uleb128 0x5
 1110 057d 79000000 		.4byte	.LASF89
 1111 0581 04       		.byte	0x4
 1112 0582 0A       		.byte	0xa
 1113 0583 89       		.byte	0x89
 1114 0584 94050000 		.4byte	0x594
 1115 0588 07       		.uleb128 0x7
 1116 0589 737000   		.ascii	"sp\000"
 1117 058c 0A       		.byte	0xa
 1118 058d 8A       		.byte	0x8a
 1119 058e E0060000 		.4byte	0x6e0
 1120 0592 00       		.byte	0
 1121 0593 00       		.byte	0
 1122 0594 0B       		.uleb128 0xb
 1123 0595 40000000 		.4byte	.LASF90
 1124 0599 64       		.byte	0x64
 1125 059a 0B       		.byte	0xb
 1126 059b 5901     		.2byte	0x159
 1127 059d E0060000 		.4byte	0x6e0
 1128 05a1 08       		.uleb128 0x8
 1129 05a2 73313600 		.ascii	"s16\000"
 1130 05a6 0B       		.byte	0xb
 1131 05a7 5B01     		.2byte	0x15b
 1132 05a9 66050000 		.4byte	0x566
 1133 05ad 00       		.byte	0
 1134 05ae 08       		.uleb128 0x8
 1135 05af 73313700 		.ascii	"s17\000"
 1136 05b3 0B       		.byte	0xb
ARM GAS  /tmp/ccFpxhY7.s 			page 21


 1137 05b4 5C01     		.2byte	0x15c
 1138 05b6 66050000 		.4byte	0x566
 1139 05ba 04       		.byte	0x4
 1140 05bb 08       		.uleb128 0x8
 1141 05bc 73313800 		.ascii	"s18\000"
 1142 05c0 0B       		.byte	0xb
 1143 05c1 5D01     		.2byte	0x15d
 1144 05c3 66050000 		.4byte	0x566
 1145 05c7 08       		.byte	0x8
 1146 05c8 08       		.uleb128 0x8
 1147 05c9 73313900 		.ascii	"s19\000"
 1148 05cd 0B       		.byte	0xb
 1149 05ce 5E01     		.2byte	0x15e
 1150 05d0 66050000 		.4byte	0x566
 1151 05d4 0C       		.byte	0xc
 1152 05d5 08       		.uleb128 0x8
 1153 05d6 73323000 		.ascii	"s20\000"
 1154 05da 0B       		.byte	0xb
 1155 05db 5F01     		.2byte	0x15f
 1156 05dd 66050000 		.4byte	0x566
 1157 05e1 10       		.byte	0x10
 1158 05e2 08       		.uleb128 0x8
 1159 05e3 73323100 		.ascii	"s21\000"
 1160 05e7 0B       		.byte	0xb
 1161 05e8 6001     		.2byte	0x160
 1162 05ea 66050000 		.4byte	0x566
 1163 05ee 14       		.byte	0x14
 1164 05ef 08       		.uleb128 0x8
 1165 05f0 73323200 		.ascii	"s22\000"
 1166 05f4 0B       		.byte	0xb
 1167 05f5 6101     		.2byte	0x161
 1168 05f7 66050000 		.4byte	0x566
 1169 05fb 18       		.byte	0x18
 1170 05fc 08       		.uleb128 0x8
 1171 05fd 73323300 		.ascii	"s23\000"
 1172 0601 0B       		.byte	0xb
 1173 0602 6201     		.2byte	0x162
 1174 0604 66050000 		.4byte	0x566
 1175 0608 1C       		.byte	0x1c
 1176 0609 08       		.uleb128 0x8
 1177 060a 73323400 		.ascii	"s24\000"
 1178 060e 0B       		.byte	0xb
 1179 060f 6301     		.2byte	0x163
 1180 0611 66050000 		.4byte	0x566
 1181 0615 20       		.byte	0x20
 1182 0616 08       		.uleb128 0x8
 1183 0617 73323500 		.ascii	"s25\000"
 1184 061b 0B       		.byte	0xb
 1185 061c 6401     		.2byte	0x164
 1186 061e 66050000 		.4byte	0x566
 1187 0622 24       		.byte	0x24
 1188 0623 08       		.uleb128 0x8
 1189 0624 73323600 		.ascii	"s26\000"
 1190 0628 0B       		.byte	0xb
 1191 0629 6501     		.2byte	0x165
 1192 062b 66050000 		.4byte	0x566
 1193 062f 28       		.byte	0x28
ARM GAS  /tmp/ccFpxhY7.s 			page 22


 1194 0630 08       		.uleb128 0x8
 1195 0631 73323700 		.ascii	"s27\000"
 1196 0635 0B       		.byte	0xb
 1197 0636 6601     		.2byte	0x166
 1198 0638 66050000 		.4byte	0x566
 1199 063c 2C       		.byte	0x2c
 1200 063d 08       		.uleb128 0x8
 1201 063e 73323800 		.ascii	"s28\000"
 1202 0642 0B       		.byte	0xb
 1203 0643 6701     		.2byte	0x167
 1204 0645 66050000 		.4byte	0x566
 1205 0649 30       		.byte	0x30
 1206 064a 08       		.uleb128 0x8
 1207 064b 73323900 		.ascii	"s29\000"
 1208 064f 0B       		.byte	0xb
 1209 0650 6801     		.2byte	0x168
 1210 0652 66050000 		.4byte	0x566
 1211 0656 34       		.byte	0x34
 1212 0657 08       		.uleb128 0x8
 1213 0658 73333000 		.ascii	"s30\000"
 1214 065c 0B       		.byte	0xb
 1215 065d 6901     		.2byte	0x169
 1216 065f 66050000 		.4byte	0x566
 1217 0663 38       		.byte	0x38
 1218 0664 08       		.uleb128 0x8
 1219 0665 73333100 		.ascii	"s31\000"
 1220 0669 0B       		.byte	0xb
 1221 066a 6A01     		.2byte	0x16a
 1222 066c 66050000 		.4byte	0x566
 1223 0670 3C       		.byte	0x3c
 1224 0671 08       		.uleb128 0x8
 1225 0672 723400   		.ascii	"r4\000"
 1226 0675 0B       		.byte	0xb
 1227 0676 6C01     		.2byte	0x16c
 1228 0678 66050000 		.4byte	0x566
 1229 067c 40       		.byte	0x40
 1230 067d 08       		.uleb128 0x8
 1231 067e 723500   		.ascii	"r5\000"
 1232 0681 0B       		.byte	0xb
 1233 0682 6D01     		.2byte	0x16d
 1234 0684 66050000 		.4byte	0x566
 1235 0688 44       		.byte	0x44
 1236 0689 08       		.uleb128 0x8
 1237 068a 723600   		.ascii	"r6\000"
 1238 068d 0B       		.byte	0xb
 1239 068e 6E01     		.2byte	0x16e
 1240 0690 66050000 		.4byte	0x566
 1241 0694 48       		.byte	0x48
 1242 0695 08       		.uleb128 0x8
 1243 0696 723700   		.ascii	"r7\000"
 1244 0699 0B       		.byte	0xb
 1245 069a 6F01     		.2byte	0x16f
 1246 069c 66050000 		.4byte	0x566
 1247 06a0 4C       		.byte	0x4c
 1248 06a1 08       		.uleb128 0x8
 1249 06a2 723800   		.ascii	"r8\000"
 1250 06a5 0B       		.byte	0xb
ARM GAS  /tmp/ccFpxhY7.s 			page 23


 1251 06a6 7001     		.2byte	0x170
 1252 06a8 66050000 		.4byte	0x566
 1253 06ac 50       		.byte	0x50
 1254 06ad 08       		.uleb128 0x8
 1255 06ae 723900   		.ascii	"r9\000"
 1256 06b1 0B       		.byte	0xb
 1257 06b2 7101     		.2byte	0x171
 1258 06b4 66050000 		.4byte	0x566
 1259 06b8 54       		.byte	0x54
 1260 06b9 08       		.uleb128 0x8
 1261 06ba 72313000 		.ascii	"r10\000"
 1262 06be 0B       		.byte	0xb
 1263 06bf 7201     		.2byte	0x172
 1264 06c1 66050000 		.4byte	0x566
 1265 06c5 58       		.byte	0x58
 1266 06c6 08       		.uleb128 0x8
 1267 06c7 72313100 		.ascii	"r11\000"
 1268 06cb 0B       		.byte	0xb
 1269 06cc 7301     		.2byte	0x173
 1270 06ce 66050000 		.4byte	0x566
 1271 06d2 5C       		.byte	0x5c
 1272 06d3 08       		.uleb128 0x8
 1273 06d4 6C7200   		.ascii	"lr\000"
 1274 06d7 0B       		.byte	0xb
 1275 06d8 7401     		.2byte	0x174
 1276 06da 66050000 		.4byte	0x566
 1277 06de 60       		.byte	0x60
 1278 06df 00       		.byte	0
 1279 06e0 0A       		.uleb128 0xa
 1280 06e1 04       		.byte	0x4
 1281 06e2 94050000 		.4byte	0x594
 1282 06e6 14       		.uleb128 0x14
 1283 06e7 04       		.byte	0x4
 1284 06e8 0C       		.byte	0xc
 1285 06e9 38       		.byte	0x38
 1286 06ea FB060000 		.4byte	0x6fb
 1287 06ee 06       		.uleb128 0x6
 1288 06ef 65060000 		.4byte	.LASF91
 1289 06f3 0C       		.byte	0xc
 1290 06f4 3C       		.byte	0x3c
 1291 06f5 E4000000 		.4byte	0xe4
 1292 06f9 00       		.byte	0
 1293 06fa 00       		.byte	0
 1294 06fb 03       		.uleb128 0x3
 1295 06fc 6E040000 		.4byte	.LASF92
 1296 0700 0C       		.byte	0xc
 1297 0701 3D       		.byte	0x3d
 1298 0702 E6060000 		.4byte	0x6e6
 1299 0706 14       		.uleb128 0x14
 1300 0707 18       		.byte	0x18
 1301 0708 0C       		.byte	0xc
 1302 0709 48       		.byte	0x48
 1303 070a 49070000 		.4byte	0x749
 1304 070e 06       		.uleb128 0x6
 1305 070f 43060000 		.4byte	.LASF93
 1306 0713 0C       		.byte	0xc
 1307 0714 49       		.byte	0x49
ARM GAS  /tmp/ccFpxhY7.s 			page 24


 1308 0715 E4000000 		.4byte	0xe4
 1309 0719 00       		.byte	0
 1310 071a 06       		.uleb128 0x6
 1311 071b 86000000 		.4byte	.LASF94
 1312 071f 0C       		.byte	0xc
 1313 0720 4A       		.byte	0x4a
 1314 0721 E4000000 		.4byte	0xe4
 1315 0725 04       		.byte	0x4
 1316 0726 06       		.uleb128 0x6
 1317 0727 AC030000 		.4byte	.LASF95
 1318 072b 0C       		.byte	0xc
 1319 072c 4B       		.byte	0x4b
 1320 072d E4000000 		.4byte	0xe4
 1321 0731 08       		.byte	0x8
 1322 0732 07       		.uleb128 0x7
 1323 0733 6E00     		.ascii	"n\000"
 1324 0735 0C       		.byte	0xc
 1325 0736 4C       		.byte	0x4c
 1326 0737 47010000 		.4byte	0x147
 1327 073b 0C       		.byte	0xc
 1328 073c 06       		.uleb128 0x6
 1329 073d 9C040000 		.4byte	.LASF96
 1330 0741 0C       		.byte	0xc
 1331 0742 4D       		.byte	0x4d
 1332 0743 EF000000 		.4byte	0xef
 1333 0747 10       		.byte	0x10
 1334 0748 00       		.byte	0
 1335 0749 03       		.uleb128 0x3
 1336 074a 93000000 		.4byte	.LASF97
 1337 074e 0C       		.byte	0xc
 1338 074f 4E       		.byte	0x4e
 1339 0750 06070000 		.4byte	0x706
 1340 0754 14       		.uleb128 0x14
 1341 0755 38       		.byte	0x38
 1342 0756 0D       		.byte	0xd
 1343 0757 38       		.byte	0x38
 1344 0758 8D070000 		.4byte	0x78d
 1345 075c 06       		.uleb128 0x6
 1346 075d 5F030000 		.4byte	.LASF98
 1347 0761 0D       		.byte	0xd
 1348 0762 39       		.byte	0x39
 1349 0763 47010000 		.4byte	0x147
 1350 0767 00       		.byte	0
 1351 0768 06       		.uleb128 0x6
 1352 0769 F3040000 		.4byte	.LASF99
 1353 076d 0D       		.byte	0xd
 1354 076e 3A       		.byte	0x3a
 1355 076f 47010000 		.4byte	0x147
 1356 0773 04       		.byte	0x4
 1357 0774 06       		.uleb128 0x6
 1358 0775 39070000 		.4byte	.LASF100
 1359 0779 0D       		.byte	0xd
 1360 077a 3B       		.byte	0x3b
 1361 077b 49070000 		.4byte	0x749
 1362 077f 08       		.byte	0x8
 1363 0780 06       		.uleb128 0x6
 1364 0781 E6030000 		.4byte	.LASF101
ARM GAS  /tmp/ccFpxhY7.s 			page 25


 1365 0785 0D       		.byte	0xd
 1366 0786 3D       		.byte	0x3d
 1367 0787 49070000 		.4byte	0x749
 1368 078b 20       		.byte	0x20
 1369 078c 00       		.byte	0
 1370 078d 03       		.uleb128 0x3
 1371 078e AE050000 		.4byte	.LASF102
 1372 0792 0D       		.byte	0xd
 1373 0793 3F       		.byte	0x3f
 1374 0794 54070000 		.4byte	0x754
 1375 0798 15       		.uleb128 0x15
 1376 0799 04       		.byte	0x4
 1377 079a 07       		.byte	0x7
 1378 079b C6       		.byte	0xc6
 1379 079c FA070000 		.4byte	0x7fa
 1380 07a0 16       		.uleb128 0x16
 1381 07a1 1F000000 		.4byte	.LASF103
 1382 07a5 07       		.byte	0x7
 1383 07a6 CD       		.byte	0xcd
 1384 07a7 26010000 		.4byte	0x126
 1385 07ab 16       		.uleb128 0x16
 1386 07ac CF000000 		.4byte	.LASF104
 1387 07b0 07       		.byte	0x7
 1388 07b1 D4       		.byte	0xd4
 1389 07b2 26010000 		.4byte	0x126
 1390 07b6 16       		.uleb128 0x16
 1391 07b7 05070000 		.4byte	.LASF105
 1392 07bb 07       		.byte	0x7
 1393 07bc DB       		.byte	0xdb
 1394 07bd 30030000 		.4byte	0x330
 1395 07c1 16       		.uleb128 0x16
 1396 07c2 38030000 		.4byte	.LASF106
 1397 07c6 07       		.byte	0x7
 1398 07c7 E2       		.byte	0xe2
 1399 07c8 FA070000 		.4byte	0x7fa
 1400 07cc 16       		.uleb128 0x16
 1401 07cd E3000000 		.4byte	.LASF107
 1402 07d1 07       		.byte	0x7
 1403 07d2 E7       		.byte	0xe7
 1404 07d3 26010000 		.4byte	0x126
 1405 07d7 16       		.uleb128 0x16
 1406 07d8 18030000 		.4byte	.LASF108
 1407 07dc 07       		.byte	0x7
 1408 07dd F0       		.byte	0xf0
 1409 07de 25080000 		.4byte	0x825
 1410 07e2 16       		.uleb128 0x16
 1411 07e3 28060000 		.4byte	.LASF109
 1412 07e7 07       		.byte	0x7
 1413 07e8 F9       		.byte	0xf9
 1414 07e9 5C080000 		.4byte	0x85c
 1415 07ed 17       		.uleb128 0x17
 1416 07ee 94050000 		.4byte	.LASF110
 1417 07f2 07       		.byte	0x7
 1418 07f3 0101     		.2byte	0x101
 1419 07f5 31010000 		.4byte	0x131
 1420 07f9 00       		.byte	0
 1421 07fa 0A       		.uleb128 0xa
ARM GAS  /tmp/ccFpxhY7.s 			page 26


 1422 07fb 04       		.byte	0x4
 1423 07fc 48020000 		.4byte	0x248
 1424 0800 05       		.uleb128 0x5
 1425 0801 CE050000 		.4byte	.LASF111
 1426 0805 0C       		.byte	0xc
 1427 0806 0E       		.byte	0xe
 1428 0807 34       		.byte	0x34
 1429 0808 25080000 		.4byte	0x825
 1430 080c 06       		.uleb128 0x6
 1431 080d 65030000 		.4byte	.LASF31
 1432 0811 0E       		.byte	0xe
 1433 0812 35       		.byte	0x35
 1434 0813 7D020000 		.4byte	0x27d
 1435 0817 00       		.byte	0
 1436 0818 07       		.uleb128 0x7
 1437 0819 636E7400 		.ascii	"cnt\000"
 1438 081d 0E       		.byte	0xe
 1439 081e 37       		.byte	0x37
 1440 081f 3C010000 		.4byte	0x13c
 1441 0823 08       		.byte	0x8
 1442 0824 00       		.byte	0
 1443 0825 0A       		.uleb128 0xa
 1444 0826 04       		.byte	0x4
 1445 0827 00080000 		.4byte	0x800
 1446 082b 05       		.uleb128 0x5
 1447 082c D1060000 		.4byte	.LASF112
 1448 0830 10       		.byte	0x10
 1449 0831 0F       		.byte	0xf
 1450 0832 39       		.byte	0x39
 1451 0833 5C080000 		.4byte	0x85c
 1452 0837 06       		.uleb128 0x6
 1453 0838 65030000 		.4byte	.LASF31
 1454 083c 0F       		.byte	0xf
 1455 083d 3A       		.byte	0x3a
 1456 083e 7D020000 		.4byte	0x27d
 1457 0842 00       		.byte	0
 1458 0843 06       		.uleb128 0x6
 1459 0844 F4050000 		.4byte	.LASF113
 1460 0848 0F       		.byte	0xf
 1461 0849 3C       		.byte	0x3c
 1462 084a 53020000 		.4byte	0x253
 1463 084e 08       		.byte	0x8
 1464 084f 06       		.uleb128 0x6
 1465 0850 19010000 		.4byte	.LASF51
 1466 0854 0F       		.byte	0xf
 1467 0855 3E       		.byte	0x3e
 1468 0856 90080000 		.4byte	0x890
 1469 085a 0C       		.byte	0xc
 1470 085b 00       		.byte	0
 1471 085c 0A       		.uleb128 0xa
 1472 085d 04       		.byte	0x4
 1473 085e 2B080000 		.4byte	0x82b
 1474 0862 0A       		.uleb128 0xa
 1475 0863 04       		.byte	0x4
 1476 0864 68080000 		.4byte	0x868
 1477 0868 18       		.uleb128 0x18
 1478 0869 6D080000 		.4byte	0x86d
ARM GAS  /tmp/ccFpxhY7.s 			page 27


 1479 086d 04       		.uleb128 0x4
 1480 086e 01       		.byte	0x1
 1481 086f 08       		.byte	0x8
 1482 0870 18060000 		.4byte	.LASF114
 1483 0874 0A       		.uleb128 0xa
 1484 0875 04       		.byte	0x4
 1485 0876 71050000 		.4byte	0x571
 1486 087a 0A       		.uleb128 0xa
 1487 087b 04       		.byte	0x4
 1488 087c 32030000 		.4byte	0x332
 1489 0880 0F       		.uleb128 0xf
 1490 0881 62080000 		.4byte	0x862
 1491 0885 03       		.uleb128 0x3
 1492 0886 EF010000 		.4byte	.LASF115
 1493 088a 0F       		.byte	0xf
 1494 088b 34       		.byte	0x34
 1495 088c 2B080000 		.4byte	0x82b
 1496 0890 0A       		.uleb128 0xa
 1497 0891 04       		.byte	0x4
 1498 0892 85080000 		.4byte	0x885
 1499 0896 04       		.uleb128 0x4
 1500 0897 01       		.byte	0x1
 1501 0898 02       		.byte	0x2
 1502 0899 FC040000 		.4byte	.LASF116
 1503 089d 03       		.uleb128 0x3
 1504 089e 0B020000 		.4byte	.LASF117
 1505 08a2 10       		.byte	0x10
 1506 08a3 94       		.byte	0x94
 1507 08a4 1F030000 		.4byte	0x31f
 1508 08a8 14       		.uleb128 0x14
 1509 08a9 08       		.byte	0x8
 1510 08aa 10       		.byte	0x10
 1511 08ab 9A       		.byte	0x9a
 1512 08ac C8080000 		.4byte	0x8c8
 1513 08b0 07       		.uleb128 0x7
 1514 08b1 636200   		.ascii	"cb\000"
 1515 08b4 10       		.byte	0x10
 1516 08b5 A5       		.byte	0xa5
 1517 08b6 9D080000 		.4byte	0x89d
 1518 08ba 00       		.byte	0
 1519 08bb 07       		.uleb128 0x7
 1520 08bc 61726700 		.ascii	"arg\000"
 1521 08c0 10       		.byte	0x10
 1522 08c1 A9       		.byte	0xa9
 1523 08c2 30030000 		.4byte	0x330
 1524 08c6 04       		.byte	0x4
 1525 08c7 00       		.byte	0
 1526 08c8 03       		.uleb128 0x3
 1527 08c9 DB030000 		.4byte	.LASF118
 1528 08cd 10       		.byte	0x10
 1529 08ce AB       		.byte	0xab
 1530 08cf A8080000 		.4byte	0x8a8
 1531 08d3 14       		.uleb128 0x14
 1532 08d4 04       		.byte	0x4
 1533 08d5 11       		.byte	0x11
 1534 08d6 5B       		.byte	0x5b
 1535 08d7 F4080000 		.4byte	0x8f4
ARM GAS  /tmp/ccFpxhY7.s 			page 28


 1536 08db 07       		.uleb128 0x7
 1537 08dc 73657400 		.ascii	"set\000"
 1538 08e0 11       		.byte	0x11
 1539 08e1 5C       		.byte	0x5c
 1540 08e2 B8000000 		.4byte	0xb8
 1541 08e6 00       		.byte	0
 1542 08e7 06       		.uleb128 0x6
 1543 08e8 62040000 		.4byte	.LASF119
 1544 08ec 11       		.byte	0x11
 1545 08ed 5D       		.byte	0x5d
 1546 08ee B8000000 		.4byte	0xb8
 1547 08f2 02       		.byte	0x2
 1548 08f3 00       		.byte	0
 1549 08f4 15       		.uleb128 0x15
 1550 08f5 04       		.byte	0x4
 1551 08f6 11       		.byte	0x11
 1552 08f7 59       		.byte	0x59
 1553 08f8 0F090000 		.4byte	0x90f
 1554 08fc 19       		.uleb128 0x19
 1555 08fd 5700     		.ascii	"W\000"
 1556 08ff 11       		.byte	0x11
 1557 0900 5A       		.byte	0x5a
 1558 0901 CE000000 		.4byte	0xce
 1559 0905 19       		.uleb128 0x19
 1560 0906 4800     		.ascii	"H\000"
 1561 0908 11       		.byte	0x11
 1562 0909 5E       		.byte	0x5e
 1563 090a D3080000 		.4byte	0x8d3
 1564 090e 00       		.byte	0
 1565 090f 14       		.uleb128 0x14
 1566 0910 28       		.byte	0x28
 1567 0911 11       		.byte	0x11
 1568 0912 51       		.byte	0x51
 1569 0913 90090000 		.4byte	0x990
 1570 0917 06       		.uleb128 0x6
 1571 0918 A6000000 		.4byte	.LASF120
 1572 091c 11       		.byte	0x11
 1573 091d 53       		.byte	0x53
 1574 091e 82040000 		.4byte	0x482
 1575 0922 00       		.byte	0
 1576 0923 06       		.uleb128 0x6
 1577 0924 39000000 		.4byte	.LASF121
 1578 0928 11       		.byte	0x11
 1579 0929 54       		.byte	0x54
 1580 092a 82040000 		.4byte	0x482
 1581 092e 04       		.byte	0x4
 1582 092f 06       		.uleb128 0x6
 1583 0930 9D010000 		.4byte	.LASF122
 1584 0934 11       		.byte	0x11
 1585 0935 55       		.byte	0x55
 1586 0936 82040000 		.4byte	0x482
 1587 093a 08       		.byte	0x8
 1588 093b 06       		.uleb128 0x6
 1589 093c 63010000 		.4byte	.LASF123
 1590 0940 11       		.byte	0x11
 1591 0941 56       		.byte	0x56
 1592 0942 82040000 		.4byte	0x482
ARM GAS  /tmp/ccFpxhY7.s 			page 29


 1593 0946 0C       		.byte	0xc
 1594 0947 07       		.uleb128 0x7
 1595 0948 49445200 		.ascii	"IDR\000"
 1596 094c 11       		.byte	0x11
 1597 094d 57       		.byte	0x57
 1598 094e 82040000 		.4byte	0x482
 1599 0952 10       		.byte	0x10
 1600 0953 07       		.uleb128 0x7
 1601 0954 4F445200 		.ascii	"ODR\000"
 1602 0958 11       		.byte	0x11
 1603 0959 58       		.byte	0x58
 1604 095a 82040000 		.4byte	0x482
 1605 095e 14       		.byte	0x14
 1606 095f 06       		.uleb128 0x6
 1607 0960 49010000 		.4byte	.LASF124
 1608 0964 11       		.byte	0x11
 1609 0965 5F       		.byte	0x5f
 1610 0966 90090000 		.4byte	0x990
 1611 096a 18       		.byte	0x18
 1612 096b 06       		.uleb128 0x6
 1613 096c CD030000 		.4byte	.LASF125
 1614 0970 11       		.byte	0x11
 1615 0971 60       		.byte	0x60
 1616 0972 82040000 		.4byte	0x482
 1617 0976 1C       		.byte	0x1c
 1618 0977 06       		.uleb128 0x6
 1619 0978 A7040000 		.4byte	.LASF126
 1620 097c 11       		.byte	0x11
 1621 097d 61       		.byte	0x61
 1622 097e 82040000 		.4byte	0x482
 1623 0982 20       		.byte	0x20
 1624 0983 06       		.uleb128 0x6
 1625 0984 3E030000 		.4byte	.LASF127
 1626 0988 11       		.byte	0x11
 1627 0989 62       		.byte	0x62
 1628 098a 82040000 		.4byte	0x482
 1629 098e 24       		.byte	0x24
 1630 098f 00       		.byte	0
 1631 0990 0F       		.uleb128 0xf
 1632 0991 F4080000 		.4byte	0x8f4
 1633 0995 03       		.uleb128 0x3
 1634 0996 DD010000 		.4byte	.LASF128
 1635 099a 11       		.byte	0x11
 1636 099b 63       		.byte	0x63
 1637 099c 0F090000 		.4byte	0x90f
 1638 09a0 03       		.uleb128 0x3
 1639 09a1 6C000000 		.4byte	.LASF129
 1640 09a5 12       		.byte	0x12
 1641 09a6 C2       		.byte	0xc2
 1642 09a7 CE000000 		.4byte	0xce
 1643 09ab 03       		.uleb128 0x3
 1644 09ac 30070000 		.4byte	.LASF130
 1645 09b0 12       		.byte	0x12
 1646 09b1 C7       		.byte	0xc7
 1647 09b2 CE000000 		.4byte	0xce
 1648 09b6 03       		.uleb128 0x3
 1649 09b7 43030000 		.4byte	.LASF131
ARM GAS  /tmp/ccFpxhY7.s 			page 30


 1650 09bb 12       		.byte	0x12
 1651 09bc D1       		.byte	0xd1
 1652 09bd CE000000 		.4byte	0xce
 1653 09c1 03       		.uleb128 0x3
 1654 09c2 6C060000 		.4byte	.LASF132
 1655 09c6 12       		.byte	0x12
 1656 09c7 D9       		.byte	0xd9
 1657 09c8 CC090000 		.4byte	0x9cc
 1658 09cc 0A       		.uleb128 0xa
 1659 09cd 04       		.byte	0x4
 1660 09ce 95090000 		.4byte	0x995
 1661 09d2 03       		.uleb128 0x3
 1662 09d3 18050000 		.4byte	.LASF133
 1663 09d7 12       		.byte	0x12
 1664 09d8 DE       		.byte	0xde
 1665 09d9 CE000000 		.4byte	0xce
 1666 09dd 1A       		.uleb128 0x1a
 1667 09de DA060000 		.4byte	.LASF134
 1668 09e2 01       		.byte	0x1
 1669 09e3 41       		.byte	0x41
 1670 09e4 00000000 		.4byte	.LFB323
 1671 09e8 18000000 		.4byte	.LFE323-.LFB323
 1672 09ec 01       		.uleb128 0x1
 1673 09ed 9C       		.byte	0x9c
 1674 09ee 000A0000 		.4byte	0xa00
 1675 09f2 1B       		.uleb128 0x1b
 1676 09f3 6900     		.ascii	"i\000"
 1677 09f5 01       		.byte	0x1
 1678 09f6 44       		.byte	0x44
 1679 09f7 37000000 		.4byte	0x37
 1680 09fb 00000000 		.4byte	.LLST0
 1681 09ff 00       		.byte	0
 1682 0a00 1A       		.uleb128 0x1a
 1683 0a01 77060000 		.4byte	.LASF135
 1684 0a05 01       		.byte	0x1
 1685 0a06 59       		.byte	0x59
 1686 0a07 00000000 		.4byte	.LFB324
 1687 0a0b D0000000 		.4byte	.LFE324-.LFB324
 1688 0a0f 01       		.uleb128 0x1
 1689 0a10 9C       		.byte	0x9c
 1690 0a11 D60A0000 		.4byte	0xad6
 1691 0a15 1C       		.uleb128 0x1c
 1692 0a16 EA010000 		.4byte	.LASF136
 1693 0a1a 01       		.byte	0x1
 1694 0a1b 59       		.byte	0x59
 1695 0a1c C1090000 		.4byte	0x9c1
 1696 0a20 01       		.uleb128 0x1
 1697 0a21 50       		.byte	0x50
 1698 0a22 1D       		.uleb128 0x1d
 1699 0a23 B0010000 		.4byte	.LASF137
 1700 0a27 01       		.byte	0x1
 1701 0a28 5A       		.byte	0x5a
 1702 0a29 A0090000 		.4byte	0x9a0
 1703 0a2d 14000000 		.4byte	.LLST1
 1704 0a31 1D       		.uleb128 0x1d
 1705 0a32 23060000 		.4byte	.LASF138
 1706 0a36 01       		.byte	0x1
ARM GAS  /tmp/ccFpxhY7.s 			page 31


 1707 0a37 5B       		.byte	0x5b
 1708 0a38 AB090000 		.4byte	0x9ab
 1709 0a3c 41000000 		.4byte	.LLST2
 1710 0a40 1E       		.uleb128 0x1e
 1711 0a41 54010000 		.4byte	.LASF139
 1712 0a45 01       		.byte	0x1
 1713 0a46 5D       		.byte	0x5d
 1714 0a47 CE000000 		.4byte	0xce
 1715 0a4b 62000000 		.4byte	.LLST3
 1716 0a4f 1F       		.uleb128 0x1f
 1717 0a50 6B030000 		.4byte	.LASF140
 1718 0a54 01       		.byte	0x1
 1719 0a55 5E       		.byte	0x5e
 1720 0a56 CE000000 		.4byte	0xce
 1721 0a5a 01       		.uleb128 0x1
 1722 0a5b 58       		.byte	0x58
 1723 0a5c 1F       		.uleb128 0x1f
 1724 0a5d 57030000 		.4byte	.LASF141
 1725 0a61 01       		.byte	0x1
 1726 0a62 5F       		.byte	0x5f
 1727 0a63 CE000000 		.4byte	0xce
 1728 0a67 01       		.uleb128 0x1
 1729 0a68 5C       		.byte	0x5c
 1730 0a69 1F       		.uleb128 0x1f
 1731 0a6a C9000000 		.4byte	.LASF142
 1732 0a6e 01       		.byte	0x1
 1733 0a6f 60       		.byte	0x60
 1734 0a70 CE000000 		.4byte	0xce
 1735 0a74 01       		.uleb128 0x1
 1736 0a75 5E       		.byte	0x5e
 1737 0a76 1F       		.uleb128 0x1f
 1738 0a77 13060000 		.4byte	.LASF143
 1739 0a7b 01       		.byte	0x1
 1740 0a7c 61       		.byte	0x61
 1741 0a7d CE000000 		.4byte	0xce
 1742 0a81 01       		.uleb128 0x1
 1743 0a82 52       		.byte	0x52
 1744 0a83 1B       		.uleb128 0x1b
 1745 0a84 62697400 		.ascii	"bit\000"
 1746 0a88 01       		.byte	0x1
 1747 0a89 62       		.byte	0x62
 1748 0a8a CE000000 		.4byte	0xce
 1749 0a8e 80000000 		.4byte	.LLST4
 1750 0a92 20       		.uleb128 0x20
 1751 0a93 20000000 		.4byte	.LBB2
 1752 0a97 96000000 		.4byte	.LBE2-.LBB2
 1753 0a9b 1E       		.uleb128 0x1e
 1754 0a9c 94010000 		.4byte	.LASF144
 1755 0aa0 01       		.byte	0x1
 1756 0aa1 65       		.byte	0x65
 1757 0aa2 CE000000 		.4byte	0xce
 1758 0aa6 9F000000 		.4byte	.LLST5
 1759 0aaa 1B       		.uleb128 0x1b
 1760 0aab 6D3100   		.ascii	"m1\000"
 1761 0aae 01       		.byte	0x1
 1762 0aaf 65       		.byte	0x65
 1763 0ab0 CE000000 		.4byte	0xce
ARM GAS  /tmp/ccFpxhY7.s 			page 32


 1764 0ab4 E5000000 		.4byte	.LLST6
 1765 0ab8 1B       		.uleb128 0x1b
 1766 0ab9 6D3200   		.ascii	"m2\000"
 1767 0abc 01       		.byte	0x1
 1768 0abd 65       		.byte	0x65
 1769 0abe CE000000 		.4byte	0xce
 1770 0ac2 16010000 		.4byte	.LLST7
 1771 0ac6 1B       		.uleb128 0x1b
 1772 0ac7 6D3400   		.ascii	"m4\000"
 1773 0aca 01       		.byte	0x1
 1774 0acb 65       		.byte	0x65
 1775 0acc CE000000 		.4byte	0xce
 1776 0ad0 59010000 		.4byte	.LLST8
 1777 0ad4 00       		.byte	0
 1778 0ad5 00       		.byte	0
 1779 0ad6 1A       		.uleb128 0x1a
 1780 0ad7 7C050000 		.4byte	.LASF145
 1781 0adb 01       		.byte	0x1
 1782 0adc 97       		.byte	0x97
 1783 0add 00000000 		.4byte	.LFB325
 1784 0ae1 64000000 		.4byte	.LFE325-.LFB325
 1785 0ae5 01       		.uleb128 0x1
 1786 0ae6 9C       		.byte	0x9c
 1787 0ae7 6D0B0000 		.4byte	0xb6d
 1788 0aeb 1D       		.uleb128 0x1d
 1789 0aec EA010000 		.4byte	.LASF136
 1790 0af0 01       		.byte	0x1
 1791 0af1 97       		.byte	0x97
 1792 0af2 C1090000 		.4byte	0x9c1
 1793 0af6 6C010000 		.4byte	.LLST9
 1794 0afa 21       		.uleb128 0x21
 1795 0afb 70616400 		.ascii	"pad\000"
 1796 0aff 01       		.byte	0x1
 1797 0b00 98       		.byte	0x98
 1798 0b01 D2090000 		.4byte	0x9d2
 1799 0b05 8D010000 		.4byte	.LLST10
 1800 0b09 1D       		.uleb128 0x1d
 1801 0b0a 23060000 		.4byte	.LASF138
 1802 0b0e 01       		.byte	0x1
 1803 0b0f 99       		.byte	0x99
 1804 0b10 B6090000 		.4byte	0x9b6
 1805 0b14 AE010000 		.4byte	.LLST11
 1806 0b18 1E       		.uleb128 0x1e
 1807 0b19 27010000 		.4byte	.LASF146
 1808 0b1d 01       		.byte	0x1
 1809 0b1e 9B       		.byte	0x9b
 1810 0b1f CE000000 		.4byte	0xce
 1811 0b23 CF010000 		.4byte	.LLST12
 1812 0b27 1E       		.uleb128 0x1e
 1813 0b28 68040000 		.4byte	.LASF147
 1814 0b2c 01       		.byte	0x1
 1815 0b2d 9B       		.byte	0x9b
 1816 0b2e CE000000 		.4byte	0xce
 1817 0b32 F0010000 		.4byte	.LLST13
 1818 0b36 1E       		.uleb128 0x1e
 1819 0b37 8B030000 		.4byte	.LASF148
 1820 0b3b 01       		.byte	0x1
ARM GAS  /tmp/ccFpxhY7.s 			page 33


 1821 0b3c 9B       		.byte	0x9b
 1822 0b3d CE000000 		.4byte	0xce
 1823 0b41 17020000 		.4byte	.LLST14
 1824 0b45 1E       		.uleb128 0x1e
 1825 0b46 53070000 		.4byte	.LASF149
 1826 0b4a 01       		.byte	0x1
 1827 0b4b 9B       		.byte	0x9b
 1828 0b4c CE000000 		.4byte	0xce
 1829 0b50 5F020000 		.4byte	.LLST15
 1830 0b54 1E       		.uleb128 0x1e
 1831 0b55 44070000 		.4byte	.LASF150
 1832 0b59 01       		.byte	0x1
 1833 0b5a 9B       		.byte	0x9b
 1834 0b5b CE000000 		.4byte	0xce
 1835 0b5f 8C020000 		.4byte	.LLST16
 1836 0b63 22       		.uleb128 0x22
 1837 0b64 A5050000 		.4byte	.LASF154
 1838 0b68 7D0B0000 		.4byte	0xb7d
 1839 0b6c 00       		.byte	0
 1840 0b6d 10       		.uleb128 0x10
 1841 0b6e 6D080000 		.4byte	0x86d
 1842 0b72 7D0B0000 		.4byte	0xb7d
 1843 0b76 11       		.uleb128 0x11
 1844 0b77 7B040000 		.4byte	0x47b
 1845 0b7b 17       		.byte	0x17
 1846 0b7c 00       		.byte	0
 1847 0b7d 18       		.uleb128 0x18
 1848 0b7e 6D0B0000 		.4byte	0xb6d
 1849 0b82 1A       		.uleb128 0x1a
 1850 0b83 1F030000 		.4byte	.LASF151
 1851 0b87 01       		.byte	0x1
 1852 0b88 DE       		.byte	0xde
 1853 0b89 00000000 		.4byte	.LFB326
 1854 0b8d 54000000 		.4byte	.LFE326-.LFB326
 1855 0b91 01       		.uleb128 0x1
 1856 0b92 9C       		.byte	0x9c
 1857 0b93 2C0C0000 		.4byte	0xc2c
 1858 0b97 1D       		.uleb128 0x1d
 1859 0b98 EA010000 		.4byte	.LASF136
 1860 0b9c 01       		.byte	0x1
 1861 0b9d DE       		.byte	0xde
 1862 0b9e C1090000 		.4byte	0x9c1
 1863 0ba2 C1020000 		.4byte	.LLST17
 1864 0ba6 23       		.uleb128 0x23
 1865 0ba7 70616400 		.ascii	"pad\000"
 1866 0bab 01       		.byte	0x1
 1867 0bac DE       		.byte	0xde
 1868 0bad D2090000 		.4byte	0x9d2
 1869 0bb1 01       		.uleb128 0x1
 1870 0bb2 51       		.byte	0x51
 1871 0bb3 1E       		.uleb128 0x1e
 1872 0bb4 27010000 		.4byte	.LASF146
 1873 0bb8 01       		.byte	0x1
 1874 0bb9 DF       		.byte	0xdf
 1875 0bba CE000000 		.4byte	0xce
 1876 0bbe E2020000 		.4byte	.LLST18
 1877 0bc2 1E       		.uleb128 0x1e
ARM GAS  /tmp/ccFpxhY7.s 			page 34


 1878 0bc3 13010000 		.4byte	.LASF152
 1879 0bc7 01       		.byte	0x1
 1880 0bc8 DF       		.byte	0xdf
 1881 0bc9 CE000000 		.4byte	0xce
 1882 0bcd 13030000 		.4byte	.LLST19
 1883 0bd1 1E       		.uleb128 0x1e
 1884 0bd2 C3000000 		.4byte	.LASF153
 1885 0bd6 01       		.byte	0x1
 1886 0bd7 DF       		.byte	0xdf
 1887 0bd8 CE000000 		.4byte	0xce
 1888 0bdc 26030000 		.4byte	.LLST20
 1889 0be0 22       		.uleb128 0x22
 1890 0be1 A5050000 		.4byte	.LASF154
 1891 0be5 3C0C0000 		.4byte	0xc3c
 1892 0be9 20       		.uleb128 0x20
 1893 0bea 14000000 		.4byte	.LBB3
 1894 0bee 40000000 		.4byte	.LBE3-.LBB3
 1895 0bf2 1E       		.uleb128 0x1e
 1896 0bf3 68040000 		.4byte	.LASF147
 1897 0bf7 01       		.byte	0x1
 1898 0bf8 EE       		.byte	0xee
 1899 0bf9 CE000000 		.4byte	0xce
 1900 0bfd 39030000 		.4byte	.LLST21
 1901 0c01 1E       		.uleb128 0x1e
 1902 0c02 8B030000 		.4byte	.LASF148
 1903 0c06 01       		.byte	0x1
 1904 0c07 EE       		.byte	0xee
 1905 0c08 CE000000 		.4byte	0xce
 1906 0c0c 68030000 		.4byte	.LLST22
 1907 0c10 24       		.uleb128 0x24
 1908 0c11 11030000 		.4byte	.LASF160
 1909 0c15 01       		.byte	0x1
 1910 0c16 EE       		.byte	0xee
 1911 0c17 CE000000 		.4byte	0xce
 1912 0c1b 1E       		.uleb128 0x1e
 1913 0c1c 44070000 		.4byte	.LASF150
 1914 0c20 01       		.byte	0x1
 1915 0c21 EE       		.byte	0xee
 1916 0c22 CE000000 		.4byte	0xce
 1917 0c26 81030000 		.4byte	.LLST23
 1918 0c2a 00       		.byte	0
 1919 0c2b 00       		.byte	0
 1920 0c2c 10       		.uleb128 0x10
 1921 0c2d 6D080000 		.4byte	0x86d
 1922 0c31 3C0C0000 		.4byte	0xc3c
 1923 0c35 11       		.uleb128 0x11
 1924 0c36 7B040000 		.4byte	0x47b
 1925 0c3a 18       		.byte	0x18
 1926 0c3b 00       		.byte	0
 1927 0c3c 18       		.uleb128 0x18
 1928 0c3d 2C0C0000 		.4byte	0xc2c
 1929 0c41 25       		.uleb128 0x25
 1930 0c42 01010000 		.4byte	.LASF155
 1931 0c46 13       		.byte	0x13
 1932 0c47 0408     		.2byte	0x804
 1933 0c49 4D0C0000 		.4byte	0xc4d
 1934 0c4d 0F       		.uleb128 0xf
ARM GAS  /tmp/ccFpxhY7.s 			page 35


 1935 0c4e C3000000 		.4byte	0xc3
 1936 0c52 26       		.uleb128 0x26
 1937 0c53 636800   		.ascii	"ch\000"
 1938 0c56 07       		.byte	0x7
 1939 0c57 C701     		.2byte	0x1c7
 1940 0c59 FF030000 		.4byte	0x3ff
 1941 0c5d 10       		.uleb128 0x10
 1942 0c5e C8080000 		.4byte	0x8c8
 1943 0c62 6D0C0000 		.4byte	0xc6d
 1944 0c66 11       		.uleb128 0x11
 1945 0c67 7B040000 		.4byte	0x47b
 1946 0c6b 0F       		.byte	0xf
 1947 0c6c 00       		.byte	0
 1948 0c6d 27       		.uleb128 0x27
 1949 0c6e A0030000 		.4byte	.LASF156
 1950 0c72 01       		.byte	0x1
 1951 0c73 29       		.byte	0x29
 1952 0c74 5D0C0000 		.4byte	0xc5d
 1953 0c78 05       		.uleb128 0x5
 1954 0c79 03       		.byte	0x3
 1955 0c7a 00000000 		.4byte	_pal_events
 1956 0c7e 00       		.byte	0
 1957              		.section	.debug_abbrev,"",%progbits
 1958              	.Ldebug_abbrev0:
 1959 0000 01       		.uleb128 0x1
 1960 0001 11       		.uleb128 0x11
 1961 0002 01       		.byte	0x1
 1962 0003 25       		.uleb128 0x25
 1963 0004 0E       		.uleb128 0xe
 1964 0005 13       		.uleb128 0x13
 1965 0006 0B       		.uleb128 0xb
 1966 0007 03       		.uleb128 0x3
 1967 0008 0E       		.uleb128 0xe
 1968 0009 1B       		.uleb128 0x1b
 1969 000a 0E       		.uleb128 0xe
 1970 000b 55       		.uleb128 0x55
 1971 000c 17       		.uleb128 0x17
 1972 000d 11       		.uleb128 0x11
 1973 000e 01       		.uleb128 0x1
 1974 000f 10       		.uleb128 0x10
 1975 0010 17       		.uleb128 0x17
 1976 0011 00       		.byte	0
 1977 0012 00       		.byte	0
 1978 0013 02       		.uleb128 0x2
 1979 0014 24       		.uleb128 0x24
 1980 0015 00       		.byte	0
 1981 0016 0B       		.uleb128 0xb
 1982 0017 0B       		.uleb128 0xb
 1983 0018 3E       		.uleb128 0x3e
 1984 0019 0B       		.uleb128 0xb
 1985 001a 03       		.uleb128 0x3
 1986 001b 08       		.uleb128 0x8
 1987 001c 00       		.byte	0
 1988 001d 00       		.byte	0
 1989 001e 03       		.uleb128 0x3
 1990 001f 16       		.uleb128 0x16
 1991 0020 00       		.byte	0
ARM GAS  /tmp/ccFpxhY7.s 			page 36


 1992 0021 03       		.uleb128 0x3
 1993 0022 0E       		.uleb128 0xe
 1994 0023 3A       		.uleb128 0x3a
 1995 0024 0B       		.uleb128 0xb
 1996 0025 3B       		.uleb128 0x3b
 1997 0026 0B       		.uleb128 0xb
 1998 0027 49       		.uleb128 0x49
 1999 0028 13       		.uleb128 0x13
 2000 0029 00       		.byte	0
 2001 002a 00       		.byte	0
 2002 002b 04       		.uleb128 0x4
 2003 002c 24       		.uleb128 0x24
 2004 002d 00       		.byte	0
 2005 002e 0B       		.uleb128 0xb
 2006 002f 0B       		.uleb128 0xb
 2007 0030 3E       		.uleb128 0x3e
 2008 0031 0B       		.uleb128 0xb
 2009 0032 03       		.uleb128 0x3
 2010 0033 0E       		.uleb128 0xe
 2011 0034 00       		.byte	0
 2012 0035 00       		.byte	0
 2013 0036 05       		.uleb128 0x5
 2014 0037 13       		.uleb128 0x13
 2015 0038 01       		.byte	0x1
 2016 0039 03       		.uleb128 0x3
 2017 003a 0E       		.uleb128 0xe
 2018 003b 0B       		.uleb128 0xb
 2019 003c 0B       		.uleb128 0xb
 2020 003d 3A       		.uleb128 0x3a
 2021 003e 0B       		.uleb128 0xb
 2022 003f 3B       		.uleb128 0x3b
 2023 0040 0B       		.uleb128 0xb
 2024 0041 01       		.uleb128 0x1
 2025 0042 13       		.uleb128 0x13
 2026 0043 00       		.byte	0
 2027 0044 00       		.byte	0
 2028 0045 06       		.uleb128 0x6
 2029 0046 0D       		.uleb128 0xd
 2030 0047 00       		.byte	0
 2031 0048 03       		.uleb128 0x3
 2032 0049 0E       		.uleb128 0xe
 2033 004a 3A       		.uleb128 0x3a
 2034 004b 0B       		.uleb128 0xb
 2035 004c 3B       		.uleb128 0x3b
 2036 004d 0B       		.uleb128 0xb
 2037 004e 49       		.uleb128 0x49
 2038 004f 13       		.uleb128 0x13
 2039 0050 38       		.uleb128 0x38
 2040 0051 0B       		.uleb128 0xb
 2041 0052 00       		.byte	0
 2042 0053 00       		.byte	0
 2043 0054 07       		.uleb128 0x7
 2044 0055 0D       		.uleb128 0xd
 2045 0056 00       		.byte	0
 2046 0057 03       		.uleb128 0x3
 2047 0058 08       		.uleb128 0x8
 2048 0059 3A       		.uleb128 0x3a
ARM GAS  /tmp/ccFpxhY7.s 			page 37


 2049 005a 0B       		.uleb128 0xb
 2050 005b 3B       		.uleb128 0x3b
 2051 005c 0B       		.uleb128 0xb
 2052 005d 49       		.uleb128 0x49
 2053 005e 13       		.uleb128 0x13
 2054 005f 38       		.uleb128 0x38
 2055 0060 0B       		.uleb128 0xb
 2056 0061 00       		.byte	0
 2057 0062 00       		.byte	0
 2058 0063 08       		.uleb128 0x8
 2059 0064 0D       		.uleb128 0xd
 2060 0065 00       		.byte	0
 2061 0066 03       		.uleb128 0x3
 2062 0067 08       		.uleb128 0x8
 2063 0068 3A       		.uleb128 0x3a
 2064 0069 0B       		.uleb128 0xb
 2065 006a 3B       		.uleb128 0x3b
 2066 006b 05       		.uleb128 0x5
 2067 006c 49       		.uleb128 0x49
 2068 006d 13       		.uleb128 0x13
 2069 006e 38       		.uleb128 0x38
 2070 006f 0B       		.uleb128 0xb
 2071 0070 00       		.byte	0
 2072 0071 00       		.byte	0
 2073 0072 09       		.uleb128 0x9
 2074 0073 0D       		.uleb128 0xd
 2075 0074 00       		.byte	0
 2076 0075 03       		.uleb128 0x3
 2077 0076 0E       		.uleb128 0xe
 2078 0077 3A       		.uleb128 0x3a
 2079 0078 0B       		.uleb128 0xb
 2080 0079 3B       		.uleb128 0x3b
 2081 007a 05       		.uleb128 0x5
 2082 007b 49       		.uleb128 0x49
 2083 007c 13       		.uleb128 0x13
 2084 007d 38       		.uleb128 0x38
 2085 007e 0B       		.uleb128 0xb
 2086 007f 00       		.byte	0
 2087 0080 00       		.byte	0
 2088 0081 0A       		.uleb128 0xa
 2089 0082 0F       		.uleb128 0xf
 2090 0083 00       		.byte	0
 2091 0084 0B       		.uleb128 0xb
 2092 0085 0B       		.uleb128 0xb
 2093 0086 49       		.uleb128 0x49
 2094 0087 13       		.uleb128 0x13
 2095 0088 00       		.byte	0
 2096 0089 00       		.byte	0
 2097 008a 0B       		.uleb128 0xb
 2098 008b 13       		.uleb128 0x13
 2099 008c 01       		.byte	0x1
 2100 008d 03       		.uleb128 0x3
 2101 008e 0E       		.uleb128 0xe
 2102 008f 0B       		.uleb128 0xb
 2103 0090 0B       		.uleb128 0xb
 2104 0091 3A       		.uleb128 0x3a
 2105 0092 0B       		.uleb128 0xb
ARM GAS  /tmp/ccFpxhY7.s 			page 38


 2106 0093 3B       		.uleb128 0x3b
 2107 0094 05       		.uleb128 0x5
 2108 0095 01       		.uleb128 0x1
 2109 0096 13       		.uleb128 0x13
 2110 0097 00       		.byte	0
 2111 0098 00       		.byte	0
 2112 0099 0C       		.uleb128 0xc
 2113 009a 15       		.uleb128 0x15
 2114 009b 01       		.byte	0x1
 2115 009c 27       		.uleb128 0x27
 2116 009d 19       		.uleb128 0x19
 2117 009e 01       		.uleb128 0x1
 2118 009f 13       		.uleb128 0x13
 2119 00a0 00       		.byte	0
 2120 00a1 00       		.byte	0
 2121 00a2 0D       		.uleb128 0xd
 2122 00a3 05       		.uleb128 0x5
 2123 00a4 00       		.byte	0
 2124 00a5 49       		.uleb128 0x49
 2125 00a6 13       		.uleb128 0x13
 2126 00a7 00       		.byte	0
 2127 00a8 00       		.byte	0
 2128 00a9 0E       		.uleb128 0xe
 2129 00aa 0F       		.uleb128 0xf
 2130 00ab 00       		.byte	0
 2131 00ac 0B       		.uleb128 0xb
 2132 00ad 0B       		.uleb128 0xb
 2133 00ae 00       		.byte	0
 2134 00af 00       		.byte	0
 2135 00b0 0F       		.uleb128 0xf
 2136 00b1 35       		.uleb128 0x35
 2137 00b2 00       		.byte	0
 2138 00b3 49       		.uleb128 0x49
 2139 00b4 13       		.uleb128 0x13
 2140 00b5 00       		.byte	0
 2141 00b6 00       		.byte	0
 2142 00b7 10       		.uleb128 0x10
 2143 00b8 01       		.uleb128 0x1
 2144 00b9 01       		.byte	0x1
 2145 00ba 49       		.uleb128 0x49
 2146 00bb 13       		.uleb128 0x13
 2147 00bc 01       		.uleb128 0x1
 2148 00bd 13       		.uleb128 0x13
 2149 00be 00       		.byte	0
 2150 00bf 00       		.byte	0
 2151 00c0 11       		.uleb128 0x11
 2152 00c1 21       		.uleb128 0x21
 2153 00c2 00       		.byte	0
 2154 00c3 49       		.uleb128 0x49
 2155 00c4 13       		.uleb128 0x13
 2156 00c5 2F       		.uleb128 0x2f
 2157 00c6 0B       		.uleb128 0xb
 2158 00c7 00       		.byte	0
 2159 00c8 00       		.byte	0
 2160 00c9 12       		.uleb128 0x12
 2161 00ca 13       		.uleb128 0x13
 2162 00cb 01       		.byte	0x1
ARM GAS  /tmp/ccFpxhY7.s 			page 39


 2163 00cc 0B       		.uleb128 0xb
 2164 00cd 0B       		.uleb128 0xb
 2165 00ce 3A       		.uleb128 0x3a
 2166 00cf 0B       		.uleb128 0xb
 2167 00d0 3B       		.uleb128 0x3b
 2168 00d1 05       		.uleb128 0x5
 2169 00d2 01       		.uleb128 0x1
 2170 00d3 13       		.uleb128 0x13
 2171 00d4 00       		.byte	0
 2172 00d5 00       		.byte	0
 2173 00d6 13       		.uleb128 0x13
 2174 00d7 16       		.uleb128 0x16
 2175 00d8 00       		.byte	0
 2176 00d9 03       		.uleb128 0x3
 2177 00da 0E       		.uleb128 0xe
 2178 00db 3A       		.uleb128 0x3a
 2179 00dc 0B       		.uleb128 0xb
 2180 00dd 3B       		.uleb128 0x3b
 2181 00de 05       		.uleb128 0x5
 2182 00df 49       		.uleb128 0x49
 2183 00e0 13       		.uleb128 0x13
 2184 00e1 00       		.byte	0
 2185 00e2 00       		.byte	0
 2186 00e3 14       		.uleb128 0x14
 2187 00e4 13       		.uleb128 0x13
 2188 00e5 01       		.byte	0x1
 2189 00e6 0B       		.uleb128 0xb
 2190 00e7 0B       		.uleb128 0xb
 2191 00e8 3A       		.uleb128 0x3a
 2192 00e9 0B       		.uleb128 0xb
 2193 00ea 3B       		.uleb128 0x3b
 2194 00eb 0B       		.uleb128 0xb
 2195 00ec 01       		.uleb128 0x1
 2196 00ed 13       		.uleb128 0x13
 2197 00ee 00       		.byte	0
 2198 00ef 00       		.byte	0
 2199 00f0 15       		.uleb128 0x15
 2200 00f1 17       		.uleb128 0x17
 2201 00f2 01       		.byte	0x1
 2202 00f3 0B       		.uleb128 0xb
 2203 00f4 0B       		.uleb128 0xb
 2204 00f5 3A       		.uleb128 0x3a
 2205 00f6 0B       		.uleb128 0xb
 2206 00f7 3B       		.uleb128 0x3b
 2207 00f8 0B       		.uleb128 0xb
 2208 00f9 01       		.uleb128 0x1
 2209 00fa 13       		.uleb128 0x13
 2210 00fb 00       		.byte	0
 2211 00fc 00       		.byte	0
 2212 00fd 16       		.uleb128 0x16
 2213 00fe 0D       		.uleb128 0xd
 2214 00ff 00       		.byte	0
 2215 0100 03       		.uleb128 0x3
 2216 0101 0E       		.uleb128 0xe
 2217 0102 3A       		.uleb128 0x3a
 2218 0103 0B       		.uleb128 0xb
 2219 0104 3B       		.uleb128 0x3b
ARM GAS  /tmp/ccFpxhY7.s 			page 40


 2220 0105 0B       		.uleb128 0xb
 2221 0106 49       		.uleb128 0x49
 2222 0107 13       		.uleb128 0x13
 2223 0108 00       		.byte	0
 2224 0109 00       		.byte	0
 2225 010a 17       		.uleb128 0x17
 2226 010b 0D       		.uleb128 0xd
 2227 010c 00       		.byte	0
 2228 010d 03       		.uleb128 0x3
 2229 010e 0E       		.uleb128 0xe
 2230 010f 3A       		.uleb128 0x3a
 2231 0110 0B       		.uleb128 0xb
 2232 0111 3B       		.uleb128 0x3b
 2233 0112 05       		.uleb128 0x5
 2234 0113 49       		.uleb128 0x49
 2235 0114 13       		.uleb128 0x13
 2236 0115 00       		.byte	0
 2237 0116 00       		.byte	0
 2238 0117 18       		.uleb128 0x18
 2239 0118 26       		.uleb128 0x26
 2240 0119 00       		.byte	0
 2241 011a 49       		.uleb128 0x49
 2242 011b 13       		.uleb128 0x13
 2243 011c 00       		.byte	0
 2244 011d 00       		.byte	0
 2245 011e 19       		.uleb128 0x19
 2246 011f 0D       		.uleb128 0xd
 2247 0120 00       		.byte	0
 2248 0121 03       		.uleb128 0x3
 2249 0122 08       		.uleb128 0x8
 2250 0123 3A       		.uleb128 0x3a
 2251 0124 0B       		.uleb128 0xb
 2252 0125 3B       		.uleb128 0x3b
 2253 0126 0B       		.uleb128 0xb
 2254 0127 49       		.uleb128 0x49
 2255 0128 13       		.uleb128 0x13
 2256 0129 00       		.byte	0
 2257 012a 00       		.byte	0
 2258 012b 1A       		.uleb128 0x1a
 2259 012c 2E       		.uleb128 0x2e
 2260 012d 01       		.byte	0x1
 2261 012e 3F       		.uleb128 0x3f
 2262 012f 19       		.uleb128 0x19
 2263 0130 03       		.uleb128 0x3
 2264 0131 0E       		.uleb128 0xe
 2265 0132 3A       		.uleb128 0x3a
 2266 0133 0B       		.uleb128 0xb
 2267 0134 3B       		.uleb128 0x3b
 2268 0135 0B       		.uleb128 0xb
 2269 0136 27       		.uleb128 0x27
 2270 0137 19       		.uleb128 0x19
 2271 0138 11       		.uleb128 0x11
 2272 0139 01       		.uleb128 0x1
 2273 013a 12       		.uleb128 0x12
 2274 013b 06       		.uleb128 0x6
 2275 013c 40       		.uleb128 0x40
 2276 013d 18       		.uleb128 0x18
ARM GAS  /tmp/ccFpxhY7.s 			page 41


 2277 013e 9742     		.uleb128 0x2117
 2278 0140 19       		.uleb128 0x19
 2279 0141 01       		.uleb128 0x1
 2280 0142 13       		.uleb128 0x13
 2281 0143 00       		.byte	0
 2282 0144 00       		.byte	0
 2283 0145 1B       		.uleb128 0x1b
 2284 0146 34       		.uleb128 0x34
 2285 0147 00       		.byte	0
 2286 0148 03       		.uleb128 0x3
 2287 0149 08       		.uleb128 0x8
 2288 014a 3A       		.uleb128 0x3a
 2289 014b 0B       		.uleb128 0xb
 2290 014c 3B       		.uleb128 0x3b
 2291 014d 0B       		.uleb128 0xb
 2292 014e 49       		.uleb128 0x49
 2293 014f 13       		.uleb128 0x13
 2294 0150 02       		.uleb128 0x2
 2295 0151 17       		.uleb128 0x17
 2296 0152 00       		.byte	0
 2297 0153 00       		.byte	0
 2298 0154 1C       		.uleb128 0x1c
 2299 0155 05       		.uleb128 0x5
 2300 0156 00       		.byte	0
 2301 0157 03       		.uleb128 0x3
 2302 0158 0E       		.uleb128 0xe
 2303 0159 3A       		.uleb128 0x3a
 2304 015a 0B       		.uleb128 0xb
 2305 015b 3B       		.uleb128 0x3b
 2306 015c 0B       		.uleb128 0xb
 2307 015d 49       		.uleb128 0x49
 2308 015e 13       		.uleb128 0x13
 2309 015f 02       		.uleb128 0x2
 2310 0160 18       		.uleb128 0x18
 2311 0161 00       		.byte	0
 2312 0162 00       		.byte	0
 2313 0163 1D       		.uleb128 0x1d
 2314 0164 05       		.uleb128 0x5
 2315 0165 00       		.byte	0
 2316 0166 03       		.uleb128 0x3
 2317 0167 0E       		.uleb128 0xe
 2318 0168 3A       		.uleb128 0x3a
 2319 0169 0B       		.uleb128 0xb
 2320 016a 3B       		.uleb128 0x3b
 2321 016b 0B       		.uleb128 0xb
 2322 016c 49       		.uleb128 0x49
 2323 016d 13       		.uleb128 0x13
 2324 016e 02       		.uleb128 0x2
 2325 016f 17       		.uleb128 0x17
 2326 0170 00       		.byte	0
 2327 0171 00       		.byte	0
 2328 0172 1E       		.uleb128 0x1e
 2329 0173 34       		.uleb128 0x34
 2330 0174 00       		.byte	0
 2331 0175 03       		.uleb128 0x3
 2332 0176 0E       		.uleb128 0xe
 2333 0177 3A       		.uleb128 0x3a
ARM GAS  /tmp/ccFpxhY7.s 			page 42


 2334 0178 0B       		.uleb128 0xb
 2335 0179 3B       		.uleb128 0x3b
 2336 017a 0B       		.uleb128 0xb
 2337 017b 49       		.uleb128 0x49
 2338 017c 13       		.uleb128 0x13
 2339 017d 02       		.uleb128 0x2
 2340 017e 17       		.uleb128 0x17
 2341 017f 00       		.byte	0
 2342 0180 00       		.byte	0
 2343 0181 1F       		.uleb128 0x1f
 2344 0182 34       		.uleb128 0x34
 2345 0183 00       		.byte	0
 2346 0184 03       		.uleb128 0x3
 2347 0185 0E       		.uleb128 0xe
 2348 0186 3A       		.uleb128 0x3a
 2349 0187 0B       		.uleb128 0xb
 2350 0188 3B       		.uleb128 0x3b
 2351 0189 0B       		.uleb128 0xb
 2352 018a 49       		.uleb128 0x49
 2353 018b 13       		.uleb128 0x13
 2354 018c 02       		.uleb128 0x2
 2355 018d 18       		.uleb128 0x18
 2356 018e 00       		.byte	0
 2357 018f 00       		.byte	0
 2358 0190 20       		.uleb128 0x20
 2359 0191 0B       		.uleb128 0xb
 2360 0192 01       		.byte	0x1
 2361 0193 11       		.uleb128 0x11
 2362 0194 01       		.uleb128 0x1
 2363 0195 12       		.uleb128 0x12
 2364 0196 06       		.uleb128 0x6
 2365 0197 00       		.byte	0
 2366 0198 00       		.byte	0
 2367 0199 21       		.uleb128 0x21
 2368 019a 05       		.uleb128 0x5
 2369 019b 00       		.byte	0
 2370 019c 03       		.uleb128 0x3
 2371 019d 08       		.uleb128 0x8
 2372 019e 3A       		.uleb128 0x3a
 2373 019f 0B       		.uleb128 0xb
 2374 01a0 3B       		.uleb128 0x3b
 2375 01a1 0B       		.uleb128 0xb
 2376 01a2 49       		.uleb128 0x49
 2377 01a3 13       		.uleb128 0x13
 2378 01a4 02       		.uleb128 0x2
 2379 01a5 17       		.uleb128 0x17
 2380 01a6 00       		.byte	0
 2381 01a7 00       		.byte	0
 2382 01a8 22       		.uleb128 0x22
 2383 01a9 34       		.uleb128 0x34
 2384 01aa 00       		.byte	0
 2385 01ab 03       		.uleb128 0x3
 2386 01ac 0E       		.uleb128 0xe
 2387 01ad 49       		.uleb128 0x49
 2388 01ae 13       		.uleb128 0x13
 2389 01af 34       		.uleb128 0x34
 2390 01b0 19       		.uleb128 0x19
ARM GAS  /tmp/ccFpxhY7.s 			page 43


 2391 01b1 00       		.byte	0
 2392 01b2 00       		.byte	0
 2393 01b3 23       		.uleb128 0x23
 2394 01b4 05       		.uleb128 0x5
 2395 01b5 00       		.byte	0
 2396 01b6 03       		.uleb128 0x3
 2397 01b7 08       		.uleb128 0x8
 2398 01b8 3A       		.uleb128 0x3a
 2399 01b9 0B       		.uleb128 0xb
 2400 01ba 3B       		.uleb128 0x3b
 2401 01bb 0B       		.uleb128 0xb
 2402 01bc 49       		.uleb128 0x49
 2403 01bd 13       		.uleb128 0x13
 2404 01be 02       		.uleb128 0x2
 2405 01bf 18       		.uleb128 0x18
 2406 01c0 00       		.byte	0
 2407 01c1 00       		.byte	0
 2408 01c2 24       		.uleb128 0x24
 2409 01c3 34       		.uleb128 0x34
 2410 01c4 00       		.byte	0
 2411 01c5 03       		.uleb128 0x3
 2412 01c6 0E       		.uleb128 0xe
 2413 01c7 3A       		.uleb128 0x3a
 2414 01c8 0B       		.uleb128 0xb
 2415 01c9 3B       		.uleb128 0x3b
 2416 01ca 0B       		.uleb128 0xb
 2417 01cb 49       		.uleb128 0x49
 2418 01cc 13       		.uleb128 0x13
 2419 01cd 00       		.byte	0
 2420 01ce 00       		.byte	0
 2421 01cf 25       		.uleb128 0x25
 2422 01d0 34       		.uleb128 0x34
 2423 01d1 00       		.byte	0
 2424 01d2 03       		.uleb128 0x3
 2425 01d3 0E       		.uleb128 0xe
 2426 01d4 3A       		.uleb128 0x3a
 2427 01d5 0B       		.uleb128 0xb
 2428 01d6 3B       		.uleb128 0x3b
 2429 01d7 05       		.uleb128 0x5
 2430 01d8 49       		.uleb128 0x49
 2431 01d9 13       		.uleb128 0x13
 2432 01da 3F       		.uleb128 0x3f
 2433 01db 19       		.uleb128 0x19
 2434 01dc 3C       		.uleb128 0x3c
 2435 01dd 19       		.uleb128 0x19
 2436 01de 00       		.byte	0
 2437 01df 00       		.byte	0
 2438 01e0 26       		.uleb128 0x26
 2439 01e1 34       		.uleb128 0x34
 2440 01e2 00       		.byte	0
 2441 01e3 03       		.uleb128 0x3
 2442 01e4 08       		.uleb128 0x8
 2443 01e5 3A       		.uleb128 0x3a
 2444 01e6 0B       		.uleb128 0xb
 2445 01e7 3B       		.uleb128 0x3b
 2446 01e8 05       		.uleb128 0x5
 2447 01e9 49       		.uleb128 0x49
ARM GAS  /tmp/ccFpxhY7.s 			page 44


 2448 01ea 13       		.uleb128 0x13
 2449 01eb 3F       		.uleb128 0x3f
 2450 01ec 19       		.uleb128 0x19
 2451 01ed 3C       		.uleb128 0x3c
 2452 01ee 19       		.uleb128 0x19
 2453 01ef 00       		.byte	0
 2454 01f0 00       		.byte	0
 2455 01f1 27       		.uleb128 0x27
 2456 01f2 34       		.uleb128 0x34
 2457 01f3 00       		.byte	0
 2458 01f4 03       		.uleb128 0x3
 2459 01f5 0E       		.uleb128 0xe
 2460 01f6 3A       		.uleb128 0x3a
 2461 01f7 0B       		.uleb128 0xb
 2462 01f8 3B       		.uleb128 0x3b
 2463 01f9 0B       		.uleb128 0xb
 2464 01fa 49       		.uleb128 0x49
 2465 01fb 13       		.uleb128 0x13
 2466 01fc 3F       		.uleb128 0x3f
 2467 01fd 19       		.uleb128 0x19
 2468 01fe 02       		.uleb128 0x2
 2469 01ff 18       		.uleb128 0x18
 2470 0200 00       		.byte	0
 2471 0201 00       		.byte	0
 2472 0202 00       		.byte	0
 2473              		.section	.debug_loc,"",%progbits
 2474              	.Ldebug_loc0:
 2475              	.LLST0:
 2476 0000 00000000 		.4byte	.LVL0
 2477 0004 02000000 		.4byte	.LVL1
 2478 0008 0200     		.2byte	0x2
 2479 000a 30       		.byte	0x30
 2480 000b 9F       		.byte	0x9f
 2481 000c 00000000 		.4byte	0
 2482 0010 00000000 		.4byte	0
 2483              	.LLST1:
 2484 0014 00000000 		.4byte	.LVL2
 2485 0018 B6000000 		.4byte	.LVL18
 2486 001c 0100     		.2byte	0x1
 2487 001e 51       		.byte	0x51
 2488 001f B6000000 		.4byte	.LVL18
 2489 0023 B8000000 		.4byte	.LVL19
 2490 0027 0500     		.2byte	0x5
 2491 0029 71       		.byte	0x71
 2492 002a 00       		.sleb128 0
 2493 002b 31       		.byte	0x31
 2494 002c 25       		.byte	0x25
 2495 002d 9F       		.byte	0x9f
 2496 002e B8000000 		.4byte	.LVL19
 2497 0032 D0000000 		.4byte	.LFE324
 2498 0036 0100     		.2byte	0x1
 2499 0038 51       		.byte	0x51
 2500 0039 00000000 		.4byte	0
 2501 003d 00000000 		.4byte	0
 2502              	.LLST2:
 2503 0041 00000000 		.4byte	.LVL2
 2504 0045 1A000000 		.4byte	.LVL7
ARM GAS  /tmp/ccFpxhY7.s 			page 45


 2505 0049 0100     		.2byte	0x1
 2506 004b 52       		.byte	0x52
 2507 004c 1A000000 		.4byte	.LVL7
 2508 0050 D0000000 		.4byte	.LFE324
 2509 0054 0400     		.2byte	0x4
 2510 0056 F3       		.byte	0xf3
 2511 0057 01       		.uleb128 0x1
 2512 0058 52       		.byte	0x52
 2513 0059 9F       		.byte	0x9f
 2514 005a 00000000 		.4byte	0
 2515 005e 00000000 		.4byte	0
 2516              	.LLST3:
 2517 0062 08000000 		.4byte	.LVL3
 2518 0066 1C000000 		.4byte	.LVL8
 2519 006a 0100     		.2byte	0x1
 2520 006c 59       		.byte	0x59
 2521 006d 1C000000 		.4byte	.LVL8
 2522 0071 D0000000 		.4byte	.LFE324
 2523 0075 0100     		.2byte	0x1
 2524 0077 57       		.byte	0x57
 2525 0078 00000000 		.4byte	0
 2526 007c 00000000 		.4byte	0
 2527              	.LLST4:
 2528 0080 1A000000 		.4byte	.LVL7
 2529 0084 1C000000 		.4byte	.LVL8
 2530 0088 0200     		.2byte	0x2
 2531 008a 30       		.byte	0x30
 2532 008b 9F       		.byte	0x9f
 2533 008c 1C000000 		.4byte	.LVL8
 2534 0090 D0000000 		.4byte	.LFE324
 2535 0094 0100     		.2byte	0x1
 2536 0096 55       		.byte	0x55
 2537 0097 00000000 		.4byte	0
 2538 009b 00000000 		.4byte	0
 2539              	.LLST5:
 2540 009f 30000000 		.4byte	.LVL9
 2541 00a3 84000000 		.4byte	.LVL14
 2542 00a7 0100     		.2byte	0x1
 2543 00a9 56       		.byte	0x56
 2544 00aa 84000000 		.4byte	.LVL14
 2545 00ae 94000000 		.4byte	.LVL16
 2546 00b2 0A00     		.2byte	0xa
 2547 00b4 72       		.byte	0x72
 2548 00b5 00       		.sleb128 0
 2549 00b6 75       		.byte	0x75
 2550 00b7 00       		.sleb128 0
 2551 00b8 37       		.byte	0x37
 2552 00b9 1A       		.byte	0x1a
 2553 00ba 32       		.byte	0x32
 2554 00bb 24       		.byte	0x24
 2555 00bc 24       		.byte	0x24
 2556 00bd 9F       		.byte	0x9f
 2557 00be 94000000 		.4byte	.LVL16
 2558 00c2 B0000000 		.4byte	.LVL17
 2559 00c6 0100     		.2byte	0x1
 2560 00c8 56       		.byte	0x56
 2561 00c9 B0000000 		.4byte	.LVL17
ARM GAS  /tmp/ccFpxhY7.s 			page 46


 2562 00cd B6000000 		.4byte	.LVL18
 2563 00d1 0A00     		.2byte	0xa
 2564 00d3 72       		.byte	0x72
 2565 00d4 00       		.sleb128 0
 2566 00d5 75       		.byte	0x75
 2567 00d6 00       		.sleb128 0
 2568 00d7 37       		.byte	0x37
 2569 00d8 1A       		.byte	0x1a
 2570 00d9 32       		.byte	0x32
 2571 00da 24       		.byte	0x24
 2572 00db 24       		.byte	0x24
 2573 00dc 9F       		.byte	0x9f
 2574 00dd 00000000 		.4byte	0
 2575 00e1 00000000 		.4byte	0
 2576              	.LLST6:
 2577 00e5 30000000 		.4byte	.LVL9
 2578 00e9 36000000 		.4byte	.LVL10
 2579 00ed 0500     		.2byte	0x5
 2580 00ef 31       		.byte	0x31
 2581 00f0 75       		.byte	0x75
 2582 00f1 00       		.sleb128 0
 2583 00f2 24       		.byte	0x24
 2584 00f3 9F       		.byte	0x9f
 2585 00f4 36000000 		.4byte	.LVL10
 2586 00f8 3A000000 		.4byte	.LVL11
 2587 00fc 0100     		.2byte	0x1
 2588 00fe 53       		.byte	0x53
 2589 00ff 3A000000 		.4byte	.LVL11
 2590 0103 B6000000 		.4byte	.LVL18
 2591 0107 0500     		.2byte	0x5
 2592 0109 31       		.byte	0x31
 2593 010a 75       		.byte	0x75
 2594 010b 00       		.sleb128 0
 2595 010c 24       		.byte	0x24
 2596 010d 9F       		.byte	0x9f
 2597 010e 00000000 		.4byte	0
 2598 0112 00000000 		.4byte	0
 2599              	.LLST7:
 2600 0116 30000000 		.4byte	.LVL9
 2601 011a 4C000000 		.4byte	.LVL12
 2602 011e 0700     		.2byte	0x7
 2603 0120 33       		.byte	0x33
 2604 0121 75       		.byte	0x75
 2605 0122 00       		.sleb128 0
 2606 0123 31       		.byte	0x31
 2607 0124 24       		.byte	0x24
 2608 0125 24       		.byte	0x24
 2609 0126 9F       		.byte	0x9f
 2610 0127 4C000000 		.4byte	.LVL12
 2611 012b 4E000000 		.4byte	.LVL13
 2612 012f 0100     		.2byte	0x1
 2613 0131 54       		.byte	0x54
 2614 0132 4E000000 		.4byte	.LVL13
 2615 0136 8E000000 		.4byte	.LVL15
 2616 013a 0400     		.2byte	0x4
 2617 013c 74       		.byte	0x74
 2618 013d 00       		.sleb128 0
ARM GAS  /tmp/ccFpxhY7.s 			page 47


 2619 013e 20       		.byte	0x20
 2620 013f 9F       		.byte	0x9f
 2621 0140 8E000000 		.4byte	.LVL15
 2622 0144 B6000000 		.4byte	.LVL18
 2623 0148 0700     		.2byte	0x7
 2624 014a 33       		.byte	0x33
 2625 014b 75       		.byte	0x75
 2626 014c 00       		.sleb128 0
 2627 014d 31       		.byte	0x31
 2628 014e 24       		.byte	0x24
 2629 014f 24       		.byte	0x24
 2630 0150 9F       		.byte	0x9f
 2631 0151 00000000 		.4byte	0
 2632 0155 00000000 		.4byte	0
 2633              	.LLST8:
 2634 0159 30000000 		.4byte	.LVL9
 2635 015d B6000000 		.4byte	.LVL18
 2636 0161 0100     		.2byte	0x1
 2637 0163 5B       		.byte	0x5b
 2638 0164 00000000 		.4byte	0
 2639 0168 00000000 		.4byte	0
 2640              	.LLST9:
 2641 016c 00000000 		.4byte	.LVL25
 2642 0170 22000000 		.4byte	.LVL29
 2643 0174 0100     		.2byte	0x1
 2644 0176 50       		.byte	0x50
 2645 0177 22000000 		.4byte	.LVL29
 2646 017b 64000000 		.4byte	.LFE325
 2647 017f 0400     		.2byte	0x4
 2648 0181 F3       		.byte	0xf3
 2649 0182 01       		.uleb128 0x1
 2650 0183 50       		.byte	0x50
 2651 0184 9F       		.byte	0x9f
 2652 0185 00000000 		.4byte	0
 2653 0189 00000000 		.4byte	0
 2654              	.LLST10:
 2655 018d 00000000 		.4byte	.LVL25
 2656 0191 0E000000 		.4byte	.LVL27
 2657 0195 0100     		.2byte	0x1
 2658 0197 51       		.byte	0x51
 2659 0198 0E000000 		.4byte	.LVL27
 2660 019c 64000000 		.4byte	.LFE325
 2661 01a0 0400     		.2byte	0x4
 2662 01a2 F3       		.byte	0xf3
 2663 01a3 01       		.uleb128 0x1
 2664 01a4 51       		.byte	0x51
 2665 01a5 9F       		.byte	0x9f
 2666 01a6 00000000 		.4byte	0
 2667 01aa 00000000 		.4byte	0
 2668              	.LLST11:
 2669 01ae 00000000 		.4byte	.LVL25
 2670 01b2 48000000 		.4byte	.LVL31
 2671 01b6 0100     		.2byte	0x1
 2672 01b8 52       		.byte	0x52
 2673 01b9 48000000 		.4byte	.LVL31
 2674 01bd 64000000 		.4byte	.LFE325
 2675 01c1 0400     		.2byte	0x4
ARM GAS  /tmp/ccFpxhY7.s 			page 48


 2676 01c3 F3       		.byte	0xf3
 2677 01c4 01       		.uleb128 0x1
 2678 01c5 52       		.byte	0x52
 2679 01c6 9F       		.byte	0x9f
 2680 01c7 00000000 		.4byte	0
 2681 01cb 00000000 		.4byte	0
 2682              	.LLST12:
 2683 01cf 06000000 		.4byte	.LVL26
 2684 01d3 54000000 		.4byte	.LVL32
 2685 01d7 0100     		.2byte	0x1
 2686 01d9 54       		.byte	0x54
 2687 01da 54000000 		.4byte	.LVL32
 2688 01de 64000000 		.4byte	.LFE325
 2689 01e2 0400     		.2byte	0x4
 2690 01e4 71       		.byte	0x71
 2691 01e5 00       		.sleb128 0
 2692 01e6 20       		.byte	0x20
 2693 01e7 9F       		.byte	0x9f
 2694 01e8 00000000 		.4byte	0
 2695 01ec 00000000 		.4byte	0
 2696              	.LLST13:
 2697 01f0 06000000 		.4byte	.LVL26
 2698 01f4 0E000000 		.4byte	.LVL27
 2699 01f8 0500     		.2byte	0x5
 2700 01fa 71       		.byte	0x71
 2701 01fb 00       		.sleb128 0
 2702 01fc 32       		.byte	0x32
 2703 01fd 25       		.byte	0x25
 2704 01fe 9F       		.byte	0x9f
 2705 01ff 0E000000 		.4byte	.LVL27
 2706 0203 64000000 		.4byte	.LFE325
 2707 0207 0600     		.2byte	0x6
 2708 0209 F3       		.byte	0xf3
 2709 020a 01       		.uleb128 0x1
 2710 020b 51       		.byte	0x51
 2711 020c 32       		.byte	0x32
 2712 020d 25       		.byte	0x25
 2713 020e 9F       		.byte	0x9f
 2714 020f 00000000 		.4byte	0
 2715 0213 00000000 		.4byte	0
 2716              	.LLST14:
 2717 0217 06000000 		.4byte	.LVL26
 2718 021b 0E000000 		.4byte	.LVL27
 2719 021f 0700     		.2byte	0x7
 2720 0221 71       		.byte	0x71
 2721 0222 00       		.sleb128 0
 2722 0223 33       		.byte	0x33
 2723 0224 1A       		.byte	0x1a
 2724 0225 32       		.byte	0x32
 2725 0226 24       		.byte	0x24
 2726 0227 9F       		.byte	0x9f
 2727 0228 0E000000 		.4byte	.LVL27
 2728 022c 18000000 		.4byte	.LVL28
 2729 0230 0800     		.2byte	0x8
 2730 0232 F3       		.byte	0xf3
 2731 0233 01       		.uleb128 0x1
 2732 0234 51       		.byte	0x51
ARM GAS  /tmp/ccFpxhY7.s 			page 49


 2733 0235 33       		.byte	0x33
 2734 0236 1A       		.byte	0x1a
 2735 0237 32       		.byte	0x32
 2736 0238 24       		.byte	0x24
 2737 0239 9F       		.byte	0x9f
 2738 023a 18000000 		.4byte	.LVL28
 2739 023e 2A000000 		.4byte	.LVL30
 2740 0242 0100     		.2byte	0x1
 2741 0244 53       		.byte	0x53
 2742 0245 2A000000 		.4byte	.LVL30
 2743 0249 64000000 		.4byte	.LFE325
 2744 024d 0800     		.2byte	0x8
 2745 024f F3       		.byte	0xf3
 2746 0250 01       		.uleb128 0x1
 2747 0251 51       		.byte	0x51
 2748 0252 33       		.byte	0x33
 2749 0253 1A       		.byte	0x1a
 2750 0254 32       		.byte	0x32
 2751 0255 24       		.byte	0x24
 2752 0256 9F       		.byte	0x9f
 2753 0257 00000000 		.4byte	0
 2754 025b 00000000 		.4byte	0
 2755              	.LLST15:
 2756 025f 18000000 		.4byte	.LVL28
 2757 0263 2A000000 		.4byte	.LVL30
 2758 0267 0600     		.2byte	0x6
 2759 0269 3F       		.byte	0x3f
 2760 026a 73       		.byte	0x73
 2761 026b 00       		.sleb128 0
 2762 026c 24       		.byte	0x24
 2763 026d 20       		.byte	0x20
 2764 026e 9F       		.byte	0x9f
 2765 026f 2A000000 		.4byte	.LVL30
 2766 0273 64000000 		.4byte	.LFE325
 2767 0277 0B00     		.2byte	0xb
 2768 0279 3F       		.byte	0x3f
 2769 027a F3       		.byte	0xf3
 2770 027b 01       		.uleb128 0x1
 2771 027c 51       		.byte	0x51
 2772 027d 33       		.byte	0x33
 2773 027e 1A       		.byte	0x1a
 2774 027f 32       		.byte	0x32
 2775 0280 24       		.byte	0x24
 2776 0281 24       		.byte	0x24
 2777 0282 20       		.byte	0x20
 2778 0283 9F       		.byte	0x9f
 2779 0284 00000000 		.4byte	0
 2780 0288 00000000 		.4byte	0
 2781              	.LLST16:
 2782 028c 18000000 		.4byte	.LVL28
 2783 0290 22000000 		.4byte	.LVL29
 2784 0294 0B00     		.2byte	0xb
 2785 0296 70       		.byte	0x70
 2786 0297 8080F8FF 		.sleb128 -1073872896
 2786      7B
 2787 029c 3A       		.byte	0x3a
 2788 029d 25       		.byte	0x25
ARM GAS  /tmp/ccFpxhY7.s 			page 50


 2789 029e 3F       		.byte	0x3f
 2790 029f 1A       		.byte	0x1a
 2791 02a0 9F       		.byte	0x9f
 2792 02a1 22000000 		.4byte	.LVL29
 2793 02a5 64000000 		.4byte	.LFE325
 2794 02a9 0E00     		.2byte	0xe
 2795 02ab F3       		.byte	0xf3
 2796 02ac 01       		.uleb128 0x1
 2797 02ad 50       		.byte	0x50
 2798 02ae 0C       		.byte	0xc
 2799 02af 00000240 		.4byte	0x40020000
 2800 02b3 1C       		.byte	0x1c
 2801 02b4 3A       		.byte	0x3a
 2802 02b5 25       		.byte	0x25
 2803 02b6 3F       		.byte	0x3f
 2804 02b7 1A       		.byte	0x1a
 2805 02b8 9F       		.byte	0x9f
 2806 02b9 00000000 		.4byte	0
 2807 02bd 00000000 		.4byte	0
 2808              	.LLST17:
 2809 02c1 00000000 		.4byte	.LVL33
 2810 02c5 08000000 		.4byte	.LVL35
 2811 02c9 0100     		.2byte	0x1
 2812 02cb 50       		.byte	0x50
 2813 02cc 08000000 		.4byte	.LVL35
 2814 02d0 54000000 		.4byte	.LFE326
 2815 02d4 0400     		.2byte	0x4
 2816 02d6 F3       		.byte	0xf3
 2817 02d7 01       		.uleb128 0x1
 2818 02d8 50       		.byte	0x50
 2819 02d9 9F       		.byte	0x9f
 2820 02da 00000000 		.4byte	0
 2821 02de 00000000 		.4byte	0
 2822              	.LLST18:
 2823 02e2 0C000000 		.4byte	.LVL36
 2824 02e6 3A000000 		.4byte	.LVL42
 2825 02ea 0100     		.2byte	0x1
 2826 02ec 52       		.byte	0x52
 2827 02ed 3A000000 		.4byte	.LVL42
 2828 02f1 44000000 		.4byte	.LVL43
 2829 02f5 0500     		.2byte	0x5
 2830 02f7 0C       		.byte	0xc
 2831 02f8 143C0140 		.4byte	0x40013c14
 2832 02fc 44000000 		.4byte	.LVL43
 2833 0300 54000000 		.4byte	.LFE326
 2834 0304 0500     		.2byte	0x5
 2835 0306 31       		.byte	0x31
 2836 0307 71       		.byte	0x71
 2837 0308 00       		.sleb128 0
 2838 0309 24       		.byte	0x24
 2839 030a 9F       		.byte	0x9f
 2840 030b 00000000 		.4byte	0
 2841 030f 00000000 		.4byte	0
 2842              	.LLST19:
 2843 0313 06000000 		.4byte	.LVL34
 2844 0317 2A000000 		.4byte	.LVL40
 2845 031b 0100     		.2byte	0x1
ARM GAS  /tmp/ccFpxhY7.s 			page 51


 2846 031d 55       		.byte	0x55
 2847 031e 00000000 		.4byte	0
 2848 0322 00000000 		.4byte	0
 2849              	.LLST20:
 2850 0326 08000000 		.4byte	.LVL35
 2851 032a 2E000000 		.4byte	.LVL41
 2852 032e 0100     		.2byte	0x1
 2853 0330 50       		.byte	0x50
 2854 0331 00000000 		.4byte	0
 2855 0335 00000000 		.4byte	0
 2856              	.LLST21:
 2857 0339 16000000 		.4byte	.LVL37
 2858 033d 1A000000 		.4byte	.LVL38
 2859 0341 0100     		.2byte	0x1
 2860 0343 54       		.byte	0x54
 2861 0344 1A000000 		.4byte	.LVL38
 2862 0348 1E000000 		.4byte	.LVL39
 2863 034c 0300     		.2byte	0x3
 2864 034e 74       		.byte	0x74
 2865 034f 7E       		.sleb128 -2
 2866 0350 9F       		.byte	0x9f
 2867 0351 1E000000 		.4byte	.LVL39
 2868 0355 44000000 		.4byte	.LVL43
 2869 0359 0500     		.2byte	0x5
 2870 035b 71       		.byte	0x71
 2871 035c 00       		.sleb128 0
 2872 035d 32       		.byte	0x32
 2873 035e 25       		.byte	0x25
 2874 035f 9F       		.byte	0x9f
 2875 0360 00000000 		.4byte	0
 2876 0364 00000000 		.4byte	0
 2877              	.LLST22:
 2878 0368 16000000 		.4byte	.LVL37
 2879 036c 44000000 		.4byte	.LVL43
 2880 0370 0700     		.2byte	0x7
 2881 0372 71       		.byte	0x71
 2882 0373 00       		.sleb128 0
 2883 0374 33       		.byte	0x33
 2884 0375 1A       		.byte	0x1a
 2885 0376 32       		.byte	0x32
 2886 0377 24       		.byte	0x24
 2887 0378 9F       		.byte	0x9f
 2888 0379 00000000 		.4byte	0
 2889 037d 00000000 		.4byte	0
 2890              	.LLST23:
 2891 0381 16000000 		.4byte	.LVL37
 2892 0385 44000000 		.4byte	.LVL43
 2893 0389 0E00     		.2byte	0xe
 2894 038b F3       		.byte	0xf3
 2895 038c 01       		.uleb128 0x1
 2896 038d 50       		.byte	0x50
 2897 038e 0C       		.byte	0xc
 2898 038f 00000240 		.4byte	0x40020000
 2899 0393 1C       		.byte	0x1c
 2900 0394 3A       		.byte	0x3a
 2901 0395 25       		.byte	0x25
 2902 0396 3F       		.byte	0x3f
ARM GAS  /tmp/ccFpxhY7.s 			page 52


 2903 0397 1A       		.byte	0x1a
 2904 0398 9F       		.byte	0x9f
 2905 0399 00000000 		.4byte	0
 2906 039d 00000000 		.4byte	0
 2907              		.section	.debug_aranges,"",%progbits
 2908 0000 34000000 		.4byte	0x34
 2909 0004 0200     		.2byte	0x2
 2910 0006 00000000 		.4byte	.Ldebug_info0
 2911 000a 04       		.byte	0x4
 2912 000b 00       		.byte	0
 2913 000c 0000     		.2byte	0
 2914 000e 0000     		.2byte	0
 2915 0010 00000000 		.4byte	.LFB323
 2916 0014 18000000 		.4byte	.LFE323-.LFB323
 2917 0018 00000000 		.4byte	.LFB324
 2918 001c D0000000 		.4byte	.LFE324-.LFB324
 2919 0020 00000000 		.4byte	.LFB325
 2920 0024 64000000 		.4byte	.LFE325-.LFB325
 2921 0028 00000000 		.4byte	.LFB326
 2922 002c 54000000 		.4byte	.LFE326-.LFB326
 2923 0030 00000000 		.4byte	0
 2924 0034 00000000 		.4byte	0
 2925              		.section	.debug_ranges,"",%progbits
 2926              	.Ldebug_ranges0:
 2927 0000 00000000 		.4byte	.LFB323
 2928 0004 18000000 		.4byte	.LFE323
 2929 0008 00000000 		.4byte	.LFB324
 2930 000c D0000000 		.4byte	.LFE324
 2931 0010 00000000 		.4byte	.LFB325
 2932 0014 64000000 		.4byte	.LFE325
 2933 0018 00000000 		.4byte	.LFB326
 2934 001c 54000000 		.4byte	.LFE326
 2935 0020 00000000 		.4byte	0
 2936 0024 00000000 		.4byte	0
 2937              		.section	.debug_line,"",%progbits
 2938              	.Ldebug_line0:
 2939 0000 84030000 		.section	.debug_str,"MS",%progbits,1
 2939      0200CA02 
 2939      00000201 
 2939      FB0E0D00 
 2939      01010101 
 2940              	.LASF54:
 2941 0000 70726576 		.ascii	"prev\000"
 2941      00
 2942              	.LASF55:
 2943 0005 72656164 		.ascii	"ready_list_t\000"
 2943      795F6C69 
 2943      73745F74 
 2943      00
 2944              	.LASF2:
 2945 0012 73697A65 		.ascii	"size_t\000"
 2945      5F7400
 2946              	.LASF61:
 2947 0019 64656C74 		.ascii	"delta\000"
 2947      6100
 2948              	.LASF103:
 2949 001f 7264796D 		.ascii	"rdymsg\000"
ARM GAS  /tmp/ccFpxhY7.s 			page 53


 2949      736700
 2950              	.LASF19:
 2951 0026 75696E74 		.ascii	"uint64_t\000"
 2951      36345F74 
 2951      00
 2952              	.LASF3:
 2953 002f 5F5F7569 		.ascii	"__uint8_t\000"
 2953      6E74385F 
 2953      7400
 2954              	.LASF121:
 2955 0039 4F545950 		.ascii	"OTYPER\000"
 2955      455200
 2956              	.LASF90:
 2957 0040 706F7274 		.ascii	"port_intctx\000"
 2957      5F696E74 
 2957      63747800 
 2958              	.LASF53:
 2959 004c 63685F74 		.ascii	"ch_threads_queue\000"
 2959      68726561 
 2959      64735F71 
 2959      75657565 
 2959      00
 2960              	.LASF66:
 2961 005d 73797374 		.ascii	"system_debug_t\000"
 2961      656D5F64 
 2961      65627567 
 2961      5F7400
 2962              	.LASF129:
 2963 006c 696F706F 		.ascii	"ioportmask_t\000"
 2963      72746D61 
 2963      736B5F74 
 2963      00
 2964              	.LASF89:
 2965 0079 706F7274 		.ascii	"port_context\000"
 2965      5F636F6E 
 2965      74657874 
 2965      00
 2966              	.LASF94:
 2967 0086 776F7273 		.ascii	"worst\000"
 2967      7400
 2968              	.LASF82:
 2969 008c 4D454D52 		.ascii	"MEMRMP\000"
 2969      4D5000
 2970              	.LASF97:
 2971 0093 74696D65 		.ascii	"time_measurement_t\000"
 2971      5F6D6561 
 2971      73757265 
 2971      6D656E74 
 2971      5F7400
 2972              	.LASF120:
 2973 00a6 4D4F4445 		.ascii	"MODER\000"
 2973      5200
 2974              	.LASF14:
 2975 00ac 6C6F6E67 		.ascii	"long long unsigned int\000"
 2975      206C6F6E 
 2975      6720756E 
 2975      7369676E 
ARM GAS  /tmp/ccFpxhY7.s 			page 54


 2975      65642069 
 2976              	.LASF153:
 2977 00c3 66747372 		.ascii	"ftsr1\000"
 2977      3100
 2978              	.LASF142:
 2979 00c9 70757064 		.ascii	"pupdr\000"
 2979      7200
 2980              	.LASF104:
 2981 00cf 65786974 		.ascii	"exitcode\000"
 2981      636F6465 
 2981      00
 2982              	.LASF73:
 2983 00d8 6D61696E 		.ascii	"mainthread\000"
 2983      74687265 
 2983      616400
 2984              	.LASF107:
 2985 00e3 73656E74 		.ascii	"sentmsg\000"
 2985      6D736700 
 2986              	.LASF63:
 2987 00eb 76697274 		.ascii	"virtual_timers_list_t\000"
 2987      75616C5F 
 2987      74696D65 
 2987      72735F6C 
 2987      6973745F 
 2988              	.LASF155:
 2989 0101 49544D5F 		.ascii	"ITM_RxBuffer\000"
 2989      52784275 
 2989      66666572 
 2989      00
 2990              	.LASF62:
 2991 010e 66756E63 		.ascii	"func\000"
 2991      00
 2992              	.LASF152:
 2993 0113 72747372 		.ascii	"rtsr1\000"
 2993      3100
 2994              	.LASF51:
 2995 0119 6E657874 		.ascii	"next\000"
 2995      00
 2996              	.LASF21:
 2997 011e 72747469 		.ascii	"rttime_t\000"
 2997      6D655F74 
 2997      00
 2998              	.LASF146:
 2999 0127 7061646D 		.ascii	"padmask\000"
 2999      61736B00 
 3000              	.LASF12:
 3001 012f 6C6F6E67 		.ascii	"long long int\000"
 3001      206C6F6E 
 3001      6720696E 
 3001      7400
 3002              	.LASF1:
 3003 013d 7369676E 		.ascii	"signed char\000"
 3003      65642063 
 3003      68617200 
 3004              	.LASF124:
 3005 0149 42535252 		.ascii	"BSRR\000"
 3005      00
ARM GAS  /tmp/ccFpxhY7.s 			page 55


 3006              	.LASF80:
 3007 014e 53574945 		.ascii	"SWIER\000"
 3007      5200
 3008              	.LASF139:
 3009 0154 6D6F6465 		.ascii	"moder\000"
 3009      7200
 3010              	.LASF41:
 3011 015a 6D736771 		.ascii	"msgqueue\000"
 3011      75657565 
 3011      00
 3012              	.LASF123:
 3013 0163 50555044 		.ascii	"PUPDR\000"
 3013      5200
 3014              	.LASF37:
 3015 0169 73746174 		.ascii	"state\000"
 3015      6500
 3016              	.LASF9:
 3017 016f 6C6F6E67 		.ascii	"long int\000"
 3017      20696E74 
 3017      00
 3018              	.LASF23:
 3019 0178 74737461 		.ascii	"tstate_t\000"
 3019      74655F74 
 3019      00
 3020              	.LASF0:
 3021 0181 756E7369 		.ascii	"unsigned int\000"
 3021      676E6564 
 3021      20696E74 
 3021      00
 3022              	.LASF46:
 3023 018e 73746174 		.ascii	"stats\000"
 3023      7300
 3024              	.LASF144:
 3025 0194 616C7472 		.ascii	"altrmask\000"
 3025      6D61736B 
 3025      00
 3026              	.LASF122:
 3027 019d 4F535045 		.ascii	"OSPEEDR\000"
 3027      45445200 
 3028              	.LASF10:
 3029 01a5 5F5F7569 		.ascii	"__uint32_t\000"
 3029      6E743332 
 3029      5F7400
 3030              	.LASF137:
 3031 01b0 6D61736B 		.ascii	"mask\000"
 3031      00
 3032              	.LASF87:
 3033 01b5 72656761 		.ascii	"regarm_t\000"
 3033      726D5F74 
 3033      00
 3034              	.LASF72:
 3035 01be 76746C69 		.ascii	"vtlist\000"
 3035      737400
 3036              	.LASF67:
 3037 01c5 63685F73 		.ascii	"ch_system_debug\000"
 3037      79737465 
 3037      6D5F6465 
ARM GAS  /tmp/ccFpxhY7.s 			page 56


 3037      62756700 
 3038              	.LASF40:
 3039 01d5 77616974 		.ascii	"waiting\000"
 3039      696E6700 
 3040              	.LASF128:
 3041 01dd 73746D33 		.ascii	"stm32_gpio_t\000"
 3041      325F6770 
 3041      696F5F74 
 3041      00
 3042              	.LASF136:
 3043 01ea 706F7274 		.ascii	"port\000"
 3043      00
 3044              	.LASF115:
 3045 01ef 6D757465 		.ascii	"mutex_t\000"
 3045      785F7400 
 3046              	.LASF76:
 3047 01f7 73797369 		.ascii	"sysinterval_t\000"
 3047      6E746572 
 3047      76616C5F 
 3047      7400
 3048              	.LASF28:
 3049 0205 636E745F 		.ascii	"cnt_t\000"
 3049      7400
 3050              	.LASF117:
 3051 020b 70616C63 		.ascii	"palcallback_t\000"
 3051      616C6C62 
 3051      61636B5F 
 3051      7400
 3052              	.LASF157:
 3053 0219 474E5520 		.ascii	"GNU C 4.9.3 20150529 (prerelease) -mcpu=cortex-m4 -"
 3053      4320342E 
 3053      392E3320 
 3053      32303135 
 3053      30353239 
 3054 024c 6D666C6F 		.ascii	"mfloat-abi=hard -mfpu=fpv4-sp-d16 -mno-thumb-interw"
 3054      61742D61 
 3054      62693D68 
 3054      61726420 
 3054      2D6D6670 
 3055 027f 6F726B20 		.ascii	"ork -mthumb -g -Os -fomit-frame-pointer -falign-fun"
 3055      2D6D7468 
 3055      756D6220 
 3055      2D67202D 
 3055      4F73202D 
 3056 02b2 6374696F 		.ascii	"ctions=16 -ffunction-sections -fdata-sections -fno-"
 3056      6E733D31 
 3056      36202D66 
 3056      66756E63 
 3056      74696F6E 
 3057 02e5 636F6D6D 		.ascii	"common -fsingle-precision-constant\000"
 3057      6F6E202D 
 3057      6673696E 
 3057      676C652D 
 3057      70726563 
 3058              	.LASF16:
 3059 0308 75696E74 		.ascii	"uint16_t\000"
 3059      31365F74 
ARM GAS  /tmp/ccFpxhY7.s 			page 57


 3059      00
 3060              	.LASF160:
 3061 0311 6372706F 		.ascii	"crport\000"
 3061      727400
 3062              	.LASF108:
 3063 0318 77747365 		.ascii	"wtsemp\000"
 3063      6D7000
 3064              	.LASF151:
 3065 031f 5F70616C 		.ascii	"_pal_lld_disablepadevent\000"
 3065      5F6C6C64 
 3065      5F646973 
 3065      61626C65 
 3065      70616465 
 3066              	.LASF106:
 3067 0338 77747472 		.ascii	"wttrp\000"
 3067      7000
 3068              	.LASF127:
 3069 033e 41465248 		.ascii	"AFRH\000"
 3069      00
 3070              	.LASF131:
 3071 0343 696F6576 		.ascii	"ioeventmode_t\000"
 3071      656E746D 
 3071      6F64655F 
 3071      7400
 3072              	.LASF85:
 3073 0351 434D5043 		.ascii	"CMPCR\000"
 3073      5200
 3074              	.LASF141:
 3075 0357 6F737065 		.ascii	"ospeedr\000"
 3075      65647200 
 3076              	.LASF98:
 3077 035f 6E5F6972 		.ascii	"n_irq\000"
 3077      7100
 3078              	.LASF31:
 3079 0365 71756575 		.ascii	"queue\000"
 3079      6500
 3080              	.LASF140:
 3081 036b 6F747970 		.ascii	"otyper\000"
 3081      657200
 3082              	.LASF45:
 3083 0372 6D706F6F 		.ascii	"mpool\000"
 3083      6C00
 3084              	.LASF7:
 3085 0378 73686F72 		.ascii	"short unsigned int\000"
 3085      7420756E 
 3085      7369676E 
 3085      65642069 
 3085      6E7400
 3086              	.LASF148:
 3087 038b 63726F66 		.ascii	"croff\000"
 3087      6600
 3088              	.LASF49:
 3089 0391 63685F74 		.ascii	"ch_thread\000"
 3089      68726561 
 3089      6400
 3090              	.LASF35:
 3091 039b 6E616D65 		.ascii	"name\000"
ARM GAS  /tmp/ccFpxhY7.s 			page 58


 3091      00
 3092              	.LASF156:
 3093 03a0 5F70616C 		.ascii	"_pal_events\000"
 3093      5F657665 
 3093      6E747300 
 3094              	.LASF95:
 3095 03ac 6C617374 		.ascii	"last\000"
 3095      00
 3096              	.LASF29:
 3097 03b1 75636E74 		.ascii	"ucnt_t\000"
 3097      5F7400
 3098              	.LASF42:
 3099 03b8 6570656E 		.ascii	"epending\000"
 3099      64696E67 
 3099      00
 3100              	.LASF69:
 3101 03c1 63685F73 		.ascii	"ch_system_t\000"
 3101      79737465 
 3101      6D5F7400 
 3102              	.LASF125:
 3103 03cd 4C4F434B 		.ascii	"LOCKR\000"
 3103      5200
 3104              	.LASF22:
 3105 03d3 746D6F64 		.ascii	"tmode_t\000"
 3105      655F7400 
 3106              	.LASF118:
 3107 03db 70616C65 		.ascii	"palevent_t\000"
 3107      76656E74 
 3107      5F7400
 3108              	.LASF101:
 3109 03e6 6D5F6372 		.ascii	"m_crit_isr\000"
 3109      69745F69 
 3109      737200
 3110              	.LASF56:
 3111 03f1 63685F72 		.ascii	"ch_ready_list\000"
 3111      65616479 
 3111      5F6C6973 
 3111      7400
 3112              	.LASF27:
 3113 03ff 6576656E 		.ascii	"eventmask_t\000"
 3113      746D6173 
 3113      6B5F7400 
 3114              	.LASF8:
 3115 040b 5F5F696E 		.ascii	"__int32_t\000"
 3115      7433325F 
 3115      7400
 3116              	.LASF88:
 3117 0415 73746B61 		.ascii	"stkalign_t\000"
 3117      6C69676E 
 3117      5F7400
 3118              	.LASF33:
 3119 0420 6E657765 		.ascii	"newer\000"
 3119      7200
 3120              	.LASF44:
 3121 0426 7265616C 		.ascii	"realprio\000"
 3121      7072696F 
 3121      00
ARM GAS  /tmp/ccFpxhY7.s 			page 59


 3122              	.LASF77:
 3123 042f 73697A65 		.ascii	"sizetype\000"
 3123      74797065 
 3123      00
 3124              	.LASF47:
 3125 0438 74687265 		.ascii	"thread_reference_t\000"
 3125      61645F72 
 3125      65666572 
 3125      656E6365 
 3125      5F7400
 3126              	.LASF64:
 3127 044b 63685F76 		.ascii	"ch_virtual_timers_list\000"
 3127      69727475 
 3127      616C5F74 
 3127      696D6572 
 3127      735F6C69 
 3128              	.LASF119:
 3129 0462 636C6561 		.ascii	"clear\000"
 3129      7200
 3130              	.LASF147:
 3131 0468 63726964 		.ascii	"cridx\000"
 3131      7800
 3132              	.LASF92:
 3133 046e 746D5F63 		.ascii	"tm_calibration_t\000"
 3133      616C6962 
 3133      72617469 
 3133      6F6E5F74 
 3133      00
 3134              	.LASF32:
 3135 047f 7072696F 		.ascii	"prio\000"
 3135      00
 3136              	.LASF57:
 3137 0484 63757272 		.ascii	"current\000"
 3137      656E7400 
 3138              	.LASF13:
 3139 048c 5F5F7569 		.ascii	"__uint64_t\000"
 3139      6E743634 
 3139      5F7400
 3140              	.LASF78:
 3141 0497 52545352 		.ascii	"RTSR\000"
 3141      00
 3142              	.LASF96:
 3143 049c 63756D75 		.ascii	"cumulative\000"
 3143      6C617469 
 3143      766500
 3144              	.LASF126:
 3145 04a7 4146524C 		.ascii	"AFRL\000"
 3145      00
 3146              	.LASF86:
 3147 04ac 53595343 		.ascii	"SYSCFG_TypeDef\000"
 3147      46475F54 
 3147      79706544 
 3147      656600
 3148              	.LASF74:
 3149 04bb 6B65726E 		.ascii	"kernel_stats\000"
 3149      656C5F73 
 3149      74617473 
ARM GAS  /tmp/ccFpxhY7.s 			page 60


 3149      00
 3150              	.LASF24:
 3151 04c8 74726566 		.ascii	"trefs_t\000"
 3151      735F7400 
 3152              	.LASF39:
 3153 04d0 72656673 		.ascii	"refs\000"
 3153      00
 3154              	.LASF59:
 3155 04d5 76697274 		.ascii	"virtual_timer_t\000"
 3155      75616C5F 
 3155      74696D65 
 3155      725F7400 
 3156              	.LASF26:
 3157 04e5 6D73675F 		.ascii	"msg_t\000"
 3157      7400
 3158              	.LASF25:
 3159 04eb 74707269 		.ascii	"tprio_t\000"
 3159      6F5F7400 
 3160              	.LASF99:
 3161 04f3 6E5F6374 		.ascii	"n_ctxswc\000"
 3161      78737763 
 3161      00
 3162              	.LASF116:
 3163 04fc 5F426F6F 		.ascii	"_Bool\000"
 3163      6C00
 3164              	.LASF17:
 3165 0502 696E7433 		.ascii	"int32_t\000"
 3165      325F7400 
 3166              	.LASF4:
 3167 050a 756E7369 		.ascii	"unsigned char\000"
 3167      676E6564 
 3167      20636861 
 3167      7200
 3168              	.LASF133:
 3169 0518 696F7061 		.ascii	"iopadid_t\000"
 3169      6469645F 
 3169      7400
 3170              	.LASF79:
 3171 0522 46545352 		.ascii	"FTSR\000"
 3171      00
 3172              	.LASF5:
 3173 0527 73686F72 		.ascii	"short int\000"
 3173      7420696E 
 3173      7400
 3174              	.LASF65:
 3175 0531 6C617374 		.ascii	"lasttime\000"
 3175      74696D65 
 3175      00
 3176              	.LASF158:
 3177 053a 2E2E2F2E 		.ascii	"../../modules/ChibiOS/os/hal/ports/STM32/LLD/GPIOv2"
 3177      2E2F6D6F 
 3177      64756C65 
 3177      732F4368 
 3177      6962694F 
 3178 056d 2F68616C 		.ascii	"/hal_pal_lld.c\000"
 3178      5F70616C 
 3178      5F6C6C64 
ARM GAS  /tmp/ccFpxhY7.s 			page 61


 3178      2E6300
 3179              	.LASF145:
 3180 057c 5F70616C 		.ascii	"_pal_lld_enablepadevent\000"
 3180      5F6C6C64 
 3180      5F656E61 
 3180      626C6570 
 3180      61646576 
 3181              	.LASF110:
 3182 0594 65776D61 		.ascii	"ewmask\000"
 3182      736B00
 3183              	.LASF70:
 3184 059b 63685F73 		.ascii	"ch_system\000"
 3184      79737465 
 3184      6D00
 3185              	.LASF154:
 3186 05a5 5F5F6675 		.ascii	"__func__\000"
 3186      6E635F5F 
 3186      00
 3187              	.LASF102:
 3188 05ae 6B65726E 		.ascii	"kernel_stats_t\000"
 3188      656C5F73 
 3188      74617473 
 3188      5F7400
 3189              	.LASF60:
 3190 05bd 63685F76 		.ascii	"ch_virtual_timer\000"
 3190      69727475 
 3190      616C5F74 
 3190      696D6572 
 3190      00
 3191              	.LASF111:
 3192 05ce 63685F73 		.ascii	"ch_semaphore\000"
 3192      656D6170 
 3192      686F7265 
 3192      00
 3193              	.LASF18:
 3194 05db 75696E74 		.ascii	"uint32_t\000"
 3194      33325F74 
 3194      00
 3195              	.LASF50:
 3196 05e4 63685F74 		.ascii	"ch_threads_list\000"
 3196      68726561 
 3196      64735F6C 
 3196      69737400 
 3197              	.LASF113:
 3198 05f4 6F776E65 		.ascii	"owner\000"
 3198      7200
 3199              	.LASF11:
 3200 05fa 6C6F6E67 		.ascii	"long unsigned int\000"
 3200      20756E73 
 3200      69676E65 
 3200      6420696E 
 3200      7400
 3201              	.LASF36:
 3202 060c 77616261 		.ascii	"wabase\000"
 3202      736500
 3203              	.LASF143:
 3204 0613 616C7472 		.ascii	"altr\000"
ARM GAS  /tmp/ccFpxhY7.s 			page 62


 3204      00
 3205              	.LASF114:
 3206 0618 63686172 		.ascii	"char\000"
 3206      00
 3207              	.LASF34:
 3208 061d 6F6C6465 		.ascii	"older\000"
 3208      7200
 3209              	.LASF138:
 3210 0623 6D6F6465 		.ascii	"mode\000"
 3210      00
 3211              	.LASF109:
 3212 0628 77746D74 		.ascii	"wtmtxp\000"
 3212      787000
 3213              	.LASF6:
 3214 062f 5F5F7569 		.ascii	"__uint16_t\000"
 3214      6E743136 
 3214      5F7400
 3215              	.LASF30:
 3216 063a 74687265 		.ascii	"thread_t\000"
 3216      61645F74 
 3216      00
 3217              	.LASF93:
 3218 0643 62657374 		.ascii	"best\000"
 3218      00
 3219              	.LASF75:
 3220 0648 73797374 		.ascii	"systime_t\000"
 3220      696D655F 
 3220      7400
 3221              	.LASF58:
 3222 0652 76746675 		.ascii	"vtfunc_t\000"
 3222      6E635F74 
 3222      00
 3223              	.LASF68:
 3224 065b 70616E69 		.ascii	"panic_msg\000"
 3224      635F6D73 
 3224      6700
 3225              	.LASF91:
 3226 0665 6F666673 		.ascii	"offset\000"
 3226      657400
 3227              	.LASF132:
 3228 066c 696F706F 		.ascii	"ioportid_t\000"
 3228      72746964 
 3228      5F7400
 3229              	.LASF135:
 3230 0677 5F70616C 		.ascii	"_pal_lld_setgroupmode\000"
 3230      5F6C6C64 
 3230      5F736574 
 3230      67726F75 
 3230      706D6F64 
 3231              	.LASF159:
 3232 068d 2F686F6D 		.ascii	"/home/kozinalexey/f4by/ardupilot/build/F4BY\000"
 3232      652F6B6F 
 3232      7A696E61 
 3232      6C657865 
 3232      792F6634 
 3233              	.LASF20:
 3234 06b9 7274636E 		.ascii	"rtcnt_t\000"
ARM GAS  /tmp/ccFpxhY7.s 			page 63


 3234      745F7400 
 3235              	.LASF52:
 3236 06c1 74687265 		.ascii	"threads_queue_t\000"
 3236      6164735F 
 3236      71756575 
 3236      655F7400 
 3237              	.LASF112:
 3238 06d1 63685F6D 		.ascii	"ch_mutex\000"
 3238      75746578 
 3238      00
 3239              	.LASF134:
 3240 06da 5F70616C 		.ascii	"_pal_lld_init\000"
 3240      5F6C6C64 
 3240      5F696E69 
 3240      7400
 3241              	.LASF71:
 3242 06e8 726C6973 		.ascii	"rlist\000"
 3242      7400
 3243              	.LASF15:
 3244 06ee 75696E74 		.ascii	"uint8_t\000"
 3244      385F7400 
 3245              	.LASF84:
 3246 06f6 52455345 		.ascii	"RESERVED\000"
 3246      52564544 
 3246      00
 3247              	.LASF38:
 3248 06ff 666C6167 		.ascii	"flags\000"
 3248      7300
 3249              	.LASF105:
 3250 0705 77746F62 		.ascii	"wtobjp\000"
 3250      6A7000
 3251              	.LASF48:
 3252 070c 74687265 		.ascii	"threads_list_t\000"
 3252      6164735F 
 3252      6C697374 
 3252      5F7400
 3253              	.LASF81:
 3254 071b 45585449 		.ascii	"EXTI_TypeDef\000"
 3254      5F547970 
 3254      65446566 
 3254      00
 3255              	.LASF43:
 3256 0728 6D74786C 		.ascii	"mtxlist\000"
 3256      69737400 
 3257              	.LASF130:
 3258 0730 696F6D6F 		.ascii	"iomode_t\000"
 3258      64655F74 
 3258      00
 3259              	.LASF100:
 3260 0739 6D5F6372 		.ascii	"m_crit_thd\000"
 3260      69745F74 
 3260      686400
 3261              	.LASF150:
 3262 0744 706F7274 		.ascii	"portidx\000"
 3262      69647800 
 3263              	.LASF83:
 3264 074c 45585449 		.ascii	"EXTICR\000"
ARM GAS  /tmp/ccFpxhY7.s 			page 64


 3264      435200
 3265              	.LASF149:
 3266 0753 63726D61 		.ascii	"crmask\000"
 3266      736B00
 3267              		.ident	"GCC: (15:4.9.3+svn231177-1) 4.9.3 20150529 (prerelease)"
ARM GAS  /tmp/ccFpxhY7.s 			page 65


DEFINED SYMBOLS
                            *ABS*:0000000000000000 hal_pal_lld.c
     /tmp/ccFpxhY7.s:21     .text._pal_lld_init:0000000000000000 $t
     /tmp/ccFpxhY7.s:26     .text._pal_lld_init:0000000000000000 _pal_lld_init
     /tmp/ccFpxhY7.s:56     .text._pal_lld_init:0000000000000014 $d
     /tmp/ccFpxhY7.s:61     .text._pal_lld_setgroupmode:0000000000000000 $t
     /tmp/ccFpxhY7.s:66     .text._pal_lld_setgroupmode:0000000000000000 _pal_lld_setgroupmode
     /tmp/ccFpxhY7.s:242    .text._pal_lld_enablepadevent:0000000000000000 $t
     /tmp/ccFpxhY7.s:247    .text._pal_lld_enablepadevent:0000000000000000 _pal_lld_enablepadevent
     /tmp/ccFpxhY7.s:322    .text._pal_lld_enablepadevent:0000000000000060 $d
     /tmp/ccFpxhY7.s:327    .text._pal_lld_disablepadevent:0000000000000000 $t
     /tmp/ccFpxhY7.s:332    .text._pal_lld_disablepadevent:0000000000000000 _pal_lld_disablepadevent
     /tmp/ccFpxhY7.s:408    .text._pal_lld_disablepadevent:0000000000000048 $d
     /tmp/ccFpxhY7.s:421    .bss._pal_events:0000000000000000 _pal_events
     /tmp/ccFpxhY7.s:417    .bss._pal_events:0000000000000000 $d
                     .debug_frame:0000000000000010 $d

NO UNDEFINED SYMBOLS
