ARM GAS  /tmp/cceMHqfo.s 			page 1


   1              		.syntax unified
   2              		.cpu cortex-m4
   3              		.eabi_attribute 27, 1
   4              		.eabi_attribute 28, 1
   5              		.fpu fpv4-sp-d16
   6              		.eabi_attribute 20, 1
   7              		.eabi_attribute 21, 1
   8              		.eabi_attribute 23, 3
   9              		.eabi_attribute 24, 1
  10              		.eabi_attribute 25, 1
  11              		.eabi_attribute 26, 1
  12              		.eabi_attribute 30, 4
  13              		.eabi_attribute 34, 1
  14              		.eabi_attribute 18, 4
  15              		.thumb
  16              		.file	"hal_st_lld.c"
  17              		.text
  18              	.Ltext0:
  19              		.cfi_sections	.debug_frame
  20              		.section	.text.Vector108,"ax",%progbits
  21              		.align	1
  22              		.global	Vector108
  23              		.thumb
  24              		.thumb_func
  25              		.type	Vector108, %function
  26              	Vector108:
  27              	.LFB323:
  28              		.file 1 "../../modules/ChibiOS/os/hal/ports/STM32/LLD/TIMv1/hal_st_lld.c"
  29              		.loc 1 253 0
  30              		.cfi_startproc
  31              		@ args = 0, pretend = 0, frame = 0
  32              		@ frame_needed = 0, uses_anonymous_args = 0
  33 0000 10B5     		push	{r4, lr}
  34              		.cfi_def_cfa_offset 8
  35              		.cfi_offset 4, -8
  36              		.cfi_offset 14, -4
  37              		.loc 1 255 0
  38 0002 FFF7FEFF 		bl	_stats_increase_irq
  39              	.LVL0:
  40              		.loc 1 260 0
  41 0006 0A4B     		ldr	r3, .L7
  42 0008 1A69     		ldr	r2, [r3, #16]
  43 000a 9207     		lsls	r2, r2, #30
  44 000c 0CD5     		bpl	.L2
  45              		.loc 1 261 0
  46 000e 0024     		movs	r4, #0
  47 0010 1C61     		str	r4, [r3, #16]
  48              	.LVL1:
  49              	.LBB48:
  50              	.LBB49:
  51              	.LBB50:
  52              	.LBB51:
  53              	.LBB52:
  54              	.LBB53:
  55              	.LBB54:
  56              		.file 2 "../../modules/ChibiOS/os/common/ext/ARM/CMSIS/Core/Include/cmsis_gcc.h"
  57              		.loc 2 493 0
ARM GAS  /tmp/cceMHqfo.s 			page 2


  58 0012 2023     		movs	r3, #32
  59              	@ 493 "../../modules/ChibiOS/os/common/ext/ARM/CMSIS/Core/Include/cmsis_gcc.h" 1
  60 0014 83F31188 		MSR basepri, r3
  61              	@ 0 "" 2
  62              		.thumb
  63              	.LBE54:
  64              	.LBE53:
  65              	.LBE52:
  66              	.LBE51:
  67              		.file 3 "../../modules/ChibiOS/os/rt/include/chsys.h"
  68              		.loc 3 396 0
  69 0018 FFF7FEFF 		bl	_stats_start_measure_crit_isr
  70              	.LVL2:
  71              	.LBE50:
  72              	.LBE49:
  73              	.LBE48:
  74              	.LBB55:
  75              	.LBB56:
  76              		.file 4 "../../modules/ChibiOS/os/hal/osal/rt/osal.h"
  77              		.loc 4 603 0
  78 001c FFF7FEFF 		bl	chSysTimerHandlerI
  79              	.LVL3:
  80              	.LBE56:
  81              	.LBE55:
  82              	.LBB57:
  83              	.LBB58:
  84              	.LBB59:
  85              		.loc 3 416 0
  86 0020 FFF7FEFF 		bl	_stats_stop_measure_crit_isr
  87              	.LVL4:
  88              	.LBB60:
  89              	.LBB61:
  90              	.LBB62:
  91              	.LBB63:
  92              		.loc 2 493 0
  93              	@ 493 "../../modules/ChibiOS/os/common/ext/ARM/CMSIS/Core/Include/cmsis_gcc.h" 1
  94 0024 84F31188 		MSR basepri, r4
  95              	@ 0 "" 2
  96              	.LVL5:
  97              		.thumb
  98              	.L2:
  99              	.LBE63:
 100              	.LBE62:
 101              	.LBE61:
 102              	.LBE60:
 103              	.LBE59:
 104              	.LBE58:
 105              	.LBE57:
 106              		.loc 1 269 0
 107 0028 BDE81040 		pop	{r4, lr}
 108              		.cfi_restore 14
 109              		.cfi_restore 4
 110              		.cfi_def_cfa_offset 0
 111              		.loc 1 268 0
 112 002c FFF7FEBF 		b	_port_irq_epilogue
 113              	.LVL6:
 114              	.L8:
ARM GAS  /tmp/cceMHqfo.s 			page 3


 115              		.align	2
 116              	.L7:
 117 0030 000C0040 		.word	1073744896
 118              		.cfi_endproc
 119              	.LFE323:
 120              		.size	Vector108, .-Vector108
 121              		.section	.text.st_lld_init,"ax",%progbits
 122              		.align	1
 123              		.global	st_lld_init
 124              		.thumb
 125              		.thumb_func
 126              		.type	st_lld_init, %function
 127              	st_lld_init:
 128              	.LFB324:
 129              		.loc 1 281 0
 130              		.cfi_startproc
 131              		@ args = 0, pretend = 0, frame = 0
 132              		@ frame_needed = 0, uses_anonymous_args = 0
 133              		@ link register save eliminated.
 134              		.loc 1 287 0
 135 0000 104B     		ldr	r3, .L10
 136 0002 1A6C     		ldr	r2, [r3, #64]
 137 0004 42F00802 		orr	r2, r2, #8
 138 0008 1A64     		str	r2, [r3, #64]
 139 000a 1A6E     		ldr	r2, [r3, #96]
 140 000c 42F00802 		orr	r2, r2, #8
 141 0010 1A66     		str	r2, [r3, #96]
 142              		.loc 1 290 0
 143 0012 0D4A     		ldr	r2, .L10+4
 144              		.loc 1 287 0
 145 0014 1B6E     		ldr	r3, [r3, #96]
 146              		.loc 1 290 0
 147 0016 9368     		ldr	r3, [r2, #8]
 148 0018 43F00803 		orr	r3, r3, #8
 149 001c 9360     		str	r3, [r2, #8]
 150              		.loc 1 293 0
 151 001e 0B4B     		ldr	r3, .L10+8
 152 0020 5322     		movs	r2, #83
 153 0022 9A62     		str	r2, [r3, #40]
 154              		.loc 1 294 0
 155 0024 4FF0FF32 		mov	r2, #-1
 156 0028 DA62     		str	r2, [r3, #44]
 157              		.loc 1 295 0
 158 002a 0022     		movs	r2, #0
 159 002c 9A61     		str	r2, [r3, #24]
 160              		.loc 1 296 0
 161 002e 5A63     		str	r2, [r3, #52]
 162              		.loc 1 297 0
 163 0030 DA60     		str	r2, [r3, #12]
 164              		.loc 1 298 0
 165 0032 5A60     		str	r2, [r3, #4]
 166              		.loc 1 299 0
 167 0034 0122     		movs	r2, #1
 168 0036 5A61     		str	r2, [r3, #20]
 169              		.loc 1 303 0
 170 0038 3220     		movs	r0, #50
 171              		.loc 1 300 0
ARM GAS  /tmp/cceMHqfo.s 			page 4


 172 003a 1A60     		str	r2, [r3]
 173              		.loc 1 303 0
 174 003c 0821     		movs	r1, #8
 175 003e FFF7FEBF 		b	nvicEnableVector
 176              	.LVL7:
 177              	.L11:
 178 0042 00BF     		.align	2
 179              	.L10:
 180 0044 00380240 		.word	1073887232
 181 0048 002004E0 		.word	-536600576
 182 004c 000C0040 		.word	1073744896
 183              		.cfi_endproc
 184              	.LFE324:
 185              		.size	st_lld_init, .-st_lld_init
 186              		.text
 187              	.Letext0:
 188              		.file 5 "/usr/include/newlib/machine/_default_types.h"
 189              		.file 6 "/usr/include/newlib/sys/_stdint.h"
 190              		.file 7 "../../modules/ChibiOS/os/common/ports/ARMCMx/compilers/GCC/chtypes.h"
 191              		.file 8 "../../modules/ChibiOS/os/rt/include/chsystypes.h"
 192              		.file 9 "../../modules/ChibiOS/os/rt/include/chschd.h"
 193              		.file 10 "../../modules/ChibiOS/os/rt/include/chtime.h"
 194              		.file 11 "../../modules/ChibiOS/os/common/ext/ST/STM32F4xx/stm32f407xx.h"
 195              		.file 12 "../../modules/ChibiOS/os/common/ports/ARMCMx/chcore.h"
 196              		.file 13 "../../modules/ChibiOS/os/common/ports/ARMCMx/chcore_v7m.h"
 197              		.file 14 "../../modules/ChibiOS/os/hal/ports/STM32/LLD/TIMv1/stm32_tim.h"
 198              		.file 15 "../../modules/ChibiOS/os/rt/include/chtm.h"
 199              		.file 16 "../../modules/ChibiOS/os/rt/include/chstats.h"
 200              		.file 17 "../../modules/ChibiOS/os/rt/include/chsem.h"
 201              		.file 18 "../../modules/ChibiOS/os/rt/include/chmtx.h"
 202              		.file 19 "../../modules/ChibiOS/os/common/ext/ARM/CMSIS/Core/Include/core_cm4.h"
 203              		.file 20 "../../modules/ChibiOS/os/hal/ports/common/ARMCMx/nvic.h"
 204              		.section	.debug_info,"",%progbits
 205              	.Ldebug_info0:
 206 0000 CE0C0000 		.4byte	0xcce
 207 0004 0400     		.2byte	0x4
 208 0006 00000000 		.4byte	.Ldebug_abbrev0
 209 000a 04       		.byte	0x4
 210 000b 01       		.uleb128 0x1
 211 000c 53020000 		.4byte	.LASF164
 212 0010 01       		.byte	0x1
 213 0011 D8030000 		.4byte	.LASF165
 214 0015 53070000 		.4byte	.LASF166
 215 0019 00000000 		.4byte	.Ldebug_ranges0+0
 216 001d 00000000 		.4byte	0
 217 0021 00000000 		.4byte	.Ldebug_line0
 218 0025 02       		.uleb128 0x2
 219 0026 04       		.byte	0x4
 220 0027 05       		.byte	0x5
 221 0028 696E7400 		.ascii	"int\000"
 222 002c 03       		.uleb128 0x3
 223 002d 04       		.byte	0x4
 224 002e 07       		.byte	0x7
 225 002f 46020000 		.4byte	.LASF0
 226 0033 03       		.uleb128 0x3
 227 0034 01       		.byte	0x1
 228 0035 06       		.byte	0x6
ARM GAS  /tmp/cceMHqfo.s 			page 5


 229 0036 64010000 		.4byte	.LASF1
 230 003a 04       		.uleb128 0x4
 231 003b 4F000000 		.4byte	.LASF5
 232 003f 05       		.byte	0x5
 233 0040 1D       		.byte	0x1d
 234 0041 45000000 		.4byte	0x45
 235 0045 03       		.uleb128 0x3
 236 0046 01       		.byte	0x1
 237 0047 08       		.byte	0x8
 238 0048 C7050000 		.4byte	.LASF2
 239 004c 03       		.uleb128 0x3
 240 004d 02       		.byte	0x2
 241 004e 05       		.byte	0x5
 242 004f F5050000 		.4byte	.LASF3
 243 0053 03       		.uleb128 0x3
 244 0054 02       		.byte	0x2
 245 0055 07       		.byte	0x7
 246 0056 40070000 		.4byte	.LASF4
 247 005a 04       		.uleb128 0x4
 248 005b 58040000 		.4byte	.LASF6
 249 005f 05       		.byte	0x5
 250 0060 3F       		.byte	0x3f
 251 0061 65000000 		.4byte	0x65
 252 0065 03       		.uleb128 0x3
 253 0066 04       		.byte	0x4
 254 0067 05       		.byte	0x5
 255 0068 AD010000 		.4byte	.LASF7
 256 006c 04       		.uleb128 0x4
 257 006d E5010000 		.4byte	.LASF8
 258 0071 05       		.byte	0x5
 259 0072 41       		.byte	0x41
 260 0073 77000000 		.4byte	0x77
 261 0077 03       		.uleb128 0x3
 262 0078 04       		.byte	0x4
 263 0079 07       		.byte	0x7
 264 007a 86060000 		.4byte	.LASF9
 265 007e 03       		.uleb128 0x3
 266 007f 08       		.byte	0x8
 267 0080 05       		.byte	0x5
 268 0081 24020000 		.4byte	.LASF10
 269 0085 04       		.uleb128 0x4
 270 0086 2A050000 		.4byte	.LASF11
 271 008a 05       		.byte	0x5
 272 008b 5B       		.byte	0x5b
 273 008c 90000000 		.4byte	0x90
 274 0090 03       		.uleb128 0x3
 275 0091 08       		.byte	0x8
 276 0092 07       		.byte	0x7
 277 0093 BA000000 		.4byte	.LASF12
 278 0097 04       		.uleb128 0x4
 279 0098 C7070000 		.4byte	.LASF13
 280 009c 06       		.byte	0x6
 281 009d 14       		.byte	0x14
 282 009e 3A000000 		.4byte	0x3a
 283 00a2 04       		.uleb128 0x4
 284 00a3 BF050000 		.4byte	.LASF14
 285 00a7 06       		.byte	0x6
ARM GAS  /tmp/cceMHqfo.s 			page 6


 286 00a8 1F       		.byte	0x1f
 287 00a9 5A000000 		.4byte	0x5a
 288 00ad 04       		.uleb128 0x4
 289 00ae 53060000 		.4byte	.LASF15
 290 00b2 06       		.byte	0x6
 291 00b3 20       		.byte	0x20
 292 00b4 6C000000 		.4byte	0x6c
 293 00b8 04       		.uleb128 0x4
 294 00b9 39000000 		.4byte	.LASF16
 295 00bd 06       		.byte	0x6
 296 00be 26       		.byte	0x26
 297 00bf 85000000 		.4byte	0x85
 298 00c3 04       		.uleb128 0x4
 299 00c4 7F070000 		.4byte	.LASF17
 300 00c8 07       		.byte	0x7
 301 00c9 27       		.byte	0x27
 302 00ca AD000000 		.4byte	0xad
 303 00ce 04       		.uleb128 0x4
 304 00cf 29010000 		.4byte	.LASF18
 305 00d3 07       		.byte	0x7
 306 00d4 28       		.byte	0x28
 307 00d5 B8000000 		.4byte	0xb8
 308 00d9 04       		.uleb128 0x4
 309 00da F3070000 		.4byte	.LASF19
 310 00de 07       		.byte	0x7
 311 00df 2A       		.byte	0x2a
 312 00e0 97000000 		.4byte	0x97
 313 00e4 04       		.uleb128 0x4
 314 00e5 C9010000 		.4byte	.LASF20
 315 00e9 07       		.byte	0x7
 316 00ea 2B       		.byte	0x2b
 317 00eb 97000000 		.4byte	0x97
 318 00ef 04       		.uleb128 0x4
 319 00f0 47050000 		.4byte	.LASF21
 320 00f4 07       		.byte	0x7
 321 00f5 2C       		.byte	0x2c
 322 00f6 97000000 		.4byte	0x97
 323 00fa 04       		.uleb128 0x4
 324 00fb 95050000 		.4byte	.LASF22
 325 00ff 07       		.byte	0x7
 326 0100 2E       		.byte	0x2e
 327 0101 AD000000 		.4byte	0xad
 328 0105 04       		.uleb128 0x4
 329 0106 9F030000 		.4byte	.LASF23
 330 010a 07       		.byte	0x7
 331 010b 2F       		.byte	0x2f
 332 010c A2000000 		.4byte	0xa2
 333 0110 04       		.uleb128 0x4
 334 0111 4C040000 		.4byte	.LASF24
 335 0115 07       		.byte	0x7
 336 0116 31       		.byte	0x31
 337 0117 AD000000 		.4byte	0xad
 338 011b 04       		.uleb128 0x4
 339 011c 40020000 		.4byte	.LASF25
 340 0120 07       		.byte	0x7
 341 0121 33       		.byte	0x33
 342 0122 A2000000 		.4byte	0xa2
ARM GAS  /tmp/cceMHqfo.s 			page 7


 343 0126 04       		.uleb128 0x4
 344 0127 AE030000 		.4byte	.LASF26
 345 012b 07       		.byte	0x7
 346 012c 34       		.byte	0x34
 347 012d AD000000 		.4byte	0xad
 348 0131 04       		.uleb128 0x4
 349 0132 D4060000 		.4byte	.LASF27
 350 0136 08       		.byte	0x8
 351 0137 34       		.byte	0x34
 352 0138 3C010000 		.4byte	0x13c
 353 013c 05       		.uleb128 0x5
 354 013d 8A030000 		.4byte	.LASF46
 355 0141 60       		.byte	0x60
 356 0142 09       		.byte	0x9
 357 0143 8E       		.byte	0x8e
 358 0144 27020000 		.4byte	0x227
 359 0148 06       		.uleb128 0x6
 360 0149 60030000 		.4byte	.LASF28
 361 014d 09       		.byte	0x9
 362 014e 8F       		.byte	0x8f
 363 014f 5C020000 		.4byte	0x25c
 364 0153 00       		.byte	0
 365 0154 06       		.uleb128 0x6
 366 0155 14050000 		.4byte	.LASF29
 367 0159 09       		.byte	0x9
 368 015a 90       		.byte	0x90
 369 015b FA000000 		.4byte	0xfa
 370 015f 08       		.byte	0x8
 371 0160 07       		.uleb128 0x7
 372 0161 63747800 		.ascii	"ctx\000"
 373 0165 09       		.byte	0x9
 374 0166 91       		.byte	0x91
 375 0167 80060000 		.4byte	0x680
 376 016b 0C       		.byte	0xc
 377 016c 06       		.uleb128 0x6
 378 016d 9F040000 		.4byte	.LASF30
 379 0171 09       		.byte	0x9
 380 0172 93       		.byte	0x93
 381 0173 32020000 		.4byte	0x232
 382 0177 10       		.byte	0x10
 383 0178 06       		.uleb128 0x6
 384 0179 A4060000 		.4byte	.LASF31
 385 017d 09       		.byte	0x9
 386 017e 94       		.byte	0x94
 387 017f 32020000 		.4byte	0x232
 388 0183 14       		.byte	0x14
 389 0184 06       		.uleb128 0x6
 390 0185 85030000 		.4byte	.LASF32
 391 0189 09       		.byte	0x9
 392 018a 9B       		.byte	0x9b
 393 018b 880A0000 		.4byte	0xa88
 394 018f 18       		.byte	0x18
 395 0190 06       		.uleb128 0x6
 396 0191 98060000 		.4byte	.LASF33
 397 0195 09       		.byte	0x9
 398 0196 A4       		.byte	0xa4
 399 0197 9A0A0000 		.4byte	0xa9a
ARM GAS  /tmp/cceMHqfo.s 			page 8


 400 019b 1C       		.byte	0x1c
 401 019c 06       		.uleb128 0x6
 402 019d 9D010000 		.4byte	.LASF34
 403 01a1 09       		.byte	0x9
 404 01a2 A9       		.byte	0xa9
 405 01a3 E4000000 		.4byte	0xe4
 406 01a7 20       		.byte	0x20
 407 01a8 06       		.uleb128 0x6
 408 01a9 CF070000 		.4byte	.LASF35
 409 01ad 09       		.byte	0x9
 410 01ae AD       		.byte	0xad
 411 01af D9000000 		.4byte	0xd9
 412 01b3 21       		.byte	0x21
 413 01b4 06       		.uleb128 0x6
 414 01b5 4D010000 		.4byte	.LASF36
 415 01b9 09       		.byte	0x9
 416 01ba B2       		.byte	0xb2
 417 01bb EF000000 		.4byte	0xef
 418 01bf 22       		.byte	0x22
 419 01c0 08       		.uleb128 0x8
 420 01c1 7500     		.ascii	"u\000"
 421 01c3 09       		.byte	0x9
 422 01c4 0301     		.2byte	0x103
 423 01c6 BE090000 		.4byte	0x9be
 424 01ca 24       		.byte	0x24
 425 01cb 09       		.uleb128 0x9
 426 01cc 1C020000 		.4byte	.LASF37
 427 01d0 09       		.byte	0x9
 428 01d1 0801     		.2byte	0x108
 429 01d3 38020000 		.4byte	0x238
 430 01d7 28       		.byte	0x28
 431 01d8 09       		.uleb128 0x9
 432 01d9 94010000 		.4byte	.LASF38
 433 01dd 09       		.byte	0x9
 434 01de 0E01     		.2byte	0x10e
 435 01e0 5C020000 		.4byte	0x25c
 436 01e4 2C       		.byte	0x2c
 437 01e5 09       		.uleb128 0x9
 438 01e6 B5030000 		.4byte	.LASF39
 439 01ea 09       		.byte	0x9
 440 01eb 1401     		.2byte	0x114
 441 01ed 10010000 		.4byte	0x110
 442 01f1 34       		.byte	0x34
 443 01f2 09       		.uleb128 0x9
 444 01f3 18080000 		.4byte	.LASF40
 445 01f7 09       		.byte	0x9
 446 01f8 1B01     		.2byte	0x11b
 447 01fa 820A0000 		.4byte	0xa82
 448 01fe 38       		.byte	0x38
 449 01ff 09       		.uleb128 0x9
 450 0200 B5040000 		.4byte	.LASF41
 451 0204 09       		.byte	0x9
 452 0205 1F01     		.2byte	0x11f
 453 0207 FA000000 		.4byte	0xfa
 454 020b 3C       		.byte	0x3c
 455 020c 09       		.uleb128 0x9
 456 020d 66030000 		.4byte	.LASF42
ARM GAS  /tmp/cceMHqfo.s 			page 9


 457 0211 09       		.byte	0x9
 458 0212 2601     		.2byte	0x126
 459 0214 0F030000 		.4byte	0x30f
 460 0218 40       		.byte	0x40
 461 0219 09       		.uleb128 0x9
 462 021a D7010000 		.4byte	.LASF43
 463 021e 09       		.byte	0x9
 464 021f 2C01     		.2byte	0x12c
 465 0221 6F090000 		.4byte	0x96f
 466 0225 48       		.byte	0x48
 467 0226 00       		.byte	0
 468 0227 04       		.uleb128 0x4
 469 0228 C7040000 		.4byte	.LASF44
 470 022c 08       		.byte	0x8
 471 022d 39       		.byte	0x39
 472 022e 32020000 		.4byte	0x232
 473 0232 0A       		.uleb128 0xa
 474 0233 04       		.byte	0x4
 475 0234 31010000 		.4byte	0x131
 476 0238 04       		.uleb128 0x4
 477 0239 00000000 		.4byte	.LASF45
 478 023d 08       		.byte	0x8
 479 023e 3E       		.byte	0x3e
 480 023f 43020000 		.4byte	0x243
 481 0243 05       		.uleb128 0x5
 482 0244 70060000 		.4byte	.LASF47
 483 0248 04       		.byte	0x4
 484 0249 09       		.byte	0x9
 485 024a 7C       		.byte	0x7c
 486 024b 5C020000 		.4byte	0x25c
 487 024f 06       		.uleb128 0x6
 488 0250 27000000 		.4byte	.LASF48
 489 0254 09       		.byte	0x9
 490 0255 7D       		.byte	0x7d
 491 0256 32020000 		.4byte	0x232
 492 025a 00       		.byte	0
 493 025b 00       		.byte	0
 494 025c 04       		.uleb128 0x4
 495 025d A0070000 		.4byte	.LASF49
 496 0261 08       		.byte	0x8
 497 0262 45       		.byte	0x45
 498 0263 67020000 		.4byte	0x267
 499 0267 05       		.uleb128 0x5
 500 0268 6A000000 		.4byte	.LASF50
 501 026c 08       		.byte	0x8
 502 026d 09       		.byte	0x9
 503 026e 83       		.byte	0x83
 504 026f 8C020000 		.4byte	0x28c
 505 0273 06       		.uleb128 0x6
 506 0274 27000000 		.4byte	.LASF48
 507 0278 09       		.byte	0x9
 508 0279 84       		.byte	0x84
 509 027a 32020000 		.4byte	0x232
 510 027e 00       		.byte	0
 511 027f 06       		.uleb128 0x6
 512 0280 59000000 		.4byte	.LASF51
 513 0284 09       		.byte	0x9
ARM GAS  /tmp/cceMHqfo.s 			page 10


 514 0285 85       		.byte	0x85
 515 0286 32020000 		.4byte	0x232
 516 028a 04       		.byte	0x4
 517 028b 00       		.byte	0
 518 028c 04       		.uleb128 0x4
 519 028d 0F000000 		.4byte	.LASF52
 520 0291 08       		.byte	0x8
 521 0292 4C       		.byte	0x4c
 522 0293 97020000 		.4byte	0x297
 523 0297 0B       		.uleb128 0xb
 524 0298 3E040000 		.4byte	.LASF53
 525 029c 1C       		.byte	0x1c
 526 029d 09       		.byte	0x9
 527 029e 5E01     		.2byte	0x15e
 528 02a0 F3020000 		.4byte	0x2f3
 529 02a4 09       		.uleb128 0x9
 530 02a5 60030000 		.4byte	.LASF28
 531 02a9 09       		.byte	0x9
 532 02aa 5F01     		.2byte	0x15f
 533 02ac 5C020000 		.4byte	0x25c
 534 02b0 00       		.byte	0
 535 02b1 09       		.uleb128 0x9
 536 02b2 14050000 		.4byte	.LASF29
 537 02b6 09       		.byte	0x9
 538 02b7 6001     		.2byte	0x160
 539 02b9 FA000000 		.4byte	0xfa
 540 02bd 08       		.byte	0x8
 541 02be 08       		.uleb128 0x8
 542 02bf 63747800 		.ascii	"ctx\000"
 543 02c3 09       		.byte	0x9
 544 02c4 6201     		.2byte	0x162
 545 02c6 80060000 		.4byte	0x680
 546 02ca 0C       		.byte	0xc
 547 02cb 09       		.uleb128 0x9
 548 02cc 9F040000 		.4byte	.LASF30
 549 02d0 09       		.byte	0x9
 550 02d1 6501     		.2byte	0x165
 551 02d3 32020000 		.4byte	0x232
 552 02d7 10       		.byte	0x10
 553 02d8 09       		.uleb128 0x9
 554 02d9 A4060000 		.4byte	.LASF31
 555 02dd 09       		.byte	0x9
 556 02de 6601     		.2byte	0x166
 557 02e0 32020000 		.4byte	0x232
 558 02e4 14       		.byte	0x14
 559 02e5 09       		.uleb128 0x9
 560 02e6 22050000 		.4byte	.LASF54
 561 02ea 09       		.byte	0x9
 562 02eb 6901     		.2byte	0x169
 563 02ed 32020000 		.4byte	0x232
 564 02f1 18       		.byte	0x18
 565 02f2 00       		.byte	0
 566 02f3 04       		.uleb128 0x4
 567 02f4 FF060000 		.4byte	.LASF55
 568 02f8 08       		.byte	0x8
 569 02f9 51       		.byte	0x51
 570 02fa FE020000 		.4byte	0x2fe
ARM GAS  /tmp/cceMHqfo.s 			page 11


 571 02fe 0A       		.uleb128 0xa
 572 02ff 04       		.byte	0x4
 573 0300 04030000 		.4byte	0x304
 574 0304 0C       		.uleb128 0xc
 575 0305 0F030000 		.4byte	0x30f
 576 0309 0D       		.uleb128 0xd
 577 030a 0F030000 		.4byte	0x30f
 578 030e 00       		.byte	0
 579 030f 0E       		.uleb128 0xe
 580 0310 04       		.byte	0x4
 581 0311 04       		.uleb128 0x4
 582 0312 A5040000 		.4byte	.LASF56
 583 0316 08       		.byte	0x8
 584 0317 56       		.byte	0x56
 585 0318 1C030000 		.4byte	0x31c
 586 031c 0B       		.uleb128 0xb
 587 031d 21060000 		.4byte	.LASF57
 588 0321 14       		.byte	0x14
 589 0322 09       		.byte	0x9
 590 0323 3901     		.2byte	0x139
 591 0325 6B030000 		.4byte	0x36b
 592 0329 09       		.uleb128 0x9
 593 032a 27000000 		.4byte	.LASF48
 594 032e 09       		.byte	0x9
 595 032f 3A01     		.2byte	0x13a
 596 0331 A00A0000 		.4byte	0xaa0
 597 0335 00       		.byte	0
 598 0336 09       		.uleb128 0x9
 599 0337 59000000 		.4byte	.LASF51
 600 033b 09       		.byte	0x9
 601 033c 3B01     		.2byte	0x13b
 602 033e A00A0000 		.4byte	0xaa0
 603 0342 04       		.byte	0x4
 604 0343 09       		.uleb128 0x9
 605 0344 2C000000 		.4byte	.LASF58
 606 0348 09       		.byte	0x9
 607 0349 3C01     		.2byte	0x13c
 608 034b 4F040000 		.4byte	0x44f
 609 034f 08       		.byte	0x8
 610 0350 09       		.uleb128 0x9
 611 0351 D2010000 		.4byte	.LASF59
 612 0355 09       		.byte	0x9
 613 0356 3D01     		.2byte	0x13d
 614 0358 F3020000 		.4byte	0x2f3
 615 035c 0C       		.byte	0xc
 616 035d 08       		.uleb128 0x8
 617 035e 70617200 		.ascii	"par\000"
 618 0362 09       		.byte	0x9
 619 0363 3F01     		.2byte	0x13f
 620 0365 0F030000 		.4byte	0x30f
 621 0369 10       		.byte	0x10
 622 036a 00       		.byte	0
 623 036b 04       		.uleb128 0x4
 624 036c ED000000 		.4byte	.LASF60
 625 0370 08       		.byte	0x8
 626 0371 5B       		.byte	0x5b
 627 0372 76030000 		.4byte	0x376
ARM GAS  /tmp/cceMHqfo.s 			page 12


 628 0376 0B       		.uleb128 0xb
 629 0377 DA040000 		.4byte	.LASF61
 630 037b 10       		.byte	0x10
 631 037c 09       		.byte	0x9
 632 037d 4901     		.2byte	0x149
 633 037f B8030000 		.4byte	0x3b8
 634 0383 09       		.uleb128 0x9
 635 0384 27000000 		.4byte	.LASF48
 636 0388 09       		.byte	0x9
 637 0389 4A01     		.2byte	0x14a
 638 038b A00A0000 		.4byte	0xaa0
 639 038f 00       		.byte	0
 640 0390 09       		.uleb128 0x9
 641 0391 59000000 		.4byte	.LASF51
 642 0395 09       		.byte	0x9
 643 0396 4C01     		.2byte	0x14c
 644 0398 A00A0000 		.4byte	0xaa0
 645 039c 04       		.byte	0x4
 646 039d 09       		.uleb128 0x9
 647 039e 2C000000 		.4byte	.LASF58
 648 03a2 09       		.byte	0x9
 649 03a3 4E01     		.2byte	0x14e
 650 03a5 4F040000 		.4byte	0x44f
 651 03a9 08       		.byte	0x8
 652 03aa 09       		.uleb128 0x9
 653 03ab FF050000 		.4byte	.LASF62
 654 03af 09       		.byte	0x9
 655 03b0 5601     		.2byte	0x156
 656 03b2 44040000 		.4byte	0x444
 657 03b6 0C       		.byte	0xc
 658 03b7 00       		.byte	0
 659 03b8 04       		.uleb128 0x4
 660 03b9 7B000000 		.4byte	.LASF63
 661 03bd 08       		.byte	0x8
 662 03be 60       		.byte	0x60
 663 03bf C3030000 		.4byte	0x3c3
 664 03c3 0B       		.uleb128 0xb
 665 03c4 0C020000 		.4byte	.LASF64
 666 03c8 04       		.byte	0x4
 667 03c9 09       		.byte	0x9
 668 03ca 7001     		.2byte	0x170
 669 03cc DE030000 		.4byte	0x3de
 670 03d0 09       		.uleb128 0x9
 671 03d1 16070000 		.4byte	.LASF65
 672 03d5 09       		.byte	0x9
 673 03d6 7801     		.2byte	0x178
 674 03d8 A60A0000 		.4byte	0xaa6
 675 03dc 00       		.byte	0
 676 03dd 00       		.byte	0
 677 03de 04       		.uleb128 0x4
 678 03df DC050000 		.4byte	.LASF66
 679 03e3 08       		.byte	0x8
 680 03e4 65       		.byte	0x65
 681 03e5 E9030000 		.4byte	0x3e9
 682 03e9 0B       		.uleb128 0xb
 683 03ea A3010000 		.4byte	.LASF67
 684 03ee D0       		.byte	0xd0
ARM GAS  /tmp/cceMHqfo.s 			page 13


 685 03ef 09       		.byte	0x9
 686 03f0 9001     		.2byte	0x190
 687 03f2 44040000 		.4byte	0x444
 688 03f6 09       		.uleb128 0x9
 689 03f7 C1070000 		.4byte	.LASF68
 690 03fb 09       		.byte	0x9
 691 03fc 9401     		.2byte	0x194
 692 03fe 8C020000 		.4byte	0x28c
 693 0402 00       		.byte	0
 694 0403 09       		.uleb128 0x9
 695 0404 81010000 		.4byte	.LASF69
 696 0408 09       		.byte	0x9
 697 0409 9801     		.2byte	0x198
 698 040b 6B030000 		.4byte	0x36b
 699 040f 1C       		.byte	0x1c
 700 0410 08       		.uleb128 0x8
 701 0411 64626700 		.ascii	"dbg\000"
 702 0415 09       		.byte	0x9
 703 0416 9C01     		.2byte	0x19c
 704 0418 B8030000 		.4byte	0x3b8
 705 041c 2C       		.byte	0x2c
 706 041d 09       		.uleb128 0x9
 707 041e DA000000 		.4byte	.LASF70
 708 0422 09       		.byte	0x9
 709 0423 A001     		.2byte	0x1a0
 710 0425 31010000 		.4byte	0x131
 711 0429 30       		.byte	0x30
 712 042a 08       		.uleb128 0x8
 713 042b 746D00   		.ascii	"tm\000"
 714 042e 09       		.byte	0x9
 715 042f A501     		.2byte	0x1a5
 716 0431 21090000 		.4byte	0x921
 717 0435 90       		.byte	0x90
 718 0436 09       		.uleb128 0x9
 719 0437 42000000 		.4byte	.LASF71
 720 043b 09       		.byte	0x9
 721 043c AB01     		.2byte	0x1ab
 722 043e B3090000 		.4byte	0x9b3
 723 0442 98       		.byte	0x98
 724 0443 00       		.byte	0
 725 0444 04       		.uleb128 0x4
 726 0445 E2060000 		.4byte	.LASF72
 727 0449 0A       		.byte	0xa
 728 044a 6D       		.byte	0x6d
 729 044b AD000000 		.4byte	0xad
 730 044f 04       		.uleb128 0x4
 731 0450 32020000 		.4byte	.LASF73
 732 0454 0A       		.byte	0xa
 733 0455 79       		.byte	0x79
 734 0456 AD000000 		.4byte	0xad
 735 045a 03       		.uleb128 0x3
 736 045b 04       		.byte	0x4
 737 045c 07       		.byte	0x7
 738 045d BE040000 		.4byte	.LASF74
 739 0461 0F       		.uleb128 0xf
 740 0462 AD000000 		.4byte	0xad
 741 0466 10       		.uleb128 0x10
ARM GAS  /tmp/cceMHqfo.s 			page 14


 742 0467 AD000000 		.4byte	0xad
 743 046b 76040000 		.4byte	0x476
 744 046f 11       		.uleb128 0x11
 745 0470 5A040000 		.4byte	0x45a
 746 0474 01       		.byte	0x1
 747 0475 00       		.byte	0
 748 0476 10       		.uleb128 0x10
 749 0477 AD000000 		.4byte	0xad
 750 047b 86040000 		.4byte	0x486
 751 047f 11       		.uleb128 0x11
 752 0480 5A040000 		.4byte	0x45a
 753 0484 03       		.byte	0x3
 754 0485 00       		.byte	0
 755 0486 12       		.uleb128 0x12
 756 0487 10       		.byte	0x10
 757 0488 0B       		.byte	0xb
 758 0489 4B01     		.2byte	0x14b
 759 048b C3040000 		.4byte	0x4c3
 760 048f 09       		.uleb128 0x9
 761 0490 D5050000 		.4byte	.LASF75
 762 0494 0B       		.byte	0xb
 763 0495 4D01     		.2byte	0x14d
 764 0497 61040000 		.4byte	0x461
 765 049b 00       		.byte	0
 766 049c 08       		.uleb128 0x8
 767 049d 435200   		.ascii	"CR\000"
 768 04a0 0B       		.byte	0xb
 769 04a1 4E01     		.2byte	0x14e
 770 04a3 61040000 		.4byte	0x461
 771 04a7 04       		.byte	0x4
 772 04a8 09       		.uleb128 0x9
 773 04a9 40050000 		.4byte	.LASF76
 774 04ad 0B       		.byte	0xb
 775 04ae 4F01     		.2byte	0x14f
 776 04b0 61040000 		.4byte	0x461
 777 04b4 08       		.byte	0x8
 778 04b5 09       		.uleb128 0x9
 779 04b6 BE030000 		.4byte	.LASF77
 780 04ba 0B       		.byte	0xb
 781 04bb 5001     		.2byte	0x150
 782 04bd 61040000 		.4byte	0x461
 783 04c1 0C       		.byte	0xc
 784 04c2 00       		.byte	0
 785 04c3 13       		.uleb128 0x13
 786 04c4 44060000 		.4byte	.LASF78
 787 04c8 0B       		.byte	0xb
 788 04c9 5101     		.2byte	0x151
 789 04cb 86040000 		.4byte	0x486
 790 04cf 12       		.uleb128 0x12
 791 04d0 88       		.byte	0x88
 792 04d1 0B       		.byte	0xb
 793 04d2 6602     		.2byte	0x266
 794 04d4 5E060000 		.4byte	0x65e
 795 04d8 08       		.uleb128 0x8
 796 04d9 435200   		.ascii	"CR\000"
 797 04dc 0B       		.byte	0xb
 798 04dd 6802     		.2byte	0x268
ARM GAS  /tmp/cceMHqfo.s 			page 15


 799 04df 61040000 		.4byte	0x461
 800 04e3 00       		.byte	0
 801 04e4 09       		.uleb128 0x9
 802 04e5 DD010000 		.4byte	.LASF79
 803 04e9 0B       		.byte	0xb
 804 04ea 6902     		.2byte	0x269
 805 04ec 61040000 		.4byte	0x461
 806 04f0 04       		.byte	0x4
 807 04f1 09       		.uleb128 0x9
 808 04f2 EE070000 		.4byte	.LASF80
 809 04f6 0B       		.byte	0xb
 810 04f7 6A02     		.2byte	0x26a
 811 04f9 61040000 		.4byte	0x461
 812 04fd 08       		.byte	0x8
 813 04fe 08       		.uleb128 0x8
 814 04ff 43495200 		.ascii	"CIR\000"
 815 0503 0B       		.byte	0xb
 816 0504 6B02     		.2byte	0x26b
 817 0506 61040000 		.4byte	0x461
 818 050a 0C       		.byte	0xc
 819 050b 09       		.uleb128 0x9
 820 050c 70010000 		.4byte	.LASF81
 821 0510 0B       		.byte	0xb
 822 0511 6C02     		.2byte	0x26c
 823 0513 61040000 		.4byte	0x461
 824 0517 10       		.byte	0x10
 825 0518 09       		.uleb128 0x9
 826 0519 B6060000 		.4byte	.LASF82
 827 051d 0B       		.byte	0xb
 828 051e 6D02     		.2byte	0x26d
 829 0520 61040000 		.4byte	0x461
 830 0524 14       		.byte	0x14
 831 0525 09       		.uleb128 0x9
 832 0526 A5030000 		.4byte	.LASF83
 833 052a 0B       		.byte	0xb
 834 052b 6E02     		.2byte	0x26e
 835 052d 61040000 		.4byte	0x461
 836 0531 18       		.byte	0x18
 837 0532 09       		.uleb128 0x9
 838 0533 4F050000 		.4byte	.LASF84
 839 0537 0B       		.byte	0xb
 840 0538 6F02     		.2byte	0x26f
 841 053a AD000000 		.4byte	0xad
 842 053e 1C       		.byte	0x1c
 843 053f 09       		.uleb128 0x9
 844 0540 19050000 		.4byte	.LASF85
 845 0544 0B       		.byte	0xb
 846 0545 7002     		.2byte	0x270
 847 0547 61040000 		.4byte	0x461
 848 054b 20       		.byte	0x20
 849 054c 09       		.uleb128 0x9
 850 054d B6010000 		.4byte	.LASF86
 851 0551 0B       		.byte	0xb
 852 0552 7102     		.2byte	0x271
 853 0554 61040000 		.4byte	0x461
 854 0558 24       		.byte	0x24
 855 0559 09       		.uleb128 0x9
ARM GAS  /tmp/cceMHqfo.s 			page 16


 856 055a 59050000 		.4byte	.LASF87
 857 055e 0B       		.byte	0xb
 858 055f 7202     		.2byte	0x272
 859 0561 66040000 		.4byte	0x466
 860 0565 28       		.byte	0x28
 861 0566 09       		.uleb128 0x9
 862 0567 E6070000 		.4byte	.LASF88
 863 056b 0B       		.byte	0xb
 864 056c 7302     		.2byte	0x273
 865 056e 61040000 		.4byte	0x461
 866 0572 30       		.byte	0x30
 867 0573 09       		.uleb128 0x9
 868 0574 38070000 		.4byte	.LASF89
 869 0578 0B       		.byte	0xb
 870 0579 7402     		.2byte	0x274
 871 057b 61040000 		.4byte	0x461
 872 057f 34       		.byte	0x34
 873 0580 09       		.uleb128 0x9
 874 0581 F1040000 		.4byte	.LASF90
 875 0585 0B       		.byte	0xb
 876 0586 7502     		.2byte	0x275
 877 0588 61040000 		.4byte	0x461
 878 058c 38       		.byte	0x38
 879 058d 09       		.uleb128 0x9
 880 058e 63050000 		.4byte	.LASF91
 881 0592 0B       		.byte	0xb
 882 0593 7602     		.2byte	0x276
 883 0595 AD000000 		.4byte	0xad
 884 0599 3C       		.byte	0x3c
 885 059a 09       		.uleb128 0x9
 886 059b 27070000 		.4byte	.LASF92
 887 059f 0B       		.byte	0xb
 888 05a0 7702     		.2byte	0x277
 889 05a2 61040000 		.4byte	0x461
 890 05a6 40       		.byte	0x40
 891 05a7 09       		.uleb128 0x9
 892 05a8 19060000 		.4byte	.LASF93
 893 05ac 0B       		.byte	0xb
 894 05ad 7802     		.2byte	0x278
 895 05af 61040000 		.4byte	0x461
 896 05b3 44       		.byte	0x44
 897 05b4 09       		.uleb128 0x9
 898 05b5 6D050000 		.4byte	.LASF94
 899 05b9 0B       		.byte	0xb
 900 05ba 7902     		.2byte	0x279
 901 05bc 66040000 		.4byte	0x466
 902 05c0 48       		.byte	0x48
 903 05c1 09       		.uleb128 0x9
 904 05c2 32010000 		.4byte	.LASF95
 905 05c6 0B       		.byte	0xb
 906 05c7 7A02     		.2byte	0x27a
 907 05c9 61040000 		.4byte	0x461
 908 05cd 50       		.byte	0x50
 909 05ce 09       		.uleb128 0x9
 910 05cf F9040000 		.4byte	.LASF96
 911 05d3 0B       		.byte	0xb
 912 05d4 7B02     		.2byte	0x27b
ARM GAS  /tmp/cceMHqfo.s 			page 17


 913 05d6 61040000 		.4byte	0x461
 914 05da 54       		.byte	0x54
 915 05db 09       		.uleb128 0x9
 916 05dc 08060000 		.4byte	.LASF97
 917 05e0 0B       		.byte	0xb
 918 05e1 7C02     		.2byte	0x27c
 919 05e3 61040000 		.4byte	0x461
 920 05e7 58       		.byte	0x58
 921 05e8 09       		.uleb128 0x9
 922 05e9 77050000 		.4byte	.LASF98
 923 05ed 0B       		.byte	0xb
 924 05ee 7D02     		.2byte	0x27d
 925 05f0 AD000000 		.4byte	0xad
 926 05f4 5C       		.byte	0x5c
 927 05f5 09       		.uleb128 0x9
 928 05f6 BF010000 		.4byte	.LASF99
 929 05fa 0B       		.byte	0xb
 930 05fb 7E02     		.2byte	0x27e
 931 05fd 61040000 		.4byte	0x461
 932 0601 60       		.byte	0x60
 933 0602 09       		.uleb128 0x9
 934 0603 29040000 		.4byte	.LASF100
 935 0607 0B       		.byte	0xb
 936 0608 7F02     		.2byte	0x27f
 937 060a 61040000 		.4byte	0x461
 938 060e 64       		.byte	0x64
 939 060f 09       		.uleb128 0x9
 940 0610 81050000 		.4byte	.LASF101
 941 0614 0B       		.byte	0xb
 942 0615 8002     		.2byte	0x280
 943 0617 66040000 		.4byte	0x466
 944 061b 68       		.byte	0x68
 945 061c 09       		.uleb128 0x9
 946 061d BC070000 		.4byte	.LASF102
 947 0621 0B       		.byte	0xb
 948 0622 8102     		.2byte	0x281
 949 0624 61040000 		.4byte	0x461
 950 0628 70       		.byte	0x70
 951 0629 08       		.uleb128 0x8
 952 062a 43535200 		.ascii	"CSR\000"
 953 062e 0B       		.byte	0xb
 954 062f 8202     		.2byte	0x282
 955 0631 61040000 		.4byte	0x461
 956 0635 74       		.byte	0x74
 957 0636 09       		.uleb128 0x9
 958 0637 8B050000 		.4byte	.LASF103
 959 063b 0B       		.byte	0xb
 960 063c 8302     		.2byte	0x283
 961 063e 66040000 		.4byte	0x466
 962 0642 78       		.byte	0x78
 963 0643 09       		.uleb128 0x9
 964 0644 9A070000 		.4byte	.LASF104
 965 0648 0B       		.byte	0xb
 966 0649 8402     		.2byte	0x284
 967 064b 61040000 		.4byte	0x461
 968 064f 80       		.byte	0x80
 969 0650 09       		.uleb128 0x9
ARM GAS  /tmp/cceMHqfo.s 			page 18


 970 0651 94030000 		.4byte	.LASF105
 971 0655 0B       		.byte	0xb
 972 0656 8502     		.2byte	0x285
 973 0658 61040000 		.4byte	0x461
 974 065c 84       		.byte	0x84
 975 065d 00       		.byte	0
 976 065e 13       		.uleb128 0x13
 977 065f 49030000 		.4byte	.LASF106
 978 0663 0B       		.byte	0xb
 979 0664 8602     		.2byte	0x286
 980 0666 CF040000 		.4byte	0x4cf
 981 066a 04       		.uleb128 0x4
 982 066b F0010000 		.4byte	.LASF107
 983 066f 0C       		.byte	0xc
 984 0670 65       		.byte	0x65
 985 0671 0F030000 		.4byte	0x30f
 986 0675 04       		.uleb128 0x4
 987 0676 80040000 		.4byte	.LASF108
 988 067a 0C       		.byte	0xc
 989 067b 6D       		.byte	0x6d
 990 067c B8000000 		.4byte	0xb8
 991 0680 05       		.uleb128 0x5
 992 0681 94000000 		.4byte	.LASF109
 993 0685 04       		.byte	0x4
 994 0686 0C       		.byte	0xc
 995 0687 89       		.byte	0x89
 996 0688 98060000 		.4byte	0x698
 997 068c 07       		.uleb128 0x7
 998 068d 737000   		.ascii	"sp\000"
 999 0690 0C       		.byte	0xc
 1000 0691 8A       		.byte	0x8a
 1001 0692 E4070000 		.4byte	0x7e4
 1002 0696 00       		.byte	0
 1003 0697 00       		.byte	0
 1004 0698 0B       		.uleb128 0xb
 1005 0699 5E000000 		.4byte	.LASF110
 1006 069d 64       		.byte	0x64
 1007 069e 0D       		.byte	0xd
 1008 069f 5901     		.2byte	0x159
 1009 06a1 E4070000 		.4byte	0x7e4
 1010 06a5 08       		.uleb128 0x8
 1011 06a6 73313600 		.ascii	"s16\000"
 1012 06aa 0D       		.byte	0xd
 1013 06ab 5B01     		.2byte	0x15b
 1014 06ad 6A060000 		.4byte	0x66a
 1015 06b1 00       		.byte	0
 1016 06b2 08       		.uleb128 0x8
 1017 06b3 73313700 		.ascii	"s17\000"
 1018 06b7 0D       		.byte	0xd
 1019 06b8 5C01     		.2byte	0x15c
 1020 06ba 6A060000 		.4byte	0x66a
 1021 06be 04       		.byte	0x4
 1022 06bf 08       		.uleb128 0x8
 1023 06c0 73313800 		.ascii	"s18\000"
 1024 06c4 0D       		.byte	0xd
 1025 06c5 5D01     		.2byte	0x15d
 1026 06c7 6A060000 		.4byte	0x66a
ARM GAS  /tmp/cceMHqfo.s 			page 19


 1027 06cb 08       		.byte	0x8
 1028 06cc 08       		.uleb128 0x8
 1029 06cd 73313900 		.ascii	"s19\000"
 1030 06d1 0D       		.byte	0xd
 1031 06d2 5E01     		.2byte	0x15e
 1032 06d4 6A060000 		.4byte	0x66a
 1033 06d8 0C       		.byte	0xc
 1034 06d9 08       		.uleb128 0x8
 1035 06da 73323000 		.ascii	"s20\000"
 1036 06de 0D       		.byte	0xd
 1037 06df 5F01     		.2byte	0x15f
 1038 06e1 6A060000 		.4byte	0x66a
 1039 06e5 10       		.byte	0x10
 1040 06e6 08       		.uleb128 0x8
 1041 06e7 73323100 		.ascii	"s21\000"
 1042 06eb 0D       		.byte	0xd
 1043 06ec 6001     		.2byte	0x160
 1044 06ee 6A060000 		.4byte	0x66a
 1045 06f2 14       		.byte	0x14
 1046 06f3 08       		.uleb128 0x8
 1047 06f4 73323200 		.ascii	"s22\000"
 1048 06f8 0D       		.byte	0xd
 1049 06f9 6101     		.2byte	0x161
 1050 06fb 6A060000 		.4byte	0x66a
 1051 06ff 18       		.byte	0x18
 1052 0700 08       		.uleb128 0x8
 1053 0701 73323300 		.ascii	"s23\000"
 1054 0705 0D       		.byte	0xd
 1055 0706 6201     		.2byte	0x162
 1056 0708 6A060000 		.4byte	0x66a
 1057 070c 1C       		.byte	0x1c
 1058 070d 08       		.uleb128 0x8
 1059 070e 73323400 		.ascii	"s24\000"
 1060 0712 0D       		.byte	0xd
 1061 0713 6301     		.2byte	0x163
 1062 0715 6A060000 		.4byte	0x66a
 1063 0719 20       		.byte	0x20
 1064 071a 08       		.uleb128 0x8
 1065 071b 73323500 		.ascii	"s25\000"
 1066 071f 0D       		.byte	0xd
 1067 0720 6401     		.2byte	0x164
 1068 0722 6A060000 		.4byte	0x66a
 1069 0726 24       		.byte	0x24
 1070 0727 08       		.uleb128 0x8
 1071 0728 73323600 		.ascii	"s26\000"
 1072 072c 0D       		.byte	0xd
 1073 072d 6501     		.2byte	0x165
 1074 072f 6A060000 		.4byte	0x66a
 1075 0733 28       		.byte	0x28
 1076 0734 08       		.uleb128 0x8
 1077 0735 73323700 		.ascii	"s27\000"
 1078 0739 0D       		.byte	0xd
 1079 073a 6601     		.2byte	0x166
 1080 073c 6A060000 		.4byte	0x66a
 1081 0740 2C       		.byte	0x2c
 1082 0741 08       		.uleb128 0x8
 1083 0742 73323800 		.ascii	"s28\000"
ARM GAS  /tmp/cceMHqfo.s 			page 20


 1084 0746 0D       		.byte	0xd
 1085 0747 6701     		.2byte	0x167
 1086 0749 6A060000 		.4byte	0x66a
 1087 074d 30       		.byte	0x30
 1088 074e 08       		.uleb128 0x8
 1089 074f 73323900 		.ascii	"s29\000"
 1090 0753 0D       		.byte	0xd
 1091 0754 6801     		.2byte	0x168
 1092 0756 6A060000 		.4byte	0x66a
 1093 075a 34       		.byte	0x34
 1094 075b 08       		.uleb128 0x8
 1095 075c 73333000 		.ascii	"s30\000"
 1096 0760 0D       		.byte	0xd
 1097 0761 6901     		.2byte	0x169
 1098 0763 6A060000 		.4byte	0x66a
 1099 0767 38       		.byte	0x38
 1100 0768 08       		.uleb128 0x8
 1101 0769 73333100 		.ascii	"s31\000"
 1102 076d 0D       		.byte	0xd
 1103 076e 6A01     		.2byte	0x16a
 1104 0770 6A060000 		.4byte	0x66a
 1105 0774 3C       		.byte	0x3c
 1106 0775 08       		.uleb128 0x8
 1107 0776 723400   		.ascii	"r4\000"
 1108 0779 0D       		.byte	0xd
 1109 077a 6C01     		.2byte	0x16c
 1110 077c 6A060000 		.4byte	0x66a
 1111 0780 40       		.byte	0x40
 1112 0781 08       		.uleb128 0x8
 1113 0782 723500   		.ascii	"r5\000"
 1114 0785 0D       		.byte	0xd
 1115 0786 6D01     		.2byte	0x16d
 1116 0788 6A060000 		.4byte	0x66a
 1117 078c 44       		.byte	0x44
 1118 078d 08       		.uleb128 0x8
 1119 078e 723600   		.ascii	"r6\000"
 1120 0791 0D       		.byte	0xd
 1121 0792 6E01     		.2byte	0x16e
 1122 0794 6A060000 		.4byte	0x66a
 1123 0798 48       		.byte	0x48
 1124 0799 08       		.uleb128 0x8
 1125 079a 723700   		.ascii	"r7\000"
 1126 079d 0D       		.byte	0xd
 1127 079e 6F01     		.2byte	0x16f
 1128 07a0 6A060000 		.4byte	0x66a
 1129 07a4 4C       		.byte	0x4c
 1130 07a5 08       		.uleb128 0x8
 1131 07a6 723800   		.ascii	"r8\000"
 1132 07a9 0D       		.byte	0xd
 1133 07aa 7001     		.2byte	0x170
 1134 07ac 6A060000 		.4byte	0x66a
 1135 07b0 50       		.byte	0x50
 1136 07b1 08       		.uleb128 0x8
 1137 07b2 723900   		.ascii	"r9\000"
 1138 07b5 0D       		.byte	0xd
 1139 07b6 7101     		.2byte	0x171
 1140 07b8 6A060000 		.4byte	0x66a
ARM GAS  /tmp/cceMHqfo.s 			page 21


 1141 07bc 54       		.byte	0x54
 1142 07bd 08       		.uleb128 0x8
 1143 07be 72313000 		.ascii	"r10\000"
 1144 07c2 0D       		.byte	0xd
 1145 07c3 7201     		.2byte	0x172
 1146 07c5 6A060000 		.4byte	0x66a
 1147 07c9 58       		.byte	0x58
 1148 07ca 08       		.uleb128 0x8
 1149 07cb 72313100 		.ascii	"r11\000"
 1150 07cf 0D       		.byte	0xd
 1151 07d0 7301     		.2byte	0x173
 1152 07d2 6A060000 		.4byte	0x66a
 1153 07d6 5C       		.byte	0x5c
 1154 07d7 08       		.uleb128 0x8
 1155 07d8 6C7200   		.ascii	"lr\000"
 1156 07db 0D       		.byte	0xd
 1157 07dc 7401     		.2byte	0x174
 1158 07de 6A060000 		.4byte	0x66a
 1159 07e2 60       		.byte	0x60
 1160 07e3 00       		.byte	0
 1161 07e4 0A       		.uleb128 0xa
 1162 07e5 04       		.byte	0x4
 1163 07e6 98060000 		.4byte	0x698
 1164 07ea 12       		.uleb128 0x12
 1165 07eb 60       		.byte	0x60
 1166 07ec 0E       		.byte	0xe
 1167 07ed F501     		.2byte	0x1f5
 1168 07ef F6080000 		.4byte	0x8f6
 1169 07f3 08       		.uleb128 0x8
 1170 07f4 43523100 		.ascii	"CR1\000"
 1171 07f8 0E       		.byte	0xe
 1172 07f9 F601     		.2byte	0x1f6
 1173 07fb 61040000 		.4byte	0x461
 1174 07ff 00       		.byte	0
 1175 0800 08       		.uleb128 0x8
 1176 0801 43523200 		.ascii	"CR2\000"
 1177 0805 0E       		.byte	0xe
 1178 0806 F701     		.2byte	0x1f7
 1179 0808 61040000 		.4byte	0x461
 1180 080c 04       		.byte	0x4
 1181 080d 09       		.uleb128 0x9
 1182 080e 71030000 		.4byte	.LASF111
 1183 0812 0E       		.byte	0xe
 1184 0813 F801     		.2byte	0x1f8
 1185 0815 61040000 		.4byte	0x461
 1186 0819 08       		.byte	0x8
 1187 081a 09       		.uleb128 0x9
 1188 081b 1C000000 		.4byte	.LASF112
 1189 081f 0E       		.byte	0xe
 1190 0820 F901     		.2byte	0x1f9
 1191 0822 61040000 		.4byte	0x461
 1192 0826 0C       		.byte	0xc
 1193 0827 08       		.uleb128 0x8
 1194 0828 535200   		.ascii	"SR\000"
 1195 082b 0E       		.byte	0xe
 1196 082c FA01     		.2byte	0x1fa
 1197 082e 61040000 		.4byte	0x461
ARM GAS  /tmp/cceMHqfo.s 			page 22


 1198 0832 10       		.byte	0x10
 1199 0833 08       		.uleb128 0x8
 1200 0834 45475200 		.ascii	"EGR\000"
 1201 0838 0E       		.byte	0xe
 1202 0839 FB01     		.2byte	0x1fb
 1203 083b 61040000 		.4byte	0x461
 1204 083f 14       		.byte	0x14
 1205 0840 09       		.uleb128 0x9
 1206 0841 52010000 		.4byte	.LASF113
 1207 0845 0E       		.byte	0xe
 1208 0846 FC01     		.2byte	0x1fc
 1209 0848 61040000 		.4byte	0x461
 1210 084c 18       		.byte	0x18
 1211 084d 09       		.uleb128 0x9
 1212 084e 58010000 		.4byte	.LASF114
 1213 0852 0E       		.byte	0xe
 1214 0853 FD01     		.2byte	0x1fd
 1215 0855 61040000 		.4byte	0x461
 1216 0859 1C       		.byte	0x1c
 1217 085a 09       		.uleb128 0x9
 1218 085b DD060000 		.4byte	.LASF115
 1219 085f 0E       		.byte	0xe
 1220 0860 FE01     		.2byte	0x1fe
 1221 0862 61040000 		.4byte	0x461
 1222 0866 20       		.byte	0x20
 1223 0867 08       		.uleb128 0x8
 1224 0868 434E5400 		.ascii	"CNT\000"
 1225 086c 0E       		.byte	0xe
 1226 086d FF01     		.2byte	0x1ff
 1227 086f 61040000 		.4byte	0x461
 1228 0873 24       		.byte	0x24
 1229 0874 08       		.uleb128 0x8
 1230 0875 50534300 		.ascii	"PSC\000"
 1231 0879 0E       		.byte	0xe
 1232 087a 0002     		.2byte	0x200
 1233 087c 61040000 		.4byte	0x461
 1234 0880 28       		.byte	0x28
 1235 0881 08       		.uleb128 0x8
 1236 0882 41525200 		.ascii	"ARR\000"
 1237 0886 0E       		.byte	0xe
 1238 0887 0102     		.2byte	0x201
 1239 0889 61040000 		.4byte	0x461
 1240 088d 2C       		.byte	0x2c
 1241 088e 08       		.uleb128 0x8
 1242 088f 52435200 		.ascii	"RCR\000"
 1243 0893 0E       		.byte	0xe
 1244 0894 0202     		.2byte	0x202
 1245 0896 61040000 		.4byte	0x461
 1246 089a 30       		.byte	0x30
 1247 089b 08       		.uleb128 0x8
 1248 089c 43435200 		.ascii	"CCR\000"
 1249 08a0 0E       		.byte	0xe
 1250 08a1 0302     		.2byte	0x203
 1251 08a3 F6080000 		.4byte	0x8f6
 1252 08a7 34       		.byte	0x34
 1253 08a8 09       		.uleb128 0x9
 1254 08a9 24010000 		.4byte	.LASF116
ARM GAS  /tmp/cceMHqfo.s 			page 23


 1255 08ad 0E       		.byte	0xe
 1256 08ae 0402     		.2byte	0x204
 1257 08b0 61040000 		.4byte	0x461
 1258 08b4 44       		.byte	0x44
 1259 08b5 08       		.uleb128 0x8
 1260 08b6 44435200 		.ascii	"DCR\000"
 1261 08ba 0E       		.byte	0xe
 1262 08bb 0502     		.2byte	0x205
 1263 08bd 61040000 		.4byte	0x461
 1264 08c1 48       		.byte	0x48
 1265 08c2 09       		.uleb128 0x9
 1266 08c3 B1060000 		.4byte	.LASF117
 1267 08c7 0E       		.byte	0xe
 1268 08c8 0602     		.2byte	0x206
 1269 08ca 61040000 		.4byte	0x461
 1270 08ce 4C       		.byte	0x4c
 1271 08cf 08       		.uleb128 0x8
 1272 08d0 4F5200   		.ascii	"OR\000"
 1273 08d3 0E       		.byte	0xe
 1274 08d4 0702     		.2byte	0x207
 1275 08d6 61040000 		.4byte	0x461
 1276 08da 50       		.byte	0x50
 1277 08db 09       		.uleb128 0x9
 1278 08dc 5E010000 		.4byte	.LASF118
 1279 08e0 0E       		.byte	0xe
 1280 08e1 0802     		.2byte	0x208
 1281 08e3 61040000 		.4byte	0x461
 1282 08e7 54       		.byte	0x54
 1283 08e8 09       		.uleb128 0x9
 1284 08e9 3F060000 		.4byte	.LASF119
 1285 08ed 0E       		.byte	0xe
 1286 08ee 0902     		.2byte	0x209
 1287 08f0 FB080000 		.4byte	0x8fb
 1288 08f4 58       		.byte	0x58
 1289 08f5 00       		.byte	0
 1290 08f6 0F       		.uleb128 0xf
 1291 08f7 76040000 		.4byte	0x476
 1292 08fb 0F       		.uleb128 0xf
 1293 08fc 66040000 		.4byte	0x466
 1294 0900 13       		.uleb128 0x13
 1295 0901 B0070000 		.4byte	.LASF120
 1296 0905 0E       		.byte	0xe
 1297 0906 0A02     		.2byte	0x20a
 1298 0908 EA070000 		.4byte	0x7ea
 1299 090c 14       		.uleb128 0x14
 1300 090d 04       		.byte	0x4
 1301 090e 0F       		.byte	0xf
 1302 090f 38       		.byte	0x38
 1303 0910 21090000 		.4byte	0x921
 1304 0914 06       		.uleb128 0x6
 1305 0915 20070000 		.4byte	.LASF121
 1306 0919 0F       		.byte	0xf
 1307 091a 3C       		.byte	0x3c
 1308 091b C3000000 		.4byte	0xc3
 1309 091f 00       		.byte	0
 1310 0920 00       		.byte	0
 1311 0921 04       		.uleb128 0x4
ARM GAS  /tmp/cceMHqfo.s 			page 24


 1312 0922 03050000 		.4byte	.LASF122
 1313 0926 0F       		.byte	0xf
 1314 0927 3D       		.byte	0x3d
 1315 0928 0C090000 		.4byte	0x90c
 1316 092c 14       		.uleb128 0x14
 1317 092d 18       		.byte	0x18
 1318 092e 0F       		.byte	0xf
 1319 092f 48       		.byte	0x48
 1320 0930 6F090000 		.4byte	0x96f
 1321 0934 06       		.uleb128 0x6
 1322 0935 6C030000 		.4byte	.LASF123
 1323 0939 0F       		.byte	0xf
 1324 093a 49       		.byte	0x49
 1325 093b C3000000 		.4byte	0xc3
 1326 093f 00       		.byte	0
 1327 0940 06       		.uleb128 0x6
 1328 0941 A1000000 		.4byte	.LASF124
 1329 0945 0F       		.byte	0xf
 1330 0946 4A       		.byte	0x4a
 1331 0947 C3000000 		.4byte	0xc3
 1332 094b 04       		.byte	0x4
 1333 094c 06       		.uleb128 0x6
 1334 094d 55030000 		.4byte	.LASF125
 1335 0951 0F       		.byte	0xf
 1336 0952 4B       		.byte	0x4b
 1337 0953 C3000000 		.4byte	0xc3
 1338 0957 08       		.byte	0x8
 1339 0958 07       		.uleb128 0x7
 1340 0959 6E00     		.ascii	"n\000"
 1341 095b 0F       		.byte	0xf
 1342 095c 4C       		.byte	0x4c
 1343 095d 26010000 		.4byte	0x126
 1344 0961 0C       		.byte	0xc
 1345 0962 06       		.uleb128 0x6
 1346 0963 35050000 		.4byte	.LASF126
 1347 0967 0F       		.byte	0xf
 1348 0968 4D       		.byte	0x4d
 1349 0969 CE000000 		.4byte	0xce
 1350 096d 10       		.byte	0x10
 1351 096e 00       		.byte	0
 1352 096f 04       		.uleb128 0x4
 1353 0970 A7000000 		.4byte	.LASF127
 1354 0974 0F       		.byte	0xf
 1355 0975 4E       		.byte	0x4e
 1356 0976 2C090000 		.4byte	0x92c
 1357 097a 14       		.uleb128 0x14
 1358 097b 38       		.byte	0x38
 1359 097c 10       		.byte	0x10
 1360 097d 38       		.byte	0x38
 1361 097e B3090000 		.4byte	0x9b3
 1362 0982 06       		.uleb128 0x6
 1363 0983 5A030000 		.4byte	.LASF128
 1364 0987 10       		.byte	0x10
 1365 0988 39       		.byte	0x39
 1366 0989 26010000 		.4byte	0x126
 1367 098d 00       		.byte	0
 1368 098e 06       		.uleb128 0x6
ARM GAS  /tmp/cceMHqfo.s 			page 25


 1369 098f B0050000 		.4byte	.LASF129
 1370 0993 10       		.byte	0x10
 1371 0994 3A       		.byte	0x3a
 1372 0995 26010000 		.4byte	0x126
 1373 0999 04       		.byte	0x4
 1374 099a 06       		.uleb128 0x6
 1375 099b 28080000 		.4byte	.LASF130
 1376 099f 10       		.byte	0x10
 1377 09a0 3B       		.byte	0x3b
 1378 09a1 6F090000 		.4byte	0x96f
 1379 09a5 08       		.byte	0x8
 1380 09a6 06       		.uleb128 0x6
 1381 09a7 33040000 		.4byte	.LASF131
 1382 09ab 10       		.byte	0x10
 1383 09ac 3D       		.byte	0x3d
 1384 09ad 6F090000 		.4byte	0x96f
 1385 09b1 20       		.byte	0x20
 1386 09b2 00       		.byte	0
 1387 09b3 04       		.uleb128 0x4
 1388 09b4 76030000 		.4byte	.LASF132
 1389 09b8 10       		.byte	0x10
 1390 09b9 3F       		.byte	0x3f
 1391 09ba 7A090000 		.4byte	0x97a
 1392 09be 15       		.uleb128 0x15
 1393 09bf 04       		.byte	0x4
 1394 09c0 09       		.byte	0x9
 1395 09c1 C6       		.byte	0xc6
 1396 09c2 200A0000 		.4byte	0xa20
 1397 09c6 16       		.uleb128 0x16
 1398 09c7 32000000 		.4byte	.LASF133
 1399 09cb 09       		.byte	0x9
 1400 09cc CD       		.byte	0xcd
 1401 09cd 05010000 		.4byte	0x105
 1402 09d1 16       		.uleb128 0x16
 1403 09d2 D1000000 		.4byte	.LASF134
 1404 09d6 09       		.byte	0x9
 1405 09d7 D4       		.byte	0xd4
 1406 09d8 05010000 		.4byte	0x105
 1407 09dc 16       		.uleb128 0x16
 1408 09dd 22040000 		.4byte	.LASF135
 1409 09e1 09       		.byte	0x9
 1410 09e2 DB       		.byte	0xdb
 1411 09e3 0F030000 		.4byte	0x30f
 1412 09e7 16       		.uleb128 0x16
 1413 09e8 21000000 		.4byte	.LASF136
 1414 09ec 09       		.byte	0x9
 1415 09ed E2       		.byte	0xe2
 1416 09ee 200A0000 		.4byte	0xa20
 1417 09f2 16       		.uleb128 0x16
 1418 09f3 E5000000 		.4byte	.LASF137
 1419 09f7 09       		.byte	0x9
 1420 09f8 E7       		.byte	0xe7
 1421 09f9 05010000 		.4byte	0x105
 1422 09fd 16       		.uleb128 0x16
 1423 09fe 42030000 		.4byte	.LASF138
 1424 0a02 09       		.byte	0x9
 1425 0a03 F0       		.byte	0xf0
ARM GAS  /tmp/cceMHqfo.s 			page 26


 1426 0a04 4B0A0000 		.4byte	0xa4b
 1427 0a08 16       		.uleb128 0x16
 1428 0a09 AA060000 		.4byte	.LASF139
 1429 0a0d 09       		.byte	0x9
 1430 0a0e F9       		.byte	0xf9
 1431 0a0f 820A0000 		.4byte	0xa82
 1432 0a13 17       		.uleb128 0x17
 1433 0a14 12060000 		.4byte	.LASF140
 1434 0a18 09       		.byte	0x9
 1435 0a19 0101     		.2byte	0x101
 1436 0a1b 10010000 		.4byte	0x110
 1437 0a1f 00       		.byte	0
 1438 0a20 0A       		.uleb128 0xa
 1439 0a21 04       		.byte	0x4
 1440 0a22 27020000 		.4byte	0x227
 1441 0a26 05       		.uleb128 0x5
 1442 0a27 32060000 		.4byte	.LASF141
 1443 0a2b 0C       		.byte	0xc
 1444 0a2c 11       		.byte	0x11
 1445 0a2d 34       		.byte	0x34
 1446 0a2e 4B0A0000 		.4byte	0xa4b
 1447 0a32 06       		.uleb128 0x6
 1448 0a33 60030000 		.4byte	.LASF28
 1449 0a37 11       		.byte	0x11
 1450 0a38 35       		.byte	0x35
 1451 0a39 5C020000 		.4byte	0x25c
 1452 0a3d 00       		.byte	0
 1453 0a3e 07       		.uleb128 0x7
 1454 0a3f 636E7400 		.ascii	"cnt\000"
 1455 0a43 11       		.byte	0x11
 1456 0a44 37       		.byte	0x37
 1457 0a45 1B010000 		.4byte	0x11b
 1458 0a49 08       		.byte	0x8
 1459 0a4a 00       		.byte	0
 1460 0a4b 0A       		.uleb128 0xa
 1461 0a4c 04       		.byte	0x4
 1462 0a4d 260A0000 		.4byte	0xa26
 1463 0a51 05       		.uleb128 0x5
 1464 0a52 2F070000 		.4byte	.LASF142
 1465 0a56 10       		.byte	0x10
 1466 0a57 12       		.byte	0x12
 1467 0a58 39       		.byte	0x39
 1468 0a59 820A0000 		.4byte	0xa82
 1469 0a5d 06       		.uleb128 0x6
 1470 0a5e 60030000 		.4byte	.LASF28
 1471 0a62 12       		.byte	0x12
 1472 0a63 3A       		.byte	0x3a
 1473 0a64 5C020000 		.4byte	0x25c
 1474 0a68 00       		.byte	0
 1475 0a69 06       		.uleb128 0x6
 1476 0a6a 80060000 		.4byte	.LASF143
 1477 0a6e 12       		.byte	0x12
 1478 0a6f 3C       		.byte	0x3c
 1479 0a70 32020000 		.4byte	0x232
 1480 0a74 08       		.byte	0x8
 1481 0a75 06       		.uleb128 0x6
 1482 0a76 27000000 		.4byte	.LASF48
ARM GAS  /tmp/cceMHqfo.s 			page 27


 1483 0a7a 12       		.byte	0x12
 1484 0a7b 3E       		.byte	0x3e
 1485 0a7c B60A0000 		.4byte	0xab6
 1486 0a80 0C       		.byte	0xc
 1487 0a81 00       		.byte	0
 1488 0a82 0A       		.uleb128 0xa
 1489 0a83 04       		.byte	0x4
 1490 0a84 510A0000 		.4byte	0xa51
 1491 0a88 0A       		.uleb128 0xa
 1492 0a89 04       		.byte	0x4
 1493 0a8a 8E0A0000 		.4byte	0xa8e
 1494 0a8e 18       		.uleb128 0x18
 1495 0a8f 930A0000 		.4byte	0xa93
 1496 0a93 03       		.uleb128 0x3
 1497 0a94 01       		.byte	0x1
 1498 0a95 08       		.byte	0x8
 1499 0a96 9F060000 		.4byte	.LASF144
 1500 0a9a 0A       		.uleb128 0xa
 1501 0a9b 04       		.byte	0x4
 1502 0a9c 75060000 		.4byte	0x675
 1503 0aa0 0A       		.uleb128 0xa
 1504 0aa1 04       		.byte	0x4
 1505 0aa2 11030000 		.4byte	0x311
 1506 0aa6 0F       		.uleb128 0xf
 1507 0aa7 880A0000 		.4byte	0xa88
 1508 0aab 04       		.uleb128 0x4
 1509 0aac 20080000 		.4byte	.LASF145
 1510 0ab0 12       		.byte	0x12
 1511 0ab1 34       		.byte	0x34
 1512 0ab2 510A0000 		.4byte	0xa51
 1513 0ab6 0A       		.uleb128 0xa
 1514 0ab7 04       		.byte	0x4
 1515 0ab8 AB0A0000 		.4byte	0xaab
 1516 0abc 03       		.uleb128 0x3
 1517 0abd 01       		.byte	0x1
 1518 0abe 02       		.byte	0x2
 1519 0abf B9050000 		.4byte	.LASF146
 1520 0ac3 19       		.uleb128 0x19
 1521 0ac4 08070000 		.4byte	.LASF167
 1522 0ac8 02       		.byte	0x2
 1523 0ac9 EB01     		.2byte	0x1eb
 1524 0acb 03       		.byte	0x3
 1525 0acc DD0A0000 		.4byte	0xadd
 1526 0ad0 1A       		.uleb128 0x1a
 1527 0ad1 79010000 		.4byte	.LASF168
 1528 0ad5 02       		.byte	0x2
 1529 0ad6 EB01     		.2byte	0x1eb
 1530 0ad8 AD000000 		.4byte	0xad
 1531 0adc 00       		.byte	0
 1532 0add 1B       		.uleb128 0x1b
 1533 0ade 8A000000 		.4byte	.LASF147
 1534 0ae2 0D       		.byte	0xd
 1535 0ae3 5A02     		.2byte	0x25a
 1536 0ae5 03       		.byte	0x3
 1537 0ae6 1B       		.uleb128 0x1b
 1538 0ae7 88010000 		.4byte	.LASF148
 1539 0aeb 0D       		.byte	0xd
ARM GAS  /tmp/cceMHqfo.s 			page 28


 1540 0aec 7202     		.2byte	0x272
 1541 0aee 03       		.byte	0x3
 1542 0aef 1B       		.uleb128 0x1b
 1543 0af0 87070000 		.4byte	.LASF149
 1544 0af4 0D       		.byte	0xd
 1545 0af5 8102     		.2byte	0x281
 1546 0af7 03       		.byte	0x3
 1547 0af8 1B       		.uleb128 0x1b
 1548 0af9 BF060000 		.4byte	.LASF150
 1549 0afd 0D       		.byte	0xd
 1550 0afe 8C02     		.2byte	0x28c
 1551 0b00 03       		.byte	0x3
 1552 0b01 1B       		.uleb128 0x1b
 1553 0b02 F9010000 		.4byte	.LASF151
 1554 0b06 04       		.byte	0x4
 1555 0b07 1302     		.2byte	0x213
 1556 0b09 03       		.byte	0x3
 1557 0b0a 1B       		.uleb128 0x1b
 1558 0b0b 8B040000 		.4byte	.LASF152
 1559 0b0f 04       		.byte	0x4
 1560 0b10 5902     		.2byte	0x259
 1561 0b12 03       		.byte	0x3
 1562 0b13 1B       		.uleb128 0x1b
 1563 0b14 03010000 		.4byte	.LASF153
 1564 0b18 04       		.byte	0x4
 1565 0b19 1E02     		.2byte	0x21e
 1566 0b1b 03       		.byte	0x3
 1567 0b1c 1B       		.uleb128 0x1b
 1568 0b1d D5070000 		.4byte	.LASF154
 1569 0b21 03       		.byte	0x3
 1570 0b22 8901     		.2byte	0x189
 1571 0b24 03       		.byte	0x3
 1572 0b25 1B       		.uleb128 0x1b
 1573 0b26 9D050000 		.4byte	.LASF155
 1574 0b2a 03       		.byte	0x3
 1575 0b2b 9D01     		.2byte	0x19d
 1576 0b2d 03       		.byte	0x3
 1577 0b2e 1C       		.uleb128 0x1c
 1578 0b2f 18040000 		.4byte	.LASF156
 1579 0b33 01       		.byte	0x1
 1580 0b34 FD       		.byte	0xfd
 1581 0b35 00000000 		.4byte	.LFB323
 1582 0b39 34000000 		.4byte	.LFE323-.LFB323
 1583 0b3d 01       		.uleb128 0x1
 1584 0b3e 9C       		.byte	0x9c
 1585 0b3f 520C0000 		.4byte	0xc52
 1586 0b43 1D       		.uleb128 0x1d
 1587 0b44 010B0000 		.4byte	0xb01
 1588 0b48 12000000 		.4byte	.LBB48
 1589 0b4c 0A000000 		.4byte	.LBE48-.LBB48
 1590 0b50 01       		.byte	0x1
 1591 0b51 0701     		.2byte	0x107
 1592 0b53 B20B0000 		.4byte	0xbb2
 1593 0b57 1E       		.uleb128 0x1e
 1594 0b58 1C0B0000 		.4byte	0xb1c
 1595 0b5c 12000000 		.4byte	.LBB49
 1596 0b60 0A000000 		.4byte	.LBE49-.LBB49
ARM GAS  /tmp/cceMHqfo.s 			page 29


 1597 0b64 04       		.byte	0x4
 1598 0b65 1502     		.2byte	0x215
 1599 0b67 1D       		.uleb128 0x1d
 1600 0b68 EF0A0000 		.4byte	0xaef
 1601 0b6c 12000000 		.4byte	.LBB51
 1602 0b70 06000000 		.4byte	.LBE51-.LBB51
 1603 0b74 03       		.byte	0x3
 1604 0b75 8B01     		.2byte	0x18b
 1605 0b77 A70B0000 		.4byte	0xba7
 1606 0b7b 1E       		.uleb128 0x1e
 1607 0b7c DD0A0000 		.4byte	0xadd
 1608 0b80 12000000 		.4byte	.LBB52
 1609 0b84 06000000 		.4byte	.LBE52-.LBB52
 1610 0b88 0D       		.byte	0xd
 1611 0b89 8302     		.2byte	0x283
 1612 0b8b 1E       		.uleb128 0x1e
 1613 0b8c C30A0000 		.4byte	0xac3
 1614 0b90 12000000 		.4byte	.LBB53
 1615 0b94 06000000 		.4byte	.LBE53-.LBB53
 1616 0b98 0D       		.byte	0xd
 1617 0b99 6202     		.2byte	0x262
 1618 0b9b 1F       		.uleb128 0x1f
 1619 0b9c D00A0000 		.4byte	0xad0
 1620 0ba0 00000000 		.4byte	.LLST0
 1621 0ba4 00       		.byte	0
 1622 0ba5 00       		.byte	0
 1623 0ba6 00       		.byte	0
 1624 0ba7 20       		.uleb128 0x20
 1625 0ba8 1C000000 		.4byte	.LVL2
 1626 0bac 9A0C0000 		.4byte	0xc9a
 1627 0bb0 00       		.byte	0
 1628 0bb1 00       		.byte	0
 1629 0bb2 1D       		.uleb128 0x1d
 1630 0bb3 0A0B0000 		.4byte	0xb0a
 1631 0bb7 1C000000 		.4byte	.LBB55
 1632 0bbb 04000000 		.4byte	.LBE55-.LBB55
 1633 0bbf 01       		.byte	0x1
 1634 0bc0 0801     		.2byte	0x108
 1635 0bc2 D00B0000 		.4byte	0xbd0
 1636 0bc6 20       		.uleb128 0x20
 1637 0bc7 20000000 		.4byte	.LVL3
 1638 0bcb A10C0000 		.4byte	0xca1
 1639 0bcf 00       		.byte	0
 1640 0bd0 1D       		.uleb128 0x1d
 1641 0bd1 130B0000 		.4byte	0xb13
 1642 0bd5 20000000 		.4byte	.LBB57
 1643 0bd9 08000000 		.4byte	.LBE57-.LBB57
 1644 0bdd 01       		.byte	0x1
 1645 0bde 0901     		.2byte	0x109
 1646 0be0 3F0C0000 		.4byte	0xc3f
 1647 0be4 1E       		.uleb128 0x1e
 1648 0be5 250B0000 		.4byte	0xb25
 1649 0be9 20000000 		.4byte	.LBB58
 1650 0bed 08000000 		.4byte	.LBE58-.LBB58
 1651 0bf1 04       		.byte	0x4
 1652 0bf2 2002     		.2byte	0x220
 1653 0bf4 1D       		.uleb128 0x1d
ARM GAS  /tmp/cceMHqfo.s 			page 30


 1654 0bf5 F80A0000 		.4byte	0xaf8
 1655 0bf9 24000000 		.4byte	.LBB60
 1656 0bfd 04000000 		.4byte	.LBE60-.LBB60
 1657 0c01 03       		.byte	0x3
 1658 0c02 A101     		.2byte	0x1a1
 1659 0c04 340C0000 		.4byte	0xc34
 1660 0c08 1E       		.uleb128 0x1e
 1661 0c09 E60A0000 		.4byte	0xae6
 1662 0c0d 24000000 		.4byte	.LBB61
 1663 0c11 04000000 		.4byte	.LBE61-.LBB61
 1664 0c15 0D       		.byte	0xd
 1665 0c16 8E02     		.2byte	0x28e
 1666 0c18 1E       		.uleb128 0x1e
 1667 0c19 C30A0000 		.4byte	0xac3
 1668 0c1d 24000000 		.4byte	.LBB62
 1669 0c21 04000000 		.4byte	.LBE62-.LBB62
 1670 0c25 0D       		.byte	0xd
 1671 0c26 7502     		.2byte	0x275
 1672 0c28 1F       		.uleb128 0x1f
 1673 0c29 D00A0000 		.4byte	0xad0
 1674 0c2d 15000000 		.4byte	.LLST1
 1675 0c31 00       		.byte	0
 1676 0c32 00       		.byte	0
 1677 0c33 00       		.byte	0
 1678 0c34 20       		.uleb128 0x20
 1679 0c35 24000000 		.4byte	.LVL4
 1680 0c39 A90C0000 		.4byte	0xca9
 1681 0c3d 00       		.byte	0
 1682 0c3e 00       		.byte	0
 1683 0c3f 20       		.uleb128 0x20
 1684 0c40 06000000 		.4byte	.LVL0
 1685 0c44 B00C0000 		.4byte	0xcb0
 1686 0c48 21       		.uleb128 0x21
 1687 0c49 30000000 		.4byte	.LVL6
 1688 0c4d B70C0000 		.4byte	0xcb7
 1689 0c51 00       		.byte	0
 1690 0c52 22       		.uleb128 0x22
 1691 0c53 18010000 		.4byte	.LASF157
 1692 0c57 01       		.byte	0x1
 1693 0c58 1901     		.2byte	0x119
 1694 0c5a 00000000 		.4byte	.LFB324
 1695 0c5e 50000000 		.4byte	.LFE324-.LFB324
 1696 0c62 01       		.uleb128 0x1
 1697 0c63 9C       		.byte	0x9c
 1698 0c64 7E0C0000 		.4byte	0xc7e
 1699 0c68 23       		.uleb128 0x23
 1700 0c69 42000000 		.4byte	.LVL7
 1701 0c6d BF0C0000 		.4byte	0xcbf
 1702 0c71 24       		.uleb128 0x24
 1703 0c72 01       		.uleb128 0x1
 1704 0c73 51       		.byte	0x51
 1705 0c74 01       		.uleb128 0x1
 1706 0c75 38       		.byte	0x38
 1707 0c76 24       		.uleb128 0x24
 1708 0c77 01       		.uleb128 0x1
 1709 0c78 50       		.byte	0x50
 1710 0c79 02       		.uleb128 0x2
ARM GAS  /tmp/cceMHqfo.s 			page 31


 1711 0c7a 08       		.byte	0x8
 1712 0c7b 32       		.byte	0x32
 1713 0c7c 00       		.byte	0
 1714 0c7d 00       		.byte	0
 1715 0c7e 25       		.uleb128 0x25
 1716 0c7f E8050000 		.4byte	.LASF158
 1717 0c83 13       		.byte	0x13
 1718 0c84 0408     		.2byte	0x804
 1719 0c86 8A0C0000 		.4byte	0xc8a
 1720 0c8a 0F       		.uleb128 0xf
 1721 0c8b A2000000 		.4byte	0xa2
 1722 0c8f 26       		.uleb128 0x26
 1723 0c90 636800   		.ascii	"ch\000"
 1724 0c93 09       		.byte	0x9
 1725 0c94 C701     		.2byte	0x1c7
 1726 0c96 DE030000 		.4byte	0x3de
 1727 0c9a 27       		.uleb128 0x27
 1728 0c9b 62040000 		.4byte	.LASF159
 1729 0c9f 10       		.byte	0x10
 1730 0ca0 51       		.byte	0x51
 1731 0ca1 28       		.uleb128 0x28
 1732 0ca2 EC060000 		.4byte	.LASF160
 1733 0ca6 03       		.byte	0x3
 1734 0ca7 1F01     		.2byte	0x11f
 1735 0ca9 27       		.uleb128 0x27
 1736 0caa FB070000 		.4byte	.LASF161
 1737 0cae 10       		.byte	0x10
 1738 0caf 52       		.byte	0x52
 1739 0cb0 27       		.uleb128 0x27
 1740 0cb1 5C060000 		.4byte	.LASF162
 1741 0cb5 10       		.byte	0x10
 1742 0cb6 4D       		.byte	0x4d
 1743 0cb7 28       		.uleb128 0x28
 1744 0cb8 C5030000 		.4byte	.LASF163
 1745 0cbc 0D       		.byte	0xd
 1746 0cbd F201     		.2byte	0x1f2
 1747 0cbf 29       		.uleb128 0x29
 1748 0cc0 3C010000 		.4byte	.LASF169
 1749 0cc4 14       		.byte	0x14
 1750 0cc5 4E       		.byte	0x4e
 1751 0cc6 0D       		.uleb128 0xd
 1752 0cc7 AD000000 		.4byte	0xad
 1753 0ccb 0D       		.uleb128 0xd
 1754 0ccc AD000000 		.4byte	0xad
 1755 0cd0 00       		.byte	0
 1756 0cd1 00       		.byte	0
 1757              		.section	.debug_abbrev,"",%progbits
 1758              	.Ldebug_abbrev0:
 1759 0000 01       		.uleb128 0x1
 1760 0001 11       		.uleb128 0x11
 1761 0002 01       		.byte	0x1
 1762 0003 25       		.uleb128 0x25
 1763 0004 0E       		.uleb128 0xe
 1764 0005 13       		.uleb128 0x13
 1765 0006 0B       		.uleb128 0xb
 1766 0007 03       		.uleb128 0x3
 1767 0008 0E       		.uleb128 0xe
ARM GAS  /tmp/cceMHqfo.s 			page 32


 1768 0009 1B       		.uleb128 0x1b
 1769 000a 0E       		.uleb128 0xe
 1770 000b 55       		.uleb128 0x55
 1771 000c 17       		.uleb128 0x17
 1772 000d 11       		.uleb128 0x11
 1773 000e 01       		.uleb128 0x1
 1774 000f 10       		.uleb128 0x10
 1775 0010 17       		.uleb128 0x17
 1776 0011 00       		.byte	0
 1777 0012 00       		.byte	0
 1778 0013 02       		.uleb128 0x2
 1779 0014 24       		.uleb128 0x24
 1780 0015 00       		.byte	0
 1781 0016 0B       		.uleb128 0xb
 1782 0017 0B       		.uleb128 0xb
 1783 0018 3E       		.uleb128 0x3e
 1784 0019 0B       		.uleb128 0xb
 1785 001a 03       		.uleb128 0x3
 1786 001b 08       		.uleb128 0x8
 1787 001c 00       		.byte	0
 1788 001d 00       		.byte	0
 1789 001e 03       		.uleb128 0x3
 1790 001f 24       		.uleb128 0x24
 1791 0020 00       		.byte	0
 1792 0021 0B       		.uleb128 0xb
 1793 0022 0B       		.uleb128 0xb
 1794 0023 3E       		.uleb128 0x3e
 1795 0024 0B       		.uleb128 0xb
 1796 0025 03       		.uleb128 0x3
 1797 0026 0E       		.uleb128 0xe
 1798 0027 00       		.byte	0
 1799 0028 00       		.byte	0
 1800 0029 04       		.uleb128 0x4
 1801 002a 16       		.uleb128 0x16
 1802 002b 00       		.byte	0
 1803 002c 03       		.uleb128 0x3
 1804 002d 0E       		.uleb128 0xe
 1805 002e 3A       		.uleb128 0x3a
 1806 002f 0B       		.uleb128 0xb
 1807 0030 3B       		.uleb128 0x3b
 1808 0031 0B       		.uleb128 0xb
 1809 0032 49       		.uleb128 0x49
 1810 0033 13       		.uleb128 0x13
 1811 0034 00       		.byte	0
 1812 0035 00       		.byte	0
 1813 0036 05       		.uleb128 0x5
 1814 0037 13       		.uleb128 0x13
 1815 0038 01       		.byte	0x1
 1816 0039 03       		.uleb128 0x3
 1817 003a 0E       		.uleb128 0xe
 1818 003b 0B       		.uleb128 0xb
 1819 003c 0B       		.uleb128 0xb
 1820 003d 3A       		.uleb128 0x3a
 1821 003e 0B       		.uleb128 0xb
 1822 003f 3B       		.uleb128 0x3b
 1823 0040 0B       		.uleb128 0xb
 1824 0041 01       		.uleb128 0x1
ARM GAS  /tmp/cceMHqfo.s 			page 33


 1825 0042 13       		.uleb128 0x13
 1826 0043 00       		.byte	0
 1827 0044 00       		.byte	0
 1828 0045 06       		.uleb128 0x6
 1829 0046 0D       		.uleb128 0xd
 1830 0047 00       		.byte	0
 1831 0048 03       		.uleb128 0x3
 1832 0049 0E       		.uleb128 0xe
 1833 004a 3A       		.uleb128 0x3a
 1834 004b 0B       		.uleb128 0xb
 1835 004c 3B       		.uleb128 0x3b
 1836 004d 0B       		.uleb128 0xb
 1837 004e 49       		.uleb128 0x49
 1838 004f 13       		.uleb128 0x13
 1839 0050 38       		.uleb128 0x38
 1840 0051 0B       		.uleb128 0xb
 1841 0052 00       		.byte	0
 1842 0053 00       		.byte	0
 1843 0054 07       		.uleb128 0x7
 1844 0055 0D       		.uleb128 0xd
 1845 0056 00       		.byte	0
 1846 0057 03       		.uleb128 0x3
 1847 0058 08       		.uleb128 0x8
 1848 0059 3A       		.uleb128 0x3a
 1849 005a 0B       		.uleb128 0xb
 1850 005b 3B       		.uleb128 0x3b
 1851 005c 0B       		.uleb128 0xb
 1852 005d 49       		.uleb128 0x49
 1853 005e 13       		.uleb128 0x13
 1854 005f 38       		.uleb128 0x38
 1855 0060 0B       		.uleb128 0xb
 1856 0061 00       		.byte	0
 1857 0062 00       		.byte	0
 1858 0063 08       		.uleb128 0x8
 1859 0064 0D       		.uleb128 0xd
 1860 0065 00       		.byte	0
 1861 0066 03       		.uleb128 0x3
 1862 0067 08       		.uleb128 0x8
 1863 0068 3A       		.uleb128 0x3a
 1864 0069 0B       		.uleb128 0xb
 1865 006a 3B       		.uleb128 0x3b
 1866 006b 05       		.uleb128 0x5
 1867 006c 49       		.uleb128 0x49
 1868 006d 13       		.uleb128 0x13
 1869 006e 38       		.uleb128 0x38
 1870 006f 0B       		.uleb128 0xb
 1871 0070 00       		.byte	0
 1872 0071 00       		.byte	0
 1873 0072 09       		.uleb128 0x9
 1874 0073 0D       		.uleb128 0xd
 1875 0074 00       		.byte	0
 1876 0075 03       		.uleb128 0x3
 1877 0076 0E       		.uleb128 0xe
 1878 0077 3A       		.uleb128 0x3a
 1879 0078 0B       		.uleb128 0xb
 1880 0079 3B       		.uleb128 0x3b
 1881 007a 05       		.uleb128 0x5
ARM GAS  /tmp/cceMHqfo.s 			page 34


 1882 007b 49       		.uleb128 0x49
 1883 007c 13       		.uleb128 0x13
 1884 007d 38       		.uleb128 0x38
 1885 007e 0B       		.uleb128 0xb
 1886 007f 00       		.byte	0
 1887 0080 00       		.byte	0
 1888 0081 0A       		.uleb128 0xa
 1889 0082 0F       		.uleb128 0xf
 1890 0083 00       		.byte	0
 1891 0084 0B       		.uleb128 0xb
 1892 0085 0B       		.uleb128 0xb
 1893 0086 49       		.uleb128 0x49
 1894 0087 13       		.uleb128 0x13
 1895 0088 00       		.byte	0
 1896 0089 00       		.byte	0
 1897 008a 0B       		.uleb128 0xb
 1898 008b 13       		.uleb128 0x13
 1899 008c 01       		.byte	0x1
 1900 008d 03       		.uleb128 0x3
 1901 008e 0E       		.uleb128 0xe
 1902 008f 0B       		.uleb128 0xb
 1903 0090 0B       		.uleb128 0xb
 1904 0091 3A       		.uleb128 0x3a
 1905 0092 0B       		.uleb128 0xb
 1906 0093 3B       		.uleb128 0x3b
 1907 0094 05       		.uleb128 0x5
 1908 0095 01       		.uleb128 0x1
 1909 0096 13       		.uleb128 0x13
 1910 0097 00       		.byte	0
 1911 0098 00       		.byte	0
 1912 0099 0C       		.uleb128 0xc
 1913 009a 15       		.uleb128 0x15
 1914 009b 01       		.byte	0x1
 1915 009c 27       		.uleb128 0x27
 1916 009d 19       		.uleb128 0x19
 1917 009e 01       		.uleb128 0x1
 1918 009f 13       		.uleb128 0x13
 1919 00a0 00       		.byte	0
 1920 00a1 00       		.byte	0
 1921 00a2 0D       		.uleb128 0xd
 1922 00a3 05       		.uleb128 0x5
 1923 00a4 00       		.byte	0
 1924 00a5 49       		.uleb128 0x49
 1925 00a6 13       		.uleb128 0x13
 1926 00a7 00       		.byte	0
 1927 00a8 00       		.byte	0
 1928 00a9 0E       		.uleb128 0xe
 1929 00aa 0F       		.uleb128 0xf
 1930 00ab 00       		.byte	0
 1931 00ac 0B       		.uleb128 0xb
 1932 00ad 0B       		.uleb128 0xb
 1933 00ae 00       		.byte	0
 1934 00af 00       		.byte	0
 1935 00b0 0F       		.uleb128 0xf
 1936 00b1 35       		.uleb128 0x35
 1937 00b2 00       		.byte	0
 1938 00b3 49       		.uleb128 0x49
ARM GAS  /tmp/cceMHqfo.s 			page 35


 1939 00b4 13       		.uleb128 0x13
 1940 00b5 00       		.byte	0
 1941 00b6 00       		.byte	0
 1942 00b7 10       		.uleb128 0x10
 1943 00b8 01       		.uleb128 0x1
 1944 00b9 01       		.byte	0x1
 1945 00ba 49       		.uleb128 0x49
 1946 00bb 13       		.uleb128 0x13
 1947 00bc 01       		.uleb128 0x1
 1948 00bd 13       		.uleb128 0x13
 1949 00be 00       		.byte	0
 1950 00bf 00       		.byte	0
 1951 00c0 11       		.uleb128 0x11
 1952 00c1 21       		.uleb128 0x21
 1953 00c2 00       		.byte	0
 1954 00c3 49       		.uleb128 0x49
 1955 00c4 13       		.uleb128 0x13
 1956 00c5 2F       		.uleb128 0x2f
 1957 00c6 0B       		.uleb128 0xb
 1958 00c7 00       		.byte	0
 1959 00c8 00       		.byte	0
 1960 00c9 12       		.uleb128 0x12
 1961 00ca 13       		.uleb128 0x13
 1962 00cb 01       		.byte	0x1
 1963 00cc 0B       		.uleb128 0xb
 1964 00cd 0B       		.uleb128 0xb
 1965 00ce 3A       		.uleb128 0x3a
 1966 00cf 0B       		.uleb128 0xb
 1967 00d0 3B       		.uleb128 0x3b
 1968 00d1 05       		.uleb128 0x5
 1969 00d2 01       		.uleb128 0x1
 1970 00d3 13       		.uleb128 0x13
 1971 00d4 00       		.byte	0
 1972 00d5 00       		.byte	0
 1973 00d6 13       		.uleb128 0x13
 1974 00d7 16       		.uleb128 0x16
 1975 00d8 00       		.byte	0
 1976 00d9 03       		.uleb128 0x3
 1977 00da 0E       		.uleb128 0xe
 1978 00db 3A       		.uleb128 0x3a
 1979 00dc 0B       		.uleb128 0xb
 1980 00dd 3B       		.uleb128 0x3b
 1981 00de 05       		.uleb128 0x5
 1982 00df 49       		.uleb128 0x49
 1983 00e0 13       		.uleb128 0x13
 1984 00e1 00       		.byte	0
 1985 00e2 00       		.byte	0
 1986 00e3 14       		.uleb128 0x14
 1987 00e4 13       		.uleb128 0x13
 1988 00e5 01       		.byte	0x1
 1989 00e6 0B       		.uleb128 0xb
 1990 00e7 0B       		.uleb128 0xb
 1991 00e8 3A       		.uleb128 0x3a
 1992 00e9 0B       		.uleb128 0xb
 1993 00ea 3B       		.uleb128 0x3b
 1994 00eb 0B       		.uleb128 0xb
 1995 00ec 01       		.uleb128 0x1
ARM GAS  /tmp/cceMHqfo.s 			page 36


 1996 00ed 13       		.uleb128 0x13
 1997 00ee 00       		.byte	0
 1998 00ef 00       		.byte	0
 1999 00f0 15       		.uleb128 0x15
 2000 00f1 17       		.uleb128 0x17
 2001 00f2 01       		.byte	0x1
 2002 00f3 0B       		.uleb128 0xb
 2003 00f4 0B       		.uleb128 0xb
 2004 00f5 3A       		.uleb128 0x3a
 2005 00f6 0B       		.uleb128 0xb
 2006 00f7 3B       		.uleb128 0x3b
 2007 00f8 0B       		.uleb128 0xb
 2008 00f9 01       		.uleb128 0x1
 2009 00fa 13       		.uleb128 0x13
 2010 00fb 00       		.byte	0
 2011 00fc 00       		.byte	0
 2012 00fd 16       		.uleb128 0x16
 2013 00fe 0D       		.uleb128 0xd
 2014 00ff 00       		.byte	0
 2015 0100 03       		.uleb128 0x3
 2016 0101 0E       		.uleb128 0xe
 2017 0102 3A       		.uleb128 0x3a
 2018 0103 0B       		.uleb128 0xb
 2019 0104 3B       		.uleb128 0x3b
 2020 0105 0B       		.uleb128 0xb
 2021 0106 49       		.uleb128 0x49
 2022 0107 13       		.uleb128 0x13
 2023 0108 00       		.byte	0
 2024 0109 00       		.byte	0
 2025 010a 17       		.uleb128 0x17
 2026 010b 0D       		.uleb128 0xd
 2027 010c 00       		.byte	0
 2028 010d 03       		.uleb128 0x3
 2029 010e 0E       		.uleb128 0xe
 2030 010f 3A       		.uleb128 0x3a
 2031 0110 0B       		.uleb128 0xb
 2032 0111 3B       		.uleb128 0x3b
 2033 0112 05       		.uleb128 0x5
 2034 0113 49       		.uleb128 0x49
 2035 0114 13       		.uleb128 0x13
 2036 0115 00       		.byte	0
 2037 0116 00       		.byte	0
 2038 0117 18       		.uleb128 0x18
 2039 0118 26       		.uleb128 0x26
 2040 0119 00       		.byte	0
 2041 011a 49       		.uleb128 0x49
 2042 011b 13       		.uleb128 0x13
 2043 011c 00       		.byte	0
 2044 011d 00       		.byte	0
 2045 011e 19       		.uleb128 0x19
 2046 011f 2E       		.uleb128 0x2e
 2047 0120 01       		.byte	0x1
 2048 0121 03       		.uleb128 0x3
 2049 0122 0E       		.uleb128 0xe
 2050 0123 3A       		.uleb128 0x3a
 2051 0124 0B       		.uleb128 0xb
 2052 0125 3B       		.uleb128 0x3b
ARM GAS  /tmp/cceMHqfo.s 			page 37


 2053 0126 05       		.uleb128 0x5
 2054 0127 27       		.uleb128 0x27
 2055 0128 19       		.uleb128 0x19
 2056 0129 20       		.uleb128 0x20
 2057 012a 0B       		.uleb128 0xb
 2058 012b 01       		.uleb128 0x1
 2059 012c 13       		.uleb128 0x13
 2060 012d 00       		.byte	0
 2061 012e 00       		.byte	0
 2062 012f 1A       		.uleb128 0x1a
 2063 0130 05       		.uleb128 0x5
 2064 0131 00       		.byte	0
 2065 0132 03       		.uleb128 0x3
 2066 0133 0E       		.uleb128 0xe
 2067 0134 3A       		.uleb128 0x3a
 2068 0135 0B       		.uleb128 0xb
 2069 0136 3B       		.uleb128 0x3b
 2070 0137 05       		.uleb128 0x5
 2071 0138 49       		.uleb128 0x49
 2072 0139 13       		.uleb128 0x13
 2073 013a 00       		.byte	0
 2074 013b 00       		.byte	0
 2075 013c 1B       		.uleb128 0x1b
 2076 013d 2E       		.uleb128 0x2e
 2077 013e 00       		.byte	0
 2078 013f 03       		.uleb128 0x3
 2079 0140 0E       		.uleb128 0xe
 2080 0141 3A       		.uleb128 0x3a
 2081 0142 0B       		.uleb128 0xb
 2082 0143 3B       		.uleb128 0x3b
 2083 0144 05       		.uleb128 0x5
 2084 0145 27       		.uleb128 0x27
 2085 0146 19       		.uleb128 0x19
 2086 0147 20       		.uleb128 0x20
 2087 0148 0B       		.uleb128 0xb
 2088 0149 00       		.byte	0
 2089 014a 00       		.byte	0
 2090 014b 1C       		.uleb128 0x1c
 2091 014c 2E       		.uleb128 0x2e
 2092 014d 01       		.byte	0x1
 2093 014e 3F       		.uleb128 0x3f
 2094 014f 19       		.uleb128 0x19
 2095 0150 03       		.uleb128 0x3
 2096 0151 0E       		.uleb128 0xe
 2097 0152 3A       		.uleb128 0x3a
 2098 0153 0B       		.uleb128 0xb
 2099 0154 3B       		.uleb128 0x3b
 2100 0155 0B       		.uleb128 0xb
 2101 0156 27       		.uleb128 0x27
 2102 0157 19       		.uleb128 0x19
 2103 0158 11       		.uleb128 0x11
 2104 0159 01       		.uleb128 0x1
 2105 015a 12       		.uleb128 0x12
 2106 015b 06       		.uleb128 0x6
 2107 015c 40       		.uleb128 0x40
 2108 015d 18       		.uleb128 0x18
 2109 015e 9742     		.uleb128 0x2117
ARM GAS  /tmp/cceMHqfo.s 			page 38


 2110 0160 19       		.uleb128 0x19
 2111 0161 01       		.uleb128 0x1
 2112 0162 13       		.uleb128 0x13
 2113 0163 00       		.byte	0
 2114 0164 00       		.byte	0
 2115 0165 1D       		.uleb128 0x1d
 2116 0166 1D       		.uleb128 0x1d
 2117 0167 01       		.byte	0x1
 2118 0168 31       		.uleb128 0x31
 2119 0169 13       		.uleb128 0x13
 2120 016a 11       		.uleb128 0x11
 2121 016b 01       		.uleb128 0x1
 2122 016c 12       		.uleb128 0x12
 2123 016d 06       		.uleb128 0x6
 2124 016e 58       		.uleb128 0x58
 2125 016f 0B       		.uleb128 0xb
 2126 0170 59       		.uleb128 0x59
 2127 0171 05       		.uleb128 0x5
 2128 0172 01       		.uleb128 0x1
 2129 0173 13       		.uleb128 0x13
 2130 0174 00       		.byte	0
 2131 0175 00       		.byte	0
 2132 0176 1E       		.uleb128 0x1e
 2133 0177 1D       		.uleb128 0x1d
 2134 0178 01       		.byte	0x1
 2135 0179 31       		.uleb128 0x31
 2136 017a 13       		.uleb128 0x13
 2137 017b 11       		.uleb128 0x11
 2138 017c 01       		.uleb128 0x1
 2139 017d 12       		.uleb128 0x12
 2140 017e 06       		.uleb128 0x6
 2141 017f 58       		.uleb128 0x58
 2142 0180 0B       		.uleb128 0xb
 2143 0181 59       		.uleb128 0x59
 2144 0182 05       		.uleb128 0x5
 2145 0183 00       		.byte	0
 2146 0184 00       		.byte	0
 2147 0185 1F       		.uleb128 0x1f
 2148 0186 05       		.uleb128 0x5
 2149 0187 00       		.byte	0
 2150 0188 31       		.uleb128 0x31
 2151 0189 13       		.uleb128 0x13
 2152 018a 02       		.uleb128 0x2
 2153 018b 17       		.uleb128 0x17
 2154 018c 00       		.byte	0
 2155 018d 00       		.byte	0
 2156 018e 20       		.uleb128 0x20
 2157 018f 898201   		.uleb128 0x4109
 2158 0192 00       		.byte	0
 2159 0193 11       		.uleb128 0x11
 2160 0194 01       		.uleb128 0x1
 2161 0195 31       		.uleb128 0x31
 2162 0196 13       		.uleb128 0x13
 2163 0197 00       		.byte	0
 2164 0198 00       		.byte	0
 2165 0199 21       		.uleb128 0x21
 2166 019a 898201   		.uleb128 0x4109
ARM GAS  /tmp/cceMHqfo.s 			page 39


 2167 019d 00       		.byte	0
 2168 019e 11       		.uleb128 0x11
 2169 019f 01       		.uleb128 0x1
 2170 01a0 9542     		.uleb128 0x2115
 2171 01a2 19       		.uleb128 0x19
 2172 01a3 31       		.uleb128 0x31
 2173 01a4 13       		.uleb128 0x13
 2174 01a5 00       		.byte	0
 2175 01a6 00       		.byte	0
 2176 01a7 22       		.uleb128 0x22
 2177 01a8 2E       		.uleb128 0x2e
 2178 01a9 01       		.byte	0x1
 2179 01aa 3F       		.uleb128 0x3f
 2180 01ab 19       		.uleb128 0x19
 2181 01ac 03       		.uleb128 0x3
 2182 01ad 0E       		.uleb128 0xe
 2183 01ae 3A       		.uleb128 0x3a
 2184 01af 0B       		.uleb128 0xb
 2185 01b0 3B       		.uleb128 0x3b
 2186 01b1 05       		.uleb128 0x5
 2187 01b2 27       		.uleb128 0x27
 2188 01b3 19       		.uleb128 0x19
 2189 01b4 11       		.uleb128 0x11
 2190 01b5 01       		.uleb128 0x1
 2191 01b6 12       		.uleb128 0x12
 2192 01b7 06       		.uleb128 0x6
 2193 01b8 40       		.uleb128 0x40
 2194 01b9 18       		.uleb128 0x18
 2195 01ba 9742     		.uleb128 0x2117
 2196 01bc 19       		.uleb128 0x19
 2197 01bd 01       		.uleb128 0x1
 2198 01be 13       		.uleb128 0x13
 2199 01bf 00       		.byte	0
 2200 01c0 00       		.byte	0
 2201 01c1 23       		.uleb128 0x23
 2202 01c2 898201   		.uleb128 0x4109
 2203 01c5 01       		.byte	0x1
 2204 01c6 11       		.uleb128 0x11
 2205 01c7 01       		.uleb128 0x1
 2206 01c8 9542     		.uleb128 0x2115
 2207 01ca 19       		.uleb128 0x19
 2208 01cb 31       		.uleb128 0x31
 2209 01cc 13       		.uleb128 0x13
 2210 01cd 00       		.byte	0
 2211 01ce 00       		.byte	0
 2212 01cf 24       		.uleb128 0x24
 2213 01d0 8A8201   		.uleb128 0x410a
 2214 01d3 00       		.byte	0
 2215 01d4 02       		.uleb128 0x2
 2216 01d5 18       		.uleb128 0x18
 2217 01d6 9142     		.uleb128 0x2111
 2218 01d8 18       		.uleb128 0x18
 2219 01d9 00       		.byte	0
 2220 01da 00       		.byte	0
 2221 01db 25       		.uleb128 0x25
 2222 01dc 34       		.uleb128 0x34
 2223 01dd 00       		.byte	0
ARM GAS  /tmp/cceMHqfo.s 			page 40


 2224 01de 03       		.uleb128 0x3
 2225 01df 0E       		.uleb128 0xe
 2226 01e0 3A       		.uleb128 0x3a
 2227 01e1 0B       		.uleb128 0xb
 2228 01e2 3B       		.uleb128 0x3b
 2229 01e3 05       		.uleb128 0x5
 2230 01e4 49       		.uleb128 0x49
 2231 01e5 13       		.uleb128 0x13
 2232 01e6 3F       		.uleb128 0x3f
 2233 01e7 19       		.uleb128 0x19
 2234 01e8 3C       		.uleb128 0x3c
 2235 01e9 19       		.uleb128 0x19
 2236 01ea 00       		.byte	0
 2237 01eb 00       		.byte	0
 2238 01ec 26       		.uleb128 0x26
 2239 01ed 34       		.uleb128 0x34
 2240 01ee 00       		.byte	0
 2241 01ef 03       		.uleb128 0x3
 2242 01f0 08       		.uleb128 0x8
 2243 01f1 3A       		.uleb128 0x3a
 2244 01f2 0B       		.uleb128 0xb
 2245 01f3 3B       		.uleb128 0x3b
 2246 01f4 05       		.uleb128 0x5
 2247 01f5 49       		.uleb128 0x49
 2248 01f6 13       		.uleb128 0x13
 2249 01f7 3F       		.uleb128 0x3f
 2250 01f8 19       		.uleb128 0x19
 2251 01f9 3C       		.uleb128 0x3c
 2252 01fa 19       		.uleb128 0x19
 2253 01fb 00       		.byte	0
 2254 01fc 00       		.byte	0
 2255 01fd 27       		.uleb128 0x27
 2256 01fe 2E       		.uleb128 0x2e
 2257 01ff 00       		.byte	0
 2258 0200 3F       		.uleb128 0x3f
 2259 0201 19       		.uleb128 0x19
 2260 0202 03       		.uleb128 0x3
 2261 0203 0E       		.uleb128 0xe
 2262 0204 3A       		.uleb128 0x3a
 2263 0205 0B       		.uleb128 0xb
 2264 0206 3B       		.uleb128 0x3b
 2265 0207 0B       		.uleb128 0xb
 2266 0208 27       		.uleb128 0x27
 2267 0209 19       		.uleb128 0x19
 2268 020a 3C       		.uleb128 0x3c
 2269 020b 19       		.uleb128 0x19
 2270 020c 00       		.byte	0
 2271 020d 00       		.byte	0
 2272 020e 28       		.uleb128 0x28
 2273 020f 2E       		.uleb128 0x2e
 2274 0210 00       		.byte	0
 2275 0211 3F       		.uleb128 0x3f
 2276 0212 19       		.uleb128 0x19
 2277 0213 03       		.uleb128 0x3
 2278 0214 0E       		.uleb128 0xe
 2279 0215 3A       		.uleb128 0x3a
 2280 0216 0B       		.uleb128 0xb
ARM GAS  /tmp/cceMHqfo.s 			page 41


 2281 0217 3B       		.uleb128 0x3b
 2282 0218 05       		.uleb128 0x5
 2283 0219 27       		.uleb128 0x27
 2284 021a 19       		.uleb128 0x19
 2285 021b 3C       		.uleb128 0x3c
 2286 021c 19       		.uleb128 0x19
 2287 021d 00       		.byte	0
 2288 021e 00       		.byte	0
 2289 021f 29       		.uleb128 0x29
 2290 0220 2E       		.uleb128 0x2e
 2291 0221 01       		.byte	0x1
 2292 0222 3F       		.uleb128 0x3f
 2293 0223 19       		.uleb128 0x19
 2294 0224 03       		.uleb128 0x3
 2295 0225 0E       		.uleb128 0xe
 2296 0226 3A       		.uleb128 0x3a
 2297 0227 0B       		.uleb128 0xb
 2298 0228 3B       		.uleb128 0x3b
 2299 0229 0B       		.uleb128 0xb
 2300 022a 27       		.uleb128 0x27
 2301 022b 19       		.uleb128 0x19
 2302 022c 3C       		.uleb128 0x3c
 2303 022d 19       		.uleb128 0x19
 2304 022e 00       		.byte	0
 2305 022f 00       		.byte	0
 2306 0230 00       		.byte	0
 2307              		.section	.debug_loc,"",%progbits
 2308              	.Ldebug_loc0:
 2309              	.LLST0:
 2310 0000 12000000 		.4byte	.LVL1
 2311 0004 28000000 		.4byte	.LVL5
 2312 0008 0300     		.2byte	0x3
 2313 000a 08       		.byte	0x8
 2314 000b 20       		.byte	0x20
 2315 000c 9F       		.byte	0x9f
 2316 000d 00000000 		.4byte	0
 2317 0011 00000000 		.4byte	0
 2318              	.LLST1:
 2319 0015 24000000 		.4byte	.LVL4
 2320 0019 28000000 		.4byte	.LVL5
 2321 001d 0200     		.2byte	0x2
 2322 001f 30       		.byte	0x30
 2323 0020 9F       		.byte	0x9f
 2324 0021 00000000 		.4byte	0
 2325 0025 00000000 		.4byte	0
 2326              		.section	.debug_aranges,"",%progbits
 2327 0000 24000000 		.4byte	0x24
 2328 0004 0200     		.2byte	0x2
 2329 0006 00000000 		.4byte	.Ldebug_info0
 2330 000a 04       		.byte	0x4
 2331 000b 00       		.byte	0
 2332 000c 0000     		.2byte	0
 2333 000e 0000     		.2byte	0
 2334 0010 00000000 		.4byte	.LFB323
 2335 0014 34000000 		.4byte	.LFE323-.LFB323
 2336 0018 00000000 		.4byte	.LFB324
 2337 001c 50000000 		.4byte	.LFE324-.LFB324
ARM GAS  /tmp/cceMHqfo.s 			page 42


 2338 0020 00000000 		.4byte	0
 2339 0024 00000000 		.4byte	0
 2340              		.section	.debug_ranges,"",%progbits
 2341              	.Ldebug_ranges0:
 2342 0000 00000000 		.4byte	.LFB323
 2343 0004 34000000 		.4byte	.LFE323
 2344 0008 00000000 		.4byte	.LFB324
 2345 000c 50000000 		.4byte	.LFE324
 2346 0010 00000000 		.4byte	0
 2347 0014 00000000 		.4byte	0
 2348              		.section	.debug_line,"",%progbits
 2349              	.Ldebug_line0:
 2350 0000 2F030000 		.section	.debug_str,"MS",%progbits,1
 2350      0200D302 
 2350      00000201 
 2350      FB0E0D00 
 2350      01010101 
 2351              	.LASF45:
 2352 0000 74687265 		.ascii	"threads_list_t\000"
 2352      6164735F 
 2352      6C697374 
 2352      5F7400
 2353              	.LASF52:
 2354 000f 72656164 		.ascii	"ready_list_t\000"
 2354      795F6C69 
 2354      73745F74 
 2354      00
 2355              	.LASF112:
 2356 001c 44494552 		.ascii	"DIER\000"
 2356      00
 2357              	.LASF136:
 2358 0021 77747472 		.ascii	"wttrp\000"
 2358      7000
 2359              	.LASF48:
 2360 0027 6E657874 		.ascii	"next\000"
 2360      00
 2361              	.LASF58:
 2362 002c 64656C74 		.ascii	"delta\000"
 2362      6100
 2363              	.LASF133:
 2364 0032 7264796D 		.ascii	"rdymsg\000"
 2364      736700
 2365              	.LASF16:
 2366 0039 75696E74 		.ascii	"uint64_t\000"
 2366      36345F74 
 2366      00
 2367              	.LASF71:
 2368 0042 6B65726E 		.ascii	"kernel_stats\000"
 2368      656C5F73 
 2368      74617473 
 2368      00
 2369              	.LASF5:
 2370 004f 5F5F7569 		.ascii	"__uint8_t\000"
 2370      6E74385F 
 2370      7400
 2371              	.LASF51:
 2372 0059 70726576 		.ascii	"prev\000"
ARM GAS  /tmp/cceMHqfo.s 			page 43


 2372      00
 2373              	.LASF110:
 2374 005e 706F7274 		.ascii	"port_intctx\000"
 2374      5F696E74 
 2374      63747800 
 2375              	.LASF50:
 2376 006a 63685F74 		.ascii	"ch_threads_queue\000"
 2376      68726561 
 2376      64735F71 
 2376      75657565 
 2376      00
 2377              	.LASF63:
 2378 007b 73797374 		.ascii	"system_debug_t\000"
 2378      656D5F64 
 2378      65627567 
 2378      5F7400
 2379              	.LASF147:
 2380 008a 706F7274 		.ascii	"port_lock\000"
 2380      5F6C6F63 
 2380      6B00
 2381              	.LASF109:
 2382 0094 706F7274 		.ascii	"port_context\000"
 2382      5F636F6E 
 2382      74657874 
 2382      00
 2383              	.LASF124:
 2384 00a1 776F7273 		.ascii	"worst\000"
 2384      7400
 2385              	.LASF127:
 2386 00a7 74696D65 		.ascii	"time_measurement_t\000"
 2386      5F6D6561 
 2386      73757265 
 2386      6D656E74 
 2386      5F7400
 2387              	.LASF12:
 2388 00ba 6C6F6E67 		.ascii	"long long unsigned int\000"
 2388      206C6F6E 
 2388      6720756E 
 2388      7369676E 
 2388      65642069 
 2389              	.LASF134:
 2390 00d1 65786974 		.ascii	"exitcode\000"
 2390      636F6465 
 2390      00
 2391              	.LASF70:
 2392 00da 6D61696E 		.ascii	"mainthread\000"
 2392      74687265 
 2392      616400
 2393              	.LASF137:
 2394 00e5 73656E74 		.ascii	"sentmsg\000"
 2394      6D736700 
 2395              	.LASF60:
 2396 00ed 76697274 		.ascii	"virtual_timers_list_t\000"
 2396      75616C5F 
 2396      74696D65 
 2396      72735F6C 
 2396      6973745F 
ARM GAS  /tmp/cceMHqfo.s 			page 44


 2397              	.LASF153:
 2398 0103 6F73616C 		.ascii	"osalSysUnlockFromISR\000"
 2398      53797355 
 2398      6E6C6F63 
 2398      6B46726F 
 2398      6D495352 
 2399              	.LASF157:
 2400 0118 73745F6C 		.ascii	"st_lld_init\000"
 2400      6C645F69 
 2400      6E697400 
 2401              	.LASF116:
 2402 0124 42445452 		.ascii	"BDTR\000"
 2402      00
 2403              	.LASF18:
 2404 0129 72747469 		.ascii	"rttime_t\000"
 2404      6D655F74 
 2404      00
 2405              	.LASF95:
 2406 0132 41484231 		.ascii	"AHB1LPENR\000"
 2406      4C50454E 
 2406      5200
 2407              	.LASF169:
 2408 013c 6E766963 		.ascii	"nvicEnableVector\000"
 2408      456E6162 
 2408      6C655665 
 2408      63746F72 
 2408      00
 2409              	.LASF36:
 2410 014d 72656673 		.ascii	"refs\000"
 2410      00
 2411              	.LASF113:
 2412 0152 43434D52 		.ascii	"CCMR1\000"
 2412      3100
 2413              	.LASF114:
 2414 0158 43434D52 		.ascii	"CCMR2\000"
 2414      3200
 2415              	.LASF118:
 2416 015e 43434D52 		.ascii	"CCMR3\000"
 2416      3300
 2417              	.LASF1:
 2418 0164 7369676E 		.ascii	"signed char\000"
 2418      65642063 
 2418      68617200 
 2419              	.LASF81:
 2420 0170 41484231 		.ascii	"AHB1RSTR\000"
 2420      52535452 
 2420      00
 2421              	.LASF168:
 2422 0179 62617365 		.ascii	"basePri\000"
 2422      50726900 
 2423              	.LASF69:
 2424 0181 76746C69 		.ascii	"vtlist\000"
 2424      737400
 2425              	.LASF148:
 2426 0188 706F7274 		.ascii	"port_unlock\000"
 2426      5F756E6C 
 2426      6F636B00 
ARM GAS  /tmp/cceMHqfo.s 			page 45


 2427              	.LASF38:
 2428 0194 6D736771 		.ascii	"msgqueue\000"
 2428      75657565 
 2428      00
 2429              	.LASF34:
 2430 019d 73746174 		.ascii	"state\000"
 2430      6500
 2431              	.LASF67:
 2432 01a3 63685F73 		.ascii	"ch_system\000"
 2432      79737465 
 2432      6D00
 2433              	.LASF7:
 2434 01ad 6C6F6E67 		.ascii	"long int\000"
 2434      20696E74 
 2434      00
 2435              	.LASF86:
 2436 01b6 41504232 		.ascii	"APB2RSTR\000"
 2436      52535452 
 2436      00
 2437              	.LASF99:
 2438 01bf 41504231 		.ascii	"APB1LPENR\000"
 2438      4C50454E 
 2438      5200
 2439              	.LASF20:
 2440 01c9 74737461 		.ascii	"tstate_t\000"
 2440      74655F74 
 2440      00
 2441              	.LASF59:
 2442 01d2 66756E63 		.ascii	"func\000"
 2442      00
 2443              	.LASF43:
 2444 01d7 73746174 		.ascii	"stats\000"
 2444      7300
 2445              	.LASF79:
 2446 01dd 504C4C43 		.ascii	"PLLCFGR\000"
 2446      46475200 
 2447              	.LASF8:
 2448 01e5 5F5F7569 		.ascii	"__uint32_t\000"
 2448      6E743332 
 2448      5F7400
 2449              	.LASF107:
 2450 01f0 72656761 		.ascii	"regarm_t\000"
 2450      726D5F74 
 2450      00
 2451              	.LASF151:
 2452 01f9 6F73616C 		.ascii	"osalSysLockFromISR\000"
 2452      5379734C 
 2452      6F636B46 
 2452      726F6D49 
 2452      535200
 2453              	.LASF64:
 2454 020c 63685F73 		.ascii	"ch_system_debug\000"
 2454      79737465 
 2454      6D5F6465 
 2454      62756700 
 2455              	.LASF37:
 2456 021c 77616974 		.ascii	"waiting\000"
ARM GAS  /tmp/cceMHqfo.s 			page 46


 2456      696E6700 
 2457              	.LASF10:
 2458 0224 6C6F6E67 		.ascii	"long long int\000"
 2458      206C6F6E 
 2458      6720696E 
 2458      7400
 2459              	.LASF73:
 2460 0232 73797369 		.ascii	"sysinterval_t\000"
 2460      6E746572 
 2460      76616C5F 
 2460      7400
 2461              	.LASF25:
 2462 0240 636E745F 		.ascii	"cnt_t\000"
 2462      7400
 2463              	.LASF0:
 2464 0246 756E7369 		.ascii	"unsigned int\000"
 2464      676E6564 
 2464      20696E74 
 2464      00
 2465              	.LASF164:
 2466 0253 474E5520 		.ascii	"GNU C 4.9.3 20150529 (prerelease) -mcpu=cortex-m4 -"
 2466      4320342E 
 2466      392E3320 
 2466      32303135 
 2466      30353239 
 2467 0286 6D666C6F 		.ascii	"mfloat-abi=hard -mfpu=fpv4-sp-d16 -mno-thumb-interw"
 2467      61742D61 
 2467      62693D68 
 2467      61726420 
 2467      2D6D6670 
 2468 02b9 6F726B20 		.ascii	"ork -mthumb -g -Os -fomit-frame-pointer -falign-fun"
 2468      2D6D7468 
 2468      756D6220 
 2468      2D67202D 
 2468      4F73202D 
 2469 02ec 6374696F 		.ascii	"ctions=16 -ffunction-sections -fdata-sections -fno-"
 2469      6E733D31 
 2469      36202D66 
 2469      66756E63 
 2469      74696F6E 
 2470 031f 636F6D6D 		.ascii	"common -fsingle-precision-constant\000"
 2470      6F6E202D 
 2470      6673696E 
 2470      676C652D 
 2470      70726563 
 2471              	.LASF138:
 2472 0342 77747365 		.ascii	"wtsemp\000"
 2472      6D7000
 2473              	.LASF106:
 2474 0349 5243435F 		.ascii	"RCC_TypeDef\000"
 2474      54797065 
 2474      44656600 
 2475              	.LASF125:
 2476 0355 6C617374 		.ascii	"last\000"
 2476      00
 2477              	.LASF128:
 2478 035a 6E5F6972 		.ascii	"n_irq\000"
ARM GAS  /tmp/cceMHqfo.s 			page 47


 2478      7100
 2479              	.LASF28:
 2480 0360 71756575 		.ascii	"queue\000"
 2480      6500
 2481              	.LASF42:
 2482 0366 6D706F6F 		.ascii	"mpool\000"
 2482      6C00
 2483              	.LASF123:
 2484 036c 62657374 		.ascii	"best\000"
 2484      00
 2485              	.LASF111:
 2486 0371 534D4352 		.ascii	"SMCR\000"
 2486      00
 2487              	.LASF132:
 2488 0376 6B65726E 		.ascii	"kernel_stats_t\000"
 2488      656C5F73 
 2488      74617473 
 2488      5F7400
 2489              	.LASF32:
 2490 0385 6E616D65 		.ascii	"name\000"
 2490      00
 2491              	.LASF46:
 2492 038a 63685F74 		.ascii	"ch_thread\000"
 2492      68726561 
 2492      6400
 2493              	.LASF105:
 2494 0394 504C4C49 		.ascii	"PLLI2SCFGR\000"
 2494      32534346 
 2494      475200
 2495              	.LASF23:
 2496 039f 6D73675F 		.ascii	"msg_t\000"
 2496      7400
 2497              	.LASF83:
 2498 03a5 41484233 		.ascii	"AHB3RSTR\000"
 2498      52535452 
 2498      00
 2499              	.LASF26:
 2500 03ae 75636E74 		.ascii	"ucnt_t\000"
 2500      5F7400
 2501              	.LASF39:
 2502 03b5 6570656E 		.ascii	"epending\000"
 2502      64696E67 
 2502      00
 2503              	.LASF77:
 2504 03be 41504232 		.ascii	"APB2FZ\000"
 2504      465A00
 2505              	.LASF163:
 2506 03c5 5F706F72 		.ascii	"_port_irq_epilogue\000"
 2506      745F6972 
 2506      715F6570 
 2506      696C6F67 
 2506      756500
 2507              	.LASF165:
 2508 03d8 2E2E2F2E 		.ascii	"../../modules/ChibiOS/os/hal/ports/STM32/LLD/TIMv1/"
 2508      2E2F6D6F 
 2508      64756C65 
 2508      732F4368 
ARM GAS  /tmp/cceMHqfo.s 			page 48


 2508      6962694F 
 2509 040b 68616C5F 		.ascii	"hal_st_lld.c\000"
 2509      73745F6C 
 2509      6C642E63 
 2509      00
 2510              	.LASF156:
 2511 0418 56656374 		.ascii	"Vector108\000"
 2511      6F723130 
 2511      3800
 2512              	.LASF135:
 2513 0422 77746F62 		.ascii	"wtobjp\000"
 2513      6A7000
 2514              	.LASF100:
 2515 0429 41504232 		.ascii	"APB2LPENR\000"
 2515      4C50454E 
 2515      5200
 2516              	.LASF131:
 2517 0433 6D5F6372 		.ascii	"m_crit_isr\000"
 2517      69745F69 
 2517      737200
 2518              	.LASF53:
 2519 043e 63685F72 		.ascii	"ch_ready_list\000"
 2519      65616479 
 2519      5F6C6973 
 2519      7400
 2520              	.LASF24:
 2521 044c 6576656E 		.ascii	"eventmask_t\000"
 2521      746D6173 
 2521      6B5F7400 
 2522              	.LASF6:
 2523 0458 5F5F696E 		.ascii	"__int32_t\000"
 2523      7433325F 
 2523      7400
 2524              	.LASF159:
 2525 0462 5F737461 		.ascii	"_stats_start_measure_crit_isr\000"
 2525      74735F73 
 2525      74617274 
 2525      5F6D6561 
 2525      73757265 
 2526              	.LASF108:
 2527 0480 73746B61 		.ascii	"stkalign_t\000"
 2527      6C69676E 
 2527      5F7400
 2528              	.LASF152:
 2529 048b 6F73616C 		.ascii	"osalOsTimerHandlerI\000"
 2529      4F735469 
 2529      6D657248 
 2529      616E646C 
 2529      65724900 
 2530              	.LASF30:
 2531 049f 6E657765 		.ascii	"newer\000"
 2531      7200
 2532              	.LASF56:
 2533 04a5 76697274 		.ascii	"virtual_timer_t\000"
 2533      75616C5F 
 2533      74696D65 
 2533      725F7400 
ARM GAS  /tmp/cceMHqfo.s 			page 49


 2534              	.LASF41:
 2535 04b5 7265616C 		.ascii	"realprio\000"
 2535      7072696F 
 2535      00
 2536              	.LASF74:
 2537 04be 73697A65 		.ascii	"sizetype\000"
 2537      74797065 
 2537      00
 2538              	.LASF44:
 2539 04c7 74687265 		.ascii	"thread_reference_t\000"
 2539      61645F72 
 2539      65666572 
 2539      656E6365 
 2539      5F7400
 2540              	.LASF61:
 2541 04da 63685F76 		.ascii	"ch_virtual_timers_list\000"
 2541      69727475 
 2541      616C5F74 
 2541      696D6572 
 2541      735F6C69 
 2542              	.LASF90:
 2543 04f1 41484233 		.ascii	"AHB3ENR\000"
 2543      454E5200 
 2544              	.LASF96:
 2545 04f9 41484232 		.ascii	"AHB2LPENR\000"
 2545      4C50454E 
 2545      5200
 2546              	.LASF122:
 2547 0503 746D5F63 		.ascii	"tm_calibration_t\000"
 2547      616C6962 
 2547      72617469 
 2547      6F6E5F74 
 2547      00
 2548              	.LASF29:
 2549 0514 7072696F 		.ascii	"prio\000"
 2549      00
 2550              	.LASF85:
 2551 0519 41504231 		.ascii	"APB1RSTR\000"
 2551      52535452 
 2551      00
 2552              	.LASF54:
 2553 0522 63757272 		.ascii	"current\000"
 2553      656E7400 
 2554              	.LASF11:
 2555 052a 5F5F7569 		.ascii	"__uint64_t\000"
 2555      6E743634 
 2555      5F7400
 2556              	.LASF126:
 2557 0535 63756D75 		.ascii	"cumulative\000"
 2557      6C617469 
 2557      766500
 2558              	.LASF76:
 2559 0540 41504231 		.ascii	"APB1FZ\000"
 2559      465A00
 2560              	.LASF21:
 2561 0547 74726566 		.ascii	"trefs_t\000"
 2561      735F7400 
ARM GAS  /tmp/cceMHqfo.s 			page 50


 2562              	.LASF84:
 2563 054f 52455345 		.ascii	"RESERVED0\000"
 2563      52564544 
 2563      3000
 2564              	.LASF87:
 2565 0559 52455345 		.ascii	"RESERVED1\000"
 2565      52564544 
 2565      3100
 2566              	.LASF91:
 2567 0563 52455345 		.ascii	"RESERVED2\000"
 2567      52564544 
 2567      3200
 2568              	.LASF94:
 2569 056d 52455345 		.ascii	"RESERVED3\000"
 2569      52564544 
 2569      3300
 2570              	.LASF98:
 2571 0577 52455345 		.ascii	"RESERVED4\000"
 2571      52564544 
 2571      3400
 2572              	.LASF101:
 2573 0581 52455345 		.ascii	"RESERVED5\000"
 2573      52564544 
 2573      3500
 2574              	.LASF103:
 2575 058b 52455345 		.ascii	"RESERVED6\000"
 2575      52564544 
 2575      3600
 2576              	.LASF22:
 2577 0595 74707269 		.ascii	"tprio_t\000"
 2577      6F5F7400 
 2578              	.LASF155:
 2579 059d 63685379 		.ascii	"chSysUnlockFromISR\000"
 2579      73556E6C 
 2579      6F636B46 
 2579      726F6D49 
 2579      535200
 2580              	.LASF129:
 2581 05b0 6E5F6374 		.ascii	"n_ctxswc\000"
 2581      78737763 
 2581      00
 2582              	.LASF146:
 2583 05b9 5F426F6F 		.ascii	"_Bool\000"
 2583      6C00
 2584              	.LASF14:
 2585 05bf 696E7433 		.ascii	"int32_t\000"
 2585      325F7400 
 2586              	.LASF2:
 2587 05c7 756E7369 		.ascii	"unsigned char\000"
 2587      676E6564 
 2587      20636861 
 2587      7200
 2588              	.LASF75:
 2589 05d5 4944434F 		.ascii	"IDCODE\000"
 2589      444500
 2590              	.LASF66:
 2591 05dc 63685F73 		.ascii	"ch_system_t\000"
ARM GAS  /tmp/cceMHqfo.s 			page 51


 2591      79737465 
 2591      6D5F7400 
 2592              	.LASF158:
 2593 05e8 49544D5F 		.ascii	"ITM_RxBuffer\000"
 2593      52784275 
 2593      66666572 
 2593      00
 2594              	.LASF3:
 2595 05f5 73686F72 		.ascii	"short int\000"
 2595      7420696E 
 2595      7400
 2596              	.LASF62:
 2597 05ff 6C617374 		.ascii	"lasttime\000"
 2597      74696D65 
 2597      00
 2598              	.LASF97:
 2599 0608 41484233 		.ascii	"AHB3LPENR\000"
 2599      4C50454E 
 2599      5200
 2600              	.LASF140:
 2601 0612 65776D61 		.ascii	"ewmask\000"
 2601      736B00
 2602              	.LASF93:
 2603 0619 41504232 		.ascii	"APB2ENR\000"
 2603      454E5200 
 2604              	.LASF57:
 2605 0621 63685F76 		.ascii	"ch_virtual_timer\000"
 2605      69727475 
 2605      616C5F74 
 2605      696D6572 
 2605      00
 2606              	.LASF141:
 2607 0632 63685F73 		.ascii	"ch_semaphore\000"
 2607      656D6170 
 2607      686F7265 
 2607      00
 2608              	.LASF119:
 2609 063f 43435852 		.ascii	"CCXR\000"
 2609      00
 2610              	.LASF78:
 2611 0644 4442474D 		.ascii	"DBGMCU_TypeDef\000"
 2611      43555F54 
 2611      79706544 
 2611      656600
 2612              	.LASF15:
 2613 0653 75696E74 		.ascii	"uint32_t\000"
 2613      33325F74 
 2613      00
 2614              	.LASF162:
 2615 065c 5F737461 		.ascii	"_stats_increase_irq\000"
 2615      74735F69 
 2615      6E637265 
 2615      6173655F 
 2615      69727100 
 2616              	.LASF47:
 2617 0670 63685F74 		.ascii	"ch_threads_list\000"
 2617      68726561 
ARM GAS  /tmp/cceMHqfo.s 			page 52


 2617      64735F6C 
 2617      69737400 
 2618              	.LASF143:
 2619 0680 6F776E65 		.ascii	"owner\000"
 2619      7200
 2620              	.LASF9:
 2621 0686 6C6F6E67 		.ascii	"long unsigned int\000"
 2621      20756E73 
 2621      69676E65 
 2621      6420696E 
 2621      7400
 2622              	.LASF33:
 2623 0698 77616261 		.ascii	"wabase\000"
 2623      736500
 2624              	.LASF144:
 2625 069f 63686172 		.ascii	"char\000"
 2625      00
 2626              	.LASF31:
 2627 06a4 6F6C6465 		.ascii	"older\000"
 2627      7200
 2628              	.LASF139:
 2629 06aa 77746D74 		.ascii	"wtmtxp\000"
 2629      787000
 2630              	.LASF117:
 2631 06b1 444D4152 		.ascii	"DMAR\000"
 2631      00
 2632              	.LASF82:
 2633 06b6 41484232 		.ascii	"AHB2RSTR\000"
 2633      52535452 
 2633      00
 2634              	.LASF150:
 2635 06bf 706F7274 		.ascii	"port_unlock_from_isr\000"
 2635      5F756E6C 
 2635      6F636B5F 
 2635      66726F6D 
 2635      5F697372 
 2636              	.LASF27:
 2637 06d4 74687265 		.ascii	"thread_t\000"
 2637      61645F74 
 2637      00
 2638              	.LASF115:
 2639 06dd 43434552 		.ascii	"CCER\000"
 2639      00
 2640              	.LASF72:
 2641 06e2 73797374 		.ascii	"systime_t\000"
 2641      696D655F 
 2641      7400
 2642              	.LASF160:
 2643 06ec 63685379 		.ascii	"chSysTimerHandlerI\000"
 2643      7354696D 
 2643      65724861 
 2643      6E646C65 
 2643      724900
 2644              	.LASF55:
 2645 06ff 76746675 		.ascii	"vtfunc_t\000"
 2645      6E635F74 
 2645      00
ARM GAS  /tmp/cceMHqfo.s 			page 53


 2646              	.LASF167:
 2647 0708 5F5F7365 		.ascii	"__set_BASEPRI\000"
 2647      745F4241 
 2647      53455052 
 2647      4900
 2648              	.LASF65:
 2649 0716 70616E69 		.ascii	"panic_msg\000"
 2649      635F6D73 
 2649      6700
 2650              	.LASF121:
 2651 0720 6F666673 		.ascii	"offset\000"
 2651      657400
 2652              	.LASF92:
 2653 0727 41504231 		.ascii	"APB1ENR\000"
 2653      454E5200 
 2654              	.LASF142:
 2655 072f 63685F6D 		.ascii	"ch_mutex\000"
 2655      75746578 
 2655      00
 2656              	.LASF89:
 2657 0738 41484232 		.ascii	"AHB2ENR\000"
 2657      454E5200 
 2658              	.LASF4:
 2659 0740 73686F72 		.ascii	"short unsigned int\000"
 2659      7420756E 
 2659      7369676E 
 2659      65642069 
 2659      6E7400
 2660              	.LASF166:
 2661 0753 2F686F6D 		.ascii	"/home/kozinalexey/f4by/ardupilot/build/F4BY\000"
 2661      652F6B6F 
 2661      7A696E61 
 2661      6C657865 
 2661      792F6634 
 2662              	.LASF17:
 2663 077f 7274636E 		.ascii	"rtcnt_t\000"
 2663      745F7400 
 2664              	.LASF149:
 2665 0787 706F7274 		.ascii	"port_lock_from_isr\000"
 2665      5F6C6F63 
 2665      6B5F6672 
 2665      6F6D5F69 
 2665      737200
 2666              	.LASF104:
 2667 079a 53534347 		.ascii	"SSCGR\000"
 2667      5200
 2668              	.LASF49:
 2669 07a0 74687265 		.ascii	"threads_queue_t\000"
 2669      6164735F 
 2669      71756575 
 2669      655F7400 
 2670              	.LASF120:
 2671 07b0 73746D33 		.ascii	"stm32_tim_t\000"
 2671      325F7469 
 2671      6D5F7400 
 2672              	.LASF102:
 2673 07bc 42444352 		.ascii	"BDCR\000"
ARM GAS  /tmp/cceMHqfo.s 			page 54


 2673      00
 2674              	.LASF68:
 2675 07c1 726C6973 		.ascii	"rlist\000"
 2675      7400
 2676              	.LASF13:
 2677 07c7 75696E74 		.ascii	"uint8_t\000"
 2677      385F7400 
 2678              	.LASF35:
 2679 07cf 666C6167 		.ascii	"flags\000"
 2679      7300
 2680              	.LASF154:
 2681 07d5 63685379 		.ascii	"chSysLockFromISR\000"
 2681      734C6F63 
 2681      6B46726F 
 2681      6D495352 
 2681      00
 2682              	.LASF88:
 2683 07e6 41484231 		.ascii	"AHB1ENR\000"
 2683      454E5200 
 2684              	.LASF80:
 2685 07ee 43464752 		.ascii	"CFGR\000"
 2685      00
 2686              	.LASF19:
 2687 07f3 746D6F64 		.ascii	"tmode_t\000"
 2687      655F7400 
 2688              	.LASF161:
 2689 07fb 5F737461 		.ascii	"_stats_stop_measure_crit_isr\000"
 2689      74735F73 
 2689      746F705F 
 2689      6D656173 
 2689      7572655F 
 2690              	.LASF40:
 2691 0818 6D74786C 		.ascii	"mtxlist\000"
 2691      69737400 
 2692              	.LASF145:
 2693 0820 6D757465 		.ascii	"mutex_t\000"
 2693      785F7400 
 2694              	.LASF130:
 2695 0828 6D5F6372 		.ascii	"m_crit_thd\000"
 2695      69745F74 
 2695      686400
 2696              		.ident	"GCC: (15:4.9.3+svn231177-1) 4.9.3 20150529 (prerelease)"
ARM GAS  /tmp/cceMHqfo.s 			page 55


DEFINED SYMBOLS
                            *ABS*:0000000000000000 hal_st_lld.c
     /tmp/cceMHqfo.s:21     .text.Vector108:0000000000000000 $t
     /tmp/cceMHqfo.s:26     .text.Vector108:0000000000000000 Vector108
     /tmp/cceMHqfo.s:117    .text.Vector108:0000000000000030 $d
     /tmp/cceMHqfo.s:122    .text.st_lld_init:0000000000000000 $t
     /tmp/cceMHqfo.s:127    .text.st_lld_init:0000000000000000 st_lld_init
     /tmp/cceMHqfo.s:180    .text.st_lld_init:0000000000000044 $d
                     .debug_frame:0000000000000010 $d

UNDEFINED SYMBOLS
_stats_increase_irq
_stats_start_measure_crit_isr
chSysTimerHandlerI
_stats_stop_measure_crit_isr
_port_irq_epilogue
nvicEnableVector
