ARM GAS  /tmp/cckYQ7vZ.s 			page 1


   1              		.syntax unified
   2              		.cpu cortex-m4
   3              		.eabi_attribute 27, 1
   4              		.eabi_attribute 28, 1
   5              		.fpu fpv4-sp-d16
   6              		.eabi_attribute 20, 1
   7              		.eabi_attribute 21, 1
   8              		.eabi_attribute 23, 3
   9              		.eabi_attribute 24, 1
  10              		.eabi_attribute 25, 1
  11              		.eabi_attribute 26, 1
  12              		.eabi_attribute 30, 4
  13              		.eabi_attribute 34, 1
  14              		.eabi_attribute 18, 4
  15              		.thumb
  16              		.file	"hal_st.c"
  17              		.text
  18              	.Ltext0:
  19              		.cfi_sections	.debug_frame
  20              		.section	.text.stInit,"ax",%progbits
  21              		.align	1
  22              		.global	stInit
  23              		.thumb
  24              		.thumb_func
  25              		.type	stInit, %function
  26              	stInit:
  27              	.LFB323:
  28              		.file 1 "../../modules/ChibiOS/os/hal/src/hal_st.c"
  29              		.loc 1 60 0
  30              		.cfi_startproc
  31              		@ args = 0, pretend = 0, frame = 0
  32              		@ frame_needed = 0, uses_anonymous_args = 0
  33              		@ link register save eliminated.
  34              		.loc 1 62 0
  35 0000 FFF7FEBF 		b	st_lld_init
  36              	.LVL0:
  37              		.cfi_endproc
  38              	.LFE323:
  39              		.size	stInit, .-stInit
  40              		.section	.text.stStartAlarm,"ax",%progbits
  41              		.align	1
  42              		.global	stStartAlarm
  43              		.thumb
  44              		.thumb_func
  45              		.type	stStartAlarm, %function
  46              	stStartAlarm:
  47              	.LFB324:
  48              		.loc 1 77 0
  49              		.cfi_startproc
  50              		@ args = 0, pretend = 0, frame = 0
  51              		@ frame_needed = 0, uses_anonymous_args = 0
  52              		@ link register save eliminated.
  53              	.LVL1:
  54              	.LBB10:
  55              	.LBB11:
  56              		.file 2 "../../modules/ChibiOS/os/hal/ports/STM32/LLD/TIMv1/hal_st_lld.h"
  57              		.loc 2 161 0
ARM GAS  /tmp/cckYQ7vZ.s 			page 2


  58 0000 034B     		ldr	r3, .L3
  59              		.loc 2 162 0
  60 0002 0022     		movs	r2, #0
  61              		.loc 2 161 0
  62 0004 5863     		str	r0, [r3, #52]
  63              		.loc 2 162 0
  64 0006 1A61     		str	r2, [r3, #16]
  65              		.loc 2 163 0
  66 0008 0222     		movs	r2, #2
  67 000a DA60     		str	r2, [r3, #12]
  68 000c 7047     		bx	lr
  69              	.L4:
  70 000e 00BF     		.align	2
  71              	.L3:
  72 0010 000C0040 		.word	1073744896
  73              	.LBE11:
  74              	.LBE10:
  75              		.cfi_endproc
  76              	.LFE324:
  77              		.size	stStartAlarm, .-stStartAlarm
  78              		.section	.text.stStopAlarm,"ax",%progbits
  79              		.align	1
  80              		.global	stStopAlarm
  81              		.thumb
  82              		.thumb_func
  83              		.type	stStopAlarm, %function
  84              	stStopAlarm:
  85              	.LFB325:
  86              		.loc 1 91 0
  87              		.cfi_startproc
  88              		@ args = 0, pretend = 0, frame = 0
  89              		@ frame_needed = 0, uses_anonymous_args = 0
  90              		@ link register save eliminated.
  91              	.LBB12:
  92              	.LBB13:
  93              		.loc 2 173 0
  94 0000 014B     		ldr	r3, .L6
  95 0002 0022     		movs	r2, #0
  96 0004 DA60     		str	r2, [r3, #12]
  97 0006 7047     		bx	lr
  98              	.L7:
  99              		.align	2
 100              	.L6:
 101 0008 000C0040 		.word	1073744896
 102              	.LBE13:
 103              	.LBE12:
 104              		.cfi_endproc
 105              	.LFE325:
 106              		.size	stStopAlarm, .-stStopAlarm
 107              		.section	.text.stSetAlarm,"ax",%progbits
 108              		.align	1
 109              		.global	stSetAlarm
 110              		.thumb
 111              		.thumb_func
 112              		.type	stSetAlarm, %function
 113              	stSetAlarm:
 114              	.LFB326:
ARM GAS  /tmp/cckYQ7vZ.s 			page 3


 115              		.loc 1 105 0
 116              		.cfi_startproc
 117              		@ args = 0, pretend = 0, frame = 0
 118              		@ frame_needed = 0, uses_anonymous_args = 0
 119              		@ link register save eliminated.
 120              	.LVL2:
 121              	.LBB14:
 122              	.LBB15:
 123              		.loc 2 185 0
 124 0000 014B     		ldr	r3, .L9
 125 0002 5863     		str	r0, [r3, #52]
 126 0004 7047     		bx	lr
 127              	.L10:
 128 0006 00BF     		.align	2
 129              	.L9:
 130 0008 000C0040 		.word	1073744896
 131              	.LBE15:
 132              	.LBE14:
 133              		.cfi_endproc
 134              	.LFE326:
 135              		.size	stSetAlarm, .-stSetAlarm
 136              		.section	.text.stGetAlarm,"ax",%progbits
 137              		.align	1
 138              		.global	stGetAlarm
 139              		.thumb
 140              		.thumb_func
 141              		.type	stGetAlarm, %function
 142              	stGetAlarm:
 143              	.LFB327:
 144              		.loc 1 121 0
 145              		.cfi_startproc
 146              		@ args = 0, pretend = 0, frame = 0
 147              		@ frame_needed = 0, uses_anonymous_args = 0
 148              		@ link register save eliminated.
 149              	.LBB16:
 150              	.LBB17:
 151              		.loc 2 197 0
 152 0000 014B     		ldr	r3, .L12
 153 0002 586B     		ldr	r0, [r3, #52]
 154              	.LBE17:
 155              	.LBE16:
 156              		.loc 1 126 0
 157 0004 7047     		bx	lr
 158              	.L13:
 159 0006 00BF     		.align	2
 160              	.L12:
 161 0008 000C0040 		.word	1073744896
 162              		.cfi_endproc
 163              	.LFE327:
 164              		.size	stGetAlarm, .-stGetAlarm
 165              		.text
 166              	.Letext0:
 167              		.file 3 "/usr/include/newlib/machine/_default_types.h"
 168              		.file 4 "/usr/include/newlib/sys/_stdint.h"
 169              		.file 5 "../../modules/ChibiOS/os/common/ports/ARMCMx/compilers/GCC/chtypes.h"
 170              		.file 6 "../../modules/ChibiOS/os/rt/include/chsystypes.h"
 171              		.file 7 "../../modules/ChibiOS/os/rt/include/chschd.h"
ARM GAS  /tmp/cckYQ7vZ.s 			page 4


 172              		.file 8 "../../modules/ChibiOS/os/rt/include/chtime.h"
 173              		.file 9 "../../modules/ChibiOS/os/common/ports/ARMCMx/chcore.h"
 174              		.file 10 "../../modules/ChibiOS/os/common/ports/ARMCMx/chcore_v7m.h"
 175              		.file 11 "../../modules/ChibiOS/os/hal/ports/STM32/LLD/TIMv1/stm32_tim.h"
 176              		.file 12 "../../modules/ChibiOS/os/rt/include/chtm.h"
 177              		.file 13 "../../modules/ChibiOS/os/rt/include/chstats.h"
 178              		.file 14 "../../modules/ChibiOS/os/rt/include/chsem.h"
 179              		.file 15 "../../modules/ChibiOS/os/rt/include/chmtx.h"
 180              		.file 16 "../../modules/ChibiOS/os/common/ext/ARM/CMSIS/Core/Include/core_cm4.h"