ARM GAS  /tmp/ccN6R7vU.s 			page 1


   1              		.syntax unified
   2              		.cpu cortex-m4
   3              		.eabi_attribute 27, 1
   4              		.eabi_attribute 28, 1
   5              		.fpu fpv4-sp-d16
   6              		.eabi_attribute 20, 1
   7              		.eabi_attribute 21, 1
   8              		.eabi_attribute 23, 3
   9              		.eabi_attribute 24, 1
  10              		.eabi_attribute 25, 1
  11              		.eabi_attribute 26, 1
  12              		.eabi_attribute 30, 4
  13              		.eabi_attribute 34, 1
  14              		.eabi_attribute 18, 4
  15              		.thumb
  16              		.file	"hal_mmc_spi.c"
  17              		.text
  18              	.Ltext0:
  19              		.cfi_sections	.debug_frame
  20              		.section	.text.mmcGetInfo,"ax",%progbits
  21              		.align	1
  22              		.global	mmcGetInfo
  23              		.thumb
  24              		.thumb_func
  25              		.type	mmcGetInfo, %function
  26              	mmcGetInfo:
  27              	.LFB348:
  28              		.file 1 "../../modules/ChibiOS/os/hal/src/hal_mmc_spi.c"
  29              		.loc 1 887 0
  30              		.cfi_startproc
  31              		@ args = 0, pretend = 0, frame = 0
  32              		@ frame_needed = 0, uses_anonymous_args = 0
  33              		@ link register save eliminated.
  34              	.LVL0:
  35              		.loc 1 891 0
  36 0000 0379     		ldrb	r3, [r0, #4]	@ zero_extendqisi2
  37 0002 052B     		cmp	r3, #5
  38              		.loc 1 895 0
  39 0004 01BF     		itttt	eq
  40 0006 836A     		ldreq	r3, [r0, #40]
  41 0008 4B60     		streq	r3, [r1, #4]
  42              		.loc 1 896 0
  43 000a 4FF40073 		moveq	r3, #512
  44              		.loc 1 898 0
  45 000e 0020     		moveq	r0, #0
  46              	.LVL1:
  47              		.loc 1 896 0
  48 0010 0CBF     		ite	eq
  49 0012 0B60     		streq	r3, [r1]
  50              		.loc 1 892 0
  51 0014 0120     		movne	r0, #1
  52              		.loc 1 899 0
  53 0016 7047     		bx	lr
  54              		.cfi_endproc
  55              	.LFE348:
  56              		.size	mmcGetInfo, .-mmcGetInfo
  57              		.section	.text.recvr1.isra.0,"ax",%progbits
ARM GAS  /tmp/ccN6R7vU.s 			page 2


  58              		.align	1
  59              		.thumb
  60              		.thumb_func
  61              		.type	recvr1.isra.0, %function
  62              	recvr1.isra.0:
  63              	.LFB350:
  64              		.loc 1 269 0
  65              		.cfi_startproc
  66              		@ args = 0, pretend = 0, frame = 8
  67              		@ frame_needed = 0, uses_anonymous_args = 0
  68              	.LVL2:
  69 0000 37B5     		push	{r0, r1, r2, r4, r5, lr}
  70              		.cfi_def_cfa_offset 24
  71              		.cfi_offset 4, -12
  72              		.cfi_offset 5, -8
  73              		.cfi_offset 14, -4
  74              		.loc 1 269 0
  75 0002 0546     		mov	r5, r0
  76 0004 0924     		movs	r4, #9
  77              	.LVL3:
  78              	.L6:
  79              		.loc 1 274 0
  80 0006 2B68     		ldr	r3, [r5]
  81 0008 0121     		movs	r1, #1
  82 000a 1868     		ldr	r0, [r3]
  83 000c 01AA     		add	r2, sp, #4
  84 000e FFF7FEFF 		bl	spiReceiveHook
  85              	.LVL4:
  86              		.loc 1 275 0
  87 0012 9DF80400 		ldrb	r0, [sp, #4]	@ zero_extendqisi2
  88 0016 FF28     		cmp	r0, #255
  89 0018 01D1     		bne	.L5
  90              	.LVL5:
  91              		.loc 1 273 0
  92 001a 013C     		subs	r4, r4, #1
  93              	.LVL6:
  94 001c F3D1     		bne	.L6
  95              	.LVL7:
  96              	.L5:
  97              		.loc 1 280 0
  98 001e 03B0     		add	sp, sp, #12
  99              		.cfi_def_cfa_offset 12
 100              		@ sp needed
 101 0020 30BD     		pop	{r4, r5, pc}
 102              		.cfi_endproc
 103              	.LFE350:
 104              		.size	recvr1.isra.0, .-recvr1.isra.0
 105              		.section	.text.wait.isra.1,"ax",%progbits
 106              		.align	1
 107              		.thumb
 108              		.thumb_func
 109              		.type	wait.isra.1, %function
 110              	wait.isra.1:
 111              	.LFB351:
 112              		.loc 1 181 0
 113              		.cfi_startproc
 114              		@ args = 0, pretend = 0, frame = 8
ARM GAS  /tmp/ccN6R7vU.s 			page 3


 115              		@ frame_needed = 0, uses_anonymous_args = 0
 116              	.LVL8:
 117 0000 37B5     		push	{r0, r1, r2, r4, r5, lr}
 118              		.cfi_def_cfa_offset 24
 119              		.cfi_offset 4, -12
 120              		.cfi_offset 5, -8
 121              		.cfi_offset 14, -4
 122              		.loc 1 181 0
 123 0002 0546     		mov	r5, r0
 124 0004 1024     		movs	r4, #16
 125              	.LVL9:
 126              	.L11:
 127              		.loc 1 186 0
 128 0006 2B68     		ldr	r3, [r5]
 129 0008 0121     		movs	r1, #1
 130 000a 1868     		ldr	r0, [r3]
 131 000c 01AA     		add	r2, sp, #4
 132 000e FFF7FEFF 		bl	spiReceiveHook
 133              	.LVL10:
 134              		.loc 1 187 0
 135 0012 9DF80430 		ldrb	r3, [sp, #4]	@ zero_extendqisi2
 136 0016 FF2B     		cmp	r3, #255
 137 0018 13D0     		beq	.L9
 138              	.LVL11:
 139              		.loc 1 185 0
 140 001a 013C     		subs	r4, r4, #1
 141              	.LVL12:
 142 001c F3D1     		bne	.L11
 143 001e 4FF4FA64 		mov	r4, #2000
 144              	.LVL13:
 145              	.L14:
 146              		.loc 1 193 0
 147 0022 2B68     		ldr	r3, [r5]
 148 0024 0121     		movs	r1, #1
 149 0026 1868     		ldr	r0, [r3]
 150 0028 01AA     		add	r2, sp, #4
 151 002a FFF7FEFF 		bl	spiReceiveHook
 152              	.LVL14:
 153              		.loc 1 194 0
 154 002e 9DF80430 		ldrb	r3, [sp, #4]	@ zero_extendqisi2
 155 0032 FF2B     		cmp	r3, #255
 156 0034 05D0     		beq	.L9
 157              	.LVL15:
 158              	.LBB36:
 159              	.LBB37:
 160              		.file 2 "../../modules/ChibiOS/os/hal/osal/rt/osal.h"
 161              		.loc 2 720 0
 162 0036 4FF4FA70 		mov	r0, #500
 163 003a FFF7FEFF 		bl	chThdSleep
 164              	.LVL16:
 165              	.LBE37:
 166              	.LBE36:
 167              		.loc 1 192 0
 168 003e 013C     		subs	r4, r4, #1
 169              	.LVL17:
 170 0040 EFD1     		bne	.L14
 171              	.LVL18:
ARM GAS  /tmp/ccN6R7vU.s 			page 4


 172              	.L9:
 173              		.loc 1 200 0
 174 0042 03B0     		add	sp, sp, #12
 175              		.cfi_def_cfa_offset 12
 176              		@ sp needed
 177 0044 30BD     		pop	{r4, r5, pc}
 178              		.cfi_endproc
 179              	.LFE351:
 180              		.size	wait.isra.1, .-wait.isra.1
 181              		.section	.text.sync,"ax",%progbits
 182              		.align	1
 183              		.thumb
 184              		.thumb_func
 185              		.type	sync, %function
 186              	sync:
 187              	.LFB334:
 188              		.loc 1 399 0
 189              		.cfi_startproc
 190              		@ args = 0, pretend = 0, frame = 0
 191              		@ frame_needed = 0, uses_anonymous_args = 0
 192              	.LVL19:
 193 0000 38B5     		push	{r3, r4, r5, lr}
 194              		.cfi_def_cfa_offset 16
 195              		.cfi_offset 3, -16
 196              		.cfi_offset 4, -12
 197              		.cfi_offset 5, -8
 198              		.cfi_offset 14, -4
 199              		.loc 1 400 0
 200 0002 0446     		mov	r4, r0
 201              		.loc 1 399 0
 202 0004 0546     		mov	r5, r0
 203              		.loc 1 400 0
 204 0006 54F82C3F 		ldr	r3, [r4, #44]!
 205 000a 1868     		ldr	r0, [r3]
 206              	.LVL20:
 207 000c FFF7FEFF 		bl	spiSelectHook
 208              	.LVL21:
 209              		.loc 1 401 0
 210 0010 2046     		mov	r0, r4
 211 0012 FFF7FEFF 		bl	wait.isra.1
 212              	.LVL22:
 213              		.loc 1 402 0
 214 0016 EB6A     		ldr	r3, [r5, #44]
 215 0018 1868     		ldr	r0, [r3]
 216              		.loc 1 403 0
 217 001a BDE83840 		pop	{r3, r4, r5, lr}
 218              		.cfi_restore 14
 219              		.cfi_restore 5
 220              		.cfi_restore 4
 221              		.cfi_restore 3
 222              		.cfi_def_cfa_offset 0
 223              	.LVL23:
 224              		.loc 1 402 0
 225 001e FFF7FEBF 		b	spiUnselectHook
 226              	.LVL24:
 227              		.cfi_endproc
 228              	.LFE334:
ARM GAS  /tmp/ccN6R7vU.s 			page 5


 229              		.size	sync, .-sync
 230              		.section	.text.mmcSync,"ax",%progbits
 231              		.align	1
 232              		.global	mmcSync
 233              		.thumb
 234              		.thumb_func
 235              		.type	mmcSync, %function
 236              	mmcSync:
 237              	.LFB347:
 238              		.loc 1 856 0
 239              		.cfi_startproc
 240              		@ args = 0, pretend = 0, frame = 0
 241              		@ frame_needed = 0, uses_anonymous_args = 0
 242              	.LVL25:
 243 0000 38B5     		push	{r3, r4, r5, lr}
 244              		.cfi_def_cfa_offset 16
 245              		.cfi_offset 3, -16
 246              		.cfi_offset 4, -12
 247              		.cfi_offset 5, -8
 248              		.cfi_offset 14, -4
 249              		.loc 1 860 0
 250 0002 0579     		ldrb	r5, [r0, #4]	@ zero_extendqisi2
 251 0004 052D     		cmp	r5, #5
 252              		.loc 1 856 0
 253 0006 0446     		mov	r4, r0
 254              		.loc 1 860 0
 255 0008 0CD1     		bne	.L24
 256              	.LVL26:
 257              	.LBB40:
 258              	.LBB41:
 259              		.loc 1 865 0
 260 000a 0823     		movs	r3, #8
 261 000c 0371     		strb	r3, [r0, #4]
 262              		.loc 1 867 0
 263 000e C36A     		ldr	r3, [r0, #44]
 264 0010 1868     		ldr	r0, [r3]
 265              	.LVL27:
 266 0012 9968     		ldr	r1, [r3, #8]
 267 0014 FFF7FEFF 		bl	spiStartHook
 268              	.LVL28:
 269              		.loc 1 868 0
 270 0018 2046     		mov	r0, r4
 271 001a FFF7FEFF 		bl	sync
 272              	.LVL29:
 273              		.loc 1 871 0
 274 001e 2571     		strb	r5, [r4, #4]
 275 0020 0020     		movs	r0, #0
 276 0022 38BD     		pop	{r3, r4, r5, pc}
 277              	.LVL30:
 278              	.L24:
 279              	.LBE41:
 280              	.LBE40:
 281              		.loc 1 861 0
 282 0024 0120     		movs	r0, #1
 283              	.LVL31:
 284              		.loc 1 873 0
 285 0026 38BD     		pop	{r3, r4, r5, pc}
ARM GAS  /tmp/ccN6R7vU.s 			page 6


 286              		.cfi_endproc
 287              	.LFE347:
 288              		.size	mmcSync, .-mmcSync
 289              		.section	.text.wait_nonidle.isra.3,"ax",%progbits
 290              		.align	1
 291              		.thumb
 292              		.thumb_func
 293              		.type	wait_nonidle.isra.3, %function
 294              	wait_nonidle.isra.3:
 295              	.LFB353:
 296              		.loc 1 210 0
 297              		.cfi_startproc
 298              		@ args = 0, pretend = 0, frame = 8
 299              		@ frame_needed = 0, uses_anonymous_args = 0
 300              	.LVL32:
 301 0000 73B5     		push	{r0, r1, r4, r5, r6, lr}
 302              		.cfi_def_cfa_offset 24
 303              		.cfi_offset 4, -16
 304              		.cfi_offset 5, -12
 305              		.cfi_offset 6, -8
 306              		.cfi_offset 14, -4
 307              		.loc 1 210 0
 308 0002 0646     		mov	r6, r0
 309 0004 1025     		movs	r5, #16
 310              	.LVL33:
 311              	.L27:
 312              		.loc 1 215 0
 313 0006 3368     		ldr	r3, [r6]
 314 0008 0121     		movs	r1, #1
 315 000a 1868     		ldr	r0, [r3]
 316 000c 01AA     		add	r2, sp, #4
 317 000e FFF7FEFF 		bl	spiReceiveHook
 318              	.LVL34:
 319              		.loc 1 216 0
 320 0012 9DF80440 		ldrb	r4, [sp, #4]	@ zero_extendqisi2
 321 0016 FF2C     		cmp	r4, #255
 322 0018 12D1     		bne	.L26
 323              	.LVL35:
 324              		.loc 1 214 0
 325 001a 013D     		subs	r5, r5, #1
 326              	.LVL36:
 327 001c F3D1     		bne	.L27
 328 001e 4FF47A65 		mov	r5, #4000
 329              	.LVL37:
 330              	.L28:
 331              		.loc 1 222 0
 332 0022 3368     		ldr	r3, [r6]
 333 0024 0121     		movs	r1, #1
 334 0026 1868     		ldr	r0, [r3]
 335 0028 01AA     		add	r2, sp, #4
 336 002a FFF7FEFF 		bl	spiReceiveHook
 337              	.LVL38:
 338              		.loc 1 223 0
 339 002e 9DF80440 		ldrb	r4, [sp, #4]	@ zero_extendqisi2
 340 0032 FF2C     		cmp	r4, #255
 341 0034 04D1     		bne	.L26
 342              	.LVL39:
ARM GAS  /tmp/ccN6R7vU.s 			page 7


 343              	.LBB42:
 344              	.LBB43:
 345              		.loc 2 720 0
 346 0036 FA20     		movs	r0, #250
 347 0038 FFF7FEFF 		bl	chThdSleep
 348              	.LVL40:
 349              	.LBE43:
 350              	.LBE42:
 351              		.loc 1 221 0
 352 003c 013D     		subs	r5, r5, #1
 353              	.LVL41:
 354 003e F0D1     		bne	.L28
 355              	.LVL42:
 356              	.L26:
 357              		.loc 1 230 0
 358 0040 2046     		mov	r0, r4
 359 0042 02B0     		add	sp, sp, #8
 360              		.cfi_def_cfa_offset 16
 361              		@ sp needed
 362 0044 70BD     		pop	{r4, r5, r6, pc}
 363              		.cfi_endproc
 364              	.LFE353:
 365              		.size	wait_nonidle.isra.3, .-wait_nonidle.isra.3
 366              		.section	.text.send_hdr,"ax",%progbits
 367              		.align	1
 368              		.thumb
 369              		.thumb_func
 370              		.type	send_hdr, %function
 371              	send_hdr:
 372              	.LFB328:
 373              		.loc 1 241 0
 374              		.cfi_startproc
 375              		@ args = 0, pretend = 0, frame = 8
 376              		@ frame_needed = 0, uses_anonymous_args = 0
 377              	.LVL43:
 378 0000 73B5     		push	{r0, r1, r4, r5, r6, lr}
 379              		.cfi_def_cfa_offset 24
 380              		.cfi_offset 4, -16
 381              		.cfi_offset 5, -12
 382              		.cfi_offset 6, -8
 383              		.cfi_offset 14, -4
 384              		.loc 1 241 0
 385 0002 0646     		mov	r6, r0
 386 0004 1446     		mov	r4, r2
 387              		.loc 1 245 0
 388 0006 0D46     		mov	r5, r1
 389 0008 11B1     		cbz	r1, .L32
 390              		.loc 1 246 0
 391 000a 2C30     		adds	r0, r0, #44
 392              	.LVL44:
 393 000c FFF7FEFF 		bl	wait.isra.1
 394              	.LVL45:
 395              	.L32:
 396              		.loc 1 250 0
 397 0010 230E     		lsrs	r3, r4, #24
 398 0012 8DF80130 		strb	r3, [sp, #1]
 399              		.loc 1 251 0
ARM GAS  /tmp/ccN6R7vU.s 			page 8


 400 0016 230C     		lsrs	r3, r4, #16
 401              		.loc 1 249 0
 402 0018 45F04005 		orr	r5, r5, #64
 403              		.loc 1 251 0
 404 001c 8DF80230 		strb	r3, [sp, #2]
 405              		.loc 1 253 0
 406 0020 0022     		movs	r2, #0
 407              		.loc 1 252 0
 408 0022 230A     		lsrs	r3, r4, #8
 409 0024 8DF80330 		strb	r3, [sp, #3]
 410              		.loc 1 249 0
 411 0028 8DF80050 		strb	r5, [sp]
 412              		.loc 1 253 0
 413 002c 8DF80440 		strb	r4, [sp, #4]
 414              	.LVL46:
 415 0030 1346     		mov	r3, r2
 416              	.LVL47:
 417              	.L33:
 418              	.LBB46:
 419              	.LBB47:
 420              		.loc 1 168 0
 421 0032 1DF80210 		ldrb	r1, [sp, r2]	@ zero_extendqisi2
 422 0036 0132     		adds	r2, r2, #1
 423              	.LVL48:
 424 0038 81EA4303 		eor	r3, r1, r3, lsl #1
 425              	.LVL49:
 426 003c 0849     		ldr	r1, .L38
 427              		.loc 1 167 0
 428 003e 052A     		cmp	r2, #5
 429              		.loc 1 168 0
 430 0040 CB5C     		ldrb	r3, [r1, r3]	@ zero_extendqisi2
 431              	.LVL50:
 432              		.loc 1 167 0
 433 0042 F6D1     		bne	.L33
 434              	.LBE47:
 435              	.LBE46:
 436              		.loc 1 255 0
 437 0044 5B00     		lsls	r3, r3, #1
 438              	.LVL51:
 439 0046 43F00103 		orr	r3, r3, #1
 440 004a 8DF80530 		strb	r3, [sp, #5]
 441              		.loc 1 257 0
 442 004e F36A     		ldr	r3, [r6, #44]
 443 0050 0621     		movs	r1, #6
 444 0052 1868     		ldr	r0, [r3]
 445 0054 6A46     		mov	r2, sp
 446              	.LVL52:
 447 0056 FFF7FEFF 		bl	spiSendHook
 448              	.LVL53:
 449              		.loc 1 258 0
 450 005a 02B0     		add	sp, sp, #8
 451              		.cfi_def_cfa_offset 16
 452              		@ sp needed
 453 005c 70BD     		pop	{r4, r5, r6, pc}
 454              	.LVL54:
 455              	.L39:
 456 005e 00BF     		.align	2
ARM GAS  /tmp/ccN6R7vU.s 			page 9


 457              	.L38:
 458 0060 00000000 		.word	.LANCHOR0
 459              		.cfi_endproc
 460              	.LFE328:
 461              		.size	send_hdr, .-send_hdr
 462              		.section	.text.send_command_R3,"ax",%progbits
 463              		.align	1
 464              		.thumb
 465              		.thumb_func
 466              		.type	send_command_R3, %function
 467              	send_command_R3:
 468              	.LFB332:
 469              		.loc 1 336 0
 470              		.cfi_startproc
 471              		@ args = 0, pretend = 0, frame = 0
 472              		@ frame_needed = 0, uses_anonymous_args = 0
 473              	.LVL55:
 474 0000 F8B5     		push	{r3, r4, r5, r6, r7, lr}
 475              		.cfi_def_cfa_offset 24
 476              		.cfi_offset 3, -24
 477              		.cfi_offset 4, -20
 478              		.cfi_offset 5, -16
 479              		.cfi_offset 6, -12
 480              		.cfi_offset 7, -8
 481              		.cfi_offset 14, -4
 482              		.loc 1 336 0
 483 0002 1E46     		mov	r6, r3
 484              		.loc 1 339 0
 485 0004 C36A     		ldr	r3, [r0, #44]
 486              	.LVL56:
 487              		.loc 1 336 0
 488 0006 0446     		mov	r4, r0
 489 0008 0F46     		mov	r7, r1
 490              		.loc 1 339 0
 491 000a 1868     		ldr	r0, [r3]
 492              	.LVL57:
 493              		.loc 1 336 0
 494 000c 1546     		mov	r5, r2
 495              		.loc 1 339 0
 496 000e FFF7FEFF 		bl	spiSelectHook
 497              	.LVL58:
 498              		.loc 1 340 0
 499 0012 3946     		mov	r1, r7
 500 0014 2A46     		mov	r2, r5
 501 0016 2046     		mov	r0, r4
 502 0018 FFF7FEFF 		bl	send_hdr
 503              	.LVL59:
 504              	.LBB50:
 505              	.LBB51:
 506              		.loc 1 295 0
 507 001c 04F12C00 		add	r0, r4, #44
 508 0020 FFF7FEFF 		bl	recvr1.isra.0
 509              	.LVL60:
 510              		.loc 1 296 0
 511 0024 E36A     		ldr	r3, [r4, #44]
 512              		.loc 1 295 0
 513 0026 0546     		mov	r5, r0
ARM GAS  /tmp/ccN6R7vU.s 			page 10


 514              	.LVL61:
 515              		.loc 1 296 0
 516 0028 0421     		movs	r1, #4
 517 002a 1868     		ldr	r0, [r3]
 518 002c 3246     		mov	r2, r6
 519 002e FFF7FEFF 		bl	spiReceiveHook
 520              	.LVL62:
 521              	.LBE51:
 522              	.LBE50:
 523              		.loc 1 342 0
 524 0032 E36A     		ldr	r3, [r4, #44]
 525 0034 1868     		ldr	r0, [r3]
 526 0036 FFF7FEFF 		bl	spiUnselectHook
 527              	.LVL63:
 528              		.loc 1 344 0
 529 003a 2846     		mov	r0, r5
 530 003c F8BD     		pop	{r3, r4, r5, r6, r7, pc}
 531              		.cfi_endproc
 532              	.LFE332:
 533              		.size	send_command_R3, .-send_command_R3
 534              		.section	.text.send_command_R1,"ax",%progbits
 535              		.align	1
 536              		.thumb
 537              		.thumb_func
 538              		.type	send_command_R1, %function
 539              	send_command_R1:
 540              	.LFB331:
 541              		.loc 1 312 0
 542              		.cfi_startproc
 543              		@ args = 0, pretend = 0, frame = 0
 544              		@ frame_needed = 0, uses_anonymous_args = 0
 545              	.LVL64:
 546              		.loc 1 315 0
 547 0000 C36A     		ldr	r3, [r0, #44]
 548              		.loc 1 312 0
 549 0002 70B5     		push	{r4, r5, r6, lr}
 550              		.cfi_def_cfa_offset 16
 551              		.cfi_offset 4, -16
 552              		.cfi_offset 5, -12
 553              		.cfi_offset 6, -8
 554              		.cfi_offset 14, -4
 555              		.loc 1 312 0
 556 0004 0446     		mov	r4, r0
 557 0006 0E46     		mov	r6, r1
 558              		.loc 1 315 0
 559 0008 1868     		ldr	r0, [r3]
 560              	.LVL65:
 561              		.loc 1 312 0
 562 000a 1546     		mov	r5, r2
 563              		.loc 1 315 0
 564 000c FFF7FEFF 		bl	spiSelectHook
 565              	.LVL66:
 566              		.loc 1 316 0
 567 0010 2A46     		mov	r2, r5
 568 0012 3146     		mov	r1, r6
 569 0014 2046     		mov	r0, r4
 570 0016 FFF7FEFF 		bl	send_hdr
ARM GAS  /tmp/ccN6R7vU.s 			page 11


 571              	.LVL67:
 572              		.loc 1 317 0
 573 001a 04F12C00 		add	r0, r4, #44
 574 001e FFF7FEFF 		bl	recvr1.isra.0
 575              	.LVL68:
 576              		.loc 1 318 0
 577 0022 E36A     		ldr	r3, [r4, #44]
 578              		.loc 1 317 0
 579 0024 0546     		mov	r5, r0
 580              	.LVL69:
 581              		.loc 1 318 0
 582 0026 1868     		ldr	r0, [r3]
 583 0028 FFF7FEFF 		bl	spiUnselectHook
 584              	.LVL70:
 585              		.loc 1 320 0
 586 002c 2846     		mov	r0, r5
 587 002e 70BD     		pop	{r4, r5, r6, pc}
 588              		.cfi_endproc
 589              	.LFE331:
 590              		.size	send_command_R1, .-send_command_R1
 591              		.section	.text.read_CxD,"ax",%progbits
 592              		.align	1
 593              		.thumb
 594              		.thumb_func
 595              		.type	read_CxD, %function
 596              	read_CxD:
 597              	.LFB333:
 598              		.loc 1 359 0
 599              		.cfi_startproc
 600              		@ args = 0, pretend = 0, frame = 16
 601              		@ frame_needed = 0, uses_anonymous_args = 0
 602              	.LVL71:
 603 0000 7FB5     		push	{r0, r1, r2, r3, r4, r5, r6, lr}
 604              		.cfi_def_cfa_offset 32
 605              		.cfi_offset 4, -16
 606              		.cfi_offset 5, -12
 607              		.cfi_offset 6, -8
 608              		.cfi_offset 14, -4
 609              		.loc 1 362 0
 610 0002 C36A     		ldr	r3, [r0, #44]
 611              		.loc 1 359 0
 612 0004 0446     		mov	r4, r0
 613 0006 0E46     		mov	r6, r1
 614              		.loc 1 362 0
 615 0008 1868     		ldr	r0, [r3]
 616              	.LVL72:
 617              		.loc 1 359 0
 618 000a 1546     		mov	r5, r2
 619              		.loc 1 362 0
 620 000c FFF7FEFF 		bl	spiSelectHook
 621              	.LVL73:
 622              		.loc 1 363 0
 623 0010 2046     		mov	r0, r4
 624 0012 3146     		mov	r1, r6
 625 0014 0022     		movs	r2, #0
 626 0016 04F12C06 		add	r6, r4, #44
 627 001a FFF7FEFF 		bl	send_hdr
ARM GAS  /tmp/ccN6R7vU.s 			page 12


 628              	.LVL74:
 629              		.loc 1 364 0
 630 001e 3046     		mov	r0, r6
 631 0020 FFF7FEFF 		bl	recvr1.isra.0
 632              	.LVL75:
 633 0024 10B1     		cbz	r0, .L43
 634              		.loc 1 365 0
 635 0026 E36A     		ldr	r3, [r4, #44]
 636 0028 1868     		ldr	r0, [r3]
 637 002a 2EE0     		b	.L45
 638              	.L43:
 639              		.loc 1 370 0
 640 002c 3046     		mov	r0, r6
 641 002e FFF7FEFF 		bl	wait_nonidle.isra.3
 642              	.LVL76:
 643 0032 E36A     		ldr	r3, [r4, #44]
 644 0034 FE28     		cmp	r0, #254
 645              	.LBB55:
 646              	.LBB56:
 647              	.LBB57:
 648              		.loc 1 373 0
 649 0036 1868     		ldr	r0, [r3]
 650              	.LBE57:
 651              	.LBE56:
 652              	.LBE55:
 653              		.loc 1 370 0
 654 0038 27D1     		bne	.L45
 655              	.LVL77:
 656              	.LBB60:
 657              	.LBB59:
 658              	.LBB58:
 659              		.loc 1 373 0
 660 003a 6A46     		mov	r2, sp
 661 003c 1021     		movs	r1, #16
 662 003e FFF7FEFF 		bl	spiReceiveHook
 663              	.LVL78:
 664              		.loc 1 375 0
 665 0042 05F10C02 		add	r2, r5, #12
 666              	.LVL79:
 667 0046 01AB     		add	r3, sp, #4
 668 0048 043D     		subs	r5, r5, #4
 669              	.LVL80:
 670              	.L46:
 671 004a AA42     		cmp	r2, r5
 672 004c 03F10403 		add	r3, r3, #4
 673              	.LVL81:
 674 0050 10D0     		beq	.L48
 675              		.loc 1 376 0
 676 0052 13F8071C 		ldrb	r1, [r3, #-7]	@ zero_extendqisi2
 677 0056 13F8080C 		ldrb	r0, [r3, #-8]	@ zero_extendqisi2
 678 005a 0904     		lsls	r1, r1, #16
 679 005c 41EA0061 		orr	r1, r1, r0, lsl #24
 680              		.loc 1 377 0
 681 0060 13F8050C 		ldrb	r0, [r3, #-5]	@ zero_extendqisi2
 682 0064 0143     		orrs	r1, r1, r0
 683 0066 13F8060C 		ldrb	r0, [r3, #-6]	@ zero_extendqisi2
 684 006a 41EA0021 		orr	r1, r1, r0, lsl #8
ARM GAS  /tmp/ccN6R7vU.s 			page 13


 685              		.loc 1 376 0
 686 006e 42F80419 		str	r1, [r2], #-4
 687              	.LVL82:
 688 0072 EAE7     		b	.L46
 689              	.LVL83:
 690              	.L48:
 691              		.loc 1 382 0
 692 0074 E36A     		ldr	r3, [r4, #44]
 693              	.LVL84:
 694 0076 0221     		movs	r1, #2
 695 0078 1868     		ldr	r0, [r3]
 696 007a FFF7FEFF 		bl	spiIgnoreHook
 697              	.LVL85:
 698              		.loc 1 383 0
 699 007e E36A     		ldr	r3, [r4, #44]
 700 0080 1868     		ldr	r0, [r3]
 701 0082 FFF7FEFF 		bl	spiUnselectHook
 702              	.LVL86:
 703              	.LBE58:
 704 0086 0020     		movs	r0, #0
 705 0088 02E0     		b	.L44
 706              	.LVL87:
 707              	.L45:
 708              	.LBE59:
 709              	.LBE60:
 710              		.loc 1 388 0
 711 008a FFF7FEFF 		bl	spiUnselectHook
 712              	.LVL88:
 713              		.loc 1 389 0
 714 008e 0120     		movs	r0, #1
 715              	.LVL89:
 716              	.L44:
 717              		.loc 1 390 0
 718 0090 04B0     		add	sp, sp, #16
 719              		.cfi_def_cfa_offset 16
 720              		@ sp needed
 721 0092 70BD     		pop	{r4, r5, r6, pc}
 722              		.cfi_endproc
 723              	.LFE333:
 724              		.size	read_CxD, .-read_CxD
 725              		.section	.text.mmcConnect,"ax",%progbits
 726              		.align	1
 727              		.global	mmcConnect
 728              		.thumb
 729              		.thumb_func
 730              		.type	mmcConnect, %function
 731              	mmcConnect:
 732              	.LFB339:
 733              		.loc 1 488 0
 734              		.cfi_startproc
 735              		@ args = 0, pretend = 0, frame = 8
 736              		@ frame_needed = 0, uses_anonymous_args = 0
 737              	.LVL90:
 738              		.loc 1 498 0
 739 0000 0323     		movs	r3, #3
 740              		.loc 1 488 0
 741 0002 37B5     		push	{r0, r1, r2, r4, r5, lr}
ARM GAS  /tmp/ccN6R7vU.s 			page 14


 742              		.cfi_def_cfa_offset 24
 743              		.cfi_offset 4, -12
 744              		.cfi_offset 5, -8
 745              		.cfi_offset 14, -4
 746              		.loc 1 498 0
 747 0004 0371     		strb	r3, [r0, #4]
 748              		.loc 1 499 0
 749 0006 0023     		movs	r3, #0
 750 0008 80F83030 		strb	r3, [r0, #48]
 751              		.loc 1 502 0
 752 000c C36A     		ldr	r3, [r0, #44]
 753              		.loc 1 488 0
 754 000e 0446     		mov	r4, r0
 755              		.loc 1 502 0
 756 0010 93E80300 		ldmia	r3, {r0, r1}
 757              	.LVL91:
 758 0014 FFF7FEFF 		bl	spiStartHook
 759              	.LVL92:
 760              		.loc 1 503 0
 761 0018 E36A     		ldr	r3, [r4, #44]
 762 001a 1021     		movs	r1, #16
 763 001c 1868     		ldr	r0, [r3]
 764 001e FFF7FEFF 		bl	spiIgnoreHook
 765              	.LVL93:
 766 0022 0A25     		movs	r5, #10
 767              	.LVL94:
 768              	.L52:
 769              		.loc 1 508 0
 770 0024 0021     		movs	r1, #0
 771 0026 2046     		mov	r0, r4
 772 0028 0A46     		mov	r2, r1
 773 002a FFF7FEFF 		bl	send_command_R1
 774              	.LVL95:
 775 002e 0128     		cmp	r0, #1
 776 0030 06D0     		beq	.L50
 777              	.LVL96:
 778              		.loc 1 511 0
 779 0032 013D     		subs	r5, r5, #1
 780              	.LVL97:
 781 0034 64D0     		beq	.L51
 782              	.LVL98:
 783              	.LBB61:
 784              	.LBB62:
 785              		.loc 2 720 0
 786 0036 42F21070 		movw	r0, #10000
 787 003a FFF7FEFF 		bl	chThdSleep
 788              	.LVL99:
 789 003e F1E7     		b	.L52
 790              	.LVL100:
 791              	.L50:
 792              	.LBE62:
 793              	.LBE61:
 794              		.loc 1 521 0
 795 0040 2046     		mov	r0, r4
 796 0042 0821     		movs	r1, #8
 797 0044 4FF4D572 		mov	r2, #426
 798 0048 01AB     		add	r3, sp, #4
ARM GAS  /tmp/ccN6R7vU.s 			page 15


 799 004a FFF7FEFF 		bl	send_command_R3
 800              	.LVL101:
 801 004e 0528     		cmp	r0, #5
 802 0050 23D0     		beq	.L54
 803 0052 6425     		movs	r5, #100
 804              	.LVL102:
 805              	.L53:
 806              		.loc 1 528 0
 807 0054 2046     		mov	r0, r4
 808 0056 3721     		movs	r1, #55
 809 0058 0022     		movs	r2, #0
 810 005a FFF7FEFF 		bl	send_command_R1
 811              	.LVL103:
 812 005e 0128     		cmp	r0, #1
 813 0060 06D9     		bls	.L55
 814              	.L58:
 815              	.LVL104:
 816              		.loc 1 534 0
 817 0062 013D     		subs	r5, r5, #1
 818              	.LVL105:
 819 0064 4CD0     		beq	.L51
 820              	.LVL106:
 821              	.LBB63:
 822              	.LBB64:
 823              		.loc 2 720 0
 824 0066 42F21070 		movw	r0, #10000
 825 006a FFF7FEFF 		bl	chThdSleep
 826              	.LVL107:
 827 006e F1E7     		b	.L53
 828              	.LVL108:
 829              	.L55:
 830              	.LBE64:
 831              	.LBE63:
 832              		.loc 1 529 0 discriminator 1
 833 0070 284A     		ldr	r2, .L80
 834 0072 2046     		mov	r0, r4
 835 0074 2921     		movs	r1, #41
 836 0076 01AB     		add	r3, sp, #4
 837 0078 FFF7FEFF 		bl	send_command_R3
 838              	.LVL109:
 839              		.loc 1 528 0 discriminator 1
 840 007c 0246     		mov	r2, r0
 841 007e 0028     		cmp	r0, #0
 842 0080 EFD1     		bne	.L58
 843              		.loc 1 541 0
 844 0082 01AB     		add	r3, sp, #4
 845 0084 2046     		mov	r0, r4
 846 0086 3A21     		movs	r1, #58
 847 0088 FFF7FEFF 		bl	send_command_R3
 848              	.LVL110:
 849              		.loc 1 544 0
 850 008c 9DF80430 		ldrb	r3, [sp, #4]	@ zero_extendqisi2
 851 0090 5B06     		lsls	r3, r3, #25
 852              		.loc 1 545 0
 853 0092 44BF     		itt	mi
 854 0094 0123     		movmi	r3, #1
 855 0096 84F83030 		strbmi	r3, [r4, #48]
ARM GAS  /tmp/ccN6R7vU.s 			page 16


 856              	.LVL111:
 857              	.L54:
 858 009a 6425     		movs	r5, #100
 859              	.L61:
 860              	.LVL112:
 861              	.LBB65:
 862              		.loc 1 552 0
 863 009c 2046     		mov	r0, r4
 864 009e 0121     		movs	r1, #1
 865 00a0 0022     		movs	r2, #0
 866 00a2 FFF7FEFF 		bl	send_command_R1
 867              	.LVL113:
 868              		.loc 1 553 0
 869 00a6 40B1     		cbz	r0, .L60
 870              		.loc 1 556 0
 871 00a8 0128     		cmp	r0, #1
 872 00aa 29D1     		bne	.L51
 873              	.LVL114:
 874              		.loc 1 559 0
 875 00ac 013D     		subs	r5, r5, #1
 876              	.LVL115:
 877 00ae 27D0     		beq	.L51
 878              	.LVL116:
 879              	.LBB66:
 880              	.LBB67:
 881              		.loc 2 720 0
 882 00b0 42F21070 		movw	r0, #10000
 883              	.LVL117:
 884 00b4 FFF7FEFF 		bl	chThdSleep
 885              	.LVL118:
 886 00b8 F0E7     		b	.L61
 887              	.LVL119:
 888              	.L60:
 889              	.LBE67:
 890              	.LBE66:
 891              	.LBE65:
 892              		.loc 1 566 0
 893 00ba E36A     		ldr	r3, [r4, #44]
 894 00bc 1868     		ldr	r0, [r3]
 895              	.LVL120:
 896 00be 9968     		ldr	r1, [r3, #8]
 897 00c0 FFF7FEFF 		bl	spiStartHook
 898              	.LVL121:
 899              		.loc 1 569 0
 900 00c4 2046     		mov	r0, r4
 901 00c6 1021     		movs	r1, #16
 902 00c8 4FF40072 		mov	r2, #512
 903 00cc FFF7FEFF 		bl	send_command_R1
 904              	.LVL122:
 905 00d0 B0B9     		cbnz	r0, .L51
 906              		.loc 1 575 0
 907 00d2 04F11805 		add	r5, r4, #24
 908              	.LVL123:
 909 00d6 2046     		mov	r0, r4
 910 00d8 0921     		movs	r1, #9
 911 00da 2A46     		mov	r2, r5
 912 00dc FFF7FEFF 		bl	read_CxD
ARM GAS  /tmp/ccN6R7vU.s 			page 17


 913              	.LVL124:
 914 00e0 70B9     		cbnz	r0, .L51
 915              		.loc 1 579 0
 916 00e2 2846     		mov	r0, r5
 917 00e4 FFF7FEFF 		bl	_mmcsd_get_capacity
 918              	.LVL125:
 919 00e8 A062     		str	r0, [r4, #40]
 920              		.loc 1 580 0
 921 00ea 48B1     		cbz	r0, .L51
 922              		.loc 1 584 0
 923 00ec 2046     		mov	r0, r4
 924 00ee 0A21     		movs	r1, #10
 925 00f0 04F10802 		add	r2, r4, #8
 926 00f4 FFF7FEFF 		bl	read_CxD
 927              	.LVL126:
 928 00f8 10B9     		cbnz	r0, .L51
 929              		.loc 1 588 0
 930 00fa 0523     		movs	r3, #5
 931 00fc 2371     		strb	r3, [r4, #4]
 932              		.loc 1 589 0
 933 00fe 06E0     		b	.L62
 934              	.L51:
 935              	.LDL1:
 936              		.loc 1 593 0
 937 0100 E36A     		ldr	r3, [r4, #44]
 938 0102 1868     		ldr	r0, [r3]
 939 0104 FFF7FEFF 		bl	spiStopHook
 940              	.LVL127:
 941              		.loc 1 594 0
 942 0108 0223     		movs	r3, #2
 943 010a 2371     		strb	r3, [r4, #4]
 944              		.loc 1 595 0
 945 010c 0120     		movs	r0, #1
 946              	.L62:
 947              		.loc 1 596 0
 948 010e 03B0     		add	sp, sp, #12
 949              		.cfi_def_cfa_offset 12
 950              		@ sp needed
 951 0110 30BD     		pop	{r4, r5, pc}
 952              	.LVL128:
 953              	.L81:
 954 0112 00BF     		.align	2
 955              	.L80:
 956 0114 AA010040 		.word	1073742250
 957              		.cfi_endproc
 958              	.LFE339:
 959              		.size	mmcConnect, .-mmcConnect
 960              		.section	.text.mmcDisconnect,"ax",%progbits
 961              		.align	1
 962              		.global	mmcDisconnect
 963              		.thumb
 964              		.thumb_func
 965              		.type	mmcDisconnect, %function
 966              	mmcDisconnect:
 967              	.LFB340:
 968              		.loc 1 610 0
 969              		.cfi_startproc
ARM GAS  /tmp/ccN6R7vU.s 			page 18


 970              		@ args = 0, pretend = 0, frame = 0
 971              		@ frame_needed = 0, uses_anonymous_args = 0
 972              	.LVL129:
 973 0000 38B5     		push	{r3, r4, r5, lr}
 974              		.cfi_def_cfa_offset 16
 975              		.cfi_offset 3, -16
 976              		.cfi_offset 4, -12
 977              		.cfi_offset 5, -8
 978              		.cfi_offset 14, -4
 979              		.loc 1 610 0
 980 0002 0446     		mov	r4, r0
 981              	.LBB89:
 982              	.LBB90:
 983              	.LBB91:
 984              	.LBB92:
 985              	.LBB93:
 986              	.LBB94:
 987              		.file 3 "../../modules/ChibiOS/os/common/ext/ARM/CMSIS/Core/Include/cmsis_gcc.h"
 988              		.loc 3 493 0
 989 0004 2023     		movs	r3, #32
 990              	@ 493 "../../modules/ChibiOS/os/common/ext/ARM/CMSIS/Core/Include/cmsis_gcc.h" 1
 991 0006 83F31188 		MSR basepri, r3
 992              	@ 0 "" 2
 993              		.thumb
 994              	.LBE94:
 995              	.LBE93:
 996              	.LBE92:
 997              		.file 4 "../../modules/ChibiOS/os/rt/include/chsys.h"
 998              		.loc 4 356 0
 999 000a FFF7FEFF 		bl	_stats_start_measure_crit_thd
 1000              	.LVL130:
 1001              	.LBE91:
 1002              	.LBE90:
 1003              	.LBE89:
 1004              		.loc 1 617 0
 1005 000e 2379     		ldrb	r3, [r4, #4]	@ zero_extendqisi2
 1006 0010 022B     		cmp	r3, #2
 1007 0012 4FF00005 		mov	r5, #0
 1008 0016 04D1     		bne	.L83
 1009              	.LBB95:
 1010              	.LBB96:
 1011              	.LBB97:
 1012              		.loc 4 368 0
 1013 0018 FFF7FEFF 		bl	_stats_stop_measure_crit_thd
 1014              	.LVL131:
 1015              	.LBB98:
 1016              	.LBB99:
 1017              	.LBB100:
 1018              		.loc 3 493 0
 1019              	@ 493 "../../modules/ChibiOS/os/common/ext/ARM/CMSIS/Core/Include/cmsis_gcc.h" 1
 1020 001c 85F31188 		MSR basepri, r5
 1021              	@ 0 "" 2
 1022              		.thumb
 1023 0020 13E0     		b	.L84
 1024              	.LVL132:
 1025              	.L83:
 1026              	.LBE100:
ARM GAS  /tmp/ccN6R7vU.s 			page 19


 1027              	.LBE99:
 1028              	.LBE98:
 1029              	.LBE97:
 1030              	.LBE96:
 1031              	.LBE95:
 1032              		.loc 1 621 0
 1033 0022 0423     		movs	r3, #4
 1034 0024 2371     		strb	r3, [r4, #4]
 1035              	.LBB101:
 1036              	.LBB102:
 1037              	.LBB103:
 1038              		.loc 4 368 0
 1039 0026 FFF7FEFF 		bl	_stats_stop_measure_crit_thd
 1040              	.LVL133:
 1041              	.LBB104:
 1042              	.LBB105:
 1043              	.LBB106:
 1044              		.loc 3 493 0
 1045              	@ 493 "../../modules/ChibiOS/os/common/ext/ARM/CMSIS/Core/Include/cmsis_gcc.h" 1
 1046 002a 85F31188 		MSR basepri, r5
 1047              	@ 0 "" 2
 1048              		.thumb
 1049              	.LBE106:
 1050              	.LBE105:
 1051              	.LBE104:
 1052              	.LBE103:
 1053              	.LBE102:
 1054              	.LBE101:
 1055              		.loc 1 625 0
 1056 002e E36A     		ldr	r3, [r4, #44]
 1057 0030 1868     		ldr	r0, [r3]
 1058 0032 9968     		ldr	r1, [r3, #8]
 1059 0034 FFF7FEFF 		bl	spiStartHook
 1060              	.LVL134:
 1061              		.loc 1 626 0
 1062 0038 2046     		mov	r0, r4
 1063 003a FFF7FEFF 		bl	sync
 1064              	.LVL135:
 1065              		.loc 1 628 0
 1066 003e E36A     		ldr	r3, [r4, #44]
 1067 0040 1868     		ldr	r0, [r3]
 1068 0042 FFF7FEFF 		bl	spiStopHook
 1069              	.LVL136:
 1070              		.loc 1 629 0
 1071 0046 0223     		movs	r3, #2
 1072 0048 2371     		strb	r3, [r4, #4]
 1073              	.LVL137:
 1074              	.L84:
 1075              		.loc 1 631 0
 1076 004a 0020     		movs	r0, #0
 1077 004c 38BD     		pop	{r3, r4, r5, pc}
 1078              		.cfi_endproc
 1079              	.LFE340:
 1080              		.size	mmcDisconnect, .-mmcDisconnect
 1081              		.section	.text.mmcInit,"ax",%progbits
 1082              		.align	1
 1083              		.global	mmcInit
ARM GAS  /tmp/ccN6R7vU.s 			page 20


 1084              		.thumb
 1085              		.thumb_func
 1086              		.type	mmcInit, %function
 1087              	mmcInit:
 1088              	.LFB335:
 1089              		.loc 1 416 0
 1090              		.cfi_startproc
 1091              		@ args = 0, pretend = 0, frame = 0
 1092              		@ frame_needed = 0, uses_anonymous_args = 0
 1093              		@ link register save eliminated.
 1094 0000 7047     		bx	lr
 1095              		.cfi_endproc
 1096              	.LFE335:
 1097              		.size	mmcInit, .-mmcInit
 1098              		.section	.text.mmcObjectInit,"ax",%progbits
 1099              		.align	1
 1100              		.global	mmcObjectInit
 1101              		.thumb
 1102              		.thumb_func
 1103              		.type	mmcObjectInit, %function
 1104              	mmcObjectInit:
 1105              	.LFB336:
 1106              		.loc 1 427 0
 1107              		.cfi_startproc
 1108              		@ args = 0, pretend = 0, frame = 0
 1109              		@ frame_needed = 0, uses_anonymous_args = 0
 1110              		@ link register save eliminated.
 1111              	.LVL138:
 1112              		.loc 1 429 0
 1113 0000 044B     		ldr	r3, .L87
 1114 0002 0360     		str	r3, [r0]
 1115              		.loc 1 430 0
 1116 0004 0123     		movs	r3, #1
 1117 0006 0371     		strb	r3, [r0, #4]
 1118              		.loc 1 431 0
 1119 0008 0023     		movs	r3, #0
 1120 000a C362     		str	r3, [r0, #44]
 1121              		.loc 1 432 0
 1122 000c 80F83030 		strb	r3, [r0, #48]
 1123 0010 7047     		bx	lr
 1124              	.L88:
 1125 0012 00BF     		.align	2
 1126              	.L87:
 1127 0014 00000000 		.word	.LANCHOR1
 1128              		.cfi_endproc
 1129              	.LFE336:
 1130              		.size	mmcObjectInit, .-mmcObjectInit
 1131              		.section	.text.mmcStart,"ax",%progbits
 1132              		.align	1
 1133              		.global	mmcStart
 1134              		.thumb
 1135              		.thumb_func
 1136              		.type	mmcStart, %function
 1137              	mmcStart:
 1138              	.LFB337:
 1139              		.loc 1 443 0
 1140              		.cfi_startproc
ARM GAS  /tmp/ccN6R7vU.s 			page 21


 1141              		@ args = 0, pretend = 0, frame = 0
 1142              		@ frame_needed = 0, uses_anonymous_args = 0
 1143              		@ link register save eliminated.
 1144              	.LVL139:
 1145              		.loc 1 450 0
 1146 0000 0223     		movs	r3, #2
 1147              		.loc 1 449 0
 1148 0002 C162     		str	r1, [r0, #44]
 1149              		.loc 1 450 0
 1150 0004 0371     		strb	r3, [r0, #4]
 1151 0006 7047     		bx	lr
 1152              		.cfi_endproc
 1153              	.LFE337:
 1154              		.size	mmcStart, .-mmcStart
 1155              		.section	.text.mmcStop,"ax",%progbits
 1156              		.align	1
 1157              		.global	mmcStop
 1158              		.thumb
 1159              		.thumb_func
 1160              		.type	mmcStop, %function
 1161              	mmcStop:
 1162              	.LFB338:
 1163              		.loc 1 460 0
 1164              		.cfi_startproc
 1165              		@ args = 0, pretend = 0, frame = 0
 1166              		@ frame_needed = 0, uses_anonymous_args = 0
 1167              	.LVL140:
 1168              		.loc 1 466 0
 1169 0000 C36A     		ldr	r3, [r0, #44]
 1170              		.loc 1 460 0
 1171 0002 10B5     		push	{r4, lr}
 1172              		.cfi_def_cfa_offset 8
 1173              		.cfi_offset 4, -8
 1174              		.cfi_offset 14, -4
 1175              		.loc 1 460 0
 1176 0004 0446     		mov	r4, r0
 1177              		.loc 1 466 0
 1178 0006 1868     		ldr	r0, [r3]
 1179              	.LVL141:
 1180 0008 FFF7FEFF 		bl	spiStopHook
 1181              	.LVL142:
 1182              		.loc 1 467 0
 1183 000c 0023     		movs	r3, #0
 1184 000e E362     		str	r3, [r4, #44]
 1185              		.loc 1 468 0
 1186 0010 0123     		movs	r3, #1
 1187 0012 2371     		strb	r3, [r4, #4]
 1188 0014 10BD     		pop	{r4, pc}
 1189              		.cfi_endproc
 1190              	.LFE338:
 1191              		.size	mmcStop, .-mmcStop
 1192              		.section	.text.mmcStartSequentialRead,"ax",%progbits
 1193              		.align	1
 1194              		.global	mmcStartSequentialRead
 1195              		.thumb
 1196              		.thumb_func
 1197              		.type	mmcStartSequentialRead, %function
ARM GAS  /tmp/ccN6R7vU.s 			page 22


 1198              	mmcStartSequentialRead:
 1199              	.LFB341:
 1200              		.loc 1 645 0
 1201              		.cfi_startproc
 1202              		@ args = 0, pretend = 0, frame = 0
 1203              		@ frame_needed = 0, uses_anonymous_args = 0
 1204              	.LVL143:
 1205 0000 38B5     		push	{r3, r4, r5, lr}
 1206              		.cfi_def_cfa_offset 16
 1207              		.cfi_offset 3, -16
 1208              		.cfi_offset 4, -12
 1209              		.cfi_offset 5, -8
 1210              		.cfi_offset 14, -4
 1211              		.loc 1 651 0
 1212 0002 0623     		movs	r3, #6
 1213 0004 0371     		strb	r3, [r0, #4]
 1214              		.loc 1 655 0
 1215 0006 C36A     		ldr	r3, [r0, #44]
 1216              		.loc 1 645 0
 1217 0008 0446     		mov	r4, r0
 1218 000a 0D46     		mov	r5, r1
 1219              		.loc 1 655 0
 1220 000c 1868     		ldr	r0, [r3]
 1221              	.LVL144:
 1222 000e 9968     		ldr	r1, [r3, #8]
 1223              	.LVL145:
 1224 0010 FFF7FEFF 		bl	spiStartHook
 1225              	.LVL146:
 1226              		.loc 1 656 0
 1227 0014 E36A     		ldr	r3, [r4, #44]
 1228 0016 1868     		ldr	r0, [r3]
 1229 0018 FFF7FEFF 		bl	spiSelectHook
 1230              	.LVL147:
 1231              		.loc 1 658 0
 1232 001c 94F83030 		ldrb	r3, [r4, #48]	@ zero_extendqisi2
 1233              		.loc 1 659 0
 1234 0020 2046     		mov	r0, r4
 1235 0022 1221     		movs	r1, #18
 1236              		.loc 1 658 0
 1237 0024 0BB1     		cbz	r3, .L92
 1238              		.loc 1 659 0
 1239 0026 2A46     		mov	r2, r5
 1240 0028 00E0     		b	.L96
 1241              	.L92:
 1242              		.loc 1 662 0
 1243 002a 6A02     		lsls	r2, r5, #9
 1244              	.L96:
 1245 002c FFF7FEFF 		bl	send_hdr
 1246              	.LVL148:
 1247              		.loc 1 665 0
 1248 0030 04F12C00 		add	r0, r4, #44
 1249 0034 FFF7FEFF 		bl	recvr1.isra.0
 1250              	.LVL149:
 1251 0038 50B1     		cbz	r0, .L94
 1252              	.LVL150:
 1253              	.LBB109:
 1254              	.LBB110:
ARM GAS  /tmp/ccN6R7vU.s 			page 23


 1255              		.loc 1 666 0
 1256 003a E36A     		ldr	r3, [r4, #44]
 1257 003c 1868     		ldr	r0, [r3]
 1258 003e FFF7FEFF 		bl	spiUnselectHook
 1259              	.LVL151:
 1260              		.loc 1 667 0
 1261 0042 E36A     		ldr	r3, [r4, #44]
 1262 0044 1868     		ldr	r0, [r3]
 1263 0046 FFF7FEFF 		bl	spiStopHook
 1264              	.LVL152:
 1265              		.loc 1 668 0
 1266 004a 0523     		movs	r3, #5
 1267 004c 2371     		strb	r3, [r4, #4]
 1268 004e 0120     		movs	r0, #1
 1269              	.LVL153:
 1270              	.L94:
 1271              	.LBE110:
 1272              	.LBE109:
 1273              		.loc 1 672 0
 1274 0050 38BD     		pop	{r3, r4, r5, pc}
 1275              		.cfi_endproc
 1276              	.LFE341:
 1277              		.size	mmcStartSequentialRead, .-mmcStartSequentialRead
 1278              		.section	.text.mmcSequentialRead,"ax",%progbits
 1279              		.align	1
 1280              		.global	mmcSequentialRead
 1281              		.thumb
 1282              		.thumb_func
 1283              		.type	mmcSequentialRead, %function
 1284              	mmcSequentialRead:
 1285              	.LFB342:
 1286              		.loc 1 686 0
 1287              		.cfi_startproc
 1288              		@ args = 0, pretend = 0, frame = 0
 1289              		@ frame_needed = 0, uses_anonymous_args = 0
 1290              	.LVL154:
 1291 0000 38B5     		push	{r3, r4, r5, lr}
 1292              		.cfi_def_cfa_offset 16
 1293              		.cfi_offset 3, -16
 1294              		.cfi_offset 4, -12
 1295              		.cfi_offset 5, -8
 1296              		.cfi_offset 14, -4
 1297              		.loc 1 690 0
 1298 0002 0379     		ldrb	r3, [r0, #4]	@ zero_extendqisi2
 1299 0004 062B     		cmp	r3, #6
 1300              		.loc 1 686 0
 1301 0006 0446     		mov	r4, r0
 1302 0008 0D46     		mov	r5, r1
 1303              		.loc 1 690 0
 1304 000a 1AD1     		bne	.L100
 1305              		.loc 1 694 0
 1306 000c 2C30     		adds	r0, r0, #44
 1307              	.LVL155:
 1308 000e FFF7FEFF 		bl	wait_nonidle.isra.3
 1309              	.LVL156:
 1310 0012 E36A     		ldr	r3, [r4, #44]
 1311 0014 FE28     		cmp	r0, #254
ARM GAS  /tmp/ccN6R7vU.s 			page 24


 1312              	.LBB113:
 1313              	.LBB114:
 1314              		.loc 1 695 0
 1315 0016 1868     		ldr	r0, [r3]
 1316              	.LBE114:
 1317              	.LBE113:
 1318              		.loc 1 694 0
 1319 0018 0BD1     		bne	.L99
 1320              	.LVL157:
 1321              	.LBB116:
 1322              	.LBB115:
 1323              		.loc 1 695 0
 1324 001a 2A46     		mov	r2, r5
 1325 001c 4FF40071 		mov	r1, #512
 1326 0020 FFF7FEFF 		bl	spiReceiveHook
 1327              	.LVL158:
 1328              		.loc 1 697 0
 1329 0024 E36A     		ldr	r3, [r4, #44]
 1330 0026 0221     		movs	r1, #2
 1331 0028 1868     		ldr	r0, [r3]
 1332 002a FFF7FEFF 		bl	spiIgnoreHook
 1333              	.LVL159:
 1334 002e 0020     		movs	r0, #0
 1335 0030 38BD     		pop	{r3, r4, r5, pc}
 1336              	.LVL160:
 1337              	.L99:
 1338              	.LBE115:
 1339              	.LBE116:
 1340              		.loc 1 701 0
 1341 0032 FFF7FEFF 		bl	spiUnselectHook
 1342              	.LVL161:
 1343              		.loc 1 702 0
 1344 0036 E36A     		ldr	r3, [r4, #44]
 1345 0038 1868     		ldr	r0, [r3]
 1346 003a FFF7FEFF 		bl	spiStopHook
 1347              	.LVL162:
 1348              		.loc 1 703 0
 1349 003e 0523     		movs	r3, #5
 1350 0040 2371     		strb	r3, [r4, #4]
 1351              	.L100:
 1352              		.loc 1 691 0
 1353 0042 0120     		movs	r0, #1
 1354              		.loc 1 705 0
 1355 0044 38BD     		pop	{r3, r4, r5, pc}
 1356              		.cfi_endproc
 1357              	.LFE342:
 1358              		.size	mmcSequentialRead, .-mmcSequentialRead
 1359              		.section	.text.mmcStopSequentialRead,"ax",%progbits
 1360              		.align	1
 1361              		.global	mmcStopSequentialRead
 1362              		.thumb
 1363              		.thumb_func
 1364              		.type	mmcStopSequentialRead, %function
 1365              	mmcStopSequentialRead:
 1366              	.LFB343:
 1367              		.loc 1 718 0
 1368              		.cfi_startproc
ARM GAS  /tmp/ccN6R7vU.s 			page 25


 1369              		@ args = 0, pretend = 0, frame = 0
 1370              		@ frame_needed = 0, uses_anonymous_args = 0
 1371              	.LVL163:
 1372 0000 38B5     		push	{r3, r4, r5, lr}
 1373              		.cfi_def_cfa_offset 16
 1374              		.cfi_offset 3, -16
 1375              		.cfi_offset 4, -12
 1376              		.cfi_offset 5, -8
 1377              		.cfi_offset 14, -4
 1378              		.loc 1 725 0
 1379 0002 0379     		ldrb	r3, [r0, #4]	@ zero_extendqisi2
 1380 0004 062B     		cmp	r3, #6
 1381              		.loc 1 718 0
 1382 0006 0446     		mov	r4, r0
 1383              		.loc 1 725 0
 1384 0008 12D1     		bne	.L103
 1385              	.LVL164:
 1386              	.LBB119:
 1387              	.LBB120:
 1388              		.loc 1 729 0
 1389 000a 0546     		mov	r5, r0
 1390 000c 0721     		movs	r1, #7
 1391 000e 55F82C3F 		ldr	r3, [r5, #44]!
 1392 0012 084A     		ldr	r2, .L104
 1393 0014 1868     		ldr	r0, [r3]
 1394              	.LVL165:
 1395 0016 FFF7FEFF 		bl	spiSendHook
 1396              	.LVL166:
 1397              		.loc 1 732 0
 1398 001a 2846     		mov	r0, r5
 1399 001c FFF7FEFF 		bl	recvr1.isra.0
 1400              	.LVL167:
 1401              		.loc 1 735 0
 1402 0020 E36A     		ldr	r3, [r4, #44]
 1403 0022 1868     		ldr	r0, [r3]
 1404 0024 FFF7FEFF 		bl	spiUnselectHook
 1405              	.LVL168:
 1406              		.loc 1 736 0
 1407 0028 0523     		movs	r3, #5
 1408 002a 2371     		strb	r3, [r4, #4]
 1409 002c 0020     		movs	r0, #0
 1410 002e 38BD     		pop	{r3, r4, r5, pc}
 1411              	.LVL169:
 1412              	.L103:
 1413              	.LBE120:
 1414              	.LBE119:
 1415              		.loc 1 726 0
 1416 0030 0120     		movs	r0, #1
 1417              	.LVL170:
 1418              		.loc 1 738 0
 1419 0032 38BD     		pop	{r3, r4, r5, pc}
 1420              	.LVL171:
 1421              	.L105:
 1422              		.align	2
 1423              	.L104:
 1424 0034 00000000 		.word	.LANCHOR2
 1425              		.cfi_endproc
ARM GAS  /tmp/ccN6R7vU.s 			page 26


 1426              	.LFE343:
 1427              		.size	mmcStopSequentialRead, .-mmcStopSequentialRead
 1428              		.section	.text.mmc_read,"ax",%progbits
 1429              		.align	1
 1430              		.thumb
 1431              		.thumb_func
 1432              		.type	mmc_read, %function
 1433              	mmc_read:
 1434              	.LFB323:
 1435              		.loc 1 116 0
 1436              		.cfi_startproc
 1437              		@ args = 0, pretend = 0, frame = 0
 1438              		@ frame_needed = 0, uses_anonymous_args = 0
 1439              	.LVL172:
 1440 0000 70B5     		push	{r4, r5, r6, lr}
 1441              		.cfi_def_cfa_offset 16
 1442              		.cfi_offset 4, -16
 1443              		.cfi_offset 5, -12
 1444              		.cfi_offset 6, -8
 1445              		.cfi_offset 14, -4
 1446              		.loc 1 116 0
 1447 0002 0646     		mov	r6, r0
 1448 0004 1546     		mov	r5, r2
 1449 0006 1C46     		mov	r4, r3
 1450              		.loc 1 118 0
 1451 0008 FFF7FEFF 		bl	mmcStartSequentialRead
 1452              	.LVL173:
 1453 000c 68B9     		cbnz	r0, .L109
 1454              	.LVL174:
 1455              	.L108:
 1456              		.loc 1 123 0
 1457 000e 3046     		mov	r0, r6
 1458              		.loc 1 122 0
 1459 0010 3CB1     		cbz	r4, .L111
 1460              	.LVL175:
 1461              		.loc 1 123 0
 1462 0012 2946     		mov	r1, r5
 1463 0014 FFF7FEFF 		bl	mmcSequentialRead
 1464              	.LVL176:
 1465 0018 38B9     		cbnz	r0, .L109
 1466              	.LVL177:
 1467              		.loc 1 126 0
 1468 001a 05F50075 		add	r5, r5, #512
 1469              	.LVL178:
 1470              		.loc 1 127 0
 1471 001e 013C     		subs	r4, r4, #1
 1472              	.LVL179:
 1473 0020 F5E7     		b	.L108
 1474              	.LVL180:
 1475              	.L111:
 1476              		.loc 1 134 0
 1477 0022 BDE87040 		pop	{r4, r5, r6, lr}
 1478              		.cfi_remember_state
 1479              		.cfi_restore 14
 1480              		.cfi_restore 6
 1481              		.cfi_restore 5
 1482              		.cfi_restore 4
ARM GAS  /tmp/ccN6R7vU.s 			page 27


 1483              		.cfi_def_cfa_offset 0
 1484              	.LVL181:
 1485              	.LBB123:
 1486              	.LBB124:
 1487              		.loc 1 130 0
 1488 0026 FFF7FEBF 		b	mmcStopSequentialRead
 1489              	.LVL182:
 1490              	.L109:
 1491              		.cfi_restore_state
 1492              	.LBE124:
 1493              	.LBE123:
 1494              		.loc 1 134 0
 1495 002a 0120     		movs	r0, #1
 1496 002c 70BD     		pop	{r4, r5, r6, pc}
 1497              		.cfi_endproc
 1498              	.LFE323:
 1499              		.size	mmc_read, .-mmc_read
 1500              		.section	.text.mmcStartSequentialWrite,"ax",%progbits
 1501              		.align	1
 1502              		.global	mmcStartSequentialWrite
 1503              		.thumb
 1504              		.thumb_func
 1505              		.type	mmcStartSequentialWrite, %function
 1506              	mmcStartSequentialWrite:
 1507              	.LFB344:
 1508              		.loc 1 752 0
 1509              		.cfi_startproc
 1510              		@ args = 0, pretend = 0, frame = 0
 1511              		@ frame_needed = 0, uses_anonymous_args = 0
 1512              	.LVL183:
 1513 0000 38B5     		push	{r3, r4, r5, lr}
 1514              		.cfi_def_cfa_offset 16
 1515              		.cfi_offset 3, -16
 1516              		.cfi_offset 4, -12
 1517              		.cfi_offset 5, -8
 1518              		.cfi_offset 14, -4
 1519              		.loc 1 758 0
 1520 0002 0723     		movs	r3, #7
 1521 0004 0371     		strb	r3, [r0, #4]
 1522              		.loc 1 760 0
 1523 0006 C36A     		ldr	r3, [r0, #44]
 1524              		.loc 1 752 0
 1525 0008 0446     		mov	r4, r0
 1526 000a 0D46     		mov	r5, r1
 1527              		.loc 1 760 0
 1528 000c 1868     		ldr	r0, [r3]
 1529              	.LVL184:
 1530 000e 9968     		ldr	r1, [r3, #8]
 1531              	.LVL185:
 1532 0010 FFF7FEFF 		bl	spiStartHook
 1533              	.LVL186:
 1534              		.loc 1 761 0
 1535 0014 E36A     		ldr	r3, [r4, #44]
 1536 0016 1868     		ldr	r0, [r3]
 1537 0018 FFF7FEFF 		bl	spiSelectHook
 1538              	.LVL187:
 1539              		.loc 1 762 0
ARM GAS  /tmp/ccN6R7vU.s 			page 28


 1540 001c 94F83030 		ldrb	r3, [r4, #48]	@ zero_extendqisi2
 1541              		.loc 1 763 0
 1542 0020 2046     		mov	r0, r4
 1543 0022 1921     		movs	r1, #25
 1544              		.loc 1 762 0
 1545 0024 0BB1     		cbz	r3, .L113
 1546              		.loc 1 763 0
 1547 0026 2A46     		mov	r2, r5
 1548 0028 00E0     		b	.L117
 1549              	.L113:
 1550              		.loc 1 766 0
 1551 002a 6A02     		lsls	r2, r5, #9
 1552              	.L117:
 1553 002c FFF7FEFF 		bl	send_hdr
 1554              	.LVL188:
 1555              		.loc 1 770 0
 1556 0030 04F12C00 		add	r0, r4, #44
 1557 0034 FFF7FEFF 		bl	recvr1.isra.0
 1558              	.LVL189:
 1559 0038 50B1     		cbz	r0, .L115
 1560              	.LVL190:
 1561              	.LBB127:
 1562              	.LBB128:
 1563              		.loc 1 771 0
 1564 003a E36A     		ldr	r3, [r4, #44]
 1565 003c 1868     		ldr	r0, [r3]
 1566 003e FFF7FEFF 		bl	spiUnselectHook
 1567              	.LVL191:
 1568              		.loc 1 772 0
 1569 0042 E36A     		ldr	r3, [r4, #44]
 1570 0044 1868     		ldr	r0, [r3]
 1571 0046 FFF7FEFF 		bl	spiStopHook
 1572              	.LVL192:
 1573              		.loc 1 773 0
 1574 004a 0523     		movs	r3, #5
 1575 004c 2371     		strb	r3, [r4, #4]
 1576 004e 0120     		movs	r0, #1
 1577              	.LVL193:
 1578              	.L115:
 1579              	.LBE128:
 1580              	.LBE127:
 1581              		.loc 1 777 0
 1582 0050 38BD     		pop	{r3, r4, r5, pc}
 1583              		.cfi_endproc
 1584              	.LFE344:
 1585              		.size	mmcStartSequentialWrite, .-mmcStartSequentialWrite
 1586              		.section	.text.mmcSequentialWrite,"ax",%progbits
 1587              		.align	1
 1588              		.global	mmcSequentialWrite
 1589              		.thumb
 1590              		.thumb_func
 1591              		.type	mmcSequentialWrite, %function
 1592              	mmcSequentialWrite:
 1593              	.LFB345:
 1594              		.loc 1 791 0
 1595              		.cfi_startproc
 1596              		@ args = 0, pretend = 0, frame = 8
ARM GAS  /tmp/ccN6R7vU.s 			page 29


 1597              		@ frame_needed = 0, uses_anonymous_args = 0
 1598              	.LVL194:
 1599              		.loc 1 797 0
 1600 0000 0379     		ldrb	r3, [r0, #4]	@ zero_extendqisi2
 1601 0002 072B     		cmp	r3, #7
 1602              		.loc 1 791 0
 1603 0004 37B5     		push	{r0, r1, r2, r4, r5, lr}
 1604              		.cfi_def_cfa_offset 24
 1605              		.cfi_offset 4, -12
 1606              		.cfi_offset 5, -8
 1607              		.cfi_offset 14, -4
 1608              		.loc 1 791 0
 1609 0006 0446     		mov	r4, r0
 1610 0008 0D46     		mov	r5, r1
 1611              		.loc 1 797 0
 1612 000a 2DD1     		bne	.L121
 1613              		.loc 1 801 0
 1614 000c C36A     		ldr	r3, [r0, #44]
 1615 000e 184A     		ldr	r2, .L122
 1616 0010 1868     		ldr	r0, [r3]
 1617              	.LVL195:
 1618 0012 0221     		movs	r1, #2
 1619              	.LVL196:
 1620 0014 FFF7FEFF 		bl	spiSendHook
 1621              	.LVL197:
 1622              		.loc 1 802 0
 1623 0018 E36A     		ldr	r3, [r4, #44]
 1624 001a 2A46     		mov	r2, r5
 1625 001c 1868     		ldr	r0, [r3]
 1626 001e 4FF40071 		mov	r1, #512
 1627 0022 FFF7FEFF 		bl	spiSendHook
 1628              	.LVL198:
 1629              		.loc 1 803 0
 1630 0026 E36A     		ldr	r3, [r4, #44]
 1631 0028 0221     		movs	r1, #2
 1632 002a 1868     		ldr	r0, [r3]
 1633 002c FFF7FEFF 		bl	spiIgnoreHook
 1634              	.LVL199:
 1635              		.loc 1 804 0
 1636 0030 E36A     		ldr	r3, [r4, #44]
 1637 0032 0121     		movs	r1, #1
 1638 0034 1868     		ldr	r0, [r3]
 1639 0036 01AA     		add	r2, sp, #4
 1640 0038 FFF7FEFF 		bl	spiReceiveHook
 1641              	.LVL200:
 1642              		.loc 1 805 0
 1643 003c 9DF80430 		ldrb	r3, [sp, #4]	@ zero_extendqisi2
 1644 0040 03F01F03 		and	r3, r3, #31
 1645 0044 052B     		cmp	r3, #5
 1646 0046 05D1     		bne	.L120
 1647              		.loc 1 806 0
 1648 0048 04F12C00 		add	r0, r4, #44
 1649 004c FFF7FEFF 		bl	wait.isra.1
 1650              	.LVL201:
 1651              		.loc 1 807 0
 1652 0050 0020     		movs	r0, #0
 1653 0052 0AE0     		b	.L119
ARM GAS  /tmp/ccN6R7vU.s 			page 30


 1654              	.L120:
 1655              	.LVL202:
 1656              	.LBB131:
 1657              	.LBB132:
 1658              		.loc 1 811 0
 1659 0054 E36A     		ldr	r3, [r4, #44]
 1660 0056 1868     		ldr	r0, [r3]
 1661 0058 FFF7FEFF 		bl	spiUnselectHook
 1662              	.LVL203:
 1663              		.loc 1 812 0
 1664 005c E36A     		ldr	r3, [r4, #44]
 1665 005e 1868     		ldr	r0, [r3]
 1666 0060 FFF7FEFF 		bl	spiStopHook
 1667              	.LVL204:
 1668              		.loc 1 813 0
 1669 0064 0523     		movs	r3, #5
 1670 0066 2371     		strb	r3, [r4, #4]
 1671              	.LVL205:
 1672              	.L121:
 1673              	.LBE132:
 1674              	.LBE131:
 1675              		.loc 1 798 0
 1676 0068 0120     		movs	r0, #1
 1677              	.L119:
 1678              		.loc 1 815 0
 1679 006a 03B0     		add	sp, sp, #12
 1680              		.cfi_def_cfa_offset 12
 1681              		@ sp needed
 1682 006c 30BD     		pop	{r4, r5, pc}
 1683              	.LVL206:
 1684              	.L123:
 1685 006e 00BF     		.align	2
 1686              	.L122:
 1687 0070 00000000 		.word	.LANCHOR3
 1688              		.cfi_endproc
 1689              	.LFE345:
 1690              		.size	mmcSequentialWrite, .-mmcSequentialWrite
 1691              		.section	.text.mmcStopSequentialWrite,"ax",%progbits
 1692              		.align	1
 1693              		.global	mmcStopSequentialWrite
 1694              		.thumb
 1695              		.thumb_func
 1696              		.type	mmcStopSequentialWrite, %function
 1697              	mmcStopSequentialWrite:
 1698              	.LFB346:
 1699              		.loc 1 828 0
 1700              		.cfi_startproc
 1701              		@ args = 0, pretend = 0, frame = 0
 1702              		@ frame_needed = 0, uses_anonymous_args = 0
 1703              	.LVL207:
 1704              		.loc 1 833 0
 1705 0000 0379     		ldrb	r3, [r0, #4]	@ zero_extendqisi2
 1706 0002 072B     		cmp	r3, #7
 1707              		.loc 1 828 0
 1708 0004 10B5     		push	{r4, lr}
 1709              		.cfi_def_cfa_offset 8
 1710              		.cfi_offset 4, -8
ARM GAS  /tmp/ccN6R7vU.s 			page 31


 1711              		.cfi_offset 14, -4
 1712              		.loc 1 828 0
 1713 0006 0446     		mov	r4, r0
 1714              		.loc 1 833 0
 1715 0008 0DD1     		bne	.L126
 1716              	.LVL208:
 1717              	.LBB135:
 1718              	.LBB136:
 1719              		.loc 1 837 0
 1720 000a C36A     		ldr	r3, [r0, #44]
 1721 000c 074A     		ldr	r2, .L127
 1722 000e 1868     		ldr	r0, [r3]
 1723              	.LVL209:
 1724 0010 0221     		movs	r1, #2
 1725 0012 FFF7FEFF 		bl	spiSendHook
 1726              	.LVL210:
 1727              		.loc 1 838 0
 1728 0016 E36A     		ldr	r3, [r4, #44]
 1729 0018 1868     		ldr	r0, [r3]
 1730 001a FFF7FEFF 		bl	spiUnselectHook
 1731              	.LVL211:
 1732              		.loc 1 841 0
 1733 001e 0523     		movs	r3, #5
 1734 0020 2371     		strb	r3, [r4, #4]
 1735 0022 0020     		movs	r0, #0
 1736 0024 10BD     		pop	{r4, pc}
 1737              	.LVL212:
 1738              	.L126:
 1739              	.LBE136:
 1740              	.LBE135:
 1741              		.loc 1 834 0
 1742 0026 0120     		movs	r0, #1
 1743              	.LVL213:
 1744              		.loc 1 843 0
 1745 0028 10BD     		pop	{r4, pc}
 1746              	.LVL214:
 1747              	.L128:
 1748 002a 00BF     		.align	2
 1749              	.L127:
 1750 002c 00000000 		.word	.LANCHOR4
 1751              		.cfi_endproc
 1752              	.LFE346:
 1753              		.size	mmcStopSequentialWrite, .-mmcStopSequentialWrite
 1754              		.section	.text.mmc_write,"ax",%progbits
 1755              		.align	1
 1756              		.thumb
 1757              		.thumb_func
 1758              		.type	mmc_write, %function
 1759              	mmc_write:
 1760              	.LFB324:
 1761              		.loc 1 137 0
 1762              		.cfi_startproc
 1763              		@ args = 0, pretend = 0, frame = 0
 1764              		@ frame_needed = 0, uses_anonymous_args = 0
 1765              	.LVL215:
 1766 0000 70B5     		push	{r4, r5, r6, lr}
 1767              		.cfi_def_cfa_offset 16
ARM GAS  /tmp/ccN6R7vU.s 			page 32


 1768              		.cfi_offset 4, -16
 1769              		.cfi_offset 5, -12
 1770              		.cfi_offset 6, -8
 1771              		.cfi_offset 14, -4
 1772              		.loc 1 137 0
 1773 0002 0646     		mov	r6, r0
 1774 0004 1546     		mov	r5, r2
 1775 0006 1C46     		mov	r4, r3
 1776              		.loc 1 139 0
 1777 0008 FFF7FEFF 		bl	mmcStartSequentialWrite
 1778              	.LVL216:
 1779 000c 68B9     		cbnz	r0, .L132
 1780              	.LVL217:
 1781              	.L131:
 1782              		.loc 1 144 0
 1783 000e 3046     		mov	r0, r6
 1784              		.loc 1 143 0
 1785 0010 3CB1     		cbz	r4, .L134
 1786              	.LVL218:
 1787              		.loc 1 144 0
 1788 0012 2946     		mov	r1, r5
 1789 0014 FFF7FEFF 		bl	mmcSequentialWrite
 1790              	.LVL219:
 1791 0018 38B9     		cbnz	r0, .L132
 1792              	.LVL220:
 1793              		.loc 1 147 0
 1794 001a 05F50075 		add	r5, r5, #512
 1795              	.LVL221:
 1796              		.loc 1 148 0
 1797 001e 013C     		subs	r4, r4, #1
 1798              	.LVL222:
 1799 0020 F5E7     		b	.L131
 1800              	.LVL223:
 1801              	.L134:
 1802              		.loc 1 155 0
 1803 0022 BDE87040 		pop	{r4, r5, r6, lr}
 1804              		.cfi_remember_state
 1805              		.cfi_restore 14
 1806              		.cfi_restore 6
 1807              		.cfi_restore 5
 1808              		.cfi_restore 4
 1809              		.cfi_def_cfa_offset 0
 1810              	.LVL224:
 1811              	.LBB139:
 1812              	.LBB140:
 1813              		.loc 1 151 0
 1814 0026 FFF7FEBF 		b	mmcStopSequentialWrite
 1815              	.LVL225:
 1816              	.L132:
 1817              		.cfi_restore_state
 1818              	.LBE140:
 1819              	.LBE139:
 1820              		.loc 1 155 0
 1821 002a 0120     		movs	r0, #1
 1822 002c 70BD     		pop	{r4, r5, r6, pc}
 1823              		.cfi_endproc
 1824              	.LFE324:
ARM GAS  /tmp/ccN6R7vU.s 			page 33


 1825              		.size	mmc_write, .-mmc_write
 1826              		.section	.text.mmcErase,"ax",%progbits
 1827              		.align	1
 1828              		.global	mmcErase
 1829              		.thumb
 1830              		.thumb_func
 1831              		.type	mmcErase, %function
 1832              	mmcErase:
 1833              	.LFB349:
 1834              		.loc 1 914 0
 1835              		.cfi_startproc
 1836              		@ args = 0, pretend = 0, frame = 0
 1837              		@ frame_needed = 0, uses_anonymous_args = 0
 1838              	.LVL226:
 1839 0000 38B5     		push	{r3, r4, r5, lr}
 1840              		.cfi_def_cfa_offset 16
 1841              		.cfi_offset 3, -16
 1842              		.cfi_offset 4, -12
 1843              		.cfi_offset 5, -8
 1844              		.cfi_offset 14, -4
 1845              		.loc 1 914 0
 1846 0002 1546     		mov	r5, r2
 1847              		.loc 1 919 0
 1848 0004 0722     		movs	r2, #7
 1849              	.LVL227:
 1850 0006 0271     		strb	r2, [r0, #4]
 1851              		.loc 1 922 0
 1852 0008 90F83020 		ldrb	r2, [r0, #48]	@ zero_extendqisi2
 1853              		.loc 1 914 0
 1854 000c 0446     		mov	r4, r0
 1855 000e 0B46     		mov	r3, r1
 1856              		.loc 1 922 0
 1857 0010 0AB9     		cbnz	r2, .L136
 1858              		.loc 1 923 0
 1859 0012 4B02     		lsls	r3, r1, #9
 1860              	.LVL228:
 1861              		.loc 1 924 0
 1862 0014 6D02     		lsls	r5, r5, #9
 1863              	.LVL229:
 1864              	.L136:
 1865              		.loc 1 927 0
 1866 0016 2046     		mov	r0, r4
 1867              	.LVL230:
 1868 0018 2021     		movs	r1, #32
 1869 001a 1A46     		mov	r2, r3
 1870 001c FFF7FEFF 		bl	send_command_R1
 1871              	.LVL231:
 1872 0020 70B9     		cbnz	r0, .L137
 1873              		.loc 1 931 0
 1874 0022 2A46     		mov	r2, r5
 1875 0024 2046     		mov	r0, r4
 1876 0026 2121     		movs	r1, #33
 1877 0028 FFF7FEFF 		bl	send_command_R1
 1878              	.LVL232:
 1879 002c 0246     		mov	r2, r0
 1880 002e 38B9     		cbnz	r0, .L137
 1881              		.loc 1 935 0
ARM GAS  /tmp/ccN6R7vU.s 			page 34


 1882 0030 2046     		mov	r0, r4
 1883 0032 2621     		movs	r1, #38
 1884 0034 FFF7FEFF 		bl	send_command_R1
 1885              	.LVL233:
 1886 0038 10B9     		cbnz	r0, .L137
 1887              		.loc 1 939 0
 1888 003a 0523     		movs	r3, #5
 1889 003c 2371     		strb	r3, [r4, #4]
 1890              		.loc 1 940 0
 1891 003e 38BD     		pop	{r3, r4, r5, pc}
 1892              	.LVL234:
 1893              	.L137:
 1894              	.LDL2:
 1895              		.loc 1 944 0
 1896 0040 E36A     		ldr	r3, [r4, #44]
 1897 0042 1868     		ldr	r0, [r3]
 1898 0044 FFF7FEFF 		bl	spiStopHook
 1899              	.LVL235:
 1900              		.loc 1 945 0
 1901 0048 0523     		movs	r3, #5
 1902 004a 2371     		strb	r3, [r4, #4]
 1903              		.loc 1 946 0
 1904 004c 0120     		movs	r0, #1
 1905              		.loc 1 947 0
 1906 004e 38BD     		pop	{r3, r4, r5, pc}
 1907              		.cfi_endproc
 1908              	.LFE349:
 1909              		.size	mmcErase, .-mmcErase
 1910              		.section	.rodata.stopcmd.9262,"a",%progbits
 1911              		.set	.LANCHOR2,. + 0
 1912              		.type	stopcmd.9262, %object
 1913              		.size	stopcmd.9262, 7
 1914              	stopcmd.9262:
 1915 0000 4C       		.byte	76
 1916 0001 00       		.byte	0
 1917 0002 00       		.byte	0
 1918 0003 00       		.byte	0
 1919 0004 00       		.byte	0
 1920 0005 01       		.byte	1
 1921 0006 FF       		.byte	-1
 1922              		.section	.rodata.crc7_lookup_table,"a",%progbits
 1923              		.set	.LANCHOR0,. + 0
 1924              		.type	crc7_lookup_table, %object
 1925              		.size	crc7_lookup_table, 256
 1926              	crc7_lookup_table:
 1927 0000 00       		.byte	0
 1928 0001 09       		.byte	9
 1929 0002 12       		.byte	18
 1930 0003 1B       		.byte	27
 1931 0004 24       		.byte	36
 1932 0005 2D       		.byte	45
 1933 0006 36       		.byte	54
 1934 0007 3F       		.byte	63
 1935 0008 48       		.byte	72
 1936 0009 41       		.byte	65
 1937 000a 5A       		.byte	90
 1938 000b 53       		.byte	83
ARM GAS  /tmp/ccN6R7vU.s 			page 35


 1939 000c 6C       		.byte	108
 1940 000d 65       		.byte	101
 1941 000e 7E       		.byte	126
 1942 000f 77       		.byte	119
 1943 0010 19       		.byte	25
 1944 0011 10       		.byte	16
 1945 0012 0B       		.byte	11
 1946 0013 02       		.byte	2
 1947 0014 3D       		.byte	61
 1948 0015 34       		.byte	52
 1949 0016 2F       		.byte	47
 1950 0017 26       		.byte	38
 1951 0018 51       		.byte	81
 1952 0019 58       		.byte	88
 1953 001a 43       		.byte	67
 1954 001b 4A       		.byte	74
 1955 001c 75       		.byte	117
 1956 001d 7C       		.byte	124
 1957 001e 67       		.byte	103
 1958 001f 6E       		.byte	110
 1959 0020 32       		.byte	50
 1960 0021 3B       		.byte	59
 1961 0022 20       		.byte	32
 1962 0023 29       		.byte	41
 1963 0024 16       		.byte	22
 1964 0025 1F       		.byte	31
 1965 0026 04       		.byte	4
 1966 0027 0D       		.byte	13
 1967 0028 7A       		.byte	122
 1968 0029 73       		.byte	115
 1969 002a 68       		.byte	104
 1970 002b 61       		.byte	97
 1971 002c 5E       		.byte	94
 1972 002d 57       		.byte	87
 1973 002e 4C       		.byte	76
 1974 002f 45       		.byte	69
 1975 0030 2B       		.byte	43
 1976 0031 22       		.byte	34
 1977 0032 39       		.byte	57
 1978 0033 30       		.byte	48
 1979 0034 0F       		.byte	15
 1980 0035 06       		.byte	6
 1981 0036 1D       		.byte	29
 1982 0037 14       		.byte	20
 1983 0038 63       		.byte	99
 1984 0039 6A       		.byte	106
 1985 003a 71       		.byte	113
 1986 003b 78       		.byte	120
 1987 003c 47       		.byte	71
 1988 003d 4E       		.byte	78
 1989 003e 55       		.byte	85
 1990 003f 5C       		.byte	92
 1991 0040 64       		.byte	100
 1992 0041 6D       		.byte	109
 1993 0042 76       		.byte	118
 1994 0043 7F       		.byte	127
 1995 0044 40       		.byte	64
ARM GAS  /tmp/ccN6R7vU.s 			page 36


 1996 0045 49       		.byte	73
 1997 0046 52       		.byte	82
 1998 0047 5B       		.byte	91
 1999 0048 2C       		.byte	44
 2000 0049 25       		.byte	37
 2001 004a 3E       		.byte	62
 2002 004b 37       		.byte	55
 2003 004c 08       		.byte	8
 2004 004d 01       		.byte	1
 2005 004e 1A       		.byte	26
 2006 004f 13       		.byte	19
 2007 0050 7D       		.byte	125
 2008 0051 74       		.byte	116
 2009 0052 6F       		.byte	111
 2010 0053 66       		.byte	102
 2011 0054 59       		.byte	89
 2012 0055 50       		.byte	80
 2013 0056 4B       		.byte	75
 2014 0057 42       		.byte	66
 2015 0058 35       		.byte	53
 2016 0059 3C       		.byte	60
 2017 005a 27       		.byte	39
 2018 005b 2E       		.byte	46
 2019 005c 11       		.byte	17
 2020 005d 18       		.byte	24
 2021 005e 03       		.byte	3
 2022 005f 0A       		.byte	10
 2023 0060 56       		.byte	86
 2024 0061 5F       		.byte	95
 2025 0062 44       		.byte	68
 2026 0063 4D       		.byte	77
 2027 0064 72       		.byte	114
 2028 0065 7B       		.byte	123
 2029 0066 60       		.byte	96
 2030 0067 69       		.byte	105
 2031 0068 1E       		.byte	30
 2032 0069 17       		.byte	23
 2033 006a 0C       		.byte	12
 2034 006b 05       		.byte	5
 2035 006c 3A       		.byte	58
 2036 006d 33       		.byte	51
 2037 006e 28       		.byte	40
 2038 006f 21       		.byte	33
 2039 0070 4F       		.byte	79
 2040 0071 46       		.byte	70
 2041 0072 5D       		.byte	93
 2042 0073 54       		.byte	84
 2043 0074 6B       		.byte	107
 2044 0075 62       		.byte	98
 2045 0076 79       		.byte	121
 2046 0077 70       		.byte	112
 2047 0078 07       		.byte	7
 2048 0079 0E       		.byte	14
 2049 007a 15       		.byte	21
 2050 007b 1C       		.byte	28
 2051 007c 23       		.byte	35
 2052 007d 2A       		.byte	42
ARM GAS  /tmp/ccN6R7vU.s 			page 37


 2053 007e 31       		.byte	49
 2054 007f 38       		.byte	56
 2055 0080 41       		.byte	65
 2056 0081 48       		.byte	72
 2057 0082 53       		.byte	83
 2058 0083 5A       		.byte	90
 2059 0084 65       		.byte	101
 2060 0085 6C       		.byte	108
 2061 0086 77       		.byte	119
 2062 0087 7E       		.byte	126
 2063 0088 09       		.byte	9
 2064 0089 00       		.byte	0
 2065 008a 1B       		.byte	27
 2066 008b 12       		.byte	18
 2067 008c 2D       		.byte	45
 2068 008d 24       		.byte	36
 2069 008e 3F       		.byte	63
 2070 008f 36       		.byte	54
 2071 0090 58       		.byte	88
 2072 0091 51       		.byte	81
 2073 0092 4A       		.byte	74
 2074 0093 43       		.byte	67
 2075 0094 7C       		.byte	124
 2076 0095 75       		.byte	117
 2077 0096 6E       		.byte	110
 2078 0097 67       		.byte	103
 2079 0098 10       		.byte	16
 2080 0099 19       		.byte	25
 2081 009a 02       		.byte	2
 2082 009b 0B       		.byte	11
 2083 009c 34       		.byte	52
 2084 009d 3D       		.byte	61
 2085 009e 26       		.byte	38
 2086 009f 2F       		.byte	47
 2087 00a0 73       		.byte	115
 2088 00a1 7A       		.byte	122
 2089 00a2 61       		.byte	97
 2090 00a3 68       		.byte	104
 2091 00a4 57       		.byte	87
 2092 00a5 5E       		.byte	94
 2093 00a6 45       		.byte	69
 2094 00a7 4C       		.byte	76
 2095 00a8 3B       		.byte	59
 2096 00a9 32       		.byte	50
 2097 00aa 29       		.byte	41
 2098 00ab 20       		.byte	32
 2099 00ac 1F       		.byte	31
 2100 00ad 16       		.byte	22
 2101 00ae 0D       		.byte	13
 2102 00af 04       		.byte	4
 2103 00b0 6A       		.byte	106
 2104 00b1 63       		.byte	99
 2105 00b2 78       		.byte	120
 2106 00b3 71       		.byte	113
 2107 00b4 4E       		.byte	78
 2108 00b5 47       		.byte	71
 2109 00b6 5C       		.byte	92
ARM GAS  /tmp/ccN6R7vU.s 			page 38


 2110 00b7 55       		.byte	85
 2111 00b8 22       		.byte	34
 2112 00b9 2B       		.byte	43
 2113 00ba 30       		.byte	48
 2114 00bb 39       		.byte	57
 2115 00bc 06       		.byte	6
 2116 00bd 0F       		.byte	15
 2117 00be 14       		.byte	20
 2118 00bf 1D       		.byte	29
 2119 00c0 25       		.byte	37
 2120 00c1 2C       		.byte	44
 2121 00c2 37       		.byte	55
 2122 00c3 3E       		.byte	62
 2123 00c4 01       		.byte	1
 2124 00c5 08       		.byte	8
 2125 00c6 13       		.byte	19
 2126 00c7 1A       		.byte	26
 2127 00c8 6D       		.byte	109
 2128 00c9 64       		.byte	100
 2129 00ca 7F       		.byte	127
 2130 00cb 76       		.byte	118
 2131 00cc 49       		.byte	73
 2132 00cd 40       		.byte	64
 2133 00ce 5B       		.byte	91
 2134 00cf 52       		.byte	82
 2135 00d0 3C       		.byte	60
 2136 00d1 35       		.byte	53
 2137 00d2 2E       		.byte	46
 2138 00d3 27       		.byte	39
 2139 00d4 18       		.byte	24
 2140 00d5 11       		.byte	17
 2141 00d6 0A       		.byte	10
 2142 00d7 03       		.byte	3
 2143 00d8 74       		.byte	116
 2144 00d9 7D       		.byte	125
 2145 00da 66       		.byte	102
 2146 00db 6F       		.byte	111
 2147 00dc 50       		.byte	80
 2148 00dd 59       		.byte	89
 2149 00de 42       		.byte	66
 2150 00df 4B       		.byte	75
 2151 00e0 17       		.byte	23
 2152 00e1 1E       		.byte	30
 2153 00e2 05       		.byte	5
 2154 00e3 0C       		.byte	12
 2155 00e4 33       		.byte	51
 2156 00e5 3A       		.byte	58
 2157 00e6 21       		.byte	33
 2158 00e7 28       		.byte	40
 2159 00e8 5F       		.byte	95
 2160 00e9 56       		.byte	86
 2161 00ea 4D       		.byte	77
 2162 00eb 44       		.byte	68
 2163 00ec 7B       		.byte	123
 2164 00ed 72       		.byte	114
 2165 00ee 69       		.byte	105
 2166 00ef 60       		.byte	96
ARM GAS  /tmp/ccN6R7vU.s 			page 39


 2167 00f0 0E       		.byte	14
 2168 00f1 07       		.byte	7
 2169 00f2 1C       		.byte	28
 2170 00f3 15       		.byte	21
 2171 00f4 2A       		.byte	42
 2172 00f5 23       		.byte	35
 2173 00f6 38       		.byte	56
 2174 00f7 31       		.byte	49
 2175 00f8 46       		.byte	70
 2176 00f9 4F       		.byte	79
 2177 00fa 54       		.byte	84
 2178 00fb 5D       		.byte	93
 2179 00fc 62       		.byte	98
 2180 00fd 6B       		.byte	107
 2181 00fe 70       		.byte	112
 2182 00ff 79       		.byte	121
 2183              		.section	.rodata.stop.9279,"a",%progbits
 2184              		.set	.LANCHOR4,. + 0
 2185              		.type	stop.9279, %object
 2186              		.size	stop.9279, 2
 2187              	stop.9279:
 2188 0000 FD       		.byte	-3
 2189 0001 FF       		.byte	-1
 2190              		.section	.rodata.mmc_vmt,"a",%progbits
 2191              		.align	2
 2192              		.set	.LANCHOR1,. + 0
 2193              		.type	mmc_vmt, %object
 2194              		.size	mmc_vmt, 36
 2195              	mmc_vmt:
 2196 0000 00000000 		.word	0
 2197 0004 00000000 		.word	mmc_lld_is_card_inserted
 2198 0008 00000000 		.word	mmc_lld_is_write_protected
 2199 000c 00000000 		.word	mmcConnect
 2200 0010 00000000 		.word	mmcDisconnect
 2201 0014 00000000 		.word	mmc_read
 2202 0018 00000000 		.word	mmc_write
 2203 001c 00000000 		.word	mmcSync
 2204 0020 00000000 		.word	mmcGetInfo
 2205              		.section	.rodata.start.9273,"a",%progbits
 2206              		.set	.LANCHOR3,. + 0
 2207              		.type	start.9273, %object
 2208              		.size	start.9273, 2
 2209              	start.9273:
 2210 0000 FF       		.byte	-1
 2211 0001 FC       		.byte	-4
 2212              		.text
 2213              	.Letext0:
 2214              		.file 5 "/usr/lib/gcc/arm-none-eabi/4.9.3/include/stddef.h"
 2215              		.file 6 "/usr/include/newlib/machine/_default_types.h"
 2216              		.file 7 "/usr/include/newlib/sys/_stdint.h"
 2217              		.file 8 "/usr/include/newlib/stdint.h"
 2218              		.file 9 "../../modules/ChibiOS/os/common/ports/ARMCMx/compilers/GCC/chtypes.h"
 2219              		.file 10 "../../modules/ChibiOS/os/rt/include/chsystypes.h"
 2220              		.file 11 "../../modules/ChibiOS/os/rt/include/chschd.h"
 2221              		.file 12 "../../modules/ChibiOS/os/rt/include/chtime.h"
 2222              		.file 13 "../../modules/ChibiOS/os/common/ext/ST/STM32F4xx/stm32f407xx.h"
 2223              		.file 14 "../../modules/ChibiOS/os/common/ports/ARMCMx/chcore.h"
ARM GAS  /tmp/ccN6R7vU.s 			page 40


 2224              		.file 15 "../../modules/ChibiOS/os/common/ports/ARMCMx/chcore_v7m.h"
 2225              		.file 16 "../../modules/ChibiOS/os/rt/include/chtm.h"
 2226              		.file 17 "../../modules/ChibiOS/os/rt/include/chstats.h"
 2227              		.file 18 "../../modules/ChibiOS/os/rt/include/chsem.h"
 2228              		.file 19 "../../modules/ChibiOS/os/rt/include/chmtx.h"
 2229              		.file 20 "../../modules/ChibiOS/os/hal/ports/STM32/LLD/DMAv2/stm32_dma.h"
 2230              		.file 21 "../../modules/ChibiOS/os/hal/include/hal_ioblock.h"
 2231              		.file 22 "../../modules/ChibiOS/os/hal/ports/STM32/LLD/GPIOv2/stm32_gpio.h"
 2232              		.file 23 "../../modules/ChibiOS/os/hal/ports/STM32/LLD/GPIOv2/hal_pal_lld.h"
 2233              		.file 24 "../../modules/ChibiOS/os/hal/include/hal_spi.h"
 2234              		.file 25 "../../modules/ChibiOS/os/hal/include/hal_mmc_spi.h"
 2235              		.file 26 "../../libraries/AP_HAL_ChibiOS/hwdef/common/spi_hook.h"
 2236              		.file 27 "../../modules/ChibiOS/os/rt/include/chthreads.h"
 2237              		.file 28 "../../modules/ChibiOS/os/hal/include/hal_mmcsd.h"
 2238              		.file 29 "../../modules/ChibiOS/os/common/ext/ARM/CMSIS/Core/Include/core_cm4.h"