ARM GAS  /tmp/ccj5Majl.s 			page 1


   1              		.syntax unified
   2              		.cpu cortex-m4
   3              		.eabi_attribute 27, 1
   4              		.eabi_attribute 28, 1
   5              		.fpu fpv4-sp-d16
   6              		.eabi_attribute 20, 1
   7              		.eabi_attribute 21, 1
   8              		.eabi_attribute 23, 3
   9              		.eabi_attribute 24, 1
  10              		.eabi_attribute 25, 1
  11              		.eabi_attribute 26, 1
  12              		.eabi_attribute 30, 4
  13              		.eabi_attribute 34, 1
  14              		.eabi_attribute 18, 4
  15              		.thumb
  16              		.file	"hal_pwm_lld.c"
  17              		.text
  18              	.Ltext0:
  19              		.cfi_sections	.debug_frame
  20              		.section	.text.pwm_lld_init,"ax",%progbits
  21              		.align	1
  22              		.global	pwm_lld_init
  23              		.thumb
  24              		.thumb_func
  25              		.type	pwm_lld_init, %function
  26              	pwm_lld_init:
  27              	.LFB323:
  28              		.file 1 "../../modules/ChibiOS/os/hal/ports/STM32/LLD/TIMv1/hal_pwm_lld.c"
  29              		.loc 1 377 0
  30              		.cfi_startproc
  31              		@ args = 0, pretend = 0, frame = 0
  32              		@ frame_needed = 0, uses_anonymous_args = 0
  33 0000 38B5     		push	{r3, r4, r5, lr}
  34              		.cfi_def_cfa_offset 16
  35              		.cfi_offset 3, -16
  36              		.cfi_offset 4, -12
  37              		.cfi_offset 5, -8
  38              		.cfi_offset 14, -4
  39              		.loc 1 381 0
  40 0002 104C     		ldr	r4, .L2
  41 0004 2046     		mov	r0, r4
  42 0006 FFF7FEFF 		bl	pwmObjectInit
  43              	.LVL0:
  44              		.loc 1 382 0
  45 000a 0425     		movs	r5, #4
  46              		.loc 1 383 0
  47 000c 0E4B     		ldr	r3, .L2+4
  48 000e A361     		str	r3, [r4, #24]
  49              		.loc 1 382 0
  50 0010 2574     		strb	r5, [r4, #16]
  51              		.loc 1 388 0
  52 0012 0E4C     		ldr	r4, .L2+8
  53 0014 2046     		mov	r0, r4
  54 0016 FFF7FEFF 		bl	pwmObjectInit
  55              	.LVL1:
  56              		.loc 1 390 0
  57 001a 4FF08043 		mov	r3, #1073741824
ARM GAS  /tmp/ccj5Majl.s 			page 2


  58 001e A361     		str	r3, [r4, #24]
  59              		.loc 1 389 0
  60 0020 2574     		strb	r5, [r4, #16]
  61              		.loc 1 402 0
  62 0022 0B4C     		ldr	r4, .L2+12
  63 0024 2046     		mov	r0, r4
  64 0026 FFF7FEFF 		bl	pwmObjectInit
  65              	.LVL2:
  66              		.loc 1 404 0
  67 002a 0A4B     		ldr	r3, .L2+16
  68 002c A361     		str	r3, [r4, #24]
  69              		.loc 1 403 0
  70 002e 2574     		strb	r5, [r4, #16]
  71              		.loc 1 423 0
  72 0030 094C     		ldr	r4, .L2+20
  73 0032 2046     		mov	r0, r4
  74 0034 FFF7FEFF 		bl	pwmObjectInit
  75              	.LVL3:
  76              		.loc 1 424 0
  77 0038 0223     		movs	r3, #2
  78 003a 2374     		strb	r3, [r4, #16]
  79              		.loc 1 425 0
  80 003c 074B     		ldr	r3, .L2+24
  81 003e A361     		str	r3, [r4, #24]
  82 0040 38BD     		pop	{r3, r4, r5, pc}
  83              	.L3:
  84 0042 00BF     		.align	2
  85              	.L2:
  86 0044 00000000 		.word	.LANCHOR0
  87 0048 00000140 		.word	1073807360
  88 004c 00000000 		.word	.LANCHOR1
  89 0050 00000000 		.word	.LANCHOR2
  90 0054 00080040 		.word	1073743872
  91 0058 00000000 		.word	.LANCHOR3
  92 005c 00400140 		.word	1073823744
  93              		.cfi_endproc
  94              	.LFE323:
  95              		.size	pwm_lld_init, .-pwm_lld_init
  96              		.section	.text.pwm_lld_start,"ax",%progbits
  97              		.align	1
  98              		.global	pwm_lld_start
  99              		.thumb
 100              		.thumb_func
 101              		.type	pwm_lld_start, %function
 102              	pwm_lld_start:
 103              	.LFB324:
 104              		.loc 1 473 0
 105              		.cfi_startproc
 106              		@ args = 0, pretend = 0, frame = 0
 107              		@ frame_needed = 0, uses_anonymous_args = 0
 108              	.LVL4:
 109              		.loc 1 477 0
 110 0000 0378     		ldrb	r3, [r0]	@ zero_extendqisi2
 111 0002 8269     		ldr	r2, [r0, #24]
 112 0004 012B     		cmp	r3, #1
 113              		.loc 1 473 0
 114 0006 10B5     		push	{r4, lr}
ARM GAS  /tmp/ccj5Majl.s 			page 3


 115              		.cfi_def_cfa_offset 8
 116              		.cfi_offset 4, -8
 117              		.cfi_offset 14, -4
 118              		.loc 1 477 0
 119 0008 5ED1     		bne	.L5
 120              		.loc 1 480 0
 121 000a 574B     		ldr	r3, .L39
 122 000c 9842     		cmp	r0, r3
 123 000e 11D1     		bne	.L6
 124              		.loc 1 481 0
 125 0010 564B     		ldr	r3, .L39+4
 126 0012 596C     		ldr	r1, [r3, #68]
 127 0014 41F00101 		orr	r1, r1, #1
 128 0018 5964     		str	r1, [r3, #68]
 129 001a 596E     		ldr	r1, [r3, #100]
 130 001c 41F00101 		orr	r1, r1, #1
 131 0020 5966     		str	r1, [r3, #100]
 132 0022 596E     		ldr	r1, [r3, #100]
 133              		.loc 1 482 0
 134 0024 596A     		ldr	r1, [r3, #36]
 135 0026 41F00101 		orr	r1, r1, #1
 136 002a 5962     		str	r1, [r3, #36]
 137 002c 596A     		ldr	r1, [r3, #36]
 138 002e 21F00101 		bic	r1, r1, #1
 139 0032 40E0     		b	.L36
 140              	.L6:
 141              		.loc 1 496 0
 142 0034 4E4B     		ldr	r3, .L39+8
 143 0036 9842     		cmp	r0, r3
 144 0038 11D1     		bne	.L8
 145              		.loc 1 497 0
 146 003a 4C4B     		ldr	r3, .L39+4
 147 003c 196C     		ldr	r1, [r3, #64]
 148 003e 41F00101 		orr	r1, r1, #1
 149 0042 1964     		str	r1, [r3, #64]
 150 0044 196E     		ldr	r1, [r3, #96]
 151 0046 41F00101 		orr	r1, r1, #1
 152 004a 1966     		str	r1, [r3, #96]
 153 004c 196E     		ldr	r1, [r3, #96]
 154              		.loc 1 498 0
 155 004e 196A     		ldr	r1, [r3, #32]
 156 0050 41F00101 		orr	r1, r1, #1
 157 0054 1962     		str	r1, [r3, #32]
 158 0056 196A     		ldr	r1, [r3, #32]
 159 0058 21F00101 		bic	r1, r1, #1
 160 005c 13E0     		b	.L37
 161              	.L8:
 162              		.loc 1 526 0
 163 005e 454B     		ldr	r3, .L39+12
 164 0060 9842     		cmp	r0, r3
 165 0062 14D1     		bne	.L9
 166              		.loc 1 527 0
 167 0064 414B     		ldr	r3, .L39+4
 168 0066 196C     		ldr	r1, [r3, #64]
 169 0068 41F00401 		orr	r1, r1, #4
 170 006c 1964     		str	r1, [r3, #64]
 171 006e 196E     		ldr	r1, [r3, #96]
ARM GAS  /tmp/ccj5Majl.s 			page 4


 172 0070 41F00401 		orr	r1, r1, #4
 173 0074 1966     		str	r1, [r3, #96]
 174 0076 196E     		ldr	r1, [r3, #96]
 175              		.loc 1 528 0
 176 0078 196A     		ldr	r1, [r3, #32]
 177 007a 41F00401 		orr	r1, r1, #4
 178 007e 1962     		str	r1, [r3, #32]
 179 0080 196A     		ldr	r1, [r3, #32]
 180 0082 21F00401 		bic	r1, r1, #4
 181              	.L37:
 182 0086 1962     		str	r1, [r3, #32]
 183 0088 1B6A     		ldr	r3, [r3, #32]
 184              		.loc 1 535 0
 185 008a 3B4B     		ldr	r3, .L39+16
 186 008c 16E0     		b	.L35
 187              	.L9:
 188              		.loc 1 572 0
 189 008e 3B4B     		ldr	r3, .L39+20
 190 0090 9842     		cmp	r0, r3
 191 0092 14D1     		bne	.L7
 192              		.loc 1 573 0
 193 0094 354B     		ldr	r3, .L39+4
 194 0096 596C     		ldr	r1, [r3, #68]
 195 0098 41F48031 		orr	r1, r1, #65536
 196 009c 5964     		str	r1, [r3, #68]
 197 009e 596E     		ldr	r1, [r3, #100]
 198 00a0 41F48031 		orr	r1, r1, #65536
 199 00a4 5966     		str	r1, [r3, #100]
 200 00a6 596E     		ldr	r1, [r3, #100]
 201              		.loc 1 574 0
 202 00a8 596A     		ldr	r1, [r3, #36]
 203 00aa 41F48031 		orr	r1, r1, #65536
 204 00ae 5962     		str	r1, [r3, #36]
 205 00b0 596A     		ldr	r1, [r3, #36]
 206 00b2 21F48031 		bic	r1, r1, #65536
 207              	.L36:
 208 00b6 5962     		str	r1, [r3, #36]
 209 00b8 5B6A     		ldr	r3, [r3, #36]
 210              		.loc 1 581 0
 211 00ba 314B     		ldr	r3, .L39+24
 212              	.L35:
 213 00bc 4361     		str	r3, [r0, #20]
 214              	.L7:
 215              		.loc 1 648 0
 216 00be 46F66803 		movw	r3, #26728
 217 00c2 9361     		str	r3, [r2, #24]
 218              		.loc 1 650 0
 219 00c4 D361     		str	r3, [r2, #28]
 220 00c6 06E0     		b	.L10
 221              	.L5:
 222              		.loc 1 659 0
 223 00c8 0023     		movs	r3, #0
 224 00ca 1360     		str	r3, [r2]
 225              		.loc 1 660 0
 226 00cc 5363     		str	r3, [r2, #52]
 227              		.loc 1 661 0
 228 00ce 9363     		str	r3, [r2, #56]
ARM GAS  /tmp/ccj5Majl.s 			page 5


 229              		.loc 1 662 0
 230 00d0 D363     		str	r3, [r2, #60]
 231              		.loc 1 663 0
 232 00d2 1364     		str	r3, [r2, #64]
 233              		.loc 1 670 0
 234 00d4 5362     		str	r3, [r2, #36]
 235              	.L10:
 236              		.loc 1 674 0
 237 00d6 4168     		ldr	r1, [r0, #4]
 238 00d8 4369     		ldr	r3, [r0, #20]
 239 00da 0C68     		ldr	r4, [r1]
 240 00dc B3FBF4F3 		udiv	r3, r3, r4
 241 00e0 013B     		subs	r3, r3, #1
 242              	.LVL5:
 243              		.loc 1 678 0
 244 00e2 9362     		str	r3, [r2, #40]
 245              		.loc 1 679 0
 246 00e4 8368     		ldr	r3, [r0, #8]
 247              	.LVL6:
 248 00e6 013B     		subs	r3, r3, #1
 249 00e8 D362     		str	r3, [r2, #44]
 250              	.LVL7:
 251              		.loc 1 680 0
 252 00ea CB6A     		ldr	r3, [r1, #44]
 253 00ec 5360     		str	r3, [r2, #4]
 254              	.LVL8:
 255              		.loc 1 684 0
 256 00ee CB68     		ldr	r3, [r1, #12]
 257 00f0 03F00F03 		and	r3, r3, #15
 258 00f4 012B     		cmp	r3, #1
 259 00f6 02D0     		beq	.L24
 260 00f8 022B     		cmp	r3, #2
 261 00fa 04D1     		bne	.L34
 262 00fc 00E0     		b	.L12
 263              	.L24:
 264              		.loc 1 683 0
 265 00fe 0023     		movs	r3, #0
 266              	.L12:
 267              	.LVL9:
 268              		.loc 1 689 0
 269 0100 43F00103 		orr	r3, r3, #1
 270              	.LVL10:
 271 0104 00E0     		b	.L11
 272              	.LVL11:
 273              	.L34:
 274              		.loc 1 683 0
 275 0106 0023     		movs	r3, #0
 276              	.LVL12:
 277              	.L11:
 278              		.loc 1 694 0
 279 0108 4869     		ldr	r0, [r1, #20]
 280              	.LVL13:
 281 010a 00F00F00 		and	r0, r0, #15
 282 010e 0128     		cmp	r0, #1
 283 0110 03D0     		beq	.L15
 284 0112 0228     		cmp	r0, #2
 285 0114 03D1     		bne	.L14
ARM GAS  /tmp/ccj5Majl.s 			page 6


 286              		.loc 1 696 0
 287 0116 43F02003 		orr	r3, r3, #32
 288              	.LVL14:
 289              	.L15:
 290              		.loc 1 699 0
 291 011a 43F01003 		orr	r3, r3, #16
 292              	.LVL15:
 293              	.L14:
 294              		.loc 1 704 0
 295 011e C869     		ldr	r0, [r1, #28]
 296 0120 00F00F00 		and	r0, r0, #15
 297 0124 0128     		cmp	r0, #1
 298 0126 03D0     		beq	.L18
 299 0128 0228     		cmp	r0, #2
 300 012a 03D1     		bne	.L17
 301              		.loc 1 706 0
 302 012c 43F40073 		orr	r3, r3, #512
 303              	.LVL16:
 304              	.L18:
 305              		.loc 1 709 0
 306 0130 43F48073 		orr	r3, r3, #256
 307              	.LVL17:
 308              	.L17:
 309              		.loc 1 714 0
 310 0134 486A     		ldr	r0, [r1, #36]
 311 0136 00F00F00 		and	r0, r0, #15
 312 013a 0128     		cmp	r0, #1
 313 013c 03D0     		beq	.L21
 314 013e 0228     		cmp	r0, #2
 315 0140 03D1     		bne	.L20
 316              		.loc 1 716 0
 317 0142 43F40053 		orr	r3, r3, #8192
 318              	.LVL18:
 319              	.L21:
 320              		.loc 1 719 0
 321 0146 43F48053 		orr	r3, r3, #4096
 322              	.LVL19:
 323              	.L20:
 324              		.loc 1 767 0
 325 014a 1362     		str	r3, [r2, #32]
 326              		.loc 1 768 0
 327 014c 0123     		movs	r3, #1
 328              	.LVL20:
 329 014e 5361     		str	r3, [r2, #20]
 330              	.LVL21:
 331              		.loc 1 769 0
 332 0150 0023     		movs	r3, #0
 333 0152 1361     		str	r3, [r2, #16]
 334              		.loc 1 770 0
 335 0154 0B6B     		ldr	r3, [r1, #48]
 336 0156 23F0FF03 		bic	r3, r3, #255
 337 015a D360     		str	r3, [r2, #12]
 338              		.loc 1 776 0
 339 015c 4FF40043 		mov	r3, #32768
 340 0160 5364     		str	r3, [r2, #68]
 341              		.loc 1 780 0
 342 0162 8523     		movs	r3, #133
ARM GAS  /tmp/ccj5Majl.s 			page 7


 343 0164 1360     		str	r3, [r2]
 344 0166 10BD     		pop	{r4, pc}
 345              	.LVL22:
 346              	.L40:
 347              		.align	2
 348              	.L39:
 349 0168 00000000 		.word	.LANCHOR0
 350 016c 00380240 		.word	1073887232
 351 0170 00000000 		.word	.LANCHOR1
 352 0174 00000000 		.word	.LANCHOR2
 353 0178 00BD0105 		.word	84000000
 354 017c 00000000 		.word	.LANCHOR3
 355 0180 007A030A 		.word	168000000
 356              		.cfi_endproc
 357              	.LFE324:
 358              		.size	pwm_lld_start, .-pwm_lld_start
 359              		.section	.text.pwm_lld_stop,"ax",%progbits
 360              		.align	1
 361              		.global	pwm_lld_stop
 362              		.thumb
 363              		.thumb_func
 364              		.type	pwm_lld_stop, %function
 365              	pwm_lld_stop:
 366              	.LFB325:
 367              		.loc 1 791 0
 368              		.cfi_startproc
 369              		@ args = 0, pretend = 0, frame = 0
 370              		@ frame_needed = 0, uses_anonymous_args = 0
 371              		@ link register save eliminated.
 372              	.LVL23:
 373              		.loc 1 794 0
 374 0000 0378     		ldrb	r3, [r0]	@ zero_extendqisi2
 375 0002 022B     		cmp	r3, #2
 376 0004 38D1     		bne	.L41
 377              		.loc 1 795 0
 378 0006 8369     		ldr	r3, [r0, #24]
 379 0008 0022     		movs	r2, #0
 380 000a 1A60     		str	r2, [r3]
 381              		.loc 1 796 0
 382 000c DA60     		str	r2, [r3, #12]
 383              		.loc 1 797 0
 384 000e 1A61     		str	r2, [r3, #16]
 385              		.loc 1 799 0
 386 0010 5A64     		str	r2, [r3, #68]
 387              		.loc 1 803 0
 388 0012 1A4B     		ldr	r3, .L50
 389 0014 9842     		cmp	r0, r3
 390 0016 08D1     		bne	.L44
 391              		.loc 1 808 0
 392 0018 194B     		ldr	r3, .L50+4
 393 001a 5A6C     		ldr	r2, [r3, #68]
 394 001c 22F00102 		bic	r2, r2, #1
 395 0020 5A64     		str	r2, [r3, #68]
 396 0022 5A6E     		ldr	r2, [r3, #100]
 397 0024 22F00102 		bic	r2, r2, #1
 398 0028 24E0     		b	.L48
 399              	.L44:
ARM GAS  /tmp/ccj5Majl.s 			page 8


 400              		.loc 1 813 0
 401 002a 164B     		ldr	r3, .L50+8
 402 002c 9842     		cmp	r0, r3
 403 002e 08D1     		bne	.L46
 404              		.loc 1 817 0
 405 0030 134B     		ldr	r3, .L50+4
 406 0032 1A6C     		ldr	r2, [r3, #64]
 407 0034 22F00102 		bic	r2, r2, #1
 408 0038 1A64     		str	r2, [r3, #64]
 409 003a 1A6E     		ldr	r2, [r3, #96]
 410 003c 22F00102 		bic	r2, r2, #1
 411 0040 0AE0     		b	.L49
 412              	.L46:
 413              		.loc 1 831 0
 414 0042 114B     		ldr	r3, .L50+12
 415 0044 9842     		cmp	r0, r3
 416 0046 0AD1     		bne	.L47
 417              		.loc 1 835 0
 418 0048 0D4B     		ldr	r3, .L50+4
 419 004a 1A6C     		ldr	r2, [r3, #64]
 420 004c 22F00402 		bic	r2, r2, #4
 421 0050 1A64     		str	r2, [r3, #64]
 422 0052 1A6E     		ldr	r2, [r3, #96]
 423 0054 22F00402 		bic	r2, r2, #4
 424              	.L49:
 425 0058 1A66     		str	r2, [r3, #96]
 426 005a 1B6E     		ldr	r3, [r3, #96]
 427 005c 7047     		bx	lr
 428              	.L47:
 429              		.loc 1 859 0
 430 005e 0B4B     		ldr	r3, .L50+16
 431 0060 9842     		cmp	r0, r3
 432 0062 09D1     		bne	.L41
 433              		.loc 1 863 0
 434 0064 064B     		ldr	r3, .L50+4
 435 0066 5A6C     		ldr	r2, [r3, #68]
 436 0068 22F48032 		bic	r2, r2, #65536
 437 006c 5A64     		str	r2, [r3, #68]
 438 006e 5A6E     		ldr	r2, [r3, #100]
 439 0070 22F48032 		bic	r2, r2, #65536
 440              	.L48:
 441 0074 5A66     		str	r2, [r3, #100]
 442 0076 5B6E     		ldr	r3, [r3, #100]
 443              	.L41:
 444 0078 7047     		bx	lr
 445              	.L51:
 446 007a 00BF     		.align	2
 447              	.L50:
 448 007c 00000000 		.word	.LANCHOR0
 449 0080 00380240 		.word	1073887232
 450 0084 00000000 		.word	.LANCHOR1
 451 0088 00000000 		.word	.LANCHOR2
 452 008c 00000000 		.word	.LANCHOR3
 453              		.cfi_endproc
 454              	.LFE325:
 455              		.size	pwm_lld_stop, .-pwm_lld_stop
 456              		.section	.text.pwm_lld_enable_channel,"ax",%progbits
ARM GAS  /tmp/ccj5Majl.s 			page 9


 457              		.align	1
 458              		.global	pwm_lld_enable_channel
 459              		.thumb
 460              		.thumb_func
 461              		.type	pwm_lld_enable_channel, %function
 462              	pwm_lld_enable_channel:
 463              	.LFB326:
 464              		.loc 1 914 0
 465              		.cfi_startproc
 466              		@ args = 0, pretend = 0, frame = 0
 467              		@ frame_needed = 0, uses_anonymous_args = 0
 468              		@ link register save eliminated.
 469              	.LVL24:
 470              		.loc 1 918 0
 471 0000 8369     		ldr	r3, [r0, #24]
 472 0002 0C31     		adds	r1, r1, #12
 473              	.LVL25:
 474 0004 03EB8103 		add	r3, r3, r1, lsl #2
 475 0008 5A60     		str	r2, [r3, #4]
 476 000a 7047     		bx	lr
 477              		.cfi_endproc
 478              	.LFE326:
 479              		.size	pwm_lld_enable_channel, .-pwm_lld_enable_channel
 480              		.section	.text.pwm_lld_disable_channel,"ax",%progbits
 481              		.align	1
 482              		.global	pwm_lld_disable_channel
 483              		.thumb
 484              		.thumb_func
 485              		.type	pwm_lld_disable_channel, %function
 486              	pwm_lld_disable_channel:
 487              	.LFB327:
 488              		.loc 1 939 0
 489              		.cfi_startproc
 490              		@ args = 0, pretend = 0, frame = 0
 491              		@ frame_needed = 0, uses_anonymous_args = 0
 492              		@ link register save eliminated.
 493              	.LVL26:
 494              		.loc 1 942 0
 495 0000 8369     		ldr	r3, [r0, #24]
 496 0002 01F10C02 		add	r2, r1, #12
 497 0006 03EB8202 		add	r2, r3, r2, lsl #2
 498 000a 0020     		movs	r0, #0
 499              	.LVL27:
 500 000c 5060     		str	r0, [r2, #4]
 501              		.loc 1 943 0
 502 000e D868     		ldr	r0, [r3, #12]
 503 0010 0222     		movs	r2, #2
 504 0012 8A40     		lsls	r2, r2, r1
 505 0014 20EA0202 		bic	r2, r0, r2
 506 0018 DA60     		str	r2, [r3, #12]
 507 001a 7047     		bx	lr
 508              		.cfi_endproc
 509              	.LFE327:
 510              		.size	pwm_lld_disable_channel, .-pwm_lld_disable_channel
 511              		.section	.text.pwm_lld_enable_periodic_notification,"ax",%progbits
 512              		.align	1
 513              		.global	pwm_lld_enable_periodic_notification
ARM GAS  /tmp/ccj5Majl.s 			page 10


 514              		.thumb
 515              		.thumb_func
 516              		.type	pwm_lld_enable_periodic_notification, %function
 517              	pwm_lld_enable_periodic_notification:
 518              	.LFB328:
 519              		.loc 1 963 0
 520              		.cfi_startproc
 521              		@ args = 0, pretend = 0, frame = 0
 522              		@ frame_needed = 0, uses_anonymous_args = 0
 523              		@ link register save eliminated.
 524              	.LVL28:
 525              		.loc 1 964 0
 526 0000 8269     		ldr	r2, [r0, #24]
 527 0002 D368     		ldr	r3, [r2, #12]
 528              	.LVL29:
 529              		.loc 1 968 0
 530 0004 D907     		lsls	r1, r3, #31
 531              		.loc 1 969 0
 532 0006 5FBF     		itttt	pl
 533 0008 6FF00101 		mvnpl	r1, #1
 534              		.loc 1 970 0
 535 000c 43F00103 		orrpl	r3, r3, #1
 536              	.LVL30:
 537              		.loc 1 969 0
 538 0010 1161     		strpl	r1, [r2, #16]
 539              		.loc 1 970 0
 540 0012 D360     		strpl	r3, [r2, #12]
 541 0014 7047     		bx	lr
 542              		.cfi_endproc
 543              	.LFE328:
 544              		.size	pwm_lld_enable_periodic_notification, .-pwm_lld_enable_periodic_notification
 545              		.section	.text.pwm_lld_disable_periodic_notification,"ax",%progbits
 546              		.align	1
 547              		.global	pwm_lld_disable_periodic_notification
 548              		.thumb
 549              		.thumb_func
 550              		.type	pwm_lld_disable_periodic_notification, %function
 551              	pwm_lld_disable_periodic_notification:
 552              	.LFB329:
 553              		.loc 1 983 0
 554              		.cfi_startproc
 555              		@ args = 0, pretend = 0, frame = 0
 556              		@ frame_needed = 0, uses_anonymous_args = 0
 557              		@ link register save eliminated.
 558              	.LVL31:
 559              		.loc 1 985 0
 560 0000 8269     		ldr	r2, [r0, #24]
 561 0002 D368     		ldr	r3, [r2, #12]
 562 0004 23F00103 		bic	r3, r3, #1
 563 0008 D360     		str	r3, [r2, #12]
 564 000a 7047     		bx	lr
 565              		.cfi_endproc
 566              	.LFE329:
 567              		.size	pwm_lld_disable_periodic_notification, .-pwm_lld_disable_periodic_notification
 568              		.section	.text.pwm_lld_enable_channel_notification,"ax",%progbits
 569              		.align	1
 570              		.global	pwm_lld_enable_channel_notification
ARM GAS  /tmp/ccj5Majl.s 			page 11


 571              		.thumb
 572              		.thumb_func
 573              		.type	pwm_lld_enable_channel_notification, %function
 574              	pwm_lld_enable_channel_notification:
 575              	.LFB330:
 576              		.loc 1 1000 0
 577              		.cfi_startproc
 578              		@ args = 0, pretend = 0, frame = 0
 579              		@ frame_needed = 0, uses_anonymous_args = 0
 580              		@ link register save eliminated.
 581              	.LVL32:
 582              		.loc 1 1001 0
 583 0000 8069     		ldr	r0, [r0, #24]
 584              	.LVL33:
 585              		.loc 1 1010 0
 586 0002 0223     		movs	r3, #2
 587              		.loc 1 1001 0
 588 0004 C268     		ldr	r2, [r0, #12]
 589              	.LVL34:
 590              		.loc 1 1010 0
 591 0006 8B40     		lsls	r3, r3, r1
 592 0008 1342     		tst	r3, r2
 593              		.loc 1 1011 0
 594 000a 01BF     		itttt	eq
 595 000c D943     		mvneq	r1, r3
 596              	.LVL35:
 597              		.loc 1 1012 0
 598 000e 1343     		orreq	r3, r3, r2
 599              		.loc 1 1011 0
 600 0010 0161     		streq	r1, [r0, #16]
 601              		.loc 1 1012 0
 602 0012 C360     		streq	r3, [r0, #12]
 603 0014 7047     		bx	lr
 604              		.cfi_endproc
 605              	.LFE330:
 606              		.size	pwm_lld_enable_channel_notification, .-pwm_lld_enable_channel_notification
 607              		.section	.text.pwm_lld_disable_channel_notification,"ax",%progbits
 608              		.align	1
 609              		.global	pwm_lld_disable_channel_notification
 610              		.thumb
 611              		.thumb_func
 612              		.type	pwm_lld_disable_channel_notification, %function
 613              	pwm_lld_disable_channel_notification:
 614              	.LFB331:
 615              		.loc 1 1028 0
 616              		.cfi_startproc
 617              		@ args = 0, pretend = 0, frame = 0
 618              		@ frame_needed = 0, uses_anonymous_args = 0
 619              		@ link register save eliminated.
 620              	.LVL36:
 621              		.loc 1 1030 0
 622 0000 8069     		ldr	r0, [r0, #24]
 623              	.LVL37:
 624 0002 0222     		movs	r2, #2
 625 0004 C368     		ldr	r3, [r0, #12]
 626 0006 8A40     		lsls	r2, r2, r1
 627 0008 23EA0203 		bic	r3, r3, r2
ARM GAS  /tmp/ccj5Majl.s 			page 12


 628 000c C360     		str	r3, [r0, #12]
 629 000e 7047     		bx	lr
 630              		.cfi_endproc
 631              	.LFE331:
 632              		.size	pwm_lld_disable_channel_notification, .-pwm_lld_disable_channel_notification
 633              		.section	.text.pwm_lld_serve_interrupt,"ax",%progbits
 634              		.align	1
 635              		.global	pwm_lld_serve_interrupt
 636              		.thumb
 637              		.thumb_func
 638              		.type	pwm_lld_serve_interrupt, %function
 639              	pwm_lld_serve_interrupt:
 640              	.LFB332:
 641              		.loc 1 1043 0
 642              		.cfi_startproc
 643              		@ args = 0, pretend = 0, frame = 0
 644              		@ frame_needed = 0, uses_anonymous_args = 0
 645              	.LVL38:
 646              		.loc 1 1046 0
 647 0000 8369     		ldr	r3, [r0, #24]
 648              		.loc 1 1043 0
 649 0002 70B5     		push	{r4, r5, r6, lr}
 650              		.cfi_def_cfa_offset 16
 651              		.cfi_offset 4, -16
 652              		.cfi_offset 5, -12
 653              		.cfi_offset 6, -8
 654              		.cfi_offset 14, -4
 655              		.loc 1 1046 0
 656 0004 1A69     		ldr	r2, [r3, #16]
 657              	.LVL39:
 658              		.loc 1 1047 0
 659 0006 DD68     		ldr	r5, [r3, #12]
 660 0008 1540     		ands	r5, r5, r2
 661              	.LVL40:
 662 000a EAB2     		uxtb	r2, r5
 663              		.loc 1 1048 0
 664 000c D243     		mvns	r2, r2
 665              		.loc 1 1049 0
 666 000e AE07     		lsls	r6, r5, #30
 667              		.loc 1 1043 0
 668 0010 0446     		mov	r4, r0
 669              		.loc 1 1048 0
 670 0012 1A61     		str	r2, [r3, #16]
 671              		.loc 1 1049 0
 672 0014 03D5     		bpl	.L61
 673              		.loc 1 1050 0 discriminator 1
 674 0016 4368     		ldr	r3, [r0, #4]
 675 0018 1B69     		ldr	r3, [r3, #16]
 676              		.loc 1 1049 0 discriminator 1
 677 001a 03B1     		cbz	r3, .L61
 678              		.loc 1 1051 0
 679 001c 9847     		blx	r3
 680              	.LVL41:
 681              	.L61:
 682              		.loc 1 1052 0
 683 001e 6807     		lsls	r0, r5, #29
 684 0020 04D5     		bpl	.L62
ARM GAS  /tmp/ccj5Majl.s 			page 13


 685              		.loc 1 1053 0 discriminator 1
 686 0022 6368     		ldr	r3, [r4, #4]
 687 0024 9B69     		ldr	r3, [r3, #24]
 688              		.loc 1 1052 0 discriminator 1
 689 0026 0BB1     		cbz	r3, .L62
 690              		.loc 1 1054 0
 691 0028 2046     		mov	r0, r4
 692 002a 9847     		blx	r3
 693              	.LVL42:
 694              	.L62:
 695              		.loc 1 1055 0
 696 002c 2907     		lsls	r1, r5, #28
 697 002e 04D5     		bpl	.L63
 698              		.loc 1 1056 0 discriminator 1
 699 0030 6368     		ldr	r3, [r4, #4]
 700 0032 1B6A     		ldr	r3, [r3, #32]
 701              		.loc 1 1055 0 discriminator 1
 702 0034 0BB1     		cbz	r3, .L63
 703              		.loc 1 1057 0
 704 0036 2046     		mov	r0, r4
 705 0038 9847     		blx	r3
 706              	.LVL43:
 707              	.L63:
 708              		.loc 1 1058 0
 709 003a EA06     		lsls	r2, r5, #27
 710 003c 04D5     		bpl	.L64
 711              		.loc 1 1059 0 discriminator 1
 712 003e 6368     		ldr	r3, [r4, #4]
 713 0040 9B6A     		ldr	r3, [r3, #40]
 714              		.loc 1 1058 0 discriminator 1
 715 0042 0BB1     		cbz	r3, .L64
 716              		.loc 1 1060 0
 717 0044 2046     		mov	r0, r4
 718 0046 9847     		blx	r3
 719              	.LVL44:
 720              	.L64:
 721              		.loc 1 1061 0
 722 0048 EB07     		lsls	r3, r5, #31
 723 004a 06D5     		bpl	.L60
 724              		.loc 1 1061 0 is_stmt 0 discriminator 1
 725 004c 6368     		ldr	r3, [r4, #4]
 726 004e 9B68     		ldr	r3, [r3, #8]
 727 0050 1BB1     		cbz	r3, .L60
 728              		.loc 1 1062 0 is_stmt 1
 729 0052 2046     		mov	r0, r4
 730              		.loc 1 1063 0
 731 0054 BDE87040 		pop	{r4, r5, r6, lr}
 732              		.cfi_remember_state
 733              		.cfi_restore 14
 734              		.cfi_restore 6
 735              		.cfi_restore 5
 736              		.cfi_restore 4
 737              		.cfi_def_cfa_offset 0
 738              	.LVL45:
 739              		.loc 1 1062 0
 740 0058 1847     		bx	r3	@ indirect register sibling call
 741              	.LVL46:
ARM GAS  /tmp/ccj5Majl.s 			page 14


 742              	.L60:
 743              		.cfi_restore_state
 744 005a 70BD     		pop	{r4, r5, r6, pc}
 745              		.cfi_endproc
 746              	.LFE332:
 747              		.size	pwm_lld_serve_interrupt, .-pwm_lld_serve_interrupt
 748              		.global	PWMD9
 749              		.global	PWMD4
 750              		.global	PWMD2
 751              		.global	PWMD1
 752              		.section	.bss.PWMD1,"aw",%nobits
 753              		.align	2
 754              		.set	.LANCHOR0,. + 0
 755              		.type	PWMD1, %object
 756              		.size	PWMD1, 28
 757              	PWMD1:
 758 0000 00000000 		.space	28
 758      00000000 
 758      00000000 
 758      00000000 
 758      00000000 
 759              		.section	.bss.PWMD2,"aw",%nobits
 760              		.align	2
 761              		.set	.LANCHOR1,. + 0
 762              		.type	PWMD2, %object
 763              		.size	PWMD2, 28
 764              	PWMD2:
 765 0000 00000000 		.space	28
 765      00000000 
 765      00000000 
 765      00000000 
 765      00000000 
 766              		.section	.bss.PWMD4,"aw",%nobits
 767              		.align	2
 768              		.set	.LANCHOR2,. + 0
 769              		.type	PWMD4, %object
 770              		.size	PWMD4, 28
 771              	PWMD4:
 772 0000 00000000 		.space	28
 772      00000000 
 772      00000000 
 772      00000000 
 772      00000000 
 773              		.section	.bss.PWMD9,"aw",%nobits
 774              		.align	2
 775              		.set	.LANCHOR3,. + 0
 776              		.type	PWMD9, %object
 777              		.size	PWMD9, 28
 778              	PWMD9:
 779 0000 00000000 		.space	28
 779      00000000 
 779      00000000 
 779      00000000 
 779      00000000 
 780              		.text
 781              	.Letext0:
 782              		.file 2 "/usr/lib/gcc/arm-none-eabi/4.9.3/include/stddef.h"
ARM GAS  /tmp/ccj5Majl.s 			page 15


 783              		.file 3 "/usr/include/newlib/machine/_default_types.h"
 784              		.file 4 "/usr/include/newlib/sys/_stdint.h"
 785              		.file 5 "../../modules/ChibiOS/os/common/ports/ARMCMx/compilers/GCC/chtypes.h"
 786              		.file 6 "../../modules/ChibiOS/os/rt/include/chsystypes.h"
 787              		.file 7 "../../modules/ChibiOS/os/rt/include/chschd.h"
 788              		.file 8 "../../modules/ChibiOS/os/rt/include/chtime.h"
 789              		.file 9 "../../modules/ChibiOS/os/common/ext/ST/STM32F4xx/stm32f407xx.h"
 790              		.file 10 "../../modules/ChibiOS/os/common/ports/ARMCMx/chcore.h"
 791              		.file 11 "../../modules/ChibiOS/os/common/ports/ARMCMx/chcore_v7m.h"
 792              		.file 12 "../../modules/ChibiOS/os/hal/ports/STM32/LLD/TIMv1/stm32_tim.h"
 793              		.file 13 "../../modules/ChibiOS/os/rt/include/chtm.h"
 794              		.file 14 "../../modules/ChibiOS/os/rt/include/chstats.h"
 795              		.file 15 "../../modules/ChibiOS/os/rt/include/chsem.h"
 796              		.file 16 "../../modules/ChibiOS/os/rt/include/chmtx.h"
 797              		.file 17 "../../modules/ChibiOS/os/hal/include/hal_pwm.h"
 798              		.file 18 "../../modules/ChibiOS/os/hal/ports/STM32/LLD/TIMv1/hal_pwm_lld.h"
 799              		.file 19 "../../modules/ChibiOS/os/common/ext/ARM/CMSIS/Core/Include/core_cm4.h"