ARM GAS  /tmp/ccpZnBnH.s 			page 1


   1              		.syntax unified
   2              		.cpu cortex-m4
   3              		.eabi_attribute 27, 1
   4              		.eabi_attribute 28, 1
   5              		.fpu fpv4-sp-d16
   6              		.eabi_attribute 20, 1
   7              		.eabi_attribute 21, 1
   8              		.eabi_attribute 23, 3
   9              		.eabi_attribute 24, 1
  10              		.eabi_attribute 25, 1
  11              		.eabi_attribute 26, 1
  12              		.eabi_attribute 30, 4
  13              		.eabi_attribute 34, 1
  14              		.eabi_attribute 18, 4
  15              		.thumb
  16              		.file	"hal_icu.c"
  17              		.text
  18              	.Ltext0:
  19              		.cfi_sections	.debug_frame
  20              		.section	.text.chSysLock,"ax",%progbits
  21              		.align	1
  22              		.thumb
  23              		.thumb_func
  24              		.type	chSysLock, %function
  25              	chSysLock:
  26              	.LFB184:
  27              		.file 1 "../../modules/ChibiOS/os/rt/include/chsys.h"
  28              		.loc 1 353 0
  29              		.cfi_startproc
  30              		@ args = 0, pretend = 0, frame = 0
  31              		@ frame_needed = 0, uses_anonymous_args = 0
  32              		@ link register save eliminated.
  33              	.LVL0:
  34              	.LBB42:
  35              	.LBB43:
  36              	.LBB44:
  37              		.file 2 "../../modules/ChibiOS/os/common/ext/ARM/CMSIS/Core/Include/cmsis_gcc.h"
  38              		.loc 2 493 0
  39 0000 2023     		movs	r3, #32
  40              	@ 493 "../../modules/ChibiOS/os/common/ext/ARM/CMSIS/Core/Include/cmsis_gcc.h" 1
  41 0002 83F31188 		MSR basepri, r3
  42              	@ 0 "" 2
  43              		.thumb
  44              	.LBE44:
  45              	.LBE43:
  46              	.LBE42:
  47              		.loc 1 356 0
  48 0006 FFF7FEBF 		b	_stats_start_measure_crit_thd
  49              	.LVL1:
  50              		.cfi_endproc
  51              	.LFE184:
  52              		.size	chSysLock, .-chSysLock
  53              		.section	.text.chSysUnlock,"ax",%progbits
  54              		.align	1
  55              		.thumb
  56              		.thumb_func
  57              		.type	chSysUnlock, %function
ARM GAS  /tmp/ccpZnBnH.s 			page 2


  58              	chSysUnlock:
  59              	.LFB185:
  60              		.loc 1 365 0
  61              		.cfi_startproc
  62              		@ args = 0, pretend = 0, frame = 0
  63              		@ frame_needed = 0, uses_anonymous_args = 0
  64 0000 08B5     		push	{r3, lr}
  65              		.cfi_def_cfa_offset 8
  66              		.cfi_offset 3, -8
  67              		.cfi_offset 14, -4
  68              		.loc 1 368 0
  69 0002 FFF7FEFF 		bl	_stats_stop_measure_crit_thd
  70              	.LVL2:
  71              	.LBB45:
  72              	.LBB46:
  73              	.LBB47:
  74              		.loc 2 493 0
  75 0006 0023     		movs	r3, #0
  76              	@ 493 "../../modules/ChibiOS/os/common/ext/ARM/CMSIS/Core/Include/cmsis_gcc.h" 1
  77 0008 83F31188 		MSR basepri, r3
  78              	@ 0 "" 2
  79              		.thumb
  80 000c 08BD     		pop	{r3, pc}
  81              	.LBE47:
  82              	.LBE46:
  83              	.LBE45:
  84              		.cfi_endproc
  85              	.LFE185:
  86              		.size	chSysUnlock, .-chSysUnlock
  87              		.section	.text.icuInit,"ax",%progbits
  88              		.align	1
  89              		.global	icuInit
  90              		.thumb
  91              		.thumb_func
  92              		.type	icuInit, %function
  93              	icuInit:
  94              	.LFB323:
  95              		.file 3 "../../modules/ChibiOS/os/hal/src/hal_icu.c"
  96              		.loc 3 56 0
  97              		.cfi_startproc
  98              		@ args = 0, pretend = 0, frame = 0
  99              		@ frame_needed = 0, uses_anonymous_args = 0
 100              		@ link register save eliminated.
 101              		.loc 3 58 0
 102 0000 FFF7FEBF 		b	icu_lld_init
 103              	.LVL3:
 104              		.cfi_endproc
 105              	.LFE323:
 106              		.size	icuInit, .-icuInit
 107              		.section	.text.icuObjectInit,"ax",%progbits
 108              		.align	1
 109              		.global	icuObjectInit
 110              		.thumb
 111              		.thumb_func
 112              		.type	icuObjectInit, %function
 113              	icuObjectInit:
 114              	.LFB324:
ARM GAS  /tmp/ccpZnBnH.s 			page 3


 115              		.loc 3 68 0
 116              		.cfi_startproc
 117              		@ args = 0, pretend = 0, frame = 0
 118              		@ frame_needed = 0, uses_anonymous_args = 0
 119              		@ link register save eliminated.
 120              	.LVL4:
 121              		.loc 3 70 0
 122 0000 0123     		movs	r3, #1
 123 0002 0370     		strb	r3, [r0]
 124              		.loc 3 71 0
 125 0004 0023     		movs	r3, #0
 126 0006 4360     		str	r3, [r0, #4]
 127 0008 7047     		bx	lr
 128              		.cfi_endproc
 129              	.LFE324:
 130              		.size	icuObjectInit, .-icuObjectInit
 131              		.section	.text.icuStart,"ax",%progbits
 132              		.align	1
 133              		.global	icuStart
 134              		.thumb
 135              		.thumb_func
 136              		.type	icuStart, %function
 137              	icuStart:
 138              	.LFB325:
 139              		.loc 3 82 0
 140              		.cfi_startproc
 141              		@ args = 0, pretend = 0, frame = 0
 142              		@ frame_needed = 0, uses_anonymous_args = 0
 143              	.LVL5:
 144 0000 38B5     		push	{r3, r4, r5, lr}
 145              		.cfi_def_cfa_offset 16
 146              		.cfi_offset 3, -16
 147              		.cfi_offset 4, -12
 148              		.cfi_offset 5, -8
 149              		.cfi_offset 14, -4
 150              		.loc 3 82 0
 151 0002 0446     		mov	r4, r0
 152 0004 0D46     		mov	r5, r1
 153              	.LBB48:
 154              	.LBB49:
 155              		.file 4 "../../modules/ChibiOS/os/hal/osal/rt/osal.h"
 156              		.loc 4 511 0
 157 0006 FFF7FEFF 		bl	chSysLock
 158              	.LVL6:
 159              	.LBE49:
 160              	.LBE48:
 161              		.loc 3 89 0
 162 000a 6560     		str	r5, [r4, #4]
 163              		.loc 3 90 0
 164 000c 2046     		mov	r0, r4
 165 000e FFF7FEFF 		bl	icu_lld_start
 166              	.LVL7:
 167              		.loc 3 91 0
 168 0012 0223     		movs	r3, #2
 169 0014 2370     		strb	r3, [r4]
 170              		.loc 3 93 0
 171 0016 BDE83840 		pop	{r3, r4, r5, lr}
ARM GAS  /tmp/ccpZnBnH.s 			page 4


 172              		.cfi_restore 14
 173              		.cfi_restore 5
 174              		.cfi_restore 4
 175              		.cfi_restore 3
 176              		.cfi_def_cfa_offset 0
 177              	.LVL8:
 178              	.LBB50:
 179              	.LBB51:
 180              		.loc 4 522 0
 181 001a FFF7FEBF 		b	chSysUnlock
 182              	.LVL9:
 183              	.LBE51:
 184              	.LBE50:
 185              		.cfi_endproc
 186              	.LFE325:
 187              		.size	icuStart, .-icuStart
 188              		.section	.text.icuStop,"ax",%progbits
 189              		.align	1
 190              		.global	icuStop
 191              		.thumb
 192              		.thumb_func
 193              		.type	icuStop, %function
 194              	icuStop:
 195              	.LFB326:
 196              		.loc 3 102 0
 197              		.cfi_startproc
 198              		@ args = 0, pretend = 0, frame = 0
 199              		@ frame_needed = 0, uses_anonymous_args = 0
 200              	.LVL10:
 201 0000 10B5     		push	{r4, lr}
 202              		.cfi_def_cfa_offset 8
 203              		.cfi_offset 4, -8
 204              		.cfi_offset 14, -4
 205              		.loc 3 102 0
 206 0002 0446     		mov	r4, r0
 207              	.LBB52:
 208              	.LBB53:
 209              		.loc 4 511 0
 210 0004 FFF7FEFF 		bl	chSysLock
 211              	.LVL11:
 212              	.LBE53:
 213              	.LBE52:
 214              		.loc 3 111 0
 215 0008 2046     		mov	r0, r4
 216 000a FFF7FEFF 		bl	icu_lld_stop
 217              	.LVL12:
 218              		.loc 3 112 0
 219 000e 0023     		movs	r3, #0
 220 0010 6360     		str	r3, [r4, #4]
 221              		.loc 3 113 0
 222 0012 0123     		movs	r3, #1
 223 0014 2370     		strb	r3, [r4]
 224              		.loc 3 116 0
 225 0016 BDE81040 		pop	{r4, lr}
 226              		.cfi_restore 14
 227              		.cfi_restore 4
 228              		.cfi_def_cfa_offset 0
ARM GAS  /tmp/ccpZnBnH.s 			page 5


 229              	.LVL13:
 230              	.LBB54:
 231              	.LBB55:
 232              		.loc 4 522 0
 233 001a FFF7FEBF 		b	chSysUnlock
 234              	.LVL14:
 235              	.LBE55:
 236              	.LBE54:
 237              		.cfi_endproc
 238              	.LFE326:
 239              		.size	icuStop, .-icuStop
 240              		.section	.text.icuStartCapture,"ax",%progbits
 241              		.align	1
 242              		.global	icuStartCapture
 243              		.thumb
 244              		.thumb_func
 245              		.type	icuStartCapture, %function
 246              	icuStartCapture:
 247              	.LFB327:
 248              		.loc 3 125 0
 249              		.cfi_startproc
 250              		@ args = 0, pretend = 0, frame = 0
 251              		@ frame_needed = 0, uses_anonymous_args = 0
 252              	.LVL15:
 253 0000 10B5     		push	{r4, lr}
 254              		.cfi_def_cfa_offset 8
 255              		.cfi_offset 4, -8
 256              		.cfi_offset 14, -4
 257              		.loc 3 125 0
 258 0002 0446     		mov	r4, r0
 259              	.LBB56:
 260              	.LBB57:
 261              		.loc 4 511 0
 262 0004 FFF7FEFF 		bl	chSysLock
 263              	.LVL16:
 264              	.LBE57:
 265              	.LBE56:
 266              		.loc 3 131 0
 267 0008 2046     		mov	r0, r4
 268 000a FFF7FEFF 		bl	icu_lld_start_capture
 269              	.LVL17:
 270 000e 0323     		movs	r3, #3
 271 0010 2370     		strb	r3, [r4]
 272              		.loc 3 133 0
 273 0012 BDE81040 		pop	{r4, lr}
 274              		.cfi_restore 14
 275              		.cfi_restore 4
 276              		.cfi_def_cfa_offset 0
 277              	.LVL18:
 278              	.LBB58:
 279              	.LBB59:
 280              		.loc 4 522 0
 281 0016 FFF7FEBF 		b	chSysUnlock
 282              	.LVL19:
 283              	.LBE59:
 284              	.LBE58:
 285              		.cfi_endproc
ARM GAS  /tmp/ccpZnBnH.s 			page 6


 286              	.LFE327:
 287              		.size	icuStartCapture, .-icuStartCapture
 288              		.section	.text.icuWaitCapture,"ax",%progbits
 289              		.align	1
 290              		.global	icuWaitCapture
 291              		.thumb
 292              		.thumb_func
 293              		.type	icuWaitCapture, %function
 294              	icuWaitCapture:
 295              	.LFB328:
 296              		.loc 3 151 0
 297              		.cfi_startproc
 298              		@ args = 0, pretend = 0, frame = 0
 299              		@ frame_needed = 0, uses_anonymous_args = 0
 300              	.LVL20:
 301 0000 38B5     		push	{r3, r4, r5, lr}
 302              		.cfi_def_cfa_offset 16
 303              		.cfi_offset 3, -16
 304              		.cfi_offset 4, -12
 305              		.cfi_offset 5, -8
 306              		.cfi_offset 14, -4
 307              		.loc 3 151 0
 308 0002 0546     		mov	r5, r0
 309              	.LBB60:
 310              	.LBB61:
 311              		.loc 4 511 0
 312 0004 FFF7FEFF 		bl	chSysLock
 313              	.LVL21:
 314              	.LBE61:
 315              	.LBE60:
 316              		.loc 3 161 0
 317 0008 2846     		mov	r0, r5
 318 000a FFF7FEFF 		bl	icu_lld_wait_capture
 319              	.LVL22:
 320              		.loc 3 162 0
 321 000e 0028     		cmp	r0, #0
 322 0010 14BF     		ite	ne
 323 0012 0323     		movne	r3, #3
 324 0014 0423     		moveq	r3, #4
 325 0016 0446     		mov	r4, r0
 326 0018 2B70     		strb	r3, [r5]
 327              	.LBB62:
 328              	.LBB63:
 329              		.loc 4 522 0
 330 001a FFF7FEFF 		bl	chSysUnlock
 331              	.LVL23:
 332              	.LBE63:
 333              	.LBE62:
 334              		.loc 3 166 0
 335 001e 2046     		mov	r0, r4
 336 0020 38BD     		pop	{r3, r4, r5, pc}
 337              		.cfi_endproc
 338              	.LFE328:
 339              		.size	icuWaitCapture, .-icuWaitCapture
 340              		.section	.text.icuStopCapture,"ax",%progbits
 341              		.align	1
 342              		.global	icuStopCapture
ARM GAS  /tmp/ccpZnBnH.s 			page 7


 343              		.thumb
 344              		.thumb_func
 345              		.type	icuStopCapture, %function
 346              	icuStopCapture:
 347              	.LFB329:
 348              		.loc 3 175 0
 349              		.cfi_startproc
 350              		@ args = 0, pretend = 0, frame = 0
 351              		@ frame_needed = 0, uses_anonymous_args = 0
 352              	.LVL24:
 353 0000 10B5     		push	{r4, lr}
 354              		.cfi_def_cfa_offset 8
 355              		.cfi_offset 4, -8
 356              		.cfi_offset 14, -4
 357              		.loc 3 175 0
 358 0002 0446     		mov	r4, r0
 359              	.LBB64:
 360              	.LBB65:
 361              		.loc 4 511 0
 362 0004 FFF7FEFF 		bl	chSysLock
 363              	.LVL25:
 364              	.LBE65:
 365              	.LBE64:
 366              		.loc 3 183 0
 367 0008 2046     		mov	r0, r4
 368 000a FFF7FEFF 		bl	icu_lld_stop_capture
 369              	.LVL26:
 370 000e 0223     		movs	r3, #2
 371 0010 2370     		strb	r3, [r4]
 372              		.loc 3 185 0
 373 0012 BDE81040 		pop	{r4, lr}
 374              		.cfi_restore 14
 375              		.cfi_restore 4
 376              		.cfi_def_cfa_offset 0
 377              	.LVL27:
 378              	.LBB66:
 379              	.LBB67:
 380              		.loc 4 522 0
 381 0016 FFF7FEBF 		b	chSysUnlock
 382              	.LVL28:
 383              	.LBE67:
 384              	.LBE66:
 385              		.cfi_endproc
 386              	.LFE329:
 387              		.size	icuStopCapture, .-icuStopCapture
 388              		.section	.text.icuEnableNotifications,"ax",%progbits
 389              		.align	1
 390              		.global	icuEnableNotifications
 391              		.thumb
 392              		.thumb_func
 393              		.type	icuEnableNotifications, %function
 394              	icuEnableNotifications:
 395              	.LFB330:
 396              		.loc 3 197 0
 397              		.cfi_startproc
 398              		@ args = 0, pretend = 0, frame = 0
 399              		@ frame_needed = 0, uses_anonymous_args = 0
ARM GAS  /tmp/ccpZnBnH.s 			page 8


 400              	.LVL29:
 401 0000 10B5     		push	{r4, lr}
 402              		.cfi_def_cfa_offset 8
 403              		.cfi_offset 4, -8
 404              		.cfi_offset 14, -4
 405              		.loc 3 197 0
 406 0002 0446     		mov	r4, r0
 407              	.LBB68:
 408              	.LBB69:
 409              		.loc 4 511 0
 410 0004 FFF7FEFF 		bl	chSysLock
 411              	.LVL30:
 412              	.LBE69:
 413              	.LBE68:
 414              		.loc 3 204 0
 415 0008 2046     		mov	r0, r4
 416 000a FFF7FEFF 		bl	icu_lld_enable_notifications
 417              	.LVL31:
 418              		.loc 3 206 0
 419 000e BDE81040 		pop	{r4, lr}
 420              		.cfi_restore 14
 421              		.cfi_restore 4
 422              		.cfi_def_cfa_offset 0
 423              	.LVL32:
 424              	.LBB70:
 425              	.LBB71:
 426              		.loc 4 522 0
 427 0012 FFF7FEBF 		b	chSysUnlock
 428              	.LVL33:
 429              	.LBE71:
 430              	.LBE70:
 431              		.cfi_endproc
 432              	.LFE330:
 433              		.size	icuEnableNotifications, .-icuEnableNotifications
 434              		.section	.text.icuDisableNotifications,"ax",%progbits
 435              		.align	1
 436              		.global	icuDisableNotifications
 437              		.thumb
 438              		.thumb_func
 439              		.type	icuDisableNotifications, %function
 440              	icuDisableNotifications:
 441              	.LFB331:
 442              		.loc 3 218 0
 443              		.cfi_startproc
 444              		@ args = 0, pretend = 0, frame = 0
 445              		@ frame_needed = 0, uses_anonymous_args = 0
 446              	.LVL34:
 447 0000 10B5     		push	{r4, lr}
 448              		.cfi_def_cfa_offset 8
 449              		.cfi_offset 4, -8
 450              		.cfi_offset 14, -4
 451              		.loc 3 218 0
 452 0002 0446     		mov	r4, r0
 453              	.LBB72:
 454              	.LBB73:
 455              		.loc 4 511 0
 456 0004 FFF7FEFF 		bl	chSysLock
ARM GAS  /tmp/ccpZnBnH.s 			page 9


 457              	.LVL35:
 458              	.LBE73:
 459              	.LBE72:
 460              		.loc 3 225 0
 461 0008 2046     		mov	r0, r4
 462 000a FFF7FEFF 		bl	icu_lld_disable_notifications
 463              	.LVL36:
 464              		.loc 3 227 0
 465 000e BDE81040 		pop	{r4, lr}
 466              		.cfi_restore 14
 467              		.cfi_restore 4
 468              		.cfi_def_cfa_offset 0
 469              	.LVL37:
 470              	.LBB74:
 471              	.LBB75:
 472              		.loc 4 522 0
 473 0012 FFF7FEBF 		b	chSysUnlock
 474              	.LVL38:
 475              	.LBE75:
 476              	.LBE74:
 477              		.cfi_endproc
 478              	.LFE331:
 479              		.size	icuDisableNotifications, .-icuDisableNotifications
 480              		.text
 481              	.Letext0:
 482              		.file 5 "/usr/include/newlib/machine/_default_types.h"
 483              		.file 6 "/usr/include/newlib/sys/_stdint.h"
 484              		.file 7 "../../modules/ChibiOS/os/common/ports/ARMCMx/compilers/GCC/chtypes.h"
 485              		.file 8 "../../modules/ChibiOS/os/rt/include/chsystypes.h"
 486              		.file 9 "../../modules/ChibiOS/os/rt/include/chschd.h"
 487              		.file 10 "../../modules/ChibiOS/os/rt/include/chtime.h"
 488              		.file 11 "../../modules/ChibiOS/os/common/ports/ARMCMx/chcore.h"
 489              		.file 12 "../../modules/ChibiOS/os/common/ports/ARMCMx/chcore_v7m.h"
 490              		.file 13 "../../modules/ChibiOS/os/hal/ports/STM32/LLD/TIMv1/stm32_tim.h"
 491              		.file 14 "../../modules/ChibiOS/os/rt/include/chtm.h"
 492              		.file 15 "../../modules/ChibiOS/os/rt/include/chstats.h"
 493              		.file 16 "../../modules/ChibiOS/os/rt/include/chsem.h"
 494              		.file 17 "../../modules/ChibiOS/os/rt/include/chmtx.h"
 495              		.file 18 "../../modules/ChibiOS/os/hal/include/hal_icu.h"
 496              		.file 19 "../../modules/ChibiOS/os/hal/ports/STM32/LLD/TIMv1/hal_icu_lld.h"
 497              		.file 20 "../../modules/ChibiOS/os/common/ext/ARM/CMSIS/Core/Include/core_cm4.h"
 498              		.section	.debug_info,"",%progbits
 499              	.Ldebug_info0:
 500 0000 42100000 		.4byte	0x1042
 501 0004 0400     		.2byte	0x4
 502 0006 00000000 		.4byte	.Ldebug_abbrev0
 503 000a 04       		.byte	0x4
 504 000b 01       		.uleb128 0x1
 505 000c 50020000 		.4byte	.LASF167
 506 0010 01       		.byte	0x1
 507 0011 9A070000 		.4byte	.LASF168
 508 0015 3A070000 		.4byte	.LASF169
 509 0019 00000000 		.4byte	.Ldebug_ranges0+0
 510 001d 00000000 		.4byte	0
 511 0021 00000000 		.4byte	.Ldebug_line0
 512 0025 02       		.uleb128 0x2
 513 0026 04       		.byte	0x4
ARM GAS  /tmp/ccpZnBnH.s 			page 10


 514 0027 05       		.byte	0x5
 515 0028 696E7400 		.ascii	"int\000"
 516 002c 03       		.uleb128 0x3
 517 002d 04       		.byte	0x4
 518 002e 07       		.byte	0x7
 519 002f 43020000 		.4byte	.LASF0
 520 0033 03       		.uleb128 0x3
 521 0034 01       		.byte	0x1
 522 0035 06       		.byte	0x6
 523 0036 7D010000 		.4byte	.LASF1
 524 003a 04       		.uleb128 0x4
 525 003b 83000000 		.4byte	.LASF5
 526 003f 05       		.byte	0x5
 527 0040 1D       		.byte	0x1d
 528 0041 45000000 		.4byte	0x45
 529 0045 03       		.uleb128 0x3
 530 0046 01       		.byte	0x1
 531 0047 08       		.byte	0x8
 532 0048 D8050000 		.4byte	.LASF2
 533 004c 03       		.uleb128 0x3
 534 004d 02       		.byte	0x2
 535 004e 05       		.byte	0x5
 536 004f 0B040000 		.4byte	.LASF3
 537 0053 03       		.uleb128 0x3
 538 0054 02       		.byte	0x2
 539 0055 07       		.byte	0x7
 540 0056 45010000 		.4byte	.LASF4
 541 005a 04       		.uleb128 0x4
 542 005b 15040000 		.4byte	.LASF6
 543 005f 05       		.byte	0x5
 544 0060 3F       		.byte	0x3f
 545 0061 65000000 		.4byte	0x65
 546 0065 03       		.uleb128 0x3
 547 0066 04       		.byte	0x4
 548 0067 05       		.byte	0x5
 549 0068 C3010000 		.4byte	.LASF7
 550 006c 04       		.uleb128 0x4
 551 006d E9010000 		.4byte	.LASF8
 552 0071 05       		.byte	0x5
 553 0072 41       		.byte	0x41
 554 0073 77000000 		.4byte	0x77
 555 0077 03       		.uleb128 0x3
 556 0078 04       		.byte	0x4
 557 0079 07       		.byte	0x7
 558 007a 96060000 		.4byte	.LASF9
 559 007e 03       		.uleb128 0x3
 560 007f 08       		.byte	0x8
 561 0080 05       		.byte	0x5
 562 0081 21020000 		.4byte	.LASF10
 563 0085 04       		.uleb128 0x4
 564 0086 5C050000 		.4byte	.LASF11
 565 008a 05       		.byte	0x5
 566 008b 5B       		.byte	0x5b
 567 008c 90000000 		.4byte	0x90
 568 0090 03       		.uleb128 0x3
 569 0091 08       		.byte	0x8
 570 0092 07       		.byte	0x7
ARM GAS  /tmp/ccpZnBnH.s 			page 11


 571 0093 E1000000 		.4byte	.LASF12
 572 0097 04       		.uleb128 0x4
 573 0098 01080000 		.4byte	.LASF13
 574 009c 06       		.byte	0x6
 575 009d 14       		.byte	0x14
 576 009e 3A000000 		.4byte	0x3a
 577 00a2 04       		.uleb128 0x4
 578 00a3 D0050000 		.4byte	.LASF14
 579 00a7 06       		.byte	0x6
 580 00a8 1F       		.byte	0x1f
 581 00a9 5A000000 		.4byte	0x5a
 582 00ad 04       		.uleb128 0x4
 583 00ae 78070000 		.4byte	.LASF15
 584 00b2 06       		.byte	0x6
 585 00b3 20       		.byte	0x20
 586 00b4 6C000000 		.4byte	0x6c
 587 00b8 04       		.uleb128 0x4
 588 00b9 56000000 		.4byte	.LASF16
 589 00bd 06       		.byte	0x6
 590 00be 26       		.byte	0x26
 591 00bf 85000000 		.4byte	0x85
 592 00c3 04       		.uleb128 0x4
 593 00c4 70070000 		.4byte	.LASF17
 594 00c8 07       		.byte	0x7
 595 00c9 27       		.byte	0x27
 596 00ca AD000000 		.4byte	0xad
 597 00ce 04       		.uleb128 0x4
 598 00cf 3C010000 		.4byte	.LASF18
 599 00d3 07       		.byte	0x7
 600 00d4 28       		.byte	0x28
 601 00d5 B8000000 		.4byte	0xb8
 602 00d9 04       		.uleb128 0x4
 603 00da 52080000 		.4byte	.LASF19
 604 00de 07       		.byte	0x7
 605 00df 2A       		.byte	0x2a
 606 00e0 97000000 		.4byte	0x97
 607 00e4 04       		.uleb128 0x4
 608 00e5 CC010000 		.4byte	.LASF20
 609 00e9 07       		.byte	0x7
 610 00ea 2B       		.byte	0x2b
 611 00eb 97000000 		.4byte	0x97
 612 00ef 04       		.uleb128 0x4
 613 00f0 89050000 		.4byte	.LASF21
 614 00f4 07       		.byte	0x7
 615 00f5 2C       		.byte	0x2c
 616 00f6 97000000 		.4byte	0x97
 617 00fa 04       		.uleb128 0x4
 618 00fb B4050000 		.4byte	.LASF22
 619 00ff 07       		.byte	0x7
 620 0100 2E       		.byte	0x2e
 621 0101 AD000000 		.4byte	0xad
 622 0105 04       		.uleb128 0x4
 623 0106 9F030000 		.4byte	.LASF23
 624 010a 07       		.byte	0x7
 625 010b 2F       		.byte	0x2f
 626 010c A2000000 		.4byte	0xa2
 627 0110 04       		.uleb128 0x4
ARM GAS  /tmp/ccpZnBnH.s 			page 12


 628 0111 FF030000 		.4byte	.LASF24
 629 0115 07       		.byte	0x7
 630 0116 31       		.byte	0x31
 631 0117 AD000000 		.4byte	0xad
 632 011b 04       		.uleb128 0x4
 633 011c 3D020000 		.4byte	.LASF25
 634 0120 07       		.byte	0x7
 635 0121 33       		.byte	0x33
 636 0122 A2000000 		.4byte	0xa2
 637 0126 04       		.uleb128 0x4
 638 0127 B4030000 		.4byte	.LASF26
 639 012b 07       		.byte	0x7
 640 012c 34       		.byte	0x34
 641 012d AD000000 		.4byte	0xad
 642 0131 04       		.uleb128 0x4
 643 0132 D0060000 		.4byte	.LASF27
 644 0136 08       		.byte	0x8
 645 0137 34       		.byte	0x34
 646 0138 3C010000 		.4byte	0x13c
 647 013c 05       		.uleb128 0x5
 648 013d 54030000 		.4byte	.LASF46
 649 0141 60       		.byte	0x60
 650 0142 09       		.byte	0x9
 651 0143 8E       		.byte	0x8e
 652 0144 27020000 		.4byte	0x227
 653 0148 06       		.uleb128 0x6
 654 0149 6E030000 		.4byte	.LASF28
 655 014d 09       		.byte	0x9
 656 014e 8F       		.byte	0x8f
 657 014f 5C020000 		.4byte	0x25c
 658 0153 00       		.byte	0
 659 0154 06       		.uleb128 0x6
 660 0155 4F050000 		.4byte	.LASF29
 661 0159 09       		.byte	0x9
 662 015a 90       		.byte	0x90
 663 015b FA000000 		.4byte	0xfa
 664 015f 08       		.byte	0x8
 665 0160 07       		.uleb128 0x7
 666 0161 63747800 		.ascii	"ctx\000"
 667 0165 09       		.byte	0x9
 668 0166 91       		.byte	0x91
 669 0167 9C040000 		.4byte	0x49c
 670 016b 0C       		.byte	0xc
 671 016c 06       		.uleb128 0x6
 672 016d 5B040000 		.4byte	.LASF30
 673 0171 09       		.byte	0x9
 674 0172 93       		.byte	0x93
 675 0173 32020000 		.4byte	0x232
 676 0177 10       		.byte	0x10
 677 0178 06       		.uleb128 0x6
 678 0179 B4060000 		.4byte	.LASF31
 679 017d 09       		.byte	0x9
 680 017e 94       		.byte	0x94
 681 017f 32020000 		.4byte	0x232
 682 0183 14       		.byte	0x14
 683 0184 06       		.uleb128 0x6
 684 0185 9A030000 		.4byte	.LASF32
ARM GAS  /tmp/ccpZnBnH.s 			page 13


 685 0189 09       		.byte	0x9
 686 018a 9B       		.byte	0x9b
 687 018b A4080000 		.4byte	0x8a4
 688 018f 18       		.byte	0x18
 689 0190 06       		.uleb128 0x6
 690 0191 A8060000 		.4byte	.LASF33
 691 0195 09       		.byte	0x9
 692 0196 A4       		.byte	0xa4
 693 0197 B6080000 		.4byte	0x8b6
 694 019b 1C       		.byte	0x1c
 695 019c 06       		.uleb128 0x6
 696 019d BD010000 		.4byte	.LASF34
 697 01a1 09       		.byte	0x9
 698 01a2 A9       		.byte	0xa9
 699 01a3 E4000000 		.4byte	0xe4
 700 01a7 20       		.byte	0x20
 701 01a8 06       		.uleb128 0x6
 702 01a9 09080000 		.4byte	.LASF35
 703 01ad 09       		.byte	0x9
 704 01ae AD       		.byte	0xad
 705 01af D9000000 		.4byte	0xd9
 706 01b3 21       		.byte	0x21
 707 01b4 06       		.uleb128 0x6
 708 01b5 97050000 		.4byte	.LASF36
 709 01b9 09       		.byte	0x9
 710 01ba B2       		.byte	0xb2
 711 01bb EF000000 		.4byte	0xef
 712 01bf 22       		.byte	0x22
 713 01c0 08       		.uleb128 0x8
 714 01c1 7500     		.ascii	"u\000"
 715 01c3 09       		.byte	0x9
 716 01c4 0301     		.2byte	0x103
 717 01c6 DA070000 		.4byte	0x7da
 718 01ca 24       		.byte	0x24
 719 01cb 09       		.uleb128 0x9
 720 01cc 0D020000 		.4byte	.LASF37
 721 01d0 09       		.byte	0x9
 722 01d1 0801     		.2byte	0x108
 723 01d3 38020000 		.4byte	0x238
 724 01d7 28       		.byte	0x28
 725 01d8 09       		.uleb128 0x9
 726 01d9 B4010000 		.4byte	.LASF38
 727 01dd 09       		.byte	0x9
 728 01de 0E01     		.2byte	0x10e
 729 01e0 5C020000 		.4byte	0x25c
 730 01e4 2C       		.byte	0x2c
 731 01e5 09       		.uleb128 0x9
 732 01e6 BB030000 		.4byte	.LASF39
 733 01ea 09       		.byte	0x9
 734 01eb 1401     		.2byte	0x114
 735 01ed 10010000 		.4byte	0x110
 736 01f1 34       		.byte	0x34
 737 01f2 09       		.uleb128 0x9
 738 01f3 AC050000 		.4byte	.LASF40
 739 01f7 09       		.byte	0x9
 740 01f8 1B01     		.2byte	0x11b
 741 01fa 9E080000 		.4byte	0x89e
ARM GAS  /tmp/ccpZnBnH.s 			page 14


 742 01fe 38       		.byte	0x38
 743 01ff 09       		.uleb128 0x9
 744 0200 76040000 		.4byte	.LASF41
 745 0204 09       		.byte	0x9
 746 0205 1F01     		.2byte	0x11f
 747 0207 FA000000 		.4byte	0xfa
 748 020b 3C       		.byte	0x3c
 749 020c 09       		.uleb128 0x9
 750 020d 74030000 		.4byte	.LASF42
 751 0211 09       		.byte	0x9
 752 0212 2601     		.2byte	0x126
 753 0214 0F030000 		.4byte	0x30f
 754 0218 40       		.byte	0x40
 755 0219 09       		.uleb128 0x9
 756 021a DA010000 		.4byte	.LASF43
 757 021e 09       		.byte	0x9
 758 021f 2C01     		.2byte	0x12c
 759 0221 8B070000 		.4byte	0x78b
 760 0225 48       		.byte	0x48
 761 0226 00       		.byte	0
 762 0227 04       		.uleb128 0x4
 763 0228 BB040000 		.4byte	.LASF44
 764 022c 08       		.byte	0x8
 765 022d 39       		.byte	0x39
 766 022e 32020000 		.4byte	0x232
 767 0232 0A       		.uleb128 0xa
 768 0233 04       		.byte	0x4
 769 0234 31010000 		.4byte	0x131
 770 0238 04       		.uleb128 0x4
 771 0239 34080000 		.4byte	.LASF45
 772 023d 08       		.byte	0x8
 773 023e 3E       		.byte	0x3e
 774 023f 43020000 		.4byte	0x243
 775 0243 05       		.uleb128 0x5
 776 0244 80060000 		.4byte	.LASF47
 777 0248 04       		.byte	0x4
 778 0249 09       		.byte	0x9
 779 024a 7C       		.byte	0x7c
 780 024b 5C020000 		.4byte	0x25c
 781 024f 06       		.uleb128 0x6
 782 0250 2E000000 		.4byte	.LASF48
 783 0254 09       		.byte	0x9
 784 0255 7D       		.byte	0x7d
 785 0256 32020000 		.4byte	0x232
 786 025a 00       		.byte	0
 787 025b 00       		.byte	0
 788 025c 04       		.uleb128 0x4
 789 025d 81070000 		.4byte	.LASF49
 790 0261 08       		.byte	0x8
 791 0262 45       		.byte	0x45
 792 0263 67020000 		.4byte	0x267
 793 0267 05       		.uleb128 0x5
 794 0268 9E000000 		.4byte	.LASF50
 795 026c 08       		.byte	0x8
 796 026d 09       		.byte	0x9
 797 026e 83       		.byte	0x83
 798 026f 8C020000 		.4byte	0x28c
ARM GAS  /tmp/ccpZnBnH.s 			page 15


 799 0273 06       		.uleb128 0x6
 800 0274 2E000000 		.4byte	.LASF48
 801 0278 09       		.byte	0x9
 802 0279 84       		.byte	0x84
 803 027a 32020000 		.4byte	0x232
 804 027e 00       		.byte	0
 805 027f 06       		.uleb128 0x6
 806 0280 8D000000 		.4byte	.LASF51
 807 0284 09       		.byte	0x9
 808 0285 85       		.byte	0x85
 809 0286 32020000 		.4byte	0x232
 810 028a 04       		.byte	0x4
 811 028b 00       		.byte	0
 812 028c 04       		.uleb128 0x4
 813 028d 16000000 		.4byte	.LASF52
 814 0291 08       		.byte	0x8
 815 0292 4C       		.byte	0x4c
 816 0293 97020000 		.4byte	0x297
 817 0297 0B       		.uleb128 0xb
 818 0298 F1030000 		.4byte	.LASF53
 819 029c 1C       		.byte	0x1c
 820 029d 09       		.byte	0x9
 821 029e 5E01     		.2byte	0x15e
 822 02a0 F3020000 		.4byte	0x2f3
 823 02a4 09       		.uleb128 0x9
 824 02a5 6E030000 		.4byte	.LASF28
 825 02a9 09       		.byte	0x9
 826 02aa 5F01     		.2byte	0x15f
 827 02ac 5C020000 		.4byte	0x25c
 828 02b0 00       		.byte	0
 829 02b1 09       		.uleb128 0x9
 830 02b2 4F050000 		.4byte	.LASF29
 831 02b6 09       		.byte	0x9
 832 02b7 6001     		.2byte	0x160
 833 02b9 FA000000 		.4byte	0xfa
 834 02bd 08       		.byte	0x8
 835 02be 08       		.uleb128 0x8
 836 02bf 63747800 		.ascii	"ctx\000"
 837 02c3 09       		.byte	0x9
 838 02c4 6201     		.2byte	0x162
 839 02c6 9C040000 		.4byte	0x49c
 840 02ca 0C       		.byte	0xc
 841 02cb 09       		.uleb128 0x9
 842 02cc 5B040000 		.4byte	.LASF30
 843 02d0 09       		.byte	0x9
 844 02d1 6501     		.2byte	0x165
 845 02d3 32020000 		.4byte	0x232
 846 02d7 10       		.byte	0x10
 847 02d8 09       		.uleb128 0x9
 848 02d9 B4060000 		.4byte	.LASF31
 849 02dd 09       		.byte	0x9
 850 02de 6601     		.2byte	0x166
 851 02e0 32020000 		.4byte	0x232
 852 02e4 14       		.byte	0x14
 853 02e5 09       		.uleb128 0x9
 854 02e6 54050000 		.4byte	.LASF54
 855 02ea 09       		.byte	0x9
ARM GAS  /tmp/ccpZnBnH.s 			page 16


 856 02eb 6901     		.2byte	0x169
 857 02ed 32020000 		.4byte	0x232
 858 02f1 18       		.byte	0x18
 859 02f2 00       		.byte	0
 860 02f3 04       		.uleb128 0x4
 861 02f4 E8060000 		.4byte	.LASF55
 862 02f8 08       		.byte	0x8
 863 02f9 51       		.byte	0x51
 864 02fa FE020000 		.4byte	0x2fe
 865 02fe 0A       		.uleb128 0xa
 866 02ff 04       		.byte	0x4
 867 0300 04030000 		.4byte	0x304
 868 0304 0C       		.uleb128 0xc
 869 0305 0F030000 		.4byte	0x30f
 870 0309 0D       		.uleb128 0xd
 871 030a 0F030000 		.4byte	0x30f
 872 030e 00       		.byte	0
 873 030f 0E       		.uleb128 0xe
 874 0310 04       		.byte	0x4
 875 0311 04       		.uleb128 0x4
 876 0312 9C050000 		.4byte	.LASF56
 877 0316 08       		.byte	0x8
 878 0317 56       		.byte	0x56
 879 0318 1C030000 		.4byte	0x31c
 880 031c 0B       		.uleb128 0xb
 881 031d 48060000 		.4byte	.LASF57
 882 0321 14       		.byte	0x14
 883 0322 09       		.byte	0x9
 884 0323 3901     		.2byte	0x139
 885 0325 6B030000 		.4byte	0x36b
 886 0329 09       		.uleb128 0x9
 887 032a 2E000000 		.4byte	.LASF48
 888 032e 09       		.byte	0x9
 889 032f 3A01     		.2byte	0x13a
 890 0331 BC080000 		.4byte	0x8bc
 891 0335 00       		.byte	0
 892 0336 09       		.uleb128 0x9
 893 0337 8D000000 		.4byte	.LASF51
 894 033b 09       		.byte	0x9
 895 033c 3B01     		.2byte	0x13b
 896 033e BC080000 		.4byte	0x8bc
 897 0342 04       		.byte	0x4
 898 0343 09       		.uleb128 0x9
 899 0344 33000000 		.4byte	.LASF58
 900 0348 09       		.byte	0x9
 901 0349 3C01     		.2byte	0x13c
 902 034b 4F040000 		.4byte	0x44f
 903 034f 08       		.byte	0x8
 904 0350 09       		.uleb128 0x9
 905 0351 D5010000 		.4byte	.LASF59
 906 0355 09       		.byte	0x9
 907 0356 3D01     		.2byte	0x13d
 908 0358 F3020000 		.4byte	0x2f3
 909 035c 0C       		.byte	0xc
 910 035d 08       		.uleb128 0x8
 911 035e 70617200 		.ascii	"par\000"
 912 0362 09       		.byte	0x9
ARM GAS  /tmp/ccpZnBnH.s 			page 17


 913 0363 3F01     		.2byte	0x13f
 914 0365 0F030000 		.4byte	0x30f
 915 0369 10       		.byte	0x10
 916 036a 00       		.byte	0
 917 036b 04       		.uleb128 0x4
 918 036c 14010000 		.4byte	.LASF60
 919 0370 08       		.byte	0x8
 920 0371 5B       		.byte	0x5b
 921 0372 76030000 		.4byte	0x376
 922 0376 0B       		.uleb128 0xb
 923 0377 CE040000 		.4byte	.LASF61
 924 037b 10       		.byte	0x10
 925 037c 09       		.byte	0x9
 926 037d 4901     		.2byte	0x149
 927 037f B8030000 		.4byte	0x3b8
 928 0383 09       		.uleb128 0x9
 929 0384 2E000000 		.4byte	.LASF48
 930 0388 09       		.byte	0x9
 931 0389 4A01     		.2byte	0x14a
 932 038b BC080000 		.4byte	0x8bc
 933 038f 00       		.byte	0
 934 0390 09       		.uleb128 0x9
 935 0391 8D000000 		.4byte	.LASF51
 936 0395 09       		.byte	0x9
 937 0396 4C01     		.2byte	0x14c
 938 0398 BC080000 		.4byte	0x8bc
 939 039c 04       		.byte	0x4
 940 039d 09       		.uleb128 0x9
 941 039e 33000000 		.4byte	.LASF58
 942 03a2 09       		.byte	0x9
 943 03a3 4E01     		.2byte	0x14e
 944 03a5 4F040000 		.4byte	0x44f
 945 03a9 08       		.byte	0x8
 946 03aa 09       		.uleb128 0x9
 947 03ab F0050000 		.4byte	.LASF62
 948 03af 09       		.byte	0x9
 949 03b0 5601     		.2byte	0x156
 950 03b2 44040000 		.4byte	0x444
 951 03b6 0C       		.byte	0xc
 952 03b7 00       		.byte	0
 953 03b8 04       		.uleb128 0x4
 954 03b9 AF000000 		.4byte	.LASF63
 955 03bd 08       		.byte	0x8
 956 03be 60       		.byte	0x60
 957 03bf C3030000 		.4byte	0x3c3
 958 03c3 0B       		.uleb128 0xb
 959 03c4 FD010000 		.4byte	.LASF64
 960 03c8 04       		.byte	0x4
 961 03c9 09       		.byte	0x9
 962 03ca 7001     		.2byte	0x170
 963 03cc DE030000 		.4byte	0x3de
 964 03d0 09       		.uleb128 0x9
 965 03d1 FF060000 		.4byte	.LASF65
 966 03d5 09       		.byte	0x9
 967 03d6 7801     		.2byte	0x178
 968 03d8 C2080000 		.4byte	0x8c2
 969 03dc 00       		.byte	0
ARM GAS  /tmp/ccpZnBnH.s 			page 18


 970 03dd 00       		.byte	0
 971 03de 04       		.uleb128 0x4
 972 03df C4030000 		.4byte	.LASF66
 973 03e3 08       		.byte	0x8
 974 03e4 65       		.byte	0x65
 975 03e5 E9030000 		.4byte	0x3e9
 976 03e9 0B       		.uleb128 0xb
 977 03ea 08060000 		.4byte	.LASF67
 978 03ee D0       		.byte	0xd0
 979 03ef 09       		.byte	0x9
 980 03f0 9001     		.2byte	0x190
 981 03f2 44040000 		.4byte	0x444
 982 03f6 09       		.uleb128 0x9
 983 03f7 93010000 		.4byte	.LASF68
 984 03fb 09       		.byte	0x9
 985 03fc 9401     		.2byte	0x194
 986 03fe 8C020000 		.4byte	0x28c
 987 0402 00       		.byte	0
 988 0403 09       		.uleb128 0x9
 989 0404 A1010000 		.4byte	.LASF69
 990 0408 09       		.byte	0x9
 991 0409 9801     		.2byte	0x198
 992 040b 6B030000 		.4byte	0x36b
 993 040f 1C       		.byte	0x1c
 994 0410 08       		.uleb128 0x8
 995 0411 64626700 		.ascii	"dbg\000"
 996 0415 09       		.byte	0x9
 997 0416 9C01     		.2byte	0x19c
 998 0418 B8030000 		.4byte	0x3b8
 999 041c 2C       		.byte	0x2c
 1000 041d 09       		.uleb128 0x9
 1001 041e 01010000 		.4byte	.LASF70
 1002 0422 09       		.byte	0x9
 1003 0423 A001     		.2byte	0x1a0
 1004 0425 31010000 		.4byte	0x131
 1005 0429 30       		.byte	0x30
 1006 042a 08       		.uleb128 0x8
 1007 042b 746D00   		.ascii	"tm\000"
 1008 042e 09       		.byte	0x9
 1009 042f A501     		.2byte	0x1a5
 1010 0431 3D070000 		.4byte	0x73d
 1011 0435 90       		.byte	0x90
 1012 0436 09       		.uleb128 0x9
 1013 0437 5F000000 		.4byte	.LASF71
 1014 043b 09       		.byte	0x9
 1015 043c AB01     		.2byte	0x1ab
 1016 043e CF070000 		.4byte	0x7cf
 1017 0442 98       		.byte	0x98
 1018 0443 00       		.byte	0
 1019 0444 04       		.uleb128 0x4
 1020 0445 DE060000 		.4byte	.LASF72
 1021 0449 0A       		.byte	0xa
 1022 044a 6D       		.byte	0x6d
 1023 044b AD000000 		.4byte	0xad
 1024 044f 04       		.uleb128 0x4
 1025 0450 2F020000 		.4byte	.LASF73
 1026 0454 0A       		.byte	0xa
ARM GAS  /tmp/ccpZnBnH.s 			page 19


 1027 0455 79       		.byte	0x79
 1028 0456 AD000000 		.4byte	0xad
 1029 045a 03       		.uleb128 0x3
 1030 045b 04       		.byte	0x4
 1031 045c 07       		.byte	0x7
 1032 045d B2040000 		.4byte	.LASF74
 1033 0461 0F       		.uleb128 0xf
 1034 0462 AD000000 		.4byte	0xad
 1035 0466 10       		.uleb128 0x10
 1036 0467 AD000000 		.4byte	0xad
 1037 046b 76040000 		.4byte	0x476
 1038 046f 11       		.uleb128 0x11
 1039 0470 5A040000 		.4byte	0x45a
 1040 0474 01       		.byte	0x1
 1041 0475 00       		.byte	0
 1042 0476 10       		.uleb128 0x10
 1043 0477 AD000000 		.4byte	0xad
 1044 047b 86040000 		.4byte	0x486
 1045 047f 11       		.uleb128 0x11
 1046 0480 5A040000 		.4byte	0x45a
 1047 0484 03       		.byte	0x3
 1048 0485 00       		.byte	0
 1049 0486 04       		.uleb128 0x4
 1050 0487 F4010000 		.4byte	.LASF75
 1051 048b 0B       		.byte	0xb
 1052 048c 65       		.byte	0x65
 1053 048d 0F030000 		.4byte	0x30f
 1054 0491 04       		.uleb128 0x4
 1055 0492 50040000 		.4byte	.LASF76
 1056 0496 0B       		.byte	0xb
 1057 0497 6D       		.byte	0x6d
 1058 0498 B8000000 		.4byte	0xb8
 1059 049c 05       		.uleb128 0x5
 1060 049d 13050000 		.4byte	.LASF77
 1061 04a1 04       		.byte	0x4
 1062 04a2 0B       		.byte	0xb
 1063 04a3 89       		.byte	0x89
 1064 04a4 B4040000 		.4byte	0x4b4
 1065 04a8 07       		.uleb128 0x7
 1066 04a9 737000   		.ascii	"sp\000"
 1067 04ac 0B       		.byte	0xb
 1068 04ad 8A       		.byte	0x8a
 1069 04ae 00060000 		.4byte	0x600
 1070 04b2 00       		.byte	0
 1071 04b3 00       		.byte	0
 1072 04b4 0B       		.uleb128 0xb
 1073 04b5 92000000 		.4byte	.LASF78
 1074 04b9 64       		.byte	0x64
 1075 04ba 0C       		.byte	0xc
 1076 04bb 5901     		.2byte	0x159
 1077 04bd 00060000 		.4byte	0x600
 1078 04c1 08       		.uleb128 0x8
 1079 04c2 73313600 		.ascii	"s16\000"
 1080 04c6 0C       		.byte	0xc
 1081 04c7 5B01     		.2byte	0x15b
 1082 04c9 86040000 		.4byte	0x486
 1083 04cd 00       		.byte	0
ARM GAS  /tmp/ccpZnBnH.s 			page 20


 1084 04ce 08       		.uleb128 0x8
 1085 04cf 73313700 		.ascii	"s17\000"
 1086 04d3 0C       		.byte	0xc
 1087 04d4 5C01     		.2byte	0x15c
 1088 04d6 86040000 		.4byte	0x486
 1089 04da 04       		.byte	0x4
 1090 04db 08       		.uleb128 0x8
 1091 04dc 73313800 		.ascii	"s18\000"
 1092 04e0 0C       		.byte	0xc
 1093 04e1 5D01     		.2byte	0x15d
 1094 04e3 86040000 		.4byte	0x486
 1095 04e7 08       		.byte	0x8
 1096 04e8 08       		.uleb128 0x8
 1097 04e9 73313900 		.ascii	"s19\000"
 1098 04ed 0C       		.byte	0xc
 1099 04ee 5E01     		.2byte	0x15e
 1100 04f0 86040000 		.4byte	0x486
 1101 04f4 0C       		.byte	0xc
 1102 04f5 08       		.uleb128 0x8
 1103 04f6 73323000 		.ascii	"s20\000"
 1104 04fa 0C       		.byte	0xc
 1105 04fb 5F01     		.2byte	0x15f
 1106 04fd 86040000 		.4byte	0x486
 1107 0501 10       		.byte	0x10
 1108 0502 08       		.uleb128 0x8
 1109 0503 73323100 		.ascii	"s21\000"
 1110 0507 0C       		.byte	0xc
 1111 0508 6001     		.2byte	0x160
 1112 050a 86040000 		.4byte	0x486
 1113 050e 14       		.byte	0x14
 1114 050f 08       		.uleb128 0x8
 1115 0510 73323200 		.ascii	"s22\000"
 1116 0514 0C       		.byte	0xc
 1117 0515 6101     		.2byte	0x161
 1118 0517 86040000 		.4byte	0x486
 1119 051b 18       		.byte	0x18
 1120 051c 08       		.uleb128 0x8
 1121 051d 73323300 		.ascii	"s23\000"
 1122 0521 0C       		.byte	0xc
 1123 0522 6201     		.2byte	0x162
 1124 0524 86040000 		.4byte	0x486
 1125 0528 1C       		.byte	0x1c
 1126 0529 08       		.uleb128 0x8
 1127 052a 73323400 		.ascii	"s24\000"
 1128 052e 0C       		.byte	0xc
 1129 052f 6301     		.2byte	0x163
 1130 0531 86040000 		.4byte	0x486
 1131 0535 20       		.byte	0x20
 1132 0536 08       		.uleb128 0x8
 1133 0537 73323500 		.ascii	"s25\000"
 1134 053b 0C       		.byte	0xc
 1135 053c 6401     		.2byte	0x164
 1136 053e 86040000 		.4byte	0x486
 1137 0542 24       		.byte	0x24
 1138 0543 08       		.uleb128 0x8
 1139 0544 73323600 		.ascii	"s26\000"
 1140 0548 0C       		.byte	0xc
ARM GAS  /tmp/ccpZnBnH.s 			page 21


 1141 0549 6501     		.2byte	0x165
 1142 054b 86040000 		.4byte	0x486
 1143 054f 28       		.byte	0x28
 1144 0550 08       		.uleb128 0x8
 1145 0551 73323700 		.ascii	"s27\000"
 1146 0555 0C       		.byte	0xc
 1147 0556 6601     		.2byte	0x166
 1148 0558 86040000 		.4byte	0x486
 1149 055c 2C       		.byte	0x2c
 1150 055d 08       		.uleb128 0x8
 1151 055e 73323800 		.ascii	"s28\000"
 1152 0562 0C       		.byte	0xc
 1153 0563 6701     		.2byte	0x167
 1154 0565 86040000 		.4byte	0x486
 1155 0569 30       		.byte	0x30
 1156 056a 08       		.uleb128 0x8
 1157 056b 73323900 		.ascii	"s29\000"
 1158 056f 0C       		.byte	0xc
 1159 0570 6801     		.2byte	0x168
 1160 0572 86040000 		.4byte	0x486
 1161 0576 34       		.byte	0x34
 1162 0577 08       		.uleb128 0x8
 1163 0578 73333000 		.ascii	"s30\000"
 1164 057c 0C       		.byte	0xc
 1165 057d 6901     		.2byte	0x169
 1166 057f 86040000 		.4byte	0x486
 1167 0583 38       		.byte	0x38
 1168 0584 08       		.uleb128 0x8
 1169 0585 73333100 		.ascii	"s31\000"
 1170 0589 0C       		.byte	0xc
 1171 058a 6A01     		.2byte	0x16a
 1172 058c 86040000 		.4byte	0x486
 1173 0590 3C       		.byte	0x3c
 1174 0591 08       		.uleb128 0x8
 1175 0592 723400   		.ascii	"r4\000"
 1176 0595 0C       		.byte	0xc
 1177 0596 6C01     		.2byte	0x16c
 1178 0598 86040000 		.4byte	0x486
 1179 059c 40       		.byte	0x40
 1180 059d 08       		.uleb128 0x8
 1181 059e 723500   		.ascii	"r5\000"
 1182 05a1 0C       		.byte	0xc
 1183 05a2 6D01     		.2byte	0x16d
 1184 05a4 86040000 		.4byte	0x486
 1185 05a8 44       		.byte	0x44
 1186 05a9 08       		.uleb128 0x8
 1187 05aa 723600   		.ascii	"r6\000"
 1188 05ad 0C       		.byte	0xc
 1189 05ae 6E01     		.2byte	0x16e
 1190 05b0 86040000 		.4byte	0x486
 1191 05b4 48       		.byte	0x48
 1192 05b5 08       		.uleb128 0x8
 1193 05b6 723700   		.ascii	"r7\000"
 1194 05b9 0C       		.byte	0xc
 1195 05ba 6F01     		.2byte	0x16f
 1196 05bc 86040000 		.4byte	0x486
 1197 05c0 4C       		.byte	0x4c
ARM GAS  /tmp/ccpZnBnH.s 			page 22


 1198 05c1 08       		.uleb128 0x8
 1199 05c2 723800   		.ascii	"r8\000"
 1200 05c5 0C       		.byte	0xc
 1201 05c6 7001     		.2byte	0x170
 1202 05c8 86040000 		.4byte	0x486
 1203 05cc 50       		.byte	0x50
 1204 05cd 08       		.uleb128 0x8
 1205 05ce 723900   		.ascii	"r9\000"
 1206 05d1 0C       		.byte	0xc
 1207 05d2 7101     		.2byte	0x171
 1208 05d4 86040000 		.4byte	0x486
 1209 05d8 54       		.byte	0x54
 1210 05d9 08       		.uleb128 0x8
 1211 05da 72313000 		.ascii	"r10\000"
 1212 05de 0C       		.byte	0xc
 1213 05df 7201     		.2byte	0x172
 1214 05e1 86040000 		.4byte	0x486
 1215 05e5 58       		.byte	0x58
 1216 05e6 08       		.uleb128 0x8
 1217 05e7 72313100 		.ascii	"r11\000"
 1218 05eb 0C       		.byte	0xc
 1219 05ec 7301     		.2byte	0x173
 1220 05ee 86040000 		.4byte	0x486
 1221 05f2 5C       		.byte	0x5c
 1222 05f3 08       		.uleb128 0x8
 1223 05f4 6C7200   		.ascii	"lr\000"
 1224 05f7 0C       		.byte	0xc
 1225 05f8 7401     		.2byte	0x174
 1226 05fa 86040000 		.4byte	0x486
 1227 05fe 60       		.byte	0x60
 1228 05ff 00       		.byte	0
 1229 0600 0A       		.uleb128 0xa
 1230 0601 04       		.byte	0x4
 1231 0602 B4040000 		.4byte	0x4b4
 1232 0606 12       		.uleb128 0x12
 1233 0607 60       		.byte	0x60
 1234 0608 0D       		.byte	0xd
 1235 0609 F501     		.2byte	0x1f5
 1236 060b 12070000 		.4byte	0x712
 1237 060f 08       		.uleb128 0x8
 1238 0610 43523100 		.ascii	"CR1\000"
 1239 0614 0D       		.byte	0xd
 1240 0615 F601     		.2byte	0x1f6
 1241 0617 61040000 		.4byte	0x461
 1242 061b 00       		.byte	0
 1243 061c 08       		.uleb128 0x8
 1244 061d 43523200 		.ascii	"CR2\000"
 1245 0621 0D       		.byte	0xd
 1246 0622 F701     		.2byte	0x1f7
 1247 0624 61040000 		.4byte	0x461
 1248 0628 04       		.byte	0x4
 1249 0629 09       		.uleb128 0x9
 1250 062a BF060000 		.4byte	.LASF79
 1251 062e 0D       		.byte	0xd
 1252 062f F801     		.2byte	0x1f8
 1253 0631 61040000 		.4byte	0x461
 1254 0635 08       		.byte	0x8
ARM GAS  /tmp/ccpZnBnH.s 			page 23


 1255 0636 09       		.uleb128 0x9
 1256 0637 23000000 		.4byte	.LASF80
 1257 063b 0D       		.byte	0xd
 1258 063c F901     		.2byte	0x1f9
 1259 063e 61040000 		.4byte	0x461
 1260 0642 0C       		.byte	0xc
 1261 0643 08       		.uleb128 0x8
 1262 0644 535200   		.ascii	"SR\000"
 1263 0647 0D       		.byte	0xd
 1264 0648 FA01     		.2byte	0x1fa
 1265 064a 61040000 		.4byte	0x461
 1266 064e 10       		.byte	0x10
 1267 064f 08       		.uleb128 0x8
 1268 0650 45475200 		.ascii	"EGR\000"
 1269 0654 0D       		.byte	0xd
 1270 0655 FB01     		.2byte	0x1fb
 1271 0657 61040000 		.4byte	0x461
 1272 065b 14       		.byte	0x14
 1273 065c 09       		.uleb128 0x9
 1274 065d 6B010000 		.4byte	.LASF81
 1275 0661 0D       		.byte	0xd
 1276 0662 FC01     		.2byte	0x1fc
 1277 0664 61040000 		.4byte	0x461
 1278 0668 18       		.byte	0x18
 1279 0669 09       		.uleb128 0x9
 1280 066a 71010000 		.4byte	.LASF82
 1281 066e 0D       		.byte	0xd
 1282 066f FD01     		.2byte	0x1fd
 1283 0671 61040000 		.4byte	0x461
 1284 0675 1C       		.byte	0x1c
 1285 0676 09       		.uleb128 0x9
 1286 0677 D9060000 		.4byte	.LASF83
 1287 067b 0D       		.byte	0xd
 1288 067c FE01     		.2byte	0x1fe
 1289 067e 61040000 		.4byte	0x461
 1290 0682 20       		.byte	0x20
 1291 0683 08       		.uleb128 0x8
 1292 0684 434E5400 		.ascii	"CNT\000"
 1293 0688 0D       		.byte	0xd
 1294 0689 FF01     		.2byte	0x1ff
 1295 068b 61040000 		.4byte	0x461
 1296 068f 24       		.byte	0x24
 1297 0690 08       		.uleb128 0x8
 1298 0691 50534300 		.ascii	"PSC\000"
 1299 0695 0D       		.byte	0xd
 1300 0696 0002     		.2byte	0x200
 1301 0698 61040000 		.4byte	0x461
 1302 069c 28       		.byte	0x28
 1303 069d 08       		.uleb128 0x8
 1304 069e 41525200 		.ascii	"ARR\000"
 1305 06a2 0D       		.byte	0xd
 1306 06a3 0102     		.2byte	0x201
 1307 06a5 61040000 		.4byte	0x461
 1308 06a9 2C       		.byte	0x2c
 1309 06aa 08       		.uleb128 0x8
 1310 06ab 52435200 		.ascii	"RCR\000"
 1311 06af 0D       		.byte	0xd
ARM GAS  /tmp/ccpZnBnH.s 			page 24


 1312 06b0 0202     		.2byte	0x202
 1313 06b2 61040000 		.4byte	0x461
 1314 06b6 30       		.byte	0x30
 1315 06b7 08       		.uleb128 0x8
 1316 06b8 43435200 		.ascii	"CCR\000"
 1317 06bc 0D       		.byte	0xd
 1318 06bd 0302     		.2byte	0x203
 1319 06bf 12070000 		.4byte	0x712
 1320 06c3 34       		.byte	0x34
 1321 06c4 09       		.uleb128 0x9
 1322 06c5 37010000 		.4byte	.LASF84
 1323 06c9 0D       		.byte	0xd
 1324 06ca 0402     		.2byte	0x204
 1325 06cc 61040000 		.4byte	0x461
 1326 06d0 44       		.byte	0x44
 1327 06d1 08       		.uleb128 0x8
 1328 06d2 44435200 		.ascii	"DCR\000"
 1329 06d6 0D       		.byte	0xd
 1330 06d7 0502     		.2byte	0x205
 1331 06d9 61040000 		.4byte	0x461
 1332 06dd 48       		.byte	0x48
 1333 06de 09       		.uleb128 0x9
 1334 06df CB060000 		.4byte	.LASF85
 1335 06e3 0D       		.byte	0xd
 1336 06e4 0602     		.2byte	0x206
 1337 06e6 61040000 		.4byte	0x461
 1338 06ea 4C       		.byte	0x4c
 1339 06eb 08       		.uleb128 0x8
 1340 06ec 4F5200   		.ascii	"OR\000"
 1341 06ef 0D       		.byte	0xd
 1342 06f0 0702     		.2byte	0x207
 1343 06f2 61040000 		.4byte	0x461
 1344 06f6 50       		.byte	0x50
 1345 06f7 09       		.uleb128 0x9
 1346 06f8 77010000 		.4byte	.LASF86
 1347 06fc 0D       		.byte	0xd
 1348 06fd 0802     		.2byte	0x208
 1349 06ff 61040000 		.4byte	0x461
 1350 0703 54       		.byte	0x54
 1351 0704 09       		.uleb128 0x9
 1352 0705 66060000 		.4byte	.LASF87
 1353 0709 0D       		.byte	0xd
 1354 070a 0902     		.2byte	0x209
 1355 070c 17070000 		.4byte	0x717
 1356 0710 58       		.byte	0x58
 1357 0711 00       		.byte	0
 1358 0712 0F       		.uleb128 0xf
 1359 0713 76040000 		.4byte	0x476
 1360 0717 0F       		.uleb128 0xf
 1361 0718 66040000 		.4byte	0x466
 1362 071c 13       		.uleb128 0x13
 1363 071d DA030000 		.4byte	.LASF88
 1364 0721 0D       		.byte	0xd
 1365 0722 0A02     		.2byte	0x20a
 1366 0724 06060000 		.4byte	0x606
 1367 0728 14       		.uleb128 0x14
 1368 0729 04       		.byte	0x4
ARM GAS  /tmp/ccpZnBnH.s 			page 25


 1369 072a 0E       		.byte	0xe
 1370 072b 38       		.byte	0x38
 1371 072c 3D070000 		.4byte	0x73d
 1372 0730 06       		.uleb128 0x6
 1373 0731 09070000 		.4byte	.LASF89
 1374 0735 0E       		.byte	0xe
 1375 0736 3C       		.byte	0x3c
 1376 0737 C3000000 		.4byte	0xc3
 1377 073b 00       		.byte	0
 1378 073c 00       		.byte	0
 1379 073d 04       		.uleb128 0x4
 1380 073e 29050000 		.4byte	.LASF90
 1381 0742 0E       		.byte	0xe
 1382 0743 3D       		.byte	0x3d
 1383 0744 28070000 		.4byte	0x728
 1384 0748 14       		.uleb128 0x14
 1385 0749 18       		.byte	0x18
 1386 074a 0E       		.byte	0xe
 1387 074b 48       		.byte	0x48
 1388 074c 8B070000 		.4byte	0x78b
 1389 0750 06       		.uleb128 0x6
 1390 0751 7A030000 		.4byte	.LASF91
 1391 0755 0E       		.byte	0xe
 1392 0756 49       		.byte	0x49
 1393 0757 C3000000 		.4byte	0xc3
 1394 075b 00       		.byte	0
 1395 075c 06       		.uleb128 0x6
 1396 075d D0000000 		.4byte	.LASF92
 1397 0761 0E       		.byte	0xe
 1398 0762 4A       		.byte	0x4a
 1399 0763 C3000000 		.4byte	0xc3
 1400 0767 04       		.byte	0x4
 1401 0768 06       		.uleb128 0x6
 1402 0769 A5030000 		.4byte	.LASF93
 1403 076d 0E       		.byte	0xe
 1404 076e 4B       		.byte	0x4b
 1405 076f C3000000 		.4byte	0xc3
 1406 0773 08       		.byte	0x8
 1407 0774 07       		.uleb128 0x7
 1408 0775 6E00     		.ascii	"n\000"
 1409 0777 0E       		.byte	0xe
 1410 0778 4C       		.byte	0x4c
 1411 0779 26010000 		.4byte	0x126
 1412 077d 0C       		.byte	0xc
 1413 077e 06       		.uleb128 0x6
 1414 077f 67050000 		.4byte	.LASF94
 1415 0783 0E       		.byte	0xe
 1416 0784 4D       		.byte	0x4d
 1417 0785 CE000000 		.4byte	0xce
 1418 0789 10       		.byte	0x10
 1419 078a 00       		.byte	0
 1420 078b 04       		.uleb128 0x4
 1421 078c 58010000 		.4byte	.LASF95
 1422 0790 0E       		.byte	0xe
 1423 0791 4E       		.byte	0x4e
 1424 0792 48070000 		.4byte	0x748
 1425 0796 14       		.uleb128 0x14
ARM GAS  /tmp/ccpZnBnH.s 			page 26


 1426 0797 38       		.byte	0x38
 1427 0798 0F       		.byte	0xf
 1428 0799 38       		.byte	0x38
 1429 079a CF070000 		.4byte	0x7cf
 1430 079e 06       		.uleb128 0x6
 1431 079f 68030000 		.4byte	.LASF96
 1432 07a3 0F       		.byte	0xf
 1433 07a4 39       		.byte	0x39
 1434 07a5 26010000 		.4byte	0x126
 1435 07a9 00       		.byte	0
 1436 07aa 06       		.uleb128 0x6
 1437 07ab C1050000 		.4byte	.LASF97
 1438 07af 0F       		.byte	0xf
 1439 07b0 3A       		.byte	0x3a
 1440 07b1 26010000 		.4byte	0x126
 1441 07b5 04       		.byte	0x4
 1442 07b6 06       		.uleb128 0x6
 1443 07b7 88080000 		.4byte	.LASF98
 1444 07bb 0F       		.byte	0xf
 1445 07bc 3B       		.byte	0x3b
 1446 07bd 8B070000 		.4byte	0x78b
 1447 07c1 08       		.byte	0x8
 1448 07c2 06       		.uleb128 0x6
 1449 07c3 E6030000 		.4byte	.LASF99
 1450 07c7 0F       		.byte	0xf
 1451 07c8 3D       		.byte	0x3d
 1452 07c9 8B070000 		.4byte	0x78b
 1453 07cd 20       		.byte	0x20
 1454 07ce 00       		.byte	0
 1455 07cf 04       		.uleb128 0x4
 1456 07d0 8B030000 		.4byte	.LASF100
 1457 07d4 0F       		.byte	0xf
 1458 07d5 3F       		.byte	0x3f
 1459 07d6 96070000 		.4byte	0x796
 1460 07da 15       		.uleb128 0x15
 1461 07db 04       		.byte	0x4
 1462 07dc 09       		.byte	0x9
 1463 07dd C6       		.byte	0xc6
 1464 07de 3C080000 		.4byte	0x83c
 1465 07e2 16       		.uleb128 0x16
 1466 07e3 0C050000 		.4byte	.LASF101
 1467 07e7 09       		.byte	0x9
 1468 07e8 CD       		.byte	0xcd
 1469 07e9 05010000 		.4byte	0x105
 1470 07ed 16       		.uleb128 0x16
 1471 07ee F8000000 		.4byte	.LASF102
 1472 07f2 09       		.byte	0x9
 1473 07f3 D4       		.byte	0xd4
 1474 07f4 05010000 		.4byte	0x105
 1475 07f8 16       		.uleb128 0x16
 1476 07f9 2D080000 		.4byte	.LASF103
 1477 07fd 09       		.byte	0x9
 1478 07fe DB       		.byte	0xdb
 1479 07ff 0F030000 		.4byte	0x30f
 1480 0803 16       		.uleb128 0x16
 1481 0804 28000000 		.4byte	.LASF104
 1482 0808 09       		.byte	0x9
ARM GAS  /tmp/ccpZnBnH.s 			page 27


 1483 0809 E2       		.byte	0xe2
 1484 080a 3C080000 		.4byte	0x83c
 1485 080e 16       		.uleb128 0x16
 1486 080f 0C010000 		.4byte	.LASF105
 1487 0813 09       		.byte	0x9
 1488 0814 E7       		.byte	0xe7
 1489 0815 05010000 		.4byte	0x105
 1490 0819 16       		.uleb128 0x16
 1491 081a 3F030000 		.4byte	.LASF106
 1492 081e 09       		.byte	0x9
 1493 081f F0       		.byte	0xf0
 1494 0820 67080000 		.4byte	0x867
 1495 0824 16       		.uleb128 0x16
 1496 0825 79060000 		.4byte	.LASF107
 1497 0829 09       		.byte	0x9
 1498 082a F9       		.byte	0xf9
 1499 082b 9E080000 		.4byte	0x89e
 1500 082f 17       		.uleb128 0x17
 1501 0830 01060000 		.4byte	.LASF108
 1502 0834 09       		.byte	0x9
 1503 0835 0101     		.2byte	0x101
 1504 0837 10010000 		.4byte	0x110
 1505 083b 00       		.byte	0
 1506 083c 0A       		.uleb128 0xa
 1507 083d 04       		.byte	0x4
 1508 083e 27020000 		.4byte	0x227
 1509 0842 05       		.uleb128 0x5
 1510 0843 59060000 		.4byte	.LASF109
 1511 0847 0C       		.byte	0xc
 1512 0848 10       		.byte	0x10
 1513 0849 34       		.byte	0x34
 1514 084a 67080000 		.4byte	0x867
 1515 084e 06       		.uleb128 0x6
 1516 084f 6E030000 		.4byte	.LASF28
 1517 0853 10       		.byte	0x10
 1518 0854 35       		.byte	0x35
 1519 0855 5C020000 		.4byte	0x25c
 1520 0859 00       		.byte	0
 1521 085a 07       		.uleb128 0x7
 1522 085b 636E7400 		.ascii	"cnt\000"
 1523 085f 10       		.byte	0x10
 1524 0860 37       		.byte	0x37
 1525 0861 1B010000 		.4byte	0x11b
 1526 0865 08       		.byte	0x8
 1527 0866 00       		.byte	0
 1528 0867 0A       		.uleb128 0xa
 1529 0868 04       		.byte	0x4
 1530 0869 42080000 		.4byte	0x842
 1531 086d 05       		.uleb128 0x5
 1532 086e 91070000 		.4byte	.LASF110
 1533 0872 10       		.byte	0x10
 1534 0873 11       		.byte	0x11
 1535 0874 39       		.byte	0x39
 1536 0875 9E080000 		.4byte	0x89e
 1537 0879 06       		.uleb128 0x6
 1538 087a 6E030000 		.4byte	.LASF28
 1539 087e 11       		.byte	0x11
ARM GAS  /tmp/ccpZnBnH.s 			page 28


 1540 087f 3A       		.byte	0x3a
 1541 0880 5C020000 		.4byte	0x25c
 1542 0884 00       		.byte	0
 1543 0885 06       		.uleb128 0x6
 1544 0886 90060000 		.4byte	.LASF111
 1545 088a 11       		.byte	0x11
 1546 088b 3C       		.byte	0x3c
 1547 088c 32020000 		.4byte	0x232
 1548 0890 08       		.byte	0x8
 1549 0891 06       		.uleb128 0x6
 1550 0892 2E000000 		.4byte	.LASF48
 1551 0896 11       		.byte	0x11
 1552 0897 3E       		.byte	0x3e
 1553 0898 D2080000 		.4byte	0x8d2
 1554 089c 0C       		.byte	0xc
 1555 089d 00       		.byte	0
 1556 089e 0A       		.uleb128 0xa
 1557 089f 04       		.byte	0x4
 1558 08a0 6D080000 		.4byte	0x86d
 1559 08a4 0A       		.uleb128 0xa
 1560 08a5 04       		.byte	0x4
 1561 08a6 AA080000 		.4byte	0x8aa
 1562 08aa 18       		.uleb128 0x18
 1563 08ab AF080000 		.4byte	0x8af
 1564 08af 03       		.uleb128 0x3
 1565 08b0 01       		.byte	0x1
 1566 08b1 08       		.byte	0x8
 1567 08b2 AF060000 		.4byte	.LASF112
 1568 08b6 0A       		.uleb128 0xa
 1569 08b7 04       		.byte	0x4
 1570 08b8 91040000 		.4byte	0x491
 1571 08bc 0A       		.uleb128 0xa
 1572 08bd 04       		.byte	0x4
 1573 08be 11030000 		.4byte	0x311
 1574 08c2 0F       		.uleb128 0xf
 1575 08c3 A4080000 		.4byte	0x8a4
 1576 08c7 04       		.uleb128 0x4
 1577 08c8 80080000 		.4byte	.LASF113
 1578 08cc 11       		.byte	0x11
 1579 08cd 34       		.byte	0x34
 1580 08ce 6D080000 		.4byte	0x86d
 1581 08d2 0A       		.uleb128 0xa
 1582 08d3 04       		.byte	0x4
 1583 08d4 C7080000 		.4byte	0x8c7
 1584 08d8 03       		.uleb128 0x3
 1585 08d9 01       		.byte	0x1
 1586 08da 02       		.byte	0x2
 1587 08db CA050000 		.4byte	.LASF114
 1588 08df 10       		.uleb128 0x10
 1589 08e0 AF080000 		.4byte	0x8af
 1590 08e4 EF080000 		.4byte	0x8ef
 1591 08e8 11       		.uleb128 0x11
 1592 08e9 5A040000 		.4byte	0x45a
 1593 08ed 07       		.byte	0x7
 1594 08ee 00       		.byte	0
 1595 08ef 0A       		.uleb128 0xa
 1596 08f0 04       		.byte	0x4
ARM GAS  /tmp/ccpZnBnH.s 			page 29


 1597 08f1 61040000 		.4byte	0x461
 1598 08f5 19       		.uleb128 0x19
 1599 08f6 01       		.byte	0x1
 1600 08f7 12       		.byte	0x12
 1601 08f8 31       		.byte	0x31
 1602 08f9 1C090000 		.4byte	0x91c
 1603 08fd 1A       		.uleb128 0x1a
 1604 08fe DA070000 		.4byte	.LASF115
 1605 0902 00       		.sleb128 0
 1606 0903 1A       		.uleb128 0x1a
 1607 0904 20050000 		.4byte	.LASF116
 1608 0908 01       		.sleb128 1
 1609 0909 1A       		.uleb128 0x1a
 1610 090a 46040000 		.4byte	.LASF117
 1611 090e 02       		.sleb128 2
 1612 090f 1A       		.uleb128 0x1a
 1613 0910 6C000000 		.4byte	.LASF118
 1614 0914 03       		.sleb128 3
 1615 0915 1A       		.uleb128 0x1a
 1616 0916 78000000 		.4byte	.LASF119
 1617 091a 04       		.sleb128 4
 1618 091b 00       		.byte	0
 1619 091c 04       		.uleb128 0x4
 1620 091d D6000000 		.4byte	.LASF120
 1621 0921 12       		.byte	0x12
 1622 0922 37       		.byte	0x37
 1623 0923 F5080000 		.4byte	0x8f5
 1624 0927 04       		.uleb128 0x4
 1625 0928 D0030000 		.4byte	.LASF121
 1626 092c 12       		.byte	0x12
 1627 092d 3C       		.byte	0x3c
 1628 092e 32090000 		.4byte	0x932
 1629 0932 0B       		.uleb128 0xb
 1630 0933 D0030000 		.4byte	.LASF121
 1631 0937 18       		.byte	0x18
 1632 0938 13       		.byte	0x13
 1633 0939 AC01     		.2byte	0x1ac
 1634 093b 8E090000 		.4byte	0x98e
 1635 093f 09       		.uleb128 0x9
 1636 0940 BD010000 		.4byte	.LASF34
 1637 0944 13       		.byte	0x13
 1638 0945 B001     		.2byte	0x1b0
 1639 0947 1C090000 		.4byte	0x91c
 1640 094b 00       		.byte	0
 1641 094c 09       		.uleb128 0x9
 1642 094d C4060000 		.4byte	.LASF122
 1643 0951 13       		.byte	0x13
 1644 0952 B401     		.2byte	0x1b4
 1645 0954 710A0000 		.4byte	0xa71
 1646 0958 04       		.byte	0x4
 1647 0959 09       		.uleb128 0x9
 1648 095a 74080000 		.4byte	.LASF123
 1649 095e 13       		.byte	0x13
 1650 095f BC01     		.2byte	0x1bc
 1651 0961 AD000000 		.4byte	0xad
 1652 0965 08       		.byte	0x8
 1653 0966 08       		.uleb128 0x8
ARM GAS  /tmp/ccpZnBnH.s 			page 30


 1654 0967 74696D00 		.ascii	"tim\000"
 1655 096b 13       		.byte	0x13
 1656 096c C001     		.2byte	0x1c0
 1657 096e 7C0A0000 		.4byte	0xa7c
 1658 0972 0C       		.byte	0xc
 1659 0973 09       		.uleb128 0x9
 1660 0974 7A080000 		.4byte	.LASF124
 1661 0978 13       		.byte	0x13
 1662 0979 C401     		.2byte	0x1c4
 1663 097b EF080000 		.4byte	0x8ef
 1664 097f 10       		.byte	0x10
 1665 0980 09       		.uleb128 0x9
 1666 0981 91050000 		.4byte	.LASF125
 1667 0985 13       		.byte	0x13
 1668 0986 C801     		.2byte	0x1c8
 1669 0988 EF080000 		.4byte	0x8ef
 1670 098c 14       		.byte	0x14
 1671 098d 00       		.byte	0
 1672 098e 04       		.uleb128 0x4
 1673 098f 46030000 		.4byte	.LASF126
 1674 0993 12       		.byte	0x12
 1675 0994 43       		.byte	0x43
 1676 0995 99090000 		.4byte	0x999
 1677 0999 0A       		.uleb128 0xa
 1678 099a 04       		.byte	0x4
 1679 099b 9F090000 		.4byte	0x99f
 1680 099f 0C       		.uleb128 0xc
 1681 09a0 AA090000 		.4byte	0x9aa
 1682 09a4 0D       		.uleb128 0xd
 1683 09a5 AA090000 		.4byte	0x9aa
 1684 09a9 00       		.byte	0
 1685 09aa 0A       		.uleb128 0xa
 1686 09ab 04       		.byte	0x4
 1687 09ac 27090000 		.4byte	0x927
 1688 09b0 1B       		.uleb128 0x1b
 1689 09b1 01       		.byte	0x1
 1690 09b2 13       		.byte	0x13
 1691 09b3 6901     		.2byte	0x169
 1692 09b5 C6090000 		.4byte	0x9c6
 1693 09b9 1A       		.uleb128 0x1a
 1694 09ba 00000000 		.4byte	.LASF127
 1695 09be 00       		.sleb128 0
 1696 09bf 1A       		.uleb128 0x1a
 1697 09c0 3A050000 		.4byte	.LASF128
 1698 09c4 01       		.sleb128 1
 1699 09c5 00       		.byte	0
 1700 09c6 13       		.uleb128 0x13
 1701 09c7 E6050000 		.4byte	.LASF129
 1702 09cb 13       		.byte	0x13
 1703 09cc 6C01     		.2byte	0x16c
 1704 09ce B0090000 		.4byte	0x9b0
 1705 09d2 13       		.uleb128 0x13
 1706 09d3 66070000 		.4byte	.LASF130
 1707 09d7 13       		.byte	0x13
 1708 09d8 7101     		.2byte	0x171
 1709 09da AD000000 		.4byte	0xad
 1710 09de 1B       		.uleb128 0x1b
ARM GAS  /tmp/ccpZnBnH.s 			page 31


 1711 09df 01       		.byte	0x1
 1712 09e0 13       		.byte	0x13
 1713 09e1 7601     		.2byte	0x176
 1714 09e3 F4090000 		.4byte	0x9f4
 1715 09e7 1A       		.uleb128 0x1a
 1716 09e8 E5070000 		.4byte	.LASF131
 1717 09ec 00       		.sleb128 0
 1718 09ed 1A       		.uleb128 0x1a
 1719 09ee F3070000 		.4byte	.LASF132
 1720 09f2 01       		.sleb128 1
 1721 09f3 00       		.byte	0
 1722 09f4 13       		.uleb128 0x13
 1723 09f5 33060000 		.4byte	.LASF133
 1724 09f9 13       		.byte	0x13
 1725 09fa 7901     		.2byte	0x179
 1726 09fc DE090000 		.4byte	0x9de
 1727 0a00 12       		.uleb128 0x12
 1728 0a01 1C       		.byte	0x1c
 1729 0a02 13       		.byte	0x13
 1730 0a03 8401     		.2byte	0x184
 1731 0a05 650A0000 		.4byte	0xa65
 1732 0a09 09       		.uleb128 0x9
 1733 0a0a BA060000 		.4byte	.LASF134
 1734 0a0e 13       		.byte	0x13
 1735 0a0f 8801     		.2byte	0x188
 1736 0a11 C6090000 		.4byte	0x9c6
 1737 0a15 00       		.byte	0
 1738 0a16 09       		.uleb128 0x9
 1739 0a17 AA030000 		.4byte	.LASF135
 1740 0a1b 13       		.byte	0x13
 1741 0a1c 8E01     		.2byte	0x18e
 1742 0a1e D2090000 		.4byte	0x9d2
 1743 0a22 04       		.byte	0x4
 1744 0a23 09       		.uleb128 0x9
 1745 0a24 03050000 		.4byte	.LASF136
 1746 0a28 13       		.byte	0x13
 1747 0a29 9201     		.2byte	0x192
 1748 0a2b 8E090000 		.4byte	0x98e
 1749 0a2f 08       		.byte	0x8
 1750 0a30 09       		.uleb128 0x9
 1751 0a31 5E030000 		.4byte	.LASF137
 1752 0a35 13       		.byte	0x13
 1753 0a36 9601     		.2byte	0x196
 1754 0a38 8E090000 		.4byte	0x98e
 1755 0a3c 0C       		.byte	0xc
 1756 0a3d 09       		.uleb128 0x9
 1757 0a3e 7F030000 		.4byte	.LASF138
 1758 0a42 13       		.byte	0x13
 1759 0a43 9A01     		.2byte	0x19a
 1760 0a45 8E090000 		.4byte	0x98e
 1761 0a49 10       		.byte	0x10
 1762 0a4a 09       		.uleb128 0x9
 1763 0a4b 40060000 		.4byte	.LASF139
 1764 0a4f 13       		.byte	0x13
 1765 0a50 A001     		.2byte	0x1a0
 1766 0a52 F4090000 		.4byte	0x9f4
 1767 0a56 14       		.byte	0x14
ARM GAS  /tmp/ccpZnBnH.s 			page 32


 1768 0a57 09       		.uleb128 0x9
 1769 0a58 9A080000 		.4byte	.LASF140
 1770 0a5c 13       		.byte	0x13
 1771 0a5d A601     		.2byte	0x1a6
 1772 0a5f AD000000 		.4byte	0xad
 1773 0a63 18       		.byte	0x18
 1774 0a64 00       		.byte	0
 1775 0a65 13       		.uleb128 0x13
 1776 0a66 89010000 		.4byte	.LASF141
 1777 0a6a 13       		.byte	0x13
 1778 0a6b A701     		.2byte	0x1a7
 1779 0a6d 000A0000 		.4byte	0xa00
 1780 0a71 0A       		.uleb128 0xa
 1781 0a72 04       		.byte	0x4
 1782 0a73 770A0000 		.4byte	0xa77
 1783 0a77 18       		.uleb128 0x18
 1784 0a78 650A0000 		.4byte	0xa65
 1785 0a7c 0A       		.uleb128 0xa
 1786 0a7d 04       		.byte	0x4
 1787 0a7e 1C070000 		.4byte	0x71c
 1788 0a82 1C       		.uleb128 0x1c
 1789 0a83 F1060000 		.4byte	.LASF170
 1790 0a87 02       		.byte	0x2
 1791 0a88 EB01     		.2byte	0x1eb
 1792 0a8a 03       		.byte	0x3
 1793 0a8b 9C0A0000 		.4byte	0xa9c
 1794 0a8f 1D       		.uleb128 0x1d
 1795 0a90 99010000 		.4byte	.LASF171
 1796 0a94 02       		.byte	0x2
 1797 0a95 EB01     		.2byte	0x1eb
 1798 0a97 AD000000 		.4byte	0xad
 1799 0a9b 00       		.byte	0
 1800 0a9c 1E       		.uleb128 0x1e
 1801 0a9d C6000000 		.4byte	.LASF142
 1802 0aa1 0C       		.byte	0xc
 1803 0aa2 5A02     		.2byte	0x25a
 1804 0aa4 03       		.byte	0x3
 1805 0aa5 1E       		.uleb128 0x1e
 1806 0aa6 A8010000 		.4byte	.LASF143
 1807 0aaa 0C       		.byte	0xc
 1808 0aab 7202     		.2byte	0x272
 1809 0aad 03       		.byte	0x3
 1810 0aae 1E       		.uleb128 0x1e
 1811 0aaf 15020000 		.4byte	.LASF144
 1812 0ab3 04       		.byte	0x4
 1813 0ab4 FD01     		.2byte	0x1fd
 1814 0ab6 03       		.byte	0x3
 1815 0ab7 1E       		.uleb128 0x1e
 1816 0ab8 25060000 		.4byte	.LASF145
 1817 0abc 04       		.byte	0x4
 1818 0abd 0802     		.2byte	0x208
 1819 0abf 03       		.byte	0x3
 1820 0ac0 1F       		.uleb128 0x1f
 1821 0ac1 1B060000 		.4byte	.LASF146
 1822 0ac5 01       		.byte	0x1
 1823 0ac6 6101     		.2byte	0x161
 1824 0ac8 00000000 		.4byte	.LFB184
ARM GAS  /tmp/ccpZnBnH.s 			page 33


 1825 0acc 0A000000 		.4byte	.LFE184-.LFB184
 1826 0ad0 01       		.uleb128 0x1
 1827 0ad1 9C       		.byte	0x9c
 1828 0ad2 0C0B0000 		.4byte	0xb0c
 1829 0ad6 20       		.uleb128 0x20
 1830 0ad7 9C0A0000 		.4byte	0xa9c
 1831 0adb 00000000 		.4byte	.LBB42
 1832 0adf 06000000 		.4byte	.LBE42-.LBB42
 1833 0ae3 01       		.byte	0x1
 1834 0ae4 6301     		.2byte	0x163
 1835 0ae6 020B0000 		.4byte	0xb02
 1836 0aea 21       		.uleb128 0x21
 1837 0aeb 820A0000 		.4byte	0xa82
 1838 0aef 00000000 		.4byte	.LBB43
 1839 0af3 06000000 		.4byte	.LBE43-.LBB43
 1840 0af7 0C       		.byte	0xc
 1841 0af8 6202     		.2byte	0x262
 1842 0afa 22       		.uleb128 0x22
 1843 0afb 8F0A0000 		.4byte	0xa8f
 1844 0aff 20       		.byte	0x20
 1845 0b00 00       		.byte	0
 1846 0b01 00       		.byte	0
 1847 0b02 23       		.uleb128 0x23
 1848 0b03 0A000000 		.4byte	.LVL1
 1849 0b07 B10F0000 		.4byte	0xfb1
 1850 0b0b 00       		.byte	0
 1851 0b0c 1F       		.uleb128 0x1f
 1852 0b0d 68080000 		.4byte	.LASF147
 1853 0b11 01       		.byte	0x1
 1854 0b12 6D01     		.2byte	0x16d
 1855 0b14 00000000 		.4byte	.LFB185
 1856 0b18 0E000000 		.4byte	.LFE185-.LFB185
 1857 0b1c 01       		.uleb128 0x1
 1858 0b1d 9C       		.byte	0x9c
 1859 0b1e 610B0000 		.4byte	0xb61
 1860 0b22 24       		.uleb128 0x24
 1861 0b23 12060000 		.4byte	.LASF152
 1862 0b27 710B0000 		.4byte	0xb71
 1863 0b2b 20       		.uleb128 0x20
 1864 0b2c A50A0000 		.4byte	0xaa5
 1865 0b30 06000000 		.4byte	.LBB45
 1866 0b34 08000000 		.4byte	.LBE45-.LBB45
 1867 0b38 01       		.byte	0x1
 1868 0b39 7A01     		.2byte	0x17a
 1869 0b3b 570B0000 		.4byte	0xb57
 1870 0b3f 21       		.uleb128 0x21
 1871 0b40 820A0000 		.4byte	0xa82
 1872 0b44 06000000 		.4byte	.LBB46
 1873 0b48 08000000 		.4byte	.LBE46-.LBB46
 1874 0b4c 0C       		.byte	0xc
 1875 0b4d 7502     		.2byte	0x275
 1876 0b4f 22       		.uleb128 0x22
 1877 0b50 8F0A0000 		.4byte	0xa8f
 1878 0b54 00       		.byte	0
 1879 0b55 00       		.byte	0
 1880 0b56 00       		.byte	0
 1881 0b57 25       		.uleb128 0x25
ARM GAS  /tmp/ccpZnBnH.s 			page 34


 1882 0b58 06000000 		.4byte	.LVL2
 1883 0b5c B80F0000 		.4byte	0xfb8
 1884 0b60 00       		.byte	0
 1885 0b61 10       		.uleb128 0x10
 1886 0b62 AF080000 		.4byte	0x8af
 1887 0b66 710B0000 		.4byte	0xb71
 1888 0b6a 11       		.uleb128 0x11
 1889 0b6b 5A040000 		.4byte	0x45a
 1890 0b6f 0B       		.byte	0xb
 1891 0b70 00       		.byte	0
 1892 0b71 18       		.uleb128 0x18
 1893 0b72 610B0000 		.4byte	0xb61
 1894 0b76 26       		.uleb128 0x26
 1895 0b77 BE000000 		.4byte	.LASF148
 1896 0b7b 03       		.byte	0x3
 1897 0b7c 38       		.byte	0x38
 1898 0b7d 00000000 		.4byte	.LFB323
 1899 0b81 04000000 		.4byte	.LFE323-.LFB323
 1900 0b85 01       		.uleb128 0x1
 1901 0b86 9C       		.byte	0x9c
 1902 0b87 950B0000 		.4byte	0xb95
 1903 0b8b 23       		.uleb128 0x23
 1904 0b8c 04000000 		.4byte	.LVL3
 1905 0b90 BF0F0000 		.4byte	0xfbf
 1906 0b94 00       		.byte	0
 1907 0b95 26       		.uleb128 0x26
 1908 0b96 6B060000 		.4byte	.LASF149
 1909 0b9a 03       		.byte	0x3
 1910 0b9b 44       		.byte	0x44
 1911 0b9c 00000000 		.4byte	.LFB324
 1912 0ba0 0A000000 		.4byte	.LFE324-.LFB324
 1913 0ba4 01       		.uleb128 0x1
 1914 0ba5 9C       		.byte	0x9c
 1915 0ba6 B80B0000 		.4byte	0xbb8
 1916 0baa 27       		.uleb128 0x27
 1917 0bab BC050000 		.4byte	.LASF151
 1918 0baf 03       		.byte	0x3
 1919 0bb0 44       		.byte	0x44
 1920 0bb1 AA090000 		.4byte	0x9aa
 1921 0bb5 01       		.uleb128 0x1
 1922 0bb6 50       		.byte	0x50
 1923 0bb7 00       		.byte	0
 1924 0bb8 26       		.uleb128 0x26
 1925 0bb9 E0010000 		.4byte	.LASF150
 1926 0bbd 03       		.byte	0x3
 1927 0bbe 52       		.byte	0x52
 1928 0bbf 00000000 		.4byte	.LFB325
 1929 0bc3 1E000000 		.4byte	.LFE325-.LFB325
 1930 0bc7 01       		.uleb128 0x1
 1931 0bc8 9C       		.byte	0x9c
 1932 0bc9 3F0C0000 		.4byte	0xc3f
 1933 0bcd 28       		.uleb128 0x28
 1934 0bce BC050000 		.4byte	.LASF151
 1935 0bd2 03       		.byte	0x3
 1936 0bd3 52       		.byte	0x52
 1937 0bd4 AA090000 		.4byte	0x9aa
 1938 0bd8 00000000 		.4byte	.LLST0
ARM GAS  /tmp/ccpZnBnH.s 			page 35


 1939 0bdc 28       		.uleb128 0x28
 1940 0bdd C4060000 		.4byte	.LASF122
 1941 0be1 03       		.byte	0x3
 1942 0be2 52       		.byte	0x52
 1943 0be3 710A0000 		.4byte	0xa71
 1944 0be7 2C000000 		.4byte	.LLST1
 1945 0beb 24       		.uleb128 0x24
 1946 0bec 12060000 		.4byte	.LASF152
 1947 0bf0 4F0C0000 		.4byte	0xc4f
 1948 0bf4 29       		.uleb128 0x29
 1949 0bf5 AE0A0000 		.4byte	0xaae
 1950 0bf9 06000000 		.4byte	.LBB48
 1951 0bfd 04000000 		.4byte	.LBE48-.LBB48
 1952 0c01 03       		.byte	0x3
 1953 0c02 56       		.byte	0x56
 1954 0c03 110C0000 		.4byte	0xc11
 1955 0c07 25       		.uleb128 0x25
 1956 0c08 0A000000 		.4byte	.LVL6
 1957 0c0c C00A0000 		.4byte	0xac0
 1958 0c10 00       		.byte	0
 1959 0c11 29       		.uleb128 0x29
 1960 0c12 B70A0000 		.4byte	0xab7
 1961 0c16 1A000000 		.4byte	.LBB50
 1962 0c1a 04000000 		.4byte	.LBE50-.LBB50
 1963 0c1e 03       		.byte	0x3
 1964 0c1f 5C       		.byte	0x5c
 1965 0c20 2E0C0000 		.4byte	0xc2e
 1966 0c24 23       		.uleb128 0x23
 1967 0c25 1E000000 		.4byte	.LVL9
 1968 0c29 0C0B0000 		.4byte	0xb0c
 1969 0c2d 00       		.byte	0
 1970 0c2e 2A       		.uleb128 0x2a
 1971 0c2f 12000000 		.4byte	.LVL7
 1972 0c33 C70F0000 		.4byte	0xfc7
 1973 0c37 2B       		.uleb128 0x2b
 1974 0c38 01       		.uleb128 0x1
 1975 0c39 50       		.byte	0x50
 1976 0c3a 02       		.uleb128 0x2
 1977 0c3b 74       		.byte	0x74
 1978 0c3c 00       		.sleb128 0
 1979 0c3d 00       		.byte	0
 1980 0c3e 00       		.byte	0
 1981 0c3f 10       		.uleb128 0x10
 1982 0c40 AF080000 		.4byte	0x8af
 1983 0c44 4F0C0000 		.4byte	0xc4f
 1984 0c48 11       		.uleb128 0x11
 1985 0c49 5A040000 		.4byte	0x45a
 1986 0c4d 08       		.byte	0x8
 1987 0c4e 00       		.byte	0
 1988 0c4f 18       		.uleb128 0x18
 1989 0c50 3F0C0000 		.4byte	0xc3f
 1990 0c54 26       		.uleb128 0x26
 1991 0c55 F9050000 		.4byte	.LASF153
 1992 0c59 03       		.byte	0x3
 1993 0c5a 66       		.byte	0x66
 1994 0c5b 00000000 		.4byte	.LFB326
 1995 0c5f 1E000000 		.4byte	.LFE326-.LFB326
ARM GAS  /tmp/ccpZnBnH.s 			page 36


 1996 0c63 01       		.uleb128 0x1
 1997 0c64 9C       		.byte	0x9c
 1998 0c65 CC0C0000 		.4byte	0xccc
 1999 0c69 28       		.uleb128 0x28
 2000 0c6a BC050000 		.4byte	.LASF151
 2001 0c6e 03       		.byte	0x3
 2002 0c6f 66       		.byte	0x66
 2003 0c70 AA090000 		.4byte	0x9aa
 2004 0c74 58000000 		.4byte	.LLST2
 2005 0c78 24       		.uleb128 0x24
 2006 0c79 12060000 		.4byte	.LASF152
 2007 0c7d CC0C0000 		.4byte	0xccc
 2008 0c81 29       		.uleb128 0x29
 2009 0c82 AE0A0000 		.4byte	0xaae
 2010 0c86 04000000 		.4byte	.LBB52
 2011 0c8a 04000000 		.4byte	.LBE52-.LBB52
 2012 0c8e 03       		.byte	0x3
 2013 0c8f 6A       		.byte	0x6a
 2014 0c90 9E0C0000 		.4byte	0xc9e
 2015 0c94 25       		.uleb128 0x25
 2016 0c95 08000000 		.4byte	.LVL11
 2017 0c99 C00A0000 		.4byte	0xac0
 2018 0c9d 00       		.byte	0
 2019 0c9e 29       		.uleb128 0x29
 2020 0c9f B70A0000 		.4byte	0xab7
 2021 0ca3 1A000000 		.4byte	.LBB54
 2022 0ca7 04000000 		.4byte	.LBE54-.LBB54
 2023 0cab 03       		.byte	0x3
 2024 0cac 73       		.byte	0x73
 2025 0cad BB0C0000 		.4byte	0xcbb
 2026 0cb1 23       		.uleb128 0x23
 2027 0cb2 1E000000 		.4byte	.LVL14
 2028 0cb6 0C0B0000 		.4byte	0xb0c
 2029 0cba 00       		.byte	0
 2030 0cbb 2A       		.uleb128 0x2a
 2031 0cbc 0E000000 		.4byte	.LVL12
 2032 0cc0 D90F0000 		.4byte	0xfd9
 2033 0cc4 2B       		.uleb128 0x2b
 2034 0cc5 01       		.uleb128 0x1
 2035 0cc6 50       		.byte	0x50
 2036 0cc7 02       		.uleb128 0x2
 2037 0cc8 74       		.byte	0x74
 2038 0cc9 00       		.sleb128 0
 2039 0cca 00       		.byte	0
 2040 0ccb 00       		.byte	0
 2041 0ccc 18       		.uleb128 0x18
 2042 0ccd DF080000 		.4byte	0x8df
 2043 0cd1 26       		.uleb128 0x26
 2044 0cd2 10070000 		.4byte	.LASF154
 2045 0cd6 03       		.byte	0x3
 2046 0cd7 7D       		.byte	0x7d
 2047 0cd8 00000000 		.4byte	.LFB327
 2048 0cdc 1A000000 		.4byte	.LFE327-.LFB327
 2049 0ce0 01       		.uleb128 0x1
 2050 0ce1 9C       		.byte	0x9c
 2051 0ce2 490D0000 		.4byte	0xd49
 2052 0ce6 28       		.uleb128 0x28
ARM GAS  /tmp/ccpZnBnH.s 			page 37


 2053 0ce7 BC050000 		.4byte	.LASF151
 2054 0ceb 03       		.byte	0x3
 2055 0cec 7D       		.byte	0x7d
 2056 0ced AA090000 		.4byte	0x9aa
 2057 0cf1 84000000 		.4byte	.LLST3
 2058 0cf5 24       		.uleb128 0x24
 2059 0cf6 12060000 		.4byte	.LASF152
 2060 0cfa 590D0000 		.4byte	0xd59
 2061 0cfe 29       		.uleb128 0x29
 2062 0cff AE0A0000 		.4byte	0xaae
 2063 0d03 04000000 		.4byte	.LBB56
 2064 0d07 04000000 		.4byte	.LBE56-.LBB56
 2065 0d0b 03       		.byte	0x3
 2066 0d0c 81       		.byte	0x81
 2067 0d0d 1B0D0000 		.4byte	0xd1b
 2068 0d11 25       		.uleb128 0x25
 2069 0d12 08000000 		.4byte	.LVL16
 2070 0d16 C00A0000 		.4byte	0xac0
 2071 0d1a 00       		.byte	0
 2072 0d1b 29       		.uleb128 0x29
 2073 0d1c B70A0000 		.4byte	0xab7
 2074 0d20 16000000 		.4byte	.LBB58
 2075 0d24 04000000 		.4byte	.LBE58-.LBB58
 2076 0d28 03       		.byte	0x3
 2077 0d29 84       		.byte	0x84
 2078 0d2a 380D0000 		.4byte	0xd38
 2079 0d2e 23       		.uleb128 0x23
 2080 0d2f 1A000000 		.4byte	.LVL19
 2081 0d33 0C0B0000 		.4byte	0xb0c
 2082 0d37 00       		.byte	0
 2083 0d38 2A       		.uleb128 0x2a
 2084 0d39 0E000000 		.4byte	.LVL17
 2085 0d3d EB0F0000 		.4byte	0xfeb
 2086 0d41 2B       		.uleb128 0x2b
 2087 0d42 01       		.uleb128 0x1
 2088 0d43 50       		.byte	0x50
 2089 0d44 02       		.uleb128 0x2
 2090 0d45 74       		.byte	0x74
 2091 0d46 00       		.sleb128 0
 2092 0d47 00       		.byte	0
 2093 0d48 00       		.byte	0
 2094 0d49 10       		.uleb128 0x10
 2095 0d4a AF080000 		.4byte	0x8af
 2096 0d4e 590D0000 		.4byte	0xd59
 2097 0d52 11       		.uleb128 0x11
 2098 0d53 5A040000 		.4byte	0x45a
 2099 0d57 0F       		.byte	0xf
 2100 0d58 00       		.byte	0
 2101 0d59 18       		.uleb128 0x18
 2102 0d5a 490D0000 		.4byte	0xd49
 2103 0d5e 2C       		.uleb128 0x2c
 2104 0d5f 37040000 		.4byte	.LASF172
 2105 0d63 03       		.byte	0x3
 2106 0d64 97       		.byte	0x97
 2107 0d65 D8080000 		.4byte	0x8d8
 2108 0d69 00000000 		.4byte	.LFB328
 2109 0d6d 22000000 		.4byte	.LFE328-.LFB328
ARM GAS  /tmp/ccpZnBnH.s 			page 38


 2110 0d71 01       		.uleb128 0x1
 2111 0d72 9C       		.byte	0x9c
 2112 0d73 E90D0000 		.4byte	0xde9
 2113 0d77 28       		.uleb128 0x28
 2114 0d78 BC050000 		.4byte	.LASF151
 2115 0d7c 03       		.byte	0x3
 2116 0d7d 97       		.byte	0x97
 2117 0d7e AA090000 		.4byte	0x9aa
 2118 0d82 B0000000 		.4byte	.LLST4
 2119 0d86 2D       		.uleb128 0x2d
 2120 0d87 93080000 		.4byte	.LASF173
 2121 0d8b 03       		.byte	0x3
 2122 0d8c 98       		.byte	0x98
 2123 0d8d D8080000 		.4byte	0x8d8
 2124 0d91 CE000000 		.4byte	.LLST5
 2125 0d95 24       		.uleb128 0x24
 2126 0d96 12060000 		.4byte	.LASF152
 2127 0d9a F90D0000 		.4byte	0xdf9
 2128 0d9e 29       		.uleb128 0x29
 2129 0d9f AE0A0000 		.4byte	0xaae
 2130 0da3 04000000 		.4byte	.LBB60
 2131 0da7 04000000 		.4byte	.LBE60-.LBB60
 2132 0dab 03       		.byte	0x3
 2133 0dac 9C       		.byte	0x9c
 2134 0dad BB0D0000 		.4byte	0xdbb
 2135 0db1 25       		.uleb128 0x25
 2136 0db2 08000000 		.4byte	.LVL21
 2137 0db6 C00A0000 		.4byte	0xac0
 2138 0dba 00       		.byte	0
 2139 0dbb 29       		.uleb128 0x29
 2140 0dbc B70A0000 		.4byte	0xab7
 2141 0dc0 1A000000 		.4byte	.LBB62
 2142 0dc4 04000000 		.4byte	.LBE62-.LBB62
 2143 0dc8 03       		.byte	0x3
 2144 0dc9 A3       		.byte	0xa3
 2145 0dca D80D0000 		.4byte	0xdd8
 2146 0dce 25       		.uleb128 0x25
 2147 0dcf 1E000000 		.4byte	.LVL23
 2148 0dd3 0C0B0000 		.4byte	0xb0c
 2149 0dd7 00       		.byte	0
 2150 0dd8 2A       		.uleb128 0x2a
 2151 0dd9 0E000000 		.4byte	.LVL22
 2152 0ddd FD0F0000 		.4byte	0xffd
 2153 0de1 2B       		.uleb128 0x2b
 2154 0de2 01       		.uleb128 0x1
 2155 0de3 50       		.byte	0x50
 2156 0de4 02       		.uleb128 0x2
 2157 0de5 75       		.byte	0x75
 2158 0de6 00       		.sleb128 0
 2159 0de7 00       		.byte	0
 2160 0de8 00       		.byte	0
 2161 0de9 10       		.uleb128 0x10
 2162 0dea AF080000 		.4byte	0x8af
 2163 0dee F90D0000 		.4byte	0xdf9
 2164 0df2 11       		.uleb128 0x11
 2165 0df3 5A040000 		.4byte	0x45a
 2166 0df7 0E       		.byte	0xe
ARM GAS  /tmp/ccpZnBnH.s 			page 39


 2167 0df8 00       		.byte	0
 2168 0df9 18       		.uleb128 0x18
 2169 0dfa E90D0000 		.4byte	0xde9
 2170 0dfe 26       		.uleb128 0x26
 2171 0dff 43080000 		.4byte	.LASF155
 2172 0e03 03       		.byte	0x3
 2173 0e04 AF       		.byte	0xaf
 2174 0e05 00000000 		.4byte	.LFB329
 2175 0e09 1A000000 		.4byte	.LFE329-.LFB329
 2176 0e0d 01       		.uleb128 0x1
 2177 0e0e 9C       		.byte	0x9c
 2178 0e0f 760E0000 		.4byte	0xe76
 2179 0e13 28       		.uleb128 0x28
 2180 0e14 BC050000 		.4byte	.LASF151
 2181 0e18 03       		.byte	0x3
 2182 0e19 AF       		.byte	0xaf
 2183 0e1a AA090000 		.4byte	0x9aa
 2184 0e1e E1000000 		.4byte	.LLST6
 2185 0e22 24       		.uleb128 0x24
 2186 0e23 12060000 		.4byte	.LASF152
 2187 0e27 760E0000 		.4byte	0xe76
 2188 0e2b 29       		.uleb128 0x29
 2189 0e2c AE0A0000 		.4byte	0xaae
 2190 0e30 04000000 		.4byte	.LBB64
 2191 0e34 04000000 		.4byte	.LBE64-.LBB64
 2192 0e38 03       		.byte	0x3
 2193 0e39 B3       		.byte	0xb3
 2194 0e3a 480E0000 		.4byte	0xe48
 2195 0e3e 25       		.uleb128 0x25
 2196 0e3f 08000000 		.4byte	.LVL25
 2197 0e43 C00A0000 		.4byte	0xac0
 2198 0e47 00       		.byte	0
 2199 0e48 29       		.uleb128 0x29
 2200 0e49 B70A0000 		.4byte	0xab7
 2201 0e4d 16000000 		.4byte	.LBB66
 2202 0e51 04000000 		.4byte	.LBE66-.LBB66
 2203 0e55 03       		.byte	0x3
 2204 0e56 B8       		.byte	0xb8
 2205 0e57 650E0000 		.4byte	0xe65
 2206 0e5b 23       		.uleb128 0x23
 2207 0e5c 1A000000 		.4byte	.LVL28
 2208 0e60 0C0B0000 		.4byte	0xb0c
 2209 0e64 00       		.byte	0
 2210 0e65 2A       		.uleb128 0x2a
 2211 0e66 0E000000 		.4byte	.LVL26
 2212 0e6a 13100000 		.4byte	0x1013
 2213 0e6e 2B       		.uleb128 0x2b
 2214 0e6f 01       		.uleb128 0x1
 2215 0e70 50       		.byte	0x50
 2216 0e71 02       		.uleb128 0x2
 2217 0e72 74       		.byte	0x74
 2218 0e73 00       		.sleb128 0
 2219 0e74 00       		.byte	0
 2220 0e75 00       		.byte	0
 2221 0e76 18       		.uleb128 0x18
 2222 0e77 E90D0000 		.4byte	0xde9
 2223 0e7b 26       		.uleb128 0x26
ARM GAS  /tmp/ccpZnBnH.s 			page 40


 2224 0e7c 72050000 		.4byte	.LASF156
 2225 0e80 03       		.byte	0x3
 2226 0e81 C5       		.byte	0xc5
 2227 0e82 00000000 		.4byte	.LFB330
 2228 0e86 16000000 		.4byte	.LFE330-.LFB330
 2229 0e8a 01       		.uleb128 0x1
 2230 0e8b 9C       		.byte	0x9c
 2231 0e8c F30E0000 		.4byte	0xef3
 2232 0e90 28       		.uleb128 0x28
 2233 0e91 BC050000 		.4byte	.LASF151
 2234 0e95 03       		.byte	0x3
 2235 0e96 C5       		.byte	0xc5
 2236 0e97 AA090000 		.4byte	0x9aa
 2237 0e9b 0D010000 		.4byte	.LLST7
 2238 0e9f 24       		.uleb128 0x24
 2239 0ea0 12060000 		.4byte	.LASF152
 2240 0ea4 030F0000 		.4byte	0xf03
 2241 0ea8 29       		.uleb128 0x29
 2242 0ea9 AE0A0000 		.4byte	0xaae
 2243 0ead 04000000 		.4byte	.LBB68
 2244 0eb1 04000000 		.4byte	.LBE68-.LBB68
 2245 0eb5 03       		.byte	0x3
 2246 0eb6 C9       		.byte	0xc9
 2247 0eb7 C50E0000 		.4byte	0xec5
 2248 0ebb 25       		.uleb128 0x25
 2249 0ebc 08000000 		.4byte	.LVL30
 2250 0ec0 C00A0000 		.4byte	0xac0
 2251 0ec4 00       		.byte	0
 2252 0ec5 29       		.uleb128 0x29
 2253 0ec6 B70A0000 		.4byte	0xab7
 2254 0eca 12000000 		.4byte	.LBB70
 2255 0ece 04000000 		.4byte	.LBE70-.LBB70
 2256 0ed2 03       		.byte	0x3
 2257 0ed3 CD       		.byte	0xcd
 2258 0ed4 E20E0000 		.4byte	0xee2
 2259 0ed8 23       		.uleb128 0x23
 2260 0ed9 16000000 		.4byte	.LVL33
 2261 0edd 0C0B0000 		.4byte	0xb0c
 2262 0ee1 00       		.byte	0
 2263 0ee2 2A       		.uleb128 0x2a
 2264 0ee3 0E000000 		.4byte	.LVL31
 2265 0ee7 25100000 		.4byte	0x1025
 2266 0eeb 2B       		.uleb128 0x2b
 2267 0eec 01       		.uleb128 0x1
 2268 0eed 50       		.byte	0x50
 2269 0eee 02       		.uleb128 0x2
 2270 0eef 74       		.byte	0x74
 2271 0ef0 00       		.sleb128 0
 2272 0ef1 00       		.byte	0
 2273 0ef2 00       		.byte	0
 2274 0ef3 10       		.uleb128 0x10
 2275 0ef4 AF080000 		.4byte	0x8af
 2276 0ef8 030F0000 		.4byte	0xf03
 2277 0efc 11       		.uleb128 0x11
 2278 0efd 5A040000 		.4byte	0x45a
 2279 0f01 16       		.byte	0x16
 2280 0f02 00       		.byte	0
ARM GAS  /tmp/ccpZnBnH.s 			page 41


 2281 0f03 18       		.uleb128 0x18
 2282 0f04 F30E0000 		.4byte	0xef3
 2283 0f08 26       		.uleb128 0x26
 2284 0f09 1F040000 		.4byte	.LASF157
 2285 0f0d 03       		.byte	0x3
 2286 0f0e DA       		.byte	0xda
 2287 0f0f 00000000 		.4byte	.LFB331
 2288 0f13 16000000 		.4byte	.LFE331-.LFB331
 2289 0f17 01       		.uleb128 0x1
 2290 0f18 9C       		.byte	0x9c
 2291 0f19 800F0000 		.4byte	0xf80
 2292 0f1d 28       		.uleb128 0x28
 2293 0f1e BC050000 		.4byte	.LASF151
 2294 0f22 03       		.byte	0x3
 2295 0f23 DA       		.byte	0xda
 2296 0f24 AA090000 		.4byte	0x9aa
 2297 0f28 39010000 		.4byte	.LLST8
 2298 0f2c 24       		.uleb128 0x24
 2299 0f2d 12060000 		.4byte	.LASF152
 2300 0f31 900F0000 		.4byte	0xf90
 2301 0f35 29       		.uleb128 0x29
 2302 0f36 AE0A0000 		.4byte	0xaae
 2303 0f3a 04000000 		.4byte	.LBB72
 2304 0f3e 04000000 		.4byte	.LBE72-.LBB72
 2305 0f42 03       		.byte	0x3
 2306 0f43 DE       		.byte	0xde
 2307 0f44 520F0000 		.4byte	0xf52
 2308 0f48 25       		.uleb128 0x25
 2309 0f49 08000000 		.4byte	.LVL35
 2310 0f4d C00A0000 		.4byte	0xac0
 2311 0f51 00       		.byte	0
 2312 0f52 29       		.uleb128 0x29
 2313 0f53 B70A0000 		.4byte	0xab7
 2314 0f57 12000000 		.4byte	.LBB74
 2315 0f5b 04000000 		.4byte	.LBE74-.LBB74
 2316 0f5f 03       		.byte	0x3
 2317 0f60 E2       		.byte	0xe2
 2318 0f61 6F0F0000 		.4byte	0xf6f
 2319 0f65 23       		.uleb128 0x23
 2320 0f66 16000000 		.4byte	.LVL38
 2321 0f6a 0C0B0000 		.4byte	0xb0c
 2322 0f6e 00       		.byte	0
 2323 0f6f 2A       		.uleb128 0x2a
 2324 0f70 0E000000 		.4byte	.LVL36
 2325 0f74 37100000 		.4byte	0x1037
 2326 0f78 2B       		.uleb128 0x2b
 2327 0f79 01       		.uleb128 0x1
 2328 0f7a 50       		.byte	0x50
 2329 0f7b 02       		.uleb128 0x2
 2330 0f7c 74       		.byte	0x74
 2331 0f7d 00       		.sleb128 0
 2332 0f7e 00       		.byte	0
 2333 0f7f 00       		.byte	0
 2334 0f80 10       		.uleb128 0x10
 2335 0f81 AF080000 		.4byte	0x8af
 2336 0f85 900F0000 		.4byte	0xf90
 2337 0f89 11       		.uleb128 0x11
ARM GAS  /tmp/ccpZnBnH.s 			page 42


 2338 0f8a 5A040000 		.4byte	0x45a
 2339 0f8e 17       		.byte	0x17
 2340 0f8f 00       		.byte	0
 2341 0f90 18       		.uleb128 0x18
 2342 0f91 800F0000 		.4byte	0xf80
 2343 0f95 2E       		.uleb128 0x2e
 2344 0f96 2A010000 		.4byte	.LASF158
 2345 0f9a 14       		.byte	0x14
 2346 0f9b 0408     		.2byte	0x804
 2347 0f9d A10F0000 		.4byte	0xfa1
 2348 0fa1 0F       		.uleb128 0xf
 2349 0fa2 A2000000 		.4byte	0xa2
 2350 0fa6 2F       		.uleb128 0x2f
 2351 0fa7 636800   		.ascii	"ch\000"
 2352 0faa 09       		.byte	0x9
 2353 0fab C701     		.2byte	0x1c7
 2354 0fad DE030000 		.4byte	0x3de
 2355 0fb1 30       		.uleb128 0x30
 2356 0fb2 0F080000 		.4byte	.LASF159
 2357 0fb6 0F       		.byte	0xf
 2358 0fb7 4F       		.byte	0x4f
 2359 0fb8 30       		.uleb128 0x30
 2360 0fb9 95040000 		.4byte	.LASF160
 2361 0fbd 0F       		.byte	0xf
 2362 0fbe 50       		.byte	0x50
 2363 0fbf 31       		.uleb128 0x31
 2364 0fc0 2D070000 		.4byte	.LASF161
 2365 0fc4 13       		.byte	0x13
 2366 0fc5 1B02     		.2byte	0x21b
 2367 0fc7 32       		.uleb128 0x32
 2368 0fc8 5A080000 		.4byte	.LASF162
 2369 0fcc 13       		.byte	0x13
 2370 0fcd 1C02     		.2byte	0x21c
 2371 0fcf D90F0000 		.4byte	0xfd9
 2372 0fd3 0D       		.uleb128 0xd
 2373 0fd4 AA090000 		.4byte	0x9aa
 2374 0fd8 00       		.byte	0
 2375 0fd9 32       		.uleb128 0x32
 2376 0fda 20070000 		.4byte	.LASF163
 2377 0fde 13       		.byte	0x13
 2378 0fdf 1D02     		.2byte	0x21d
 2379 0fe1 EB0F0000 		.4byte	0xfeb
 2380 0fe5 0D       		.uleb128 0xd
 2381 0fe6 AA090000 		.4byte	0x9aa
 2382 0fea 00       		.byte	0
 2383 0feb 32       		.uleb128 0x32
 2384 0fec 7F040000 		.4byte	.LASF164
 2385 0ff0 13       		.byte	0x13
 2386 0ff1 1E02     		.2byte	0x21e
 2387 0ff3 FD0F0000 		.4byte	0xffd
 2388 0ff7 0D       		.uleb128 0xd
 2389 0ff8 AA090000 		.4byte	0x9aa
 2390 0ffc 00       		.byte	0
 2391 0ffd 33       		.uleb128 0x33
 2392 0ffe C5070000 		.4byte	.LASF174
 2393 1002 13       		.byte	0x13
 2394 1003 1F02     		.2byte	0x21f
ARM GAS  /tmp/ccpZnBnH.s 			page 43


 2395 1005 D8080000 		.4byte	0x8d8
 2396 1009 13100000 		.4byte	0x1013
 2397 100d 0D       		.uleb128 0xd
 2398 100e AA090000 		.4byte	0x9aa
 2399 1012 00       		.byte	0
 2400 1013 32       		.uleb128 0x32
 2401 1014 61040000 		.4byte	.LASF165
 2402 1018 13       		.byte	0x13
 2403 1019 2002     		.2byte	0x220
 2404 101b 25100000 		.4byte	0x1025
 2405 101f 0D       		.uleb128 0xd
 2406 1020 AA090000 		.4byte	0x9aa
 2407 1024 00       		.byte	0
 2408 1025 32       		.uleb128 0x32
 2409 1026 39000000 		.4byte	.LASF166
 2410 102a 13       		.byte	0x13
 2411 102b 2102     		.2byte	0x221
 2412 102d 37100000 		.4byte	0x1037
 2413 1031 0D       		.uleb128 0xd
 2414 1032 AA090000 		.4byte	0x9aa
 2415 1036 00       		.byte	0
 2416 1037 34       		.uleb128 0x34
 2417 1038 E5040000 		.4byte	.LASF175
 2418 103c 13       		.byte	0x13
 2419 103d 2202     		.2byte	0x222
 2420 103f 0D       		.uleb128 0xd
 2421 1040 AA090000 		.4byte	0x9aa
 2422 1044 00       		.byte	0
 2423 1045 00       		.byte	0
 2424              		.section	.debug_abbrev,"",%progbits
 2425              	.Ldebug_abbrev0:
 2426 0000 01       		.uleb128 0x1
 2427 0001 11       		.uleb128 0x11
 2428 0002 01       		.byte	0x1
 2429 0003 25       		.uleb128 0x25
 2430 0004 0E       		.uleb128 0xe
 2431 0005 13       		.uleb128 0x13
 2432 0006 0B       		.uleb128 0xb
 2433 0007 03       		.uleb128 0x3
 2434 0008 0E       		.uleb128 0xe
 2435 0009 1B       		.uleb128 0x1b
 2436 000a 0E       		.uleb128 0xe
 2437 000b 55       		.uleb128 0x55
 2438 000c 17       		.uleb128 0x17
 2439 000d 11       		.uleb128 0x11
 2440 000e 01       		.uleb128 0x1
 2441 000f 10       		.uleb128 0x10
 2442 0010 17       		.uleb128 0x17
 2443 0011 00       		.byte	0
 2444 0012 00       		.byte	0
 2445 0013 02       		.uleb128 0x2
 2446 0014 24       		.uleb128 0x24
 2447 0015 00       		.byte	0
 2448 0016 0B       		.uleb128 0xb
 2449 0017 0B       		.uleb128 0xb
 2450 0018 3E       		.uleb128 0x3e
 2451 0019 0B       		.uleb128 0xb
ARM GAS  /tmp/ccpZnBnH.s 			page 44


 2452 001a 03       		.uleb128 0x3
 2453 001b 08       		.uleb128 0x8
 2454 001c 00       		.byte	0
 2455 001d 00       		.byte	0
 2456 001e 03       		.uleb128 0x3
 2457 001f 24       		.uleb128 0x24
 2458 0020 00       		.byte	0
 2459 0021 0B       		.uleb128 0xb
 2460 0022 0B       		.uleb128 0xb
 2461 0023 3E       		.uleb128 0x3e
 2462 0024 0B       		.uleb128 0xb
 2463 0025 03       		.uleb128 0x3
 2464 0026 0E       		.uleb128 0xe
 2465 0027 00       		.byte	0
 2466 0028 00       		.byte	0
 2467 0029 04       		.uleb128 0x4
 2468 002a 16       		.uleb128 0x16
 2469 002b 00       		.byte	0
 2470 002c 03       		.uleb128 0x3
 2471 002d 0E       		.uleb128 0xe
 2472 002e 3A       		.uleb128 0x3a
 2473 002f 0B       		.uleb128 0xb
 2474 0030 3B       		.uleb128 0x3b
 2475 0031 0B       		.uleb128 0xb
 2476 0032 49       		.uleb128 0x49
 2477 0033 13       		.uleb128 0x13
 2478 0034 00       		.byte	0
 2479 0035 00       		.byte	0
 2480 0036 05       		.uleb128 0x5
 2481 0037 13       		.uleb128 0x13
 2482 0038 01       		.byte	0x1
 2483 0039 03       		.uleb128 0x3
 2484 003a 0E       		.uleb128 0xe
 2485 003b 0B       		.uleb128 0xb
 2486 003c 0B       		.uleb128 0xb
 2487 003d 3A       		.uleb128 0x3a
 2488 003e 0B       		.uleb128 0xb
 2489 003f 3B       		.uleb128 0x3b
 2490 0040 0B       		.uleb128 0xb
 2491 0041 01       		.uleb128 0x1
 2492 0042 13       		.uleb128 0x13
 2493 0043 00       		.byte	0
 2494 0044 00       		.byte	0
 2495 0045 06       		.uleb128 0x6
 2496 0046 0D       		.uleb128 0xd
 2497 0047 00       		.byte	0
 2498 0048 03       		.uleb128 0x3
 2499 0049 0E       		.uleb128 0xe
 2500 004a 3A       		.uleb128 0x3a
 2501 004b 0B       		.uleb128 0xb
 2502 004c 3B       		.uleb128 0x3b
 2503 004d 0B       		.uleb128 0xb
 2504 004e 49       		.uleb128 0x49
 2505 004f 13       		.uleb128 0x13
 2506 0050 38       		.uleb128 0x38
 2507 0051 0B       		.uleb128 0xb
 2508 0052 00       		.byte	0
ARM GAS  /tmp/ccpZnBnH.s 			page 45


 2509 0053 00       		.byte	0
 2510 0054 07       		.uleb128 0x7
 2511 0055 0D       		.uleb128 0xd
 2512 0056 00       		.byte	0
 2513 0057 03       		.uleb128 0x3
 2514 0058 08       		.uleb128 0x8
 2515 0059 3A       		.uleb128 0x3a
 2516 005a 0B       		.uleb128 0xb
 2517 005b 3B       		.uleb128 0x3b
 2518 005c 0B       		.uleb128 0xb
 2519 005d 49       		.uleb128 0x49
 2520 005e 13       		.uleb128 0x13
 2521 005f 38       		.uleb128 0x38
 2522 0060 0B       		.uleb128 0xb
 2523 0061 00       		.byte	0
 2524 0062 00       		.byte	0
 2525 0063 08       		.uleb128 0x8
 2526 0064 0D       		.uleb128 0xd
 2527 0065 00       		.byte	0
 2528 0066 03       		.uleb128 0x3
 2529 0067 08       		.uleb128 0x8
 2530 0068 3A       		.uleb128 0x3a
 2531 0069 0B       		.uleb128 0xb
 2532 006a 3B       		.uleb128 0x3b
 2533 006b 05       		.uleb128 0x5
 2534 006c 49       		.uleb128 0x49
 2535 006d 13       		.uleb128 0x13
 2536 006e 38       		.uleb128 0x38
 2537 006f 0B       		.uleb128 0xb
 2538 0070 00       		.byte	0
 2539 0071 00       		.byte	0
 2540 0072 09       		.uleb128 0x9
 2541 0073 0D       		.uleb128 0xd
 2542 0074 00       		.byte	0
 2543 0075 03       		.uleb128 0x3
 2544 0076 0E       		.uleb128 0xe
 2545 0077 3A       		.uleb128 0x3a
 2546 0078 0B       		.uleb128 0xb
 2547 0079 3B       		.uleb128 0x3b
 2548 007a 05       		.uleb128 0x5
 2549 007b 49       		.uleb128 0x49
 2550 007c 13       		.uleb128 0x13
 2551 007d 38       		.uleb128 0x38
 2552 007e 0B       		.uleb128 0xb
 2553 007f 00       		.byte	0
 2554 0080 00       		.byte	0
 2555 0081 0A       		.uleb128 0xa
 2556 0082 0F       		.uleb128 0xf
 2557 0083 00       		.byte	0
 2558 0084 0B       		.uleb128 0xb
 2559 0085 0B       		.uleb128 0xb
 2560 0086 49       		.uleb128 0x49
 2561 0087 13       		.uleb128 0x13
 2562 0088 00       		.byte	0
 2563 0089 00       		.byte	0
 2564 008a 0B       		.uleb128 0xb
 2565 008b 13       		.uleb128 0x13
ARM GAS  /tmp/ccpZnBnH.s 			page 46


 2566 008c 01       		.byte	0x1
 2567 008d 03       		.uleb128 0x3
 2568 008e 0E       		.uleb128 0xe
 2569 008f 0B       		.uleb128 0xb
 2570 0090 0B       		.uleb128 0xb
 2571 0091 3A       		.uleb128 0x3a
 2572 0092 0B       		.uleb128 0xb
 2573 0093 3B       		.uleb128 0x3b
 2574 0094 05       		.uleb128 0x5
 2575 0095 01       		.uleb128 0x1
 2576 0096 13       		.uleb128 0x13
 2577 0097 00       		.byte	0
 2578 0098 00       		.byte	0
 2579 0099 0C       		.uleb128 0xc
 2580 009a 15       		.uleb128 0x15
 2581 009b 01       		.byte	0x1
 2582 009c 27       		.uleb128 0x27
 2583 009d 19       		.uleb128 0x19
 2584 009e 01       		.uleb128 0x1
 2585 009f 13       		.uleb128 0x13
 2586 00a0 00       		.byte	0
 2587 00a1 00       		.byte	0
 2588 00a2 0D       		.uleb128 0xd
 2589 00a3 05       		.uleb128 0x5
 2590 00a4 00       		.byte	0
 2591 00a5 49       		.uleb128 0x49
 2592 00a6 13       		.uleb128 0x13
 2593 00a7 00       		.byte	0
 2594 00a8 00       		.byte	0
 2595 00a9 0E       		.uleb128 0xe
 2596 00aa 0F       		.uleb128 0xf
 2597 00ab 00       		.byte	0
 2598 00ac 0B       		.uleb128 0xb
 2599 00ad 0B       		.uleb128 0xb
 2600 00ae 00       		.byte	0
 2601 00af 00       		.byte	0
 2602 00b0 0F       		.uleb128 0xf
 2603 00b1 35       		.uleb128 0x35
 2604 00b2 00       		.byte	0
 2605 00b3 49       		.uleb128 0x49
 2606 00b4 13       		.uleb128 0x13
 2607 00b5 00       		.byte	0
 2608 00b6 00       		.byte	0
 2609 00b7 10       		.uleb128 0x10
 2610 00b8 01       		.uleb128 0x1
 2611 00b9 01       		.byte	0x1
 2612 00ba 49       		.uleb128 0x49
 2613 00bb 13       		.uleb128 0x13
 2614 00bc 01       		.uleb128 0x1
 2615 00bd 13       		.uleb128 0x13
 2616 00be 00       		.byte	0
 2617 00bf 00       		.byte	0
 2618 00c0 11       		.uleb128 0x11
 2619 00c1 21       		.uleb128 0x21
 2620 00c2 00       		.byte	0
 2621 00c3 49       		.uleb128 0x49
 2622 00c4 13       		.uleb128 0x13
ARM GAS  /tmp/ccpZnBnH.s 			page 47


 2623 00c5 2F       		.uleb128 0x2f
 2624 00c6 0B       		.uleb128 0xb
 2625 00c7 00       		.byte	0
 2626 00c8 00       		.byte	0
 2627 00c9 12       		.uleb128 0x12
 2628 00ca 13       		.uleb128 0x13
 2629 00cb 01       		.byte	0x1
 2630 00cc 0B       		.uleb128 0xb
 2631 00cd 0B       		.uleb128 0xb
 2632 00ce 3A       		.uleb128 0x3a
 2633 00cf 0B       		.uleb128 0xb
 2634 00d0 3B       		.uleb128 0x3b
 2635 00d1 05       		.uleb128 0x5
 2636 00d2 01       		.uleb128 0x1
 2637 00d3 13       		.uleb128 0x13
 2638 00d4 00       		.byte	0
 2639 00d5 00       		.byte	0
 2640 00d6 13       		.uleb128 0x13
 2641 00d7 16       		.uleb128 0x16
 2642 00d8 00       		.byte	0
 2643 00d9 03       		.uleb128 0x3
 2644 00da 0E       		.uleb128 0xe
 2645 00db 3A       		.uleb128 0x3a
 2646 00dc 0B       		.uleb128 0xb
 2647 00dd 3B       		.uleb128 0x3b
 2648 00de 05       		.uleb128 0x5
 2649 00df 49       		.uleb128 0x49
 2650 00e0 13       		.uleb128 0x13
 2651 00e1 00       		.byte	0
 2652 00e2 00       		.byte	0
 2653 00e3 14       		.uleb128 0x14
 2654 00e4 13       		.uleb128 0x13
 2655 00e5 01       		.byte	0x1
 2656 00e6 0B       		.uleb128 0xb
 2657 00e7 0B       		.uleb128 0xb
 2658 00e8 3A       		.uleb128 0x3a
 2659 00e9 0B       		.uleb128 0xb
 2660 00ea 3B       		.uleb128 0x3b
 2661 00eb 0B       		.uleb128 0xb
 2662 00ec 01       		.uleb128 0x1
 2663 00ed 13       		.uleb128 0x13
 2664 00ee 00       		.byte	0
 2665 00ef 00       		.byte	0
 2666 00f0 15       		.uleb128 0x15
 2667 00f1 17       		.uleb128 0x17
 2668 00f2 01       		.byte	0x1
 2669 00f3 0B       		.uleb128 0xb
 2670 00f4 0B       		.uleb128 0xb
 2671 00f5 3A       		.uleb128 0x3a
 2672 00f6 0B       		.uleb128 0xb
 2673 00f7 3B       		.uleb128 0x3b
 2674 00f8 0B       		.uleb128 0xb
 2675 00f9 01       		.uleb128 0x1
 2676 00fa 13       		.uleb128 0x13
 2677 00fb 00       		.byte	0
 2678 00fc 00       		.byte	0
 2679 00fd 16       		.uleb128 0x16
ARM GAS  /tmp/ccpZnBnH.s 			page 48


 2680 00fe 0D       		.uleb128 0xd
 2681 00ff 00       		.byte	0
 2682 0100 03       		.uleb128 0x3
 2683 0101 0E       		.uleb128 0xe
 2684 0102 3A       		.uleb128 0x3a
 2685 0103 0B       		.uleb128 0xb
 2686 0104 3B       		.uleb128 0x3b
 2687 0105 0B       		.uleb128 0xb
 2688 0106 49       		.uleb128 0x49
 2689 0107 13       		.uleb128 0x13
 2690 0108 00       		.byte	0
 2691 0109 00       		.byte	0
 2692 010a 17       		.uleb128 0x17
 2693 010b 0D       		.uleb128 0xd
 2694 010c 00       		.byte	0
 2695 010d 03       		.uleb128 0x3
 2696 010e 0E       		.uleb128 0xe
 2697 010f 3A       		.uleb128 0x3a
 2698 0110 0B       		.uleb128 0xb
 2699 0111 3B       		.uleb128 0x3b
 2700 0112 05       		.uleb128 0x5
 2701 0113 49       		.uleb128 0x49
 2702 0114 13       		.uleb128 0x13
 2703 0115 00       		.byte	0
 2704 0116 00       		.byte	0
 2705 0117 18       		.uleb128 0x18
 2706 0118 26       		.uleb128 0x26
 2707 0119 00       		.byte	0
 2708 011a 49       		.uleb128 0x49
 2709 011b 13       		.uleb128 0x13
 2710 011c 00       		.byte	0
 2711 011d 00       		.byte	0
 2712 011e 19       		.uleb128 0x19
 2713 011f 04       		.uleb128 0x4
 2714 0120 01       		.byte	0x1
 2715 0121 0B       		.uleb128 0xb
 2716 0122 0B       		.uleb128 0xb
 2717 0123 3A       		.uleb128 0x3a
 2718 0124 0B       		.uleb128 0xb
 2719 0125 3B       		.uleb128 0x3b
 2720 0126 0B       		.uleb128 0xb
 2721 0127 01       		.uleb128 0x1
 2722 0128 13       		.uleb128 0x13
 2723 0129 00       		.byte	0
 2724 012a 00       		.byte	0
 2725 012b 1A       		.uleb128 0x1a
 2726 012c 28       		.uleb128 0x28
 2727 012d 00       		.byte	0
 2728 012e 03       		.uleb128 0x3
 2729 012f 0E       		.uleb128 0xe
 2730 0130 1C       		.uleb128 0x1c
 2731 0131 0D       		.uleb128 0xd
 2732 0132 00       		.byte	0
 2733 0133 00       		.byte	0
 2734 0134 1B       		.uleb128 0x1b
 2735 0135 04       		.uleb128 0x4
 2736 0136 01       		.byte	0x1
ARM GAS  /tmp/ccpZnBnH.s 			page 49


 2737 0137 0B       		.uleb128 0xb
 2738 0138 0B       		.uleb128 0xb
 2739 0139 3A       		.uleb128 0x3a
 2740 013a 0B       		.uleb128 0xb
 2741 013b 3B       		.uleb128 0x3b
 2742 013c 05       		.uleb128 0x5
 2743 013d 01       		.uleb128 0x1
 2744 013e 13       		.uleb128 0x13
 2745 013f 00       		.byte	0
 2746 0140 00       		.byte	0
 2747 0141 1C       		.uleb128 0x1c
 2748 0142 2E       		.uleb128 0x2e
 2749 0143 01       		.byte	0x1
 2750 0144 03       		.uleb128 0x3
 2751 0145 0E       		.uleb128 0xe
 2752 0146 3A       		.uleb128 0x3a
 2753 0147 0B       		.uleb128 0xb
 2754 0148 3B       		.uleb128 0x3b
 2755 0149 05       		.uleb128 0x5
 2756 014a 27       		.uleb128 0x27
 2757 014b 19       		.uleb128 0x19
 2758 014c 20       		.uleb128 0x20
 2759 014d 0B       		.uleb128 0xb
 2760 014e 01       		.uleb128 0x1
 2761 014f 13       		.uleb128 0x13
 2762 0150 00       		.byte	0
 2763 0151 00       		.byte	0
 2764 0152 1D       		.uleb128 0x1d
 2765 0153 05       		.uleb128 0x5
 2766 0154 00       		.byte	0
 2767 0155 03       		.uleb128 0x3
 2768 0156 0E       		.uleb128 0xe
 2769 0157 3A       		.uleb128 0x3a
 2770 0158 0B       		.uleb128 0xb
 2771 0159 3B       		.uleb128 0x3b
 2772 015a 05       		.uleb128 0x5
 2773 015b 49       		.uleb128 0x49
 2774 015c 13       		.uleb128 0x13
 2775 015d 00       		.byte	0
 2776 015e 00       		.byte	0
 2777 015f 1E       		.uleb128 0x1e
 2778 0160 2E       		.uleb128 0x2e
 2779 0161 00       		.byte	0
 2780 0162 03       		.uleb128 0x3
 2781 0163 0E       		.uleb128 0xe
 2782 0164 3A       		.uleb128 0x3a
 2783 0165 0B       		.uleb128 0xb
 2784 0166 3B       		.uleb128 0x3b
 2785 0167 05       		.uleb128 0x5
 2786 0168 27       		.uleb128 0x27
 2787 0169 19       		.uleb128 0x19
 2788 016a 20       		.uleb128 0x20
 2789 016b 0B       		.uleb128 0xb
 2790 016c 00       		.byte	0
 2791 016d 00       		.byte	0
 2792 016e 1F       		.uleb128 0x1f
 2793 016f 2E       		.uleb128 0x2e
ARM GAS  /tmp/ccpZnBnH.s 			page 50


 2794 0170 01       		.byte	0x1
 2795 0171 03       		.uleb128 0x3
 2796 0172 0E       		.uleb128 0xe
 2797 0173 3A       		.uleb128 0x3a
 2798 0174 0B       		.uleb128 0xb
 2799 0175 3B       		.uleb128 0x3b
 2800 0176 05       		.uleb128 0x5
 2801 0177 27       		.uleb128 0x27
 2802 0178 19       		.uleb128 0x19
 2803 0179 11       		.uleb128 0x11
 2804 017a 01       		.uleb128 0x1
 2805 017b 12       		.uleb128 0x12
 2806 017c 06       		.uleb128 0x6
 2807 017d 40       		.uleb128 0x40
 2808 017e 18       		.uleb128 0x18
 2809 017f 9742     		.uleb128 0x2117
 2810 0181 19       		.uleb128 0x19
 2811 0182 01       		.uleb128 0x1
 2812 0183 13       		.uleb128 0x13
 2813 0184 00       		.byte	0
 2814 0185 00       		.byte	0
 2815 0186 20       		.uleb128 0x20
 2816 0187 1D       		.uleb128 0x1d
 2817 0188 01       		.byte	0x1
 2818 0189 31       		.uleb128 0x31
 2819 018a 13       		.uleb128 0x13
 2820 018b 11       		.uleb128 0x11
 2821 018c 01       		.uleb128 0x1
 2822 018d 12       		.uleb128 0x12
 2823 018e 06       		.uleb128 0x6
 2824 018f 58       		.uleb128 0x58
 2825 0190 0B       		.uleb128 0xb
 2826 0191 59       		.uleb128 0x59
 2827 0192 05       		.uleb128 0x5
 2828 0193 01       		.uleb128 0x1
 2829 0194 13       		.uleb128 0x13
 2830 0195 00       		.byte	0
 2831 0196 00       		.byte	0
 2832 0197 21       		.uleb128 0x21
 2833 0198 1D       		.uleb128 0x1d
 2834 0199 01       		.byte	0x1
 2835 019a 31       		.uleb128 0x31
 2836 019b 13       		.uleb128 0x13
 2837 019c 11       		.uleb128 0x11
 2838 019d 01       		.uleb128 0x1
 2839 019e 12       		.uleb128 0x12
 2840 019f 06       		.uleb128 0x6
 2841 01a0 58       		.uleb128 0x58
 2842 01a1 0B       		.uleb128 0xb
 2843 01a2 59       		.uleb128 0x59
 2844 01a3 05       		.uleb128 0x5
 2845 01a4 00       		.byte	0
 2846 01a5 00       		.byte	0
 2847 01a6 22       		.uleb128 0x22
 2848 01a7 05       		.uleb128 0x5
 2849 01a8 00       		.byte	0
 2850 01a9 31       		.uleb128 0x31
ARM GAS  /tmp/ccpZnBnH.s 			page 51


 2851 01aa 13       		.uleb128 0x13
 2852 01ab 1C       		.uleb128 0x1c
 2853 01ac 0B       		.uleb128 0xb
 2854 01ad 00       		.byte	0
 2855 01ae 00       		.byte	0
 2856 01af 23       		.uleb128 0x23
 2857 01b0 898201   		.uleb128 0x4109
 2858 01b3 00       		.byte	0
 2859 01b4 11       		.uleb128 0x11
 2860 01b5 01       		.uleb128 0x1
 2861 01b6 9542     		.uleb128 0x2115
 2862 01b8 19       		.uleb128 0x19
 2863 01b9 31       		.uleb128 0x31
 2864 01ba 13       		.uleb128 0x13
 2865 01bb 00       		.byte	0
 2866 01bc 00       		.byte	0
 2867 01bd 24       		.uleb128 0x24
 2868 01be 34       		.uleb128 0x34
 2869 01bf 00       		.byte	0
 2870 01c0 03       		.uleb128 0x3
 2871 01c1 0E       		.uleb128 0xe
 2872 01c2 49       		.uleb128 0x49
 2873 01c3 13       		.uleb128 0x13
 2874 01c4 34       		.uleb128 0x34
 2875 01c5 19       		.uleb128 0x19
 2876 01c6 00       		.byte	0
 2877 01c7 00       		.byte	0
 2878 01c8 25       		.uleb128 0x25
 2879 01c9 898201   		.uleb128 0x4109
 2880 01cc 00       		.byte	0
 2881 01cd 11       		.uleb128 0x11
 2882 01ce 01       		.uleb128 0x1
 2883 01cf 31       		.uleb128 0x31
 2884 01d0 13       		.uleb128 0x13
 2885 01d1 00       		.byte	0
 2886 01d2 00       		.byte	0
 2887 01d3 26       		.uleb128 0x26
 2888 01d4 2E       		.uleb128 0x2e
 2889 01d5 01       		.byte	0x1
 2890 01d6 3F       		.uleb128 0x3f
 2891 01d7 19       		.uleb128 0x19
 2892 01d8 03       		.uleb128 0x3
 2893 01d9 0E       		.uleb128 0xe
 2894 01da 3A       		.uleb128 0x3a
 2895 01db 0B       		.uleb128 0xb
 2896 01dc 3B       		.uleb128 0x3b
 2897 01dd 0B       		.uleb128 0xb
 2898 01de 27       		.uleb128 0x27
 2899 01df 19       		.uleb128 0x19
 2900 01e0 11       		.uleb128 0x11
 2901 01e1 01       		.uleb128 0x1
 2902 01e2 12       		.uleb128 0x12
 2903 01e3 06       		.uleb128 0x6
 2904 01e4 40       		.uleb128 0x40
 2905 01e5 18       		.uleb128 0x18
 2906 01e6 9742     		.uleb128 0x2117
 2907 01e8 19       		.uleb128 0x19
ARM GAS  /tmp/ccpZnBnH.s 			page 52


 2908 01e9 01       		.uleb128 0x1
 2909 01ea 13       		.uleb128 0x13
 2910 01eb 00       		.byte	0
 2911 01ec 00       		.byte	0
 2912 01ed 27       		.uleb128 0x27
 2913 01ee 05       		.uleb128 0x5
 2914 01ef 00       		.byte	0
 2915 01f0 03       		.uleb128 0x3
 2916 01f1 0E       		.uleb128 0xe
 2917 01f2 3A       		.uleb128 0x3a
 2918 01f3 0B       		.uleb128 0xb
 2919 01f4 3B       		.uleb128 0x3b
 2920 01f5 0B       		.uleb128 0xb
 2921 01f6 49       		.uleb128 0x49
 2922 01f7 13       		.uleb128 0x13
 2923 01f8 02       		.uleb128 0x2
 2924 01f9 18       		.uleb128 0x18
 2925 01fa 00       		.byte	0
 2926 01fb 00       		.byte	0
 2927 01fc 28       		.uleb128 0x28
 2928 01fd 05       		.uleb128 0x5
 2929 01fe 00       		.byte	0
 2930 01ff 03       		.uleb128 0x3
 2931 0200 0E       		.uleb128 0xe
 2932 0201 3A       		.uleb128 0x3a
 2933 0202 0B       		.uleb128 0xb
 2934 0203 3B       		.uleb128 0x3b
 2935 0204 0B       		.uleb128 0xb
 2936 0205 49       		.uleb128 0x49
 2937 0206 13       		.uleb128 0x13
 2938 0207 02       		.uleb128 0x2
 2939 0208 17       		.uleb128 0x17
 2940 0209 00       		.byte	0
 2941 020a 00       		.byte	0
 2942 020b 29       		.uleb128 0x29
 2943 020c 1D       		.uleb128 0x1d
 2944 020d 01       		.byte	0x1
 2945 020e 31       		.uleb128 0x31
 2946 020f 13       		.uleb128 0x13
 2947 0210 11       		.uleb128 0x11
 2948 0211 01       		.uleb128 0x1
 2949 0212 12       		.uleb128 0x12
 2950 0213 06       		.uleb128 0x6
 2951 0214 58       		.uleb128 0x58
 2952 0215 0B       		.uleb128 0xb
 2953 0216 59       		.uleb128 0x59
 2954 0217 0B       		.uleb128 0xb
 2955 0218 01       		.uleb128 0x1
 2956 0219 13       		.uleb128 0x13
 2957 021a 00       		.byte	0
 2958 021b 00       		.byte	0
 2959 021c 2A       		.uleb128 0x2a
 2960 021d 898201   		.uleb128 0x4109
 2961 0220 01       		.byte	0x1
 2962 0221 11       		.uleb128 0x11
 2963 0222 01       		.uleb128 0x1
 2964 0223 31       		.uleb128 0x31
ARM GAS  /tmp/ccpZnBnH.s 			page 53


 2965 0224 13       		.uleb128 0x13
 2966 0225 00       		.byte	0
 2967 0226 00       		.byte	0
 2968 0227 2B       		.uleb128 0x2b
 2969 0228 8A8201   		.uleb128 0x410a
 2970 022b 00       		.byte	0
 2971 022c 02       		.uleb128 0x2
 2972 022d 18       		.uleb128 0x18
 2973 022e 9142     		.uleb128 0x2111
 2974 0230 18       		.uleb128 0x18
 2975 0231 00       		.byte	0
 2976 0232 00       		.byte	0
 2977 0233 2C       		.uleb128 0x2c
 2978 0234 2E       		.uleb128 0x2e
 2979 0235 01       		.byte	0x1
 2980 0236 3F       		.uleb128 0x3f
 2981 0237 19       		.uleb128 0x19
 2982 0238 03       		.uleb128 0x3
 2983 0239 0E       		.uleb128 0xe
 2984 023a 3A       		.uleb128 0x3a
 2985 023b 0B       		.uleb128 0xb
 2986 023c 3B       		.uleb128 0x3b
 2987 023d 0B       		.uleb128 0xb
 2988 023e 27       		.uleb128 0x27
 2989 023f 19       		.uleb128 0x19
 2990 0240 49       		.uleb128 0x49
 2991 0241 13       		.uleb128 0x13
 2992 0242 11       		.uleb128 0x11
 2993 0243 01       		.uleb128 0x1
 2994 0244 12       		.uleb128 0x12
 2995 0245 06       		.uleb128 0x6
 2996 0246 40       		.uleb128 0x40
 2997 0247 18       		.uleb128 0x18
 2998 0248 9742     		.uleb128 0x2117
 2999 024a 19       		.uleb128 0x19
 3000 024b 01       		.uleb128 0x1
 3001 024c 13       		.uleb128 0x13
 3002 024d 00       		.byte	0
 3003 024e 00       		.byte	0
 3004 024f 2D       		.uleb128 0x2d
 3005 0250 34       		.uleb128 0x34
 3006 0251 00       		.byte	0
 3007 0252 03       		.uleb128 0x3
 3008 0253 0E       		.uleb128 0xe
 3009 0254 3A       		.uleb128 0x3a
 3010 0255 0B       		.uleb128 0xb
 3011 0256 3B       		.uleb128 0x3b
 3012 0257 0B       		.uleb128 0xb
 3013 0258 49       		.uleb128 0x49
 3014 0259 13       		.uleb128 0x13
 3015 025a 02       		.uleb128 0x2
 3016 025b 17       		.uleb128 0x17
 3017 025c 00       		.byte	0
 3018 025d 00       		.byte	0
 3019 025e 2E       		.uleb128 0x2e
 3020 025f 34       		.uleb128 0x34
 3021 0260 00       		.byte	0
ARM GAS  /tmp/ccpZnBnH.s 			page 54


 3022 0261 03       		.uleb128 0x3
 3023 0262 0E       		.uleb128 0xe
 3024 0263 3A       		.uleb128 0x3a
 3025 0264 0B       		.uleb128 0xb
 3026 0265 3B       		.uleb128 0x3b
 3027 0266 05       		.uleb128 0x5
 3028 0267 49       		.uleb128 0x49
 3029 0268 13       		.uleb128 0x13
 3030 0269 3F       		.uleb128 0x3f
 3031 026a 19       		.uleb128 0x19
 3032 026b 3C       		.uleb128 0x3c
 3033 026c 19       		.uleb128 0x19
 3034 026d 00       		.byte	0
 3035 026e 00       		.byte	0
 3036 026f 2F       		.uleb128 0x2f
 3037 0270 34       		.uleb128 0x34
 3038 0271 00       		.byte	0
 3039 0272 03       		.uleb128 0x3
 3040 0273 08       		.uleb128 0x8
 3041 0274 3A       		.uleb128 0x3a
 3042 0275 0B       		.uleb128 0xb
 3043 0276 3B       		.uleb128 0x3b
 3044 0277 05       		.uleb128 0x5
 3045 0278 49       		.uleb128 0x49
 3046 0279 13       		.uleb128 0x13
 3047 027a 3F       		.uleb128 0x3f
 3048 027b 19       		.uleb128 0x19
 3049 027c 3C       		.uleb128 0x3c
 3050 027d 19       		.uleb128 0x19
 3051 027e 00       		.byte	0
 3052 027f 00       		.byte	0
 3053 0280 30       		.uleb128 0x30
 3054 0281 2E       		.uleb128 0x2e
 3055 0282 00       		.byte	0
 3056 0283 3F       		.uleb128 0x3f
 3057 0284 19       		.uleb128 0x19
 3058 0285 03       		.uleb128 0x3
 3059 0286 0E       		.uleb128 0xe
 3060 0287 3A       		.uleb128 0x3a
 3061 0288 0B       		.uleb128 0xb
 3062 0289 3B       		.uleb128 0x3b
 3063 028a 0B       		.uleb128 0xb
 3064 028b 27       		.uleb128 0x27
 3065 028c 19       		.uleb128 0x19
 3066 028d 3C       		.uleb128 0x3c
 3067 028e 19       		.uleb128 0x19
 3068 028f 00       		.byte	0
 3069 0290 00       		.byte	0
 3070 0291 31       		.uleb128 0x31
 3071 0292 2E       		.uleb128 0x2e
 3072 0293 00       		.byte	0
 3073 0294 3F       		.uleb128 0x3f
 3074 0295 19       		.uleb128 0x19
 3075 0296 03       		.uleb128 0x3
 3076 0297 0E       		.uleb128 0xe
 3077 0298 3A       		.uleb128 0x3a
 3078 0299 0B       		.uleb128 0xb
ARM GAS  /tmp/ccpZnBnH.s 			page 55


 3079 029a 3B       		.uleb128 0x3b
 3080 029b 05       		.uleb128 0x5
 3081 029c 27       		.uleb128 0x27
 3082 029d 19       		.uleb128 0x19
 3083 029e 3C       		.uleb128 0x3c
 3084 029f 19       		.uleb128 0x19
 3085 02a0 00       		.byte	0
 3086 02a1 00       		.byte	0
 3087 02a2 32       		.uleb128 0x32
 3088 02a3 2E       		.uleb128 0x2e
 3089 02a4 01       		.byte	0x1
 3090 02a5 3F       		.uleb128 0x3f
 3091 02a6 19       		.uleb128 0x19
 3092 02a7 03       		.uleb128 0x3
 3093 02a8 0E       		.uleb128 0xe
 3094 02a9 3A       		.uleb128 0x3a
 3095 02aa 0B       		.uleb128 0xb
 3096 02ab 3B       		.uleb128 0x3b
 3097 02ac 05       		.uleb128 0x5
 3098 02ad 27       		.uleb128 0x27
 3099 02ae 19       		.uleb128 0x19
 3100 02af 3C       		.uleb128 0x3c
 3101 02b0 19       		.uleb128 0x19
 3102 02b1 01       		.uleb128 0x1
 3103 02b2 13       		.uleb128 0x13
 3104 02b3 00       		.byte	0
 3105 02b4 00       		.byte	0
 3106 02b5 33       		.uleb128 0x33
 3107 02b6 2E       		.uleb128 0x2e
 3108 02b7 01       		.byte	0x1
 3109 02b8 3F       		.uleb128 0x3f
 3110 02b9 19       		.uleb128 0x19
 3111 02ba 03       		.uleb128 0x3
 3112 02bb 0E       		.uleb128 0xe
 3113 02bc 3A       		.uleb128 0x3a
 3114 02bd 0B       		.uleb128 0xb
 3115 02be 3B       		.uleb128 0x3b
 3116 02bf 05       		.uleb128 0x5
 3117 02c0 27       		.uleb128 0x27
 3118 02c1 19       		.uleb128 0x19
 3119 02c2 49       		.uleb128 0x49
 3120 02c3 13       		.uleb128 0x13
 3121 02c4 3C       		.uleb128 0x3c
 3122 02c5 19       		.uleb128 0x19
 3123 02c6 01       		.uleb128 0x1
 3124 02c7 13       		.uleb128 0x13
 3125 02c8 00       		.byte	0
 3126 02c9 00       		.byte	0
 3127 02ca 34       		.uleb128 0x34
 3128 02cb 2E       		.uleb128 0x2e
 3129 02cc 01       		.byte	0x1
 3130 02cd 3F       		.uleb128 0x3f
 3131 02ce 19       		.uleb128 0x19
 3132 02cf 03       		.uleb128 0x3
 3133 02d0 0E       		.uleb128 0xe
 3134 02d1 3A       		.uleb128 0x3a
 3135 02d2 0B       		.uleb128 0xb
ARM GAS  /tmp/ccpZnBnH.s 			page 56


 3136 02d3 3B       		.uleb128 0x3b
 3137 02d4 05       		.uleb128 0x5
 3138 02d5 27       		.uleb128 0x27
 3139 02d6 19       		.uleb128 0x19
 3140 02d7 3C       		.uleb128 0x3c
 3141 02d8 19       		.uleb128 0x19
 3142 02d9 00       		.byte	0
 3143 02da 00       		.byte	0
 3144 02db 00       		.byte	0
 3145              		.section	.debug_loc,"",%progbits
 3146              	.Ldebug_loc0:
 3147              	.LLST0:
 3148 0000 00000000 		.4byte	.LVL5
 3149 0004 09000000 		.4byte	.LVL6-1
 3150 0008 0100     		.2byte	0x1
 3151 000a 50       		.byte	0x50
 3152 000b 09000000 		.4byte	.LVL6-1
 3153 000f 1A000000 		.4byte	.LVL8
 3154 0013 0100     		.2byte	0x1
 3155 0015 54       		.byte	0x54
 3156 0016 1A000000 		.4byte	.LVL8
 3157 001a 1E000000 		.4byte	.LFE325
 3158 001e 0400     		.2byte	0x4
 3159 0020 F3       		.byte	0xf3
 3160 0021 01       		.uleb128 0x1
 3161 0022 50       		.byte	0x50
 3162 0023 9F       		.byte	0x9f
 3163 0024 00000000 		.4byte	0
 3164 0028 00000000 		.4byte	0
 3165              	.LLST1:
 3166 002c 00000000 		.4byte	.LVL5
 3167 0030 09000000 		.4byte	.LVL6-1
 3168 0034 0100     		.2byte	0x1
 3169 0036 51       		.byte	0x51
 3170 0037 09000000 		.4byte	.LVL6-1
 3171 003b 1A000000 		.4byte	.LVL8
 3172 003f 0100     		.2byte	0x1
 3173 0041 55       		.byte	0x55
 3174 0042 1A000000 		.4byte	.LVL8
 3175 0046 1E000000 		.4byte	.LFE325
 3176 004a 0400     		.2byte	0x4
 3177 004c F3       		.byte	0xf3
 3178 004d 01       		.uleb128 0x1
 3179 004e 51       		.byte	0x51
 3180 004f 9F       		.byte	0x9f
 3181 0050 00000000 		.4byte	0
 3182 0054 00000000 		.4byte	0
 3183              	.LLST2:
 3184 0058 00000000 		.4byte	.LVL10
 3185 005c 07000000 		.4byte	.LVL11-1
 3186 0060 0100     		.2byte	0x1
 3187 0062 50       		.byte	0x50
 3188 0063 07000000 		.4byte	.LVL11-1
 3189 0067 1A000000 		.4byte	.LVL13
 3190 006b 0100     		.2byte	0x1
 3191 006d 54       		.byte	0x54
 3192 006e 1A000000 		.4byte	.LVL13
ARM GAS  /tmp/ccpZnBnH.s 			page 57


 3193 0072 1E000000 		.4byte	.LFE326
 3194 0076 0400     		.2byte	0x4
 3195 0078 F3       		.byte	0xf3
 3196 0079 01       		.uleb128 0x1
 3197 007a 50       		.byte	0x50
 3198 007b 9F       		.byte	0x9f
 3199 007c 00000000 		.4byte	0
 3200 0080 00000000 		.4byte	0
 3201              	.LLST3:
 3202 0084 00000000 		.4byte	.LVL15
 3203 0088 07000000 		.4byte	.LVL16-1
 3204 008c 0100     		.2byte	0x1
 3205 008e 50       		.byte	0x50
 3206 008f 07000000 		.4byte	.LVL16-1
 3207 0093 16000000 		.4byte	.LVL18
 3208 0097 0100     		.2byte	0x1
 3209 0099 54       		.byte	0x54
 3210 009a 16000000 		.4byte	.LVL18
 3211 009e 1A000000 		.4byte	.LFE327
 3212 00a2 0400     		.2byte	0x4
 3213 00a4 F3       		.byte	0xf3
 3214 00a5 01       		.uleb128 0x1
 3215 00a6 50       		.byte	0x50
 3216 00a7 9F       		.byte	0x9f
 3217 00a8 00000000 		.4byte	0
 3218 00ac 00000000 		.4byte	0
 3219              	.LLST4:
 3220 00b0 00000000 		.4byte	.LVL20
 3221 00b4 07000000 		.4byte	.LVL21-1
 3222 00b8 0100     		.2byte	0x1
 3223 00ba 50       		.byte	0x50
 3224 00bb 07000000 		.4byte	.LVL21-1
 3225 00bf 22000000 		.4byte	.LFE328
 3226 00c3 0100     		.2byte	0x1
 3227 00c5 55       		.byte	0x55
 3228 00c6 00000000 		.4byte	0
 3229 00ca 00000000 		.4byte	0
 3230              	.LLST5:
 3231 00ce 0E000000 		.4byte	.LVL22
 3232 00d2 1D000000 		.4byte	.LVL23-1
 3233 00d6 0100     		.2byte	0x1
 3234 00d8 50       		.byte	0x50
 3235 00d9 00000000 		.4byte	0
 3236 00dd 00000000 		.4byte	0
 3237              	.LLST6:
 3238 00e1 00000000 		.4byte	.LVL24
 3239 00e5 07000000 		.4byte	.LVL25-1
 3240 00e9 0100     		.2byte	0x1
 3241 00eb 50       		.byte	0x50
 3242 00ec 07000000 		.4byte	.LVL25-1
 3243 00f0 16000000 		.4byte	.LVL27
 3244 00f4 0100     		.2byte	0x1
 3245 00f6 54       		.byte	0x54
 3246 00f7 16000000 		.4byte	.LVL27
 3247 00fb 1A000000 		.4byte	.LFE329
 3248 00ff 0400     		.2byte	0x4
 3249 0101 F3       		.byte	0xf3
ARM GAS  /tmp/ccpZnBnH.s 			page 58


 3250 0102 01       		.uleb128 0x1
 3251 0103 50       		.byte	0x50
 3252 0104 9F       		.byte	0x9f
 3253 0105 00000000 		.4byte	0
 3254 0109 00000000 		.4byte	0
 3255              	.LLST7:
 3256 010d 00000000 		.4byte	.LVL29
 3257 0111 07000000 		.4byte	.LVL30-1
 3258 0115 0100     		.2byte	0x1
 3259 0117 50       		.byte	0x50
 3260 0118 07000000 		.4byte	.LVL30-1
 3261 011c 12000000 		.4byte	.LVL32
 3262 0120 0100     		.2byte	0x1
 3263 0122 54       		.byte	0x54
 3264 0123 12000000 		.4byte	.LVL32
 3265 0127 16000000 		.4byte	.LFE330
 3266 012b 0400     		.2byte	0x4
 3267 012d F3       		.byte	0xf3
 3268 012e 01       		.uleb128 0x1
 3269 012f 50       		.byte	0x50
 3270 0130 9F       		.byte	0x9f
 3271 0131 00000000 		.4byte	0
 3272 0135 00000000 		.4byte	0
 3273              	.LLST8:
 3274 0139 00000000 		.4byte	.LVL34
 3275 013d 07000000 		.4byte	.LVL35-1
 3276 0141 0100     		.2byte	0x1
 3277 0143 50       		.byte	0x50
 3278 0144 07000000 		.4byte	.LVL35-1
 3279 0148 12000000 		.4byte	.LVL37
 3280 014c 0100     		.2byte	0x1
 3281 014e 54       		.byte	0x54
 3282 014f 12000000 		.4byte	.LVL37
 3283 0153 16000000 		.4byte	.LFE331
 3284 0157 0400     		.2byte	0x4
 3285 0159 F3       		.byte	0xf3
 3286 015a 01       		.uleb128 0x1
 3287 015b 50       		.byte	0x50
 3288 015c 9F       		.byte	0x9f
 3289 015d 00000000 		.4byte	0
 3290 0161 00000000 		.4byte	0
 3291              		.section	.debug_aranges,"",%progbits
 3292 0000 6C000000 		.4byte	0x6c
 3293 0004 0200     		.2byte	0x2
 3294 0006 00000000 		.4byte	.Ldebug_info0
 3295 000a 04       		.byte	0x4
 3296 000b 00       		.byte	0
 3297 000c 0000     		.2byte	0
 3298 000e 0000     		.2byte	0
 3299 0010 00000000 		.4byte	.LFB184
 3300 0014 0A000000 		.4byte	.LFE184-.LFB184
 3301 0018 00000000 		.4byte	.LFB185
 3302 001c 0E000000 		.4byte	.LFE185-.LFB185
 3303 0020 00000000 		.4byte	.LFB323
 3304 0024 04000000 		.4byte	.LFE323-.LFB323
 3305 0028 00000000 		.4byte	.LFB324
 3306 002c 0A000000 		.4byte	.LFE324-.LFB324
ARM GAS  /tmp/ccpZnBnH.s 			page 59


 3307 0030 00000000 		.4byte	.LFB325
 3308 0034 1E000000 		.4byte	.LFE325-.LFB325
 3309 0038 00000000 		.4byte	.LFB326
 3310 003c 1E000000 		.4byte	.LFE326-.LFB326
 3311 0040 00000000 		.4byte	.LFB327
 3312 0044 1A000000 		.4byte	.LFE327-.LFB327
 3313 0048 00000000 		.4byte	.LFB328
 3314 004c 22000000 		.4byte	.LFE328-.LFB328
 3315 0050 00000000 		.4byte	.LFB329
 3316 0054 1A000000 		.4byte	.LFE329-.LFB329
 3317 0058 00000000 		.4byte	.LFB330
 3318 005c 16000000 		.4byte	.LFE330-.LFB330
 3319 0060 00000000 		.4byte	.LFB331
 3320 0064 16000000 		.4byte	.LFE331-.LFB331
 3321 0068 00000000 		.4byte	0
 3322 006c 00000000 		.4byte	0
 3323              		.section	.debug_ranges,"",%progbits
 3324              	.Ldebug_ranges0:
 3325 0000 00000000 		.4byte	.LFB184
 3326 0004 0A000000 		.4byte	.LFE184
 3327 0008 00000000 		.4byte	.LFB185
 3328 000c 0E000000 		.4byte	.LFE185
 3329 0010 00000000 		.4byte	.LFB323
 3330 0014 04000000 		.4byte	.LFE323
 3331 0018 00000000 		.4byte	.LFB324
 3332 001c 0A000000 		.4byte	.LFE324
 3333 0020 00000000 		.4byte	.LFB325
 3334 0024 1E000000 		.4byte	.LFE325
 3335 0028 00000000 		.4byte	.LFB326
 3336 002c 1E000000 		.4byte	.LFE326
 3337 0030 00000000 		.4byte	.LFB327
 3338 0034 1A000000 		.4byte	.LFE327
 3339 0038 00000000 		.4byte	.LFB328
 3340 003c 22000000 		.4byte	.LFE328
 3341 0040 00000000 		.4byte	.LFB329
 3342 0044 1A000000 		.4byte	.LFE329
 3343 0048 00000000 		.4byte	.LFB330
 3344 004c 16000000 		.4byte	.LFE330
 3345 0050 00000000 		.4byte	.LFB331
 3346 0054 16000000 		.4byte	.LFE331
 3347 0058 00000000 		.4byte	0
 3348 005c 00000000 		.4byte	0
 3349              		.section	.debug_line,"",%progbits
 3350              	.Ldebug_line0:
 3351 0000 2A040000 		.section	.debug_str,"MS",%progbits,1
 3351      0200B702 
 3351      00000201 
 3351      FB0E0D00 
 3351      01010101 
 3352              	.LASF127:
 3353 0000 4943555F 		.ascii	"ICU_INPUT_ACTIVE_HIGH\000"
 3353      494E5055 
 3353      545F4143 
 3353      54495645 
 3353      5F484947 
 3354              	.LASF52:
 3355 0016 72656164 		.ascii	"ready_list_t\000"
ARM GAS  /tmp/ccpZnBnH.s 			page 60


 3355      795F6C69 
 3355      73745F74 
 3355      00
 3356              	.LASF80:
 3357 0023 44494552 		.ascii	"DIER\000"
 3357      00
 3358              	.LASF104:
 3359 0028 77747472 		.ascii	"wttrp\000"
 3359      7000
 3360              	.LASF48:
 3361 002e 6E657874 		.ascii	"next\000"
 3361      00
 3362              	.LASF58:
 3363 0033 64656C74 		.ascii	"delta\000"
 3363      6100
 3364              	.LASF166:
 3365 0039 6963755F 		.ascii	"icu_lld_enable_notifications\000"
 3365      6C6C645F 
 3365      656E6162 
 3365      6C655F6E 
 3365      6F746966 
 3366              	.LASF16:
 3367 0056 75696E74 		.ascii	"uint64_t\000"
 3367      36345F74 
 3367      00
 3368              	.LASF71:
 3369 005f 6B65726E 		.ascii	"kernel_stats\000"
 3369      656C5F73 
 3369      74617473 
 3369      00
 3370              	.LASF118:
 3371 006c 4943555F 		.ascii	"ICU_WAITING\000"
 3371      57414954 
 3371      494E4700 
 3372              	.LASF119:
 3373 0078 4943555F 		.ascii	"ICU_ACTIVE\000"
 3373      41435449 
 3373      564500
 3374              	.LASF5:
 3375 0083 5F5F7569 		.ascii	"__uint8_t\000"
 3375      6E74385F 
 3375      7400
 3376              	.LASF51:
 3377 008d 70726576 		.ascii	"prev\000"
 3377      00
 3378              	.LASF78:
 3379 0092 706F7274 		.ascii	"port_intctx\000"
 3379      5F696E74 
 3379      63747800 
 3380              	.LASF50:
 3381 009e 63685F74 		.ascii	"ch_threads_queue\000"
 3381      68726561 
 3381      64735F71 
 3381      75657565 
 3381      00
 3382              	.LASF63:
 3383 00af 73797374 		.ascii	"system_debug_t\000"
ARM GAS  /tmp/ccpZnBnH.s 			page 61


 3383      656D5F64 
 3383      65627567 
 3383      5F7400
 3384              	.LASF148:
 3385 00be 69637549 		.ascii	"icuInit\000"
 3385      6E697400 
 3386              	.LASF142:
 3387 00c6 706F7274 		.ascii	"port_lock\000"
 3387      5F6C6F63 
 3387      6B00
 3388              	.LASF92:
 3389 00d0 776F7273 		.ascii	"worst\000"
 3389      7400
 3390              	.LASF120:
 3391 00d6 69637573 		.ascii	"icustate_t\000"
 3391      74617465 
 3391      5F7400
 3392              	.LASF12:
 3393 00e1 6C6F6E67 		.ascii	"long long unsigned int\000"
 3393      206C6F6E 
 3393      6720756E 
 3393      7369676E 
 3393      65642069 
 3394              	.LASF102:
 3395 00f8 65786974 		.ascii	"exitcode\000"
 3395      636F6465 
 3395      00
 3396              	.LASF70:
 3397 0101 6D61696E 		.ascii	"mainthread\000"
 3397      74687265 
 3397      616400
 3398              	.LASF105:
 3399 010c 73656E74 		.ascii	"sentmsg\000"
 3399      6D736700 
 3400              	.LASF60:
 3401 0114 76697274 		.ascii	"virtual_timers_list_t\000"
 3401      75616C5F 
 3401      74696D65 
 3401      72735F6C 
 3401      6973745F 
 3402              	.LASF158:
 3403 012a 49544D5F 		.ascii	"ITM_RxBuffer\000"
 3403      52784275 
 3403      66666572 
 3403      00
 3404              	.LASF84:
 3405 0137 42445452 		.ascii	"BDTR\000"
 3405      00
 3406              	.LASF18:
 3407 013c 72747469 		.ascii	"rttime_t\000"
 3407      6D655F74 
 3407      00
 3408              	.LASF4:
 3409 0145 73686F72 		.ascii	"short unsigned int\000"
 3409      7420756E 
 3409      7369676E 
 3409      65642069 
ARM GAS  /tmp/ccpZnBnH.s 			page 62


 3409      6E7400
 3410              	.LASF95:
 3411 0158 74696D65 		.ascii	"time_measurement_t\000"
 3411      5F6D6561 
 3411      73757265 
 3411      6D656E74 
 3411      5F7400
 3412              	.LASF81:
 3413 016b 43434D52 		.ascii	"CCMR1\000"
 3413      3100
 3414              	.LASF82:
 3415 0171 43434D52 		.ascii	"CCMR2\000"
 3415      3200
 3416              	.LASF86:
 3417 0177 43434D52 		.ascii	"CCMR3\000"
 3417      3300
 3418              	.LASF1:
 3419 017d 7369676E 		.ascii	"signed char\000"
 3419      65642063 
 3419      68617200 
 3420              	.LASF141:
 3421 0189 49435543 		.ascii	"ICUConfig\000"
 3421      6F6E6669 
 3421      6700
 3422              	.LASF68:
 3423 0193 726C6973 		.ascii	"rlist\000"
 3423      7400
 3424              	.LASF171:
 3425 0199 62617365 		.ascii	"basePri\000"
 3425      50726900 
 3426              	.LASF69:
 3427 01a1 76746C69 		.ascii	"vtlist\000"
 3427      737400
 3428              	.LASF143:
 3429 01a8 706F7274 		.ascii	"port_unlock\000"
 3429      5F756E6C 
 3429      6F636B00 
 3430              	.LASF38:
 3431 01b4 6D736771 		.ascii	"msgqueue\000"
 3431      75657565 
 3431      00
 3432              	.LASF34:
 3433 01bd 73746174 		.ascii	"state\000"
 3433      6500
 3434              	.LASF7:
 3435 01c3 6C6F6E67 		.ascii	"long int\000"
 3435      20696E74 
 3435      00
 3436              	.LASF20:
 3437 01cc 74737461 		.ascii	"tstate_t\000"
 3437      74655F74 
 3437      00
 3438              	.LASF59:
 3439 01d5 66756E63 		.ascii	"func\000"
 3439      00
 3440              	.LASF43:
 3441 01da 73746174 		.ascii	"stats\000"
ARM GAS  /tmp/ccpZnBnH.s 			page 63


 3441      7300
 3442              	.LASF150:
 3443 01e0 69637553 		.ascii	"icuStart\000"
 3443      74617274 
 3443      00
 3444              	.LASF8:
 3445 01e9 5F5F7569 		.ascii	"__uint32_t\000"
 3445      6E743332 
 3445      5F7400
 3446              	.LASF75:
 3447 01f4 72656761 		.ascii	"regarm_t\000"
 3447      726D5F74 
 3447      00
 3448              	.LASF64:
 3449 01fd 63685F73 		.ascii	"ch_system_debug\000"
 3449      79737465 
 3449      6D5F6465 
 3449      62756700 
 3450              	.LASF37:
 3451 020d 77616974 		.ascii	"waiting\000"
 3451      696E6700 
 3452              	.LASF144:
 3453 0215 6F73616C 		.ascii	"osalSysLock\000"
 3453      5379734C 
 3453      6F636B00 
 3454              	.LASF10:
 3455 0221 6C6F6E67 		.ascii	"long long int\000"
 3455      206C6F6E 
 3455      6720696E 
 3455      7400
 3456              	.LASF73:
 3457 022f 73797369 		.ascii	"sysinterval_t\000"
 3457      6E746572 
 3457      76616C5F 
 3457      7400
 3458              	.LASF25:
 3459 023d 636E745F 		.ascii	"cnt_t\000"
 3459      7400
 3460              	.LASF0:
 3461 0243 756E7369 		.ascii	"unsigned int\000"
 3461      676E6564 
 3461      20696E74 
 3461      00
 3462              	.LASF167:
 3463 0250 474E5520 		.ascii	"GNU C 4.9.3 20150529 (prerelease) -mcpu=cortex-m4 -"
 3463      4320342E 
 3463      392E3320 
 3463      32303135 
 3463      30353239 
 3464 0283 6D666C6F 		.ascii	"mfloat-abi=hard -mfpu=fpv4-sp-d16 -mno-thumb-interw"
 3464      61742D61 
 3464      62693D68 
 3464      61726420 
 3464      2D6D6670 
 3465 02b6 6F726B20 		.ascii	"ork -mthumb -g -Os -fomit-frame-pointer -falign-fun"
 3465      2D6D7468 
 3465      756D6220 
ARM GAS  /tmp/ccpZnBnH.s 			page 64


 3465      2D67202D 
 3465      4F73202D 
 3466 02e9 6374696F 		.ascii	"ctions=16 -ffunction-sections -fdata-sections -fno-"
 3466      6E733D31 
 3466      36202D66 
 3466      66756E63 
 3466      74696F6E 
 3467 031c 636F6D6D 		.ascii	"common -fsingle-precision-constant\000"
 3467      6F6E202D 
 3467      6673696E 
 3467      676C652D 
 3467      70726563 
 3468              	.LASF106:
 3469 033f 77747365 		.ascii	"wtsemp\000"
 3469      6D7000
 3470              	.LASF126:
 3471 0346 69637563 		.ascii	"icucallback_t\000"
 3471      616C6C62 
 3471      61636B5F 
 3471      7400
 3472              	.LASF46:
 3473 0354 63685F74 		.ascii	"ch_thread\000"
 3473      68726561 
 3473      6400
 3474              	.LASF137:
 3475 035e 70657269 		.ascii	"period_cb\000"
 3475      6F645F63 
 3475      6200
 3476              	.LASF96:
 3477 0368 6E5F6972 		.ascii	"n_irq\000"
 3477      7100
 3478              	.LASF28:
 3479 036e 71756575 		.ascii	"queue\000"
 3479      6500
 3480              	.LASF42:
 3481 0374 6D706F6F 		.ascii	"mpool\000"
 3481      6C00
 3482              	.LASF91:
 3483 037a 62657374 		.ascii	"best\000"
 3483      00
 3484              	.LASF138:
 3485 037f 6F766572 		.ascii	"overflow_cb\000"
 3485      666C6F77 
 3485      5F636200 
 3486              	.LASF100:
 3487 038b 6B65726E 		.ascii	"kernel_stats_t\000"
 3487      656C5F73 
 3487      74617473 
 3487      5F7400
 3488              	.LASF32:
 3489 039a 6E616D65 		.ascii	"name\000"
 3489      00
 3490              	.LASF23:
 3491 039f 6D73675F 		.ascii	"msg_t\000"
 3491      7400
 3492              	.LASF93:
 3493 03a5 6C617374 		.ascii	"last\000"
ARM GAS  /tmp/ccpZnBnH.s 			page 65


 3493      00
 3494              	.LASF135:
 3495 03aa 66726571 		.ascii	"frequency\000"
 3495      75656E63 
 3495      7900
 3496              	.LASF26:
 3497 03b4 75636E74 		.ascii	"ucnt_t\000"
 3497      5F7400
 3498              	.LASF39:
 3499 03bb 6570656E 		.ascii	"epending\000"
 3499      64696E67 
 3499      00
 3500              	.LASF66:
 3501 03c4 63685F73 		.ascii	"ch_system_t\000"
 3501      79737465 
 3501      6D5F7400 
 3502              	.LASF121:
 3503 03d0 49435544 		.ascii	"ICUDriver\000"
 3503      72697665 
 3503      7200
 3504              	.LASF88:
 3505 03da 73746D33 		.ascii	"stm32_tim_t\000"
 3505      325F7469 
 3505      6D5F7400 
 3506              	.LASF99:
 3507 03e6 6D5F6372 		.ascii	"m_crit_isr\000"
 3507      69745F69 
 3507      737200
 3508              	.LASF53:
 3509 03f1 63685F72 		.ascii	"ch_ready_list\000"
 3509      65616479 
 3509      5F6C6973 
 3509      7400
 3510              	.LASF24:
 3511 03ff 6576656E 		.ascii	"eventmask_t\000"
 3511      746D6173 
 3511      6B5F7400 
 3512              	.LASF3:
 3513 040b 73686F72 		.ascii	"short int\000"
 3513      7420696E 
 3513      7400
 3514              	.LASF6:
 3515 0415 5F5F696E 		.ascii	"__int32_t\000"
 3515      7433325F 
 3515      7400
 3516              	.LASF157:
 3517 041f 69637544 		.ascii	"icuDisableNotifications\000"
 3517      69736162 
 3517      6C654E6F 
 3517      74696669 
 3517      63617469 
 3518              	.LASF172:
 3519 0437 69637557 		.ascii	"icuWaitCapture\000"
 3519      61697443 
 3519      61707475 
 3519      726500
 3520              	.LASF117:
ARM GAS  /tmp/ccpZnBnH.s 			page 66


 3521 0446 4943555F 		.ascii	"ICU_READY\000"
 3521      52454144 
 3521      5900
 3522              	.LASF76:
 3523 0450 73746B61 		.ascii	"stkalign_t\000"
 3523      6C69676E 
 3523      5F7400
 3524              	.LASF30:
 3525 045b 6E657765 		.ascii	"newer\000"
 3525      7200
 3526              	.LASF165:
 3527 0461 6963755F 		.ascii	"icu_lld_stop_capture\000"
 3527      6C6C645F 
 3527      73746F70 
 3527      5F636170 
 3527      74757265 
 3528              	.LASF41:
 3529 0476 7265616C 		.ascii	"realprio\000"
 3529      7072696F 
 3529      00
 3530              	.LASF164:
 3531 047f 6963755F 		.ascii	"icu_lld_start_capture\000"
 3531      6C6C645F 
 3531      73746172 
 3531      745F6361 
 3531      70747572 
 3532              	.LASF160:
 3533 0495 5F737461 		.ascii	"_stats_stop_measure_crit_thd\000"
 3533      74735F73 
 3533      746F705F 
 3533      6D656173 
 3533      7572655F 
 3534              	.LASF74:
 3535 04b2 73697A65 		.ascii	"sizetype\000"
 3535      74797065 
 3535      00
 3536              	.LASF44:
 3537 04bb 74687265 		.ascii	"thread_reference_t\000"
 3537      61645F72 
 3537      65666572 
 3537      656E6365 
 3537      5F7400
 3538              	.LASF61:
 3539 04ce 63685F76 		.ascii	"ch_virtual_timers_list\000"
 3539      69727475 
 3539      616C5F74 
 3539      696D6572 
 3539      735F6C69 
 3540              	.LASF175:
 3541 04e5 6963755F 		.ascii	"icu_lld_disable_notifications\000"
 3541      6C6C645F 
 3541      64697361 
 3541      626C655F 
 3541      6E6F7469 
 3542              	.LASF136:
 3543 0503 77696474 		.ascii	"width_cb\000"
 3543      685F6362 
ARM GAS  /tmp/ccpZnBnH.s 			page 67


 3543      00
 3544              	.LASF101:
 3545 050c 7264796D 		.ascii	"rdymsg\000"
 3545      736700
 3546              	.LASF77:
 3547 0513 706F7274 		.ascii	"port_context\000"
 3547      5F636F6E 
 3547      74657874 
 3547      00
 3548              	.LASF116:
 3549 0520 4943555F 		.ascii	"ICU_STOP\000"
 3549      53544F50 
 3549      00
 3550              	.LASF90:
 3551 0529 746D5F63 		.ascii	"tm_calibration_t\000"
 3551      616C6962 
 3551      72617469 
 3551      6F6E5F74 
 3551      00
 3552              	.LASF128:
 3553 053a 4943555F 		.ascii	"ICU_INPUT_ACTIVE_LOW\000"
 3553      494E5055 
 3553      545F4143 
 3553      54495645 
 3553      5F4C4F57 
 3554              	.LASF29:
 3555 054f 7072696F 		.ascii	"prio\000"
 3555      00
 3556              	.LASF54:
 3557 0554 63757272 		.ascii	"current\000"
 3557      656E7400 
 3558              	.LASF11:
 3559 055c 5F5F7569 		.ascii	"__uint64_t\000"
 3559      6E743634 
 3559      5F7400
 3560              	.LASF94:
 3561 0567 63756D75 		.ascii	"cumulative\000"
 3561      6C617469 
 3561      766500
 3562              	.LASF156:
 3563 0572 69637545 		.ascii	"icuEnableNotifications\000"
 3563      6E61626C 
 3563      654E6F74 
 3563      69666963 
 3563      6174696F 
 3564              	.LASF21:
 3565 0589 74726566 		.ascii	"trefs_t\000"
 3565      735F7400 
 3566              	.LASF125:
 3567 0591 70636372 		.ascii	"pccrp\000"
 3567      7000
 3568              	.LASF36:
 3569 0597 72656673 		.ascii	"refs\000"
 3569      00
 3570              	.LASF56:
 3571 059c 76697274 		.ascii	"virtual_timer_t\000"
 3571      75616C5F 
ARM GAS  /tmp/ccpZnBnH.s 			page 68


 3571      74696D65 
 3571      725F7400 
 3572              	.LASF40:
 3573 05ac 6D74786C 		.ascii	"mtxlist\000"
 3573      69737400 
 3574              	.LASF22:
 3575 05b4 74707269 		.ascii	"tprio_t\000"
 3575      6F5F7400 
 3576              	.LASF151:
 3577 05bc 69637570 		.ascii	"icup\000"
 3577      00
 3578              	.LASF97:
 3579 05c1 6E5F6374 		.ascii	"n_ctxswc\000"
 3579      78737763 
 3579      00
 3580              	.LASF114:
 3581 05ca 5F426F6F 		.ascii	"_Bool\000"
 3581      6C00
 3582              	.LASF14:
 3583 05d0 696E7433 		.ascii	"int32_t\000"
 3583      325F7400 
 3584              	.LASF2:
 3585 05d8 756E7369 		.ascii	"unsigned char\000"
 3585      676E6564 
 3585      20636861 
 3585      7200
 3586              	.LASF129:
 3587 05e6 6963756D 		.ascii	"icumode_t\000"
 3587      6F64655F 
 3587      7400
 3588              	.LASF62:
 3589 05f0 6C617374 		.ascii	"lasttime\000"
 3589      74696D65 
 3589      00
 3590              	.LASF153:
 3591 05f9 69637553 		.ascii	"icuStop\000"
 3591      746F7000 
 3592              	.LASF108:
 3593 0601 65776D61 		.ascii	"ewmask\000"
 3593      736B00
 3594              	.LASF67:
 3595 0608 63685F73 		.ascii	"ch_system\000"
 3595      79737465 
 3595      6D00
 3596              	.LASF152:
 3597 0612 5F5F6675 		.ascii	"__func__\000"
 3597      6E635F5F 
 3597      00
 3598              	.LASF146:
 3599 061b 63685379 		.ascii	"chSysLock\000"
 3599      734C6F63 
 3599      6B00
 3600              	.LASF145:
 3601 0625 6F73616C 		.ascii	"osalSysUnlock\000"
 3601      53797355 
 3601      6E6C6F63 
 3601      6B00
ARM GAS  /tmp/ccpZnBnH.s 			page 69


 3602              	.LASF133:
 3603 0633 69637563 		.ascii	"icuchannel_t\000"
 3603      68616E6E 
 3603      656C5F74 
 3603      00
 3604              	.LASF139:
 3605 0640 6368616E 		.ascii	"channel\000"
 3605      6E656C00 
 3606              	.LASF57:
 3607 0648 63685F76 		.ascii	"ch_virtual_timer\000"
 3607      69727475 
 3607      616C5F74 
 3607      696D6572 
 3607      00
 3608              	.LASF109:
 3609 0659 63685F73 		.ascii	"ch_semaphore\000"
 3609      656D6170 
 3609      686F7265 
 3609      00
 3610              	.LASF87:
 3611 0666 43435852 		.ascii	"CCXR\000"
 3611      00
 3612              	.LASF149:
 3613 066b 6963754F 		.ascii	"icuObjectInit\000"
 3613      626A6563 
 3613      74496E69 
 3613      7400
 3614              	.LASF107:
 3615 0679 77746D74 		.ascii	"wtmtxp\000"
 3615      787000
 3616              	.LASF47:
 3617 0680 63685F74 		.ascii	"ch_threads_list\000"
 3617      68726561 
 3617      64735F6C 
 3617      69737400 
 3618              	.LASF111:
 3619 0690 6F776E65 		.ascii	"owner\000"
 3619      7200
 3620              	.LASF9:
 3621 0696 6C6F6E67 		.ascii	"long unsigned int\000"
 3621      20756E73 
 3621      69676E65 
 3621      6420696E 
 3621      7400
 3622              	.LASF33:
 3623 06a8 77616261 		.ascii	"wabase\000"
 3623      736500
 3624              	.LASF112:
 3625 06af 63686172 		.ascii	"char\000"
 3625      00
 3626              	.LASF31:
 3627 06b4 6F6C6465 		.ascii	"older\000"
 3627      7200
 3628              	.LASF134:
 3629 06ba 6D6F6465 		.ascii	"mode\000"
 3629      00
 3630              	.LASF79:
ARM GAS  /tmp/ccpZnBnH.s 			page 70


 3631 06bf 534D4352 		.ascii	"SMCR\000"
 3631      00
 3632              	.LASF122:
 3633 06c4 636F6E66 		.ascii	"config\000"
 3633      696700
 3634              	.LASF85:
 3635 06cb 444D4152 		.ascii	"DMAR\000"
 3635      00
 3636              	.LASF27:
 3637 06d0 74687265 		.ascii	"thread_t\000"
 3637      61645F74 
 3637      00
 3638              	.LASF83:
 3639 06d9 43434552 		.ascii	"CCER\000"
 3639      00
 3640              	.LASF72:
 3641 06de 73797374 		.ascii	"systime_t\000"
 3641      696D655F 
 3641      7400
 3642              	.LASF55:
 3643 06e8 76746675 		.ascii	"vtfunc_t\000"
 3643      6E635F74 
 3643      00
 3644              	.LASF170:
 3645 06f1 5F5F7365 		.ascii	"__set_BASEPRI\000"
 3645      745F4241 
 3645      53455052 
 3645      4900
 3646              	.LASF65:
 3647 06ff 70616E69 		.ascii	"panic_msg\000"
 3647      635F6D73 
 3647      6700
 3648              	.LASF89:
 3649 0709 6F666673 		.ascii	"offset\000"
 3649      657400
 3650              	.LASF154:
 3651 0710 69637553 		.ascii	"icuStartCapture\000"
 3651      74617274 
 3651      43617074 
 3651      75726500 
 3652              	.LASF163:
 3653 0720 6963755F 		.ascii	"icu_lld_stop\000"
 3653      6C6C645F 
 3653      73746F70 
 3653      00
 3654              	.LASF161:
 3655 072d 6963755F 		.ascii	"icu_lld_init\000"
 3655      6C6C645F 
 3655      696E6974 
 3655      00
 3656              	.LASF169:
 3657 073a 2F686F6D 		.ascii	"/home/kozinalexey/f4by/ardupilot/build/F4BY\000"
 3657      652F6B6F 
 3657      7A696E61 
 3657      6C657865 
 3657      792F6634 
 3658              	.LASF130:
ARM GAS  /tmp/ccpZnBnH.s 			page 71


 3659 0766 69637566 		.ascii	"icufreq_t\000"
 3659      7265715F 
 3659      7400
 3660              	.LASF17:
 3661 0770 7274636E 		.ascii	"rtcnt_t\000"
 3661      745F7400 
 3662              	.LASF15:
 3663 0778 75696E74 		.ascii	"uint32_t\000"
 3663      33325F74 
 3663      00
 3664              	.LASF49:
 3665 0781 74687265 		.ascii	"threads_queue_t\000"
 3665      6164735F 
 3665      71756575 
 3665      655F7400 
 3666              	.LASF110:
 3667 0791 63685F6D 		.ascii	"ch_mutex\000"
 3667      75746578 
 3667      00
 3668              	.LASF168:
 3669 079a 2E2E2F2E 		.ascii	"../../modules/ChibiOS/os/hal/src/hal_icu.c\000"
 3669      2E2F6D6F 
 3669      64756C65 
 3669      732F4368 
 3669      6962694F 
 3670              	.LASF174:
 3671 07c5 6963755F 		.ascii	"icu_lld_wait_capture\000"
 3671      6C6C645F 
 3671      77616974 
 3671      5F636170 
 3671      74757265 
 3672              	.LASF115:
 3673 07da 4943555F 		.ascii	"ICU_UNINIT\000"
 3673      554E494E 
 3673      495400
 3674              	.LASF131:
 3675 07e5 4943555F 		.ascii	"ICU_CHANNEL_1\000"
 3675      4348414E 
 3675      4E454C5F 
 3675      3100
 3676              	.LASF132:
 3677 07f3 4943555F 		.ascii	"ICU_CHANNEL_2\000"
 3677      4348414E 
 3677      4E454C5F 
 3677      3200
 3678              	.LASF13:
 3679 0801 75696E74 		.ascii	"uint8_t\000"
 3679      385F7400 
 3680              	.LASF35:
 3681 0809 666C6167 		.ascii	"flags\000"
 3681      7300
 3682              	.LASF159:
 3683 080f 5F737461 		.ascii	"_stats_start_measure_crit_thd\000"
 3683      74735F73 
 3683      74617274 
 3683      5F6D6561 
 3683      73757265 
ARM GAS  /tmp/ccpZnBnH.s 			page 72


 3684              	.LASF103:
 3685 082d 77746F62 		.ascii	"wtobjp\000"
 3685      6A7000
 3686              	.LASF45:
 3687 0834 74687265 		.ascii	"threads_list_t\000"
 3687      6164735F 
 3687      6C697374 
 3687      5F7400
 3688              	.LASF155:
 3689 0843 69637553 		.ascii	"icuStopCapture\000"
 3689      746F7043 
 3689      61707475 
 3689      726500
 3690              	.LASF19:
 3691 0852 746D6F64 		.ascii	"tmode_t\000"
 3691      655F7400 
 3692              	.LASF162:
 3693 085a 6963755F 		.ascii	"icu_lld_start\000"
 3693      6C6C645F 
 3693      73746172 
 3693      7400
 3694              	.LASF147:
 3695 0868 63685379 		.ascii	"chSysUnlock\000"
 3695      73556E6C 
 3695      6F636B00 
 3696              	.LASF123:
 3697 0874 636C6F63 		.ascii	"clock\000"
 3697      6B00
 3698              	.LASF124:
 3699 087a 77636372 		.ascii	"wccrp\000"
 3699      7000
 3700              	.LASF113:
 3701 0880 6D757465 		.ascii	"mutex_t\000"
 3701      785F7400 
 3702              	.LASF98:
 3703 0888 6D5F6372 		.ascii	"m_crit_thd\000"
 3703      69745F74 
 3703      686400
 3704              	.LASF173:
 3705 0893 72657375 		.ascii	"result\000"
 3705      6C7400
 3706              	.LASF140:
 3707 089a 64696572 		.ascii	"dier\000"
 3707      00
 3708              		.ident	"GCC: (15:4.9.3+svn231177-1) 4.9.3 20150529 (prerelease)"
ARM GAS  /tmp/ccpZnBnH.s 			page 73


DEFINED SYMBOLS
                            *ABS*:0000000000000000 hal_icu.c
     /tmp/ccpZnBnH.s:21     .text.chSysLock:0000000000000000 $t
     /tmp/ccpZnBnH.s:25     .text.chSysLock:0000000000000000 chSysLock
     /tmp/ccpZnBnH.s:54     .text.chSysUnlock:0000000000000000 $t
     /tmp/ccpZnBnH.s:58     .text.chSysUnlock:0000000000000000 chSysUnlock
     /tmp/ccpZnBnH.s:88     .text.icuInit:0000000000000000 $t
     /tmp/ccpZnBnH.s:93     .text.icuInit:0000000000000000 icuInit
     /tmp/ccpZnBnH.s:108    .text.icuObjectInit:0000000000000000 $t
     /tmp/ccpZnBnH.s:113    .text.icuObjectInit:0000000000000000 icuObjectInit
     /tmp/ccpZnBnH.s:132    .text.icuStart:0000000000000000 $t
     /tmp/ccpZnBnH.s:137    .text.icuStart:0000000000000000 icuStart
     /tmp/ccpZnBnH.s:189    .text.icuStop:0000000000000000 $t
     /tmp/ccpZnBnH.s:194    .text.icuStop:0000000000000000 icuStop
     /tmp/ccpZnBnH.s:241    .text.icuStartCapture:0000000000000000 $t
     /tmp/ccpZnBnH.s:246    .text.icuStartCapture:0000000000000000 icuStartCapture
     /tmp/ccpZnBnH.s:289    .text.icuWaitCapture:0000000000000000 $t
     /tmp/ccpZnBnH.s:294    .text.icuWaitCapture:0000000000000000 icuWaitCapture
     /tmp/ccpZnBnH.s:341    .text.icuStopCapture:0000000000000000 $t
     /tmp/ccpZnBnH.s:346    .text.icuStopCapture:0000000000000000 icuStopCapture
     /tmp/ccpZnBnH.s:389    .text.icuEnableNotifications:0000000000000000 $t
     /tmp/ccpZnBnH.s:394    .text.icuEnableNotifications:0000000000000000 icuEnableNotifications
     /tmp/ccpZnBnH.s:435    .text.icuDisableNotifications:0000000000000000 $t
     /tmp/ccpZnBnH.s:440    .text.icuDisableNotifications:0000000000000000 icuDisableNotifications
                     .debug_frame:0000000000000010 $d

UNDEFINED SYMBOLS
_stats_start_measure_crit_thd
_stats_stop_measure_crit_thd
icu_lld_init
icu_lld_start
icu_lld_stop
icu_lld_start_capture
icu_lld_wait_capture
icu_lld_stop_capture
icu_lld_enable_notifications
icu_lld_disable_notifications
